
avrfreertos.elf:     file format elf32-avr

Sections:
Idx Name          Size      VMA       LMA       File off  Algn
  0 .data         00000246  00800100  00004ca4  00004d38  2**0
                  CONTENTS, ALLOC, LOAD, DATA
  1 .text         00004ca4  00000000  00000000  00000094  2**1
                  CONTENTS, ALLOC, LOAD, READONLY, CODE
  2 .bss          000003c0  00800346  00800346  00004f7e  2**0
                  ALLOC
  3 .comment      00000011  00000000  00000000  00004f7e  2**0
                  CONTENTS, READONLY

Disassembly of section .text:

00000000 <.text>:
       0:	0c 94 6d 00 	jmp	0xda	;  0xda
       4:	0c 94 aa 23 	jmp	0x4754	;  0x4754
       8:	0c 94 d7 23 	jmp	0x47ae	;  0x47ae
       c:	0c 94 95 00 	jmp	0x12a	;  0x12a
      10:	0c 94 95 00 	jmp	0x12a	;  0x12a
      14:	0c 94 95 00 	jmp	0x12a	;  0x12a
      18:	0c 94 95 00 	jmp	0x12a	;  0x12a
      1c:	0c 94 4e 23 	jmp	0x469c	;  0x469c
      20:	0c 94 95 00 	jmp	0x12a	;  0x12a
      24:	0c 94 95 00 	jmp	0x12a	;  0x12a
      28:	0c 94 95 00 	jmp	0x12a	;  0x12a
      2c:	0c 94 95 00 	jmp	0x12a	;  0x12a
      30:	0c 94 95 00 	jmp	0x12a	;  0x12a
      34:	0c 94 95 00 	jmp	0x12a	;  0x12a
      38:	0c 94 95 00 	jmp	0x12a	;  0x12a
      3c:	0c 94 95 00 	jmp	0x12a	;  0x12a
      40:	0c 94 05 24 	jmp	0x480a	;  0x480a
      44:	0c 94 95 00 	jmp	0x12a	;  0x12a
      48:	0c 94 1b 20 	jmp	0x4036	;  0x4036
      4c:	0c 94 5e 20 	jmp	0x40bc	;  0x40bc
      50:	0c 94 95 00 	jmp	0x12a	;  0x12a
      54:	0c 94 95 00 	jmp	0x12a	;  0x12a
      58:	0c 94 95 00 	jmp	0x12a	;  0x12a
      5c:	0c 94 95 00 	jmp	0x12a	;  0x12a
      60:	0c 94 c3 07 	jmp	0xf86	;  0xf86
      64:	0c 94 95 00 	jmp	0x12a	;  0x12a
      68:	02 00       	.word	0x0002	; ????
      6a:	00 00       	nop
      6c:	07 00       	.word	0x0007	; ????
      6e:	02 01       	movw	r0, r4
      70:	00 00       	nop
      72:	03 04       	cpc	r0, r3
      74:	06 00       	.word	0x0006	; ????
      76:	00 00       	nop
      78:	00 00       	nop
      7a:	00 00       	nop
      7c:	00 01       	movw	r0, r0
      7e:	02 04       	cpc	r0, r2
      80:	08 10       	cpse	r0, r8
      82:	20 40       	sbci	r18, 0x00	; 0
      84:	80 01       	movw	r16, r0
      86:	02 04       	cpc	r0, r2
      88:	08 10       	cpse	r0, r8
      8a:	20 01       	movw	r4, r0
      8c:	02 04       	cpc	r0, r2
      8e:	08 10       	cpse	r0, r8
      90:	20 04       	cpc	r2, r0
      92:	04 04       	cpc	r0, r4
      94:	04 04       	cpc	r0, r4
      96:	04 04       	cpc	r0, r4
      98:	04 02       	muls	r16, r20
      9a:	02 02       	muls	r16, r18
      9c:	02 02       	muls	r16, r18
      9e:	02 03       	mulsu	r16, r18
      a0:	03 03       	mulsu	r16, r19
      a2:	03 03       	mulsu	r16, r19
      a4:	03 00       	.word	0x0003	; ????
      a6:	00 00       	nop
      a8:	00 23       	and	r16, r16
      aa:	00 26       	eor	r0, r16
      ac:	00 29       	or	r16, r0
      ae:	00 00       	nop
      b0:	00 00       	nop
      b2:	00 25       	eor	r16, r0
      b4:	00 28       	or	r0, r0
      b6:	00 2b       	or	r16, r16
      b8:	00 00       	nop
      ba:	00 00       	nop
      bc:	00 24       	eor	r0, r0
      be:	00 27       	eor	r16, r16
      c0:	00 2a       	or	r0, r16
      c2:	00 00       	nop
      c4:	7e 06       	cpc	r7, r30
      c6:	c9 09       	sbc	r28, r9
      c8:	df 15       	cp	r29, r15
      ca:	e7 18       	sub	r14, r7
      cc:	e5 19       	sub	r30, r5
      ce:	e8 1b       	sub	r30, r24
      d0:	86 1d       	adc	r24, r6
      d2:	71 1f       	adc	r23, r17
      d4:	1a 21       	and	r17, r10
      d6:	cc 21       	and	r28, r12
      d8:	d0 06       	cpc	r13, r16
      da:	11 24       	eor	r1, r1
      dc:	1f be       	out	0x3f, r1	; 63
      de:	cf ef       	ldi	r28, 0xFF	; 255
      e0:	d8 e0       	ldi	r29, 0x08	; 8
      e2:	de bf       	out	0x3e, r29	; 62
      e4:	cd bf       	out	0x3d, r28	; 61
      e6:	13 e0       	ldi	r17, 0x03	; 3
      e8:	a0 e0       	ldi	r26, 0x00	; 0
      ea:	b1 e0       	ldi	r27, 0x01	; 1
      ec:	e4 ea       	ldi	r30, 0xA4	; 164
      ee:	fc e4       	ldi	r31, 0x4C	; 76
      f0:	02 c0       	rjmp	.+4      	;  0xf6
      f2:	05 90       	lpm	r0, Z+
      f4:	0d 92       	st	X+, r0
      f6:	a6 34       	cpi	r26, 0x46	; 70
      f8:	b1 07       	cpc	r27, r17
      fa:	d9 f7       	brne	.-10     	;  0xf2
      fc:	17 e0       	ldi	r17, 0x07	; 7
      fe:	a6 e4       	ldi	r26, 0x46	; 70
     100:	b3 e0       	ldi	r27, 0x03	; 3
     102:	01 c0       	rjmp	.+2      	;  0x106
     104:	1d 92       	st	X+, r1
     106:	a6 30       	cpi	r26, 0x06	; 6
     108:	b1 07       	cpc	r27, r17
     10a:	e1 f7       	brne	.-8      	;  0x104
     10c:	10 e0       	ldi	r17, 0x00	; 0
     10e:	c8 ed       	ldi	r28, 0xD8	; 216
     110:	d0 e0       	ldi	r29, 0x00	; 0
     112:	04 c0       	rjmp	.+8      	;  0x11c
     114:	22 97       	sbiw	r28, 0x02	; 2
     116:	fe 01       	movw	r30, r28
     118:	0e 94 06 26 	call	0x4c0c	;  0x4c0c
     11c:	c4 3c       	cpi	r28, 0xC4	; 196
     11e:	d1 07       	cpc	r29, r17
     120:	c9 f7       	brne	.-14     	;  0x114
     122:	0e 94 d7 06 	call	0xdae	;  0xdae
     126:	0c 94 45 26 	jmp	0x4c8a	;  0x4c8a
     12a:	0c 94 00 00 	jmp	0	;  0x0
     12e:	fc 01       	movw	r30, r24
     130:	a4 85       	ldd	r26, Z+12	; 0x0c
     132:	b5 85       	ldd	r27, Z+13	; 0x0d
     134:	ed 91       	ld	r30, X+
     136:	fc 91       	ld	r31, X
     138:	11 97       	sbiw	r26, 0x01	; 1
     13a:	01 90       	ld	r0, Z+
     13c:	f0 81       	ld	r31, Z
     13e:	e0 2d       	mov	r30, r0
     140:	cd 01       	movw	r24, r26
     142:	09 94       	ijmp
     144:	dc 01       	movw	r26, r24
     146:	1c 96       	adiw	r26, 0x0c	; 12
     148:	8d 91       	ld	r24, X+
     14a:	9c 91       	ld	r25, X
     14c:	1d 97       	sbiw	r26, 0x0d	; 13
     14e:	dc 01       	movw	r26, r24
     150:	ed 91       	ld	r30, X+
     152:	fc 91       	ld	r31, X
     154:	04 80       	ldd	r0, Z+4	; 0x04
     156:	f5 81       	ldd	r31, Z+5	; 0x05
     158:	e0 2d       	mov	r30, r0
     15a:	09 94       	ijmp
     15c:	dc 01       	movw	r26, r24
     15e:	1c 96       	adiw	r26, 0x0c	; 12
     160:	8d 91       	ld	r24, X+
     162:	9c 91       	ld	r25, X
     164:	1d 97       	sbiw	r26, 0x0d	; 13
     166:	dc 01       	movw	r26, r24
     168:	ed 91       	ld	r30, X+
     16a:	fc 91       	ld	r31, X
     16c:	06 80       	ldd	r0, Z+6	; 0x06
     16e:	f7 81       	ldd	r31, Z+7	; 0x07
     170:	e0 2d       	mov	r30, r0
     172:	09 94       	ijmp
     174:	dc 01       	movw	r26, r24
     176:	1c 96       	adiw	r26, 0x0c	; 12
     178:	8d 91       	ld	r24, X+
     17a:	9c 91       	ld	r25, X
     17c:	1d 97       	sbiw	r26, 0x0d	; 13
     17e:	dc 01       	movw	r26, r24
     180:	ed 91       	ld	r30, X+
     182:	fc 91       	ld	r31, X
     184:	00 84       	ldd	r0, Z+8	; 0x08
     186:	f1 85       	ldd	r31, Z+9	; 0x09
     188:	e0 2d       	mov	r30, r0
     18a:	09 94       	ijmp
     18c:	dc 01       	movw	r26, r24
     18e:	1c 96       	adiw	r26, 0x0c	; 12
     190:	8d 91       	ld	r24, X+
     192:	9c 91       	ld	r25, X
     194:	1d 97       	sbiw	r26, 0x0d	; 13
     196:	dc 01       	movw	r26, r24
     198:	ed 91       	ld	r30, X+
     19a:	fc 91       	ld	r31, X
     19c:	02 84       	ldd	r0, Z+10	; 0x0a
     19e:	f3 85       	ldd	r31, Z+11	; 0x0b
     1a0:	e0 2d       	mov	r30, r0
     1a2:	09 94       	ijmp
     1a4:	20 91 31 05 	lds	r18, 0x0531
     1a8:	30 91 32 05 	lds	r19, 0x0532
     1ac:	80 91 33 05 	lds	r24, 0x0533
     1b0:	90 91 34 05 	lds	r25, 0x0534
     1b4:	28 17       	cp	r18, r24
     1b6:	39 07       	cpc	r19, r25
     1b8:	79 f4       	brne	.+30     	;  0x1d8
     1ba:	c9 01       	movw	r24, r18
     1bc:	01 96       	adiw	r24, 0x01	; 1
     1be:	68 e0       	ldi	r22, 0x08	; 8
     1c0:	70 e0       	ldi	r23, 0x00	; 0
     1c2:	0e 94 ba 25 	call	0x4b74	;  0x4b74
     1c6:	80 93 31 05 	sts	0x0531, r24
     1ca:	90 93 32 05 	sts	0x0532, r25
     1ce:	80 93 33 05 	sts	0x0533, r24
     1d2:	90 93 34 05 	sts	0x0534, r25
     1d6:	08 95       	ret
     1d8:	01 96       	adiw	r24, 0x01	; 1
     1da:	68 e0       	ldi	r22, 0x08	; 8
     1dc:	70 e0       	ldi	r23, 0x00	; 0
     1de:	0e 94 ba 25 	call	0x4b74	;  0x4b74
     1e2:	90 93 34 05 	sts	0x0534, r25
     1e6:	80 93 33 05 	sts	0x0533, r24
     1ea:	08 95       	ret
     1ec:	2f ef       	ldi	r18, 0xFF	; 255
     1ee:	dc 01       	movw	r26, r24
     1f0:	2c 93       	st	X, r18
     1f2:	11 96       	adiw	r26, 0x01	; 1
     1f4:	1c 92       	st	X, r1
     1f6:	02 96       	adiw	r24, 0x02	; 2
     1f8:	fc 01       	movw	r30, r24
     1fa:	88 e0       	ldi	r24, 0x08	; 8
     1fc:	df 01       	movw	r26, r30
     1fe:	1d 92       	st	X+, r1
     200:	8a 95       	dec	r24
     202:	e9 f7       	brne	.-6      	;  0x1fe
     204:	08 95       	ret
     206:	cf 93       	push	r28
     208:	df 93       	push	r29
     20a:	d8 2f       	mov	r29, r24
     20c:	c9 2f       	mov	r28, r25
     20e:	68 e1       	ldi	r22, 0x18	; 24
     210:	71 e0       	ldi	r23, 0x01	; 1
     212:	0e 94 42 22 	call	0x4484	;  0x4484
     216:	68 e2       	ldi	r22, 0x28	; 40
     218:	71 e0       	ldi	r23, 0x01	; 1
     21a:	8d 2f       	mov	r24, r29
     21c:	9c 2f       	mov	r25, r28
     21e:	0e 94 42 22 	call	0x4484	;  0x4484
     222:	60 e4       	ldi	r22, 0x40	; 64
     224:	71 e0       	ldi	r23, 0x01	; 1
     226:	8d 2f       	mov	r24, r29
     228:	9c 2f       	mov	r25, r28
     22a:	0e 94 42 22 	call	0x4484	;  0x4484
     22e:	6e e5       	ldi	r22, 0x5E	; 94
     230:	71 e0       	ldi	r23, 0x01	; 1
     232:	8d 2f       	mov	r24, r29
     234:	9c 2f       	mov	r25, r28
     236:	0e 94 42 22 	call	0x4484	;  0x4484
     23a:	8d 2f       	mov	r24, r29
     23c:	9c 2f       	mov	r25, r28
     23e:	0e 94 2c 22 	call	0x4458	;  0x4458
     242:	65 e7       	ldi	r22, 0x75	; 117
     244:	71 e0       	ldi	r23, 0x01	; 1
     246:	8d 2f       	mov	r24, r29
     248:	9c 2f       	mov	r25, r28
     24a:	df 91       	pop	r29
     24c:	cf 91       	pop	r28
     24e:	0c 94 42 22 	jmp	0x4484	;  0x4484
     252:	cf 92       	push	r12
     254:	df 92       	push	r13
     256:	ef 92       	push	r14
     258:	ff 92       	push	r15
     25a:	0f 93       	push	r16
     25c:	1f 93       	push	r17
     25e:	cf 93       	push	r28
     260:	df 93       	push	r29
     262:	00 d0       	rcall	.+0      	;  0x264
     264:	00 d0       	rcall	.+0      	;  0x266
     266:	cd b7       	in	r28, 0x3d	; 61
     268:	de b7       	in	r29, 0x3e	; 62
     26a:	00 e0       	ldi	r16, 0x00	; 0
     26c:	10 e0       	ldi	r17, 0x00	; 0
     26e:	88 ee       	ldi	r24, 0xE8	; 232
     270:	c8 2e       	mov	r12, r24
     272:	83 e0       	ldi	r24, 0x03	; 3
     274:	d8 2e       	mov	r13, r24
     276:	e1 2c       	mov	r14, r1
     278:	f1 2c       	mov	r15, r1
     27a:	08 c0       	rjmp	.+16     	;  0x28c
     27c:	66 e9       	ldi	r22, 0x96	; 150
     27e:	70 e0       	ldi	r23, 0x00	; 0
     280:	80 e0       	ldi	r24, 0x00	; 0
     282:	90 e0       	ldi	r25, 0x00	; 0
     284:	0e 94 8b 24 	call	0x4916	;  0x4916
     288:	0f 5f       	subi	r16, 0xFF	; 255
     28a:	1f 4f       	sbci	r17, 0xFF	; 255
     28c:	0a 30       	cpi	r16, 0x0A	; 10
     28e:	11 05       	cpc	r17, r1
     290:	b4 f4       	brge	.+44     	;  0x2be
     292:	86 ec       	ldi	r24, 0xC6	; 198
     294:	93 e0       	ldi	r25, 0x03	; 3
     296:	0e 94 8d 0d 	call	0x1b1a	;  0x1b1a
     29a:	88 23       	and	r24, r24
     29c:	79 f3       	breq	.-34     	;  0x27c
     29e:	c9 82       	std	Y+1, r12	; 0x01
     2a0:	da 82       	std	Y+2, r13	; 0x02
     2a2:	eb 82       	std	Y+3, r14	; 0x03
     2a4:	fc 82       	std	Y+4, r15	; 0x04
     2a6:	ae 01       	movw	r20, r28
     2a8:	4f 5f       	subi	r20, 0xFF	; 255
     2aa:	5f 4f       	sbci	r21, 0xFF	; 255
     2ac:	6a e5       	ldi	r22, 0x5A	; 90
     2ae:	73 e0       	ldi	r23, 0x03	; 3
     2b0:	86 ec       	ldi	r24, 0xC6	; 198
     2b2:	93 e0       	ldi	r25, 0x03	; 3
     2b4:	0e 94 23 0e 	call	0x1c46	;  0x1c46
     2b8:	88 23       	and	r24, r24
     2ba:	01 f3       	breq	.-64     	;  0x27c
     2bc:	0c c0       	rjmp	.+24     	;  0x2d6
     2be:	65 e8       	ldi	r22, 0x85	; 133
     2c0:	71 e0       	ldi	r23, 0x01	; 1
     2c2:	82 e4       	ldi	r24, 0x42	; 66
     2c4:	96 e0       	ldi	r25, 0x06	; 6
     2c6:	0e 94 19 22 	call	0x4432	;  0x4432
     2ca:	6a e0       	ldi	r22, 0x0A	; 10
     2cc:	82 e4       	ldi	r24, 0x42	; 66
     2ce:	96 e0       	ldi	r25, 0x06	; 6
     2d0:	0e 94 1b 22 	call	0x4436	;  0x4436
     2d4:	ff cf       	rjmp	.-2      	;  0x2d4
     2d6:	10 91 5c 03 	lds	r17, 0x035C
     2da:	00 91 5b 03 	lds	r16, 0x035B
     2de:	f0 90 5a 03 	lds	r15, 0x035A
     2e2:	62 ea       	ldi	r22, 0xA2	; 162
     2e4:	71 e0       	ldi	r23, 0x01	; 1
     2e6:	82 e4       	ldi	r24, 0x42	; 66
     2e8:	96 e0       	ldi	r25, 0x06	; 6
     2ea:	0e 94 19 22 	call	0x4432	;  0x4432
     2ee:	6f 2d       	mov	r22, r15
     2f0:	82 e4       	ldi	r24, 0x42	; 66
     2f2:	96 e0       	ldi	r25, 0x06	; 6
     2f4:	0e 94 1b 22 	call	0x4436	;  0x4436
     2f8:	61 eb       	ldi	r22, 0xB1	; 177
     2fa:	71 e0       	ldi	r23, 0x01	; 1
     2fc:	82 e4       	ldi	r24, 0x42	; 66
     2fe:	96 e0       	ldi	r25, 0x06	; 6
     300:	0e 94 19 22 	call	0x4432	;  0x4432
     304:	4a e0       	ldi	r20, 0x0A	; 10
     306:	50 e0       	ldi	r21, 0x00	; 0
     308:	60 2f       	mov	r22, r16
     30a:	82 e4       	ldi	r24, 0x42	; 66
     30c:	96 e0       	ldi	r25, 0x06	; 6
     30e:	0e 94 bf 22 	call	0x457e	;  0x457e
     312:	6e e2       	ldi	r22, 0x2E	; 46
     314:	82 e4       	ldi	r24, 0x42	; 66
     316:	96 e0       	ldi	r25, 0x06	; 6
     318:	0e 94 1b 22 	call	0x4436	;  0x4436
     31c:	4a e0       	ldi	r20, 0x0A	; 10
     31e:	50 e0       	ldi	r21, 0x00	; 0
     320:	61 2f       	mov	r22, r17
     322:	82 e4       	ldi	r24, 0x42	; 66
     324:	96 e0       	ldi	r25, 0x06	; 6
     326:	0e 94 bf 22 	call	0x457e	;  0x457e
     32a:	6a e0       	ldi	r22, 0x0A	; 10
     32c:	82 e4       	ldi	r24, 0x42	; 66
     32e:	96 e0       	ldi	r25, 0x06	; 6
     330:	0e 94 1b 22 	call	0x4436	;  0x4436
     334:	21 e0       	ldi	r18, 0x01	; 1
     336:	44 e1       	ldi	r20, 0x14	; 20
     338:	61 e0       	ldi	r22, 0x01	; 1
     33a:	86 ec       	ldi	r24, 0xC6	; 198
     33c:	93 e0       	ldi	r25, 0x03	; 3
     33e:	0e 94 b8 0d 	call	0x1b70	;  0x1b70
     342:	88 ee       	ldi	r24, 0xE8	; 232
     344:	93 e0       	ldi	r25, 0x03	; 3
     346:	a0 e0       	ldi	r26, 0x00	; 0
     348:	b0 e0       	ldi	r27, 0x00	; 0
     34a:	89 83       	std	Y+1, r24	; 0x01
     34c:	9a 83       	std	Y+2, r25	; 0x02
     34e:	ab 83       	std	Y+3, r26	; 0x03
     350:	bc 83       	std	Y+4, r27	; 0x04
     352:	ae 01       	movw	r20, r28
     354:	4f 5f       	subi	r20, 0xFF	; 255
     356:	5f 4f       	sbci	r21, 0xFF	; 255
     358:	6a e5       	ldi	r22, 0x5A	; 90
     35a:	73 e0       	ldi	r23, 0x03	; 3
     35c:	86 ec       	ldi	r24, 0xC6	; 198
     35e:	93 e0       	ldi	r25, 0x03	; 3
     360:	0e 94 23 0e 	call	0x1c46	;  0x1c46
     364:	80 91 1b 04 	lds	r24, 0x041B
     368:	88 30       	cpi	r24, 0x08	; 8
     36a:	91 f4       	brne	.+36     	;  0x390
     36c:	62 ec       	ldi	r22, 0xC2	; 194
     36e:	71 e0       	ldi	r23, 0x01	; 1
     370:	82 e4       	ldi	r24, 0x42	; 66
     372:	96 e0       	ldi	r25, 0x06	; 6
     374:	0e 94 19 22 	call	0x4432	;  0x4432
     378:	6a e0       	ldi	r22, 0x0A	; 10
     37a:	82 e4       	ldi	r24, 0x42	; 66
     37c:	96 e0       	ldi	r25, 0x06	; 6
     37e:	0e 94 1b 22 	call	0x4436	;  0x4436
     382:	42 e0       	ldi	r20, 0x02	; 2
     384:	6c ef       	ldi	r22, 0xFC	; 252
     386:	72 e0       	ldi	r23, 0x02	; 2
     388:	86 ec       	ldi	r24, 0xC6	; 198
     38a:	93 e0       	ldi	r25, 0x03	; 3
     38c:	0e 94 4b 11 	call	0x2296	;  0x2296
     390:	0f 90       	pop	r0
     392:	0f 90       	pop	r0
     394:	0f 90       	pop	r0
     396:	0f 90       	pop	r0
     398:	df 91       	pop	r29
     39a:	cf 91       	pop	r28
     39c:	1f 91       	pop	r17
     39e:	0f 91       	pop	r16
     3a0:	ff 90       	pop	r15
     3a2:	ef 90       	pop	r14
     3a4:	df 90       	pop	r13
     3a6:	cf 90       	pop	r12
     3a8:	08 95       	ret
     3aa:	0f 93       	push	r16
     3ac:	1f 93       	push	r17
     3ae:	cf 93       	push	r28
     3b0:	df 93       	push	r29
     3b2:	cd b7       	in	r28, 0x3d	; 61
     3b4:	de b7       	in	r29, 0x3e	; 62
     3b6:	28 97       	sbiw	r28, 0x08	; 8
     3b8:	0f b6       	in	r0, 0x3f	; 63
     3ba:	f8 94       	cli
     3bc:	de bf       	out	0x3e, r29	; 62
     3be:	0f be       	out	0x3f, r0	; 63
     3c0:	cd bf       	out	0x3d, r28	; 61
     3c2:	4e ef       	ldi	r20, 0xFE	; 254
     3c4:	50 e0       	ldi	r21, 0x00	; 0
     3c6:	6a e5       	ldi	r22, 0x5A	; 90
     3c8:	73 e0       	ldi	r23, 0x03	; 3
     3ca:	86 ec       	ldi	r24, 0xC6	; 198
     3cc:	93 e0       	ldi	r25, 0x03	; 3
     3ce:	0e 94 db 0f 	call	0x1fb6	;  0x1fb6
     3d2:	88 e0       	ldi	r24, 0x08	; 8
     3d4:	e6 e0       	ldi	r30, 0x06	; 6
     3d6:	f1 e0       	ldi	r31, 0x01	; 1
     3d8:	de 01       	movw	r26, r28
     3da:	11 96       	adiw	r26, 0x01	; 1
     3dc:	01 90       	ld	r0, Z+
     3de:	0d 92       	st	X+, r0
     3e0:	8a 95       	dec	r24
     3e2:	e1 f7       	brne	.-8      	;  0x3dc
     3e4:	6b e8       	ldi	r22, 0x8B	; 139
     3e6:	7a e1       	ldi	r23, 0x1A	; 26
     3e8:	86 ec       	ldi	r24, 0xC6	; 198
     3ea:	93 e0       	ldi	r25, 0x03	; 3
     3ec:	0e 94 9f 10 	call	0x213e	;  0x213e
     3f0:	01 96       	adiw	r24, 0x01	; 1
     3f2:	11 f4       	brne	.+4      	;  0x3f8
     3f4:	80 e0       	ldi	r24, 0x00	; 0
     3f6:	83 c0       	rjmp	.+262    	;  0x4fe
     3f8:	8e 01       	movw	r16, r28
     3fa:	0f 5f       	subi	r16, 0xFF	; 255
     3fc:	1f 4f       	sbci	r17, 0xFF	; 255
     3fe:	24 e0       	ldi	r18, 0x04	; 4
     400:	4b e8       	ldi	r20, 0x8B	; 139
     402:	5a e1       	ldi	r21, 0x1A	; 26
     404:	6a e5       	ldi	r22, 0x5A	; 90
     406:	73 e0       	ldi	r23, 0x03	; 3
     408:	86 ec       	ldi	r24, 0xC6	; 198
     40a:	93 e0       	ldi	r25, 0x03	; 3
     40c:	0e 94 c8 10 	call	0x2190	;  0x2190
     410:	88 23       	and	r24, r24
     412:	81 f3       	breq	.-32     	;  0x3f4
     414:	64 ed       	ldi	r22, 0xD4	; 212
     416:	71 e0       	ldi	r23, 0x01	; 1
     418:	8c e4       	ldi	r24, 0x4C	; 76
     41a:	93 e0       	ldi	r25, 0x03	; 3
     41c:	0e 94 19 22 	call	0x4432	;  0x4432
     420:	20 e0       	ldi	r18, 0x00	; 0
     422:	42 e0       	ldi	r20, 0x02	; 2
     424:	50 e0       	ldi	r21, 0x00	; 0
     426:	6a e5       	ldi	r22, 0x5A	; 90
     428:	73 e0       	ldi	r23, 0x03	; 3
     42a:	8c e4       	ldi	r24, 0x4C	; 76
     42c:	93 e0       	ldi	r25, 0x03	; 3
     42e:	0e 94 37 0a 	call	0x146e	;  0x146e
     432:	6a ed       	ldi	r22, 0xDA	; 218
     434:	71 e0       	ldi	r23, 0x01	; 1
     436:	8c e4       	ldi	r24, 0x4C	; 76
     438:	93 e0       	ldi	r25, 0x03	; 3
     43a:	0e 94 19 22 	call	0x4432	;  0x4432
     43e:	20 e0       	ldi	r18, 0x00	; 0
     440:	48 e0       	ldi	r20, 0x08	; 8
     442:	50 e0       	ldi	r21, 0x00	; 0
     444:	6a e7       	ldi	r22, 0x7A	; 122
     446:	73 e0       	ldi	r23, 0x03	; 3
     448:	8c e4       	ldi	r24, 0x4C	; 76
     44a:	93 e0       	ldi	r25, 0x03	; 3
     44c:	0e 94 37 0a 	call	0x146e	;  0x146e
     450:	68 e0       	ldi	r22, 0x08	; 8
     452:	72 e0       	ldi	r23, 0x02	; 2
     454:	8c e4       	ldi	r24, 0x4C	; 76
     456:	93 e0       	ldi	r25, 0x03	; 3
     458:	0e 94 19 22 	call	0x4432	;  0x4432
     45c:	20 e0       	ldi	r18, 0x00	; 0
     45e:	48 e0       	ldi	r20, 0x08	; 8
     460:	50 e0       	ldi	r21, 0x00	; 0
     462:	6c e5       	ldi	r22, 0x5C	; 92
     464:	73 e0       	ldi	r23, 0x03	; 3
     466:	8c e4       	ldi	r24, 0x4C	; 76
     468:	93 e0       	ldi	r25, 0x03	; 3
     46a:	0e 94 37 0a 	call	0x146e	;  0x146e
     46e:	10 91 69 03 	lds	r17, 0x0369
     472:	00 91 68 03 	lds	r16, 0x0368
     476:	62 ee       	ldi	r22, 0xE2	; 226
     478:	71 e0       	ldi	r23, 0x01	; 1
     47a:	8c e4       	ldi	r24, 0x4C	; 76
     47c:	93 e0       	ldi	r25, 0x03	; 3
     47e:	0e 94 19 22 	call	0x4432	;  0x4432
     482:	60 2f       	mov	r22, r16
     484:	8c e4       	ldi	r24, 0x4C	; 76
     486:	93 e0       	ldi	r25, 0x03	; 3
     488:	0e 94 1b 22 	call	0x4436	;  0x4436
     48c:	66 ee       	ldi	r22, 0xE6	; 230
     48e:	71 e0       	ldi	r23, 0x01	; 1
     490:	8c e4       	ldi	r24, 0x4C	; 76
     492:	93 e0       	ldi	r25, 0x03	; 3
     494:	0e 94 19 22 	call	0x4432	;  0x4432
     498:	61 2f       	mov	r22, r17
     49a:	8c e4       	ldi	r24, 0x4C	; 76
     49c:	93 e0       	ldi	r25, 0x03	; 3
     49e:	0e 94 1b 22 	call	0x4436	;  0x4436
     4a2:	6a e0       	ldi	r22, 0x0A	; 10
     4a4:	8c e4       	ldi	r24, 0x4C	; 76
     4a6:	93 e0       	ldi	r25, 0x03	; 3
     4a8:	0e 94 1b 22 	call	0x4436	;  0x4436
     4ac:	6e ee       	ldi	r22, 0xEE	; 238
     4ae:	71 e0       	ldi	r23, 0x01	; 1
     4b0:	8c e4       	ldi	r24, 0x4C	; 76
     4b2:	93 e0       	ldi	r25, 0x03	; 3
     4b4:	0e 94 19 22 	call	0x4432	;  0x4432
     4b8:	20 e0       	ldi	r18, 0x00	; 0
     4ba:	48 e0       	ldi	r20, 0x08	; 8
     4bc:	50 e0       	ldi	r21, 0x00	; 0
     4be:	62 e8       	ldi	r22, 0x82	; 130
     4c0:	73 e0       	ldi	r23, 0x03	; 3
     4c2:	8c e4       	ldi	r24, 0x4C	; 76
     4c4:	93 e0       	ldi	r25, 0x03	; 3
     4c6:	0e 94 37 0a 	call	0x146e	;  0x146e
     4ca:	65 ef       	ldi	r22, 0xF5	; 245
     4cc:	71 e0       	ldi	r23, 0x01	; 1
     4ce:	8c e4       	ldi	r24, 0x4C	; 76
     4d0:	93 e0       	ldi	r25, 0x03	; 3
     4d2:	0e 94 19 22 	call	0x4432	;  0x4432
     4d6:	20 e0       	ldi	r18, 0x00	; 0
     4d8:	48 e0       	ldi	r20, 0x08	; 8
     4da:	50 e0       	ldi	r21, 0x00	; 0
     4dc:	6a e8       	ldi	r22, 0x8A	; 138
     4de:	73 e0       	ldi	r23, 0x03	; 3
     4e0:	8c e4       	ldi	r24, 0x4C	; 76
     4e2:	93 e0       	ldi	r25, 0x03	; 3
     4e4:	0e 94 37 0a 	call	0x146e	;  0x146e
     4e8:	6a e0       	ldi	r22, 0x0A	; 10
     4ea:	8c e4       	ldi	r24, 0x4C	; 76
     4ec:	93 e0       	ldi	r25, 0x03	; 3
     4ee:	0e 94 1b 22 	call	0x4436	;  0x4436
     4f2:	6a e0       	ldi	r22, 0x0A	; 10
     4f4:	8c e4       	ldi	r24, 0x4C	; 76
     4f6:	93 e0       	ldi	r25, 0x03	; 3
     4f8:	0e 94 1b 22 	call	0x4436	;  0x4436
     4fc:	81 e0       	ldi	r24, 0x01	; 1
     4fe:	28 96       	adiw	r28, 0x08	; 8
     500:	0f b6       	in	r0, 0x3f	; 63
     502:	f8 94       	cli
     504:	de bf       	out	0x3e, r29	; 62
     506:	0f be       	out	0x3f, r0	; 63
     508:	cd bf       	out	0x3d, r28	; 61
     50a:	df 91       	pop	r29
     50c:	cf 91       	pop	r28
     50e:	1f 91       	pop	r17
     510:	0f 91       	pop	r16
     512:	08 95       	ret
     514:	cf 92       	push	r12
     516:	df 92       	push	r13
     518:	ef 92       	push	r14
     51a:	ff 92       	push	r15
     51c:	0f 93       	push	r16
     51e:	cf 93       	push	r28
     520:	df 93       	push	r29
     522:	00 d0       	rcall	.+0      	;  0x524
     524:	00 d0       	rcall	.+0      	;  0x526
     526:	1f 92       	push	r1
     528:	cd b7       	in	r28, 0x3d	; 61
     52a:	de b7       	in	r29, 0x3e	; 62
     52c:	7c 01       	movw	r14, r24
     52e:	6c ef       	ldi	r22, 0xFC	; 252
     530:	71 e0       	ldi	r23, 0x01	; 1
     532:	8c e4       	ldi	r24, 0x4C	; 76
     534:	93 e0       	ldi	r25, 0x03	; 3
     536:	0e 94 19 22 	call	0x4432	;  0x4432
     53a:	67 01       	movw	r12, r14
     53c:	82 e0       	ldi	r24, 0x02	; 2
     53e:	c8 0e       	add	r12, r24
     540:	d1 1c       	adc	r13, r1
     542:	f7 01       	movw	r30, r14
     544:	41 81       	ldd	r20, Z+1	; 0x01
     546:	00 e1       	ldi	r16, 0x10	; 16
     548:	20 e2       	ldi	r18, 0x20	; 32
     54a:	50 e0       	ldi	r21, 0x00	; 0
     54c:	b6 01       	movw	r22, r12
     54e:	8c e4       	ldi	r24, 0x4C	; 76
     550:	93 e0       	ldi	r25, 0x03	; 3
     552:	0e 94 f9 09 	call	0x13f2	;  0x13f2
     556:	6a e0       	ldi	r22, 0x0A	; 10
     558:	8c e4       	ldi	r24, 0x4C	; 76
     55a:	93 e0       	ldi	r25, 0x03	; 3
     55c:	0e 94 1b 22 	call	0x4436	;  0x4436
     560:	f7 01       	movw	r30, r14
     562:	21 81       	ldd	r18, Z+1	; 0x01
     564:	a6 01       	movw	r20, r12
     566:	60 81       	ld	r22, Z
     568:	86 ec       	ldi	r24, 0xC6	; 198
     56a:	93 e0       	ldi	r25, 0x03	; 3
     56c:	0e 94 a6 0e 	call	0x1d4c	;  0x1d4c
     570:	4d eb       	ldi	r20, 0xBD	; 189
     572:	52 e0       	ldi	r21, 0x02	; 2
     574:	64 e0       	ldi	r22, 0x04	; 4
     576:	70 e0       	ldi	r23, 0x00	; 0
     578:	86 ec       	ldi	r24, 0xC6	; 198
     57a:	93 e0       	ldi	r25, 0x03	; 3
     57c:	0e 94 b9 0e 	call	0x1d72	;  0x1d72
     580:	81 11       	cpse	r24, r1
     582:	02 c0       	rjmp	.+4      	;  0x588
     584:	80 e0       	ldi	r24, 0x00	; 0
     586:	8f c0       	rjmp	.+286    	;  0x6a6
     588:	88 ee       	ldi	r24, 0xE8	; 232
     58a:	93 e0       	ldi	r25, 0x03	; 3
     58c:	a0 e0       	ldi	r26, 0x00	; 0
     58e:	b0 e0       	ldi	r27, 0x00	; 0
     590:	89 83       	std	Y+1, r24	; 0x01
     592:	9a 83       	std	Y+2, r25	; 0x02
     594:	ab 83       	std	Y+3, r26	; 0x03
     596:	bc 83       	std	Y+4, r27	; 0x04
     598:	ae 01       	movw	r20, r28
     59a:	4f 5f       	subi	r20, 0xFF	; 255
     59c:	5f 4f       	sbci	r21, 0xFF	; 255
     59e:	be 01       	movw	r22, r28
     5a0:	6b 5f       	subi	r22, 0xFB	; 251
     5a2:	7f 4f       	sbci	r23, 0xFF	; 255
     5a4:	86 ec       	ldi	r24, 0xC6	; 198
     5a6:	93 e0       	ldi	r25, 0x03	; 3
     5a8:	0e 94 23 0e 	call	0x1c46	;  0x1c46
     5ac:	88 23       	and	r24, r24
     5ae:	51 f3       	breq	.-44     	;  0x584
     5b0:	8d 81       	ldd	r24, Y+5	; 0x05
     5b2:	88 23       	and	r24, r24
     5b4:	09 f4       	brne	.+2      	;  0x5b8
     5b6:	59 c0       	rjmp	.+178    	;  0x66a
     5b8:	e5 cf       	rjmp	.-54     	;  0x584
     5ba:	64 ed       	ldi	r22, 0xD4	; 212
     5bc:	71 e0       	ldi	r23, 0x01	; 1
     5be:	8c e4       	ldi	r24, 0x4C	; 76
     5c0:	93 e0       	ldi	r25, 0x03	; 3
     5c2:	0e 94 19 22 	call	0x4432	;  0x4432
     5c6:	20 e0       	ldi	r18, 0x00	; 0
     5c8:	42 e0       	ldi	r20, 0x02	; 2
     5ca:	50 e0       	ldi	r21, 0x00	; 0
     5cc:	6a e5       	ldi	r22, 0x5A	; 90
     5ce:	73 e0       	ldi	r23, 0x03	; 3
     5d0:	8c e4       	ldi	r24, 0x4C	; 76
     5d2:	93 e0       	ldi	r25, 0x03	; 3
     5d4:	0e 94 37 0a 	call	0x146e	;  0x146e
     5d8:	67 e0       	ldi	r22, 0x07	; 7
     5da:	72 e0       	ldi	r23, 0x02	; 2
     5dc:	8c e4       	ldi	r24, 0x4C	; 76
     5de:	93 e0       	ldi	r25, 0x03	; 3
     5e0:	0e 94 19 22 	call	0x4432	;  0x4432
     5e4:	20 e0       	ldi	r18, 0x00	; 0
     5e6:	48 e0       	ldi	r20, 0x08	; 8
     5e8:	50 e0       	ldi	r21, 0x00	; 0
     5ea:	6c e5       	ldi	r22, 0x5C	; 92
     5ec:	73 e0       	ldi	r23, 0x03	; 3
     5ee:	8c e4       	ldi	r24, 0x4C	; 76
     5f0:	93 e0       	ldi	r25, 0x03	; 3
     5f2:	0e 94 37 0a 	call	0x146e	;  0x146e
     5f6:	f0 90 81 03 	lds	r15, 0x0381
     5fa:	e0 90 64 03 	lds	r14, 0x0364
     5fe:	62 ee       	ldi	r22, 0xE2	; 226
     600:	71 e0       	ldi	r23, 0x01	; 1
     602:	8c e4       	ldi	r24, 0x4C	; 76
     604:	93 e0       	ldi	r25, 0x03	; 3
     606:	0e 94 19 22 	call	0x4432	;  0x4432
     60a:	6e 2d       	mov	r22, r14
     60c:	8c e4       	ldi	r24, 0x4C	; 76
     60e:	93 e0       	ldi	r25, 0x03	; 3
     610:	0e 94 1b 22 	call	0x4436	;  0x4436
     614:	66 ee       	ldi	r22, 0xE6	; 230
     616:	71 e0       	ldi	r23, 0x01	; 1
     618:	8c e4       	ldi	r24, 0x4C	; 76
     61a:	93 e0       	ldi	r25, 0x03	; 3
     61c:	0e 94 19 22 	call	0x4432	;  0x4432
     620:	6f 2d       	mov	r22, r15
     622:	8c e4       	ldi	r24, 0x4C	; 76
     624:	93 e0       	ldi	r25, 0x03	; 3
     626:	0e 94 1b 22 	call	0x4436	;  0x4436
     62a:	6a e0       	ldi	r22, 0x0A	; 10
     62c:	8c e4       	ldi	r24, 0x4C	; 76
     62e:	93 e0       	ldi	r25, 0x03	; 3
     630:	0e 94 1b 22 	call	0x4436	;  0x4436
     634:	6e ee       	ldi	r22, 0xEE	; 238
     636:	71 e0       	ldi	r23, 0x01	; 1
     638:	8c e4       	ldi	r24, 0x4C	; 76
     63a:	93 e0       	ldi	r25, 0x03	; 3
     63c:	0e 94 19 22 	call	0x4432	;  0x4432
     640:	20 e0       	ldi	r18, 0x00	; 0
     642:	47 e0       	ldi	r20, 0x07	; 7
     644:	50 e0       	ldi	r21, 0x00	; 0
     646:	62 e8       	ldi	r22, 0x82	; 130
     648:	73 e0       	ldi	r23, 0x03	; 3
     64a:	8c e4       	ldi	r24, 0x4C	; 76
     64c:	93 e0       	ldi	r25, 0x03	; 3
     64e:	0e 94 37 0a 	call	0x146e	;  0x146e
     652:	6a e0       	ldi	r22, 0x0A	; 10
     654:	8c e4       	ldi	r24, 0x4C	; 76
     656:	93 e0       	ldi	r25, 0x03	; 3
     658:	0e 94 1b 22 	call	0x4436	;  0x4436
     65c:	6a e0       	ldi	r22, 0x0A	; 10
     65e:	8c e4       	ldi	r24, 0x4C	; 76
     660:	93 e0       	ldi	r25, 0x03	; 3
     662:	0e 94 1b 22 	call	0x4436	;  0x4436
     666:	81 e0       	ldi	r24, 0x01	; 1
     668:	1e c0       	rjmp	.+60     	;  0x6a6
     66a:	4a e5       	ldi	r20, 0x5A	; 90
     66c:	53 e0       	ldi	r21, 0x03	; 3
     66e:	64 e0       	ldi	r22, 0x04	; 4
     670:	86 ec       	ldi	r24, 0xC6	; 198
     672:	93 e0       	ldi	r25, 0x03	; 3
     674:	0e 94 14 0f 	call	0x1e28	;  0x1e28
     678:	88 23       	and	r24, r24
     67a:	09 f4       	brne	.+2      	;  0x67e
     67c:	83 cf       	rjmp	.-250    	;  0x584
     67e:	4a e6       	ldi	r20, 0x6A	; 106
     680:	53 e0       	ldi	r21, 0x03	; 3
     682:	65 e0       	ldi	r22, 0x05	; 5
     684:	86 ec       	ldi	r24, 0xC6	; 198
     686:	93 e0       	ldi	r25, 0x03	; 3
     688:	0e 94 14 0f 	call	0x1e28	;  0x1e28
     68c:	88 23       	and	r24, r24
     68e:	09 f4       	brne	.+2      	;  0x692
     690:	79 cf       	rjmp	.-270    	;  0x584
     692:	4a e7       	ldi	r20, 0x7A	; 122
     694:	53 e0       	ldi	r21, 0x03	; 3
     696:	66 e0       	ldi	r22, 0x06	; 6
     698:	86 ec       	ldi	r24, 0xC6	; 198
     69a:	93 e0       	ldi	r25, 0x03	; 3
     69c:	0e 94 14 0f 	call	0x1e28	;  0x1e28
     6a0:	81 11       	cpse	r24, r1
     6a2:	8b cf       	rjmp	.-234    	;  0x5ba
     6a4:	6f cf       	rjmp	.-290    	;  0x584
     6a6:	0f 90       	pop	r0
     6a8:	0f 90       	pop	r0
     6aa:	0f 90       	pop	r0
     6ac:	0f 90       	pop	r0
     6ae:	0f 90       	pop	r0
     6b0:	df 91       	pop	r29
     6b2:	cf 91       	pop	r28
     6b4:	0f 91       	pop	r16
     6b6:	ff 90       	pop	r15
     6b8:	ef 90       	pop	r14
     6ba:	df 90       	pop	r13
     6bc:	cf 90       	pop	r12
     6be:	08 95       	ret
     6c0:	cf 92       	push	r12
     6c2:	df 92       	push	r13
     6c4:	ef 92       	push	r14
     6c6:	ff 92       	push	r15
     6c8:	0f 93       	push	r16
     6ca:	1f 93       	push	r17
     6cc:	cf 93       	push	r28
     6ce:	df 93       	push	r29
     6d0:	cd b7       	in	r28, 0x3d	; 61
     6d2:	de b7       	in	r29, 0x3e	; 62
     6d4:	62 97       	sbiw	r28, 0x12	; 18
     6d6:	0f b6       	in	r0, 0x3f	; 63
     6d8:	f8 94       	cli
     6da:	de bf       	out	0x3e, r29	; 62
     6dc:	0f be       	out	0x3f, r0	; 63
     6de:	cd bf       	out	0x3d, r28	; 61
     6e0:	0e 94 4f 24 	call	0x489e	;  0x489e
     6e4:	00 91 c2 03 	lds	r16, 0x03C2
     6e8:	10 91 c3 03 	lds	r17, 0x03C3
     6ec:	20 91 c4 03 	lds	r18, 0x03C4
     6f0:	30 91 c5 03 	lds	r19, 0x03C5
     6f4:	0c 59       	subi	r16, 0x9C	; 156
     6f6:	1f 4f       	sbci	r17, 0xFF	; 255
     6f8:	2f 4f       	sbci	r18, 0xFF	; 255
     6fa:	3f 4f       	sbci	r19, 0xFF	; 255
     6fc:	06 17       	cp	r16, r22
     6fe:	17 07       	cpc	r17, r23
     700:	28 07       	cpc	r18, r24
     702:	39 07       	cpc	r19, r25
     704:	08 f0       	brcs	.+2      	;  0x708
     706:	21 c1       	rjmp	.+578    	;  0x94a
     708:	0e 94 4f 24 	call	0x489e	;  0x489e
     70c:	60 93 c2 03 	sts	0x03C2, r22
     710:	70 93 c3 03 	sts	0x03C3, r23
     714:	80 93 c4 03 	sts	0x03C4, r24
     718:	90 93 c5 03 	sts	0x03C5, r25
     71c:	00 91 00 01 	lds	r16, 0x0100
     720:	21 e0       	ldi	r18, 0x01	; 1
     722:	31 e0       	ldi	r19, 0x01	; 1
     724:	41 e0       	ldi	r20, 0x01	; 1
     726:	61 e0       	ldi	r22, 0x01	; 1
     728:	86 ec       	ldi	r24, 0xC6	; 198
     72a:	93 e0       	ldi	r25, 0x03	; 3
     72c:	0e 94 e6 0d 	call	0x1bcc	;  0x1bcc
     730:	81 11       	cpse	r24, r1
     732:	0c c0       	rjmp	.+24     	;  0x74c
     734:	6d e0       	ldi	r22, 0x0D	; 13
     736:	72 e0       	ldi	r23, 0x02	; 2
     738:	8c e4       	ldi	r24, 0x4C	; 76
     73a:	93 e0       	ldi	r25, 0x03	; 3
     73c:	0e 94 19 22 	call	0x4432	;  0x4432
     740:	6a e0       	ldi	r22, 0x0A	; 10
     742:	8c e4       	ldi	r24, 0x4C	; 76
     744:	93 e0       	ldi	r25, 0x03	; 3
     746:	0e 94 1b 22 	call	0x4436	;  0x4436
     74a:	ff c0       	rjmp	.+510    	;  0x94a
     74c:	88 ee       	ldi	r24, 0xE8	; 232
     74e:	93 e0       	ldi	r25, 0x03	; 3
     750:	a0 e0       	ldi	r26, 0x00	; 0
     752:	b0 e0       	ldi	r27, 0x00	; 0
     754:	8e 87       	std	Y+14, r24	; 0x0e
     756:	9f 87       	std	Y+15, r25	; 0x0f
     758:	a8 8b       	std	Y+16, r26	; 0x10
     75a:	b9 8b       	std	Y+17, r27	; 0x11
     75c:	ae 01       	movw	r20, r28
     75e:	42 5f       	subi	r20, 0xF2	; 242
     760:	5f 4f       	sbci	r21, 0xFF	; 255
     762:	6a e5       	ldi	r22, 0x5A	; 90
     764:	73 e0       	ldi	r23, 0x03	; 3
     766:	86 ec       	ldi	r24, 0xC6	; 198
     768:	93 e0       	ldi	r25, 0x03	; 3
     76a:	0e 94 23 0e 	call	0x1c46	;  0x1c46
     76e:	88 23       	and	r24, r24
     770:	09 f3       	breq	.-62     	;  0x734
     772:	80 91 5a 03 	lds	r24, 0x035A
     776:	88 23       	and	r24, r24
     778:	09 f4       	brne	.+2      	;  0x77c
     77a:	e7 c0       	rjmp	.+462    	;  0x94a
     77c:	10 91 5b 03 	lds	r17, 0x035B
     780:	10 93 aa 03 	sts	0x03AA, r17
     784:	81 2f       	mov	r24, r17
     786:	81 51       	subi	r24, 0x11	; 17
     788:	82 30       	cpi	r24, 0x02	; 2
     78a:	60 f4       	brcc	.+24     	;  0x7a4
     78c:	88 e0       	ldi	r24, 0x08	; 8
     78e:	80 93 ab 03 	sts	0x03AB, r24
     792:	e0 e6       	ldi	r30, 0x60	; 96
     794:	f3 e0       	ldi	r31, 0x03	; 3
     796:	ac ea       	ldi	r26, 0xAC	; 172
     798:	b3 e0       	ldi	r27, 0x03	; 3
     79a:	01 90       	ld	r0, Z+
     79c:	0d 92       	st	X+, r0
     79e:	8a 95       	dec	r24
     7a0:	e1 f7       	brne	.-8      	;  0x79a
     7a2:	0d c0       	rjmp	.+26     	;  0x7be
     7a4:	40 91 61 03 	lds	r20, 0x0361
     7a8:	40 93 ab 03 	sts	0x03AB, r20
     7ac:	2c ea       	ldi	r18, 0xAC	; 172
     7ae:	33 e0       	ldi	r19, 0x03	; 3
     7b0:	82 e6       	ldi	r24, 0x62	; 98
     7b2:	93 e0       	ldi	r25, 0x03	; 3
     7b4:	50 e0       	ldi	r21, 0x00	; 0
     7b6:	bc 01       	movw	r22, r24
     7b8:	c9 01       	movw	r24, r18
     7ba:	0e 94 1f 26 	call	0x4c3e	;  0x4c3e
     7be:	80 91 b4 03 	lds	r24, 0x03B4
     7c2:	18 13       	cpse	r17, r24
     7c4:	10 c0       	rjmp	.+32     	;  0x7e6
     7c6:	40 91 ab 03 	lds	r20, 0x03AB
     7ca:	80 91 b5 03 	lds	r24, 0x03B5
     7ce:	48 13       	cpse	r20, r24
     7d0:	0a c0       	rjmp	.+20     	;  0x7e6
     7d2:	50 e0       	ldi	r21, 0x00	; 0
     7d4:	66 eb       	ldi	r22, 0xB6	; 182
     7d6:	73 e0       	ldi	r23, 0x03	; 3
     7d8:	8c ea       	ldi	r24, 0xAC	; 172
     7da:	93 e0       	ldi	r25, 0x03	; 3
     7dc:	0e 94 12 26 	call	0x4c24	;  0x4c24
     7e0:	00 97       	sbiw	r24, 0x00	; 0
     7e2:	09 f4       	brne	.+2      	;  0x7e6
     7e4:	9b c0       	rjmp	.+310    	;  0x91c
     7e6:	10 93 b4 03 	sts	0x03B4, r17
     7ea:	40 91 ab 03 	lds	r20, 0x03AB
     7ee:	40 93 b5 03 	sts	0x03B5, r20
     7f2:	26 eb       	ldi	r18, 0xB6	; 182
     7f4:	33 e0       	ldi	r19, 0x03	; 3
     7f6:	8c ea       	ldi	r24, 0xAC	; 172
     7f8:	93 e0       	ldi	r25, 0x03	; 3
     7fa:	50 e0       	ldi	r21, 0x00	; 0
     7fc:	bc 01       	movw	r22, r24
     7fe:	c9 01       	movw	r24, r18
     800:	0e 94 1f 26 	call	0x4c3e	;  0x4c3e
     804:	86 e2       	ldi	r24, 0x26	; 38
     806:	94 e0       	ldi	r25, 0x04	; 4
     808:	0e 94 3c 0b 	call	0x1678	;  0x1678
     80c:	86 e2       	ldi	r24, 0x26	; 38
     80e:	94 e0       	ldi	r25, 0x04	; 4
     810:	0e 94 56 0b 	call	0x16ac	;  0x16ac
     814:	0e 94 4f 24 	call	0x489e	;  0x489e
     818:	60 93 be 03 	sts	0x03BE, r22
     81c:	70 93 bf 03 	sts	0x03BF, r23
     820:	80 93 c0 03 	sts	0x03C0, r24
     824:	90 93 c1 03 	sts	0x03C1, r25
     828:	10 91 b4 03 	lds	r17, 0x03B4
     82c:	10 31       	cpi	r17, 0x10	; 16
     82e:	f1 f0       	breq	.+60     	;  0x86c
     830:	11 31       	cpi	r17, 0x11	; 17
     832:	09 f0       	breq	.+2      	;  0x836
     834:	8a c0       	rjmp	.+276    	;  0x94a
     836:	66 e2       	ldi	r22, 0x26	; 38
     838:	72 e0       	ldi	r23, 0x02	; 2
     83a:	8c e4       	ldi	r24, 0x4C	; 76
     83c:	93 e0       	ldi	r25, 0x03	; 3
     83e:	0e 94 19 22 	call	0x4432	;  0x4432
     842:	40 91 b5 03 	lds	r20, 0x03B5
     846:	00 e1       	ldi	r16, 0x10	; 16
     848:	20 e2       	ldi	r18, 0x20	; 32
     84a:	50 e0       	ldi	r21, 0x00	; 0
     84c:	66 eb       	ldi	r22, 0xB6	; 182
     84e:	73 e0       	ldi	r23, 0x03	; 3
     850:	8c e4       	ldi	r24, 0x4C	; 76
     852:	93 e0       	ldi	r25, 0x03	; 3
     854:	0e 94 f9 09 	call	0x13f2	;  0x13f2
     858:	6a e0       	ldi	r22, 0x0A	; 10
     85a:	8c e4       	ldi	r24, 0x4C	; 76
     85c:	93 e0       	ldi	r25, 0x03	; 3
     85e:	0e 94 1b 22 	call	0x4436	;  0x4436
     862:	84 eb       	ldi	r24, 0xB4	; 180
     864:	93 e0       	ldi	r25, 0x03	; 3
     866:	0e 94 d5 01 	call	0x3aa	;  0x3aa
     86a:	1a c0       	rjmp	.+52     	;  0x8a0
     86c:	62 e3       	ldi	r22, 0x32	; 50
     86e:	72 e0       	ldi	r23, 0x02	; 2
     870:	8c e4       	ldi	r24, 0x4C	; 76
     872:	93 e0       	ldi	r25, 0x03	; 3
     874:	0e 94 19 22 	call	0x4432	;  0x4432
     878:	40 91 b5 03 	lds	r20, 0x03B5
     87c:	00 e1       	ldi	r16, 0x10	; 16
     87e:	20 e2       	ldi	r18, 0x20	; 32
     880:	50 e0       	ldi	r21, 0x00	; 0
     882:	66 eb       	ldi	r22, 0xB6	; 182
     884:	73 e0       	ldi	r23, 0x03	; 3
     886:	8c e4       	ldi	r24, 0x4C	; 76
     888:	93 e0       	ldi	r25, 0x03	; 3
     88a:	0e 94 f9 09 	call	0x13f2	;  0x13f2
     88e:	6a e0       	ldi	r22, 0x0A	; 10
     890:	8c e4       	ldi	r24, 0x4C	; 76
     892:	93 e0       	ldi	r25, 0x03	; 3
     894:	0e 94 1b 22 	call	0x4436	;  0x4436
     898:	84 eb       	ldi	r24, 0xB4	; 180
     89a:	93 e0       	ldi	r25, 0x03	; 3
     89c:	0e 94 8a 02 	call	0x514	;  0x514
     8a0:	88 23       	and	r24, r24
     8a2:	09 f4       	brne	.+2      	;  0x8a6
     8a4:	52 c0       	rjmp	.+164    	;  0x94a
     8a6:	0e 94 d2 00 	call	0x1a4	;  0x1a4
     8aa:	80 91 33 05 	lds	r24, 0x0533
     8ae:	90 91 34 05 	lds	r25, 0x0534
     8b2:	07 96       	adiw	r24, 0x07	; 7
     8b4:	28 e0       	ldi	r18, 0x08	; 8
     8b6:	30 e0       	ldi	r19, 0x00	; 0
     8b8:	b9 01       	movw	r22, r18
     8ba:	0e 94 ba 25 	call	0x4b74	;  0x4b74
     8be:	55 e0       	ldi	r21, 0x05	; 5
     8c0:	88 0f       	add	r24, r24
     8c2:	99 1f       	adc	r25, r25
     8c4:	5a 95       	dec	r21
     8c6:	e1 f7       	brne	.-8      	;  0x8c0
     8c8:	8f 5c       	subi	r24, 0xCF	; 207
     8ca:	9b 4f       	sbci	r25, 0xFB	; 251
     8cc:	40 91 27 04 	lds	r20, 0x0427
     8d0:	50 91 28 04 	lds	r21, 0x0428
     8d4:	60 91 29 04 	lds	r22, 0x0429
     8d8:	70 91 2a 04 	lds	r23, 0x042A
     8dc:	fc 01       	movw	r30, r24
     8de:	44 83       	std	Z+4, r20	; 0x04
     8e0:	55 83       	std	Z+5, r21	; 0x05
     8e2:	66 83       	std	Z+6, r22	; 0x06
     8e4:	77 83       	std	Z+7, r23	; 0x07
     8e6:	dc 01       	movw	r26, r24
     8e8:	53 96       	adiw	r26, 0x13	; 19
     8ea:	88 e0       	ldi	r24, 0x08	; 8
     8ec:	ec e5       	ldi	r30, 0x5C	; 92
     8ee:	f3 e0       	ldi	r31, 0x03	; 3
     8f0:	01 90       	ld	r0, Z+
     8f2:	0d 92       	st	X+, r0
     8f4:	8a 95       	dec	r24
     8f6:	e1 f7       	brne	.-8      	;  0x8f0
     8f8:	80 91 33 05 	lds	r24, 0x0533
     8fc:	90 91 34 05 	lds	r25, 0x0534
     900:	07 96       	adiw	r24, 0x07	; 7
     902:	b9 01       	movw	r22, r18
     904:	0e 94 ba 25 	call	0x4b74	;  0x4b74
     908:	65 e0       	ldi	r22, 0x05	; 5
     90a:	88 0f       	add	r24, r24
     90c:	99 1f       	adc	r25, r25
     90e:	6a 95       	dec	r22
     910:	e1 f7       	brne	.-8      	;  0x90a
     912:	8f 5c       	subi	r24, 0xCF	; 207
     914:	9b 4f       	sbci	r25, 0xFB	; 251
     916:	fc 01       	movw	r30, r24
     918:	10 87       	std	Z+8, r17	; 0x08
     91a:	17 c0       	rjmp	.+46     	;  0x94a
     91c:	0e 94 4f 24 	call	0x489e	;  0x489e
     920:	00 91 be 03 	lds	r16, 0x03BE
     924:	10 91 bf 03 	lds	r17, 0x03BF
     928:	20 91 c0 03 	lds	r18, 0x03C0
     92c:	30 91 c1 03 	lds	r19, 0x03C1
     930:	08 57       	subi	r16, 0x78	; 120
     932:	1c 4e       	sbci	r17, 0xEC	; 236
     934:	2f 4f       	sbci	r18, 0xFF	; 255
     936:	3f 4f       	sbci	r19, 0xFF	; 255
     938:	06 17       	cp	r16, r22
     93a:	17 07       	cpc	r17, r23
     93c:	28 07       	cpc	r18, r24
     93e:	39 07       	cpc	r19, r25
     940:	20 f4       	brcc	.+8      	;  0x94a
     942:	84 eb       	ldi	r24, 0xB4	; 180
     944:	93 e0       	ldi	r25, 0x03	; 3
     946:	0e 94 f6 00 	call	0x1ec	;  0x1ec
     94a:	66 e4       	ldi	r22, 0x46	; 70
     94c:	73 e0       	ldi	r23, 0x03	; 3
     94e:	8e 01       	movw	r16, r28
     950:	0f 5f       	subi	r16, 0xFF	; 255
     952:	1f 4f       	sbci	r17, 0xFF	; 255
     954:	c8 01       	movw	r24, r16
     956:	0e 94 12 1d 	call	0x3a24	;  0x3a24
     95a:	c8 01       	movw	r24, r16
     95c:	0e 94 20 1a 	call	0x3440	;  0x3440
     960:	88 23       	and	r24, r24
     962:	09 f4       	brne	.+2      	;  0x966
     964:	d0 c0       	rjmp	.+416    	;  0xb06
     966:	6b e4       	ldi	r22, 0x4B	; 75
     968:	72 e0       	ldi	r23, 0x02	; 2
     96a:	82 e4       	ldi	r24, 0x42	; 66
     96c:	96 e0       	ldi	r25, 0x06	; 6
     96e:	0e 94 42 22 	call	0x4484	;  0x4484
     972:	a0 c0       	rjmp	.+320    	;  0xab4
     974:	c8 01       	movw	r24, r16
     976:	0e 94 6b 1a 	call	0x34d6	;  0x34d6
     97a:	89 2b       	or	r24, r25
     97c:	09 f4       	brne	.+2      	;  0x980
     97e:	9e c0       	rjmp	.+316    	;  0xabc
     980:	c8 01       	movw	r24, r16
     982:	0e 94 50 1a 	call	0x34a0	;  0x34a0
     986:	28 2f       	mov	r18, r24
     988:	e0 91 42 06 	lds	r30, 0x0642
     98c:	f0 91 43 06 	lds	r31, 0x0643
     990:	01 90       	ld	r0, Z+
     992:	f0 81       	ld	r31, Z
     994:	e0 2d       	mov	r30, r0
     996:	68 2f       	mov	r22, r24
     998:	82 e4       	ldi	r24, 0x42	; 66
     99a:	96 e0       	ldi	r25, 0x06	; 6
     99c:	2a 8b       	std	Y+18, r18	; 0x12
     99e:	09 95       	icall
     9a0:	2a 89       	ldd	r18, Y+18	; 0x12
     9a2:	2a 30       	cpi	r18, 0x0A	; 10
     9a4:	09 f0       	breq	.+2      	;  0x9a8
     9a6:	83 c0       	rjmp	.+262    	;  0xaae
     9a8:	ff 20       	and	r15, r15
     9aa:	09 f4       	brne	.+2      	;  0x9ae
     9ac:	83 c0       	rjmp	.+262    	;  0xab4
     9ae:	c8 01       	movw	r24, r16
     9b0:	0e 94 03 01 	call	0x206	;  0x206
     9b4:	66 e5       	ldi	r22, 0x56	; 86
     9b6:	72 e0       	ldi	r23, 0x02	; 2
     9b8:	c8 01       	movw	r24, r16
     9ba:	0e 94 42 22 	call	0x4484	;  0x4484
     9be:	6d e5       	ldi	r22, 0x5D	; 93
     9c0:	72 e0       	ldi	r23, 0x02	; 2
     9c2:	c8 01       	movw	r24, r16
     9c4:	0e 94 42 22 	call	0x4484	;  0x4484
     9c8:	86 e2       	ldi	r24, 0x26	; 38
     9ca:	94 e0       	ldi	r25, 0x04	; 4
     9cc:	0e 94 3c 0b 	call	0x1678	;  0x1678
     9d0:	40 91 27 04 	lds	r20, 0x0427
     9d4:	50 91 28 04 	lds	r21, 0x0428
     9d8:	60 91 29 04 	lds	r22, 0x0429
     9dc:	70 91 2a 04 	lds	r23, 0x042A
     9e0:	20 e1       	ldi	r18, 0x10	; 16
     9e2:	30 e0       	ldi	r19, 0x00	; 0
     9e4:	c8 01       	movw	r24, r16
     9e6:	0e 94 c6 22 	call	0x458c	;  0x458c
     9ea:	66 e8       	ldi	r22, 0x86	; 134
     9ec:	72 e0       	ldi	r23, 0x02	; 2
     9ee:	c8 01       	movw	r24, r16
     9f0:	0e 94 42 22 	call	0x4484	;  0x4484
     9f4:	00 e0       	ldi	r16, 0x00	; 0
     9f6:	10 e0       	ldi	r17, 0x00	; 0
     9f8:	48 e0       	ldi	r20, 0x08	; 8
     9fa:	e4 2e       	mov	r14, r20
     9fc:	f1 2c       	mov	r15, r1
     9fe:	80 91 31 05 	lds	r24, 0x0531
     a02:	90 91 32 05 	lds	r25, 0x0532
     a06:	80 0f       	add	r24, r16
     a08:	91 1f       	adc	r25, r17
     a0a:	b7 01       	movw	r22, r14
     a0c:	0e 94 ba 25 	call	0x4b74	;  0x4b74
     a10:	35 e0       	ldi	r19, 0x05	; 5
     a12:	88 0f       	add	r24, r24
     a14:	99 1f       	adc	r25, r25
     a16:	3a 95       	dec	r19
     a18:	e1 f7       	brne	.-8      	;  0xa12
     a1a:	8f 5c       	subi	r24, 0xCF	; 207
     a1c:	9b 4f       	sbci	r25, 0xFB	; 251
     a1e:	fc 01       	movw	r30, r24
     a20:	44 81       	ldd	r20, Z+4	; 0x04
     a22:	55 81       	ldd	r21, Z+5	; 0x05
     a24:	66 81       	ldd	r22, Z+6	; 0x06
     a26:	77 81       	ldd	r23, Z+7	; 0x07
     a28:	41 15       	cp	r20, r1
     a2a:	51 05       	cpc	r21, r1
     a2c:	61 05       	cpc	r22, r1
     a2e:	71 05       	cpc	r23, r1
     a30:	09 f0       	breq	.+2      	;  0xa34
     a32:	5a c0       	rjmp	.+180    	;  0xae8
     a34:	80 85       	ldd	r24, Z+8	; 0x08
     a36:	8f 3f       	cpi	r24, 0xFF	; 255
     a38:	09 f0       	breq	.+2      	;  0xa3c
     a3a:	56 c0       	rjmp	.+172    	;  0xae8
     a3c:	25 c0       	rjmp	.+74     	;  0xa88
     a3e:	80 91 31 05 	lds	r24, 0x0531
     a42:	90 91 32 05 	lds	r25, 0x0532
     a46:	80 0f       	add	r24, r16
     a48:	91 1f       	adc	r25, r17
     a4a:	b7 01       	movw	r22, r14
     a4c:	0e 94 ba 25 	call	0x4b74	;  0x4b74
     a50:	25 e0       	ldi	r18, 0x05	; 5
     a52:	88 0f       	add	r24, r24
     a54:	99 1f       	adc	r25, r25
     a56:	2a 95       	dec	r18
     a58:	e1 f7       	brne	.-8      	;  0xa52
     a5a:	8f 5c       	subi	r24, 0xCF	; 207
     a5c:	9b 4f       	sbci	r25, 0xFB	; 251
     a5e:	8c 0d       	add	r24, r12
     a60:	9d 1d       	adc	r25, r13
     a62:	fc 01       	movw	r30, r24
     a64:	63 89       	ldd	r22, Z+19	; 0x13
     a66:	ce 01       	movw	r24, r28
     a68:	01 96       	adiw	r24, 0x01	; 1
     a6a:	0e 94 1b 22 	call	0x4436	;  0x4436
     a6e:	ff ef       	ldi	r31, 0xFF	; 255
     a70:	cf 1a       	sub	r12, r31
     a72:	df 0a       	sbc	r13, r31
     a74:	88 e0       	ldi	r24, 0x08	; 8
     a76:	c8 16       	cp	r12, r24
     a78:	d1 04       	cpc	r13, r1
     a7a:	09 f7       	brne	.-62     	;  0xa3e
     a7c:	66 e8       	ldi	r22, 0x86	; 134
     a7e:	72 e0       	ldi	r23, 0x02	; 2
     a80:	ce 01       	movw	r24, r28
     a82:	01 96       	adiw	r24, 0x01	; 1
     a84:	0e 94 42 22 	call	0x4484	;  0x4484
     a88:	0f 5f       	subi	r16, 0xFF	; 255
     a8a:	1f 4f       	sbci	r17, 0xFF	; 255
     a8c:	08 30       	cpi	r16, 0x08	; 8
     a8e:	11 05       	cpc	r17, r1
     a90:	09 f0       	breq	.+2      	;  0xa94
     a92:	b5 cf       	rjmp	.-150    	;  0x9fe
     a94:	66 e8       	ldi	r22, 0x86	; 134
     a96:	72 e0       	ldi	r23, 0x02	; 2
     a98:	ce 01       	movw	r24, r28
     a9a:	01 96       	adiw	r24, 0x01	; 1
     a9c:	0e 94 42 22 	call	0x4484	;  0x4484
     aa0:	6d e8       	ldi	r22, 0x8D	; 141
     aa2:	72 e0       	ldi	r23, 0x02	; 2
     aa4:	ce 01       	movw	r24, r28
     aa6:	01 96       	adiw	r24, 0x01	; 1
     aa8:	0e 94 42 22 	call	0x4484	;  0x4484
     aac:	0c c0       	rjmp	.+24     	;  0xac6
     aae:	2d 30       	cpi	r18, 0x0D	; 13
     ab0:	21 f4       	brne	.+8      	;  0xaba
     ab2:	04 c0       	rjmp	.+8      	;  0xabc
     ab4:	ff 24       	eor	r15, r15
     ab6:	f3 94       	inc	r15
     ab8:	01 c0       	rjmp	.+2      	;  0xabc
     aba:	f1 2c       	mov	r15, r1
     abc:	c8 01       	movw	r24, r16
     abe:	0e 94 14 1b 	call	0x3628	;  0x3628
     ac2:	81 11       	cpse	r24, r1
     ac4:	57 cf       	rjmp	.-338    	;  0x974
     ac6:	61 e0       	ldi	r22, 0x01	; 1
     ac8:	70 e0       	ldi	r23, 0x00	; 0
     aca:	80 e0       	ldi	r24, 0x00	; 0
     acc:	90 e0       	ldi	r25, 0x00	; 0
     ace:	0e 94 8b 24 	call	0x4916	;  0x4916
     ad2:	ce 01       	movw	r24, r28
     ad4:	01 96       	adiw	r24, 0x01	; 1
     ad6:	0e 94 38 1b 	call	0x3670	;  0x3670
     ada:	65 e9       	ldi	r22, 0x95	; 149
     adc:	72 e0       	ldi	r23, 0x02	; 2
     ade:	82 e4       	ldi	r24, 0x42	; 66
     ae0:	96 e0       	ldi	r25, 0x06	; 6
     ae2:	0e 94 42 22 	call	0x4484	;  0x4484
     ae6:	0f c0       	rjmp	.+30     	;  0xb06
     ae8:	20 e1       	ldi	r18, 0x10	; 16
     aea:	30 e0       	ldi	r19, 0x00	; 0
     aec:	ce 01       	movw	r24, r28
     aee:	01 96       	adiw	r24, 0x01	; 1
     af0:	0e 94 c6 22 	call	0x458c	;  0x458c
     af4:	64 ee       	ldi	r22, 0xE4	; 228
     af6:	71 e0       	ldi	r23, 0x01	; 1
     af8:	ce 01       	movw	r24, r28
     afa:	01 96       	adiw	r24, 0x01	; 1
     afc:	0e 94 19 22 	call	0x4432	;  0x4432
     b00:	c1 2c       	mov	r12, r1
     b02:	d1 2c       	mov	r13, r1
     b04:	9c cf       	rjmp	.-200    	;  0xa3e
     b06:	62 96       	adiw	r28, 0x12	; 18
     b08:	0f b6       	in	r0, 0x3f	; 63
     b0a:	f8 94       	cli
     b0c:	de bf       	out	0x3e, r29	; 62
     b0e:	0f be       	out	0x3f, r0	; 63
     b10:	cd bf       	out	0x3d, r28	; 61
     b12:	df 91       	pop	r29
     b14:	cf 91       	pop	r28
     b16:	1f 91       	pop	r17
     b18:	0f 91       	pop	r16
     b1a:	ff 90       	pop	r15
     b1c:	ef 90       	pop	r14
     b1e:	df 90       	pop	r13
     b20:	cf 90       	pop	r12
     b22:	08 95       	ret
     b24:	ef 92       	push	r14
     b26:	ff 92       	push	r15
     b28:	0f 93       	push	r16
     b2a:	1f 93       	push	r17
     b2c:	cf 93       	push	r28
     b2e:	df 93       	push	r29
     b30:	cd b7       	in	r28, 0x3d	; 61
     b32:	de b7       	in	r29, 0x3e	; 62
     b34:	aa 97       	sbiw	r28, 0x2a	; 42
     b36:	0f b6       	in	r0, 0x3f	; 63
     b38:	f8 94       	cli
     b3a:	de bf       	out	0x3e, r29	; 62
     b3c:	0f be       	out	0x3f, r0	; 63
     b3e:	cd bf       	out	0x3d, r28	; 61
     b40:	86 e0       	ldi	r24, 0x06	; 6
     b42:	ee e0       	ldi	r30, 0x0E	; 14
     b44:	f1 e0       	ldi	r31, 0x01	; 1
     b46:	de 01       	movw	r26, r28
     b48:	95 96       	adiw	r26, 0x25	; 37
     b4a:	01 90       	ld	r0, Z+
     b4c:	0d 92       	st	X+, r0
     b4e:	8a 95       	dec	r24
     b50:	e1 f7       	brne	.-8      	;  0xb4a
     b52:	60 e0       	ldi	r22, 0x00	; 0
     b54:	70 e0       	ldi	r23, 0x00	; 0
     b56:	81 e4       	ldi	r24, 0x41	; 65
     b58:	96 e0       	ldi	r25, 0x06	; 6
     b5a:	0e 94 7c 1f 	call	0x3ef8	;  0x3ef8
     b5e:	8e 39       	cpi	r24, 0x9E	; 158
     b60:	d9 f4       	brne	.+54     	;  0xb98
     b62:	61 e0       	ldi	r22, 0x01	; 1
     b64:	70 e0       	ldi	r23, 0x00	; 0
     b66:	81 e4       	ldi	r24, 0x41	; 65
     b68:	96 e0       	ldi	r25, 0x06	; 6
     b6a:	0e 94 7c 1f 	call	0x3ef8	;  0x3ef8
     b6e:	88 23       	and	r24, r24
     b70:	99 f0       	breq	.+38     	;  0xb98
     b72:	7e 01       	movw	r14, r28
     b74:	85 e2       	ldi	r24, 0x25	; 37
     b76:	e8 0e       	add	r14, r24
     b78:	f1 1c       	adc	r15, r1
     b7a:	02 e0       	ldi	r16, 0x02	; 2
     b7c:	10 e0       	ldi	r17, 0x00	; 0
     b7e:	b8 01       	movw	r22, r16
     b80:	81 e4       	ldi	r24, 0x41	; 65
     b82:	96 e0       	ldi	r25, 0x06	; 6
     b84:	0e 94 7c 1f 	call	0x3ef8	;  0x3ef8
     b88:	f7 01       	movw	r30, r14
     b8a:	81 93       	st	Z+, r24
     b8c:	7f 01       	movw	r14, r30
     b8e:	0f 5f       	subi	r16, 0xFF	; 255
     b90:	1f 4f       	sbci	r17, 0xFF	; 255
     b92:	08 30       	cpi	r16, 0x08	; 8
     b94:	11 05       	cpc	r17, r1
     b96:	99 f7       	brne	.-26     	;  0xb7e
     b98:	01 eb       	ldi	r16, 0xB1	; 177
     b9a:	21 e0       	ldi	r18, 0x01	; 1
     b9c:	48 ea       	ldi	r20, 0xA8	; 168
     b9e:	60 ec       	ldi	r22, 0xC0	; 192
     ba0:	ce 01       	movw	r24, r28
     ba2:	4f 96       	adiw	r24, 0x1f	; 31
     ba4:	0e 94 b5 21 	call	0x436a	;  0x436a
     ba8:	01 e0       	ldi	r16, 0x01	; 1
     baa:	21 e0       	ldi	r18, 0x01	; 1
     bac:	48 ea       	ldi	r20, 0xA8	; 168
     bae:	60 ec       	ldi	r22, 0xC0	; 192
     bb0:	ce 01       	movw	r24, r28
     bb2:	49 96       	adiw	r24, 0x19	; 25
     bb4:	0e 94 b5 21 	call	0x436a	;  0x436a
     bb8:	00 e0       	ldi	r16, 0x00	; 0
     bba:	20 e0       	ldi	r18, 0x00	; 0
     bbc:	4f ef       	ldi	r20, 0xFF	; 255
     bbe:	6f ef       	ldi	r22, 0xFF	; 255
     bc0:	ce 01       	movw	r24, r28
     bc2:	43 96       	adiw	r24, 0x13	; 19
     bc4:	0e 94 b5 21 	call	0x436a	;  0x436a
     bc8:	24 e4       	ldi	r18, 0x44	; 68
     bca:	33 e0       	ldi	r19, 0x03	; 3
     bcc:	3a 83       	std	Y+2, r19	; 0x02
     bce:	29 83       	std	Y+1, r18	; 0x01
     bd0:	8d 89       	ldd	r24, Y+21	; 0x15
     bd2:	9e 89       	ldd	r25, Y+22	; 0x16
     bd4:	af 89       	ldd	r26, Y+23	; 0x17
     bd6:	b8 8d       	ldd	r27, Y+24	; 0x18
     bd8:	8b 83       	std	Y+3, r24	; 0x03
     bda:	9c 83       	std	Y+4, r25	; 0x04
     bdc:	ad 83       	std	Y+5, r26	; 0x05
     bde:	be 83       	std	Y+6, r27	; 0x06
     be0:	38 87       	std	Y+8, r19	; 0x08
     be2:	2f 83       	std	Y+7, r18	; 0x07
     be4:	8b 8d       	ldd	r24, Y+27	; 0x1b
     be6:	9c 8d       	ldd	r25, Y+28	; 0x1c
     be8:	ad 8d       	ldd	r26, Y+29	; 0x1d
     bea:	be 8d       	ldd	r27, Y+30	; 0x1e
     bec:	89 87       	std	Y+9, r24	; 0x09
     bee:	9a 87       	std	Y+10, r25	; 0x0a
     bf0:	ab 87       	std	Y+11, r26	; 0x0b
     bf2:	bc 87       	std	Y+12, r27	; 0x0c
     bf4:	3e 87       	std	Y+14, r19	; 0x0e
     bf6:	2d 87       	std	Y+13, r18	; 0x0d
     bf8:	89 a1       	ldd	r24, Y+33	; 0x21
     bfa:	9a a1       	ldd	r25, Y+34	; 0x22
     bfc:	ab a1       	ldd	r26, Y+35	; 0x23
     bfe:	bc a1       	ldd	r27, Y+36	; 0x24
     c00:	8f 87       	std	Y+15, r24	; 0x0f
     c02:	98 8b       	std	Y+16, r25	; 0x10
     c04:	a9 8b       	std	Y+17, r26	; 0x11
     c06:	ba 8b       	std	Y+18, r27	; 0x12
     c08:	8e 01       	movw	r16, r28
     c0a:	0f 5f       	subi	r16, 0xFF	; 255
     c0c:	1f 4f       	sbci	r17, 0xFF	; 255
     c0e:	9e 01       	movw	r18, r28
     c10:	29 5f       	subi	r18, 0xF9	; 249
     c12:	3f 4f       	sbci	r19, 0xFF	; 255
     c14:	ae 01       	movw	r20, r28
     c16:	43 5f       	subi	r20, 0xF3	; 243
     c18:	5f 4f       	sbci	r21, 0xFF	; 255
     c1a:	be 01       	movw	r22, r28
     c1c:	6b 5d       	subi	r22, 0xDB	; 219
     c1e:	7f 4f       	sbci	r23, 0xFF	; 255
     c20:	89 e1       	ldi	r24, 0x19	; 25
     c22:	96 e0       	ldi	r25, 0x06	; 6
     c24:	0e 94 4c 19 	call	0x3298	;  0x3298
     c28:	aa 96       	adiw	r28, 0x2a	; 42
     c2a:	0f b6       	in	r0, 0x3f	; 63
     c2c:	f8 94       	cli
     c2e:	de bf       	out	0x3e, r29	; 62
     c30:	0f be       	out	0x3f, r0	; 63
     c32:	cd bf       	out	0x3d, r28	; 61
     c34:	df 91       	pop	r29
     c36:	cf 91       	pop	r28
     c38:	1f 91       	pop	r17
     c3a:	0f 91       	pop	r16
     c3c:	ff 90       	pop	r15
     c3e:	ef 90       	pop	r14
     c40:	08 95       	ret
     c42:	cf 93       	push	r28
     c44:	df 93       	push	r29
     c46:	00 d0       	rcall	.+0      	;  0xc48
     c48:	00 d0       	rcall	.+0      	;  0xc4a
     c4a:	00 d0       	rcall	.+0      	;  0xc4c
     c4c:	cd b7       	in	r28, 0x3d	; 61
     c4e:	de b7       	in	r29, 0x3e	; 62
     c50:	40 e0       	ldi	r20, 0x00	; 0
     c52:	5b e4       	ldi	r21, 0x4B	; 75
     c54:	60 e0       	ldi	r22, 0x00	; 0
     c56:	70 e0       	ldi	r23, 0x00	; 0
     c58:	82 e4       	ldi	r24, 0x42	; 66
     c5a:	96 e0       	ldi	r25, 0x06	; 6
     c5c:	0e 94 99 20 	call	0x4132	;  0x4132
     c60:	0e 94 8a 0a 	call	0x1514	;  0x1514
     c64:	0e 94 92 05 	call	0xb24	;  0xb24
     c68:	86 e4       	ldi	r24, 0x46	; 70
     c6a:	93 e0       	ldi	r25, 0x03	; 3
     c6c:	0e 94 09 1c 	call	0x3812	;  0x3812
     c70:	69 e1       	ldi	r22, 0x19	; 25
     c72:	76 e0       	ldi	r23, 0x06	; 6
     c74:	ce 01       	movw	r24, r28
     c76:	01 96       	adiw	r24, 0x01	; 1
     c78:	0e 94 c3 19 	call	0x3386	;  0x3386
     c7c:	68 ea       	ldi	r22, 0xA8	; 168
     c7e:	72 e0       	ldi	r23, 0x02	; 2
     c80:	8c e4       	ldi	r24, 0x4C	; 76
     c82:	93 e0       	ldi	r25, 0x03	; 3
     c84:	0e 94 19 22 	call	0x4432	;  0x4432
     c88:	be 01       	movw	r22, r28
     c8a:	6f 5f       	subi	r22, 0xFF	; 255
     c8c:	7f 4f       	sbci	r23, 0xFF	; 255
     c8e:	8c e4       	ldi	r24, 0x4C	; 76
     c90:	93 e0       	ldi	r25, 0x03	; 3
     c92:	0e 94 22 22 	call	0x4444	;  0x4444
     c96:	6a e0       	ldi	r22, 0x0A	; 10
     c98:	8c e4       	ldi	r24, 0x4C	; 76
     c9a:	93 e0       	ldi	r25, 0x03	; 3
     c9c:	0e 94 1b 22 	call	0x4436	;  0x4436
     ca0:	89 ea       	ldi	r24, 0xA9	; 169
     ca2:	95 e0       	ldi	r25, 0x05	; 5
     ca4:	0e 94 8f 09 	call	0x131e	;  0x131e
     ca8:	86 ec       	ldi	r24, 0xC6	; 198
     caa:	93 e0       	ldi	r25, 0x03	; 3
     cac:	0e 94 99 0b 	call	0x1732	;  0x1732
     cb0:	0e 94 29 01 	call	0x252	;  0x252
     cb4:	86 e2       	ldi	r24, 0x26	; 38
     cb6:	94 e0       	ldi	r25, 0x04	; 4
     cb8:	0e 94 02 0b 	call	0x1604	;  0x1604
     cbc:	86 e2       	ldi	r24, 0x26	; 38
     cbe:	94 e0       	ldi	r25, 0x04	; 4
     cc0:	0e 94 3c 0b 	call	0x1678	;  0x1678
     cc4:	86 e2       	ldi	r24, 0x26	; 38
     cc6:	94 e0       	ldi	r25, 0x04	; 4
     cc8:	0e 94 56 0b 	call	0x16ac	;  0x16ac
     ccc:	84 eb       	ldi	r24, 0xB4	; 180
     cce:	93 e0       	ldi	r25, 0x03	; 3
     cd0:	0e 94 f6 00 	call	0x1ec	;  0x1ec
     cd4:	66 eb       	ldi	r22, 0xB6	; 182
     cd6:	72 e0       	ldi	r23, 0x02	; 2
     cd8:	82 e4       	ldi	r24, 0x42	; 66
     cda:	96 e0       	ldi	r25, 0x06	; 6
     cdc:	0e 94 19 22 	call	0x4432	;  0x4432
     ce0:	6a e0       	ldi	r22, 0x0A	; 10
     ce2:	82 e4       	ldi	r24, 0x42	; 66
     ce4:	96 e0       	ldi	r25, 0x06	; 6
     ce6:	0e 94 1b 22 	call	0x4436	;  0x4436
     cea:	26 96       	adiw	r28, 0x06	; 6
     cec:	0f b6       	in	r0, 0x3f	; 63
     cee:	f8 94       	cli
     cf0:	de bf       	out	0x3e, r29	; 62
     cf2:	0f be       	out	0x3f, r0	; 63
     cf4:	cd bf       	out	0x3d, r28	; 61
     cf6:	df 91       	pop	r29
     cf8:	cf 91       	pop	r28
     cfa:	08 95       	ret
     cfc:	0f 93       	push	r16
     cfe:	00 e0       	ldi	r16, 0x00	; 0
     d00:	20 e0       	ldi	r18, 0x00	; 0
     d02:	40 e0       	ldi	r20, 0x00	; 0
     d04:	60 e0       	ldi	r22, 0x00	; 0
     d06:	85 e3       	ldi	r24, 0x35	; 53
     d08:	95 e0       	ldi	r25, 0x05	; 5
     d0a:	0e 94 b5 21 	call	0x436a	;  0x436a
     d0e:	89 e0       	ldi	r24, 0x09	; 9
     d10:	80 93 26 04 	sts	0x0426, r24
     d14:	10 92 27 04 	sts	0x0427, r1
     d18:	10 92 28 04 	sts	0x0428, r1
     d1c:	10 92 29 04 	sts	0x0429, r1
     d20:	10 92 2a 04 	sts	0x042A, r1
     d24:	10 92 2b 04 	sts	0x042B, r1
     d28:	10 92 2c 04 	sts	0x042C, r1
     d2c:	10 92 2d 04 	sts	0x042D, r1
     d30:	10 92 2e 04 	sts	0x042E, r1
     d34:	10 92 30 04 	sts	0x0430, r1
     d38:	10 92 2f 04 	sts	0x042F, r1
     d3c:	27 e0       	ldi	r18, 0x07	; 7
     d3e:	42 e0       	ldi	r20, 0x02	; 2
     d40:	64 e2       	ldi	r22, 0x24	; 36
     d42:	86 ec       	ldi	r24, 0xC6	; 198
     d44:	93 e0       	ldi	r25, 0x03	; 3
     d46:	0e 94 70 0b 	call	0x16e0	;  0x16e0
     d4a:	84 eb       	ldi	r24, 0xB4	; 180
     d4c:	93 e0       	ldi	r25, 0x03	; 3
     d4e:	0e 94 f6 00 	call	0x1ec	;  0x1ec
     d52:	8a ea       	ldi	r24, 0xAA	; 170
     d54:	93 e0       	ldi	r25, 0x03	; 3
     d56:	0e 94 f6 00 	call	0x1ec	;  0x1ec
     d5a:	10 92 4f 03 	sts	0x034F, r1
     d5e:	10 92 4e 03 	sts	0x034E, r1
     d62:	88 ee       	ldi	r24, 0xE8	; 232
     d64:	93 e0       	ldi	r25, 0x03	; 3
     d66:	a0 e0       	ldi	r26, 0x00	; 0
     d68:	b0 e0       	ldi	r27, 0x00	; 0
     d6a:	80 93 50 03 	sts	0x0350, r24
     d6e:	90 93 51 03 	sts	0x0351, r25
     d72:	a0 93 52 03 	sts	0x0352, r26
     d76:	b0 93 53 03 	sts	0x0353, r27
     d7a:	88 ec       	ldi	r24, 0xC8	; 200
     d7c:	92 e0       	ldi	r25, 0x02	; 2
     d7e:	90 93 4d 03 	sts	0x034D, r25
     d82:	80 93 4c 03 	sts	0x034C, r24
     d86:	82 e4       	ldi	r24, 0x42	; 66
     d88:	96 e0       	ldi	r25, 0x06	; 6
     d8a:	90 93 59 03 	sts	0x0359, r25
     d8e:	80 93 58 03 	sts	0x0358, r24
     d92:	60 e5       	ldi	r22, 0x50	; 80
     d94:	70 e0       	ldi	r23, 0x00	; 0
     d96:	86 e4       	ldi	r24, 0x46	; 70
     d98:	93 e0       	ldi	r25, 0x03	; 3
     d9a:	0f 91       	pop	r16
     d9c:	0c 94 4d 1c 	jmp	0x389a	;  0x389a
     da0:	88 ec       	ldi	r24, 0xC8	; 200
     da2:	92 e0       	ldi	r25, 0x02	; 2
     da4:	90 93 4d 03 	sts	0x034D, r25
     da8:	80 93 4c 03 	sts	0x034C, r24
     dac:	08 95       	ret
     dae:	0e 94 bd 24 	call	0x497a	;  0x497a
     db2:	0e 94 21 06 	call	0xc42	;  0xc42
     db6:	c5 e5       	ldi	r28, 0x55	; 85
     db8:	d0 e2       	ldi	r29, 0x20	; 32
     dba:	0e 94 60 03 	call	0x6c0	;  0x6c0
     dbe:	20 97       	sbiw	r28, 0x00	; 0
     dc0:	e1 f3       	breq	.-8      	;  0xdba
     dc2:	0e 94 55 20 	call	0x40aa	;  0x40aa
     dc6:	f9 cf       	rjmp	.-14     	;  0xdba
     dc8:	10 92 44 05 	sts	0x0544, r1
     dcc:	81 e0       	ldi	r24, 0x01	; 1
     dce:	80 93 42 05 	sts	0x0542, r24
     dd2:	10 92 41 05 	sts	0x0541, r1
     dd6:	61 e0       	ldi	r22, 0x01	; 1
     dd8:	82 e1       	ldi	r24, 0x12	; 18
     dda:	0e 94 5a 25 	call	0x4ab4	;  0x4ab4
     dde:	61 e0       	ldi	r22, 0x01	; 1
     de0:	83 e1       	ldi	r24, 0x13	; 19
     de2:	0e 94 5a 25 	call	0x4ab4	;  0x4ab4
     de6:	e9 eb       	ldi	r30, 0xB9	; 185
     de8:	f0 e0       	ldi	r31, 0x00	; 0
     dea:	80 81       	ld	r24, Z
     dec:	8e 7f       	andi	r24, 0xFE	; 254
     dee:	80 83       	st	Z, r24
     df0:	80 81       	ld	r24, Z
     df2:	8d 7f       	andi	r24, 0xFD	; 253
     df4:	80 83       	st	Z, r24
     df6:	88 e4       	ldi	r24, 0x48	; 72
     df8:	80 93 b8 00 	sts	0x00B8, r24
     dfc:	85 e4       	ldi	r24, 0x45	; 69
     dfe:	80 93 bc 00 	sts	0x00BC, r24
     e02:	08 95       	ret
     e04:	41 32       	cpi	r20, 0x21	; 33
     e06:	08 f0       	brcs	.+2      	;  0xe0a
     e08:	3f c0       	rjmp	.+126    	;  0xe88
     e0a:	90 91 44 05 	lds	r25, 0x0544
     e0e:	91 11       	cpse	r25, r1
     e10:	fc cf       	rjmp	.-8      	;  0xe0a
     e12:	91 e0       	ldi	r25, 0x01	; 1
     e14:	90 93 44 05 	sts	0x0544, r25
     e18:	20 93 42 05 	sts	0x0542, r18
     e1c:	2f ef       	ldi	r18, 0xFF	; 255
     e1e:	20 93 3b 05 	sts	0x053B, r18
     e22:	10 92 40 05 	sts	0x0540, r1
     e26:	24 2f       	mov	r18, r20
     e28:	21 50       	subi	r18, 0x01	; 1
     e2a:	20 93 3f 05 	sts	0x053F, r18
     e2e:	90 93 43 05 	sts	0x0543, r25
     e32:	90 91 43 05 	lds	r25, 0x0543
     e36:	88 0f       	add	r24, r24
     e38:	89 2b       	or	r24, r25
     e3a:	80 93 43 05 	sts	0x0543, r24
     e3e:	80 91 41 05 	lds	r24, 0x0541
     e42:	81 30       	cpi	r24, 0x01	; 1
     e44:	41 f4       	brne	.+16     	;  0xe56
     e46:	10 92 41 05 	sts	0x0541, r1
     e4a:	80 91 43 05 	lds	r24, 0x0543
     e4e:	80 93 bb 00 	sts	0x00BB, r24
     e52:	85 ec       	ldi	r24, 0xC5	; 197
     e54:	01 c0       	rjmp	.+2      	;  0xe58
     e56:	85 ee       	ldi	r24, 0xE5	; 229
     e58:	80 93 bc 00 	sts	0x00BC, r24
     e5c:	80 91 44 05 	lds	r24, 0x0544
     e60:	81 30       	cpi	r24, 0x01	; 1
     e62:	e1 f3       	breq	.-8      	;  0xe5c
     e64:	80 91 40 05 	lds	r24, 0x0540
     e68:	84 17       	cp	r24, r20
     e6a:	10 f4       	brcc	.+4      	;  0xe70
     e6c:	40 91 40 05 	lds	r20, 0x0540
     e70:	25 e4       	ldi	r18, 0x45	; 69
     e72:	35 e0       	ldi	r19, 0x05	; 5
     e74:	fb 01       	movw	r30, r22
     e76:	d9 01       	movw	r26, r18
     e78:	02 c0       	rjmp	.+4      	;  0xe7e
     e7a:	8d 91       	ld	r24, X+
     e7c:	81 93       	st	Z+, r24
     e7e:	8a 2f       	mov	r24, r26
     e80:	82 1b       	sub	r24, r18
     e82:	84 17       	cp	r24, r20
     e84:	d0 f3       	brcs	.-12     	;  0xe7a
     e86:	01 c0       	rjmp	.+2      	;  0xe8a
     e88:	40 e0       	ldi	r20, 0x00	; 0
     e8a:	84 2f       	mov	r24, r20
     e8c:	08 95       	ret
     e8e:	0f 93       	push	r16
     e90:	41 32       	cpi	r20, 0x21	; 33
     e92:	08 f0       	brcs	.+2      	;  0xe96
     e94:	46 c0       	rjmp	.+140    	;  0xf22
     e96:	90 91 44 05 	lds	r25, 0x0544
     e9a:	91 11       	cpse	r25, r1
     e9c:	fc cf       	rjmp	.-8      	;  0xe96
     e9e:	92 e0       	ldi	r25, 0x02	; 2
     ea0:	90 93 44 05 	sts	0x0544, r25
     ea4:	00 93 42 05 	sts	0x0542, r16
     ea8:	9f ef       	ldi	r25, 0xFF	; 255
     eaa:	90 93 3b 05 	sts	0x053B, r25
     eae:	10 92 40 05 	sts	0x0540, r1
     eb2:	40 93 3f 05 	sts	0x053F, r20
     eb6:	fb 01       	movw	r30, r22
     eb8:	65 e4       	ldi	r22, 0x45	; 69
     eba:	75 e0       	ldi	r23, 0x05	; 5
     ebc:	db 01       	movw	r26, r22
     ebe:	02 c0       	rjmp	.+4      	;  0xec4
     ec0:	91 91       	ld	r25, Z+
     ec2:	9d 93       	st	X+, r25
     ec4:	9a 2f       	mov	r25, r26
     ec6:	96 1b       	sub	r25, r22
     ec8:	94 17       	cp	r25, r20
     eca:	d0 f3       	brcs	.-12     	;  0xec0
     ecc:	10 92 43 05 	sts	0x0543, r1
     ed0:	90 91 43 05 	lds	r25, 0x0543
     ed4:	88 0f       	add	r24, r24
     ed6:	89 2b       	or	r24, r25
     ed8:	80 93 43 05 	sts	0x0543, r24
     edc:	80 91 41 05 	lds	r24, 0x0541
     ee0:	81 30       	cpi	r24, 0x01	; 1
     ee2:	41 f4       	brne	.+16     	;  0xef4
     ee4:	10 92 41 05 	sts	0x0541, r1
     ee8:	80 91 43 05 	lds	r24, 0x0543
     eec:	80 93 bb 00 	sts	0x00BB, r24
     ef0:	85 ec       	ldi	r24, 0xC5	; 197
     ef2:	01 c0       	rjmp	.+2      	;  0xef6
     ef4:	85 ee       	ldi	r24, 0xE5	; 229
     ef6:	80 93 bc 00 	sts	0x00BC, r24
     efa:	22 23       	and	r18, r18
     efc:	21 f0       	breq	.+8      	;  0xf06
     efe:	80 91 44 05 	lds	r24, 0x0544
     f02:	82 30       	cpi	r24, 0x02	; 2
     f04:	e1 f3       	breq	.-8      	;  0xefe
     f06:	80 91 3b 05 	lds	r24, 0x053B
     f0a:	8f 3f       	cpi	r24, 0xFF	; 255
     f0c:	61 f0       	breq	.+24     	;  0xf26
     f0e:	80 91 3b 05 	lds	r24, 0x053B
     f12:	80 32       	cpi	r24, 0x20	; 32
     f14:	51 f0       	breq	.+20     	;  0xf2a
     f16:	80 91 3b 05 	lds	r24, 0x053B
     f1a:	80 33       	cpi	r24, 0x30	; 48
     f1c:	41 f4       	brne	.+16     	;  0xf2e
     f1e:	83 e0       	ldi	r24, 0x03	; 3
     f20:	07 c0       	rjmp	.+14     	;  0xf30
     f22:	81 e0       	ldi	r24, 0x01	; 1
     f24:	05 c0       	rjmp	.+10     	;  0xf30
     f26:	80 e0       	ldi	r24, 0x00	; 0
     f28:	03 c0       	rjmp	.+6      	;  0xf30
     f2a:	82 e0       	ldi	r24, 0x02	; 2
     f2c:	01 c0       	rjmp	.+2      	;  0xf30
     f2e:	84 e0       	ldi	r24, 0x04	; 4
     f30:	0f 91       	pop	r16
     f32:	08 95       	ret
     f34:	61 32       	cpi	r22, 0x21	; 33
     f36:	98 f4       	brcc	.+38     	;  0xf5e
     f38:	20 91 44 05 	lds	r18, 0x0544
     f3c:	24 30       	cpi	r18, 0x04	; 4
     f3e:	89 f4       	brne	.+34     	;  0xf62
     f40:	60 93 3d 05 	sts	0x053D, r22
     f44:	fc 01       	movw	r30, r24
     f46:	85 e6       	ldi	r24, 0x65	; 101
     f48:	95 e0       	ldi	r25, 0x05	; 5
     f4a:	dc 01       	movw	r26, r24
     f4c:	02 c0       	rjmp	.+4      	;  0xf52
     f4e:	21 91       	ld	r18, Z+
     f50:	2d 93       	st	X+, r18
     f52:	2a 2f       	mov	r18, r26
     f54:	28 1b       	sub	r18, r24
     f56:	26 17       	cp	r18, r22
     f58:	d0 f3       	brcs	.-12     	;  0xf4e
     f5a:	80 e0       	ldi	r24, 0x00	; 0
     f5c:	08 95       	ret
     f5e:	81 e0       	ldi	r24, 0x01	; 1
     f60:	08 95       	ret
     f62:	82 e0       	ldi	r24, 0x02	; 2
     f64:	08 95       	ret
     f66:	85 ed       	ldi	r24, 0xD5	; 213
     f68:	80 93 bc 00 	sts	0x00BC, r24
     f6c:	80 91 bc 00 	lds	r24, 0x00BC
     f70:	84 fd       	sbrc	r24, 4
     f72:	fc cf       	rjmp	.-8      	;  0xf6c
     f74:	10 92 44 05 	sts	0x0544, r1
     f78:	08 95       	ret
     f7a:	85 ec       	ldi	r24, 0xC5	; 197
     f7c:	80 93 bc 00 	sts	0x00BC, r24
     f80:	10 92 44 05 	sts	0x0544, r1
     f84:	08 95       	ret
     f86:	1f 92       	push	r1
     f88:	0f 92       	push	r0
     f8a:	0f b6       	in	r0, 0x3f	; 63
     f8c:	0f 92       	push	r0
     f8e:	11 24       	eor	r1, r1
     f90:	2f 93       	push	r18
     f92:	3f 93       	push	r19
     f94:	4f 93       	push	r20
     f96:	5f 93       	push	r21
     f98:	6f 93       	push	r22
     f9a:	7f 93       	push	r23
     f9c:	8f 93       	push	r24
     f9e:	9f 93       	push	r25
     fa0:	af 93       	push	r26
     fa2:	bf 93       	push	r27
     fa4:	ef 93       	push	r30
     fa6:	ff 93       	push	r31
     fa8:	80 91 b9 00 	lds	r24, 0x00B9
     fac:	88 7f       	andi	r24, 0xF8	; 248
     fae:	80 36       	cpi	r24, 0x60	; 96
     fb0:	09 f4       	brne	.+2      	;  0xfb4
     fb2:	9f c0       	rjmp	.+318    	;  0x10f2
     fb4:	58 f5       	brcc	.+86     	;  0x100c
     fb6:	88 32       	cpi	r24, 0x28	; 40
     fb8:	09 f4       	brne	.+2      	;  0xfbc
     fba:	5b c0       	rjmp	.+182    	;  0x1072
     fbc:	90 f4       	brcc	.+36     	;  0xfe2
     fbe:	80 31       	cpi	r24, 0x10	; 16
     fc0:	09 f4       	brne	.+2      	;  0xfc4
     fc2:	52 c0       	rjmp	.+164    	;  0x1068
     fc4:	38 f4       	brcc	.+14     	;  0xfd4
     fc6:	88 23       	and	r24, r24
     fc8:	09 f4       	brne	.+2      	;  0xfcc
     fca:	f8 c0       	rjmp	.+496    	;  0x11bc
     fcc:	88 30       	cpi	r24, 0x08	; 8
     fce:	09 f0       	breq	.+2      	;  0xfd2
     fd0:	f9 c0       	rjmp	.+498    	;  0x11c4
     fd2:	4a c0       	rjmp	.+148    	;  0x1068
     fd4:	88 31       	cpi	r24, 0x18	; 24
     fd6:	09 f4       	brne	.+2      	;  0xfda
     fd8:	4c c0       	rjmp	.+152    	;  0x1072
     fda:	80 32       	cpi	r24, 0x20	; 32
     fdc:	09 f0       	breq	.+2      	;  0xfe0
     fde:	f2 c0       	rjmp	.+484    	;  0x11c4
     fe0:	5c c0       	rjmp	.+184    	;  0x109a
     fe2:	80 34       	cpi	r24, 0x40	; 64
     fe4:	09 f4       	brne	.+2      	;  0xfe8
     fe6:	6b c0       	rjmp	.+214    	;  0x10be
     fe8:	38 f4       	brcc	.+14     	;  0xff8
     fea:	80 33       	cpi	r24, 0x30	; 48
     fec:	09 f4       	brne	.+2      	;  0xff0
     fee:	55 c0       	rjmp	.+170    	;  0x109a
     ff0:	88 33       	cpi	r24, 0x38	; 56
     ff2:	09 f0       	breq	.+2      	;  0xff6
     ff4:	e7 c0       	rjmp	.+462    	;  0x11c4
     ff6:	54 c0       	rjmp	.+168    	;  0x10a0
     ff8:	80 35       	cpi	r24, 0x50	; 80
     ffa:	09 f4       	brne	.+2      	;  0xffe
     ffc:	54 c0       	rjmp	.+168    	;  0x10a6
     ffe:	88 35       	cpi	r24, 0x58	; 88
    1000:	09 f4       	brne	.+2      	;  0x1004
    1002:	62 c0       	rjmp	.+196    	;  0x10c8
    1004:	88 34       	cpi	r24, 0x48	; 72
    1006:	09 f0       	breq	.+2      	;  0x100a
    1008:	dd c0       	rjmp	.+442    	;  0x11c4
    100a:	da c0       	rjmp	.+436    	;  0x11c0
    100c:	88 39       	cpi	r24, 0x98	; 152
    100e:	09 f4       	brne	.+2      	;  0x1012
    1010:	cb c0       	rjmp	.+406    	;  0x11a8
    1012:	a8 f4       	brcc	.+42     	;  0x103e
    1014:	88 37       	cpi	r24, 0x78	; 120
    1016:	09 f4       	brne	.+2      	;  0x101a
    1018:	6c c0       	rjmp	.+216    	;  0x10f2
    101a:	38 f4       	brcc	.+14     	;  0x102a
    101c:	88 36       	cpi	r24, 0x68	; 104
    101e:	09 f4       	brne	.+2      	;  0x1022
    1020:	68 c0       	rjmp	.+208    	;  0x10f2
    1022:	80 37       	cpi	r24, 0x70	; 112
    1024:	09 f0       	breq	.+2      	;  0x1028
    1026:	ce c0       	rjmp	.+412    	;  0x11c4
    1028:	64 c0       	rjmp	.+200    	;  0x10f2
    102a:	88 38       	cpi	r24, 0x88	; 136
    102c:	09 f4       	brne	.+2      	;  0x1030
    102e:	bc c0       	rjmp	.+376    	;  0x11a8
    1030:	80 39       	cpi	r24, 0x90	; 144
    1032:	09 f4       	brne	.+2      	;  0x1036
    1034:	64 c0       	rjmp	.+200    	;  0x10fe
    1036:	80 38       	cpi	r24, 0x80	; 128
    1038:	09 f0       	breq	.+2      	;  0x103c
    103a:	c4 c0       	rjmp	.+392    	;  0x11c4
    103c:	60 c0       	rjmp	.+192    	;  0x10fe
    103e:	80 3b       	cpi	r24, 0xB0	; 176
    1040:	09 f4       	brne	.+2      	;  0x1044
    1042:	8a c0       	rjmp	.+276    	;  0x1158
    1044:	38 f4       	brcc	.+14     	;  0x1054
    1046:	80 3a       	cpi	r24, 0xA0	; 160
    1048:	09 f4       	brne	.+2      	;  0x104c
    104a:	6b c0       	rjmp	.+214    	;  0x1122
    104c:	88 3a       	cpi	r24, 0xA8	; 168
    104e:	09 f0       	breq	.+2      	;  0x1052
    1050:	b9 c0       	rjmp	.+370    	;  0x11c4
    1052:	82 c0       	rjmp	.+260    	;  0x1158
    1054:	80 3c       	cpi	r24, 0xC0	; 192
    1056:	09 f4       	brne	.+2      	;  0x105a
    1058:	ab c0       	rjmp	.+342    	;  0x11b0
    105a:	88 3c       	cpi	r24, 0xC8	; 200
    105c:	09 f4       	brne	.+2      	;  0x1060
    105e:	a8 c0       	rjmp	.+336    	;  0x11b0
    1060:	88 3b       	cpi	r24, 0xB8	; 184
    1062:	09 f0       	breq	.+2      	;  0x1066
    1064:	af c0       	rjmp	.+350    	;  0x11c4
    1066:	8d c0       	rjmp	.+282    	;  0x1182
    1068:	80 91 43 05 	lds	r24, 0x0543
    106c:	80 93 bb 00 	sts	0x00BB, r24
    1070:	12 c0       	rjmp	.+36     	;  0x1096
    1072:	90 91 40 05 	lds	r25, 0x0540
    1076:	80 91 3f 05 	lds	r24, 0x053F
    107a:	98 17       	cp	r25, r24
    107c:	88 f5       	brcc	.+98     	;  0x10e0
    107e:	80 91 40 05 	lds	r24, 0x0540
    1082:	e8 2f       	mov	r30, r24
    1084:	f0 e0       	ldi	r31, 0x00	; 0
    1086:	eb 5b       	subi	r30, 0xBB	; 187
    1088:	fa 4f       	sbci	r31, 0xFA	; 250
    108a:	90 81       	ld	r25, Z
    108c:	90 93 bb 00 	sts	0x00BB, r25
    1090:	8f 5f       	subi	r24, 0xFF	; 255
    1092:	80 93 40 05 	sts	0x0540, r24
    1096:	85 ec       	ldi	r24, 0xC5	; 197
    1098:	88 c0       	rjmp	.+272    	;  0x11aa
    109a:	80 93 3b 05 	sts	0x053B, r24
    109e:	90 c0       	rjmp	.+288    	;  0x11c0
    10a0:	80 93 3b 05 	sts	0x053B, r24
    10a4:	56 c0       	rjmp	.+172    	;  0x1152
    10a6:	80 91 40 05 	lds	r24, 0x0540
    10aa:	90 91 bb 00 	lds	r25, 0x00BB
    10ae:	e8 2f       	mov	r30, r24
    10b0:	f0 e0       	ldi	r31, 0x00	; 0
    10b2:	eb 5b       	subi	r30, 0xBB	; 187
    10b4:	fa 4f       	sbci	r31, 0xFA	; 250
    10b6:	90 83       	st	Z, r25
    10b8:	8f 5f       	subi	r24, 0xFF	; 255
    10ba:	80 93 40 05 	sts	0x0540, r24
    10be:	90 91 40 05 	lds	r25, 0x0540
    10c2:	80 91 3f 05 	lds	r24, 0x053F
    10c6:	6d c0       	rjmp	.+218    	;  0x11a2
    10c8:	80 91 40 05 	lds	r24, 0x0540
    10cc:	90 91 bb 00 	lds	r25, 0x00BB
    10d0:	e8 2f       	mov	r30, r24
    10d2:	f0 e0       	ldi	r31, 0x00	; 0
    10d4:	eb 5b       	subi	r30, 0xBB	; 187
    10d6:	fa 4f       	sbci	r31, 0xFA	; 250
    10d8:	90 83       	st	Z, r25
    10da:	8f 5f       	subi	r24, 0xFF	; 255
    10dc:	80 93 40 05 	sts	0x0540, r24
    10e0:	80 91 42 05 	lds	r24, 0x0542
    10e4:	81 11       	cpse	r24, r1
    10e6:	6c c0       	rjmp	.+216    	;  0x11c0
    10e8:	81 e0       	ldi	r24, 0x01	; 1
    10ea:	80 93 41 05 	sts	0x0541, r24
    10ee:	84 ea       	ldi	r24, 0xA4	; 164
    10f0:	60 c0       	rjmp	.+192    	;  0x11b2
    10f2:	83 e0       	ldi	r24, 0x03	; 3
    10f4:	80 93 44 05 	sts	0x0544, r24
    10f8:	10 92 3c 05 	sts	0x053C, r1
    10fc:	cc cf       	rjmp	.-104    	;  0x1096
    10fe:	80 91 3c 05 	lds	r24, 0x053C
    1102:	80 32       	cpi	r24, 0x20	; 32
    1104:	08 f0       	brcs	.+2      	;  0x1108
    1106:	50 c0       	rjmp	.+160    	;  0x11a8
    1108:	80 91 3c 05 	lds	r24, 0x053C
    110c:	90 91 bb 00 	lds	r25, 0x00BB
    1110:	e8 2f       	mov	r30, r24
    1112:	f0 e0       	ldi	r31, 0x00	; 0
    1114:	e7 57       	subi	r30, 0x77	; 119
    1116:	fa 4f       	sbci	r31, 0xFA	; 250
    1118:	90 83       	st	Z, r25
    111a:	8f 5f       	subi	r24, 0xFF	; 255
    111c:	80 93 3c 05 	sts	0x053C, r24
    1120:	ba cf       	rjmp	.-140    	;  0x1096
    1122:	80 91 3c 05 	lds	r24, 0x053C
    1126:	80 32       	cpi	r24, 0x20	; 32
    1128:	30 f4       	brcc	.+12     	;  0x1136
    112a:	e0 91 3c 05 	lds	r30, 0x053C
    112e:	f0 e0       	ldi	r31, 0x00	; 0
    1130:	e7 57       	subi	r30, 0x77	; 119
    1132:	fa 4f       	sbci	r31, 0xFA	; 250
    1134:	10 82       	st	Z, r1
    1136:	0e 94 b3 07 	call	0xf66	;  0xf66
    113a:	60 91 3c 05 	lds	r22, 0x053C
    113e:	e0 91 85 05 	lds	r30, 0x0585
    1142:	f0 91 86 05 	lds	r31, 0x0586
    1146:	70 e0       	ldi	r23, 0x00	; 0
    1148:	89 e8       	ldi	r24, 0x89	; 137
    114a:	95 e0       	ldi	r25, 0x05	; 5
    114c:	09 95       	icall
    114e:	10 92 3c 05 	sts	0x053C, r1
    1152:	0e 94 bd 07 	call	0xf7a	;  0xf7a
    1156:	36 c0       	rjmp	.+108    	;  0x11c4
    1158:	84 e0       	ldi	r24, 0x04	; 4
    115a:	80 93 44 05 	sts	0x0544, r24
    115e:	10 92 3e 05 	sts	0x053E, r1
    1162:	10 92 3d 05 	sts	0x053D, r1
    1166:	e0 91 87 05 	lds	r30, 0x0587
    116a:	f0 91 88 05 	lds	r31, 0x0588
    116e:	09 95       	icall
    1170:	80 91 3d 05 	lds	r24, 0x053D
    1174:	81 11       	cpse	r24, r1
    1176:	05 c0       	rjmp	.+10     	;  0x1182
    1178:	81 e0       	ldi	r24, 0x01	; 1
    117a:	80 93 3d 05 	sts	0x053D, r24
    117e:	10 92 65 05 	sts	0x0565, r1
    1182:	80 91 3e 05 	lds	r24, 0x053E
    1186:	e8 2f       	mov	r30, r24
    1188:	f0 e0       	ldi	r31, 0x00	; 0
    118a:	eb 59       	subi	r30, 0x9B	; 155
    118c:	fa 4f       	sbci	r31, 0xFA	; 250
    118e:	90 81       	ld	r25, Z
    1190:	90 93 bb 00 	sts	0x00BB, r25
    1194:	8f 5f       	subi	r24, 0xFF	; 255
    1196:	80 93 3e 05 	sts	0x053E, r24
    119a:	90 91 3e 05 	lds	r25, 0x053E
    119e:	80 91 3d 05 	lds	r24, 0x053D
    11a2:	98 17       	cp	r25, r24
    11a4:	08 f4       	brcc	.+2      	;  0x11a8
    11a6:	77 cf       	rjmp	.-274    	;  0x1096
    11a8:	85 e8       	ldi	r24, 0x85	; 133
    11aa:	80 93 bc 00 	sts	0x00BC, r24
    11ae:	0a c0       	rjmp	.+20     	;  0x11c4
    11b0:	85 ec       	ldi	r24, 0xC5	; 197
    11b2:	80 93 bc 00 	sts	0x00BC, r24
    11b6:	10 92 44 05 	sts	0x0544, r1
    11ba:	04 c0       	rjmp	.+8      	;  0x11c4
    11bc:	10 92 3b 05 	sts	0x053B, r1
    11c0:	0e 94 b3 07 	call	0xf66	;  0xf66
    11c4:	ff 91       	pop	r31
    11c6:	ef 91       	pop	r30
    11c8:	bf 91       	pop	r27
    11ca:	af 91       	pop	r26
    11cc:	9f 91       	pop	r25
    11ce:	8f 91       	pop	r24
    11d0:	7f 91       	pop	r23
    11d2:	6f 91       	pop	r22
    11d4:	5f 91       	pop	r21
    11d6:	4f 91       	pop	r20
    11d8:	3f 91       	pop	r19
    11da:	2f 91       	pop	r18
    11dc:	0f 90       	pop	r0
    11de:	0f be       	out	0x3f, r0	; 63
    11e0:	0f 90       	pop	r0
    11e2:	1f 90       	pop	r1
    11e4:	18 95       	reti
    11e6:	20 91 d9 05 	lds	r18, 0x05D9
    11ea:	30 e0       	ldi	r19, 0x00	; 0
    11ec:	80 91 da 05 	lds	r24, 0x05DA
    11f0:	28 1b       	sub	r18, r24
    11f2:	31 09       	sbc	r19, r1
    11f4:	c9 01       	movw	r24, r18
    11f6:	08 95       	ret
    11f8:	80 91 da 05 	lds	r24, 0x05DA
    11fc:	90 91 d9 05 	lds	r25, 0x05D9
    1200:	89 17       	cp	r24, r25
    1202:	50 f4       	brcc	.+20     	;  0x1218
    1204:	e8 2f       	mov	r30, r24
    1206:	f0 e0       	ldi	r31, 0x00	; 0
    1208:	e5 52       	subi	r30, 0x25	; 37
    120a:	fa 4f       	sbci	r31, 0xFA	; 250
    120c:	20 81       	ld	r18, Z
    120e:	30 e0       	ldi	r19, 0x00	; 0
    1210:	8f 5f       	subi	r24, 0xFF	; 255
    1212:	80 93 da 05 	sts	0x05DA, r24
    1216:	02 c0       	rjmp	.+4      	;  0x121c
    1218:	2f ef       	ldi	r18, 0xFF	; 255
    121a:	3f ef       	ldi	r19, 0xFF	; 255
    121c:	c9 01       	movw	r24, r18
    121e:	08 95       	ret
    1220:	e0 91 da 05 	lds	r30, 0x05DA
    1224:	80 91 d9 05 	lds	r24, 0x05D9
    1228:	e8 17       	cp	r30, r24
    122a:	30 f4       	brcc	.+12     	;  0x1238
    122c:	f0 e0       	ldi	r31, 0x00	; 0
    122e:	e5 52       	subi	r30, 0x25	; 37
    1230:	fa 4f       	sbci	r31, 0xFA	; 250
    1232:	20 81       	ld	r18, Z
    1234:	30 e0       	ldi	r19, 0x00	; 0
    1236:	02 c0       	rjmp	.+4      	;  0x123c
    1238:	2f ef       	ldi	r18, 0xFF	; 255
    123a:	3f ef       	ldi	r19, 0xFF	; 255
    123c:	c9 01       	movw	r24, r18
    123e:	08 95       	ret
    1240:	08 95       	ret
    1242:	cf 92       	push	r12
    1244:	df 92       	push	r13
    1246:	ef 92       	push	r14
    1248:	ff 92       	push	r15
    124a:	0f 93       	push	r16
    124c:	1f 93       	push	r17
    124e:	cf 93       	push	r28
    1250:	df 93       	push	r29
    1252:	7c 01       	movw	r14, r24
    1254:	cb 01       	movw	r24, r22
    1256:	8a 01       	movw	r16, r20
    1258:	20 91 b5 05 	lds	r18, 0x05B5
    125c:	22 23       	and	r18, r18
    125e:	91 f0       	breq	.+36     	;  0x1284
    1260:	eb 01       	movw	r28, r22
    1262:	6b 01       	movw	r12, r22
    1264:	c4 0e       	add	r12, r20
    1266:	d5 1e       	adc	r13, r21
    1268:	09 c0       	rjmp	.+18     	;  0x127c
    126a:	69 91       	ld	r22, Y+
    126c:	d7 01       	movw	r26, r14
    126e:	ed 91       	ld	r30, X+
    1270:	fc 91       	ld	r31, X
    1272:	01 90       	ld	r0, Z+
    1274:	f0 81       	ld	r31, Z
    1276:	e0 2d       	mov	r30, r0
    1278:	c7 01       	movw	r24, r14
    127a:	09 95       	icall
    127c:	cc 15       	cp	r28, r12
    127e:	dd 05       	cpc	r29, r13
    1280:	a1 f7       	brne	.-24     	;  0x126a
    1282:	03 c0       	rjmp	.+6      	;  0x128a
    1284:	64 2f       	mov	r22, r20
    1286:	0e 94 9a 07 	call	0xf34	;  0xf34
    128a:	c8 01       	movw	r24, r16
    128c:	df 91       	pop	r29
    128e:	cf 91       	pop	r28
    1290:	1f 91       	pop	r17
    1292:	0f 91       	pop	r16
    1294:	ff 90       	pop	r15
    1296:	ef 90       	pop	r14
    1298:	df 90       	pop	r13
    129a:	cf 90       	pop	r12
    129c:	08 95       	ret
    129e:	cf 93       	push	r28
    12a0:	df 93       	push	r29
    12a2:	1f 92       	push	r1
    12a4:	cd b7       	in	r28, 0x3d	; 61
    12a6:	de b7       	in	r29, 0x3e	; 62
    12a8:	69 83       	std	Y+1, r22	; 0x01
    12aa:	20 91 b5 05 	lds	r18, 0x05B5
    12ae:	22 23       	and	r18, r18
    12b0:	d1 f0       	breq	.+52     	;  0x12e6
    12b2:	20 91 b6 05 	lds	r18, 0x05B6
    12b6:	20 32       	cpi	r18, 0x20	; 32
    12b8:	40 f0       	brcs	.+16     	;  0x12ca
    12ba:	21 e0       	ldi	r18, 0x01	; 1
    12bc:	30 e0       	ldi	r19, 0x00	; 0
    12be:	fc 01       	movw	r30, r24
    12c0:	33 83       	std	Z+3, r19	; 0x03
    12c2:	22 83       	std	Z+2, r18	; 0x02
    12c4:	20 e0       	ldi	r18, 0x00	; 0
    12c6:	30 e0       	ldi	r19, 0x00	; 0
    12c8:	15 c0       	rjmp	.+42     	;  0x12f4
    12ca:	80 91 b7 05 	lds	r24, 0x05B7
    12ce:	e8 2f       	mov	r30, r24
    12d0:	f0 e0       	ldi	r31, 0x00	; 0
    12d2:	e8 54       	subi	r30, 0x48	; 72
    12d4:	fa 4f       	sbci	r31, 0xFA	; 250
    12d6:	99 81       	ldd	r25, Y+1	; 0x01
    12d8:	90 83       	st	Z, r25
    12da:	8f 5f       	subi	r24, 0xFF	; 255
    12dc:	80 93 b7 05 	sts	0x05B7, r24
    12e0:	80 93 b6 05 	sts	0x05B6, r24
    12e4:	05 c0       	rjmp	.+10     	;  0x12f0
    12e6:	61 e0       	ldi	r22, 0x01	; 1
    12e8:	ce 01       	movw	r24, r28
    12ea:	01 96       	adiw	r24, 0x01	; 1
    12ec:	0e 94 9a 07 	call	0xf34	;  0xf34
    12f0:	21 e0       	ldi	r18, 0x01	; 1
    12f2:	30 e0       	ldi	r19, 0x00	; 0
    12f4:	c9 01       	movw	r24, r18
    12f6:	0f 90       	pop	r0
    12f8:	df 91       	pop	r29
    12fa:	cf 91       	pop	r28
    12fc:	08 95       	ret
    12fe:	fc 01       	movw	r30, r24
    1300:	13 82       	std	Z+3, r1	; 0x03
    1302:	12 82       	std	Z+2, r1	; 0x02
    1304:	48 ee       	ldi	r20, 0xE8	; 232
    1306:	53 e0       	ldi	r21, 0x03	; 3
    1308:	60 e0       	ldi	r22, 0x00	; 0
    130a:	70 e0       	ldi	r23, 0x00	; 0
    130c:	44 83       	std	Z+4, r20	; 0x04
    130e:	55 83       	std	Z+5, r21	; 0x05
    1310:	66 83       	std	Z+6, r22	; 0x06
    1312:	77 83       	std	Z+7, r23	; 0x07
    1314:	88 ed       	ldi	r24, 0xD8	; 216
    1316:	92 e0       	ldi	r25, 0x02	; 2
    1318:	91 83       	std	Z+1, r25	; 0x01
    131a:	80 83       	st	Z, r24
    131c:	08 95       	ret
    131e:	10 92 da 05 	sts	0x05DA, r1
    1322:	10 92 d9 05 	sts	0x05D9, r1
    1326:	10 92 b7 05 	sts	0x05B7, r1
    132a:	10 92 b6 05 	sts	0x05B6, r1
    132e:	0c 94 e4 06 	jmp	0xdc8	;  0xdc8
    1332:	86 2f       	mov	r24, r22
    1334:	41 32       	cpi	r20, 0x21	; 33
    1336:	08 f0       	brcs	.+2      	;  0x133a
    1338:	40 e2       	ldi	r20, 0x20	; 32
    133a:	6b ed       	ldi	r22, 0xDB	; 219
    133c:	75 e0       	ldi	r23, 0x05	; 5
    133e:	0e 94 02 07 	call	0xe04	;  0xe04
    1342:	10 92 da 05 	sts	0x05DA, r1
    1346:	80 93 d9 05 	sts	0x05D9, r24
    134a:	08 95       	ret
    134c:	21 e0       	ldi	r18, 0x01	; 1
    134e:	0c 94 99 09 	jmp	0x1332	;  0x1332
    1352:	81 e0       	ldi	r24, 0x01	; 1
    1354:	80 93 b5 05 	sts	0x05B5, r24
    1358:	60 93 d8 05 	sts	0x05D8, r22
    135c:	10 92 b7 05 	sts	0x05B7, r1
    1360:	10 92 b6 05 	sts	0x05B6, r1
    1364:	08 95       	ret
    1366:	0f 93       	push	r16
    1368:	06 2f       	mov	r16, r22
    136a:	21 e0       	ldi	r18, 0x01	; 1
    136c:	40 91 b6 05 	lds	r20, 0x05B6
    1370:	68 eb       	ldi	r22, 0xB8	; 184
    1372:	75 e0       	ldi	r23, 0x05	; 5
    1374:	80 91 d8 05 	lds	r24, 0x05D8
    1378:	0e 94 47 07 	call	0xe8e	;  0xe8e
    137c:	10 92 b7 05 	sts	0x05B7, r1
    1380:	10 92 b6 05 	sts	0x05B6, r1
    1384:	10 92 b5 05 	sts	0x05B5, r1
    1388:	0f 91       	pop	r16
    138a:	08 95       	ret
    138c:	61 e0       	ldi	r22, 0x01	; 1
    138e:	0c 94 b3 09 	jmp	0x1366	;  0x1366
    1392:	89 ea       	ldi	r24, 0xA9	; 169
    1394:	95 e0       	ldi	r25, 0x05	; 5
    1396:	0c 94 7f 09 	jmp	0x12fe	;  0x12fe
    139a:	1f 93       	push	r17
    139c:	cf 93       	push	r28
    139e:	df 93       	push	r29
    13a0:	ec 01       	movw	r28, r24
    13a2:	16 2f       	mov	r17, r22
    13a4:	e8 81       	ld	r30, Y
    13a6:	f9 81       	ldd	r31, Y+1	; 0x01
    13a8:	01 90       	ld	r0, Z+
    13aa:	f0 81       	ld	r31, Z
    13ac:	e0 2d       	mov	r30, r0
    13ae:	86 2f       	mov	r24, r22
    13b0:	80 7f       	andi	r24, 0xF0	; 240
    13b2:	90 e0       	ldi	r25, 0x00	; 0
    13b4:	80 3a       	cpi	r24, 0xA0	; 160
    13b6:	91 05       	cpc	r25, r1
    13b8:	14 f4       	brge	.+4      	;  0x13be
    13ba:	80 e3       	ldi	r24, 0x30	; 48
    13bc:	01 c0       	rjmp	.+2      	;  0x13c0
    13be:	87 e3       	ldi	r24, 0x37	; 55
    13c0:	61 2f       	mov	r22, r17
    13c2:	62 95       	swap	r22
    13c4:	6f 70       	andi	r22, 0x0F	; 15
    13c6:	68 0f       	add	r22, r24
    13c8:	ce 01       	movw	r24, r28
    13ca:	09 95       	icall
    13cc:	e8 81       	ld	r30, Y
    13ce:	f9 81       	ldd	r31, Y+1	; 0x01
    13d0:	01 90       	ld	r0, Z+
    13d2:	f0 81       	ld	r31, Z
    13d4:	e0 2d       	mov	r30, r0
    13d6:	1f 70       	andi	r17, 0x0F	; 15
    13d8:	81 2f       	mov	r24, r17
    13da:	90 e0       	ldi	r25, 0x00	; 0
    13dc:	0a 97       	sbiw	r24, 0x0a	; 10
    13de:	14 f4       	brge	.+4      	;  0x13e4
    13e0:	60 e3       	ldi	r22, 0x30	; 48
    13e2:	01 c0       	rjmp	.+2      	;  0x13e6
    13e4:	67 e3       	ldi	r22, 0x37	; 55
    13e6:	61 0f       	add	r22, r17
    13e8:	ce 01       	movw	r24, r28
    13ea:	df 91       	pop	r29
    13ec:	cf 91       	pop	r28
    13ee:	1f 91       	pop	r17
    13f0:	09 94       	ijmp
    13f2:	af 92       	push	r10
    13f4:	bf 92       	push	r11
    13f6:	cf 92       	push	r12
    13f8:	df 92       	push	r13
    13fa:	ef 92       	push	r14
    13fc:	ff 92       	push	r15
    13fe:	0f 93       	push	r16
    1400:	1f 93       	push	r17
    1402:	cf 93       	push	r28
    1404:	df 93       	push	r29
    1406:	7c 01       	movw	r14, r24
    1408:	5a 01       	movw	r10, r20
    140a:	12 2f       	mov	r17, r18
    140c:	eb 01       	movw	r28, r22
    140e:	c1 2c       	mov	r12, r1
    1410:	d1 2c       	mov	r13, r1
    1412:	1f c0       	rjmp	.+62     	;  0x1452
    1414:	02 30       	cpi	r16, 0x02	; 2
    1416:	39 f0       	breq	.+14     	;  0x1426
    1418:	00 31       	cpi	r16, 0x10	; 16
    141a:	41 f4       	brne	.+16     	;  0x142c
    141c:	68 81       	ld	r22, Y
    141e:	c7 01       	movw	r24, r14
    1420:	0e 94 cd 09 	call	0x139a	;  0x139a
    1424:	09 c0       	rjmp	.+18     	;  0x1438
    1426:	42 e0       	ldi	r20, 0x02	; 2
    1428:	50 e0       	ldi	r21, 0x00	; 0
    142a:	02 c0       	rjmp	.+4      	;  0x1430
    142c:	4a e0       	ldi	r20, 0x0A	; 10
    142e:	50 e0       	ldi	r21, 0x00	; 0
    1430:	68 81       	ld	r22, Y
    1432:	c7 01       	movw	r24, r14
    1434:	0e 94 bf 22 	call	0x457e	;  0x457e
    1438:	8f ef       	ldi	r24, 0xFF	; 255
    143a:	c8 1a       	sub	r12, r24
    143c:	d8 0a       	sbc	r13, r24
    143e:	11 23       	and	r17, r17
    1440:	39 f0       	breq	.+14     	;  0x1450
    1442:	ca 14       	cp	r12, r10
    1444:	db 04       	cpc	r13, r11
    1446:	24 f4       	brge	.+8      	;  0x1450
    1448:	61 2f       	mov	r22, r17
    144a:	c7 01       	movw	r24, r14
    144c:	0e 94 1b 22 	call	0x4436	;  0x4436
    1450:	21 96       	adiw	r28, 0x01	; 1
    1452:	ca 14       	cp	r12, r10
    1454:	db 04       	cpc	r13, r11
    1456:	f4 f2       	brlt	.-68     	;  0x1414
    1458:	df 91       	pop	r29
    145a:	cf 91       	pop	r28
    145c:	1f 91       	pop	r17
    145e:	0f 91       	pop	r16
    1460:	ff 90       	pop	r15
    1462:	ef 90       	pop	r14
    1464:	df 90       	pop	r13
    1466:	cf 90       	pop	r12
    1468:	bf 90       	pop	r11
    146a:	af 90       	pop	r10
    146c:	08 95       	ret
    146e:	8f 92       	push	r8
    1470:	9f 92       	push	r9
    1472:	bf 92       	push	r11
    1474:	cf 92       	push	r12
    1476:	df 92       	push	r13
    1478:	ef 92       	push	r14
    147a:	ff 92       	push	r15
    147c:	0f 93       	push	r16
    147e:	1f 93       	push	r17
    1480:	cf 93       	push	r28
    1482:	df 93       	push	r29
    1484:	1f 92       	push	r1
    1486:	cd b7       	in	r28, 0x3d	; 61
    1488:	de b7       	in	r29, 0x3e	; 62
    148a:	d8 2e       	mov	r13, r24
    148c:	c9 2e       	mov	r12, r25
    148e:	7a 01       	movw	r14, r20
    1490:	b2 2e       	mov	r11, r18
    1492:	4b 01       	movw	r8, r22
    1494:	00 e0       	ldi	r16, 0x00	; 0
    1496:	10 e0       	ldi	r17, 0x00	; 0
    1498:	2d c0       	rjmp	.+90     	;  0x14f4
    149a:	f4 01       	movw	r30, r8
    149c:	61 91       	ld	r22, Z+
    149e:	4f 01       	movw	r8, r30
    14a0:	86 2f       	mov	r24, r22
    14a2:	99 27       	eor	r25, r25
    14a4:	87 fd       	sbrc	r24, 7
    14a6:	90 95       	com	r25
    14a8:	69 83       	std	Y+1, r22	; 0x01
    14aa:	0e 94 0c 26 	call	0x4c18	;  0x4c18
    14ae:	69 81       	ldd	r22, Y+1	; 0x01
    14b0:	89 2b       	or	r24, r25
    14b2:	29 f0       	breq	.+10     	;  0x14be
    14b4:	8d 2d       	mov	r24, r13
    14b6:	9c 2d       	mov	r25, r12
    14b8:	0e 94 1b 22 	call	0x4436	;  0x4436
    14bc:	0f c0       	rjmp	.+30     	;  0x14dc
    14be:	64 ee       	ldi	r22, 0xE4	; 228
    14c0:	72 e0       	ldi	r23, 0x02	; 2
    14c2:	8d 2d       	mov	r24, r13
    14c4:	9c 2d       	mov	r25, r12
    14c6:	0e 94 19 22 	call	0x4432	;  0x4432
    14ca:	f4 01       	movw	r30, r8
    14cc:	31 97       	sbiw	r30, 0x01	; 1
    14ce:	40 e1       	ldi	r20, 0x10	; 16
    14d0:	50 e0       	ldi	r21, 0x00	; 0
    14d2:	60 81       	ld	r22, Z
    14d4:	8d 2d       	mov	r24, r13
    14d6:	9c 2d       	mov	r25, r12
    14d8:	0e 94 bf 22 	call	0x457e	;  0x457e
    14dc:	0f 5f       	subi	r16, 0xFF	; 255
    14de:	1f 4f       	sbci	r17, 0xFF	; 255
    14e0:	bb 20       	and	r11, r11
    14e2:	41 f0       	breq	.+16     	;  0x14f4
    14e4:	0e 15       	cp	r16, r14
    14e6:	1f 05       	cpc	r17, r15
    14e8:	2c f4       	brge	.+10     	;  0x14f4
    14ea:	6b 2d       	mov	r22, r11
    14ec:	8d 2d       	mov	r24, r13
    14ee:	9c 2d       	mov	r25, r12
    14f0:	0e 94 1b 22 	call	0x4436	;  0x4436
    14f4:	0e 15       	cp	r16, r14
    14f6:	1f 05       	cpc	r17, r15
    14f8:	84 f2       	brlt	.-96     	;  0x149a
    14fa:	0f 90       	pop	r0
    14fc:	df 91       	pop	r29
    14fe:	cf 91       	pop	r28
    1500:	1f 91       	pop	r17
    1502:	0f 91       	pop	r16
    1504:	ff 90       	pop	r15
    1506:	ef 90       	pop	r14
    1508:	df 90       	pop	r13
    150a:	cf 90       	pop	r12
    150c:	bf 90       	pop	r11
    150e:	9f 90       	pop	r9
    1510:	8f 90       	pop	r8
    1512:	08 95       	ret
    1514:	61 e0       	ldi	r22, 0x01	; 1
    1516:	8a e0       	ldi	r24, 0x0A	; 10
    1518:	0e 94 5a 25 	call	0x4ab4	;  0x4ab4
    151c:	61 e0       	ldi	r22, 0x01	; 1
    151e:	8a e0       	ldi	r24, 0x0A	; 10
    1520:	0e 94 22 25 	call	0x4a44	;  0x4a44
    1524:	8c b5       	in	r24, 0x2c	; 44
    1526:	80 61       	ori	r24, 0x10	; 16
    1528:	8c bd       	out	0x2c, r24	; 44
    152a:	8c b5       	in	r24, 0x2c	; 44
    152c:	80 64       	ori	r24, 0x40	; 64
    152e:	8c bd       	out	0x2c, r24	; 44
    1530:	61 e0       	ldi	r22, 0x01	; 1
    1532:	8d e0       	ldi	r24, 0x0D	; 13
    1534:	0e 94 22 25 	call	0x4a44	;  0x4a44
    1538:	61 e0       	ldi	r22, 0x01	; 1
    153a:	8b e0       	ldi	r24, 0x0B	; 11
    153c:	0c 94 22 25 	jmp	0x4a44	;  0x4a44
    1540:	81 11       	cpse	r24, r1
    1542:	03 c0       	rjmp	.+6      	;  0x154a
    1544:	8c b5       	in	r24, 0x2c	; 44
    1546:	80 62       	ori	r24, 0x20	; 32
    1548:	02 c0       	rjmp	.+4      	;  0x154e
    154a:	8c b5       	in	r24, 0x2c	; 44
    154c:	8f 7d       	andi	r24, 0xDF	; 223
    154e:	8c bd       	out	0x2c, r24	; 44
    1550:	08 95       	ret
    1552:	9c b5       	in	r25, 0x2c	; 44
    1554:	93 7f       	andi	r25, 0xF3	; 243
    1556:	98 2b       	or	r25, r24
    1558:	9c bd       	out	0x2c, r25	; 44
    155a:	08 95       	ret
    155c:	2c b5       	in	r18, 0x2c	; 44
    155e:	98 2f       	mov	r25, r24
    1560:	93 70       	andi	r25, 0x03	; 3
    1562:	2c 7f       	andi	r18, 0xFC	; 252
    1564:	92 2b       	or	r25, r18
    1566:	9c bd       	out	0x2c, r25	; 44
    1568:	9d b5       	in	r25, 0x2d	; 45
    156a:	82 fb       	bst	r24, 2
    156c:	88 27       	eor	r24, r24
    156e:	80 f9       	bld	r24, 0
    1570:	9e 7f       	andi	r25, 0xFE	; 254
    1572:	98 2b       	or	r25, r24
    1574:	9d bd       	out	0x2d, r25	; 45
    1576:	08 95       	ret
    1578:	cf 92       	push	r12
    157a:	df 92       	push	r13
    157c:	ff 92       	push	r15
    157e:	0f 93       	push	r16
    1580:	1f 93       	push	r17
    1582:	cf 93       	push	r28
    1584:	df 93       	push	r29
    1586:	00 d0       	rcall	.+0      	;  0x1588
    1588:	cd b7       	in	r28, 0x3d	; 61
    158a:	de b7       	in	r29, 0x3e	; 62
    158c:	6c 01       	movw	r12, r24
    158e:	f6 2e       	mov	r15, r22
    1590:	14 2f       	mov	r17, r20
    1592:	05 2f       	mov	r16, r21
    1594:	85 e0       	ldi	r24, 0x05	; 5
    1596:	29 83       	std	Y+1, r18	; 0x01
    1598:	3a 83       	std	Y+2, r19	; 0x02
    159a:	0e 94 ae 0a 	call	0x155c	;  0x155c
    159e:	84 e0       	ldi	r24, 0x04	; 4
    15a0:	0e 94 a9 0a 	call	0x1552	;  0x1552
    15a4:	81 e0       	ldi	r24, 0x01	; 1
    15a6:	0e 94 a0 0a 	call	0x1540	;  0x1540
    15aa:	60 e0       	ldi	r22, 0x00	; 0
    15ac:	f6 01       	movw	r30, r12
    15ae:	80 81       	ld	r24, Z
    15b0:	0e 94 5a 25 	call	0x4ab4	;  0x4ab4
    15b4:	fe bc       	out	0x2e, r15	; 46
    15b6:	3a 81       	ldd	r19, Y+2	; 0x02
    15b8:	29 81       	ldd	r18, Y+1	; 0x01
    15ba:	0d b4       	in	r0, 0x2d	; 45
    15bc:	07 fe       	sbrs	r0, 7
    15be:	fd cf       	rjmp	.-6      	;  0x15ba
    15c0:	8e b5       	in	r24, 0x2e	; 46
    15c2:	b9 01       	movw	r22, r18
    15c4:	e1 2f       	mov	r30, r17
    15c6:	f0 2f       	mov	r31, r16
    15c8:	09 c0       	rjmp	.+18     	;  0x15dc
    15ca:	80 81       	ld	r24, Z
    15cc:	8e bd       	out	0x2e, r24	; 46
    15ce:	0d b4       	in	r0, 0x2d	; 45
    15d0:	07 fe       	sbrs	r0, 7
    15d2:	fd cf       	rjmp	.-6      	;  0x15ce
    15d4:	8e b5       	in	r24, 0x2e	; 46
    15d6:	81 93       	st	Z+, r24
    15d8:	61 50       	subi	r22, 0x01	; 1
    15da:	71 09       	sbc	r23, r1
    15dc:	16 16       	cp	r1, r22
    15de:	17 06       	cpc	r1, r23
    15e0:	a4 f3       	brlt	.-24     	;  0x15ca
    15e2:	61 e0       	ldi	r22, 0x01	; 1
    15e4:	f6 01       	movw	r30, r12
    15e6:	80 81       	ld	r24, Z
    15e8:	0e 94 5a 25 	call	0x4ab4	;  0x4ab4
    15ec:	81 2f       	mov	r24, r17
    15ee:	90 2f       	mov	r25, r16
    15f0:	0f 90       	pop	r0
    15f2:	0f 90       	pop	r0
    15f4:	df 91       	pop	r29
    15f6:	cf 91       	pop	r28
    15f8:	1f 91       	pop	r17
    15fa:	0f 91       	pop	r16
    15fc:	ff 90       	pop	r15
    15fe:	df 90       	pop	r13
    1600:	cf 90       	pop	r12
    1602:	08 95       	ret
    1604:	0f 93       	push	r16
    1606:	1f 93       	push	r17
    1608:	cf 93       	push	r28
    160a:	df 93       	push	r29
    160c:	00 d0       	rcall	.+0      	;  0x160e
    160e:	1f 92       	push	r1
    1610:	cd b7       	in	r28, 0x3d	; 61
    1612:	de b7       	in	r29, 0x3e	; 62
    1614:	8c 01       	movw	r16, r24
    1616:	61 e0       	ldi	r22, 0x01	; 1
    1618:	fc 01       	movw	r30, r24
    161a:	80 81       	ld	r24, Z
    161c:	0e 94 22 25 	call	0x4a44	;  0x4a44
    1620:	61 e0       	ldi	r22, 0x01	; 1
    1622:	f8 01       	movw	r30, r16
    1624:	80 81       	ld	r24, Z
    1626:	0e 94 5a 25 	call	0x4ab4	;  0x4ab4
    162a:	84 e2       	ldi	r24, 0x24	; 36
    162c:	8b 83       	std	Y+3, r24	; 0x03
    162e:	21 e0       	ldi	r18, 0x01	; 1
    1630:	30 e0       	ldi	r19, 0x00	; 0
    1632:	ae 01       	movw	r20, r28
    1634:	4d 5f       	subi	r20, 0xFD	; 253
    1636:	5f 4f       	sbci	r21, 0xFF	; 255
    1638:	6e e8       	ldi	r22, 0x8E	; 142
    163a:	c8 01       	movw	r24, r16
    163c:	0e 94 bc 0a 	call	0x1578	;  0x1578
    1640:	1a 82       	std	Y+2, r1	; 0x02
    1642:	21 e0       	ldi	r18, 0x01	; 1
    1644:	30 e0       	ldi	r19, 0x00	; 0
    1646:	ae 01       	movw	r20, r28
    1648:	4e 5f       	subi	r20, 0xFE	; 254
    164a:	5f 4f       	sbci	r21, 0xFF	; 255
    164c:	6f e8       	ldi	r22, 0x8F	; 143
    164e:	c8 01       	movw	r24, r16
    1650:	0e 94 bc 0a 	call	0x1578	;  0x1578
    1654:	21 e0       	ldi	r18, 0x01	; 1
    1656:	30 e0       	ldi	r19, 0x00	; 0
    1658:	ae 01       	movw	r20, r28
    165a:	4f 5f       	subi	r20, 0xFF	; 255
    165c:	5f 4f       	sbci	r21, 0xFF	; 255
    165e:	6e e0       	ldi	r22, 0x0E	; 14
    1660:	c8 01       	movw	r24, r16
    1662:	0e 94 bc 0a 	call	0x1578	;  0x1578
    1666:	89 81       	ldd	r24, Y+1	; 0x01
    1668:	0f 90       	pop	r0
    166a:	0f 90       	pop	r0
    166c:	0f 90       	pop	r0
    166e:	df 91       	pop	r29
    1670:	cf 91       	pop	r28
    1672:	1f 91       	pop	r17
    1674:	0f 91       	pop	r16
    1676:	08 95       	ret
    1678:	cf 93       	push	r28
    167a:	df 93       	push	r29
    167c:	ec 01       	movw	r28, r24
    167e:	ac 01       	movw	r20, r24
    1680:	4f 5f       	subi	r20, 0xFF	; 255
    1682:	5f 4f       	sbci	r21, 0xFF	; 255
    1684:	23 e0       	ldi	r18, 0x03	; 3
    1686:	30 e0       	ldi	r19, 0x00	; 0
    1688:	60 e0       	ldi	r22, 0x00	; 0
    168a:	0e 94 bc 0a 	call	0x1578	;  0x1578
    168e:	49 81       	ldd	r20, Y+1	; 0x01
    1690:	5a 81       	ldd	r21, Y+2	; 0x02
    1692:	6b 81       	ldd	r22, Y+3	; 0x03
    1694:	7c 81       	ldd	r23, Y+4	; 0x04
    1696:	4f 77       	andi	r20, 0x7F	; 127
    1698:	5f 77       	andi	r21, 0x7F	; 127
    169a:	6f 73       	andi	r22, 0x3F	; 63
    169c:	77 27       	eor	r23, r23
    169e:	49 83       	std	Y+1, r20	; 0x01
    16a0:	5a 83       	std	Y+2, r21	; 0x02
    16a2:	6b 83       	std	Y+3, r22	; 0x03
    16a4:	7c 83       	std	Y+4, r23	; 0x04
    16a6:	df 91       	pop	r29
    16a8:	cf 91       	pop	r28
    16aa:	08 95       	ret
    16ac:	cf 93       	push	r28
    16ae:	df 93       	push	r29
    16b0:	ec 01       	movw	r28, r24
    16b2:	ac 01       	movw	r20, r24
    16b4:	4b 5f       	subi	r20, 0xFB	; 251
    16b6:	5f 4f       	sbci	r21, 0xFF	; 255
    16b8:	23 e0       	ldi	r18, 0x03	; 3
    16ba:	30 e0       	ldi	r19, 0x00	; 0
    16bc:	64 e0       	ldi	r22, 0x04	; 4
    16be:	0e 94 bc 0a 	call	0x1578	;  0x1578
    16c2:	4d 81       	ldd	r20, Y+5	; 0x05
    16c4:	5e 81       	ldd	r21, Y+6	; 0x06
    16c6:	6f 81       	ldd	r22, Y+7	; 0x07
    16c8:	78 85       	ldd	r23, Y+8	; 0x08
    16ca:	4f 73       	andi	r20, 0x3F	; 63
    16cc:	5f 73       	andi	r21, 0x3F	; 63
    16ce:	77 27       	eor	r23, r23
    16d0:	70 62       	ori	r23, 0x20	; 32
    16d2:	4d 83       	std	Y+5, r20	; 0x05
    16d4:	5e 83       	std	Y+6, r21	; 0x06
    16d6:	6f 83       	std	Y+7, r22	; 0x07
    16d8:	78 87       	std	Y+8, r23	; 0x08
    16da:	df 91       	pop	r29
    16dc:	cf 91       	pop	r28
    16de:	08 95       	ret
    16e0:	cf 93       	push	r28
    16e2:	df 93       	push	r29
    16e4:	ec 01       	movw	r28, r24
    16e6:	84 2f       	mov	r24, r20
    16e8:	48 83       	st	Y, r20
    16ea:	29 83       	std	Y+1, r18	; 0x01
    16ec:	6a 83       	std	Y+2, r22	; 0x02
    16ee:	4f 3f       	cpi	r20, 0xFF	; 255
    16f0:	39 f0       	breq	.+14     	;  0x1700
    16f2:	60 e0       	ldi	r22, 0x00	; 0
    16f4:	0e 94 22 25 	call	0x4a44	;  0x4a44
    16f8:	61 e0       	ldi	r22, 0x01	; 1
    16fa:	88 81       	ld	r24, Y
    16fc:	0e 94 5a 25 	call	0x4ab4	;  0x4ab4
    1700:	89 81       	ldd	r24, Y+1	; 0x01
    1702:	8f 3f       	cpi	r24, 0xFF	; 255
    1704:	39 f0       	breq	.+14     	;  0x1714
    1706:	61 e0       	ldi	r22, 0x01	; 1
    1708:	0e 94 22 25 	call	0x4a44	;  0x4a44
    170c:	61 e0       	ldi	r22, 0x01	; 1
    170e:	89 81       	ldd	r24, Y+1	; 0x01
    1710:	0e 94 5a 25 	call	0x4ab4	;  0x4ab4
    1714:	1b 82       	std	Y+3, r1	; 0x03
    1716:	fe 01       	movw	r30, r28
    1718:	eb 5a       	subi	r30, 0xAB	; 171
    171a:	ff 4f       	sbci	r31, 0xFF	; 255
    171c:	10 82       	st	Z, r1
    171e:	fe 01       	movw	r30, r28
    1720:	ec 5a       	subi	r30, 0xAC	; 172
    1722:	ff 4f       	sbci	r31, 0xFF	; 255
    1724:	10 82       	st	Z, r1
    1726:	c9 5a       	subi	r28, 0xA9	; 169
    1728:	df 4f       	sbci	r29, 0xFF	; 255
    172a:	18 82       	st	Y, r1
    172c:	df 91       	pop	r29
    172e:	cf 91       	pop	r28
    1730:	08 95       	ret
    1732:	cf 93       	push	r28
    1734:	df 93       	push	r29
    1736:	ec 01       	movw	r28, r24
    1738:	89 81       	ldd	r24, Y+1	; 0x01
    173a:	8f 3f       	cpi	r24, 0xFF	; 255
    173c:	99 f0       	breq	.+38     	;  0x1764
    173e:	60 e0       	ldi	r22, 0x00	; 0
    1740:	0e 94 5a 25 	call	0x4ab4	;  0x4ab4
    1744:	62 e3       	ldi	r22, 0x32	; 50
    1746:	70 e0       	ldi	r23, 0x00	; 0
    1748:	80 e0       	ldi	r24, 0x00	; 0
    174a:	90 e0       	ldi	r25, 0x00	; 0
    174c:	0e 94 8b 24 	call	0x4916	;  0x4916
    1750:	61 e0       	ldi	r22, 0x01	; 1
    1752:	89 81       	ldd	r24, Y+1	; 0x01
    1754:	0e 94 5a 25 	call	0x4ab4	;  0x4ab4
    1758:	66 e9       	ldi	r22, 0x96	; 150
    175a:	70 e0       	ldi	r23, 0x00	; 0
    175c:	80 e0       	ldi	r24, 0x00	; 0
    175e:	90 e0       	ldi	r25, 0x00	; 0
    1760:	0e 94 8b 24 	call	0x4916	;  0x4916
    1764:	1b 82       	std	Y+3, r1	; 0x03
    1766:	fe 01       	movw	r30, r28
    1768:	eb 5a       	subi	r30, 0xAB	; 171
    176a:	ff 4f       	sbci	r31, 0xFF	; 255
    176c:	10 82       	st	Z, r1
    176e:	fe 01       	movw	r30, r28
    1770:	ec 5a       	subi	r30, 0xAC	; 172
    1772:	ff 4f       	sbci	r31, 0xFF	; 255
    1774:	10 82       	st	Z, r1
    1776:	c9 5a       	subi	r28, 0xA9	; 169
    1778:	df 4f       	sbci	r29, 0xFF	; 255
    177a:	18 82       	st	Y, r1
    177c:	df 91       	pop	r29
    177e:	cf 91       	pop	r28
    1780:	08 95       	ret
    1782:	1f 93       	push	r17
    1784:	cf 93       	push	r28
    1786:	df 93       	push	r29
    1788:	ec 01       	movw	r28, r24
    178a:	16 2f       	mov	r17, r22
    178c:	89 ea       	ldi	r24, 0xA9	; 169
    178e:	95 e0       	ldi	r25, 0x05	; 5
    1790:	0e 94 4f 09 	call	0x129e	;  0x129e
    1794:	8b 81       	ldd	r24, Y+3	; 0x03
    1796:	81 0f       	add	r24, r17
    1798:	8b 83       	std	Y+3, r24	; 0x03
    179a:	df 91       	pop	r29
    179c:	cf 91       	pop	r28
    179e:	1f 91       	pop	r17
    17a0:	08 95       	ret
    17a2:	cf 93       	push	r28
    17a4:	df 93       	push	r29
    17a6:	ec 01       	movw	r28, r24
    17a8:	89 ea       	ldi	r24, 0xA9	; 169
    17aa:	95 e0       	ldi	r25, 0x05	; 5
    17ac:	0e 94 fc 08 	call	0x11f8	;  0x11f8
    17b0:	9b 81       	ldd	r25, Y+3	; 0x03
    17b2:	98 0f       	add	r25, r24
    17b4:	9b 83       	std	Y+3, r25	; 0x03
    17b6:	df 91       	pop	r29
    17b8:	cf 91       	pop	r28
    17ba:	08 95       	ret
    17bc:	cf 92       	push	r12
    17be:	df 92       	push	r13
    17c0:	ef 92       	push	r14
    17c2:	ff 92       	push	r15
    17c4:	0f 93       	push	r16
    17c6:	1f 93       	push	r17
    17c8:	cf 93       	push	r28
    17ca:	df 93       	push	r29
    17cc:	ec 01       	movw	r28, r24
    17ce:	6b 01       	movw	r12, r22
    17d0:	8c 01       	movw	r16, r24
    17d2:	0c 5f       	subi	r16, 0xFC	; 252
    17d4:	1f 4f       	sbci	r17, 0xFF	; 255
    17d6:	1b 82       	std	Y+3, r1	; 0x03
    17d8:	ab 01       	movw	r20, r22
    17da:	4f 5f       	subi	r20, 0xFF	; 255
    17dc:	5f 4f       	sbci	r21, 0xFF	; 255
    17de:	6a 81       	ldd	r22, Y+2	; 0x02
    17e0:	70 e0       	ldi	r23, 0x00	; 0
    17e2:	89 ea       	ldi	r24, 0xA9	; 169
    17e4:	95 e0       	ldi	r25, 0x05	; 5
    17e6:	0e 94 a6 09 	call	0x134c	;  0x134c
    17ea:	ce 01       	movw	r24, r28
    17ec:	0e 94 d1 0b 	call	0x17a2	;  0x17a2
    17f0:	78 01       	movw	r14, r16
    17f2:	06 c0       	rjmp	.+12     	;  0x1800
    17f4:	ce 01       	movw	r24, r28
    17f6:	0e 94 d1 0b 	call	0x17a2	;  0x17a2
    17fa:	f7 01       	movw	r30, r14
    17fc:	81 93       	st	Z+, r24
    17fe:	7f 01       	movw	r14, r30
    1800:	8e 2d       	mov	r24, r14
    1802:	80 1b       	sub	r24, r16
    1804:	90 e0       	ldi	r25, 0x00	; 0
    1806:	8c 15       	cp	r24, r12
    1808:	9d 05       	cpc	r25, r13
    180a:	a4 f3       	brlt	.-24     	;  0x17f4
    180c:	8b 81       	ldd	r24, Y+3	; 0x03
    180e:	88 23       	and	r24, r24
    1810:	21 f0       	breq	.+8      	;  0x181a
    1812:	cb 5a       	subi	r28, 0xAB	; 171
    1814:	df 4f       	sbci	r29, 0xFF	; 255
    1816:	8a ef       	ldi	r24, 0xFA	; 250
    1818:	15 c0       	rjmp	.+42     	;  0x1844
    181a:	43 e0       	ldi	r20, 0x03	; 3
    181c:	50 e0       	ldi	r21, 0x00	; 0
    181e:	64 e1       	ldi	r22, 0x14	; 20
    1820:	71 e0       	ldi	r23, 0x01	; 1
    1822:	c8 01       	movw	r24, r16
    1824:	0e 94 12 26 	call	0x4c24	;  0x4c24
    1828:	00 97       	sbiw	r24, 0x00	; 0
    182a:	49 f4       	brne	.+18     	;  0x183e
    182c:	ff 80       	ldd	r15, Y+7	; 0x07
    182e:	2f 2d       	mov	r18, r15
    1830:	30 e0       	ldi	r19, 0x00	; 0
    1832:	88 85       	ldd	r24, Y+8	; 0x08
    1834:	b9 01       	movw	r22, r18
    1836:	68 0f       	add	r22, r24
    1838:	71 1d       	adc	r23, r1
    183a:	66 23       	and	r22, r22
    183c:	29 f0       	breq	.+10     	;  0x1848
    183e:	cb 5a       	subi	r28, 0xAB	; 171
    1840:	df 4f       	sbci	r29, 0xFF	; 255
    1842:	8d ef       	ldi	r24, 0xFD	; 253
    1844:	88 83       	st	Y, r24
    1846:	0f c0       	rjmp	.+30     	;  0x1866
    1848:	fe 01       	movw	r30, r28
    184a:	e2 0f       	add	r30, r18
    184c:	f3 1f       	adc	r31, r19
    184e:	82 85       	ldd	r24, Z+10	; 0x0a
    1850:	81 11       	cpse	r24, r1
    1852:	09 c0       	rjmp	.+18     	;  0x1866
    1854:	be 01       	movw	r22, r28
    1856:	67 5f       	subi	r22, 0xF7	; 247
    1858:	7f 4f       	sbci	r23, 0xFF	; 255
    185a:	4f 2d       	mov	r20, r15
    185c:	50 e0       	ldi	r21, 0x00	; 0
    185e:	c8 01       	movw	r24, r16
    1860:	0e 94 28 26 	call	0x4c50	;  0x4c50
    1864:	01 c0       	rjmp	.+2      	;  0x1868
    1866:	f1 2c       	mov	r15, r1
    1868:	8f 2d       	mov	r24, r15
    186a:	df 91       	pop	r29
    186c:	cf 91       	pop	r28
    186e:	1f 91       	pop	r17
    1870:	0f 91       	pop	r16
    1872:	ff 90       	pop	r15
    1874:	ef 90       	pop	r14
    1876:	df 90       	pop	r13
    1878:	cf 90       	pop	r12
    187a:	08 95       	ret
    187c:	ff 92       	push	r15
    187e:	0f 93       	push	r16
    1880:	1f 93       	push	r17
    1882:	cf 93       	push	r28
    1884:	df 93       	push	r29
    1886:	ec 01       	movw	r28, r24
    1888:	f6 2e       	mov	r15, r22
    188a:	8c 01       	movw	r16, r24
    188c:	0c 5f       	subi	r16, 0xFC	; 252
    188e:	1f 4f       	sbci	r17, 0xFF	; 255
    1890:	1b 82       	std	Y+3, r1	; 0x03
    1892:	6a 81       	ldd	r22, Y+2	; 0x02
    1894:	89 ea       	ldi	r24, 0xA9	; 169
    1896:	95 e0       	ldi	r25, 0x05	; 5
    1898:	0e 94 a9 09 	call	0x1352	;  0x1352
    189c:	60 e0       	ldi	r22, 0x00	; 0
    189e:	ce 01       	movw	r24, r28
    18a0:	0e 94 c1 0b 	call	0x1782	;  0x1782
    18a4:	60 e0       	ldi	r22, 0x00	; 0
    18a6:	ce 01       	movw	r24, r28
    18a8:	0e 94 c1 0b 	call	0x1782	;  0x1782
    18ac:	6f ef       	ldi	r22, 0xFF	; 255
    18ae:	ce 01       	movw	r24, r28
    18b0:	0e 94 c1 0b 	call	0x1782	;  0x1782
    18b4:	6f 2d       	mov	r22, r15
    18b6:	6f 5f       	subi	r22, 0xFF	; 255
    18b8:	ce 01       	movw	r24, r28
    18ba:	0e 94 c1 0b 	call	0x1782	;  0x1782
    18be:	6f 2d       	mov	r22, r15
    18c0:	60 95       	com	r22
    18c2:	ce 01       	movw	r24, r28
    18c4:	0e 94 c1 0b 	call	0x1782	;  0x1782
    18c8:	64 ed       	ldi	r22, 0xD4	; 212
    18ca:	ce 01       	movw	r24, r28
    18cc:	0e 94 c1 0b 	call	0x1782	;  0x1782
    18d0:	07 c0       	rjmp	.+14     	;  0x18e0
    18d2:	f8 01       	movw	r30, r16
    18d4:	61 91       	ld	r22, Z+
    18d6:	8f 01       	movw	r16, r30
    18d8:	ce 01       	movw	r24, r28
    18da:	0e 94 c1 0b 	call	0x1782	;  0x1782
    18de:	fa 94       	dec	r15
    18e0:	f1 10       	cpse	r15, r1
    18e2:	f7 cf       	rjmp	.-18     	;  0x18d2
    18e4:	6b 81       	ldd	r22, Y+3	; 0x03
    18e6:	60 95       	com	r22
    18e8:	89 ea       	ldi	r24, 0xA9	; 169
    18ea:	95 e0       	ldi	r25, 0x05	; 5
    18ec:	0e 94 4f 09 	call	0x129e	;  0x129e
    18f0:	60 e0       	ldi	r22, 0x00	; 0
    18f2:	89 ea       	ldi	r24, 0xA9	; 169
    18f4:	95 e0       	ldi	r25, 0x05	; 5
    18f6:	0e 94 4f 09 	call	0x129e	;  0x129e
    18fa:	89 ea       	ldi	r24, 0xA9	; 169
    18fc:	95 e0       	ldi	r25, 0x05	; 5
    18fe:	df 91       	pop	r29
    1900:	cf 91       	pop	r28
    1902:	1f 91       	pop	r17
    1904:	0f 91       	pop	r16
    1906:	ff 90       	pop	r15
    1908:	0c 94 c6 09 	jmp	0x138c	;  0x138c
    190c:	af 92       	push	r10
    190e:	bf 92       	push	r11
    1910:	cf 92       	push	r12
    1912:	df 92       	push	r13
    1914:	ef 92       	push	r14
    1916:	ff 92       	push	r15
    1918:	0f 93       	push	r16
    191a:	1f 93       	push	r17
    191c:	cf 93       	push	r28
    191e:	df 93       	push	r29
    1920:	ec 01       	movw	r28, r24
    1922:	1b 82       	std	Y+3, r1	; 0x03
    1924:	6a 81       	ldd	r22, Y+2	; 0x02
    1926:	40 e2       	ldi	r20, 0x20	; 32
    1928:	50 e0       	ldi	r21, 0x00	; 0
    192a:	70 e0       	ldi	r23, 0x00	; 0
    192c:	89 ea       	ldi	r24, 0xA9	; 169
    192e:	95 e0       	ldi	r25, 0x05	; 5
    1930:	0e 94 a6 09 	call	0x134c	;  0x134c
    1934:	ce 01       	movw	r24, r28
    1936:	0e 94 d1 0b 	call	0x17a2	;  0x17a2
    193a:	00 e0       	ldi	r16, 0x00	; 0
    193c:	10 e0       	ldi	r17, 0x00	; 0
    193e:	ce 01       	movw	r24, r28
    1940:	0e 94 d1 0b 	call	0x17a2	;  0x17a2
    1944:	fe 01       	movw	r30, r28
    1946:	e0 0f       	add	r30, r16
    1948:	f1 1f       	adc	r31, r17
    194a:	84 83       	std	Z+4, r24	; 0x04
    194c:	0f 5f       	subi	r16, 0xFF	; 255
    194e:	1f 4f       	sbci	r17, 0xFF	; 255
    1950:	06 30       	cpi	r16, 0x06	; 6
    1952:	11 05       	cpc	r17, r1
    1954:	a1 f7       	brne	.-24     	;  0x193e
    1956:	8e 01       	movw	r16, r28
    1958:	0c 5f       	subi	r16, 0xFC	; 252
    195a:	1f 4f       	sbci	r17, 0xFF	; 255
    195c:	43 e0       	ldi	r20, 0x03	; 3
    195e:	50 e0       	ldi	r21, 0x00	; 0
    1960:	64 e1       	ldi	r22, 0x14	; 20
    1962:	71 e0       	ldi	r23, 0x01	; 1
    1964:	c8 01       	movw	r24, r16
    1966:	0e 94 12 26 	call	0x4c24	;  0x4c24
    196a:	00 97       	sbiw	r24, 0x00	; 0
    196c:	49 f4       	brne	.+18     	;  0x1980
    196e:	bf 80       	ldd	r11, Y+7	; 0x07
    1970:	eb 2c       	mov	r14, r11
    1972:	f1 2c       	mov	r15, r1
    1974:	88 85       	ldd	r24, Y+8	; 0x08
    1976:	97 01       	movw	r18, r14
    1978:	28 0f       	add	r18, r24
    197a:	31 1d       	adc	r19, r1
    197c:	22 23       	and	r18, r18
    197e:	69 f0       	breq	.+26     	;  0x199a
    1980:	cb 5a       	subi	r28, 0xAB	; 171
    1982:	df 4f       	sbci	r29, 0xFF	; 255
    1984:	8d ef       	ldi	r24, 0xFD	; 253
    1986:	24 c0       	rjmp	.+72     	;  0x19d0
    1988:	ce 01       	movw	r24, r28
    198a:	0e 94 d1 0b 	call	0x17a2	;  0x17a2
    198e:	fe 01       	movw	r30, r28
    1990:	ec 0d       	add	r30, r12
    1992:	fd 1d       	adc	r31, r13
    1994:	84 83       	std	Z+4, r24	; 0x04
    1996:	a3 94       	inc	r10
    1998:	05 c0       	rjmp	.+10     	;  0x19a4
    199a:	86 e0       	ldi	r24, 0x06	; 6
    199c:	a8 2e       	mov	r10, r24
    199e:	36 e0       	ldi	r19, 0x06	; 6
    19a0:	e3 0e       	add	r14, r19
    19a2:	f1 1c       	adc	r15, r1
    19a4:	ca 2c       	mov	r12, r10
    19a6:	d1 2c       	mov	r13, r1
    19a8:	ec 14       	cp	r14, r12
    19aa:	fd 04       	cpc	r15, r13
    19ac:	6c f7       	brge	.-38     	;  0x1988
    19ae:	8b 81       	ldd	r24, Y+3	; 0x03
    19b0:	88 23       	and	r24, r24
    19b2:	29 f0       	breq	.+10     	;  0x19be
    19b4:	fe 01       	movw	r30, r28
    19b6:	eb 5a       	subi	r30, 0xAB	; 171
    19b8:	ff 4f       	sbci	r31, 0xFF	; 255
    19ba:	8a ef       	ldi	r24, 0xFA	; 250
    19bc:	80 83       	st	Z, r24
    19be:	fe 01       	movw	r30, r28
    19c0:	ee 0d       	add	r30, r14
    19c2:	ff 1d       	adc	r31, r15
    19c4:	84 81       	ldd	r24, Z+4	; 0x04
    19c6:	88 23       	and	r24, r24
    19c8:	31 f0       	breq	.+12     	;  0x19d6
    19ca:	cb 5a       	subi	r28, 0xAB	; 171
    19cc:	df 4f       	sbci	r29, 0xFF	; 255
    19ce:	8e ef       	ldi	r24, 0xFE	; 254
    19d0:	88 83       	st	Y, r24
    19d2:	b1 2c       	mov	r11, r1
    19d4:	08 c0       	rjmp	.+16     	;  0x19e6
    19d6:	be 01       	movw	r22, r28
    19d8:	67 5f       	subi	r22, 0xF7	; 247
    19da:	7f 4f       	sbci	r23, 0xFF	; 255
    19dc:	4b 2d       	mov	r20, r11
    19de:	50 e0       	ldi	r21, 0x00	; 0
    19e0:	c8 01       	movw	r24, r16
    19e2:	0e 94 28 26 	call	0x4c50	;  0x4c50
    19e6:	8b 2d       	mov	r24, r11
    19e8:	df 91       	pop	r29
    19ea:	cf 91       	pop	r28
    19ec:	1f 91       	pop	r17
    19ee:	0f 91       	pop	r16
    19f0:	ff 90       	pop	r15
    19f2:	ef 90       	pop	r14
    19f4:	df 90       	pop	r13
    19f6:	cf 90       	pop	r12
    19f8:	bf 90       	pop	r11
    19fa:	af 90       	pop	r10
    19fc:	08 95       	ret
    19fe:	8f 92       	push	r8
    1a00:	9f 92       	push	r9
    1a02:	af 92       	push	r10
    1a04:	bf 92       	push	r11
    1a06:	cf 92       	push	r12
    1a08:	df 92       	push	r13
    1a0a:	ef 92       	push	r14
    1a0c:	ff 92       	push	r15
    1a0e:	cf 93       	push	r28
    1a10:	df 93       	push	r29
    1a12:	ec 01       	movw	r28, r24
    1a14:	4a 01       	movw	r8, r20
    1a16:	5b 01       	movw	r10, r22
    1a18:	0e 94 4f 24 	call	0x489e	;  0x489e
    1a1c:	6b 01       	movw	r12, r22
    1a1e:	7c 01       	movw	r14, r24
    1a20:	c8 0c       	add	r12, r8
    1a22:	d9 1c       	adc	r13, r9
    1a24:	ea 1c       	adc	r14, r10
    1a26:	fb 1c       	adc	r15, r11
    1a28:	88 81       	ld	r24, Y
    1a2a:	8f 3f       	cpi	r24, 0xFF	; 255
    1a2c:	89 f4       	brne	.+34     	;  0x1a50
    1a2e:	1b c0       	rjmp	.+54     	;  0x1a66
    1a30:	0e 94 4f 24 	call	0x489e	;  0x489e
    1a34:	c6 16       	cp	r12, r22
    1a36:	d7 06       	cpc	r13, r23
    1a38:	e8 06       	cpc	r14, r24
    1a3a:	f9 06       	cpc	r15, r25
    1a3c:	28 f4       	brcc	.+10     	;  0x1a48
    1a3e:	cb 5a       	subi	r28, 0xAB	; 171
    1a40:	df 4f       	sbci	r29, 0xFF	; 255
    1a42:	8b ef       	ldi	r24, 0xFB	; 251
    1a44:	88 83       	st	Y, r24
    1a46:	0f c0       	rjmp	.+30     	;  0x1a66
    1a48:	84 ef       	ldi	r24, 0xF4	; 244
    1a4a:	91 e0       	ldi	r25, 0x01	; 1
    1a4c:	0e 94 b3 24 	call	0x4966	;  0x4966
    1a50:	88 81       	ld	r24, Y
    1a52:	0e 94 91 25 	call	0x4b22	;  0x4b22
    1a56:	01 97       	sbiw	r24, 0x01	; 1
    1a58:	59 f3       	breq	.-42     	;  0x1a30
    1a5a:	cb 5a       	subi	r28, 0xAB	; 171
    1a5c:	df 4f       	sbci	r29, 0xFF	; 255
    1a5e:	82 e0       	ldi	r24, 0x02	; 2
    1a60:	88 83       	st	Y, r24
    1a62:	81 e0       	ldi	r24, 0x01	; 1
    1a64:	01 c0       	rjmp	.+2      	;  0x1a68
    1a66:	80 e0       	ldi	r24, 0x00	; 0
    1a68:	df 91       	pop	r29
    1a6a:	cf 91       	pop	r28
    1a6c:	ff 90       	pop	r15
    1a6e:	ef 90       	pop	r14
    1a70:	df 90       	pop	r13
    1a72:	cf 90       	pop	r12
    1a74:	bf 90       	pop	r11
    1a76:	af 90       	pop	r10
    1a78:	9f 90       	pop	r9
    1a7a:	8f 90       	pop	r8
    1a7c:	08 95       	ret
    1a7e:	0f 93       	push	r16
    1a80:	1f 93       	push	r17
    1a82:	cf 93       	push	r28
    1a84:	df 93       	push	r29
    1a86:	00 d0       	rcall	.+0      	;  0x1a88
    1a88:	1f 92       	push	r1
    1a8a:	cd b7       	in	r28, 0x3d	; 61
    1a8c:	de b7       	in	r29, 0x3e	; 62
    1a8e:	8c 01       	movw	r16, r24
    1a90:	0e 94 ff 0c 	call	0x19fe	;  0x19fe
    1a94:	88 23       	and	r24, r24
    1a96:	c1 f1       	breq	.+112    	;  0x1b08
    1a98:	19 82       	std	Y+1, r1	; 0x01
    1a9a:	1a 82       	std	Y+2, r1	; 0x02
    1a9c:	8f ef       	ldi	r24, 0xFF	; 255
    1a9e:	8b 83       	std	Y+3, r24	; 0x03
    1aa0:	66 e0       	ldi	r22, 0x06	; 6
    1aa2:	70 e0       	ldi	r23, 0x00	; 0
    1aa4:	c8 01       	movw	r24, r16
    1aa6:	0e 94 de 0b 	call	0x17bc	;  0x17bc
    1aaa:	43 e0       	ldi	r20, 0x03	; 3
    1aac:	50 e0       	ldi	r21, 0x00	; 0
    1aae:	be 01       	movw	r22, r28
    1ab0:	6f 5f       	subi	r22, 0xFF	; 255
    1ab2:	7f 4f       	sbci	r23, 0xFF	; 255
    1ab4:	c8 01       	movw	r24, r16
    1ab6:	04 96       	adiw	r24, 0x04	; 4
    1ab8:	0e 94 12 26 	call	0x4c24	;  0x4c24
    1abc:	00 97       	sbiw	r24, 0x00	; 0
    1abe:	f9 f4       	brne	.+62     	;  0x1afe
    1ac0:	d8 01       	movw	r26, r16
    1ac2:	19 96       	adiw	r26, 0x09	; 9
    1ac4:	8c 91       	ld	r24, X
    1ac6:	19 97       	sbiw	r26, 0x09	; 9
    1ac8:	81 11       	cpse	r24, r1
    1aca:	19 c0       	rjmp	.+50     	;  0x1afe
    1acc:	17 96       	adiw	r26, 0x07	; 7
    1ace:	8c 91       	ld	r24, X
    1ad0:	17 97       	sbiw	r26, 0x07	; 7
    1ad2:	f8 01       	movw	r30, r16
    1ad4:	eb 5a       	subi	r30, 0xAB	; 171
    1ad6:	ff 4f       	sbci	r31, 0xFF	; 255
    1ad8:	81 11       	cpse	r24, r1
    1ada:	06 c0       	rjmp	.+12     	;  0x1ae8
    1adc:	18 96       	adiw	r26, 0x08	; 8
    1ade:	8c 91       	ld	r24, X
    1ae0:	8f 3f       	cpi	r24, 0xFF	; 255
    1ae2:	69 f4       	brne	.+26     	;  0x1afe
    1ae4:	83 e0       	ldi	r24, 0x03	; 3
    1ae6:	08 c0       	rjmp	.+16     	;  0x1af8
    1ae8:	8f 3f       	cpi	r24, 0xFF	; 255
    1aea:	49 f4       	brne	.+18     	;  0x1afe
    1aec:	d8 01       	movw	r26, r16
    1aee:	18 96       	adiw	r26, 0x08	; 8
    1af0:	8c 91       	ld	r24, X
    1af2:	81 11       	cpse	r24, r1
    1af4:	04 c0       	rjmp	.+8      	;  0x1afe
    1af6:	85 e0       	ldi	r24, 0x05	; 5
    1af8:	80 83       	st	Z, r24
    1afa:	81 e0       	ldi	r24, 0x01	; 1
    1afc:	06 c0       	rjmp	.+12     	;  0x1b0a
    1afe:	f8 01       	movw	r30, r16
    1b00:	eb 5a       	subi	r30, 0xAB	; 171
    1b02:	ff 4f       	sbci	r31, 0xFF	; 255
    1b04:	8c ef       	ldi	r24, 0xFC	; 252
    1b06:	80 83       	st	Z, r24
    1b08:	80 e0       	ldi	r24, 0x00	; 0
    1b0a:	0f 90       	pop	r0
    1b0c:	0f 90       	pop	r0
    1b0e:	0f 90       	pop	r0
    1b10:	df 91       	pop	r29
    1b12:	cf 91       	pop	r28
    1b14:	1f 91       	pop	r17
    1b16:	0f 91       	pop	r16
    1b18:	08 95       	ret
    1b1a:	0f 93       	push	r16
    1b1c:	1f 93       	push	r17
    1b1e:	cf 93       	push	r28
    1b20:	df 93       	push	r29
    1b22:	ec 01       	movw	r28, r24
    1b24:	12 e0       	ldi	r17, 0x02	; 2
    1b26:	1c 83       	std	Y+4, r17	; 0x04
    1b28:	61 e0       	ldi	r22, 0x01	; 1
    1b2a:	0e 94 3e 0c 	call	0x187c	;  0x187c
    1b2e:	fe 01       	movw	r30, r28
    1b30:	ec 5a       	subi	r30, 0xAC	; 172
    1b32:	ff 4f       	sbci	r31, 0xFF	; 255
    1b34:	10 83       	st	Z, r17
    1b36:	8e 01       	movw	r16, r28
    1b38:	0b 5a       	subi	r16, 0xAB	; 171
    1b3a:	1f 4f       	sbci	r17, 0xFF	; 255
    1b3c:	81 e0       	ldi	r24, 0x01	; 1
    1b3e:	f8 01       	movw	r30, r16
    1b40:	80 83       	st	Z, r24
    1b42:	48 ee       	ldi	r20, 0xE8	; 232
    1b44:	53 e0       	ldi	r21, 0x03	; 3
    1b46:	60 e0       	ldi	r22, 0x00	; 0
    1b48:	70 e0       	ldi	r23, 0x00	; 0
    1b4a:	ce 01       	movw	r24, r28
    1b4c:	0e 94 3f 0d 	call	0x1a7e	;  0x1a7e
    1b50:	81 11       	cpse	r24, r1
    1b52:	05 c0       	rjmp	.+10     	;  0x1b5e
    1b54:	84 e0       	ldi	r24, 0x04	; 4
    1b56:	f8 01       	movw	r30, r16
    1b58:	80 83       	st	Z, r24
    1b5a:	80 e0       	ldi	r24, 0x00	; 0
    1b5c:	04 c0       	rjmp	.+8      	;  0x1b66
    1b5e:	83 e0       	ldi	r24, 0x03	; 3
    1b60:	f8 01       	movw	r30, r16
    1b62:	80 83       	st	Z, r24
    1b64:	81 e0       	ldi	r24, 0x01	; 1
    1b66:	df 91       	pop	r29
    1b68:	cf 91       	pop	r28
    1b6a:	1f 91       	pop	r17
    1b6c:	0f 91       	pop	r16
    1b6e:	08 95       	ret
    1b70:	0f 93       	push	r16
    1b72:	1f 93       	push	r17
    1b74:	cf 93       	push	r28
    1b76:	df 93       	push	r29
    1b78:	ec 01       	movw	r28, r24
    1b7a:	14 e1       	ldi	r17, 0x14	; 20
    1b7c:	1c 83       	std	Y+4, r17	; 0x04
    1b7e:	6d 83       	std	Y+5, r22	; 0x05
    1b80:	4e 83       	std	Y+6, r20	; 0x06
    1b82:	2f 83       	std	Y+7, r18	; 0x07
    1b84:	64 e0       	ldi	r22, 0x04	; 4
    1b86:	0e 94 3e 0c 	call	0x187c	;  0x187c
    1b8a:	fe 01       	movw	r30, r28
    1b8c:	ec 5a       	subi	r30, 0xAC	; 172
    1b8e:	ff 4f       	sbci	r31, 0xFF	; 255
    1b90:	10 83       	st	Z, r17
    1b92:	8e 01       	movw	r16, r28
    1b94:	0b 5a       	subi	r16, 0xAB	; 171
    1b96:	1f 4f       	sbci	r17, 0xFF	; 255
    1b98:	81 e0       	ldi	r24, 0x01	; 1
    1b9a:	f8 01       	movw	r30, r16
    1b9c:	80 83       	st	Z, r24
    1b9e:	48 ee       	ldi	r20, 0xE8	; 232
    1ba0:	53 e0       	ldi	r21, 0x03	; 3
    1ba2:	60 e0       	ldi	r22, 0x00	; 0
    1ba4:	70 e0       	ldi	r23, 0x00	; 0
    1ba6:	ce 01       	movw	r24, r28
    1ba8:	0e 94 3f 0d 	call	0x1a7e	;  0x1a7e
    1bac:	81 11       	cpse	r24, r1
    1bae:	05 c0       	rjmp	.+10     	;  0x1bba
    1bb0:	84 e0       	ldi	r24, 0x04	; 4
    1bb2:	f8 01       	movw	r30, r16
    1bb4:	80 83       	st	Z, r24
    1bb6:	80 e0       	ldi	r24, 0x00	; 0
    1bb8:	04 c0       	rjmp	.+8      	;  0x1bc2
    1bba:	83 e0       	ldi	r24, 0x03	; 3
    1bbc:	f8 01       	movw	r30, r16
    1bbe:	80 83       	st	Z, r24
    1bc0:	81 e0       	ldi	r24, 0x01	; 1
    1bc2:	df 91       	pop	r29
    1bc4:	cf 91       	pop	r28
    1bc6:	1f 91       	pop	r17
    1bc8:	0f 91       	pop	r16
    1bca:	08 95       	ret
    1bcc:	0f 93       	push	r16
    1bce:	1f 93       	push	r17
    1bd0:	cf 93       	push	r28
    1bd2:	df 93       	push	r29
    1bd4:	ec 01       	movw	r28, r24
    1bd6:	80 2f       	mov	r24, r16
    1bd8:	8f 50       	subi	r24, 0x0F	; 15
    1bda:	81 3f       	cpi	r24, 0xF1	; 241
    1bdc:	20 f0       	brcs	.+8      	;  0x1be6
    1bde:	01 11       	cpse	r16, r1
    1be0:	03 c0       	rjmp	.+6      	;  0x1be8
    1be2:	01 e0       	ldi	r16, 0x01	; 1
    1be4:	01 c0       	rjmp	.+2      	;  0x1be8
    1be6:	0f e0       	ldi	r16, 0x0F	; 15
    1be8:	10 e6       	ldi	r17, 0x60	; 96
    1bea:	1c 83       	std	Y+4, r17	; 0x04
    1bec:	6d 83       	std	Y+5, r22	; 0x05
    1bee:	4e 83       	std	Y+6, r20	; 0x06
    1bf0:	fe 01       	movw	r30, r28
    1bf2:	37 96       	adiw	r30, 0x07	; 7
    1bf4:	40 2f       	mov	r20, r16
    1bf6:	50 e0       	ldi	r21, 0x00	; 0
    1bf8:	b9 01       	movw	r22, r18
    1bfa:	cf 01       	movw	r24, r30
    1bfc:	0e 94 1f 26 	call	0x4c3e	;  0x4c3e
    1c00:	fe 01       	movw	r30, r28
    1c02:	ec 5a       	subi	r30, 0xAC	; 172
    1c04:	ff 4f       	sbci	r31, 0xFF	; 255
    1c06:	10 83       	st	Z, r17
    1c08:	60 2f       	mov	r22, r16
    1c0a:	6d 5f       	subi	r22, 0xFD	; 253
    1c0c:	ce 01       	movw	r24, r28
    1c0e:	0e 94 3e 0c 	call	0x187c	;  0x187c
    1c12:	8e 01       	movw	r16, r28
    1c14:	0b 5a       	subi	r16, 0xAB	; 171
    1c16:	1f 4f       	sbci	r17, 0xFF	; 255
    1c18:	81 e0       	ldi	r24, 0x01	; 1
    1c1a:	f8 01       	movw	r30, r16
    1c1c:	80 83       	st	Z, r24
    1c1e:	48 ee       	ldi	r20, 0xE8	; 232
    1c20:	53 e0       	ldi	r21, 0x03	; 3
    1c22:	60 e0       	ldi	r22, 0x00	; 0
    1c24:	70 e0       	ldi	r23, 0x00	; 0
    1c26:	ce 01       	movw	r24, r28
    1c28:	0e 94 3f 0d 	call	0x1a7e	;  0x1a7e
    1c2c:	88 23       	and	r24, r24
    1c2e:	29 f0       	breq	.+10     	;  0x1c3a
    1c30:	83 e0       	ldi	r24, 0x03	; 3
    1c32:	f8 01       	movw	r30, r16
    1c34:	80 83       	st	Z, r24
    1c36:	81 e0       	ldi	r24, 0x01	; 1
    1c38:	01 c0       	rjmp	.+2      	;  0x1c3c
    1c3a:	80 e0       	ldi	r24, 0x00	; 0
    1c3c:	df 91       	pop	r29
    1c3e:	cf 91       	pop	r28
    1c40:	1f 91       	pop	r17
    1c42:	0f 91       	pop	r16
    1c44:	08 95       	ret
    1c46:	ef 92       	push	r14
    1c48:	ff 92       	push	r15
    1c4a:	0f 93       	push	r16
    1c4c:	1f 93       	push	r17
    1c4e:	cf 93       	push	r28
    1c50:	df 93       	push	r29
    1c52:	ec 01       	movw	r28, r24
    1c54:	7b 01       	movw	r14, r22
    1c56:	fa 01       	movw	r30, r20
    1c58:	40 81       	ld	r20, Z
    1c5a:	51 81       	ldd	r21, Z+1	; 0x01
    1c5c:	62 81       	ldd	r22, Z+2	; 0x02
    1c5e:	73 81       	ldd	r23, Z+3	; 0x03
    1c60:	0e 94 ff 0c 	call	0x19fe	;  0x19fe
    1c64:	88 23       	and	r24, r24
    1c66:	51 f1       	breq	.+84     	;  0x1cbc
    1c68:	8e 01       	movw	r16, r28
    1c6a:	0b 5a       	subi	r16, 0xAB	; 171
    1c6c:	1f 4f       	sbci	r17, 0xFF	; 255
    1c6e:	82 e0       	ldi	r24, 0x02	; 2
    1c70:	f8 01       	movw	r30, r16
    1c72:	80 83       	st	Z, r24
    1c74:	ce 01       	movw	r24, r28
    1c76:	0e 94 86 0c 	call	0x190c	;  0x190c
    1c7a:	9c 81       	ldd	r25, Y+4	; 0x04
    1c7c:	95 3d       	cpi	r25, 0xD5	; 213
    1c7e:	61 f4       	brne	.+24     	;  0x1c98
    1c80:	ed 81       	ldd	r30, Y+5	; 0x05
    1c82:	f0 e0       	ldi	r31, 0x00	; 0
    1c84:	de 01       	movw	r26, r28
    1c86:	ac 5a       	subi	r26, 0xAC	; 172
    1c88:	bf 4f       	sbci	r27, 0xFF	; 255
    1c8a:	2c 91       	ld	r18, X
    1c8c:	30 e0       	ldi	r19, 0x00	; 0
    1c8e:	2f 5f       	subi	r18, 0xFF	; 255
    1c90:	3f 4f       	sbci	r19, 0xFF	; 255
    1c92:	e2 17       	cp	r30, r18
    1c94:	f3 07       	cpc	r31, r19
    1c96:	29 f0       	breq	.+10     	;  0x1ca2
    1c98:	cb 5a       	subi	r28, 0xAB	; 171
    1c9a:	df 4f       	sbci	r29, 0xFF	; 255
    1c9c:	87 e0       	ldi	r24, 0x07	; 7
    1c9e:	88 83       	st	Y, r24
    1ca0:	0d c0       	rjmp	.+26     	;  0x1cbc
    1ca2:	98 e0       	ldi	r25, 0x08	; 8
    1ca4:	f8 01       	movw	r30, r16
    1ca6:	90 83       	st	Z, r25
    1ca8:	18 2f       	mov	r17, r24
    1caa:	12 50       	subi	r17, 0x02	; 2
    1cac:	26 96       	adiw	r28, 0x06	; 6
    1cae:	41 2f       	mov	r20, r17
    1cb0:	50 e0       	ldi	r21, 0x00	; 0
    1cb2:	be 01       	movw	r22, r28
    1cb4:	c7 01       	movw	r24, r14
    1cb6:	0e 94 1f 26 	call	0x4c3e	;  0x4c3e
    1cba:	01 c0       	rjmp	.+2      	;  0x1cbe
    1cbc:	10 e0       	ldi	r17, 0x00	; 0
    1cbe:	81 2f       	mov	r24, r17
    1cc0:	df 91       	pop	r29
    1cc2:	cf 91       	pop	r28
    1cc4:	1f 91       	pop	r17
    1cc6:	0f 91       	pop	r16
    1cc8:	ff 90       	pop	r15
    1cca:	ef 90       	pop	r14
    1ccc:	08 95       	ret
    1cce:	ef 92       	push	r14
    1cd0:	ff 92       	push	r15
    1cd2:	0f 93       	push	r16
    1cd4:	1f 93       	push	r17
    1cd6:	cf 93       	push	r28
    1cd8:	df 93       	push	r29
    1cda:	ec 01       	movw	r28, r24
    1cdc:	86 2f       	mov	r24, r22
    1cde:	b8 01       	movw	r22, r16
    1ce0:	50 e4       	ldi	r21, 0x40	; 64
    1ce2:	f5 2e       	mov	r15, r21
    1ce4:	fc 82       	std	Y+4, r15	; 0x04
    1ce6:	8d 83       	std	Y+5, r24	; 0x05
    1ce8:	4e 83       	std	Y+6, r20	; 0x06
    1cea:	2f 83       	std	Y+7, r18	; 0x07
    1cec:	9e 01       	movw	r18, r28
    1cee:	28 5f       	subi	r18, 0xF8	; 248
    1cf0:	3f 4f       	sbci	r19, 0xFF	; 255
    1cf2:	4e 2d       	mov	r20, r14
    1cf4:	50 e0       	ldi	r21, 0x00	; 0
    1cf6:	c9 01       	movw	r24, r18
    1cf8:	0e 94 1f 26 	call	0x4c3e	;  0x4c3e
    1cfc:	6e 2d       	mov	r22, r14
    1cfe:	6c 5f       	subi	r22, 0xFC	; 252
    1d00:	ce 01       	movw	r24, r28
    1d02:	0e 94 3e 0c 	call	0x187c	;  0x187c
    1d06:	8e 01       	movw	r16, r28
    1d08:	0b 5a       	subi	r16, 0xAB	; 171
    1d0a:	1f 4f       	sbci	r17, 0xFF	; 255
    1d0c:	81 e0       	ldi	r24, 0x01	; 1
    1d0e:	f8 01       	movw	r30, r16
    1d10:	80 83       	st	Z, r24
    1d12:	fe 01       	movw	r30, r28
    1d14:	ec 5a       	subi	r30, 0xAC	; 172
    1d16:	ff 4f       	sbci	r31, 0xFF	; 255
    1d18:	f0 82       	st	Z, r15
    1d1a:	48 ee       	ldi	r20, 0xE8	; 232
    1d1c:	53 e0       	ldi	r21, 0x03	; 3
    1d1e:	60 e0       	ldi	r22, 0x00	; 0
    1d20:	70 e0       	ldi	r23, 0x00	; 0
    1d22:	ce 01       	movw	r24, r28
    1d24:	0e 94 3f 0d 	call	0x1a7e	;  0x1a7e
    1d28:	81 11       	cpse	r24, r1
    1d2a:	05 c0       	rjmp	.+10     	;  0x1d36
    1d2c:	84 e0       	ldi	r24, 0x04	; 4
    1d2e:	f8 01       	movw	r30, r16
    1d30:	80 83       	st	Z, r24
    1d32:	80 e0       	ldi	r24, 0x00	; 0
    1d34:	04 c0       	rjmp	.+8      	;  0x1d3e
    1d36:	83 e0       	ldi	r24, 0x03	; 3
    1d38:	f8 01       	movw	r30, r16
    1d3a:	80 83       	st	Z, r24
    1d3c:	81 e0       	ldi	r24, 0x01	; 1
    1d3e:	df 91       	pop	r29
    1d40:	cf 91       	pop	r28
    1d42:	1f 91       	pop	r17
    1d44:	0f 91       	pop	r16
    1d46:	ff 90       	pop	r15
    1d48:	ef 90       	pop	r14
    1d4a:	08 95       	ret
    1d4c:	34 2f       	mov	r19, r20
    1d4e:	75 2f       	mov	r23, r21
    1d50:	fc 01       	movw	r30, r24
    1d52:	ea 5a       	subi	r30, 0xAA	; 170
    1d54:	ff 4f       	sbci	r31, 0xFF	; 255
    1d56:	60 83       	st	Z, r22
    1d58:	fc 01       	movw	r30, r24
    1d5a:	e9 5a       	subi	r30, 0xA9	; 169
    1d5c:	ff 4f       	sbci	r31, 0xFF	; 255
    1d5e:	20 83       	st	Z, r18
    1d60:	fc 01       	movw	r30, r24
    1d62:	e8 5a       	subi	r30, 0xA8	; 168
    1d64:	ff 4f       	sbci	r31, 0xFF	; 255
    1d66:	42 2f       	mov	r20, r18
    1d68:	50 e0       	ldi	r21, 0x00	; 0
    1d6a:	63 2f       	mov	r22, r19
    1d6c:	cf 01       	movw	r24, r30
    1d6e:	0c 94 1f 26 	jmp	0x4c3e	;  0x4c3e
    1d72:	cf 92       	push	r12
    1d74:	df 92       	push	r13
    1d76:	ef 92       	push	r14
    1d78:	0f 93       	push	r16
    1d7a:	1f 93       	push	r17
    1d7c:	cf 93       	push	r28
    1d7e:	df 93       	push	r29
    1d80:	cd b7       	in	r28, 0x3d	; 61
    1d82:	de b7       	in	r29, 0x3e	; 62
    1d84:	61 97       	sbiw	r28, 0x11	; 17
    1d86:	0f b6       	in	r0, 0x3f	; 63
    1d88:	f8 94       	cli
    1d8a:	de bf       	out	0x3e, r29	; 62
    1d8c:	0f be       	out	0x3f, r0	; 63
    1d8e:	cd bf       	out	0x3d, r28	; 61
    1d90:	6c 01       	movw	r12, r24
    1d92:	26 2f       	mov	r18, r22
    1d94:	8a 01       	movw	r16, r20
    1d96:	fa 01       	movw	r30, r20
    1d98:	31 96       	adiw	r30, 0x01	; 1
    1d9a:	86 e0       	ldi	r24, 0x06	; 6
    1d9c:	de 01       	movw	r26, r28
    1d9e:	11 96       	adiw	r26, 0x01	; 1
    1da0:	01 90       	ld	r0, Z+
    1da2:	0d 92       	st	X+, r0
    1da4:	8a 95       	dec	r24
    1da6:	e1 f7       	brne	.-8      	;  0x1da0
    1da8:	f6 01       	movw	r30, r12
    1daa:	e9 5a       	subi	r30, 0xA9	; 169
    1dac:	ff 4f       	sbci	r31, 0xFF	; 255
    1dae:	e0 80       	ld	r14, Z
    1db0:	83 e0       	ldi	r24, 0x03	; 3
    1db2:	8e 15       	cp	r24, r14
    1db4:	18 f4       	brcc	.+6      	;  0x1dbc
    1db6:	ee 2d       	mov	r30, r14
    1db8:	f0 e0       	ldi	r31, 0x00	; 0
    1dba:	02 c0       	rjmp	.+4      	;  0x1dc0
    1dbc:	e4 e0       	ldi	r30, 0x04	; 4
    1dbe:	f0 e0       	ldi	r31, 0x00	; 0
    1dc0:	de 01       	movw	r26, r28
    1dc2:	17 96       	adiw	r26, 0x07	; 7
    1dc4:	c6 01       	movw	r24, r12
    1dc6:	88 5a       	subi	r24, 0xA8	; 168
    1dc8:	9f 4f       	sbci	r25, 0xFF	; 255
    1dca:	af 01       	movw	r20, r30
    1dcc:	bc 01       	movw	r22, r24
    1dce:	cd 01       	movw	r24, r26
    1dd0:	29 8b       	std	Y+17, r18	; 0x11
    1dd2:	0e 94 1f 26 	call	0x4c3e	;  0x4c3e
    1dd6:	f8 01       	movw	r30, r16
    1dd8:	80 81       	ld	r24, Z
    1dda:	29 89       	ldd	r18, Y+17	; 0x11
    1ddc:	81 34       	cpi	r24, 0x41	; 65
    1dde:	51 f0       	breq	.+20     	;  0x1df4
    1de0:	28 f4       	brcc	.+10     	;  0x1dec
    1de2:	88 23       	and	r24, r24
    1de4:	39 f0       	breq	.+14     	;  0x1df4
    1de6:	8a 30       	cpi	r24, 0x0A	; 10
    1de8:	39 f4       	brne	.+14     	;  0x1df8
    1dea:	04 c0       	rjmp	.+8      	;  0x1df4
    1dec:	81 36       	cpi	r24, 0x61	; 97
    1dee:	11 f0       	breq	.+4      	;  0x1df4
    1df0:	8a 3a       	cpi	r24, 0xAA	; 170
    1df2:	11 f4       	brne	.+4      	;  0x1df8
    1df4:	40 e6       	ldi	r20, 0x60	; 96
    1df6:	01 c0       	rjmp	.+2      	;  0x1dfa
    1df8:	41 e6       	ldi	r20, 0x61	; 97
    1dfa:	f6 e0       	ldi	r31, 0x06	; 6
    1dfc:	ef 0e       	add	r14, r31
    1dfe:	8e 01       	movw	r16, r28
    1e00:	0f 5f       	subi	r16, 0xFF	; 255
    1e02:	1f 4f       	sbci	r17, 0xFF	; 255
    1e04:	61 e0       	ldi	r22, 0x01	; 1
    1e06:	c6 01       	movw	r24, r12
    1e08:	0e 94 67 0e 	call	0x1cce	;  0x1cce
    1e0c:	61 96       	adiw	r28, 0x11	; 17
    1e0e:	0f b6       	in	r0, 0x3f	; 63
    1e10:	f8 94       	cli
    1e12:	de bf       	out	0x3e, r29	; 62
    1e14:	0f be       	out	0x3f, r0	; 63
    1e16:	cd bf       	out	0x3d, r28	; 61
    1e18:	df 91       	pop	r29
    1e1a:	cf 91       	pop	r28
    1e1c:	1f 91       	pop	r17
    1e1e:	0f 91       	pop	r16
    1e20:	ef 90       	pop	r14
    1e22:	df 90       	pop	r13
    1e24:	cf 90       	pop	r12
    1e26:	08 95       	ret
    1e28:	8f 92       	push	r8
    1e2a:	9f 92       	push	r9
    1e2c:	af 92       	push	r10
    1e2e:	bf 92       	push	r11
    1e30:	cf 92       	push	r12
    1e32:	df 92       	push	r13
    1e34:	ef 92       	push	r14
    1e36:	0f 93       	push	r16
    1e38:	1f 93       	push	r17
    1e3a:	cf 93       	push	r28
    1e3c:	df 93       	push	r29
    1e3e:	00 d0       	rcall	.+0      	;  0x1e40
    1e40:	00 d0       	rcall	.+0      	;  0x1e42
    1e42:	cd b7       	in	r28, 0x3d	; 61
    1e44:	de b7       	in	r29, 0x3e	; 62
    1e46:	6c 01       	movw	r12, r24
    1e48:	26 2f       	mov	r18, r22
    1e4a:	4a 01       	movw	r8, r20
    1e4c:	5c 01       	movw	r10, r24
    1e4e:	84 e0       	ldi	r24, 0x04	; 4
    1e50:	a8 0e       	add	r10, r24
    1e52:	b1 1c       	adc	r11, r1
    1e54:	e1 2c       	mov	r14, r1
    1e56:	85 01       	movw	r16, r10
    1e58:	40 e3       	ldi	r20, 0x30	; 48
    1e5a:	61 e0       	ldi	r22, 0x01	; 1
    1e5c:	c6 01       	movw	r24, r12
    1e5e:	0e 94 67 0e 	call	0x1cce	;  0x1cce
    1e62:	88 ee       	ldi	r24, 0xE8	; 232
    1e64:	93 e0       	ldi	r25, 0x03	; 3
    1e66:	a0 e0       	ldi	r26, 0x00	; 0
    1e68:	b0 e0       	ldi	r27, 0x00	; 0
    1e6a:	89 83       	std	Y+1, r24	; 0x01
    1e6c:	9a 83       	std	Y+2, r25	; 0x02
    1e6e:	ab 83       	std	Y+3, r26	; 0x03
    1e70:	bc 83       	std	Y+4, r27	; 0x04
    1e72:	ae 01       	movw	r20, r28
    1e74:	4f 5f       	subi	r20, 0xFF	; 255
    1e76:	5f 4f       	sbci	r21, 0xFF	; 255
    1e78:	b5 01       	movw	r22, r10
    1e7a:	c6 01       	movw	r24, r12
    1e7c:	0e 94 23 0e 	call	0x1c46	;  0x1c46
    1e80:	88 23       	and	r24, r24
    1e82:	69 f0       	breq	.+26     	;  0x1e9e
    1e84:	f6 01       	movw	r30, r12
    1e86:	84 81       	ldd	r24, Z+4	; 0x04
    1e88:	81 11       	cpse	r24, r1
    1e8a:	09 c0       	rjmp	.+18     	;  0x1e9e
    1e8c:	35 96       	adiw	r30, 0x05	; 5
    1e8e:	80 e1       	ldi	r24, 0x10	; 16
    1e90:	d4 01       	movw	r26, r8
    1e92:	01 90       	ld	r0, Z+
    1e94:	0d 92       	st	X+, r0
    1e96:	8a 95       	dec	r24
    1e98:	e1 f7       	brne	.-8      	;  0x1e92
    1e9a:	80 e1       	ldi	r24, 0x10	; 16
    1e9c:	01 c0       	rjmp	.+2      	;  0x1ea0
    1e9e:	80 e0       	ldi	r24, 0x00	; 0
    1ea0:	0f 90       	pop	r0
    1ea2:	0f 90       	pop	r0
    1ea4:	0f 90       	pop	r0
    1ea6:	0f 90       	pop	r0
    1ea8:	df 91       	pop	r29
    1eaa:	cf 91       	pop	r28
    1eac:	1f 91       	pop	r17
    1eae:	0f 91       	pop	r16
    1eb0:	ef 90       	pop	r14
    1eb2:	df 90       	pop	r13
    1eb4:	cf 90       	pop	r12
    1eb6:	bf 90       	pop	r11
    1eb8:	af 90       	pop	r10
    1eba:	9f 90       	pop	r9
    1ebc:	8f 90       	pop	r8
    1ebe:	08 95       	ret
    1ec0:	ff 92       	push	r15
    1ec2:	0f 93       	push	r16
    1ec4:	1f 93       	push	r17
    1ec6:	cf 93       	push	r28
    1ec8:	df 93       	push	r29
    1eca:	ec 01       	movw	r28, r24
    1ecc:	14 2f       	mov	r17, r20
    1ece:	e2 e4       	ldi	r30, 0x42	; 66
    1ed0:	fe 2e       	mov	r15, r30
    1ed2:	fc 82       	std	Y+4, r15	; 0x04
    1ed4:	84 2f       	mov	r24, r20
    1ed6:	8f 5f       	subi	r24, 0xFF	; 255
    1ed8:	8d 83       	std	Y+5, r24	; 0x05
    1eda:	9e 01       	movw	r18, r28
    1edc:	2a 5f       	subi	r18, 0xFA	; 250
    1ede:	3f 4f       	sbci	r19, 0xFF	; 255
    1ee0:	50 e0       	ldi	r21, 0x00	; 0
    1ee2:	c9 01       	movw	r24, r18
    1ee4:	0e 94 1f 26 	call	0x4c3e	;  0x4c3e
    1ee8:	61 2f       	mov	r22, r17
    1eea:	6e 5f       	subi	r22, 0xFE	; 254
    1eec:	ce 01       	movw	r24, r28
    1eee:	0e 94 3e 0c 	call	0x187c	;  0x187c
    1ef2:	8e 01       	movw	r16, r28
    1ef4:	0b 5a       	subi	r16, 0xAB	; 171
    1ef6:	1f 4f       	sbci	r17, 0xFF	; 255
    1ef8:	81 e0       	ldi	r24, 0x01	; 1
    1efa:	f8 01       	movw	r30, r16
    1efc:	80 83       	st	Z, r24
    1efe:	fe 01       	movw	r30, r28
    1f00:	ec 5a       	subi	r30, 0xAC	; 172
    1f02:	ff 4f       	sbci	r31, 0xFF	; 255
    1f04:	f0 82       	st	Z, r15
    1f06:	48 ee       	ldi	r20, 0xE8	; 232
    1f08:	53 e0       	ldi	r21, 0x03	; 3
    1f0a:	60 e0       	ldi	r22, 0x00	; 0
    1f0c:	70 e0       	ldi	r23, 0x00	; 0
    1f0e:	ce 01       	movw	r24, r28
    1f10:	0e 94 3f 0d 	call	0x1a7e	;  0x1a7e
    1f14:	81 11       	cpse	r24, r1
    1f16:	05 c0       	rjmp	.+10     	;  0x1f22
    1f18:	84 e0       	ldi	r24, 0x04	; 4
    1f1a:	f8 01       	movw	r30, r16
    1f1c:	80 83       	st	Z, r24
    1f1e:	80 e0       	ldi	r24, 0x00	; 0
    1f20:	04 c0       	rjmp	.+8      	;  0x1f2a
    1f22:	83 e0       	ldi	r24, 0x03	; 3
    1f24:	f8 01       	movw	r30, r16
    1f26:	80 83       	st	Z, r24
    1f28:	81 e0       	ldi	r24, 0x01	; 1
    1f2a:	df 91       	pop	r29
    1f2c:	cf 91       	pop	r28
    1f2e:	1f 91       	pop	r17
    1f30:	0f 91       	pop	r16
    1f32:	ff 90       	pop	r15
    1f34:	08 95       	ret
    1f36:	cf 92       	push	r12
    1f38:	df 92       	push	r13
    1f3a:	ef 92       	push	r14
    1f3c:	ff 92       	push	r15
    1f3e:	0f 93       	push	r16
    1f40:	1f 93       	push	r17
    1f42:	cf 93       	push	r28
    1f44:	df 93       	push	r29
    1f46:	00 d0       	rcall	.+0      	;  0x1f48
    1f48:	00 d0       	rcall	.+0      	;  0x1f4a
    1f4a:	cd b7       	in	r28, 0x3d	; 61
    1f4c:	de b7       	in	r29, 0x3e	; 62
    1f4e:	7c 01       	movw	r14, r24
    1f50:	6b 01       	movw	r12, r22
    1f52:	48 ee       	ldi	r20, 0xE8	; 232
    1f54:	53 e0       	ldi	r21, 0x03	; 3
    1f56:	60 e0       	ldi	r22, 0x00	; 0
    1f58:	70 e0       	ldi	r23, 0x00	; 0
    1f5a:	49 83       	std	Y+1, r20	; 0x01
    1f5c:	5a 83       	std	Y+2, r21	; 0x02
    1f5e:	6b 83       	std	Y+3, r22	; 0x03
    1f60:	7c 83       	std	Y+4, r23	; 0x04
    1f62:	bc 01       	movw	r22, r24
    1f64:	6c 5f       	subi	r22, 0xFC	; 252
    1f66:	7f 4f       	sbci	r23, 0xFF	; 255
    1f68:	ae 01       	movw	r20, r28
    1f6a:	4f 5f       	subi	r20, 0xFF	; 255
    1f6c:	5f 4f       	sbci	r21, 0xFF	; 255
    1f6e:	0e 94 23 0e 	call	0x1c46	;  0x1c46
    1f72:	88 23       	and	r24, r24
    1f74:	91 f0       	breq	.+36     	;  0x1f9a
    1f76:	f7 01       	movw	r30, r14
    1f78:	84 81       	ldd	r24, Z+4	; 0x04
    1f7a:	81 11       	cpse	r24, r1
    1f7c:	0e c0       	rjmp	.+28     	;  0x1f9a
    1f7e:	05 81       	ldd	r16, Z+5	; 0x05
    1f80:	10 e0       	ldi	r17, 0x00	; 0
    1f82:	01 50       	subi	r16, 0x01	; 1
    1f84:	11 09       	sbc	r17, r1
    1f86:	f6 e0       	ldi	r31, 0x06	; 6
    1f88:	ef 0e       	add	r14, r31
    1f8a:	f1 1c       	adc	r15, r1
    1f8c:	a8 01       	movw	r20, r16
    1f8e:	b7 01       	movw	r22, r14
    1f90:	c6 01       	movw	r24, r12
    1f92:	0e 94 1f 26 	call	0x4c3e	;  0x4c3e
    1f96:	80 2f       	mov	r24, r16
    1f98:	01 c0       	rjmp	.+2      	;  0x1f9c
    1f9a:	80 e0       	ldi	r24, 0x00	; 0
    1f9c:	0f 90       	pop	r0
    1f9e:	0f 90       	pop	r0
    1fa0:	0f 90       	pop	r0
    1fa2:	0f 90       	pop	r0
    1fa4:	df 91       	pop	r29
    1fa6:	cf 91       	pop	r28
    1fa8:	1f 91       	pop	r17
    1faa:	0f 91       	pop	r16
    1fac:	ff 90       	pop	r15
    1fae:	ef 90       	pop	r14
    1fb0:	df 90       	pop	r13
    1fb2:	cf 90       	pop	r12
    1fb4:	08 95       	ret
    1fb6:	9f 92       	push	r9
    1fb8:	af 92       	push	r10
    1fba:	bf 92       	push	r11
    1fbc:	cf 92       	push	r12
    1fbe:	df 92       	push	r13
    1fc0:	ef 92       	push	r14
    1fc2:	ff 92       	push	r15
    1fc4:	0f 93       	push	r16
    1fc6:	1f 93       	push	r17
    1fc8:	cf 93       	push	r28
    1fca:	df 93       	push	r29
    1fcc:	8c 01       	movw	r16, r24
    1fce:	eb 01       	movw	r28, r22
    1fd0:	18 82       	st	Y, r1
    1fd2:	49 83       	std	Y+1, r20	; 0x01
    1fd4:	5a 83       	std	Y+2, r21	; 0x02
    1fd6:	81 e0       	ldi	r24, 0x01	; 1
    1fd8:	8b 83       	std	Y+3, r24	; 0x03
    1fda:	1c 82       	std	Y+4, r1	; 0x04
    1fdc:	45 e0       	ldi	r20, 0x05	; 5
    1fde:	c8 01       	movw	r24, r16
    1fe0:	0e 94 60 0f 	call	0x1ec0	;  0x1ec0
    1fe4:	be 01       	movw	r22, r28
    1fe6:	c8 01       	movw	r24, r16
    1fe8:	0e 94 9b 0f 	call	0x1f36	;  0x1f36
    1fec:	98 2e       	mov	r9, r24
    1fee:	7e 01       	movw	r14, r28
    1ff0:	a8 2e       	mov	r10, r24
    1ff2:	b1 2c       	mov	r11, r1
    1ff4:	1d c0       	rjmp	.+58     	;  0x2030
    1ff6:	67 01       	movw	r12, r14
    1ff8:	f7 01       	movw	r30, r14
    1ffa:	61 91       	ld	r22, Z+
    1ffc:	7f 01       	movw	r14, r30
    1ffe:	62 95       	swap	r22
    2000:	6f 70       	andi	r22, 0x0F	; 15
    2002:	40 e1       	ldi	r20, 0x10	; 16
    2004:	50 e0       	ldi	r21, 0x00	; 0
    2006:	70 e0       	ldi	r23, 0x00	; 0
    2008:	82 e4       	ldi	r24, 0x42	; 66
    200a:	96 e0       	ldi	r25, 0x06	; 6
    200c:	0e 94 11 23 	call	0x4622	;  0x4622
    2010:	f6 01       	movw	r30, r12
    2012:	60 81       	ld	r22, Z
    2014:	6f 70       	andi	r22, 0x0F	; 15
    2016:	40 e1       	ldi	r20, 0x10	; 16
    2018:	50 e0       	ldi	r21, 0x00	; 0
    201a:	70 e0       	ldi	r23, 0x00	; 0
    201c:	82 e4       	ldi	r24, 0x42	; 66
    201e:	96 e0       	ldi	r25, 0x06	; 6
    2020:	0e 94 11 23 	call	0x4622	;  0x4622
    2024:	64 ee       	ldi	r22, 0xE4	; 228
    2026:	71 e0       	ldi	r23, 0x01	; 1
    2028:	82 e4       	ldi	r24, 0x42	; 66
    202a:	96 e0       	ldi	r25, 0x06	; 6
    202c:	0e 94 19 22 	call	0x4432	;  0x4432
    2030:	c7 01       	movw	r24, r14
    2032:	8c 1b       	sub	r24, r28
    2034:	9d 0b       	sbc	r25, r29
    2036:	8a 15       	cp	r24, r10
    2038:	9b 05       	cpc	r25, r11
    203a:	ec f2       	brlt	.-70     	;  0x1ff6
    203c:	88 81       	ld	r24, Y
    203e:	f8 01       	movw	r30, r16
    2040:	e9 5a       	subi	r30, 0xA9	; 169
    2042:	ff 4f       	sbci	r31, 0xFF	; 255
    2044:	81 30       	cpi	r24, 0x01	; 1
    2046:	89 f4       	brne	.+34     	;  0x206a
    2048:	88 e0       	ldi	r24, 0x08	; 8
    204a:	80 83       	st	Z, r24
    204c:	d8 01       	movw	r26, r16
    204e:	a8 5a       	subi	r26, 0xA8	; 168
    2050:	bf 4f       	sbci	r27, 0xFF	; 255
    2052:	fe 01       	movw	r30, r28
    2054:	31 96       	adiw	r30, 0x01	; 1
    2056:	01 90       	ld	r0, Z+
    2058:	0d 92       	st	X+, r0
    205a:	8a 95       	dec	r24
    205c:	e1 f7       	brne	.-8      	;  0x2056
    205e:	f8 01       	movw	r30, r16
    2060:	ea 5a       	subi	r30, 0xAA	; 170
    2062:	ff 4f       	sbci	r31, 0xFF	; 255
    2064:	81 e1       	ldi	r24, 0x11	; 17
    2066:	80 83       	st	Z, r24
    2068:	07 c0       	rjmp	.+14     	;  0x2078
    206a:	d8 01       	movw	r26, r16
    206c:	aa 5a       	subi	r26, 0xAA	; 170
    206e:	bf 4f       	sbci	r27, 0xFF	; 255
    2070:	8f ef       	ldi	r24, 0xFF	; 255
    2072:	8c 93       	st	X, r24
    2074:	10 82       	st	Z, r1
    2076:	91 2c       	mov	r9, r1
    2078:	89 2d       	mov	r24, r9
    207a:	df 91       	pop	r29
    207c:	cf 91       	pop	r28
    207e:	1f 91       	pop	r17
    2080:	0f 91       	pop	r16
    2082:	ff 90       	pop	r15
    2084:	ef 90       	pop	r14
    2086:	df 90       	pop	r13
    2088:	cf 90       	pop	r12
    208a:	bf 90       	pop	r11
    208c:	af 90       	pop	r10
    208e:	9f 90       	pop	r9
    2090:	08 95       	ret
    2092:	cf 92       	push	r12
    2094:	df 92       	push	r13
    2096:	ff 92       	push	r15
    2098:	0f 93       	push	r16
    209a:	1f 93       	push	r17
    209c:	cf 93       	push	r28
    209e:	df 93       	push	r29
    20a0:	8c 01       	movw	r16, r24
    20a2:	eb 01       	movw	r28, r22
    20a4:	db 01       	movw	r26, r22
    20a6:	82 e0       	ldi	r24, 0x02	; 2
    20a8:	8d 93       	st	X+, r24
    20aa:	f8 01       	movw	r30, r16
    20ac:	e8 5a       	subi	r30, 0xA8	; 168
    20ae:	ff 4f       	sbci	r31, 0xFF	; 255
    20b0:	88 e0       	ldi	r24, 0x08	; 8
    20b2:	01 90       	ld	r0, Z+
    20b4:	0d 92       	st	X+, r0
    20b6:	8a 95       	dec	r24
    20b8:	e1 f7       	brne	.-8      	;  0x20b2
    20ba:	29 87       	std	Y+9, r18	; 0x09
    20bc:	6a 01       	movw	r12, r20
    20be:	db 01       	movw	r26, r22
    20c0:	1b 96       	adiw	r26, 0x0b	; 11
    20c2:	80 e0       	ldi	r24, 0x00	; 0
    20c4:	90 e0       	ldi	r25, 0x00	; 0
    20c6:	42 2f       	mov	r20, r18
    20c8:	50 e0       	ldi	r21, 0x00	; 0
    20ca:	10 c0       	rjmp	.+32     	;  0x20ec
    20cc:	96 01       	movw	r18, r12
    20ce:	bd 01       	movw	r22, r26
    20d0:	61 50       	subi	r22, 0x01	; 1
    20d2:	71 09       	sbc	r23, r1
    20d4:	f6 01       	movw	r30, r12
    20d6:	f0 80       	ld	r15, Z
    20d8:	fb 01       	movw	r30, r22
    20da:	f0 82       	st	Z, r15
    20dc:	f2 e0       	ldi	r31, 0x02	; 2
    20de:	cf 0e       	add	r12, r31
    20e0:	d1 1c       	adc	r13, r1
    20e2:	f9 01       	movw	r30, r18
    20e4:	21 81       	ldd	r18, Z+1	; 0x01
    20e6:	2c 93       	st	X, r18
    20e8:	01 96       	adiw	r24, 0x01	; 1
    20ea:	12 96       	adiw	r26, 0x02	; 2
    20ec:	84 17       	cp	r24, r20
    20ee:	95 07       	cpc	r25, r21
    20f0:	6c f3       	brlt	.-38     	;  0x20cc
    20f2:	4b 5f       	subi	r20, 0xFB	; 251
    20f4:	5f 4f       	sbci	r21, 0xFF	; 255
    20f6:	44 0f       	add	r20, r20
    20f8:	be 01       	movw	r22, r28
    20fa:	c8 01       	movw	r24, r16
    20fc:	0e 94 60 0f 	call	0x1ec0	;  0x1ec0
    2100:	be 01       	movw	r22, r28
    2102:	c8 01       	movw	r24, r16
    2104:	0e 94 9b 0f 	call	0x1f36	;  0x1f36
    2108:	98 81       	ld	r25, Y
    210a:	93 30       	cpi	r25, 0x03	; 3
    210c:	71 f4       	brne	.+28     	;  0x212a
    210e:	8a 30       	cpi	r24, 0x0A	; 10
    2110:	60 f0       	brcs	.+24     	;  0x212a
    2112:	19 85       	ldd	r17, Y+9	; 0x09
    2114:	41 2f       	mov	r20, r17
    2116:	50 e0       	ldi	r21, 0x00	; 0
    2118:	44 0f       	add	r20, r20
    211a:	55 1f       	adc	r21, r21
    211c:	be 01       	movw	r22, r28
    211e:	66 5f       	subi	r22, 0xF6	; 246
    2120:	7f 4f       	sbci	r23, 0xFF	; 255
    2122:	ce 01       	movw	r24, r28
    2124:	0e 94 28 26 	call	0x4c50	;  0x4c50
    2128:	01 c0       	rjmp	.+2      	;  0x212c
    212a:	10 e0       	ldi	r17, 0x00	; 0
    212c:	81 2f       	mov	r24, r17
    212e:	df 91       	pop	r29
    2130:	cf 91       	pop	r28
    2132:	1f 91       	pop	r17
    2134:	0f 91       	pop	r16
    2136:	ff 90       	pop	r15
    2138:	df 90       	pop	r13
    213a:	cf 90       	pop	r12
    213c:	08 95       	ret
    213e:	cf 93       	push	r28
    2140:	df 93       	push	r29
    2142:	cd b7       	in	r28, 0x3d	; 61
    2144:	de b7       	in	r29, 0x3e	; 62
    2146:	60 97       	sbiw	r28, 0x10	; 16
    2148:	0f b6       	in	r0, 0x3f	; 63
    214a:	f8 94       	cli
    214c:	de bf       	out	0x3e, r29	; 62
    214e:	0f be       	out	0x3f, r0	; 63
    2150:	cd bf       	out	0x3d, r28	; 61
    2152:	78 8b       	std	Y+16, r23	; 0x10
    2154:	6f 87       	std	Y+15, r22	; 0x0f
    2156:	21 e0       	ldi	r18, 0x01	; 1
    2158:	ae 01       	movw	r20, r28
    215a:	41 5f       	subi	r20, 0xF1	; 241
    215c:	5f 4f       	sbci	r21, 0xFF	; 255
    215e:	be 01       	movw	r22, r28
    2160:	6f 5f       	subi	r22, 0xFF	; 255
    2162:	7f 4f       	sbci	r23, 0xFF	; 255
    2164:	0e 94 49 10 	call	0x2092	;  0x2092
    2168:	88 23       	and	r24, r24
    216a:	31 f0       	breq	.+12     	;  0x2178
    216c:	3c 85       	ldd	r19, Y+12	; 0x0c
    216e:	20 e0       	ldi	r18, 0x00	; 0
    2170:	8b 85       	ldd	r24, Y+11	; 0x0b
    2172:	28 0f       	add	r18, r24
    2174:	31 1d       	adc	r19, r1
    2176:	02 c0       	rjmp	.+4      	;  0x217c
    2178:	2f ef       	ldi	r18, 0xFF	; 255
    217a:	3f ef       	ldi	r19, 0xFF	; 255
    217c:	c9 01       	movw	r24, r18
    217e:	60 96       	adiw	r28, 0x10	; 16
    2180:	0f b6       	in	r0, 0x3f	; 63
    2182:	f8 94       	cli
    2184:	de bf       	out	0x3e, r29	; 62
    2186:	0f be       	out	0x3f, r0	; 63
    2188:	cd bf       	out	0x3d, r28	; 61
    218a:	df 91       	pop	r29
    218c:	cf 91       	pop	r28
    218e:	08 95       	ret
    2190:	2f 92       	push	r2
    2192:	3f 92       	push	r3
    2194:	4f 92       	push	r4
    2196:	5f 92       	push	r5
    2198:	6f 92       	push	r6
    219a:	7f 92       	push	r7
    219c:	8f 92       	push	r8
    219e:	9f 92       	push	r9
    21a0:	af 92       	push	r10
    21a2:	bf 92       	push	r11
    21a4:	cf 92       	push	r12
    21a6:	df 92       	push	r13
    21a8:	ef 92       	push	r14
    21aa:	ff 92       	push	r15
    21ac:	0f 93       	push	r16
    21ae:	1f 93       	push	r17
    21b0:	cf 93       	push	r28
    21b2:	df 93       	push	r29
    21b4:	cd b7       	in	r28, 0x3d	; 61
    21b6:	de b7       	in	r29, 0x3e	; 62
    21b8:	a9 97       	sbiw	r28, 0x29	; 41
    21ba:	0f b6       	in	r0, 0x3f	; 63
    21bc:	f8 94       	cli
    21be:	de bf       	out	0x3e, r29	; 62
    21c0:	0f be       	out	0x3f, r0	; 63
    21c2:	cd bf       	out	0x3d, r28	; 61
    21c4:	5c 01       	movw	r10, r24
    21c6:	54 2e       	mov	r5, r20
    21c8:	45 2e       	mov	r4, r21
    21ca:	7b 01       	movw	r14, r22
    21cc:	68 01       	movw	r12, r16
    21ce:	61 2c       	mov	r6, r1
    21d0:	71 2c       	mov	r7, r1
    21d2:	22 2e       	mov	r2, r18
    21d4:	31 2c       	mov	r3, r1
    21d6:	4c 01       	movw	r8, r24
    21d8:	38 e5       	ldi	r19, 0x58	; 88
    21da:	83 0e       	add	r8, r19
    21dc:	91 1c       	adc	r9, r1
    21de:	8e 01       	movw	r16, r28
    21e0:	03 5f       	subi	r16, 0xF3	; 243
    21e2:	1f 4f       	sbci	r17, 0xFF	; 255
    21e4:	39 c0       	rjmp	.+114    	;  0x2258
    21e6:	86 e0       	ldi	r24, 0x06	; 6
    21e8:	89 83       	std	Y+1, r24	; 0x01
    21ea:	f4 01       	movw	r30, r8
    21ec:	de 01       	movw	r26, r28
    21ee:	12 96       	adiw	r26, 0x02	; 2
    21f0:	88 e0       	ldi	r24, 0x08	; 8
    21f2:	01 90       	ld	r0, Z+
    21f4:	0d 92       	st	X+, r0
    21f6:	8a 95       	dec	r24
    21f8:	e1 f7       	brne	.-8      	;  0x21f2
    21fa:	e1 e0       	ldi	r30, 0x01	; 1
    21fc:	ea 87       	std	Y+10, r30	; 0x0a
    21fe:	5b 86       	std	Y+11, r5	; 0x0b
    2200:	4c 86       	std	Y+12, r4	; 0x0c
    2202:	ed 87       	std	Y+13, r30	; 0x0d
    2204:	f6 01       	movw	r30, r12
    2206:	81 91       	ld	r24, Z+
    2208:	91 91       	ld	r25, Z+
    220a:	6f 01       	movw	r12, r30
    220c:	ac 01       	movw	r20, r24
    220e:	50 68       	ori	r21, 0x80	; 128
    2210:	5e 87       	std	Y+14, r21	; 0x0e
    2212:	8f 87       	std	Y+15, r24	; 0x0f
    2214:	4f e0       	ldi	r20, 0x0F	; 15
    2216:	be 01       	movw	r22, r28
    2218:	6f 5f       	subi	r22, 0xFF	; 255
    221a:	7f 4f       	sbci	r23, 0xFF	; 255
    221c:	c5 01       	movw	r24, r10
    221e:	29 a7       	std	Y+41, r18	; 0x29
    2220:	0e 94 60 0f 	call	0x1ec0	;  0x1ec0
    2224:	be 01       	movw	r22, r28
    2226:	6f 5f       	subi	r22, 0xFF	; 255
    2228:	7f 4f       	sbci	r23, 0xFF	; 255
    222a:	c5 01       	movw	r24, r10
    222c:	0e 94 9b 0f 	call	0x1f36	;  0x1f36
    2230:	8a 85       	ldd	r24, Y+10	; 0x0a
    2232:	81 11       	cpse	r24, r1
    2234:	16 c0       	rjmp	.+44     	;  0x2262
    2236:	8c 85       	ldd	r24, Y+12	; 0x0c
    2238:	f0 e1       	ldi	r31, 0x10	; 16
    223a:	8f 9f       	mul	r24, r31
    223c:	c0 01       	movw	r24, r0
    223e:	11 24       	eor	r1, r1
    2240:	ac 01       	movw	r20, r24
    2242:	b8 01       	movw	r22, r16
    2244:	c7 01       	movw	r24, r14
    2246:	0e 94 1f 26 	call	0x4c3e	;  0x4c3e
    224a:	3f ef       	ldi	r19, 0xFF	; 255
    224c:	63 1a       	sub	r6, r19
    224e:	73 0a       	sbc	r7, r19
    2250:	80 e1       	ldi	r24, 0x10	; 16
    2252:	e8 0e       	add	r14, r24
    2254:	f1 1c       	adc	r15, r1
    2256:	29 a5       	ldd	r18, Y+41	; 0x29
    2258:	62 14       	cp	r6, r2
    225a:	73 04       	cpc	r7, r3
    225c:	24 f2       	brlt	.-120    	;  0x21e6
    225e:	82 2f       	mov	r24, r18
    2260:	01 c0       	rjmp	.+2      	;  0x2264
    2262:	80 e0       	ldi	r24, 0x00	; 0
    2264:	a9 96       	adiw	r28, 0x29	; 41
    2266:	0f b6       	in	r0, 0x3f	; 63
    2268:	f8 94       	cli
    226a:	de bf       	out	0x3e, r29	; 62
    226c:	0f be       	out	0x3f, r0	; 63
    226e:	cd bf       	out	0x3d, r28	; 61
    2270:	df 91       	pop	r29
    2272:	cf 91       	pop	r28
    2274:	1f 91       	pop	r17
    2276:	0f 91       	pop	r16
    2278:	ff 90       	pop	r15
    227a:	ef 90       	pop	r14
    227c:	df 90       	pop	r13
    227e:	cf 90       	pop	r12
    2280:	bf 90       	pop	r11
    2282:	af 90       	pop	r10
    2284:	9f 90       	pop	r9
    2286:	8f 90       	pop	r8
    2288:	7f 90       	pop	r7
    228a:	6f 90       	pop	r6
    228c:	5f 90       	pop	r5
    228e:	4f 90       	pop	r4
    2290:	3f 90       	pop	r3
    2292:	2f 90       	pop	r2
    2294:	08 95       	ret
    2296:	ff 92       	push	r15
    2298:	0f 93       	push	r16
    229a:	1f 93       	push	r17
    229c:	cf 93       	push	r28
    229e:	df 93       	push	r29
    22a0:	ec 01       	movw	r28, r24
    22a2:	b8 e0       	ldi	r27, 0x08	; 8
    22a4:	fb 2e       	mov	r15, r27
    22a6:	fc 82       	std	Y+4, r15	; 0x04
    22a8:	7d 83       	std	Y+5, r23	; 0x05
    22aa:	6e 83       	std	Y+6, r22	; 0x06
    22ac:	4f 83       	std	Y+7, r20	; 0x07
    22ae:	64 e0       	ldi	r22, 0x04	; 4
    22b0:	0e 94 3e 0c 	call	0x187c	;  0x187c
    22b4:	8e 01       	movw	r16, r28
    22b6:	0b 5a       	subi	r16, 0xAB	; 171
    22b8:	1f 4f       	sbci	r17, 0xFF	; 255
    22ba:	81 e0       	ldi	r24, 0x01	; 1
    22bc:	f8 01       	movw	r30, r16
    22be:	80 83       	st	Z, r24
    22c0:	fe 01       	movw	r30, r28
    22c2:	ec 5a       	subi	r30, 0xAC	; 172
    22c4:	ff 4f       	sbci	r31, 0xFF	; 255
    22c6:	f0 82       	st	Z, r15
    22c8:	48 ee       	ldi	r20, 0xE8	; 232
    22ca:	53 e0       	ldi	r21, 0x03	; 3
    22cc:	60 e0       	ldi	r22, 0x00	; 0
    22ce:	70 e0       	ldi	r23, 0x00	; 0
    22d0:	ce 01       	movw	r24, r28
    22d2:	0e 94 3f 0d 	call	0x1a7e	;  0x1a7e
    22d6:	81 11       	cpse	r24, r1
    22d8:	05 c0       	rjmp	.+10     	;  0x22e4
    22da:	84 e0       	ldi	r24, 0x04	; 4
    22dc:	f8 01       	movw	r30, r16
    22de:	80 83       	st	Z, r24
    22e0:	80 e0       	ldi	r24, 0x00	; 0
    22e2:	04 c0       	rjmp	.+8      	;  0x22ec
    22e4:	83 e0       	ldi	r24, 0x03	; 3
    22e6:	f8 01       	movw	r30, r16
    22e8:	80 83       	st	Z, r24
    22ea:	81 e0       	ldi	r24, 0x01	; 1
    22ec:	df 91       	pop	r29
    22ee:	cf 91       	pop	r28
    22f0:	1f 91       	pop	r17
    22f2:	0f 91       	pop	r16
    22f4:	ff 90       	pop	r15
    22f6:	08 95       	ret
    22f8:	38 2f       	mov	r19, r24
    22fa:	20 e0       	ldi	r18, 0x00	; 0
    22fc:	44 e0       	ldi	r20, 0x04	; 4
    22fe:	50 e0       	ldi	r21, 0x00	; 0
    2300:	c9 01       	movw	r24, r18
    2302:	84 5f       	subi	r24, 0xF4	; 244
    2304:	9b 4f       	sbci	r25, 0xFB	; 251
    2306:	0c 94 ef 13 	jmp	0x27de	;  0x27de
    230a:	28 2f       	mov	r18, r24
    230c:	30 e0       	ldi	r19, 0x00	; 0
    230e:	2c 5f       	subi	r18, 0xFC	; 252
    2310:	3f 4f       	sbci	r19, 0xFF	; 255
    2312:	92 2f       	mov	r25, r18
    2314:	88 27       	eor	r24, r24
    2316:	86 0f       	add	r24, r22
    2318:	97 1f       	adc	r25, r23
    231a:	0c 94 1e 14 	jmp	0x283c	;  0x283c
    231e:	62 e0       	ldi	r22, 0x02	; 2
    2320:	70 e0       	ldi	r23, 0x00	; 0
    2322:	0c 94 85 11 	jmp	0x230a	;  0x230a
    2326:	fb 01       	movw	r30, r22
    2328:	28 2f       	mov	r18, r24
    232a:	30 e0       	ldi	r19, 0x00	; 0
    232c:	2c 5f       	subi	r18, 0xFC	; 252
    232e:	3f 4f       	sbci	r19, 0xFF	; 255
    2330:	92 2f       	mov	r25, r18
    2332:	88 27       	eor	r24, r24
    2334:	64 2f       	mov	r22, r20
    2336:	8e 0f       	add	r24, r30
    2338:	9f 1f       	adc	r25, r31
    233a:	0c 94 8f 13 	jmp	0x271e	;  0x271e
    233e:	46 2f       	mov	r20, r22
    2340:	62 e0       	ldi	r22, 0x02	; 2
    2342:	70 e0       	ldi	r23, 0x00	; 0
    2344:	0c 94 93 11 	jmp	0x2326	;  0x2326
    2348:	cf 93       	push	r28
    234a:	df 93       	push	r29
    234c:	c8 2f       	mov	r28, r24
    234e:	d6 2f       	mov	r29, r22
    2350:	47 2f       	mov	r20, r23
    2352:	60 e1       	ldi	r22, 0x10	; 16
    2354:	70 e0       	ldi	r23, 0x00	; 0
    2356:	0e 94 93 11 	call	0x2326	;  0x2326
    235a:	4d 2f       	mov	r20, r29
    235c:	61 e1       	ldi	r22, 0x11	; 17
    235e:	70 e0       	ldi	r23, 0x00	; 0
    2360:	8c 2f       	mov	r24, r28
    2362:	df 91       	pop	r29
    2364:	cf 91       	pop	r28
    2366:	0c 94 93 11 	jmp	0x2326	;  0x2326
    236a:	cf 93       	push	r28
    236c:	df 93       	push	r29
    236e:	c8 2f       	mov	r28, r24
    2370:	d6 2f       	mov	r29, r22
    2372:	47 2f       	mov	r20, r23
    2374:	64 e0       	ldi	r22, 0x04	; 4
    2376:	70 e0       	ldi	r23, 0x00	; 0
    2378:	0e 94 93 11 	call	0x2326	;  0x2326
    237c:	4d 2f       	mov	r20, r29
    237e:	65 e0       	ldi	r22, 0x05	; 5
    2380:	70 e0       	ldi	r23, 0x00	; 0
    2382:	8c 2f       	mov	r24, r28
    2384:	df 91       	pop	r29
    2386:	cf 91       	pop	r28
    2388:	0c 94 93 11 	jmp	0x2326	;  0x2326
    238c:	cf 93       	push	r28
    238e:	c8 2f       	mov	r28, r24
    2390:	40 e1       	ldi	r20, 0x10	; 16
    2392:	50 e0       	ldi	r21, 0x00	; 0
    2394:	68 2f       	mov	r22, r24
    2396:	8d ef       	ldi	r24, 0xFD	; 253
    2398:	95 e0       	ldi	r25, 0x05	; 5
    239a:	0e 94 cf 15 	call	0x2b9e	;  0x2b9e
    239e:	6f ef       	ldi	r22, 0xFF	; 255
    23a0:	8c 2f       	mov	r24, r28
    23a2:	cf 91       	pop	r28
    23a4:	0c 94 9f 11 	jmp	0x233e	;  0x233e
    23a8:	ef 92       	push	r14
    23aa:	ff 92       	push	r15
    23ac:	1f 93       	push	r17
    23ae:	cf 93       	push	r28
    23b0:	df 93       	push	r29
    23b2:	00 d0       	rcall	.+0      	;  0x23b4
    23b4:	cd b7       	in	r28, 0x3d	; 61
    23b6:	de b7       	in	r29, 0x3e	; 62
    23b8:	18 2f       	mov	r17, r24
    23ba:	7a 01       	movw	r14, r20
    23bc:	86 2f       	mov	r24, r22
    23be:	81 50       	subi	r24, 0x01	; 1
    23c0:	85 30       	cpi	r24, 0x05	; 5
    23c2:	48 f5       	brcc	.+82     	;  0x2416
    23c4:	81 2f       	mov	r24, r17
    23c6:	2a 83       	std	Y+2, r18	; 0x02
    23c8:	69 83       	std	Y+1, r22	; 0x01
    23ca:	0e 94 c6 11 	call	0x238c	;  0x238c
    23ce:	2a 81       	ldd	r18, Y+2	; 0x02
    23d0:	69 81       	ldd	r22, Y+1	; 0x01
    23d2:	42 2f       	mov	r20, r18
    23d4:	46 2b       	or	r20, r22
    23d6:	60 e0       	ldi	r22, 0x00	; 0
    23d8:	70 e0       	ldi	r23, 0x00	; 0
    23da:	81 2f       	mov	r24, r17
    23dc:	0e 94 93 11 	call	0x2326	;  0x2326
    23e0:	e1 14       	cp	r14, r1
    23e2:	f1 04       	cpc	r15, r1
    23e4:	11 f0       	breq	.+4      	;  0x23ea
    23e6:	b7 01       	movw	r22, r14
    23e8:	0a c0       	rjmp	.+20     	;  0x23fe
    23ea:	60 91 fb 05 	lds	r22, 0x05FB
    23ee:	70 91 fc 05 	lds	r23, 0x05FC
    23f2:	6f 5f       	subi	r22, 0xFF	; 255
    23f4:	7f 4f       	sbci	r23, 0xFF	; 255
    23f6:	70 93 fc 05 	sts	0x05FC, r23
    23fa:	60 93 fb 05 	sts	0x05FB, r22
    23fe:	81 2f       	mov	r24, r17
    2400:	0e 94 b5 11 	call	0x236a	;  0x236a
    2404:	41 e0       	ldi	r20, 0x01	; 1
    2406:	50 e0       	ldi	r21, 0x00	; 0
    2408:	61 2f       	mov	r22, r17
    240a:	8d ef       	ldi	r24, 0xFD	; 253
    240c:	95 e0       	ldi	r25, 0x05	; 5
    240e:	0e 94 cf 15 	call	0x2b9e	;  0x2b9e
    2412:	81 e0       	ldi	r24, 0x01	; 1
    2414:	01 c0       	rjmp	.+2      	;  0x2418
    2416:	80 e0       	ldi	r24, 0x00	; 0
    2418:	0f 90       	pop	r0
    241a:	0f 90       	pop	r0
    241c:	df 91       	pop	r29
    241e:	cf 91       	pop	r28
    2420:	1f 91       	pop	r17
    2422:	ff 90       	pop	r15
    2424:	ef 90       	pop	r14
    2426:	08 95       	ret
    2428:	cf 93       	push	r28
    242a:	c8 2f       	mov	r28, r24
    242c:	63 e0       	ldi	r22, 0x03	; 3
    242e:	70 e0       	ldi	r23, 0x00	; 0
    2430:	0e 94 85 11 	call	0x230a	;  0x230a
    2434:	83 31       	cpi	r24, 0x13	; 19
    2436:	49 f4       	brne	.+18     	;  0x244a
    2438:	42 e0       	ldi	r20, 0x02	; 2
    243a:	50 e0       	ldi	r21, 0x00	; 0
    243c:	6c 2f       	mov	r22, r28
    243e:	8d ef       	ldi	r24, 0xFD	; 253
    2440:	95 e0       	ldi	r25, 0x05	; 5
    2442:	0e 94 cf 15 	call	0x2b9e	;  0x2b9e
    2446:	81 e0       	ldi	r24, 0x01	; 1
    2448:	01 c0       	rjmp	.+2      	;  0x244c
    244a:	80 e0       	ldi	r24, 0x00	; 0
    244c:	cf 91       	pop	r28
    244e:	08 95       	ret
    2450:	1f 93       	push	r17
    2452:	cf 93       	push	r28
    2454:	df 93       	push	r29
    2456:	18 2f       	mov	r17, r24
    2458:	fb 01       	movw	r30, r22
    245a:	ea 01       	movw	r28, r20
    245c:	80 81       	ld	r24, Z
    245e:	8f 3f       	cpi	r24, 0xFF	; 255
    2460:	51 f4       	brne	.+20     	;  0x2476
    2462:	81 81       	ldd	r24, Z+1	; 0x01
    2464:	8f 3f       	cpi	r24, 0xFF	; 255
    2466:	91 f4       	brne	.+36     	;  0x248c
    2468:	82 81       	ldd	r24, Z+2	; 0x02
    246a:	8f 3f       	cpi	r24, 0xFF	; 255
    246c:	79 f4       	brne	.+30     	;  0x248c
    246e:	83 81       	ldd	r24, Z+3	; 0x03
    2470:	8f 3f       	cpi	r24, 0xFF	; 255
    2472:	61 f4       	brne	.+24     	;  0x248c
    2474:	1e c0       	rjmp	.+60     	;  0x24b2
    2476:	81 11       	cpse	r24, r1
    2478:	09 c0       	rjmp	.+18     	;  0x248c
    247a:	81 81       	ldd	r24, Z+1	; 0x01
    247c:	81 11       	cpse	r24, r1
    247e:	06 c0       	rjmp	.+12     	;  0x248c
    2480:	82 81       	ldd	r24, Z+2	; 0x02
    2482:	81 11       	cpse	r24, r1
    2484:	03 c0       	rjmp	.+6      	;  0x248c
    2486:	83 81       	ldd	r24, Z+3	; 0x03
    2488:	88 23       	and	r24, r24
    248a:	99 f0       	breq	.+38     	;  0x24b2
    248c:	20 97       	sbiw	r28, 0x00	; 0
    248e:	89 f0       	breq	.+34     	;  0x24b2
    2490:	bf 01       	movw	r22, r30
    2492:	81 2f       	mov	r24, r17
    2494:	0e 94 7c 11 	call	0x22f8	;  0x22f8
    2498:	be 01       	movw	r22, r28
    249a:	81 2f       	mov	r24, r17
    249c:	0e 94 a4 11 	call	0x2348	;  0x2348
    24a0:	44 e0       	ldi	r20, 0x04	; 4
    24a2:	50 e0       	ldi	r21, 0x00	; 0
    24a4:	61 2f       	mov	r22, r17
    24a6:	8d ef       	ldi	r24, 0xFD	; 253
    24a8:	95 e0       	ldi	r25, 0x05	; 5
    24aa:	0e 94 cf 15 	call	0x2b9e	;  0x2b9e
    24ae:	81 e0       	ldi	r24, 0x01	; 1
    24b0:	01 c0       	rjmp	.+2      	;  0x24b4
    24b2:	80 e0       	ldi	r24, 0x00	; 0
    24b4:	df 91       	pop	r29
    24b6:	cf 91       	pop	r28
    24b8:	1f 91       	pop	r17
    24ba:	08 95       	ret
    24bc:	48 e0       	ldi	r20, 0x08	; 8
    24be:	50 e0       	ldi	r21, 0x00	; 0
    24c0:	68 2f       	mov	r22, r24
    24c2:	8d ef       	ldi	r24, 0xFD	; 253
    24c4:	95 e0       	ldi	r25, 0x05	; 5
    24c6:	0c 94 cf 15 	jmp	0x2b9e	;  0x2b9e
    24ca:	df 92       	push	r13
    24cc:	ef 92       	push	r14
    24ce:	ff 92       	push	r15
    24d0:	0f 93       	push	r16
    24d2:	1f 93       	push	r17
    24d4:	cf 93       	push	r28
    24d6:	df 93       	push	r29
    24d8:	d8 2e       	mov	r13, r24
    24da:	8b 01       	movw	r16, r22
    24dc:	ea 01       	movw	r28, r20
    24de:	41 30       	cpi	r20, 0x01	; 1
    24e0:	88 e0       	ldi	r24, 0x08	; 8
    24e2:	58 07       	cpc	r21, r24
    24e4:	10 f0       	brcs	.+4      	;  0x24ea
    24e6:	c0 e0       	ldi	r28, 0x00	; 0
    24e8:	d8 e0       	ldi	r29, 0x08	; 8
    24ea:	6d 2d       	mov	r22, r13
    24ec:	8d ef       	ldi	r24, 0xFD	; 253
    24ee:	95 e0       	ldi	r25, 0x05	; 5
    24f0:	0e 94 fb 14 	call	0x29f6	;  0x29f6
    24f4:	7c 01       	movw	r14, r24
    24f6:	63 e0       	ldi	r22, 0x03	; 3
    24f8:	70 e0       	ldi	r23, 0x00	; 0
    24fa:	8d 2d       	mov	r24, r13
    24fc:	0e 94 85 11 	call	0x230a	;  0x230a
    2500:	87 31       	cpi	r24, 0x17	; 23
    2502:	11 f0       	breq	.+4      	;  0x2508
    2504:	8c 31       	cpi	r24, 0x1C	; 28
    2506:	21 f4       	brne	.+8      	;  0x2510
    2508:	ec 16       	cp	r14, r28
    250a:	fd 06       	cpc	r15, r29
    250c:	70 f3       	brcs	.-36     	;  0x24ea
    250e:	02 c0       	rjmp	.+4      	;  0x2514
    2510:	c0 e0       	ldi	r28, 0x00	; 0
    2512:	d0 e0       	ldi	r29, 0x00	; 0
    2514:	9e 01       	movw	r18, r28
    2516:	a8 01       	movw	r20, r16
    2518:	6d 2d       	mov	r22, r13
    251a:	8d ef       	ldi	r24, 0xFD	; 253
    251c:	95 e0       	ldi	r25, 0x05	; 5
    251e:	0e 94 ac 14 	call	0x2958	;  0x2958
    2522:	40 e2       	ldi	r20, 0x20	; 32
    2524:	50 e0       	ldi	r21, 0x00	; 0
    2526:	6d 2d       	mov	r22, r13
    2528:	8d ef       	ldi	r24, 0xFD	; 253
    252a:	95 e0       	ldi	r25, 0x05	; 5
    252c:	0e 94 cf 15 	call	0x2b9e	;  0x2b9e
    2530:	0d c0       	rjmp	.+26     	;  0x254c
    2532:	63 e0       	ldi	r22, 0x03	; 3
    2534:	70 e0       	ldi	r23, 0x00	; 0
    2536:	8d 2d       	mov	r24, r13
    2538:	0e 94 85 11 	call	0x230a	;  0x230a
    253c:	81 11       	cpse	r24, r1
    253e:	06 c0       	rjmp	.+12     	;  0x254c
    2540:	8d 2d       	mov	r24, r13
    2542:	0e 94 c6 11 	call	0x238c	;  0x238c
    2546:	c0 e0       	ldi	r28, 0x00	; 0
    2548:	d0 e0       	ldi	r29, 0x00	; 0
    254a:	09 c0       	rjmp	.+18     	;  0x255e
    254c:	8d 2d       	mov	r24, r13
    254e:	0e 94 8f 11 	call	0x231e	;  0x231e
    2552:	84 ff       	sbrs	r24, 4
    2554:	ee cf       	rjmp	.-36     	;  0x2532
    2556:	60 e1       	ldi	r22, 0x10	; 16
    2558:	8d 2d       	mov	r24, r13
    255a:	0e 94 9f 11 	call	0x233e	;  0x233e
    255e:	ce 01       	movw	r24, r28
    2560:	df 91       	pop	r29
    2562:	cf 91       	pop	r28
    2564:	1f 91       	pop	r17
    2566:	0f 91       	pop	r16
    2568:	ff 90       	pop	r15
    256a:	ef 90       	pop	r14
    256c:	df 90       	pop	r13
    256e:	08 95       	ret
    2570:	df 92       	push	r13
    2572:	ef 92       	push	r14
    2574:	ff 92       	push	r15
    2576:	0f 93       	push	r16
    2578:	1f 93       	push	r17
    257a:	cf 93       	push	r28
    257c:	df 93       	push	r29
    257e:	d8 2e       	mov	r13, r24
    2580:	7b 01       	movw	r14, r22
    2582:	8a 01       	movw	r16, r20
    2584:	68 2f       	mov	r22, r24
    2586:	8d ef       	ldi	r24, 0xFD	; 253
    2588:	95 e0       	ldi	r25, 0x05	; 5
    258a:	0e 94 cb 14 	call	0x2996	;  0x2996
    258e:	ec 01       	movw	r28, r24
    2590:	00 97       	sbiw	r24, 0x00	; 0
    2592:	71 f4       	brne	.+28     	;  0x25b0
    2594:	63 e0       	ldi	r22, 0x03	; 3
    2596:	70 e0       	ldi	r23, 0x00	; 0
    2598:	8d 2d       	mov	r24, r13
    259a:	0e 94 85 11 	call	0x230a	;  0x230a
    259e:	84 31       	cpi	r24, 0x14	; 20
    25a0:	e9 f0       	breq	.+58     	;  0x25dc
    25a2:	88 23       	and	r24, r24
    25a4:	d9 f0       	breq	.+54     	;  0x25dc
    25a6:	8c 31       	cpi	r24, 0x1C	; 28
    25a8:	c9 f0       	breq	.+50     	;  0x25dc
    25aa:	cf ef       	ldi	r28, 0xFF	; 255
    25ac:	df ef       	ldi	r29, 0xFF	; 255
    25ae:	16 c0       	rjmp	.+44     	;  0x25dc
    25b0:	08 17       	cp	r16, r24
    25b2:	19 07       	cpc	r17, r25
    25b4:	0c f4       	brge	.+2      	;  0x25b8
    25b6:	e8 01       	movw	r28, r16
    25b8:	1c 16       	cp	r1, r28
    25ba:	1d 06       	cpc	r1, r29
    25bc:	7c f4       	brge	.+30     	;  0x25dc
    25be:	00 e0       	ldi	r16, 0x00	; 0
    25c0:	9e 01       	movw	r18, r28
    25c2:	a7 01       	movw	r20, r14
    25c4:	6d 2d       	mov	r22, r13
    25c6:	8d ef       	ldi	r24, 0xFD	; 253
    25c8:	95 e0       	ldi	r25, 0x05	; 5
    25ca:	0e 94 7f 15 	call	0x2afe	;  0x2afe
    25ce:	40 e4       	ldi	r20, 0x40	; 64
    25d0:	50 e0       	ldi	r21, 0x00	; 0
    25d2:	6d 2d       	mov	r22, r13
    25d4:	8d ef       	ldi	r24, 0xFD	; 253
    25d6:	95 e0       	ldi	r25, 0x05	; 5
    25d8:	0e 94 cf 15 	call	0x2b9e	;  0x2b9e
    25dc:	ce 01       	movw	r24, r28
    25de:	df 91       	pop	r29
    25e0:	cf 91       	pop	r28
    25e2:	1f 91       	pop	r17
    25e4:	0f 91       	pop	r16
    25e6:	ff 90       	pop	r15
    25e8:	ef 90       	pop	r14
    25ea:	df 90       	pop	r13
    25ec:	08 95       	ret
    25ee:	0f 93       	push	r16
    25f0:	ab 01       	movw	r20, r22
    25f2:	01 e0       	ldi	r16, 0x01	; 1
    25f4:	21 e0       	ldi	r18, 0x01	; 1
    25f6:	30 e0       	ldi	r19, 0x00	; 0
    25f8:	68 2f       	mov	r22, r24
    25fa:	8d ef       	ldi	r24, 0xFD	; 253
    25fc:	95 e0       	ldi	r25, 0x05	; 5
    25fe:	0e 94 7f 15 	call	0x2afe	;  0x2afe
    2602:	81 e0       	ldi	r24, 0x01	; 1
    2604:	90 e0       	ldi	r25, 0x00	; 0
    2606:	0f 91       	pop	r16
    2608:	08 95       	ret
    260a:	af 92       	push	r10
    260c:	bf 92       	push	r11
    260e:	cf 92       	push	r12
    2610:	df 92       	push	r13
    2612:	ef 92       	push	r14
    2614:	ff 92       	push	r15
    2616:	0f 93       	push	r16
    2618:	1f 93       	push	r17
    261a:	cf 93       	push	r28
    261c:	df 93       	push	r29
    261e:	b8 2e       	mov	r11, r24
    2620:	7b 01       	movw	r14, r22
    2622:	6a 01       	movw	r12, r20
    2624:	e9 01       	movw	r28, r18
    2626:	68 2f       	mov	r22, r24
    2628:	8d ef       	ldi	r24, 0xFD	; 253
    262a:	95 e0       	ldi	r25, 0x05	; 5
    262c:	0e 94 fb 14 	call	0x29f6	;  0x29f6
    2630:	8c 17       	cp	r24, r28
    2632:	9d 07       	cpc	r25, r29
    2634:	40 f4       	brcc	.+16     	;  0x2646
    2636:	6b 2d       	mov	r22, r11
    2638:	8d ef       	ldi	r24, 0xFD	; 253
    263a:	95 e0       	ldi	r25, 0x05	; 5
    263c:	0e 94 fb 14 	call	0x29f6	;  0x29f6
    2640:	a8 2e       	mov	r10, r24
    2642:	c9 2f       	mov	r28, r25
    2644:	02 c0       	rjmp	.+4      	;  0x264a
    2646:	ac 2e       	mov	r10, r28
    2648:	cd 2f       	mov	r28, r29
    264a:	0a 2d       	mov	r16, r10
    264c:	1c 2f       	mov	r17, r28
    264e:	96 01       	movw	r18, r12
    2650:	a7 01       	movw	r20, r14
    2652:	6b 2d       	mov	r22, r11
    2654:	8d ef       	ldi	r24, 0xFD	; 253
    2656:	95 e0       	ldi	r25, 0x05	; 5
    2658:	0e 94 3e 14 	call	0x287c	;  0x287c
    265c:	8a 2d       	mov	r24, r10
    265e:	9c 2f       	mov	r25, r28
    2660:	df 91       	pop	r29
    2662:	cf 91       	pop	r28
    2664:	1f 91       	pop	r17
    2666:	0f 91       	pop	r16
    2668:	ff 90       	pop	r15
    266a:	ef 90       	pop	r14
    266c:	df 90       	pop	r13
    266e:	cf 90       	pop	r12
    2670:	bf 90       	pop	r11
    2672:	af 90       	pop	r10
    2674:	08 95       	ret
    2676:	1f 93       	push	r17
    2678:	cf 93       	push	r28
    267a:	df 93       	push	r29
    267c:	18 2f       	mov	r17, r24
    267e:	fb 01       	movw	r30, r22
    2680:	ea 01       	movw	r28, r20
    2682:	80 81       	ld	r24, Z
    2684:	81 11       	cpse	r24, r1
    2686:	09 c0       	rjmp	.+18     	;  0x269a
    2688:	81 81       	ldd	r24, Z+1	; 0x01
    268a:	81 11       	cpse	r24, r1
    268c:	06 c0       	rjmp	.+12     	;  0x269a
    268e:	82 81       	ldd	r24, Z+2	; 0x02
    2690:	81 11       	cpse	r24, r1
    2692:	03 c0       	rjmp	.+6      	;  0x269a
    2694:	83 81       	ldd	r24, Z+3	; 0x03
    2696:	88 23       	and	r24, r24
    2698:	69 f0       	breq	.+26     	;  0x26b4
    269a:	20 97       	sbiw	r28, 0x00	; 0
    269c:	59 f0       	breq	.+22     	;  0x26b4
    269e:	bf 01       	movw	r22, r30
    26a0:	81 2f       	mov	r24, r17
    26a2:	0e 94 7c 11 	call	0x22f8	;  0x22f8
    26a6:	be 01       	movw	r22, r28
    26a8:	81 2f       	mov	r24, r17
    26aa:	0e 94 a4 11 	call	0x2348	;  0x2348
    26ae:	21 e0       	ldi	r18, 0x01	; 1
    26b0:	30 e0       	ldi	r19, 0x00	; 0
    26b2:	02 c0       	rjmp	.+4      	;  0x26b8
    26b4:	20 e0       	ldi	r18, 0x00	; 0
    26b6:	30 e0       	ldi	r19, 0x00	; 0
    26b8:	c9 01       	movw	r24, r18
    26ba:	df 91       	pop	r29
    26bc:	cf 91       	pop	r28
    26be:	1f 91       	pop	r17
    26c0:	08 95       	ret
    26c2:	cf 93       	push	r28
    26c4:	c8 2f       	mov	r28, r24
    26c6:	40 e2       	ldi	r20, 0x20	; 32
    26c8:	50 e0       	ldi	r21, 0x00	; 0
    26ca:	68 2f       	mov	r22, r24
    26cc:	8d ef       	ldi	r24, 0xFD	; 253
    26ce:	95 e0       	ldi	r25, 0x05	; 5
    26d0:	0e 94 cf 15 	call	0x2b9e	;  0x2b9e
    26d4:	0c c0       	rjmp	.+24     	;  0x26ee
    26d6:	8c 2f       	mov	r24, r28
    26d8:	0e 94 8f 11 	call	0x231e	;  0x231e
    26dc:	83 ff       	sbrs	r24, 3
    26de:	07 c0       	rjmp	.+14     	;  0x26ee
    26e0:	68 e1       	ldi	r22, 0x18	; 24
    26e2:	8c 2f       	mov	r24, r28
    26e4:	0e 94 9f 11 	call	0x233e	;  0x233e
    26e8:	20 e0       	ldi	r18, 0x00	; 0
    26ea:	30 e0       	ldi	r19, 0x00	; 0
    26ec:	0b c0       	rjmp	.+22     	;  0x2704
    26ee:	8c 2f       	mov	r24, r28
    26f0:	0e 94 8f 11 	call	0x231e	;  0x231e
    26f4:	84 ff       	sbrs	r24, 4
    26f6:	ef cf       	rjmp	.-34     	;  0x26d6
    26f8:	60 e1       	ldi	r22, 0x10	; 16
    26fa:	8c 2f       	mov	r24, r28
    26fc:	0e 94 9f 11 	call	0x233e	;  0x233e
    2700:	21 e0       	ldi	r18, 0x01	; 1
    2702:	30 e0       	ldi	r19, 0x00	; 0
    2704:	c9 01       	movw	r24, r18
    2706:	cf 91       	pop	r28
    2708:	08 95       	ret
    270a:	8e bd       	out	0x2e, r24	; 46
    270c:	0d b4       	in	r0, 0x2d	; 45
    270e:	07 fe       	sbrs	r0, 7
    2710:	fd cf       	rjmp	.-6      	;  0x270c
    2712:	8e b5       	in	r24, 0x2e	; 46
    2714:	08 95       	ret
    2716:	2a 98       	cbi	0x05, 2	; 5
    2718:	08 95       	ret
    271a:	2a 9a       	sbi	0x05, 2	; 5
    271c:	08 95       	ret
    271e:	1f 93       	push	r17
    2720:	cf 93       	push	r28
    2722:	df 93       	push	r29
    2724:	00 d0       	rcall	.+0      	;  0x2726
    2726:	cd b7       	in	r28, 0x3d	; 61
    2728:	de b7       	in	r29, 0x3e	; 62
    272a:	18 2f       	mov	r17, r24
    272c:	6a 83       	std	Y+2, r22	; 0x02
    272e:	99 83       	std	Y+1, r25	; 0x01
    2730:	0e 94 8b 13 	call	0x2716	;  0x2716
    2734:	80 ef       	ldi	r24, 0xF0	; 240
    2736:	0e 94 85 13 	call	0x270a	;  0x270a
    273a:	99 81       	ldd	r25, Y+1	; 0x01
    273c:	89 2f       	mov	r24, r25
    273e:	0e 94 85 13 	call	0x270a	;  0x270a
    2742:	81 2f       	mov	r24, r17
    2744:	0e 94 85 13 	call	0x270a	;  0x270a
    2748:	6a 81       	ldd	r22, Y+2	; 0x02
    274a:	86 2f       	mov	r24, r22
    274c:	0e 94 85 13 	call	0x270a	;  0x270a
    2750:	0e 94 8d 13 	call	0x271a	;  0x271a
    2754:	81 e0       	ldi	r24, 0x01	; 1
    2756:	0f 90       	pop	r0
    2758:	0f 90       	pop	r0
    275a:	df 91       	pop	r29
    275c:	cf 91       	pop	r28
    275e:	1f 91       	pop	r17
    2760:	08 95       	ret
    2762:	cf 93       	push	r28
    2764:	df 93       	push	r29
    2766:	ec 01       	movw	r28, r24
    2768:	6c e2       	ldi	r22, 0x2C	; 44
    276a:	71 e0       	ldi	r23, 0x01	; 1
    276c:	80 e0       	ldi	r24, 0x00	; 0
    276e:	90 e0       	ldi	r25, 0x00	; 0
    2770:	0e 94 8b 24 	call	0x4916	;  0x4916
    2774:	0e 94 8a 0a 	call	0x1514	;  0x1514
    2778:	22 9a       	sbi	0x04, 2	; 4
    277a:	60 e8       	ldi	r22, 0x80	; 128
    277c:	80 e0       	ldi	r24, 0x00	; 0
    277e:	90 e0       	ldi	r25, 0x00	; 0
    2780:	0e 94 8f 13 	call	0x271e	;  0x271e
    2784:	65 e5       	ldi	r22, 0x55	; 85
    2786:	8b e1       	ldi	r24, 0x1B	; 27
    2788:	90 e0       	ldi	r25, 0x00	; 0
    278a:	0e 94 8f 13 	call	0x271e	;  0x271e
    278e:	65 e5       	ldi	r22, 0x55	; 85
    2790:	8a e1       	ldi	r24, 0x1A	; 26
    2792:	90 e0       	ldi	r25, 0x00	; 0
    2794:	0e 94 8f 13 	call	0x271e	;  0x271e
    2798:	80 e0       	ldi	r24, 0x00	; 0
    279a:	90 e4       	ldi	r25, 0x40	; 64
    279c:	99 83       	std	Y+1, r25	; 0x01
    279e:	88 83       	st	Y, r24
    27a0:	80 e0       	ldi	r24, 0x00	; 0
    27a2:	90 e6       	ldi	r25, 0x60	; 96
    27a4:	99 87       	std	Y+9, r25	; 0x09
    27a6:	88 87       	std	Y+8, r24	; 0x08
    27a8:	80 e0       	ldi	r24, 0x00	; 0
    27aa:	98 e4       	ldi	r25, 0x48	; 72
    27ac:	9b 83       	std	Y+3, r25	; 0x03
    27ae:	8a 83       	std	Y+2, r24	; 0x02
    27b0:	80 e0       	ldi	r24, 0x00	; 0
    27b2:	98 e6       	ldi	r25, 0x68	; 104
    27b4:	9b 87       	std	Y+11, r25	; 0x0b
    27b6:	8a 87       	std	Y+10, r24	; 0x0a
    27b8:	80 e0       	ldi	r24, 0x00	; 0
    27ba:	90 e5       	ldi	r25, 0x50	; 80
    27bc:	9d 83       	std	Y+5, r25	; 0x05
    27be:	8c 83       	std	Y+4, r24	; 0x04
    27c0:	80 e0       	ldi	r24, 0x00	; 0
    27c2:	90 e7       	ldi	r25, 0x70	; 112
    27c4:	9d 87       	std	Y+13, r25	; 0x0d
    27c6:	8c 87       	std	Y+12, r24	; 0x0c
    27c8:	80 e0       	ldi	r24, 0x00	; 0
    27ca:	98 e5       	ldi	r25, 0x58	; 88
    27cc:	9f 83       	std	Y+7, r25	; 0x07
    27ce:	8e 83       	std	Y+6, r24	; 0x06
    27d0:	80 e0       	ldi	r24, 0x00	; 0
    27d2:	98 e7       	ldi	r25, 0x78	; 120
    27d4:	9f 87       	std	Y+15, r25	; 0x0f
    27d6:	8e 87       	std	Y+14, r24	; 0x0e
    27d8:	df 91       	pop	r29
    27da:	cf 91       	pop	r28
    27dc:	08 95       	ret
    27de:	cf 92       	push	r12
    27e0:	df 92       	push	r13
    27e2:	ef 92       	push	r14
    27e4:	ff 92       	push	r15
    27e6:	0f 93       	push	r16
    27e8:	1f 93       	push	r17
    27ea:	cf 93       	push	r28
    27ec:	df 93       	push	r29
    27ee:	ec 01       	movw	r28, r24
    27f0:	7a 01       	movw	r14, r20
    27f2:	8b 01       	movw	r16, r22
    27f4:	6a 01       	movw	r12, r20
    27f6:	c8 0e       	add	r12, r24
    27f8:	d9 1e       	adc	r13, r25
    27fa:	13 c0       	rjmp	.+38     	;  0x2822
    27fc:	0e 94 8b 13 	call	0x2716	;  0x2716
    2800:	80 ef       	ldi	r24, 0xF0	; 240
    2802:	0e 94 85 13 	call	0x270a	;  0x270a
    2806:	8d 2f       	mov	r24, r29
    2808:	0e 94 85 13 	call	0x270a	;  0x270a
    280c:	8c 2f       	mov	r24, r28
    280e:	0e 94 85 13 	call	0x270a	;  0x270a
    2812:	21 96       	adiw	r28, 0x01	; 1
    2814:	f8 01       	movw	r30, r16
    2816:	81 91       	ld	r24, Z+
    2818:	8f 01       	movw	r16, r30
    281a:	0e 94 85 13 	call	0x270a	;  0x270a
    281e:	0e 94 8d 13 	call	0x271a	;  0x271a
    2822:	cc 15       	cp	r28, r12
    2824:	dd 05       	cpc	r29, r13
    2826:	51 f7       	brne	.-44     	;  0x27fc
    2828:	c7 01       	movw	r24, r14
    282a:	df 91       	pop	r29
    282c:	cf 91       	pop	r28
    282e:	1f 91       	pop	r17
    2830:	0f 91       	pop	r16
    2832:	ff 90       	pop	r15
    2834:	ef 90       	pop	r14
    2836:	df 90       	pop	r13
    2838:	cf 90       	pop	r12
    283a:	08 95       	ret
    283c:	1f 93       	push	r17
    283e:	cf 93       	push	r28
    2840:	df 93       	push	r29
    2842:	1f 92       	push	r1
    2844:	cd b7       	in	r28, 0x3d	; 61
    2846:	de b7       	in	r29, 0x3e	; 62
    2848:	18 2f       	mov	r17, r24
    284a:	99 83       	std	Y+1, r25	; 0x01
    284c:	0e 94 8b 13 	call	0x2716	;  0x2716
    2850:	8f e0       	ldi	r24, 0x0F	; 15
    2852:	0e 94 85 13 	call	0x270a	;  0x270a
    2856:	99 81       	ldd	r25, Y+1	; 0x01
    2858:	89 2f       	mov	r24, r25
    285a:	0e 94 85 13 	call	0x270a	;  0x270a
    285e:	81 2f       	mov	r24, r17
    2860:	0e 94 85 13 	call	0x270a	;  0x270a
    2864:	80 e0       	ldi	r24, 0x00	; 0
    2866:	0e 94 85 13 	call	0x270a	;  0x270a
    286a:	89 83       	std	Y+1, r24	; 0x01
    286c:	0e 94 8d 13 	call	0x271a	;  0x271a
    2870:	89 81       	ldd	r24, Y+1	; 0x01
    2872:	0f 90       	pop	r0
    2874:	df 91       	pop	r29
    2876:	cf 91       	pop	r28
    2878:	1f 91       	pop	r17
    287a:	08 95       	ret
    287c:	6f 92       	push	r6
    287e:	7f 92       	push	r7
    2880:	9f 92       	push	r9
    2882:	af 92       	push	r10
    2884:	bf 92       	push	r11
    2886:	cf 92       	push	r12
    2888:	df 92       	push	r13
    288a:	ef 92       	push	r14
    288c:	ff 92       	push	r15
    288e:	0f 93       	push	r16
    2890:	1f 93       	push	r17
    2892:	cf 93       	push	r28
    2894:	df 93       	push	r29
    2896:	1f 92       	push	r1
    2898:	cd b7       	in	r28, 0x3d	; 61
    289a:	de b7       	in	r29, 0x3e	; 62
    289c:	f8 2e       	mov	r15, r24
    289e:	96 2e       	mov	r9, r22
    28a0:	3a 01       	movw	r6, r20
    28a2:	59 01       	movw	r10, r18
    28a4:	64 e2       	ldi	r22, 0x24	; 36
    28a6:	70 e0       	ldi	r23, 0x00	; 0
    28a8:	89 2d       	mov	r24, r9
    28aa:	99 83       	std	Y+1, r25	; 0x01
    28ac:	0e 94 85 11 	call	0x230a	;  0x230a
    28b0:	e8 2e       	mov	r14, r24
    28b2:	65 e2       	ldi	r22, 0x25	; 37
    28b4:	70 e0       	ldi	r23, 0x00	; 0
    28b6:	89 2d       	mov	r24, r9
    28b8:	0e 94 85 11 	call	0x230a	;  0x230a
    28bc:	de 2c       	mov	r13, r14
    28be:	c1 2c       	mov	r12, r1
    28c0:	c8 2a       	or	r12, r24
    28c2:	c6 0c       	add	r12, r6
    28c4:	d7 1c       	adc	r13, r7
    28c6:	96 01       	movw	r18, r12
    28c8:	37 70       	andi	r19, 0x07	; 7
    28ca:	6f 2c       	mov	r6, r15
    28cc:	99 81       	ldd	r25, Y+1	; 0x01
    28ce:	79 2e       	mov	r7, r25
    28d0:	69 0c       	add	r6, r9
    28d2:	71 1c       	adc	r7, r1
    28d4:	69 0c       	add	r6, r9
    28d6:	71 1c       	adc	r7, r1
    28d8:	d3 01       	movw	r26, r6
    28da:	ed 91       	ld	r30, X+
    28dc:	fc 91       	ld	r31, X
    28de:	e2 0f       	add	r30, r18
    28e0:	f3 1f       	adc	r31, r19
    28e2:	c9 01       	movw	r24, r18
    28e4:	80 0f       	add	r24, r16
    28e6:	91 1f       	adc	r25, r17
    28e8:	81 30       	cpi	r24, 0x01	; 1
    28ea:	98 40       	sbci	r25, 0x08	; 8
    28ec:	a0 f0       	brcs	.+40     	;  0x2916
    28ee:	e1 2c       	mov	r14, r1
    28f0:	48 e0       	ldi	r20, 0x08	; 8
    28f2:	f4 2e       	mov	r15, r20
    28f4:	e2 1a       	sub	r14, r18
    28f6:	f3 0a       	sbc	r15, r19
    28f8:	a7 01       	movw	r20, r14
    28fa:	b5 01       	movw	r22, r10
    28fc:	cf 01       	movw	r24, r30
    28fe:	0e 94 ef 13 	call	0x27de	;  0x27de
    2902:	a8 01       	movw	r20, r16
    2904:	4e 19       	sub	r20, r14
    2906:	5f 09       	sbc	r21, r15
    2908:	b5 01       	movw	r22, r10
    290a:	6e 0d       	add	r22, r14
    290c:	7f 1d       	adc	r23, r15
    290e:	f3 01       	movw	r30, r6
    2910:	80 81       	ld	r24, Z
    2912:	91 81       	ldd	r25, Z+1	; 0x01
    2914:	03 c0       	rjmp	.+6      	;  0x291c
    2916:	a8 01       	movw	r20, r16
    2918:	b5 01       	movw	r22, r10
    291a:	cf 01       	movw	r24, r30
    291c:	0e 94 ef 13 	call	0x27de	;  0x27de
    2920:	0c 0d       	add	r16, r12
    2922:	1d 1d       	adc	r17, r13
    2924:	41 2f       	mov	r20, r17
    2926:	64 e2       	ldi	r22, 0x24	; 36
    2928:	70 e0       	ldi	r23, 0x00	; 0
    292a:	89 2d       	mov	r24, r9
    292c:	0e 94 93 11 	call	0x2326	;  0x2326
    2930:	40 2f       	mov	r20, r16
    2932:	65 e2       	ldi	r22, 0x25	; 37
    2934:	70 e0       	ldi	r23, 0x00	; 0
    2936:	89 2d       	mov	r24, r9
    2938:	0f 90       	pop	r0
    293a:	df 91       	pop	r29
    293c:	cf 91       	pop	r28
    293e:	1f 91       	pop	r17
    2940:	0f 91       	pop	r16
    2942:	ff 90       	pop	r15
    2944:	ef 90       	pop	r14
    2946:	df 90       	pop	r13
    2948:	cf 90       	pop	r12
    294a:	bf 90       	pop	r11
    294c:	af 90       	pop	r10
    294e:	9f 90       	pop	r9
    2950:	7f 90       	pop	r7
    2952:	6f 90       	pop	r6
    2954:	0c 94 93 11 	jmp	0x2326	;  0x2326
    2958:	0f 93       	push	r16
    295a:	1f 93       	push	r17
    295c:	89 01       	movw	r16, r18
    295e:	9a 01       	movw	r18, r20
    2960:	40 e0       	ldi	r20, 0x00	; 0
    2962:	50 e0       	ldi	r21, 0x00	; 0
    2964:	0e 94 3e 14 	call	0x287c	;  0x287c
    2968:	1f 91       	pop	r17
    296a:	0f 91       	pop	r16
    296c:	08 95       	ret
    296e:	cf 93       	push	r28
    2970:	df 93       	push	r29
    2972:	c8 2f       	mov	r28, r24
    2974:	66 e2       	ldi	r22, 0x26	; 38
    2976:	70 e0       	ldi	r23, 0x00	; 0
    2978:	0e 94 85 11 	call	0x230a	;  0x230a
    297c:	d8 2f       	mov	r29, r24
    297e:	67 e2       	ldi	r22, 0x27	; 39
    2980:	70 e0       	ldi	r23, 0x00	; 0
    2982:	8c 2f       	mov	r24, r28
    2984:	0e 94 85 11 	call	0x230a	;  0x230a
    2988:	3d 2f       	mov	r19, r29
    298a:	20 e0       	ldi	r18, 0x00	; 0
    298c:	28 2b       	or	r18, r24
    298e:	c9 01       	movw	r24, r18
    2990:	df 91       	pop	r29
    2992:	cf 91       	pop	r28
    2994:	08 95       	ret
    2996:	ff 92       	push	r15
    2998:	0f 93       	push	r16
    299a:	1f 93       	push	r17
    299c:	cf 93       	push	r28
    299e:	df 93       	push	r29
    29a0:	f6 2e       	mov	r15, r22
    29a2:	c0 e0       	ldi	r28, 0x00	; 0
    29a4:	d0 e0       	ldi	r29, 0x00	; 0
    29a6:	8f 2d       	mov	r24, r15
    29a8:	0e 94 b7 14 	call	0x296e	;  0x296e
    29ac:	8c 01       	movw	r16, r24
    29ae:	00 97       	sbiw	r24, 0x00	; 0
    29b0:	21 f0       	breq	.+8      	;  0x29ba
    29b2:	8f 2d       	mov	r24, r15
    29b4:	0e 94 b7 14 	call	0x296e	;  0x296e
    29b8:	ec 01       	movw	r28, r24
    29ba:	c0 17       	cp	r28, r16
    29bc:	d1 07       	cpc	r29, r17
    29be:	99 f7       	brne	.-26     	;  0x29a6
    29c0:	ce 01       	movw	r24, r28
    29c2:	df 91       	pop	r29
    29c4:	cf 91       	pop	r28
    29c6:	1f 91       	pop	r17
    29c8:	0f 91       	pop	r16
    29ca:	ff 90       	pop	r15
    29cc:	08 95       	ret
    29ce:	cf 93       	push	r28
    29d0:	df 93       	push	r29
    29d2:	c8 2f       	mov	r28, r24
    29d4:	60 e2       	ldi	r22, 0x20	; 32
    29d6:	70 e0       	ldi	r23, 0x00	; 0
    29d8:	0e 94 85 11 	call	0x230a	;  0x230a
    29dc:	d8 2f       	mov	r29, r24
    29de:	61 e2       	ldi	r22, 0x21	; 33
    29e0:	70 e0       	ldi	r23, 0x00	; 0
    29e2:	8c 2f       	mov	r24, r28
    29e4:	0e 94 85 11 	call	0x230a	;  0x230a
    29e8:	3d 2f       	mov	r19, r29
    29ea:	20 e0       	ldi	r18, 0x00	; 0
    29ec:	28 2b       	or	r18, r24
    29ee:	c9 01       	movw	r24, r18
    29f0:	df 91       	pop	r29
    29f2:	cf 91       	pop	r28
    29f4:	08 95       	ret
    29f6:	ff 92       	push	r15
    29f8:	0f 93       	push	r16
    29fa:	1f 93       	push	r17
    29fc:	cf 93       	push	r28
    29fe:	df 93       	push	r29
    2a00:	f6 2e       	mov	r15, r22
    2a02:	c0 e0       	ldi	r28, 0x00	; 0
    2a04:	d0 e0       	ldi	r29, 0x00	; 0
    2a06:	8f 2d       	mov	r24, r15
    2a08:	0e 94 e7 14 	call	0x29ce	;  0x29ce
    2a0c:	8c 01       	movw	r16, r24
    2a0e:	00 97       	sbiw	r24, 0x00	; 0
    2a10:	21 f0       	breq	.+8      	;  0x2a1a
    2a12:	8f 2d       	mov	r24, r15
    2a14:	0e 94 e7 14 	call	0x29ce	;  0x29ce
    2a18:	ec 01       	movw	r28, r24
    2a1a:	c0 17       	cp	r28, r16
    2a1c:	d1 07       	cpc	r29, r17
    2a1e:	99 f7       	brne	.-26     	;  0x2a06
    2a20:	ce 01       	movw	r24, r28
    2a22:	df 91       	pop	r29
    2a24:	cf 91       	pop	r28
    2a26:	1f 91       	pop	r17
    2a28:	0f 91       	pop	r16
    2a2a:	ff 90       	pop	r15
    2a2c:	08 95       	ret
    2a2e:	cf 92       	push	r12
    2a30:	df 92       	push	r13
    2a32:	ef 92       	push	r14
    2a34:	ff 92       	push	r15
    2a36:	0f 93       	push	r16
    2a38:	1f 93       	push	r17
    2a3a:	cf 93       	push	r28
    2a3c:	df 93       	push	r29
    2a3e:	ec 01       	movw	r28, r24
    2a40:	7a 01       	movw	r14, r20
    2a42:	8b 01       	movw	r16, r22
    2a44:	6a 01       	movw	r12, r20
    2a46:	c8 0e       	add	r12, r24
    2a48:	d9 1e       	adc	r13, r25
    2a4a:	14 c0       	rjmp	.+40     	;  0x2a74
    2a4c:	0e 94 8b 13 	call	0x2716	;  0x2716
    2a50:	8f e0       	ldi	r24, 0x0F	; 15
    2a52:	0e 94 85 13 	call	0x270a	;  0x270a
    2a56:	8d 2f       	mov	r24, r29
    2a58:	0e 94 85 13 	call	0x270a	;  0x270a
    2a5c:	8c 2f       	mov	r24, r28
    2a5e:	0e 94 85 13 	call	0x270a	;  0x270a
    2a62:	21 96       	adiw	r28, 0x01	; 1
    2a64:	80 e0       	ldi	r24, 0x00	; 0
    2a66:	0e 94 85 13 	call	0x270a	;  0x270a
    2a6a:	f8 01       	movw	r30, r16
    2a6c:	81 93       	st	Z+, r24
    2a6e:	8f 01       	movw	r16, r30
    2a70:	0e 94 8d 13 	call	0x271a	;  0x271a
    2a74:	cc 15       	cp	r28, r12
    2a76:	dd 05       	cpc	r29, r13
    2a78:	49 f7       	brne	.-46     	;  0x2a4c
    2a7a:	c7 01       	movw	r24, r14
    2a7c:	df 91       	pop	r29
    2a7e:	cf 91       	pop	r28
    2a80:	1f 91       	pop	r17
    2a82:	0f 91       	pop	r16
    2a84:	ff 90       	pop	r15
    2a86:	ef 90       	pop	r14
    2a88:	df 90       	pop	r13
    2a8a:	cf 90       	pop	r12
    2a8c:	08 95       	ret
    2a8e:	cf 92       	push	r12
    2a90:	df 92       	push	r13
    2a92:	ef 92       	push	r14
    2a94:	ff 92       	push	r15
    2a96:	0f 93       	push	r16
    2a98:	1f 93       	push	r17
    2a9a:	cf 93       	push	r28
    2a9c:	df 93       	push	r29
    2a9e:	69 01       	movw	r12, r18
    2aa0:	57 70       	andi	r21, 0x07	; 7
    2aa2:	ec 01       	movw	r28, r24
    2aa4:	c6 0f       	add	r28, r22
    2aa6:	d1 1d       	adc	r29, r1
    2aa8:	c6 0f       	add	r28, r22
    2aaa:	d1 1d       	adc	r29, r1
    2aac:	28 96       	adiw	r28, 0x08	; 8
    2aae:	88 81       	ld	r24, Y
    2ab0:	99 81       	ldd	r25, Y+1	; 0x01
    2ab2:	84 0f       	add	r24, r20
    2ab4:	95 1f       	adc	r25, r21
    2ab6:	98 01       	movw	r18, r16
    2ab8:	24 0f       	add	r18, r20
    2aba:	35 1f       	adc	r19, r21
    2abc:	21 30       	cpi	r18, 0x01	; 1
    2abe:	38 40       	sbci	r19, 0x08	; 8
    2ac0:	90 f0       	brcs	.+36     	;  0x2ae6
    2ac2:	e1 2c       	mov	r14, r1
    2ac4:	68 e0       	ldi	r22, 0x08	; 8
    2ac6:	f6 2e       	mov	r15, r22
    2ac8:	e4 1a       	sub	r14, r20
    2aca:	f5 0a       	sbc	r15, r21
    2acc:	a7 01       	movw	r20, r14
    2ace:	b6 01       	movw	r22, r12
    2ad0:	0e 94 17 15 	call	0x2a2e	;  0x2a2e
    2ad4:	a8 01       	movw	r20, r16
    2ad6:	4e 19       	sub	r20, r14
    2ad8:	5f 09       	sbc	r21, r15
    2ada:	b6 01       	movw	r22, r12
    2adc:	6e 0d       	add	r22, r14
    2ade:	7f 1d       	adc	r23, r15
    2ae0:	88 81       	ld	r24, Y
    2ae2:	99 81       	ldd	r25, Y+1	; 0x01
    2ae4:	02 c0       	rjmp	.+4      	;  0x2aea
    2ae6:	a8 01       	movw	r20, r16
    2ae8:	b6 01       	movw	r22, r12
    2aea:	df 91       	pop	r29
    2aec:	cf 91       	pop	r28
    2aee:	1f 91       	pop	r17
    2af0:	0f 91       	pop	r16
    2af2:	ff 90       	pop	r15
    2af4:	ef 90       	pop	r14
    2af6:	df 90       	pop	r13
    2af8:	cf 90       	pop	r12
    2afa:	0c 94 17 15 	jmp	0x2a2e	;  0x2a2e
    2afe:	8f 92       	push	r8
    2b00:	9f 92       	push	r9
    2b02:	af 92       	push	r10
    2b04:	bf 92       	push	r11
    2b06:	cf 92       	push	r12
    2b08:	df 92       	push	r13
    2b0a:	ef 92       	push	r14
    2b0c:	ff 92       	push	r15
    2b0e:	0f 93       	push	r16
    2b10:	1f 93       	push	r17
    2b12:	cf 93       	push	r28
    2b14:	df 93       	push	r29
    2b16:	6c 01       	movw	r12, r24
    2b18:	96 2e       	mov	r9, r22
    2b1a:	5a 01       	movw	r10, r20
    2b1c:	e9 01       	movw	r28, r18
    2b1e:	80 2e       	mov	r8, r16
    2b20:	68 e2       	ldi	r22, 0x28	; 40
    2b22:	70 e0       	ldi	r23, 0x00	; 0
    2b24:	89 2d       	mov	r24, r9
    2b26:	0e 94 85 11 	call	0x230a	;  0x230a
    2b2a:	f8 2e       	mov	r15, r24
    2b2c:	69 e2       	ldi	r22, 0x29	; 41
    2b2e:	70 e0       	ldi	r23, 0x00	; 0
    2b30:	89 2d       	mov	r24, r9
    2b32:	0e 94 85 11 	call	0x230a	;  0x230a
    2b36:	ff 2d       	mov	r31, r15
    2b38:	e0 e0       	ldi	r30, 0x00	; 0
    2b3a:	7f 01       	movw	r14, r30
    2b3c:	e8 2a       	or	r14, r24
    2b3e:	8e 01       	movw	r16, r28
    2b40:	95 01       	movw	r18, r10
    2b42:	a7 01       	movw	r20, r14
    2b44:	69 2d       	mov	r22, r9
    2b46:	c6 01       	movw	r24, r12
    2b48:	0e 94 47 15 	call	0x2a8e	;  0x2a8e
    2b4c:	81 10       	cpse	r8, r1
    2b4e:	1a c0       	rjmp	.+52     	;  0x2b84
    2b50:	ce 0d       	add	r28, r14
    2b52:	df 1d       	adc	r29, r15
    2b54:	4d 2f       	mov	r20, r29
    2b56:	68 e2       	ldi	r22, 0x28	; 40
    2b58:	70 e0       	ldi	r23, 0x00	; 0
    2b5a:	89 2d       	mov	r24, r9
    2b5c:	0e 94 93 11 	call	0x2326	;  0x2326
    2b60:	4c 2f       	mov	r20, r28
    2b62:	69 e2       	ldi	r22, 0x29	; 41
    2b64:	70 e0       	ldi	r23, 0x00	; 0
    2b66:	89 2d       	mov	r24, r9
    2b68:	df 91       	pop	r29
    2b6a:	cf 91       	pop	r28
    2b6c:	1f 91       	pop	r17
    2b6e:	0f 91       	pop	r16
    2b70:	ff 90       	pop	r15
    2b72:	ef 90       	pop	r14
    2b74:	df 90       	pop	r13
    2b76:	cf 90       	pop	r12
    2b78:	bf 90       	pop	r11
    2b7a:	af 90       	pop	r10
    2b7c:	9f 90       	pop	r9
    2b7e:	8f 90       	pop	r8
    2b80:	0c 94 93 11 	jmp	0x2326	;  0x2326
    2b84:	df 91       	pop	r29
    2b86:	cf 91       	pop	r28
    2b88:	1f 91       	pop	r17
    2b8a:	0f 91       	pop	r16
    2b8c:	ff 90       	pop	r15
    2b8e:	ef 90       	pop	r14
    2b90:	df 90       	pop	r13
    2b92:	cf 90       	pop	r12
    2b94:	bf 90       	pop	r11
    2b96:	af 90       	pop	r10
    2b98:	9f 90       	pop	r9
    2b9a:	8f 90       	pop	r8
    2b9c:	08 95       	ret
    2b9e:	cf 93       	push	r28
    2ba0:	c6 2f       	mov	r28, r22
    2ba2:	61 e0       	ldi	r22, 0x01	; 1
    2ba4:	70 e0       	ldi	r23, 0x00	; 0
    2ba6:	8c 2f       	mov	r24, r28
    2ba8:	0e 94 93 11 	call	0x2326	;  0x2326
    2bac:	61 e0       	ldi	r22, 0x01	; 1
    2bae:	70 e0       	ldi	r23, 0x00	; 0
    2bb0:	8c 2f       	mov	r24, r28
    2bb2:	0e 94 85 11 	call	0x230a	;  0x230a
    2bb6:	81 11       	cpse	r24, r1
    2bb8:	f9 cf       	rjmp	.-14     	;  0x2bac
    2bba:	cf 91       	pop	r28
    2bbc:	08 95       	ret
    2bbe:	0f 93       	push	r16
    2bc0:	00 e0       	ldi	r16, 0x00	; 0
    2bc2:	20 e0       	ldi	r18, 0x00	; 0
    2bc4:	40 e0       	ldi	r20, 0x00	; 0
    2bc6:	60 e0       	ldi	r22, 0x00	; 0
    2bc8:	8d e0       	ldi	r24, 0x0D	; 13
    2bca:	96 e0       	ldi	r25, 0x06	; 6
    2bcc:	0e 94 b5 21 	call	0x436a	;  0x436a
    2bd0:	0f 91       	pop	r16
    2bd2:	08 95       	ret
    2bd4:	fb 01       	movw	r30, r22
    2bd6:	42 81       	ldd	r20, Z+2	; 0x02
    2bd8:	53 81       	ldd	r21, Z+3	; 0x03
    2bda:	64 81       	ldd	r22, Z+4	; 0x04
    2bdc:	75 81       	ldd	r23, Z+5	; 0x05
    2bde:	fc 01       	movw	r30, r24
    2be0:	42 83       	std	Z+2, r20	; 0x02
    2be2:	53 83       	std	Z+3, r21	; 0x03
    2be4:	64 83       	std	Z+4, r22	; 0x04
    2be6:	75 83       	std	Z+5, r23	; 0x05
    2be8:	17 82       	std	Z+7, r1	; 0x07
    2bea:	16 82       	std	Z+6, r1	; 0x06
    2bec:	08 95       	ret
    2bee:	cf 93       	push	r28
    2bf0:	fb 01       	movw	r30, r22
    2bf2:	db 01       	movw	r26, r22
    2bf4:	8d 91       	ld	r24, X+
    2bf6:	81 11       	cpse	r24, r1
    2bf8:	fd cf       	rjmp	.-6      	;  0x2bf4
    2bfa:	80 e0       	ldi	r24, 0x00	; 0
    2bfc:	90 e0       	ldi	r25, 0x00	; 0
    2bfe:	20 e0       	ldi	r18, 0x00	; 0
    2c00:	30 e0       	ldi	r19, 0x00	; 0
    2c02:	ca e0       	ldi	r28, 0x0A	; 10
    2c04:	1b c0       	rjmp	.+54     	;  0x2c3c
    2c06:	8f 3f       	cpi	r24, 0xFF	; 255
    2c08:	91 05       	cpc	r25, r1
    2c0a:	09 f0       	breq	.+2      	;  0x2c0e
    2c0c:	64 f5       	brge	.+88     	;  0x2c66
    2c0e:	da 01       	movw	r26, r20
    2c10:	a2 0f       	add	r26, r18
    2c12:	b3 1f       	adc	r27, r19
    2c14:	12 96       	adiw	r26, 0x02	; 2
    2c16:	8c 93       	st	X, r24
    2c18:	2f 5f       	subi	r18, 0xFF	; 255
    2c1a:	3f 4f       	sbci	r19, 0xFF	; 255
    2c1c:	80 e0       	ldi	r24, 0x00	; 0
    2c1e:	90 e0       	ldi	r25, 0x00	; 0
    2c20:	0d c0       	rjmp	.+26     	;  0x2c3c
    2c22:	dc 01       	movw	r26, r24
    2c24:	ca 9f       	mul	r28, r26
    2c26:	c0 01       	movw	r24, r0
    2c28:	cb 9f       	mul	r28, r27
    2c2a:	90 0d       	add	r25, r0
    2c2c:	11 24       	eor	r1, r1
    2c2e:	77 27       	eor	r23, r23
    2c30:	67 fd       	sbrc	r22, 7
    2c32:	70 95       	com	r23
    2c34:	60 53       	subi	r22, 0x30	; 48
    2c36:	71 09       	sbc	r23, r1
    2c38:	86 0f       	add	r24, r22
    2c3a:	97 1f       	adc	r25, r23
    2c3c:	61 91       	ld	r22, Z+
    2c3e:	66 23       	and	r22, r22
    2c40:	21 f0       	breq	.+8      	;  0x2c4a
    2c42:	24 30       	cpi	r18, 0x04	; 4
    2c44:	31 05       	cpc	r19, r1
    2c46:	94 f0       	brlt	.+36     	;  0x2c6c
    2c48:	0e c0       	rjmp	.+28     	;  0x2c66
    2c4a:	8f 3f       	cpi	r24, 0xFF	; 255
    2c4c:	91 05       	cpc	r25, r1
    2c4e:	09 f0       	breq	.+2      	;  0x2c52
    2c50:	54 f4       	brge	.+20     	;  0x2c66
    2c52:	24 30       	cpi	r18, 0x04	; 4
    2c54:	31 05       	cpc	r19, r1
    2c56:	3c f4       	brge	.+14     	;  0x2c66
    2c58:	fa 01       	movw	r30, r20
    2c5a:	e2 0f       	add	r30, r18
    2c5c:	f3 1f       	adc	r31, r19
    2c5e:	82 83       	std	Z+2, r24	; 0x02
    2c60:	21 e0       	ldi	r18, 0x01	; 1
    2c62:	30 e0       	ldi	r19, 0x00	; 0
    2c64:	06 c0       	rjmp	.+12     	;  0x2c72
    2c66:	20 e0       	ldi	r18, 0x00	; 0
    2c68:	30 e0       	ldi	r19, 0x00	; 0
    2c6a:	03 c0       	rjmp	.+6      	;  0x2c72
    2c6c:	6e 32       	cpi	r22, 0x2E	; 46
    2c6e:	c9 f6       	brne	.-78     	;  0x2c22
    2c70:	ca cf       	rjmp	.-108    	;  0x2c06
    2c72:	c9 01       	movw	r24, r18
    2c74:	cf 91       	pop	r28
    2c76:	08 95       	ret
    2c78:	af 92       	push	r10
    2c7a:	bf 92       	push	r11
    2c7c:	cf 92       	push	r12
    2c7e:	df 92       	push	r13
    2c80:	ef 92       	push	r14
    2c82:	ff 92       	push	r15
    2c84:	0f 93       	push	r16
    2c86:	1f 93       	push	r17
    2c88:	cf 93       	push	r28
    2c8a:	df 93       	push	r29
    2c8c:	00 d0       	rcall	.+0      	;  0x2c8e
    2c8e:	1f 92       	push	r1
    2c90:	cd b7       	in	r28, 0x3d	; 61
    2c92:	de b7       	in	r29, 0x3e	; 62
    2c94:	7c 01       	movw	r14, r24
    2c96:	5b 01       	movw	r10, r22
    2c98:	0e 94 4f 24 	call	0x489e	;  0x489e
    2c9c:	f7 01       	movw	r30, r14
    2c9e:	77 83       	std	Z+7, r23	; 0x07
    2ca0:	66 83       	std	Z+6, r22	; 0x06
    2ca2:	87 01       	movw	r16, r14
    2ca4:	08 5f       	subi	r16, 0xF8	; 248
    2ca6:	1f 4f       	sbci	r17, 0xFF	; 255
    2ca8:	b7 01       	movw	r22, r14
    2caa:	6a 5f       	subi	r22, 0xFA	; 250
    2cac:	7f 4f       	sbci	r23, 0xFF	; 255
    2cae:	42 e0       	ldi	r20, 0x02	; 2
    2cb0:	50 e0       	ldi	r21, 0x00	; 0
    2cb2:	c8 01       	movw	r24, r16
    2cb4:	0e 94 3b 1e 	call	0x3c76	;  0x3c76
    2cb8:	81 e0       	ldi	r24, 0x01	; 1
    2cba:	90 e0       	ldi	r25, 0x00	; 0
    2cbc:	9a 83       	std	Y+2, r25	; 0x02
    2cbe:	89 83       	std	Y+1, r24	; 0x01
    2cc0:	42 e0       	ldi	r20, 0x02	; 2
    2cc2:	50 e0       	ldi	r21, 0x00	; 0
    2cc4:	be 01       	movw	r22, r28
    2cc6:	6f 5f       	subi	r22, 0xFF	; 255
    2cc8:	7f 4f       	sbci	r23, 0xFF	; 255
    2cca:	c8 01       	movw	r24, r16
    2ccc:	0e 94 3b 1e 	call	0x3c76	;  0x3c76
    2cd0:	80 e0       	ldi	r24, 0x00	; 0
    2cd2:	91 e0       	ldi	r25, 0x01	; 1
    2cd4:	9a 83       	std	Y+2, r25	; 0x02
    2cd6:	89 83       	std	Y+1, r24	; 0x01
    2cd8:	42 e0       	ldi	r20, 0x02	; 2
    2cda:	50 e0       	ldi	r21, 0x00	; 0
    2cdc:	be 01       	movw	r22, r28
    2cde:	6f 5f       	subi	r22, 0xFF	; 255
    2ce0:	7f 4f       	sbci	r23, 0xFF	; 255
    2ce2:	c8 01       	movw	r24, r16
    2ce4:	0e 94 3b 1e 	call	0x3c76	;  0x3c76
    2ce8:	1a 82       	std	Y+2, r1	; 0x02
    2cea:	19 82       	std	Y+1, r1	; 0x01
    2cec:	42 e0       	ldi	r20, 0x02	; 2
    2cee:	50 e0       	ldi	r21, 0x00	; 0
    2cf0:	be 01       	movw	r22, r28
    2cf2:	6f 5f       	subi	r22, 0xFF	; 255
    2cf4:	7f 4f       	sbci	r23, 0xFF	; 255
    2cf6:	c8 01       	movw	r24, r16
    2cf8:	0e 94 3b 1e 	call	0x3c76	;  0x3c76
    2cfc:	42 e0       	ldi	r20, 0x02	; 2
    2cfe:	50 e0       	ldi	r21, 0x00	; 0
    2d00:	be 01       	movw	r22, r28
    2d02:	6f 5f       	subi	r22, 0xFF	; 255
    2d04:	7f 4f       	sbci	r23, 0xFF	; 255
    2d06:	c8 01       	movw	r24, r16
    2d08:	0e 94 3b 1e 	call	0x3c76	;  0x3c76
    2d0c:	42 e0       	ldi	r20, 0x02	; 2
    2d0e:	50 e0       	ldi	r21, 0x00	; 0
    2d10:	be 01       	movw	r22, r28
    2d12:	6f 5f       	subi	r22, 0xFF	; 255
    2d14:	7f 4f       	sbci	r23, 0xFF	; 255
    2d16:	c8 01       	movw	r24, r16
    2d18:	0e 94 3b 1e 	call	0x3c76	;  0x3c76
    2d1c:	75 01       	movw	r14, r10
    2d1e:	65 01       	movw	r12, r10
    2d20:	21 c0       	rjmp	.+66     	;  0x2d64
    2d22:	f6 01       	movw	r30, r12
    2d24:	7f 01       	movw	r14, r30
    2d26:	81 91       	ld	r24, Z+
    2d28:	81 11       	cpse	r24, r1
    2d2a:	07 c0       	rjmp	.+14     	;  0x2d3a
    2d2c:	57 01       	movw	r10, r14
    2d2e:	ac 18       	sub	r10, r12
    2d30:	bd 08       	sbc	r11, r13
    2d32:	1a 14       	cp	r1, r10
    2d34:	1b 04       	cpc	r1, r11
    2d36:	24 f0       	brlt	.+8      	;  0x2d40
    2d38:	11 c0       	rjmp	.+34     	;  0x2d5c
    2d3a:	8e 32       	cpi	r24, 0x2E	; 46
    2d3c:	99 f7       	brne	.-26     	;  0x2d24
    2d3e:	f6 cf       	rjmp	.-20     	;  0x2d2c
    2d40:	ab 82       	std	Y+3, r10	; 0x03
    2d42:	41 e0       	ldi	r20, 0x01	; 1
    2d44:	50 e0       	ldi	r21, 0x00	; 0
    2d46:	be 01       	movw	r22, r28
    2d48:	6d 5f       	subi	r22, 0xFD	; 253
    2d4a:	7f 4f       	sbci	r23, 0xFF	; 255
    2d4c:	c8 01       	movw	r24, r16
    2d4e:	0e 94 3b 1e 	call	0x3c76	;  0x3c76
    2d52:	a5 01       	movw	r20, r10
    2d54:	b6 01       	movw	r22, r12
    2d56:	c8 01       	movw	r24, r16
    2d58:	0e 94 3b 1e 	call	0x3c76	;  0x3c76
    2d5c:	67 01       	movw	r12, r14
    2d5e:	ff ef       	ldi	r31, 0xFF	; 255
    2d60:	cf 1a       	sub	r12, r31
    2d62:	df 0a       	sbc	r13, r31
    2d64:	f7 01       	movw	r30, r14
    2d66:	80 81       	ld	r24, Z
    2d68:	81 11       	cpse	r24, r1
    2d6a:	db cf       	rjmp	.-74     	;  0x2d22
    2d6c:	1b 82       	std	Y+3, r1	; 0x03
    2d6e:	41 e0       	ldi	r20, 0x01	; 1
    2d70:	50 e0       	ldi	r21, 0x00	; 0
    2d72:	be 01       	movw	r22, r28
    2d74:	6d 5f       	subi	r22, 0xFD	; 253
    2d76:	7f 4f       	sbci	r23, 0xFF	; 255
    2d78:	c8 01       	movw	r24, r16
    2d7a:	0e 94 3b 1e 	call	0x3c76	;  0x3c76
    2d7e:	e1 2c       	mov	r14, r1
    2d80:	ff 24       	eor	r15, r15
    2d82:	f3 94       	inc	r15
    2d84:	fa 82       	std	Y+2, r15	; 0x02
    2d86:	e9 82       	std	Y+1, r14	; 0x01
    2d88:	42 e0       	ldi	r20, 0x02	; 2
    2d8a:	50 e0       	ldi	r21, 0x00	; 0
    2d8c:	be 01       	movw	r22, r28
    2d8e:	6f 5f       	subi	r22, 0xFF	; 255
    2d90:	7f 4f       	sbci	r23, 0xFF	; 255
    2d92:	c8 01       	movw	r24, r16
    2d94:	0e 94 3b 1e 	call	0x3c76	;  0x3c76
    2d98:	fa 82       	std	Y+2, r15	; 0x02
    2d9a:	e9 82       	std	Y+1, r14	; 0x01
    2d9c:	42 e0       	ldi	r20, 0x02	; 2
    2d9e:	50 e0       	ldi	r21, 0x00	; 0
    2da0:	be 01       	movw	r22, r28
    2da2:	6f 5f       	subi	r22, 0xFF	; 255
    2da4:	7f 4f       	sbci	r23, 0xFF	; 255
    2da6:	c8 01       	movw	r24, r16
    2da8:	0e 94 3b 1e 	call	0x3c76	;  0x3c76
    2dac:	81 e0       	ldi	r24, 0x01	; 1
    2dae:	90 e0       	ldi	r25, 0x00	; 0
    2db0:	0f 90       	pop	r0
    2db2:	0f 90       	pop	r0
    2db4:	0f 90       	pop	r0
    2db6:	df 91       	pop	r29
    2db8:	cf 91       	pop	r28
    2dba:	1f 91       	pop	r17
    2dbc:	0f 91       	pop	r16
    2dbe:	ff 90       	pop	r15
    2dc0:	ef 90       	pop	r14
    2dc2:	df 90       	pop	r13
    2dc4:	cf 90       	pop	r12
    2dc6:	bf 90       	pop	r11
    2dc8:	af 90       	pop	r10
    2dca:	08 95       	ret
    2dcc:	4f 92       	push	r4
    2dce:	5f 92       	push	r5
    2dd0:	6f 92       	push	r6
    2dd2:	7f 92       	push	r7
    2dd4:	8f 92       	push	r8
    2dd6:	9f 92       	push	r9
    2dd8:	af 92       	push	r10
    2dda:	bf 92       	push	r11
    2ddc:	cf 92       	push	r12
    2dde:	df 92       	push	r13
    2de0:	ef 92       	push	r14
    2de2:	ff 92       	push	r15
    2de4:	0f 93       	push	r16
    2de6:	1f 93       	push	r17
    2de8:	cf 93       	push	r28
    2dea:	df 93       	push	r29
    2dec:	cd b7       	in	r28, 0x3d	; 61
    2dee:	de b7       	in	r29, 0x3e	; 62
    2df0:	63 97       	sbiw	r28, 0x13	; 19
    2df2:	0f b6       	in	r0, 0x3f	; 63
    2df4:	f8 94       	cli
    2df6:	de bf       	out	0x3e, r29	; 62
    2df8:	0f be       	out	0x3f, r0	; 63
    2dfa:	cd bf       	out	0x3d, r28	; 61
    2dfc:	7c 01       	movw	r14, r24
    2dfe:	5b 01       	movw	r10, r22
    2e00:	6a 01       	movw	r12, r20
    2e02:	0e 94 4f 24 	call	0x489e	;  0x489e
    2e06:	2b 01       	movw	r4, r22
    2e08:	3c 01       	movw	r6, r24
    2e0a:	87 01       	movw	r16, r14
    2e0c:	08 5f       	subi	r16, 0xF8	; 248
    2e0e:	1f 4f       	sbci	r17, 0xFF	; 255
    2e10:	45 01       	movw	r8, r10
    2e12:	a1 2c       	mov	r10, r1
    2e14:	b1 2c       	mov	r11, r1
    2e16:	12 c0       	rjmp	.+36     	;  0x2e3c
    2e18:	0e 94 4f 24 	call	0x489e	;  0x489e
    2e1c:	64 19       	sub	r22, r4
    2e1e:	75 09       	sbc	r23, r5
    2e20:	86 09       	sbc	r24, r6
    2e22:	97 09       	sbc	r25, r7
    2e24:	86 16       	cp	r8, r22
    2e26:	97 06       	cpc	r9, r23
    2e28:	a8 06       	cpc	r10, r24
    2e2a:	b9 06       	cpc	r11, r25
    2e2c:	08 f4       	brcc	.+2      	;  0x2e30
    2e2e:	0f c1       	rjmp	.+542    	;  0x304e
    2e30:	62 e3       	ldi	r22, 0x32	; 50
    2e32:	70 e0       	ldi	r23, 0x00	; 0
    2e34:	80 e0       	ldi	r24, 0x00	; 0
    2e36:	90 e0       	ldi	r25, 0x00	; 0
    2e38:	0e 94 8b 24 	call	0x4916	;  0x4916
    2e3c:	c8 01       	movw	r24, r16
    2e3e:	0e 94 72 1e 	call	0x3ce4	;  0x3ce4
    2e42:	18 16       	cp	r1, r24
    2e44:	19 06       	cpc	r1, r25
    2e46:	44 f7       	brge	.-48     	;  0x2e18
    2e48:	f7 01       	movw	r30, r14
    2e4a:	42 81       	ldd	r20, Z+2	; 0x02
    2e4c:	53 81       	ldd	r21, Z+3	; 0x03
    2e4e:	64 81       	ldd	r22, Z+4	; 0x04
    2e50:	75 81       	ldd	r23, Z+5	; 0x05
    2e52:	81 8d       	ldd	r24, Z+25	; 0x19
    2e54:	92 8d       	ldd	r25, Z+26	; 0x1a
    2e56:	a3 8d       	ldd	r26, Z+27	; 0x1b
    2e58:	b4 8d       	ldd	r27, Z+28	; 0x1c
    2e5a:	48 17       	cp	r20, r24
    2e5c:	59 07       	cpc	r21, r25
    2e5e:	6a 07       	cpc	r22, r26
    2e60:	7b 07       	cpc	r23, r27
    2e62:	09 f0       	breq	.+2      	;  0x2e66
    2e64:	f7 c0       	rjmp	.+494    	;  0x3054
    2e66:	85 8d       	ldd	r24, Z+29	; 0x1d
    2e68:	96 8d       	ldd	r25, Z+30	; 0x1e
    2e6a:	c5 97       	sbiw	r24, 0x35	; 53
    2e6c:	09 f0       	breq	.+2      	;  0x2e70
    2e6e:	f2 c0       	rjmp	.+484    	;  0x3054
    2e70:	f7 c0       	rjmp	.+494    	;  0x3060
    2e72:	4c e0       	ldi	r20, 0x0C	; 12
    2e74:	50 e0       	ldi	r21, 0x00	; 0
    2e76:	be 01       	movw	r22, r28
    2e78:	6f 5f       	subi	r22, 0xFF	; 255
    2e7a:	7f 4f       	sbci	r23, 0xFF	; 255
    2e7c:	c8 01       	movw	r24, r16
    2e7e:	0e 94 f2 1d 	call	0x3be4	;  0x3be4
    2e82:	8b 81       	ldd	r24, Y+3	; 0x03
    2e84:	9c 81       	ldd	r25, Y+4	; 0x04
    2e86:	98 27       	eor	r25, r24
    2e88:	89 27       	eor	r24, r25
    2e8a:	98 27       	eor	r25, r24
    2e8c:	9a 8b       	std	Y+18, r25	; 0x12
    2e8e:	89 8b       	std	Y+17, r24	; 0x11
    2e90:	f7 01       	movw	r30, r14
    2e92:	46 81       	ldd	r20, Z+6	; 0x06
    2e94:	57 81       	ldd	r21, Z+7	; 0x07
    2e96:	29 81       	ldd	r18, Y+1	; 0x01
    2e98:	3a 81       	ldd	r19, Y+2	; 0x02
    2e9a:	42 17       	cp	r20, r18
    2e9c:	53 07       	cpc	r21, r19
    2e9e:	11 f4       	brne	.+4      	;  0x2ea4
    2ea0:	97 fd       	sbrc	r25, 7
    2ea2:	06 c0       	rjmp	.+12     	;  0x2eb0
    2ea4:	c8 01       	movw	r24, r16
    2ea6:	0e 94 c6 1d 	call	0x3b8c	;  0x3b8c
    2eaa:	2c ef       	ldi	r18, 0xFC	; 252
    2eac:	3f ef       	ldi	r19, 0xFF	; 255
    2eae:	de c0       	rjmp	.+444    	;  0x306c
    2eb0:	8f 70       	andi	r24, 0x0F	; 15
    2eb2:	92 70       	andi	r25, 0x02	; 2
    2eb4:	89 2b       	or	r24, r25
    2eb6:	31 f0       	breq	.+12     	;  0x2ec4
    2eb8:	c8 01       	movw	r24, r16
    2eba:	0e 94 c6 1d 	call	0x3b8c	;  0x3b8c
    2ebe:	2b ef       	ldi	r18, 0xFB	; 251
    2ec0:	3f ef       	ldi	r19, 0xFF	; 255
    2ec2:	d4 c0       	rjmp	.+424    	;  0x306c
    2ec4:	8f 80       	ldd	r8, Y+7	; 0x07
    2ec6:	98 84       	ldd	r9, Y+8	; 0x08
    2ec8:	98 24       	eor	r9, r8
    2eca:	89 24       	eor	r8, r9
    2ecc:	98 24       	eor	r9, r8
    2ece:	81 14       	cp	r8, r1
    2ed0:	91 04       	cpc	r9, r1
    2ed2:	79 f5       	brne	.+94     	;  0x2f32
    2ed4:	c8 01       	movw	r24, r16
    2ed6:	0e 94 c6 1d 	call	0x3b8c	;  0x3b8c
    2eda:	2a ef       	ldi	r18, 0xFA	; 250
    2edc:	3f ef       	ldi	r19, 0xFF	; 255
    2ede:	c6 c0       	rjmp	.+396    	;  0x306c
    2ee0:	41 e0       	ldi	r20, 0x01	; 1
    2ee2:	50 e0       	ldi	r21, 0x00	; 0
    2ee4:	be 01       	movw	r22, r28
    2ee6:	63 5f       	subi	r22, 0xF3	; 243
    2ee8:	7f 4f       	sbci	r23, 0xFF	; 255
    2eea:	c8 01       	movw	r24, r16
    2eec:	0e 94 f2 1d 	call	0x3be4	;  0x3be4
    2ef0:	8d 85       	ldd	r24, Y+13	; 0x0d
    2ef2:	81 11       	cpse	r24, r1
    2ef4:	07 c0       	rjmp	.+14     	;  0x2f04
    2ef6:	8d 85       	ldd	r24, Y+13	; 0x0d
    2ef8:	81 11       	cpse	r24, r1
    2efa:	f2 cf       	rjmp	.-28     	;  0x2ee0
    2efc:	0a c0       	rjmp	.+20     	;  0x2f12
    2efe:	c8 01       	movw	r24, r16
    2f00:	0e 94 11 1e 	call	0x3c22	;  0x3c22
    2f04:	8d 85       	ldd	r24, Y+13	; 0x0d
    2f06:	98 2f       	mov	r25, r24
    2f08:	91 50       	subi	r25, 0x01	; 1
    2f0a:	9d 87       	std	Y+13, r25	; 0x0d
    2f0c:	81 11       	cpse	r24, r1
    2f0e:	f7 cf       	rjmp	.-18     	;  0x2efe
    2f10:	f2 cf       	rjmp	.-28     	;  0x2ef6
    2f12:	c8 01       	movw	r24, r16
    2f14:	0e 94 11 1e 	call	0x3c22	;  0x3c22
    2f18:	c8 01       	movw	r24, r16
    2f1a:	0e 94 11 1e 	call	0x3c22	;  0x3c22
    2f1e:	c8 01       	movw	r24, r16
    2f20:	0e 94 11 1e 	call	0x3c22	;  0x3c22
    2f24:	c8 01       	movw	r24, r16
    2f26:	0e 94 11 1e 	call	0x3c22	;  0x3c22
    2f2a:	ff ef       	ldi	r31, 0xFF	; 255
    2f2c:	ef 1a       	sub	r14, r31
    2f2e:	ff 0a       	sbc	r15, r31
    2f30:	02 c0       	rjmp	.+4      	;  0x2f36
    2f32:	e1 2c       	mov	r14, r1
    2f34:	f1 2c       	mov	r15, r1
    2f36:	8d 81       	ldd	r24, Y+5	; 0x05
    2f38:	9e 81       	ldd	r25, Y+6	; 0x06
    2f3a:	98 27       	eor	r25, r24
    2f3c:	89 27       	eor	r24, r25
    2f3e:	98 27       	eor	r25, r24
    2f40:	e8 16       	cp	r14, r24
    2f42:	f9 06       	cpc	r15, r25
    2f44:	68 f2       	brcs	.-102    	;  0x2ee0
    2f46:	a1 2c       	mov	r10, r1
    2f48:	b1 2c       	mov	r11, r1
    2f4a:	41 e0       	ldi	r20, 0x01	; 1
    2f4c:	50 e0       	ldi	r21, 0x00	; 0
    2f4e:	be 01       	movw	r22, r28
    2f50:	6d 5e       	subi	r22, 0xED	; 237
    2f52:	7f 4f       	sbci	r23, 0xFF	; 255
    2f54:	c8 01       	movw	r24, r16
    2f56:	0e 94 f2 1d 	call	0x3be4	;  0x3be4
    2f5a:	8b 89       	ldd	r24, Y+19	; 0x13
    2f5c:	98 2f       	mov	r25, r24
    2f5e:	90 7c       	andi	r25, 0xC0	; 192
    2f60:	69 f4       	brne	.+26     	;  0x2f7c
    2f62:	81 11       	cpse	r24, r1
    2f64:	04 c0       	rjmp	.+8      	;  0x2f6e
    2f66:	0e c0       	rjmp	.+28     	;  0x2f84
    2f68:	c8 01       	movw	r24, r16
    2f6a:	0e 94 11 1e 	call	0x3c22	;  0x3c22
    2f6e:	8b 89       	ldd	r24, Y+19	; 0x13
    2f70:	98 2f       	mov	r25, r24
    2f72:	91 50       	subi	r25, 0x01	; 1
    2f74:	9b 8b       	std	Y+19, r25	; 0x13
    2f76:	81 11       	cpse	r24, r1
    2f78:	f7 cf       	rjmp	.-18     	;  0x2f68
    2f7a:	04 c0       	rjmp	.+8      	;  0x2f84
    2f7c:	c8 01       	movw	r24, r16
    2f7e:	0e 94 11 1e 	call	0x3c22	;  0x3c22
    2f82:	1b 8a       	std	Y+19, r1	; 0x13
    2f84:	8b 89       	ldd	r24, Y+19	; 0x13
    2f86:	81 11       	cpse	r24, r1
    2f88:	e0 cf       	rjmp	.-64     	;  0x2f4a
    2f8a:	42 e0       	ldi	r20, 0x02	; 2
    2f8c:	50 e0       	ldi	r21, 0x00	; 0
    2f8e:	be 01       	movw	r22, r28
    2f90:	61 5f       	subi	r22, 0xF1	; 241
    2f92:	7f 4f       	sbci	r23, 0xFF	; 255
    2f94:	c8 01       	movw	r24, r16
    2f96:	0e 94 f2 1d 	call	0x3be4	;  0x3be4
    2f9a:	42 e0       	ldi	r20, 0x02	; 2
    2f9c:	50 e0       	ldi	r21, 0x00	; 0
    2f9e:	be 01       	movw	r22, r28
    2fa0:	63 5f       	subi	r22, 0xF3	; 243
    2fa2:	7f 4f       	sbci	r23, 0xFF	; 255
    2fa4:	c8 01       	movw	r24, r16
    2fa6:	0e 94 f2 1d 	call	0x3be4	;  0x3be4
    2faa:	c8 01       	movw	r24, r16
    2fac:	0e 94 11 1e 	call	0x3c22	;  0x3c22
    2fb0:	c8 01       	movw	r24, r16
    2fb2:	0e 94 11 1e 	call	0x3c22	;  0x3c22
    2fb6:	c8 01       	movw	r24, r16
    2fb8:	0e 94 11 1e 	call	0x3c22	;  0x3c22
    2fbc:	c8 01       	movw	r24, r16
    2fbe:	0e 94 11 1e 	call	0x3c22	;  0x3c22
    2fc2:	42 e0       	ldi	r20, 0x02	; 2
    2fc4:	50 e0       	ldi	r21, 0x00	; 0
    2fc6:	be 01       	movw	r22, r28
    2fc8:	6f 5e       	subi	r22, 0xEF	; 239
    2fca:	7f 4f       	sbci	r23, 0xFF	; 255
    2fcc:	c8 01       	movw	r24, r16
    2fce:	0e 94 f2 1d 	call	0x3be4	;  0x3be4
    2fd2:	8f 85       	ldd	r24, Y+15	; 0x0f
    2fd4:	98 89       	ldd	r25, Y+16	; 0x10
    2fd6:	81 15       	cp	r24, r1
    2fd8:	91 40       	sbci	r25, 0x01	; 1
    2fda:	11 f5       	brne	.+68     	;  0x3020
    2fdc:	8d 85       	ldd	r24, Y+13	; 0x0d
    2fde:	9e 85       	ldd	r25, Y+14	; 0x0e
    2fe0:	81 15       	cp	r24, r1
    2fe2:	91 40       	sbci	r25, 0x01	; 1
    2fe4:	e9 f4       	brne	.+58     	;  0x3020
    2fe6:	89 89       	ldd	r24, Y+17	; 0x11
    2fe8:	9a 89       	ldd	r25, Y+18	; 0x12
    2fea:	81 15       	cp	r24, r1
    2fec:	94 40       	sbci	r25, 0x04	; 4
    2fee:	31 f0       	breq	.+12     	;  0x2ffc
    2ff0:	c8 01       	movw	r24, r16
    2ff2:	0e 94 c6 1d 	call	0x3b8c	;  0x3b8c
    2ff6:	27 ef       	ldi	r18, 0xF7	; 247
    2ff8:	3f ef       	ldi	r19, 0xFF	; 255
    2ffa:	38 c0       	rjmp	.+112    	;  0x306c
    2ffc:	b6 01       	movw	r22, r12
    2ffe:	6e 5f       	subi	r22, 0xFE	; 254
    3000:	7f 4f       	sbci	r23, 0xFF	; 255
    3002:	44 e0       	ldi	r20, 0x04	; 4
    3004:	50 e0       	ldi	r21, 0x00	; 0
    3006:	c8 01       	movw	r24, r16
    3008:	0e 94 f2 1d 	call	0x3be4	;  0x3be4
    300c:	21 e0       	ldi	r18, 0x01	; 1
    300e:	30 e0       	ldi	r19, 0x00	; 0
    3010:	2d c0       	rjmp	.+90     	;  0x306c
    3012:	c8 01       	movw	r24, r16
    3014:	0e 94 11 1e 	call	0x3c22	;  0x3c22
    3018:	2f ef       	ldi	r18, 0xFF	; 255
    301a:	e2 1a       	sub	r14, r18
    301c:	f2 0a       	sbc	r15, r18
    301e:	02 c0       	rjmp	.+4      	;  0x3024
    3020:	e1 2c       	mov	r14, r1
    3022:	f1 2c       	mov	r15, r1
    3024:	89 89       	ldd	r24, Y+17	; 0x11
    3026:	9a 89       	ldd	r25, Y+18	; 0x12
    3028:	98 27       	eor	r25, r24
    302a:	89 27       	eor	r24, r25
    302c:	98 27       	eor	r25, r24
    302e:	e8 16       	cp	r14, r24
    3030:	f9 06       	cpc	r15, r25
    3032:	78 f3       	brcs	.-34     	;  0x3012
    3034:	8f ef       	ldi	r24, 0xFF	; 255
    3036:	a8 1a       	sub	r10, r24
    3038:	b8 0a       	sbc	r11, r24
    303a:	a8 14       	cp	r10, r8
    303c:	b9 04       	cpc	r11, r9
    303e:	09 f0       	breq	.+2      	;  0x3042
    3040:	84 cf       	rjmp	.-248    	;  0x2f4a
    3042:	c8 01       	movw	r24, r16
    3044:	0e 94 c6 1d 	call	0x3b8c	;  0x3b8c
    3048:	26 ef       	ldi	r18, 0xF6	; 246
    304a:	3f ef       	ldi	r19, 0xFF	; 255
    304c:	0f c0       	rjmp	.+30     	;  0x306c
    304e:	2f ef       	ldi	r18, 0xFF	; 255
    3050:	3f ef       	ldi	r19, 0xFF	; 255
    3052:	0c c0       	rjmp	.+24     	;  0x306c
    3054:	2e ef       	ldi	r18, 0xFE	; 254
    3056:	3f ef       	ldi	r19, 0xFF	; 255
    3058:	09 c0       	rjmp	.+18     	;  0x306c
    305a:	2d ef       	ldi	r18, 0xFD	; 253
    305c:	3f ef       	ldi	r19, 0xFF	; 255
    305e:	06 c0       	rjmp	.+12     	;  0x306c
    3060:	c8 01       	movw	r24, r16
    3062:	0e 94 ac 1d 	call	0x3b58	;  0x3b58
    3066:	0c 97       	sbiw	r24, 0x0c	; 12
    3068:	c4 f3       	brlt	.-16     	;  0x305a
    306a:	03 cf       	rjmp	.-506    	;  0x2e72
    306c:	c9 01       	movw	r24, r18
    306e:	63 96       	adiw	r28, 0x13	; 19
    3070:	0f b6       	in	r0, 0x3f	; 63
    3072:	f8 94       	cli
    3074:	de bf       	out	0x3e, r29	; 62
    3076:	0f be       	out	0x3f, r0	; 63
    3078:	cd bf       	out	0x3d, r28	; 61
    307a:	df 91       	pop	r29
    307c:	cf 91       	pop	r28
    307e:	1f 91       	pop	r17
    3080:	0f 91       	pop	r16
    3082:	ff 90       	pop	r15
    3084:	ef 90       	pop	r14
    3086:	df 90       	pop	r13
    3088:	cf 90       	pop	r12
    308a:	bf 90       	pop	r11
    308c:	af 90       	pop	r10
    308e:	9f 90       	pop	r9
    3090:	8f 90       	pop	r8
    3092:	7f 90       	pop	r7
    3094:	6f 90       	pop	r6
    3096:	5f 90       	pop	r5
    3098:	4f 90       	pop	r4
    309a:	08 95       	ret
    309c:	8f 92       	push	r8
    309e:	9f 92       	push	r9
    30a0:	af 92       	push	r10
    30a2:	bf 92       	push	r11
    30a4:	cf 92       	push	r12
    30a6:	df 92       	push	r13
    30a8:	ef 92       	push	r14
    30aa:	ff 92       	push	r15
    30ac:	0f 93       	push	r16
    30ae:	1f 93       	push	r17
    30b0:	cf 93       	push	r28
    30b2:	df 93       	push	r29
    30b4:	00 d0       	rcall	.+0      	;  0x30b6
    30b6:	00 d0       	rcall	.+0      	;  0x30b8
    30b8:	00 d0       	rcall	.+0      	;  0x30ba
    30ba:	cd b7       	in	r28, 0x3d	; 61
    30bc:	de b7       	in	r29, 0x3e	; 62
    30be:	8c 01       	movw	r16, r24
    30c0:	5b 01       	movw	r10, r22
    30c2:	6a 01       	movw	r12, r20
    30c4:	0e 94 f7 15 	call	0x2bee	;  0x2bee
    30c8:	89 2b       	or	r24, r25
    30ca:	09 f0       	breq	.+2      	;  0x30ce
    30cc:	51 c0       	rjmp	.+162    	;  0x3170
    30ce:	f8 01       	movw	r30, r16
    30d0:	42 81       	ldd	r20, Z+2	; 0x02
    30d2:	53 81       	ldd	r21, Z+3	; 0x03
    30d4:	64 81       	ldd	r22, Z+4	; 0x04
    30d6:	75 81       	ldd	r23, Z+5	; 0x05
    30d8:	80 91 15 06 	lds	r24, 0x0615
    30dc:	90 91 16 06 	lds	r25, 0x0616
    30e0:	a0 91 17 06 	lds	r26, 0x0617
    30e4:	b0 91 18 06 	lds	r27, 0x0618
    30e8:	48 17       	cp	r20, r24
    30ea:	59 07       	cpc	r21, r25
    30ec:	6a 07       	cpc	r22, r26
    30ee:	7b 07       	cpc	r23, r27
    30f0:	09 f4       	brne	.+2      	;  0x30f4
    30f2:	42 c0       	rjmp	.+132    	;  0x3178
    30f4:	0e 94 4f 24 	call	0x489e	;  0x489e
    30f8:	78 01       	movw	r14, r16
    30fa:	f8 e0       	ldi	r31, 0x08	; 8
    30fc:	ef 0e       	add	r14, r31
    30fe:	f1 1c       	adc	r15, r1
    3100:	6f 70       	andi	r22, 0x0F	; 15
    3102:	77 27       	eor	r23, r23
    3104:	88 27       	eor	r24, r24
    3106:	99 27       	eor	r25, r25
    3108:	7c 5f       	subi	r23, 0xFC	; 252
    310a:	c7 01       	movw	r24, r14
    310c:	0e 94 c1 1e 	call	0x3d82	;  0x3d82
    3110:	81 30       	cpi	r24, 0x01	; 1
    3112:	b9 f5       	brne	.+110    	;  0x3182
    3114:	84 e4       	ldi	r24, 0x44	; 68
    3116:	93 e0       	ldi	r25, 0x03	; 3
    3118:	9a 83       	std	Y+2, r25	; 0x02
    311a:	89 83       	std	Y+1, r24	; 0x01
    311c:	f8 01       	movw	r30, r16
    311e:	82 81       	ldd	r24, Z+2	; 0x02
    3120:	93 81       	ldd	r25, Z+3	; 0x03
    3122:	a4 81       	ldd	r26, Z+4	; 0x04
    3124:	b5 81       	ldd	r27, Z+5	; 0x05
    3126:	8b 83       	std	Y+3, r24	; 0x03
    3128:	9c 83       	std	Y+4, r25	; 0x04
    312a:	ad 83       	std	Y+5, r26	; 0x05
    312c:	be 83       	std	Y+6, r27	; 0x06
    312e:	45 e3       	ldi	r20, 0x35	; 53
    3130:	50 e0       	ldi	r21, 0x00	; 0
    3132:	be 01       	movw	r22, r28
    3134:	6f 5f       	subi	r22, 0xFF	; 255
    3136:	7f 4f       	sbci	r23, 0xFF	; 255
    3138:	c7 01       	movw	r24, r14
    313a:	0e 94 55 1e 	call	0x3caa	;  0x3caa
    313e:	89 2b       	or	r24, r25
    3140:	19 f4       	brne	.+6      	;  0x3148
    3142:	a1 2c       	mov	r10, r1
    3144:	b1 2c       	mov	r11, r1
    3146:	10 c0       	rjmp	.+32     	;  0x3168
    3148:	b5 01       	movw	r22, r10
    314a:	c8 01       	movw	r24, r16
    314c:	0e 94 3c 16 	call	0x2c78	;  0x2c78
    3150:	89 2b       	or	r24, r25
    3152:	b9 f3       	breq	.-18     	;  0x3142
    3154:	c7 01       	movw	r24, r14
    3156:	0e 94 51 1e 	call	0x3ca2	;  0x3ca2
    315a:	89 2b       	or	r24, r25
    315c:	a9 f4       	brne	.+42     	;  0x3188
    315e:	f1 cf       	rjmp	.-30     	;  0x3142
    3160:	ff ef       	ldi	r31, 0xFF	; 255
    3162:	af 16       	cp	r10, r31
    3164:	bf 06       	cpc	r11, r31
    3166:	99 f0       	breq	.+38     	;  0x318e
    3168:	c7 01       	movw	r24, r14
    316a:	0e 94 5d 1e 	call	0x3cba	;  0x3cba
    316e:	1b c0       	rjmp	.+54     	;  0x31a6
    3170:	aa 24       	eor	r10, r10
    3172:	a3 94       	inc	r10
    3174:	b1 2c       	mov	r11, r1
    3176:	17 c0       	rjmp	.+46     	;  0x31a6
    3178:	2e ef       	ldi	r18, 0xFE	; 254
    317a:	a2 2e       	mov	r10, r18
    317c:	bb 24       	eor	r11, r11
    317e:	ba 94       	dec	r11
    3180:	12 c0       	rjmp	.+36     	;  0x31a6
    3182:	a1 2c       	mov	r10, r1
    3184:	b1 2c       	mov	r11, r1
    3186:	0f c0       	rjmp	.+30     	;  0x31a6
    3188:	93 e0       	ldi	r25, 0x03	; 3
    318a:	89 2e       	mov	r8, r25
    318c:	91 2c       	mov	r9, r1
    318e:	a6 01       	movw	r20, r12
    3190:	68 e8       	ldi	r22, 0x88	; 136
    3192:	73 e1       	ldi	r23, 0x13	; 19
    3194:	c8 01       	movw	r24, r16
    3196:	0e 94 e6 16 	call	0x2dcc	;  0x2dcc
    319a:	5c 01       	movw	r10, r24
    319c:	21 e0       	ldi	r18, 0x01	; 1
    319e:	82 1a       	sub	r8, r18
    31a0:	91 08       	sbc	r9, r1
    31a2:	11 f3       	breq	.-60     	;  0x3168
    31a4:	dd cf       	rjmp	.-70     	;  0x3160
    31a6:	c5 01       	movw	r24, r10
    31a8:	26 96       	adiw	r28, 0x06	; 6
    31aa:	0f b6       	in	r0, 0x3f	; 63
    31ac:	f8 94       	cli
    31ae:	de bf       	out	0x3e, r29	; 62
    31b0:	0f be       	out	0x3f, r0	; 63
    31b2:	cd bf       	out	0x3d, r28	; 61
    31b4:	df 91       	pop	r29
    31b6:	cf 91       	pop	r28
    31b8:	1f 91       	pop	r17
    31ba:	0f 91       	pop	r16
    31bc:	ff 90       	pop	r15
    31be:	ef 90       	pop	r14
    31c0:	df 90       	pop	r13
    31c2:	cf 90       	pop	r12
    31c4:	bf 90       	pop	r11
    31c6:	af 90       	pop	r10
    31c8:	9f 90       	pop	r9
    31ca:	8f 90       	pop	r8
    31cc:	08 95       	ret
    31ce:	0f 93       	push	r16
    31d0:	00 e0       	ldi	r16, 0x00	; 0
    31d2:	20 e0       	ldi	r18, 0x00	; 0
    31d4:	40 e0       	ldi	r20, 0x00	; 0
    31d6:	60 e0       	ldi	r22, 0x00	; 0
    31d8:	83 e1       	ldi	r24, 0x13	; 19
    31da:	96 e0       	ldi	r25, 0x06	; 6
    31dc:	0e 94 b5 21 	call	0x436a	;  0x436a
    31e0:	0f 91       	pop	r16
    31e2:	08 95       	ret
    31e4:	44 e0       	ldi	r20, 0x04	; 4
    31e6:	50 e0       	ldi	r21, 0x00	; 0
    31e8:	bc 01       	movw	r22, r24
    31ea:	81 e0       	ldi	r24, 0x01	; 1
    31ec:	90 e0       	ldi	r25, 0x00	; 0
    31ee:	0c 94 ef 13 	jmp	0x27de	;  0x27de
    31f2:	44 e0       	ldi	r20, 0x04	; 4
    31f4:	50 e0       	ldi	r21, 0x00	; 0
    31f6:	bc 01       	movw	r22, r24
    31f8:	85 e0       	ldi	r24, 0x05	; 5
    31fa:	90 e0       	ldi	r25, 0x00	; 0
    31fc:	0c 94 ef 13 	jmp	0x27de	;  0x27de
    3200:	44 e0       	ldi	r20, 0x04	; 4
    3202:	50 e0       	ldi	r21, 0x00	; 0
    3204:	bc 01       	movw	r22, r24
    3206:	8f e0       	ldi	r24, 0x0F	; 15
    3208:	90 e0       	ldi	r25, 0x00	; 0
    320a:	0c 94 ef 13 	jmp	0x27de	;  0x27de
    320e:	8f 92       	push	r8
    3210:	9f 92       	push	r9
    3212:	af 92       	push	r10
    3214:	bf 92       	push	r11
    3216:	cf 92       	push	r12
    3218:	df 92       	push	r13
    321a:	ef 92       	push	r14
    321c:	ff 92       	push	r15
    321e:	0f 93       	push	r16
    3220:	1f 93       	push	r17
    3222:	cf 93       	push	r28
    3224:	df 93       	push	r29
    3226:	00 d0       	rcall	.+0      	;  0x3228
    3228:	cd b7       	in	r28, 0x3d	; 61
    322a:	de b7       	in	r29, 0x3e	; 62
    322c:	4c 01       	movw	r8, r24
    322e:	6a 01       	movw	r12, r20
    3230:	59 01       	movw	r10, r18
    3232:	8d ef       	ldi	r24, 0xFD	; 253
    3234:	95 e0       	ldi	r25, 0x05	; 5
    3236:	69 83       	std	Y+1, r22	; 0x01
    3238:	7a 83       	std	Y+2, r23	; 0x02
    323a:	0e 94 b1 13 	call	0x2762	;  0x2762
    323e:	46 e0       	ldi	r20, 0x06	; 6
    3240:	50 e0       	ldi	r21, 0x00	; 0
    3242:	69 81       	ldd	r22, Y+1	; 0x01
    3244:	7a 81       	ldd	r23, Y+2	; 0x02
    3246:	89 e0       	ldi	r24, 0x09	; 9
    3248:	90 e0       	ldi	r25, 0x00	; 0
    324a:	0e 94 ef 13 	call	0x27de	;  0x27de
    324e:	c6 01       	movw	r24, r12
    3250:	02 96       	adiw	r24, 0x02	; 2
    3252:	0e 94 00 19 	call	0x3200	;  0x3200
    3256:	c8 01       	movw	r24, r16
    3258:	02 96       	adiw	r24, 0x02	; 2
    325a:	0e 94 f2 18 	call	0x31e4	;  0x31e4
    325e:	c7 01       	movw	r24, r14
    3260:	02 96       	adiw	r24, 0x02	; 2
    3262:	0e 94 f9 18 	call	0x31f2	;  0x31f2
    3266:	f5 01       	movw	r30, r10
    3268:	42 81       	ldd	r20, Z+2	; 0x02
    326a:	53 81       	ldd	r21, Z+3	; 0x03
    326c:	64 81       	ldd	r22, Z+4	; 0x04
    326e:	75 81       	ldd	r23, Z+5	; 0x05
    3270:	f4 01       	movw	r30, r8
    3272:	42 83       	std	Z+2, r20	; 0x02
    3274:	53 83       	std	Z+3, r21	; 0x03
    3276:	64 83       	std	Z+4, r22	; 0x04
    3278:	75 83       	std	Z+5, r23	; 0x05
    327a:	0f 90       	pop	r0
    327c:	0f 90       	pop	r0
    327e:	df 91       	pop	r29
    3280:	cf 91       	pop	r28
    3282:	1f 91       	pop	r17
    3284:	0f 91       	pop	r16
    3286:	ff 90       	pop	r15
    3288:	ef 90       	pop	r14
    328a:	df 90       	pop	r13
    328c:	cf 90       	pop	r12
    328e:	bf 90       	pop	r11
    3290:	af 90       	pop	r10
    3292:	9f 90       	pop	r9
    3294:	8f 90       	pop	r8
    3296:	08 95       	ret
    3298:	6f 92       	push	r6
    329a:	7f 92       	push	r7
    329c:	8f 92       	push	r8
    329e:	9f 92       	push	r9
    32a0:	af 92       	push	r10
    32a2:	bf 92       	push	r11
    32a4:	cf 92       	push	r12
    32a6:	df 92       	push	r13
    32a8:	ef 92       	push	r14
    32aa:	ff 92       	push	r15
    32ac:	0f 93       	push	r16
    32ae:	1f 93       	push	r17
    32b0:	cf 93       	push	r28
    32b2:	df 93       	push	r29
    32b4:	cd b7       	in	r28, 0x3d	; 61
    32b6:	de b7       	in	r29, 0x3e	; 62
    32b8:	6e 97       	sbiw	r28, 0x1e	; 30
    32ba:	0f b6       	in	r0, 0x3f	; 63
    32bc:	f8 94       	cli
    32be:	de bf       	out	0x3e, r29	; 62
    32c0:	0f be       	out	0x3f, r0	; 63
    32c2:	cd bf       	out	0x3d, r28	; 61
    32c4:	6c 01       	movw	r12, r24
    32c6:	5b 01       	movw	r10, r22
    32c8:	7a 01       	movw	r14, r20
    32ca:	49 01       	movw	r8, r18
    32cc:	38 01       	movw	r6, r16
    32ce:	00 e0       	ldi	r16, 0x00	; 0
    32d0:	2f ef       	ldi	r18, 0xFF	; 255
    32d2:	4f ef       	ldi	r20, 0xFF	; 255
    32d4:	6f ef       	ldi	r22, 0xFF	; 255
    32d6:	ce 01       	movw	r24, r28
    32d8:	49 96       	adiw	r24, 0x19	; 25
    32da:	0e 94 b5 21 	call	0x436a	;  0x436a
    32de:	44 e4       	ldi	r20, 0x44	; 68
    32e0:	53 e0       	ldi	r21, 0x03	; 3
    32e2:	5a 83       	std	Y+2, r21	; 0x02
    32e4:	49 83       	std	Y+1, r20	; 0x01
    32e6:	8b 8d       	ldd	r24, Y+27	; 0x1b
    32e8:	9c 8d       	ldd	r25, Y+28	; 0x1c
    32ea:	ad 8d       	ldd	r26, Y+29	; 0x1d
    32ec:	be 8d       	ldd	r27, Y+30	; 0x1e
    32ee:	8b 83       	std	Y+3, r24	; 0x03
    32f0:	9c 83       	std	Y+4, r25	; 0x04
    32f2:	ad 83       	std	Y+5, r26	; 0x05
    32f4:	be 83       	std	Y+6, r27	; 0x06
    32f6:	58 87       	std	Y+8, r21	; 0x08
    32f8:	4f 83       	std	Y+7, r20	; 0x07
    32fa:	f3 01       	movw	r30, r6
    32fc:	82 81       	ldd	r24, Z+2	; 0x02
    32fe:	93 81       	ldd	r25, Z+3	; 0x03
    3300:	a4 81       	ldd	r26, Z+4	; 0x04
    3302:	b5 81       	ldd	r27, Z+5	; 0x05
    3304:	89 87       	std	Y+9, r24	; 0x09
    3306:	9a 87       	std	Y+10, r25	; 0x0a
    3308:	ab 87       	std	Y+11, r26	; 0x0b
    330a:	bc 87       	std	Y+12, r27	; 0x0c
    330c:	5e 87       	std	Y+14, r21	; 0x0e
    330e:	4d 87       	std	Y+13, r20	; 0x0d
    3310:	f4 01       	movw	r30, r8
    3312:	82 81       	ldd	r24, Z+2	; 0x02
    3314:	93 81       	ldd	r25, Z+3	; 0x03
    3316:	a4 81       	ldd	r26, Z+4	; 0x04
    3318:	b5 81       	ldd	r27, Z+5	; 0x05
    331a:	8f 87       	std	Y+15, r24	; 0x0f
    331c:	98 8b       	std	Y+16, r25	; 0x10
    331e:	a9 8b       	std	Y+17, r26	; 0x11
    3320:	ba 8b       	std	Y+18, r27	; 0x12
    3322:	5c 8b       	std	Y+20, r21	; 0x14
    3324:	4b 8b       	std	Y+19, r20	; 0x13
    3326:	f7 01       	movw	r30, r14
    3328:	42 81       	ldd	r20, Z+2	; 0x02
    332a:	53 81       	ldd	r21, Z+3	; 0x03
    332c:	64 81       	ldd	r22, Z+4	; 0x04
    332e:	75 81       	ldd	r23, Z+5	; 0x05
    3330:	4d 8b       	std	Y+21, r20	; 0x15
    3332:	5e 8b       	std	Y+22, r21	; 0x16
    3334:	6f 8b       	std	Y+23, r22	; 0x17
    3336:	78 8f       	std	Y+24, r23	; 0x18
    3338:	ee 24       	eor	r14, r14
    333a:	e3 94       	inc	r14
    333c:	f1 2c       	mov	r15, r1
    333e:	ec 0e       	add	r14, r28
    3340:	fd 1e       	adc	r15, r29
    3342:	8e 01       	movw	r16, r28
    3344:	09 5f       	subi	r16, 0xF9	; 249
    3346:	1f 4f       	sbci	r17, 0xFF	; 255
    3348:	9e 01       	movw	r18, r28
    334a:	23 5f       	subi	r18, 0xF3	; 243
    334c:	3f 4f       	sbci	r19, 0xFF	; 255
    334e:	ae 01       	movw	r20, r28
    3350:	4d 5e       	subi	r20, 0xED	; 237
    3352:	5f 4f       	sbci	r21, 0xFF	; 255
    3354:	b5 01       	movw	r22, r10
    3356:	c6 01       	movw	r24, r12
    3358:	0e 94 07 19 	call	0x320e	;  0x320e
    335c:	6e 96       	adiw	r28, 0x1e	; 30
    335e:	0f b6       	in	r0, 0x3f	; 63
    3360:	f8 94       	cli
    3362:	de bf       	out	0x3e, r29	; 62
    3364:	0f be       	out	0x3f, r0	; 63
    3366:	cd bf       	out	0x3d, r28	; 61
    3368:	df 91       	pop	r29
    336a:	cf 91       	pop	r28
    336c:	1f 91       	pop	r17
    336e:	0f 91       	pop	r16
    3370:	ff 90       	pop	r15
    3372:	ef 90       	pop	r14
    3374:	df 90       	pop	r13
    3376:	cf 90       	pop	r12
    3378:	bf 90       	pop	r11
    337a:	af 90       	pop	r10
    337c:	9f 90       	pop	r9
    337e:	8f 90       	pop	r8
    3380:	7f 90       	pop	r7
    3382:	6f 90       	pop	r6
    3384:	08 95       	ret
    3386:	cf 93       	push	r28
    3388:	df 93       	push	r29
    338a:	ec 01       	movw	r28, r24
    338c:	0e 94 ab 21 	call	0x4356	;  0x4356
    3390:	be 01       	movw	r22, r28
    3392:	6e 5f       	subi	r22, 0xFE	; 254
    3394:	7f 4f       	sbci	r23, 0xFF	; 255
    3396:	44 e0       	ldi	r20, 0x04	; 4
    3398:	50 e0       	ldi	r21, 0x00	; 0
    339a:	8f e0       	ldi	r24, 0x0F	; 15
    339c:	90 e0       	ldi	r25, 0x00	; 0
    339e:	0e 94 17 15 	call	0x2a2e	;  0x2a2e
    33a2:	ce 01       	movw	r24, r28
    33a4:	df 91       	pop	r29
    33a6:	cf 91       	pop	r28
    33a8:	08 95       	ret
    33aa:	24 e4       	ldi	r18, 0x44	; 68
    33ac:	33 e0       	ldi	r19, 0x03	; 3
    33ae:	fc 01       	movw	r30, r24
    33b0:	31 83       	std	Z+1, r19	; 0x01
    33b2:	20 83       	st	Z, r18
    33b4:	fb 01       	movw	r30, r22
    33b6:	42 81       	ldd	r20, Z+2	; 0x02
    33b8:	53 81       	ldd	r21, Z+3	; 0x03
    33ba:	64 81       	ldd	r22, Z+4	; 0x04
    33bc:	75 81       	ldd	r23, Z+5	; 0x05
    33be:	fc 01       	movw	r30, r24
    33c0:	42 83       	std	Z+2, r20	; 0x02
    33c2:	53 83       	std	Z+3, r21	; 0x03
    33c4:	64 83       	std	Z+4, r22	; 0x04
    33c6:	75 83       	std	Z+5, r23	; 0x05
    33c8:	08 95       	ret
    33ca:	0f 93       	push	r16
    33cc:	00 e0       	ldi	r16, 0x00	; 0
    33ce:	20 e0       	ldi	r18, 0x00	; 0
    33d0:	40 e0       	ldi	r20, 0x00	; 0
    33d2:	60 e0       	ldi	r22, 0x00	; 0
    33d4:	89 e2       	ldi	r24, 0x29	; 41
    33d6:	96 e0       	ldi	r25, 0x06	; 6
    33d8:	0e 94 b5 21 	call	0x436a	;  0x436a
    33dc:	89 e1       	ldi	r24, 0x19	; 25
    33de:	96 e0       	ldi	r25, 0x06	; 6
    33e0:	0f 91       	pop	r16
    33e2:	0c 94 ab 21 	jmp	0x4356	;  0x4356
    33e6:	cf 93       	push	r28
    33e8:	df 93       	push	r29
    33ea:	1f 92       	push	r1
    33ec:	cd b7       	in	r28, 0x3d	; 61
    33ee:	de b7       	in	r29, 0x3e	; 62
    33f0:	69 83       	std	Y+1, r22	; 0x01
    33f2:	dc 01       	movw	r26, r24
    33f4:	ed 91       	ld	r30, X+
    33f6:	fc 91       	ld	r31, X
    33f8:	02 80       	ldd	r0, Z+2	; 0x02
    33fa:	f3 81       	ldd	r31, Z+3	; 0x03
    33fc:	e0 2d       	mov	r30, r0
    33fe:	41 e0       	ldi	r20, 0x01	; 1
    3400:	50 e0       	ldi	r21, 0x00	; 0
    3402:	be 01       	movw	r22, r28
    3404:	6f 5f       	subi	r22, 0xFF	; 255
    3406:	7f 4f       	sbci	r23, 0xFF	; 255
    3408:	09 95       	icall
    340a:	0f 90       	pop	r0
    340c:	df 91       	pop	r29
    340e:	cf 91       	pop	r28
    3410:	08 95       	ret
    3412:	cf 93       	push	r28
    3414:	df 93       	push	r29
    3416:	ec 01       	movw	r28, r24
    3418:	07 c0       	rjmp	.+14     	;  0x3428
    341a:	e8 81       	ld	r30, Y
    341c:	f9 81       	ldd	r31, Y+1	; 0x01
    341e:	06 80       	ldd	r0, Z+6	; 0x06
    3420:	f7 81       	ldd	r31, Z+7	; 0x07
    3422:	e0 2d       	mov	r30, r0
    3424:	ce 01       	movw	r24, r28
    3426:	09 95       	icall
    3428:	e8 81       	ld	r30, Y
    342a:	f9 81       	ldd	r31, Y+1	; 0x01
    342c:	04 80       	ldd	r0, Z+4	; 0x04
    342e:	f5 81       	ldd	r31, Z+5	; 0x05
    3430:	e0 2d       	mov	r30, r0
    3432:	ce 01       	movw	r24, r28
    3434:	09 95       	icall
    3436:	89 2b       	or	r24, r25
    3438:	81 f7       	brne	.-32     	;  0x341a
    343a:	df 91       	pop	r29
    343c:	cf 91       	pop	r28
    343e:	08 95       	ret
    3440:	21 e0       	ldi	r18, 0x01	; 1
    3442:	fc 01       	movw	r30, r24
    3444:	84 85       	ldd	r24, Z+12	; 0x0c
    3446:	84 30       	cpi	r24, 0x04	; 4
    3448:	09 f4       	brne	.+2      	;  0x344c
    344a:	20 e0       	ldi	r18, 0x00	; 0
    344c:	82 2f       	mov	r24, r18
    344e:	08 95       	ret
    3450:	0f 93       	push	r16
    3452:	1f 93       	push	r17
    3454:	cf 93       	push	r28
    3456:	df 93       	push	r29
    3458:	1f 92       	push	r1
    345a:	cd b7       	in	r28, 0x3d	; 61
    345c:	de b7       	in	r29, 0x3e	; 62
    345e:	8c 01       	movw	r16, r24
    3460:	dc 01       	movw	r26, r24
    3462:	ed 91       	ld	r30, X+
    3464:	fc 91       	ld	r31, X
    3466:	04 80       	ldd	r0, Z+4	; 0x04
    3468:	f5 81       	ldd	r31, Z+5	; 0x05
    346a:	e0 2d       	mov	r30, r0
    346c:	09 95       	icall
    346e:	89 2b       	or	r24, r25
    3470:	51 f0       	breq	.+20     	;  0x3486
    3472:	be 01       	movw	r22, r28
    3474:	6f 5f       	subi	r22, 0xFF	; 255
    3476:	7f 4f       	sbci	r23, 0xFF	; 255
    3478:	f8 01       	movw	r30, r16
    347a:	84 85       	ldd	r24, Z+12	; 0x0c
    347c:	0e 94 f7 12 	call	0x25ee	;  0x25ee
    3480:	29 81       	ldd	r18, Y+1	; 0x01
    3482:	30 e0       	ldi	r19, 0x00	; 0
    3484:	02 c0       	rjmp	.+4      	;  0x348a
    3486:	2f ef       	ldi	r18, 0xFF	; 255
    3488:	3f ef       	ldi	r19, 0xFF	; 255
    348a:	c9 01       	movw	r24, r18
    348c:	0f 90       	pop	r0
    348e:	df 91       	pop	r29
    3490:	cf 91       	pop	r28
    3492:	1f 91       	pop	r17
    3494:	0f 91       	pop	r16
    3496:	08 95       	ret
    3498:	fc 01       	movw	r30, r24
    349a:	84 85       	ldd	r24, Z+12	; 0x0c
    349c:	0c 94 b8 12 	jmp	0x2570	;  0x2570
    34a0:	cf 93       	push	r28
    34a2:	df 93       	push	r29
    34a4:	1f 92       	push	r1
    34a6:	cd b7       	in	r28, 0x3d	; 61
    34a8:	de b7       	in	r29, 0x3e	; 62
    34aa:	41 e0       	ldi	r20, 0x01	; 1
    34ac:	50 e0       	ldi	r21, 0x00	; 0
    34ae:	be 01       	movw	r22, r28
    34b0:	6f 5f       	subi	r22, 0xFF	; 255
    34b2:	7f 4f       	sbci	r23, 0xFF	; 255
    34b4:	fc 01       	movw	r30, r24
    34b6:	84 85       	ldd	r24, Z+12	; 0x0c
    34b8:	0e 94 b8 12 	call	0x2570	;  0x2570
    34bc:	18 16       	cp	r1, r24
    34be:	19 06       	cpc	r1, r25
    34c0:	1c f4       	brge	.+6      	;  0x34c8
    34c2:	29 81       	ldd	r18, Y+1	; 0x01
    34c4:	30 e0       	ldi	r19, 0x00	; 0
    34c6:	02 c0       	rjmp	.+4      	;  0x34cc
    34c8:	2f ef       	ldi	r18, 0xFF	; 255
    34ca:	3f ef       	ldi	r19, 0xFF	; 255
    34cc:	c9 01       	movw	r24, r18
    34ce:	0f 90       	pop	r0
    34d0:	df 91       	pop	r29
    34d2:	cf 91       	pop	r28
    34d4:	08 95       	ret
    34d6:	fc 01       	movw	r30, r24
    34d8:	64 85       	ldd	r22, Z+12	; 0x0c
    34da:	64 30       	cpi	r22, 0x04	; 4
    34dc:	21 f0       	breq	.+8      	;  0x34e6
    34de:	8d ef       	ldi	r24, 0xFD	; 253
    34e0:	95 e0       	ldi	r25, 0x05	; 5
    34e2:	0c 94 cb 14 	jmp	0x2996	;  0x2996
    34e6:	80 e0       	ldi	r24, 0x00	; 0
    34e8:	90 e0       	ldi	r25, 0x00	; 0
    34ea:	08 95       	ret
    34ec:	0f 93       	push	r16
    34ee:	1f 93       	push	r17
    34f0:	cf 93       	push	r28
    34f2:	df 93       	push	r29
    34f4:	8c 01       	movw	r16, r24
    34f6:	ea 01       	movw	r28, r20
    34f8:	fc 01       	movw	r30, r24
    34fa:	84 85       	ldd	r24, Z+12	; 0x0c
    34fc:	84 30       	cpi	r24, 0x04	; 4
    34fe:	19 f4       	brne	.+6      	;  0x3506
    3500:	81 e0       	ldi	r24, 0x01	; 1
    3502:	90 e0       	ldi	r25, 0x00	; 0
    3504:	07 c0       	rjmp	.+14     	;  0x3514
    3506:	0e 94 65 12 	call	0x24ca	;  0x24ca
    350a:	89 2b       	or	r24, r25
    350c:	39 f4       	brne	.+14     	;  0x351c
    350e:	81 e0       	ldi	r24, 0x01	; 1
    3510:	90 e0       	ldi	r25, 0x00	; 0
    3512:	f8 01       	movw	r30, r16
    3514:	93 83       	std	Z+3, r25	; 0x03
    3516:	82 83       	std	Z+2, r24	; 0x02
    3518:	c0 e0       	ldi	r28, 0x00	; 0
    351a:	d0 e0       	ldi	r29, 0x00	; 0
    351c:	ce 01       	movw	r24, r28
    351e:	df 91       	pop	r29
    3520:	cf 91       	pop	r28
    3522:	1f 91       	pop	r17
    3524:	0f 91       	pop	r16
    3526:	08 95       	ret
    3528:	cf 92       	push	r12
    352a:	df 92       	push	r13
    352c:	ef 92       	push	r14
    352e:	ff 92       	push	r15
    3530:	0f 93       	push	r16
    3532:	1f 93       	push	r17
    3534:	cf 93       	push	r28
    3536:	df 93       	push	r29
    3538:	cd b7       	in	r28, 0x3d	; 61
    353a:	de b7       	in	r29, 0x3e	; 62
    353c:	af 97       	sbiw	r28, 0x2f	; 47
    353e:	0f b6       	in	r0, 0x3f	; 63
    3540:	f8 94       	cli
    3542:	de bf       	out	0x3e, r29	; 62
    3544:	0f be       	out	0x3f, r0	; 63
    3546:	cd bf       	out	0x3d, r28	; 61
    3548:	7c 01       	movw	r14, r24
    354a:	8b 01       	movw	r16, r22
    354c:	6a 01       	movw	r12, r20
    354e:	ce 01       	movw	r24, r28
    3550:	01 96       	adiw	r24, 0x01	; 1
    3552:	0e 94 ab 21 	call	0x4356	;  0x4356
    3556:	ce 01       	movw	r24, r28
    3558:	09 96       	adiw	r24, 0x09	; 9
    355a:	0e 94 fb 1e 	call	0x3df6	;  0x3df6
    355e:	ce 01       	movw	r24, r28
    3560:	8a 96       	adiw	r24, 0x2a	; 42
    3562:	0e 94 ab 21 	call	0x4356	;  0x4356
    3566:	69 e1       	ldi	r22, 0x19	; 25
    3568:	76 e0       	ldi	r23, 0x06	; 6
    356a:	ce 01       	movw	r24, r28
    356c:	84 96       	adiw	r24, 0x24	; 36
    356e:	0e 94 d5 19 	call	0x33aa	;  0x33aa
    3572:	be 01       	movw	r22, r28
    3574:	6c 5d       	subi	r22, 0xDC	; 220
    3576:	7f 4f       	sbci	r23, 0xFF	; 255
    3578:	ce 01       	movw	r24, r28
    357a:	01 96       	adiw	r24, 0x01	; 1
    357c:	0e 94 ea 15 	call	0x2bd4	;  0x2bd4
    3580:	ae 01       	movw	r20, r28
    3582:	46 5d       	subi	r20, 0xD6	; 214
    3584:	5f 4f       	sbci	r21, 0xFF	; 255
    3586:	b8 01       	movw	r22, r16
    3588:	ce 01       	movw	r24, r28
    358a:	01 96       	adiw	r24, 0x01	; 1
    358c:	0e 94 4e 18 	call	0x309c	;  0x309c
    3590:	9c 01       	movw	r18, r24
    3592:	81 30       	cpi	r24, 0x01	; 1
    3594:	91 05       	cpc	r25, r1
    3596:	c9 f4       	brne	.+50     	;  0x35ca
    3598:	d7 01       	movw	r26, r14
    359a:	ed 91       	ld	r30, X+
    359c:	fc 91       	ld	r31, X
    359e:	04 84       	ldd	r0, Z+12	; 0x0c
    35a0:	f5 85       	ldd	r31, Z+13	; 0x0d
    35a2:	e0 2d       	mov	r30, r0
    35a4:	84 e4       	ldi	r24, 0x44	; 68
    35a6:	93 e0       	ldi	r25, 0x03	; 3
    35a8:	9d a3       	std	Y+37, r25	; 0x25
    35aa:	8c a3       	std	Y+36, r24	; 0x24
    35ac:	0c a5       	ldd	r16, Y+44	; 0x2c
    35ae:	1d a5       	ldd	r17, Y+45	; 0x2d
    35b0:	2e a5       	ldd	r18, Y+46	; 0x2e
    35b2:	3f a5       	ldd	r19, Y+47	; 0x2f
    35b4:	0e a3       	std	Y+38, r16	; 0x26
    35b6:	1f a3       	std	Y+39, r17	; 0x27
    35b8:	28 a7       	std	Y+40, r18	; 0x28
    35ba:	39 a7       	std	Y+41, r19	; 0x29
    35bc:	a6 01       	movw	r20, r12
    35be:	be 01       	movw	r22, r28
    35c0:	6c 5d       	subi	r22, 0xDC	; 220
    35c2:	7f 4f       	sbci	r23, 0xFF	; 255
    35c4:	c7 01       	movw	r24, r14
    35c6:	09 95       	icall
    35c8:	9c 01       	movw	r18, r24
    35ca:	c9 01       	movw	r24, r18
    35cc:	af 96       	adiw	r28, 0x2f	; 47
    35ce:	0f b6       	in	r0, 0x3f	; 63
    35d0:	f8 94       	cli
    35d2:	de bf       	out	0x3e, r29	; 62
    35d4:	0f be       	out	0x3f, r0	; 63
    35d6:	cd bf       	out	0x3d, r28	; 61
    35d8:	df 91       	pop	r29
    35da:	cf 91       	pop	r28
    35dc:	1f 91       	pop	r17
    35de:	0f 91       	pop	r16
    35e0:	ff 90       	pop	r15
    35e2:	ef 90       	pop	r14
    35e4:	df 90       	pop	r13
    35e6:	cf 90       	pop	r12
    35e8:	08 95       	ret
    35ea:	fc 01       	movw	r30, r24
    35ec:	26 2f       	mov	r18, r22
    35ee:	13 82       	std	Z+3, r1	; 0x03
    35f0:	12 82       	std	Z+2, r1	; 0x02
    35f2:	48 ee       	ldi	r20, 0xE8	; 232
    35f4:	53 e0       	ldi	r21, 0x03	; 3
    35f6:	60 e0       	ldi	r22, 0x00	; 0
    35f8:	70 e0       	ldi	r23, 0x00	; 0
    35fa:	44 83       	std	Z+4, r20	; 0x04
    35fc:	55 83       	std	Z+5, r21	; 0x05
    35fe:	66 83       	std	Z+6, r22	; 0x06
    3600:	77 83       	std	Z+7, r23	; 0x07
    3602:	8a ee       	ldi	r24, 0xEA	; 234
    3604:	92 e0       	ldi	r25, 0x02	; 2
    3606:	91 83       	std	Z+1, r25	; 0x01
    3608:	80 83       	st	Z, r24
    360a:	24 87       	std	Z+12, r18	; 0x0c
    360c:	08 95       	ret
    360e:	fc 01       	movw	r30, r24
    3610:	84 85       	ldd	r24, Z+12	; 0x0c
    3612:	84 30       	cpi	r24, 0x04	; 4
    3614:	39 f0       	breq	.+14     	;  0x3624
    3616:	38 2f       	mov	r19, r24
    3618:	20 e0       	ldi	r18, 0x00	; 0
    361a:	c9 01       	movw	r24, r18
    361c:	8d 5f       	subi	r24, 0xFD	; 253
    361e:	9b 4f       	sbci	r25, 0xFB	; 251
    3620:	0c 94 1e 14 	jmp	0x283c	;  0x283c
    3624:	80 e0       	ldi	r24, 0x00	; 0
    3626:	08 95       	ret
    3628:	cf 93       	push	r28
    362a:	df 93       	push	r29
    362c:	ec 01       	movw	r28, r24
    362e:	8c 85       	ldd	r24, Y+12	; 0x0c
    3630:	84 30       	cpi	r24, 0x04	; 4
    3632:	d1 f0       	breq	.+52     	;  0x3668
    3634:	ce 01       	movw	r24, r28
    3636:	0e 94 07 1b 	call	0x360e	;  0x360e
    363a:	84 31       	cpi	r24, 0x14	; 20
    363c:	81 f0       	breq	.+32     	;  0x365e
    363e:	88 23       	and	r24, r24
    3640:	71 f0       	breq	.+28     	;  0x365e
    3642:	88 31       	cpi	r24, 0x18	; 24
    3644:	61 f0       	breq	.+24     	;  0x365e
    3646:	8c 31       	cpi	r24, 0x1C	; 28
    3648:	61 f4       	brne	.+24     	;  0x3662
    364a:	e8 81       	ld	r30, Y
    364c:	f9 81       	ldd	r31, Y+1	; 0x01
    364e:	04 80       	ldd	r0, Z+4	; 0x04
    3650:	f5 81       	ldd	r31, Z+5	; 0x05
    3652:	e0 2d       	mov	r30, r0
    3654:	ce 01       	movw	r24, r28
    3656:	09 95       	icall
    3658:	21 e0       	ldi	r18, 0x01	; 1
    365a:	89 2b       	or	r24, r25
    365c:	19 f4       	brne	.+6      	;  0x3664
    365e:	20 e0       	ldi	r18, 0x00	; 0
    3660:	01 c0       	rjmp	.+2      	;  0x3664
    3662:	21 e0       	ldi	r18, 0x01	; 1
    3664:	82 2f       	mov	r24, r18
    3666:	01 c0       	rjmp	.+2      	;  0x366a
    3668:	80 e0       	ldi	r24, 0x00	; 0
    366a:	df 91       	pop	r29
    366c:	cf 91       	pop	r28
    366e:	08 95       	ret
    3670:	cf 92       	push	r12
    3672:	df 92       	push	r13
    3674:	ef 92       	push	r14
    3676:	ff 92       	push	r15
    3678:	cf 93       	push	r28
    367a:	df 93       	push	r29
    367c:	ec 01       	movw	r28, r24
    367e:	8c 85       	ldd	r24, Y+12	; 0x0c
    3680:	84 30       	cpi	r24, 0x04	; 4
    3682:	91 f1       	breq	.+100    	;  0x36e8
    3684:	0e 94 5e 12 	call	0x24bc	;  0x24bc
    3688:	0e 94 4f 24 	call	0x489e	;  0x489e
    368c:	6b 01       	movw	r12, r22
    368e:	7c 01       	movw	r14, r24
    3690:	ce 01       	movw	r24, r28
    3692:	0e 94 07 1b 	call	0x360e	;  0x360e
    3696:	88 23       	and	r24, r24
    3698:	d1 f0       	breq	.+52     	;  0x36ce
    369a:	0e 94 4f 24 	call	0x489e	;  0x489e
    369e:	6c 19       	sub	r22, r12
    36a0:	7d 09       	sbc	r23, r13
    36a2:	8e 09       	sbc	r24, r14
    36a4:	9f 09       	sbc	r25, r15
    36a6:	68 3e       	cpi	r22, 0xE8	; 232
    36a8:	73 40       	sbci	r23, 0x03	; 3
    36aa:	81 05       	cpc	r24, r1
    36ac:	91 05       	cpc	r25, r1
    36ae:	a8 f0       	brcs	.+42     	;  0x36da
    36b0:	0e c0       	rjmp	.+28     	;  0x36ce
    36b2:	8c 85       	ldd	r24, Y+12	; 0x0c
    36b4:	0e 94 c6 11 	call	0x238c	;  0x238c
    36b8:	ec 85       	ldd	r30, Y+12	; 0x0c
    36ba:	f0 e0       	ldi	r31, 0x00	; 0
    36bc:	ee 0f       	add	r30, r30
    36be:	ff 1f       	adc	r31, r31
    36c0:	ef 5d       	subi	r30, 0xDF	; 223
    36c2:	f9 4f       	sbci	r31, 0xF9	; 249
    36c4:	11 82       	std	Z+1, r1	; 0x01
    36c6:	10 82       	st	Z, r1
    36c8:	84 e0       	ldi	r24, 0x04	; 4
    36ca:	8c 87       	std	Y+12, r24	; 0x0c
    36cc:	0d c0       	rjmp	.+26     	;  0x36e8
    36ce:	ce 01       	movw	r24, r28
    36d0:	0e 94 07 1b 	call	0x360e	;  0x360e
    36d4:	88 23       	and	r24, r24
    36d6:	81 f3       	breq	.-32     	;  0x36b8
    36d8:	ec cf       	rjmp	.-40     	;  0x36b2
    36da:	61 e0       	ldi	r22, 0x01	; 1
    36dc:	70 e0       	ldi	r23, 0x00	; 0
    36de:	80 e0       	ldi	r24, 0x00	; 0
    36e0:	90 e0       	ldi	r25, 0x00	; 0
    36e2:	0e 94 8b 24 	call	0x4916	;  0x4916
    36e6:	d4 cf       	rjmp	.-88     	;  0x3690
    36e8:	df 91       	pop	r29
    36ea:	cf 91       	pop	r28
    36ec:	ff 90       	pop	r15
    36ee:	ef 90       	pop	r14
    36f0:	df 90       	pop	r13
    36f2:	cf 90       	pop	r12
    36f4:	08 95       	ret
    36f6:	af 92       	push	r10
    36f8:	bf 92       	push	r11
    36fa:	cf 92       	push	r12
    36fc:	df 92       	push	r13
    36fe:	ef 92       	push	r14
    3700:	ff 92       	push	r15
    3702:	0f 93       	push	r16
    3704:	1f 93       	push	r17
    3706:	cf 93       	push	r28
    3708:	df 93       	push	r29
    370a:	ec 01       	movw	r28, r24
    370c:	5b 01       	movw	r10, r22
    370e:	6a 01       	movw	r12, r20
    3710:	8c 85       	ldd	r24, Y+12	; 0x0c
    3712:	84 30       	cpi	r24, 0x04	; 4
    3714:	09 f0       	breq	.+2      	;  0x3718
    3716:	4e c0       	rjmp	.+156    	;  0x37b4
    3718:	93 e0       	ldi	r25, 0x03	; 3
    371a:	e9 2e       	mov	r14, r25
    371c:	94 e0       	ldi	r25, 0x04	; 4
    371e:	f9 2e       	mov	r15, r25
    3720:	00 e0       	ldi	r16, 0x00	; 0
    3722:	10 e0       	ldi	r17, 0x00	; 0
    3724:	c7 01       	movw	r24, r14
    3726:	0e 94 1e 14 	call	0x283c	;  0x283c
    372a:	81 11       	cpse	r24, r1
    372c:	02 c0       	rjmp	.+4      	;  0x3732
    372e:	0c 87       	std	Y+12, r16	; 0x0c
    3730:	0a c0       	rjmp	.+20     	;  0x3746
    3732:	88 31       	cpi	r24, 0x18	; 24
    3734:	e1 f3       	breq	.-8      	;  0x372e
    3736:	8c 31       	cpi	r24, 0x1C	; 28
    3738:	d1 f3       	breq	.-12     	;  0x372e
    373a:	0f 5f       	subi	r16, 0xFF	; 255
    373c:	1f 4f       	sbci	r17, 0xFF	; 255
    373e:	f3 94       	inc	r15
    3740:	04 30       	cpi	r16, 0x04	; 4
    3742:	11 05       	cpc	r17, r1
    3744:	79 f7       	brne	.-34     	;  0x3724
    3746:	8c 85       	ldd	r24, Y+12	; 0x0c
    3748:	84 30       	cpi	r24, 0x04	; 4
    374a:	a1 f1       	breq	.+104    	;  0x37b4
    374c:	20 91 03 01 	lds	r18, 0x0103
    3750:	30 91 04 01 	lds	r19, 0x0104
    3754:	2f 5f       	subi	r18, 0xFF	; 255
    3756:	3f 4f       	sbci	r19, 0xFF	; 255
    3758:	09 f0       	breq	.+2      	;  0x375c
    375a:	02 c0       	rjmp	.+4      	;  0x3760
    375c:	20 e0       	ldi	r18, 0x00	; 0
    375e:	34 e0       	ldi	r19, 0x04	; 4
    3760:	30 93 04 01 	sts	0x0104, r19
    3764:	20 93 03 01 	sts	0x0103, r18
    3768:	40 91 03 01 	lds	r20, 0x0103
    376c:	50 91 04 01 	lds	r21, 0x0104
    3770:	20 e0       	ldi	r18, 0x00	; 0
    3772:	61 e0       	ldi	r22, 0x01	; 1
    3774:	0e 94 d4 11 	call	0x23a8	;  0x23a8
    3778:	b5 01       	movw	r22, r10
    377a:	6e 5f       	subi	r22, 0xFE	; 254
    377c:	7f 4f       	sbci	r23, 0xFF	; 255
    377e:	a6 01       	movw	r20, r12
    3780:	8c 85       	ldd	r24, Y+12	; 0x0c
    3782:	0e 94 28 12 	call	0x2450	;  0x2450
    3786:	09 c0       	rjmp	.+18     	;  0x379a
    3788:	61 e0       	ldi	r22, 0x01	; 1
    378a:	70 e0       	ldi	r23, 0x00	; 0
    378c:	80 e0       	ldi	r24, 0x00	; 0
    378e:	90 e0       	ldi	r25, 0x00	; 0
    3790:	0e 94 8b 24 	call	0x4916	;  0x4916
    3794:	ce 01       	movw	r24, r28
    3796:	0e 94 07 1b 	call	0x360e	;  0x360e
    379a:	81 11       	cpse	r24, r1
    379c:	03 c0       	rjmp	.+6      	;  0x37a4
    379e:	84 e0       	ldi	r24, 0x04	; 4
    37a0:	8c 87       	std	Y+12, r24	; 0x0c
    37a2:	08 c0       	rjmp	.+16     	;  0x37b4
    37a4:	ce 01       	movw	r24, r28
    37a6:	0e 94 07 1b 	call	0x360e	;  0x360e
    37aa:	87 31       	cpi	r24, 0x17	; 23
    37ac:	69 f7       	brne	.-38     	;  0x3788
    37ae:	21 e0       	ldi	r18, 0x01	; 1
    37b0:	30 e0       	ldi	r19, 0x00	; 0
    37b2:	02 c0       	rjmp	.+4      	;  0x37b8
    37b4:	20 e0       	ldi	r18, 0x00	; 0
    37b6:	30 e0       	ldi	r19, 0x00	; 0
    37b8:	c9 01       	movw	r24, r18
    37ba:	df 91       	pop	r29
    37bc:	cf 91       	pop	r28
    37be:	1f 91       	pop	r17
    37c0:	0f 91       	pop	r16
    37c2:	ff 90       	pop	r15
    37c4:	ef 90       	pop	r14
    37c6:	df 90       	pop	r13
    37c8:	cf 90       	pop	r12
    37ca:	bf 90       	pop	r11
    37cc:	af 90       	pop	r10
    37ce:	08 95       	ret
    37d0:	0f 93       	push	r16
    37d2:	00 e0       	ldi	r16, 0x00	; 0
    37d4:	20 e0       	ldi	r18, 0x00	; 0
    37d6:	40 e0       	ldi	r20, 0x00	; 0
    37d8:	60 e0       	ldi	r22, 0x00	; 0
    37da:	8f e2       	ldi	r24, 0x2F	; 47
    37dc:	96 e0       	ldi	r25, 0x06	; 6
    37de:	0e 94 b5 21 	call	0x436a	;  0x436a
    37e2:	0f 91       	pop	r16
    37e4:	08 95       	ret
    37e6:	cf 93       	push	r28
    37e8:	df 93       	push	r29
    37ea:	1f 92       	push	r1
    37ec:	cd b7       	in	r28, 0x3d	; 61
    37ee:	de b7       	in	r29, 0x3e	; 62
    37f0:	69 83       	std	Y+1, r22	; 0x01
    37f2:	dc 01       	movw	r26, r24
    37f4:	ed 91       	ld	r30, X+
    37f6:	fc 91       	ld	r31, X
    37f8:	02 80       	ldd	r0, Z+2	; 0x02
    37fa:	f3 81       	ldd	r31, Z+3	; 0x03
    37fc:	e0 2d       	mov	r30, r0
    37fe:	41 e0       	ldi	r20, 0x01	; 1
    3800:	50 e0       	ldi	r21, 0x00	; 0
    3802:	be 01       	movw	r22, r28
    3804:	6f 5f       	subi	r22, 0xFF	; 255
    3806:	7f 4f       	sbci	r23, 0xFF	; 255
    3808:	09 95       	icall
    380a:	0f 90       	pop	r0
    380c:	df 91       	pop	r29
    380e:	cf 91       	pop	r28
    3810:	08 95       	ret
    3812:	ef 92       	push	r14
    3814:	ff 92       	push	r15
    3816:	0f 93       	push	r16
    3818:	1f 93       	push	r17
    381a:	cf 93       	push	r28
    381c:	df 93       	push	r29
    381e:	cd b7       	in	r28, 0x3d	; 61
    3820:	de b7       	in	r29, 0x3e	; 62
    3822:	2d 97       	sbiw	r28, 0x0d	; 13
    3824:	0f b6       	in	r0, 0x3f	; 63
    3826:	f8 94       	cli
    3828:	de bf       	out	0x3e, r29	; 62
    382a:	0f be       	out	0x3f, r0	; 63
    382c:	cd bf       	out	0x3d, r28	; 61
    382e:	7c 01       	movw	r14, r24
    3830:	00 e0       	ldi	r16, 0x00	; 0
    3832:	10 e0       	ldi	r17, 0x00	; 0
    3834:	60 2f       	mov	r22, r16
    3836:	ce 01       	movw	r24, r28
    3838:	01 96       	adiw	r24, 0x01	; 1
    383a:	0e 94 f5 1a 	call	0x35ea	;  0x35ea
    383e:	ce 01       	movw	r24, r28
    3840:	01 96       	adiw	r24, 0x01	; 1
    3842:	0e 94 07 1b 	call	0x360e	;  0x360e
    3846:	81 11       	cpse	r24, r1
    3848:	16 c0       	rjmp	.+44     	;  0x3876
    384a:	f7 01       	movw	r30, r14
    384c:	44 81       	ldd	r20, Z+4	; 0x04
    384e:	55 81       	ldd	r21, Z+5	; 0x05
    3850:	20 e0       	ldi	r18, 0x00	; 0
    3852:	61 e0       	ldi	r22, 0x01	; 1
    3854:	80 2f       	mov	r24, r16
    3856:	0e 94 d4 11 	call	0x23a8	;  0x23a8
    385a:	80 2f       	mov	r24, r16
    385c:	0e 94 14 12 	call	0x2428	;  0x2428
    3860:	f7 01       	movw	r30, r14
    3862:	84 81       	ldd	r24, Z+4	; 0x04
    3864:	95 81       	ldd	r25, Z+5	; 0x05
    3866:	f8 01       	movw	r30, r16
    3868:	ee 0f       	add	r30, r30
    386a:	ff 1f       	adc	r31, r31
    386c:	ef 5d       	subi	r30, 0xDF	; 223
    386e:	f9 4f       	sbci	r31, 0xF9	; 249
    3870:	91 83       	std	Z+1, r25	; 0x01
    3872:	80 83       	st	Z, r24
    3874:	05 c0       	rjmp	.+10     	;  0x3880
    3876:	0f 5f       	subi	r16, 0xFF	; 255
    3878:	1f 4f       	sbci	r17, 0xFF	; 255
    387a:	04 30       	cpi	r16, 0x04	; 4
    387c:	11 05       	cpc	r17, r1
    387e:	d1 f6       	brne	.-76     	;  0x3834
    3880:	2d 96       	adiw	r28, 0x0d	; 13
    3882:	0f b6       	in	r0, 0x3f	; 63
    3884:	f8 94       	cli
    3886:	de bf       	out	0x3e, r29	; 62
    3888:	0f be       	out	0x3f, r0	; 63
    388a:	cd bf       	out	0x3d, r28	; 61
    388c:	df 91       	pop	r29
    388e:	cf 91       	pop	r28
    3890:	1f 91       	pop	r17
    3892:	0f 91       	pop	r16
    3894:	ff 90       	pop	r15
    3896:	ef 90       	pop	r14
    3898:	08 95       	ret
    389a:	fc 01       	movw	r30, r24
    389c:	13 82       	std	Z+3, r1	; 0x03
    389e:	12 82       	std	Z+2, r1	; 0x02
    38a0:	86 e0       	ldi	r24, 0x06	; 6
    38a2:	93 e0       	ldi	r25, 0x03	; 3
    38a4:	91 83       	std	Z+1, r25	; 0x01
    38a6:	80 83       	st	Z, r24
    38a8:	75 83       	std	Z+5, r23	; 0x05
    38aa:	64 83       	std	Z+4, r22	; 0x04
    38ac:	08 95       	ret
    38ae:	bf 92       	push	r11
    38b0:	cf 92       	push	r12
    38b2:	df 92       	push	r13
    38b4:	ef 92       	push	r14
    38b6:	ff 92       	push	r15
    38b8:	0f 93       	push	r16
    38ba:	1f 93       	push	r17
    38bc:	cf 93       	push	r28
    38be:	df 93       	push	r29
    38c0:	cd b7       	in	r28, 0x3d	; 61
    38c2:	de b7       	in	r29, 0x3e	; 62
    38c4:	2d 97       	sbiw	r28, 0x0d	; 13
    38c6:	0f b6       	in	r0, 0x3f	; 63
    38c8:	f8 94       	cli
    38ca:	de bf       	out	0x3e, r29	; 62
    38cc:	0f be       	out	0x3f, r0	; 63
    38ce:	cd bf       	out	0x3d, r28	; 61
    38d0:	8c 01       	movw	r16, r24
    38d2:	41 e2       	ldi	r20, 0x21	; 33
    38d4:	c4 2e       	mov	r12, r20
    38d6:	46 e0       	ldi	r20, 0x06	; 6
    38d8:	d4 2e       	mov	r13, r20
    38da:	b1 2c       	mov	r11, r1
    38dc:	e1 2c       	mov	r14, r1
    38de:	f1 2c       	mov	r15, r1
    38e0:	6b 2d       	mov	r22, r11
    38e2:	ce 01       	movw	r24, r28
    38e4:	01 96       	adiw	r24, 0x01	; 1
    38e6:	0e 94 f5 1a 	call	0x35ea	;  0x35ea
    38ea:	d6 01       	movw	r26, r12
    38ec:	2d 91       	ld	r18, X+
    38ee:	3d 91       	ld	r19, X+
    38f0:	6d 01       	movw	r12, r26
    38f2:	f8 01       	movw	r30, r16
    38f4:	84 81       	ldd	r24, Z+4	; 0x04
    38f6:	95 81       	ldd	r25, Z+5	; 0x05
    38f8:	28 17       	cp	r18, r24
    38fa:	39 07       	cpc	r19, r25
    38fc:	b1 f4       	brne	.+44     	;  0x392a
    38fe:	ce 01       	movw	r24, r28
    3900:	01 96       	adiw	r24, 0x01	; 1
    3902:	0e 94 07 1b 	call	0x360e	;  0x360e
    3906:	84 31       	cpi	r24, 0x14	; 20
    3908:	69 f0       	breq	.+26     	;  0x3924
    390a:	ce 01       	movw	r24, r28
    390c:	01 96       	adiw	r24, 0x01	; 1
    390e:	0e 94 07 1b 	call	0x360e	;  0x360e
    3912:	8c 31       	cpi	r24, 0x1C	; 28
    3914:	51 f4       	brne	.+20     	;  0x392a
    3916:	ce 01       	movw	r24, r28
    3918:	01 96       	adiw	r24, 0x01	; 1
    391a:	0e 94 6b 1a 	call	0x34d6	;  0x34d6
    391e:	89 2b       	or	r24, r25
    3920:	99 f0       	breq	.+38     	;  0x3948
    3922:	03 c0       	rjmp	.+6      	;  0x392a
    3924:	ee 24       	eor	r14, r14
    3926:	e3 94       	inc	r14
    3928:	f1 2c       	mov	r15, r1
    392a:	b3 94       	inc	r11
    392c:	f4 e0       	ldi	r31, 0x04	; 4
    392e:	bf 12       	cpse	r11, r31
    3930:	d7 cf       	rjmp	.-82     	;  0x38e0
    3932:	ef 28       	or	r14, r15
    3934:	71 f4       	brne	.+28     	;  0x3952
    3936:	d8 01       	movw	r26, r16
    3938:	ed 91       	ld	r30, X+
    393a:	fc 91       	ld	r31, X
    393c:	04 80       	ldd	r0, Z+4	; 0x04
    393e:	f5 81       	ldd	r31, Z+5	; 0x05
    3940:	e0 2d       	mov	r30, r0
    3942:	c8 01       	movw	r24, r16
    3944:	09 95       	icall
    3946:	05 c0       	rjmp	.+10     	;  0x3952
    3948:	ce 01       	movw	r24, r28
    394a:	01 96       	adiw	r24, 0x01	; 1
    394c:	0e 94 38 1b 	call	0x3670	;  0x3670
    3950:	ec cf       	rjmp	.-40     	;  0x392a
    3952:	2d 96       	adiw	r28, 0x0d	; 13
    3954:	0f b6       	in	r0, 0x3f	; 63
    3956:	f8 94       	cli
    3958:	de bf       	out	0x3e, r29	; 62
    395a:	0f be       	out	0x3f, r0	; 63
    395c:	cd bf       	out	0x3d, r28	; 61
    395e:	df 91       	pop	r29
    3960:	cf 91       	pop	r28
    3962:	1f 91       	pop	r17
    3964:	0f 91       	pop	r16
    3966:	ff 90       	pop	r15
    3968:	ef 90       	pop	r14
    396a:	df 90       	pop	r13
    396c:	cf 90       	pop	r12
    396e:	bf 90       	pop	r11
    3970:	08 95       	ret
    3972:	7f 92       	push	r7
    3974:	8f 92       	push	r8
    3976:	9f 92       	push	r9
    3978:	af 92       	push	r10
    397a:	bf 92       	push	r11
    397c:	cf 92       	push	r12
    397e:	df 92       	push	r13
    3980:	ef 92       	push	r14
    3982:	ff 92       	push	r15
    3984:	0f 93       	push	r16
    3986:	1f 93       	push	r17
    3988:	cf 93       	push	r28
    398a:	df 93       	push	r29
    398c:	cd b7       	in	r28, 0x3d	; 61
    398e:	de b7       	in	r29, 0x3e	; 62
    3990:	2d 97       	sbiw	r28, 0x0d	; 13
    3992:	0f b6       	in	r0, 0x3f	; 63
    3994:	f8 94       	cli
    3996:	de bf       	out	0x3e, r29	; 62
    3998:	0f be       	out	0x3f, r0	; 63
    399a:	cd bf       	out	0x3d, r28	; 61
    399c:	6c 01       	movw	r12, r24
    399e:	5b 01       	movw	r10, r22
    39a0:	4a 01       	movw	r8, r20
    39a2:	0e 94 57 1c 	call	0x38ae	;  0x38ae
    39a6:	51 e2       	ldi	r21, 0x21	; 33
    39a8:	e5 2e       	mov	r14, r21
    39aa:	56 e0       	ldi	r21, 0x06	; 6
    39ac:	f5 2e       	mov	r15, r21
    39ae:	71 2c       	mov	r7, r1
    39b0:	00 e0       	ldi	r16, 0x00	; 0
    39b2:	10 e0       	ldi	r17, 0x00	; 0
    39b4:	67 2d       	mov	r22, r7
    39b6:	ce 01       	movw	r24, r28
    39b8:	01 96       	adiw	r24, 0x01	; 1
    39ba:	0e 94 f5 1a 	call	0x35ea	;  0x35ea
    39be:	f7 01       	movw	r30, r14
    39c0:	21 91       	ld	r18, Z+
    39c2:	31 91       	ld	r19, Z+
    39c4:	7f 01       	movw	r14, r30
    39c6:	f6 01       	movw	r30, r12
    39c8:	84 81       	ldd	r24, Z+4	; 0x04
    39ca:	95 81       	ldd	r25, Z+5	; 0x05
    39cc:	28 17       	cp	r18, r24
    39ce:	39 07       	cpc	r19, r25
    39d0:	31 f4       	brne	.+12     	;  0x39de
    39d2:	ce 01       	movw	r24, r28
    39d4:	01 96       	adiw	r24, 0x01	; 1
    39d6:	0e 94 07 1b 	call	0x360e	;  0x360e
    39da:	87 31       	cpi	r24, 0x17	; 23
    39dc:	29 f0       	breq	.+10     	;  0x39e8
    39de:	73 94       	inc	r7
    39e0:	f4 e0       	ldi	r31, 0x04	; 4
    39e2:	7f 12       	cpse	r7, r31
    39e4:	e7 cf       	rjmp	.-50     	;  0x39b4
    39e6:	09 c0       	rjmp	.+18     	;  0x39fa
    39e8:	a4 01       	movw	r20, r8
    39ea:	b5 01       	movw	r22, r10
    39ec:	ce 01       	movw	r24, r28
    39ee:	01 96       	adiw	r24, 0x01	; 1
    39f0:	0e 94 76 1a 	call	0x34ec	;  0x34ec
    39f4:	08 0f       	add	r16, r24
    39f6:	19 1f       	adc	r17, r25
    39f8:	f2 cf       	rjmp	.-28     	;  0x39de
    39fa:	c8 01       	movw	r24, r16
    39fc:	2d 96       	adiw	r28, 0x0d	; 13
    39fe:	0f b6       	in	r0, 0x3f	; 63
    3a00:	f8 94       	cli
    3a02:	de bf       	out	0x3e, r29	; 62
    3a04:	0f be       	out	0x3f, r0	; 63
    3a06:	cd bf       	out	0x3d, r28	; 61
    3a08:	df 91       	pop	r29
    3a0a:	cf 91       	pop	r28
    3a0c:	1f 91       	pop	r17
    3a0e:	0f 91       	pop	r16
    3a10:	ff 90       	pop	r15
    3a12:	ef 90       	pop	r14
    3a14:	df 90       	pop	r13
    3a16:	cf 90       	pop	r12
    3a18:	bf 90       	pop	r11
    3a1a:	af 90       	pop	r10
    3a1c:	9f 90       	pop	r9
    3a1e:	8f 90       	pop	r8
    3a20:	7f 90       	pop	r7
    3a22:	08 95       	ret
    3a24:	bf 92       	push	r11
    3a26:	cf 92       	push	r12
    3a28:	df 92       	push	r13
    3a2a:	ef 92       	push	r14
    3a2c:	ff 92       	push	r15
    3a2e:	0f 93       	push	r16
    3a30:	1f 93       	push	r17
    3a32:	cf 93       	push	r28
    3a34:	df 93       	push	r29
    3a36:	cd b7       	in	r28, 0x3d	; 61
    3a38:	de b7       	in	r29, 0x3e	; 62
    3a3a:	2d 97       	sbiw	r28, 0x0d	; 13
    3a3c:	0f b6       	in	r0, 0x3f	; 63
    3a3e:	f8 94       	cli
    3a40:	de bf       	out	0x3e, r29	; 62
    3a42:	0f be       	out	0x3f, r0	; 63
    3a44:	cd bf       	out	0x3d, r28	; 61
    3a46:	8c 01       	movw	r16, r24
    3a48:	6b 01       	movw	r12, r22
    3a4a:	cb 01       	movw	r24, r22
    3a4c:	0e 94 57 1c 	call	0x38ae	;  0x38ae
    3a50:	61 e2       	ldi	r22, 0x21	; 33
    3a52:	e6 2e       	mov	r14, r22
    3a54:	66 e0       	ldi	r22, 0x06	; 6
    3a56:	f6 2e       	mov	r15, r22
    3a58:	b1 2c       	mov	r11, r1
    3a5a:	6b 2d       	mov	r22, r11
    3a5c:	ce 01       	movw	r24, r28
    3a5e:	01 96       	adiw	r24, 0x01	; 1
    3a60:	0e 94 f5 1a 	call	0x35ea	;  0x35ea
    3a64:	f7 01       	movw	r30, r14
    3a66:	21 91       	ld	r18, Z+
    3a68:	31 91       	ld	r19, Z+
    3a6a:	7f 01       	movw	r14, r30
    3a6c:	f6 01       	movw	r30, r12
    3a6e:	84 81       	ldd	r24, Z+4	; 0x04
    3a70:	95 81       	ldd	r25, Z+5	; 0x05
    3a72:	28 17       	cp	r18, r24
    3a74:	39 07       	cpc	r19, r25
    3a76:	49 f5       	brne	.+82     	;  0x3aca
    3a78:	ce 01       	movw	r24, r28
    3a7a:	01 96       	adiw	r24, 0x01	; 1
    3a7c:	0e 94 07 1b 	call	0x360e	;  0x360e
    3a80:	87 31       	cpi	r24, 0x17	; 23
    3a82:	61 f1       	breq	.+88     	;  0x3adc
    3a84:	ce 01       	movw	r24, r28
    3a86:	01 96       	adiw	r24, 0x01	; 1
    3a88:	0e 94 07 1b 	call	0x360e	;  0x360e
    3a8c:	8c 31       	cpi	r24, 0x1C	; 28
    3a8e:	e9 f4       	brne	.+58     	;  0x3aca
    3a90:	25 c0       	rjmp	.+74     	;  0x3adc
    3a92:	8b 81       	ldd	r24, Y+3	; 0x03
    3a94:	9c 81       	ldd	r25, Y+4	; 0x04
    3a96:	f8 01       	movw	r30, r16
    3a98:	93 83       	std	Z+3, r25	; 0x03
    3a9a:	82 83       	std	Z+2, r24	; 0x02
    3a9c:	8d 81       	ldd	r24, Y+5	; 0x05
    3a9e:	9e 81       	ldd	r25, Y+6	; 0x06
    3aa0:	af 81       	ldd	r26, Y+7	; 0x07
    3aa2:	b8 85       	ldd	r27, Y+8	; 0x08
    3aa4:	84 83       	std	Z+4, r24	; 0x04
    3aa6:	95 83       	std	Z+5, r25	; 0x05
    3aa8:	a6 83       	std	Z+6, r26	; 0x06
    3aaa:	b7 83       	std	Z+7, r27	; 0x07
    3aac:	49 85       	ldd	r20, Y+9	; 0x09
    3aae:	5a 85       	ldd	r21, Y+10	; 0x0a
    3ab0:	6b 85       	ldd	r22, Y+11	; 0x0b
    3ab2:	7c 85       	ldd	r23, Y+12	; 0x0c
    3ab4:	40 87       	std	Z+8, r20	; 0x08
    3ab6:	51 87       	std	Z+9, r21	; 0x09
    3ab8:	62 87       	std	Z+10, r22	; 0x0a
    3aba:	73 87       	std	Z+11, r23	; 0x0b
    3abc:	8a ee       	ldi	r24, 0xEA	; 234
    3abe:	92 e0       	ldi	r25, 0x02	; 2
    3ac0:	91 83       	std	Z+1, r25	; 0x01
    3ac2:	80 83       	st	Z, r24
    3ac4:	8d 85       	ldd	r24, Y+13	; 0x0d
    3ac6:	84 87       	std	Z+12, r24	; 0x0c
    3ac8:	10 c0       	rjmp	.+32     	;  0x3aea
    3aca:	b3 94       	inc	r11
    3acc:	f4 e0       	ldi	r31, 0x04	; 4
    3ace:	bf 12       	cpse	r11, r31
    3ad0:	c4 cf       	rjmp	.-120    	;  0x3a5a
    3ad2:	64 e0       	ldi	r22, 0x04	; 4
    3ad4:	c8 01       	movw	r24, r16
    3ad6:	0e 94 f5 1a 	call	0x35ea	;  0x35ea
    3ada:	07 c0       	rjmp	.+14     	;  0x3aea
    3adc:	ce 01       	movw	r24, r28
    3ade:	01 96       	adiw	r24, 0x01	; 1
    3ae0:	0e 94 6b 1a 	call	0x34d6	;  0x34d6
    3ae4:	89 2b       	or	r24, r25
    3ae6:	89 f3       	breq	.-30     	;  0x3aca
    3ae8:	d4 cf       	rjmp	.-88     	;  0x3a92
    3aea:	c8 01       	movw	r24, r16
    3aec:	2d 96       	adiw	r28, 0x0d	; 13
    3aee:	0f b6       	in	r0, 0x3f	; 63
    3af0:	f8 94       	cli
    3af2:	de bf       	out	0x3e, r29	; 62
    3af4:	0f be       	out	0x3f, r0	; 63
    3af6:	cd bf       	out	0x3d, r28	; 61
    3af8:	df 91       	pop	r29
    3afa:	cf 91       	pop	r28
    3afc:	1f 91       	pop	r17
    3afe:	0f 91       	pop	r16
    3b00:	ff 90       	pop	r15
    3b02:	ef 90       	pop	r14
    3b04:	df 90       	pop	r13
    3b06:	cf 90       	pop	r12
    3b08:	bf 90       	pop	r11
    3b0a:	08 95       	ret
    3b0c:	0f 93       	push	r16
    3b0e:	00 e0       	ldi	r16, 0x00	; 0
    3b10:	20 e0       	ldi	r18, 0x00	; 0
    3b12:	40 e0       	ldi	r20, 0x00	; 0
    3b14:	60 e0       	ldi	r22, 0x00	; 0
    3b16:	85 e3       	ldi	r24, 0x35	; 53
    3b18:	96 e0       	ldi	r25, 0x06	; 6
    3b1a:	0e 94 b5 21 	call	0x436a	;  0x436a
    3b1e:	0f 91       	pop	r16
    3b20:	08 95       	ret
    3b22:	dc 01       	movw	r26, r24
    3b24:	ed 91       	ld	r30, X+
    3b26:	fc 91       	ld	r31, X
    3b28:	00 8c       	ldd	r0, Z+24	; 0x18
    3b2a:	f1 8d       	ldd	r31, Z+25	; 0x19
    3b2c:	e0 2d       	mov	r30, r0
    3b2e:	09 94       	ijmp
    3b30:	24 e4       	ldi	r18, 0x44	; 68
    3b32:	33 e0       	ldi	r19, 0x03	; 3
    3b34:	fc 01       	movw	r30, r24
    3b36:	31 83       	std	Z+1, r19	; 0x01
    3b38:	20 83       	st	Z, r18
    3b3a:	fb 01       	movw	r30, r22
    3b3c:	41 89       	ldd	r20, Z+17	; 0x11
    3b3e:	52 89       	ldd	r21, Z+18	; 0x12
    3b40:	63 89       	ldd	r22, Z+19	; 0x13
    3b42:	74 89       	ldd	r23, Z+20	; 0x14
    3b44:	fc 01       	movw	r30, r24
    3b46:	42 83       	std	Z+2, r20	; 0x02
    3b48:	53 83       	std	Z+3, r21	; 0x03
    3b4a:	64 83       	std	Z+4, r22	; 0x04
    3b4c:	75 83       	std	Z+5, r23	; 0x05
    3b4e:	08 95       	ret
    3b50:	fc 01       	movw	r30, r24
    3b52:	85 89       	ldd	r24, Z+21	; 0x15
    3b54:	96 89       	ldd	r25, Z+22	; 0x16
    3b56:	08 95       	ret
    3b58:	fc 01       	movw	r30, r24
    3b5a:	81 8d       	ldd	r24, Z+25	; 0x19
    3b5c:	92 8d       	ldd	r25, Z+26	; 0x1a
    3b5e:	08 95       	ret
    3b60:	cf 93       	push	r28
    3b62:	df 93       	push	r29
    3b64:	1f 92       	push	r1
    3b66:	cd b7       	in	r28, 0x3d	; 61
    3b68:	de b7       	in	r29, 0x3e	; 62
    3b6a:	69 83       	std	Y+1, r22	; 0x01
    3b6c:	dc 01       	movw	r26, r24
    3b6e:	ed 91       	ld	r30, X+
    3b70:	fc 91       	ld	r31, X
    3b72:	02 80       	ldd	r0, Z+2	; 0x02
    3b74:	f3 81       	ldd	r31, Z+3	; 0x03
    3b76:	e0 2d       	mov	r30, r0
    3b78:	41 e0       	ldi	r20, 0x01	; 1
    3b7a:	50 e0       	ldi	r21, 0x00	; 0
    3b7c:	be 01       	movw	r22, r28
    3b7e:	6f 5f       	subi	r22, 0xFF	; 255
    3b80:	7f 4f       	sbci	r23, 0xFF	; 255
    3b82:	09 95       	icall
    3b84:	0f 90       	pop	r0
    3b86:	df 91       	pop	r29
    3b88:	cf 91       	pop	r28
    3b8a:	08 95       	ret
    3b8c:	cf 93       	push	r28
    3b8e:	df 93       	push	r29
    3b90:	ec 01       	movw	r28, r24
    3b92:	07 c0       	rjmp	.+14     	;  0x3ba2
    3b94:	e8 81       	ld	r30, Y
    3b96:	f9 81       	ldd	r31, Y+1	; 0x01
    3b98:	06 80       	ldd	r0, Z+6	; 0x06
    3b9a:	f7 81       	ldd	r31, Z+7	; 0x07
    3b9c:	e0 2d       	mov	r30, r0
    3b9e:	ce 01       	movw	r24, r28
    3ba0:	09 95       	icall
    3ba2:	89 8d       	ldd	r24, Y+25	; 0x19
    3ba4:	9a 8d       	ldd	r25, Y+26	; 0x1a
    3ba6:	89 2b       	or	r24, r25
    3ba8:	a9 f7       	brne	.-22     	;  0x3b94
    3baa:	df 91       	pop	r29
    3bac:	cf 91       	pop	r28
    3bae:	08 95       	ret
    3bb0:	cf 93       	push	r28
    3bb2:	df 93       	push	r29
    3bb4:	1f 92       	push	r1
    3bb6:	cd b7       	in	r28, 0x3d	; 61
    3bb8:	de b7       	in	r29, 0x3e	; 62
    3bba:	fc 01       	movw	r30, r24
    3bbc:	21 8d       	ldd	r18, Z+25	; 0x19
    3bbe:	32 8d       	ldd	r19, Z+26	; 0x1a
    3bc0:	23 2b       	or	r18, r19
    3bc2:	49 f0       	breq	.+18     	;  0x3bd6
    3bc4:	be 01       	movw	r22, r28
    3bc6:	6f 5f       	subi	r22, 0xFF	; 255
    3bc8:	7f 4f       	sbci	r23, 0xFF	; 255
    3bca:	84 85       	ldd	r24, Z+12	; 0x0c
    3bcc:	0e 94 f7 12 	call	0x25ee	;  0x25ee
    3bd0:	29 81       	ldd	r18, Y+1	; 0x01
    3bd2:	30 e0       	ldi	r19, 0x00	; 0
    3bd4:	02 c0       	rjmp	.+4      	;  0x3bda
    3bd6:	2f ef       	ldi	r18, 0xFF	; 255
    3bd8:	3f ef       	ldi	r19, 0xFF	; 255
    3bda:	c9 01       	movw	r24, r18
    3bdc:	0f 90       	pop	r0
    3bde:	df 91       	pop	r29
    3be0:	cf 91       	pop	r28
    3be2:	08 95       	ret
    3be4:	cf 93       	push	r28
    3be6:	df 93       	push	r29
    3be8:	ec 01       	movw	r28, r24
    3bea:	89 8d       	ldd	r24, Y+25	; 0x19
    3bec:	9a 8d       	ldd	r25, Y+26	; 0x1a
    3bee:	00 97       	sbiw	r24, 0x00	; 0
    3bf0:	19 f4       	brne	.+6      	;  0x3bf8
    3bf2:	2f ef       	ldi	r18, 0xFF	; 255
    3bf4:	3f ef       	ldi	r19, 0xFF	; 255
    3bf6:	11 c0       	rjmp	.+34     	;  0x3c1a
    3bf8:	48 17       	cp	r20, r24
    3bfa:	59 07       	cpc	r21, r25
    3bfc:	08 f0       	brcs	.+2      	;  0x3c00
    3bfe:	ac 01       	movw	r20, r24
    3c00:	8c 85       	ldd	r24, Y+12	; 0x0c
    3c02:	0e 94 b8 12 	call	0x2570	;  0x2570
    3c06:	9c 01       	movw	r18, r24
    3c08:	18 16       	cp	r1, r24
    3c0a:	19 06       	cpc	r1, r25
    3c0c:	94 f7       	brge	.-28     	;  0x3bf2
    3c0e:	89 8d       	ldd	r24, Y+25	; 0x19
    3c10:	9a 8d       	ldd	r25, Y+26	; 0x1a
    3c12:	82 1b       	sub	r24, r18
    3c14:	93 0b       	sbc	r25, r19
    3c16:	9a 8f       	std	Y+26, r25	; 0x1a
    3c18:	89 8f       	std	Y+25, r24	; 0x19
    3c1a:	c9 01       	movw	r24, r18
    3c1c:	df 91       	pop	r29
    3c1e:	cf 91       	pop	r28
    3c20:	08 95       	ret
    3c22:	0f 93       	push	r16
    3c24:	1f 93       	push	r17
    3c26:	cf 93       	push	r28
    3c28:	df 93       	push	r29
    3c2a:	1f 92       	push	r1
    3c2c:	cd b7       	in	r28, 0x3d	; 61
    3c2e:	de b7       	in	r29, 0x3e	; 62
    3c30:	8c 01       	movw	r16, r24
    3c32:	fc 01       	movw	r30, r24
    3c34:	81 8d       	ldd	r24, Z+25	; 0x19
    3c36:	92 8d       	ldd	r25, Z+26	; 0x1a
    3c38:	89 2b       	or	r24, r25
    3c3a:	59 f0       	breq	.+22     	;  0x3c52
    3c3c:	41 e0       	ldi	r20, 0x01	; 1
    3c3e:	50 e0       	ldi	r21, 0x00	; 0
    3c40:	be 01       	movw	r22, r28
    3c42:	6f 5f       	subi	r22, 0xFF	; 255
    3c44:	7f 4f       	sbci	r23, 0xFF	; 255
    3c46:	84 85       	ldd	r24, Z+12	; 0x0c
    3c48:	0e 94 b8 12 	call	0x2570	;  0x2570
    3c4c:	18 16       	cp	r1, r24
    3c4e:	19 06       	cpc	r1, r25
    3c50:	1c f0       	brlt	.+6      	;  0x3c58
    3c52:	2f ef       	ldi	r18, 0xFF	; 255
    3c54:	3f ef       	ldi	r19, 0xFF	; 255
    3c56:	08 c0       	rjmp	.+16     	;  0x3c68
    3c58:	f8 01       	movw	r30, r16
    3c5a:	81 8d       	ldd	r24, Z+25	; 0x19
    3c5c:	92 8d       	ldd	r25, Z+26	; 0x1a
    3c5e:	01 97       	sbiw	r24, 0x01	; 1
    3c60:	92 8f       	std	Z+26, r25	; 0x1a
    3c62:	81 8f       	std	Z+25, r24	; 0x19
    3c64:	29 81       	ldd	r18, Y+1	; 0x01
    3c66:	30 e0       	ldi	r19, 0x00	; 0
    3c68:	c9 01       	movw	r24, r18
    3c6a:	0f 90       	pop	r0
    3c6c:	df 91       	pop	r29
    3c6e:	cf 91       	pop	r28
    3c70:	1f 91       	pop	r17
    3c72:	0f 91       	pop	r16
    3c74:	08 95       	ret
    3c76:	cf 93       	push	r28
    3c78:	df 93       	push	r29
    3c7a:	ec 01       	movw	r28, r24
    3c7c:	9a 01       	movw	r18, r20
    3c7e:	8f 89       	ldd	r24, Y+23	; 0x17
    3c80:	98 8d       	ldd	r25, Y+24	; 0x18
    3c82:	ab 01       	movw	r20, r22
    3c84:	bc 01       	movw	r22, r24
    3c86:	8c 85       	ldd	r24, Y+12	; 0x0c
    3c88:	0e 94 05 13 	call	0x260a	;  0x260a
    3c8c:	9c 01       	movw	r18, r24
    3c8e:	8f 89       	ldd	r24, Y+23	; 0x17
    3c90:	98 8d       	ldd	r25, Y+24	; 0x18
    3c92:	82 0f       	add	r24, r18
    3c94:	93 1f       	adc	r25, r19
    3c96:	98 8f       	std	Y+24, r25	; 0x18
    3c98:	8f 8b       	std	Y+23, r24	; 0x17
    3c9a:	c9 01       	movw	r24, r18
    3c9c:	df 91       	pop	r29
    3c9e:	cf 91       	pop	r28
    3ca0:	08 95       	ret
    3ca2:	fc 01       	movw	r30, r24
    3ca4:	84 85       	ldd	r24, Z+12	; 0x0c
    3ca6:	0c 94 61 13 	jmp	0x26c2	;  0x26c2
    3caa:	fc 01       	movw	r30, r24
    3cac:	10 8e       	std	Z+24, r1	; 0x18
    3cae:	17 8a       	std	Z+23, r1	; 0x17
    3cb0:	6e 5f       	subi	r22, 0xFE	; 254
    3cb2:	7f 4f       	sbci	r23, 0xFF	; 255
    3cb4:	84 85       	ldd	r24, Z+12	; 0x0c
    3cb6:	0c 94 3b 13 	jmp	0x2676	;  0x2676
    3cba:	cf 93       	push	r28
    3cbc:	df 93       	push	r29
    3cbe:	ec 01       	movw	r28, r24
    3cc0:	8c 85       	ldd	r24, Y+12	; 0x0c
    3cc2:	84 30       	cpi	r24, 0x04	; 4
    3cc4:	61 f0       	breq	.+24     	;  0x3cde
    3cc6:	0e 94 c6 11 	call	0x238c	;  0x238c
    3cca:	ec 85       	ldd	r30, Y+12	; 0x0c
    3ccc:	f0 e0       	ldi	r31, 0x00	; 0
    3cce:	ee 0f       	add	r30, r30
    3cd0:	ff 1f       	adc	r31, r31
    3cd2:	ef 5d       	subi	r30, 0xDF	; 223
    3cd4:	f9 4f       	sbci	r31, 0xF9	; 249
    3cd6:	11 82       	std	Z+1, r1	; 0x01
    3cd8:	10 82       	st	Z, r1
    3cda:	84 e0       	ldi	r24, 0x04	; 4
    3cdc:	8c 87       	std	Y+12, r24	; 0x0c
    3cde:	df 91       	pop	r29
    3ce0:	cf 91       	pop	r28
    3ce2:	08 95       	ret
    3ce4:	0f 93       	push	r16
    3ce6:	1f 93       	push	r17
    3ce8:	cf 93       	push	r28
    3cea:	df 93       	push	r29
    3cec:	cd b7       	in	r28, 0x3d	; 61
    3cee:	de b7       	in	r29, 0x3e	; 62
    3cf0:	28 97       	sbiw	r28, 0x08	; 8
    3cf2:	0f b6       	in	r0, 0x3f	; 63
    3cf4:	f8 94       	cli
    3cf6:	de bf       	out	0x3e, r29	; 62
    3cf8:	0f be       	out	0x3f, r0	; 63
    3cfa:	cd bf       	out	0x3d, r28	; 61
    3cfc:	8c 01       	movw	r16, r24
    3cfe:	dc 01       	movw	r26, r24
    3d00:	ed 91       	ld	r30, X+
    3d02:	fc 91       	ld	r31, X
    3d04:	02 84       	ldd	r0, Z+10	; 0x0a
    3d06:	f3 85       	ldd	r31, Z+11	; 0x0b
    3d08:	e0 2d       	mov	r30, r0
    3d0a:	09 95       	icall
    3d0c:	f8 01       	movw	r30, r16
    3d0e:	64 85       	ldd	r22, Z+12	; 0x0c
    3d10:	8d ef       	ldi	r24, 0xFD	; 253
    3d12:	95 e0       	ldi	r25, 0x05	; 5
    3d14:	0e 94 cb 14 	call	0x2996	;  0x2996
    3d18:	89 2b       	or	r24, r25
    3d1a:	29 f1       	breq	.+74     	;  0x3d66
    3d1c:	48 e0       	ldi	r20, 0x08	; 8
    3d1e:	50 e0       	ldi	r21, 0x00	; 0
    3d20:	be 01       	movw	r22, r28
    3d22:	6f 5f       	subi	r22, 0xFF	; 255
    3d24:	7f 4f       	sbci	r23, 0xFF	; 255
    3d26:	d8 01       	movw	r26, r16
    3d28:	1c 96       	adiw	r26, 0x0c	; 12
    3d2a:	8c 91       	ld	r24, X
    3d2c:	0e 94 b8 12 	call	0x2570	;  0x2570
    3d30:	9c 01       	movw	r18, r24
    3d32:	18 16       	cp	r1, r24
    3d34:	19 06       	cpc	r1, r25
    3d36:	cc f4       	brge	.+50     	;  0x3d6a
    3d38:	be 01       	movw	r22, r28
    3d3a:	6f 5f       	subi	r22, 0xFF	; 255
    3d3c:	7f 4f       	sbci	r23, 0xFF	; 255
    3d3e:	c8 01       	movw	r24, r16
    3d40:	0f 96       	adiw	r24, 0x0f	; 15
    3d42:	0e 94 c1 21 	call	0x4382	;  0x4382
    3d46:	9d 81       	ldd	r25, Y+5	; 0x05
    3d48:	80 e0       	ldi	r24, 0x00	; 0
    3d4a:	2e 81       	ldd	r18, Y+6	; 0x06
    3d4c:	82 0f       	add	r24, r18
    3d4e:	91 1d       	adc	r25, r1
    3d50:	f8 01       	movw	r30, r16
    3d52:	96 8b       	std	Z+22, r25	; 0x16
    3d54:	85 8b       	std	Z+21, r24	; 0x15
    3d56:	3f 81       	ldd	r19, Y+7	; 0x07
    3d58:	20 e0       	ldi	r18, 0x00	; 0
    3d5a:	88 85       	ldd	r24, Y+8	; 0x08
    3d5c:	28 0f       	add	r18, r24
    3d5e:	31 1d       	adc	r19, r1
    3d60:	32 8f       	std	Z+26, r19	; 0x1a
    3d62:	21 8f       	std	Z+25, r18	; 0x19
    3d64:	02 c0       	rjmp	.+4      	;  0x3d6a
    3d66:	20 e0       	ldi	r18, 0x00	; 0
    3d68:	30 e0       	ldi	r19, 0x00	; 0
    3d6a:	c9 01       	movw	r24, r18
    3d6c:	28 96       	adiw	r28, 0x08	; 8
    3d6e:	0f b6       	in	r0, 0x3f	; 63
    3d70:	f8 94       	cli
    3d72:	de bf       	out	0x3e, r29	; 62
    3d74:	0f be       	out	0x3f, r0	; 63
    3d76:	cd bf       	out	0x3d, r28	; 61
    3d78:	df 91       	pop	r29
    3d7a:	cf 91       	pop	r28
    3d7c:	1f 91       	pop	r17
    3d7e:	0f 91       	pop	r16
    3d80:	08 95       	ret
    3d82:	cf 92       	push	r12
    3d84:	df 92       	push	r13
    3d86:	ef 92       	push	r14
    3d88:	ff 92       	push	r15
    3d8a:	0f 93       	push	r16
    3d8c:	1f 93       	push	r17
    3d8e:	cf 93       	push	r28
    3d90:	df 93       	push	r29
    3d92:	ec 01       	movw	r28, r24
    3d94:	6b 01       	movw	r12, r22
    3d96:	8c 85       	ldd	r24, Y+12	; 0x0c
    3d98:	84 30       	cpi	r24, 0x04	; 4
    3d9a:	19 f5       	brne	.+70     	;  0x3de2
    3d9c:	93 e0       	ldi	r25, 0x03	; 3
    3d9e:	e9 2e       	mov	r14, r25
    3da0:	94 e0       	ldi	r25, 0x04	; 4
    3da2:	f9 2e       	mov	r15, r25
    3da4:	00 e0       	ldi	r16, 0x00	; 0
    3da6:	10 e0       	ldi	r17, 0x00	; 0
    3da8:	c7 01       	movw	r24, r14
    3daa:	0e 94 1e 14 	call	0x283c	;  0x283c
    3dae:	81 11       	cpse	r24, r1
    3db0:	02 c0       	rjmp	.+4      	;  0x3db6
    3db2:	0c 87       	std	Y+12, r16	; 0x0c
    3db4:	08 c0       	rjmp	.+16     	;  0x3dc6
    3db6:	88 31       	cpi	r24, 0x18	; 24
    3db8:	e1 f3       	breq	.-8      	;  0x3db2
    3dba:	0f 5f       	subi	r16, 0xFF	; 255
    3dbc:	1f 4f       	sbci	r17, 0xFF	; 255
    3dbe:	f3 94       	inc	r15
    3dc0:	04 30       	cpi	r16, 0x04	; 4
    3dc2:	11 05       	cpc	r17, r1
    3dc4:	89 f7       	brne	.-30     	;  0x3da8
    3dc6:	8c 85       	ldd	r24, Y+12	; 0x0c
    3dc8:	84 30       	cpi	r24, 0x04	; 4
    3dca:	59 f0       	breq	.+22     	;  0x3de2
    3dcc:	de 86       	std	Y+14, r13	; 0x0e
    3dce:	cd 86       	std	Y+13, r12	; 0x0d
    3dd0:	1a 8e       	std	Y+26, r1	; 0x1a
    3dd2:	19 8e       	std	Y+25, r1	; 0x19
    3dd4:	20 e0       	ldi	r18, 0x00	; 0
    3dd6:	a6 01       	movw	r20, r12
    3dd8:	62 e0       	ldi	r22, 0x02	; 2
    3dda:	0e 94 d4 11 	call	0x23a8	;  0x23a8
    3dde:	81 e0       	ldi	r24, 0x01	; 1
    3de0:	01 c0       	rjmp	.+2      	;  0x3de4
    3de2:	80 e0       	ldi	r24, 0x00	; 0
    3de4:	df 91       	pop	r29
    3de6:	cf 91       	pop	r28
    3de8:	1f 91       	pop	r17
    3dea:	0f 91       	pop	r16
    3dec:	ff 90       	pop	r15
    3dee:	ef 90       	pop	r14
    3df0:	df 90       	pop	r13
    3df2:	cf 90       	pop	r12
    3df4:	08 95       	ret
    3df6:	fc 01       	movw	r30, r24
    3df8:	13 82       	std	Z+3, r1	; 0x03
    3dfa:	12 82       	std	Z+2, r1	; 0x02
    3dfc:	48 ee       	ldi	r20, 0xE8	; 232
    3dfe:	53 e0       	ldi	r21, 0x03	; 3
    3e00:	60 e0       	ldi	r22, 0x00	; 0
    3e02:	70 e0       	ldi	r23, 0x00	; 0
    3e04:	44 83       	std	Z+4, r20	; 0x04
    3e06:	55 83       	std	Z+5, r21	; 0x05
    3e08:	66 83       	std	Z+6, r22	; 0x06
    3e0a:	77 83       	std	Z+7, r23	; 0x07
    3e0c:	80 e1       	ldi	r24, 0x10	; 16
    3e0e:	93 e0       	ldi	r25, 0x03	; 3
    3e10:	91 83       	std	Z+1, r25	; 0x01
    3e12:	80 83       	st	Z, r24
    3e14:	84 e0       	ldi	r24, 0x04	; 4
    3e16:	84 87       	std	Z+12, r24	; 0x0c
    3e18:	cf 01       	movw	r24, r30
    3e1a:	0f 96       	adiw	r24, 0x0f	; 15
    3e1c:	0c 94 ab 21 	jmp	0x4356	;  0x4356
    3e20:	cf 92       	push	r12
    3e22:	df 92       	push	r13
    3e24:	ef 92       	push	r14
    3e26:	ff 92       	push	r15
    3e28:	0f 93       	push	r16
    3e2a:	1f 93       	push	r17
    3e2c:	cf 93       	push	r28
    3e2e:	df 93       	push	r29
    3e30:	cd b7       	in	r28, 0x3d	; 61
    3e32:	de b7       	in	r29, 0x3e	; 62
    3e34:	af 97       	sbiw	r28, 0x2f	; 47
    3e36:	0f b6       	in	r0, 0x3f	; 63
    3e38:	f8 94       	cli
    3e3a:	de bf       	out	0x3e, r29	; 62
    3e3c:	0f be       	out	0x3f, r0	; 63
    3e3e:	cd bf       	out	0x3d, r28	; 61
    3e40:	7c 01       	movw	r14, r24
    3e42:	8b 01       	movw	r16, r22
    3e44:	6a 01       	movw	r12, r20
    3e46:	ce 01       	movw	r24, r28
    3e48:	01 96       	adiw	r24, 0x01	; 1
    3e4a:	0e 94 ab 21 	call	0x4356	;  0x4356
    3e4e:	ce 01       	movw	r24, r28
    3e50:	09 96       	adiw	r24, 0x09	; 9
    3e52:	0e 94 fb 1e 	call	0x3df6	;  0x3df6
    3e56:	ce 01       	movw	r24, r28
    3e58:	8a 96       	adiw	r24, 0x2a	; 42
    3e5a:	0e 94 ab 21 	call	0x4356	;  0x4356
    3e5e:	69 e1       	ldi	r22, 0x19	; 25
    3e60:	76 e0       	ldi	r23, 0x06	; 6
    3e62:	ce 01       	movw	r24, r28
    3e64:	84 96       	adiw	r24, 0x24	; 36
    3e66:	0e 94 d5 19 	call	0x33aa	;  0x33aa
    3e6a:	be 01       	movw	r22, r28
    3e6c:	6c 5d       	subi	r22, 0xDC	; 220
    3e6e:	7f 4f       	sbci	r23, 0xFF	; 255
    3e70:	ce 01       	movw	r24, r28
    3e72:	01 96       	adiw	r24, 0x01	; 1
    3e74:	0e 94 ea 15 	call	0x2bd4	;  0x2bd4
    3e78:	ae 01       	movw	r20, r28
    3e7a:	46 5d       	subi	r20, 0xD6	; 214
    3e7c:	5f 4f       	sbci	r21, 0xFF	; 255
    3e7e:	b8 01       	movw	r22, r16
    3e80:	ce 01       	movw	r24, r28
    3e82:	01 96       	adiw	r24, 0x01	; 1
    3e84:	0e 94 4e 18 	call	0x309c	;  0x309c
    3e88:	9c 01       	movw	r18, r24
    3e8a:	81 30       	cpi	r24, 0x01	; 1
    3e8c:	91 05       	cpc	r25, r1
    3e8e:	c9 f4       	brne	.+50     	;  0x3ec2
    3e90:	d7 01       	movw	r26, r14
    3e92:	ed 91       	ld	r30, X+
    3e94:	fc 91       	ld	r31, X
    3e96:	00 88       	ldd	r0, Z+16	; 0x10
    3e98:	f1 89       	ldd	r31, Z+17	; 0x11
    3e9a:	e0 2d       	mov	r30, r0
    3e9c:	84 e4       	ldi	r24, 0x44	; 68
    3e9e:	93 e0       	ldi	r25, 0x03	; 3
    3ea0:	9d a3       	std	Y+37, r25	; 0x25
    3ea2:	8c a3       	std	Y+36, r24	; 0x24
    3ea4:	0c a5       	ldd	r16, Y+44	; 0x2c
    3ea6:	1d a5       	ldd	r17, Y+45	; 0x2d
    3ea8:	2e a5       	ldd	r18, Y+46	; 0x2e
    3eaa:	3f a5       	ldd	r19, Y+47	; 0x2f
    3eac:	0e a3       	std	Y+38, r16	; 0x26
    3eae:	1f a3       	std	Y+39, r17	; 0x27
    3eb0:	28 a7       	std	Y+40, r18	; 0x28
    3eb2:	39 a7       	std	Y+41, r19	; 0x29
    3eb4:	a6 01       	movw	r20, r12
    3eb6:	be 01       	movw	r22, r28
    3eb8:	6c 5d       	subi	r22, 0xDC	; 220
    3eba:	7f 4f       	sbci	r23, 0xFF	; 255
    3ebc:	c7 01       	movw	r24, r14
    3ebe:	09 95       	icall
    3ec0:	9c 01       	movw	r18, r24
    3ec2:	c9 01       	movw	r24, r18
    3ec4:	af 96       	adiw	r28, 0x2f	; 47
    3ec6:	0f b6       	in	r0, 0x3f	; 63
    3ec8:	f8 94       	cli
    3eca:	de bf       	out	0x3e, r29	; 62
    3ecc:	0f be       	out	0x3f, r0	; 63
    3ece:	cd bf       	out	0x3d, r28	; 61
    3ed0:	df 91       	pop	r29
    3ed2:	cf 91       	pop	r28
    3ed4:	1f 91       	pop	r17
    3ed6:	0f 91       	pop	r16
    3ed8:	ff 90       	pop	r15
    3eda:	ef 90       	pop	r14
    3edc:	df 90       	pop	r13
    3ede:	cf 90       	pop	r12
    3ee0:	08 95       	ret
    3ee2:	0f 93       	push	r16
    3ee4:	00 e0       	ldi	r16, 0x00	; 0
    3ee6:	20 e0       	ldi	r18, 0x00	; 0
    3ee8:	40 e0       	ldi	r20, 0x00	; 0
    3eea:	60 e0       	ldi	r22, 0x00	; 0
    3eec:	8b e3       	ldi	r24, 0x3B	; 59
    3eee:	96 e0       	ldi	r25, 0x06	; 6
    3ef0:	0e 94 b5 21 	call	0x436a	;  0x436a
    3ef4:	0f 91       	pop	r16
    3ef6:	08 95       	ret
    3ef8:	cb 01       	movw	r24, r22
    3efa:	0c 94 3a 26 	jmp	0x4c74	;  0x4c74
    3efe:	fc 01       	movw	r30, r24
    3f00:	84 85       	ldd	r24, Z+12	; 0x0c
    3f02:	95 85       	ldd	r25, Z+13	; 0x0d
    3f04:	fc 01       	movw	r30, r24
    3f06:	e0 5c       	subi	r30, 0xC0	; 192
    3f08:	ff 4f       	sbci	r31, 0xFF	; 255
    3f0a:	20 81       	ld	r18, Z
    3f0c:	31 81       	ldd	r19, Z+1	; 0x01
    3f0e:	fc 01       	movw	r30, r24
    3f10:	ee 5b       	subi	r30, 0xBE	; 190
    3f12:	ff 4f       	sbci	r31, 0xFF	; 255
    3f14:	80 81       	ld	r24, Z
    3f16:	91 81       	ldd	r25, Z+1	; 0x01
    3f18:	28 1b       	sub	r18, r24
    3f1a:	39 0b       	sbc	r19, r25
    3f1c:	2f 73       	andi	r18, 0x3F	; 63
    3f1e:	33 27       	eor	r19, r19
    3f20:	c9 01       	movw	r24, r18
    3f22:	08 95       	ret
    3f24:	fc 01       	movw	r30, r24
    3f26:	84 85       	ldd	r24, Z+12	; 0x0c
    3f28:	95 85       	ldd	r25, Z+13	; 0x0d
    3f2a:	fc 01       	movw	r30, r24
    3f2c:	e0 5c       	subi	r30, 0xC0	; 192
    3f2e:	ff 4f       	sbci	r31, 0xFF	; 255
    3f30:	40 81       	ld	r20, Z
    3f32:	51 81       	ldd	r21, Z+1	; 0x01
    3f34:	fc 01       	movw	r30, r24
    3f36:	ee 5b       	subi	r30, 0xBE	; 190
    3f38:	ff 4f       	sbci	r31, 0xFF	; 255
    3f3a:	20 81       	ld	r18, Z
    3f3c:	31 81       	ldd	r19, Z+1	; 0x01
    3f3e:	42 17       	cp	r20, r18
    3f40:	53 07       	cpc	r21, r19
    3f42:	41 f0       	breq	.+16     	;  0x3f54
    3f44:	01 90       	ld	r0, Z+
    3f46:	f0 81       	ld	r31, Z
    3f48:	e0 2d       	mov	r30, r0
    3f4a:	e8 0f       	add	r30, r24
    3f4c:	f9 1f       	adc	r31, r25
    3f4e:	20 81       	ld	r18, Z
    3f50:	30 e0       	ldi	r19, 0x00	; 0
    3f52:	02 c0       	rjmp	.+4      	;  0x3f58
    3f54:	2f ef       	ldi	r18, 0xFF	; 255
    3f56:	3f ef       	ldi	r19, 0xFF	; 255
    3f58:	c9 01       	movw	r24, r18
    3f5a:	08 95       	ret
    3f5c:	fc 01       	movw	r30, r24
    3f5e:	84 85       	ldd	r24, Z+12	; 0x0c
    3f60:	95 85       	ldd	r25, Z+13	; 0x0d
    3f62:	fc 01       	movw	r30, r24
    3f64:	e0 5c       	subi	r30, 0xC0	; 192
    3f66:	ff 4f       	sbci	r31, 0xFF	; 255
    3f68:	40 81       	ld	r20, Z
    3f6a:	51 81       	ldd	r21, Z+1	; 0x01
    3f6c:	fc 01       	movw	r30, r24
    3f6e:	ee 5b       	subi	r30, 0xBE	; 190
    3f70:	ff 4f       	sbci	r31, 0xFF	; 255
    3f72:	20 81       	ld	r18, Z
    3f74:	31 81       	ldd	r19, Z+1	; 0x01
    3f76:	42 17       	cp	r20, r18
    3f78:	53 07       	cpc	r21, r19
    3f7a:	81 f0       	breq	.+32     	;  0x3f9c
    3f7c:	a0 81       	ld	r26, Z
    3f7e:	b1 81       	ldd	r27, Z+1	; 0x01
    3f80:	a8 0f       	add	r26, r24
    3f82:	b9 1f       	adc	r27, r25
    3f84:	8c 91       	ld	r24, X
    3f86:	20 81       	ld	r18, Z
    3f88:	31 81       	ldd	r19, Z+1	; 0x01
    3f8a:	2f 5f       	subi	r18, 0xFF	; 255
    3f8c:	3f 4f       	sbci	r19, 0xFF	; 255
    3f8e:	2f 73       	andi	r18, 0x3F	; 63
    3f90:	33 27       	eor	r19, r19
    3f92:	31 83       	std	Z+1, r19	; 0x01
    3f94:	20 83       	st	Z, r18
    3f96:	28 2f       	mov	r18, r24
    3f98:	30 e0       	ldi	r19, 0x00	; 0
    3f9a:	02 c0       	rjmp	.+4      	;  0x3fa0
    3f9c:	2f ef       	ldi	r18, 0xFF	; 255
    3f9e:	3f ef       	ldi	r19, 0xFF	; 255
    3fa0:	c9 01       	movw	r24, r18
    3fa2:	08 95       	ret
    3fa4:	fc 01       	movw	r30, r24
    3fa6:	81 a1       	ldd	r24, Z+33	; 0x21
    3fa8:	88 23       	and	r24, r24
    3faa:	29 f0       	breq	.+10     	;  0x3fb6
    3fac:	a4 89       	ldd	r26, Z+20	; 0x14
    3fae:	b5 89       	ldd	r27, Z+21	; 0x15
    3fb0:	8c 91       	ld	r24, X
    3fb2:	86 ff       	sbrs	r24, 6
    3fb4:	fb cf       	rjmp	.-10     	;  0x3fac
    3fb6:	11 a2       	std	Z+33, r1	; 0x21
    3fb8:	08 95       	ret
    3fba:	cf 93       	push	r28
    3fbc:	df 93       	push	r29
    3fbe:	fc 01       	movw	r30, r24
    3fc0:	26 85       	ldd	r18, Z+14	; 0x0e
    3fc2:	37 85       	ldd	r19, Z+15	; 0x0f
    3fc4:	d9 01       	movw	r26, r18
    3fc6:	a0 5c       	subi	r26, 0xC0	; 192
    3fc8:	bf 4f       	sbci	r27, 0xFF	; 255
    3fca:	8d 91       	ld	r24, X+
    3fcc:	9c 91       	ld	r25, X
    3fce:	11 97       	sbiw	r26, 0x01	; 1
    3fd0:	01 96       	adiw	r24, 0x01	; 1
    3fd2:	8f 73       	andi	r24, 0x3F	; 63
    3fd4:	99 27       	eor	r25, r25
    3fd6:	e9 01       	movw	r28, r18
    3fd8:	ce 5b       	subi	r28, 0xBE	; 190
    3fda:	df 4f       	sbci	r29, 0xFF	; 255
    3fdc:	48 81       	ld	r20, Y
    3fde:	59 81       	ldd	r21, Y+1	; 0x01
    3fe0:	84 17       	cp	r24, r20
    3fe2:	95 07       	cpc	r25, r21
    3fe4:	d9 f3       	breq	.-10     	;  0x3fdc
    3fe6:	0d 90       	ld	r0, X+
    3fe8:	bc 91       	ld	r27, X
    3fea:	a0 2d       	mov	r26, r0
    3fec:	a2 0f       	add	r26, r18
    3fee:	b3 1f       	adc	r27, r19
    3ff0:	6c 93       	st	X, r22
    3ff2:	a6 85       	ldd	r26, Z+14	; 0x0e
    3ff4:	b7 85       	ldd	r27, Z+15	; 0x0f
    3ff6:	a0 5c       	subi	r26, 0xC0	; 192
    3ff8:	bf 4f       	sbci	r27, 0xFF	; 255
    3ffa:	11 96       	adiw	r26, 0x01	; 1
    3ffc:	9c 93       	st	X, r25
    3ffe:	8e 93       	st	-X, r24
    4000:	a6 89       	ldd	r26, Z+22	; 0x16
    4002:	b7 89       	ldd	r27, Z+23	; 0x17
    4004:	2c 91       	ld	r18, X
    4006:	81 e0       	ldi	r24, 0x01	; 1
    4008:	90 e0       	ldi	r25, 0x00	; 0
    400a:	07 8c       	ldd	r0, Z+31	; 0x1f
    400c:	02 c0       	rjmp	.+4      	;  0x4012
    400e:	88 0f       	add	r24, r24
    4010:	99 1f       	adc	r25, r25
    4012:	0a 94       	dec	r0
    4014:	e2 f7       	brpl	.-8      	;  0x400e
    4016:	28 2b       	or	r18, r24
    4018:	2c 93       	st	X, r18
    401a:	81 e0       	ldi	r24, 0x01	; 1
    401c:	81 a3       	std	Z+33, r24	; 0x21
    401e:	04 88       	ldd	r0, Z+20	; 0x14
    4020:	f5 89       	ldd	r31, Z+21	; 0x15
    4022:	e0 2d       	mov	r30, r0
    4024:	80 81       	ld	r24, Z
    4026:	80 64       	ori	r24, 0x40	; 64
    4028:	80 83       	st	Z, r24
    402a:	81 e0       	ldi	r24, 0x01	; 1
    402c:	90 e0       	ldi	r25, 0x00	; 0
    402e:	df 91       	pop	r29
    4030:	cf 91       	pop	r28
    4032:	08 95       	ret
    4034:	08 95       	ret
    4036:	1f 92       	push	r1
    4038:	0f 92       	push	r0
    403a:	0f b6       	in	r0, 0x3f	; 63
    403c:	0f 92       	push	r0
    403e:	11 24       	eor	r1, r1
    4040:	2f 93       	push	r18
    4042:	3f 93       	push	r19
    4044:	4f 93       	push	r20
    4046:	8f 93       	push	r24
    4048:	9f 93       	push	r25
    404a:	ef 93       	push	r30
    404c:	ff 93       	push	r31
    404e:	80 91 c0 00 	lds	r24, 0x00C0
    4052:	82 fd       	sbrc	r24, 2
    4054:	1c c0       	rjmp	.+56     	;  0x408e
    4056:	40 91 c6 00 	lds	r20, 0x00C6
    405a:	80 91 e8 06 	lds	r24, 0x06E8
    405e:	90 91 e9 06 	lds	r25, 0x06E9
    4062:	01 96       	adiw	r24, 0x01	; 1
    4064:	8f 73       	andi	r24, 0x3F	; 63
    4066:	99 27       	eor	r25, r25
    4068:	20 91 ea 06 	lds	r18, 0x06EA
    406c:	30 91 eb 06 	lds	r19, 0x06EB
    4070:	82 17       	cp	r24, r18
    4072:	93 07       	cpc	r25, r19
    4074:	71 f0       	breq	.+28     	;  0x4092
    4076:	e0 91 e8 06 	lds	r30, 0x06E8
    407a:	f0 91 e9 06 	lds	r31, 0x06E9
    407e:	e8 55       	subi	r30, 0x58	; 88
    4080:	f9 4f       	sbci	r31, 0xF9	; 249
    4082:	40 83       	st	Z, r20
    4084:	90 93 e9 06 	sts	0x06E9, r25
    4088:	80 93 e8 06 	sts	0x06E8, r24
    408c:	02 c0       	rjmp	.+4      	;  0x4092
    408e:	80 91 c6 00 	lds	r24, 0x00C6
    4092:	ff 91       	pop	r31
    4094:	ef 91       	pop	r30
    4096:	9f 91       	pop	r25
    4098:	8f 91       	pop	r24
    409a:	4f 91       	pop	r20
    409c:	3f 91       	pop	r19
    409e:	2f 91       	pop	r18
    40a0:	0f 90       	pop	r0
    40a2:	0f be       	out	0x3f, r0	; 63
    40a4:	0f 90       	pop	r0
    40a6:	1f 90       	pop	r1
    40a8:	18 95       	reti
    40aa:	82 e4       	ldi	r24, 0x42	; 66
    40ac:	96 e0       	ldi	r25, 0x06	; 6
    40ae:	0e 94 7f 1f 	call	0x3efe	;  0x3efe
    40b2:	89 2b       	or	r24, r25
    40b4:	11 f0       	breq	.+4      	;  0x40ba
    40b6:	0c 94 1a 20 	jmp	0x4034	;  0x4034
    40ba:	08 95       	ret
    40bc:	1f 92       	push	r1
    40be:	0f 92       	push	r0
    40c0:	0f b6       	in	r0, 0x3f	; 63
    40c2:	0f 92       	push	r0
    40c4:	11 24       	eor	r1, r1
    40c6:	2f 93       	push	r18
    40c8:	3f 93       	push	r19
    40ca:	8f 93       	push	r24
    40cc:	9f 93       	push	r25
    40ce:	ef 93       	push	r30
    40d0:	ff 93       	push	r31
    40d2:	20 91 a4 06 	lds	r18, 0x06A4
    40d6:	30 91 a5 06 	lds	r19, 0x06A5
    40da:	80 91 a6 06 	lds	r24, 0x06A6
    40de:	90 91 a7 06 	lds	r25, 0x06A7
    40e2:	28 17       	cp	r18, r24
    40e4:	39 07       	cpc	r19, r25
    40e6:	31 f4       	brne	.+12     	;  0x40f4
    40e8:	80 91 c1 00 	lds	r24, 0x00C1
    40ec:	8f 7d       	andi	r24, 0xDF	; 223
    40ee:	80 93 c1 00 	sts	0x00C1, r24
    40f2:	14 c0       	rjmp	.+40     	;  0x411c
    40f4:	e0 91 a6 06 	lds	r30, 0x06A6
    40f8:	f0 91 a7 06 	lds	r31, 0x06A7
    40fc:	ec 59       	subi	r30, 0x9C	; 156
    40fe:	f9 4f       	sbci	r31, 0xF9	; 249
    4100:	20 81       	ld	r18, Z
    4102:	80 91 a6 06 	lds	r24, 0x06A6
    4106:	90 91 a7 06 	lds	r25, 0x06A7
    410a:	01 96       	adiw	r24, 0x01	; 1
    410c:	8f 73       	andi	r24, 0x3F	; 63
    410e:	99 27       	eor	r25, r25
    4110:	90 93 a7 06 	sts	0x06A7, r25
    4114:	80 93 a6 06 	sts	0x06A6, r24
    4118:	20 93 c6 00 	sts	0x00C6, r18
    411c:	ff 91       	pop	r31
    411e:	ef 91       	pop	r30
    4120:	9f 91       	pop	r25
    4122:	8f 91       	pop	r24
    4124:	3f 91       	pop	r19
    4126:	2f 91       	pop	r18
    4128:	0f 90       	pop	r0
    412a:	0f be       	out	0x3f, r0	; 63
    412c:	0f 90       	pop	r0
    412e:	1f 90       	pop	r1
    4130:	18 95       	reti
    4132:	cf 92       	push	r12
    4134:	df 92       	push	r13
    4136:	ef 92       	push	r14
    4138:	ff 92       	push	r15
    413a:	cf 93       	push	r28
    413c:	df 93       	push	r29
    413e:	ec 01       	movw	r28, r24
    4140:	6a 01       	movw	r12, r20
    4142:	7b 01       	movw	r14, r22
    4144:	41 15       	cp	r20, r1
    4146:	81 ee       	ldi	r24, 0xE1	; 225
    4148:	58 07       	cpc	r21, r24
    414a:	61 05       	cpc	r22, r1
    414c:	71 05       	cpc	r23, r1
    414e:	f9 f0       	breq	.+62     	;  0x418e
    4150:	ec 89       	ldd	r30, Y+20	; 0x14
    4152:	fd 89       	ldd	r31, Y+21	; 0x15
    4154:	81 e0       	ldi	r24, 0x01	; 1
    4156:	90 e0       	ldi	r25, 0x00	; 0
    4158:	08 a0       	ldd	r0, Y+32	; 0x20
    415a:	02 c0       	rjmp	.+4      	;  0x4160
    415c:	88 0f       	add	r24, r24
    415e:	99 1f       	adc	r25, r25
    4160:	0a 94       	dec	r0
    4162:	e2 f7       	brpl	.-8      	;  0x415c
    4164:	80 83       	st	Z, r24
    4166:	60 e0       	ldi	r22, 0x00	; 0
    4168:	79 e0       	ldi	r23, 0x09	; 9
    416a:	8d e3       	ldi	r24, 0x3D	; 61
    416c:	90 e0       	ldi	r25, 0x00	; 0
    416e:	a7 01       	movw	r20, r14
    4170:	96 01       	movw	r18, r12
    4172:	0e 94 ce 25 	call	0x4b9c	;  0x4b9c
    4176:	21 50       	subi	r18, 0x01	; 1
    4178:	31 09       	sbc	r19, r1
    417a:	41 09       	sbc	r20, r1
    417c:	51 09       	sbc	r21, r1
    417e:	56 95       	lsr	r21
    4180:	47 95       	ror	r20
    4182:	37 95       	ror	r19
    4184:	27 95       	ror	r18
    4186:	21 15       	cp	r18, r1
    4188:	80 e1       	ldi	r24, 0x10	; 16
    418a:	38 07       	cpc	r19, r24
    418c:	98 f0       	brcs	.+38     	;  0x41b4
    418e:	ec 89       	ldd	r30, Y+20	; 0x14
    4190:	fd 89       	ldd	r31, Y+21	; 0x15
    4192:	10 82       	st	Z, r1
    4194:	60 e8       	ldi	r22, 0x80	; 128
    4196:	74 e8       	ldi	r23, 0x84	; 132
    4198:	8e e1       	ldi	r24, 0x1E	; 30
    419a:	90 e0       	ldi	r25, 0x00	; 0
    419c:	a7 01       	movw	r20, r14
    419e:	96 01       	movw	r18, r12
    41a0:	0e 94 ce 25 	call	0x4b9c	;  0x4b9c
    41a4:	21 50       	subi	r18, 0x01	; 1
    41a6:	31 09       	sbc	r19, r1
    41a8:	41 09       	sbc	r20, r1
    41aa:	51 09       	sbc	r21, r1
    41ac:	56 95       	lsr	r21
    41ae:	47 95       	ror	r20
    41b0:	37 95       	ror	r19
    41b2:	27 95       	ror	r18
    41b4:	e8 89       	ldd	r30, Y+16	; 0x10
    41b6:	f9 89       	ldd	r31, Y+17	; 0x11
    41b8:	30 83       	st	Z, r19
    41ba:	ea 89       	ldd	r30, Y+18	; 0x12
    41bc:	fb 89       	ldd	r31, Y+19	; 0x13
    41be:	20 83       	st	Z, r18
    41c0:	19 a2       	std	Y+33, r1	; 0x21
    41c2:	ee 89       	ldd	r30, Y+22	; 0x16
    41c4:	ff 89       	ldd	r31, Y+23	; 0x17
    41c6:	40 81       	ld	r20, Z
    41c8:	81 e0       	ldi	r24, 0x01	; 1
    41ca:	90 e0       	ldi	r25, 0x00	; 0
    41cc:	9c 01       	movw	r18, r24
    41ce:	0c 8c       	ldd	r0, Y+28	; 0x1c
    41d0:	02 c0       	rjmp	.+4      	;  0x41d6
    41d2:	22 0f       	add	r18, r18
    41d4:	33 1f       	adc	r19, r19
    41d6:	0a 94       	dec	r0
    41d8:	e2 f7       	brpl	.-8      	;  0x41d2
    41da:	42 2b       	or	r20, r18
    41dc:	40 83       	st	Z, r20
    41de:	ee 89       	ldd	r30, Y+22	; 0x16
    41e0:	ff 89       	ldd	r31, Y+23	; 0x17
    41e2:	40 81       	ld	r20, Z
    41e4:	9c 01       	movw	r18, r24
    41e6:	0d 8c       	ldd	r0, Y+29	; 0x1d
    41e8:	02 c0       	rjmp	.+4      	;  0x41ee
    41ea:	22 0f       	add	r18, r18
    41ec:	33 1f       	adc	r19, r19
    41ee:	0a 94       	dec	r0
    41f0:	e2 f7       	brpl	.-8      	;  0x41ea
    41f2:	42 2b       	or	r20, r18
    41f4:	40 83       	st	Z, r20
    41f6:	ee 89       	ldd	r30, Y+22	; 0x16
    41f8:	ff 89       	ldd	r31, Y+23	; 0x17
    41fa:	40 81       	ld	r20, Z
    41fc:	9c 01       	movw	r18, r24
    41fe:	0e 8c       	ldd	r0, Y+30	; 0x1e
    4200:	02 c0       	rjmp	.+4      	;  0x4206
    4202:	22 0f       	add	r18, r18
    4204:	33 1f       	adc	r19, r19
    4206:	0a 94       	dec	r0
    4208:	e2 f7       	brpl	.-8      	;  0x4202
    420a:	42 2b       	or	r20, r18
    420c:	40 83       	st	Z, r20
    420e:	ee 89       	ldd	r30, Y+22	; 0x16
    4210:	ff 89       	ldd	r31, Y+23	; 0x17
    4212:	20 81       	ld	r18, Z
    4214:	0f 8c       	ldd	r0, Y+31	; 0x1f
    4216:	02 c0       	rjmp	.+4      	;  0x421c
    4218:	88 0f       	add	r24, r24
    421a:	99 1f       	adc	r25, r25
    421c:	0a 94       	dec	r0
    421e:	e2 f7       	brpl	.-8      	;  0x4218
    4220:	80 95       	com	r24
    4222:	82 23       	and	r24, r18
    4224:	80 83       	st	Z, r24
    4226:	df 91       	pop	r29
    4228:	cf 91       	pop	r28
    422a:	ff 90       	pop	r15
    422c:	ef 90       	pop	r14
    422e:	df 90       	pop	r13
    4230:	cf 90       	pop	r12
    4232:	08 95       	ret
    4234:	10 92 45 06 	sts	0x0645, r1
    4238:	10 92 44 06 	sts	0x0644, r1
    423c:	88 ee       	ldi	r24, 0xE8	; 232
    423e:	93 e0       	ldi	r25, 0x03	; 3
    4240:	a0 e0       	ldi	r26, 0x00	; 0
    4242:	b0 e0       	ldi	r27, 0x00	; 0
    4244:	80 93 46 06 	sts	0x0646, r24
    4248:	90 93 47 06 	sts	0x0647, r25
    424c:	a0 93 48 06 	sts	0x0648, r26
    4250:	b0 93 49 06 	sts	0x0649, r27
    4254:	84 e3       	ldi	r24, 0x34	; 52
    4256:	93 e0       	ldi	r25, 0x03	; 3
    4258:	90 93 43 06 	sts	0x0643, r25
    425c:	80 93 42 06 	sts	0x0642, r24
    4260:	88 ea       	ldi	r24, 0xA8	; 168
    4262:	96 e0       	ldi	r25, 0x06	; 6
    4264:	90 93 4f 06 	sts	0x064F, r25
    4268:	80 93 4e 06 	sts	0x064E, r24
    426c:	84 e6       	ldi	r24, 0x64	; 100
    426e:	96 e0       	ldi	r25, 0x06	; 6
    4270:	90 93 51 06 	sts	0x0651, r25
    4274:	80 93 50 06 	sts	0x0650, r24
    4278:	85 ec       	ldi	r24, 0xC5	; 197
    427a:	90 e0       	ldi	r25, 0x00	; 0
    427c:	90 93 53 06 	sts	0x0653, r25
    4280:	80 93 52 06 	sts	0x0652, r24
    4284:	84 ec       	ldi	r24, 0xC4	; 196
    4286:	90 e0       	ldi	r25, 0x00	; 0
    4288:	90 93 55 06 	sts	0x0655, r25
    428c:	80 93 54 06 	sts	0x0654, r24
    4290:	80 ec       	ldi	r24, 0xC0	; 192
    4292:	90 e0       	ldi	r25, 0x00	; 0
    4294:	90 93 57 06 	sts	0x0657, r25
    4298:	80 93 56 06 	sts	0x0656, r24
    429c:	81 ec       	ldi	r24, 0xC1	; 193
    429e:	90 e0       	ldi	r25, 0x00	; 0
    42a0:	90 93 59 06 	sts	0x0659, r25
    42a4:	80 93 58 06 	sts	0x0658, r24
    42a8:	82 ec       	ldi	r24, 0xC2	; 194
    42aa:	90 e0       	ldi	r25, 0x00	; 0
    42ac:	90 93 5b 06 	sts	0x065B, r25
    42b0:	80 93 5a 06 	sts	0x065A, r24
    42b4:	86 ec       	ldi	r24, 0xC6	; 198
    42b6:	90 e0       	ldi	r25, 0x00	; 0
    42b8:	90 93 5d 06 	sts	0x065D, r25
    42bc:	80 93 5c 06 	sts	0x065C, r24
    42c0:	84 e0       	ldi	r24, 0x04	; 4
    42c2:	80 93 5e 06 	sts	0x065E, r24
    42c6:	83 e0       	ldi	r24, 0x03	; 3
    42c8:	80 93 5f 06 	sts	0x065F, r24
    42cc:	87 e0       	ldi	r24, 0x07	; 7
    42ce:	80 93 60 06 	sts	0x0660, r24
    42d2:	85 e0       	ldi	r24, 0x05	; 5
    42d4:	80 93 61 06 	sts	0x0661, r24
    42d8:	81 e0       	ldi	r24, 0x01	; 1
    42da:	80 93 62 06 	sts	0x0662, r24
    42de:	08 95       	ret
    42e0:	af 92       	push	r10
    42e2:	bf 92       	push	r11
    42e4:	cf 92       	push	r12
    42e6:	df 92       	push	r13
    42e8:	ef 92       	push	r14
    42ea:	ff 92       	push	r15
    42ec:	0f 93       	push	r16
    42ee:	1f 93       	push	r17
    42f0:	cf 93       	push	r28
    42f2:	df 93       	push	r29
    42f4:	6c 01       	movw	r12, r24
    42f6:	7b 01       	movw	r14, r22
    42f8:	c0 e0       	ldi	r28, 0x00	; 0
    42fa:	d0 e0       	ldi	r29, 0x00	; 0
    42fc:	00 e0       	ldi	r16, 0x00	; 0
    42fe:	10 e0       	ldi	r17, 0x00	; 0
    4300:	f6 01       	movw	r30, r12
    4302:	ec 0f       	add	r30, r28
    4304:	fd 1f       	adc	r31, r29
    4306:	4a e0       	ldi	r20, 0x0A	; 10
    4308:	50 e0       	ldi	r21, 0x00	; 0
    430a:	62 81       	ldd	r22, Z+2	; 0x02
    430c:	c7 01       	movw	r24, r14
    430e:	0e 94 bf 22 	call	0x457e	;  0x457e
    4312:	5c 01       	movw	r10, r24
    4314:	6e e2       	ldi	r22, 0x2E	; 46
    4316:	c7 01       	movw	r24, r14
    4318:	0e 94 1b 22 	call	0x4436	;  0x4436
    431c:	8a 0d       	add	r24, r10
    431e:	9b 1d       	adc	r25, r11
    4320:	08 0f       	add	r16, r24
    4322:	19 1f       	adc	r17, r25
    4324:	21 96       	adiw	r28, 0x01	; 1
    4326:	c3 30       	cpi	r28, 0x03	; 3
    4328:	d1 05       	cpc	r29, r1
    432a:	51 f7       	brne	.-44     	;  0x4300
    432c:	4a e0       	ldi	r20, 0x0A	; 10
    432e:	50 e0       	ldi	r21, 0x00	; 0
    4330:	f6 01       	movw	r30, r12
    4332:	65 81       	ldd	r22, Z+5	; 0x05
    4334:	c7 01       	movw	r24, r14
    4336:	0e 94 bf 22 	call	0x457e	;  0x457e
    433a:	08 0f       	add	r16, r24
    433c:	19 1f       	adc	r17, r25
    433e:	c8 01       	movw	r24, r16
    4340:	df 91       	pop	r29
    4342:	cf 91       	pop	r28
    4344:	1f 91       	pop	r17
    4346:	0f 91       	pop	r16
    4348:	ff 90       	pop	r15
    434a:	ef 90       	pop	r14
    434c:	df 90       	pop	r13
    434e:	cf 90       	pop	r12
    4350:	bf 90       	pop	r11
    4352:	af 90       	pop	r10
    4354:	08 95       	ret
    4356:	24 e4       	ldi	r18, 0x44	; 68
    4358:	33 e0       	ldi	r19, 0x03	; 3
    435a:	fc 01       	movw	r30, r24
    435c:	31 83       	std	Z+1, r19	; 0x01
    435e:	20 83       	st	Z, r18
    4360:	12 82       	std	Z+2, r1	; 0x02
    4362:	13 82       	std	Z+3, r1	; 0x03
    4364:	14 82       	std	Z+4, r1	; 0x04
    4366:	15 82       	std	Z+5, r1	; 0x05
    4368:	08 95       	ret
    436a:	0f 93       	push	r16
    436c:	fc 01       	movw	r30, r24
    436e:	84 e4       	ldi	r24, 0x44	; 68
    4370:	93 e0       	ldi	r25, 0x03	; 3
    4372:	91 83       	std	Z+1, r25	; 0x01
    4374:	80 83       	st	Z, r24
    4376:	62 83       	std	Z+2, r22	; 0x02
    4378:	43 83       	std	Z+3, r20	; 0x03
    437a:	24 83       	std	Z+4, r18	; 0x04
    437c:	05 83       	std	Z+5, r16	; 0x05
    437e:	0f 91       	pop	r16
    4380:	08 95       	ret
    4382:	fc 01       	movw	r30, r24
    4384:	db 01       	movw	r26, r22
    4386:	4d 91       	ld	r20, X+
    4388:	5d 91       	ld	r21, X+
    438a:	6d 91       	ld	r22, X+
    438c:	7c 91       	ld	r23, X
    438e:	42 83       	std	Z+2, r20	; 0x02
    4390:	53 83       	std	Z+3, r21	; 0x03
    4392:	64 83       	std	Z+4, r22	; 0x04
    4394:	75 83       	std	Z+5, r23	; 0x05
    4396:	08 95       	ret
    4398:	84 e4       	ldi	r24, 0x44	; 68
    439a:	93 e0       	ldi	r25, 0x03	; 3
    439c:	90 93 ed 06 	sts	0x06ED, r25
    43a0:	80 93 ec 06 	sts	0x06EC, r24
    43a4:	10 92 ee 06 	sts	0x06EE, r1
    43a8:	10 92 ef 06 	sts	0x06EF, r1
    43ac:	10 92 f0 06 	sts	0x06F0, r1
    43b0:	10 92 f1 06 	sts	0x06F1, r1
    43b4:	08 95       	ret
    43b6:	cf 92       	push	r12
    43b8:	df 92       	push	r13
    43ba:	ef 92       	push	r14
    43bc:	ff 92       	push	r15
    43be:	0f 93       	push	r16
    43c0:	1f 93       	push	r17
    43c2:	cf 93       	push	r28
    43c4:	df 93       	push	r29
    43c6:	6c 01       	movw	r12, r24
    43c8:	eb 01       	movw	r28, r22
    43ca:	7a 01       	movw	r14, r20
    43cc:	e6 0e       	add	r14, r22
    43ce:	f7 1e       	adc	r15, r23
    43d0:	00 e0       	ldi	r16, 0x00	; 0
    43d2:	10 e0       	ldi	r17, 0x00	; 0
    43d4:	0b c0       	rjmp	.+22     	;  0x43ec
    43d6:	69 91       	ld	r22, Y+
    43d8:	d6 01       	movw	r26, r12
    43da:	ed 91       	ld	r30, X+
    43dc:	fc 91       	ld	r31, X
    43de:	01 90       	ld	r0, Z+
    43e0:	f0 81       	ld	r31, Z
    43e2:	e0 2d       	mov	r30, r0
    43e4:	c6 01       	movw	r24, r12
    43e6:	09 95       	icall
    43e8:	08 0f       	add	r16, r24
    43ea:	19 1f       	adc	r17, r25
    43ec:	ce 15       	cp	r28, r14
    43ee:	df 05       	cpc	r29, r15
    43f0:	91 f7       	brne	.-28     	;  0x43d6
    43f2:	c8 01       	movw	r24, r16
    43f4:	df 91       	pop	r29
    43f6:	cf 91       	pop	r28
    43f8:	1f 91       	pop	r17
    43fa:	0f 91       	pop	r16
    43fc:	ff 90       	pop	r15
    43fe:	ef 90       	pop	r14
    4400:	df 90       	pop	r13
    4402:	cf 90       	pop	r12
    4404:	08 95       	ret
    4406:	61 15       	cp	r22, r1
    4408:	71 05       	cpc	r23, r1
    440a:	81 f0       	breq	.+32     	;  0x442c
    440c:	db 01       	movw	r26, r22
    440e:	0d 90       	ld	r0, X+
    4410:	00 20       	and	r0, r0
    4412:	e9 f7       	brne	.-6      	;  0x440e
    4414:	ad 01       	movw	r20, r26
    4416:	41 50       	subi	r20, 0x01	; 1
    4418:	51 09       	sbc	r21, r1
    441a:	46 1b       	sub	r20, r22
    441c:	57 0b       	sbc	r21, r23
    441e:	dc 01       	movw	r26, r24
    4420:	ed 91       	ld	r30, X+
    4422:	fc 91       	ld	r31, X
    4424:	02 80       	ldd	r0, Z+2	; 0x02
    4426:	f3 81       	ldd	r31, Z+3	; 0x03
    4428:	e0 2d       	mov	r30, r0
    442a:	09 94       	ijmp
    442c:	80 e0       	ldi	r24, 0x00	; 0
    442e:	90 e0       	ldi	r25, 0x00	; 0
    4430:	08 95       	ret
    4432:	0c 94 03 22 	jmp	0x4406	;  0x4406
    4436:	dc 01       	movw	r26, r24
    4438:	ed 91       	ld	r30, X+
    443a:	fc 91       	ld	r31, X
    443c:	01 90       	ld	r0, Z+
    443e:	f0 81       	ld	r31, Z
    4440:	e0 2d       	mov	r30, r0
    4442:	09 94       	ijmp
    4444:	db 01       	movw	r26, r22
    4446:	ed 91       	ld	r30, X+
    4448:	fc 91       	ld	r31, X
    444a:	11 97       	sbiw	r26, 0x01	; 1
    444c:	01 90       	ld	r0, Z+
    444e:	f0 81       	ld	r31, Z
    4450:	e0 2d       	mov	r30, r0
    4452:	bc 01       	movw	r22, r24
    4454:	cd 01       	movw	r24, r26
    4456:	09 94       	ijmp
    4458:	0f 93       	push	r16
    445a:	1f 93       	push	r17
    445c:	cf 93       	push	r28
    445e:	df 93       	push	r29
    4460:	ec 01       	movw	r28, r24
    4462:	6d e0       	ldi	r22, 0x0D	; 13
    4464:	0e 94 1b 22 	call	0x4436	;  0x4436
    4468:	8c 01       	movw	r16, r24
    446a:	6a e0       	ldi	r22, 0x0A	; 10
    446c:	ce 01       	movw	r24, r28
    446e:	0e 94 1b 22 	call	0x4436	;  0x4436
    4472:	9c 01       	movw	r18, r24
    4474:	20 0f       	add	r18, r16
    4476:	31 1f       	adc	r19, r17
    4478:	c9 01       	movw	r24, r18
    447a:	df 91       	pop	r29
    447c:	cf 91       	pop	r28
    447e:	1f 91       	pop	r17
    4480:	0f 91       	pop	r16
    4482:	08 95       	ret
    4484:	0f 93       	push	r16
    4486:	1f 93       	push	r17
    4488:	cf 93       	push	r28
    448a:	df 93       	push	r29
    448c:	ec 01       	movw	r28, r24
    448e:	0e 94 03 22 	call	0x4406	;  0x4406
    4492:	8c 01       	movw	r16, r24
    4494:	ce 01       	movw	r24, r28
    4496:	0e 94 2c 22 	call	0x4458	;  0x4458
    449a:	98 01       	movw	r18, r16
    449c:	28 0f       	add	r18, r24
    449e:	39 1f       	adc	r19, r25
    44a0:	c9 01       	movw	r24, r18
    44a2:	df 91       	pop	r29
    44a4:	cf 91       	pop	r28
    44a6:	1f 91       	pop	r17
    44a8:	0f 91       	pop	r16
    44aa:	08 95       	ret
    44ac:	4f 92       	push	r4
    44ae:	5f 92       	push	r5
    44b0:	6f 92       	push	r6
    44b2:	7f 92       	push	r7
    44b4:	9f 92       	push	r9
    44b6:	af 92       	push	r10
    44b8:	bf 92       	push	r11
    44ba:	cf 92       	push	r12
    44bc:	df 92       	push	r13
    44be:	ef 92       	push	r14
    44c0:	ff 92       	push	r15
    44c2:	0f 93       	push	r16
    44c4:	1f 93       	push	r17
    44c6:	cf 93       	push	r28
    44c8:	df 93       	push	r29
    44ca:	cd b7       	in	r28, 0x3d	; 61
    44cc:	de b7       	in	r29, 0x3e	; 62
    44ce:	a1 97       	sbiw	r28, 0x21	; 33
    44d0:	0f b6       	in	r0, 0x3f	; 63
    44d2:	f8 94       	cli
    44d4:	de bf       	out	0x3e, r29	; 62
    44d6:	0f be       	out	0x3f, r0	; 63
    44d8:	cd bf       	out	0x3d, r28	; 61
    44da:	5c 01       	movw	r10, r24
    44dc:	6a 01       	movw	r12, r20
    44de:	7b 01       	movw	r14, r22
    44e0:	92 2e       	mov	r9, r18
    44e2:	19 a2       	std	Y+33, r1	; 0x21
    44e4:	81 e0       	ldi	r24, 0x01	; 1
    44e6:	82 17       	cp	r24, r18
    44e8:	10 f0       	brcs	.+4      	;  0x44ee
    44ea:	8a e0       	ldi	r24, 0x0A	; 10
    44ec:	98 2e       	mov	r9, r24
    44ee:	8e 01       	movw	r16, r28
    44f0:	0f 5d       	subi	r16, 0xDF	; 223
    44f2:	1f 4f       	sbci	r17, 0xFF	; 255
    44f4:	49 2c       	mov	r4, r9
    44f6:	51 2c       	mov	r5, r1
    44f8:	61 2c       	mov	r6, r1
    44fa:	71 2c       	mov	r7, r1
    44fc:	c7 01       	movw	r24, r14
    44fe:	b6 01       	movw	r22, r12
    4500:	a3 01       	movw	r20, r6
    4502:	92 01       	movw	r18, r4
    4504:	0e 94 ce 25 	call	0x4b9c	;  0x4b9c
    4508:	8c 2d       	mov	r24, r12
    450a:	92 9e       	mul	r9, r18
    450c:	80 19       	sub	r24, r0
    450e:	11 24       	eor	r1, r1
    4510:	01 50       	subi	r16, 0x01	; 1
    4512:	11 09       	sbc	r17, r1
    4514:	8a 30       	cpi	r24, 0x0A	; 10
    4516:	14 f4       	brge	.+4      	;  0x451c
    4518:	80 5d       	subi	r24, 0xD0	; 208
    451a:	01 c0       	rjmp	.+2      	;  0x451e
    451c:	89 5c       	subi	r24, 0xC9	; 201
    451e:	f8 01       	movw	r30, r16
    4520:	80 83       	st	Z, r24
    4522:	69 01       	movw	r12, r18
    4524:	7a 01       	movw	r14, r20
    4526:	c1 14       	cp	r12, r1
    4528:	d1 04       	cpc	r13, r1
    452a:	e1 04       	cpc	r14, r1
    452c:	f1 04       	cpc	r15, r1
    452e:	31 f7       	brne	.-52     	;  0x44fc
    4530:	b8 01       	movw	r22, r16
    4532:	c5 01       	movw	r24, r10
    4534:	0e 94 03 22 	call	0x4406	;  0x4406
    4538:	a1 96       	adiw	r28, 0x21	; 33
    453a:	0f b6       	in	r0, 0x3f	; 63
    453c:	f8 94       	cli
    453e:	de bf       	out	0x3e, r29	; 62
    4540:	0f be       	out	0x3f, r0	; 63
    4542:	cd bf       	out	0x3d, r28	; 61
    4544:	df 91       	pop	r29
    4546:	cf 91       	pop	r28
    4548:	1f 91       	pop	r17
    454a:	0f 91       	pop	r16
    454c:	ff 90       	pop	r15
    454e:	ef 90       	pop	r14
    4550:	df 90       	pop	r13
    4552:	cf 90       	pop	r12
    4554:	bf 90       	pop	r11
    4556:	af 90       	pop	r10
    4558:	9f 90       	pop	r9
    455a:	7f 90       	pop	r7
    455c:	6f 90       	pop	r6
    455e:	5f 90       	pop	r5
    4560:	4f 90       	pop	r4
    4562:	08 95       	ret
    4564:	21 15       	cp	r18, r1
    4566:	31 05       	cpc	r19, r1
    4568:	41 f4       	brne	.+16     	;  0x457a
    456a:	dc 01       	movw	r26, r24
    456c:	ed 91       	ld	r30, X+
    456e:	fc 91       	ld	r31, X
    4570:	01 90       	ld	r0, Z+
    4572:	f0 81       	ld	r31, Z
    4574:	e0 2d       	mov	r30, r0
    4576:	64 2f       	mov	r22, r20
    4578:	09 94       	ijmp
    457a:	0c 94 56 22 	jmp	0x44ac	;  0x44ac
    457e:	9a 01       	movw	r18, r20
    4580:	46 2f       	mov	r20, r22
    4582:	50 e0       	ldi	r21, 0x00	; 0
    4584:	60 e0       	ldi	r22, 0x00	; 0
    4586:	70 e0       	ldi	r23, 0x00	; 0
    4588:	0c 94 b2 22 	jmp	0x4564	;  0x4564
    458c:	cf 92       	push	r12
    458e:	df 92       	push	r13
    4590:	ef 92       	push	r14
    4592:	ff 92       	push	r15
    4594:	0f 93       	push	r16
    4596:	1f 93       	push	r17
    4598:	cf 93       	push	r28
    459a:	df 93       	push	r29
    459c:	ec 01       	movw	r28, r24
    459e:	6a 01       	movw	r12, r20
    45a0:	7b 01       	movw	r14, r22
    45a2:	21 15       	cp	r18, r1
    45a4:	31 05       	cpc	r19, r1
    45a6:	79 f4       	brne	.+30     	;  0x45c6
    45a8:	e8 81       	ld	r30, Y
    45aa:	f9 81       	ldd	r31, Y+1	; 0x01
    45ac:	01 90       	ld	r0, Z+
    45ae:	f0 81       	ld	r31, Z
    45b0:	e0 2d       	mov	r30, r0
    45b2:	64 2f       	mov	r22, r20
    45b4:	df 91       	pop	r29
    45b6:	cf 91       	pop	r28
    45b8:	1f 91       	pop	r17
    45ba:	0f 91       	pop	r16
    45bc:	ff 90       	pop	r15
    45be:	ef 90       	pop	r14
    45c0:	df 90       	pop	r13
    45c2:	cf 90       	pop	r12
    45c4:	09 94       	ijmp
    45c6:	2a 30       	cpi	r18, 0x0A	; 10
    45c8:	31 05       	cpc	r19, r1
    45ca:	19 f4       	brne	.+6      	;  0x45d2
    45cc:	77 fd       	sbrc	r23, 7
    45ce:	0e c0       	rjmp	.+28     	;  0x45ec
    45d0:	2a e0       	ldi	r18, 0x0A	; 10
    45d2:	b7 01       	movw	r22, r14
    45d4:	a6 01       	movw	r20, r12
    45d6:	ce 01       	movw	r24, r28
    45d8:	df 91       	pop	r29
    45da:	cf 91       	pop	r28
    45dc:	1f 91       	pop	r17
    45de:	0f 91       	pop	r16
    45e0:	ff 90       	pop	r15
    45e2:	ef 90       	pop	r14
    45e4:	df 90       	pop	r13
    45e6:	cf 90       	pop	r12
    45e8:	0c 94 56 22 	jmp	0x44ac	;  0x44ac
    45ec:	6d e2       	ldi	r22, 0x2D	; 45
    45ee:	0e 94 1b 22 	call	0x4436	;  0x4436
    45f2:	8c 01       	movw	r16, r24
    45f4:	44 27       	eor	r20, r20
    45f6:	55 27       	eor	r21, r21
    45f8:	ba 01       	movw	r22, r20
    45fa:	4c 19       	sub	r20, r12
    45fc:	5d 09       	sbc	r21, r13
    45fe:	6e 09       	sbc	r22, r14
    4600:	7f 09       	sbc	r23, r15
    4602:	2a e0       	ldi	r18, 0x0A	; 10
    4604:	ce 01       	movw	r24, r28
    4606:	0e 94 56 22 	call	0x44ac	;  0x44ac
    460a:	08 0f       	add	r16, r24
    460c:	19 1f       	adc	r17, r25
    460e:	c8 01       	movw	r24, r16
    4610:	df 91       	pop	r29
    4612:	cf 91       	pop	r28
    4614:	1f 91       	pop	r17
    4616:	0f 91       	pop	r16
    4618:	ff 90       	pop	r15
    461a:	ef 90       	pop	r14
    461c:	df 90       	pop	r13
    461e:	cf 90       	pop	r12
    4620:	08 95       	ret
    4622:	9a 01       	movw	r18, r20
    4624:	ab 01       	movw	r20, r22
    4626:	66 27       	eor	r22, r22
    4628:	57 fd       	sbrc	r21, 7
    462a:	60 95       	com	r22
    462c:	76 2f       	mov	r23, r22
    462e:	0c 94 c6 22 	jmp	0x458c	;  0x458c
    4632:	81 30       	cpi	r24, 0x01	; 1
    4634:	39 f0       	breq	.+14     	;  0x4644
    4636:	18 f0       	brcs	.+6      	;  0x463e
    4638:	82 30       	cpi	r24, 0x02	; 2
    463a:	d1 f4       	brne	.+52     	;  0x4670
    463c:	09 c0       	rjmp	.+18     	;  0x4650
    463e:	10 92 6e 00 	sts	0x006E, r1
    4642:	08 95       	ret
    4644:	80 91 6f 00 	lds	r24, 0x006F
    4648:	8d 7f       	andi	r24, 0xFD	; 253
    464a:	80 93 6f 00 	sts	0x006F, r24
    464e:	08 95       	ret
    4650:	80 91 70 00 	lds	r24, 0x0070
    4654:	8d 7f       	andi	r24, 0xFD	; 253
    4656:	80 93 70 00 	sts	0x0070, r24
    465a:	81 e0       	ldi	r24, 0x01	; 1
    465c:	80 93 b0 00 	sts	0x00B0, r24
    4660:	80 91 b1 00 	lds	r24, 0x00B1
    4664:	88 7f       	andi	r24, 0xF8	; 248
    4666:	84 60       	ori	r24, 0x04	; 4
    4668:	80 93 b1 00 	sts	0x00B1, r24
    466c:	10 92 b3 00 	sts	0x00B3, r1
    4670:	08 95       	ret
    4672:	cf 93       	push	r28
    4674:	c8 2f       	mov	r28, r24
    4676:	80 91 05 01 	lds	r24, 0x0105
    467a:	8c 13       	cpse	r24, r28
    467c:	07 c0       	rjmp	.+14     	;  0x468c
    467e:	e8 e6       	ldi	r30, 0x68	; 104
    4680:	f0 e0       	ldi	r31, 0x00	; 0
    4682:	84 91       	lpm	r24, Z
    4684:	9f ef       	ldi	r25, 0xFF	; 255
    4686:	90 93 05 01 	sts	0x0105, r25
    468a:	01 c0       	rjmp	.+2      	;  0x468e
    468c:	8f ef       	ldi	r24, 0xFF	; 255
    468e:	0e 94 19 23 	call	0x4632	;  0x4632
    4692:	60 e0       	ldi	r22, 0x00	; 0
    4694:	8c 2f       	mov	r24, r28
    4696:	cf 91       	pop	r28
    4698:	0c 94 5a 25 	jmp	0x4ab4	;  0x4ab4
    469c:	1f 92       	push	r1
    469e:	0f 92       	push	r0
    46a0:	0f b6       	in	r0, 0x3f	; 63
    46a2:	0f 92       	push	r0
    46a4:	11 24       	eor	r1, r1
    46a6:	2f 93       	push	r18
    46a8:	3f 93       	push	r19
    46aa:	4f 93       	push	r20
    46ac:	5f 93       	push	r21
    46ae:	6f 93       	push	r22
    46b0:	7f 93       	push	r23
    46b2:	8f 93       	push	r24
    46b4:	9f 93       	push	r25
    46b6:	af 93       	push	r26
    46b8:	bf 93       	push	r27
    46ba:	ef 93       	push	r30
    46bc:	ff 93       	push	r31
    46be:	80 91 f5 06 	lds	r24, 0x06F5
    46c2:	90 91 f6 06 	lds	r25, 0x06F6
    46c6:	a0 91 f7 06 	lds	r26, 0x06F7
    46ca:	b0 91 f8 06 	lds	r27, 0x06F8
    46ce:	89 2b       	or	r24, r25
    46d0:	8a 2b       	or	r24, r26
    46d2:	8b 2b       	or	r24, r27
    46d4:	51 f1       	breq	.+84     	;  0x472a
    46d6:	90 91 f2 06 	lds	r25, 0x06F2
    46da:	e0 91 f3 06 	lds	r30, 0x06F3
    46de:	f0 91 f4 06 	lds	r31, 0x06F4
    46e2:	80 81       	ld	r24, Z
    46e4:	89 27       	eor	r24, r25
    46e6:	80 83       	st	Z, r24
    46e8:	80 91 f5 06 	lds	r24, 0x06F5
    46ec:	90 91 f6 06 	lds	r25, 0x06F6
    46f0:	a0 91 f7 06 	lds	r26, 0x06F7
    46f4:	b0 91 f8 06 	lds	r27, 0x06F8
    46f8:	18 16       	cp	r1, r24
    46fa:	19 06       	cpc	r1, r25
    46fc:	1a 06       	cpc	r1, r26
    46fe:	1b 06       	cpc	r1, r27
    4700:	c4 f4       	brge	.+48     	;  0x4732
    4702:	80 91 f5 06 	lds	r24, 0x06F5
    4706:	90 91 f6 06 	lds	r25, 0x06F6
    470a:	a0 91 f7 06 	lds	r26, 0x06F7
    470e:	b0 91 f8 06 	lds	r27, 0x06F8
    4712:	01 97       	sbiw	r24, 0x01	; 1
    4714:	a1 09       	sbc	r26, r1
    4716:	b1 09       	sbc	r27, r1
    4718:	80 93 f5 06 	sts	0x06F5, r24
    471c:	90 93 f6 06 	sts	0x06F6, r25
    4720:	a0 93 f7 06 	sts	0x06F7, r26
    4724:	b0 93 f8 06 	sts	0x06F8, r27
    4728:	04 c0       	rjmp	.+8      	;  0x4732
    472a:	80 91 05 01 	lds	r24, 0x0105
    472e:	0e 94 39 23 	call	0x4672	;  0x4672
    4732:	ff 91       	pop	r31
    4734:	ef 91       	pop	r30
    4736:	bf 91       	pop	r27
    4738:	af 91       	pop	r26
    473a:	9f 91       	pop	r25
    473c:	8f 91       	pop	r24
    473e:	7f 91       	pop	r23
    4740:	6f 91       	pop	r22
    4742:	5f 91       	pop	r21
    4744:	4f 91       	pop	r20
    4746:	3f 91       	pop	r19
    4748:	2f 91       	pop	r18
    474a:	0f 90       	pop	r0
    474c:	0f be       	out	0x3f, r0	; 63
    474e:	0f 90       	pop	r0
    4750:	1f 90       	pop	r1
    4752:	18 95       	reti
    4754:	1f 92       	push	r1
    4756:	0f 92       	push	r0
    4758:	0f b6       	in	r0, 0x3f	; 63
    475a:	0f 92       	push	r0
    475c:	11 24       	eor	r1, r1
    475e:	2f 93       	push	r18
    4760:	3f 93       	push	r19
    4762:	4f 93       	push	r20
    4764:	5f 93       	push	r21
    4766:	6f 93       	push	r22
    4768:	7f 93       	push	r23
    476a:	8f 93       	push	r24
    476c:	9f 93       	push	r25
    476e:	af 93       	push	r26
    4770:	bf 93       	push	r27
    4772:	ef 93       	push	r30
    4774:	ff 93       	push	r31
    4776:	80 91 f9 06 	lds	r24, 0x06F9
    477a:	90 91 fa 06 	lds	r25, 0x06FA
    477e:	89 2b       	or	r24, r25
    4780:	29 f0       	breq	.+10     	;  0x478c
    4782:	e0 91 f9 06 	lds	r30, 0x06F9
    4786:	f0 91 fa 06 	lds	r31, 0x06FA
    478a:	09 95       	icall
    478c:	ff 91       	pop	r31
    478e:	ef 91       	pop	r30
    4790:	bf 91       	pop	r27
    4792:	af 91       	pop	r26
    4794:	9f 91       	pop	r25
    4796:	8f 91       	pop	r24
    4798:	7f 91       	pop	r23
    479a:	6f 91       	pop	r22
    479c:	5f 91       	pop	r21
    479e:	4f 91       	pop	r20
    47a0:	3f 91       	pop	r19
    47a2:	2f 91       	pop	r18
    47a4:	0f 90       	pop	r0
    47a6:	0f be       	out	0x3f, r0	; 63
    47a8:	0f 90       	pop	r0
    47aa:	1f 90       	pop	r1
    47ac:	18 95       	reti
    47ae:	1f 92       	push	r1
    47b0:	0f 92       	push	r0
    47b2:	0f b6       	in	r0, 0x3f	; 63
    47b4:	0f 92       	push	r0
    47b6:	11 24       	eor	r1, r1
    47b8:	2f 93       	push	r18
    47ba:	3f 93       	push	r19
    47bc:	4f 93       	push	r20
    47be:	5f 93       	push	r21
    47c0:	6f 93       	push	r22
    47c2:	7f 93       	push	r23
    47c4:	8f 93       	push	r24
    47c6:	9f 93       	push	r25
    47c8:	af 93       	push	r26
    47ca:	bf 93       	push	r27
    47cc:	ef 93       	push	r30
    47ce:	ff 93       	push	r31
    47d0:	80 91 fb 06 	lds	r24, 0x06FB
    47d4:	90 91 fc 06 	lds	r25, 0x06FC
    47d8:	89 2b       	or	r24, r25
    47da:	29 f0       	breq	.+10     	;  0x47e6
    47dc:	e0 91 fb 06 	lds	r30, 0x06FB
    47e0:	f0 91 fc 06 	lds	r31, 0x06FC
    47e4:	09 95       	icall
    47e6:	ff 91       	pop	r31
    47e8:	ef 91       	pop	r30
    47ea:	bf 91       	pop	r27
    47ec:	af 91       	pop	r26
    47ee:	9f 91       	pop	r25
    47f0:	8f 91       	pop	r24
    47f2:	7f 91       	pop	r23
    47f4:	6f 91       	pop	r22
    47f6:	5f 91       	pop	r21
    47f8:	4f 91       	pop	r20
    47fa:	3f 91       	pop	r19
    47fc:	2f 91       	pop	r18
    47fe:	0f 90       	pop	r0
    4800:	0f be       	out	0x3f, r0	; 63
    4802:	0f 90       	pop	r0
    4804:	1f 90       	pop	r1
    4806:	18 95       	reti
    4808:	08 95       	ret
    480a:	1f 92       	push	r1
    480c:	0f 92       	push	r0
    480e:	0f b6       	in	r0, 0x3f	; 63
    4810:	0f 92       	push	r0
    4812:	11 24       	eor	r1, r1
    4814:	2f 93       	push	r18
    4816:	3f 93       	push	r19
    4818:	8f 93       	push	r24
    481a:	9f 93       	push	r25
    481c:	af 93       	push	r26
    481e:	bf 93       	push	r27
    4820:	80 91 fd 06 	lds	r24, 0x06FD
    4824:	90 91 fe 06 	lds	r25, 0x06FE
    4828:	a0 91 ff 06 	lds	r26, 0x06FF
    482c:	b0 91 00 07 	lds	r27, 0x0700
    4830:	30 91 05 07 	lds	r19, 0x0705
    4834:	23 2f       	mov	r18, r19
    4836:	2d 5f       	subi	r18, 0xFD	; 253
    4838:	2d 37       	cpi	r18, 0x7D	; 125
    483a:	20 f4       	brcc	.+8      	;  0x4844
    483c:	01 96       	adiw	r24, 0x01	; 1
    483e:	a1 1d       	adc	r26, r1
    4840:	b1 1d       	adc	r27, r1
    4842:	05 c0       	rjmp	.+10     	;  0x484e
    4844:	23 2f       	mov	r18, r19
    4846:	2a 57       	subi	r18, 0x7A	; 122
    4848:	02 96       	adiw	r24, 0x02	; 2
    484a:	a1 1d       	adc	r26, r1
    484c:	b1 1d       	adc	r27, r1
    484e:	20 93 05 07 	sts	0x0705, r18
    4852:	80 93 fd 06 	sts	0x06FD, r24
    4856:	90 93 fe 06 	sts	0x06FE, r25
    485a:	a0 93 ff 06 	sts	0x06FF, r26
    485e:	b0 93 00 07 	sts	0x0700, r27
    4862:	80 91 01 07 	lds	r24, 0x0701
    4866:	90 91 02 07 	lds	r25, 0x0702
    486a:	a0 91 03 07 	lds	r26, 0x0703
    486e:	b0 91 04 07 	lds	r27, 0x0704
    4872:	01 96       	adiw	r24, 0x01	; 1
    4874:	a1 1d       	adc	r26, r1
    4876:	b1 1d       	adc	r27, r1
    4878:	80 93 01 07 	sts	0x0701, r24
    487c:	90 93 02 07 	sts	0x0702, r25
    4880:	a0 93 03 07 	sts	0x0703, r26
    4884:	b0 93 04 07 	sts	0x0704, r27
    4888:	bf 91       	pop	r27
    488a:	af 91       	pop	r26
    488c:	9f 91       	pop	r25
    488e:	8f 91       	pop	r24
    4890:	3f 91       	pop	r19
    4892:	2f 91       	pop	r18
    4894:	0f 90       	pop	r0
    4896:	0f be       	out	0x3f, r0	; 63
    4898:	0f 90       	pop	r0
    489a:	1f 90       	pop	r1
    489c:	18 95       	reti
    489e:	0f 93       	push	r16
    48a0:	1f 93       	push	r17
    48a2:	8f b7       	in	r24, 0x3f	; 63
    48a4:	f8 94       	cli
    48a6:	00 91 fd 06 	lds	r16, 0x06FD
    48aa:	10 91 fe 06 	lds	r17, 0x06FE
    48ae:	20 91 ff 06 	lds	r18, 0x06FF
    48b2:	30 91 00 07 	lds	r19, 0x0700
    48b6:	8f bf       	out	0x3f, r24	; 63
    48b8:	b8 01       	movw	r22, r16
    48ba:	c9 01       	movw	r24, r18
    48bc:	1f 91       	pop	r17
    48be:	0f 91       	pop	r16
    48c0:	08 95       	ret
    48c2:	0f 93       	push	r16
    48c4:	1f 93       	push	r17
    48c6:	9f b7       	in	r25, 0x3f	; 63
    48c8:	f8 94       	cli
    48ca:	00 91 01 07 	lds	r16, 0x0701
    48ce:	10 91 02 07 	lds	r17, 0x0702
    48d2:	20 91 03 07 	lds	r18, 0x0703
    48d6:	30 91 04 07 	lds	r19, 0x0704
    48da:	86 b5       	in	r24, 0x26	; 38
    48dc:	a8 9b       	sbis	0x15, 0	; 21
    48de:	06 c0       	rjmp	.+12     	;  0x48ec
    48e0:	8f 3f       	cpi	r24, 0xFF	; 255
    48e2:	21 f0       	breq	.+8      	;  0x48ec
    48e4:	0f 5f       	subi	r16, 0xFF	; 255
    48e6:	1f 4f       	sbci	r17, 0xFF	; 255
    48e8:	2f 4f       	sbci	r18, 0xFF	; 255
    48ea:	3f 4f       	sbci	r19, 0xFF	; 255
    48ec:	9f bf       	out	0x3f, r25	; 63
    48ee:	32 2f       	mov	r19, r18
    48f0:	21 2f       	mov	r18, r17
    48f2:	10 2f       	mov	r17, r16
    48f4:	00 27       	eor	r16, r16
    48f6:	08 0f       	add	r16, r24
    48f8:	11 1d       	adc	r17, r1
    48fa:	21 1d       	adc	r18, r1
    48fc:	31 1d       	adc	r19, r1
    48fe:	42 e0       	ldi	r20, 0x02	; 2
    4900:	00 0f       	add	r16, r16
    4902:	11 1f       	adc	r17, r17
    4904:	22 1f       	adc	r18, r18
    4906:	33 1f       	adc	r19, r19
    4908:	4a 95       	dec	r20
    490a:	d1 f7       	brne	.-12     	;  0x4900
    490c:	b8 01       	movw	r22, r16
    490e:	c9 01       	movw	r24, r18
    4910:	1f 91       	pop	r17
    4912:	0f 91       	pop	r16
    4914:	08 95       	ret
    4916:	cf 92       	push	r12
    4918:	df 92       	push	r13
    491a:	ef 92       	push	r14
    491c:	ff 92       	push	r15
    491e:	cf 93       	push	r28
    4920:	df 93       	push	r29
    4922:	6b 01       	movw	r12, r22
    4924:	7c 01       	movw	r14, r24
    4926:	0e 94 61 24 	call	0x48c2	;  0x48c2
    492a:	eb 01       	movw	r28, r22
    492c:	10 c0       	rjmp	.+32     	;  0x494e
    492e:	0e 94 04 24 	call	0x4808	;  0x4808
    4932:	0e 94 61 24 	call	0x48c2	;  0x48c2
    4936:	6c 1b       	sub	r22, r28
    4938:	7d 0b       	sbc	r23, r29
    493a:	68 3e       	cpi	r22, 0xE8	; 232
    493c:	73 40       	sbci	r23, 0x03	; 3
    493e:	38 f0       	brcs	.+14     	;  0x494e
    4940:	81 e0       	ldi	r24, 0x01	; 1
    4942:	c8 1a       	sub	r12, r24
    4944:	d1 08       	sbc	r13, r1
    4946:	e1 08       	sbc	r14, r1
    4948:	f1 08       	sbc	r15, r1
    494a:	c8 51       	subi	r28, 0x18	; 24
    494c:	dc 4f       	sbci	r29, 0xFC	; 252
    494e:	c1 14       	cp	r12, r1
    4950:	d1 04       	cpc	r13, r1
    4952:	e1 04       	cpc	r14, r1
    4954:	f1 04       	cpc	r15, r1
    4956:	59 f7       	brne	.-42     	;  0x492e
    4958:	df 91       	pop	r29
    495a:	cf 91       	pop	r28
    495c:	ff 90       	pop	r15
    495e:	ef 90       	pop	r14
    4960:	df 90       	pop	r13
    4962:	cf 90       	pop	r12
    4964:	08 95       	ret
    4966:	01 97       	sbiw	r24, 0x01	; 1
    4968:	39 f0       	breq	.+14     	;  0x4978
    496a:	88 0f       	add	r24, r24
    496c:	99 1f       	adc	r25, r25
    496e:	88 0f       	add	r24, r24
    4970:	99 1f       	adc	r25, r25
    4972:	02 97       	sbiw	r24, 0x02	; 2
    4974:	01 97       	sbiw	r24, 0x01	; 1
    4976:	f1 f7       	brne	.-4      	;  0x4974
    4978:	08 95       	ret
    497a:	78 94       	sei
    497c:	84 b5       	in	r24, 0x24	; 36
    497e:	82 60       	ori	r24, 0x02	; 2
    4980:	84 bd       	out	0x24, r24	; 36
    4982:	84 b5       	in	r24, 0x24	; 36
    4984:	81 60       	ori	r24, 0x01	; 1
    4986:	84 bd       	out	0x24, r24	; 36
    4988:	85 b5       	in	r24, 0x25	; 37
    498a:	82 60       	ori	r24, 0x02	; 2
    498c:	85 bd       	out	0x25, r24	; 37
    498e:	85 b5       	in	r24, 0x25	; 37
    4990:	81 60       	ori	r24, 0x01	; 1
    4992:	85 bd       	out	0x25, r24	; 37
    4994:	ee e6       	ldi	r30, 0x6E	; 110
    4996:	f0 e0       	ldi	r31, 0x00	; 0
    4998:	80 81       	ld	r24, Z
    499a:	81 60       	ori	r24, 0x01	; 1
    499c:	80 83       	st	Z, r24
    499e:	e1 e8       	ldi	r30, 0x81	; 129
    49a0:	f0 e0       	ldi	r31, 0x00	; 0
    49a2:	10 82       	st	Z, r1
    49a4:	80 81       	ld	r24, Z
    49a6:	82 60       	ori	r24, 0x02	; 2
    49a8:	80 83       	st	Z, r24
    49aa:	80 81       	ld	r24, Z
    49ac:	81 60       	ori	r24, 0x01	; 1
    49ae:	80 83       	st	Z, r24
    49b0:	e0 e8       	ldi	r30, 0x80	; 128
    49b2:	f0 e0       	ldi	r31, 0x00	; 0
    49b4:	80 81       	ld	r24, Z
    49b6:	81 60       	ori	r24, 0x01	; 1
    49b8:	80 83       	st	Z, r24
    49ba:	e1 eb       	ldi	r30, 0xB1	; 177
    49bc:	f0 e0       	ldi	r31, 0x00	; 0
    49be:	80 81       	ld	r24, Z
    49c0:	84 60       	ori	r24, 0x04	; 4
    49c2:	80 83       	st	Z, r24
    49c4:	e0 eb       	ldi	r30, 0xB0	; 176
    49c6:	f0 e0       	ldi	r31, 0x00	; 0
    49c8:	80 81       	ld	r24, Z
    49ca:	81 60       	ori	r24, 0x01	; 1
    49cc:	80 83       	st	Z, r24
    49ce:	ea e7       	ldi	r30, 0x7A	; 122
    49d0:	f0 e0       	ldi	r31, 0x00	; 0
    49d2:	80 81       	ld	r24, Z
    49d4:	84 60       	ori	r24, 0x04	; 4
    49d6:	80 83       	st	Z, r24
    49d8:	80 81       	ld	r24, Z
    49da:	82 60       	ori	r24, 0x02	; 2
    49dc:	80 83       	st	Z, r24
    49de:	80 81       	ld	r24, Z
    49e0:	81 60       	ori	r24, 0x01	; 1
    49e2:	80 83       	st	Z, r24
    49e4:	80 81       	ld	r24, Z
    49e6:	80 68       	ori	r24, 0x80	; 128
    49e8:	80 83       	st	Z, r24
    49ea:	10 92 c1 00 	sts	0x00C1, r1
    49ee:	08 95       	ret
    49f0:	83 30       	cpi	r24, 0x03	; 3
    49f2:	69 f0       	breq	.+26     	;  0x4a0e
    49f4:	28 f4       	brcc	.+10     	;  0x4a00
    49f6:	81 30       	cpi	r24, 0x01	; 1
    49f8:	a1 f0       	breq	.+40     	;  0x4a22
    49fa:	82 30       	cpi	r24, 0x02	; 2
    49fc:	11 f5       	brne	.+68     	;  0x4a42
    49fe:	14 c0       	rjmp	.+40     	;  0x4a28
    4a00:	86 30       	cpi	r24, 0x06	; 6
    4a02:	b1 f0       	breq	.+44     	;  0x4a30
    4a04:	87 30       	cpi	r24, 0x07	; 7
    4a06:	c1 f0       	breq	.+48     	;  0x4a38
    4a08:	84 30       	cpi	r24, 0x04	; 4
    4a0a:	d9 f4       	brne	.+54     	;  0x4a42
    4a0c:	04 c0       	rjmp	.+8      	;  0x4a16
    4a0e:	80 91 80 00 	lds	r24, 0x0080
    4a12:	8f 77       	andi	r24, 0x7F	; 127
    4a14:	03 c0       	rjmp	.+6      	;  0x4a1c
    4a16:	80 91 80 00 	lds	r24, 0x0080
    4a1a:	8f 7d       	andi	r24, 0xDF	; 223
    4a1c:	80 93 80 00 	sts	0x0080, r24
    4a20:	08 95       	ret
    4a22:	84 b5       	in	r24, 0x24	; 36
    4a24:	8f 77       	andi	r24, 0x7F	; 127
    4a26:	02 c0       	rjmp	.+4      	;  0x4a2c
    4a28:	84 b5       	in	r24, 0x24	; 36
    4a2a:	8f 7d       	andi	r24, 0xDF	; 223
    4a2c:	84 bd       	out	0x24, r24	; 36
    4a2e:	08 95       	ret
    4a30:	80 91 b0 00 	lds	r24, 0x00B0
    4a34:	8f 77       	andi	r24, 0x7F	; 127
    4a36:	03 c0       	rjmp	.+6      	;  0x4a3e
    4a38:	80 91 b0 00 	lds	r24, 0x00B0
    4a3c:	8f 7d       	andi	r24, 0xDF	; 223
    4a3e:	80 93 b0 00 	sts	0x00B0, r24
    4a42:	08 95       	ret
    4a44:	cf 93       	push	r28
    4a46:	df 93       	push	r29
    4a48:	90 e0       	ldi	r25, 0x00	; 0
    4a4a:	fc 01       	movw	r30, r24
    4a4c:	e3 58       	subi	r30, 0x83	; 131
    4a4e:	ff 4f       	sbci	r31, 0xFF	; 255
    4a50:	44 91       	lpm	r20, Z
    4a52:	fc 01       	movw	r30, r24
    4a54:	ef 56       	subi	r30, 0x6F	; 111
    4a56:	ff 4f       	sbci	r31, 0xFF	; 255
    4a58:	84 91       	lpm	r24, Z
    4a5a:	88 23       	and	r24, r24
    4a5c:	41 f1       	breq	.+80     	;  0x4aae
    4a5e:	90 e0       	ldi	r25, 0x00	; 0
    4a60:	88 0f       	add	r24, r24
    4a62:	99 1f       	adc	r25, r25
    4a64:	fc 01       	movw	r30, r24
    4a66:	e7 54       	subi	r30, 0x47	; 71
    4a68:	ff 4f       	sbci	r31, 0xFF	; 255
    4a6a:	25 91       	lpm	r18, Z+
    4a6c:	34 91       	lpm	r19, Z
    4a6e:	d9 01       	movw	r26, r18
    4a70:	81 55       	subi	r24, 0x51	; 81
    4a72:	9f 4f       	sbci	r25, 0xFF	; 255
    4a74:	fc 01       	movw	r30, r24
    4a76:	85 91       	lpm	r24, Z+
    4a78:	94 91       	lpm	r25, Z
    4a7a:	c8 2f       	mov	r28, r24
    4a7c:	d9 2f       	mov	r29, r25
    4a7e:	9f b7       	in	r25, 0x3f	; 63
    4a80:	f8 94       	cli
    4a82:	8c 91       	ld	r24, X
    4a84:	61 11       	cpse	r22, r1
    4a86:	06 c0       	rjmp	.+12     	;  0x4a94
    4a88:	40 95       	com	r20
    4a8a:	84 23       	and	r24, r20
    4a8c:	8c 93       	st	X, r24
    4a8e:	88 81       	ld	r24, Y
    4a90:	84 23       	and	r24, r20
    4a92:	08 c0       	rjmp	.+16     	;  0x4aa4
    4a94:	62 30       	cpi	r22, 0x02	; 2
    4a96:	41 f4       	brne	.+16     	;  0x4aa8
    4a98:	24 2f       	mov	r18, r20
    4a9a:	20 95       	com	r18
    4a9c:	82 23       	and	r24, r18
    4a9e:	8c 93       	st	X, r24
    4aa0:	88 81       	ld	r24, Y
    4aa2:	84 2b       	or	r24, r20
    4aa4:	88 83       	st	Y, r24
    4aa6:	02 c0       	rjmp	.+4      	;  0x4aac
    4aa8:	84 2b       	or	r24, r20
    4aaa:	8c 93       	st	X, r24
    4aac:	9f bf       	out	0x3f, r25	; 63
    4aae:	df 91       	pop	r29
    4ab0:	cf 91       	pop	r28
    4ab2:	08 95       	ret
    4ab4:	0f 93       	push	r16
    4ab6:	1f 93       	push	r17
    4ab8:	cf 93       	push	r28
    4aba:	df 93       	push	r29
    4abc:	1f 92       	push	r1
    4abe:	cd b7       	in	r28, 0x3d	; 61
    4ac0:	de b7       	in	r29, 0x3e	; 62
    4ac2:	28 2f       	mov	r18, r24
    4ac4:	30 e0       	ldi	r19, 0x00	; 0
    4ac6:	f9 01       	movw	r30, r18
    4ac8:	e7 59       	subi	r30, 0x97	; 151
    4aca:	ff 4f       	sbci	r31, 0xFF	; 255
    4acc:	84 91       	lpm	r24, Z
    4ace:	f9 01       	movw	r30, r18
    4ad0:	e3 58       	subi	r30, 0x83	; 131
    4ad2:	ff 4f       	sbci	r31, 0xFF	; 255
    4ad4:	14 91       	lpm	r17, Z
    4ad6:	f9 01       	movw	r30, r18
    4ad8:	ef 56       	subi	r30, 0x6F	; 111
    4ada:	ff 4f       	sbci	r31, 0xFF	; 255
    4adc:	04 91       	lpm	r16, Z
    4ade:	00 23       	and	r16, r16
    4ae0:	d1 f0       	breq	.+52     	;  0x4b16
    4ae2:	88 23       	and	r24, r24
    4ae4:	21 f0       	breq	.+8      	;  0x4aee
    4ae6:	69 83       	std	Y+1, r22	; 0x01
    4ae8:	0e 94 f8 24 	call	0x49f0	;  0x49f0
    4aec:	69 81       	ldd	r22, Y+1	; 0x01
    4aee:	e0 2f       	mov	r30, r16
    4af0:	f0 e0       	ldi	r31, 0x00	; 0
    4af2:	ee 0f       	add	r30, r30
    4af4:	ff 1f       	adc	r31, r31
    4af6:	e1 55       	subi	r30, 0x51	; 81
    4af8:	ff 4f       	sbci	r31, 0xFF	; 255
    4afa:	85 91       	lpm	r24, Z+
    4afc:	94 91       	lpm	r25, Z
    4afe:	dc 01       	movw	r26, r24
    4b00:	9f b7       	in	r25, 0x3f	; 63
    4b02:	f8 94       	cli
    4b04:	8c 91       	ld	r24, X
    4b06:	61 11       	cpse	r22, r1
    4b08:	03 c0       	rjmp	.+6      	;  0x4b10
    4b0a:	10 95       	com	r17
    4b0c:	81 23       	and	r24, r17
    4b0e:	01 c0       	rjmp	.+2      	;  0x4b12
    4b10:	81 2b       	or	r24, r17
    4b12:	8c 93       	st	X, r24
    4b14:	9f bf       	out	0x3f, r25	; 63
    4b16:	0f 90       	pop	r0
    4b18:	df 91       	pop	r29
    4b1a:	cf 91       	pop	r28
    4b1c:	1f 91       	pop	r17
    4b1e:	0f 91       	pop	r16
    4b20:	08 95       	ret
    4b22:	cf 93       	push	r28
    4b24:	df 93       	push	r29
    4b26:	28 2f       	mov	r18, r24
    4b28:	30 e0       	ldi	r19, 0x00	; 0
    4b2a:	f9 01       	movw	r30, r18
    4b2c:	e7 59       	subi	r30, 0x97	; 151
    4b2e:	ff 4f       	sbci	r31, 0xFF	; 255
    4b30:	84 91       	lpm	r24, Z
    4b32:	f9 01       	movw	r30, r18
    4b34:	e3 58       	subi	r30, 0x83	; 131
    4b36:	ff 4f       	sbci	r31, 0xFF	; 255
    4b38:	d4 91       	lpm	r29, Z
    4b3a:	f9 01       	movw	r30, r18
    4b3c:	ef 56       	subi	r30, 0x6F	; 111
    4b3e:	ff 4f       	sbci	r31, 0xFF	; 255
    4b40:	c4 91       	lpm	r28, Z
    4b42:	cc 23       	and	r28, r28
    4b44:	89 f0       	breq	.+34     	;  0x4b68
    4b46:	81 11       	cpse	r24, r1
    4b48:	0e 94 f8 24 	call	0x49f0	;  0x49f0
    4b4c:	ec 2f       	mov	r30, r28
    4b4e:	f0 e0       	ldi	r31, 0x00	; 0
    4b50:	ee 0f       	add	r30, r30
    4b52:	ff 1f       	adc	r31, r31
    4b54:	eb 55       	subi	r30, 0x5B	; 91
    4b56:	ff 4f       	sbci	r31, 0xFF	; 255
    4b58:	85 91       	lpm	r24, Z+
    4b5a:	94 91       	lpm	r25, Z
    4b5c:	dc 01       	movw	r26, r24
    4b5e:	8c 91       	ld	r24, X
    4b60:	8d 23       	and	r24, r29
    4b62:	21 e0       	ldi	r18, 0x01	; 1
    4b64:	30 e0       	ldi	r19, 0x00	; 0
    4b66:	11 f4       	brne	.+4      	;  0x4b6c
    4b68:	20 e0       	ldi	r18, 0x00	; 0
    4b6a:	30 e0       	ldi	r19, 0x00	; 0
    4b6c:	c9 01       	movw	r24, r18
    4b6e:	df 91       	pop	r29
    4b70:	cf 91       	pop	r28
    4b72:	08 95       	ret
    4b74:	97 fb       	bst	r25, 7
    4b76:	07 2e       	mov	r0, r23
    4b78:	16 f4       	brtc	.+4      	;  0x4b7e
    4b7a:	00 94       	com	r0
    4b7c:	07 d0       	rcall	.+14     	;  0x4b8c
    4b7e:	77 fd       	sbrc	r23, 7
    4b80:	09 d0       	rcall	.+18     	;  0x4b94
    4b82:	0e 94 f0 25 	call	0x4be0	;  0x4be0
    4b86:	07 fc       	sbrc	r0, 7
    4b88:	05 d0       	rcall	.+10     	;  0x4b94
    4b8a:	3e f4       	brtc	.+14     	;  0x4b9a
    4b8c:	90 95       	com	r25
    4b8e:	81 95       	neg	r24
    4b90:	9f 4f       	sbci	r25, 0xFF	; 255
    4b92:	08 95       	ret
    4b94:	70 95       	com	r23
    4b96:	61 95       	neg	r22
    4b98:	7f 4f       	sbci	r23, 0xFF	; 255
    4b9a:	08 95       	ret
    4b9c:	a1 e2       	ldi	r26, 0x21	; 33
    4b9e:	1a 2e       	mov	r1, r26
    4ba0:	aa 1b       	sub	r26, r26
    4ba2:	bb 1b       	sub	r27, r27
    4ba4:	fd 01       	movw	r30, r26
    4ba6:	0d c0       	rjmp	.+26     	;  0x4bc2
    4ba8:	aa 1f       	adc	r26, r26
    4baa:	bb 1f       	adc	r27, r27
    4bac:	ee 1f       	adc	r30, r30
    4bae:	ff 1f       	adc	r31, r31
    4bb0:	a2 17       	cp	r26, r18
    4bb2:	b3 07       	cpc	r27, r19
    4bb4:	e4 07       	cpc	r30, r20
    4bb6:	f5 07       	cpc	r31, r21
    4bb8:	20 f0       	brcs	.+8      	;  0x4bc2
    4bba:	a2 1b       	sub	r26, r18
    4bbc:	b3 0b       	sbc	r27, r19
    4bbe:	e4 0b       	sbc	r30, r20
    4bc0:	f5 0b       	sbc	r31, r21
    4bc2:	66 1f       	adc	r22, r22
    4bc4:	77 1f       	adc	r23, r23
    4bc6:	88 1f       	adc	r24, r24
    4bc8:	99 1f       	adc	r25, r25
    4bca:	1a 94       	dec	r1
    4bcc:	69 f7       	brne	.-38     	;  0x4ba8
    4bce:	60 95       	com	r22
    4bd0:	70 95       	com	r23
    4bd2:	80 95       	com	r24
    4bd4:	90 95       	com	r25
    4bd6:	9b 01       	movw	r18, r22
    4bd8:	ac 01       	movw	r20, r24
    4bda:	bd 01       	movw	r22, r26
    4bdc:	cf 01       	movw	r24, r30
    4bde:	08 95       	ret
    4be0:	aa 1b       	sub	r26, r26
    4be2:	bb 1b       	sub	r27, r27
    4be4:	51 e1       	ldi	r21, 0x11	; 17
    4be6:	07 c0       	rjmp	.+14     	;  0x4bf6
    4be8:	aa 1f       	adc	r26, r26
    4bea:	bb 1f       	adc	r27, r27
    4bec:	a6 17       	cp	r26, r22
    4bee:	b7 07       	cpc	r27, r23
    4bf0:	10 f0       	brcs	.+4      	;  0x4bf6
    4bf2:	a6 1b       	sub	r26, r22
    4bf4:	b7 0b       	sbc	r27, r23
    4bf6:	88 1f       	adc	r24, r24
    4bf8:	99 1f       	adc	r25, r25
    4bfa:	5a 95       	dec	r21
    4bfc:	a9 f7       	brne	.-22     	;  0x4be8
    4bfe:	80 95       	com	r24
    4c00:	90 95       	com	r25
    4c02:	bc 01       	movw	r22, r24
    4c04:	cd 01       	movw	r24, r26
    4c06:	08 95       	ret
    4c08:	ee 0f       	add	r30, r30
    4c0a:	ff 1f       	adc	r31, r31
    4c0c:	05 90       	lpm	r0, Z+
    4c0e:	f4 91       	lpm	r31, Z
    4c10:	e0 2d       	mov	r30, r0
    4c12:	09 94       	ijmp
    4c14:	80 32       	cpi	r24, 0x20	; 32
    4c16:	09 f0       	breq	.+2      	;  0x4c1a
    4c18:	91 11       	cpse	r25, r1
    4c1a:	34 c0       	rjmp	.+104    	;  0x4c84
    4c1c:	80 52       	subi	r24, 0x20	; 32
    4c1e:	8f 55       	subi	r24, 0x5F	; 95
    4c20:	e0 f7       	brcc	.-8      	;  0x4c1a
    4c22:	08 95       	ret
    4c24:	fb 01       	movw	r30, r22
    4c26:	dc 01       	movw	r26, r24
    4c28:	04 c0       	rjmp	.+8      	;  0x4c32
    4c2a:	8d 91       	ld	r24, X+
    4c2c:	01 90       	ld	r0, Z+
    4c2e:	80 19       	sub	r24, r0
    4c30:	21 f4       	brne	.+8      	;  0x4c3a
    4c32:	41 50       	subi	r20, 0x01	; 1
    4c34:	50 40       	sbci	r21, 0x00	; 0
    4c36:	c8 f7       	brcc	.-14     	;  0x4c2a
    4c38:	88 1b       	sub	r24, r24
    4c3a:	99 0b       	sbc	r25, r25
    4c3c:	08 95       	ret
    4c3e:	fb 01       	movw	r30, r22
    4c40:	dc 01       	movw	r26, r24
    4c42:	02 c0       	rjmp	.+4      	;  0x4c48
    4c44:	01 90       	ld	r0, Z+
    4c46:	0d 92       	st	X+, r0
    4c48:	41 50       	subi	r20, 0x01	; 1
    4c4a:	50 40       	sbci	r21, 0x00	; 0
    4c4c:	d8 f7       	brcc	.-10     	;  0x4c44
    4c4e:	08 95       	ret
    4c50:	68 17       	cp	r22, r24
    4c52:	79 07       	cpc	r23, r25
    4c54:	68 f4       	brcc	.+26     	;  0x4c70
    4c56:	fb 01       	movw	r30, r22
    4c58:	dc 01       	movw	r26, r24
    4c5a:	e4 0f       	add	r30, r20
    4c5c:	f5 1f       	adc	r31, r21
    4c5e:	a4 0f       	add	r26, r20
    4c60:	b5 1f       	adc	r27, r21
    4c62:	02 c0       	rjmp	.+4      	;  0x4c68
    4c64:	02 90       	ld	r0, -Z
    4c66:	0e 92       	st	-X, r0
    4c68:	41 50       	subi	r20, 0x01	; 1
    4c6a:	50 40       	sbci	r21, 0x00	; 0
    4c6c:	d8 f7       	brcc	.-10     	;  0x4c64
    4c6e:	08 95       	ret
    4c70:	0c 94 1f 26 	jmp	0x4c3e	;  0x4c3e
    4c74:	f9 99       	sbic	0x1f, 1	; 31
    4c76:	fe cf       	rjmp	.-4      	;  0x4c74
    4c78:	92 bd       	out	0x22, r25	; 34
    4c7a:	81 bd       	out	0x21, r24	; 33
    4c7c:	f8 9a       	sbi	0x1f, 0	; 31
    4c7e:	99 27       	eor	r25, r25
    4c80:	80 b5       	in	r24, 0x20	; 32
    4c82:	08 95       	ret
    4c84:	99 27       	eor	r25, r25
    4c86:	88 27       	eor	r24, r24
    4c88:	08 95       	ret
    4c8a:	10 e0       	ldi	r17, 0x00	; 0
    4c8c:	c8 ed       	ldi	r28, 0xD8	; 216
    4c8e:	d0 e0       	ldi	r29, 0x00	; 0
    4c90:	04 c0       	rjmp	.+8      	;  0x4c9a
    4c92:	fe 01       	movw	r30, r28
    4c94:	0e 94 06 26 	call	0x4c0c	;  0x4c0c
    4c98:	22 96       	adiw	r28, 0x02	; 2
    4c9a:	ca 3d       	cpi	r28, 0xDA	; 218
    4c9c:	d1 07       	cpc	r29, r17
    4c9e:	c9 f7       	brne	.-14     	;  0x4c92
    4ca0:	f8 94       	cli
    4ca2:	ff cf       	rjmp	.-2      	;  0x4ca2
