Archive member included because of file (symbol)

../../lib/librxduino.a(analogio.o)
                              pwm_test.o (analogWrite)
../../lib/librxduino.a(digitalio.o)
                              pwm_test.o (pinMode)
../../lib/librxduino.a(rxduino.o)
                              ../../lib/start.o (main)
../../lib/librxduino.a(serial.o)
                              pwm_test.o (CSerial::begin(int))
../../lib/librxduino.a(delay.o)
                              ../../lib/librxduino.a(digitalio.o) (micros)
../../lib/libtkdnhal.a(hwsetup.o)
                              ../../lib/start.o (tkdn_hwsetup)
../../lib/libtkdnhal.a(tkdn_sci.o)
                              ../../common/intvect.o (Excep_SCI0_ERI0)
../../lib/libtkdnhal.a(tkdn_ether.o)
                              ../../common/intvect.o (Excep_ETHER_EINT)
../../lib/libtkdnhal.a(tkdn_timer.o)
                              pwm_test.o (timer_wait_ms)
../../lib/libtkdnhal.a(tkdn_gpio.o)
                              ../../lib/librxduino.a(digitalio.o) (gpio_set_pinmode)
../../lib/libtkdnhal.a(tkdn_pwm.o)
                              ../../lib/librxduino.a(analogio.o) (pwm_init)
../../lib/libtkdnhal.a(tkdn_tone.o)
                              ../../common/intvect.o (Excep_MTU2_TGIA2)
../../lib/libtkdnhal.a(tkdn_adc.o)
                              ../../lib/librxduino.a(analogio.o) (adc_sample)
../../lib/libtkdnhal.a(tkdn_dac.o)
                              ../../lib/librxduino.a(analogio.o) (dac_output)
../../lib/libtkdnhal.a(phy.o)
                              ../../lib/libtkdnhal.a(tkdn_ether.o) (_phy_read)
../../lib/libtkdnhal.a(eidi.o)
                              ../../lib/libtkdnhal.a(tkdn_ether.o) (enable_interrupt)
../../lib/libtkdnhal.a(usb_cdc.o)
                              ../../lib/libtkdnhal.a(tkdn_sci.o) (TKUSB_Init)
../../lib/libtkdnhal.a(usb_core.o)
                              ../../lib/libtkdnhal.a(usb_cdc.o) (USBCORE_Init)
../../lib/libtkdnhal.a(usb_hal.o)
                              ../../lib/libtkdnhal.a(tkdn_sci.o) (TKUSB_RecvByte)
../../lib/libtkdnhal.a(usbdescriptors.o)
                              ../../lib/libtkdnhal.a(usb_cdc.o) (gStringDescriptorSerialNum)
../../lib/libtkdnhal.a(tkdn_interrupt.o)
                              ../../common/intvect.o (Excep_IRQ0)

Allocating common symbols
Common symbol       size              file

sci_default         0x21c             ../../lib/libtkdnhal.a(tkdn_sci.o)
user_rx_func        0x4               ../../lib/libtkdnhal.a(tkdn_ether.o)
sci_handles         0x18              ../../lib/libtkdnhal.a(tkdn_sci.o)
ifunc               0x20              ../../lib/libtkdnhal.a(tkdn_interrupt.o)
psci_default        0x4               ../../lib/libtkdnhal.a(tkdn_sci.o)

Memory Configuration

Name             Origin             Length             Attributes
*default*        0x00000000         0xffffffff

Linker script and memory map

LOAD ../../lib/start.o
LOAD pwm_test.o
LOAD ../../common/intvect.o
                0x00017f00                _usp_init = 0x17f00
                0x00018000                _isp_init = 0x18000

.fvectors       0xffffffd0       0x30
 *.o(.fvectors)
 .fvectors      0xffffffd0       0x30 ../../common/intvect.o
                0xffffffd0                Fixed_Vectors

.rvectors       0xfff80000      0x400
 *.o(.rvectors)
 .rvectors      0xfff80000      0x400 ../../common/intvect.o
                0xfff80000                Relocatable_Vectors

.text           0xfff80400     0x41a0
                0xfff80400                PROVIDE (_start, .)
 *(.text P .stub .text.* .gnu.linkonce.t.*)
 P              0xfff80400       0x8c ../../lib/start.o
                0xfff80400                start
                0xfff80400                PowerON_Reset_PC
                0xfff8048a                _rx_fini
                0xfff8048b                __cxa_atexit
 P              0xfff8048c      0x19e pwm_test.o
                0xfff8048c                setup
                0xfff804df                ledbright(unsigned char)
                0xfff804fb                loop
 P              0xfff8062a      0x444 ../../common/intvect.o
                0xfff8062a                Excep_SuperVisorInst
                0xfff80632                Excep_UndefinedInst
                0xfff8063a                Excep_FloatingPoint
                0xfff80642                NonMaskableInterrupt
                0xfff8064a                Excep_BRK
                0xfff80652                Excep_BUSERR
                0xfff8065a                Excep_FCU_FCUERR
                0xfff80662                Excep_FCU_FRDYI
                0xfff8066a                Excep_ICU_SWINT
                0xfff80672                Excep_CMTU0_CMT1
                0xfff8067a                Excep_CMTU1_CMT3
                0xfff80682                Excep_USB0_D0FIFO0
                0xfff8068a                Excep_USB0_D1FIFO0
                0xfff80692                Excep_USB0_USBI0
                0xfff806a4                Excep_USB1_D0FIFO1
                0xfff806ac                Excep_USB1_D1FIFO1
                0xfff806b4                Excep_USB1_USBI1
                0xfff806c6                Excep_RSPI0_SPEI0
                0xfff806ce                Excep_RSPI0_SPRI0
                0xfff806d6                Excep_RSPI0_SPTI0
                0xfff806de                Excep_RSPI0_SPII0
                0xfff806e6                Excep_RSPI1_SPEI1
                0xfff806ee                Excep_RSPI1_SPRI1
                0xfff806f6                Excep_RSPI1_SPTI1
                0xfff806fe                Excep_RSPI1_SPII1
                0xfff80706                Excep_CAN0_ERS0
                0xfff8070e                Excep_CAN0_RXF0
                0xfff80716                Excep_CAN0_TXF0
                0xfff8071e                Excep_CAN0_RXM0
                0xfff80726                Excep_CAN0_TXM0
                0xfff8072e                Excep_RTC_PRD
                0xfff80736                Excep_RTC_CUP
                0xfff8073e                Excep_IRQ8
                0xfff80746                Excep_IRQ9
                0xfff8074e                Excep_IRQ10
                0xfff80756                Excep_IRQ11
                0xfff8075e                Excep_IRQ12
                0xfff80766                Excep_IRQ13
                0xfff8076e                Excep_IRQ14
                0xfff80776                Excep_IRQ15
                0xfff8077e                Excep_USB_USBR0
                0xfff80786                Excep_USB_USBR1
                0xfff8078e                Excep_RTC_ALM
                0xfff80796                Excep_WDT_WOVI
                0xfff8079e                Excep_AD0_ADI0
                0xfff807a6                Excep_AD1_ADI1
                0xfff807ae                Excep_S12AD_ADI12
                0xfff807b6                Excep_MTU0_TCIV0
                0xfff807be                Excep_MTU1_TGIB1
                0xfff807c6                Excep_MTU1_TCIV1
                0xfff807ce                Excep_MTU1_TCIU1
                0xfff807d6                Excep_MTU2_TGIB2
                0xfff807de                Excep_MTU2_TCIV2
                0xfff807e6                Excep_MTU2_TCIU2
                0xfff807ee                Excep_MTU3_TGIA3
                0xfff807f6                Excep_MTU3_TGIB3
                0xfff807fe                Excep_MTU3_TGIC3
                0xfff80806                Excep_MTU3_TGID3
                0xfff8080e                Excep_MTU3_TCIV3
                0xfff80816                Excep_MTU4_TGIA4
                0xfff8081e                Excep_MTU4_TGIB4
                0xfff80826                Excep_MTU4_TGIC4
                0xfff8082e                Excep_MTU4_TGID4
                0xfff80836                Excep_MTU4_TCIV4
                0xfff8083e                Excep_MTU5_TCIU5
                0xfff80846                Excep_MTU5_TCIV5
                0xfff8084e                Excep_MTU5_TCIW5
                0xfff80856                Excep_MTU6_TGIA6
                0xfff8085e                Excep_MTU6_TGIB6
                0xfff80866                Excep_MTU6_TGIC6
                0xfff8086e                Excep_MTU6_TGID6
                0xfff80876                Excep_MTU6_TCIV6
                0xfff8087e                Excep_MTU6_TGIE6
                0xfff80886                Excep_MTU6_TGIF6
                0xfff8088e                Excep_MTU7_TGIA7
                0xfff80896                Excep_MTU7_TGIB7
                0xfff8089e                Excep_MTU7_TCIV7
                0xfff808a6                Excep_MTU7_TCIU7
                0xfff808ae                Excep_MTU8_TGIA8
                0xfff808b6                Excep_MTU8_TGIB8
                0xfff808be                Excep_MTU8_TCIV8
                0xfff808c6                Excep_MTU8_TCIU8
                0xfff808ce                Excep_MTU9_TGIA9
                0xfff808d6                Excep_MTU9_TGIB9
                0xfff808de                Excep_MTU9_TGIC9
                0xfff808e6                Excep_MTU9_TGID9
                0xfff808ee                Excep_MTU9_TCIV9
                0xfff808f6                Excep_MTU10_TGIA10
                0xfff808fe                Excep_MTU10_TGIB10
                0xfff80906                Excep_MTU10_TGIC10
                0xfff8090e                Excep_MTU10_TGID10
                0xfff80916                Excep_MTU10_TCIV10
                0xfff8091e                Excep_MTU11_TCIU11
                0xfff80926                Excep_MTU11_TCIV11
                0xfff8092e                Excep_MTU11_TCIW11
                0xfff80936                Excep_POE_OEI1
                0xfff8093e                Excep_POE_OEI2
                0xfff80946                Excep_POE_OEI3
                0xfff8094e                Excep_POE_OEI4
                0xfff80956                Excep_TMR0_CMI0A
                0xfff8095e                Excep_TMR0_CMI0B
                0xfff80966                Excep_TMR0_OV0I
                0xfff8096e                Excep_TMR1_CMI1A
                0xfff80976                Excep_TMR1_CMI1B
                0xfff8097e                Excep_TMR1_OV1I
                0xfff80986                Excep_TMR2_CMI2A
                0xfff8098e                Excep_TMR2_CMI2B
                0xfff80996                Excep_TMR2_OV2I
                0xfff8099e                Excep_TMR3_CMI3A
                0xfff809a6                Excep_TMR3_CMI3B
                0xfff809ae                Excep_TMR3_OV3I
                0xfff809b6                Excep_DMACA_DMAC0
                0xfff809be                Excep_DMACA_DMAC1
                0xfff809c6                Excep_DMACA_DMAC2
                0xfff809ce                Excep_DMACA_DMAC3
                0xfff809d6                Excep_EXDMAC_DMAC0
                0xfff809de                Excep_EXDMAC_DMAC1
                0xfff809e6                Excep_SCI3_ERI3
                0xfff809ee                Excep_SCI3_RXI3
                0xfff809f6                Excep_SCI3_TXI3
                0xfff809fe                Excep_SCI3_TEI3
                0xfff80a06                Excep_SCI5_ERI5
                0xfff80a0e                Excep_SCI5_RXI5
                0xfff80a16                Excep_SCI5_TXI5
                0xfff80a1e                Excep_SCI5_TEI5
                0xfff80a26                Excep_RIIC0_EEI0
                0xfff80a2e                Excep_RIIC0_RXI0
                0xfff80a36                Excep_RIIC0_TXI0
                0xfff80a3e                Excep_RIIC0_TEI0
                0xfff80a46                Excep_RIIC1_EEI1
                0xfff80a4e                Excep_RIIC1_RXI1
                0xfff80a56                Excep_RIIC1_TXI1
                0xfff80a5e                Excep_RIIC1_TEI1
                0xfff80a66                Dummy
 *fill*         0xfff80a6e        0x2 00
 P              0xfff80a70       0x30 ../../lib/librxduino.a(analogio.o)
                0xfff80a70                analogRead
                0xfff80a83                analogWrite
                0xfff80a87                analogWriteDAC
                0xfff80a90                analogReference
                0xfff80a99                analogWriteFrequency
 P              0xfff80aa0       0x98 ../../lib/librxduino.a(digitalio.o)
                0xfff80aa0                pinMode
                0xfff80ac3                digitalWrite
                0xfff80ae6                digitalRead
                0xfff80aea                pulseIn
 P              0xfff80b38        0x0 ../../lib/librxduino.a(rxduino.o)
 .text.startup  0xfff80b38       0x18 ../../lib/librxduino.a(rxduino.o)
                0xfff80b38                main
 P              0xfff80b50      0x210 ../../lib/librxduino.a(serial.o)
                0xfff80b50                CSerial::~CSerial()
                0xfff80b50                CSerial::~CSerial()
                0xfff80b51                CSerial::CSerial(SCI_PORT)
                0xfff80b51                CSerial::CSerial(SCI_PORT)
                0xfff80b54                CSerial::begin(int)
                0xfff80b7d                CSerial::begin(int, SCI_PORT)
                0xfff80ba2                CSerial::end()
                0xfff80ba3                CSerial::setDefault()
                0xfff80ba9                CSerial::available()
                0xfff80baf                CSerial::read()
                0xfff80bcf                CSerial::write(char)
                0xfff80bd5                CSerial::write(char const*)
                0xfff80bdb                CSerial::write(char const*, int)
                0xfff80be1                CSerial::print(int, CSerial::PRINT_TYPE)
                0xfff80cc4                CSerial::println(int, CSerial::PRINT_TYPE)
                0xfff80ce0                CSerial::print(double, int)
                0xfff80cec                CSerial::println(double, int)
                0xfff80d0f                CSerial::print(char const*)
                0xfff80d15                CSerial::println(char const*)
                0xfff80d32                CSerial::peek()
                0xfff80d52                CSerial::flush()
                0xfff80d58                CSerial::get_handle()
 .text.startup  0xfff80d60       0x66 ../../lib/librxduino.a(serial.o)
 P              0xfff80dc6       0x10 ../../lib/librxduino.a(delay.o)
                0xfff80dc6                millis
                0xfff80dca                micros
                0xfff80dce                delay
                0xfff80dd2                delayMicroseconds
 P              0xfff80dd6       0x45 ../../lib/libtkdnhal.a(hwsetup.o)
                0xfff80dd6                tkdn_hwsetup
                0xfff80e1a                sdram_init
 *fill*         0xfff80e1b        0x5 00
 P              0xfff80e20      0xe70 ../../lib/libtkdnhal.a(tkdn_sci.o)
                0xfff81191                sci_getport
                0xfff8119d                sci_readdata
                0xfff8119e                sci_convert_crlf
                0xfff811ad                Excep_SCI0_ERI0
                0xfff811d6                Excep_SCI0_RXI0
                0xfff811ff                Excep_SCI0_TXI0
                0xfff8124b                Excep_SCI0_TEI0
                0xfff81263                Excep_SCI1_ERI1
                0xfff8128d                Excep_SCI1_RXI1
                0xfff812b7                Excep_SCI1_TXI1
                0xfff81304                Excep_SCI1_TEI1
                0xfff8131c                Excep_SCI2_ERI2
                0xfff81346                Excep_SCI2_RXI2
                0xfff81370                Excep_SCI2_TXI2
                0xfff813bd                Excep_SCI2_TEI2
                0xfff813d5                Excep_SCI6_ERI6
                0xfff813ff                Excep_SCI6_RXI6
                0xfff81429                Excep_SCI6_TXI6
                0xfff81476                Excep_SCI6_TEI6
                0xfff8148e                sci_putc_ex
                0xfff81544                sci_putc
                0xfff81552                sci_puts_ex
                0xfff81583                sci_puts
                0xfff81591                sci_getc_ex
                0xfff815e5                sci_getc
                0xfff815f1                sci_writedata_ex
                0xfff816e9                sci_writedata
                0xfff816fb                sci_readdata_ex
                0xfff816fc                sci_rxcount_ex
                0xfff81717                sci_gets_ex
                0xfff8178a                sci_gets
                0xfff8179c                sci_rxcount
                0xfff817a8                sci_init_ex
                0xfff81c2e                sci_init
                0xfff81c50                sci_getport_ex
                0xfff81c54                sci_convert_crlf_ex
                0xfff81c5b                sci_peek_ex
                0xfff81c7b                sci_flush_ex
                0xfff81c87                sci_regist_default
 P              0xfff81c90      0x5b0 ../../lib/libtkdnhal.a(tkdn_ether.o)
                0xfff81c90                ether_close
                0xfff81ca7                ether_write
                0xfff81d65                _eth_fifoInit
                0xfff81dd6                _eth_fifoWrite
                0xfff81e14                _eth_fifoRead
                0xfff81e68                ether_read
                0xfff81f27                ether_regist_user_rx_procedure
                0xfff81f30                ether_is_linkup
                0xfff81f3c                ether_autonegotiate
                0xfff81fb1                ether_open
                0xfff821a1                Excep_ETHER_EINT
                0xfff82220                ether_is_100M
                0xfff82229                ether_is_fullduplex
                0xfff82232                ether_link_changed
 P              0xfff82240      0x140 ../../lib/libtkdnhal.a(tkdn_timer.o)
                0xfff82240                timer_init
                0xfff82253                timer_wait_ms
                0xfff82264                timer_wait_us
                0xfff822de                timer_get_ms
                0xfff822e7                timer_get_us
                0xfff8231e                timer_regist_userfunc
                0xfff82329                timer_regist_disktimer
                0xfff82334                Excep_CMTU0_CMT0
                0xfff8237d                Excep_CMTU1_CMT2
 P              0xfff82380      0x118 ../../lib/libtkdnhal.a(tkdn_gpio.o)
                0xfff823c9                gpio_set_pinmode
                0xfff82427                gpio_write_port
                0xfff82465                gpio_read_port
 P              0xfff82498      0x490 ../../lib/libtkdnhal.a(tkdn_pwm.o)
                0xfff82498                pwm_init
                0xfff8262a                pwm_output
                0xfff82759                pwm_stop
                0xfff827e6                Excep_MTU1_TGIA1
                0xfff8281a                Excep_MTU0_TGIA0
                0xfff82846                Excep_MTU0_TGIB0
                0xfff82873                Excep_MTU0_TGIC0
                0xfff828a0                Excep_MTU0_TGID0
                0xfff828cd                Excep_MTU0_TGIE0
                0xfff828fa                Excep_MTU0_TGIF0
 P              0xfff82928      0x180 ../../lib/libtkdnhal.a(tkdn_tone.o)
                0xfff82928                tone_start
                0xfff82a69                tone_stop
                0xfff82a83                Excep_MTU2_TGIA2
 P              0xfff82aa8      0x120 ../../lib/libtkdnhal.a(tkdn_adc.o)
                0xfff82aa8                adc_init
                0xfff82ace                adc_terminate
                0xfff82aea                adc_sample
 P              0xfff82bc8       0x88 ../../lib/libtkdnhal.a(tkdn_dac.o)
                0xfff82bc8                dac_init
                0xfff82be2                dac_terminate
                0xfff82bf9                dac_output
 P              0xfff82c50      0x240 ../../lib/libtkdnhal.a(phy.o)
                0xfff82c50                _phy_reg_read
                0xfff82c8e                _phy_ta_z0
                0xfff82cb4                _phy_mii_write_1
                0xfff82cda                _phy_preamble
                0xfff82cf2                _phy_mii_write_0
                0xfff82d18                _phy_ta_10
                0xfff82d20                _phy_reg_write
                0xfff82d5b                _phy_reg_set
                0xfff82da9                _phy_write
                0xfff82dcf                phy_set_10half
                0xfff82dd7                phy_set_100full
                0xfff82de1                _phy_read
                0xfff82e08                phy_set_autonegotiate
                0xfff82e58                phy_init
 P              0xfff82e90       0x18 ../../lib/libtkdnhal.a(eidi.o)
                0xfff82e90                enable_interrupt
                0xfff82e9c                disable_interrupt
 P              0xfff82ea8      0x118 ../../lib/libtkdnhal.a(usb_cdc.o)
                0xfff82f44                TKUSB_Init
                0xfff82fb1                TKUSB_IsConnected
 P              0xfff82fc0      0x338 ../../lib/libtkdnhal.a(usb_core.o)
                0xfff8327e                USBCORE_Init
 P              0xfff832f8      0xfe0 ../../lib/libtkdnhal.a(usb_hal.o)
                0xfff833c9                TKUSB_RecvByte
                0xfff83428                TKUSB_PeekByte
                0xfff8344e                TKUSB_RecvDataCount
                0xfff83468                TKUSB_SendByte
                0xfff834ca                TKUSB_SendDataCount
                0xfff834e4                USBHAL_Init
                0xfff8373e                USBHAL_Disable
                0xfff8374e                USBHAL_Control_Status
                0xfff8377a                USBHAL_Control_IN
                0xfff8379f                USBHAL_Control_OUT
                0xfff837e9                USBHAL_Bulk_OUT
                0xfff83821                ClearOUTBusy
                0xfff8382c                USBHAL_Bulk_IN
                0xfff8386c                USBHAL_Interrupt_IN
                0xfff838ac                USBHAL_Control_Stall
                0xfff838d6                USBHAL_Bulk_IN_Stall
                0xfff838f5                USBHAL_Bulk_OUT_Stall
                0xfff83914                USBHAL_Interrupt_IN_Stall
                0xfff83933                USBHAL_Bulk_IN_Stall_Clear
                0xfff83972                USBHAL_Bulk_OUT_Stall_Clear
                0xfff839d0                USBHAL_Interrupt_IN_Stall_Clear
                0xfff83a0a                USBHAL_Bulk_IN_Is_Stalled
                0xfff83a2a                USBHAL_Bulk_OUT_Is_Stalled
                0xfff83a4a                USBHAL_Interrupt_IN_Is_Stalled
                0xfff83a6a                USBHAL_Config_Get
                0xfff83a71                USBHAL_Config_Set
                0xfff83a87                USBHAL_Reset
                0xfff83c02                USBHAL_Cancel
                0xfff83c50                USBHAL_ResetEndpoints
                0xfff83d22                USBHALInterruptHandler
 P              0xfff842d8        0x0 ../../lib/libtkdnhal.a(usbdescriptors.o)
 P              0xfff842d8      0x2c8 ../../lib/libtkdnhal.a(tkdn_interrupt.o)
                0xfff842da                attach_interrupt
                0xfff84441                detach_interrupt
                0xfff84459                Excep_IRQ0
                0xfff84481                Excep_IRQ1
                0xfff844aa                Excep_IRQ2
                0xfff844d3                Excep_IRQ3
                0xfff844fc                Excep_IRQ4
                0xfff84525                Excep_IRQ5
                0xfff8454e                Excep_IRQ6
                0xfff84577                Excep_IRQ7
 *(.text.*personality*)
 *(.gnu.warning)
 *(.interp .hash .dynsym .dynstr .gnu.version*)
                0xfff845a0                PROVIDE (__etext, .)
                0xfff845a0                PROVIDE (_etext, .)
                0xfff845a0                PROVIDE (etext, .)
                0xfff845a0                . = ALIGN (0x4)
 *(.init)
 *(.fini)

.rodata         0xfff845a0      0x268
                0xfff845a0                . = ALIGN (0x4)
 *(.plt)
 *(.rodata C C_2 C_1 .rodata.* .gnu.linkonce.r.*)
 C              0xfff845a0       0x3c pwm_test.o
 .rodata.str1.1
                0xfff845dc       0x35 ../../lib/librxduino.a(serial.o)
 .rodata.str1.1
                0xfff84611        0x5 ../../lib/libtkdnhal.a(tkdn_ether.o)
 *fill*         0xfff84616        0x2 00
 .rodata.cst4   0xfff84618        0x4 ../../lib/libtkdnhal.a(tkdn_ether.o)
 C              0xfff8461c       0x84 ../../lib/libtkdnhal.a(tkdn_gpio.o)
                0xfff8461c                SFP_PINMAP
                0xfff84630                GPIO_PINMAP
 C              0xfff846a0       0x30 ../../lib/libtkdnhal.a(tkdn_pwm.o)
 C              0xfff846d0       0x20 ../../lib/libtkdnhal.a(tkdn_adc.o)
 C              0xfff846f0        0x8 ../../lib/libtkdnhal.a(usb_cdc.o)
 C              0xfff846f8       0x2c ../../lib/libtkdnhal.a(usb_core.o)
                0xfff84720                gStringDescriptorLanguageIDsData
 C              0xfff84724       0xc4 ../../lib/libtkdnhal.a(usbdescriptors.o)
                0xfff84724                gStringDescriptorSerialNum
                0xfff8472c                gStringDescriptorProduct
                0xfff84734                gStringDescriptorManufacturer
                0xfff8473c                gConfigurationDescriptor
                0xfff84744                gDeviceDescriptor
 C              0xfff847e8       0x20 ../../lib/libtkdnhal.a(tkdn_interrupt.o)
 *(.rodata1)
 *(.eh_frame_hdr)
 *(.eh_frame)
 *(.gcc_except_table)
 *(.gcc_except_table.*)
                0xfff84808                . = ALIGN (0x4)
                0xfff84808                __rodataend = .

.data           0x00001000       0xdc load address 0xfff84808
                0x00001000                . = ALIGN (0x4)
                0xfff84808                PROVIDE (__romdatastart, __rodataend)
                0x00001000                PROVIDE (__datastart, .)
                0x00001000                PROVIDE (__preinit_array_start, .)
 *(.preinit_array)
                0x00001000                PROVIDE (__preinit_array_end, .)
                0x00001000                PROVIDE (__init_array_start, .)
 *(SORT(.init_array.*))
 *(.init_array)
 .init_array    0x00001000        0x4 ../../lib/librxduino.a(serial.o)
                0x00001004                PROVIDE (__init_array_end, .)
                0x00001004                PROVIDE (__fini_array_start, .)
 *(.fini_array)
 *(SORT(.fini_array.*))
                0x00001004                PROVIDE (__fini_array_end, .)
                0x00001004        0x4 LONG 0x0
 *crtbegin*.o(.ctors)
 *(EXCLUDE_FILE(*crtend*.o) .ctors)
 *(SORT(.ctors.*))
 *(.ctors)
 *crtbegin*.o(.dtors)
 *(EXCLUDE_FILE(*crtend*.o) .dtors)
 *(SORT(.dtors.*))
 *(.dtors)
 *(.jcr)
 *(.data.rel.ro.local)
 *(.data.rel.ro*)
 *(.dynamic)
 *(.data D .data.* .gnu.linkonce.d.*)
 .data          0x00001008        0x4 ../../lib/start.o
                0x00001008                __dso_handle
 D              0x0000100c       0x6c ../../lib/libtkdnhal.a(tkdn_ether.o)
                0x0000100c                le0
 D              0x00001078        0x4 ../../lib/libtkdnhal.a(tkdn_pwm.o)
 D              0x0000107c        0x4 ../../lib/libtkdnhal.a(tkdn_tone.o)
 D              0x00001080       0x30 ../../lib/libtkdnhal.a(usb_core.o)
 D              0x000010b0       0x24 ../../lib/libtkdnhal.a(usb_hal.o)
 D              0x000010d4        0x8 ../../lib/libtkdnhal.a(tkdn_interrupt.o)
                0x000010d4                USBI1_handler
                0x000010d8                USBI0_handler
 *(.gnu.linkonce.d.*personality*)
 *(.data1)
 *(.got.plt)
 *(.got)
                0x000010dc                . = ALIGN (0x4)
 *(.sdata .sdata.* .gnu.linkonce.s.* D_2 D_1)
 D_1            0x000010dc        0x0 ../../lib/start.o
 D_1            0x000010dc        0x0 pwm_test.o
 D_1            0x000010dc        0x0 ../../common/intvect.o
 D_1            0x000010dc        0x0 ../../lib/librxduino.a(analogio.o)
 D_1            0x000010dc        0x0 ../../lib/librxduino.a(digitalio.o)
 D_1            0x000010dc        0x0 ../../lib/librxduino.a(rxduino.o)
 D_1            0x000010dc        0x0 ../../lib/librxduino.a(serial.o)
 D_1            0x000010dc        0x0 ../../lib/librxduino.a(delay.o)
 D_1            0x000010dc        0x0 ../../lib/libtkdnhal.a(hwsetup.o)
 D_1            0x000010dc        0x0 ../../lib/libtkdnhal.a(tkdn_sci.o)
 D_1            0x000010dc        0x0 ../../lib/libtkdnhal.a(tkdn_ether.o)
 D_1            0x000010dc        0x0 ../../lib/libtkdnhal.a(tkdn_timer.o)
 D_1            0x000010dc        0x0 ../../lib/libtkdnhal.a(tkdn_gpio.o)
 D_1            0x000010dc        0x0 ../../lib/libtkdnhal.a(tkdn_pwm.o)
 D_1            0x000010dc        0x0 ../../lib/libtkdnhal.a(tkdn_tone.o)
 D_1            0x000010dc        0x0 ../../lib/libtkdnhal.a(tkdn_adc.o)
 D_1            0x000010dc        0x0 ../../lib/libtkdnhal.a(tkdn_dac.o)
 D_1            0x000010dc        0x0 ../../lib/libtkdnhal.a(phy.o)
 D_1            0x000010dc        0x0 ../../lib/libtkdnhal.a(eidi.o)
 D_1            0x000010dc        0x0 ../../lib/libtkdnhal.a(usb_cdc.o)
 D_1            0x000010dc        0x0 ../../lib/libtkdnhal.a(usb_core.o)
 D_1            0x000010dc        0x0 ../../lib/libtkdnhal.a(usb_hal.o)
 D_1            0x000010dc        0x0 ../../lib/libtkdnhal.a(usbdescriptors.o)
 D_1            0x000010dc        0x0 ../../lib/libtkdnhal.a(tkdn_interrupt.o)
                0x000010dc                . = ALIGN (0x4)
                0x000010dc                _edata = .
                0x000010dc                PROVIDE (edata, .)
                0x000010dc                PROVIDE (__dataend, .)
                0x000000dc                PROVIDE (__romdatacopysize, SIZEOF (.data))

.bss            0x000010dc     0x20a4 load address 0xfff848e4
                0x000010dc                . = ALIGN (0x4)
                0x000010dc                PROVIDE (__bssstart, .)
 *(.dynbss)
 *(.sbss .sbss.*)
 *(.bss B B_2 B_1 .bss.* .gnu.linkonce.b.*)
 B_1            0x000010dc        0x0 ../../lib/start.o
 B_1            0x000010dc        0x0 pwm_test.o
 B              0x000010dc        0x8 pwm_test.o
                0x000010dc                x
                0x000010e0                anyreceived
 B_1            0x000010e4        0x0 ../../common/intvect.o
 B_1            0x000010e4        0x0 ../../lib/librxduino.a(analogio.o)
 B              0x000010e4        0x4 ../../lib/librxduino.a(analogio.o)
                0x000010e4                artype
 B_1            0x000010e8        0x0 ../../lib/librxduino.a(digitalio.o)
 B_1            0x000010e8        0x0 ../../lib/librxduino.a(rxduino.o)
 B_1            0x000010e8        0x0 ../../lib/librxduino.a(serial.o)
 B              0x000010e8      0x880 ../../lib/librxduino.a(serial.o)
                0x000010e8                Serial3
                0x00001308                Serial2
                0x00001528                Serial1
                0x00001748                Serial
 B_1            0x00001968        0x0 ../../lib/librxduino.a(delay.o)
 B_1            0x00001968        0x0 ../../lib/libtkdnhal.a(hwsetup.o)
 B_1            0x00001968        0x0 ../../lib/libtkdnhal.a(tkdn_sci.o)
 B_1            0x00001968        0x4 ../../lib/libtkdnhal.a(tkdn_ether.o)
 B_1            0x0000196c        0x0 ../../lib/libtkdnhal.a(tkdn_timer.o)
 B              0x0000196c        0xc ../../lib/libtkdnhal.a(tkdn_timer.o)
                0x0000196c                disktimer
                0x00001970                userfunc
                0x00001974                tim_1ms
 B_1            0x00001978        0x0 ../../lib/libtkdnhal.a(tkdn_gpio.o)
 B_1            0x00001978       0x28 ../../lib/libtkdnhal.a(tkdn_pwm.o)
 B              0x000019a0        0x4 ../../lib/libtkdnhal.a(tkdn_pwm.o)
                0x000019a0                pwmpincount
 B_1            0x000019a4        0x4 ../../lib/libtkdnhal.a(tkdn_tone.o)
 B_1            0x000019a8        0x1 ../../lib/libtkdnhal.a(tkdn_adc.o)
 B_1            0x000019a9        0x1 ../../lib/libtkdnhal.a(tkdn_dac.o)
 B_1            0x000019aa        0x0 ../../lib/libtkdnhal.a(phy.o)
 B_1            0x000019aa        0x0 ../../lib/libtkdnhal.a(eidi.o)
 *fill*         0x000019aa        0x2 00
 B_1            0x000019ac       0x10 ../../lib/libtkdnhal.a(usb_cdc.o)
 B_1            0x000019bc       0x14 ../../lib/libtkdnhal.a(usb_core.o)
 B_1            0x000019d0      0x44c ../../lib/libtkdnhal.a(usb_hal.o)
 B_1            0x00001e1c        0x0 ../../lib/libtkdnhal.a(usbdescriptors.o)
 B_1            0x00001e1c        0x0 ../../lib/libtkdnhal.a(tkdn_interrupt.o)
                0x00001e1c                . = ALIGN (0x4)
 *(COMMON)
 COMMON         0x00001e1c      0x238 ../../lib/libtkdnhal.a(tkdn_sci.o)
                0x00001e1c                sci_default
                0x00002038                sci_handles
                0x00002050                psci_default
 COMMON         0x00002054        0x4 ../../lib/libtkdnhal.a(tkdn_ether.o)
                0x00002054                user_rx_func
 COMMON         0x00002058       0x20 ../../lib/libtkdnhal.a(tkdn_interrupt.o)
                0x00002058                ifunc
                0x00002080                . = ALIGN (0x20)
 *fill*         0x00002078        0x8 00
 *(.etherdesc)
 .etherdesc     0x00002080     0x1100 ../../lib/libtkdnhal.a(tkdn_ether.o)
                0x00003180                . = ALIGN (0x4)
                0x00003180                PROVIDE (__bssend, .)
                0x00003180                _end = .
                0x00003180                PROVIDE (end, .)
                0x00000829                PROVIDE (__bsssize, (SIZEOF (.bss) / 0x4))

.stab
 *(.stab)

.stabstr
 *(.stabstr)

.stab.excl
 *(.stab.excl)

.stab.exclstr
 *(.stab.exclstr)

.stab.index
 *(.stab.index)

.stab.indexstr
 *(.stab.indexstr)

.comment        0x00000000       0x11
 *(.comment)
 .comment       0x00000000       0x11 pwm_test.o
                                 0x12 (size before relaxing)
 .comment       0x00000000       0x12 ../../common/intvect.o
 .comment       0x00000000       0x12 ../../lib/librxduino.a(analogio.o)
 .comment       0x00000000       0x12 ../../lib/librxduino.a(digitalio.o)
 .comment       0x00000000       0x12 ../../lib/librxduino.a(rxduino.o)
 .comment       0x00000000       0x12 ../../lib/librxduino.a(serial.o)
 .comment       0x00000000       0x12 ../../lib/librxduino.a(delay.o)
 .comment       0x00000000       0x12 ../../lib/libtkdnhal.a(hwsetup.o)
 .comment       0x00000000       0x12 ../../lib/libtkdnhal.a(tkdn_sci.o)
 .comment       0x00000000       0x12 ../../lib/libtkdnhal.a(tkdn_ether.o)
 .comment       0x00000000       0x12 ../../lib/libtkdnhal.a(tkdn_timer.o)
 .comment       0x00000000       0x12 ../../lib/libtkdnhal.a(tkdn_gpio.o)
 .comment       0x00000000       0x12 ../../lib/libtkdnhal.a(tkdn_pwm.o)
 .comment       0x00000000       0x12 ../../lib/libtkdnhal.a(tkdn_tone.o)
 .comment       0x00000000       0x12 ../../lib/libtkdnhal.a(tkdn_adc.o)
 .comment       0x00000000       0x12 ../../lib/libtkdnhal.a(tkdn_dac.o)
 .comment       0x00000000       0x12 ../../lib/libtkdnhal.a(phy.o)
 .comment       0x00000000       0x12 ../../lib/libtkdnhal.a(usb_cdc.o)
 .comment       0x00000000       0x12 ../../lib/libtkdnhal.a(usb_core.o)
 .comment       0x00000000       0x12 ../../lib/libtkdnhal.a(usb_hal.o)
 .comment       0x00000000       0x12 ../../lib/libtkdnhal.a(usbdescriptors.o)
 .comment       0x00000000       0x12 ../../lib/libtkdnhal.a(tkdn_interrupt.o)

.debug
 *(.debug)

.line
 *(.line)

.debug_srcinfo
 *(.debug_srcinfo)

.debug_sfnames
 *(.debug_sfnames)

.debug_aranges  0x00000000       0x40
 *(.debug_aranges)
 .debug_aranges
                0x00000000       0x20 pwm_test.o
 .debug_aranges
                0x00000020       0x20 ../../common/intvect.o

.debug_pubnames
 *(.debug_pubnames)

.debug_info     0x00000000     0x11e8
 *(.debug_info .gnu.linkonce.wi.*)
 .debug_info    0x00000000      0x57b pwm_test.o
 .debug_info    0x0000057b      0xc6d ../../common/intvect.o

.debug_abbrev   0x00000000      0x289
 *(.debug_abbrev)
 .debug_abbrev  0x00000000      0x1f2 pwm_test.o
 .debug_abbrev  0x000001f2       0x97 ../../common/intvect.o

.debug_line     0x00000000      0xa4d
 *(.debug_line)
 .debug_line    0x00000000      0x19c pwm_test.o
 .debug_line    0x0000019c      0x8b1 ../../common/intvect.o

.debug_frame    0x00000000      0xd58
 *(.debug_frame)
 .debug_frame   0x00000000       0x7c pwm_test.o
 .debug_frame   0x0000007c      0xcdc ../../common/intvect.o

.debug_str      0x00000000      0xd2c
 *(.debug_str)
 .debug_str     0x00000000      0x3d4 pwm_test.o
                                0x416 (size before relaxing)
 .debug_str     0x000003d4      0x958 ../../common/intvect.o
                                0x990 (size before relaxing)

.debug_loc      0x00000000     0x17a8
 *(.debug_loc)
 .debug_loc     0x00000000       0x9c pwm_test.o
 .debug_loc     0x0000009c     0x170c ../../common/intvect.o

.debug_macinfo
 *(.debug_macinfo)

.debug_weaknames
 *(.debug_weaknames)

.debug_funcnames
 *(.debug_funcnames)

.debug_typenames
 *(.debug_typenames)

.debug_varnames
 *(.debug_varnames)

/DISCARD/
 *(.note.GNU-stack)
LOAD ../../lib/librxduino.a
LOAD ../../lib/gcc/libstdc++.a
LOAD ../../lib/gcc/libsupc++.a
LOAD ../../lib/gcc/libc.a
LOAD ../../lib/gcc/libsim.a
LOAD ../../lib/gcc/libgcc.a
LOAD ../../lib/gcc/libm.a
LOAD ../../lib/libtkdnhal.a
OUTPUT(pwm_test.elf elf32-rx-le)
