In archive libarduino_core.a:

CDC.o:     file format elf32-avr

Sections:
Idx Name          Size      VMA       LMA       File off  Algn
  0 .text         00000000  00000000  00000000  00000034  2**0
                  CONTENTS, ALLOC, LOAD, READONLY, CODE
  1 .data         00000000  00000000  00000000  00000034  2**0
                  CONTENTS, ALLOC, LOAD, DATA
  2 .bss          00000000  00000000  00000000  00000034  2**0
                  ALLOC

HID.o:     file format elf32-avr

Sections:
Idx Name          Size      VMA       LMA       File off  Algn
  0 .text         00000000  00000000  00000000  00000034  2**0
                  CONTENTS, ALLOC, LOAD, READONLY, CODE
  1 .data         00000000  00000000  00000000  00000034  2**0
                  CONTENTS, ALLOC, LOAD, DATA
  2 .bss          00000000  00000000  00000000  00000034  2**0
                  ALLOC

HardwareSerial.o:     file format elf32-avr

Sections:
Idx Name          Size      VMA       LMA       File off  Algn
  0 .text         000005aa  00000000  00000000  00000034  2**0
                  CONTENTS, ALLOC, LOAD, RELOC, READONLY, CODE
  1 .data         00000020  00000000  00000000  000005de  2**0
                  CONTENTS, ALLOC, LOAD, RELOC, DATA
  2 .bss          000000a7  00000000  00000000  000005fe  2**0
                  ALLOC
  3 .ctors        00000002  00000000  00000000  000005fe  2**0
                  CONTENTS, ALLOC, LOAD, RELOC, READONLY, DATA

Disassembly of section .text:

00000000 <_Z11serialEventv>:
   0:	08 95       	ret

00000002 <__vector_11>:
   2:	1f 92       	push	r1
   4:	0f 92       	push	r0
   6:	0f b6       	in	r0, 0x3f	; 63
   8:	0f 92       	push	r0
   a:	11 24       	eor	r1, r1
   c:	2f 93       	push	r18
   e:	3f 93       	push	r19
  10:	4f 93       	push	r20
  12:	8f 93       	push	r24
  14:	9f 93       	push	r25
  16:	ef 93       	push	r30
  18:	ff 93       	push	r31
  1a:	4c b1       	in	r20, 0x0c	; 12
  1c:	20 91 00 00 	lds	r18, 0x0000
  20:	30 91 00 00 	lds	r19, 0x0000
  24:	2f 5f       	subi	r18, 0xFF	; 255
  26:	3f 4f       	sbci	r19, 0xFF	; 255
  28:	2f 73       	andi	r18, 0x3F	; 63
  2a:	30 70       	andi	r19, 0x00	; 0
  2c:	80 91 00 00 	lds	r24, 0x0000
  30:	90 91 00 00 	lds	r25, 0x0000
  34:	28 17       	cp	r18, r24
  36:	39 07       	cpc	r19, r25
  38:	01 f0       	breq	.+0      	; 0x3a <__vector_11+0x38>
  3a:	e0 91 00 00 	lds	r30, 0x0000
  3e:	f0 91 00 00 	lds	r31, 0x0000
  42:	e0 50       	subi	r30, 0x00	; 0
  44:	f0 40       	sbci	r31, 0x00	; 0
  46:	40 83       	st	Z, r20
  48:	30 93 00 00 	sts	0x0000, r19
  4c:	20 93 00 00 	sts	0x0000, r18
  50:	ff 91       	pop	r31
  52:	ef 91       	pop	r30
  54:	9f 91       	pop	r25
  56:	8f 91       	pop	r24
  58:	4f 91       	pop	r20
  5a:	3f 91       	pop	r19
  5c:	2f 91       	pop	r18
  5e:	0f 90       	pop	r0
  60:	0f be       	out	0x3f, r0	; 63
  62:	0f 90       	pop	r0
  64:	1f 90       	pop	r1
  66:	18 95       	reti

00000068 <_Z14serialEventRunv>:
  68:	e0 91 00 00 	lds	r30, 0x0000
  6c:	f0 91 00 00 	lds	r31, 0x0000
  70:	e0 5c       	subi	r30, 0xC0	; 192
  72:	ff 4f       	sbci	r31, 0xFF	; 255
  74:	81 91       	ld	r24, Z+
  76:	91 91       	ld	r25, Z+
  78:	20 81       	ld	r18, Z
  7a:	31 81       	ldd	r19, Z+1	; 0x01
  7c:	82 1b       	sub	r24, r18
  7e:	93 0b       	sbc	r25, r19
  80:	8f 73       	andi	r24, 0x3F	; 63
  82:	90 70       	andi	r25, 0x00	; 0
  84:	89 2b       	or	r24, r25
  86:	01 f0       	breq	.+0      	; 0x88 <_Z14serialEventRunv+0x20>
  88:	0e 94 00 00 	call	0	; 0x0 <_Z11serialEventv>
  8c:	08 95       	ret

0000008e <__vector_12>:
  8e:	1f 92       	push	r1
  90:	0f 92       	push	r0
  92:	0f b6       	in	r0, 0x3f	; 63
  94:	0f 92       	push	r0
  96:	11 24       	eor	r1, r1
  98:	2f 93       	push	r18
  9a:	3f 93       	push	r19
  9c:	8f 93       	push	r24
  9e:	9f 93       	push	r25
  a0:	ef 93       	push	r30
  a2:	ff 93       	push	r31
  a4:	20 91 00 00 	lds	r18, 0x0000
  a8:	30 91 00 00 	lds	r19, 0x0000
  ac:	80 91 00 00 	lds	r24, 0x0000
  b0:	90 91 00 00 	lds	r25, 0x0000
  b4:	28 17       	cp	r18, r24
  b6:	39 07       	cpc	r19, r25
  b8:	01 f4       	brne	.+0      	; 0xba <__vector_12+0x2c>
  ba:	55 98       	cbi	0x0a, 5	; 10
  bc:	00 c0       	rjmp	.+0      	; 0xbe <__vector_12+0x30>
  be:	e0 91 00 00 	lds	r30, 0x0000
  c2:	f0 91 00 00 	lds	r31, 0x0000
  c6:	e0 50       	subi	r30, 0x00	; 0
  c8:	f0 40       	sbci	r31, 0x00	; 0
  ca:	20 81       	ld	r18, Z
  cc:	80 91 00 00 	lds	r24, 0x0000
  d0:	90 91 00 00 	lds	r25, 0x0000
  d4:	01 96       	adiw	r24, 0x01	; 1
  d6:	8f 73       	andi	r24, 0x3F	; 63
  d8:	90 70       	andi	r25, 0x00	; 0
  da:	90 93 00 00 	sts	0x0000, r25
  de:	80 93 00 00 	sts	0x0000, r24
  e2:	2c b9       	out	0x0c, r18	; 12
  e4:	ff 91       	pop	r31
  e6:	ef 91       	pop	r30
  e8:	9f 91       	pop	r25
  ea:	8f 91       	pop	r24
  ec:	3f 91       	pop	r19
  ee:	2f 91       	pop	r18
  f0:	0f 90       	pop	r0
  f2:	0f be       	out	0x3f, r0	; 63
  f4:	0f 90       	pop	r0
  f6:	1f 90       	pop	r1
  f8:	18 95       	reti

000000fa <_ZN14HardwareSerialC2EP11ring_bufferS1_PVhS3_S3_S3_S3_hhhhh>:
  fa:	8f 92       	push	r8
  fc:	af 92       	push	r10
  fe:	bf 92       	push	r11
 100:	cf 92       	push	r12
 102:	df 92       	push	r13
 104:	ef 92       	push	r14
 106:	ff 92       	push	r15
 108:	0f 93       	push	r16
 10a:	1f 93       	push	r17
 10c:	df 93       	push	r29
 10e:	cf 93       	push	r28
 110:	cd b7       	in	r28, 0x3d	; 61
 112:	de b7       	in	r29, 0x3e	; 62
 114:	fc 01       	movw	r30, r24
 116:	13 82       	std	Z+3, r1	; 0x03
 118:	12 82       	std	Z+2, r1	; 0x02
 11a:	88 ee       	ldi	r24, 0xE8	; 232
 11c:	93 e0       	ldi	r25, 0x03	; 3
 11e:	a0 e0       	ldi	r26, 0x00	; 0
 120:	b0 e0       	ldi	r27, 0x00	; 0
 122:	84 83       	std	Z+4, r24	; 0x04
 124:	95 83       	std	Z+5, r25	; 0x05
 126:	a6 83       	std	Z+6, r26	; 0x06
 128:	b7 83       	std	Z+7, r27	; 0x07
 12a:	80 e0       	ldi	r24, 0x00	; 0
 12c:	90 e0       	ldi	r25, 0x00	; 0
 12e:	91 83       	std	Z+1, r25	; 0x01
 130:	80 83       	st	Z, r24
 132:	75 87       	std	Z+13, r23	; 0x0d
 134:	64 87       	std	Z+12, r22	; 0x0c
 136:	57 87       	std	Z+15, r21	; 0x0f
 138:	46 87       	std	Z+14, r20	; 0x0e
 13a:	31 8b       	std	Z+17, r19	; 0x11
 13c:	20 8b       	std	Z+16, r18	; 0x10
 13e:	13 8b       	std	Z+19, r17	; 0x13
 140:	02 8b       	std	Z+18, r16	; 0x12
 142:	f5 8a       	std	Z+21, r15	; 0x15
 144:	e4 8a       	std	Z+20, r14	; 0x14
 146:	d7 8a       	std	Z+23, r13	; 0x17
 148:	c6 8a       	std	Z+22, r12	; 0x16
 14a:	b1 8e       	std	Z+25, r11	; 0x19
 14c:	a0 8e       	std	Z+24, r10	; 0x18
 14e:	82 8e       	std	Z+26, r8	; 0x1a
 150:	8e 85       	ldd	r24, Y+14	; 0x0e
 152:	83 8f       	std	Z+27, r24	; 0x1b
 154:	8f 85       	ldd	r24, Y+15	; 0x0f
 156:	84 8f       	std	Z+28, r24	; 0x1c
 158:	88 89       	ldd	r24, Y+16	; 0x10
 15a:	85 8f       	std	Z+29, r24	; 0x1d
 15c:	89 89       	ldd	r24, Y+17	; 0x11
 15e:	86 8f       	std	Z+30, r24	; 0x1e
 160:	cf 91       	pop	r28
 162:	df 91       	pop	r29
 164:	1f 91       	pop	r17
 166:	0f 91       	pop	r16
 168:	ff 90       	pop	r15
 16a:	ef 90       	pop	r14
 16c:	df 90       	pop	r13
 16e:	cf 90       	pop	r12
 170:	bf 90       	pop	r11
 172:	af 90       	pop	r10
 174:	8f 90       	pop	r8
 176:	08 95       	ret

00000178 <_ZN14HardwareSerialC1EP11ring_bufferS1_PVhS3_S3_S3_S3_hhhhh>:
 178:	8f 92       	push	r8
 17a:	af 92       	push	r10
 17c:	bf 92       	push	r11
 17e:	cf 92       	push	r12
 180:	df 92       	push	r13
 182:	ef 92       	push	r14
 184:	ff 92       	push	r15
 186:	0f 93       	push	r16
 188:	1f 93       	push	r17
 18a:	df 93       	push	r29
 18c:	cf 93       	push	r28
 18e:	cd b7       	in	r28, 0x3d	; 61
 190:	de b7       	in	r29, 0x3e	; 62
 192:	fc 01       	movw	r30, r24
 194:	13 82       	std	Z+3, r1	; 0x03
 196:	12 82       	std	Z+2, r1	; 0x02
 198:	88 ee       	ldi	r24, 0xE8	; 232
 19a:	93 e0       	ldi	r25, 0x03	; 3
 19c:	a0 e0       	ldi	r26, 0x00	; 0
 19e:	b0 e0       	ldi	r27, 0x00	; 0
 1a0:	84 83       	std	Z+4, r24	; 0x04
 1a2:	95 83       	std	Z+5, r25	; 0x05
 1a4:	a6 83       	std	Z+6, r26	; 0x06
 1a6:	b7 83       	std	Z+7, r27	; 0x07
 1a8:	80 e0       	ldi	r24, 0x00	; 0
 1aa:	90 e0       	ldi	r25, 0x00	; 0
 1ac:	91 83       	std	Z+1, r25	; 0x01
 1ae:	80 83       	st	Z, r24
 1b0:	75 87       	std	Z+13, r23	; 0x0d
 1b2:	64 87       	std	Z+12, r22	; 0x0c
 1b4:	57 87       	std	Z+15, r21	; 0x0f
 1b6:	46 87       	std	Z+14, r20	; 0x0e
 1b8:	31 8b       	std	Z+17, r19	; 0x11
 1ba:	20 8b       	std	Z+16, r18	; 0x10
 1bc:	13 8b       	std	Z+19, r17	; 0x13
 1be:	02 8b       	std	Z+18, r16	; 0x12
 1c0:	f5 8a       	std	Z+21, r15	; 0x15
 1c2:	e4 8a       	std	Z+20, r14	; 0x14
 1c4:	d7 8a       	std	Z+23, r13	; 0x17
 1c6:	c6 8a       	std	Z+22, r12	; 0x16
 1c8:	b1 8e       	std	Z+25, r11	; 0x19
 1ca:	a0 8e       	std	Z+24, r10	; 0x18
 1cc:	82 8e       	std	Z+26, r8	; 0x1a
 1ce:	8e 85       	ldd	r24, Y+14	; 0x0e
 1d0:	83 8f       	std	Z+27, r24	; 0x1b
 1d2:	8f 85       	ldd	r24, Y+15	; 0x0f
 1d4:	84 8f       	std	Z+28, r24	; 0x1c
 1d6:	88 89       	ldd	r24, Y+16	; 0x10
 1d8:	85 8f       	std	Z+29, r24	; 0x1d
 1da:	89 89       	ldd	r24, Y+17	; 0x11
 1dc:	86 8f       	std	Z+30, r24	; 0x1e
 1de:	cf 91       	pop	r28
 1e0:	df 91       	pop	r29
 1e2:	1f 91       	pop	r17
 1e4:	0f 91       	pop	r16
 1e6:	ff 90       	pop	r15
 1e8:	ef 90       	pop	r14
 1ea:	df 90       	pop	r13
 1ec:	cf 90       	pop	r12
 1ee:	bf 90       	pop	r11
 1f0:	af 90       	pop	r10
 1f2:	8f 90       	pop	r8
 1f4:	08 95       	ret

000001f6 <_ZN14HardwareSerial5beginEm>:
 1f6:	af 92       	push	r10
 1f8:	bf 92       	push	r11
 1fa:	df 92       	push	r13
 1fc:	ef 92       	push	r14
 1fe:	ff 92       	push	r15
 200:	0f 93       	push	r16
 202:	1f 93       	push	r17
 204:	cf 93       	push	r28
 206:	df 93       	push	r29
 208:	ec 01       	movw	r28, r24
 20a:	7a 01       	movw	r14, r20
 20c:	8b 01       	movw	r16, r22
 20e:	dd 24       	eor	r13, r13
 210:	d3 94       	inc	r13
 212:	91 e0       	ldi	r25, 0x01	; 1
 214:	a9 2e       	mov	r10, r25
 216:	b1 2c       	mov	r11, r1
 218:	ec 89       	ldd	r30, Y+20	; 0x14
 21a:	fd 89       	ldd	r31, Y+21	; 0x15
 21c:	dd 20       	and	r13, r13
 21e:	01 f0       	breq	.+0      	; 0x220 <_ZN14HardwareSerial5beginEm+0x2a>
 220:	c5 01       	movw	r24, r10
 222:	0e 8c       	ldd	r0, Y+30	; 0x1e
 224:	00 c0       	rjmp	.+0      	; 0x226 <_ZN14HardwareSerial5beginEm+0x30>
 226:	88 0f       	add	r24, r24
 228:	99 1f       	adc	r25, r25
 22a:	0a 94       	dec	r0
 22c:	02 f4       	brpl	.+0      	; 0x22e <_ZN14HardwareSerial5beginEm+0x38>
 22e:	80 83       	st	Z, r24
 230:	60 e9       	ldi	r22, 0x90	; 144
 232:	70 ed       	ldi	r23, 0xD0	; 208
 234:	83 e0       	ldi	r24, 0x03	; 3
 236:	90 e0       	ldi	r25, 0x00	; 0
 238:	00 c0       	rjmp	.+0      	; 0x23a <_ZN14HardwareSerial5beginEm+0x44>
 23a:	10 82       	st	Z, r1
 23c:	68 e4       	ldi	r22, 0x48	; 72
 23e:	78 ee       	ldi	r23, 0xE8	; 232
 240:	81 e0       	ldi	r24, 0x01	; 1
 242:	90 e0       	ldi	r25, 0x00	; 0
 244:	a8 01       	movw	r20, r16
 246:	97 01       	movw	r18, r14
 248:	0e 94 00 00 	call	0	; 0x0 <_Z11serialEventv>
 24c:	21 50       	subi	r18, 0x01	; 1
 24e:	30 40       	sbci	r19, 0x00	; 0
 250:	40 40       	sbci	r20, 0x00	; 0
 252:	50 40       	sbci	r21, 0x00	; 0
 254:	56 95       	lsr	r21
 256:	47 95       	ror	r20
 258:	37 95       	ror	r19
 25a:	27 95       	ror	r18
 25c:	80 e1       	ldi	r24, 0x10	; 16
 25e:	20 30       	cpi	r18, 0x00	; 0
 260:	38 07       	cpc	r19, r24
 262:	00 f0       	brcs	.+0      	; 0x264 <_ZN14HardwareSerial5beginEm+0x6e>
 264:	dd 20       	and	r13, r13
 266:	01 f0       	breq	.+0      	; 0x268 <_ZN14HardwareSerial5beginEm+0x72>
 268:	dd 24       	eor	r13, r13
 26a:	00 c0       	rjmp	.+0      	; 0x26c <_ZN14HardwareSerial5beginEm+0x76>
 26c:	e8 89       	ldd	r30, Y+16	; 0x10
 26e:	f9 89       	ldd	r31, Y+17	; 0x11
 270:	30 83       	st	Z, r19
 272:	ea 89       	ldd	r30, Y+18	; 0x12
 274:	fb 89       	ldd	r31, Y+19	; 0x13
 276:	20 83       	st	Z, r18
 278:	ee 89       	ldd	r30, Y+22	; 0x16
 27a:	ff 89       	ldd	r31, Y+23	; 0x17
 27c:	40 81       	ld	r20, Z
 27e:	21 e0       	ldi	r18, 0x01	; 1
 280:	30 e0       	ldi	r19, 0x00	; 0
 282:	c9 01       	movw	r24, r18
 284:	0a 8c       	ldd	r0, Y+26	; 0x1a
 286:	00 c0       	rjmp	.+0      	; 0x288 <_ZN14HardwareSerial5beginEm+0x92>
 288:	88 0f       	add	r24, r24
 28a:	99 1f       	adc	r25, r25
 28c:	0a 94       	dec	r0
 28e:	02 f4       	brpl	.+0      	; 0x290 <_ZN14HardwareSerial5beginEm+0x9a>
 290:	48 2b       	or	r20, r24
 292:	40 83       	st	Z, r20
 294:	ee 89       	ldd	r30, Y+22	; 0x16
 296:	ff 89       	ldd	r31, Y+23	; 0x17
 298:	40 81       	ld	r20, Z
 29a:	c9 01       	movw	r24, r18
 29c:	0b 8c       	ldd	r0, Y+27	; 0x1b
 29e:	00 c0       	rjmp	.+0      	; 0x2a0 <_ZN14HardwareSerial5beginEm+0xaa>
 2a0:	88 0f       	add	r24, r24
 2a2:	99 1f       	adc	r25, r25
 2a4:	0a 94       	dec	r0
 2a6:	02 f4       	brpl	.+0      	; 0x2a8 <_ZN14HardwareSerial5beginEm+0xb2>
 2a8:	48 2b       	or	r20, r24
 2aa:	40 83       	st	Z, r20
 2ac:	ee 89       	ldd	r30, Y+22	; 0x16
 2ae:	ff 89       	ldd	r31, Y+23	; 0x17
 2b0:	40 81       	ld	r20, Z
 2b2:	c9 01       	movw	r24, r18
 2b4:	0c 8c       	ldd	r0, Y+28	; 0x1c
 2b6:	00 c0       	rjmp	.+0      	; 0x2b8 <_ZN14HardwareSerial5beginEm+0xc2>
 2b8:	88 0f       	add	r24, r24
 2ba:	99 1f       	adc	r25, r25
 2bc:	0a 94       	dec	r0
 2be:	02 f4       	brpl	.+0      	; 0x2c0 <_ZN14HardwareSerial5beginEm+0xca>
 2c0:	48 2b       	or	r20, r24
 2c2:	40 83       	st	Z, r20
 2c4:	ee 89       	ldd	r30, Y+22	; 0x16
 2c6:	ff 89       	ldd	r31, Y+23	; 0x17
 2c8:	80 81       	ld	r24, Z
 2ca:	0d 8c       	ldd	r0, Y+29	; 0x1d
 2cc:	00 c0       	rjmp	.+0      	; 0x2ce <_ZN14HardwareSerial5beginEm+0xd8>
 2ce:	22 0f       	add	r18, r18
 2d0:	33 1f       	adc	r19, r19
 2d2:	0a 94       	dec	r0
 2d4:	02 f4       	brpl	.+0      	; 0x2d6 <_ZN14HardwareSerial5beginEm+0xe0>
 2d6:	20 95       	com	r18
 2d8:	28 23       	and	r18, r24
 2da:	20 83       	st	Z, r18
 2dc:	df 91       	pop	r29
 2de:	cf 91       	pop	r28
 2e0:	1f 91       	pop	r17
 2e2:	0f 91       	pop	r16
 2e4:	ff 90       	pop	r15
 2e6:	ef 90       	pop	r14
 2e8:	df 90       	pop	r13
 2ea:	bf 90       	pop	r11
 2ec:	af 90       	pop	r10
 2ee:	08 95       	ret

000002f0 <_ZN14HardwareSerial3endEv>:
 2f0:	cf 93       	push	r28
 2f2:	df 93       	push	r29
 2f4:	dc 01       	movw	r26, r24
 2f6:	1e 96       	adiw	r26, 0x0e	; 14
 2f8:	8d 91       	ld	r24, X+
 2fa:	9c 91       	ld	r25, X
 2fc:	1f 97       	sbiw	r26, 0x0f	; 15
 2fe:	ec 01       	movw	r28, r24
 300:	c0 5c       	subi	r28, 0xC0	; 192
 302:	df 4f       	sbci	r29, 0xFF	; 255
 304:	fc 01       	movw	r30, r24
 306:	ee 5b       	subi	r30, 0xBE	; 190
 308:	ff 4f       	sbci	r31, 0xFF	; 255
 30a:	28 81       	ld	r18, Y
 30c:	39 81       	ldd	r19, Y+1	; 0x01
 30e:	80 81       	ld	r24, Z
 310:	91 81       	ldd	r25, Z+1	; 0x01
 312:	28 17       	cp	r18, r24
 314:	39 07       	cpc	r19, r25
 316:	01 f4       	brne	.+0      	; 0x318 <_ZN14HardwareSerial3endEv+0x28>
 318:	56 96       	adiw	r26, 0x16	; 22
 31a:	ed 91       	ld	r30, X+
 31c:	fc 91       	ld	r31, X
 31e:	57 97       	sbiw	r26, 0x17	; 23
 320:	40 81       	ld	r20, Z
 322:	21 e0       	ldi	r18, 0x01	; 1
 324:	30 e0       	ldi	r19, 0x00	; 0
 326:	c9 01       	movw	r24, r18
 328:	5a 96       	adiw	r26, 0x1a	; 26
 32a:	0c 90       	ld	r0, X
 32c:	5a 97       	sbiw	r26, 0x1a	; 26
 32e:	00 c0       	rjmp	.+0      	; 0x330 <_ZN14HardwareSerial3endEv+0x40>
 330:	88 0f       	add	r24, r24
 332:	99 1f       	adc	r25, r25
 334:	0a 94       	dec	r0
 336:	02 f4       	brpl	.+0      	; 0x338 <_ZN14HardwareSerial3endEv+0x48>
 338:	80 95       	com	r24
 33a:	84 23       	and	r24, r20
 33c:	80 83       	st	Z, r24
 33e:	56 96       	adiw	r26, 0x16	; 22
 340:	ed 91       	ld	r30, X+
 342:	fc 91       	ld	r31, X
 344:	57 97       	sbiw	r26, 0x17	; 23
 346:	40 81       	ld	r20, Z
 348:	c9 01       	movw	r24, r18
 34a:	5b 96       	adiw	r26, 0x1b	; 27
 34c:	0c 90       	ld	r0, X
 34e:	5b 97       	sbiw	r26, 0x1b	; 27
 350:	00 c0       	rjmp	.+0      	; 0x352 <_ZN14HardwareSerial3endEv+0x62>
 352:	88 0f       	add	r24, r24
 354:	99 1f       	adc	r25, r25
 356:	0a 94       	dec	r0
 358:	02 f4       	brpl	.+0      	; 0x35a <_ZN14HardwareSerial3endEv+0x6a>
 35a:	80 95       	com	r24
 35c:	84 23       	and	r24, r20
 35e:	80 83       	st	Z, r24
 360:	56 96       	adiw	r26, 0x16	; 22
 362:	ed 91       	ld	r30, X+
 364:	fc 91       	ld	r31, X
 366:	57 97       	sbiw	r26, 0x17	; 23
 368:	40 81       	ld	r20, Z
 36a:	c9 01       	movw	r24, r18
 36c:	5c 96       	adiw	r26, 0x1c	; 28
 36e:	0c 90       	ld	r0, X
 370:	5c 97       	sbiw	r26, 0x1c	; 28
 372:	00 c0       	rjmp	.+0      	; 0x374 <_ZN14HardwareSerial3endEv+0x84>
 374:	88 0f       	add	r24, r24
 376:	99 1f       	adc	r25, r25
 378:	0a 94       	dec	r0
 37a:	02 f4       	brpl	.+0      	; 0x37c <_ZN14HardwareSerial3endEv+0x8c>
 37c:	80 95       	com	r24
 37e:	84 23       	and	r24, r20
 380:	80 83       	st	Z, r24
 382:	56 96       	adiw	r26, 0x16	; 22
 384:	ed 91       	ld	r30, X+
 386:	fc 91       	ld	r31, X
 388:	57 97       	sbiw	r26, 0x17	; 23
 38a:	80 81       	ld	r24, Z
 38c:	5d 96       	adiw	r26, 0x1d	; 29
 38e:	0c 90       	ld	r0, X
 390:	5d 97       	sbiw	r26, 0x1d	; 29
 392:	00 c0       	rjmp	.+0      	; 0x394 <_ZN14HardwareSerial3endEv+0xa4>
 394:	22 0f       	add	r18, r18
 396:	33 1f       	adc	r19, r19
 398:	0a 94       	dec	r0
 39a:	02 f4       	brpl	.+0      	; 0x39c <_ZN14HardwareSerial3endEv+0xac>
 39c:	20 95       	com	r18
 39e:	28 23       	and	r18, r24
 3a0:	20 83       	st	Z, r18
 3a2:	1c 96       	adiw	r26, 0x0c	; 12
 3a4:	ed 91       	ld	r30, X+
 3a6:	fc 91       	ld	r31, X
 3a8:	1d 97       	sbiw	r26, 0x0d	; 13
 3aa:	ee 5b       	subi	r30, 0xBE	; 190
 3ac:	ff 4f       	sbci	r31, 0xFF	; 255
 3ae:	80 81       	ld	r24, Z
 3b0:	91 81       	ldd	r25, Z+1	; 0x01
 3b2:	92 93       	st	-Z, r25
 3b4:	82 93       	st	-Z, r24
 3b6:	df 91       	pop	r29
 3b8:	cf 91       	pop	r28
 3ba:	08 95       	ret

000003bc <_ZN14HardwareSerial9availableEv>:
 3bc:	dc 01       	movw	r26, r24
 3be:	1c 96       	adiw	r26, 0x0c	; 12
 3c0:	ed 91       	ld	r30, X+
 3c2:	fc 91       	ld	r31, X
 3c4:	1d 97       	sbiw	r26, 0x0d	; 13
 3c6:	e0 5c       	subi	r30, 0xC0	; 192
 3c8:	ff 4f       	sbci	r31, 0xFF	; 255
 3ca:	21 91       	ld	r18, Z+
 3cc:	31 91       	ld	r19, Z+
 3ce:	80 81       	ld	r24, Z
 3d0:	91 81       	ldd	r25, Z+1	; 0x01
 3d2:	28 1b       	sub	r18, r24
 3d4:	39 0b       	sbc	r19, r25
 3d6:	2f 73       	andi	r18, 0x3F	; 63
 3d8:	30 70       	andi	r19, 0x00	; 0
 3da:	c9 01       	movw	r24, r18
 3dc:	08 95       	ret

000003de <_ZN14HardwareSerial4peekEv>:
 3de:	dc 01       	movw	r26, r24
 3e0:	1c 96       	adiw	r26, 0x0c	; 12
 3e2:	ed 91       	ld	r30, X+
 3e4:	fc 91       	ld	r31, X
 3e6:	1d 97       	sbiw	r26, 0x0d	; 13
 3e8:	e0 5c       	subi	r30, 0xC0	; 192
 3ea:	ff 4f       	sbci	r31, 0xFF	; 255
 3ec:	20 81       	ld	r18, Z
 3ee:	31 81       	ldd	r19, Z+1	; 0x01
 3f0:	e0 54       	subi	r30, 0x40	; 64
 3f2:	f0 40       	sbci	r31, 0x00	; 0
 3f4:	df 01       	movw	r26, r30
 3f6:	ae 5b       	subi	r26, 0xBE	; 190
 3f8:	bf 4f       	sbci	r27, 0xFF	; 255
 3fa:	8d 91       	ld	r24, X+
 3fc:	9c 91       	ld	r25, X
 3fe:	11 97       	sbiw	r26, 0x01	; 1
 400:	28 17       	cp	r18, r24
 402:	39 07       	cpc	r19, r25
 404:	01 f4       	brne	.+0      	; 0x406 <_ZN14HardwareSerial4peekEv+0x28>
 406:	2f ef       	ldi	r18, 0xFF	; 255
 408:	3f ef       	ldi	r19, 0xFF	; 255
 40a:	00 c0       	rjmp	.+0      	; 0x40c <_ZN14HardwareSerial4peekEv+0x2e>
 40c:	8d 91       	ld	r24, X+
 40e:	9c 91       	ld	r25, X
 410:	e8 0f       	add	r30, r24
 412:	f9 1f       	adc	r31, r25
 414:	80 81       	ld	r24, Z
 416:	28 2f       	mov	r18, r24
 418:	30 e0       	ldi	r19, 0x00	; 0
 41a:	c9 01       	movw	r24, r18
 41c:	08 95       	ret

0000041e <_ZN14HardwareSerial4readEv>:
 41e:	dc 01       	movw	r26, r24
 420:	1c 96       	adiw	r26, 0x0c	; 12
 422:	ed 91       	ld	r30, X+
 424:	fc 91       	ld	r31, X
 426:	1d 97       	sbiw	r26, 0x0d	; 13
 428:	e0 5c       	subi	r30, 0xC0	; 192
 42a:	ff 4f       	sbci	r31, 0xFF	; 255
 42c:	20 81       	ld	r18, Z
 42e:	31 81       	ldd	r19, Z+1	; 0x01
 430:	e0 54       	subi	r30, 0x40	; 64
 432:	f0 40       	sbci	r31, 0x00	; 0
 434:	df 01       	movw	r26, r30
 436:	ae 5b       	subi	r26, 0xBE	; 190
 438:	bf 4f       	sbci	r27, 0xFF	; 255
 43a:	8d 91       	ld	r24, X+
 43c:	9c 91       	ld	r25, X
 43e:	11 97       	sbiw	r26, 0x01	; 1
 440:	28 17       	cp	r18, r24
 442:	39 07       	cpc	r19, r25
 444:	01 f4       	brne	.+0      	; 0x446 <_ZN14HardwareSerial4readEv+0x28>
 446:	2f ef       	ldi	r18, 0xFF	; 255
 448:	3f ef       	ldi	r19, 0xFF	; 255
 44a:	00 c0       	rjmp	.+0      	; 0x44c <_ZN14HardwareSerial4readEv+0x2e>
 44c:	8d 91       	ld	r24, X+
 44e:	9c 91       	ld	r25, X
 450:	11 97       	sbiw	r26, 0x01	; 1
 452:	e8 0f       	add	r30, r24
 454:	f9 1f       	adc	r31, r25
 456:	20 81       	ld	r18, Z
 458:	8d 91       	ld	r24, X+
 45a:	9c 91       	ld	r25, X
 45c:	11 97       	sbiw	r26, 0x01	; 1
 45e:	01 96       	adiw	r24, 0x01	; 1
 460:	8f 73       	andi	r24, 0x3F	; 63
 462:	90 70       	andi	r25, 0x00	; 0
 464:	11 96       	adiw	r26, 0x01	; 1
 466:	9c 93       	st	X, r25
 468:	8e 93       	st	-X, r24
 46a:	30 e0       	ldi	r19, 0x00	; 0
 46c:	c9 01       	movw	r24, r18
 46e:	08 95       	ret

00000470 <_ZN14HardwareSerial5flushEv>:
 470:	fc 01       	movw	r30, r24
 472:	86 85       	ldd	r24, Z+14	; 0x0e
 474:	97 85       	ldd	r25, Z+15	; 0x0f
 476:	dc 01       	movw	r26, r24
 478:	a0 5c       	subi	r26, 0xC0	; 192
 47a:	bf 4f       	sbci	r27, 0xFF	; 255
 47c:	fc 01       	movw	r30, r24
 47e:	ee 5b       	subi	r30, 0xBE	; 190
 480:	ff 4f       	sbci	r31, 0xFF	; 255
 482:	2d 91       	ld	r18, X+
 484:	3c 91       	ld	r19, X
 486:	11 97       	sbiw	r26, 0x01	; 1
 488:	80 81       	ld	r24, Z
 48a:	91 81       	ldd	r25, Z+1	; 0x01
 48c:	28 17       	cp	r18, r24
 48e:	39 07       	cpc	r19, r25
 490:	01 f4       	brne	.+0      	; 0x492 <_ZN14HardwareSerial5flushEv+0x22>
 492:	08 95       	ret

00000494 <_ZN14HardwareSerial5writeEh>:
 494:	cf 93       	push	r28
 496:	df 93       	push	r29
 498:	ec 01       	movw	r28, r24
 49a:	ee 85       	ldd	r30, Y+14	; 0x0e
 49c:	ff 85       	ldd	r31, Y+15	; 0x0f
 49e:	e0 5c       	subi	r30, 0xC0	; 192
 4a0:	ff 4f       	sbci	r31, 0xFF	; 255
 4a2:	20 81       	ld	r18, Z
 4a4:	31 81       	ldd	r19, Z+1	; 0x01
 4a6:	e0 54       	subi	r30, 0x40	; 64
 4a8:	f0 40       	sbci	r31, 0x00	; 0
 4aa:	2f 5f       	subi	r18, 0xFF	; 255
 4ac:	3f 4f       	sbci	r19, 0xFF	; 255
 4ae:	2f 73       	andi	r18, 0x3F	; 63
 4b0:	30 70       	andi	r19, 0x00	; 0
 4b2:	df 01       	movw	r26, r30
 4b4:	ae 5b       	subi	r26, 0xBE	; 190
 4b6:	bf 4f       	sbci	r27, 0xFF	; 255
 4b8:	8d 91       	ld	r24, X+
 4ba:	9c 91       	ld	r25, X
 4bc:	11 97       	sbiw	r26, 0x01	; 1
 4be:	28 17       	cp	r18, r24
 4c0:	39 07       	cpc	r19, r25
 4c2:	01 f0       	breq	.+0      	; 0x4c4 <_ZN14HardwareSerial5writeEh+0x30>
 4c4:	e0 5c       	subi	r30, 0xC0	; 192
 4c6:	ff 4f       	sbci	r31, 0xFF	; 255
 4c8:	80 81       	ld	r24, Z
 4ca:	91 81       	ldd	r25, Z+1	; 0x01
 4cc:	e0 54       	subi	r30, 0x40	; 64
 4ce:	f0 40       	sbci	r31, 0x00	; 0
 4d0:	e8 0f       	add	r30, r24
 4d2:	f9 1f       	adc	r31, r25
 4d4:	60 83       	st	Z, r22
 4d6:	ee 85       	ldd	r30, Y+14	; 0x0e
 4d8:	ff 85       	ldd	r31, Y+15	; 0x0f
 4da:	e0 5c       	subi	r30, 0xC0	; 192
 4dc:	ff 4f       	sbci	r31, 0xFF	; 255
 4de:	31 83       	std	Z+1, r19	; 0x01
 4e0:	20 83       	st	Z, r18
 4e2:	ee 89       	ldd	r30, Y+22	; 0x16
 4e4:	ff 89       	ldd	r31, Y+23	; 0x17
 4e6:	20 81       	ld	r18, Z
 4e8:	81 e0       	ldi	r24, 0x01	; 1
 4ea:	90 e0       	ldi	r25, 0x00	; 0
 4ec:	0d 8c       	ldd	r0, Y+29	; 0x1d
 4ee:	00 c0       	rjmp	.+0      	; 0x4f0 <_ZN14HardwareSerial5writeEh+0x5c>
 4f0:	88 0f       	add	r24, r24
 4f2:	99 1f       	adc	r25, r25
 4f4:	0a 94       	dec	r0
 4f6:	02 f4       	brpl	.+0      	; 0x4f8 <_ZN14HardwareSerial5writeEh+0x64>
 4f8:	28 2b       	or	r18, r24
 4fa:	20 83       	st	Z, r18
 4fc:	81 e0       	ldi	r24, 0x01	; 1
 4fe:	90 e0       	ldi	r25, 0x00	; 0
 500:	df 91       	pop	r29
 502:	cf 91       	pop	r28
 504:	08 95       	ret

00000506 <_ZN14HardwareSerialcvbEv>:
 506:	81 e0       	ldi	r24, 0x01	; 1
 508:	08 95       	ret

0000050a <_GLOBAL__I_rx_buffer>:
 50a:	10 92 00 00 	sts	0x0000, r1
 50e:	10 92 00 00 	sts	0x0000, r1
 512:	88 ee       	ldi	r24, 0xE8	; 232
 514:	93 e0       	ldi	r25, 0x03	; 3
 516:	a0 e0       	ldi	r26, 0x00	; 0
 518:	b0 e0       	ldi	r27, 0x00	; 0
 51a:	80 93 00 00 	sts	0x0000, r24
 51e:	90 93 00 00 	sts	0x0000, r25
 522:	a0 93 00 00 	sts	0x0000, r26
 526:	b0 93 00 00 	sts	0x0000, r27
 52a:	80 e0       	ldi	r24, 0x00	; 0
 52c:	90 e0       	ldi	r25, 0x00	; 0
 52e:	90 93 00 00 	sts	0x0000, r25
 532:	80 93 00 00 	sts	0x0000, r24
 536:	80 e0       	ldi	r24, 0x00	; 0
 538:	90 e0       	ldi	r25, 0x00	; 0
 53a:	90 93 00 00 	sts	0x0000, r25
 53e:	80 93 00 00 	sts	0x0000, r24
 542:	80 e0       	ldi	r24, 0x00	; 0
 544:	90 e0       	ldi	r25, 0x00	; 0
 546:	90 93 00 00 	sts	0x0000, r25
 54a:	80 93 00 00 	sts	0x0000, r24
 54e:	80 e4       	ldi	r24, 0x40	; 64
 550:	90 e0       	ldi	r25, 0x00	; 0
 552:	90 93 00 00 	sts	0x0000, r25
 556:	80 93 00 00 	sts	0x0000, r24
 55a:	89 e2       	ldi	r24, 0x29	; 41
 55c:	90 e0       	ldi	r25, 0x00	; 0
 55e:	90 93 00 00 	sts	0x0000, r25
 562:	80 93 00 00 	sts	0x0000, r24
 566:	8b e2       	ldi	r24, 0x2B	; 43
 568:	90 e0       	ldi	r25, 0x00	; 0
 56a:	90 93 00 00 	sts	0x0000, r25
 56e:	80 93 00 00 	sts	0x0000, r24
 572:	8a e2       	ldi	r24, 0x2A	; 42
 574:	90 e0       	ldi	r25, 0x00	; 0
 576:	90 93 00 00 	sts	0x0000, r25
 57a:	80 93 00 00 	sts	0x0000, r24
 57e:	8c e2       	ldi	r24, 0x2C	; 44
 580:	90 e0       	ldi	r25, 0x00	; 0
 582:	90 93 00 00 	sts	0x0000, r25
 586:	80 93 00 00 	sts	0x0000, r24
 58a:	84 e0       	ldi	r24, 0x04	; 4
 58c:	80 93 00 00 	sts	0x0000, r24
 590:	83 e0       	ldi	r24, 0x03	; 3
 592:	80 93 00 00 	sts	0x0000, r24
 596:	87 e0       	ldi	r24, 0x07	; 7
 598:	80 93 00 00 	sts	0x0000, r24
 59c:	85 e0       	ldi	r24, 0x05	; 5
 59e:	80 93 00 00 	sts	0x0000, r24
 5a2:	81 e0       	ldi	r24, 0x01	; 1
 5a4:	80 93 00 00 	sts	0x0000, r24
 5a8:	08 95       	ret

IPAddress.o:     file format elf32-avr

Sections:
Idx Name          Size      VMA       LMA       File off  Algn
  0 .text         000001f2  00000000  00000000  00000034  2**0
                  CONTENTS, ALLOC, LOAD, RELOC, READONLY, CODE
  1 .data         0000000c  00000000  00000000  00000226  2**0
                  CONTENTS, ALLOC, LOAD, RELOC, DATA
  2 .bss          00000006  00000000  00000000  00000232  2**0
                  ALLOC
  3 .ctors        00000002  00000000  00000000  00000232  2**0
                  CONTENTS, ALLOC, LOAD, RELOC, READONLY, DATA

Disassembly of section .text:

00000000 <_ZN9IPAddressC2Ehhhh>:
   0:	0f 93       	push	r16
   2:	fc 01       	movw	r30, r24
   4:	80 e0       	ldi	r24, 0x00	; 0
   6:	90 e0       	ldi	r25, 0x00	; 0
   8:	91 83       	std	Z+1, r25	; 0x01
   a:	80 83       	st	Z, r24
   c:	62 83       	std	Z+2, r22	; 0x02
   e:	43 83       	std	Z+3, r20	; 0x03
  10:	24 83       	std	Z+4, r18	; 0x04
  12:	05 83       	std	Z+5, r16	; 0x05
  14:	0f 91       	pop	r16
  16:	08 95       	ret

00000018 <_ZN9IPAddressC1Ehhhh>:
  18:	0f 93       	push	r16
  1a:	fc 01       	movw	r30, r24
  1c:	80 e0       	ldi	r24, 0x00	; 0
  1e:	90 e0       	ldi	r25, 0x00	; 0
  20:	91 83       	std	Z+1, r25	; 0x01
  22:	80 83       	st	Z, r24
  24:	62 83       	std	Z+2, r22	; 0x02
  26:	43 83       	std	Z+3, r20	; 0x03
  28:	24 83       	std	Z+4, r18	; 0x04
  2a:	05 83       	std	Z+5, r16	; 0x05
  2c:	0f 91       	pop	r16
  2e:	08 95       	ret

00000030 <_GLOBAL__I__ZN9IPAddressC2Ev>:
  30:	80 e0       	ldi	r24, 0x00	; 0
  32:	90 e0       	ldi	r25, 0x00	; 0
  34:	90 93 00 00 	sts	0x0000, r25
  38:	80 93 00 00 	sts	0x0000, r24
  3c:	10 92 00 00 	sts	0x0000, r1
  40:	10 92 00 00 	sts	0x0000, r1
  44:	10 92 00 00 	sts	0x0000, r1
  48:	10 92 00 00 	sts	0x0000, r1
  4c:	08 95       	ret

0000004e <_ZNK9IPAddress7printToER5Print>:
  4e:	8f 92       	push	r8
  50:	9f 92       	push	r9
  52:	af 92       	push	r10
  54:	bf 92       	push	r11
  56:	cf 92       	push	r12
  58:	df 92       	push	r13
  5a:	ef 92       	push	r14
  5c:	ff 92       	push	r15
  5e:	0f 93       	push	r16
  60:	1f 93       	push	r17
  62:	cf 93       	push	r28
  64:	df 93       	push	r29
  66:	4c 01       	movw	r8, r24
  68:	6b 01       	movw	r12, r22
  6a:	7c 01       	movw	r14, r24
  6c:	aa 24       	eor	r10, r10
  6e:	bb 24       	eor	r11, r11
  70:	c0 e0       	ldi	r28, 0x00	; 0
  72:	d0 e0       	ldi	r29, 0x00	; 0
  74:	c6 01       	movw	r24, r12
  76:	f7 01       	movw	r30, r14
  78:	62 81       	ldd	r22, Z+2	; 0x02
  7a:	4a e0       	ldi	r20, 0x0A	; 10
  7c:	50 e0       	ldi	r21, 0x00	; 0
  7e:	0e 94 00 00 	call	0	; 0x0 <_ZN9IPAddressC2Ehhhh>
  82:	8c 01       	movw	r16, r24
  84:	c6 01       	movw	r24, r12
  86:	6e e2       	ldi	r22, 0x2E	; 46
  88:	0e 94 00 00 	call	0	; 0x0 <_ZN9IPAddressC2Ehhhh>
  8c:	08 0f       	add	r16, r24
  8e:	19 1f       	adc	r17, r25
  90:	a0 0e       	add	r10, r16
  92:	b1 1e       	adc	r11, r17
  94:	21 96       	adiw	r28, 0x01	; 1
  96:	08 94       	sec
  98:	e1 1c       	adc	r14, r1
  9a:	f1 1c       	adc	r15, r1
  9c:	c3 30       	cpi	r28, 0x03	; 3
  9e:	d1 05       	cpc	r29, r1
  a0:	01 f4       	brne	.+0      	; 0xa2 <_ZNK9IPAddress7printToER5Print+0x54>
  a2:	c6 01       	movw	r24, r12
  a4:	f4 01       	movw	r30, r8
  a6:	65 81       	ldd	r22, Z+5	; 0x05
  a8:	4a e0       	ldi	r20, 0x0A	; 10
  aa:	50 e0       	ldi	r21, 0x00	; 0
  ac:	0e 94 00 00 	call	0	; 0x0 <_ZN9IPAddressC2Ehhhh>
  b0:	95 01       	movw	r18, r10
  b2:	28 0f       	add	r18, r24
  b4:	39 1f       	adc	r19, r25
  b6:	c9 01       	movw	r24, r18
  b8:	df 91       	pop	r29
  ba:	cf 91       	pop	r28
  bc:	1f 91       	pop	r17
  be:	0f 91       	pop	r16
  c0:	ff 90       	pop	r15
  c2:	ef 90       	pop	r14
  c4:	df 90       	pop	r13
  c6:	cf 90       	pop	r12
  c8:	bf 90       	pop	r11
  ca:	af 90       	pop	r10
  cc:	9f 90       	pop	r9
  ce:	8f 90       	pop	r8
  d0:	08 95       	ret

000000d2 <_ZN9IPAddresseqEPKh>:
  d2:	9c 01       	movw	r18, r24
  d4:	2e 5f       	subi	r18, 0xFE	; 254
  d6:	3f 4f       	sbci	r19, 0xFF	; 255
  d8:	cb 01       	movw	r24, r22
  da:	b9 01       	movw	r22, r18
  dc:	44 e0       	ldi	r20, 0x04	; 4
  de:	50 e0       	ldi	r21, 0x00	; 0
  e0:	0e 94 00 00 	call	0	; 0x0 <_ZN9IPAddressC2Ehhhh>
  e4:	9c 01       	movw	r18, r24
  e6:	80 e0       	ldi	r24, 0x00	; 0
  e8:	23 2b       	or	r18, r19
  ea:	01 f4       	brne	.+0      	; 0xec <_ZN9IPAddresseqEPKh+0x1a>
  ec:	81 e0       	ldi	r24, 0x01	; 1
  ee:	08 95       	ret

000000f0 <_ZN9IPAddressaSEm>:
  f0:	df 93       	push	r29
  f2:	cf 93       	push	r28
  f4:	00 d0       	rcall	.+0      	; 0xf6 <_ZN9IPAddressaSEm+0x6>
  f6:	00 d0       	rcall	.+0      	; 0xf8 <_ZN9IPAddressaSEm+0x8>
  f8:	cd b7       	in	r28, 0x3d	; 61
  fa:	de b7       	in	r29, 0x3e	; 62
  fc:	fc 01       	movw	r30, r24
  fe:	42 83       	std	Z+2, r20	; 0x02
 100:	53 83       	std	Z+3, r21	; 0x03
 102:	64 83       	std	Z+4, r22	; 0x04
 104:	75 83       	std	Z+5, r23	; 0x05
 106:	0f 90       	pop	r0
 108:	0f 90       	pop	r0
 10a:	0f 90       	pop	r0
 10c:	0f 90       	pop	r0
 10e:	cf 91       	pop	r28
 110:	df 91       	pop	r29
 112:	08 95       	ret

00000114 <_ZN9IPAddressaSEPKh>:
 114:	9c 01       	movw	r18, r24
 116:	fb 01       	movw	r30, r22
 118:	80 81       	ld	r24, Z
 11a:	91 81       	ldd	r25, Z+1	; 0x01
 11c:	a2 81       	ldd	r26, Z+2	; 0x02
 11e:	b3 81       	ldd	r27, Z+3	; 0x03
 120:	f9 01       	movw	r30, r18
 122:	82 83       	std	Z+2, r24	; 0x02
 124:	93 83       	std	Z+3, r25	; 0x03
 126:	a4 83       	std	Z+4, r26	; 0x04
 128:	b5 83       	std	Z+5, r27	; 0x05
 12a:	c9 01       	movw	r24, r18
 12c:	08 95       	ret

0000012e <_ZN9IPAddressC1EPKh>:
 12e:	9c 01       	movw	r18, r24
 130:	fb 01       	movw	r30, r22
 132:	80 e0       	ldi	r24, 0x00	; 0
 134:	90 e0       	ldi	r25, 0x00	; 0
 136:	d9 01       	movw	r26, r18
 138:	8d 93       	st	X+, r24
 13a:	9c 93       	st	X, r25
 13c:	80 81       	ld	r24, Z
 13e:	91 81       	ldd	r25, Z+1	; 0x01
 140:	a2 81       	ldd	r26, Z+2	; 0x02
 142:	b3 81       	ldd	r27, Z+3	; 0x03
 144:	f9 01       	movw	r30, r18
 146:	82 83       	std	Z+2, r24	; 0x02
 148:	93 83       	std	Z+3, r25	; 0x03
 14a:	a4 83       	std	Z+4, r26	; 0x04
 14c:	b5 83       	std	Z+5, r27	; 0x05
 14e:	08 95       	ret

00000150 <_ZN9IPAddressC2EPKh>:
 150:	9c 01       	movw	r18, r24
 152:	fb 01       	movw	r30, r22
 154:	80 e0       	ldi	r24, 0x00	; 0
 156:	90 e0       	ldi	r25, 0x00	; 0
 158:	d9 01       	movw	r26, r18
 15a:	8d 93       	st	X+, r24
 15c:	9c 93       	st	X, r25
 15e:	80 81       	ld	r24, Z
 160:	91 81       	ldd	r25, Z+1	; 0x01
 162:	a2 81       	ldd	r26, Z+2	; 0x02
 164:	b3 81       	ldd	r27, Z+3	; 0x03
 166:	f9 01       	movw	r30, r18
 168:	82 83       	std	Z+2, r24	; 0x02
 16a:	93 83       	std	Z+3, r25	; 0x03
 16c:	a4 83       	std	Z+4, r26	; 0x04
 16e:	b5 83       	std	Z+5, r27	; 0x05
 170:	08 95       	ret

00000172 <_ZN9IPAddressC1Em>:
 172:	df 93       	push	r29
 174:	cf 93       	push	r28
 176:	00 d0       	rcall	.+0      	; 0x178 <_ZN9IPAddressC1Em+0x6>
 178:	00 d0       	rcall	.+0      	; 0x17a <_ZN9IPAddressC1Em+0x8>
 17a:	cd b7       	in	r28, 0x3d	; 61
 17c:	de b7       	in	r29, 0x3e	; 62
 17e:	fc 01       	movw	r30, r24
 180:	80 e0       	ldi	r24, 0x00	; 0
 182:	90 e0       	ldi	r25, 0x00	; 0
 184:	91 83       	std	Z+1, r25	; 0x01
 186:	80 83       	st	Z, r24
 188:	42 83       	std	Z+2, r20	; 0x02
 18a:	53 83       	std	Z+3, r21	; 0x03
 18c:	64 83       	std	Z+4, r22	; 0x04
 18e:	75 83       	std	Z+5, r23	; 0x05
 190:	0f 90       	pop	r0
 192:	0f 90       	pop	r0
 194:	0f 90       	pop	r0
 196:	0f 90       	pop	r0
 198:	cf 91       	pop	r28
 19a:	df 91       	pop	r29
 19c:	08 95       	ret

0000019e <_ZN9IPAddressC2Em>:
 19e:	df 93       	push	r29
 1a0:	cf 93       	push	r28
 1a2:	00 d0       	rcall	.+0      	; 0x1a4 <_ZN9IPAddressC2Em+0x6>
 1a4:	00 d0       	rcall	.+0      	; 0x1a6 <_ZN9IPAddressC2Em+0x8>
 1a6:	cd b7       	in	r28, 0x3d	; 61
 1a8:	de b7       	in	r29, 0x3e	; 62
 1aa:	fc 01       	movw	r30, r24
 1ac:	80 e0       	ldi	r24, 0x00	; 0
 1ae:	90 e0       	ldi	r25, 0x00	; 0
 1b0:	91 83       	std	Z+1, r25	; 0x01
 1b2:	80 83       	st	Z, r24
 1b4:	42 83       	std	Z+2, r20	; 0x02
 1b6:	53 83       	std	Z+3, r21	; 0x03
 1b8:	64 83       	std	Z+4, r22	; 0x04
 1ba:	75 83       	std	Z+5, r23	; 0x05
 1bc:	0f 90       	pop	r0
 1be:	0f 90       	pop	r0
 1c0:	0f 90       	pop	r0
 1c2:	0f 90       	pop	r0
 1c4:	cf 91       	pop	r28
 1c6:	df 91       	pop	r29
 1c8:	08 95       	ret

000001ca <_ZN9IPAddressC1Ev>:
 1ca:	fc 01       	movw	r30, r24
 1cc:	80 e0       	ldi	r24, 0x00	; 0
 1ce:	90 e0       	ldi	r25, 0x00	; 0
 1d0:	91 83       	std	Z+1, r25	; 0x01
 1d2:	80 83       	st	Z, r24
 1d4:	12 82       	std	Z+2, r1	; 0x02
 1d6:	13 82       	std	Z+3, r1	; 0x03
 1d8:	14 82       	std	Z+4, r1	; 0x04
 1da:	15 82       	std	Z+5, r1	; 0x05
 1dc:	08 95       	ret

000001de <_ZN9IPAddressC2Ev>:
 1de:	fc 01       	movw	r30, r24
 1e0:	80 e0       	ldi	r24, 0x00	; 0
 1e2:	90 e0       	ldi	r25, 0x00	; 0
 1e4:	91 83       	std	Z+1, r25	; 0x01
 1e6:	80 83       	st	Z, r24
 1e8:	12 82       	std	Z+2, r1	; 0x02
 1ea:	13 82       	std	Z+3, r1	; 0x03
 1ec:	14 82       	std	Z+4, r1	; 0x04
 1ee:	15 82       	std	Z+5, r1	; 0x05
 1f0:	08 95       	ret

Print.o:     file format elf32-avr

Sections:
Idx Name          Size      VMA       LMA       File off  Algn
  0 .text         000006a6  00000000  00000000  00000034  2**0
                  CONTENTS, ALLOC, LOAD, RELOC, READONLY, CODE
  1 .data         0000000a  00000000  00000000  000006da  2**0
                  CONTENTS, ALLOC, LOAD, RELOC, DATA
  2 .bss          00000000  00000000  00000000  000006e4  2**0
                  ALLOC

Disassembly of section .text:

00000000 <_ZN5Print5writeEPKhj>:
   0:	cf 92       	push	r12
   2:	df 92       	push	r13
   4:	ef 92       	push	r14
   6:	ff 92       	push	r15
   8:	0f 93       	push	r16
   a:	1f 93       	push	r17
   c:	cf 93       	push	r28
   e:	df 93       	push	r29
  10:	7c 01       	movw	r14, r24
  12:	6b 01       	movw	r12, r22
  14:	8a 01       	movw	r16, r20
  16:	c0 e0       	ldi	r28, 0x00	; 0
  18:	d0 e0       	ldi	r29, 0x00	; 0
  1a:	00 c0       	rjmp	.+0      	; 0x1c <_ZN5Print5writeEPKhj+0x1c>
  1c:	d6 01       	movw	r26, r12
  1e:	6d 91       	ld	r22, X+
  20:	6d 01       	movw	r12, r26
  22:	d7 01       	movw	r26, r14
  24:	ed 91       	ld	r30, X+
  26:	fc 91       	ld	r31, X
  28:	01 90       	ld	r0, Z+
  2a:	f0 81       	ld	r31, Z
  2c:	e0 2d       	mov	r30, r0
  2e:	c7 01       	movw	r24, r14
  30:	09 95       	icall
  32:	c8 0f       	add	r28, r24
  34:	d9 1f       	adc	r29, r25
  36:	01 50       	subi	r16, 0x01	; 1
  38:	10 40       	sbci	r17, 0x00	; 0
  3a:	01 15       	cp	r16, r1
  3c:	11 05       	cpc	r17, r1
  3e:	01 f4       	brne	.+0      	; 0x40 <_ZN5Print5writeEPKhj+0x40>
  40:	ce 01       	movw	r24, r28
  42:	df 91       	pop	r29
  44:	cf 91       	pop	r28
  46:	1f 91       	pop	r17
  48:	0f 91       	pop	r16
  4a:	ff 90       	pop	r15
  4c:	ef 90       	pop	r14
  4e:	df 90       	pop	r13
  50:	cf 90       	pop	r12
  52:	08 95       	ret

00000054 <_ZN5Print5printEPK19__FlashStringHelper>:
  54:	ef 92       	push	r14
  56:	ff 92       	push	r15
  58:	0f 93       	push	r16
  5a:	1f 93       	push	r17
  5c:	cf 93       	push	r28
  5e:	df 93       	push	r29
  60:	7c 01       	movw	r14, r24
  62:	8b 01       	movw	r16, r22
  64:	c0 e0       	ldi	r28, 0x00	; 0
  66:	d0 e0       	ldi	r29, 0x00	; 0
  68:	f8 01       	movw	r30, r16
  6a:	0f 5f       	subi	r16, 0xFF	; 255
  6c:	1f 4f       	sbci	r17, 0xFF	; 255
  6e:	64 91       	lpm	r22, Z+
  70:	66 23       	and	r22, r22
  72:	01 f0       	breq	.+0      	; 0x74 <_ZN5Print5printEPK19__FlashStringHelper+0x20>
  74:	d7 01       	movw	r26, r14
  76:	ed 91       	ld	r30, X+
  78:	fc 91       	ld	r31, X
  7a:	01 90       	ld	r0, Z+
  7c:	f0 81       	ld	r31, Z
  7e:	e0 2d       	mov	r30, r0
  80:	c7 01       	movw	r24, r14
  82:	09 95       	icall
  84:	c8 0f       	add	r28, r24
  86:	d9 1f       	adc	r29, r25
  88:	00 c0       	rjmp	.+0      	; 0x8a <_ZN5Print5printEPK19__FlashStringHelper+0x36>
  8a:	ce 01       	movw	r24, r28
  8c:	df 91       	pop	r29
  8e:	cf 91       	pop	r28
  90:	1f 91       	pop	r17
  92:	0f 91       	pop	r16
  94:	ff 90       	pop	r15
  96:	ef 90       	pop	r14
  98:	08 95       	ret

0000009a <_ZN5Print5printEc>:
  9a:	dc 01       	movw	r26, r24
  9c:	ed 91       	ld	r30, X+
  9e:	fc 91       	ld	r31, X
  a0:	01 90       	ld	r0, Z+
  a2:	f0 81       	ld	r31, Z
  a4:	e0 2d       	mov	r30, r0
  a6:	09 95       	icall
  a8:	08 95       	ret

000000aa <_ZN5Print5printERK9Printable>:
  aa:	9c 01       	movw	r18, r24
  ac:	db 01       	movw	r26, r22
  ae:	ed 91       	ld	r30, X+
  b0:	fc 91       	ld	r31, X
  b2:	01 90       	ld	r0, Z+
  b4:	f0 81       	ld	r31, Z
  b6:	e0 2d       	mov	r30, r0
  b8:	cb 01       	movw	r24, r22
  ba:	b9 01       	movw	r22, r18
  bc:	09 95       	icall
  be:	08 95       	ret

000000c0 <_ZN5Print7printlnEv>:
  c0:	ef 92       	push	r14
  c2:	ff 92       	push	r15
  c4:	0f 93       	push	r16
  c6:	1f 93       	push	r17
  c8:	8c 01       	movw	r16, r24
  ca:	dc 01       	movw	r26, r24
  cc:	ed 91       	ld	r30, X+
  ce:	fc 91       	ld	r31, X
  d0:	01 90       	ld	r0, Z+
  d2:	f0 81       	ld	r31, Z
  d4:	e0 2d       	mov	r30, r0
  d6:	6d e0       	ldi	r22, 0x0D	; 13
  d8:	09 95       	icall
  da:	7c 01       	movw	r14, r24
  dc:	d8 01       	movw	r26, r16
  de:	ed 91       	ld	r30, X+
  e0:	fc 91       	ld	r31, X
  e2:	01 90       	ld	r0, Z+
  e4:	f0 81       	ld	r31, Z
  e6:	e0 2d       	mov	r30, r0
  e8:	c8 01       	movw	r24, r16
  ea:	6a e0       	ldi	r22, 0x0A	; 10
  ec:	09 95       	icall
  ee:	9c 01       	movw	r18, r24
  f0:	2e 0d       	add	r18, r14
  f2:	3f 1d       	adc	r19, r15
  f4:	c9 01       	movw	r24, r18
  f6:	1f 91       	pop	r17
  f8:	0f 91       	pop	r16
  fa:	ff 90       	pop	r15
  fc:	ef 90       	pop	r14
  fe:	08 95       	ret

00000100 <_ZN5Print7printlnEPK19__FlashStringHelper>:
 100:	ef 92       	push	r14
 102:	ff 92       	push	r15
 104:	0f 93       	push	r16
 106:	1f 93       	push	r17
 108:	7c 01       	movw	r14, r24
 10a:	0e 94 00 00 	call	0	; 0x0 <_ZN5Print5writeEPKhj>
 10e:	8c 01       	movw	r16, r24
 110:	c7 01       	movw	r24, r14
 112:	0e 94 00 00 	call	0	; 0x0 <_ZN5Print5writeEPKhj>
 116:	9c 01       	movw	r18, r24
 118:	20 0f       	add	r18, r16
 11a:	31 1f       	adc	r19, r17
 11c:	c9 01       	movw	r24, r18
 11e:	1f 91       	pop	r17
 120:	0f 91       	pop	r16
 122:	ff 90       	pop	r15
 124:	ef 90       	pop	r14
 126:	08 95       	ret

00000128 <_ZN5Print7printlnEc>:
 128:	ef 92       	push	r14
 12a:	ff 92       	push	r15
 12c:	0f 93       	push	r16
 12e:	1f 93       	push	r17
 130:	7c 01       	movw	r14, r24
 132:	dc 01       	movw	r26, r24
 134:	ed 91       	ld	r30, X+
 136:	fc 91       	ld	r31, X
 138:	01 90       	ld	r0, Z+
 13a:	f0 81       	ld	r31, Z
 13c:	e0 2d       	mov	r30, r0
 13e:	09 95       	icall
 140:	8c 01       	movw	r16, r24
 142:	c7 01       	movw	r24, r14
 144:	0e 94 00 00 	call	0	; 0x0 <_ZN5Print5writeEPKhj>
 148:	08 0f       	add	r16, r24
 14a:	19 1f       	adc	r17, r25
 14c:	c8 01       	movw	r24, r16
 14e:	1f 91       	pop	r17
 150:	0f 91       	pop	r16
 152:	ff 90       	pop	r15
 154:	ef 90       	pop	r14
 156:	08 95       	ret

00000158 <_ZN5Print7printlnERK9Printable>:
 158:	ef 92       	push	r14
 15a:	ff 92       	push	r15
 15c:	0f 93       	push	r16
 15e:	1f 93       	push	r17
 160:	7c 01       	movw	r14, r24
 162:	db 01       	movw	r26, r22
 164:	ed 91       	ld	r30, X+
 166:	fc 91       	ld	r31, X
 168:	01 90       	ld	r0, Z+
 16a:	f0 81       	ld	r31, Z
 16c:	e0 2d       	mov	r30, r0
 16e:	cb 01       	movw	r24, r22
 170:	b7 01       	movw	r22, r14
 172:	09 95       	icall
 174:	8c 01       	movw	r16, r24
 176:	c7 01       	movw	r24, r14
 178:	0e 94 00 00 	call	0	; 0x0 <_ZN5Print5writeEPKhj>
 17c:	08 0f       	add	r16, r24
 17e:	19 1f       	adc	r17, r25
 180:	c8 01       	movw	r24, r16
 182:	1f 91       	pop	r17
 184:	0f 91       	pop	r16
 186:	ff 90       	pop	r15
 188:	ef 90       	pop	r14
 18a:	08 95       	ret

0000018c <_ZN5Print5writeEPKc>:
 18c:	cf 93       	push	r28
 18e:	df 93       	push	r29
 190:	db 01       	movw	r26, r22
 192:	0d 90       	ld	r0, X+
 194:	00 20       	and	r0, r0
 196:	01 f4       	brne	.+0      	; 0x198 <_ZN5Print5writeEPKc+0xc>
 198:	11 97       	sbiw	r26, 0x01	; 1
 19a:	a6 1b       	sub	r26, r22
 19c:	b7 0b       	sbc	r27, r23
 19e:	ec 01       	movw	r28, r24
 1a0:	e8 81       	ld	r30, Y
 1a2:	f9 81       	ldd	r31, Y+1	; 0x01
 1a4:	02 80       	ldd	r0, Z+2	; 0x02
 1a6:	f3 81       	ldd	r31, Z+3	; 0x03
 1a8:	e0 2d       	mov	r30, r0
 1aa:	ad 01       	movw	r20, r26
 1ac:	09 95       	icall
 1ae:	df 91       	pop	r29
 1b0:	cf 91       	pop	r28
 1b2:	08 95       	ret

000001b4 <_ZN5Print11printNumberEmh>:
 1b4:	4f 92       	push	r4
 1b6:	5f 92       	push	r5
 1b8:	7f 92       	push	r7
 1ba:	8f 92       	push	r8
 1bc:	9f 92       	push	r9
 1be:	af 92       	push	r10
 1c0:	bf 92       	push	r11
 1c2:	cf 92       	push	r12
 1c4:	df 92       	push	r13
 1c6:	ef 92       	push	r14
 1c8:	ff 92       	push	r15
 1ca:	0f 93       	push	r16
 1cc:	1f 93       	push	r17
 1ce:	df 93       	push	r29
 1d0:	cf 93       	push	r28
 1d2:	cd b7       	in	r28, 0x3d	; 61
 1d4:	de b7       	in	r29, 0x3e	; 62
 1d6:	a1 97       	sbiw	r28, 0x21	; 33
 1d8:	0f b6       	in	r0, 0x3f	; 63
 1da:	f8 94       	cli
 1dc:	de bf       	out	0x3e, r29	; 62
 1de:	0f be       	out	0x3f, r0	; 63
 1e0:	cd bf       	out	0x3d, r28	; 61
 1e2:	2c 01       	movw	r4, r24
 1e4:	74 2e       	mov	r7, r20
 1e6:	cb 01       	movw	r24, r22
 1e8:	22 30       	cpi	r18, 0x02	; 2
 1ea:	00 f4       	brcc	.+0      	; 0x1ec <_ZN5Print11printNumberEmh+0x38>
 1ec:	2a e0       	ldi	r18, 0x0A	; 10
 1ee:	19 a2       	std	Y+33, r1	; 0x21
 1f0:	31 e2       	ldi	r19, 0x21	; 33
 1f2:	c3 2e       	mov	r12, r19
 1f4:	d1 2c       	mov	r13, r1
 1f6:	cc 0e       	add	r12, r28
 1f8:	dd 1e       	adc	r13, r29
 1fa:	82 2e       	mov	r8, r18
 1fc:	99 24       	eor	r9, r9
 1fe:	aa 24       	eor	r10, r10
 200:	bb 24       	eor	r11, r11
 202:	67 2d       	mov	r22, r7
 204:	75 2f       	mov	r23, r21
 206:	a5 01       	movw	r20, r10
 208:	94 01       	movw	r18, r8
 20a:	0e 94 00 00 	call	0	; 0x0 <_ZN5Print5writeEPKhj>
 20e:	79 01       	movw	r14, r18
 210:	8a 01       	movw	r16, r20
 212:	c8 01       	movw	r24, r16
 214:	b7 01       	movw	r22, r14
 216:	a5 01       	movw	r20, r10
 218:	94 01       	movw	r18, r8
 21a:	0e 94 00 00 	call	0	; 0x0 <_ZN5Print5writeEPKhj>
 21e:	47 2d       	mov	r20, r7
 220:	46 1b       	sub	r20, r22
 222:	08 94       	sec
 224:	c1 08       	sbc	r12, r1
 226:	d1 08       	sbc	r13, r1
 228:	4a 30       	cpi	r20, 0x0A	; 10
 22a:	00 f4       	brcc	.+0      	; 0x22c <_ZN5Print11printNumberEmh+0x78>
 22c:	40 5d       	subi	r20, 0xD0	; 208
 22e:	00 c0       	rjmp	.+0      	; 0x230 <_ZN5Print11printNumberEmh+0x7c>
 230:	49 5c       	subi	r20, 0xC9	; 201
 232:	f6 01       	movw	r30, r12
 234:	40 83       	st	Z, r20
 236:	e1 14       	cp	r14, r1
 238:	f1 04       	cpc	r15, r1
 23a:	01 05       	cpc	r16, r1
 23c:	11 05       	cpc	r17, r1
 23e:	01 f0       	breq	.+0      	; 0x240 <_ZN5Print11printNumberEmh+0x8c>
 240:	7e 2c       	mov	r7, r14
 242:	5f 2d       	mov	r21, r15
 244:	c8 01       	movw	r24, r16
 246:	00 c0       	rjmp	.+0      	; 0x248 <_ZN5Print11printNumberEmh+0x94>
 248:	c2 01       	movw	r24, r4
 24a:	b6 01       	movw	r22, r12
 24c:	0e 94 00 00 	call	0	; 0x0 <_ZN5Print5writeEPKhj>
 250:	a1 96       	adiw	r28, 0x21	; 33
 252:	0f b6       	in	r0, 0x3f	; 63
 254:	f8 94       	cli
 256:	de bf       	out	0x3e, r29	; 62
 258:	0f be       	out	0x3f, r0	; 63
 25a:	cd bf       	out	0x3d, r28	; 61
 25c:	cf 91       	pop	r28
 25e:	df 91       	pop	r29
 260:	1f 91       	pop	r17
 262:	0f 91       	pop	r16
 264:	ff 90       	pop	r15
 266:	ef 90       	pop	r14
 268:	df 90       	pop	r13
 26a:	cf 90       	pop	r12
 26c:	bf 90       	pop	r11
 26e:	af 90       	pop	r10
 270:	9f 90       	pop	r9
 272:	8f 90       	pop	r8
 274:	7f 90       	pop	r7
 276:	5f 90       	pop	r5
 278:	4f 90       	pop	r4
 27a:	08 95       	ret

0000027c <_ZN5Print5printEmi>:
 27c:	dc 01       	movw	r26, r24
 27e:	21 15       	cp	r18, r1
 280:	31 05       	cpc	r19, r1
 282:	01 f4       	brne	.+0      	; 0x284 <_ZN5Print5printEmi+0x8>
 284:	ed 91       	ld	r30, X+
 286:	fc 91       	ld	r31, X
 288:	01 90       	ld	r0, Z+
 28a:	f0 81       	ld	r31, Z
 28c:	e0 2d       	mov	r30, r0
 28e:	64 2f       	mov	r22, r20
 290:	09 95       	icall
 292:	08 95       	ret
 294:	0e 94 00 00 	call	0	; 0x0 <_ZN5Print5writeEPKhj>
 298:	08 95       	ret

0000029a <_ZN5Print7printlnEmi>:
 29a:	ef 92       	push	r14
 29c:	ff 92       	push	r15
 29e:	0f 93       	push	r16
 2a0:	1f 93       	push	r17
 2a2:	7c 01       	movw	r14, r24
 2a4:	0e 94 00 00 	call	0	; 0x0 <_ZN5Print5writeEPKhj>
 2a8:	8c 01       	movw	r16, r24
 2aa:	c7 01       	movw	r24, r14
 2ac:	0e 94 00 00 	call	0	; 0x0 <_ZN5Print5writeEPKhj>
 2b0:	9c 01       	movw	r18, r24
 2b2:	20 0f       	add	r18, r16
 2b4:	31 1f       	adc	r19, r17
 2b6:	c9 01       	movw	r24, r18
 2b8:	1f 91       	pop	r17
 2ba:	0f 91       	pop	r16
 2bc:	ff 90       	pop	r15
 2be:	ef 90       	pop	r14
 2c0:	08 95       	ret

000002c2 <_ZN5Print5printEji>:
 2c2:	ef 92       	push	r14
 2c4:	ff 92       	push	r15
 2c6:	0f 93       	push	r16
 2c8:	1f 93       	push	r17
 2ca:	9a 01       	movw	r18, r20
 2cc:	7b 01       	movw	r14, r22
 2ce:	00 e0       	ldi	r16, 0x00	; 0
 2d0:	10 e0       	ldi	r17, 0x00	; 0
 2d2:	b8 01       	movw	r22, r16
 2d4:	a7 01       	movw	r20, r14
 2d6:	0e 94 00 00 	call	0	; 0x0 <_ZN5Print5writeEPKhj>
 2da:	1f 91       	pop	r17
 2dc:	0f 91       	pop	r16
 2de:	ff 90       	pop	r15
 2e0:	ef 90       	pop	r14
 2e2:	08 95       	ret

000002e4 <_ZN5Print7printlnEji>:
 2e4:	cf 92       	push	r12
 2e6:	df 92       	push	r13
 2e8:	ef 92       	push	r14
 2ea:	ff 92       	push	r15
 2ec:	0f 93       	push	r16
 2ee:	1f 93       	push	r17
 2f0:	6c 01       	movw	r12, r24
 2f2:	7b 01       	movw	r14, r22
 2f4:	9a 01       	movw	r18, r20
 2f6:	00 e0       	ldi	r16, 0x00	; 0
 2f8:	10 e0       	ldi	r17, 0x00	; 0
 2fa:	b8 01       	movw	r22, r16
 2fc:	a7 01       	movw	r20, r14
 2fe:	0e 94 00 00 	call	0	; 0x0 <_ZN5Print5writeEPKhj>
 302:	8c 01       	movw	r16, r24
 304:	c6 01       	movw	r24, r12
 306:	0e 94 00 00 	call	0	; 0x0 <_ZN5Print5writeEPKhj>
 30a:	08 0f       	add	r16, r24
 30c:	19 1f       	adc	r17, r25
 30e:	c8 01       	movw	r24, r16
 310:	1f 91       	pop	r17
 312:	0f 91       	pop	r16
 314:	ff 90       	pop	r15
 316:	ef 90       	pop	r14
 318:	df 90       	pop	r13
 31a:	cf 90       	pop	r12
 31c:	08 95       	ret

0000031e <_ZN5Print5printEhi>:
 31e:	ef 92       	push	r14
 320:	ff 92       	push	r15
 322:	0f 93       	push	r16
 324:	1f 93       	push	r17
 326:	9a 01       	movw	r18, r20
 328:	e6 2e       	mov	r14, r22
 32a:	ff 24       	eor	r15, r15
 32c:	00 e0       	ldi	r16, 0x00	; 0
 32e:	10 e0       	ldi	r17, 0x00	; 0
 330:	b8 01       	movw	r22, r16
 332:	a7 01       	movw	r20, r14
 334:	0e 94 00 00 	call	0	; 0x0 <_ZN5Print5writeEPKhj>
 338:	1f 91       	pop	r17
 33a:	0f 91       	pop	r16
 33c:	ff 90       	pop	r15
 33e:	ef 90       	pop	r14
 340:	08 95       	ret

00000342 <_ZN5Print7printlnEhi>:
 342:	cf 92       	push	r12
 344:	df 92       	push	r13
 346:	ef 92       	push	r14
 348:	ff 92       	push	r15
 34a:	0f 93       	push	r16
 34c:	1f 93       	push	r17
 34e:	6c 01       	movw	r12, r24
 350:	e6 2e       	mov	r14, r22
 352:	9a 01       	movw	r18, r20
 354:	ff 24       	eor	r15, r15
 356:	00 e0       	ldi	r16, 0x00	; 0
 358:	10 e0       	ldi	r17, 0x00	; 0
 35a:	b8 01       	movw	r22, r16
 35c:	a7 01       	movw	r20, r14
 35e:	0e 94 00 00 	call	0	; 0x0 <_ZN5Print5writeEPKhj>
 362:	8c 01       	movw	r16, r24
 364:	c6 01       	movw	r24, r12
 366:	0e 94 00 00 	call	0	; 0x0 <_ZN5Print5writeEPKhj>
 36a:	08 0f       	add	r16, r24
 36c:	19 1f       	adc	r17, r25
 36e:	c8 01       	movw	r24, r16
 370:	1f 91       	pop	r17
 372:	0f 91       	pop	r16
 374:	ff 90       	pop	r15
 376:	ef 90       	pop	r14
 378:	df 90       	pop	r13
 37a:	cf 90       	pop	r12
 37c:	08 95       	ret

0000037e <_ZN5Print5printEli>:
 37e:	cf 92       	push	r12
 380:	df 92       	push	r13
 382:	ef 92       	push	r14
 384:	ff 92       	push	r15
 386:	0f 93       	push	r16
 388:	1f 93       	push	r17
 38a:	cf 93       	push	r28
 38c:	df 93       	push	r29
 38e:	ec 01       	movw	r28, r24
 390:	6a 01       	movw	r12, r20
 392:	7b 01       	movw	r14, r22
 394:	21 15       	cp	r18, r1
 396:	31 05       	cpc	r19, r1
 398:	01 f4       	brne	.+0      	; 0x39a <_ZN5Print5printEli+0x1c>
 39a:	e8 81       	ld	r30, Y
 39c:	f9 81       	ldd	r31, Y+1	; 0x01
 39e:	01 90       	ld	r0, Z+
 3a0:	f0 81       	ld	r31, Z
 3a2:	e0 2d       	mov	r30, r0
 3a4:	64 2f       	mov	r22, r20
 3a6:	09 95       	icall
 3a8:	00 c0       	rjmp	.+0      	; 0x3aa <_ZN5Print5printEli+0x2c>
 3aa:	2a 30       	cpi	r18, 0x0A	; 10
 3ac:	31 05       	cpc	r19, r1
 3ae:	01 f4       	brne	.+0      	; 0x3b0 <_ZN5Print5printEli+0x32>
 3b0:	77 ff       	sbrs	r23, 7
 3b2:	00 c0       	rjmp	.+0      	; 0x3b4 <_ZN5Print5printEli+0x36>
 3b4:	e8 81       	ld	r30, Y
 3b6:	f9 81       	ldd	r31, Y+1	; 0x01
 3b8:	01 90       	ld	r0, Z+
 3ba:	f0 81       	ld	r31, Z
 3bc:	e0 2d       	mov	r30, r0
 3be:	6d e2       	ldi	r22, 0x2D	; 45
 3c0:	09 95       	icall
 3c2:	8c 01       	movw	r16, r24
 3c4:	44 27       	eor	r20, r20
 3c6:	55 27       	eor	r21, r21
 3c8:	ba 01       	movw	r22, r20
 3ca:	4c 19       	sub	r20, r12
 3cc:	5d 09       	sbc	r21, r13
 3ce:	6e 09       	sbc	r22, r14
 3d0:	7f 09       	sbc	r23, r15
 3d2:	ce 01       	movw	r24, r28
 3d4:	2a e0       	ldi	r18, 0x0A	; 10
 3d6:	0e 94 00 00 	call	0	; 0x0 <_ZN5Print5writeEPKhj>
 3da:	98 01       	movw	r18, r16
 3dc:	28 0f       	add	r18, r24
 3de:	39 1f       	adc	r19, r25
 3e0:	00 c0       	rjmp	.+0      	; 0x3e2 <_ZN5Print5printEli+0x64>
 3e2:	2a e0       	ldi	r18, 0x0A	; 10
 3e4:	0e 94 00 00 	call	0	; 0x0 <_ZN5Print5writeEPKhj>
 3e8:	9c 01       	movw	r18, r24
 3ea:	c9 01       	movw	r24, r18
 3ec:	df 91       	pop	r29
 3ee:	cf 91       	pop	r28
 3f0:	1f 91       	pop	r17
 3f2:	0f 91       	pop	r16
 3f4:	ff 90       	pop	r15
 3f6:	ef 90       	pop	r14
 3f8:	df 90       	pop	r13
 3fa:	cf 90       	pop	r12
 3fc:	08 95       	ret

000003fe <_ZN5Print7printlnEli>:
 3fe:	ef 92       	push	r14
 400:	ff 92       	push	r15
 402:	0f 93       	push	r16
 404:	1f 93       	push	r17
 406:	7c 01       	movw	r14, r24
 408:	0e 94 00 00 	call	0	; 0x0 <_ZN5Print5writeEPKhj>
 40c:	8c 01       	movw	r16, r24
 40e:	c7 01       	movw	r24, r14
 410:	0e 94 00 00 	call	0	; 0x0 <_ZN5Print5writeEPKhj>
 414:	9c 01       	movw	r18, r24
 416:	20 0f       	add	r18, r16
 418:	31 1f       	adc	r19, r17
 41a:	c9 01       	movw	r24, r18
 41c:	1f 91       	pop	r17
 41e:	0f 91       	pop	r16
 420:	ff 90       	pop	r15
 422:	ef 90       	pop	r14
 424:	08 95       	ret

00000426 <_ZN5Print5printEii>:
 426:	ef 92       	push	r14
 428:	ff 92       	push	r15
 42a:	0f 93       	push	r16
 42c:	1f 93       	push	r17
 42e:	7b 01       	movw	r14, r22
 430:	9a 01       	movw	r18, r20
 432:	00 27       	eor	r16, r16
 434:	f7 fc       	sbrc	r15, 7
 436:	00 95       	com	r16
 438:	10 2f       	mov	r17, r16
 43a:	b8 01       	movw	r22, r16
 43c:	a7 01       	movw	r20, r14
 43e:	0e 94 00 00 	call	0	; 0x0 <_ZN5Print5writeEPKhj>
 442:	1f 91       	pop	r17
 444:	0f 91       	pop	r16
 446:	ff 90       	pop	r15
 448:	ef 90       	pop	r14
 44a:	08 95       	ret

0000044c <_ZN5Print7printlnEii>:
 44c:	cf 92       	push	r12
 44e:	df 92       	push	r13
 450:	ef 92       	push	r14
 452:	ff 92       	push	r15
 454:	0f 93       	push	r16
 456:	1f 93       	push	r17
 458:	6c 01       	movw	r12, r24
 45a:	7b 01       	movw	r14, r22
 45c:	9a 01       	movw	r18, r20
 45e:	00 27       	eor	r16, r16
 460:	f7 fc       	sbrc	r15, 7
 462:	00 95       	com	r16
 464:	10 2f       	mov	r17, r16
 466:	b8 01       	movw	r22, r16
 468:	a7 01       	movw	r20, r14
 46a:	0e 94 00 00 	call	0	; 0x0 <_ZN5Print5writeEPKhj>
 46e:	8c 01       	movw	r16, r24
 470:	c6 01       	movw	r24, r12
 472:	0e 94 00 00 	call	0	; 0x0 <_ZN5Print5writeEPKhj>
 476:	08 0f       	add	r16, r24
 478:	19 1f       	adc	r17, r25
 47a:	c8 01       	movw	r24, r16
 47c:	1f 91       	pop	r17
 47e:	0f 91       	pop	r16
 480:	ff 90       	pop	r15
 482:	ef 90       	pop	r14
 484:	df 90       	pop	r13
 486:	cf 90       	pop	r12
 488:	08 95       	ret

0000048a <_ZN5Print5printEPKc>:
 48a:	0e 94 00 00 	call	0	; 0x0 <_ZN5Print5writeEPKhj>
 48e:	08 95       	ret

00000490 <_ZN5Print10printFloatEdh>:
 490:	7f 92       	push	r7
 492:	8f 92       	push	r8
 494:	9f 92       	push	r9
 496:	af 92       	push	r10
 498:	bf 92       	push	r11
 49a:	cf 92       	push	r12
 49c:	df 92       	push	r13
 49e:	ef 92       	push	r14
 4a0:	ff 92       	push	r15
 4a2:	0f 93       	push	r16
 4a4:	1f 93       	push	r17
 4a6:	cf 93       	push	r28
 4a8:	df 93       	push	r29
 4aa:	4c 01       	movw	r8, r24
 4ac:	7a 01       	movw	r14, r20
 4ae:	8b 01       	movw	r16, r22
 4b0:	72 2e       	mov	r7, r18
 4b2:	cb 01       	movw	r24, r22
 4b4:	ba 01       	movw	r22, r20
 4b6:	20 e0       	ldi	r18, 0x00	; 0
 4b8:	30 e0       	ldi	r19, 0x00	; 0
 4ba:	40 e0       	ldi	r20, 0x00	; 0
 4bc:	50 e0       	ldi	r21, 0x00	; 0
 4be:	0e 94 00 00 	call	0	; 0x0 <_ZN5Print5writeEPKhj>
 4c2:	87 fd       	sbrc	r24, 7
 4c4:	00 c0       	rjmp	.+0      	; 0x4c6 <_ZN5Print10printFloatEdh+0x36>
 4c6:	c0 e0       	ldi	r28, 0x00	; 0
 4c8:	d0 e0       	ldi	r29, 0x00	; 0
 4ca:	00 c0       	rjmp	.+0      	; 0x4cc <_ZN5Print10printFloatEdh+0x3c>
 4cc:	d4 01       	movw	r26, r8
 4ce:	ed 91       	ld	r30, X+
 4d0:	fc 91       	ld	r31, X
 4d2:	01 90       	ld	r0, Z+
 4d4:	f0 81       	ld	r31, Z
 4d6:	e0 2d       	mov	r30, r0
 4d8:	c4 01       	movw	r24, r8
 4da:	6d e2       	ldi	r22, 0x2D	; 45
 4dc:	09 95       	icall
 4de:	ec 01       	movw	r28, r24
 4e0:	17 fb       	bst	r17, 7
 4e2:	10 95       	com	r17
 4e4:	17 f9       	bld	r17, 7
 4e6:	10 95       	com	r17
 4e8:	20 e0       	ldi	r18, 0x00	; 0
 4ea:	30 e0       	ldi	r19, 0x00	; 0
 4ec:	40 e0       	ldi	r20, 0x00	; 0
 4ee:	5f e3       	ldi	r21, 0x3F	; 63
 4f0:	aa 24       	eor	r10, r10
 4f2:	00 c0       	rjmp	.+0      	; 0x4f4 <_ZN5Print10printFloatEdh+0x64>
 4f4:	ca 01       	movw	r24, r20
 4f6:	b9 01       	movw	r22, r18
 4f8:	20 e0       	ldi	r18, 0x00	; 0
 4fa:	30 e0       	ldi	r19, 0x00	; 0
 4fc:	40 e2       	ldi	r20, 0x20	; 32
 4fe:	51 e4       	ldi	r21, 0x41	; 65
 500:	0e 94 00 00 	call	0	; 0x0 <_ZN5Print5writeEPKhj>
 504:	9b 01       	movw	r18, r22
 506:	ac 01       	movw	r20, r24
 508:	a3 94       	inc	r10
 50a:	a7 14       	cp	r10, r7
 50c:	00 f0       	brcs	.+0      	; 0x50e <_ZN5Print10printFloatEdh+0x7e>
 50e:	c8 01       	movw	r24, r16
 510:	b7 01       	movw	r22, r14
 512:	0e 94 00 00 	call	0	; 0x0 <_ZN5Print5writeEPKhj>
 516:	5b 01       	movw	r10, r22
 518:	6c 01       	movw	r12, r24
 51a:	0e 94 00 00 	call	0	; 0x0 <_ZN5Print5writeEPKhj>
 51e:	7b 01       	movw	r14, r22
 520:	8c 01       	movw	r16, r24
 522:	c4 01       	movw	r24, r8
 524:	b8 01       	movw	r22, r16
 526:	a7 01       	movw	r20, r14
 528:	2a e0       	ldi	r18, 0x0A	; 10
 52a:	30 e0       	ldi	r19, 0x00	; 0
 52c:	0e 94 00 00 	call	0	; 0x0 <_ZN5Print5writeEPKhj>
 530:	c8 0f       	add	r28, r24
 532:	d9 1f       	adc	r29, r25
 534:	77 20       	and	r7, r7
 536:	01 f0       	breq	.+0      	; 0x538 <_ZN5Print10printFloatEdh+0xa8>
 538:	c4 01       	movw	r24, r8
 53a:	60 e0       	ldi	r22, 0x00	; 0
 53c:	70 e0       	ldi	r23, 0x00	; 0
 53e:	0e 94 00 00 	call	0	; 0x0 <_ZN5Print5writeEPKhj>
 542:	c8 0f       	add	r28, r24
 544:	d9 1f       	adc	r29, r25
 546:	c8 01       	movw	r24, r16
 548:	b7 01       	movw	r22, r14
 54a:	0e 94 00 00 	call	0	; 0x0 <_ZN5Print5writeEPKhj>
 54e:	9b 01       	movw	r18, r22
 550:	ac 01       	movw	r20, r24
 552:	c6 01       	movw	r24, r12
 554:	b5 01       	movw	r22, r10
 556:	0e 94 00 00 	call	0	; 0x0 <_ZN5Print5writeEPKhj>
 55a:	00 c0       	rjmp	.+0      	; 0x55c <_ZN5Print10printFloatEdh+0xcc>
 55c:	20 e0       	ldi	r18, 0x00	; 0
 55e:	30 e0       	ldi	r19, 0x00	; 0
 560:	40 e2       	ldi	r20, 0x20	; 32
 562:	51 e4       	ldi	r21, 0x41	; 65
 564:	0e 94 00 00 	call	0	; 0x0 <_ZN5Print5writeEPKhj>
 568:	7b 01       	movw	r14, r22
 56a:	8c 01       	movw	r16, r24
 56c:	0e 94 00 00 	call	0	; 0x0 <_ZN5Print5writeEPKhj>
 570:	5b 01       	movw	r10, r22
 572:	6c 01       	movw	r12, r24
 574:	cc 24       	eor	r12, r12
 576:	b7 fc       	sbrc	r11, 7
 578:	c0 94       	com	r12
 57a:	dc 2c       	mov	r13, r12
 57c:	c4 01       	movw	r24, r8
 57e:	b6 01       	movw	r22, r12
 580:	a5 01       	movw	r20, r10
 582:	2a e0       	ldi	r18, 0x0A	; 10
 584:	30 e0       	ldi	r19, 0x00	; 0
 586:	0e 94 00 00 	call	0	; 0x0 <_ZN5Print5writeEPKhj>
 58a:	c8 0f       	add	r28, r24
 58c:	d9 1f       	adc	r29, r25
 58e:	c6 01       	movw	r24, r12
 590:	b5 01       	movw	r22, r10
 592:	0e 94 00 00 	call	0	; 0x0 <_ZN5Print5writeEPKhj>
 596:	9b 01       	movw	r18, r22
 598:	ac 01       	movw	r20, r24
 59a:	c8 01       	movw	r24, r16
 59c:	b7 01       	movw	r22, r14
 59e:	0e 94 00 00 	call	0	; 0x0 <_ZN5Print5writeEPKhj>
 5a2:	7a 94       	dec	r7
 5a4:	77 20       	and	r7, r7
 5a6:	01 f4       	brne	.+0      	; 0x5a8 <_ZN5Print10printFloatEdh+0x118>
 5a8:	ce 01       	movw	r24, r28
 5aa:	df 91       	pop	r29
 5ac:	cf 91       	pop	r28
 5ae:	1f 91       	pop	r17
 5b0:	0f 91       	pop	r16
 5b2:	ff 90       	pop	r15
 5b4:	ef 90       	pop	r14
 5b6:	df 90       	pop	r13
 5b8:	cf 90       	pop	r12
 5ba:	bf 90       	pop	r11
 5bc:	af 90       	pop	r10
 5be:	9f 90       	pop	r9
 5c0:	8f 90       	pop	r8
 5c2:	7f 90       	pop	r7
 5c4:	08 95       	ret

000005c6 <_ZN5Print5printEdi>:
 5c6:	0e 94 00 00 	call	0	; 0x0 <_ZN5Print5writeEPKhj>
 5ca:	08 95       	ret

000005cc <_ZN5Print7printlnEdi>:
 5cc:	ef 92       	push	r14
 5ce:	ff 92       	push	r15
 5d0:	0f 93       	push	r16
 5d2:	1f 93       	push	r17
 5d4:	7c 01       	movw	r14, r24
 5d6:	0e 94 00 00 	call	0	; 0x0 <_ZN5Print5writeEPKhj>
 5da:	8c 01       	movw	r16, r24
 5dc:	c7 01       	movw	r24, r14
 5de:	0e 94 00 00 	call	0	; 0x0 <_ZN5Print5writeEPKhj>
 5e2:	08 0f       	add	r16, r24
 5e4:	19 1f       	adc	r17, r25
 5e6:	c8 01       	movw	r24, r16
 5e8:	1f 91       	pop	r17
 5ea:	0f 91       	pop	r16
 5ec:	ff 90       	pop	r15
 5ee:	ef 90       	pop	r14
 5f0:	08 95       	ret

000005f2 <_ZN5Print7printlnEPKc>:
 5f2:	ef 92       	push	r14
 5f4:	ff 92       	push	r15
 5f6:	0f 93       	push	r16
 5f8:	1f 93       	push	r17
 5fa:	7c 01       	movw	r14, r24
 5fc:	0e 94 00 00 	call	0	; 0x0 <_ZN5Print5writeEPKhj>
 600:	8c 01       	movw	r16, r24
 602:	c7 01       	movw	r24, r14
 604:	0e 94 00 00 	call	0	; 0x0 <_ZN5Print5writeEPKhj>
 608:	08 0f       	add	r16, r24
 60a:	19 1f       	adc	r17, r25
 60c:	c8 01       	movw	r24, r16
 60e:	1f 91       	pop	r17
 610:	0f 91       	pop	r16
 612:	ff 90       	pop	r15
 614:	ef 90       	pop	r14
 616:	08 95       	ret

00000618 <_ZN5Print5printERK6String>:
 618:	af 92       	push	r10
 61a:	bf 92       	push	r11
 61c:	cf 92       	push	r12
 61e:	df 92       	push	r13
 620:	ef 92       	push	r14
 622:	ff 92       	push	r15
 624:	0f 93       	push	r16
 626:	1f 93       	push	r17
 628:	cf 93       	push	r28
 62a:	df 93       	push	r29
 62c:	5c 01       	movw	r10, r24
 62e:	6b 01       	movw	r12, r22
 630:	ee 24       	eor	r14, r14
 632:	ff 24       	eor	r15, r15
 634:	c0 e0       	ldi	r28, 0x00	; 0
 636:	d0 e0       	ldi	r29, 0x00	; 0
 638:	00 c0       	rjmp	.+0      	; 0x63a <_ZN5Print5printERK6String+0x22>
 63a:	d5 01       	movw	r26, r10
 63c:	ed 91       	ld	r30, X+
 63e:	fc 91       	ld	r31, X
 640:	00 81       	ld	r16, Z
 642:	11 81       	ldd	r17, Z+1	; 0x01
 644:	c6 01       	movw	r24, r12
 646:	be 01       	movw	r22, r28
 648:	0e 94 00 00 	call	0	; 0x0 <_ZN5Print5writeEPKhj>
 64c:	68 2f       	mov	r22, r24
 64e:	c5 01       	movw	r24, r10
 650:	f8 01       	movw	r30, r16
 652:	09 95       	icall
 654:	e8 0e       	add	r14, r24
 656:	f9 1e       	adc	r15, r25
 658:	21 96       	adiw	r28, 0x01	; 1
 65a:	f6 01       	movw	r30, r12
 65c:	84 81       	ldd	r24, Z+4	; 0x04
 65e:	95 81       	ldd	r25, Z+5	; 0x05
 660:	c8 17       	cp	r28, r24
 662:	d9 07       	cpc	r29, r25
 664:	00 f0       	brcs	.+0      	; 0x666 <_ZN5Print5printERK6String+0x4e>
 666:	c7 01       	movw	r24, r14
 668:	df 91       	pop	r29
 66a:	cf 91       	pop	r28
 66c:	1f 91       	pop	r17
 66e:	0f 91       	pop	r16
 670:	ff 90       	pop	r15
 672:	ef 90       	pop	r14
 674:	df 90       	pop	r13
 676:	cf 90       	pop	r12
 678:	bf 90       	pop	r11
 67a:	af 90       	pop	r10
 67c:	08 95       	ret

0000067e <_ZN5Print7printlnERK6String>:
 67e:	ef 92       	push	r14
 680:	ff 92       	push	r15
 682:	0f 93       	push	r16
 684:	1f 93       	push	r17
 686:	7c 01       	movw	r14, r24
 688:	0e 94 00 00 	call	0	; 0x0 <_ZN5Print5writeEPKhj>
 68c:	8c 01       	movw	r16, r24
 68e:	c7 01       	movw	r24, r14
 690:	0e 94 00 00 	call	0	; 0x0 <_ZN5Print5writeEPKhj>
 694:	9c 01       	movw	r18, r24
 696:	20 0f       	add	r18, r16
 698:	31 1f       	adc	r19, r17
 69a:	c9 01       	movw	r24, r18
 69c:	1f 91       	pop	r17
 69e:	0f 91       	pop	r16
 6a0:	ff 90       	pop	r15
 6a2:	ef 90       	pop	r14
 6a4:	08 95       	ret

Stream.o:     file format elf32-avr

Sections:
Idx Name          Size      VMA       LMA       File off  Algn
  0 .text         00000554  00000000  00000000  00000034  2**0
                  CONTENTS, ALLOC, LOAD, RELOC, READONLY, CODE
  1 .data         00000001  00000000  00000000  00000588  2**0
                  CONTENTS, ALLOC, LOAD, DATA
  2 .bss          00000000  00000000  00000000  00000589  2**0
                  ALLOC

Disassembly of section .text:

00000000 <_ZN6Stream10setTimeoutEm>:
   0:	fc 01       	movw	r30, r24
   2:	44 83       	std	Z+4, r20	; 0x04
   4:	55 83       	std	Z+5, r21	; 0x05
   6:	66 83       	std	Z+6, r22	; 0x06
   8:	77 83       	std	Z+7, r23	; 0x07
   a:	08 95       	ret

0000000c <_ZN6Stream9timedPeekEv>:
   c:	cf 93       	push	r28
   e:	df 93       	push	r29
  10:	ec 01       	movw	r28, r24
  12:	0e 94 00 00 	call	0	; 0x0 <_ZN6Stream10setTimeoutEm>
  16:	68 87       	std	Y+8, r22	; 0x08
  18:	79 87       	std	Y+9, r23	; 0x09
  1a:	8a 87       	std	Y+10, r24	; 0x0a
  1c:	9b 87       	std	Y+11, r25	; 0x0b
  1e:	e8 81       	ld	r30, Y
  20:	f9 81       	ldd	r31, Y+1	; 0x01
  22:	00 84       	ldd	r0, Z+8	; 0x08
  24:	f1 85       	ldd	r31, Z+9	; 0x09
  26:	e0 2d       	mov	r30, r0
  28:	ce 01       	movw	r24, r28
  2a:	09 95       	icall
  2c:	9c 01       	movw	r18, r24
  2e:	97 ff       	sbrs	r25, 7
  30:	00 c0       	rjmp	.+0      	; 0x32 <_ZN6Stream9timedPeekEv+0x26>
  32:	0e 94 00 00 	call	0	; 0x0 <_ZN6Stream10setTimeoutEm>
  36:	28 85       	ldd	r18, Y+8	; 0x08
  38:	39 85       	ldd	r19, Y+9	; 0x09
  3a:	4a 85       	ldd	r20, Y+10	; 0x0a
  3c:	5b 85       	ldd	r21, Y+11	; 0x0b
  3e:	62 1b       	sub	r22, r18
  40:	73 0b       	sbc	r23, r19
  42:	84 0b       	sbc	r24, r20
  44:	95 0b       	sbc	r25, r21
  46:	2c 81       	ldd	r18, Y+4	; 0x04
  48:	3d 81       	ldd	r19, Y+5	; 0x05
  4a:	4e 81       	ldd	r20, Y+6	; 0x06
  4c:	5f 81       	ldd	r21, Y+7	; 0x07
  4e:	62 17       	cp	r22, r18
  50:	73 07       	cpc	r23, r19
  52:	84 07       	cpc	r24, r20
  54:	95 07       	cpc	r25, r21
  56:	00 f0       	brcs	.+0      	; 0x58 <_ZN6Stream9timedPeekEv+0x4c>
  58:	2f ef       	ldi	r18, 0xFF	; 255
  5a:	3f ef       	ldi	r19, 0xFF	; 255
  5c:	c9 01       	movw	r24, r18
  5e:	df 91       	pop	r29
  60:	cf 91       	pop	r28
  62:	08 95       	ret

00000064 <_ZN6Stream13peekNextDigitEv>:
  64:	cf 93       	push	r28
  66:	df 93       	push	r29
  68:	ec 01       	movw	r28, r24
  6a:	ce 01       	movw	r24, r28
  6c:	0e 94 00 00 	call	0	; 0x0 <_ZN6Stream10setTimeoutEm>
  70:	9c 01       	movw	r18, r24
  72:	97 fd       	sbrc	r25, 7
  74:	00 c0       	rjmp	.+0      	; 0x76 <_ZN6Stream13peekNextDigitEv+0x12>
  76:	8d 32       	cpi	r24, 0x2D	; 45
  78:	91 05       	cpc	r25, r1
  7a:	01 f0       	breq	.+0      	; 0x7c <_ZN6Stream13peekNextDigitEv+0x18>
  7c:	c0 97       	sbiw	r24, 0x30	; 48
  7e:	0a 97       	sbiw	r24, 0x0a	; 10
  80:	00 f0       	brcs	.+0      	; 0x82 <_ZN6Stream13peekNextDigitEv+0x1e>
  82:	e8 81       	ld	r30, Y
  84:	f9 81       	ldd	r31, Y+1	; 0x01
  86:	06 80       	ldd	r0, Z+6	; 0x06
  88:	f7 81       	ldd	r31, Z+7	; 0x07
  8a:	e0 2d       	mov	r30, r0
  8c:	ce 01       	movw	r24, r28
  8e:	09 95       	icall
  90:	00 c0       	rjmp	.+0      	; 0x92 <_ZN6Stream13peekNextDigitEv+0x2e>
  92:	c9 01       	movw	r24, r18
  94:	df 91       	pop	r29
  96:	cf 91       	pop	r28
  98:	08 95       	ret

0000009a <_ZN6Stream10parseFloatEc>:
  9a:	6f 92       	push	r6
  9c:	7f 92       	push	r7
  9e:	8f 92       	push	r8
  a0:	9f 92       	push	r9
  a2:	af 92       	push	r10
  a4:	bf 92       	push	r11
  a6:	cf 92       	push	r12
  a8:	df 92       	push	r13
  aa:	ef 92       	push	r14
  ac:	ff 92       	push	r15
  ae:	0f 93       	push	r16
  b0:	1f 93       	push	r17
  b2:	cf 93       	push	r28
  b4:	df 93       	push	r29
  b6:	ec 01       	movw	r28, r24
  b8:	66 2e       	mov	r6, r22
  ba:	0e 94 00 00 	call	0	; 0x0 <_ZN6Stream10setTimeoutEm>
  be:	98 2e       	mov	r9, r24
  c0:	77 24       	eor	r7, r7
  c2:	88 24       	eor	r8, r8
  c4:	ee 24       	eor	r14, r14
  c6:	ff 24       	eor	r15, r15
  c8:	87 01       	movw	r16, r14
  ca:	0f 2e       	mov	r0, r31
  cc:	f0 e0       	ldi	r31, 0x00	; 0
  ce:	af 2e       	mov	r10, r31
  d0:	f0 e0       	ldi	r31, 0x00	; 0
  d2:	bf 2e       	mov	r11, r31
  d4:	f0 e8       	ldi	r31, 0x80	; 128
  d6:	cf 2e       	mov	r12, r31
  d8:	ff e3       	ldi	r31, 0x3F	; 63
  da:	df 2e       	mov	r13, r31
  dc:	f0 2d       	mov	r31, r0
  de:	96 14       	cp	r9, r6
  e0:	01 f0       	breq	.+0      	; 0xe2 <_ZN6Stream10parseFloatEc+0x48>
  e2:	8d e2       	ldi	r24, 0x2D	; 45
  e4:	98 16       	cp	r9, r24
  e6:	01 f4       	brne	.+0      	; 0xe8 <_ZN6Stream10parseFloatEc+0x4e>
  e8:	77 24       	eor	r7, r7
  ea:	73 94       	inc	r7
  ec:	00 c0       	rjmp	.+0      	; 0xee <_ZN6Stream10parseFloatEc+0x54>
  ee:	9e e2       	ldi	r25, 0x2E	; 46
  f0:	99 16       	cp	r9, r25
  f2:	01 f4       	brne	.+0      	; 0xf4 <_ZN6Stream10parseFloatEc+0x5a>
  f4:	88 24       	eor	r8, r8
  f6:	83 94       	inc	r8
  f8:	00 c0       	rjmp	.+0      	; 0xfa <_ZN6Stream10parseFloatEc+0x60>
  fa:	89 2d       	mov	r24, r9
  fc:	80 53       	subi	r24, 0x30	; 48
  fe:	8a 30       	cpi	r24, 0x0A	; 10
 100:	00 f4       	brcc	.+0      	; 0x102 <_ZN6Stream10parseFloatEc+0x68>
 102:	c8 01       	movw	r24, r16
 104:	b7 01       	movw	r22, r14
 106:	2a e0       	ldi	r18, 0x0A	; 10
 108:	30 e0       	ldi	r19, 0x00	; 0
 10a:	40 e0       	ldi	r20, 0x00	; 0
 10c:	50 e0       	ldi	r21, 0x00	; 0
 10e:	0e 94 00 00 	call	0	; 0x0 <_ZN6Stream10setTimeoutEm>
 112:	7b 01       	movw	r14, r22
 114:	8c 01       	movw	r16, r24
 116:	e9 0c       	add	r14, r9
 118:	f1 1c       	adc	r15, r1
 11a:	01 1d       	adc	r16, r1
 11c:	11 1d       	adc	r17, r1
 11e:	80 ed       	ldi	r24, 0xD0	; 208
 120:	9f ef       	ldi	r25, 0xFF	; 255
 122:	af ef       	ldi	r26, 0xFF	; 255
 124:	bf ef       	ldi	r27, 0xFF	; 255
 126:	e8 0e       	add	r14, r24
 128:	f9 1e       	adc	r15, r25
 12a:	0a 1f       	adc	r16, r26
 12c:	1b 1f       	adc	r17, r27
 12e:	88 20       	and	r8, r8
 130:	01 f0       	breq	.+0      	; 0x132 <_ZN6Stream10parseFloatEc+0x98>
 132:	c6 01       	movw	r24, r12
 134:	b5 01       	movw	r22, r10
 136:	2d ec       	ldi	r18, 0xCD	; 205
 138:	3c ec       	ldi	r19, 0xCC	; 204
 13a:	4c ec       	ldi	r20, 0xCC	; 204
 13c:	5d e3       	ldi	r21, 0x3D	; 61
 13e:	0e 94 00 00 	call	0	; 0x0 <_ZN6Stream10setTimeoutEm>
 142:	5b 01       	movw	r10, r22
 144:	6c 01       	movw	r12, r24
 146:	e8 81       	ld	r30, Y
 148:	f9 81       	ldd	r31, Y+1	; 0x01
 14a:	06 80       	ldd	r0, Z+6	; 0x06
 14c:	f7 81       	ldd	r31, Z+7	; 0x07
 14e:	e0 2d       	mov	r30, r0
 150:	ce 01       	movw	r24, r28
 152:	09 95       	icall
 154:	ce 01       	movw	r24, r28
 156:	0e 94 00 00 	call	0	; 0x0 <_ZN6Stream10setTimeoutEm>
 15a:	98 2f       	mov	r25, r24
 15c:	98 2e       	mov	r9, r24
 15e:	80 53       	subi	r24, 0x30	; 48
 160:	8a 30       	cpi	r24, 0x0A	; 10
 162:	00 f4       	brcc	.+0      	; 0x164 <_ZN6Stream10parseFloatEc+0xca>
 164:	00 c0       	rjmp	.+0      	; 0x166 <_ZN6Stream10parseFloatEc+0xcc>
 166:	9e 32       	cpi	r25, 0x2E	; 46
 168:	01 f4       	brne	.+0      	; 0x16a <_ZN6Stream10parseFloatEc+0xd0>
 16a:	00 c0       	rjmp	.+0      	; 0x16c <_ZN6Stream10parseFloatEc+0xd2>
 16c:	96 15       	cp	r25, r6
 16e:	01 f4       	brne	.+0      	; 0x170 <_ZN6Stream10parseFloatEc+0xd6>
 170:	00 c0       	rjmp	.+0      	; 0x172 <_ZN6Stream10parseFloatEc+0xd8>
 172:	77 20       	and	r7, r7
 174:	01 f0       	breq	.+0      	; 0x176 <_ZN6Stream10parseFloatEc+0xdc>
 176:	10 95       	com	r17
 178:	00 95       	com	r16
 17a:	f0 94       	com	r15
 17c:	e0 94       	com	r14
 17e:	e1 1c       	adc	r14, r1
 180:	f1 1c       	adc	r15, r1
 182:	01 1d       	adc	r16, r1
 184:	11 1d       	adc	r17, r1
 186:	88 20       	and	r8, r8
 188:	01 f0       	breq	.+0      	; 0x18a <_ZN6Stream10parseFloatEc+0xf0>
 18a:	c8 01       	movw	r24, r16
 18c:	b7 01       	movw	r22, r14
 18e:	0e 94 00 00 	call	0	; 0x0 <_ZN6Stream10setTimeoutEm>
 192:	a6 01       	movw	r20, r12
 194:	95 01       	movw	r18, r10
 196:	0e 94 00 00 	call	0	; 0x0 <_ZN6Stream10setTimeoutEm>
 19a:	00 c0       	rjmp	.+0      	; 0x19c <_ZN6Stream10parseFloatEc+0x102>
 19c:	c8 01       	movw	r24, r16
 19e:	b7 01       	movw	r22, r14
 1a0:	0e 94 00 00 	call	0	; 0x0 <_ZN6Stream10setTimeoutEm>
 1a4:	df 91       	pop	r29
 1a6:	cf 91       	pop	r28
 1a8:	1f 91       	pop	r17
 1aa:	0f 91       	pop	r16
 1ac:	ff 90       	pop	r15
 1ae:	ef 90       	pop	r14
 1b0:	df 90       	pop	r13
 1b2:	cf 90       	pop	r12
 1b4:	bf 90       	pop	r11
 1b6:	af 90       	pop	r10
 1b8:	9f 90       	pop	r9
 1ba:	8f 90       	pop	r8
 1bc:	7f 90       	pop	r7
 1be:	6f 90       	pop	r6
 1c0:	08 95       	ret

000001c2 <_ZN6Stream10parseFloatEv>:
 1c2:	61 e0       	ldi	r22, 0x01	; 1
 1c4:	0e 94 00 00 	call	0	; 0x0 <_ZN6Stream10setTimeoutEm>
 1c8:	08 95       	ret

000001ca <_ZN6Stream8parseIntEc>:
 1ca:	9f 92       	push	r9
 1cc:	af 92       	push	r10
 1ce:	bf 92       	push	r11
 1d0:	cf 92       	push	r12
 1d2:	df 92       	push	r13
 1d4:	ef 92       	push	r14
 1d6:	ff 92       	push	r15
 1d8:	0f 93       	push	r16
 1da:	1f 93       	push	r17
 1dc:	cf 93       	push	r28
 1de:	df 93       	push	r29
 1e0:	6c 01       	movw	r12, r24
 1e2:	b6 2e       	mov	r11, r22
 1e4:	0e 94 00 00 	call	0	; 0x0 <_ZN6Stream10setTimeoutEm>
 1e8:	ec 01       	movw	r28, r24
 1ea:	97 ff       	sbrs	r25, 7
 1ec:	00 c0       	rjmp	.+0      	; 0x1ee <_ZN6Stream8parseIntEc+0x24>
 1ee:	ee 24       	eor	r14, r14
 1f0:	ff 24       	eor	r15, r15
 1f2:	87 01       	movw	r16, r14
 1f4:	00 c0       	rjmp	.+0      	; 0x1f6 <_ZN6Stream8parseIntEc+0x2c>
 1f6:	99 24       	eor	r9, r9
 1f8:	ee 24       	eor	r14, r14
 1fa:	ff 24       	eor	r15, r15
 1fc:	87 01       	movw	r16, r14
 1fe:	ab 2c       	mov	r10, r11
 200:	bb 24       	eor	r11, r11
 202:	ca 15       	cp	r28, r10
 204:	db 05       	cpc	r29, r11
 206:	01 f0       	breq	.+0      	; 0x208 <_ZN6Stream8parseIntEc+0x3e>
 208:	cd 32       	cpi	r28, 0x2D	; 45
 20a:	d1 05       	cpc	r29, r1
 20c:	01 f4       	brne	.+0      	; 0x20e <_ZN6Stream8parseIntEc+0x44>
 20e:	99 24       	eor	r9, r9
 210:	93 94       	inc	r9
 212:	00 c0       	rjmp	.+0      	; 0x214 <_ZN6Stream8parseIntEc+0x4a>
 214:	ce 01       	movw	r24, r28
 216:	c0 97       	sbiw	r24, 0x30	; 48
 218:	0a 97       	sbiw	r24, 0x0a	; 10
 21a:	00 f4       	brcc	.+0      	; 0x21c <_ZN6Stream8parseIntEc+0x52>
 21c:	c8 01       	movw	r24, r16
 21e:	b7 01       	movw	r22, r14
 220:	2a e0       	ldi	r18, 0x0A	; 10
 222:	30 e0       	ldi	r19, 0x00	; 0
 224:	40 e0       	ldi	r20, 0x00	; 0
 226:	50 e0       	ldi	r21, 0x00	; 0
 228:	0e 94 00 00 	call	0	; 0x0 <_ZN6Stream10setTimeoutEm>
 22c:	7b 01       	movw	r14, r22
 22e:	8c 01       	movw	r16, r24
 230:	ce 01       	movw	r24, r28
 232:	aa 27       	eor	r26, r26
 234:	97 fd       	sbrc	r25, 7
 236:	a0 95       	com	r26
 238:	ba 2f       	mov	r27, r26
 23a:	e8 0e       	add	r14, r24
 23c:	f9 1e       	adc	r15, r25
 23e:	0a 1f       	adc	r16, r26
 240:	1b 1f       	adc	r17, r27
 242:	80 ed       	ldi	r24, 0xD0	; 208
 244:	9f ef       	ldi	r25, 0xFF	; 255
 246:	af ef       	ldi	r26, 0xFF	; 255
 248:	bf ef       	ldi	r27, 0xFF	; 255
 24a:	e8 0e       	add	r14, r24
 24c:	f9 1e       	adc	r15, r25
 24e:	0a 1f       	adc	r16, r26
 250:	1b 1f       	adc	r17, r27
 252:	d6 01       	movw	r26, r12
 254:	ed 91       	ld	r30, X+
 256:	fc 91       	ld	r31, X
 258:	06 80       	ldd	r0, Z+6	; 0x06
 25a:	f7 81       	ldd	r31, Z+7	; 0x07
 25c:	e0 2d       	mov	r30, r0
 25e:	c6 01       	movw	r24, r12
 260:	09 95       	icall
 262:	c6 01       	movw	r24, r12
 264:	0e 94 00 00 	call	0	; 0x0 <_ZN6Stream10setTimeoutEm>
 268:	ec 01       	movw	r28, r24
 26a:	c0 97       	sbiw	r24, 0x30	; 48
 26c:	0a 97       	sbiw	r24, 0x0a	; 10
 26e:	00 f0       	brcs	.+0      	; 0x270 <_ZN6Stream8parseIntEc+0xa6>
 270:	ca 15       	cp	r28, r10
 272:	db 05       	cpc	r29, r11
 274:	01 f0       	breq	.+0      	; 0x276 <_ZN6Stream8parseIntEc+0xac>
 276:	99 20       	and	r9, r9
 278:	01 f0       	breq	.+0      	; 0x27a <_ZN6Stream8parseIntEc+0xb0>
 27a:	10 95       	com	r17
 27c:	00 95       	com	r16
 27e:	f0 94       	com	r15
 280:	e0 94       	com	r14
 282:	e1 1c       	adc	r14, r1
 284:	f1 1c       	adc	r15, r1
 286:	01 1d       	adc	r16, r1
 288:	11 1d       	adc	r17, r1
 28a:	b7 01       	movw	r22, r14
 28c:	c8 01       	movw	r24, r16
 28e:	df 91       	pop	r29
 290:	cf 91       	pop	r28
 292:	1f 91       	pop	r17
 294:	0f 91       	pop	r16
 296:	ff 90       	pop	r15
 298:	ef 90       	pop	r14
 29a:	df 90       	pop	r13
 29c:	cf 90       	pop	r12
 29e:	bf 90       	pop	r11
 2a0:	af 90       	pop	r10
 2a2:	9f 90       	pop	r9
 2a4:	08 95       	ret

000002a6 <_ZN6Stream8parseIntEv>:
 2a6:	61 e0       	ldi	r22, 0x01	; 1
 2a8:	0e 94 00 00 	call	0	; 0x0 <_ZN6Stream10setTimeoutEm>
 2ac:	08 95       	ret

000002ae <_ZN6Stream9timedReadEv>:
 2ae:	cf 93       	push	r28
 2b0:	df 93       	push	r29
 2b2:	ec 01       	movw	r28, r24
 2b4:	0e 94 00 00 	call	0	; 0x0 <_ZN6Stream10setTimeoutEm>
 2b8:	68 87       	std	Y+8, r22	; 0x08
 2ba:	79 87       	std	Y+9, r23	; 0x09
 2bc:	8a 87       	std	Y+10, r24	; 0x0a
 2be:	9b 87       	std	Y+11, r25	; 0x0b
 2c0:	e8 81       	ld	r30, Y
 2c2:	f9 81       	ldd	r31, Y+1	; 0x01
 2c4:	06 80       	ldd	r0, Z+6	; 0x06
 2c6:	f7 81       	ldd	r31, Z+7	; 0x07
 2c8:	e0 2d       	mov	r30, r0
 2ca:	ce 01       	movw	r24, r28
 2cc:	09 95       	icall
 2ce:	9c 01       	movw	r18, r24
 2d0:	97 ff       	sbrs	r25, 7
 2d2:	00 c0       	rjmp	.+0      	; 0x2d4 <_ZN6Stream9timedReadEv+0x26>
 2d4:	0e 94 00 00 	call	0	; 0x0 <_ZN6Stream10setTimeoutEm>
 2d8:	28 85       	ldd	r18, Y+8	; 0x08
 2da:	39 85       	ldd	r19, Y+9	; 0x09
 2dc:	4a 85       	ldd	r20, Y+10	; 0x0a
 2de:	5b 85       	ldd	r21, Y+11	; 0x0b
 2e0:	62 1b       	sub	r22, r18
 2e2:	73 0b       	sbc	r23, r19
 2e4:	84 0b       	sbc	r24, r20
 2e6:	95 0b       	sbc	r25, r21
 2e8:	2c 81       	ldd	r18, Y+4	; 0x04
 2ea:	3d 81       	ldd	r19, Y+5	; 0x05
 2ec:	4e 81       	ldd	r20, Y+6	; 0x06
 2ee:	5f 81       	ldd	r21, Y+7	; 0x07
 2f0:	62 17       	cp	r22, r18
 2f2:	73 07       	cpc	r23, r19
 2f4:	84 07       	cpc	r24, r20
 2f6:	95 07       	cpc	r25, r21
 2f8:	00 f0       	brcs	.+0      	; 0x2fa <_ZN6Stream9timedReadEv+0x4c>
 2fa:	2f ef       	ldi	r18, 0xFF	; 255
 2fc:	3f ef       	ldi	r19, 0xFF	; 255
 2fe:	c9 01       	movw	r24, r18
 300:	df 91       	pop	r29
 302:	cf 91       	pop	r28
 304:	08 95       	ret

00000306 <_ZN6Stream15readStringUntilEc>:
 306:	cf 92       	push	r12
 308:	df 92       	push	r13
 30a:	ff 92       	push	r15
 30c:	0f 93       	push	r16
 30e:	1f 93       	push	r17
 310:	cf 93       	push	r28
 312:	df 93       	push	r29
 314:	08 2f       	mov	r16, r24
 316:	f9 2e       	mov	r15, r25
 318:	6b 01       	movw	r12, r22
 31a:	14 2f       	mov	r17, r20
 31c:	60 e0       	ldi	r22, 0x00	; 0
 31e:	70 e0       	ldi	r23, 0x00	; 0
 320:	0e 94 00 00 	call	0	; 0x0 <_ZN6Stream10setTimeoutEm>
 324:	c6 01       	movw	r24, r12
 326:	0e 94 00 00 	call	0	; 0x0 <_ZN6Stream10setTimeoutEm>
 32a:	bc 01       	movw	r22, r24
 32c:	c1 2f       	mov	r28, r17
 32e:	d0 e0       	ldi	r29, 0x00	; 0
 330:	00 c0       	rjmp	.+0      	; 0x332 <_ZN6Stream15readStringUntilEc+0x2c>
 332:	80 2f       	mov	r24, r16
 334:	9f 2d       	mov	r25, r15
 336:	0e 94 00 00 	call	0	; 0x0 <_ZN6Stream10setTimeoutEm>
 33a:	c6 01       	movw	r24, r12
 33c:	0e 94 00 00 	call	0	; 0x0 <_ZN6Stream10setTimeoutEm>
 340:	bc 01       	movw	r22, r24
 342:	77 fd       	sbrc	r23, 7
 344:	00 c0       	rjmp	.+0      	; 0x346 <_ZN6Stream15readStringUntilEc+0x40>
 346:	6c 17       	cp	r22, r28
 348:	7d 07       	cpc	r23, r29
 34a:	01 f4       	brne	.+0      	; 0x34c <_ZN6Stream15readStringUntilEc+0x46>
 34c:	80 2f       	mov	r24, r16
 34e:	9f 2d       	mov	r25, r15
 350:	df 91       	pop	r29
 352:	cf 91       	pop	r28
 354:	1f 91       	pop	r17
 356:	0f 91       	pop	r16
 358:	ff 90       	pop	r15
 35a:	df 90       	pop	r13
 35c:	cf 90       	pop	r12
 35e:	08 95       	ret

00000360 <_ZN6Stream10readStringEv>:
 360:	0f 93       	push	r16
 362:	1f 93       	push	r17
 364:	cf 93       	push	r28
 366:	df 93       	push	r29
 368:	18 2f       	mov	r17, r24
 36a:	09 2f       	mov	r16, r25
 36c:	eb 01       	movw	r28, r22
 36e:	60 e0       	ldi	r22, 0x00	; 0
 370:	70 e0       	ldi	r23, 0x00	; 0
 372:	0e 94 00 00 	call	0	; 0x0 <_ZN6Stream10setTimeoutEm>
 376:	00 c0       	rjmp	.+0      	; 0x378 <_ZN6Stream10readStringEv+0x18>
 378:	81 2f       	mov	r24, r17
 37a:	90 2f       	mov	r25, r16
 37c:	0e 94 00 00 	call	0	; 0x0 <_ZN6Stream10setTimeoutEm>
 380:	ce 01       	movw	r24, r28
 382:	0e 94 00 00 	call	0	; 0x0 <_ZN6Stream10setTimeoutEm>
 386:	bc 01       	movw	r22, r24
 388:	97 ff       	sbrs	r25, 7
 38a:	00 c0       	rjmp	.+0      	; 0x38c <_ZN6Stream10readStringEv+0x2c>
 38c:	81 2f       	mov	r24, r17
 38e:	90 2f       	mov	r25, r16
 390:	df 91       	pop	r29
 392:	cf 91       	pop	r28
 394:	1f 91       	pop	r17
 396:	0f 91       	pop	r16
 398:	08 95       	ret

0000039a <_ZN6Stream14readBytesUntilEcPcj>:
 39a:	af 92       	push	r10
 39c:	bf 92       	push	r11
 39e:	cf 92       	push	r12
 3a0:	df 92       	push	r13
 3a2:	ef 92       	push	r14
 3a4:	ff 92       	push	r15
 3a6:	0f 93       	push	r16
 3a8:	1f 93       	push	r17
 3aa:	cf 93       	push	r28
 3ac:	df 93       	push	r29
 3ae:	5c 01       	movw	r10, r24
 3b0:	7a 01       	movw	r14, r20
 3b2:	89 01       	movw	r16, r18
 3b4:	21 15       	cp	r18, r1
 3b6:	31 05       	cpc	r19, r1
 3b8:	01 f4       	brne	.+0      	; 0x3ba <_ZN6Stream14readBytesUntilEcPcj+0x20>
 3ba:	c0 e0       	ldi	r28, 0x00	; 0
 3bc:	d0 e0       	ldi	r29, 0x00	; 0
 3be:	00 c0       	rjmp	.+0      	; 0x3c0 <_ZN6Stream14readBytesUntilEcPcj+0x26>
 3c0:	c0 e0       	ldi	r28, 0x00	; 0
 3c2:	d0 e0       	ldi	r29, 0x00	; 0
 3c4:	c6 2e       	mov	r12, r22
 3c6:	dd 24       	eor	r13, r13
 3c8:	00 c0       	rjmp	.+0      	; 0x3ca <_ZN6Stream14readBytesUntilEcPcj+0x30>
 3ca:	c5 01       	movw	r24, r10
 3cc:	0e 94 00 00 	call	0	; 0x0 <_ZN6Stream10setTimeoutEm>
 3d0:	97 fd       	sbrc	r25, 7
 3d2:	00 c0       	rjmp	.+0      	; 0x3d4 <_ZN6Stream14readBytesUntilEcPcj+0x3a>
 3d4:	8c 15       	cp	r24, r12
 3d6:	9d 05       	cpc	r25, r13
 3d8:	01 f0       	breq	.+0      	; 0x3da <_ZN6Stream14readBytesUntilEcPcj+0x40>
 3da:	f7 01       	movw	r30, r14
 3dc:	81 93       	st	Z+, r24
 3de:	7f 01       	movw	r14, r30
 3e0:	21 96       	adiw	r28, 0x01	; 1
 3e2:	c0 17       	cp	r28, r16
 3e4:	d1 07       	cpc	r29, r17
 3e6:	00 f0       	brcs	.+0      	; 0x3e8 <_ZN6Stream14readBytesUntilEcPcj+0x4e>
 3e8:	ce 01       	movw	r24, r28
 3ea:	df 91       	pop	r29
 3ec:	cf 91       	pop	r28
 3ee:	1f 91       	pop	r17
 3f0:	0f 91       	pop	r16
 3f2:	ff 90       	pop	r15
 3f4:	ef 90       	pop	r14
 3f6:	df 90       	pop	r13
 3f8:	cf 90       	pop	r12
 3fa:	bf 90       	pop	r11
 3fc:	af 90       	pop	r10
 3fe:	08 95       	ret

00000400 <_ZN6Stream9readBytesEPcj>:
 400:	cf 92       	push	r12
 402:	df 92       	push	r13
 404:	ef 92       	push	r14
 406:	ff 92       	push	r15
 408:	0f 93       	push	r16
 40a:	1f 93       	push	r17
 40c:	cf 93       	push	r28
 40e:	df 93       	push	r29
 410:	6c 01       	movw	r12, r24
 412:	8b 01       	movw	r16, r22
 414:	7a 01       	movw	r14, r20
 416:	c0 e0       	ldi	r28, 0x00	; 0
 418:	d0 e0       	ldi	r29, 0x00	; 0
 41a:	00 c0       	rjmp	.+0      	; 0x41c <_ZN6Stream9readBytesEPcj+0x1c>
 41c:	c6 01       	movw	r24, r12
 41e:	0e 94 00 00 	call	0	; 0x0 <_ZN6Stream10setTimeoutEm>
 422:	97 fd       	sbrc	r25, 7
 424:	00 c0       	rjmp	.+0      	; 0x426 <_ZN6Stream9readBytesEPcj+0x26>
 426:	f8 01       	movw	r30, r16
 428:	81 93       	st	Z+, r24
 42a:	8f 01       	movw	r16, r30
 42c:	21 96       	adiw	r28, 0x01	; 1
 42e:	ce 15       	cp	r28, r14
 430:	df 05       	cpc	r29, r15
 432:	00 f0       	brcs	.+0      	; 0x434 <_ZN6Stream9readBytesEPcj+0x34>
 434:	ce 01       	movw	r24, r28
 436:	df 91       	pop	r29
 438:	cf 91       	pop	r28
 43a:	1f 91       	pop	r17
 43c:	0f 91       	pop	r16
 43e:	ff 90       	pop	r15
 440:	ef 90       	pop	r14
 442:	df 90       	pop	r13
 444:	cf 90       	pop	r12
 446:	08 95       	ret

00000448 <_ZN6Stream9findUntilEPcjS0_j>:
 448:	6f 92       	push	r6
 44a:	7f 92       	push	r7
 44c:	8f 92       	push	r8
 44e:	9f 92       	push	r9
 450:	af 92       	push	r10
 452:	bf 92       	push	r11
 454:	cf 92       	push	r12
 456:	df 92       	push	r13
 458:	ef 92       	push	r14
 45a:	ff 92       	push	r15
 45c:	0f 93       	push	r16
 45e:	1f 93       	push	r17
 460:	cf 93       	push	r28
 462:	df 93       	push	r29
 464:	3c 01       	movw	r6, r24
 466:	7b 01       	movw	r14, r22
 468:	4a 01       	movw	r8, r20
 46a:	59 01       	movw	r10, r18
 46c:	68 01       	movw	r12, r16
 46e:	fb 01       	movw	r30, r22
 470:	80 81       	ld	r24, Z
 472:	88 23       	and	r24, r24
 474:	01 f0       	breq	.+0      	; 0x476 <_ZN6Stream9findUntilEPcjS0_j+0x2e>
 476:	c0 e0       	ldi	r28, 0x00	; 0
 478:	d0 e0       	ldi	r29, 0x00	; 0
 47a:	00 c0       	rjmp	.+0      	; 0x47c <_ZN6Stream9findUntilEPcjS0_j+0x34>
 47c:	f7 01       	movw	r30, r14
 47e:	ec 0f       	add	r30, r28
 480:	fd 1f       	adc	r31, r29
 482:	80 81       	ld	r24, Z
 484:	90 e0       	ldi	r25, 0x00	; 0
 486:	28 17       	cp	r18, r24
 488:	39 07       	cpc	r19, r25
 48a:	01 f0       	breq	.+0      	; 0x48c <_ZN6Stream9findUntilEPcjS0_j+0x44>
 48c:	c0 e0       	ldi	r28, 0x00	; 0
 48e:	d0 e0       	ldi	r29, 0x00	; 0
 490:	f7 01       	movw	r30, r14
 492:	ec 0f       	add	r30, r28
 494:	fd 1f       	adc	r31, r29
 496:	80 81       	ld	r24, Z
 498:	90 e0       	ldi	r25, 0x00	; 0
 49a:	28 17       	cp	r18, r24
 49c:	39 07       	cpc	r19, r25
 49e:	01 f4       	brne	.+0      	; 0x4a0 <_ZN6Stream9findUntilEPcjS0_j+0x58>
 4a0:	21 96       	adiw	r28, 0x01	; 1
 4a2:	c8 15       	cp	r28, r8
 4a4:	d9 05       	cpc	r29, r9
 4a6:	00 f4       	brcc	.+0      	; 0x4a8 <_ZN6Stream9findUntilEPcjS0_j+0x60>
 4a8:	c1 14       	cp	r12, r1
 4aa:	d1 04       	cpc	r13, r1
 4ac:	01 f0       	breq	.+0      	; 0x4ae <_ZN6Stream9findUntilEPcjS0_j+0x66>
 4ae:	f5 01       	movw	r30, r10
 4b0:	e0 0f       	add	r30, r16
 4b2:	f1 1f       	adc	r31, r17
 4b4:	80 81       	ld	r24, Z
 4b6:	90 e0       	ldi	r25, 0x00	; 0
 4b8:	28 17       	cp	r18, r24
 4ba:	39 07       	cpc	r19, r25
 4bc:	01 f4       	brne	.+0      	; 0x4be <_ZN6Stream9findUntilEPcjS0_j+0x76>
 4be:	0f 5f       	subi	r16, 0xFF	; 255
 4c0:	1f 4f       	sbci	r17, 0xFF	; 255
 4c2:	0c 15       	cp	r16, r12
 4c4:	1d 05       	cpc	r17, r13
 4c6:	00 f0       	brcs	.+0      	; 0x4c8 <_ZN6Stream9findUntilEPcjS0_j+0x80>
 4c8:	00 c0       	rjmp	.+0      	; 0x4ca <_ZN6Stream9findUntilEPcjS0_j+0x82>
 4ca:	00 e0       	ldi	r16, 0x00	; 0
 4cc:	10 e0       	ldi	r17, 0x00	; 0
 4ce:	c3 01       	movw	r24, r6
 4d0:	0e 94 00 00 	call	0	; 0x0 <_ZN6Stream10setTimeoutEm>
 4d4:	9c 01       	movw	r18, r24
 4d6:	18 16       	cp	r1, r24
 4d8:	19 06       	cpc	r1, r25
 4da:	04 f0       	brlt	.+0      	; 0x4dc <_ZN6Stream9findUntilEPcjS0_j+0x94>
 4dc:	00 c0       	rjmp	.+0      	; 0x4de <_ZN6Stream9findUntilEPcjS0_j+0x96>
 4de:	81 e0       	ldi	r24, 0x01	; 1
 4e0:	00 c0       	rjmp	.+0      	; 0x4e2 <_ZN6Stream9findUntilEPcjS0_j+0x9a>
 4e2:	80 e0       	ldi	r24, 0x00	; 0
 4e4:	df 91       	pop	r29
 4e6:	cf 91       	pop	r28
 4e8:	1f 91       	pop	r17
 4ea:	0f 91       	pop	r16
 4ec:	ff 90       	pop	r15
 4ee:	ef 90       	pop	r14
 4f0:	df 90       	pop	r13
 4f2:	cf 90       	pop	r12
 4f4:	bf 90       	pop	r11
 4f6:	af 90       	pop	r10
 4f8:	9f 90       	pop	r9
 4fa:	8f 90       	pop	r8
 4fc:	7f 90       	pop	r7
 4fe:	6f 90       	pop	r6
 500:	08 95       	ret

00000502 <_ZN6Stream9findUntilEPcS0_>:
 502:	0f 93       	push	r16
 504:	1f 93       	push	r17
 506:	9a 01       	movw	r18, r20
 508:	db 01       	movw	r26, r22
 50a:	0d 90       	ld	r0, X+
 50c:	00 20       	and	r0, r0
 50e:	01 f4       	brne	.+0      	; 0x510 <_ZN6Stream9findUntilEPcS0_+0xe>
 510:	ad 01       	movw	r20, r26
 512:	41 50       	subi	r20, 0x01	; 1
 514:	50 40       	sbci	r21, 0x00	; 0
 516:	46 1b       	sub	r20, r22
 518:	57 0b       	sbc	r21, r23
 51a:	d9 01       	movw	r26, r18
 51c:	0d 90       	ld	r0, X+
 51e:	00 20       	and	r0, r0
 520:	01 f4       	brne	.+0      	; 0x522 <_ZN6Stream9findUntilEPcS0_+0x20>
 522:	11 97       	sbiw	r26, 0x01	; 1
 524:	a2 1b       	sub	r26, r18
 526:	b3 0b       	sbc	r27, r19
 528:	8d 01       	movw	r16, r26
 52a:	0e 94 00 00 	call	0	; 0x0 <_ZN6Stream10setTimeoutEm>
 52e:	1f 91       	pop	r17
 530:	0f 91       	pop	r16
 532:	08 95       	ret

00000534 <_ZN6Stream4findEPc>:
 534:	40 e0       	ldi	r20, 0x00	; 0
 536:	50 e0       	ldi	r21, 0x00	; 0
 538:	0e 94 00 00 	call	0	; 0x0 <_ZN6Stream10setTimeoutEm>
 53c:	08 95       	ret

0000053e <_ZN6Stream4findEPcj>:
 53e:	0f 93       	push	r16
 540:	1f 93       	push	r17
 542:	20 e0       	ldi	r18, 0x00	; 0
 544:	30 e0       	ldi	r19, 0x00	; 0
 546:	00 e0       	ldi	r16, 0x00	; 0
 548:	10 e0       	ldi	r17, 0x00	; 0
 54a:	0e 94 00 00 	call	0	; 0x0 <_ZN6Stream10setTimeoutEm>
 54e:	1f 91       	pop	r17
 550:	0f 91       	pop	r16
 552:	08 95       	ret

Tone.o:     file format elf32-avr

Sections:
Idx Name          Size      VMA       LMA       File off  Algn
  0 .text         000003cc  00000000  00000000  00000034  2**0
                  CONTENTS, ALLOC, LOAD, RELOC, READONLY, CODE
  1 .data         00000001  00000000  00000000  00000400  2**0
                  CONTENTS, ALLOC, LOAD, DATA
  2 .bss          00000015  00000000  00000000  00000401  2**0
                  ALLOC
  3 .progmem.data 00000001  00000000  00000000  00000401  2**0
                  CONTENTS, ALLOC, LOAD, READONLY, DATA

Disassembly of section .text:

00000000 <_Z12disableTimerh>:
   0:	88 23       	and	r24, r24
   2:	01 f4       	brne	.+0      	; 0x4 <_Z12disableTimerh+0x4>
   4:	19 be       	out	0x39, r1	; 57
   6:	08 95       	ret

00000008 <_Z6noToneh>:
   8:	98 2f       	mov	r25, r24
   a:	80 91 00 00 	lds	r24, 0x0000
   e:	89 17       	cp	r24, r25
  10:	01 f4       	brne	.+0      	; 0x12 <_Z6noToneh+0xa>
  12:	e0 e0       	ldi	r30, 0x00	; 0
  14:	f0 e0       	ldi	r31, 0x00	; 0
  16:	e4 91       	lpm	r30, Z+
  18:	8f ef       	ldi	r24, 0xFF	; 255
  1a:	80 93 00 00 	sts	0x0000, r24
  1e:	ee 23       	and	r30, r30
  20:	01 f4       	brne	.+0      	; 0x22 <_Z6noToneh+0x1a>
  22:	19 be       	out	0x39, r1	; 57
  24:	89 2f       	mov	r24, r25
  26:	60 e0       	ldi	r22, 0x00	; 0
  28:	0e 94 00 00 	call	0	; 0x0 <_Z12disableTimerh>
  2c:	08 95       	ret

0000002e <TIMER2_COMPA_vect>:
  2e:	1f 92       	push	r1
  30:	0f 92       	push	r0
  32:	0f b6       	in	r0, 0x3f	; 63
  34:	0f 92       	push	r0
  36:	11 24       	eor	r1, r1
  38:	2f 93       	push	r18
  3a:	3f 93       	push	r19
  3c:	4f 93       	push	r20
  3e:	5f 93       	push	r21
  40:	6f 93       	push	r22
  42:	7f 93       	push	r23
  44:	8f 93       	push	r24
  46:	9f 93       	push	r25
  48:	af 93       	push	r26
  4a:	bf 93       	push	r27
  4c:	ef 93       	push	r30
  4e:	ff 93       	push	r31
  50:	80 91 00 00 	lds	r24, 0x0000
  54:	90 91 00 00 	lds	r25, 0x0000
  58:	a0 91 00 00 	lds	r26, 0x0000
  5c:	b0 91 00 00 	lds	r27, 0x0000
  60:	00 97       	sbiw	r24, 0x00	; 0
  62:	a1 05       	cpc	r26, r1
  64:	b1 05       	cpc	r27, r1
  66:	01 f0       	breq	.+0      	; 0x68 <TIMER2_COMPA_vect+0x3a>
  68:	e0 91 00 00 	lds	r30, 0x0000
  6c:	f0 91 00 00 	lds	r31, 0x0000
  70:	80 81       	ld	r24, Z
  72:	90 91 00 00 	lds	r25, 0x0000
  76:	89 27       	eor	r24, r25
  78:	80 83       	st	Z, r24
  7a:	80 91 00 00 	lds	r24, 0x0000
  7e:	90 91 00 00 	lds	r25, 0x0000
  82:	a0 91 00 00 	lds	r26, 0x0000
  86:	b0 91 00 00 	lds	r27, 0x0000
  8a:	18 16       	cp	r1, r24
  8c:	19 06       	cpc	r1, r25
  8e:	1a 06       	cpc	r1, r26
  90:	1b 06       	cpc	r1, r27
  92:	04 f4       	brge	.+0      	; 0x94 <TIMER2_COMPA_vect+0x66>
  94:	80 91 00 00 	lds	r24, 0x0000
  98:	90 91 00 00 	lds	r25, 0x0000
  9c:	a0 91 00 00 	lds	r26, 0x0000
  a0:	b0 91 00 00 	lds	r27, 0x0000
  a4:	01 97       	sbiw	r24, 0x01	; 1
  a6:	a1 09       	sbc	r26, r1
  a8:	b1 09       	sbc	r27, r1
  aa:	80 93 00 00 	sts	0x0000, r24
  ae:	90 93 00 00 	sts	0x0000, r25
  b2:	a0 93 00 00 	sts	0x0000, r26
  b6:	b0 93 00 00 	sts	0x0000, r27
  ba:	00 c0       	rjmp	.+0      	; 0xbc <TIMER2_COMPA_vect+0x8e>
  bc:	80 91 00 00 	lds	r24, 0x0000
  c0:	0e 94 00 00 	call	0	; 0x0 <_Z12disableTimerh>
  c4:	ff 91       	pop	r31
  c6:	ef 91       	pop	r30
  c8:	bf 91       	pop	r27
  ca:	af 91       	pop	r26
  cc:	9f 91       	pop	r25
  ce:	8f 91       	pop	r24
  d0:	7f 91       	pop	r23
  d2:	6f 91       	pop	r22
  d4:	5f 91       	pop	r21
  d6:	4f 91       	pop	r20
  d8:	3f 91       	pop	r19
  da:	2f 91       	pop	r18
  dc:	0f 90       	pop	r0
  de:	0f be       	out	0x3f, r0	; 63
  e0:	0f 90       	pop	r0
  e2:	1f 90       	pop	r1
  e4:	18 95       	reti

000000e6 <_Z4tonehjm>:
  e6:	2f 92       	push	r2
  e8:	3f 92       	push	r3
  ea:	5f 92       	push	r5
  ec:	6f 92       	push	r6
  ee:	7f 92       	push	r7
  f0:	8f 92       	push	r8
  f2:	9f 92       	push	r9
  f4:	af 92       	push	r10
  f6:	bf 92       	push	r11
  f8:	cf 92       	push	r12
  fa:	df 92       	push	r13
  fc:	ef 92       	push	r14
  fe:	ff 92       	push	r15
 100:	0f 93       	push	r16
 102:	1f 93       	push	r17
 104:	df 93       	push	r29
 106:	cf 93       	push	r28
 108:	00 d0       	rcall	.+0      	; 0x10a <_Z4tonehjm+0x24>
 10a:	00 d0       	rcall	.+0      	; 0x10c <_Z4tonehjm+0x26>
 10c:	cd b7       	in	r28, 0x3d	; 61
 10e:	de b7       	in	r29, 0x3e	; 62
 110:	a8 2f       	mov	r26, r24
 112:	1b 01       	movw	r2, r22
 114:	29 83       	std	Y+1, r18	; 0x01
 116:	3a 83       	std	Y+2, r19	; 0x02
 118:	4b 83       	std	Y+3, r20	; 0x03
 11a:	5c 83       	std	Y+4, r21	; 0x04
 11c:	80 91 00 00 	lds	r24, 0x0000
 120:	8a 17       	cp	r24, r26
 122:	01 f4       	brne	.+0      	; 0x124 <_Z4tonehjm+0x3e>
 124:	e0 e0       	ldi	r30, 0x00	; 0
 126:	f0 e0       	ldi	r31, 0x00	; 0
 128:	54 90       	lpm	r5, Z+
 12a:	00 c0       	rjmp	.+0      	; 0x12c <_Z4tonehjm+0x46>
 12c:	8f 3f       	cpi	r24, 0xFF	; 255
 12e:	01 f0       	breq	.+0      	; 0x130 <_Z4tonehjm+0x4a>
 130:	00 c0       	rjmp	.+0      	; 0x132 <_Z4tonehjm+0x4c>
 132:	a0 93 00 00 	sts	0x0000, r26
 136:	e0 e0       	ldi	r30, 0x00	; 0
 138:	f0 e0       	ldi	r31, 0x00	; 0
 13a:	54 90       	lpm	r5, Z+
 13c:	2f ef       	ldi	r18, 0xFF	; 255
 13e:	52 16       	cp	r5, r18
 140:	01 f4       	brne	.+0      	; 0x142 <_Z4tonehjm+0x5c>
 142:	00 c0       	rjmp	.+0      	; 0x144 <_Z4tonehjm+0x5e>
 144:	81 e0       	ldi	r24, 0x01	; 1
 146:	58 16       	cp	r5, r24
 148:	01 f4       	brne	.+0      	; 0x14a <_Z4tonehjm+0x64>
 14a:	1f bc       	out	0x2f, r1	; 47
 14c:	1e bc       	out	0x2e, r1	; 46
 14e:	8e b5       	in	r24, 0x2e	; 46
 150:	88 60       	ori	r24, 0x08	; 8
 152:	8e bd       	out	0x2e, r24	; 46
 154:	8e b5       	in	r24, 0x2e	; 46
 156:	81 60       	ori	r24, 0x01	; 1
 158:	8e bd       	out	0x2e, r24	; 46
 15a:	2a 2f       	mov	r18, r26
 15c:	30 e0       	ldi	r19, 0x00	; 0
 15e:	f9 01       	movw	r30, r18
 160:	e0 50       	subi	r30, 0x00	; 0
 162:	f0 40       	sbci	r31, 0x00	; 0
 164:	e4 91       	lpm	r30, Z+
 166:	f0 e0       	ldi	r31, 0x00	; 0
 168:	ee 0f       	add	r30, r30
 16a:	ff 1f       	adc	r31, r31
 16c:	e0 50       	subi	r30, 0x00	; 0
 16e:	f0 40       	sbci	r31, 0x00	; 0
 170:	85 91       	lpm	r24, Z+
 172:	94 91       	lpm	r25, Z+
 174:	90 93 00 00 	sts	0x0000, r25
 178:	80 93 00 00 	sts	0x0000, r24
 17c:	20 50       	subi	r18, 0x00	; 0
 17e:	30 40       	sbci	r19, 0x00	; 0
 180:	f9 01       	movw	r30, r18
 182:	84 91       	lpm	r24, Z+
 184:	80 93 00 00 	sts	0x0000, r24
 188:	00 c0       	rjmp	.+0      	; 0x18a <_Z4tonehjm+0xa4>
 18a:	57 fc       	sbrc	r5, 7
 18c:	00 c0       	rjmp	.+0      	; 0x18e <_Z4tonehjm+0xa8>
 18e:	8a 2f       	mov	r24, r26
 190:	61 e0       	ldi	r22, 0x01	; 1
 192:	0e 94 00 00 	call	0	; 0x0 <_Z12disableTimerh>
 196:	55 20       	and	r5, r5
 198:	01 f0       	breq	.+0      	; 0x19a <_Z4tonehjm+0xb4>
 19a:	f2 e0       	ldi	r31, 0x02	; 2
 19c:	5f 16       	cp	r5, r31
 19e:	01 f0       	breq	.+0      	; 0x1a0 <_Z4tonehjm+0xba>
 1a0:	00 c0       	rjmp	.+0      	; 0x1a2 <_Z4tonehjm+0xbc>
 1a2:	31 01       	movw	r6, r2
 1a4:	88 24       	eor	r8, r8
 1a6:	99 24       	eor	r9, r9
 1a8:	60 e2       	ldi	r22, 0x20	; 32
 1aa:	71 ea       	ldi	r23, 0xA1	; 161
 1ac:	87 e0       	ldi	r24, 0x07	; 7
 1ae:	90 e0       	ldi	r25, 0x00	; 0
 1b0:	a4 01       	movw	r20, r8
 1b2:	93 01       	movw	r18, r6
 1b4:	0e 94 00 00 	call	0	; 0x0 <_Z12disableTimerh>
 1b8:	59 01       	movw	r10, r18
 1ba:	6a 01       	movw	r12, r20
 1bc:	86 01       	movw	r16, r12
 1be:	75 01       	movw	r14, r10
 1c0:	08 94       	sec
 1c2:	e1 08       	sbc	r14, r1
 1c4:	f1 08       	sbc	r15, r1
 1c6:	01 09       	sbc	r16, r1
 1c8:	11 09       	sbc	r17, r1
 1ca:	2f ef       	ldi	r18, 0xFF	; 255
 1cc:	e2 16       	cp	r14, r18
 1ce:	f1 04       	cpc	r15, r1
 1d0:	01 05       	cpc	r16, r1
 1d2:	11 05       	cpc	r17, r1
 1d4:	01 f0       	breq	.+0      	; 0x1d6 <_Z4tonehjm+0xf0>
 1d6:	00 f4       	brcc	.+0      	; 0x1d8 <_Z4tonehjm+0xf2>
 1d8:	00 c0       	rjmp	.+0      	; 0x1da <_Z4tonehjm+0xf4>
 1da:	64 e2       	ldi	r22, 0x24	; 36
 1dc:	74 ef       	ldi	r23, 0xF4	; 244
 1de:	80 e0       	ldi	r24, 0x00	; 0
 1e0:	90 e0       	ldi	r25, 0x00	; 0
 1e2:	a4 01       	movw	r20, r8
 1e4:	93 01       	movw	r18, r6
 1e6:	0e 94 00 00 	call	0	; 0x0 <_Z12disableTimerh>
 1ea:	79 01       	movw	r14, r18
 1ec:	8a 01       	movw	r16, r20
 1ee:	08 94       	sec
 1f0:	e1 08       	sbc	r14, r1
 1f2:	f1 08       	sbc	r15, r1
 1f4:	01 09       	sbc	r16, r1
 1f6:	11 09       	sbc	r17, r1
 1f8:	82 e0       	ldi	r24, 0x02	; 2
 1fa:	58 16       	cp	r5, r24
 1fc:	01 f4       	brne	.+0      	; 0x1fe <_Z4tonehjm+0x118>
 1fe:	9f ef       	ldi	r25, 0xFF	; 255
 200:	e9 16       	cp	r14, r25
 202:	f1 04       	cpc	r15, r1
 204:	01 05       	cpc	r16, r1
 206:	11 05       	cpc	r17, r1
 208:	01 f0       	breq	.+0      	; 0x20a <_Z4tonehjm+0x124>
 20a:	00 f4       	brcc	.+0      	; 0x20c <_Z4tonehjm+0x126>
 20c:	00 c0       	rjmp	.+0      	; 0x20e <_Z4tonehjm+0x128>
 20e:	69 e0       	ldi	r22, 0x09	; 9
 210:	7d e3       	ldi	r23, 0x3D	; 61
 212:	80 e0       	ldi	r24, 0x00	; 0
 214:	90 e0       	ldi	r25, 0x00	; 0
 216:	a4 01       	movw	r20, r8
 218:	93 01       	movw	r18, r6
 21a:	0e 94 00 00 	call	0	; 0x0 <_Z12disableTimerh>
 21e:	79 01       	movw	r14, r18
 220:	8a 01       	movw	r16, r20
 222:	08 94       	sec
 224:	e1 08       	sbc	r14, r1
 226:	f1 08       	sbc	r15, r1
 228:	01 09       	sbc	r16, r1
 22a:	11 09       	sbc	r17, r1
 22c:	af ef       	ldi	r26, 0xFF	; 255
 22e:	ea 16       	cp	r14, r26
 230:	f1 04       	cpc	r15, r1
 232:	01 05       	cpc	r16, r1
 234:	11 05       	cpc	r17, r1
 236:	01 f0       	breq	.+0      	; 0x238 <_Z4tonehjm+0x152>
 238:	00 f4       	brcc	.+0      	; 0x23a <_Z4tonehjm+0x154>
 23a:	00 c0       	rjmp	.+0      	; 0x23c <_Z4tonehjm+0x156>
 23c:	86 01       	movw	r16, r12
 23e:	75 01       	movw	r14, r10
 240:	56 e0       	ldi	r21, 0x06	; 6
 242:	16 95       	lsr	r17
 244:	07 95       	ror	r16
 246:	f7 94       	ror	r15
 248:	e7 94       	ror	r14
 24a:	5a 95       	dec	r21
 24c:	01 f4       	brne	.+0      	; 0x24e <_Z4tonehjm+0x168>
 24e:	08 94       	sec
 250:	e1 08       	sbc	r14, r1
 252:	f1 08       	sbc	r15, r1
 254:	01 09       	sbc	r16, r1
 256:	11 09       	sbc	r17, r1
 258:	b2 e0       	ldi	r27, 0x02	; 2
 25a:	5b 16       	cp	r5, r27
 25c:	01 f4       	brne	.+0      	; 0x25e <_Z4tonehjm+0x178>
 25e:	ef ef       	ldi	r30, 0xFF	; 255
 260:	ee 16       	cp	r14, r30
 262:	f1 04       	cpc	r15, r1
 264:	01 05       	cpc	r16, r1
 266:	11 05       	cpc	r17, r1
 268:	01 f0       	breq	.+0      	; 0x26a <_Z4tonehjm+0x184>
 26a:	00 f4       	brcc	.+0      	; 0x26c <_Z4tonehjm+0x186>
 26c:	00 c0       	rjmp	.+0      	; 0x26e <_Z4tonehjm+0x188>
 26e:	86 01       	movw	r16, r12
 270:	75 01       	movw	r14, r10
 272:	47 e0       	ldi	r20, 0x07	; 7
 274:	16 95       	lsr	r17
 276:	07 95       	ror	r16
 278:	f7 94       	ror	r15
 27a:	e7 94       	ror	r14
 27c:	4a 95       	dec	r20
 27e:	01 f4       	brne	.+0      	; 0x280 <_Z4tonehjm+0x19a>
 280:	08 94       	sec
 282:	e1 08       	sbc	r14, r1
 284:	f1 08       	sbc	r15, r1
 286:	01 09       	sbc	r16, r1
 288:	11 09       	sbc	r17, r1
 28a:	ff ef       	ldi	r31, 0xFF	; 255
 28c:	ef 16       	cp	r14, r31
 28e:	f1 04       	cpc	r15, r1
 290:	01 05       	cpc	r16, r1
 292:	11 05       	cpc	r17, r1
 294:	01 f0       	breq	.+0      	; 0x296 <_Z4tonehjm+0x1b0>
 296:	00 f4       	brcc	.+0      	; 0x298 <_Z4tonehjm+0x1b2>
 298:	00 c0       	rjmp	.+0      	; 0x29a <_Z4tonehjm+0x1b4>
 29a:	11 27       	eor	r17, r17
 29c:	0d 2d       	mov	r16, r13
 29e:	fc 2c       	mov	r15, r12
 2a0:	eb 2c       	mov	r14, r11
 2a2:	08 94       	sec
 2a4:	e1 08       	sbc	r14, r1
 2a6:	f1 08       	sbc	r15, r1
 2a8:	01 09       	sbc	r16, r1
 2aa:	11 09       	sbc	r17, r1
 2ac:	2f ef       	ldi	r18, 0xFF	; 255
 2ae:	e2 16       	cp	r14, r18
 2b0:	f1 04       	cpc	r15, r1
 2b2:	01 05       	cpc	r16, r1
 2b4:	11 05       	cpc	r17, r1
 2b6:	01 f0       	breq	.+0      	; 0x2b8 <_Z4tonehjm+0x1d2>
 2b8:	00 f4       	brcc	.+0      	; 0x2ba <_Z4tonehjm+0x1d4>
 2ba:	00 c0       	rjmp	.+0      	; 0x2bc <_Z4tonehjm+0x1d6>
 2bc:	86 01       	movw	r16, r12
 2be:	75 01       	movw	r14, r10
 2c0:	2a e0       	ldi	r18, 0x0A	; 10
 2c2:	16 95       	lsr	r17
 2c4:	07 95       	ror	r16
 2c6:	f7 94       	ror	r15
 2c8:	e7 94       	ror	r14
 2ca:	2a 95       	dec	r18
 2cc:	01 f4       	brne	.+0      	; 0x2ce <_Z4tonehjm+0x1e8>
 2ce:	08 94       	sec
 2d0:	e1 08       	sbc	r14, r1
 2d2:	f1 08       	sbc	r15, r1
 2d4:	01 09       	sbc	r16, r1
 2d6:	11 09       	sbc	r17, r1
 2d8:	00 c0       	rjmp	.+0      	; 0x2da <_Z4tonehjm+0x1f4>
 2da:	91 01       	movw	r18, r2
 2dc:	40 e0       	ldi	r20, 0x00	; 0
 2de:	50 e0       	ldi	r21, 0x00	; 0
 2e0:	60 e2       	ldi	r22, 0x20	; 32
 2e2:	71 ea       	ldi	r23, 0xA1	; 161
 2e4:	87 e0       	ldi	r24, 0x07	; 7
 2e6:	90 e0       	ldi	r25, 0x00	; 0
 2e8:	0e 94 00 00 	call	0	; 0x0 <_Z12disableTimerh>
 2ec:	c9 01       	movw	r24, r18
 2ee:	da 01       	movw	r26, r20
 2f0:	7c 01       	movw	r14, r24
 2f2:	8d 01       	movw	r16, r26
 2f4:	08 94       	sec
 2f6:	e1 08       	sbc	r14, r1
 2f8:	f1 08       	sbc	r15, r1
 2fa:	01 09       	sbc	r16, r1
 2fc:	11 09       	sbc	r17, r1
 2fe:	e0 e0       	ldi	r30, 0x00	; 0
 300:	ee 16       	cp	r14, r30
 302:	e0 e0       	ldi	r30, 0x00	; 0
 304:	fe 06       	cpc	r15, r30
 306:	e1 e0       	ldi	r30, 0x01	; 1
 308:	0e 07       	cpc	r16, r30
 30a:	e0 e0       	ldi	r30, 0x00	; 0
 30c:	1e 07       	cpc	r17, r30
 30e:	00 f4       	brcc	.+0      	; 0x310 <_Z4tonehjm+0x22a>
 310:	91 e0       	ldi	r25, 0x01	; 1
 312:	00 c0       	rjmp	.+0      	; 0x314 <_Z4tonehjm+0x22e>
 314:	7c 01       	movw	r14, r24
 316:	8d 01       	movw	r16, r26
 318:	96 e0       	ldi	r25, 0x06	; 6
 31a:	16 95       	lsr	r17
 31c:	07 95       	ror	r16
 31e:	f7 94       	ror	r15
 320:	e7 94       	ror	r14
 322:	9a 95       	dec	r25
 324:	01 f4       	brne	.+0      	; 0x326 <_Z4tonehjm+0x240>
 326:	08 94       	sec
 328:	e1 08       	sbc	r14, r1
 32a:	f1 08       	sbc	r15, r1
 32c:	01 09       	sbc	r16, r1
 32e:	11 09       	sbc	r17, r1
 330:	93 e0       	ldi	r25, 0x03	; 3
 332:	f1 e0       	ldi	r31, 0x01	; 1
 334:	5f 16       	cp	r5, r31
 336:	01 f4       	brne	.+0      	; 0x338 <_Z4tonehjm+0x252>
 338:	8e b5       	in	r24, 0x2e	; 46
 33a:	88 7f       	andi	r24, 0xF8	; 248
 33c:	98 2b       	or	r25, r24
 33e:	9e bd       	out	0x2e, r25	; 46
 340:	89 81       	ldd	r24, Y+1	; 0x01
 342:	9a 81       	ldd	r25, Y+2	; 0x02
 344:	ab 81       	ldd	r26, Y+3	; 0x03
 346:	bc 81       	ldd	r27, Y+4	; 0x04
 348:	00 97       	sbiw	r24, 0x00	; 0
 34a:	a1 05       	cpc	r26, r1
 34c:	b1 05       	cpc	r27, r1
 34e:	01 f4       	brne	.+0      	; 0x350 <_Z4tonehjm+0x26a>
 350:	8f ef       	ldi	r24, 0xFF	; 255
 352:	9f ef       	ldi	r25, 0xFF	; 255
 354:	af ef       	ldi	r26, 0xFF	; 255
 356:	bf ef       	ldi	r27, 0xFF	; 255
 358:	00 c0       	rjmp	.+0      	; 0x35a <_Z4tonehjm+0x274>
 35a:	22 0c       	add	r2, r2
 35c:	33 1c       	adc	r3, r3
 35e:	b1 01       	movw	r22, r2
 360:	80 e0       	ldi	r24, 0x00	; 0
 362:	90 e0       	ldi	r25, 0x00	; 0
 364:	29 81       	ldd	r18, Y+1	; 0x01
 366:	3a 81       	ldd	r19, Y+2	; 0x02
 368:	4b 81       	ldd	r20, Y+3	; 0x03
 36a:	5c 81       	ldd	r21, Y+4	; 0x04
 36c:	0e 94 00 00 	call	0	; 0x0 <_Z12disableTimerh>
 370:	28 ee       	ldi	r18, 0xE8	; 232
 372:	33 e0       	ldi	r19, 0x03	; 3
 374:	40 e0       	ldi	r20, 0x00	; 0
 376:	50 e0       	ldi	r21, 0x00	; 0
 378:	0e 94 00 00 	call	0	; 0x0 <_Z12disableTimerh>
 37c:	c9 01       	movw	r24, r18
 37e:	da 01       	movw	r26, r20
 380:	e1 e0       	ldi	r30, 0x01	; 1
 382:	5e 16       	cp	r5, r30
 384:	01 f4       	brne	.+0      	; 0x386 <_Z4tonehjm+0x2a0>
 386:	fb bc       	out	0x2b, r15	; 43
 388:	ea bc       	out	0x2a, r14	; 42
 38a:	80 93 00 00 	sts	0x0000, r24
 38e:	90 93 00 00 	sts	0x0000, r25
 392:	a0 93 00 00 	sts	0x0000, r26
 396:	b0 93 00 00 	sts	0x0000, r27
 39a:	89 b7       	in	r24, 0x39	; 57
 39c:	80 61       	ori	r24, 0x10	; 16
 39e:	89 bf       	out	0x39, r24	; 57
 3a0:	0f 90       	pop	r0
 3a2:	0f 90       	pop	r0
 3a4:	0f 90       	pop	r0
 3a6:	0f 90       	pop	r0
 3a8:	cf 91       	pop	r28
 3aa:	df 91       	pop	r29
 3ac:	1f 91       	pop	r17
 3ae:	0f 91       	pop	r16
 3b0:	ff 90       	pop	r15
 3b2:	ef 90       	pop	r14
 3b4:	df 90       	pop	r13
 3b6:	cf 90       	pop	r12
 3b8:	bf 90       	pop	r11
 3ba:	af 90       	pop	r10
 3bc:	9f 90       	pop	r9
 3be:	8f 90       	pop	r8
 3c0:	7f 90       	pop	r7
 3c2:	6f 90       	pop	r6
 3c4:	5f 90       	pop	r5
 3c6:	3f 90       	pop	r3
 3c8:	2f 90       	pop	r2
 3ca:	08 95       	ret

USBCore.o:     file format elf32-avr

Sections:
Idx Name          Size      VMA       LMA       File off  Algn
  0 .text         00000000  00000000  00000000  00000034  2**0
                  CONTENTS, ALLOC, LOAD, READONLY, CODE
  1 .data         00000000  00000000  00000000  00000034  2**0
                  CONTENTS, ALLOC, LOAD, DATA
  2 .bss          00000000  00000000  00000000  00000034  2**0
                  ALLOC

WInterrupts.o:     file format elf32-avr

Sections:
Idx Name          Size      VMA       LMA       File off  Algn
  0 .text         00000126  00000000  00000000  00000034  2**0
                  CONTENTS, ALLOC, LOAD, RELOC, READONLY, CODE
  1 .data         00000000  00000000  00000000  0000015a  2**0
                  CONTENTS, ALLOC, LOAD, DATA
  2 .bss          00000004  00000000  00000000  0000015a  2**0
                  ALLOC

Disassembly of section .text:

00000000 <attachInterrupt>:
   0:	82 30       	cpi	r24, 0x02	; 2
   2:	00 f4       	brcc	.+0      	; 0x4 <attachInterrupt+0x4>
   4:	e8 2f       	mov	r30, r24
   6:	f0 e0       	ldi	r31, 0x00	; 0
   8:	ee 0f       	add	r30, r30
   a:	ff 1f       	adc	r31, r31
   c:	e0 50       	subi	r30, 0x00	; 0
   e:	f0 40       	sbci	r31, 0x00	; 0
  10:	71 83       	std	Z+1, r23	; 0x01
  12:	60 83       	st	Z, r22
  14:	88 23       	and	r24, r24
  16:	01 f0       	breq	.+0      	; 0x18 <attachInterrupt+0x18>
  18:	81 30       	cpi	r24, 0x01	; 1
  1a:	01 f4       	brne	.+0      	; 0x1c <attachInterrupt+0x1c>
  1c:	00 c0       	rjmp	.+0      	; 0x1e <attachInterrupt+0x1e>
  1e:	85 b7       	in	r24, 0x35	; 53
  20:	8c 7f       	andi	r24, 0xFC	; 252
  22:	84 2b       	or	r24, r20
  24:	85 bf       	out	0x35, r24	; 53
  26:	8b b7       	in	r24, 0x3b	; 59
  28:	80 64       	ori	r24, 0x40	; 64
  2a:	8b bf       	out	0x3b, r24	; 59
  2c:	08 95       	ret
  2e:	85 b7       	in	r24, 0x35	; 53
  30:	44 0f       	add	r20, r20
  32:	55 1f       	adc	r21, r21
  34:	44 0f       	add	r20, r20
  36:	55 1f       	adc	r21, r21
  38:	83 7f       	andi	r24, 0xF3	; 243
  3a:	84 2b       	or	r24, r20
  3c:	85 bf       	out	0x35, r24	; 53
  3e:	8b b7       	in	r24, 0x3b	; 59
  40:	80 68       	ori	r24, 0x80	; 128
  42:	8b bf       	out	0x3b, r24	; 59
  44:	08 95       	ret

00000046 <detachInterrupt>:
  46:	e8 2f       	mov	r30, r24
  48:	82 30       	cpi	r24, 0x02	; 2
  4a:	00 f4       	brcc	.+0      	; 0x4c <detachInterrupt+0x6>
  4c:	88 23       	and	r24, r24
  4e:	01 f0       	breq	.+0      	; 0x50 <detachInterrupt+0xa>
  50:	81 30       	cpi	r24, 0x01	; 1
  52:	01 f4       	brne	.+0      	; 0x54 <detachInterrupt+0xe>
  54:	00 c0       	rjmp	.+0      	; 0x56 <detachInterrupt+0x10>
  56:	8b b7       	in	r24, 0x3b	; 59
  58:	8f 7b       	andi	r24, 0xBF	; 191
  5a:	00 c0       	rjmp	.+0      	; 0x5c <detachInterrupt+0x16>
  5c:	8b b7       	in	r24, 0x3b	; 59
  5e:	8f 77       	andi	r24, 0x7F	; 127
  60:	8b bf       	out	0x3b, r24	; 59
  62:	f0 e0       	ldi	r31, 0x00	; 0
  64:	ee 0f       	add	r30, r30
  66:	ff 1f       	adc	r31, r31
  68:	e0 50       	subi	r30, 0x00	; 0
  6a:	f0 40       	sbci	r31, 0x00	; 0
  6c:	11 82       	std	Z+1, r1	; 0x01
  6e:	10 82       	st	Z, r1
  70:	08 95       	ret

00000072 <__vector_1>:
  72:	1f 92       	push	r1
  74:	0f 92       	push	r0
  76:	0f b6       	in	r0, 0x3f	; 63
  78:	0f 92       	push	r0
  7a:	11 24       	eor	r1, r1
  7c:	2f 93       	push	r18
  7e:	3f 93       	push	r19
  80:	4f 93       	push	r20
  82:	5f 93       	push	r21
  84:	6f 93       	push	r22
  86:	7f 93       	push	r23
  88:	8f 93       	push	r24
  8a:	9f 93       	push	r25
  8c:	af 93       	push	r26
  8e:	bf 93       	push	r27
  90:	ef 93       	push	r30
  92:	ff 93       	push	r31
  94:	80 91 00 00 	lds	r24, 0x0000
  98:	90 91 00 00 	lds	r25, 0x0000
  9c:	89 2b       	or	r24, r25
  9e:	01 f0       	breq	.+0      	; 0xa0 <__vector_1+0x2e>
  a0:	e0 91 00 00 	lds	r30, 0x0000
  a4:	f0 91 00 00 	lds	r31, 0x0000
  a8:	09 95       	icall
  aa:	ff 91       	pop	r31
  ac:	ef 91       	pop	r30
  ae:	bf 91       	pop	r27
  b0:	af 91       	pop	r26
  b2:	9f 91       	pop	r25
  b4:	8f 91       	pop	r24
  b6:	7f 91       	pop	r23
  b8:	6f 91       	pop	r22
  ba:	5f 91       	pop	r21
  bc:	4f 91       	pop	r20
  be:	3f 91       	pop	r19
  c0:	2f 91       	pop	r18
  c2:	0f 90       	pop	r0
  c4:	0f be       	out	0x3f, r0	; 63
  c6:	0f 90       	pop	r0
  c8:	1f 90       	pop	r1
  ca:	18 95       	reti

000000cc <__vector_2>:
  cc:	1f 92       	push	r1
  ce:	0f 92       	push	r0
  d0:	0f b6       	in	r0, 0x3f	; 63
  d2:	0f 92       	push	r0
  d4:	11 24       	eor	r1, r1
  d6:	2f 93       	push	r18
  d8:	3f 93       	push	r19
  da:	4f 93       	push	r20
  dc:	5f 93       	push	r21
  de:	6f 93       	push	r22
  e0:	7f 93       	push	r23
  e2:	8f 93       	push	r24
  e4:	9f 93       	push	r25
  e6:	af 93       	push	r26
  e8:	bf 93       	push	r27
  ea:	ef 93       	push	r30
  ec:	ff 93       	push	r31
  ee:	80 91 00 00 	lds	r24, 0x0000
  f2:	90 91 00 00 	lds	r25, 0x0000
  f6:	89 2b       	or	r24, r25
  f8:	01 f0       	breq	.+0      	; 0xfa <__vector_2+0x2e>
  fa:	e0 91 00 00 	lds	r30, 0x0000
  fe:	f0 91 00 00 	lds	r31, 0x0000
 102:	09 95       	icall
 104:	ff 91       	pop	r31
 106:	ef 91       	pop	r30
 108:	bf 91       	pop	r27
 10a:	af 91       	pop	r26
 10c:	9f 91       	pop	r25
 10e:	8f 91       	pop	r24
 110:	7f 91       	pop	r23
 112:	6f 91       	pop	r22
 114:	5f 91       	pop	r21
 116:	4f 91       	pop	r20
 118:	3f 91       	pop	r19
 11a:	2f 91       	pop	r18
 11c:	0f 90       	pop	r0
 11e:	0f be       	out	0x3f, r0	; 63
 120:	0f 90       	pop	r0
 122:	1f 90       	pop	r1
 124:	18 95       	reti

WMath.o:     file format elf32-avr

Sections:
Idx Name          Size      VMA       LMA       File off  Algn
  0 .text         00000132  00000000  00000000  00000034  2**0
                  CONTENTS, ALLOC, LOAD, RELOC, READONLY, CODE
  1 .data         00000000  00000000  00000000  00000166  2**0
                  CONTENTS, ALLOC, LOAD, DATA
  2 .bss          00000000  00000000  00000000  00000166  2**0
                  ALLOC

Disassembly of section .text:

00000000 <_Z3maplllll>:
   0:	2f 92       	push	r2
   2:	3f 92       	push	r3
   4:	4f 92       	push	r4
   6:	5f 92       	push	r5
   8:	6f 92       	push	r6
   a:	7f 92       	push	r7
   c:	8f 92       	push	r8
   e:	9f 92       	push	r9
  10:	af 92       	push	r10
  12:	bf 92       	push	r11
  14:	cf 92       	push	r12
  16:	df 92       	push	r13
  18:	ef 92       	push	r14
  1a:	ff 92       	push	r15
  1c:	0f 93       	push	r16
  1e:	1f 93       	push	r17
  20:	df 93       	push	r29
  22:	cf 93       	push	r28
  24:	cd b7       	in	r28, 0x3d	; 61
  26:	de b7       	in	r29, 0x3e	; 62
  28:	3b 01       	movw	r6, r22
  2a:	4c 01       	movw	r8, r24
  2c:	19 01       	movw	r2, r18
  2e:	2a 01       	movw	r4, r20
  30:	6d 89       	ldd	r22, Y+21	; 0x15
  32:	7e 89       	ldd	r23, Y+22	; 0x16
  34:	8f 89       	ldd	r24, Y+23	; 0x17
  36:	98 8d       	ldd	r25, Y+24	; 0x18
  38:	6a 19       	sub	r22, r10
  3a:	7b 09       	sbc	r23, r11
  3c:	8c 09       	sbc	r24, r12
  3e:	9d 09       	sbc	r25, r13
  40:	62 1a       	sub	r6, r18
  42:	73 0a       	sbc	r7, r19
  44:	84 0a       	sbc	r8, r20
  46:	95 0a       	sbc	r9, r21
  48:	a4 01       	movw	r20, r8
  4a:	93 01       	movw	r18, r6
  4c:	0e 94 00 00 	call	0	; 0x0 <_Z3maplllll>
  50:	e2 18       	sub	r14, r2
  52:	f3 08       	sbc	r15, r3
  54:	04 09       	sbc	r16, r4
  56:	15 09       	sbc	r17, r5
  58:	a8 01       	movw	r20, r16
  5a:	97 01       	movw	r18, r14
  5c:	0e 94 00 00 	call	0	; 0x0 <_Z3maplllll>
  60:	2a 0d       	add	r18, r10
  62:	3b 1d       	adc	r19, r11
  64:	4c 1d       	adc	r20, r12
  66:	5d 1d       	adc	r21, r13
  68:	b9 01       	movw	r22, r18
  6a:	ca 01       	movw	r24, r20
  6c:	cf 91       	pop	r28
  6e:	df 91       	pop	r29
  70:	1f 91       	pop	r17
  72:	0f 91       	pop	r16
  74:	ff 90       	pop	r15
  76:	ef 90       	pop	r14
  78:	df 90       	pop	r13
  7a:	cf 90       	pop	r12
  7c:	bf 90       	pop	r11
  7e:	af 90       	pop	r10
  80:	9f 90       	pop	r9
  82:	8f 90       	pop	r8
  84:	7f 90       	pop	r7
  86:	6f 90       	pop	r6
  88:	5f 90       	pop	r5
  8a:	4f 90       	pop	r4
  8c:	3f 90       	pop	r3
  8e:	2f 90       	pop	r2
  90:	08 95       	ret

00000092 <_Z8makeWordj>:
  92:	08 95       	ret

00000094 <_Z8makeWordhh>:
  94:	70 e0       	ldi	r23, 0x00	; 0
  96:	38 2f       	mov	r19, r24
  98:	20 e0       	ldi	r18, 0x00	; 0
  9a:	62 2b       	or	r22, r18
  9c:	73 2b       	or	r23, r19
  9e:	cb 01       	movw	r24, r22
  a0:	08 95       	ret

000000a2 <_Z6randoml>:
  a2:	ef 92       	push	r14
  a4:	ff 92       	push	r15
  a6:	0f 93       	push	r16
  a8:	1f 93       	push	r17
  aa:	7b 01       	movw	r14, r22
  ac:	8c 01       	movw	r16, r24
  ae:	61 15       	cp	r22, r1
  b0:	71 05       	cpc	r23, r1
  b2:	81 05       	cpc	r24, r1
  b4:	91 05       	cpc	r25, r1
  b6:	01 f4       	brne	.+0      	; 0xb8 <_Z6randoml+0x16>
  b8:	20 e0       	ldi	r18, 0x00	; 0
  ba:	30 e0       	ldi	r19, 0x00	; 0
  bc:	40 e0       	ldi	r20, 0x00	; 0
  be:	50 e0       	ldi	r21, 0x00	; 0
  c0:	00 c0       	rjmp	.+0      	; 0xc2 <_Z6randoml+0x20>
  c2:	0e 94 00 00 	call	0	; 0x0 <_Z3maplllll>
  c6:	a8 01       	movw	r20, r16
  c8:	97 01       	movw	r18, r14
  ca:	0e 94 00 00 	call	0	; 0x0 <_Z3maplllll>
  ce:	ac 01       	movw	r20, r24
  d0:	cb 01       	movw	r24, r22
  d2:	da 01       	movw	r26, r20
  d4:	9c 01       	movw	r18, r24
  d6:	ad 01       	movw	r20, r26
  d8:	b9 01       	movw	r22, r18
  da:	ca 01       	movw	r24, r20
  dc:	1f 91       	pop	r17
  de:	0f 91       	pop	r16
  e0:	ff 90       	pop	r15
  e2:	ef 90       	pop	r14
  e4:	08 95       	ret

000000e6 <_Z6randomll>:
  e6:	ef 92       	push	r14
  e8:	ff 92       	push	r15
  ea:	0f 93       	push	r16
  ec:	1f 93       	push	r17
  ee:	7b 01       	movw	r14, r22
  f0:	8c 01       	movw	r16, r24
  f2:	62 17       	cp	r22, r18
  f4:	73 07       	cpc	r23, r19
  f6:	84 07       	cpc	r24, r20
  f8:	95 07       	cpc	r25, r21
  fa:	04 f4       	brge	.+0      	; 0xfc <_Z6randomll+0x16>
  fc:	26 1b       	sub	r18, r22
  fe:	37 0b       	sbc	r19, r23
 100:	48 0b       	sbc	r20, r24
 102:	59 0b       	sbc	r21, r25
 104:	ca 01       	movw	r24, r20
 106:	b9 01       	movw	r22, r18
 108:	0e 94 00 00 	call	0	; 0x0 <_Z3maplllll>
 10c:	e6 0e       	add	r14, r22
 10e:	f7 1e       	adc	r15, r23
 110:	08 1f       	adc	r16, r24
 112:	19 1f       	adc	r17, r25
 114:	b7 01       	movw	r22, r14
 116:	c8 01       	movw	r24, r16
 118:	1f 91       	pop	r17
 11a:	0f 91       	pop	r16
 11c:	ff 90       	pop	r15
 11e:	ef 90       	pop	r14
 120:	08 95       	ret

00000122 <_Z10randomSeedj>:
 122:	00 97       	sbiw	r24, 0x00	; 0
 124:	01 f0       	breq	.+0      	; 0x126 <_Z10randomSeedj+0x4>
 126:	bc 01       	movw	r22, r24
 128:	80 e0       	ldi	r24, 0x00	; 0
 12a:	90 e0       	ldi	r25, 0x00	; 0
 12c:	0e 94 00 00 	call	0	; 0x0 <_Z3maplllll>
 130:	08 95       	ret

WString.o:     file format elf32-avr

Sections:
Idx Name          Size      VMA       LMA       File off  Algn
  0 .text         0000129a  00000000  00000000  00000034  2**0
                  CONTENTS, ALLOC, LOAD, RELOC, READONLY, CODE
  1 .data         00000001  00000000  00000000  000012ce  2**0
                  CONTENTS, ALLOC, LOAD, DATA
  2 .bss          00000001  00000000  00000000  000012cf  2**0
                  ALLOC

Disassembly of section .text:

00000000 <_ZNK6String6charAtEj>:
       0:	fc 01       	movw	r30, r24
       2:	84 81       	ldd	r24, Z+4	; 0x04
       4:	95 81       	ldd	r25, Z+5	; 0x05
       6:	68 17       	cp	r22, r24
       8:	79 07       	cpc	r23, r25
       a:	00 f4       	brcc	.+0      	; 0xc <_ZNK6String6charAtEj+0xc>
       c:	01 90       	ld	r0, Z+
       e:	f0 81       	ld	r31, Z
      10:	e0 2d       	mov	r30, r0
      12:	30 97       	sbiw	r30, 0x00	; 0
      14:	01 f0       	breq	.+0      	; 0x16 <_ZNK6String6charAtEj+0x16>
      16:	e6 0f       	add	r30, r22
      18:	f7 1f       	adc	r31, r23
      1a:	80 81       	ld	r24, Z
      1c:	08 95       	ret
      1e:	80 e0       	ldi	r24, 0x00	; 0
      20:	08 95       	ret

00000022 <_ZN6String9setCharAtEjc>:
      22:	fc 01       	movw	r30, r24
      24:	84 81       	ldd	r24, Z+4	; 0x04
      26:	95 81       	ldd	r25, Z+5	; 0x05
      28:	68 17       	cp	r22, r24
      2a:	79 07       	cpc	r23, r25
      2c:	00 f4       	brcc	.+0      	; 0x2e <_ZN6String9setCharAtEjc+0xc>
      2e:	01 90       	ld	r0, Z+
      30:	f0 81       	ld	r31, Z
      32:	e0 2d       	mov	r30, r0
      34:	e6 0f       	add	r30, r22
      36:	f7 1f       	adc	r31, r23
      38:	40 83       	st	Z, r20
      3a:	08 95       	ret

0000003c <_ZN6StringixEj>:
      3c:	fc 01       	movw	r30, r24
      3e:	9b 01       	movw	r18, r22
      40:	84 81       	ldd	r24, Z+4	; 0x04
      42:	95 81       	ldd	r25, Z+5	; 0x05
      44:	68 17       	cp	r22, r24
      46:	79 07       	cpc	r23, r25
      48:	00 f4       	brcc	.+0      	; 0x4a <_ZN6StringixEj+0xe>
      4a:	60 81       	ld	r22, Z
      4c:	71 81       	ldd	r23, Z+1	; 0x01
      4e:	61 15       	cp	r22, r1
      50:	71 05       	cpc	r23, r1
      52:	01 f4       	brne	.+0      	; 0x54 <_ZN6StringixEj+0x18>
      54:	10 92 00 00 	sts	0x0000, r1
      58:	60 e0       	ldi	r22, 0x00	; 0
      5a:	70 e0       	ldi	r23, 0x00	; 0
      5c:	00 c0       	rjmp	.+0      	; 0x5e <_ZN6StringixEj+0x22>
      5e:	62 0f       	add	r22, r18
      60:	73 1f       	adc	r23, r19
      62:	cb 01       	movw	r24, r22
      64:	08 95       	ret

00000066 <_ZNK6StringixEj>:
      66:	fc 01       	movw	r30, r24
      68:	84 81       	ldd	r24, Z+4	; 0x04
      6a:	95 81       	ldd	r25, Z+5	; 0x05
      6c:	68 17       	cp	r22, r24
      6e:	79 07       	cpc	r23, r25
      70:	00 f4       	brcc	.+0      	; 0x72 <_ZNK6StringixEj+0xc>
      72:	01 90       	ld	r0, Z+
      74:	f0 81       	ld	r31, Z
      76:	e0 2d       	mov	r30, r0
      78:	30 97       	sbiw	r30, 0x00	; 0
      7a:	01 f0       	breq	.+0      	; 0x7c <_ZNK6StringixEj+0x16>
      7c:	e6 0f       	add	r30, r22
      7e:	f7 1f       	adc	r31, r23
      80:	80 81       	ld	r24, Z
      82:	08 95       	ret
      84:	80 e0       	ldi	r24, 0x00	; 0
      86:	08 95       	ret

00000088 <_ZN6String7replaceEcc>:
      88:	fc 01       	movw	r30, r24
      8a:	01 90       	ld	r0, Z+
      8c:	f0 81       	ld	r31, Z
      8e:	e0 2d       	mov	r30, r0
      90:	30 97       	sbiw	r30, 0x00	; 0
      92:	01 f4       	brne	.+0      	; 0x94 <_ZN6String7replaceEcc+0xc>
      94:	08 95       	ret
      96:	86 17       	cp	r24, r22
      98:	01 f4       	brne	.+0      	; 0x9a <_ZN6String7replaceEcc+0x12>
      9a:	40 83       	st	Z, r20
      9c:	31 96       	adiw	r30, 0x01	; 1
      9e:	80 81       	ld	r24, Z
      a0:	88 23       	and	r24, r24
      a2:	01 f4       	brne	.+0      	; 0xa4 <_ZN6String7replaceEcc+0x1c>
      a4:	08 95       	ret

000000a6 <_ZNK6String5toIntEv>:
      a6:	fc 01       	movw	r30, r24
      a8:	80 81       	ld	r24, Z
      aa:	91 81       	ldd	r25, Z+1	; 0x01
      ac:	00 97       	sbiw	r24, 0x00	; 0
      ae:	01 f4       	brne	.+0      	; 0xb0 <_ZNK6String5toIntEv+0xa>
      b0:	20 e0       	ldi	r18, 0x00	; 0
      b2:	30 e0       	ldi	r19, 0x00	; 0
      b4:	40 e0       	ldi	r20, 0x00	; 0
      b6:	50 e0       	ldi	r21, 0x00	; 0
      b8:	00 c0       	rjmp	.+0      	; 0xba <_ZNK6String5toIntEv+0x14>
      ba:	0e 94 00 00 	call	0	; 0x0 <_ZNK6String6charAtEj>
      be:	9b 01       	movw	r18, r22
      c0:	ac 01       	movw	r20, r24
      c2:	b9 01       	movw	r22, r18
      c4:	ca 01       	movw	r24, r20
      c6:	08 95       	ret

000000c8 <_ZN6String4trimEv>:
      c8:	cf 92       	push	r12
      ca:	df 92       	push	r13
      cc:	ef 92       	push	r14
      ce:	ff 92       	push	r15
      d0:	0f 93       	push	r16
      d2:	1f 93       	push	r17
      d4:	cf 93       	push	r28
      d6:	df 93       	push	r29
      d8:	6c 01       	movw	r12, r24
      da:	dc 01       	movw	r26, r24
      dc:	ed 90       	ld	r14, X+
      de:	fc 90       	ld	r15, X
      e0:	11 97       	sbiw	r26, 0x01	; 1
      e2:	e1 14       	cp	r14, r1
      e4:	f1 04       	cpc	r15, r1
      e6:	01 f0       	breq	.+0      	; 0xe8 <_ZN6String4trimEv+0x20>
      e8:	14 96       	adiw	r26, 0x04	; 4
      ea:	cd 91       	ld	r28, X+
      ec:	dc 91       	ld	r29, X
      ee:	15 97       	sbiw	r26, 0x05	; 5
      f0:	20 97       	sbiw	r28, 0x00	; 0
      f2:	01 f0       	breq	.+0      	; 0xf4 <_ZN6String4trimEv+0x2c>
      f4:	87 01       	movw	r16, r14
      f6:	00 c0       	rjmp	.+0      	; 0xf8 <_ZN6String4trimEv+0x30>
      f8:	0f 5f       	subi	r16, 0xFF	; 255
      fa:	1f 4f       	sbci	r17, 0xFF	; 255
      fc:	f8 01       	movw	r30, r16
      fe:	80 81       	ld	r24, Z
     100:	90 e0       	ldi	r25, 0x00	; 0
     102:	0e 94 00 00 	call	0	; 0x0 <_ZNK6String6charAtEj>
     106:	89 2b       	or	r24, r25
     108:	01 f4       	brne	.+0      	; 0x10a <_ZN6String4trimEv+0x42>
     10a:	21 97       	sbiw	r28, 0x01	; 1
     10c:	ce 0d       	add	r28, r14
     10e:	df 1d       	adc	r29, r15
     110:	00 c0       	rjmp	.+0      	; 0x112 <_ZN6String4trimEv+0x4a>
     112:	21 97       	sbiw	r28, 0x01	; 1
     114:	88 81       	ld	r24, Y
     116:	90 e0       	ldi	r25, 0x00	; 0
     118:	0e 94 00 00 	call	0	; 0x0 <_ZNK6String6charAtEj>
     11c:	89 2b       	or	r24, r25
     11e:	01 f0       	breq	.+0      	; 0x120 <_ZN6String4trimEv+0x58>
     120:	c0 17       	cp	r28, r16
     122:	d1 07       	cpc	r29, r17
     124:	00 f4       	brcc	.+0      	; 0x126 <_ZN6String4trimEv+0x5e>
     126:	fe 01       	movw	r30, r28
     128:	31 96       	adiw	r30, 0x01	; 1
     12a:	e0 1b       	sub	r30, r16
     12c:	f1 0b       	sbc	r31, r17
     12e:	d6 01       	movw	r26, r12
     130:	15 96       	adiw	r26, 0x05	; 5
     132:	fc 93       	st	X, r31
     134:	ee 93       	st	-X, r30
     136:	14 97       	sbiw	r26, 0x04	; 4
     138:	2d 91       	ld	r18, X+
     13a:	3c 91       	ld	r19, X
     13c:	20 17       	cp	r18, r16
     13e:	31 07       	cpc	r19, r17
     140:	00 f4       	brcc	.+0      	; 0x142 <_ZN6String4trimEv+0x7a>
     142:	c9 01       	movw	r24, r18
     144:	b8 01       	movw	r22, r16
     146:	af 01       	movw	r20, r30
     148:	0e 94 00 00 	call	0	; 0x0 <_ZNK6String6charAtEj>
     14c:	d6 01       	movw	r26, r12
     14e:	ed 91       	ld	r30, X+
     150:	fc 91       	ld	r31, X
     152:	11 97       	sbiw	r26, 0x01	; 1
     154:	14 96       	adiw	r26, 0x04	; 4
     156:	8d 91       	ld	r24, X+
     158:	9c 91       	ld	r25, X
     15a:	15 97       	sbiw	r26, 0x05	; 5
     15c:	e8 0f       	add	r30, r24
     15e:	f9 1f       	adc	r31, r25
     160:	10 82       	st	Z, r1
     162:	df 91       	pop	r29
     164:	cf 91       	pop	r28
     166:	1f 91       	pop	r17
     168:	0f 91       	pop	r16
     16a:	ff 90       	pop	r15
     16c:	ef 90       	pop	r14
     16e:	df 90       	pop	r13
     170:	cf 90       	pop	r12
     172:	08 95       	ret

00000174 <_ZN6String11toUpperCaseEv>:
     174:	cf 93       	push	r28
     176:	df 93       	push	r29
     178:	fc 01       	movw	r30, r24
     17a:	c0 81       	ld	r28, Z
     17c:	d1 81       	ldd	r29, Z+1	; 0x01
     17e:	20 97       	sbiw	r28, 0x00	; 0
     180:	01 f4       	brne	.+0      	; 0x182 <_ZN6String11toUpperCaseEv+0xe>
     182:	00 c0       	rjmp	.+0      	; 0x184 <_ZN6String11toUpperCaseEv+0x10>
     184:	90 e0       	ldi	r25, 0x00	; 0
     186:	0e 94 00 00 	call	0	; 0x0 <_ZNK6String6charAtEj>
     18a:	89 93       	st	Y+, r24
     18c:	88 81       	ld	r24, Y
     18e:	88 23       	and	r24, r24
     190:	01 f4       	brne	.+0      	; 0x192 <_ZN6String11toUpperCaseEv+0x1e>
     192:	df 91       	pop	r29
     194:	cf 91       	pop	r28
     196:	08 95       	ret

00000198 <_ZN6String11toLowerCaseEv>:
     198:	cf 93       	push	r28
     19a:	df 93       	push	r29
     19c:	fc 01       	movw	r30, r24
     19e:	c0 81       	ld	r28, Z
     1a0:	d1 81       	ldd	r29, Z+1	; 0x01
     1a2:	20 97       	sbiw	r28, 0x00	; 0
     1a4:	01 f4       	brne	.+0      	; 0x1a6 <_ZN6String11toLowerCaseEv+0xe>
     1a6:	00 c0       	rjmp	.+0      	; 0x1a8 <_ZN6String11toLowerCaseEv+0x10>
     1a8:	90 e0       	ldi	r25, 0x00	; 0
     1aa:	0e 94 00 00 	call	0	; 0x0 <_ZNK6String6charAtEj>
     1ae:	89 93       	st	Y+, r24
     1b0:	88 81       	ld	r24, Y
     1b2:	88 23       	and	r24, r24
     1b4:	01 f4       	brne	.+0      	; 0x1b6 <_ZN6String11toLowerCaseEv+0x1e>
     1b6:	df 91       	pop	r29
     1b8:	cf 91       	pop	r28
     1ba:	08 95       	ret

000001bc <_ZNK6String16equalsIgnoreCaseERKS_>:
     1bc:	ef 92       	push	r14
     1be:	ff 92       	push	r15
     1c0:	0f 93       	push	r16
     1c2:	1f 93       	push	r17
     1c4:	cf 93       	push	r28
     1c6:	df 93       	push	r29
     1c8:	fc 01       	movw	r30, r24
     1ca:	db 01       	movw	r26, r22
     1cc:	86 17       	cp	r24, r22
     1ce:	97 07       	cpc	r25, r23
     1d0:	01 f0       	breq	.+0      	; 0x1d2 <_ZNK6String16equalsIgnoreCaseERKS_+0x16>
     1d2:	24 81       	ldd	r18, Z+4	; 0x04
     1d4:	35 81       	ldd	r19, Z+5	; 0x05
     1d6:	14 96       	adiw	r26, 0x04	; 4
     1d8:	8d 91       	ld	r24, X+
     1da:	9c 91       	ld	r25, X
     1dc:	15 97       	sbiw	r26, 0x05	; 5
     1de:	28 17       	cp	r18, r24
     1e0:	39 07       	cpc	r19, r25
     1e2:	01 f4       	brne	.+0      	; 0x1e4 <_ZNK6String16equalsIgnoreCaseERKS_+0x28>
     1e4:	23 2b       	or	r18, r19
     1e6:	01 f0       	breq	.+0      	; 0x1e8 <_ZNK6String16equalsIgnoreCaseERKS_+0x2c>
     1e8:	e0 80       	ld	r14, Z
     1ea:	f1 80       	ldd	r15, Z+1	; 0x01
     1ec:	cd 91       	ld	r28, X+
     1ee:	dc 91       	ld	r29, X
     1f0:	00 c0       	rjmp	.+0      	; 0x1f2 <_ZNK6String16equalsIgnoreCaseERKS_+0x36>
     1f2:	90 e0       	ldi	r25, 0x00	; 0
     1f4:	0e 94 00 00 	call	0	; 0x0 <_ZNK6String6charAtEj>
     1f8:	8c 01       	movw	r16, r24
     1fa:	88 81       	ld	r24, Y
     1fc:	90 e0       	ldi	r25, 0x00	; 0
     1fe:	0e 94 00 00 	call	0	; 0x0 <_ZNK6String6charAtEj>
     202:	08 17       	cp	r16, r24
     204:	19 07       	cpc	r17, r25
     206:	01 f4       	brne	.+0      	; 0x208 <_ZNK6String16equalsIgnoreCaseERKS_+0x4c>
     208:	08 94       	sec
     20a:	e1 1c       	adc	r14, r1
     20c:	f1 1c       	adc	r15, r1
     20e:	21 96       	adiw	r28, 0x01	; 1
     210:	f7 01       	movw	r30, r14
     212:	80 81       	ld	r24, Z
     214:	88 23       	and	r24, r24
     216:	01 f4       	brne	.+0      	; 0x218 <_ZNK6String16equalsIgnoreCaseERKS_+0x5c>
     218:	81 e0       	ldi	r24, 0x01	; 1
     21a:	00 c0       	rjmp	.+0      	; 0x21c <_ZNK6String16equalsIgnoreCaseERKS_+0x60>
     21c:	80 e0       	ldi	r24, 0x00	; 0
     21e:	df 91       	pop	r29
     220:	cf 91       	pop	r28
     222:	1f 91       	pop	r17
     224:	0f 91       	pop	r16
     226:	ff 90       	pop	r15
     228:	ef 90       	pop	r14
     22a:	08 95       	ret

0000022c <_ZNK6String11lastIndexOfERKS_j>:
     22c:	af 92       	push	r10
     22e:	bf 92       	push	r11
     230:	cf 92       	push	r12
     232:	df 92       	push	r13
     234:	ef 92       	push	r14
     236:	ff 92       	push	r15
     238:	0f 93       	push	r16
     23a:	1f 93       	push	r17
     23c:	cf 93       	push	r28
     23e:	df 93       	push	r29
     240:	fc 01       	movw	r30, r24
     242:	5b 01       	movw	r10, r22
     244:	7a 01       	movw	r14, r20
     246:	db 01       	movw	r26, r22
     248:	14 96       	adiw	r26, 0x04	; 4
     24a:	2d 91       	ld	r18, X+
     24c:	3c 91       	ld	r19, X
     24e:	15 97       	sbiw	r26, 0x05	; 5
     250:	21 15       	cp	r18, r1
     252:	31 05       	cpc	r19, r1
     254:	01 f0       	breq	.+0      	; 0x256 <_ZNK6String11lastIndexOfERKS_j+0x2a>
     256:	84 81       	ldd	r24, Z+4	; 0x04
     258:	95 81       	ldd	r25, Z+5	; 0x05
     25a:	00 97       	sbiw	r24, 0x00	; 0
     25c:	01 f0       	breq	.+0      	; 0x25e <_ZNK6String11lastIndexOfERKS_j+0x32>
     25e:	82 17       	cp	r24, r18
     260:	93 07       	cpc	r25, r19
     262:	00 f0       	brcs	.+0      	; 0x264 <_ZNK6String11lastIndexOfERKS_j+0x38>
     264:	48 17       	cp	r20, r24
     266:	59 07       	cpc	r21, r25
     268:	00 f0       	brcs	.+0      	; 0x26a <_ZNK6String11lastIndexOfERKS_j+0x3e>
     26a:	7c 01       	movw	r14, r24
     26c:	08 94       	sec
     26e:	e1 08       	sbc	r14, r1
     270:	f1 08       	sbc	r15, r1
     272:	00 81       	ld	r16, Z
     274:	11 81       	ldd	r17, Z+1	; 0x01
     276:	c8 01       	movw	r24, r16
     278:	cf ef       	ldi	r28, 0xFF	; 255
     27a:	df ef       	ldi	r29, 0xFF	; 255
     27c:	68 01       	movw	r12, r16
     27e:	ce 0c       	add	r12, r14
     280:	df 1c       	adc	r13, r15
     282:	00 c0       	rjmp	.+0      	; 0x284 <_ZNK6String11lastIndexOfERKS_j+0x58>
     284:	f5 01       	movw	r30, r10
     286:	60 81       	ld	r22, Z
     288:	71 81       	ldd	r23, Z+1	; 0x01
     28a:	0e 94 00 00 	call	0	; 0x0 <_ZNK6String6charAtEj>
     28e:	9c 01       	movw	r18, r24
     290:	00 97       	sbiw	r24, 0x00	; 0
     292:	01 f0       	breq	.+0      	; 0x294 <_ZNK6String11lastIndexOfERKS_j+0x68>
     294:	80 1b       	sub	r24, r16
     296:	91 0b       	sbc	r25, r17
     298:	e8 16       	cp	r14, r24
     29a:	f9 06       	cpc	r15, r25
     29c:	00 f0       	brcs	.+0      	; 0x29e <_ZNK6String11lastIndexOfERKS_j+0x72>
     29e:	ec 01       	movw	r28, r24
     2a0:	c9 01       	movw	r24, r18
     2a2:	01 96       	adiw	r24, 0x01	; 1
     2a4:	c8 16       	cp	r12, r24
     2a6:	d9 06       	cpc	r13, r25
     2a8:	00 f4       	brcc	.+0      	; 0x2aa <_ZNK6String11lastIndexOfERKS_j+0x7e>
     2aa:	00 c0       	rjmp	.+0      	; 0x2ac <_ZNK6String11lastIndexOfERKS_j+0x80>
     2ac:	cf ef       	ldi	r28, 0xFF	; 255
     2ae:	df ef       	ldi	r29, 0xFF	; 255
     2b0:	ce 01       	movw	r24, r28
     2b2:	df 91       	pop	r29
     2b4:	cf 91       	pop	r28
     2b6:	1f 91       	pop	r17
     2b8:	0f 91       	pop	r16
     2ba:	ff 90       	pop	r15
     2bc:	ef 90       	pop	r14
     2be:	df 90       	pop	r13
     2c0:	cf 90       	pop	r12
     2c2:	bf 90       	pop	r11
     2c4:	af 90       	pop	r10
     2c6:	08 95       	ret

000002c8 <_ZNK6String11lastIndexOfERKS_>:
     2c8:	fc 01       	movw	r30, r24
     2ca:	db 01       	movw	r26, r22
     2cc:	44 81       	ldd	r20, Z+4	; 0x04
     2ce:	55 81       	ldd	r21, Z+5	; 0x05
     2d0:	14 96       	adiw	r26, 0x04	; 4
     2d2:	8d 91       	ld	r24, X+
     2d4:	9c 91       	ld	r25, X
     2d6:	15 97       	sbiw	r26, 0x05	; 5
     2d8:	48 1b       	sub	r20, r24
     2da:	59 0b       	sbc	r21, r25
     2dc:	cf 01       	movw	r24, r30
     2de:	0e 94 00 00 	call	0	; 0x0 <_ZNK6String6charAtEj>
     2e2:	08 95       	ret

000002e4 <_ZNK6String7indexOfERKS_j>:
     2e4:	cf 93       	push	r28
     2e6:	df 93       	push	r29
     2e8:	fc 01       	movw	r30, r24
     2ea:	db 01       	movw	r26, r22
     2ec:	84 81       	ldd	r24, Z+4	; 0x04
     2ee:	95 81       	ldd	r25, Z+5	; 0x05
     2f0:	48 17       	cp	r20, r24
     2f2:	59 07       	cpc	r21, r25
     2f4:	00 f4       	brcc	.+0      	; 0x2f6 <_ZNK6String7indexOfERKS_j+0x12>
     2f6:	c0 81       	ld	r28, Z
     2f8:	d1 81       	ldd	r29, Z+1	; 0x01
     2fa:	6d 91       	ld	r22, X+
     2fc:	7c 91       	ld	r23, X
     2fe:	ce 01       	movw	r24, r28
     300:	84 0f       	add	r24, r20
     302:	95 1f       	adc	r25, r21
     304:	0e 94 00 00 	call	0	; 0x0 <_ZNK6String6charAtEj>
     308:	9c 01       	movw	r18, r24
     30a:	00 97       	sbiw	r24, 0x00	; 0
     30c:	01 f4       	brne	.+0      	; 0x30e <_ZNK6String7indexOfERKS_j+0x2a>
     30e:	2f ef       	ldi	r18, 0xFF	; 255
     310:	3f ef       	ldi	r19, 0xFF	; 255
     312:	00 c0       	rjmp	.+0      	; 0x314 <_ZNK6String7indexOfERKS_j+0x30>
     314:	2c 1b       	sub	r18, r28
     316:	3d 0b       	sbc	r19, r29
     318:	c9 01       	movw	r24, r18
     31a:	df 91       	pop	r29
     31c:	cf 91       	pop	r28
     31e:	08 95       	ret

00000320 <_ZNK6String7indexOfERKS_>:
     320:	40 e0       	ldi	r20, 0x00	; 0
     322:	50 e0       	ldi	r21, 0x00	; 0
     324:	0e 94 00 00 	call	0	; 0x0 <_ZNK6String6charAtEj>
     328:	08 95       	ret

0000032a <_ZNK6String11lastIndexOfEcj>:
     32a:	df 92       	push	r13
     32c:	ef 92       	push	r14
     32e:	ff 92       	push	r15
     330:	0f 93       	push	r16
     332:	1f 93       	push	r17
     334:	cf 93       	push	r28
     336:	df 93       	push	r29
     338:	ec 01       	movw	r28, r24
     33a:	8c 81       	ldd	r24, Y+4	; 0x04
     33c:	9d 81       	ldd	r25, Y+5	; 0x05
     33e:	48 17       	cp	r20, r24
     340:	59 07       	cpc	r21, r25
     342:	00 f4       	brcc	.+0      	; 0x344 <_ZNK6String11lastIndexOfEcj+0x1a>
     344:	7a 01       	movw	r14, r20
     346:	08 94       	sec
     348:	e1 1c       	adc	r14, r1
     34a:	f1 1c       	adc	r15, r1
     34c:	e8 81       	ld	r30, Y
     34e:	f9 81       	ldd	r31, Y+1	; 0x01
     350:	ee 0d       	add	r30, r14
     352:	ff 1d       	adc	r31, r15
     354:	d0 80       	ld	r13, Z
     356:	10 82       	st	Z, r1
     358:	08 81       	ld	r16, Y
     35a:	19 81       	ldd	r17, Y+1	; 0x01
     35c:	c8 01       	movw	r24, r16
     35e:	70 e0       	ldi	r23, 0x00	; 0
     360:	0e 94 00 00 	call	0	; 0x0 <_ZNK6String6charAtEj>
     364:	9c 01       	movw	r18, r24
     366:	0e 0d       	add	r16, r14
     368:	1f 1d       	adc	r17, r15
     36a:	f8 01       	movw	r30, r16
     36c:	d0 82       	st	Z, r13
     36e:	00 97       	sbiw	r24, 0x00	; 0
     370:	01 f4       	brne	.+0      	; 0x372 <_ZNK6String11lastIndexOfEcj+0x48>
     372:	ef ef       	ldi	r30, 0xFF	; 255
     374:	ff ef       	ldi	r31, 0xFF	; 255
     376:	00 c0       	rjmp	.+0      	; 0x378 <_ZNK6String11lastIndexOfEcj+0x4e>
     378:	88 81       	ld	r24, Y
     37a:	99 81       	ldd	r25, Y+1	; 0x01
     37c:	f9 01       	movw	r30, r18
     37e:	e8 1b       	sub	r30, r24
     380:	f9 0b       	sbc	r31, r25
     382:	cf 01       	movw	r24, r30
     384:	df 91       	pop	r29
     386:	cf 91       	pop	r28
     388:	1f 91       	pop	r17
     38a:	0f 91       	pop	r16
     38c:	ff 90       	pop	r15
     38e:	ef 90       	pop	r14
     390:	df 90       	pop	r13
     392:	08 95       	ret

00000394 <_ZNK6String11lastIndexOfEc>:
     394:	fc 01       	movw	r30, r24
     396:	44 81       	ldd	r20, Z+4	; 0x04
     398:	55 81       	ldd	r21, Z+5	; 0x05
     39a:	41 50       	subi	r20, 0x01	; 1
     39c:	50 40       	sbci	r21, 0x00	; 0
     39e:	0e 94 00 00 	call	0	; 0x0 <_ZNK6String6charAtEj>
     3a2:	08 95       	ret

000003a4 <_ZNK6String7indexOfEcj>:
     3a4:	cf 93       	push	r28
     3a6:	df 93       	push	r29
     3a8:	fc 01       	movw	r30, r24
     3aa:	84 81       	ldd	r24, Z+4	; 0x04
     3ac:	95 81       	ldd	r25, Z+5	; 0x05
     3ae:	48 17       	cp	r20, r24
     3b0:	59 07       	cpc	r21, r25
     3b2:	00 f4       	brcc	.+0      	; 0x3b4 <_ZNK6String7indexOfEcj+0x10>
     3b4:	c0 81       	ld	r28, Z
     3b6:	d1 81       	ldd	r29, Z+1	; 0x01
     3b8:	ce 01       	movw	r24, r28
     3ba:	84 0f       	add	r24, r20
     3bc:	95 1f       	adc	r25, r21
     3be:	70 e0       	ldi	r23, 0x00	; 0
     3c0:	0e 94 00 00 	call	0	; 0x0 <_ZNK6String6charAtEj>
     3c4:	9c 01       	movw	r18, r24
     3c6:	00 97       	sbiw	r24, 0x00	; 0
     3c8:	01 f4       	brne	.+0      	; 0x3ca <_ZNK6String7indexOfEcj+0x26>
     3ca:	2f ef       	ldi	r18, 0xFF	; 255
     3cc:	3f ef       	ldi	r19, 0xFF	; 255
     3ce:	00 c0       	rjmp	.+0      	; 0x3d0 <_ZNK6String7indexOfEcj+0x2c>
     3d0:	2c 1b       	sub	r18, r28
     3d2:	3d 0b       	sbc	r19, r29
     3d4:	c9 01       	movw	r24, r18
     3d6:	df 91       	pop	r29
     3d8:	cf 91       	pop	r28
     3da:	08 95       	ret

000003dc <_ZNK6String7indexOfEc>:
     3dc:	40 e0       	ldi	r20, 0x00	; 0
     3de:	50 e0       	ldi	r21, 0x00	; 0
     3e0:	0e 94 00 00 	call	0	; 0x0 <_ZNK6String6charAtEj>
     3e4:	08 95       	ret

000003e6 <_ZNK6String8getBytesEPhjj>:
     3e6:	0f 93       	push	r16
     3e8:	1f 93       	push	r17
     3ea:	cf 93       	push	r28
     3ec:	df 93       	push	r29
     3ee:	fc 01       	movw	r30, r24
     3f0:	8b 01       	movw	r16, r22
     3f2:	41 15       	cp	r20, r1
     3f4:	51 05       	cpc	r21, r1
     3f6:	01 f0       	breq	.+0      	; 0x3f8 <_ZNK6String8getBytesEPhjj+0x12>
     3f8:	61 15       	cp	r22, r1
     3fa:	71 05       	cpc	r23, r1
     3fc:	01 f0       	breq	.+0      	; 0x3fe <_ZNK6String8getBytesEPhjj+0x18>
     3fe:	84 81       	ldd	r24, Z+4	; 0x04
     400:	95 81       	ldd	r25, Z+5	; 0x05
     402:	28 17       	cp	r18, r24
     404:	39 07       	cpc	r19, r25
     406:	00 f0       	brcs	.+0      	; 0x408 <_ZNK6String8getBytesEPhjj+0x22>
     408:	fb 01       	movw	r30, r22
     40a:	10 82       	st	Z, r1
     40c:	00 c0       	rjmp	.+0      	; 0x40e <_ZNK6String8getBytesEPhjj+0x28>
     40e:	41 50       	subi	r20, 0x01	; 1
     410:	50 40       	sbci	r21, 0x00	; 0
     412:	ec 01       	movw	r28, r24
     414:	c2 1b       	sub	r28, r18
     416:	d3 0b       	sbc	r29, r19
     418:	4c 17       	cp	r20, r28
     41a:	5d 07       	cpc	r21, r29
     41c:	00 f4       	brcc	.+0      	; 0x41e <_ZNK6String8getBytesEPhjj+0x38>
     41e:	ea 01       	movw	r28, r20
     420:	60 81       	ld	r22, Z
     422:	71 81       	ldd	r23, Z+1	; 0x01
     424:	62 0f       	add	r22, r18
     426:	73 1f       	adc	r23, r19
     428:	c8 01       	movw	r24, r16
     42a:	ae 01       	movw	r20, r28
     42c:	0e 94 00 00 	call	0	; 0x0 <_ZNK6String6charAtEj>
     430:	c0 0f       	add	r28, r16
     432:	d1 1f       	adc	r29, r17
     434:	18 82       	st	Y, r1
     436:	df 91       	pop	r29
     438:	cf 91       	pop	r28
     43a:	1f 91       	pop	r17
     43c:	0f 91       	pop	r16
     43e:	08 95       	ret

00000440 <_ZNK6String8endsWithERKS_>:
     440:	fc 01       	movw	r30, r24
     442:	db 01       	movw	r26, r22
     444:	24 81       	ldd	r18, Z+4	; 0x04
     446:	35 81       	ldd	r19, Z+5	; 0x05
     448:	14 96       	adiw	r26, 0x04	; 4
     44a:	4d 91       	ld	r20, X+
     44c:	5c 91       	ld	r21, X
     44e:	15 97       	sbiw	r26, 0x05	; 5
     450:	24 17       	cp	r18, r20
     452:	35 07       	cpc	r19, r21
     454:	00 f0       	brcs	.+0      	; 0x456 <_ZNK6String8endsWithERKS_+0x16>
     456:	80 81       	ld	r24, Z
     458:	91 81       	ldd	r25, Z+1	; 0x01
     45a:	00 97       	sbiw	r24, 0x00	; 0
     45c:	01 f0       	breq	.+0      	; 0x45e <_ZNK6String8endsWithERKS_+0x1e>
     45e:	6d 91       	ld	r22, X+
     460:	7c 91       	ld	r23, X
     462:	61 15       	cp	r22, r1
     464:	71 05       	cpc	r23, r1
     466:	01 f0       	breq	.+0      	; 0x468 <_ZNK6String8endsWithERKS_+0x28>
     468:	24 1b       	sub	r18, r20
     46a:	35 0b       	sbc	r19, r21
     46c:	82 0f       	add	r24, r18
     46e:	93 1f       	adc	r25, r19
     470:	0e 94 00 00 	call	0	; 0x0 <_ZNK6String6charAtEj>
     474:	9c 01       	movw	r18, r24
     476:	80 e0       	ldi	r24, 0x00	; 0
     478:	23 2b       	or	r18, r19
     47a:	01 f4       	brne	.+0      	; 0x47c <_ZNK6String8endsWithERKS_+0x3c>
     47c:	81 e0       	ldi	r24, 0x01	; 1
     47e:	08 95       	ret
     480:	80 e0       	ldi	r24, 0x00	; 0
     482:	08 95       	ret

00000484 <_ZNK6String6equalsEPKc>:
     484:	dc 01       	movw	r26, r24
     486:	fb 01       	movw	r30, r22
     488:	14 96       	adiw	r26, 0x04	; 4
     48a:	8d 91       	ld	r24, X+
     48c:	9c 91       	ld	r25, X
     48e:	15 97       	sbiw	r26, 0x05	; 5
     490:	89 2b       	or	r24, r25
     492:	01 f4       	brne	.+0      	; 0x494 <_ZNK6String6equalsEPKc+0x10>
     494:	61 15       	cp	r22, r1
     496:	71 05       	cpc	r23, r1
     498:	01 f0       	breq	.+0      	; 0x49a <_ZNK6String6equalsEPKc+0x16>
     49a:	90 e0       	ldi	r25, 0x00	; 0
     49c:	80 81       	ld	r24, Z
     49e:	00 c0       	rjmp	.+0      	; 0x4a0 <_ZNK6String6equalsEPKc+0x1c>
     4a0:	0d 90       	ld	r0, X+
     4a2:	bc 91       	ld	r27, X
     4a4:	a0 2d       	mov	r26, r0
     4a6:	61 15       	cp	r22, r1
     4a8:	71 05       	cpc	r23, r1
     4aa:	01 f4       	brne	.+0      	; 0x4ac <_ZNK6String6equalsEPKc+0x28>
     4ac:	90 e0       	ldi	r25, 0x00	; 0
     4ae:	8c 91       	ld	r24, X
     4b0:	88 23       	and	r24, r24
     4b2:	01 f4       	brne	.+0      	; 0x4b4 <_ZNK6String6equalsEPKc+0x30>
     4b4:	00 c0       	rjmp	.+0      	; 0x4b6 <_ZNK6String6equalsEPKc+0x32>
     4b6:	cd 01       	movw	r24, r26
     4b8:	0e 94 00 00 	call	0	; 0x0 <_ZNK6String6charAtEj>
     4bc:	9c 01       	movw	r18, r24
     4be:	90 e0       	ldi	r25, 0x00	; 0
     4c0:	23 2b       	or	r18, r19
     4c2:	01 f4       	brne	.+0      	; 0x4c4 <_ZNK6String6equalsEPKc+0x40>
     4c4:	91 e0       	ldi	r25, 0x01	; 1
     4c6:	89 2f       	mov	r24, r25
     4c8:	08 95       	ret

000004ca <_ZNK6String9compareToERKS_>:
     4ca:	cf 93       	push	r28
     4cc:	df 93       	push	r29
     4ce:	9c 01       	movw	r18, r24
     4d0:	fb 01       	movw	r30, r22
     4d2:	ec 01       	movw	r28, r24
     4d4:	a8 81       	ld	r26, Y
     4d6:	b9 81       	ldd	r27, Y+1	; 0x01
     4d8:	10 97       	sbiw	r26, 0x00	; 0
     4da:	01 f0       	breq	.+0      	; 0x4dc <_ZNK6String9compareToERKS_+0x12>
     4dc:	60 81       	ld	r22, Z
     4de:	71 81       	ldd	r23, Z+1	; 0x01
     4e0:	61 15       	cp	r22, r1
     4e2:	71 05       	cpc	r23, r1
     4e4:	01 f4       	brne	.+0      	; 0x4e6 <_ZNK6String9compareToERKS_+0x1c>
     4e6:	c0 81       	ld	r28, Z
     4e8:	d1 81       	ldd	r29, Z+1	; 0x01
     4ea:	20 97       	sbiw	r28, 0x00	; 0
     4ec:	01 f0       	breq	.+0      	; 0x4ee <_ZNK6String9compareToERKS_+0x24>
     4ee:	84 81       	ldd	r24, Z+4	; 0x04
     4f0:	95 81       	ldd	r25, Z+5	; 0x05
     4f2:	89 2b       	or	r24, r25
     4f4:	01 f0       	breq	.+0      	; 0x4f6 <_ZNK6String9compareToERKS_+0x2c>
     4f6:	88 81       	ld	r24, Y
     4f8:	90 e0       	ldi	r25, 0x00	; 0
     4fa:	22 27       	eor	r18, r18
     4fc:	33 27       	eor	r19, r19
     4fe:	28 1b       	sub	r18, r24
     500:	39 0b       	sbc	r19, r25
     502:	00 c0       	rjmp	.+0      	; 0x504 <_ZNK6String9compareToERKS_+0x3a>
     504:	10 97       	sbiw	r26, 0x00	; 0
     506:	01 f0       	breq	.+0      	; 0x508 <_ZNK6String9compareToERKS_+0x3e>
     508:	f9 01       	movw	r30, r18
     50a:	84 81       	ldd	r24, Z+4	; 0x04
     50c:	95 81       	ldd	r25, Z+5	; 0x05
     50e:	89 2b       	or	r24, r25
     510:	01 f0       	breq	.+0      	; 0x512 <_ZNK6String9compareToERKS_+0x48>
     512:	8c 91       	ld	r24, X
     514:	28 2f       	mov	r18, r24
     516:	30 e0       	ldi	r19, 0x00	; 0
     518:	00 c0       	rjmp	.+0      	; 0x51a <_ZNK6String9compareToERKS_+0x50>
     51a:	cd 01       	movw	r24, r26
     51c:	0e 94 00 00 	call	0	; 0x0 <_ZNK6String6charAtEj>
     520:	9c 01       	movw	r18, r24
     522:	00 c0       	rjmp	.+0      	; 0x524 <_ZNK6String9compareToERKS_+0x5a>
     524:	20 e0       	ldi	r18, 0x00	; 0
     526:	30 e0       	ldi	r19, 0x00	; 0
     528:	c9 01       	movw	r24, r18
     52a:	df 91       	pop	r29
     52c:	cf 91       	pop	r28
     52e:	08 95       	ret

00000530 <_ZNK6StringgeERKS_>:
     530:	0e 94 00 00 	call	0	; 0x0 <_ZNK6String6charAtEj>
     534:	89 2f       	mov	r24, r25
     536:	80 95       	com	r24
     538:	88 1f       	adc	r24, r24
     53a:	88 27       	eor	r24, r24
     53c:	88 1f       	adc	r24, r24
     53e:	08 95       	ret

00000540 <_ZNK6StringleERKS_>:
     540:	0e 94 00 00 	call	0	; 0x0 <_ZNK6String6charAtEj>
     544:	20 e0       	ldi	r18, 0x00	; 0
     546:	18 16       	cp	r1, r24
     548:	19 06       	cpc	r1, r25
     54a:	04 f0       	brlt	.+0      	; 0x54c <_ZNK6StringleERKS_+0xc>
     54c:	21 e0       	ldi	r18, 0x01	; 1
     54e:	82 2f       	mov	r24, r18
     550:	08 95       	ret

00000552 <_ZNK6StringgtERKS_>:
     552:	0e 94 00 00 	call	0	; 0x0 <_ZNK6String6charAtEj>
     556:	20 e0       	ldi	r18, 0x00	; 0
     558:	18 16       	cp	r1, r24
     55a:	19 06       	cpc	r1, r25
     55c:	04 f4       	brge	.+0      	; 0x55e <_ZNK6StringgtERKS_+0xc>
     55e:	21 e0       	ldi	r18, 0x01	; 1
     560:	82 2f       	mov	r24, r18
     562:	08 95       	ret

00000564 <_ZNK6StringltERKS_>:
     564:	0e 94 00 00 	call	0	; 0x0 <_ZNK6String6charAtEj>
     568:	89 2f       	mov	r24, r25
     56a:	88 1f       	adc	r24, r24
     56c:	88 27       	eor	r24, r24
     56e:	88 1f       	adc	r24, r24
     570:	08 95       	ret

00000572 <_ZNK6String6equalsERKS_>:
     572:	fc 01       	movw	r30, r24
     574:	db 01       	movw	r26, r22
     576:	24 81       	ldd	r18, Z+4	; 0x04
     578:	35 81       	ldd	r19, Z+5	; 0x05
     57a:	14 96       	adiw	r26, 0x04	; 4
     57c:	8d 91       	ld	r24, X+
     57e:	9c 91       	ld	r25, X
     580:	15 97       	sbiw	r26, 0x05	; 5
     582:	28 17       	cp	r18, r24
     584:	39 07       	cpc	r19, r25
     586:	01 f0       	breq	.+0      	; 0x588 <_ZNK6String6equalsERKS_+0x16>
     588:	20 e0       	ldi	r18, 0x00	; 0
     58a:	00 c0       	rjmp	.+0      	; 0x58c <_ZNK6String6equalsERKS_+0x1a>
     58c:	cf 01       	movw	r24, r30
     58e:	0e 94 00 00 	call	0	; 0x0 <_ZNK6String6charAtEj>
     592:	20 e0       	ldi	r18, 0x00	; 0
     594:	89 2b       	or	r24, r25
     596:	01 f4       	brne	.+0      	; 0x598 <_ZNK6String6equalsERKS_+0x26>
     598:	21 e0       	ldi	r18, 0x01	; 1
     59a:	82 2f       	mov	r24, r18
     59c:	08 95       	ret

0000059e <_ZNK6String10startsWithERKS_j>:
     59e:	fc 01       	movw	r30, r24
     5a0:	db 01       	movw	r26, r22
     5a2:	14 96       	adiw	r26, 0x04	; 4
     5a4:	2d 91       	ld	r18, X+
     5a6:	3c 91       	ld	r19, X
     5a8:	15 97       	sbiw	r26, 0x05	; 5
     5aa:	84 81       	ldd	r24, Z+4	; 0x04
     5ac:	95 81       	ldd	r25, Z+5	; 0x05
     5ae:	82 1b       	sub	r24, r18
     5b0:	93 0b       	sbc	r25, r19
     5b2:	84 17       	cp	r24, r20
     5b4:	95 07       	cpc	r25, r21
     5b6:	00 f0       	brcs	.+0      	; 0x5b8 <_ZNK6String10startsWithERKS_j+0x1a>
     5b8:	80 81       	ld	r24, Z
     5ba:	91 81       	ldd	r25, Z+1	; 0x01
     5bc:	00 97       	sbiw	r24, 0x00	; 0
     5be:	01 f0       	breq	.+0      	; 0x5c0 <_ZNK6String10startsWithERKS_j+0x22>
     5c0:	6d 91       	ld	r22, X+
     5c2:	7c 91       	ld	r23, X
     5c4:	61 15       	cp	r22, r1
     5c6:	71 05       	cpc	r23, r1
     5c8:	01 f0       	breq	.+0      	; 0x5ca <_ZNK6String10startsWithERKS_j+0x2c>
     5ca:	84 0f       	add	r24, r20
     5cc:	95 1f       	adc	r25, r21
     5ce:	a9 01       	movw	r20, r18
     5d0:	0e 94 00 00 	call	0	; 0x0 <_ZNK6String6charAtEj>
     5d4:	9c 01       	movw	r18, r24
     5d6:	80 e0       	ldi	r24, 0x00	; 0
     5d8:	23 2b       	or	r18, r19
     5da:	01 f4       	brne	.+0      	; 0x5dc <_ZNK6String10startsWithERKS_j+0x3e>
     5dc:	81 e0       	ldi	r24, 0x01	; 1
     5de:	08 95       	ret
     5e0:	80 e0       	ldi	r24, 0x00	; 0
     5e2:	08 95       	ret

000005e4 <_ZNK6String10startsWithERKS_>:
     5e4:	fc 01       	movw	r30, r24
     5e6:	db 01       	movw	r26, r22
     5e8:	24 81       	ldd	r18, Z+4	; 0x04
     5ea:	35 81       	ldd	r19, Z+5	; 0x05
     5ec:	14 96       	adiw	r26, 0x04	; 4
     5ee:	8d 91       	ld	r24, X+
     5f0:	9c 91       	ld	r25, X
     5f2:	15 97       	sbiw	r26, 0x05	; 5
     5f4:	28 17       	cp	r18, r24
     5f6:	39 07       	cpc	r19, r25
     5f8:	00 f4       	brcc	.+0      	; 0x5fa <_ZNK6String10startsWithERKS_+0x16>
     5fa:	80 e0       	ldi	r24, 0x00	; 0
     5fc:	08 95       	ret
     5fe:	cf 01       	movw	r24, r30
     600:	40 e0       	ldi	r20, 0x00	; 0
     602:	50 e0       	ldi	r21, 0x00	; 0
     604:	0e 94 00 00 	call	0	; 0x0 <_ZNK6String6charAtEj>
     608:	08 95       	ret

0000060a <_ZN6String12changeBufferEj>:
     60a:	0f 93       	push	r16
     60c:	1f 93       	push	r17
     60e:	cf 93       	push	r28
     610:	df 93       	push	r29
     612:	ec 01       	movw	r28, r24
     614:	8b 01       	movw	r16, r22
     616:	6f 5f       	subi	r22, 0xFF	; 255
     618:	7f 4f       	sbci	r23, 0xFF	; 255
     61a:	88 81       	ld	r24, Y
     61c:	99 81       	ldd	r25, Y+1	; 0x01
     61e:	0e 94 00 00 	call	0	; 0x0 <_ZNK6String6charAtEj>
     622:	00 97       	sbiw	r24, 0x00	; 0
     624:	01 f4       	brne	.+0      	; 0x626 <_ZN6String12changeBufferEj+0x1c>
     626:	80 e0       	ldi	r24, 0x00	; 0
     628:	00 c0       	rjmp	.+0      	; 0x62a <_ZN6String12changeBufferEj+0x20>
     62a:	99 83       	std	Y+1, r25	; 0x01
     62c:	88 83       	st	Y, r24
     62e:	1b 83       	std	Y+3, r17	; 0x03
     630:	0a 83       	std	Y+2, r16	; 0x02
     632:	81 e0       	ldi	r24, 0x01	; 1
     634:	df 91       	pop	r29
     636:	cf 91       	pop	r28
     638:	1f 91       	pop	r17
     63a:	0f 91       	pop	r16
     63c:	08 95       	ret

0000063e <_ZN6String7replaceERKS_S1_>:
     63e:	2f 92       	push	r2
     640:	3f 92       	push	r3
     642:	4f 92       	push	r4
     644:	5f 92       	push	r5
     646:	6f 92       	push	r6
     648:	7f 92       	push	r7
     64a:	8f 92       	push	r8
     64c:	9f 92       	push	r9
     64e:	af 92       	push	r10
     650:	bf 92       	push	r11
     652:	cf 92       	push	r12
     654:	df 92       	push	r13
     656:	ef 92       	push	r14
     658:	ff 92       	push	r15
     65a:	0f 93       	push	r16
     65c:	1f 93       	push	r17
     65e:	cf 93       	push	r28
     660:	df 93       	push	r29
     662:	5c 01       	movw	r10, r24
     664:	2b 01       	movw	r4, r22
     666:	4a 01       	movw	r8, r20
     668:	dc 01       	movw	r26, r24
     66a:	14 96       	adiw	r26, 0x04	; 4
     66c:	0d 91       	ld	r16, X+
     66e:	1c 91       	ld	r17, X
     670:	15 97       	sbiw	r26, 0x05	; 5
     672:	01 15       	cp	r16, r1
     674:	11 05       	cpc	r17, r1
     676:	01 f4       	brne	.+0      	; 0x678 <_ZN6String7replaceERKS_S1_+0x3a>
     678:	00 c0       	rjmp	.+0      	; 0x67a <_ZN6String7replaceERKS_S1_+0x3c>
     67a:	fb 01       	movw	r30, r22
     67c:	c4 80       	ldd	r12, Z+4	; 0x04
     67e:	d5 80       	ldd	r13, Z+5	; 0x05
     680:	c1 14       	cp	r12, r1
     682:	d1 04       	cpc	r13, r1
     684:	01 f4       	brne	.+0      	; 0x686 <_ZN6String7replaceERKS_S1_+0x48>
     686:	00 c0       	rjmp	.+0      	; 0x688 <_ZN6String7replaceERKS_S1_+0x4a>
     688:	da 01       	movw	r26, r20
     68a:	14 96       	adiw	r26, 0x04	; 4
     68c:	6d 90       	ld	r6, X+
     68e:	7c 90       	ld	r7, X
     690:	15 97       	sbiw	r26, 0x05	; 5
     692:	6c 18       	sub	r6, r12
     694:	7d 08       	sbc	r7, r13
     696:	fc 01       	movw	r30, r24
     698:	e0 80       	ld	r14, Z
     69a:	f1 80       	ldd	r15, Z+1	; 0x01
     69c:	61 14       	cp	r6, r1
     69e:	71 04       	cpc	r7, r1
     6a0:	01 f0       	breq	.+0      	; 0x6a2 <_ZN6String7replaceERKS_S1_+0x64>
     6a2:	00 c0       	rjmp	.+0      	; 0x6a4 <_ZN6String7replaceERKS_S1_+0x66>
     6a4:	d4 01       	movw	r26, r8
     6a6:	6c 91       	ld	r22, X
     6a8:	11 96       	adiw	r26, 0x01	; 1
     6aa:	7c 91       	ld	r23, X
     6ac:	11 97       	sbiw	r26, 0x01	; 1
     6ae:	14 96       	adiw	r26, 0x04	; 4
     6b0:	4d 91       	ld	r20, X+
     6b2:	5c 91       	ld	r21, X
     6b4:	15 97       	sbiw	r26, 0x05	; 5
     6b6:	8c 2f       	mov	r24, r28
     6b8:	0e 94 00 00 	call	0	; 0x0 <_ZNK6String6charAtEj>
     6bc:	f4 01       	movw	r30, r8
     6be:	e4 80       	ldd	r14, Z+4	; 0x04
     6c0:	f5 80       	ldd	r15, Z+5	; 0x05
     6c2:	ec 0e       	add	r14, r28
     6c4:	fd 1e       	adc	r15, r29
     6c6:	d2 01       	movw	r26, r4
     6c8:	6d 91       	ld	r22, X+
     6ca:	7c 91       	ld	r23, X
     6cc:	c7 01       	movw	r24, r14
     6ce:	0e 94 00 00 	call	0	; 0x0 <_ZNK6String6charAtEj>
     6d2:	ec 01       	movw	r28, r24
     6d4:	00 97       	sbiw	r24, 0x00	; 0
     6d6:	01 f4       	brne	.+0      	; 0x6d8 <_ZN6String7replaceERKS_S1_+0x9a>
     6d8:	00 c0       	rjmp	.+0      	; 0x6da <_ZN6String7replaceERKS_S1_+0x9c>
     6da:	77 fe       	sbrs	r7, 7
     6dc:	00 c0       	rjmp	.+0      	; 0x6de <_ZN6String7replaceERKS_S1_+0xa0>
     6de:	67 01       	movw	r12, r14
     6e0:	00 c0       	rjmp	.+0      	; 0x6e2 <_ZN6String7replaceERKS_S1_+0xa4>
     6e2:	fb 01       	movw	r30, r22
     6e4:	20 80       	ld	r2, Z
     6e6:	31 80       	ldd	r3, Z+1	; 0x01
     6e8:	e8 01       	movw	r28, r16
     6ea:	00 c0       	rjmp	.+0      	; 0x6ec <_ZN6String7replaceERKS_S1_+0xae>
     6ec:	8e 01       	movw	r16, r28
     6ee:	0e 19       	sub	r16, r14
     6f0:	1f 09       	sbc	r17, r15
     6f2:	c6 01       	movw	r24, r12
     6f4:	b7 01       	movw	r22, r14
     6f6:	a8 01       	movw	r20, r16
     6f8:	0e 94 00 00 	call	0	; 0x0 <_ZNK6String6charAtEj>
     6fc:	0c 0d       	add	r16, r12
     6fe:	1d 1d       	adc	r17, r13
     700:	d4 01       	movw	r26, r8
     702:	6c 91       	ld	r22, X
     704:	11 96       	adiw	r26, 0x01	; 1
     706:	7c 91       	ld	r23, X
     708:	11 97       	sbiw	r26, 0x01	; 1
     70a:	14 96       	adiw	r26, 0x04	; 4
     70c:	4d 91       	ld	r20, X+
     70e:	5c 91       	ld	r21, X
     710:	15 97       	sbiw	r26, 0x05	; 5
     712:	c8 01       	movw	r24, r16
     714:	0e 94 00 00 	call	0	; 0x0 <_ZNK6String6charAtEj>
     718:	f4 01       	movw	r30, r8
     71a:	c4 80       	ldd	r12, Z+4	; 0x04
     71c:	d5 80       	ldd	r13, Z+5	; 0x05
     71e:	c0 0e       	add	r12, r16
     720:	d1 1e       	adc	r13, r17
     722:	d2 01       	movw	r26, r4
     724:	14 96       	adiw	r26, 0x04	; 4
     726:	ed 90       	ld	r14, X+
     728:	fc 90       	ld	r15, X
     72a:	15 97       	sbiw	r26, 0x05	; 5
     72c:	ec 0e       	add	r14, r28
     72e:	fd 1e       	adc	r15, r29
     730:	f5 01       	movw	r30, r10
     732:	84 81       	ldd	r24, Z+4	; 0x04
     734:	95 81       	ldd	r25, Z+5	; 0x05
     736:	86 0d       	add	r24, r6
     738:	97 1d       	adc	r25, r7
     73a:	95 83       	std	Z+5, r25	; 0x05
     73c:	84 83       	std	Z+4, r24	; 0x04
     73e:	d2 01       	movw	r26, r4
     740:	6d 91       	ld	r22, X+
     742:	7c 91       	ld	r23, X
     744:	c7 01       	movw	r24, r14
     746:	0e 94 00 00 	call	0	; 0x0 <_ZNK6String6charAtEj>
     74a:	ec 01       	movw	r28, r24
     74c:	00 97       	sbiw	r24, 0x00	; 0
     74e:	01 f4       	brne	.+0      	; 0x750 <_ZN6String7replaceERKS_S1_+0x112>
     750:	c6 01       	movw	r24, r12
     752:	b7 01       	movw	r22, r14
     754:	0e 94 00 00 	call	0	; 0x0 <_ZNK6String6charAtEj>
     758:	00 c0       	rjmp	.+0      	; 0x75a <_ZN6String7replaceERKS_S1_+0x11c>
     75a:	7b 01       	movw	r14, r22
     75c:	ec 0c       	add	r14, r12
     75e:	fd 1c       	adc	r15, r13
     760:	c6 0d       	add	r28, r6
     762:	d7 1d       	adc	r29, r7
     764:	c7 01       	movw	r24, r14
     766:	b1 01       	movw	r22, r2
     768:	0e 94 00 00 	call	0	; 0x0 <_ZNK6String6charAtEj>
     76c:	bc 01       	movw	r22, r24
     76e:	00 97       	sbiw	r24, 0x00	; 0
     770:	01 f4       	brne	.+0      	; 0x772 <_ZN6String7replaceERKS_S1_+0x134>
     772:	c0 17       	cp	r28, r16
     774:	d1 07       	cpc	r29, r17
     776:	01 f4       	brne	.+0      	; 0x778 <_ZN6String7replaceERKS_S1_+0x13a>
     778:	00 c0       	rjmp	.+0      	; 0x77a <_ZN6String7replaceERKS_S1_+0x13c>
     77a:	f5 01       	movw	r30, r10
     77c:	82 81       	ldd	r24, Z+2	; 0x02
     77e:	93 81       	ldd	r25, Z+3	; 0x03
     780:	8c 17       	cp	r24, r28
     782:	9d 07       	cpc	r25, r29
     784:	00 f0       	brcs	.+0      	; 0x786 <_ZN6String7replaceERKS_S1_+0x148>
     786:	00 c0       	rjmp	.+0      	; 0x788 <_ZN6String7replaceERKS_S1_+0x14a>
     788:	c5 01       	movw	r24, r10
     78a:	be 01       	movw	r22, r28
     78c:	0e 94 00 00 	call	0	; 0x0 <_ZNK6String6charAtEj>
     790:	88 23       	and	r24, r24
     792:	01 f4       	brne	.+0      	; 0x794 <_ZN6String7replaceERKS_S1_+0x156>
     794:	00 c0       	rjmp	.+0      	; 0x796 <_ZN6String7replaceERKS_S1_+0x158>
     796:	c5 01       	movw	r24, r10
     798:	b2 01       	movw	r22, r4
     79a:	a9 01       	movw	r20, r18
     79c:	0e 94 00 00 	call	0	; 0x0 <_ZNK6String6charAtEj>
     7a0:	ec 01       	movw	r28, r24
     7a2:	97 fd       	sbrc	r25, 7
     7a4:	00 c0       	rjmp	.+0      	; 0x7a6 <_ZN6String7replaceERKS_S1_+0x168>
     7a6:	d5 01       	movw	r26, r10
     7a8:	6d 91       	ld	r22, X+
     7aa:	7c 91       	ld	r23, X
     7ac:	11 97       	sbiw	r26, 0x01	; 1
     7ae:	f2 01       	movw	r30, r4
     7b0:	84 81       	ldd	r24, Z+4	; 0x04
     7b2:	95 81       	ldd	r25, Z+5	; 0x05
     7b4:	8c 0f       	add	r24, r28
     7b6:	9d 1f       	adc	r25, r29
     7b8:	68 0f       	add	r22, r24
     7ba:	79 1f       	adc	r23, r25
     7bc:	14 96       	adiw	r26, 0x04	; 4
     7be:	4d 91       	ld	r20, X+
     7c0:	5c 91       	ld	r21, X
     7c2:	15 97       	sbiw	r26, 0x05	; 5
     7c4:	48 1b       	sub	r20, r24
     7c6:	59 0b       	sbc	r21, r25
     7c8:	cb 01       	movw	r24, r22
     7ca:	86 0d       	add	r24, r6
     7cc:	97 1d       	adc	r25, r7
     7ce:	0e 94 00 00 	call	0	; 0x0 <_ZNK6String6charAtEj>
     7d2:	d5 01       	movw	r26, r10
     7d4:	14 96       	adiw	r26, 0x04	; 4
     7d6:	8d 91       	ld	r24, X+
     7d8:	9c 91       	ld	r25, X
     7da:	15 97       	sbiw	r26, 0x05	; 5
     7dc:	86 0d       	add	r24, r6
     7de:	97 1d       	adc	r25, r7
     7e0:	15 96       	adiw	r26, 0x05	; 5
     7e2:	9c 93       	st	X, r25
     7e4:	8e 93       	st	-X, r24
     7e6:	14 97       	sbiw	r26, 0x04	; 4
     7e8:	ed 91       	ld	r30, X+
     7ea:	fc 91       	ld	r31, X
     7ec:	11 97       	sbiw	r26, 0x01	; 1
     7ee:	e8 0f       	add	r30, r24
     7f0:	f9 1f       	adc	r31, r25
     7f2:	10 82       	st	Z, r1
     7f4:	2d 91       	ld	r18, X+
     7f6:	3c 91       	ld	r19, X
     7f8:	2c 0f       	add	r18, r28
     7fa:	3d 1f       	adc	r19, r29
     7fc:	f4 01       	movw	r30, r8
     7fe:	60 81       	ld	r22, Z
     800:	71 81       	ldd	r23, Z+1	; 0x01
     802:	44 81       	ldd	r20, Z+4	; 0x04
     804:	55 81       	ldd	r21, Z+5	; 0x05
     806:	c9 01       	movw	r24, r18
     808:	0e 94 00 00 	call	0	; 0x0 <_ZNK6String6charAtEj>
     80c:	9e 01       	movw	r18, r28
     80e:	00 c0       	rjmp	.+0      	; 0x810 <_ZN6String7replaceERKS_S1_+0x1d2>
     810:	d5 01       	movw	r26, r10
     812:	14 96       	adiw	r26, 0x04	; 4
     814:	2d 91       	ld	r18, X+
     816:	3c 91       	ld	r19, X
     818:	15 97       	sbiw	r26, 0x05	; 5
     81a:	21 50       	subi	r18, 0x01	; 1
     81c:	30 40       	sbci	r19, 0x00	; 0
     81e:	37 ff       	sbrs	r19, 7
     820:	00 c0       	rjmp	.+0      	; 0x822 <_ZN6String7replaceERKS_S1_+0x1e4>
     822:	df 91       	pop	r29
     824:	cf 91       	pop	r28
     826:	1f 91       	pop	r17
     828:	0f 91       	pop	r16
     82a:	ff 90       	pop	r15
     82c:	ef 90       	pop	r14
     82e:	df 90       	pop	r13
     830:	cf 90       	pop	r12
     832:	bf 90       	pop	r11
     834:	af 90       	pop	r10
     836:	9f 90       	pop	r9
     838:	8f 90       	pop	r8
     83a:	7f 90       	pop	r7
     83c:	6f 90       	pop	r6
     83e:	5f 90       	pop	r5
     840:	4f 90       	pop	r4
     842:	3f 90       	pop	r3
     844:	2f 90       	pop	r2
     846:	08 95       	ret

00000848 <_ZN6String7reserveEj>:
     848:	cf 93       	push	r28
     84a:	df 93       	push	r29
     84c:	ec 01       	movw	r28, r24
     84e:	88 81       	ld	r24, Y
     850:	99 81       	ldd	r25, Y+1	; 0x01
     852:	89 2b       	or	r24, r25
     854:	01 f0       	breq	.+0      	; 0x856 <_ZN6String7reserveEj+0xe>
     856:	8a 81       	ldd	r24, Y+2	; 0x02
     858:	9b 81       	ldd	r25, Y+3	; 0x03
     85a:	86 17       	cp	r24, r22
     85c:	97 07       	cpc	r25, r23
     85e:	00 f4       	brcc	.+0      	; 0x860 <_ZN6String7reserveEj+0x18>
     860:	ce 01       	movw	r24, r28
     862:	0e 94 00 00 	call	0	; 0x0 <_ZNK6String6charAtEj>
     866:	88 23       	and	r24, r24
     868:	01 f0       	breq	.+0      	; 0x86a <_ZN6String7reserveEj+0x22>
     86a:	8c 81       	ldd	r24, Y+4	; 0x04
     86c:	9d 81       	ldd	r25, Y+5	; 0x05
     86e:	89 2b       	or	r24, r25
     870:	01 f4       	brne	.+0      	; 0x872 <_ZN6String7reserveEj+0x2a>
     872:	e8 81       	ld	r30, Y
     874:	f9 81       	ldd	r31, Y+1	; 0x01
     876:	10 82       	st	Z, r1
     878:	81 e0       	ldi	r24, 0x01	; 1
     87a:	df 91       	pop	r29
     87c:	cf 91       	pop	r28
     87e:	08 95       	ret

00000880 <_ZN6String6concatEPKcj>:
     880:	ef 92       	push	r14
     882:	ff 92       	push	r15
     884:	0f 93       	push	r16
     886:	1f 93       	push	r17
     888:	cf 93       	push	r28
     88a:	df 93       	push	r29
     88c:	ec 01       	movw	r28, r24
     88e:	7b 01       	movw	r14, r22
     890:	6c 81       	ldd	r22, Y+4	; 0x04
     892:	7d 81       	ldd	r23, Y+5	; 0x05
     894:	e1 14       	cp	r14, r1
     896:	f1 04       	cpc	r15, r1
     898:	01 f0       	breq	.+0      	; 0x89a <_ZN6String6concatEPKcj+0x1a>
     89a:	41 15       	cp	r20, r1
     89c:	51 05       	cpc	r21, r1
     89e:	01 f0       	breq	.+0      	; 0x8a0 <_ZN6String6concatEPKcj+0x20>
     8a0:	8a 01       	movw	r16, r20
     8a2:	06 0f       	add	r16, r22
     8a4:	17 1f       	adc	r17, r23
     8a6:	b8 01       	movw	r22, r16
     8a8:	0e 94 00 00 	call	0	; 0x0 <_ZNK6String6charAtEj>
     8ac:	88 23       	and	r24, r24
     8ae:	01 f0       	breq	.+0      	; 0x8b0 <_ZN6String6concatEPKcj+0x30>
     8b0:	88 81       	ld	r24, Y
     8b2:	99 81       	ldd	r25, Y+1	; 0x01
     8b4:	2c 81       	ldd	r18, Y+4	; 0x04
     8b6:	3d 81       	ldd	r19, Y+5	; 0x05
     8b8:	82 0f       	add	r24, r18
     8ba:	93 1f       	adc	r25, r19
     8bc:	b7 01       	movw	r22, r14
     8be:	0e 94 00 00 	call	0	; 0x0 <_ZNK6String6charAtEj>
     8c2:	1d 83       	std	Y+5, r17	; 0x05
     8c4:	0c 83       	std	Y+4, r16	; 0x04
     8c6:	81 e0       	ldi	r24, 0x01	; 1
     8c8:	00 c0       	rjmp	.+0      	; 0x8ca <_ZN6String6concatEPKcj+0x4a>
     8ca:	80 e0       	ldi	r24, 0x00	; 0
     8cc:	df 91       	pop	r29
     8ce:	cf 91       	pop	r28
     8d0:	1f 91       	pop	r17
     8d2:	0f 91       	pop	r16
     8d4:	ff 90       	pop	r15
     8d6:	ef 90       	pop	r14
     8d8:	08 95       	ret

000008da <_ZN6String6concatEm>:
     8da:	ef 92       	push	r14
     8dc:	ff 92       	push	r15
     8de:	0f 93       	push	r16
     8e0:	1f 93       	push	r17
     8e2:	df 93       	push	r29
     8e4:	cf 93       	push	r28
     8e6:	cd b7       	in	r28, 0x3d	; 61
     8e8:	de b7       	in	r29, 0x3e	; 62
     8ea:	2b 97       	sbiw	r28, 0x0b	; 11
     8ec:	0f b6       	in	r0, 0x3f	; 63
     8ee:	f8 94       	cli
     8f0:	de bf       	out	0x3e, r29	; 62
     8f2:	0f be       	out	0x3f, r0	; 63
     8f4:	cd bf       	out	0x3d, r28	; 61
     8f6:	7c 01       	movw	r14, r24
     8f8:	cb 01       	movw	r24, r22
     8fa:	ba 01       	movw	r22, r20
     8fc:	8e 01       	movw	r16, r28
     8fe:	0f 5f       	subi	r16, 0xFF	; 255
     900:	1f 4f       	sbci	r17, 0xFF	; 255
     902:	a8 01       	movw	r20, r16
     904:	2a e0       	ldi	r18, 0x0A	; 10
     906:	30 e0       	ldi	r19, 0x00	; 0
     908:	0e 94 00 00 	call	0	; 0x0 <_ZNK6String6charAtEj>
     90c:	f8 01       	movw	r30, r16
     90e:	01 90       	ld	r0, Z+
     910:	00 20       	and	r0, r0
     912:	01 f4       	brne	.+0      	; 0x914 <_ZN6String6concatEm+0x3a>
     914:	31 97       	sbiw	r30, 0x01	; 1
     916:	e0 1b       	sub	r30, r16
     918:	f1 0b       	sbc	r31, r17
     91a:	c7 01       	movw	r24, r14
     91c:	b8 01       	movw	r22, r16
     91e:	af 01       	movw	r20, r30
     920:	0e 94 00 00 	call	0	; 0x0 <_ZNK6String6charAtEj>
     924:	2b 96       	adiw	r28, 0x0b	; 11
     926:	0f b6       	in	r0, 0x3f	; 63
     928:	f8 94       	cli
     92a:	de bf       	out	0x3e, r29	; 62
     92c:	0f be       	out	0x3f, r0	; 63
     92e:	cd bf       	out	0x3d, r28	; 61
     930:	cf 91       	pop	r28
     932:	df 91       	pop	r29
     934:	1f 91       	pop	r17
     936:	0f 91       	pop	r16
     938:	ff 90       	pop	r15
     93a:	ef 90       	pop	r14
     93c:	08 95       	ret

0000093e <_ZN6String6concatEl>:
     93e:	ef 92       	push	r14
     940:	ff 92       	push	r15
     942:	0f 93       	push	r16
     944:	1f 93       	push	r17
     946:	df 93       	push	r29
     948:	cf 93       	push	r28
     94a:	cd b7       	in	r28, 0x3d	; 61
     94c:	de b7       	in	r29, 0x3e	; 62
     94e:	2c 97       	sbiw	r28, 0x0c	; 12
     950:	0f b6       	in	r0, 0x3f	; 63
     952:	f8 94       	cli
     954:	de bf       	out	0x3e, r29	; 62
     956:	0f be       	out	0x3f, r0	; 63
     958:	cd bf       	out	0x3d, r28	; 61
     95a:	7c 01       	movw	r14, r24
     95c:	cb 01       	movw	r24, r22
     95e:	ba 01       	movw	r22, r20
     960:	8e 01       	movw	r16, r28
     962:	0f 5f       	subi	r16, 0xFF	; 255
     964:	1f 4f       	sbci	r17, 0xFF	; 255
     966:	a8 01       	movw	r20, r16
     968:	2a e0       	ldi	r18, 0x0A	; 10
     96a:	30 e0       	ldi	r19, 0x00	; 0
     96c:	0e 94 00 00 	call	0	; 0x0 <_ZNK6String6charAtEj>
     970:	f8 01       	movw	r30, r16
     972:	01 90       	ld	r0, Z+
     974:	00 20       	and	r0, r0
     976:	01 f4       	brne	.+0      	; 0x978 <_ZN6String6concatEl+0x3a>
     978:	31 97       	sbiw	r30, 0x01	; 1
     97a:	e0 1b       	sub	r30, r16
     97c:	f1 0b       	sbc	r31, r17
     97e:	c7 01       	movw	r24, r14
     980:	b8 01       	movw	r22, r16
     982:	af 01       	movw	r20, r30
     984:	0e 94 00 00 	call	0	; 0x0 <_ZNK6String6charAtEj>
     988:	2c 96       	adiw	r28, 0x0c	; 12
     98a:	0f b6       	in	r0, 0x3f	; 63
     98c:	f8 94       	cli
     98e:	de bf       	out	0x3e, r29	; 62
     990:	0f be       	out	0x3f, r0	; 63
     992:	cd bf       	out	0x3d, r28	; 61
     994:	cf 91       	pop	r28
     996:	df 91       	pop	r29
     998:	1f 91       	pop	r17
     99a:	0f 91       	pop	r16
     99c:	ff 90       	pop	r15
     99e:	ef 90       	pop	r14
     9a0:	08 95       	ret

000009a2 <_ZN6String6concatEj>:
     9a2:	ef 92       	push	r14
     9a4:	ff 92       	push	r15
     9a6:	0f 93       	push	r16
     9a8:	1f 93       	push	r17
     9aa:	df 93       	push	r29
     9ac:	cf 93       	push	r28
     9ae:	00 d0       	rcall	.+0      	; 0x9b0 <_ZN6String6concatEj+0xe>
     9b0:	00 d0       	rcall	.+0      	; 0x9b2 <_ZN6String6concatEj+0x10>
     9b2:	00 d0       	rcall	.+0      	; 0x9b4 <_ZN6String6concatEj+0x12>
     9b4:	cd b7       	in	r28, 0x3d	; 61
     9b6:	de b7       	in	r29, 0x3e	; 62
     9b8:	7c 01       	movw	r14, r24
     9ba:	cb 01       	movw	r24, r22
     9bc:	8e 01       	movw	r16, r28
     9be:	0f 5f       	subi	r16, 0xFF	; 255
     9c0:	1f 4f       	sbci	r17, 0xFF	; 255
     9c2:	b8 01       	movw	r22, r16
     9c4:	4a e0       	ldi	r20, 0x0A	; 10
     9c6:	50 e0       	ldi	r21, 0x00	; 0
     9c8:	0e 94 00 00 	call	0	; 0x0 <_ZNK6String6charAtEj>
     9cc:	f8 01       	movw	r30, r16
     9ce:	01 90       	ld	r0, Z+
     9d0:	00 20       	and	r0, r0
     9d2:	01 f4       	brne	.+0      	; 0x9d4 <_ZN6String6concatEj+0x32>
     9d4:	31 97       	sbiw	r30, 0x01	; 1
     9d6:	e0 1b       	sub	r30, r16
     9d8:	f1 0b       	sbc	r31, r17
     9da:	c7 01       	movw	r24, r14
     9dc:	b8 01       	movw	r22, r16
     9de:	af 01       	movw	r20, r30
     9e0:	0e 94 00 00 	call	0	; 0x0 <_ZNK6String6charAtEj>
     9e4:	26 96       	adiw	r28, 0x06	; 6
     9e6:	0f b6       	in	r0, 0x3f	; 63
     9e8:	f8 94       	cli
     9ea:	de bf       	out	0x3e, r29	; 62
     9ec:	0f be       	out	0x3f, r0	; 63
     9ee:	cd bf       	out	0x3d, r28	; 61
     9f0:	cf 91       	pop	r28
     9f2:	df 91       	pop	r29
     9f4:	1f 91       	pop	r17
     9f6:	0f 91       	pop	r16
     9f8:	ff 90       	pop	r15
     9fa:	ef 90       	pop	r14
     9fc:	08 95       	ret

000009fe <_ZN6String6concatEi>:
     9fe:	ef 92       	push	r14
     a00:	ff 92       	push	r15
     a02:	0f 93       	push	r16
     a04:	1f 93       	push	r17
     a06:	df 93       	push	r29
     a08:	cf 93       	push	r28
     a0a:	cd b7       	in	r28, 0x3d	; 61
     a0c:	de b7       	in	r29, 0x3e	; 62
     a0e:	27 97       	sbiw	r28, 0x07	; 7
     a10:	0f b6       	in	r0, 0x3f	; 63
     a12:	f8 94       	cli
     a14:	de bf       	out	0x3e, r29	; 62
     a16:	0f be       	out	0x3f, r0	; 63
     a18:	cd bf       	out	0x3d, r28	; 61
     a1a:	7c 01       	movw	r14, r24
     a1c:	cb 01       	movw	r24, r22
     a1e:	8e 01       	movw	r16, r28
     a20:	0f 5f       	subi	r16, 0xFF	; 255
     a22:	1f 4f       	sbci	r17, 0xFF	; 255
     a24:	b8 01       	movw	r22, r16
     a26:	4a e0       	ldi	r20, 0x0A	; 10
     a28:	50 e0       	ldi	r21, 0x00	; 0
     a2a:	0e 94 00 00 	call	0	; 0x0 <_ZNK6String6charAtEj>
     a2e:	f8 01       	movw	r30, r16
     a30:	01 90       	ld	r0, Z+
     a32:	00 20       	and	r0, r0
     a34:	01 f4       	brne	.+0      	; 0xa36 <_ZN6String6concatEi+0x38>
     a36:	31 97       	sbiw	r30, 0x01	; 1
     a38:	e0 1b       	sub	r30, r16
     a3a:	f1 0b       	sbc	r31, r17
     a3c:	c7 01       	movw	r24, r14
     a3e:	b8 01       	movw	r22, r16
     a40:	af 01       	movw	r20, r30
     a42:	0e 94 00 00 	call	0	; 0x0 <_ZNK6String6charAtEj>
     a46:	27 96       	adiw	r28, 0x07	; 7
     a48:	0f b6       	in	r0, 0x3f	; 63
     a4a:	f8 94       	cli
     a4c:	de bf       	out	0x3e, r29	; 62
     a4e:	0f be       	out	0x3f, r0	; 63
     a50:	cd bf       	out	0x3d, r28	; 61
     a52:	cf 91       	pop	r28
     a54:	df 91       	pop	r29
     a56:	1f 91       	pop	r17
     a58:	0f 91       	pop	r16
     a5a:	ff 90       	pop	r15
     a5c:	ef 90       	pop	r14
     a5e:	08 95       	ret

00000a60 <_ZN6String6concatEh>:
     a60:	ef 92       	push	r14
     a62:	ff 92       	push	r15
     a64:	0f 93       	push	r16
     a66:	1f 93       	push	r17
     a68:	df 93       	push	r29
     a6a:	cf 93       	push	r28
     a6c:	00 d0       	rcall	.+0      	; 0xa6e <_ZN6String6concatEh+0xe>
     a6e:	00 d0       	rcall	.+0      	; 0xa70 <_ZN6String6concatEh+0x10>
     a70:	cd b7       	in	r28, 0x3d	; 61
     a72:	de b7       	in	r29, 0x3e	; 62
     a74:	7c 01       	movw	r14, r24
     a76:	86 2f       	mov	r24, r22
     a78:	90 e0       	ldi	r25, 0x00	; 0
     a7a:	8e 01       	movw	r16, r28
     a7c:	0f 5f       	subi	r16, 0xFF	; 255
     a7e:	1f 4f       	sbci	r17, 0xFF	; 255
     a80:	b8 01       	movw	r22, r16
     a82:	4a e0       	ldi	r20, 0x0A	; 10
     a84:	50 e0       	ldi	r21, 0x00	; 0
     a86:	0e 94 00 00 	call	0	; 0x0 <_ZNK6String6charAtEj>
     a8a:	f8 01       	movw	r30, r16
     a8c:	01 90       	ld	r0, Z+
     a8e:	00 20       	and	r0, r0
     a90:	01 f4       	brne	.+0      	; 0xa92 <_ZN6String6concatEh+0x32>
     a92:	31 97       	sbiw	r30, 0x01	; 1
     a94:	e0 1b       	sub	r30, r16
     a96:	f1 0b       	sbc	r31, r17
     a98:	c7 01       	movw	r24, r14
     a9a:	b8 01       	movw	r22, r16
     a9c:	af 01       	movw	r20, r30
     a9e:	0e 94 00 00 	call	0	; 0x0 <_ZNK6String6charAtEj>
     aa2:	0f 90       	pop	r0
     aa4:	0f 90       	pop	r0
     aa6:	0f 90       	pop	r0
     aa8:	0f 90       	pop	r0
     aaa:	cf 91       	pop	r28
     aac:	df 91       	pop	r29
     aae:	1f 91       	pop	r17
     ab0:	0f 91       	pop	r16
     ab2:	ff 90       	pop	r15
     ab4:	ef 90       	pop	r14
     ab6:	08 95       	ret

00000ab8 <_ZN6String6concatEc>:
     ab8:	df 93       	push	r29
     aba:	cf 93       	push	r28
     abc:	00 d0       	rcall	.+0      	; 0xabe <_ZN6String6concatEc+0x6>
     abe:	cd b7       	in	r28, 0x3d	; 61
     ac0:	de b7       	in	r29, 0x3e	; 62
     ac2:	69 83       	std	Y+1, r22	; 0x01
     ac4:	1a 82       	std	Y+2, r1	; 0x02
     ac6:	be 01       	movw	r22, r28
     ac8:	6f 5f       	subi	r22, 0xFF	; 255
     aca:	7f 4f       	sbci	r23, 0xFF	; 255
     acc:	41 e0       	ldi	r20, 0x01	; 1
     ace:	50 e0       	ldi	r21, 0x00	; 0
     ad0:	0e 94 00 00 	call	0	; 0x0 <_ZNK6String6charAtEj>
     ad4:	0f 90       	pop	r0
     ad6:	0f 90       	pop	r0
     ad8:	cf 91       	pop	r28
     ada:	df 91       	pop	r29
     adc:	08 95       	ret

00000ade <_ZN6String6concatEPKc>:
     ade:	61 15       	cp	r22, r1
     ae0:	71 05       	cpc	r23, r1
     ae2:	01 f4       	brne	.+0      	; 0xae4 <_ZN6String6concatEPKc+0x6>
     ae4:	80 e0       	ldi	r24, 0x00	; 0
     ae6:	08 95       	ret
     ae8:	db 01       	movw	r26, r22
     aea:	0d 90       	ld	r0, X+
     aec:	00 20       	and	r0, r0
     aee:	01 f4       	brne	.+0      	; 0xaf0 <_ZN6String6concatEPKc+0x12>
     af0:	11 97       	sbiw	r26, 0x01	; 1
     af2:	a6 1b       	sub	r26, r22
     af4:	b7 0b       	sbc	r27, r23
     af6:	ad 01       	movw	r20, r26
     af8:	0e 94 00 00 	call	0	; 0x0 <_ZNK6String6charAtEj>
     afc:	08 95       	ret

00000afe <_ZN6String6concatERKS_>:
     afe:	fb 01       	movw	r30, r22
     b00:	60 81       	ld	r22, Z
     b02:	71 81       	ldd	r23, Z+1	; 0x01
     b04:	44 81       	ldd	r20, Z+4	; 0x04
     b06:	55 81       	ldd	r21, Z+5	; 0x05
     b08:	0e 94 00 00 	call	0	; 0x0 <_ZNK6String6charAtEj>
     b0c:	08 95       	ret

00000b0e <_ZN6String10invalidateEv>:
     b0e:	cf 93       	push	r28
     b10:	df 93       	push	r29
     b12:	ec 01       	movw	r28, r24
     b14:	88 81       	ld	r24, Y
     b16:	99 81       	ldd	r25, Y+1	; 0x01
     b18:	00 97       	sbiw	r24, 0x00	; 0
     b1a:	01 f0       	breq	.+0      	; 0xb1c <_ZN6String10invalidateEv+0xe>
     b1c:	0e 94 00 00 	call	0	; 0x0 <_ZNK6String6charAtEj>
     b20:	19 82       	std	Y+1, r1	; 0x01
     b22:	18 82       	st	Y, r1
     b24:	1d 82       	std	Y+5, r1	; 0x05
     b26:	1c 82       	std	Y+4, r1	; 0x04
     b28:	1b 82       	std	Y+3, r1	; 0x03
     b2a:	1a 82       	std	Y+2, r1	; 0x02
     b2c:	df 91       	pop	r29
     b2e:	cf 91       	pop	r28
     b30:	08 95       	ret

00000b32 <_ZplRK15StringSumHelperm>:
     b32:	0f 93       	push	r16
     b34:	1f 93       	push	r17
     b36:	18 2f       	mov	r17, r24
     b38:	09 2f       	mov	r16, r25
     b3a:	0e 94 00 00 	call	0	; 0x0 <_ZNK6String6charAtEj>
     b3e:	88 23       	and	r24, r24
     b40:	01 f4       	brne	.+0      	; 0xb42 <_ZplRK15StringSumHelperm+0x10>
     b42:	81 2f       	mov	r24, r17
     b44:	90 2f       	mov	r25, r16
     b46:	0e 94 00 00 	call	0	; 0x0 <_ZNK6String6charAtEj>
     b4a:	81 2f       	mov	r24, r17
     b4c:	90 2f       	mov	r25, r16
     b4e:	1f 91       	pop	r17
     b50:	0f 91       	pop	r16
     b52:	08 95       	ret

00000b54 <_ZplRK15StringSumHelperl>:
     b54:	0f 93       	push	r16
     b56:	1f 93       	push	r17
     b58:	18 2f       	mov	r17, r24
     b5a:	09 2f       	mov	r16, r25
     b5c:	0e 94 00 00 	call	0	; 0x0 <_ZNK6String6charAtEj>
     b60:	88 23       	and	r24, r24
     b62:	01 f4       	brne	.+0      	; 0xb64 <_ZplRK15StringSumHelperl+0x10>
     b64:	81 2f       	mov	r24, r17
     b66:	90 2f       	mov	r25, r16
     b68:	0e 94 00 00 	call	0	; 0x0 <_ZNK6String6charAtEj>
     b6c:	81 2f       	mov	r24, r17
     b6e:	90 2f       	mov	r25, r16
     b70:	1f 91       	pop	r17
     b72:	0f 91       	pop	r16
     b74:	08 95       	ret

00000b76 <_ZplRK15StringSumHelperj>:
     b76:	0f 93       	push	r16
     b78:	1f 93       	push	r17
     b7a:	18 2f       	mov	r17, r24
     b7c:	09 2f       	mov	r16, r25
     b7e:	0e 94 00 00 	call	0	; 0x0 <_ZNK6String6charAtEj>
     b82:	88 23       	and	r24, r24
     b84:	01 f4       	brne	.+0      	; 0xb86 <_ZplRK15StringSumHelperj+0x10>
     b86:	81 2f       	mov	r24, r17
     b88:	90 2f       	mov	r25, r16
     b8a:	0e 94 00 00 	call	0	; 0x0 <_ZNK6String6charAtEj>
     b8e:	81 2f       	mov	r24, r17
     b90:	90 2f       	mov	r25, r16
     b92:	1f 91       	pop	r17
     b94:	0f 91       	pop	r16
     b96:	08 95       	ret

00000b98 <_ZplRK15StringSumHelperi>:
     b98:	0f 93       	push	r16
     b9a:	1f 93       	push	r17
     b9c:	18 2f       	mov	r17, r24
     b9e:	09 2f       	mov	r16, r25
     ba0:	0e 94 00 00 	call	0	; 0x0 <_ZNK6String6charAtEj>
     ba4:	88 23       	and	r24, r24
     ba6:	01 f4       	brne	.+0      	; 0xba8 <_ZplRK15StringSumHelperi+0x10>
     ba8:	81 2f       	mov	r24, r17
     baa:	90 2f       	mov	r25, r16
     bac:	0e 94 00 00 	call	0	; 0x0 <_ZNK6String6charAtEj>
     bb0:	81 2f       	mov	r24, r17
     bb2:	90 2f       	mov	r25, r16
     bb4:	1f 91       	pop	r17
     bb6:	0f 91       	pop	r16
     bb8:	08 95       	ret

00000bba <_ZplRK15StringSumHelperh>:
     bba:	0f 93       	push	r16
     bbc:	1f 93       	push	r17
     bbe:	18 2f       	mov	r17, r24
     bc0:	09 2f       	mov	r16, r25
     bc2:	0e 94 00 00 	call	0	; 0x0 <_ZNK6String6charAtEj>
     bc6:	88 23       	and	r24, r24
     bc8:	01 f4       	brne	.+0      	; 0xbca <_ZplRK15StringSumHelperh+0x10>
     bca:	81 2f       	mov	r24, r17
     bcc:	90 2f       	mov	r25, r16
     bce:	0e 94 00 00 	call	0	; 0x0 <_ZNK6String6charAtEj>
     bd2:	81 2f       	mov	r24, r17
     bd4:	90 2f       	mov	r25, r16
     bd6:	1f 91       	pop	r17
     bd8:	0f 91       	pop	r16
     bda:	08 95       	ret

00000bdc <_ZplRK15StringSumHelperc>:
     bdc:	0f 93       	push	r16
     bde:	1f 93       	push	r17
     be0:	18 2f       	mov	r17, r24
     be2:	09 2f       	mov	r16, r25
     be4:	0e 94 00 00 	call	0	; 0x0 <_ZNK6String6charAtEj>
     be8:	88 23       	and	r24, r24
     bea:	01 f4       	brne	.+0      	; 0xbec <_ZplRK15StringSumHelperc+0x10>
     bec:	81 2f       	mov	r24, r17
     bee:	90 2f       	mov	r25, r16
     bf0:	0e 94 00 00 	call	0	; 0x0 <_ZNK6String6charAtEj>
     bf4:	81 2f       	mov	r24, r17
     bf6:	90 2f       	mov	r25, r16
     bf8:	1f 91       	pop	r17
     bfa:	0f 91       	pop	r16
     bfc:	08 95       	ret

00000bfe <_ZplRK15StringSumHelperPKc>:
     bfe:	0f 93       	push	r16
     c00:	1f 93       	push	r17
     c02:	18 2f       	mov	r17, r24
     c04:	09 2f       	mov	r16, r25
     c06:	61 15       	cp	r22, r1
     c08:	71 05       	cpc	r23, r1
     c0a:	01 f0       	breq	.+0      	; 0xc0c <_ZplRK15StringSumHelperPKc+0xe>
     c0c:	db 01       	movw	r26, r22
     c0e:	0d 90       	ld	r0, X+
     c10:	00 20       	and	r0, r0
     c12:	01 f4       	brne	.+0      	; 0xc14 <_ZplRK15StringSumHelperPKc+0x16>
     c14:	11 97       	sbiw	r26, 0x01	; 1
     c16:	a6 1b       	sub	r26, r22
     c18:	b7 0b       	sbc	r27, r23
     c1a:	ad 01       	movw	r20, r26
     c1c:	0e 94 00 00 	call	0	; 0x0 <_ZNK6String6charAtEj>
     c20:	88 23       	and	r24, r24
     c22:	01 f4       	brne	.+0      	; 0xc24 <_ZplRK15StringSumHelperPKc+0x26>
     c24:	81 2f       	mov	r24, r17
     c26:	90 2f       	mov	r25, r16
     c28:	0e 94 00 00 	call	0	; 0x0 <_ZNK6String6charAtEj>
     c2c:	81 2f       	mov	r24, r17
     c2e:	90 2f       	mov	r25, r16
     c30:	1f 91       	pop	r17
     c32:	0f 91       	pop	r16
     c34:	08 95       	ret

00000c36 <_ZplRK15StringSumHelperRK6String>:
     c36:	0f 93       	push	r16
     c38:	1f 93       	push	r17
     c3a:	18 2f       	mov	r17, r24
     c3c:	09 2f       	mov	r16, r25
     c3e:	fb 01       	movw	r30, r22
     c40:	60 81       	ld	r22, Z
     c42:	71 81       	ldd	r23, Z+1	; 0x01
     c44:	44 81       	ldd	r20, Z+4	; 0x04
     c46:	55 81       	ldd	r21, Z+5	; 0x05
     c48:	0e 94 00 00 	call	0	; 0x0 <_ZNK6String6charAtEj>
     c4c:	88 23       	and	r24, r24
     c4e:	01 f4       	brne	.+0      	; 0xc50 <_ZplRK15StringSumHelperRK6String+0x1a>
     c50:	81 2f       	mov	r24, r17
     c52:	90 2f       	mov	r25, r16
     c54:	0e 94 00 00 	call	0	; 0x0 <_ZNK6String6charAtEj>
     c58:	81 2f       	mov	r24, r17
     c5a:	90 2f       	mov	r25, r16
     c5c:	1f 91       	pop	r17
     c5e:	0f 91       	pop	r16
     c60:	08 95       	ret

00000c62 <_ZN6String4copyEPKcj>:
     c62:	ef 92       	push	r14
     c64:	ff 92       	push	r15
     c66:	0f 93       	push	r16
     c68:	1f 93       	push	r17
     c6a:	cf 93       	push	r28
     c6c:	df 93       	push	r29
     c6e:	ec 01       	movw	r28, r24
     c70:	7b 01       	movw	r14, r22
     c72:	8a 01       	movw	r16, r20
     c74:	ba 01       	movw	r22, r20
     c76:	0e 94 00 00 	call	0	; 0x0 <_ZNK6String6charAtEj>
     c7a:	88 23       	and	r24, r24
     c7c:	01 f4       	brne	.+0      	; 0xc7e <_ZN6String4copyEPKcj+0x1c>
     c7e:	ce 01       	movw	r24, r28
     c80:	0e 94 00 00 	call	0	; 0x0 <_ZNK6String6charAtEj>
     c84:	00 c0       	rjmp	.+0      	; 0xc86 <_ZN6String4copyEPKcj+0x24>
     c86:	1d 83       	std	Y+5, r17	; 0x05
     c88:	0c 83       	std	Y+4, r16	; 0x04
     c8a:	88 81       	ld	r24, Y
     c8c:	99 81       	ldd	r25, Y+1	; 0x01
     c8e:	b7 01       	movw	r22, r14
     c90:	0e 94 00 00 	call	0	; 0x0 <_ZNK6String6charAtEj>
     c94:	ce 01       	movw	r24, r28
     c96:	df 91       	pop	r29
     c98:	cf 91       	pop	r28
     c9a:	1f 91       	pop	r17
     c9c:	0f 91       	pop	r16
     c9e:	ff 90       	pop	r15
     ca0:	ef 90       	pop	r14
     ca2:	08 95       	ret

00000ca4 <_ZN6StringC1EPKc>:
     ca4:	cf 93       	push	r28
     ca6:	df 93       	push	r29
     ca8:	ec 01       	movw	r28, r24
     caa:	19 82       	std	Y+1, r1	; 0x01
     cac:	18 82       	st	Y, r1
     cae:	1b 82       	std	Y+3, r1	; 0x03
     cb0:	1a 82       	std	Y+2, r1	; 0x02
     cb2:	1d 82       	std	Y+5, r1	; 0x05
     cb4:	1c 82       	std	Y+4, r1	; 0x04
     cb6:	1e 82       	std	Y+6, r1	; 0x06
     cb8:	61 15       	cp	r22, r1
     cba:	71 05       	cpc	r23, r1
     cbc:	01 f0       	breq	.+0      	; 0xcbe <_ZN6StringC1EPKc+0x1a>
     cbe:	db 01       	movw	r26, r22
     cc0:	0d 90       	ld	r0, X+
     cc2:	00 20       	and	r0, r0
     cc4:	01 f4       	brne	.+0      	; 0xcc6 <_ZN6StringC1EPKc+0x22>
     cc6:	11 97       	sbiw	r26, 0x01	; 1
     cc8:	a6 1b       	sub	r26, r22
     cca:	b7 0b       	sbc	r27, r23
     ccc:	ad 01       	movw	r20, r26
     cce:	0e 94 00 00 	call	0	; 0x0 <_ZNK6String6charAtEj>
     cd2:	df 91       	pop	r29
     cd4:	cf 91       	pop	r28
     cd6:	08 95       	ret

00000cd8 <_ZN6StringC2EPKc>:
     cd8:	cf 93       	push	r28
     cda:	df 93       	push	r29
     cdc:	ec 01       	movw	r28, r24
     cde:	19 82       	std	Y+1, r1	; 0x01
     ce0:	18 82       	st	Y, r1
     ce2:	1b 82       	std	Y+3, r1	; 0x03
     ce4:	1a 82       	std	Y+2, r1	; 0x02
     ce6:	1d 82       	std	Y+5, r1	; 0x05
     ce8:	1c 82       	std	Y+4, r1	; 0x04
     cea:	1e 82       	std	Y+6, r1	; 0x06
     cec:	61 15       	cp	r22, r1
     cee:	71 05       	cpc	r23, r1
     cf0:	01 f0       	breq	.+0      	; 0xcf2 <_ZN6StringC2EPKc+0x1a>
     cf2:	db 01       	movw	r26, r22
     cf4:	0d 90       	ld	r0, X+
     cf6:	00 20       	and	r0, r0
     cf8:	01 f4       	brne	.+0      	; 0xcfa <_ZN6StringC2EPKc+0x22>
     cfa:	11 97       	sbiw	r26, 0x01	; 1
     cfc:	a6 1b       	sub	r26, r22
     cfe:	b7 0b       	sbc	r27, r23
     d00:	ad 01       	movw	r20, r26
     d02:	0e 94 00 00 	call	0	; 0x0 <_ZNK6String6charAtEj>
     d06:	df 91       	pop	r29
     d08:	cf 91       	pop	r28
     d0a:	08 95       	ret

00000d0c <_ZN6StringaSEPKc>:
     d0c:	0f 93       	push	r16
     d0e:	1f 93       	push	r17
     d10:	18 2f       	mov	r17, r24
     d12:	09 2f       	mov	r16, r25
     d14:	61 15       	cp	r22, r1
     d16:	71 05       	cpc	r23, r1
     d18:	01 f0       	breq	.+0      	; 0xd1a <_ZN6StringaSEPKc+0xe>
     d1a:	db 01       	movw	r26, r22
     d1c:	0d 90       	ld	r0, X+
     d1e:	00 20       	and	r0, r0
     d20:	01 f4       	brne	.+0      	; 0xd22 <_ZN6StringaSEPKc+0x16>
     d22:	11 97       	sbiw	r26, 0x01	; 1
     d24:	a6 1b       	sub	r26, r22
     d26:	b7 0b       	sbc	r27, r23
     d28:	ad 01       	movw	r20, r26
     d2a:	0e 94 00 00 	call	0	; 0x0 <_ZNK6String6charAtEj>
     d2e:	00 c0       	rjmp	.+0      	; 0xd30 <_ZN6StringaSEPKc+0x24>
     d30:	0e 94 00 00 	call	0	; 0x0 <_ZNK6String6charAtEj>
     d34:	81 2f       	mov	r24, r17
     d36:	90 2f       	mov	r25, r16
     d38:	1f 91       	pop	r17
     d3a:	0f 91       	pop	r16
     d3c:	08 95       	ret

00000d3e <_ZN6StringC1Emh>:
     d3e:	ef 92       	push	r14
     d40:	ff 92       	push	r15
     d42:	0f 93       	push	r16
     d44:	1f 93       	push	r17
     d46:	df 93       	push	r29
     d48:	cf 93       	push	r28
     d4a:	cd b7       	in	r28, 0x3d	; 61
     d4c:	de b7       	in	r29, 0x3e	; 62
     d4e:	a1 97       	sbiw	r28, 0x21	; 33
     d50:	0f b6       	in	r0, 0x3f	; 63
     d52:	f8 94       	cli
     d54:	de bf       	out	0x3e, r29	; 62
     d56:	0f be       	out	0x3f, r0	; 63
     d58:	cd bf       	out	0x3d, r28	; 61
     d5a:	8c 01       	movw	r16, r24
     d5c:	fc 01       	movw	r30, r24
     d5e:	11 82       	std	Z+1, r1	; 0x01
     d60:	10 82       	st	Z, r1
     d62:	13 82       	std	Z+3, r1	; 0x03
     d64:	12 82       	std	Z+2, r1	; 0x02
     d66:	15 82       	std	Z+5, r1	; 0x05
     d68:	14 82       	std	Z+4, r1	; 0x04
     d6a:	16 82       	std	Z+6, r1	; 0x06
     d6c:	cb 01       	movw	r24, r22
     d6e:	ba 01       	movw	r22, r20
     d70:	7e 01       	movw	r14, r28
     d72:	08 94       	sec
     d74:	e1 1c       	adc	r14, r1
     d76:	f1 1c       	adc	r15, r1
     d78:	a7 01       	movw	r20, r14
     d7a:	30 e0       	ldi	r19, 0x00	; 0
     d7c:	0e 94 00 00 	call	0	; 0x0 <_ZNK6String6charAtEj>
     d80:	c8 01       	movw	r24, r16
     d82:	b7 01       	movw	r22, r14
     d84:	0e 94 00 00 	call	0	; 0x0 <_ZNK6String6charAtEj>
     d88:	a1 96       	adiw	r28, 0x21	; 33
     d8a:	0f b6       	in	r0, 0x3f	; 63
     d8c:	f8 94       	cli
     d8e:	de bf       	out	0x3e, r29	; 62
     d90:	0f be       	out	0x3f, r0	; 63
     d92:	cd bf       	out	0x3d, r28	; 61
     d94:	cf 91       	pop	r28
     d96:	df 91       	pop	r29
     d98:	1f 91       	pop	r17
     d9a:	0f 91       	pop	r16
     d9c:	ff 90       	pop	r15
     d9e:	ef 90       	pop	r14
     da0:	08 95       	ret

00000da2 <_ZN6StringC2Emh>:
     da2:	ef 92       	push	r14
     da4:	ff 92       	push	r15
     da6:	0f 93       	push	r16
     da8:	1f 93       	push	r17
     daa:	df 93       	push	r29
     dac:	cf 93       	push	r28
     dae:	cd b7       	in	r28, 0x3d	; 61
     db0:	de b7       	in	r29, 0x3e	; 62
     db2:	a1 97       	sbiw	r28, 0x21	; 33
     db4:	0f b6       	in	r0, 0x3f	; 63
     db6:	f8 94       	cli
     db8:	de bf       	out	0x3e, r29	; 62
     dba:	0f be       	out	0x3f, r0	; 63
     dbc:	cd bf       	out	0x3d, r28	; 61
     dbe:	8c 01       	movw	r16, r24
     dc0:	fc 01       	movw	r30, r24
     dc2:	11 82       	std	Z+1, r1	; 0x01
     dc4:	10 82       	st	Z, r1
     dc6:	13 82       	std	Z+3, r1	; 0x03
     dc8:	12 82       	std	Z+2, r1	; 0x02
     dca:	15 82       	std	Z+5, r1	; 0x05
     dcc:	14 82       	std	Z+4, r1	; 0x04
     dce:	16 82       	std	Z+6, r1	; 0x06
     dd0:	cb 01       	movw	r24, r22
     dd2:	ba 01       	movw	r22, r20
     dd4:	7e 01       	movw	r14, r28
     dd6:	08 94       	sec
     dd8:	e1 1c       	adc	r14, r1
     dda:	f1 1c       	adc	r15, r1
     ddc:	a7 01       	movw	r20, r14
     dde:	30 e0       	ldi	r19, 0x00	; 0
     de0:	0e 94 00 00 	call	0	; 0x0 <_ZNK6String6charAtEj>
     de4:	c8 01       	movw	r24, r16
     de6:	b7 01       	movw	r22, r14
     de8:	0e 94 00 00 	call	0	; 0x0 <_ZNK6String6charAtEj>
     dec:	a1 96       	adiw	r28, 0x21	; 33
     dee:	0f b6       	in	r0, 0x3f	; 63
     df0:	f8 94       	cli
     df2:	de bf       	out	0x3e, r29	; 62
     df4:	0f be       	out	0x3f, r0	; 63
     df6:	cd bf       	out	0x3d, r28	; 61
     df8:	cf 91       	pop	r28
     dfa:	df 91       	pop	r29
     dfc:	1f 91       	pop	r17
     dfe:	0f 91       	pop	r16
     e00:	ff 90       	pop	r15
     e02:	ef 90       	pop	r14
     e04:	08 95       	ret

00000e06 <_ZN6StringC1Elh>:
     e06:	ef 92       	push	r14
     e08:	ff 92       	push	r15
     e0a:	0f 93       	push	r16
     e0c:	1f 93       	push	r17
     e0e:	df 93       	push	r29
     e10:	cf 93       	push	r28
     e12:	cd b7       	in	r28, 0x3d	; 61
     e14:	de b7       	in	r29, 0x3e	; 62
     e16:	a2 97       	sbiw	r28, 0x22	; 34
     e18:	0f b6       	in	r0, 0x3f	; 63
     e1a:	f8 94       	cli
     e1c:	de bf       	out	0x3e, r29	; 62
     e1e:	0f be       	out	0x3f, r0	; 63
     e20:	cd bf       	out	0x3d, r28	; 61
     e22:	8c 01       	movw	r16, r24
     e24:	fc 01       	movw	r30, r24
     e26:	11 82       	std	Z+1, r1	; 0x01
     e28:	10 82       	st	Z, r1
     e2a:	13 82       	std	Z+3, r1	; 0x03
     e2c:	12 82       	std	Z+2, r1	; 0x02
     e2e:	15 82       	std	Z+5, r1	; 0x05
     e30:	14 82       	std	Z+4, r1	; 0x04
     e32:	16 82       	std	Z+6, r1	; 0x06
     e34:	cb 01       	movw	r24, r22
     e36:	ba 01       	movw	r22, r20
     e38:	7e 01       	movw	r14, r28
     e3a:	08 94       	sec
     e3c:	e1 1c       	adc	r14, r1
     e3e:	f1 1c       	adc	r15, r1
     e40:	a7 01       	movw	r20, r14
     e42:	30 e0       	ldi	r19, 0x00	; 0
     e44:	0e 94 00 00 	call	0	; 0x0 <_ZNK6String6charAtEj>
     e48:	c8 01       	movw	r24, r16
     e4a:	b7 01       	movw	r22, r14
     e4c:	0e 94 00 00 	call	0	; 0x0 <_ZNK6String6charAtEj>
     e50:	a2 96       	adiw	r28, 0x22	; 34
     e52:	0f b6       	in	r0, 0x3f	; 63
     e54:	f8 94       	cli
     e56:	de bf       	out	0x3e, r29	; 62
     e58:	0f be       	out	0x3f, r0	; 63
     e5a:	cd bf       	out	0x3d, r28	; 61
     e5c:	cf 91       	pop	r28
     e5e:	df 91       	pop	r29
     e60:	1f 91       	pop	r17
     e62:	0f 91       	pop	r16
     e64:	ff 90       	pop	r15
     e66:	ef 90       	pop	r14
     e68:	08 95       	ret

00000e6a <_ZN6StringC2Elh>:
     e6a:	ef 92       	push	r14
     e6c:	ff 92       	push	r15
     e6e:	0f 93       	push	r16
     e70:	1f 93       	push	r17
     e72:	df 93       	push	r29
     e74:	cf 93       	push	r28
     e76:	cd b7       	in	r28, 0x3d	; 61
     e78:	de b7       	in	r29, 0x3e	; 62
     e7a:	a2 97       	sbiw	r28, 0x22	; 34
     e7c:	0f b6       	in	r0, 0x3f	; 63
     e7e:	f8 94       	cli
     e80:	de bf       	out	0x3e, r29	; 62
     e82:	0f be       	out	0x3f, r0	; 63
     e84:	cd bf       	out	0x3d, r28	; 61
     e86:	8c 01       	movw	r16, r24
     e88:	fc 01       	movw	r30, r24
     e8a:	11 82       	std	Z+1, r1	; 0x01
     e8c:	10 82       	st	Z, r1
     e8e:	13 82       	std	Z+3, r1	; 0x03
     e90:	12 82       	std	Z+2, r1	; 0x02
     e92:	15 82       	std	Z+5, r1	; 0x05
     e94:	14 82       	std	Z+4, r1	; 0x04
     e96:	16 82       	std	Z+6, r1	; 0x06
     e98:	cb 01       	movw	r24, r22
     e9a:	ba 01       	movw	r22, r20
     e9c:	7e 01       	movw	r14, r28
     e9e:	08 94       	sec
     ea0:	e1 1c       	adc	r14, r1
     ea2:	f1 1c       	adc	r15, r1
     ea4:	a7 01       	movw	r20, r14
     ea6:	30 e0       	ldi	r19, 0x00	; 0
     ea8:	0e 94 00 00 	call	0	; 0x0 <_ZNK6String6charAtEj>
     eac:	c8 01       	movw	r24, r16
     eae:	b7 01       	movw	r22, r14
     eb0:	0e 94 00 00 	call	0	; 0x0 <_ZNK6String6charAtEj>
     eb4:	a2 96       	adiw	r28, 0x22	; 34
     eb6:	0f b6       	in	r0, 0x3f	; 63
     eb8:	f8 94       	cli
     eba:	de bf       	out	0x3e, r29	; 62
     ebc:	0f be       	out	0x3f, r0	; 63
     ebe:	cd bf       	out	0x3d, r28	; 61
     ec0:	cf 91       	pop	r28
     ec2:	df 91       	pop	r29
     ec4:	1f 91       	pop	r17
     ec6:	0f 91       	pop	r16
     ec8:	ff 90       	pop	r15
     eca:	ef 90       	pop	r14
     ecc:	08 95       	ret

00000ece <_ZN6StringC1Ejh>:
     ece:	ef 92       	push	r14
     ed0:	ff 92       	push	r15
     ed2:	0f 93       	push	r16
     ed4:	1f 93       	push	r17
     ed6:	df 93       	push	r29
     ed8:	cf 93       	push	r28
     eda:	cd b7       	in	r28, 0x3d	; 61
     edc:	de b7       	in	r29, 0x3e	; 62
     ede:	61 97       	sbiw	r28, 0x11	; 17
     ee0:	0f b6       	in	r0, 0x3f	; 63
     ee2:	f8 94       	cli
     ee4:	de bf       	out	0x3e, r29	; 62
     ee6:	0f be       	out	0x3f, r0	; 63
     ee8:	cd bf       	out	0x3d, r28	; 61
     eea:	8c 01       	movw	r16, r24
     eec:	cb 01       	movw	r24, r22
     eee:	f8 01       	movw	r30, r16
     ef0:	11 82       	std	Z+1, r1	; 0x01
     ef2:	10 82       	st	Z, r1
     ef4:	13 82       	std	Z+3, r1	; 0x03
     ef6:	12 82       	std	Z+2, r1	; 0x02
     ef8:	15 82       	std	Z+5, r1	; 0x05
     efa:	14 82       	std	Z+4, r1	; 0x04
     efc:	16 82       	std	Z+6, r1	; 0x06
     efe:	7e 01       	movw	r14, r28
     f00:	08 94       	sec
     f02:	e1 1c       	adc	r14, r1
     f04:	f1 1c       	adc	r15, r1
     f06:	b7 01       	movw	r22, r14
     f08:	50 e0       	ldi	r21, 0x00	; 0
     f0a:	0e 94 00 00 	call	0	; 0x0 <_ZNK6String6charAtEj>
     f0e:	c8 01       	movw	r24, r16
     f10:	b7 01       	movw	r22, r14
     f12:	0e 94 00 00 	call	0	; 0x0 <_ZNK6String6charAtEj>
     f16:	61 96       	adiw	r28, 0x11	; 17
     f18:	0f b6       	in	r0, 0x3f	; 63
     f1a:	f8 94       	cli
     f1c:	de bf       	out	0x3e, r29	; 62
     f1e:	0f be       	out	0x3f, r0	; 63
     f20:	cd bf       	out	0x3d, r28	; 61
     f22:	cf 91       	pop	r28
     f24:	df 91       	pop	r29
     f26:	1f 91       	pop	r17
     f28:	0f 91       	pop	r16
     f2a:	ff 90       	pop	r15
     f2c:	ef 90       	pop	r14
     f2e:	08 95       	ret

00000f30 <_ZN6StringC2Ejh>:
     f30:	ef 92       	push	r14
     f32:	ff 92       	push	r15
     f34:	0f 93       	push	r16
     f36:	1f 93       	push	r17
     f38:	df 93       	push	r29
     f3a:	cf 93       	push	r28
     f3c:	cd b7       	in	r28, 0x3d	; 61
     f3e:	de b7       	in	r29, 0x3e	; 62
     f40:	61 97       	sbiw	r28, 0x11	; 17
     f42:	0f b6       	in	r0, 0x3f	; 63
     f44:	f8 94       	cli
     f46:	de bf       	out	0x3e, r29	; 62
     f48:	0f be       	out	0x3f, r0	; 63
     f4a:	cd bf       	out	0x3d, r28	; 61
     f4c:	8c 01       	movw	r16, r24
     f4e:	cb 01       	movw	r24, r22
     f50:	f8 01       	movw	r30, r16
     f52:	11 82       	std	Z+1, r1	; 0x01
     f54:	10 82       	st	Z, r1
     f56:	13 82       	std	Z+3, r1	; 0x03
     f58:	12 82       	std	Z+2, r1	; 0x02
     f5a:	15 82       	std	Z+5, r1	; 0x05
     f5c:	14 82       	std	Z+4, r1	; 0x04
     f5e:	16 82       	std	Z+6, r1	; 0x06
     f60:	7e 01       	movw	r14, r28
     f62:	08 94       	sec
     f64:	e1 1c       	adc	r14, r1
     f66:	f1 1c       	adc	r15, r1
     f68:	b7 01       	movw	r22, r14
     f6a:	50 e0       	ldi	r21, 0x00	; 0
     f6c:	0e 94 00 00 	call	0	; 0x0 <_ZNK6String6charAtEj>
     f70:	c8 01       	movw	r24, r16
     f72:	b7 01       	movw	r22, r14
     f74:	0e 94 00 00 	call	0	; 0x0 <_ZNK6String6charAtEj>
     f78:	61 96       	adiw	r28, 0x11	; 17
     f7a:	0f b6       	in	r0, 0x3f	; 63
     f7c:	f8 94       	cli
     f7e:	de bf       	out	0x3e, r29	; 62
     f80:	0f be       	out	0x3f, r0	; 63
     f82:	cd bf       	out	0x3d, r28	; 61
     f84:	cf 91       	pop	r28
     f86:	df 91       	pop	r29
     f88:	1f 91       	pop	r17
     f8a:	0f 91       	pop	r16
     f8c:	ff 90       	pop	r15
     f8e:	ef 90       	pop	r14
     f90:	08 95       	ret

00000f92 <_ZN6StringC1Eih>:
     f92:	ef 92       	push	r14
     f94:	ff 92       	push	r15
     f96:	0f 93       	push	r16
     f98:	1f 93       	push	r17
     f9a:	df 93       	push	r29
     f9c:	cf 93       	push	r28
     f9e:	cd b7       	in	r28, 0x3d	; 61
     fa0:	de b7       	in	r29, 0x3e	; 62
     fa2:	62 97       	sbiw	r28, 0x12	; 18
     fa4:	0f b6       	in	r0, 0x3f	; 63
     fa6:	f8 94       	cli
     fa8:	de bf       	out	0x3e, r29	; 62
     faa:	0f be       	out	0x3f, r0	; 63
     fac:	cd bf       	out	0x3d, r28	; 61
     fae:	8c 01       	movw	r16, r24
     fb0:	cb 01       	movw	r24, r22
     fb2:	f8 01       	movw	r30, r16
     fb4:	11 82       	std	Z+1, r1	; 0x01
     fb6:	10 82       	st	Z, r1
     fb8:	13 82       	std	Z+3, r1	; 0x03
     fba:	12 82       	std	Z+2, r1	; 0x02
     fbc:	15 82       	std	Z+5, r1	; 0x05
     fbe:	14 82       	std	Z+4, r1	; 0x04
     fc0:	16 82       	std	Z+6, r1	; 0x06
     fc2:	7e 01       	movw	r14, r28
     fc4:	08 94       	sec
     fc6:	e1 1c       	adc	r14, r1
     fc8:	f1 1c       	adc	r15, r1
     fca:	b7 01       	movw	r22, r14
     fcc:	50 e0       	ldi	r21, 0x00	; 0
     fce:	0e 94 00 00 	call	0	; 0x0 <_ZNK6String6charAtEj>
     fd2:	c8 01       	movw	r24, r16
     fd4:	b7 01       	movw	r22, r14
     fd6:	0e 94 00 00 	call	0	; 0x0 <_ZNK6String6charAtEj>
     fda:	62 96       	adiw	r28, 0x12	; 18
     fdc:	0f b6       	in	r0, 0x3f	; 63
     fde:	f8 94       	cli
     fe0:	de bf       	out	0x3e, r29	; 62
     fe2:	0f be       	out	0x3f, r0	; 63
     fe4:	cd bf       	out	0x3d, r28	; 61
     fe6:	cf 91       	pop	r28
     fe8:	df 91       	pop	r29
     fea:	1f 91       	pop	r17
     fec:	0f 91       	pop	r16
     fee:	ff 90       	pop	r15
     ff0:	ef 90       	pop	r14
     ff2:	08 95       	ret

00000ff4 <_ZN6StringC2Eih>:
     ff4:	ef 92       	push	r14
     ff6:	ff 92       	push	r15
     ff8:	0f 93       	push	r16
     ffa:	1f 93       	push	r17
     ffc:	df 93       	push	r29
     ffe:	cf 93       	push	r28
    1000:	cd b7       	in	r28, 0x3d	; 61
    1002:	de b7       	in	r29, 0x3e	; 62
    1004:	62 97       	sbiw	r28, 0x12	; 18
    1006:	0f b6       	in	r0, 0x3f	; 63
    1008:	f8 94       	cli
    100a:	de bf       	out	0x3e, r29	; 62
    100c:	0f be       	out	0x3f, r0	; 63
    100e:	cd bf       	out	0x3d, r28	; 61
    1010:	8c 01       	movw	r16, r24
    1012:	cb 01       	movw	r24, r22
    1014:	f8 01       	movw	r30, r16
    1016:	11 82       	std	Z+1, r1	; 0x01
    1018:	10 82       	st	Z, r1
    101a:	13 82       	std	Z+3, r1	; 0x03
    101c:	12 82       	std	Z+2, r1	; 0x02
    101e:	15 82       	std	Z+5, r1	; 0x05
    1020:	14 82       	std	Z+4, r1	; 0x04
    1022:	16 82       	std	Z+6, r1	; 0x06
    1024:	7e 01       	movw	r14, r28
    1026:	08 94       	sec
    1028:	e1 1c       	adc	r14, r1
    102a:	f1 1c       	adc	r15, r1
    102c:	b7 01       	movw	r22, r14
    102e:	50 e0       	ldi	r21, 0x00	; 0
    1030:	0e 94 00 00 	call	0	; 0x0 <_ZNK6String6charAtEj>
    1034:	c8 01       	movw	r24, r16
    1036:	b7 01       	movw	r22, r14
    1038:	0e 94 00 00 	call	0	; 0x0 <_ZNK6String6charAtEj>
    103c:	62 96       	adiw	r28, 0x12	; 18
    103e:	0f b6       	in	r0, 0x3f	; 63
    1040:	f8 94       	cli
    1042:	de bf       	out	0x3e, r29	; 62
    1044:	0f be       	out	0x3f, r0	; 63
    1046:	cd bf       	out	0x3d, r28	; 61
    1048:	cf 91       	pop	r28
    104a:	df 91       	pop	r29
    104c:	1f 91       	pop	r17
    104e:	0f 91       	pop	r16
    1050:	ff 90       	pop	r15
    1052:	ef 90       	pop	r14
    1054:	08 95       	ret

00001056 <_ZN6StringC1Ehh>:
    1056:	ef 92       	push	r14
    1058:	ff 92       	push	r15
    105a:	0f 93       	push	r16
    105c:	1f 93       	push	r17
    105e:	df 93       	push	r29
    1060:	cf 93       	push	r28
    1062:	cd b7       	in	r28, 0x3d	; 61
    1064:	de b7       	in	r29, 0x3e	; 62
    1066:	29 97       	sbiw	r28, 0x09	; 9
    1068:	0f b6       	in	r0, 0x3f	; 63
    106a:	f8 94       	cli
    106c:	de bf       	out	0x3e, r29	; 62
    106e:	0f be       	out	0x3f, r0	; 63
    1070:	cd bf       	out	0x3d, r28	; 61
    1072:	8c 01       	movw	r16, r24
    1074:	86 2f       	mov	r24, r22
    1076:	f8 01       	movw	r30, r16
    1078:	11 82       	std	Z+1, r1	; 0x01
    107a:	10 82       	st	Z, r1
    107c:	13 82       	std	Z+3, r1	; 0x03
    107e:	12 82       	std	Z+2, r1	; 0x02
    1080:	15 82       	std	Z+5, r1	; 0x05
    1082:	14 82       	std	Z+4, r1	; 0x04
    1084:	16 82       	std	Z+6, r1	; 0x06
    1086:	90 e0       	ldi	r25, 0x00	; 0
    1088:	7e 01       	movw	r14, r28
    108a:	08 94       	sec
    108c:	e1 1c       	adc	r14, r1
    108e:	f1 1c       	adc	r15, r1
    1090:	b7 01       	movw	r22, r14
    1092:	50 e0       	ldi	r21, 0x00	; 0
    1094:	0e 94 00 00 	call	0	; 0x0 <_ZNK6String6charAtEj>
    1098:	c8 01       	movw	r24, r16
    109a:	b7 01       	movw	r22, r14
    109c:	0e 94 00 00 	call	0	; 0x0 <_ZNK6String6charAtEj>
    10a0:	29 96       	adiw	r28, 0x09	; 9
    10a2:	0f b6       	in	r0, 0x3f	; 63
    10a4:	f8 94       	cli
    10a6:	de bf       	out	0x3e, r29	; 62
    10a8:	0f be       	out	0x3f, r0	; 63
    10aa:	cd bf       	out	0x3d, r28	; 61
    10ac:	cf 91       	pop	r28
    10ae:	df 91       	pop	r29
    10b0:	1f 91       	pop	r17
    10b2:	0f 91       	pop	r16
    10b4:	ff 90       	pop	r15
    10b6:	ef 90       	pop	r14
    10b8:	08 95       	ret

000010ba <_ZN6StringC2Ehh>:
    10ba:	ef 92       	push	r14
    10bc:	ff 92       	push	r15
    10be:	0f 93       	push	r16
    10c0:	1f 93       	push	r17
    10c2:	df 93       	push	r29
    10c4:	cf 93       	push	r28
    10c6:	cd b7       	in	r28, 0x3d	; 61
    10c8:	de b7       	in	r29, 0x3e	; 62
    10ca:	29 97       	sbiw	r28, 0x09	; 9
    10cc:	0f b6       	in	r0, 0x3f	; 63
    10ce:	f8 94       	cli
    10d0:	de bf       	out	0x3e, r29	; 62
    10d2:	0f be       	out	0x3f, r0	; 63
    10d4:	cd bf       	out	0x3d, r28	; 61
    10d6:	8c 01       	movw	r16, r24
    10d8:	86 2f       	mov	r24, r22
    10da:	f8 01       	movw	r30, r16
    10dc:	11 82       	std	Z+1, r1	; 0x01
    10de:	10 82       	st	Z, r1
    10e0:	13 82       	std	Z+3, r1	; 0x03
    10e2:	12 82       	std	Z+2, r1	; 0x02
    10e4:	15 82       	std	Z+5, r1	; 0x05
    10e6:	14 82       	std	Z+4, r1	; 0x04
    10e8:	16 82       	std	Z+6, r1	; 0x06
    10ea:	90 e0       	ldi	r25, 0x00	; 0
    10ec:	7e 01       	movw	r14, r28
    10ee:	08 94       	sec
    10f0:	e1 1c       	adc	r14, r1
    10f2:	f1 1c       	adc	r15, r1
    10f4:	b7 01       	movw	r22, r14
    10f6:	50 e0       	ldi	r21, 0x00	; 0
    10f8:	0e 94 00 00 	call	0	; 0x0 <_ZNK6String6charAtEj>
    10fc:	c8 01       	movw	r24, r16
    10fe:	b7 01       	movw	r22, r14
    1100:	0e 94 00 00 	call	0	; 0x0 <_ZNK6String6charAtEj>
    1104:	29 96       	adiw	r28, 0x09	; 9
    1106:	0f b6       	in	r0, 0x3f	; 63
    1108:	f8 94       	cli
    110a:	de bf       	out	0x3e, r29	; 62
    110c:	0f be       	out	0x3f, r0	; 63
    110e:	cd bf       	out	0x3d, r28	; 61
    1110:	cf 91       	pop	r28
    1112:	df 91       	pop	r29
    1114:	1f 91       	pop	r17
    1116:	0f 91       	pop	r16
    1118:	ff 90       	pop	r15
    111a:	ef 90       	pop	r14
    111c:	08 95       	ret

0000111e <_ZN6StringC1Ec>:
    111e:	df 93       	push	r29
    1120:	cf 93       	push	r28
    1122:	00 d0       	rcall	.+0      	; 0x1124 <_ZN6StringC1Ec+0x6>
    1124:	cd b7       	in	r28, 0x3d	; 61
    1126:	de b7       	in	r29, 0x3e	; 62
    1128:	fc 01       	movw	r30, r24
    112a:	11 82       	std	Z+1, r1	; 0x01
    112c:	10 82       	st	Z, r1
    112e:	13 82       	std	Z+3, r1	; 0x03
    1130:	12 82       	std	Z+2, r1	; 0x02
    1132:	15 82       	std	Z+5, r1	; 0x05
    1134:	14 82       	std	Z+4, r1	; 0x04
    1136:	16 82       	std	Z+6, r1	; 0x06
    1138:	69 83       	std	Y+1, r22	; 0x01
    113a:	1a 82       	std	Y+2, r1	; 0x02
    113c:	be 01       	movw	r22, r28
    113e:	6f 5f       	subi	r22, 0xFF	; 255
    1140:	7f 4f       	sbci	r23, 0xFF	; 255
    1142:	0e 94 00 00 	call	0	; 0x0 <_ZNK6String6charAtEj>
    1146:	0f 90       	pop	r0
    1148:	0f 90       	pop	r0
    114a:	cf 91       	pop	r28
    114c:	df 91       	pop	r29
    114e:	08 95       	ret

00001150 <_ZN6StringC2Ec>:
    1150:	df 93       	push	r29
    1152:	cf 93       	push	r28
    1154:	00 d0       	rcall	.+0      	; 0x1156 <_ZN6StringC2Ec+0x6>
    1156:	cd b7       	in	r28, 0x3d	; 61
    1158:	de b7       	in	r29, 0x3e	; 62
    115a:	fc 01       	movw	r30, r24
    115c:	11 82       	std	Z+1, r1	; 0x01
    115e:	10 82       	st	Z, r1
    1160:	13 82       	std	Z+3, r1	; 0x03
    1162:	12 82       	std	Z+2, r1	; 0x02
    1164:	15 82       	std	Z+5, r1	; 0x05
    1166:	14 82       	std	Z+4, r1	; 0x04
    1168:	16 82       	std	Z+6, r1	; 0x06
    116a:	69 83       	std	Y+1, r22	; 0x01
    116c:	1a 82       	std	Y+2, r1	; 0x02
    116e:	be 01       	movw	r22, r28
    1170:	6f 5f       	subi	r22, 0xFF	; 255
    1172:	7f 4f       	sbci	r23, 0xFF	; 255
    1174:	0e 94 00 00 	call	0	; 0x0 <_ZNK6String6charAtEj>
    1178:	0f 90       	pop	r0
    117a:	0f 90       	pop	r0
    117c:	cf 91       	pop	r28
    117e:	df 91       	pop	r29
    1180:	08 95       	ret

00001182 <_ZNK6String9substringEjj>:
    1182:	bf 92       	push	r11
    1184:	cf 92       	push	r12
    1186:	df 92       	push	r13
    1188:	ef 92       	push	r14
    118a:	ff 92       	push	r15
    118c:	0f 93       	push	r16
    118e:	1f 93       	push	r17
    1190:	cf 93       	push	r28
    1192:	df 93       	push	r29
    1194:	08 2f       	mov	r16, r24
    1196:	b9 2e       	mov	r11, r25
    1198:	6b 01       	movw	r12, r22
    119a:	7a 01       	movw	r14, r20
    119c:	e9 01       	movw	r28, r18
    119e:	24 17       	cp	r18, r20
    11a0:	35 07       	cpc	r19, r21
    11a2:	00 f4       	brcc	.+0      	; 0x11a4 <_ZNK6String9substringEjj+0x22>
    11a4:	ea 01       	movw	r28, r20
    11a6:	79 01       	movw	r14, r18
    11a8:	80 2f       	mov	r24, r16
    11aa:	9b 2d       	mov	r25, r11
    11ac:	60 e0       	ldi	r22, 0x00	; 0
    11ae:	70 e0       	ldi	r23, 0x00	; 0
    11b0:	0e 94 00 00 	call	0	; 0x0 <_ZNK6String6charAtEj>
    11b4:	d6 01       	movw	r26, r12
    11b6:	14 96       	adiw	r26, 0x04	; 4
    11b8:	8d 91       	ld	r24, X+
    11ba:	9c 91       	ld	r25, X
    11bc:	15 97       	sbiw	r26, 0x05	; 5
    11be:	8e 15       	cp	r24, r14
    11c0:	9f 05       	cpc	r25, r15
    11c2:	00 f0       	brcs	.+0      	; 0x11c4 <_ZNK6String9substringEjj+0x42>
    11c4:	8c 17       	cp	r24, r28
    11c6:	9d 07       	cpc	r25, r29
    11c8:	00 f4       	brcc	.+0      	; 0x11ca <_ZNK6String9substringEjj+0x48>
    11ca:	ec 01       	movw	r28, r24
    11cc:	d6 01       	movw	r26, r12
    11ce:	ed 91       	ld	r30, X+
    11d0:	fc 91       	ld	r31, X
    11d2:	11 97       	sbiw	r26, 0x01	; 1
    11d4:	ec 0f       	add	r30, r28
    11d6:	fd 1f       	adc	r31, r29
    11d8:	10 81       	ld	r17, Z
    11da:	10 82       	st	Z, r1
    11dc:	6d 91       	ld	r22, X+
    11de:	7c 91       	ld	r23, X
    11e0:	6e 0d       	add	r22, r14
    11e2:	7f 1d       	adc	r23, r15
    11e4:	80 2f       	mov	r24, r16
    11e6:	9b 2d       	mov	r25, r11
    11e8:	0e 94 00 00 	call	0	; 0x0 <_ZNK6String6charAtEj>
    11ec:	d6 01       	movw	r26, r12
    11ee:	ed 91       	ld	r30, X+
    11f0:	fc 91       	ld	r31, X
    11f2:	ec 0f       	add	r30, r28
    11f4:	fd 1f       	adc	r31, r29
    11f6:	10 83       	st	Z, r17
    11f8:	80 2f       	mov	r24, r16
    11fa:	9b 2d       	mov	r25, r11
    11fc:	df 91       	pop	r29
    11fe:	cf 91       	pop	r28
    1200:	1f 91       	pop	r17
    1202:	0f 91       	pop	r16
    1204:	ff 90       	pop	r15
    1206:	ef 90       	pop	r14
    1208:	df 90       	pop	r13
    120a:	cf 90       	pop	r12
    120c:	bf 90       	pop	r11
    120e:	08 95       	ret

00001210 <_ZNK6String9substringEj>:
    1210:	0f 93       	push	r16
    1212:	1f 93       	push	r17
    1214:	8c 01       	movw	r16, r24
    1216:	fb 01       	movw	r30, r22
    1218:	24 81       	ldd	r18, Z+4	; 0x04
    121a:	35 81       	ldd	r19, Z+5	; 0x05
    121c:	0e 94 00 00 	call	0	; 0x0 <_ZNK6String6charAtEj>
    1220:	c8 01       	movw	r24, r16
    1222:	1f 91       	pop	r17
    1224:	0f 91       	pop	r16
    1226:	08 95       	ret

00001228 <_ZN6StringaSERKS_>:
    1228:	cf 93       	push	r28
    122a:	df 93       	push	r29
    122c:	ec 01       	movw	r28, r24
    122e:	fb 01       	movw	r30, r22
    1230:	86 17       	cp	r24, r22
    1232:	97 07       	cpc	r25, r23
    1234:	01 f0       	breq	.+0      	; 0x1236 <_ZN6StringaSERKS_+0xe>
    1236:	60 81       	ld	r22, Z
    1238:	71 81       	ldd	r23, Z+1	; 0x01
    123a:	61 15       	cp	r22, r1
    123c:	71 05       	cpc	r23, r1
    123e:	01 f0       	breq	.+0      	; 0x1240 <_ZN6StringaSERKS_+0x18>
    1240:	44 81       	ldd	r20, Z+4	; 0x04
    1242:	55 81       	ldd	r21, Z+5	; 0x05
    1244:	0e 94 00 00 	call	0	; 0x0 <_ZNK6String6charAtEj>
    1248:	00 c0       	rjmp	.+0      	; 0x124a <_ZN6StringaSERKS_+0x22>
    124a:	0e 94 00 00 	call	0	; 0x0 <_ZNK6String6charAtEj>
    124e:	ce 01       	movw	r24, r28
    1250:	df 91       	pop	r29
    1252:	cf 91       	pop	r28
    1254:	08 95       	ret

00001256 <_ZN6StringC1ERKS_>:
    1256:	fc 01       	movw	r30, r24
    1258:	11 82       	std	Z+1, r1	; 0x01
    125a:	10 82       	st	Z, r1
    125c:	13 82       	std	Z+3, r1	; 0x03
    125e:	12 82       	std	Z+2, r1	; 0x02
    1260:	15 82       	std	Z+5, r1	; 0x05
    1262:	14 82       	std	Z+4, r1	; 0x04
    1264:	16 82       	std	Z+6, r1	; 0x06
    1266:	0e 94 00 00 	call	0	; 0x0 <_ZNK6String6charAtEj>
    126a:	08 95       	ret

0000126c <_ZN6StringC2ERKS_>:
    126c:	fc 01       	movw	r30, r24
    126e:	11 82       	std	Z+1, r1	; 0x01
    1270:	10 82       	st	Z, r1
    1272:	13 82       	std	Z+3, r1	; 0x03
    1274:	12 82       	std	Z+2, r1	; 0x02
    1276:	15 82       	std	Z+5, r1	; 0x05
    1278:	14 82       	std	Z+4, r1	; 0x04
    127a:	16 82       	std	Z+6, r1	; 0x06
    127c:	0e 94 00 00 	call	0	; 0x0 <_ZNK6String6charAtEj>
    1280:	08 95       	ret

00001282 <_ZN6StringD1Ev>:
    1282:	fc 01       	movw	r30, r24
    1284:	80 81       	ld	r24, Z
    1286:	91 81       	ldd	r25, Z+1	; 0x01
    1288:	0e 94 00 00 	call	0	; 0x0 <_ZNK6String6charAtEj>
    128c:	08 95       	ret

0000128e <_ZN6StringD2Ev>:
    128e:	fc 01       	movw	r30, r24
    1290:	80 81       	ld	r24, Z
    1292:	91 81       	ldd	r25, Z+1	; 0x01
    1294:	0e 94 00 00 	call	0	; 0x0 <_ZNK6String6charAtEj>
    1298:	08 95       	ret

main.o:     file format elf32-avr

Sections:
Idx Name          Size      VMA       LMA       File off  Algn
  0 .text         0000001e  00000000  00000000  00000034  2**0
                  CONTENTS, ALLOC, LOAD, RELOC, READONLY, CODE
  1 .data         00000000  00000000  00000000  00000052  2**0
                  CONTENTS, ALLOC, LOAD, DATA
  2 .bss          00000000  00000000  00000000  00000052  2**0
                  ALLOC

Disassembly of section .text:

00000000 <main>:
   0:	cf 93       	push	r28
   2:	df 93       	push	r29
   4:	0e 94 00 00 	call	0	; 0x0 <main>
   8:	0e 94 00 00 	call	0	; 0x0 <main>
   c:	c0 e0       	ldi	r28, 0x00	; 0
   e:	d0 e0       	ldi	r29, 0x00	; 0
  10:	0e 94 00 00 	call	0	; 0x0 <main>
  14:	20 97       	sbiw	r28, 0x00	; 0
  16:	01 f0       	breq	.+0      	; 0x18 <main+0x18>
  18:	0e 94 00 00 	call	0	; 0x0 <main>
  1c:	00 c0       	rjmp	.+0      	; 0x1e <__zero_reg__+0x1d>

new.o:     file format elf32-avr

Sections:
Idx Name          Size      VMA       LMA       File off  Algn
  0 .text         0000002c  00000000  00000000  00000034  2**0
                  CONTENTS, ALLOC, LOAD, RELOC, READONLY, CODE
  1 .data         00000000  00000000  00000000  00000060  2**0
                  CONTENTS, ALLOC, LOAD, DATA
  2 .bss          00000000  00000000  00000000  00000060  2**0
                  ALLOC

Disassembly of section .text:

00000000 <__cxa_guard_acquire>:
   0:	fc 01       	movw	r30, r24
   2:	20 e0       	ldi	r18, 0x00	; 0
   4:	30 e0       	ldi	r19, 0x00	; 0
   6:	80 81       	ld	r24, Z
   8:	88 23       	and	r24, r24
   a:	01 f4       	brne	.+0      	; 0xc <__cxa_guard_acquire+0xc>
   c:	21 e0       	ldi	r18, 0x01	; 1
   e:	30 e0       	ldi	r19, 0x00	; 0
  10:	c9 01       	movw	r24, r18
  12:	08 95       	ret

00000014 <__cxa_guard_release>:
  14:	fc 01       	movw	r30, r24
  16:	81 e0       	ldi	r24, 0x01	; 1
  18:	80 83       	st	Z, r24
  1a:	08 95       	ret

0000001c <__cxa_guard_abort>:
  1c:	08 95       	ret

0000001e <__cxa_pure_virtual>:
  1e:	08 95       	ret

00000020 <_ZdlPv>:
  20:	0e 94 00 00 	call	0	; 0x0 <__cxa_guard_acquire>
  24:	08 95       	ret

00000026 <_Znwj>:
  26:	0e 94 00 00 	call	0	; 0x0 <__cxa_guard_acquire>
  2a:	08 95       	ret

wiring.o:     file format elf32-avr

Sections:
Idx Name          Size      VMA       LMA       File off  Algn
  0 .text         000001ac  00000000  00000000  00000034  2**0
                  CONTENTS, ALLOC, LOAD, RELOC, READONLY, CODE
  1 .data         00000000  00000000  00000000  000001e0  2**0
                  CONTENTS, ALLOC, LOAD, DATA
  2 .bss          00000009  00000000  00000000  000001e0  2**0
                  ALLOC

Disassembly of section .text:

00000000 <__vector_9>:
   0:	1f 92       	push	r1
   2:	0f 92       	push	r0
   4:	0f b6       	in	r0, 0x3f	; 63
   6:	0f 92       	push	r0
   8:	11 24       	eor	r1, r1
   a:	2f 93       	push	r18
   c:	3f 93       	push	r19
   e:	4f 93       	push	r20
  10:	5f 93       	push	r21
  12:	6f 93       	push	r22
  14:	7f 93       	push	r23
  16:	8f 93       	push	r24
  18:	9f 93       	push	r25
  1a:	af 93       	push	r26
  1c:	bf 93       	push	r27
  1e:	20 91 00 00 	lds	r18, 0x0000
  22:	30 91 00 00 	lds	r19, 0x0000
  26:	40 91 00 00 	lds	r20, 0x0000
  2a:	50 91 00 00 	lds	r21, 0x0000
  2e:	70 91 00 00 	lds	r23, 0x0000
  32:	da 01       	movw	r26, r20
  34:	c9 01       	movw	r24, r18
  36:	40 96       	adiw	r24, 0x10	; 16
  38:	a1 1d       	adc	r26, r1
  3a:	b1 1d       	adc	r27, r1
  3c:	67 2f       	mov	r22, r23
  3e:	60 5d       	subi	r22, 0xD0	; 208
  40:	6d 37       	cpi	r22, 0x7D	; 125
  42:	00 f0       	brcs	.+0      	; 0x44 <__vector_9+0x44>
  44:	6d 57       	subi	r22, 0x7D	; 125
  46:	da 01       	movw	r26, r20
  48:	c9 01       	movw	r24, r18
  4a:	41 96       	adiw	r24, 0x11	; 17
  4c:	a1 1d       	adc	r26, r1
  4e:	b1 1d       	adc	r27, r1
  50:	60 93 00 00 	sts	0x0000, r22
  54:	80 93 00 00 	sts	0x0000, r24
  58:	90 93 00 00 	sts	0x0000, r25
  5c:	a0 93 00 00 	sts	0x0000, r26
  60:	b0 93 00 00 	sts	0x0000, r27
  64:	80 91 00 00 	lds	r24, 0x0000
  68:	90 91 00 00 	lds	r25, 0x0000
  6c:	a0 91 00 00 	lds	r26, 0x0000
  70:	b0 91 00 00 	lds	r27, 0x0000
  74:	01 96       	adiw	r24, 0x01	; 1
  76:	a1 1d       	adc	r26, r1
  78:	b1 1d       	adc	r27, r1
  7a:	80 93 00 00 	sts	0x0000, r24
  7e:	90 93 00 00 	sts	0x0000, r25
  82:	a0 93 00 00 	sts	0x0000, r26
  86:	b0 93 00 00 	sts	0x0000, r27
  8a:	bf 91       	pop	r27
  8c:	af 91       	pop	r26
  8e:	9f 91       	pop	r25
  90:	8f 91       	pop	r24
  92:	7f 91       	pop	r23
  94:	6f 91       	pop	r22
  96:	5f 91       	pop	r21
  98:	4f 91       	pop	r20
  9a:	3f 91       	pop	r19
  9c:	2f 91       	pop	r18
  9e:	0f 90       	pop	r0
  a0:	0f be       	out	0x3f, r0	; 63
  a2:	0f 90       	pop	r0
  a4:	1f 90       	pop	r1
  a6:	18 95       	reti

000000a8 <millis>:
  a8:	8f b7       	in	r24, 0x3f	; 63
  aa:	f8 94       	cli
  ac:	20 91 00 00 	lds	r18, 0x0000
  b0:	30 91 00 00 	lds	r19, 0x0000
  b4:	40 91 00 00 	lds	r20, 0x0000
  b8:	50 91 00 00 	lds	r21, 0x0000
  bc:	8f bf       	out	0x3f, r24	; 63
  be:	b9 01       	movw	r22, r18
  c0:	ca 01       	movw	r24, r20
  c2:	08 95       	ret

000000c4 <micros>:
  c4:	9f b7       	in	r25, 0x3f	; 63
  c6:	f8 94       	cli
  c8:	20 91 00 00 	lds	r18, 0x0000
  cc:	30 91 00 00 	lds	r19, 0x0000
  d0:	40 91 00 00 	lds	r20, 0x0000
  d4:	50 91 00 00 	lds	r21, 0x0000
  d8:	82 b7       	in	r24, 0x32	; 50
  da:	08 b6       	in	r0, 0x38	; 56
  dc:	00 fe       	sbrs	r0, 0
  de:	00 c0       	rjmp	.+0      	; 0xe0 <micros+0x1c>
  e0:	8f 3f       	cpi	r24, 0xFF	; 255
  e2:	01 f0       	breq	.+0      	; 0xe4 <micros+0x20>
  e4:	2f 5f       	subi	r18, 0xFF	; 255
  e6:	3f 4f       	sbci	r19, 0xFF	; 255
  e8:	4f 4f       	sbci	r20, 0xFF	; 255
  ea:	5f 4f       	sbci	r21, 0xFF	; 255
  ec:	9f bf       	out	0x3f, r25	; 63
  ee:	54 2f       	mov	r21, r20
  f0:	43 2f       	mov	r20, r19
  f2:	32 2f       	mov	r19, r18
  f4:	22 27       	eor	r18, r18
  f6:	28 0f       	add	r18, r24
  f8:	31 1d       	adc	r19, r1
  fa:	41 1d       	adc	r20, r1
  fc:	51 1d       	adc	r21, r1
  fe:	86 e0       	ldi	r24, 0x06	; 6
 100:	22 0f       	add	r18, r18
 102:	33 1f       	adc	r19, r19
 104:	44 1f       	adc	r20, r20
 106:	55 1f       	adc	r21, r21
 108:	8a 95       	dec	r24
 10a:	01 f4       	brne	.+0      	; 0x10c <micros+0x48>
 10c:	b9 01       	movw	r22, r18
 10e:	ca 01       	movw	r24, r20
 110:	08 95       	ret

00000112 <delay>:
 112:	ef 92       	push	r14
 114:	ff 92       	push	r15
 116:	0f 93       	push	r16
 118:	1f 93       	push	r17
 11a:	cf 93       	push	r28
 11c:	df 93       	push	r29
 11e:	7b 01       	movw	r14, r22
 120:	8c 01       	movw	r16, r24
 122:	0e 94 00 00 	call	0	; 0x0 <__vector_9>
 126:	eb 01       	movw	r28, r22
 128:	00 c0       	rjmp	.+0      	; 0x12a <delay+0x18>
 12a:	0e 94 00 00 	call	0	; 0x0 <__vector_9>
 12e:	6c 1b       	sub	r22, r28
 130:	7d 0b       	sbc	r23, r29
 132:	68 5e       	subi	r22, 0xE8	; 232
 134:	73 40       	sbci	r23, 0x03	; 3
 136:	00 f0       	brcs	.+0      	; 0x138 <delay+0x26>
 138:	08 94       	sec
 13a:	e1 08       	sbc	r14, r1
 13c:	f1 08       	sbc	r15, r1
 13e:	01 09       	sbc	r16, r1
 140:	11 09       	sbc	r17, r1
 142:	c8 51       	subi	r28, 0x18	; 24
 144:	dc 4f       	sbci	r29, 0xFC	; 252
 146:	e1 14       	cp	r14, r1
 148:	f1 04       	cpc	r15, r1
 14a:	01 05       	cpc	r16, r1
 14c:	11 05       	cpc	r17, r1
 14e:	01 f4       	brne	.+0      	; 0x150 <delay+0x3e>
 150:	df 91       	pop	r29
 152:	cf 91       	pop	r28
 154:	1f 91       	pop	r17
 156:	0f 91       	pop	r16
 158:	ff 90       	pop	r15
 15a:	ef 90       	pop	r14
 15c:	08 95       	ret

0000015e <delayMicroseconds>:
 15e:	01 97       	sbiw	r24, 0x01	; 1
 160:	01 f0       	breq	.+0      	; 0x162 <delayMicroseconds+0x4>
 162:	01 97       	sbiw	r24, 0x01	; 1
 164:	01 f0       	breq	.+0      	; 0x166 <delayMicroseconds+0x8>
 166:	88 0f       	add	r24, r24
 168:	99 1f       	adc	r25, r25
 16a:	01 97       	sbiw	r24, 0x01	; 1
 16c:	01 97       	sbiw	r24, 0x01	; 1
 16e:	01 f4       	brne	.+0      	; 0x170 <delayMicroseconds+0x12>
 170:	08 95       	ret

00000172 <init>:
 172:	78 94       	sei
 174:	83 b7       	in	r24, 0x33	; 51
 176:	82 60       	ori	r24, 0x02	; 2
 178:	83 bf       	out	0x33, r24	; 51
 17a:	83 b7       	in	r24, 0x33	; 51
 17c:	81 60       	ori	r24, 0x01	; 1
 17e:	83 bf       	out	0x33, r24	; 51
 180:	89 b7       	in	r24, 0x39	; 57
 182:	81 60       	ori	r24, 0x01	; 1
 184:	89 bf       	out	0x39, r24	; 57
 186:	1e bc       	out	0x2e, r1	; 46
 188:	8e b5       	in	r24, 0x2e	; 46
 18a:	82 60       	ori	r24, 0x02	; 2
 18c:	8e bd       	out	0x2e, r24	; 46
 18e:	8f b5       	in	r24, 0x2f	; 47
 190:	81 60       	ori	r24, 0x01	; 1
 192:	8f bd       	out	0x2f, r24	; 47
 194:	85 b5       	in	r24, 0x25	; 37
 196:	84 60       	ori	r24, 0x04	; 4
 198:	85 bd       	out	0x25, r24	; 37
 19a:	85 b5       	in	r24, 0x25	; 37
 19c:	80 64       	ori	r24, 0x40	; 64
 19e:	85 bd       	out	0x25, r24	; 37
 1a0:	32 9a       	sbi	0x06, 2	; 6
 1a2:	31 9a       	sbi	0x06, 1	; 6
 1a4:	30 9a       	sbi	0x06, 0	; 6
 1a6:	37 9a       	sbi	0x06, 7	; 6
 1a8:	1a b8       	out	0x0a, r1	; 10
 1aa:	08 95       	ret

wiring_analog.o:     file format elf32-avr

Sections:
Idx Name          Size      VMA       LMA       File off  Algn
  0 .text         000000bc  00000000  00000000  00000034  2**0
                  CONTENTS, ALLOC, LOAD, RELOC, READONLY, CODE
  1 .data         00000001  00000000  00000000  000000f0  2**0
                  CONTENTS, ALLOC, LOAD, DATA
  2 .bss          00000000  00000000  00000000  000000f1  2**0
                  ALLOC

Disassembly of section .text:

00000000 <analogReference>:
   0:	80 93 00 00 	sts	0x0000, r24
   4:	08 95       	ret

00000006 <analogRead>:
   6:	98 2f       	mov	r25, r24
   8:	8e 30       	cpi	r24, 0x0E	; 14
   a:	00 f0       	brcs	.+0      	; 0xc <analogRead+0x6>
   c:	9e 50       	subi	r25, 0x0E	; 14
   e:	97 70       	andi	r25, 0x07	; 7
  10:	80 91 00 00 	lds	r24, 0x0000
  14:	82 95       	swap	r24
  16:	88 0f       	add	r24, r24
  18:	88 0f       	add	r24, r24
  1a:	80 7c       	andi	r24, 0xC0	; 192
  1c:	89 2b       	or	r24, r25
  1e:	87 b9       	out	0x07, r24	; 7
  20:	36 9a       	sbi	0x06, 6	; 6
  22:	36 99       	sbic	0x06, 6	; 6
  24:	00 c0       	rjmp	.+0      	; 0x26 <analogRead+0x20>
  26:	24 b1       	in	r18, 0x04	; 4
  28:	45 b1       	in	r20, 0x05	; 5
  2a:	94 2f       	mov	r25, r20
  2c:	80 e0       	ldi	r24, 0x00	; 0
  2e:	30 e0       	ldi	r19, 0x00	; 0
  30:	28 2b       	or	r18, r24
  32:	39 2b       	or	r19, r25
  34:	c9 01       	movw	r24, r18
  36:	08 95       	ret

00000038 <analogWrite>:
  38:	1f 93       	push	r17
  3a:	cf 93       	push	r28
  3c:	df 93       	push	r29
  3e:	18 2f       	mov	r17, r24
  40:	eb 01       	movw	r28, r22
  42:	61 e0       	ldi	r22, 0x01	; 1
  44:	0e 94 00 00 	call	0	; 0x0 <analogReference>
  48:	20 97       	sbiw	r28, 0x00	; 0
  4a:	01 f0       	breq	.+0      	; 0x4c <analogWrite+0x14>
  4c:	cf 3f       	cpi	r28, 0xFF	; 255
  4e:	d1 05       	cpc	r29, r1
  50:	01 f0       	breq	.+0      	; 0x52 <analogWrite+0x1a>
  52:	e1 2f       	mov	r30, r17
  54:	f0 e0       	ldi	r31, 0x00	; 0
  56:	e0 50       	subi	r30, 0x00	; 0
  58:	f0 40       	sbci	r31, 0x00	; 0
  5a:	84 91       	lpm	r24, Z+
  5c:	83 30       	cpi	r24, 0x03	; 3
  5e:	01 f0       	breq	.+0      	; 0x60 <analogWrite+0x28>
  60:	84 30       	cpi	r24, 0x04	; 4
  62:	00 f4       	brcc	.+0      	; 0x64 <analogWrite+0x2c>
  64:	81 30       	cpi	r24, 0x01	; 1
  66:	01 f4       	brne	.+0      	; 0x68 <analogWrite+0x30>
  68:	00 c0       	rjmp	.+0      	; 0x6a <analogWrite+0x32>
  6a:	84 30       	cpi	r24, 0x04	; 4
  6c:	01 f0       	breq	.+0      	; 0x6e <analogWrite+0x36>
  6e:	85 30       	cpi	r24, 0x05	; 5
  70:	01 f4       	brne	.+0      	; 0x72 <analogWrite+0x3a>
  72:	00 c0       	rjmp	.+0      	; 0x74 <analogWrite+0x3c>
  74:	83 b7       	in	r24, 0x33	; 51
  76:	80 61       	ori	r24, 0x10	; 16
  78:	83 bf       	out	0x33, r24	; 51
  7a:	cc bf       	out	0x3c, r28	; 60
  7c:	00 c0       	rjmp	.+0      	; 0x7e <analogWrite+0x46>
  7e:	8f b5       	in	r24, 0x2f	; 47
  80:	80 68       	ori	r24, 0x80	; 128
  82:	8f bd       	out	0x2f, r24	; 47
  84:	db bd       	out	0x2b, r29	; 43
  86:	ca bd       	out	0x2a, r28	; 42
  88:	00 c0       	rjmp	.+0      	; 0x8a <analogWrite+0x52>
  8a:	8f b5       	in	r24, 0x2f	; 47
  8c:	80 62       	ori	r24, 0x20	; 32
  8e:	8f bd       	out	0x2f, r24	; 47
  90:	d9 bd       	out	0x29, r29	; 41
  92:	c8 bd       	out	0x28, r28	; 40
  94:	00 c0       	rjmp	.+0      	; 0x96 <analogWrite+0x5e>
  96:	85 b5       	in	r24, 0x25	; 37
  98:	80 62       	ori	r24, 0x20	; 32
  9a:	85 bd       	out	0x25, r24	; 37
  9c:	c3 bd       	out	0x23, r28	; 35
  9e:	00 c0       	rjmp	.+0      	; 0xa0 <analogWrite+0x68>
  a0:	c0 38       	cpi	r28, 0x80	; 128
  a2:	d1 05       	cpc	r29, r1
  a4:	04 f4       	brge	.+0      	; 0xa6 <analogWrite+0x6e>
  a6:	81 2f       	mov	r24, r17
  a8:	60 e0       	ldi	r22, 0x00	; 0
  aa:	00 c0       	rjmp	.+0      	; 0xac <analogWrite+0x74>
  ac:	81 2f       	mov	r24, r17
  ae:	61 e0       	ldi	r22, 0x01	; 1
  b0:	0e 94 00 00 	call	0	; 0x0 <analogReference>
  b4:	df 91       	pop	r29
  b6:	cf 91       	pop	r28
  b8:	1f 91       	pop	r17
  ba:	08 95       	ret

wiring_digital.o:     file format elf32-avr

Sections:
Idx Name          Size      VMA       LMA       File off  Algn
  0 .text         00000166  00000000  00000000  00000034  2**0
                  CONTENTS, ALLOC, LOAD, RELOC, READONLY, CODE
  1 .data         00000000  00000000  00000000  0000019a  2**0
                  CONTENTS, ALLOC, LOAD, DATA
  2 .bss          00000000  00000000  00000000  0000019a  2**0
                  ALLOC
  3 .progmem.data 0000005a  00000000  00000000  0000019a  2**0
                  CONTENTS, ALLOC, LOAD, READONLY, DATA

Disassembly of section .text:

00000000 <pinMode>:
   0:	cf 93       	push	r28
   2:	df 93       	push	r29
   4:	48 2f       	mov	r20, r24
   6:	50 e0       	ldi	r21, 0x00	; 0
   8:	ca 01       	movw	r24, r20
   a:	80 50       	subi	r24, 0x00	; 0
   c:	90 40       	sbci	r25, 0x00	; 0
   e:	fc 01       	movw	r30, r24
  10:	34 91       	lpm	r19, Z+
  12:	40 50       	subi	r20, 0x00	; 0
  14:	50 40       	sbci	r21, 0x00	; 0
  16:	fa 01       	movw	r30, r20
  18:	84 91       	lpm	r24, Z+
  1a:	88 23       	and	r24, r24
  1c:	01 f0       	breq	.+0      	; 0x1e <pinMode+0x1e>
  1e:	90 e0       	ldi	r25, 0x00	; 0
  20:	88 0f       	add	r24, r24
  22:	99 1f       	adc	r25, r25
  24:	fc 01       	movw	r30, r24
  26:	e0 50       	subi	r30, 0x00	; 0
  28:	f0 40       	sbci	r31, 0x00	; 0
  2a:	a5 91       	lpm	r26, Z+
  2c:	b4 91       	lpm	r27, Z+
  2e:	fc 01       	movw	r30, r24
  30:	e0 50       	subi	r30, 0x00	; 0
  32:	f0 40       	sbci	r31, 0x00	; 0
  34:	c5 91       	lpm	r28, Z+
  36:	d4 91       	lpm	r29, Z+
  38:	66 23       	and	r22, r22
  3a:	01 f4       	brne	.+0      	; 0x3c <pinMode+0x3c>
  3c:	2f b7       	in	r18, 0x3f	; 63
  3e:	f8 94       	cli
  40:	8c 91       	ld	r24, X
  42:	93 2f       	mov	r25, r19
  44:	90 95       	com	r25
  46:	89 23       	and	r24, r25
  48:	8c 93       	st	X, r24
  4a:	88 81       	ld	r24, Y
  4c:	89 23       	and	r24, r25
  4e:	00 c0       	rjmp	.+0      	; 0x50 <pinMode+0x50>
  50:	62 30       	cpi	r22, 0x02	; 2
  52:	01 f4       	brne	.+0      	; 0x54 <pinMode+0x54>
  54:	2f b7       	in	r18, 0x3f	; 63
  56:	f8 94       	cli
  58:	8c 91       	ld	r24, X
  5a:	93 2f       	mov	r25, r19
  5c:	90 95       	com	r25
  5e:	89 23       	and	r24, r25
  60:	8c 93       	st	X, r24
  62:	88 81       	ld	r24, Y
  64:	83 2b       	or	r24, r19
  66:	88 83       	st	Y, r24
  68:	2f bf       	out	0x3f, r18	; 63
  6a:	00 c0       	rjmp	.+0      	; 0x6c <pinMode+0x6c>
  6c:	9f b7       	in	r25, 0x3f	; 63
  6e:	f8 94       	cli
  70:	8c 91       	ld	r24, X
  72:	83 2b       	or	r24, r19
  74:	8c 93       	st	X, r24
  76:	9f bf       	out	0x3f, r25	; 63
  78:	df 91       	pop	r29
  7a:	cf 91       	pop	r28
  7c:	08 95       	ret

0000007e <turnOffPWM>:
  7e:	84 30       	cpi	r24, 0x04	; 4
  80:	01 f0       	breq	.+0      	; 0x82 <turnOffPWM+0x4>
  82:	85 30       	cpi	r24, 0x05	; 5
  84:	01 f0       	breq	.+0      	; 0x86 <turnOffPWM+0x8>
  86:	83 30       	cpi	r24, 0x03	; 3
  88:	01 f4       	brne	.+0      	; 0x8a <turnOffPWM+0xc>
  8a:	8f b5       	in	r24, 0x2f	; 47
  8c:	8f 77       	andi	r24, 0x7F	; 127
  8e:	00 c0       	rjmp	.+0      	; 0x90 <turnOffPWM+0x12>
  90:	8f b5       	in	r24, 0x2f	; 47
  92:	8f 7d       	andi	r24, 0xDF	; 223
  94:	8f bd       	out	0x2f, r24	; 47
  96:	08 95       	ret
  98:	85 b5       	in	r24, 0x25	; 37
  9a:	8f 7d       	andi	r24, 0xDF	; 223
  9c:	85 bd       	out	0x25, r24	; 37
  9e:	08 95       	ret

000000a0 <digitalWrite>:
  a0:	ff 92       	push	r15
  a2:	0f 93       	push	r16
  a4:	1f 93       	push	r17
  a6:	f6 2e       	mov	r15, r22
  a8:	48 2f       	mov	r20, r24
  aa:	50 e0       	ldi	r21, 0x00	; 0
  ac:	ca 01       	movw	r24, r20
  ae:	80 50       	subi	r24, 0x00	; 0
  b0:	90 40       	sbci	r25, 0x00	; 0
  b2:	fc 01       	movw	r30, r24
  b4:	24 91       	lpm	r18, Z+
  b6:	ca 01       	movw	r24, r20
  b8:	80 50       	subi	r24, 0x00	; 0
  ba:	90 40       	sbci	r25, 0x00	; 0
  bc:	fc 01       	movw	r30, r24
  be:	14 91       	lpm	r17, Z+
  c0:	40 50       	subi	r20, 0x00	; 0
  c2:	50 40       	sbci	r21, 0x00	; 0
  c4:	fa 01       	movw	r30, r20
  c6:	04 91       	lpm	r16, Z+
  c8:	00 23       	and	r16, r16
  ca:	01 f0       	breq	.+0      	; 0xcc <digitalWrite+0x2c>
  cc:	22 23       	and	r18, r18
  ce:	01 f0       	breq	.+0      	; 0xd0 <digitalWrite+0x30>
  d0:	82 2f       	mov	r24, r18
  d2:	0e 94 00 00 	call	0	; 0x0 <pinMode>
  d6:	e0 2f       	mov	r30, r16
  d8:	f0 e0       	ldi	r31, 0x00	; 0
  da:	ee 0f       	add	r30, r30
  dc:	ff 1f       	adc	r31, r31
  de:	e0 50       	subi	r30, 0x00	; 0
  e0:	f0 40       	sbci	r31, 0x00	; 0
  e2:	a5 91       	lpm	r26, Z+
  e4:	b4 91       	lpm	r27, Z+
  e6:	9f b7       	in	r25, 0x3f	; 63
  e8:	f8 94       	cli
  ea:	ff 20       	and	r15, r15
  ec:	01 f4       	brne	.+0      	; 0xee <digitalWrite+0x4e>
  ee:	8c 91       	ld	r24, X
  f0:	10 95       	com	r17
  f2:	81 23       	and	r24, r17
  f4:	00 c0       	rjmp	.+0      	; 0xf6 <digitalWrite+0x56>
  f6:	8c 91       	ld	r24, X
  f8:	81 2b       	or	r24, r17
  fa:	8c 93       	st	X, r24
  fc:	9f bf       	out	0x3f, r25	; 63
  fe:	1f 91       	pop	r17
 100:	0f 91       	pop	r16
 102:	ff 90       	pop	r15
 104:	08 95       	ret

00000106 <digitalRead>:
 106:	0f 93       	push	r16
 108:	1f 93       	push	r17
 10a:	48 2f       	mov	r20, r24
 10c:	50 e0       	ldi	r21, 0x00	; 0
 10e:	ca 01       	movw	r24, r20
 110:	80 50       	subi	r24, 0x00	; 0
 112:	90 40       	sbci	r25, 0x00	; 0
 114:	fc 01       	movw	r30, r24
 116:	24 91       	lpm	r18, Z+
 118:	ca 01       	movw	r24, r20
 11a:	80 50       	subi	r24, 0x00	; 0
 11c:	90 40       	sbci	r25, 0x00	; 0
 11e:	fc 01       	movw	r30, r24
 120:	04 91       	lpm	r16, Z+
 122:	40 50       	subi	r20, 0x00	; 0
 124:	50 40       	sbci	r21, 0x00	; 0
 126:	fa 01       	movw	r30, r20
 128:	14 91       	lpm	r17, Z+
 12a:	11 23       	and	r17, r17
 12c:	01 f4       	brne	.+0      	; 0x12e <digitalRead+0x28>
 12e:	20 e0       	ldi	r18, 0x00	; 0
 130:	30 e0       	ldi	r19, 0x00	; 0
 132:	00 c0       	rjmp	.+0      	; 0x134 <digitalRead+0x2e>
 134:	22 23       	and	r18, r18
 136:	01 f0       	breq	.+0      	; 0x138 <digitalRead+0x32>
 138:	82 2f       	mov	r24, r18
 13a:	0e 94 00 00 	call	0	; 0x0 <pinMode>
 13e:	81 2f       	mov	r24, r17
 140:	90 e0       	ldi	r25, 0x00	; 0
 142:	88 0f       	add	r24, r24
 144:	99 1f       	adc	r25, r25
 146:	80 50       	subi	r24, 0x00	; 0
 148:	90 40       	sbci	r25, 0x00	; 0
 14a:	fc 01       	movw	r30, r24
 14c:	a5 91       	lpm	r26, Z+
 14e:	b4 91       	lpm	r27, Z+
 150:	8c 91       	ld	r24, X
 152:	20 e0       	ldi	r18, 0x00	; 0
 154:	30 e0       	ldi	r19, 0x00	; 0
 156:	80 23       	and	r24, r16
 158:	01 f0       	breq	.+0      	; 0x15a <digitalRead+0x54>
 15a:	21 e0       	ldi	r18, 0x01	; 1
 15c:	30 e0       	ldi	r19, 0x00	; 0
 15e:	c9 01       	movw	r24, r18
 160:	1f 91       	pop	r17
 162:	0f 91       	pop	r16
 164:	08 95       	ret

wiring_pulse.o:     file format elf32-avr

Sections:
Idx Name          Size      VMA       LMA       File off  Algn
  0 .text         00000124  00000000  00000000  00000034  2**0
                  CONTENTS, ALLOC, LOAD, RELOC, READONLY, CODE
  1 .data         00000000  00000000  00000000  00000158  2**0
                  CONTENTS, ALLOC, LOAD, DATA
  2 .bss          00000000  00000000  00000000  00000158  2**0
                  ALLOC

Disassembly of section .text:

00000000 <pulseIn>:
   0:	8f 92       	push	r8
   2:	9f 92       	push	r9
   4:	af 92       	push	r10
   6:	bf 92       	push	r11
   8:	cf 92       	push	r12
   a:	df 92       	push	r13
   c:	ef 92       	push	r14
   e:	ff 92       	push	r15
  10:	0f 93       	push	r16
  12:	1f 93       	push	r17
  14:	cf 93       	push	r28
  16:	df 93       	push	r29
  18:	a8 2f       	mov	r26, r24
  1a:	b0 e0       	ldi	r27, 0x00	; 0
  1c:	cd 01       	movw	r24, r26
  1e:	80 50       	subi	r24, 0x00	; 0
  20:	90 40       	sbci	r25, 0x00	; 0
  22:	fc 01       	movw	r30, r24
  24:	84 90       	lpm	r8, Z+
  26:	a0 50       	subi	r26, 0x00	; 0
  28:	b0 40       	sbci	r27, 0x00	; 0
  2a:	fd 01       	movw	r30, r26
  2c:	84 91       	lpm	r24, Z+
  2e:	66 23       	and	r22, r22
  30:	01 f4       	brne	.+0      	; 0x32 <pulseIn+0x32>
  32:	99 24       	eor	r9, r9
  34:	00 c0       	rjmp	.+0      	; 0x36 <pulseIn+0x36>
  36:	98 2c       	mov	r9, r8
  38:	59 01       	movw	r10, r18
  3a:	6a 01       	movw	r12, r20
  3c:	94 e0       	ldi	r25, 0x04	; 4
  3e:	d6 94       	lsr	r13
  40:	c7 94       	ror	r12
  42:	b7 94       	ror	r11
  44:	a7 94       	ror	r10
  46:	9a 95       	dec	r25
  48:	01 f4       	brne	.+0      	; 0x4a <pulseIn+0x4a>
  4a:	68 2f       	mov	r22, r24
  4c:	70 e0       	ldi	r23, 0x00	; 0
  4e:	66 0f       	add	r22, r22
  50:	77 1f       	adc	r23, r23
  52:	60 50       	subi	r22, 0x00	; 0
  54:	70 40       	sbci	r23, 0x00	; 0
  56:	ee 24       	eor	r14, r14
  58:	ff 24       	eor	r15, r15
  5a:	87 01       	movw	r16, r14
  5c:	fb 01       	movw	r30, r22
  5e:	a5 91       	lpm	r26, Z+
  60:	b4 91       	lpm	r27, Z+
  62:	00 c0       	rjmp	.+0      	; 0x64 <pulseIn+0x64>
  64:	ea 14       	cp	r14, r10
  66:	fb 04       	cpc	r15, r11
  68:	0c 05       	cpc	r16, r12
  6a:	1d 05       	cpc	r17, r13
  6c:	01 f4       	brne	.+0      	; 0x6e <pulseIn+0x6e>
  6e:	00 c0       	rjmp	.+0      	; 0x70 <pulseIn+0x70>
  70:	08 94       	sec
  72:	e1 1c       	adc	r14, r1
  74:	f1 1c       	adc	r15, r1
  76:	01 1d       	adc	r16, r1
  78:	11 1d       	adc	r17, r1
  7a:	8c 91       	ld	r24, X
  7c:	88 21       	and	r24, r8
  7e:	89 15       	cp	r24, r9
  80:	01 f0       	breq	.+0      	; 0x82 <pulseIn+0x82>
  82:	00 c0       	rjmp	.+0      	; 0x84 <pulseIn+0x84>
  84:	ea 14       	cp	r14, r10
  86:	fb 04       	cpc	r15, r11
  88:	0c 05       	cpc	r16, r12
  8a:	1d 05       	cpc	r17, r13
  8c:	01 f4       	brne	.+0      	; 0x8e <pulseIn+0x8e>
  8e:	00 c0       	rjmp	.+0      	; 0x90 <pulseIn+0x90>
  90:	08 94       	sec
  92:	e1 1c       	adc	r14, r1
  94:	f1 1c       	adc	r15, r1
  96:	01 1d       	adc	r16, r1
  98:	11 1d       	adc	r17, r1
  9a:	00 c0       	rjmp	.+0      	; 0x9c <pulseIn+0x9c>
  9c:	fb 01       	movw	r30, r22
  9e:	a5 91       	lpm	r26, Z+
  a0:	b4 91       	lpm	r27, Z+
  a2:	8c 91       	ld	r24, X
  a4:	88 21       	and	r24, r8
  a6:	89 15       	cp	r24, r9
  a8:	01 f4       	brne	.+0      	; 0xaa <pulseIn+0xaa>
  aa:	20 e0       	ldi	r18, 0x00	; 0
  ac:	30 e0       	ldi	r19, 0x00	; 0
  ae:	40 e0       	ldi	r20, 0x00	; 0
  b0:	50 e0       	ldi	r21, 0x00	; 0
  b2:	fb 01       	movw	r30, r22
  b4:	c5 91       	lpm	r28, Z+
  b6:	d4 91       	lpm	r29, Z+
  b8:	00 c0       	rjmp	.+0      	; 0xba <pulseIn+0xba>
  ba:	da 01       	movw	r26, r20
  bc:	c9 01       	movw	r24, r18
  be:	8e 0d       	add	r24, r14
  c0:	9f 1d       	adc	r25, r15
  c2:	a0 1f       	adc	r26, r16
  c4:	b1 1f       	adc	r27, r17
  c6:	8a 15       	cp	r24, r10
  c8:	9b 05       	cpc	r25, r11
  ca:	ac 05       	cpc	r26, r12
  cc:	bd 05       	cpc	r27, r13
  ce:	01 f0       	breq	.+0      	; 0xd0 <pulseIn+0xd0>
  d0:	2f 5f       	subi	r18, 0xFF	; 255
  d2:	3f 4f       	sbci	r19, 0xFF	; 255
  d4:	4f 4f       	sbci	r20, 0xFF	; 255
  d6:	5f 4f       	sbci	r21, 0xFF	; 255
  d8:	88 81       	ld	r24, Y
  da:	88 21       	and	r24, r8
  dc:	89 15       	cp	r24, r9
  de:	01 f0       	breq	.+0      	; 0xe0 <pulseIn+0xe0>
  e0:	ca 01       	movw	r24, r20
  e2:	b9 01       	movw	r22, r18
  e4:	25 e1       	ldi	r18, 0x15	; 21
  e6:	30 e0       	ldi	r19, 0x00	; 0
  e8:	40 e0       	ldi	r20, 0x00	; 0
  ea:	50 e0       	ldi	r21, 0x00	; 0
  ec:	0e 94 00 00 	call	0	; 0x0 <pulseIn>
  f0:	9b 01       	movw	r18, r22
  f2:	ac 01       	movw	r20, r24
  f4:	20 5f       	subi	r18, 0xF0	; 240
  f6:	3f 4f       	sbci	r19, 0xFF	; 255
  f8:	4f 4f       	sbci	r20, 0xFF	; 255
  fa:	5f 4f       	sbci	r21, 0xFF	; 255
  fc:	00 c0       	rjmp	.+0      	; 0xfe <pulseIn+0xfe>
  fe:	20 e0       	ldi	r18, 0x00	; 0
 100:	30 e0       	ldi	r19, 0x00	; 0
 102:	40 e0       	ldi	r20, 0x00	; 0
 104:	50 e0       	ldi	r21, 0x00	; 0
 106:	b9 01       	movw	r22, r18
 108:	ca 01       	movw	r24, r20
 10a:	df 91       	pop	r29
 10c:	cf 91       	pop	r28
 10e:	1f 91       	pop	r17
 110:	0f 91       	pop	r16
 112:	ff 90       	pop	r15
 114:	ef 90       	pop	r14
 116:	df 90       	pop	r13
 118:	cf 90       	pop	r12
 11a:	bf 90       	pop	r11
 11c:	af 90       	pop	r10
 11e:	9f 90       	pop	r9
 120:	8f 90       	pop	r8
 122:	08 95       	ret

wiring_shift.o:     file format elf32-avr

Sections:
Idx Name          Size      VMA       LMA       File off  Algn
  0 .text         00000104  00000000  00000000  00000034  2**0
                  CONTENTS, ALLOC, LOAD, RELOC, READONLY, CODE
  1 .data         00000000  00000000  00000000  00000138  2**0
                  CONTENTS, ALLOC, LOAD, DATA
  2 .bss          00000000  00000000  00000000  00000138  2**0
                  ALLOC

Disassembly of section .text:

00000000 <shiftOut>:
   0:	bf 92       	push	r11
   2:	cf 92       	push	r12
   4:	df 92       	push	r13
   6:	ef 92       	push	r14
   8:	ff 92       	push	r15
   a:	0f 93       	push	r16
   c:	1f 93       	push	r17
   e:	cf 93       	push	r28
  10:	df 93       	push	r29
  12:	e8 2e       	mov	r14, r24
  14:	f6 2e       	mov	r15, r22
  16:	b4 2e       	mov	r11, r20
  18:	c7 e0       	ldi	r28, 0x07	; 7
  1a:	d0 e0       	ldi	r29, 0x00	; 0
  1c:	02 2f       	mov	r16, r18
  1e:	10 e0       	ldi	r17, 0x00	; 0
  20:	87 e0       	ldi	r24, 0x07	; 7
  22:	c8 2e       	mov	r12, r24
  24:	d1 2c       	mov	r13, r1
  26:	bb 20       	and	r11, r11
  28:	01 f4       	brne	.+0      	; 0x2a <shiftOut+0x2a>
  2a:	b6 01       	movw	r22, r12
  2c:	6c 1b       	sub	r22, r28
  2e:	7d 0b       	sbc	r23, r29
  30:	c8 01       	movw	r24, r16
  32:	00 c0       	rjmp	.+0      	; 0x34 <shiftOut+0x34>
  34:	95 95       	asr	r25
  36:	87 95       	ror	r24
  38:	6a 95       	dec	r22
  3a:	02 f4       	brpl	.+0      	; 0x3c <shiftOut+0x3c>
  3c:	bc 01       	movw	r22, r24
  3e:	00 c0       	rjmp	.+0      	; 0x40 <shiftOut+0x40>
  40:	b8 01       	movw	r22, r16
  42:	0c 2e       	mov	r0, r28
  44:	00 c0       	rjmp	.+0      	; 0x46 <shiftOut+0x46>
  46:	75 95       	asr	r23
  48:	67 95       	ror	r22
  4a:	0a 94       	dec	r0
  4c:	02 f4       	brpl	.+0      	; 0x4e <shiftOut+0x4e>
  4e:	61 70       	andi	r22, 0x01	; 1
  50:	8e 2d       	mov	r24, r14
  52:	0e 94 00 00 	call	0	; 0x0 <shiftOut>
  56:	8f 2d       	mov	r24, r15
  58:	61 e0       	ldi	r22, 0x01	; 1
  5a:	0e 94 00 00 	call	0	; 0x0 <shiftOut>
  5e:	8f 2d       	mov	r24, r15
  60:	60 e0       	ldi	r22, 0x00	; 0
  62:	0e 94 00 00 	call	0	; 0x0 <shiftOut>
  66:	21 97       	sbiw	r28, 0x01	; 1
  68:	9f ef       	ldi	r25, 0xFF	; 255
  6a:	cf 3f       	cpi	r28, 0xFF	; 255
  6c:	d9 07       	cpc	r29, r25
  6e:	01 f4       	brne	.+0      	; 0x70 <shiftOut+0x70>
  70:	df 91       	pop	r29
  72:	cf 91       	pop	r28
  74:	1f 91       	pop	r17
  76:	0f 91       	pop	r16
  78:	ff 90       	pop	r15
  7a:	ef 90       	pop	r14
  7c:	df 90       	pop	r13
  7e:	cf 90       	pop	r12
  80:	bf 90       	pop	r11
  82:	08 95       	ret

00000084 <shiftIn>:
  84:	cf 92       	push	r12
  86:	df 92       	push	r13
  88:	ef 92       	push	r14
  8a:	ff 92       	push	r15
  8c:	0f 93       	push	r16
  8e:	1f 93       	push	r17
  90:	cf 93       	push	r28
  92:	df 93       	push	r29
  94:	f8 2e       	mov	r15, r24
  96:	06 2f       	mov	r16, r22
  98:	e4 2e       	mov	r14, r20
  9a:	10 e0       	ldi	r17, 0x00	; 0
  9c:	c7 e0       	ldi	r28, 0x07	; 7
  9e:	d0 e0       	ldi	r29, 0x00	; 0
  a0:	97 e0       	ldi	r25, 0x07	; 7
  a2:	c9 2e       	mov	r12, r25
  a4:	d1 2c       	mov	r13, r1
  a6:	80 2f       	mov	r24, r16
  a8:	61 e0       	ldi	r22, 0x01	; 1
  aa:	0e 94 00 00 	call	0	; 0x0 <shiftOut>
  ae:	ee 20       	and	r14, r14
  b0:	01 f4       	brne	.+0      	; 0xb2 <shiftIn+0x2e>
  b2:	8f 2d       	mov	r24, r15
  b4:	0e 94 00 00 	call	0	; 0x0 <shiftOut>
  b8:	96 01       	movw	r18, r12
  ba:	2c 1b       	sub	r18, r28
  bc:	3d 0b       	sbc	r19, r29
  be:	00 c0       	rjmp	.+0      	; 0xc0 <shiftIn+0x3c>
  c0:	88 0f       	add	r24, r24
  c2:	99 1f       	adc	r25, r25
  c4:	2a 95       	dec	r18
  c6:	02 f4       	brpl	.+0      	; 0xc8 <shiftIn+0x44>
  c8:	00 c0       	rjmp	.+0      	; 0xca <shiftIn+0x46>
  ca:	8f 2d       	mov	r24, r15
  cc:	0e 94 00 00 	call	0	; 0x0 <shiftOut>
  d0:	0c 2e       	mov	r0, r28
  d2:	00 c0       	rjmp	.+0      	; 0xd4 <shiftIn+0x50>
  d4:	88 0f       	add	r24, r24
  d6:	99 1f       	adc	r25, r25
  d8:	0a 94       	dec	r0
  da:	02 f4       	brpl	.+0      	; 0xdc <shiftIn+0x58>
  dc:	18 2b       	or	r17, r24
  de:	80 2f       	mov	r24, r16
  e0:	60 e0       	ldi	r22, 0x00	; 0
  e2:	0e 94 00 00 	call	0	; 0x0 <shiftOut>
  e6:	21 97       	sbiw	r28, 0x01	; 1
  e8:	8f ef       	ldi	r24, 0xFF	; 255
  ea:	cf 3f       	cpi	r28, 0xFF	; 255
  ec:	d8 07       	cpc	r29, r24
  ee:	01 f4       	brne	.+0      	; 0xf0 <shiftIn+0x6c>
  f0:	81 2f       	mov	r24, r17
  f2:	df 91       	pop	r29
  f4:	cf 91       	pop	r28
  f6:	1f 91       	pop	r17
  f8:	0f 91       	pop	r16
  fa:	ff 90       	pop	r15
  fc:	ef 90       	pop	r14
  fe:	df 90       	pop	r13
 100:	cf 90       	pop	r12
 102:	08 95       	ret
