Archive member included because of file (symbol)

../../lib/libfatfs.a(mmc_rspi.o)
                              fatfs-test.o (disk_timerproc)
../../lib/libfatfs.a(ff.o)    fatfs-test.o (f_mount)
/usr/local/tkdn-20110720/rx-elf/rx-elf/lib/libc.a(lib_a-isprint.o)
                              tkdnip.o (isprint)
/usr/local/tkdn-20110720/rx-elf/rx-elf/lib/libc.a(lib_a-rand.o)
                              main.o (srand)
/usr/local/tkdn-20110720/rx-elf/rx-elf/lib/libc.a(lib_a-sprintf.o)
                              main.o (sprintf)
/usr/local/tkdn-20110720/rx-elf/rx-elf/lib/libc.a(lib_a-svfprintf.o)
                              /usr/local/tkdn-20110720/rx-elf/rx-elf/lib/libc.a(lib_a-sprintf.o) (_svfprintf_r)
/usr/local/tkdn-20110720/rx-elf/rx-elf/lib/libc.a(lib_a-ctype_.o)
                              /usr/local/tkdn-20110720/rx-elf/rx-elf/lib/libc.a(lib_a-isprint.o) (__ctype_ptr__)
/usr/local/tkdn-20110720/rx-elf/rx-elf/lib/libc.a(lib_a-dtoa.o)
                              /usr/local/tkdn-20110720/rx-elf/rx-elf/lib/libc.a(lib_a-svfprintf.o) (_dtoa_r)
/usr/local/tkdn-20110720/rx-elf/rx-elf/lib/libc.a(lib_a-impure.o)
                              /usr/local/tkdn-20110720/rx-elf/rx-elf/lib/libc.a(lib_a-rand.o) (_impure_ptr)
/usr/local/tkdn-20110720/rx-elf/rx-elf/lib/libc.a(lib_a-locale.o)
                              /usr/local/tkdn-20110720/rx-elf/rx-elf/lib/libc.a(lib_a-svfprintf.o) (_localeconv_r)
/usr/local/tkdn-20110720/rx-elf/rx-elf/lib/libc.a(lib_a-mallocr.o)
                              /usr/local/tkdn-20110720/rx-elf/rx-elf/lib/libc.a(lib_a-svfprintf.o) (_malloc_r)
/usr/local/tkdn-20110720/rx-elf/rx-elf/lib/libc.a(lib_a-memchr.o)
                              /usr/local/tkdn-20110720/rx-elf/rx-elf/lib/libc.a(lib_a-svfprintf.o) (memchr)
/usr/local/tkdn-20110720/rx-elf/rx-elf/lib/libc.a(lib_a-memcpy.o)
                              /usr/local/tkdn-20110720/rx-elf/rx-elf/lib/libc.a(lib_a-dtoa.o) (memcpy)
/usr/local/tkdn-20110720/rx-elf/rx-elf/lib/libc.a(lib_a-mlock.o)
                              /usr/local/tkdn-20110720/rx-elf/rx-elf/lib/libc.a(lib_a-mallocr.o) (__malloc_lock)
/usr/local/tkdn-20110720/rx-elf/rx-elf/lib/libc.a(lib_a-mprec.o)
                              /usr/local/tkdn-20110720/rx-elf/rx-elf/lib/libc.a(lib_a-dtoa.o) (_Balloc)
/usr/local/tkdn-20110720/rx-elf/rx-elf/lib/libc.a(lib_a-sbrkr.o)
                              /usr/local/tkdn-20110720/rx-elf/rx-elf/lib/libc.a(lib_a-mallocr.o) (_sbrk_r)
/usr/local/tkdn-20110720/rx-elf/rx-elf/lib/libc.a(lib_a-sf_fpclassify.o)
                              /usr/local/tkdn-20110720/rx-elf/rx-elf/lib/libc.a(lib_a-svfprintf.o) (__fpclassifyf)
/usr/local/tkdn-20110720/rx-elf/rx-elf/lib/libc.a(lib_a-strcmp.o)
                              /usr/local/tkdn-20110720/rx-elf/rx-elf/lib/libc.a(lib_a-locale.o) (strcmp)
/usr/local/tkdn-20110720/rx-elf/rx-elf/lib/libc.a(lib_a-strlen.o)
                              /usr/local/tkdn-20110720/rx-elf/rx-elf/lib/libc.a(lib_a-svfprintf.o) (strlen)
/usr/local/tkdn-20110720/rx-elf/rx-elf/lib/libc.a(lib_a-svfiprintf.o)
                              /usr/local/tkdn-20110720/rx-elf/rx-elf/lib/libc.a(lib_a-svfprintf.o) (__ssprint_r)
/usr/local/tkdn-20110720/rx-elf/rx-elf/lib/libc.a(lib_a-callocr.o)
                              /usr/local/tkdn-20110720/rx-elf/rx-elf/lib/libc.a(lib_a-mprec.o) (_calloc_r)
/usr/local/tkdn-20110720/rx-elf/rx-elf/lib/libc.a(lib_a-freer.o)
                              /usr/local/tkdn-20110720/rx-elf/rx-elf/lib/libc.a(lib_a-mallocr.o) (_free_r)
/usr/local/tkdn-20110720/rx-elf/rx-elf/lib/libc.a(lib_a-memmove.o)
                              /usr/local/tkdn-20110720/rx-elf/rx-elf/lib/libc.a(lib_a-svfiprintf.o) (memmove)
/usr/local/tkdn-20110720/rx-elf/rx-elf/lib/libc.a(lib_a-memset.o)
                              /usr/local/tkdn-20110720/rx-elf/rx-elf/lib/libc.a(lib_a-callocr.o) (memset)
/usr/local/tkdn-20110720/rx-elf/rx-elf/lib/libc.a(lib_a-reallocr.o)
                              /usr/local/tkdn-20110720/rx-elf/rx-elf/lib/libc.a(lib_a-svfiprintf.o) (_realloc_r)
/usr/local/tkdn-20110720/rx-elf/rx-elf/lib/libc.a(lib_a-reent.o)
                              /usr/local/tkdn-20110720/rx-elf/rx-elf/lib/libc.a(lib_a-sbrkr.o) (errno)
/usr/local/tkdn-20110720/rx-elf/rx-elf/lib/libsim.a(sbrk.o)
                              /usr/local/tkdn-20110720/rx-elf/rx-elf/lib/libc.a(lib_a-sbrkr.o) (sbrk)
/usr/local/tkdn-20110720/rx-elf/rx-elf/lib/libsim.a(heaptop.o)
                              /usr/local/tkdn-20110720/rx-elf/rx-elf/lib/libsim.a(sbrk.o) (__set_heaptop)
/usr/local/tkdn-20110720/rx-elf/lib/gcc/rx-elf/4.6.1/libgcc.a(_udivdi3.o)
                              /usr/local/tkdn-20110720/rx-elf/rx-elf/lib/libc.a(lib_a-svfprintf.o) (__udivdi3)
/usr/local/tkdn-20110720/rx-elf/lib/gcc/rx-elf/4.6.1/libgcc.a(_umoddi3.o)
                              /usr/local/tkdn-20110720/rx-elf/rx-elf/lib/libc.a(lib_a-svfprintf.o) (__umoddi3)
/usr/local/tkdn-20110720/rx-elf/lib/gcc/rx-elf/4.6.1/libgcc.a(_clz.o)
                              /usr/local/tkdn-20110720/rx-elf/lib/gcc/rx-elf/4.6.1/libgcc.a(_udivdi3.o) (__clz_tab)
../../lib/libtkdnhal.a(hwsetup.o)
                              ../../lib/start.o (hwsetup)
../../lib/libtkdnhal.a(tkdn_sci.o)
                              ../common/intvect.o (Excep_SCI0_TXI0)
../../lib/libtkdnhal.a(tkdn_spi.o)
                              main.o (spi_terminate)
../../lib/libtkdnhal.a(tkdn_ether.o)
                              ip.o (ether_write)
../../lib/libtkdnhal.a(tkdn_rtc.o)
                              main.o (rtc_set_time)
../../lib/libtkdnhal.a(tkdn_timer.o)
                              main.o (timer_wait_ms)
../../lib/libtkdnhal.a(tkdn_gpio.o)
                              main.o (gpio_set_pinmode)
../../lib/libtkdnhal.a(phy.o)
                              ../../lib/libtkdnhal.a(tkdn_ether.o) (_phy_read)
../../lib/libtkdnhal.a(eidi.o)
                              ../../lib/libtkdnhal.a(tkdn_ether.o) (enable_interrupt)
../../lib/libtkdnhal.a(usb_cdc.o)
                              ../../lib/libtkdnhal.a(tkdn_sci.o) (TKUSB_Init)
../../lib/libtkdnhal.a(usb_core.o)
                              ../../lib/libtkdnhal.a(usb_cdc.o) (USBCORE_Init)
../../lib/libtkdnhal.a(usb_hal.o)
                              ../../lib/libtkdnhal.a(tkdn_sci.o) (TKUSB_RecvByte)
../../lib/libtkdnhal.a(usbdescriptors.o)
                              ../../lib/libtkdnhal.a(usb_cdc.o) (gStringDescriptorSerialNum)

Allocating common symbols
Common symbol       size              file

port                0x4               ../../lib/libtkdnhal.a(tkdn_spi.o)
user_rx_func        0x4               ../../lib/libtkdnhal.a(tkdn_ether.o)
txbuf               0x100             ../../lib/libtkdnhal.a(tkdn_sci.o)
rxbuf               0x100             ../../lib/libtkdnhal.a(tkdn_sci.o)
errno               0x4               /usr/local/tkdn-20110720/rx-elf/rx-elf/lib/libc.a(lib_a-reent.o)

Memory Configuration

Name             Origin             Length             Attributes
*default*        0x00000000         0xffffffff

Linker script and memory map

LOAD ../../lib/start.o
LOAD main.o
LOAD fatfs-test.o
LOAD ../common/intvect.o
LOAD ip.o
LOAD tkdnip.o
LOAD arp.o
LOAD icmp.o
                0x00017f00                _usp_init = 0x17f00
                0x00018000                _isp_init = 0x18000

.fvectors       0xffffffd0       0x30
 *.o(.fvectors)
 .fvectors      0xffffffd0       0x30 ../common/intvect.o
                0xffffffd0                Fixed_Vectors
 *.o(.fvectors)

.rvectors       0x00000000      0x400
 *.o(.rvectors)
 .rvectors      0x00000000      0x400 ../common/intvect.o
                0x00000000                Relocatable_Vectors

.text           0x00000400     0xbcb0
                0x00000400                PROVIDE (_start, .)
 *(.text P .stub .text.* .gnu.linkonce.t.*)
 P              0x00000400       0xa1 ../../lib/start.o
                0x00000400                start
                0x00000400                PowerON_Reset_PC
                0x0000049f                _rx_fini
                0x000004a0                __cxa_atexit
 *fill*         0x000004a1        0x7 00
 P              0x000004a8      0x448 main.o
                0x000004a8                test_rtc()
                0x00000575                myrand()
                0x00000596                test_sdram()
                0x0000079d                test_spirom()
                0x0000088f                buzz_ok()
                0x000008bf                buzz_ng()
 .text.startup  0x000008f0      0x1a8 main.o
                0x000008f0                main
 P              0x00000a98      0x228 fatfs-test.o
                0x00000a98                timer_interrupt_function()
                0x00000a9c                scan_files(char const*)
                0x00000c39                test_sd()
                0x00000cb7                get_fattime
 P              0x00000cc0      0x4ef ../common/intvect.o
                0x00000cc0                Excep_SuperVisorInst
                0x00000cc8                Excep_UndefinedInst
                0x00000cd0                Excep_FloatingPoint
                0x00000cd8                NonMaskableInterrupt
                0x00000ce0                Excep_BRK
                0x00000ce8                Excep_BUSERR
                0x00000cf0                Excep_FCU_FCUERR
                0x00000cf8                Excep_FCU_FRDYI
                0x00000d00                Excep_ICU_SWINT
                0x00000d08                Excep_CMTU0_CMT1
                0x00000d10                Excep_CMTU1_CMT3
                0x00000d18                Excep_USB0_D0FIFO0
                0x00000d20                Excep_USB0_D1FIFO0
                0x00000d28                Excep_USB0_USBI0
                0x00000d2f                Excep_USB1_D0FIFO1
                0x00000d37                Excep_USB1_D1FIFO1
                0x00000d3f                Excep_USB1_USBI1
                0x00000d47                Excep_RSPI0_SPEI0
                0x00000d4f                Excep_RSPI0_SPRI0
                0x00000d57                Excep_RSPI0_SPTI0
                0x00000d5f                Excep_RSPI0_SPII0
                0x00000d67                Excep_RSPI1_SPEI1
                0x00000d6f                Excep_RSPI1_SPRI1
                0x00000d77                Excep_RSPI1_SPTI1
                0x00000d7f                Excep_RSPI1_SPII1
                0x00000d87                Excep_CAN0_ERS0
                0x00000d8f                Excep_CAN0_RXF0
                0x00000d97                Excep_CAN0_TXF0
                0x00000d9f                Excep_CAN0_RXM0
                0x00000da7                Excep_CAN0_TXM0
                0x00000daf                Excep_RTC_PRD
                0x00000db7                Excep_RTC_CUP
                0x00000dbf                Excep_IRQ0
                0x00000dc7                Excep_IRQ1
                0x00000dcf                Excep_IRQ2
                0x00000dd7                Excep_IRQ3
                0x00000ddf                Excep_IRQ4
                0x00000de7                Excep_IRQ5
                0x00000def                Excep_IRQ6
                0x00000df7                Excep_IRQ7
                0x00000dff                Excep_IRQ8
                0x00000e07                Excep_IRQ9
                0x00000e0f                Excep_IRQ10
                0x00000e17                Excep_IRQ11
                0x00000e1f                Excep_IRQ12
                0x00000e27                Excep_IRQ13
                0x00000e2f                Excep_IRQ14
                0x00000e37                Excep_IRQ15
                0x00000e3f                Excep_USB_USBR0
                0x00000e47                Excep_USB_USBR1
                0x00000e4f                Excep_RTC_ALM
                0x00000e57                Excep_WDT_WOVI
                0x00000e5f                Excep_AD0_ADI0
                0x00000e67                Excep_AD1_ADI1
                0x00000e6f                Excep_S12AD_ADI12
                0x00000e77                Excep_MTU0_TGIA0
                0x00000e7f                Excep_MTU0_TGIB0
                0x00000e87                Excep_MTU0_TGIC0
                0x00000e8f                Excep_MTU0_TGID0
                0x00000e97                Excep_MTU0_TCIV0
                0x00000e9f                Excep_MTU0_TGIE0
                0x00000ea7                Excep_MTU0_TGIF0
                0x00000eaf                Excep_MTU1_TGIA1
                0x00000eb7                Excep_MTU1_TGIB1
                0x00000ebf                Excep_MTU1_TCIV1
                0x00000ec7                Excep_MTU1_TCIU1
                0x00000ecf                Excep_MTU2_TGIA2
                0x00000ed7                Excep_MTU2_TGIB2
                0x00000edf                Excep_MTU2_TCIV2
                0x00000ee7                Excep_MTU2_TCIU2
                0x00000eef                Excep_MTU3_TGIA3
                0x00000ef7                Excep_MTU3_TGIB3
                0x00000eff                Excep_MTU3_TGIC3
                0x00000f07                Excep_MTU3_TGID3
                0x00000f0f                Excep_MTU3_TCIV3
                0x00000f17                Excep_MTU4_TGIA4
                0x00000f1f                Excep_MTU4_TGIB4
                0x00000f27                Excep_MTU4_TGIC4
                0x00000f2f                Excep_MTU4_TGID4
                0x00000f37                Excep_MTU4_TCIV4
                0x00000f3f                Excep_MTU5_TCIU5
                0x00000f47                Excep_MTU5_TCIV5
                0x00000f4f                Excep_MTU5_TCIW5
                0x00000f57                Excep_MTU6_TGIA6
                0x00000f5f                Excep_MTU6_TGIB6
                0x00000f67                Excep_MTU6_TGIC6
                0x00000f6f                Excep_MTU6_TGID6
                0x00000f77                Excep_MTU6_TCIV6
                0x00000f7f                Excep_MTU6_TGIE6
                0x00000f87                Excep_MTU6_TGIF6
                0x00000f8f                Excep_MTU7_TGIA7
                0x00000f97                Excep_MTU7_TGIB7
                0x00000f9f                Excep_MTU7_TCIV7
                0x00000fa7                Excep_MTU7_TCIU7
                0x00000faf                Excep_MTU8_TGIA8
                0x00000fb7                Excep_MTU8_TGIB8
                0x00000fbf                Excep_MTU8_TCIV8
                0x00000fc7                Excep_MTU8_TCIU8
                0x00000fcf                Excep_MTU9_TGIA9
                0x00000fd7                Excep_MTU9_TGIB9
                0x00000fdf                Excep_MTU9_TGIC9
                0x00000fe7                Excep_MTU9_TGID9
                0x00000fef                Excep_MTU9_TCIV9
                0x00000ff7                Excep_MTU10_TGIA10
                0x00000fff                Excep_MTU10_TGIB10
                0x00001007                Excep_MTU10_TGIC10
                0x0000100f                Excep_MTU10_TGID10
                0x00001017                Excep_MTU10_TCIV10
                0x0000101f                Excep_MTU11_TCIU11
                0x00001027                Excep_MTU11_TCIV11
                0x0000102f                Excep_MTU11_TCIW11
                0x00001037                Excep_POE_OEI1
                0x0000103f                Excep_POE_OEI2
                0x00001047                Excep_POE_OEI3
                0x0000104f                Excep_POE_OEI4
                0x00001057                Excep_TMR0_CMI0A
                0x0000105f                Excep_TMR0_CMI0B
                0x00001067                Excep_TMR0_OV0I
                0x0000106f                Excep_TMR1_CMI1A
                0x00001077                Excep_TMR1_CMI1B
                0x0000107f                Excep_TMR1_OV1I
                0x00001087                Excep_TMR2_CMI2A
                0x0000108f                Excep_TMR2_CMI2B
                0x00001097                Excep_TMR2_OV2I
                0x0000109f                Excep_TMR3_CMI3A
                0x000010a7                Excep_TMR3_CMI3B
                0x000010af                Excep_TMR3_OV3I
                0x000010b7                Excep_DMACA_DMAC0
                0x000010bf                Excep_DMACA_DMAC1
                0x000010c7                Excep_DMACA_DMAC2
                0x000010cf                Excep_DMACA_DMAC3
                0x000010d7                Excep_EXDMAC_DMAC0
                0x000010df                Excep_EXDMAC_DMAC1
                0x000010e7                Excep_SCI2_ERI2
                0x000010ef                Excep_SCI2_RXI2
                0x000010f7                Excep_SCI2_TXI2
                0x000010ff                Excep_SCI2_TEI2
                0x00001107                Excep_SCI3_ERI3
                0x0000110f                Excep_SCI3_RXI3
                0x00001117                Excep_SCI3_TXI3
                0x0000111f                Excep_SCI3_TEI3
                0x00001127                Excep_SCI5_ERI5
                0x0000112f                Excep_SCI5_RXI5
                0x00001137                Excep_SCI5_TXI5
                0x0000113f                Excep_SCI5_TEI5
                0x00001147                Excep_SCI6_ERI6
                0x0000114f                Excep_SCI6_RXI6
                0x00001157                Excep_SCI6_TXI6
                0x0000115f                Excep_SCI6_TEI6
                0x00001167                Excep_RIIC0_EEI0
                0x0000116f                Excep_RIIC0_RXI0
                0x00001177                Excep_RIIC0_TXI0
                0x0000117f                Excep_RIIC0_TEI0
                0x00001187                Excep_RIIC1_EEI1
                0x0000118f                Excep_RIIC1_RXI1
                0x00001197                Excep_RIIC1_TXI1
                0x0000119f                Excep_RIIC1_TEI1
                0x000011a7                Dummy
 *fill*         0x000011af        0x1 00
 P              0x000011b0      0x178 ip.o
                0x000011b0                calc_checksum
                0x00001203                ip_send_raw
                0x00001227                ip_send
 P              0x00001328      0x478 tkdnip.o
                0x00001328                packet_dump(unsigned char*, int)
                0x00001467                packet_receive_process()
                0x0000157a                check_link()
                0x000015ed                show_prompt()
                0x000015f7                userapp_ping(unsigned char*)
                0x0000167b                ipconfig()
                0x00001718                test_ip()
 P              0x000017a0      0x260 arp.o
                0x00001811                arp_table_show
                0x000018de                arp_get_mac_by_ip
                0x0000195c                arp_received
 P              0x00001a00      0x1c0 icmp.o
                0x00001a00                icmp_received
                0x00001b25                send_ping
 P              0x00001bc0      0xb08 ../../lib/libfatfs.a(mmc_rspi.o)
                0x00001f2d                LDDW
                0x00001f31                disk_initialize
                0x00002188                disk_status
                0x0000219e                disk_read
                0x00002277                disk_write
                0x00002370                disk_ioctl
                0x00002675                disk_timerproc
                0x000026bf                disk_ins
 P              0x000026c8     0x21e8 ../../lib/libfatfs.a(ff.o)
                0x00002af9                clust2sect
                0x00002b11                get_fat
                0x00002c7a                put_fat
                0x00003366                f_mount
                0x00003386                f_open
                0x000034c6                f_read
                0x000036a1                f_write
                0x000038c9                f_sync
                0x00003955                f_close
                0x00003965                f_chdrive
                0x00003978                f_chdir
                0x000039dc                f_getcwd
                0x00003b39                f_lseek
                0x00003ce7                f_opendir
                0x00003d48                f_readdir
                0x00003da3                f_stat
                0x00003dee                f_getfree
                0x00003ebe                f_truncate
                0x00003f61                f_unlink
                0x0000404a                f_mkdir
                0x000041cc                f_chmod
                0x0000422f                f_utime
                0x00004288                f_rename
                0x000043fd                f_mkfs
 P              0x000048b0        0x0 /usr/local/tkdn-20110720/rx-elf/rx-elf/lib/libc.a(lib_a-isprint.o)
 .text.isgraph  0x000048b0       0x11 /usr/local/tkdn-20110720/rx-elf/rx-elf/lib/libc.a(lib_a-isprint.o)
                0x000048b0                isgraph
 .text.isprint  0x000048c1       0x12 /usr/local/tkdn-20110720/rx-elf/rx-elf/lib/libc.a(lib_a-isprint.o)
                0x000048c1                isprint
 P              0x000048d3        0x0 /usr/local/tkdn-20110720/rx-elf/rx-elf/lib/libc.a(lib_a-rand.o)
 .text.srand    0x000048d3       0x10 /usr/local/tkdn-20110720/rx-elf/rx-elf/lib/libc.a(lib_a-rand.o)
                0x000048d3                srand
 .text.rand     0x000048e3       0x42 /usr/local/tkdn-20110720/rx-elf/rx-elf/lib/libc.a(lib_a-rand.o)
                0x000048e3                rand
 P              0x00004925        0x0 /usr/local/tkdn-20110720/rx-elf/rx-elf/lib/libc.a(lib_a-sprintf.o)
 .text._sprintf_r
                0x00004925       0x36 /usr/local/tkdn-20110720/rx-elf/rx-elf/lib/libc.a(lib_a-sprintf.o)
                0x00004925                _sprintf_r
 .text.sprintf  0x0000495b       0x3e /usr/local/tkdn-20110720/rx-elf/rx-elf/lib/libc.a(lib_a-sprintf.o)
                0x0000495b                sprintf
 P              0x00004999        0x0 /usr/local/tkdn-20110720/rx-elf/rx-elf/lib/libc.a(lib_a-svfprintf.o)
 *fill*         0x00004999        0x7 00
 .text._svfprintf_r
                0x000049a0     0x1440 /usr/local/tkdn-20110720/rx-elf/rx-elf/lib/libc.a(lib_a-svfprintf.o)
                0x000049a0                _svfprintf_r
 P              0x00005de0        0x0 /usr/local/tkdn-20110720/rx-elf/rx-elf/lib/libc.a(lib_a-ctype_.o)
 P              0x00005de0        0x0 /usr/local/tkdn-20110720/rx-elf/rx-elf/lib/libc.a(lib_a-dtoa.o)
 .text.quorem   0x00005de0      0x160 /usr/local/tkdn-20110720/rx-elf/rx-elf/lib/libc.a(lib_a-dtoa.o)
 .text._dtoa_r  0x00005f40      0xcd8 /usr/local/tkdn-20110720/rx-elf/rx-elf/lib/libc.a(lib_a-dtoa.o)
                0x00005f40                _dtoa_r
 P              0x00006c18        0x0 /usr/local/tkdn-20110720/rx-elf/rx-elf/lib/libc.a(lib_a-impure.o)
 P              0x00006c18        0x0 /usr/local/tkdn-20110720/rx-elf/rx-elf/lib/libc.a(lib_a-locale.o)
 .text._setlocale_r
                0x00006c18       0x50 /usr/local/tkdn-20110720/rx-elf/rx-elf/lib/libc.a(lib_a-locale.o)
                0x00006c18                _setlocale_r
 .text.__locale_charset
                0x00006c68        0x7 /usr/local/tkdn-20110720/rx-elf/rx-elf/lib/libc.a(lib_a-locale.o)
                0x00006c68                __locale_charset
 .text.__locale_msgcharset
                0x00006c6f        0x7 /usr/local/tkdn-20110720/rx-elf/rx-elf/lib/libc.a(lib_a-locale.o)
                0x00006c6f                __locale_msgcharset
 .text.__locale_cjk_lang
                0x00006c76        0x3 /usr/local/tkdn-20110720/rx-elf/rx-elf/lib/libc.a(lib_a-locale.o)
                0x00006c76                __locale_cjk_lang
 .text._localeconv_r
                0x00006c79        0x7 /usr/local/tkdn-20110720/rx-elf/rx-elf/lib/libc.a(lib_a-locale.o)
                0x00006c79                _localeconv_r
 .text.setlocale
                0x00006c80       0x12 /usr/local/tkdn-20110720/rx-elf/rx-elf/lib/libc.a(lib_a-locale.o)
                0x00006c80                setlocale
 .text.localeconv
                0x00006c92        0x7 /usr/local/tkdn-20110720/rx-elf/rx-elf/lib/libc.a(lib_a-locale.o)
                0x00006c92                localeconv
 P              0x00006c99        0x0 /usr/local/tkdn-20110720/rx-elf/rx-elf/lib/libc.a(lib_a-mallocr.o)
 *fill*         0x00006c99        0x7 00
 .text._malloc_r
                0x00006ca0      0x550 /usr/local/tkdn-20110720/rx-elf/rx-elf/lib/libc.a(lib_a-mallocr.o)
                0x00006ca0                _malloc_r
 P              0x000071f0        0x0 /usr/local/tkdn-20110720/rx-elf/rx-elf/lib/libc.a(lib_a-memchr.o)
 .text          0x000071f0        0xf /usr/local/tkdn-20110720/rx-elf/rx-elf/lib/libc.a(lib_a-memchr.o)
                0x000071f0                memchr
 P              0x000071ff        0x0 /usr/local/tkdn-20110720/rx-elf/rx-elf/lib/libc.a(lib_a-memcpy.o)
 .text          0x000071ff        0x7 /usr/local/tkdn-20110720/rx-elf/rx-elf/lib/libc.a(lib_a-memcpy.o)
                0x000071ff                memcpy
 P              0x00007206        0x0 /usr/local/tkdn-20110720/rx-elf/rx-elf/lib/libc.a(lib_a-mlock.o)
 .text.__malloc_lock
                0x00007206        0x1 /usr/local/tkdn-20110720/rx-elf/rx-elf/lib/libc.a(lib_a-mlock.o)
                0x00007206                __malloc_lock
 .text.__malloc_unlock
                0x00007207        0x1 /usr/local/tkdn-20110720/rx-elf/rx-elf/lib/libc.a(lib_a-mlock.o)
                0x00007207                __malloc_unlock
 P              0x00007208        0x0 /usr/local/tkdn-20110720/rx-elf/rx-elf/lib/libc.a(lib_a-mprec.o)
 .text._Balloc  0x00007208       0x60 /usr/local/tkdn-20110720/rx-elf/rx-elf/lib/libc.a(lib_a-mprec.o)
                0x00007208                _Balloc
 .text._Bfree   0x00007268       0x18 /usr/local/tkdn-20110720/rx-elf/rx-elf/lib/libc.a(lib_a-mprec.o)
                0x00007268                _Bfree
 .text.__multadd
                0x00007280       0x88 /usr/local/tkdn-20110720/rx-elf/rx-elf/lib/libc.a(lib_a-mprec.o)
                0x00007280                __multadd
 .text.__s2b    0x00007308       0x90 /usr/local/tkdn-20110720/rx-elf/rx-elf/lib/libc.a(lib_a-mprec.o)
                0x00007308                __s2b
 .text.__hi0bits
                0x00007398       0x58 /usr/local/tkdn-20110720/rx-elf/rx-elf/lib/libc.a(lib_a-mprec.o)
                0x00007398                __hi0bits
 .text.__lo0bits
                0x000073f0       0x70 /usr/local/tkdn-20110720/rx-elf/rx-elf/lib/libc.a(lib_a-mprec.o)
                0x000073f0                __lo0bits
 .text.__i2b    0x00007460       0x12 /usr/local/tkdn-20110720/rx-elf/rx-elf/lib/libc.a(lib_a-mprec.o)
                0x00007460                __i2b
 *fill*         0x00007472        0x6 00
 .text.__multiply
                0x00007478      0x150 /usr/local/tkdn-20110720/rx-elf/rx-elf/lib/libc.a(lib_a-mprec.o)
                0x00007478                __multiply
 .text.__pow5mult
                0x000075c8       0xa0 /usr/local/tkdn-20110720/rx-elf/rx-elf/lib/libc.a(lib_a-mprec.o)
                0x000075c8                __pow5mult
 .text.__lshift
                0x00007668       0xb8 /usr/local/tkdn-20110720/rx-elf/rx-elf/lib/libc.a(lib_a-mprec.o)
                0x00007668                __lshift
 .text.__mcmp   0x00007720       0x38 /usr/local/tkdn-20110720/rx-elf/rx-elf/lib/libc.a(lib_a-mprec.o)
                0x00007720                __mcmp
 .text.__mdiff  0x00007758       0xf0 /usr/local/tkdn-20110720/rx-elf/rx-elf/lib/libc.a(lib_a-mprec.o)
                0x00007758                __mdiff
 .text.__ulp    0x00007848       0x28 /usr/local/tkdn-20110720/rx-elf/rx-elf/lib/libc.a(lib_a-mprec.o)
                0x00007848                __ulp
 .text.__b2d    0x00007870       0x80 /usr/local/tkdn-20110720/rx-elf/rx-elf/lib/libc.a(lib_a-mprec.o)
                0x00007870                __b2d
 .text.__d2b    0x000078f0       0x78 /usr/local/tkdn-20110720/rx-elf/rx-elf/lib/libc.a(lib_a-mprec.o)
                0x000078f0                __d2b
 .text.__ratio  0x00007968       0x48 /usr/local/tkdn-20110720/rx-elf/rx-elf/lib/libc.a(lib_a-mprec.o)
                0x00007968                __ratio
 .text._mprec_log10
                0x000079b0       0x28 /usr/local/tkdn-20110720/rx-elf/rx-elf/lib/libc.a(lib_a-mprec.o)
                0x000079b0                _mprec_log10
 .text.__copybits
                0x000079d8       0x48 /usr/local/tkdn-20110720/rx-elf/rx-elf/lib/libc.a(lib_a-mprec.o)
                0x000079d8                __copybits
 .text.__any_on
                0x00007a20       0x60 /usr/local/tkdn-20110720/rx-elf/rx-elf/lib/libc.a(lib_a-mprec.o)
                0x00007a20                __any_on
 P              0x00007a80        0x0 /usr/local/tkdn-20110720/rx-elf/rx-elf/lib/libc.a(lib_a-sbrkr.o)
 .text._sbrk_r  0x00007a80       0x28 /usr/local/tkdn-20110720/rx-elf/rx-elf/lib/libc.a(lib_a-sbrkr.o)
                0x00007a80                _sbrk_r
 P              0x00007aa8        0x0 /usr/local/tkdn-20110720/rx-elf/rx-elf/lib/libc.a(lib_a-sf_fpclassify.o)
 .text.__fpclassifyf
                0x00007aa8       0x60 /usr/local/tkdn-20110720/rx-elf/rx-elf/lib/libc.a(lib_a-sf_fpclassify.o)
                0x00007aa8                __fpclassifyf
 P              0x00007b08        0x0 /usr/local/tkdn-20110720/rx-elf/rx-elf/lib/libc.a(lib_a-strcmp.o)
 .text          0x00007b08        0xf /usr/local/tkdn-20110720/rx-elf/rx-elf/lib/libc.a(lib_a-strcmp.o)
                0x00007b08                strcmp
 P              0x00007b17        0x0 /usr/local/tkdn-20110720/rx-elf/rx-elf/lib/libc.a(lib_a-strlen.o)
 .text          0x00007b17       0x10 /usr/local/tkdn-20110720/rx-elf/rx-elf/lib/libc.a(lib_a-strlen.o)
                0x00007b17                strlen
 P              0x00007b27        0x0 /usr/local/tkdn-20110720/rx-elf/rx-elf/lib/libc.a(lib_a-svfiprintf.o)
 *fill*         0x00007b27        0x1 00
 .text.__ssprint_r
                0x00007b28      0x118 /usr/local/tkdn-20110720/rx-elf/rx-elf/lib/libc.a(lib_a-svfiprintf.o)
                0x00007b28                __ssprint_r
 .text._svfiprintf_r
                0x00007c40      0xa00 /usr/local/tkdn-20110720/rx-elf/rx-elf/lib/libc.a(lib_a-svfiprintf.o)
                0x00007c40                _svfiprintf_r
 P              0x00008640        0x0 /usr/local/tkdn-20110720/rx-elf/rx-elf/lib/libc.a(lib_a-callocr.o)
 .text._calloc_r
                0x00008640       0x78 /usr/local/tkdn-20110720/rx-elf/rx-elf/lib/libc.a(lib_a-callocr.o)
                0x00008640                _calloc_r
 P              0x000086b8        0x0 /usr/local/tkdn-20110720/rx-elf/rx-elf/lib/libc.a(lib_a-freer.o)
 .text._malloc_trim_r
                0x000086b8       0xb0 /usr/local/tkdn-20110720/rx-elf/rx-elf/lib/libc.a(lib_a-freer.o)
                0x000086b8                _malloc_trim_r
 .text._free_r  0x00008768      0x1d8 /usr/local/tkdn-20110720/rx-elf/rx-elf/lib/libc.a(lib_a-freer.o)
                0x00008768                _free_r
 P              0x00008940        0x0 /usr/local/tkdn-20110720/rx-elf/rx-elf/lib/libc.a(lib_a-memmove.o)
 .text          0x00008940       0x17 /usr/local/tkdn-20110720/rx-elf/rx-elf/lib/libc.a(lib_a-memmove.o)
                0x00008940                memmove
 P              0x00008957        0x0 /usr/local/tkdn-20110720/rx-elf/rx-elf/lib/libc.a(lib_a-memset.o)
 .text          0x00008957        0x7 /usr/local/tkdn-20110720/rx-elf/rx-elf/lib/libc.a(lib_a-memset.o)
                0x00008957                memset
 P              0x0000895e        0x0 /usr/local/tkdn-20110720/rx-elf/rx-elf/lib/libc.a(lib_a-reallocr.o)
 *fill*         0x0000895e        0x2 00
 .text._realloc_r
                0x00008960      0x410 /usr/local/tkdn-20110720/rx-elf/rx-elf/lib/libc.a(lib_a-reallocr.o)
                0x00008960                _realloc_r
 P              0x00008d70        0x0 /usr/local/tkdn-20110720/rx-elf/rx-elf/lib/libc.a(lib_a-reent.o)
 .text.cleanup_glue
                0x00008d70       0x20 /usr/local/tkdn-20110720/rx-elf/rx-elf/lib/libc.a(lib_a-reent.o)
                0x00008d70                cleanup_glue
 .text._reclaim_reent
                0x00008d90       0xa8 /usr/local/tkdn-20110720/rx-elf/rx-elf/lib/libc.a(lib_a-reent.o)
                0x00008d90                _reclaim_reent
 .text._wrapup_reent
                0x00008e38       0x50 /usr/local/tkdn-20110720/rx-elf/rx-elf/lib/libc.a(lib_a-reent.o)
                0x00008e38                _wrapup_reent
 P              0x00008e88       0x1a /usr/local/tkdn-20110720/rx-elf/rx-elf/lib/libsim.a(sbrk.o)
                0x00008e88                sbrk
                0x00008e88                _sbrk
 P              0x00008ea2        0x6 /usr/local/tkdn-20110720/rx-elf/rx-elf/lib/libsim.a(heaptop.o)
                0x00008ea2                __set_heaptop
                0x00008ea2                _set_heaptop
 P              0x00008ea8      0x3c8 /usr/local/tkdn-20110720/rx-elf/lib/gcc/rx-elf/4.6.1/libgcc.a(_udivdi3.o)
                0x00008ea8                __udivdi3
                0x00008ea8                _COM_DIV64u
 P              0x00009270      0x398 /usr/local/tkdn-20110720/rx-elf/lib/gcc/rx-elf/4.6.1/libgcc.a(_umoddi3.o)
                0x00009270                _COM_MOD64u
                0x00009270                __umoddi3
 P              0x00009608        0x0 /usr/local/tkdn-20110720/rx-elf/lib/gcc/rx-elf/4.6.1/libgcc.a(_clz.o)
 P              0x00009608       0xe0 ../../lib/libtkdnhal.a(hwsetup.o)
                0x00009608                hwsetup
 P              0x000096e8      0x910 ../../lib/libtkdnhal.a(tkdn_sci.o)
                0x00009775                Excep_SCI0_TXI0
                0x00009796                Excep_SCI0_TEI0
                0x000097ac                Excep_SCI1_TXI1
                0x000097cd                Excep_SCI1_TEI1
                0x000097e3                sci_putc
                0x0000992d                sci_puts
                0x00009ab9                Excep_SCI1_RXI1
                0x00009ada                Excep_SCI1_ERI1
                0x00009afb                Excep_SCI0_RXI0
                0x00009b1c                Excep_SCI0_ERI0
                0x00009b3d                sci_getc
                0x00009bc2                sci_writedata
                0x00009c76                sci_readdata
                0x00009c77                sci_rxcount
                0x00009ca3                sci_gets
                0x00009d02                sci_init
                0x00009fdc                sci_getport
                0x00009fe5                sci_convert_crlf
 P              0x00009ff8      0x210 ../../lib/libtkdnhal.a(tkdn_spi.o)
                0x00009ff8                spi_terminate
                0x0000a002                spi_set_port
                0x0000a00b                spi_set_bit_length
                0x0000a08a                spi_init
                0x0000a128                spi_set_bit_order
                0x0000a143                spi_set_clock_divider
                0x0000a198                spi_set_data_mode
                0x0000a199                spi_transfer
 P              0x0000a208      0x5b0 ../../lib/libtkdnhal.a(tkdn_ether.o)
                0x0000a208                ether_close
                0x0000a21f                ether_write
                0x0000a2dd                _eth_fifoInit
                0x0000a34e                _eth_fifoWrite
                0x0000a38c                _eth_fifoRead
                0x0000a3e0                ether_read
                0x0000a49f                ether_regist_user_rx_procedure
                0x0000a4a8                ether_is_linkup
                0x0000a4b4                ether_autonegotiate
                0x0000a529                ether_open
                0x0000a719                Excep_ETHER_EINT
                0x0000a798                ether_is_100M
                0x0000a7a1                ether_is_fullduplex
                0x0000a7aa                ether_link_changed
 P              0x0000a7b8       0xf0 ../../lib/libtkdnhal.a(tkdn_rtc.o)
                0x0000a7b8                rtc_set_time
                0x0000a85f                rtc_get_time
 P              0x0000a8a8      0x128 ../../lib/libtkdnhal.a(tkdn_timer.o)
                0x0000a8a8                timer_init
                0x0000a8bb                timer_wait_ms
                0x0000a8cc                timer_wait_us
                0x0000a946                timer_get_ms
                0x0000a94f                timer_get_us
                0x0000a986                timer_regist_userfunc
                0x0000a991                Excep_CMTU0_CMT0
                0x0000a9c8                Excep_CMTU1_CMT2
 P              0x0000a9d0       0xbc ../../lib/libtkdnhal.a(tkdn_gpio.o)
                0x0000a9d0                gpio_set_pinmode
                0x0000aa24                gpio_write_port
                0x0000aa5c                gpio_read_port
 *fill*         0x0000aa8c        0x4 00
 P              0x0000aa90      0x240 ../../lib/libtkdnhal.a(phy.o)
                0x0000aa90                _phy_reg_read
                0x0000aace                _phy_ta_z0
                0x0000aaf4                _phy_mii_write_1
                0x0000ab1a                _phy_preamble
                0x0000ab32                _phy_mii_write_0
                0x0000ab58                _phy_ta_10
                0x0000ab60                _phy_reg_write
                0x0000ab9b                _phy_reg_set
                0x0000abe9                _phy_write
                0x0000ac0f                phy_set_10half
                0x0000ac17                phy_set_100full
                0x0000ac21                _phy_read
                0x0000ac48                phy_set_autonegotiate
                0x0000ac98                phy_init
 P              0x0000acd0       0x18 ../../lib/libtkdnhal.a(eidi.o)
                0x0000acd0                enable_interrupt
                0x0000acdc                disable_interrupt
 P              0x0000ace8      0x118 ../../lib/libtkdnhal.a(usb_cdc.o)
                0x0000ad84                TKUSB_Init
                0x0000adf1                TKUSB_IsConnected
 P              0x0000ae00      0x338 ../../lib/libtkdnhal.a(usb_core.o)
                0x0000b0be                USBCORE_Init
 P              0x0000b138      0xf78 ../../lib/libtkdnhal.a(usb_hal.o)
                0x0000b209                TKUSB_RecvByte
                0x0000b268                TKUSB_RecvDataCount
                0x0000b282                TKUSB_SendByte
                0x0000b2cd                TKUSB_SendDataCount
                0x0000b2e7                USBHAL_Init
                0x0000b535                USBHAL_Disable
                0x0000b545                USBHAL_Control_Status
                0x0000b571                USBHAL_Control_IN
                0x0000b596                USBHAL_Control_OUT
                0x0000b5e0                USBHAL_Bulk_OUT
                0x0000b618                ClearOUTBusy
                0x0000b623                USBHAL_Bulk_IN
                0x0000b663                USBHAL_Interrupt_IN
                0x0000b6a3                USBHAL_Control_Stall
                0x0000b6cd                USBHAL_Bulk_IN_Stall
                0x0000b6ec                USBHAL_Bulk_OUT_Stall
                0x0000b70b                USBHAL_Interrupt_IN_Stall
                0x0000b72a                USBHAL_Bulk_IN_Stall_Clear
                0x0000b764                USBHAL_Bulk_OUT_Stall_Clear
                0x0000b7c0                USBHAL_Interrupt_IN_Stall_Clear
                0x0000b7fa                USBHAL_Bulk_IN_Is_Stalled
                0x0000b81a                USBHAL_Bulk_OUT_Is_Stalled
                0x0000b83a                USBHAL_Interrupt_IN_Is_Stalled
                0x0000b85a                USBHAL_Config_Get
                0x0000b861                USBHAL_Config_Set
                0x0000b877                USBHAL_Reset
                0x0000b9f2                USBHAL_Cancel
                0x0000ba40                USBHAL_ResetEndpoints
                0x0000bb12                USBHALInterruptHandler
 P              0x0000c0b0        0x0 ../../lib/libtkdnhal.a(usbdescriptors.o)
 *(.text.*personality*)
 *(.gnu.warning)
 *(.interp .hash .dynsym .dynstr .gnu.version*)
                0x0000c0b0                PROVIDE (__etext, .)
                0x0000c0b0                PROVIDE (_etext, .)
                0x0000c0b0                PROVIDE (etext, .)
                0x0000c0b0                . = ALIGN (0x4)
 *(.init)
 *(.fini)

.rodata         0x0000c0b0      0xe30
                0x0000c0b0                . = ALIGN (0x4)
 *(.plt)
 *(.rodata C C_2 C_1 .rodata.* .gnu.linkonce.r.*)
 .rodata.str1.1
                0x0000c0b0      0x1f8 main.o
                                0x220 (size before relaxing)
 C              0x0000c2a8        0x8 main.o
 .rodata.str1.1
                0x0000c2b0       0xbc fatfs-test.o
                                 0xbe (size before relaxing)
 .rodata.str1.1
                0x0000c36c       0x27 ip.o
 .rodata.str1.1
                0x0000c393      0x1cd tkdnip.o
                                0x1dc (size before relaxing)
 C              0x0000c560        0x4 tkdnip.o
 .rodata.str1.1
                0x0000c564       0x4e arp.o
 *fill*         0x0000c5b2        0x2 00
 C              0x0000c5b4        0x8 arp.o
 .rodata.str1.1
                0x0000c5bc       0x3b icmp.o
 *fill*         0x0000c5f7        0x1 00
 C              0x0000c5f8       0x3c ../../lib/libfatfs.a(mmc_rspi.o)
 .rodata.str1.1
                0x0000c634       0x43 ../../lib/libfatfs.a(ff.o)
 *fill*         0x0000c677        0x1 00
 C              0x0000c678       0x2c ../../lib/libfatfs.a(ff.o)
 .rodata.str1.1
                0x0000c6a4       0x39 /usr/local/tkdn-20110720/rx-elf/rx-elf/lib/libc.a(lib_a-svfprintf.o)
                                 0x3b (size before relaxing)
 *fill*         0x0000c6dd        0x3 00
 .rodata._svfprintf_r
                0x0000c6e0      0x164 /usr/local/tkdn-20110720/rx-elf/rx-elf/lib/libc.a(lib_a-svfprintf.o)
 .rodata.blanks.3859
                0x0000c844       0x10 /usr/local/tkdn-20110720/rx-elf/rx-elf/lib/libc.a(lib_a-svfprintf.o)
 .rodata.zeroes.3860
                0x0000c854       0x10 /usr/local/tkdn-20110720/rx-elf/rx-elf/lib/libc.a(lib_a-svfprintf.o)
 .rodata._ctype_
                0x0000c864      0x101 /usr/local/tkdn-20110720/rx-elf/rx-elf/lib/libc.a(lib_a-ctype_.o)
                0x0000c864                _ctype_
 .rodata.str1.1
                0x0000c965        0xd /usr/local/tkdn-20110720/rx-elf/rx-elf/lib/libc.a(lib_a-dtoa.o)
                                  0xf (size before relaxing)
 *fill*         0x0000c972        0x2 00
 .rodata._global_impure_ptr
                0x0000c974        0x4 /usr/local/tkdn-20110720/rx-elf/rx-elf/lib/libc.a(lib_a-impure.o)
                0x0000c974                _global_impure_ptr
 .rodata.str1.1
                0x0000c978        0x2 /usr/local/tkdn-20110720/rx-elf/rx-elf/lib/libc.a(lib_a-impure.o)
 .rodata.str1.1
                0x0000c97a        0x6 /usr/local/tkdn-20110720/rx-elf/rx-elf/lib/libc.a(lib_a-locale.o)
                                  0xb (size before relaxing)
 .rodata.lconv  0x0000c980       0x38 /usr/local/tkdn-20110720/rx-elf/rx-elf/lib/libc.a(lib_a-locale.o)
 .rodata.__mprec_tinytens
                0x0000c9b8        0x8 /usr/local/tkdn-20110720/rx-elf/rx-elf/lib/libc.a(lib_a-mprec.o)
                0x0000c9b8                __mprec_tinytens
 .rodata.__mprec_bigtens
                0x0000c9c0        0x8 /usr/local/tkdn-20110720/rx-elf/rx-elf/lib/libc.a(lib_a-mprec.o)
                0x0000c9c0                __mprec_bigtens
 .rodata.__mprec_tens
                0x0000c9c8       0x64 /usr/local/tkdn-20110720/rx-elf/rx-elf/lib/libc.a(lib_a-mprec.o)
                0x0000c9c8                __mprec_tens
 .rodata.p05.2377
                0x0000ca2c        0xc /usr/local/tkdn-20110720/rx-elf/rx-elf/lib/libc.a(lib_a-mprec.o)
 .rodata.str1.1
                0x00000000       0x29 /usr/local/tkdn-20110720/rx-elf/rx-elf/lib/libc.a(lib_a-svfiprintf.o)
 .rodata._svfiprintf_r
                0x0000ca38      0x164 /usr/local/tkdn-20110720/rx-elf/rx-elf/lib/libc.a(lib_a-svfiprintf.o)
 .rodata.blanks.3804
                0x0000cb9c       0x10 /usr/local/tkdn-20110720/rx-elf/rx-elf/lib/libc.a(lib_a-svfiprintf.o)
 .rodata.zeroes.3805
                0x0000cbac       0x10 /usr/local/tkdn-20110720/rx-elf/rx-elf/lib/libc.a(lib_a-svfiprintf.o)
 C              0x0000cbbc      0x100 /usr/local/tkdn-20110720/rx-elf/lib/gcc/rx-elf/4.6.1/libgcc.a(_clz.o)
                0x0000cbbc                __clz_tab
 C              0x0000ccbc        0x8 ../../lib/libtkdnhal.a(hwsetup.o)
                0x0000ccbc                TIMER_FREQ
                0x0000ccc0                PCLK
 .rodata.str1.1
                0x0000ccc4       0x86 ../../lib/libtkdnhal.a(tkdn_sci.o)
 *fill*         0x0000cd4a        0x2 00
 C              0x0000cd4c       0x7c ../../lib/libtkdnhal.a(tkdn_spi.o)
 .rodata.str1.1
                0x0000cdc8        0x5 ../../lib/libtkdnhal.a(tkdn_ether.o)
 *fill*         0x0000cdcd        0x3 00
 .rodata.cst4   0x0000cdd0        0x4 ../../lib/libtkdnhal.a(tkdn_ether.o)
 C              0x0000cdd4       0x14 ../../lib/libtkdnhal.a(tkdn_gpio.o)
                0x0000cdd4                ULT62N_SFP_PortMap
 C              0x0000cde8        0x8 ../../lib/libtkdnhal.a(usb_cdc.o)
 C              0x0000cdf0       0x2c ../../lib/libtkdnhal.a(usb_core.o)
                0x0000ce18                gStringDescriptorLanguageIDsData
 C              0x0000ce1c       0xc4 ../../lib/libtkdnhal.a(usbdescriptors.o)
                0x0000ce1c                gStringDescriptorSerialNum
                0x0000ce24                gStringDescriptorProduct
                0x0000ce2c                gStringDescriptorManufacturer
                0x0000ce34                gConfigurationDescriptor
                0x0000ce3c                gDeviceDescriptor
 *(.rodata1)
 *(.eh_frame_hdr)
 *(.eh_frame)
 *(.gcc_except_table)
 *(.gcc_except_table.*)
                0x0000cee0                . = ALIGN (0x4)
                0x0000cee0                PROVIDE (__romdatastart, .)

.data           0x0000cee0      0x970
                0x0000cee0                . = ALIGN (0x4)
                0x0000cee0                PROVIDE (__datastart, .)
                0x0000cee0                PROVIDE (__preinit_array_start, .)
 *(.preinit_array)
                0x0000cee0                PROVIDE (__preinit_array_end, .)
                0x0000cee0                PROVIDE (__init_array_start, .)
 *(SORT(.init_array.*))
 *(.init_array)
                0x0000cee0                PROVIDE (__init_array_end, .)
                0x0000cee0                PROVIDE (__fini_array_start, .)
 *(.fini_array)
 *(SORT(.fini_array.*))
                0x0000cee0                PROVIDE (__fini_array_end, .)
                0x0000cee0        0x4 LONG 0x0
 *crtbegin*.o(.ctors)
 *(EXCLUDE_FILE(*crtend*.o) .ctors)
 *(SORT(.ctors.*))
 *(.ctors)
 *crtbegin*.o(.dtors)
 *(EXCLUDE_FILE(*crtend*.o) .dtors)
 *(SORT(.dtors.*))
 *(.dtors)
 *(.jcr)
 *(.data.rel.ro.local)
 *(.data.rel.ro*)
 *(.dynamic)
 *(.data D .data.* .gnu.linkonce.d.*)
 .data          0x0000cee4        0x4 ../../lib/start.o
                0x0000cee4                __dso_handle
 D              0x0000cee8       0x1c tkdnip.o
                0x0000cee8                gw_ipaddr
                0x0000ceec                my_ipmask
                0x0000cef0                my_ipaddr
                0x0000cef4                my_macaddr
                0x0000cefc                recvpacket
                0x0000cf00                sendpacket
 D              0x0000cf04        0x8 ../../lib/libfatfs.a(mmc_rspi.o)
                0x0000cf08                INS
 .data.__ctype_ptr__
                0x0000cf0c        0x4 /usr/local/tkdn-20110720/rx-elf/rx-elf/lib/libc.a(lib_a-ctype_.o)
                0x0000cf0c                __ctype_ptr__
 .data._impure_ptr
                0x0000cf10        0x4 /usr/local/tkdn-20110720/rx-elf/rx-elf/lib/libc.a(lib_a-impure.o)
                0x0000cf10                _impure_ptr
 .data.impure_data
                0x0000cf14      0x424 /usr/local/tkdn-20110720/rx-elf/rx-elf/lib/libc.a(lib_a-impure.o)
 .data.__mb_cur_max
                0x0000d338        0x4 /usr/local/tkdn-20110720/rx-elf/rx-elf/lib/libc.a(lib_a-locale.o)
                0x0000d338                __mb_cur_max
 .data.lc_ctype_charset
                0x0000d33c       0x20 /usr/local/tkdn-20110720/rx-elf/rx-elf/lib/libc.a(lib_a-locale.o)
 .data.lc_message_charset
                0x0000d35c       0x20 /usr/local/tkdn-20110720/rx-elf/rx-elf/lib/libc.a(lib_a-locale.o)
 .data.__malloc_sbrk_base
                0x0000d37c        0x4 /usr/local/tkdn-20110720/rx-elf/rx-elf/lib/libc.a(lib_a-mallocr.o)
                0x0000d37c                __malloc_sbrk_base
 .data.__malloc_trim_threshold
                0x0000d380        0x4 /usr/local/tkdn-20110720/rx-elf/rx-elf/lib/libc.a(lib_a-mallocr.o)
                0x0000d380                __malloc_trim_threshold
 .data.__malloc_av_
                0x0000d384      0x408 /usr/local/tkdn-20110720/rx-elf/rx-elf/lib/libc.a(lib_a-mallocr.o)
                0x0000d384                __malloc_av_
 D              0x0000d78c        0x4 /usr/local/tkdn-20110720/rx-elf/rx-elf/lib/libsim.a(sbrk.o)
 D              0x0000d790       0x6c ../../lib/libtkdnhal.a(tkdn_ether.o)
                0x0000d790                le0
 D              0x0000d7fc       0x30 ../../lib/libtkdnhal.a(usb_core.o)
 D              0x0000d82c       0x24 ../../lib/libtkdnhal.a(usb_hal.o)
 *(.gnu.linkonce.d.*personality*)
 *(.data1)
 *(.got.plt)
 *(.got)
                0x0000d850                . = ALIGN (0x4)
 *(.sdata .sdata.* .gnu.linkonce.s.* D_2 D_1)
 D_1            0x0000d850        0x0 ../../lib/start.o
 D_1            0x0000d850        0x0 main.o
 D_1            0x0000d850        0x0 fatfs-test.o
 D_1            0x0000d850        0x0 ../common/intvect.o
 D_1            0x0000d850        0x0 ip.o
 D_1            0x0000d850        0x0 tkdnip.o
 D_1            0x0000d850        0x0 arp.o
 D_1            0x0000d850        0x0 icmp.o
 D_1            0x0000d850        0x0 ../../lib/libfatfs.a(mmc_rspi.o)
 D_1            0x0000d850        0x0 ../../lib/libfatfs.a(ff.o)
 D_1            0x0000d850        0x0 /usr/local/tkdn-20110720/rx-elf/rx-elf/lib/libc.a(lib_a-isprint.o)
 D_1            0x0000d850        0x0 /usr/local/tkdn-20110720/rx-elf/rx-elf/lib/libc.a(lib_a-rand.o)
 D_1            0x0000d850        0x0 /usr/local/tkdn-20110720/rx-elf/rx-elf/lib/libc.a(lib_a-sprintf.o)
 D_1            0x0000d850        0x0 /usr/local/tkdn-20110720/rx-elf/rx-elf/lib/libc.a(lib_a-svfprintf.o)
 D_1            0x0000d850        0x0 /usr/local/tkdn-20110720/rx-elf/rx-elf/lib/libc.a(lib_a-ctype_.o)
 D_1            0x0000d850        0x0 /usr/local/tkdn-20110720/rx-elf/rx-elf/lib/libc.a(lib_a-dtoa.o)
 D_1            0x0000d850        0x0 /usr/local/tkdn-20110720/rx-elf/rx-elf/lib/libc.a(lib_a-impure.o)
 D_1            0x0000d850        0x0 /usr/local/tkdn-20110720/rx-elf/rx-elf/lib/libc.a(lib_a-locale.o)
 D_1            0x0000d850        0x0 /usr/local/tkdn-20110720/rx-elf/rx-elf/lib/libc.a(lib_a-mallocr.o)
 D_1            0x0000d850        0x0 /usr/local/tkdn-20110720/rx-elf/rx-elf/lib/libc.a(lib_a-memchr.o)
 D_1            0x0000d850        0x0 /usr/local/tkdn-20110720/rx-elf/rx-elf/lib/libc.a(lib_a-memcpy.o)
 D_1            0x0000d850        0x0 /usr/local/tkdn-20110720/rx-elf/rx-elf/lib/libc.a(lib_a-mlock.o)
 D_1            0x0000d850        0x0 /usr/local/tkdn-20110720/rx-elf/rx-elf/lib/libc.a(lib_a-mprec.o)
 D_1            0x0000d850        0x0 /usr/local/tkdn-20110720/rx-elf/rx-elf/lib/libc.a(lib_a-sbrkr.o)
 D_1            0x0000d850        0x0 /usr/local/tkdn-20110720/rx-elf/rx-elf/lib/libc.a(lib_a-sf_fpclassify.o)
 D_1            0x0000d850        0x0 /usr/local/tkdn-20110720/rx-elf/rx-elf/lib/libc.a(lib_a-strcmp.o)
 D_1            0x0000d850        0x0 /usr/local/tkdn-20110720/rx-elf/rx-elf/lib/libc.a(lib_a-strlen.o)
 D_1            0x0000d850        0x0 /usr/local/tkdn-20110720/rx-elf/rx-elf/lib/libc.a(lib_a-svfiprintf.o)
 D_1            0x0000d850        0x0 /usr/local/tkdn-20110720/rx-elf/rx-elf/lib/libc.a(lib_a-callocr.o)
 D_1            0x0000d850        0x0 /usr/local/tkdn-20110720/rx-elf/rx-elf/lib/libc.a(lib_a-freer.o)
 D_1            0x0000d850        0x0 /usr/local/tkdn-20110720/rx-elf/rx-elf/lib/libc.a(lib_a-memmove.o)
 D_1            0x0000d850        0x0 /usr/local/tkdn-20110720/rx-elf/rx-elf/lib/libc.a(lib_a-memset.o)
 D_1            0x0000d850        0x0 /usr/local/tkdn-20110720/rx-elf/rx-elf/lib/libc.a(lib_a-reallocr.o)
 D_1            0x0000d850        0x0 /usr/local/tkdn-20110720/rx-elf/rx-elf/lib/libc.a(lib_a-reent.o)
 D_1            0x0000d850        0x0 /usr/local/tkdn-20110720/rx-elf/rx-elf/lib/libsim.a(sbrk.o)
 D_1            0x0000d850        0x0 /usr/local/tkdn-20110720/rx-elf/rx-elf/lib/libsim.a(heaptop.o)
 D_1            0x0000d850        0x0 /usr/local/tkdn-20110720/rx-elf/lib/gcc/rx-elf/4.6.1/libgcc.a(_udivdi3.o)
 D_1            0x0000d850        0x0 /usr/local/tkdn-20110720/rx-elf/lib/gcc/rx-elf/4.6.1/libgcc.a(_umoddi3.o)
 D_1            0x0000d850        0x0 /usr/local/tkdn-20110720/rx-elf/lib/gcc/rx-elf/4.6.1/libgcc.a(_clz.o)
 D_1            0x0000d850        0x0 ../../lib/libtkdnhal.a(hwsetup.o)
 D_1            0x0000d850        0x0 ../../lib/libtkdnhal.a(tkdn_sci.o)
 D_1            0x0000d850        0x0 ../../lib/libtkdnhal.a(tkdn_spi.o)
 D_1            0x0000d850        0x0 ../../lib/libtkdnhal.a(tkdn_ether.o)
 D_1            0x0000d850        0x0 ../../lib/libtkdnhal.a(tkdn_rtc.o)
 D_1            0x0000d850        0x0 ../../lib/libtkdnhal.a(tkdn_timer.o)
 D_1            0x0000d850        0x0 ../../lib/libtkdnhal.a(tkdn_gpio.o)
 D_1            0x0000d850        0x0 ../../lib/libtkdnhal.a(phy.o)
 D_1            0x0000d850        0x0 ../../lib/libtkdnhal.a(eidi.o)
 D_1            0x0000d850        0x0 ../../lib/libtkdnhal.a(usb_cdc.o)
 D_1            0x0000d850        0x0 ../../lib/libtkdnhal.a(usb_core.o)
 D_1            0x0000d850        0x0 ../../lib/libtkdnhal.a(usb_hal.o)
 D_1            0x0000d850        0x0 ../../lib/libtkdnhal.a(usbdescriptors.o)
                0x0000d850                . = ALIGN (0x4)
                0x0000d850                _edata = .
                0x0000d850                PROVIDE (edata, .)
                0x0000d850                PROVIDE (__dataend, .)
                0x00000970                PROVIDE (__romdatacopysize, SIZEOF (.data))

.bss            0x0000d850     0x1870
                0x0000d850                . = ALIGN (0x4)
                0x0000d850                PROVIDE (__bssstart, .)
 *(.dynbss)
 *(.sbss .sbss.*)
 *(.bss B B_2 B_1 .bss.* .gnu.linkonce.b.*)
 B_1            0x0000d850        0x0 ../../lib/start.o
 B_1            0x0000d850        0x0 main.o
 B_1            0x0000d850        0x0 fatfs-test.o
 B              0x0000d850        0x4 fatfs-test.o
                0x0000d850                found_files
 B_1            0x0000d854        0x0 ../common/intvect.o
 B_1            0x0000d854        0x0 ip.o
 B              0x0000d854        0x4 ip.o
                0x0000d854                g_ipseq
 B_1            0x0000d858        0x0 tkdnip.o
 B              0x0000d858        0x8 tkdnip.o
                0x0000d858                g_dump
                0x0000d85c                g_success
 B_1            0x0000d860       0x44 arp.o
 B_1            0x0000d8a4        0x0 icmp.o
 B              0x0000d8a4        0x8 icmp.o
                0x0000d8a4                g_ping_timer
                0x0000d8a8                g_ping_process
                0x0000d8aa                g_ping_seq
 B_1            0x0000d8ac        0x6 ../../lib/libfatfs.a(mmc_rspi.o)
 *fill*         0x0000d8b2        0x2 00
 B_1            0x0000d8b4        0x8 ../../lib/libfatfs.a(ff.o)
 B_1            0x0000d8bc        0x0 /usr/local/tkdn-20110720/rx-elf/rx-elf/lib/libc.a(lib_a-isprint.o)
 B_1            0x0000d8bc        0x0 /usr/local/tkdn-20110720/rx-elf/rx-elf/lib/libc.a(lib_a-rand.o)
 B_1            0x0000d8bc        0x0 /usr/local/tkdn-20110720/rx-elf/rx-elf/lib/libc.a(lib_a-sprintf.o)
 B_1            0x0000d8bc        0x0 /usr/local/tkdn-20110720/rx-elf/rx-elf/lib/libc.a(lib_a-svfprintf.o)
 B_1            0x0000d8bc        0x0 /usr/local/tkdn-20110720/rx-elf/rx-elf/lib/libc.a(lib_a-ctype_.o)
 B_1            0x0000d8bc        0x0 /usr/local/tkdn-20110720/rx-elf/rx-elf/lib/libc.a(lib_a-dtoa.o)
 B_1            0x0000d8bc        0x0 /usr/local/tkdn-20110720/rx-elf/rx-elf/lib/libc.a(lib_a-impure.o)
 B_1            0x0000d8bc        0x0 /usr/local/tkdn-20110720/rx-elf/rx-elf/lib/libc.a(lib_a-locale.o)
 .bss._PathLocale
                0x0000d8bc        0x4 /usr/local/tkdn-20110720/rx-elf/rx-elf/lib/libc.a(lib_a-locale.o)
                0x0000d8bc                _PathLocale
 .bss.__mlocale_changed
                0x0000d8c0        0x4 /usr/local/tkdn-20110720/rx-elf/rx-elf/lib/libc.a(lib_a-locale.o)
                0x0000d8c0                __mlocale_changed
 .bss.__nlocale_changed
                0x0000d8c4        0x4 /usr/local/tkdn-20110720/rx-elf/rx-elf/lib/libc.a(lib_a-locale.o)
                0x0000d8c4                __nlocale_changed
 B_1            0x0000d8c8        0x0 /usr/local/tkdn-20110720/rx-elf/rx-elf/lib/libc.a(lib_a-mallocr.o)
 .bss.__malloc_current_mallinfo
                0x0000d8c8       0x28 /usr/local/tkdn-20110720/rx-elf/rx-elf/lib/libc.a(lib_a-mallocr.o)
                0x0000d8c8                __malloc_current_mallinfo
 .bss.__malloc_max_total_mem
                0x0000d8f0        0x4 /usr/local/tkdn-20110720/rx-elf/rx-elf/lib/libc.a(lib_a-mallocr.o)
                0x0000d8f0                __malloc_max_total_mem
 .bss.__malloc_max_sbrked_mem
                0x0000d8f4        0x4 /usr/local/tkdn-20110720/rx-elf/rx-elf/lib/libc.a(lib_a-mallocr.o)
                0x0000d8f4                __malloc_max_sbrked_mem
 .bss.__malloc_top_pad
                0x0000d8f8        0x4 /usr/local/tkdn-20110720/rx-elf/rx-elf/lib/libc.a(lib_a-mallocr.o)
                0x0000d8f8                __malloc_top_pad
 B_1            0x0000d8fc        0x0 /usr/local/tkdn-20110720/rx-elf/rx-elf/lib/libc.a(lib_a-memchr.o)
 B_1            0x0000d8fc        0x0 /usr/local/tkdn-20110720/rx-elf/rx-elf/lib/libc.a(lib_a-memcpy.o)
 B_1            0x0000d8fc        0x0 /usr/local/tkdn-20110720/rx-elf/rx-elf/lib/libc.a(lib_a-mlock.o)
 B_1            0x0000d8fc        0x0 /usr/local/tkdn-20110720/rx-elf/rx-elf/lib/libc.a(lib_a-mprec.o)
 B_1            0x0000d8fc        0x0 /usr/local/tkdn-20110720/rx-elf/rx-elf/lib/libc.a(lib_a-sbrkr.o)
 B_1            0x0000d8fc        0x0 /usr/local/tkdn-20110720/rx-elf/rx-elf/lib/libc.a(lib_a-sf_fpclassify.o)
 B_1            0x0000d8fc        0x0 /usr/local/tkdn-20110720/rx-elf/rx-elf/lib/libc.a(lib_a-strcmp.o)
 B_1            0x0000d8fc        0x0 /usr/local/tkdn-20110720/rx-elf/rx-elf/lib/libc.a(lib_a-strlen.o)
 B_1            0x0000d8fc        0x0 /usr/local/tkdn-20110720/rx-elf/rx-elf/lib/libc.a(lib_a-svfiprintf.o)
 B_1            0x0000d8fc        0x0 /usr/local/tkdn-20110720/rx-elf/rx-elf/lib/libc.a(lib_a-callocr.o)
 B_1            0x0000d8fc        0x0 /usr/local/tkdn-20110720/rx-elf/rx-elf/lib/libc.a(lib_a-freer.o)
 B_1            0x0000d8fc        0x0 /usr/local/tkdn-20110720/rx-elf/rx-elf/lib/libc.a(lib_a-memmove.o)
 B_1            0x0000d8fc        0x0 /usr/local/tkdn-20110720/rx-elf/rx-elf/lib/libc.a(lib_a-memset.o)
 B_1            0x0000d8fc        0x0 /usr/local/tkdn-20110720/rx-elf/rx-elf/lib/libc.a(lib_a-reallocr.o)
 B_1            0x0000d8fc        0x0 /usr/local/tkdn-20110720/rx-elf/rx-elf/lib/libc.a(lib_a-reent.o)
 B_1            0x0000d8fc        0x0 /usr/local/tkdn-20110720/rx-elf/rx-elf/lib/libsim.a(sbrk.o)
 B_1            0x0000d8fc        0x0 /usr/local/tkdn-20110720/rx-elf/rx-elf/lib/libsim.a(heaptop.o)
 B_1            0x0000d8fc        0x0 /usr/local/tkdn-20110720/rx-elf/lib/gcc/rx-elf/4.6.1/libgcc.a(_udivdi3.o)
 B_1            0x0000d8fc        0x0 /usr/local/tkdn-20110720/rx-elf/lib/gcc/rx-elf/4.6.1/libgcc.a(_umoddi3.o)
 B_1            0x0000d8fc        0x0 /usr/local/tkdn-20110720/rx-elf/lib/gcc/rx-elf/4.6.1/libgcc.a(_clz.o)
 B_1            0x0000d8fc        0x0 ../../lib/libtkdnhal.a(hwsetup.o)
 B_1            0x0000d8fc       0x1c ../../lib/libtkdnhal.a(tkdn_sci.o)
 B_1            0x0000d918        0x0 ../../lib/libtkdnhal.a(tkdn_spi.o)
 B_1            0x0000d918        0x4 ../../lib/libtkdnhal.a(tkdn_ether.o)
 B_1            0x0000d91c        0x1 ../../lib/libtkdnhal.a(tkdn_rtc.o)
 B_1            0x0000d91d        0x0 ../../lib/libtkdnhal.a(tkdn_timer.o)
 *fill*         0x0000d91d        0x3 00
 B              0x0000d920        0x8 ../../lib/libtkdnhal.a(tkdn_timer.o)
                0x0000d920                userfunc
                0x0000d924                tim_1ms
 B_1            0x0000d928        0x0 ../../lib/libtkdnhal.a(tkdn_gpio.o)
 B_1            0x0000d928        0x0 ../../lib/libtkdnhal.a(phy.o)
 B_1            0x0000d928        0x0 ../../lib/libtkdnhal.a(eidi.o)
 B_1            0x0000d928       0x10 ../../lib/libtkdnhal.a(usb_cdc.o)
 B_1            0x0000d938       0x14 ../../lib/libtkdnhal.a(usb_core.o)
 B_1            0x0000d94c      0x44c ../../lib/libtkdnhal.a(usb_hal.o)
 B_1            0x0000dd98        0x0 ../../lib/libtkdnhal.a(usbdescriptors.o)
                0x0000dd98                . = ALIGN (0x4)
 *(COMMON)
 COMMON         0x0000dd98        0x4 /usr/local/tkdn-20110720/rx-elf/rx-elf/lib/libc.a(lib_a-reent.o)
                0x0000dd98                errno
 COMMON         0x0000dd9c      0x200 ../../lib/libtkdnhal.a(tkdn_sci.o)
                0x0000dd9c                txbuf
                0x0000de9c                rxbuf
 COMMON         0x0000df9c        0x4 ../../lib/libtkdnhal.a(tkdn_spi.o)
                0x0000df9c                port
 COMMON         0x0000dfa0        0x4 ../../lib/libtkdnhal.a(tkdn_ether.o)
                0x0000dfa0                user_rx_func
                0x0000dfa4                . = ALIGN (0x4)
                0x0000dfc0                . = ALIGN (0x20)
 *fill*         0x0000dfa4       0x1c 00
 *(.etherdesc)
 .etherdesc     0x0000dfc0     0x1100 ../../lib/libtkdnhal.a(tkdn_ether.o)
                0x0000f0c0                PROVIDE (__bssend, .)
                0x0000f0c0                _end = .
                0x0000f0c0                PROVIDE (end, .)
                0x0000061c                PROVIDE (__bsssize, (SIZEOF (.bss) / 0x4))
                0x00000000                PROVIDE (__rx_priviledged_exception_handler, 0x0)
                0x00000000                PROVIDE (__rx_access_exception_handler, 0x0)
                0x00000000                PROVIDE (__rx_undefined_exception_handler, 0x0)
                0x00000000                PROVIDE (__rx_floating_exception_handler, 0x0)
                0x00000000                PROVIDE (__rx_nonmaskable_exception_handler, 0x0)

.stab
 *(.stab)

.stabstr
 *(.stabstr)

.stab.excl
 *(.stab.excl)

.stab.exclstr
 *(.stab.exclstr)

.stab.index
 *(.stab.index)

.stab.indexstr
 *(.stab.indexstr)

.comment        0x00000000       0x11
 *(.comment)
 .comment       0x00000000       0x11 main.o
                                 0x12 (size before relaxing)
 .comment       0x00000000       0x12 fatfs-test.o
 .comment       0x00000000       0x12 ../common/intvect.o
 .comment       0x00000000       0x12 ip.o
 .comment       0x00000000       0x12 tkdnip.o
 .comment       0x00000000       0x12 arp.o
 .comment       0x00000000       0x12 icmp.o
 .comment       0x00000000       0x12 ../../lib/libfatfs.a(mmc_rspi.o)
 .comment       0x00000000       0x12 ../../lib/libfatfs.a(ff.o)
 .comment       0x00000000       0x12 /usr/local/tkdn-20110720/rx-elf/rx-elf/lib/libc.a(lib_a-isprint.o)
 .comment       0x00000000       0x12 /usr/local/tkdn-20110720/rx-elf/rx-elf/lib/libc.a(lib_a-rand.o)
 .comment       0x00000000       0x12 /usr/local/tkdn-20110720/rx-elf/rx-elf/lib/libc.a(lib_a-sprintf.o)
 .comment       0x00000000       0x12 /usr/local/tkdn-20110720/rx-elf/rx-elf/lib/libc.a(lib_a-svfprintf.o)
 .comment       0x00000000       0x12 /usr/local/tkdn-20110720/rx-elf/rx-elf/lib/libc.a(lib_a-ctype_.o)
 .comment       0x00000000       0x12 /usr/local/tkdn-20110720/rx-elf/rx-elf/lib/libc.a(lib_a-dtoa.o)
 .comment       0x00000000       0x12 /usr/local/tkdn-20110720/rx-elf/rx-elf/lib/libc.a(lib_a-impure.o)
 .comment       0x00000000       0x12 /usr/local/tkdn-20110720/rx-elf/rx-elf/lib/libc.a(lib_a-locale.o)
 .comment       0x00000000       0x12 /usr/local/tkdn-20110720/rx-elf/rx-elf/lib/libc.a(lib_a-mallocr.o)
 .comment       0x00000000       0x12 /usr/local/tkdn-20110720/rx-elf/rx-elf/lib/libc.a(lib_a-mlock.o)
 .comment       0x00000000       0x12 /usr/local/tkdn-20110720/rx-elf/rx-elf/lib/libc.a(lib_a-mprec.o)
 .comment       0x00000000       0x12 /usr/local/tkdn-20110720/rx-elf/rx-elf/lib/libc.a(lib_a-sbrkr.o)
 .comment       0x00000000       0x12 /usr/local/tkdn-20110720/rx-elf/rx-elf/lib/libc.a(lib_a-sf_fpclassify.o)
 .comment       0x00000000       0x12 /usr/local/tkdn-20110720/rx-elf/rx-elf/lib/libc.a(lib_a-svfiprintf.o)
 .comment       0x00000000       0x12 /usr/local/tkdn-20110720/rx-elf/rx-elf/lib/libc.a(lib_a-callocr.o)
 .comment       0x00000000       0x12 /usr/local/tkdn-20110720/rx-elf/rx-elf/lib/libc.a(lib_a-freer.o)
 .comment       0x00000000       0x12 /usr/local/tkdn-20110720/rx-elf/rx-elf/lib/libc.a(lib_a-reallocr.o)
 .comment       0x00000000       0x12 /usr/local/tkdn-20110720/rx-elf/rx-elf/lib/libc.a(lib_a-reent.o)
 .comment       0x00000000       0x12 /usr/local/tkdn-20110720/rx-elf/rx-elf/lib/libsim.a(sbrk.o)
 .comment       0x00000000       0x12 /usr/local/tkdn-20110720/rx-elf/lib/gcc/rx-elf/4.6.1/libgcc.a(_udivdi3.o)
 .comment       0x00000000       0x12 /usr/local/tkdn-20110720/rx-elf/lib/gcc/rx-elf/4.6.1/libgcc.a(_umoddi3.o)
 .comment       0x00000000       0x12 /usr/local/tkdn-20110720/rx-elf/lib/gcc/rx-elf/4.6.1/libgcc.a(_clz.o)
 .comment       0x00000000       0x12 ../../lib/libtkdnhal.a(hwsetup.o)
 .comment       0x00000000       0x12 ../../lib/libtkdnhal.a(tkdn_sci.o)
 .comment       0x00000000       0x12 ../../lib/libtkdnhal.a(tkdn_spi.o)
 .comment       0x00000000       0x12 ../../lib/libtkdnhal.a(tkdn_ether.o)
 .comment       0x00000000       0x12 ../../lib/libtkdnhal.a(tkdn_rtc.o)
 .comment       0x00000000       0x12 ../../lib/libtkdnhal.a(tkdn_timer.o)
 .comment       0x00000000       0x12 ../../lib/libtkdnhal.a(tkdn_gpio.o)
 .comment       0x00000000       0x12 ../../lib/libtkdnhal.a(phy.o)
 .comment       0x00000000       0x12 ../../lib/libtkdnhal.a(usb_cdc.o)
 .comment       0x00000000       0x12 ../../lib/libtkdnhal.a(usb_core.o)
 .comment       0x00000000       0x12 ../../lib/libtkdnhal.a(usb_hal.o)
 .comment       0x00000000       0x12 ../../lib/libtkdnhal.a(usbdescriptors.o)

.debug
 *(.debug)

.line
 *(.line)

.debug_srcinfo
 *(.debug_srcinfo)

.debug_sfnames
 *(.debug_sfnames)

.debug_aranges  0x00000000      0x470
 *(.debug_aranges)
 .debug_aranges
                0x00000000       0x28 main.o
 .debug_aranges
                0x00000028       0x20 fatfs-test.o
 .debug_aranges
                0x00000048       0x20 ../common/intvect.o
 .debug_aranges
                0x00000068       0x20 ip.o
 .debug_aranges
                0x00000088       0x20 tkdnip.o
 .debug_aranges
                0x000000a8       0x20 arp.o
 .debug_aranges
                0x000000c8       0x20 icmp.o
 .debug_aranges
                0x000000e8       0x28 /usr/local/tkdn-20110720/rx-elf/rx-elf/lib/libc.a(lib_a-isprint.o)
 .debug_aranges
                0x00000110       0x28 /usr/local/tkdn-20110720/rx-elf/rx-elf/lib/libc.a(lib_a-rand.o)
 .debug_aranges
                0x00000138       0x28 /usr/local/tkdn-20110720/rx-elf/rx-elf/lib/libc.a(lib_a-sprintf.o)
 .debug_aranges
                0x00000160       0x20 /usr/local/tkdn-20110720/rx-elf/rx-elf/lib/libc.a(lib_a-svfprintf.o)
 .debug_aranges
                0x00000180       0x28 /usr/local/tkdn-20110720/rx-elf/rx-elf/lib/libc.a(lib_a-dtoa.o)
 .debug_aranges
                0x000001a8       0x50 /usr/local/tkdn-20110720/rx-elf/rx-elf/lib/libc.a(lib_a-locale.o)
 .debug_aranges
                0x000001f8       0x20 /usr/local/tkdn-20110720/rx-elf/rx-elf/lib/libc.a(lib_a-mallocr.o)
 .debug_aranges
                0x00000218       0x28 /usr/local/tkdn-20110720/rx-elf/rx-elf/lib/libc.a(lib_a-mlock.o)
 .debug_aranges
                0x00000240       0xb0 /usr/local/tkdn-20110720/rx-elf/rx-elf/lib/libc.a(lib_a-mprec.o)
 .debug_aranges
                0x000002f0       0x20 /usr/local/tkdn-20110720/rx-elf/rx-elf/lib/libc.a(lib_a-sbrkr.o)
 .debug_aranges
                0x00000310       0x20 /usr/local/tkdn-20110720/rx-elf/rx-elf/lib/libc.a(lib_a-sf_fpclassify.o)
 .debug_aranges
                0x00000330       0x28 /usr/local/tkdn-20110720/rx-elf/rx-elf/lib/libc.a(lib_a-svfiprintf.o)
 .debug_aranges
                0x00000358       0x20 /usr/local/tkdn-20110720/rx-elf/rx-elf/lib/libc.a(lib_a-callocr.o)
 .debug_aranges
                0x00000378       0x28 /usr/local/tkdn-20110720/rx-elf/rx-elf/lib/libc.a(lib_a-freer.o)
 .debug_aranges
                0x000003a0       0x20 /usr/local/tkdn-20110720/rx-elf/rx-elf/lib/libc.a(lib_a-reallocr.o)
 .debug_aranges
                0x000003c0       0x30 /usr/local/tkdn-20110720/rx-elf/rx-elf/lib/libc.a(lib_a-reent.o)
 .debug_aranges
                0x000003f0       0x20 /usr/local/tkdn-20110720/rx-elf/rx-elf/lib/libsim.a(sbrk.o)
 .debug_aranges
                0x00000410       0x20 /usr/local/tkdn-20110720/rx-elf/rx-elf/lib/libsim.a(heaptop.o)
 .debug_aranges
                0x00000430       0x20 /usr/local/tkdn-20110720/rx-elf/lib/gcc/rx-elf/4.6.1/libgcc.a(_udivdi3.o)
 .debug_aranges
                0x00000450       0x20 /usr/local/tkdn-20110720/rx-elf/lib/gcc/rx-elf/4.6.1/libgcc.a(_umoddi3.o)

.debug_pubnames
 *(.debug_pubnames)

.debug_info     0x00000000     0xef70
 *(.debug_info .gnu.linkonce.wi.*)
 .debug_info    0x00000000      0x3e9 main.o
 .debug_info    0x000003e9      0x489 fatfs-test.o
 .debug_info    0x00000872      0xe37 ../common/intvect.o
 .debug_info    0x000016a9      0x33a ip.o
 .debug_info    0x000019e3      0x44f tkdnip.o
 .debug_info    0x00001e32      0x4e9 arp.o
 .debug_info    0x0000231b      0x30f icmp.o
 .debug_info    0x0000262a       0xb1 /usr/local/tkdn-20110720/rx-elf/rx-elf/lib/libc.a(lib_a-isprint.o)
 .debug_info    0x000026db      0x988 /usr/local/tkdn-20110720/rx-elf/rx-elf/lib/libc.a(lib_a-rand.o)
 .debug_info    0x00003063      0xa4b /usr/local/tkdn-20110720/rx-elf/rx-elf/lib/libc.a(lib_a-sprintf.o)
 .debug_info    0x00003aae      0xfab /usr/local/tkdn-20110720/rx-elf/rx-elf/lib/libc.a(lib_a-svfprintf.o)
 .debug_info    0x00004a59       0x8b /usr/local/tkdn-20110720/rx-elf/rx-elf/lib/libc.a(lib_a-ctype_.o)
 .debug_info    0x00004ae4      0xdcf /usr/local/tkdn-20110720/rx-elf/rx-elf/lib/libc.a(lib_a-dtoa.o)
 .debug_info    0x000058b3      0x965 /usr/local/tkdn-20110720/rx-elf/rx-elf/lib/libc.a(lib_a-impure.o)
 .debug_info    0x00006218      0xc73 /usr/local/tkdn-20110720/rx-elf/rx-elf/lib/libc.a(lib_a-locale.o)
 .debug_info    0x00006e8b      0xd6e /usr/local/tkdn-20110720/rx-elf/rx-elf/lib/libc.a(lib_a-mallocr.o)
 .debug_info    0x00007bf9      0x983 /usr/local/tkdn-20110720/rx-elf/rx-elf/lib/libc.a(lib_a-mlock.o)
 .debug_info    0x0000857c     0x14f6 /usr/local/tkdn-20110720/rx-elf/rx-elf/lib/libc.a(lib_a-mprec.o)
 .debug_info    0x00009a72      0x9af /usr/local/tkdn-20110720/rx-elf/rx-elf/lib/libc.a(lib_a-sbrkr.o)
 .debug_info    0x0000a421       0xca /usr/local/tkdn-20110720/rx-elf/rx-elf/lib/libc.a(lib_a-sf_fpclassify.o)
 .debug_info    0x0000a4eb      0xd84 /usr/local/tkdn-20110720/rx-elf/rx-elf/lib/libc.a(lib_a-svfiprintf.o)
 .debug_info    0x0000b26f      0xa4b /usr/local/tkdn-20110720/rx-elf/rx-elf/lib/libc.a(lib_a-callocr.o)
 .debug_info    0x0000bcba      0xc21 /usr/local/tkdn-20110720/rx-elf/rx-elf/lib/libc.a(lib_a-freer.o)
 .debug_info    0x0000c8db      0xbc1 /usr/local/tkdn-20110720/rx-elf/rx-elf/lib/libc.a(lib_a-reallocr.o)
 .debug_info    0x0000d49c      0xa53 /usr/local/tkdn-20110720/rx-elf/rx-elf/lib/libc.a(lib_a-reent.o)
 .debug_info    0x0000deef       0xa0 /usr/local/tkdn-20110720/rx-elf/rx-elf/lib/libsim.a(sbrk.o)
 .debug_info    0x0000df8f       0x88 /usr/local/tkdn-20110720/rx-elf/rx-elf/lib/libsim.a(heaptop.o)
 .debug_info    0x0000e017      0x72a /usr/local/tkdn-20110720/rx-elf/lib/gcc/rx-elf/4.6.1/libgcc.a(_udivdi3.o)
 .debug_info    0x0000e741      0x77b /usr/local/tkdn-20110720/rx-elf/lib/gcc/rx-elf/4.6.1/libgcc.a(_umoddi3.o)
 .debug_info    0x0000eebc       0xb4 /usr/local/tkdn-20110720/rx-elf/lib/gcc/rx-elf/4.6.1/libgcc.a(_clz.o)

.debug_abbrev   0x00000000     0x2ce2
 *(.debug_abbrev)
 .debug_abbrev  0x00000000      0x15b main.o
 .debug_abbrev  0x0000015b      0x16e fatfs-test.o
 .debug_abbrev  0x000002c9       0x7b ../common/intvect.o
 .debug_abbrev  0x00000344      0x117 ip.o
 .debug_abbrev  0x0000045b      0x169 tkdnip.o
 .debug_abbrev  0x000005c4      0x1ba arp.o
 .debug_abbrev  0x0000077e      0x10b icmp.o
 .debug_abbrev  0x00000889       0x75 /usr/local/tkdn-20110720/rx-elf/rx-elf/lib/libc.a(lib_a-isprint.o)
 .debug_abbrev  0x000008fe      0x196 /usr/local/tkdn-20110720/rx-elf/rx-elf/lib/libc.a(lib_a-rand.o)
 .debug_abbrev  0x00000a94      0x1d3 /usr/local/tkdn-20110720/rx-elf/rx-elf/lib/libc.a(lib_a-sprintf.o)
 .debug_abbrev  0x00000c67      0x2e8 /usr/local/tkdn-20110720/rx-elf/rx-elf/lib/libc.a(lib_a-svfprintf.o)
 .debug_abbrev  0x00000f4f       0x63 /usr/local/tkdn-20110720/rx-elf/rx-elf/lib/libc.a(lib_a-ctype_.o)
 .debug_abbrev  0x00000fb2      0x229 /usr/local/tkdn-20110720/rx-elf/rx-elf/lib/libc.a(lib_a-dtoa.o)
 .debug_abbrev  0x000011db      0x166 /usr/local/tkdn-20110720/rx-elf/rx-elf/lib/libc.a(lib_a-impure.o)
 .debug_abbrev  0x00001341      0x24f /usr/local/tkdn-20110720/rx-elf/rx-elf/lib/libc.a(lib_a-locale.o)
 .debug_abbrev  0x00001590      0x235 /usr/local/tkdn-20110720/rx-elf/rx-elf/lib/libc.a(lib_a-mallocr.o)
 .debug_abbrev  0x000017c5      0x17b /usr/local/tkdn-20110720/rx-elf/rx-elf/lib/libc.a(lib_a-mlock.o)
 .debug_abbrev  0x00001940      0x310 /usr/local/tkdn-20110720/rx-elf/rx-elf/lib/libc.a(lib_a-mprec.o)
 .debug_abbrev  0x00001c50      0x1b2 /usr/local/tkdn-20110720/rx-elf/rx-elf/lib/libc.a(lib_a-sbrkr.o)
 .debug_abbrev  0x00001e02       0x6e /usr/local/tkdn-20110720/rx-elf/rx-elf/lib/libc.a(lib_a-sf_fpclassify.o)
 .debug_abbrev  0x00001e70      0x260 /usr/local/tkdn-20110720/rx-elf/rx-elf/lib/libc.a(lib_a-svfiprintf.o)
 .debug_abbrev  0x000020d0      0x1c2 /usr/local/tkdn-20110720/rx-elf/rx-elf/lib/libc.a(lib_a-callocr.o)
 .debug_abbrev  0x00002292      0x233 /usr/local/tkdn-20110720/rx-elf/rx-elf/lib/libc.a(lib_a-freer.o)
 .debug_abbrev  0x000024c5      0x1ee /usr/local/tkdn-20110720/rx-elf/rx-elf/lib/libc.a(lib_a-reallocr.o)
 .debug_abbrev  0x000026b3      0x211 /usr/local/tkdn-20110720/rx-elf/rx-elf/lib/libc.a(lib_a-reent.o)
 .debug_abbrev  0x000028c4       0x8a /usr/local/tkdn-20110720/rx-elf/rx-elf/lib/libsim.a(sbrk.o)
 .debug_abbrev  0x0000294e       0x14 /usr/local/tkdn-20110720/rx-elf/rx-elf/lib/libsim.a(heaptop.o)
 .debug_abbrev  0x00002962      0x17e /usr/local/tkdn-20110720/rx-elf/lib/gcc/rx-elf/4.6.1/libgcc.a(_udivdi3.o)
 .debug_abbrev  0x00002ae0      0x1a1 /usr/local/tkdn-20110720/rx-elf/lib/gcc/rx-elf/4.6.1/libgcc.a(_umoddi3.o)
 .debug_abbrev  0x00002c81       0x61 /usr/local/tkdn-20110720/rx-elf/lib/gcc/rx-elf/4.6.1/libgcc.a(_clz.o)

.debug_line     0x00000000     0x9599
 *(.debug_line)
 .debug_line    0x00000000      0x66a main.o
 .debug_line    0x0000066a      0x26c fatfs-test.o
 .debug_line    0x000008d6      0xa1e ../common/intvect.o
 .debug_line    0x000012f4      0x25c ip.o
 .debug_line    0x00001550      0x516 tkdnip.o
 .debug_line    0x00001a66      0x2d4 arp.o
 .debug_line    0x00001d3a      0x294 icmp.o
 .debug_line    0x00001fce       0xdc /usr/local/tkdn-20110720/rx-elf/rx-elf/lib/libc.a(lib_a-isprint.o)
 .debug_line    0x000020aa      0x198 /usr/local/tkdn-20110720/rx-elf/rx-elf/lib/libc.a(lib_a-rand.o)
 .debug_line    0x00002242      0x225 /usr/local/tkdn-20110720/rx-elf/rx-elf/lib/libc.a(lib_a-sprintf.o)
 .debug_line    0x00002467     0x1596 /usr/local/tkdn-20110720/rx-elf/rx-elf/lib/libc.a(lib_a-svfprintf.o)
 .debug_line    0x000039fd       0x6a /usr/local/tkdn-20110720/rx-elf/rx-elf/lib/libc.a(lib_a-ctype_.o)
 .debug_line    0x00003a67     0x1405 /usr/local/tkdn-20110720/rx-elf/rx-elf/lib/libc.a(lib_a-dtoa.o)
 .debug_line    0x00004e6c       0xfa /usr/local/tkdn-20110720/rx-elf/rx-elf/lib/libc.a(lib_a-impure.o)
 .debug_line    0x00004f66      0x280 /usr/local/tkdn-20110720/rx-elf/rx-elf/lib/libc.a(lib_a-locale.o)
 .debug_line    0x000051e6      0x87e /usr/local/tkdn-20110720/rx-elf/rx-elf/lib/libc.a(lib_a-mallocr.o)
 .debug_line    0x00005a64      0x12e /usr/local/tkdn-20110720/rx-elf/rx-elf/lib/libc.a(lib_a-mlock.o)
 .debug_line    0x00005b92     0x11bd /usr/local/tkdn-20110720/rx-elf/rx-elf/lib/libc.a(lib_a-mprec.o)
 .debug_line    0x00006d4f      0x19d /usr/local/tkdn-20110720/rx-elf/rx-elf/lib/libc.a(lib_a-sbrkr.o)
 .debug_line    0x00006eec      0x1a9 /usr/local/tkdn-20110720/rx-elf/rx-elf/lib/libc.a(lib_a-sf_fpclassify.o)
 .debug_line    0x00007095      0xf4c /usr/local/tkdn-20110720/rx-elf/rx-elf/lib/libc.a(lib_a-svfiprintf.o)
 .debug_line    0x00007fe1      0x189 /usr/local/tkdn-20110720/rx-elf/rx-elf/lib/libc.a(lib_a-callocr.o)
 .debug_line    0x0000816a      0x4a2 /usr/local/tkdn-20110720/rx-elf/rx-elf/lib/libc.a(lib_a-freer.o)
 .debug_line    0x0000860c      0x5db /usr/local/tkdn-20110720/rx-elf/rx-elf/lib/libc.a(lib_a-reallocr.o)
 .debug_line    0x00008be7      0x2b3 /usr/local/tkdn-20110720/rx-elf/rx-elf/lib/libc.a(lib_a-reent.o)
 .debug_line    0x00008e9a       0x8e /usr/local/tkdn-20110720/rx-elf/rx-elf/lib/libsim.a(sbrk.o)
 .debug_line    0x00008f28       0x51 /usr/local/tkdn-20110720/rx-elf/rx-elf/lib/libsim.a(heaptop.o)
 .debug_line    0x00008f79      0x2ea /usr/local/tkdn-20110720/rx-elf/lib/gcc/rx-elf/4.6.1/libgcc.a(_udivdi3.o)
 .debug_line    0x00009263      0x2e1 /usr/local/tkdn-20110720/rx-elf/lib/gcc/rx-elf/4.6.1/libgcc.a(_umoddi3.o)
 .debug_line    0x00009544       0x55 /usr/local/tkdn-20110720/rx-elf/lib/gcc/rx-elf/4.6.1/libgcc.a(_clz.o)

.debug_frame    0x00000000     0x19a8
 *(.debug_frame)
 .debug_frame   0x00000000      0x110 main.o
 .debug_frame   0x00000110       0x80 fatfs-test.o
 .debug_frame   0x00000190      0xee4 ../common/intvect.o
 .debug_frame   0x00001074       0x68 ip.o
 .debug_frame   0x000010dc       0xec tkdnip.o
 .debug_frame   0x000011c8       0x98 arp.o
 .debug_frame   0x00001260       0x5c icmp.o
 .debug_frame   0x000012bc       0x34 /usr/local/tkdn-20110720/rx-elf/rx-elf/lib/libc.a(lib_a-isprint.o)
 .debug_frame   0x000012f0       0x3c /usr/local/tkdn-20110720/rx-elf/rx-elf/lib/libc.a(lib_a-rand.o)
 .debug_frame   0x0000132c       0x3c /usr/local/tkdn-20110720/rx-elf/rx-elf/lib/libc.a(lib_a-sprintf.o)
 .debug_frame   0x00001368       0x3c /usr/local/tkdn-20110720/rx-elf/rx-elf/lib/libc.a(lib_a-svfprintf.o)
 .debug_frame   0x000013a4       0x64 /usr/local/tkdn-20110720/rx-elf/rx-elf/lib/libc.a(lib_a-dtoa.o)
 .debug_frame   0x00001408       0x90 /usr/local/tkdn-20110720/rx-elf/rx-elf/lib/libc.a(lib_a-locale.o)
 .debug_frame   0x00001498       0x3c /usr/local/tkdn-20110720/rx-elf/rx-elf/lib/libc.a(lib_a-mallocr.o)
 .debug_frame   0x000014d4       0x34 /usr/local/tkdn-20110720/rx-elf/rx-elf/lib/libc.a(lib_a-mlock.o)
 .debug_frame   0x00001508      0x220 /usr/local/tkdn-20110720/rx-elf/rx-elf/lib/libc.a(lib_a-mprec.o)
 .debug_frame   0x00001728       0x30 /usr/local/tkdn-20110720/rx-elf/rx-elf/lib/libc.a(lib_a-sbrkr.o)
 .debug_frame   0x00001758       0x24 /usr/local/tkdn-20110720/rx-elf/rx-elf/lib/libc.a(lib_a-sf_fpclassify.o)
 .debug_frame   0x0000177c       0x64 /usr/local/tkdn-20110720/rx-elf/rx-elf/lib/libc.a(lib_a-svfiprintf.o)
 .debug_frame   0x000017e0       0x2c /usr/local/tkdn-20110720/rx-elf/rx-elf/lib/libc.a(lib_a-callocr.o)
 .debug_frame   0x0000180c       0x54 /usr/local/tkdn-20110720/rx-elf/rx-elf/lib/libc.a(lib_a-freer.o)
 .debug_frame   0x00001860       0x3c /usr/local/tkdn-20110720/rx-elf/rx-elf/lib/libc.a(lib_a-reallocr.o)
 .debug_frame   0x0000189c       0x70 /usr/local/tkdn-20110720/rx-elf/rx-elf/lib/libc.a(lib_a-reent.o)
 .debug_frame   0x0000190c       0x2c /usr/local/tkdn-20110720/rx-elf/rx-elf/lib/libsim.a(sbrk.o)
 .debug_frame   0x00001938       0x38 /usr/local/tkdn-20110720/rx-elf/lib/gcc/rx-elf/4.6.1/libgcc.a(_udivdi3.o)
 .debug_frame   0x00001970       0x38 /usr/local/tkdn-20110720/rx-elf/lib/gcc/rx-elf/4.6.1/libgcc.a(_umoddi3.o)

.debug_str      0x00000000     0x24ae
 *(.debug_str)
 .debug_str     0x00000000      0x2cd main.o
                                0x339 (size before relaxing)
 .debug_str     0x000002cd      0x27d fatfs-test.o
                                0x373 (size before relaxing)
 .debug_str     0x0000054a      0xa7e ../common/intvect.o
                                0xab6 (size before relaxing)
 .debug_str     0x00000fc8       0xf2 ip.o
                                0x1d7 (size before relaxing)
 .debug_str     0x000010ba      0x12e tkdnip.o
                                0x2b4 (size before relaxing)
 .debug_str     0x000011e8      0x122 arp.o
                                0x24c (size before relaxing)
 .debug_str     0x0000130a       0x59 icmp.o
                                0x1dd (size before relaxing)
 .debug_str     0x00001363       0x8f /usr/local/tkdn-20110720/rx-elf/rx-elf/lib/libc.a(lib_a-isprint.o)
                                 0xa0 (size before relaxing)
 .debug_str     0x000013f2      0x3ed /usr/local/tkdn-20110720/rx-elf/rx-elf/lib/libc.a(lib_a-rand.o)
                                0x4d0 (size before relaxing)
 .debug_str     0x000017df       0xa5 /usr/local/tkdn-20110720/rx-elf/rx-elf/lib/libc.a(lib_a-sprintf.o)
                                0x502 (size before relaxing)
 .debug_str     0x00001884      0x19a /usr/local/tkdn-20110720/rx-elf/rx-elf/lib/libc.a(lib_a-svfprintf.o)
                                0x6a0 (size before relaxing)
 .debug_str     0x00001a1e       0x32 /usr/local/tkdn-20110720/rx-elf/rx-elf/lib/libc.a(lib_a-ctype_.o)
                                 0xa9 (size before relaxing)
 .debug_str     0x00001a50       0xf2 /usr/local/tkdn-20110720/rx-elf/rx-elf/lib/libc.a(lib_a-dtoa.o)
                                0x5c6 (size before relaxing)
 .debug_str     0x00001b42       0x8f /usr/local/tkdn-20110720/rx-elf/rx-elf/lib/libc.a(lib_a-impure.o)
                                0x4df (size before relaxing)
 .debug_str     0x00001bd1      0x239 /usr/local/tkdn-20110720/rx-elf/rx-elf/lib/libc.a(lib_a-locale.o)
                                0x721 (size before relaxing)
 .debug_str     0x00001e0a      0x1f8 /usr/local/tkdn-20110720/rx-elf/rx-elf/lib/libc.a(lib_a-mallocr.o)
                                0x6b6 (size before relaxing)
 .debug_str     0x00002002       0x5d /usr/local/tkdn-20110720/rx-elf/rx-elf/lib/libc.a(lib_a-mlock.o)
                                0x4e8 (size before relaxing)
 .debug_str     0x0000205f       0xe8 /usr/local/tkdn-20110720/rx-elf/rx-elf/lib/libc.a(lib_a-mprec.o)
                                0x5d3 (size before relaxing)
 .debug_str     0x00002147       0x40 /usr/local/tkdn-20110720/rx-elf/rx-elf/lib/libc.a(lib_a-sbrkr.o)
                                0x4d5 (size before relaxing)
 .debug_str     0x00002187       0x87 /usr/local/tkdn-20110720/rx-elf/rx-elf/lib/libc.a(lib_a-sf_fpclassify.o)
                                0x140 (size before relaxing)
 .debug_str     0x0000220e       0x29 /usr/local/tkdn-20110720/rx-elf/rx-elf/lib/libc.a(lib_a-svfiprintf.o)
                                0x620 (size before relaxing)
 .debug_str     0x00002237       0x19 /usr/local/tkdn-20110720/rx-elf/rx-elf/lib/libc.a(lib_a-callocr.o)
                                0x507 (size before relaxing)
 .debug_str     0x00002250       0x3c /usr/local/tkdn-20110720/rx-elf/rx-elf/lib/libc.a(lib_a-freer.o)
                                0x608 (size before relaxing)
 .debug_str     0x0000228c       0x59 /usr/local/tkdn-20110720/rx-elf/rx-elf/lib/libc.a(lib_a-reallocr.o)
                                0x588 (size before relaxing)
 .debug_str     0x000022e5       0x63 /usr/local/tkdn-20110720/rx-elf/rx-elf/lib/libc.a(lib_a-reent.o)
                                0x504 (size before relaxing)
 .debug_str     0x00002348       0x6a /usr/local/tkdn-20110720/rx-elf/rx-elf/lib/libsim.a(sbrk.o)
                                 0x7b (size before relaxing)
 .debug_str     0x000023b2       0xf2 /usr/local/tkdn-20110720/rx-elf/lib/gcc/rx-elf/4.6.1/libgcc.a(_udivdi3.o)
                                0x19b (size before relaxing)
 .debug_str     0x000024a4        0xa /usr/local/tkdn-20110720/rx-elf/lib/gcc/rx-elf/4.6.1/libgcc.a(_umoddi3.o)
                                0x19b (size before relaxing)
 .debug_str     0x00000000      0x105 /usr/local/tkdn-20110720/rx-elf/lib/gcc/rx-elf/4.6.1/libgcc.a(_clz.o)

.debug_loc      0x00000000     0xc6d9
 *(.debug_loc)
 .debug_loc     0x00000000      0x261 main.o
 .debug_loc     0x00000261       0xac fatfs-test.o
 .debug_loc     0x0000030d     0x1b28 ../common/intvect.o
 .debug_loc     0x00001e35      0x2bd ip.o
 .debug_loc     0x000020f2      0x325 tkdnip.o
 .debug_loc     0x00002417      0x341 arp.o
 .debug_loc     0x00002758      0x260 icmp.o
 .debug_loc     0x000029b8       0x26 /usr/local/tkdn-20110720/rx-elf/rx-elf/lib/libc.a(lib_a-isprint.o)
 .debug_loc     0x000029de       0x20 /usr/local/tkdn-20110720/rx-elf/rx-elf/lib/libc.a(lib_a-rand.o)
 .debug_loc     0x000029fe       0xb7 /usr/local/tkdn-20110720/rx-elf/rx-elf/lib/libc.a(lib_a-sprintf.o)
 .debug_loc     0x00002ab5     0x2181 /usr/local/tkdn-20110720/rx-elf/rx-elf/lib/libc.a(lib_a-svfprintf.o)
 .debug_loc     0x00004c36     0x2361 /usr/local/tkdn-20110720/rx-elf/rx-elf/lib/libc.a(lib_a-dtoa.o)
 .debug_loc     0x00006f97       0xb3 /usr/local/tkdn-20110720/rx-elf/rx-elf/lib/libc.a(lib_a-locale.o)
 .debug_loc     0x0000704a      0xae2 /usr/local/tkdn-20110720/rx-elf/rx-elf/lib/libc.a(lib_a-mallocr.o)
 .debug_loc     0x00007b2c     0x185f /usr/local/tkdn-20110720/rx-elf/rx-elf/lib/libc.a(lib_a-mprec.o)
 .debug_loc     0x0000938b       0x51 /usr/local/tkdn-20110720/rx-elf/rx-elf/lib/libc.a(lib_a-sbrkr.o)
 .debug_loc     0x000093dc       0x84 /usr/local/tkdn-20110720/rx-elf/rx-elf/lib/libc.a(lib_a-sf_fpclassify.o)
 .debug_loc     0x00009460     0x1385 /usr/local/tkdn-20110720/rx-elf/rx-elf/lib/libc.a(lib_a-svfiprintf.o)
 .debug_loc     0x0000a7e5      0x1d0 /usr/local/tkdn-20110720/rx-elf/rx-elf/lib/libc.a(lib_a-callocr.o)
 .debug_loc     0x0000a9b5      0x115 /usr/local/tkdn-20110720/rx-elf/rx-elf/lib/libc.a(lib_a-freer.o)
 .debug_loc     0x0000aaca       0x2c /usr/local/tkdn-20110720/rx-elf/rx-elf/lib/libc.a(lib_a-reallocr.o)
 .debug_loc     0x0000aaf6      0x13e /usr/local/tkdn-20110720/rx-elf/rx-elf/lib/libc.a(lib_a-reent.o)
 .debug_loc     0x0000ac34       0x55 /usr/local/tkdn-20110720/rx-elf/rx-elf/lib/libsim.a(sbrk.o)
 .debug_loc     0x0000ac89      0xdc1 /usr/local/tkdn-20110720/rx-elf/lib/gcc/rx-elf/4.6.1/libgcc.a(_udivdi3.o)
 .debug_loc     0x0000ba4a      0xc8f /usr/local/tkdn-20110720/rx-elf/lib/gcc/rx-elf/4.6.1/libgcc.a(_umoddi3.o)

.debug_macinfo
 *(.debug_macinfo)

.debug_weaknames
 *(.debug_weaknames)

.debug_funcnames
 *(.debug_funcnames)

.debug_typenames
 *(.debug_typenames)

.debug_varnames
 *(.debug_varnames)

/DISCARD/
 *(.note.GNU-stack)
LOAD ../../lib/libfatfs.a
LOAD /usr/local/tkdn-20110720/rx-elf/rx-elf/lib/libstdc++.a
LOAD /usr/local/tkdn-20110720/rx-elf/rx-elf/lib/libsupc++.a
LOAD /usr/local/tkdn-20110720/rx-elf/rx-elf/lib/libc.a
LOAD /usr/local/tkdn-20110720/rx-elf/rx-elf/lib/libsim.a
LOAD /usr/local/tkdn-20110720/rx-elf/lib/gcc/rx-elf/4.6.1/libgcc.a
LOAD /usr/local/tkdn-20110720/rx-elf/rx-elf/lib/libm.a
LOAD ../../lib/libtkdnhal.a
OUTPUT(ultimtest.elf elf32-rx-le)

.debug_ranges   0x00000000      0xc68
 .debug_ranges  0x00000000       0xb0 main.o
 .debug_ranges  0x000000b0       0x30 fatfs-test.o
 .debug_ranges  0x000000e0       0x78 ip.o
 .debug_ranges  0x00000158      0x108 tkdnip.o
 .debug_ranges  0x00000260       0xa8 arp.o
 .debug_ranges  0x00000308       0x50 icmp.o
 .debug_ranges  0x00000358       0x18 /usr/local/tkdn-20110720/rx-elf/rx-elf/lib/libc.a(lib_a-isprint.o)
 .debug_ranges  0x00000370       0x18 /usr/local/tkdn-20110720/rx-elf/rx-elf/lib/libc.a(lib_a-rand.o)
 .debug_ranges  0x00000388       0x18 /usr/local/tkdn-20110720/rx-elf/rx-elf/lib/libc.a(lib_a-sprintf.o)
 .debug_ranges  0x000003a0      0x110 /usr/local/tkdn-20110720/rx-elf/rx-elf/lib/libc.a(lib_a-svfprintf.o)
 .debug_ranges  0x000004b0       0x18 /usr/local/tkdn-20110720/rx-elf/rx-elf/lib/libc.a(lib_a-dtoa.o)
 .debug_ranges  0x000004c8       0x40 /usr/local/tkdn-20110720/rx-elf/rx-elf/lib/libc.a(lib_a-locale.o)
 .debug_ranges  0x00000508       0x90 /usr/local/tkdn-20110720/rx-elf/rx-elf/lib/libc.a(lib_a-mallocr.o)
 .debug_ranges  0x00000598       0x18 /usr/local/tkdn-20110720/rx-elf/rx-elf/lib/libc.a(lib_a-mlock.o)
 .debug_ranges  0x000005b0       0xe0 /usr/local/tkdn-20110720/rx-elf/rx-elf/lib/libc.a(lib_a-mprec.o)
 .debug_ranges  0x00000690       0x10 /usr/local/tkdn-20110720/rx-elf/rx-elf/lib/libc.a(lib_a-sbrkr.o)
 .debug_ranges  0x000006a0       0x10 /usr/local/tkdn-20110720/rx-elf/rx-elf/lib/libc.a(lib_a-sf_fpclassify.o)
 .debug_ranges  0x000006b0       0x58 /usr/local/tkdn-20110720/rx-elf/rx-elf/lib/libc.a(lib_a-svfiprintf.o)
 .debug_ranges  0x00000708       0x58 /usr/local/tkdn-20110720/rx-elf/rx-elf/lib/libc.a(lib_a-callocr.o)
 .debug_ranges  0x00000760       0x18 /usr/local/tkdn-20110720/rx-elf/rx-elf/lib/libc.a(lib_a-freer.o)
 .debug_ranges  0x00000778      0x168 /usr/local/tkdn-20110720/rx-elf/rx-elf/lib/libc.a(lib_a-reallocr.o)
 .debug_ranges  0x000008e0       0x20 /usr/local/tkdn-20110720/rx-elf/rx-elf/lib/libc.a(lib_a-reent.o)
 .debug_ranges  0x00000900      0x1d8 /usr/local/tkdn-20110720/rx-elf/lib/gcc/rx-elf/4.6.1/libgcc.a(_udivdi3.o)
 .debug_ranges  0x00000ad8      0x190 /usr/local/tkdn-20110720/rx-elf/lib/gcc/rx-elf/4.6.1/libgcc.a(_umoddi3.o)
