
retrograde_v2.elf:     file format elf32-avr

Sections:
Idx Name          Size      VMA       LMA       File off  Algn
  0 .data         00000034  00800100  00004282  00004336  2**0
                  CONTENTS, ALLOC, LOAD, DATA
  1 .text         00004282  00000000  00000000  000000b4  2**1
                  CONTENTS, ALLOC, LOAD, READONLY, CODE
  2 .bss          00000682  00800134  00800134  0000436a  2**0
                  ALLOC
  3 .eeprom       00000014  00810000  00810000  0000436a  2**0
                  CONTENTS, ALLOC, LOAD, DATA
  4 .stab         0000a638  00000000  00000000  00004380  2**2
                  CONTENTS, READONLY, DEBUGGING
  5 .stabstr      000049c4  00000000  00000000  0000e9b8  2**0
                  CONTENTS, READONLY, DEBUGGING

Disassembly of section .text:

00000000 <__vectors>:
       0:	0c 94 b5 01 	jmp	0x36a	; 0x36a <__ctors_end>
       4:	0c 94 d2 01 	jmp	0x3a4	; 0x3a4 <__bad_interrupt>
       8:	0c 94 d2 01 	jmp	0x3a4	; 0x3a4 <__bad_interrupt>
       c:	0c 94 d2 01 	jmp	0x3a4	; 0x3a4 <__bad_interrupt>
      10:	0c 94 d2 01 	jmp	0x3a4	; 0x3a4 <__bad_interrupt>
      14:	0c 94 d2 01 	jmp	0x3a4	; 0x3a4 <__bad_interrupt>
      18:	0c 94 d2 01 	jmp	0x3a4	; 0x3a4 <__bad_interrupt>
      1c:	0c 94 d2 01 	jmp	0x3a4	; 0x3a4 <__bad_interrupt>
      20:	0c 94 d2 01 	jmp	0x3a4	; 0x3a4 <__bad_interrupt>
      24:	0c 94 d2 01 	jmp	0x3a4	; 0x3a4 <__bad_interrupt>
      28:	0c 94 d2 01 	jmp	0x3a4	; 0x3a4 <__bad_interrupt>
      2c:	0c 94 d2 01 	jmp	0x3a4	; 0x3a4 <__bad_interrupt>
      30:	0c 94 d2 01 	jmp	0x3a4	; 0x3a4 <__bad_interrupt>
      34:	0c 94 d2 01 	jmp	0x3a4	; 0x3a4 <__bad_interrupt>
      38:	0c 94 71 1b 	jmp	0x36e2	; 0x36e2 <__vector_14>
      3c:	0c 94 d2 01 	jmp	0x3a4	; 0x3a4 <__bad_interrupt>
      40:	0c 94 d2 01 	jmp	0x3a4	; 0x3a4 <__bad_interrupt>
      44:	0c 94 d2 01 	jmp	0x3a4	; 0x3a4 <__bad_interrupt>
      48:	0c 94 64 09 	jmp	0x12c8	; 0x12c8 <__vector_18>
      4c:	0c 94 ac 09 	jmp	0x1358	; 0x1358 <__vector_19>
      50:	0c 94 d2 01 	jmp	0x3a4	; 0x3a4 <__bad_interrupt>
      54:	0c 94 d2 01 	jmp	0x3a4	; 0x3a4 <__bad_interrupt>
      58:	0c 94 d2 01 	jmp	0x3a4	; 0x3a4 <__bad_interrupt>
      5c:	0c 94 d2 01 	jmp	0x3a4	; 0x3a4 <__bad_interrupt>
      60:	0c 94 fd 0b 	jmp	0x17fa	; 0x17fa <__vector_24>
      64:	0c 94 d2 01 	jmp	0x3a4	; 0x3a4 <__bad_interrupt>
      68:	9c 0c       	add	r9, r12
      6a:	11 0c       	add	r1, r1
      6c:	11 0c       	add	r1, r1
      6e:	11 0c       	add	r1, r1
      70:	11 0c       	add	r1, r1
      72:	11 0c       	add	r1, r1
      74:	11 0c       	add	r1, r1
      76:	11 0c       	add	r1, r1
      78:	9c 0c       	add	r9, r12
      7a:	11 0c       	add	r1, r1
      7c:	11 0c       	add	r1, r1
      7e:	11 0c       	add	r1, r1
      80:	11 0c       	add	r1, r1
      82:	11 0c       	add	r1, r1
      84:	11 0c       	add	r1, r1
      86:	11 0c       	add	r1, r1
      88:	b1 0c       	add	r11, r1
      8a:	11 0c       	add	r1, r1
      8c:	11 0c       	add	r1, r1
      8e:	11 0c       	add	r1, r1
      90:	11 0c       	add	r1, r1
      92:	11 0c       	add	r1, r1
      94:	11 0c       	add	r1, r1
      96:	11 0c       	add	r1, r1
      98:	b4 0c       	add	r11, r4
      9a:	11 0c       	add	r1, r1
      9c:	11 0c       	add	r1, r1
      9e:	11 0c       	add	r1, r1
      a0:	11 0c       	add	r1, r1
      a2:	11 0c       	add	r1, r1
      a4:	11 0c       	add	r1, r1
      a6:	11 0c       	add	r1, r1
      a8:	b1 0c       	add	r11, r1
      aa:	11 0c       	add	r1, r1
      ac:	11 0c       	add	r1, r1
      ae:	11 0c       	add	r1, r1
      b0:	11 0c       	add	r1, r1
      b2:	11 0c       	add	r1, r1
      b4:	11 0c       	add	r1, r1
      b6:	11 0c       	add	r1, r1
      b8:	b4 0c       	add	r11, r4
      ba:	11 0c       	add	r1, r1
      bc:	11 0c       	add	r1, r1
      be:	11 0c       	add	r1, r1
      c0:	11 0c       	add	r1, r1
      c2:	11 0c       	add	r1, r1
      c4:	11 0c       	add	r1, r1
      c6:	11 0c       	add	r1, r1
      c8:	bc 0c       	add	r11, r12
      ca:	11 0c       	add	r1, r1
      cc:	11 0c       	add	r1, r1
      ce:	11 0c       	add	r1, r1
      d0:	11 0c       	add	r1, r1
      d2:	11 0c       	add	r1, r1
      d4:	11 0c       	add	r1, r1
      d6:	11 0c       	add	r1, r1
      d8:	85 0c       	add	r8, r5
      da:	11 0c       	add	r1, r1
      dc:	11 0c       	add	r1, r1
      de:	11 0c       	add	r1, r1
      e0:	11 0c       	add	r1, r1
      e2:	11 0c       	add	r1, r1
      e4:	11 0c       	add	r1, r1
      e6:	11 0c       	add	r1, r1
      e8:	11 0c       	add	r1, r1
      ea:	11 0c       	add	r1, r1
      ec:	11 0c       	add	r1, r1
      ee:	11 0c       	add	r1, r1
      f0:	11 0c       	add	r1, r1
      f2:	11 0c       	add	r1, r1
      f4:	11 0c       	add	r1, r1
      f6:	11 0c       	add	r1, r1
      f8:	38 0c       	add	r3, r8
      fa:	11 0c       	add	r1, r1
      fc:	11 0c       	add	r1, r1
      fe:	11 0c       	add	r1, r1
     100:	11 0c       	add	r1, r1
     102:	11 0c       	add	r1, r1
     104:	11 0c       	add	r1, r1
     106:	11 0c       	add	r1, r1
     108:	50 0c       	add	r5, r0
     10a:	11 0c       	add	r1, r1
     10c:	11 0c       	add	r1, r1
     10e:	11 0c       	add	r1, r1
     110:	11 0c       	add	r1, r1
     112:	11 0c       	add	r1, r1
     114:	11 0c       	add	r1, r1
     116:	11 0c       	add	r1, r1
     118:	c9 0c       	add	r12, r9
     11a:	11 0c       	add	r1, r1
     11c:	11 0c       	add	r1, r1
     11e:	11 0c       	add	r1, r1
     120:	11 0c       	add	r1, r1
     122:	11 0c       	add	r1, r1
     124:	11 0c       	add	r1, r1
     126:	11 0c       	add	r1, r1
     128:	c9 0c       	add	r12, r9
     12a:	11 0c       	add	r1, r1
     12c:	11 0c       	add	r1, r1
     12e:	11 0c       	add	r1, r1
     130:	11 0c       	add	r1, r1
     132:	11 0c       	add	r1, r1
     134:	11 0c       	add	r1, r1
     136:	11 0c       	add	r1, r1
     138:	61 0c       	add	r6, r1
     13a:	11 0c       	add	r1, r1
     13c:	11 0c       	add	r1, r1
     13e:	11 0c       	add	r1, r1
     140:	11 0c       	add	r1, r1
     142:	11 0c       	add	r1, r1
     144:	11 0c       	add	r1, r1
     146:	11 0c       	add	r1, r1
     148:	61 0c       	add	r6, r1
     14a:	11 0c       	add	r1, r1
     14c:	11 0c       	add	r1, r1
     14e:	11 0c       	add	r1, r1
     150:	11 0c       	add	r1, r1
     152:	11 0c       	add	r1, r1
     154:	11 0c       	add	r1, r1
     156:	11 0c       	add	r1, r1
     158:	73 0c       	add	r7, r3
     15a:	11 0c       	add	r1, r1
     15c:	11 0c       	add	r1, r1
     15e:	11 0c       	add	r1, r1
     160:	11 0c       	add	r1, r1
     162:	11 0c       	add	r1, r1
     164:	11 0c       	add	r1, r1
     166:	11 0c       	add	r1, r1
     168:	4c 0c       	add	r4, r12
     16a:	11 0c       	add	r1, r1
     16c:	11 0c       	add	r1, r1
     16e:	11 0c       	add	r1, r1
     170:	11 0c       	add	r1, r1
     172:	11 0c       	add	r1, r1
     174:	11 0c       	add	r1, r1
     176:	11 0c       	add	r1, r1
     178:	73 0c       	add	r7, r3
     17a:	11 0c       	add	r1, r1
     17c:	11 0c       	add	r1, r1
     17e:	11 0c       	add	r1, r1
     180:	11 0c       	add	r1, r1
     182:	11 0c       	add	r1, r1
     184:	11 0c       	add	r1, r1
     186:	11 0c       	add	r1, r1
     188:	4c 0c       	add	r4, r12
     18a:	11 0c       	add	r1, r1
     18c:	11 0c       	add	r1, r1
     18e:	11 0c       	add	r1, r1
     190:	11 0c       	add	r1, r1
     192:	11 0c       	add	r1, r1
     194:	11 0c       	add	r1, r1
     196:	11 0c       	add	r1, r1
     198:	6d 0c       	add	r6, r13
     19a:	11 0c       	add	r1, r1
     19c:	11 0c       	add	r1, r1
     19e:	11 0c       	add	r1, r1
     1a0:	11 0c       	add	r1, r1
     1a2:	11 0c       	add	r1, r1
     1a4:	11 0c       	add	r1, r1
     1a6:	11 0c       	add	r1, r1
     1a8:	2a 0c       	add	r2, r10
     1aa:	11 0c       	add	r1, r1
     1ac:	11 0c       	add	r1, r1
     1ae:	11 0c       	add	r1, r1
     1b0:	11 0c       	add	r1, r1
     1b2:	11 0c       	add	r1, r1
     1b4:	11 0c       	add	r1, r1
     1b6:	11 0c       	add	r1, r1
     1b8:	2a 0c       	add	r2, r10
     1ba:	11 0c       	add	r1, r1
     1bc:	11 0c       	add	r1, r1
     1be:	11 0c       	add	r1, r1
     1c0:	11 0c       	add	r1, r1
     1c2:	11 0c       	add	r1, r1
     1c4:	11 0c       	add	r1, r1
     1c6:	11 0c       	add	r1, r1
     1c8:	88 0c       	add	r8, r8
     1ca:	11 0c       	add	r1, r1
     1cc:	11 0c       	add	r1, r1
     1ce:	11 0c       	add	r1, r1
     1d0:	11 0c       	add	r1, r1
     1d2:	11 0c       	add	r1, r1
     1d4:	11 0c       	add	r1, r1
     1d6:	11 0c       	add	r1, r1
     1d8:	8e 0c       	add	r8, r14
     1da:	11 0c       	add	r1, r1
     1dc:	11 0c       	add	r1, r1
     1de:	11 0c       	add	r1, r1
     1e0:	11 0c       	add	r1, r1
     1e2:	11 0c       	add	r1, r1
     1e4:	11 0c       	add	r1, r1
     1e6:	11 0c       	add	r1, r1
     1e8:	34 0c       	add	r3, r4

000001ea <__c.2297>:
     1ea:	44 45 41 44 20 42 45 45 46 21 00                    DEAD BEEF!.

000001f5 <__c.2295>:
     1f5:	0d 0a 0a 0a 47 6f 6f 64 62 79 65 2e 2e 2e 20 6e     ....Goodbye... n
     205:	6f 20 73 70 61 63 65 20 66 6f 72 20 69 64 6c 65     o space for idle
     215:	20 74 61 73 6b 21 0d 0a 00                           task!...

0000021e <__c.2293>:
     21e:	0d 0a 0a 48 65 6c 6c 6f 20 57 6f 72 6c 64 21 0d     ...Hello World!.
     22e:	0a 00                                               ..

00000230 <__c.2314>:
     230:	43 75 72 72 65 6e 74 3a 20 25 75 2f 25 75 2f 25     Current: %u/%u/%
     240:	75 20 25 32 75 3a 25 30 32 75 3a 25 30 32 75 0d     u %2u:%02u:%02u.
     250:	0a 00                                               ..

00000252 <__c.2312>:
     252:	53 65 74 74 69 6e 67 20 73 75 63 63 65 73 73 66     Setting successf
     262:	75 6c 0d 0a 00                                      ul...

00000267 <__c.2310>:
     267:	53 65 74 3a 20 25 75 2f 25 75 2f 25 75 20 25 32     Set: %u/%u/%u %2
     277:	75 3a 25 30 32 75 3a 25 30 32 75 0d 0a 00           u:%02u:%02u...

00000285 <__c.2306>:
     285:	70 76 50 6f 72 74 4d 61 6c 6c 6f 63 20 66 6f 72     pvPortMalloc for
     295:	20 2a 42 75 66 66 20 66 61 69 6c 2e 2e 21 0d 0a      *Buff fail..!..
	...

000002a6 <__c.2304>:
     2a6:	70 76 50 6f 72 74 4d 61 6c 6c 6f 63 20 66 6f 72     pvPortMalloc for
     2b6:	20 2a 4c 69 6e 65 42 75 66 66 65 72 20 66 61 69      *LineBuffer fai
     2c6:	6c 2e 2e 21 0d 0a 00                                l..!...

000002cd <__c.2363>:
     2cd:	25 32 75 3a 25 30 32 75 20 25 32 75 2f 25 75 00     %2u:%02u %2u/%u.

000002dd <__c.2361>:
     2dd:	4d 69 6e 25 33 64 43 00                             Min%3dC.

000002e5 <__c.2359>:
     2e5:	25 32 75 3a 25 30 32 75 20 25 32 75 2f 25 75 00     %2u:%02u %2u/%u.

000002f5 <__c.2357>:
     2f5:	4d 61 78 25 33 64 43 00                             Max%3dC.

000002fd <__c.2355>:
     2fd:	25 32 75 3a 25 30 32 75 3a 25 30 32 75 00           %2u:%02u:%02u.

0000030b <__c.2353>:
     30b:	25 33 64 43 00                                      %3dC.

00000310 <__c.2351>:
     310:	25 75 2f 25 75 2f 25 75 00                          %u/%u/%u.

00000319 <__c.2349>:
     319:	41 6e 79 20 44 61 79 20 20 00                       Any Day  .

00000323 <__c.2346>:
     323:	53 61 74 75 72 64 61 79 20 00                       Saturday .

0000032d <__c.2343>:
     32d:	46 72 69 64 61 79 20 20 20 00                       Friday   .

00000337 <__c.2340>:
     337:	54 68 75 72 73 64 61 79 20 00                       Thursday .

00000341 <__c.2337>:
     341:	57 65 64 6e 65 73 64 61 79 00                       Wednesday.

0000034b <__c.2334>:
     34b:	54 75 65 73 64 61 79 20 20 00                       Tuesday  .

00000355 <__c.2331>:
     355:	4d 6f 6e 64 61 79 20 20 20 00                       Monday   .

0000035f <__c.2327>:
     35f:	53 75 6e 64 61 79 20 20 20 00 00                    Sunday   ..

0000036a <__ctors_end>:
     36a:	11 24       	eor	r1, r1
     36c:	1f be       	out	0x3f, r1	; 63
     36e:	cf ef       	ldi	r28, 0xFF	; 255
     370:	d8 e0       	ldi	r29, 0x08	; 8
     372:	de bf       	out	0x3e, r29	; 62
     374:	cd bf       	out	0x3d, r28	; 61

00000376 <__do_copy_data>:
     376:	11 e0       	ldi	r17, 0x01	; 1
     378:	a0 e0       	ldi	r26, 0x00	; 0
     37a:	b1 e0       	ldi	r27, 0x01	; 1
     37c:	e2 e8       	ldi	r30, 0x82	; 130
     37e:	f2 e4       	ldi	r31, 0x42	; 66
     380:	02 c0       	rjmp	.+4      	; 0x386 <__do_copy_data+0x10>
     382:	05 90       	lpm	r0, Z+
     384:	0d 92       	st	X+, r0
     386:	a4 33       	cpi	r26, 0x34	; 52
     388:	b1 07       	cpc	r27, r17
     38a:	d9 f7       	brne	.-10     	; 0x382 <__do_copy_data+0xc>

0000038c <__do_clear_bss>:
     38c:	17 e0       	ldi	r17, 0x07	; 7
     38e:	a4 e3       	ldi	r26, 0x34	; 52
     390:	b1 e0       	ldi	r27, 0x01	; 1
     392:	01 c0       	rjmp	.+2      	; 0x396 <.do_clear_bss_start>

00000394 <.do_clear_bss_loop>:
     394:	1d 92       	st	X+, r1

00000396 <.do_clear_bss_start>:
     396:	a6 3b       	cpi	r26, 0xB6	; 182
     398:	b1 07       	cpc	r27, r17
     39a:	e1 f7       	brne	.-8      	; 0x394 <.do_clear_bss_loop>
     39c:	0e 94 44 06 	call	0xc88	; 0xc88 <main>
     3a0:	0c 94 3f 21 	jmp	0x427e	; 0x427e <_exit>

000003a4 <__bad_interrupt>:
     3a4:	0c 94 00 00 	jmp	0	; 0x0 <__vectors>

000003a8 <TaskMonitor>:
     3a8:	4f 92       	push	r4
     3aa:	5f 92       	push	r5
     3ac:	6f 92       	push	r6
     3ae:	7f 92       	push	r7
     3b0:	8f 92       	push	r8
     3b2:	9f 92       	push	r9
     3b4:	bf 92       	push	r11
     3b6:	cf 92       	push	r12
     3b8:	df 92       	push	r13
     3ba:	ef 92       	push	r14
     3bc:	ff 92       	push	r15
     3be:	0f 93       	push	r16
     3c0:	1f 93       	push	r17
     3c2:	df 93       	push	r29
     3c4:	cf 93       	push	r28
     3c6:	cd b7       	in	r28, 0x3d	; 61
     3c8:	de b7       	in	r29, 0x3e	; 62
     3ca:	27 97       	sbiw	r28, 0x07	; 7
     3cc:	0f b6       	in	r0, 0x3f	; 63
     3ce:	f8 94       	cli
     3d0:	de bf       	out	0x3e, r29	; 62
     3d2:	0f be       	out	0x3f, r0	; 63
     3d4:	cd bf       	out	0x3d, r28	; 61
     3d6:	80 91 8c 07 	lds	r24, 0x078C
     3da:	90 91 8d 07 	lds	r25, 0x078D
     3de:	00 97       	sbiw	r24, 0x00	; 0
     3e0:	09 f4       	brne	.+2      	; 0x3e4 <TaskMonitor+0x3c>
     3e2:	7e c1       	rjmp	.+764    	; 0x6e0 <TaskMonitor+0x338>
     3e4:	80 91 9c 07 	lds	r24, 0x079C
     3e8:	90 91 9d 07 	lds	r25, 0x079D
     3ec:	00 97       	sbiw	r24, 0x00	; 0
     3ee:	09 f4       	brne	.+2      	; 0x3f2 <TaskMonitor+0x4a>
     3f0:	67 c1       	rjmp	.+718    	; 0x6c0 <TaskMonitor+0x318>
     3f2:	8e 01       	movw	r16, r28
     3f4:	0f 5f       	subi	r16, 0xFF	; 255
     3f6:	1f 4f       	sbci	r17, 0xFF	; 255
     3f8:	32 e0       	ldi	r19, 0x02	; 2
     3fa:	c3 2e       	mov	r12, r19
     3fc:	d1 2c       	mov	r13, r1
     3fe:	cc 0e       	add	r12, r28
     400:	dd 1e       	adc	r13, r29
     402:	24 e0       	ldi	r18, 0x04	; 4
     404:	82 2e       	mov	r8, r18
     406:	91 2c       	mov	r9, r1
     408:	8c 0e       	add	r8, r28
     40a:	9d 1e       	adc	r9, r29
     40c:	97 e6       	ldi	r25, 0x67	; 103
     40e:	69 2e       	mov	r6, r25
     410:	92 e0       	ldi	r25, 0x02	; 2
     412:	79 2e       	mov	r7, r25
     414:	80 e3       	ldi	r24, 0x30	; 48
     416:	48 2e       	mov	r4, r24
     418:	82 e0       	ldi	r24, 0x02	; 2
     41a:	58 2e       	mov	r5, r24
     41c:	80 91 8e 07 	lds	r24, 0x078E
     420:	90 91 8f 07 	lds	r25, 0x078F
     424:	6e e3       	ldi	r22, 0x3E	; 62
     426:	42 e3       	ldi	r20, 0x32	; 50
     428:	50 e0       	ldi	r21, 0x00	; 0
     42a:	0e 94 0a 08 	call	0x1014	; 0x1014 <xSerialPutChar>
     42e:	e0 90 8c 07 	lds	r14, 0x078C
     432:	f0 90 8d 07 	lds	r15, 0x078D
     436:	fb 82       	std	Y+3, r15	; 0x03
     438:	ea 82       	std	Y+2, r14	; 0x02
     43a:	bb 24       	eor	r11, r11
     43c:	80 91 8e 07 	lds	r24, 0x078E
     440:	90 91 8f 07 	lds	r25, 0x078F
     444:	b8 01       	movw	r22, r16
     446:	4f ef       	ldi	r20, 0xFF	; 255
     448:	5f ef       	ldi	r21, 0xFF	; 255
     44a:	0e 94 fd 07 	call	0xffa	; 0xffa <xSerialGetChar>
     44e:	29 81       	ldd	r18, Y+1	; 0x01
     450:	2d 30       	cpi	r18, 0x0D	; 13
     452:	29 f1       	breq	.+74     	; 0x49e <TaskMonitor+0xf6>
     454:	28 30       	cpi	r18, 0x08	; 8
     456:	b1 f0       	breq	.+44     	; 0x484 <TaskMonitor+0xdc>
     458:	20 32       	cpi	r18, 0x20	; 32
     45a:	80 f3       	brcs	.-32     	; 0x43c <TaskMonitor+0x94>
     45c:	8b 2d       	mov	r24, r11
     45e:	90 e0       	ldi	r25, 0x00	; 0
     460:	8f 34       	cpi	r24, 0x4F	; 79
     462:	91 05       	cpc	r25, r1
     464:	5c f7       	brge	.-42     	; 0x43c <TaskMonitor+0x94>
     466:	8e 0d       	add	r24, r14
     468:	9f 1d       	adc	r25, r15
     46a:	dc 01       	movw	r26, r24
     46c:	2c 93       	st	X, r18
     46e:	b3 94       	inc	r11
     470:	80 91 8e 07 	lds	r24, 0x078E
     474:	90 91 8f 07 	lds	r25, 0x078F
     478:	69 81       	ldd	r22, Y+1	; 0x01
     47a:	42 e3       	ldi	r20, 0x32	; 50
     47c:	50 e0       	ldi	r21, 0x00	; 0
     47e:	0e 94 0a 08 	call	0x1014	; 0x1014 <xSerialPutChar>
     482:	dc cf       	rjmp	.-72     	; 0x43c <TaskMonitor+0x94>
     484:	bb 20       	and	r11, r11
     486:	d1 f2       	breq	.-76     	; 0x43c <TaskMonitor+0x94>
     488:	ba 94       	dec	r11
     48a:	80 91 8e 07 	lds	r24, 0x078E
     48e:	90 91 8f 07 	lds	r25, 0x078F
     492:	68 e0       	ldi	r22, 0x08	; 8
     494:	42 e3       	ldi	r20, 0x32	; 50
     496:	50 e0       	ldi	r21, 0x00	; 0
     498:	0e 94 0a 08 	call	0x1014	; 0x1014 <xSerialPutChar>
     49c:	cf cf       	rjmp	.-98     	; 0x43c <TaskMonitor+0x94>
     49e:	f7 01       	movw	r30, r14
     4a0:	eb 0d       	add	r30, r11
     4a2:	f1 1d       	adc	r31, r1
     4a4:	10 82       	st	Z, r1
     4a6:	80 e0       	ldi	r24, 0x00	; 0
     4a8:	91 e0       	ldi	r25, 0x01	; 1
     4aa:	0e 94 59 07 	call	0xeb2	; 0xeb2 <xSerialPrint>
     4ae:	aa 81       	ldd	r26, Y+2	; 0x02
     4b0:	bb 81       	ldd	r27, Y+3	; 0x03
     4b2:	fd 01       	movw	r30, r26
     4b4:	81 91       	ld	r24, Z+
     4b6:	fb 83       	std	Y+3, r31	; 0x03
     4b8:	ea 83       	std	Y+2, r30	; 0x02
     4ba:	82 37       	cpi	r24, 0x72	; 114
     4bc:	09 f4       	brne	.+2      	; 0x4c0 <TaskMonitor+0x118>
     4be:	95 c0       	rjmp	.+298    	; 0x5ea <TaskMonitor+0x242>
     4c0:	84 37       	cpi	r24, 0x74	; 116
     4c2:	09 f0       	breq	.+2      	; 0x4c6 <TaskMonitor+0x11e>
     4c4:	ab cf       	rjmp	.-170    	; 0x41c <TaskMonitor+0x74>
     4c6:	c6 01       	movw	r24, r12
     4c8:	b4 01       	movw	r22, r8
     4ca:	0e 94 a7 06 	call	0xd4e	; 0xd4e <xatoi>
     4ce:	88 23       	and	r24, r24
     4d0:	09 f4       	brne	.+2      	; 0x4d4 <TaskMonitor+0x12c>
     4d2:	b7 c0       	rjmp	.+366    	; 0x642 <TaskMonitor+0x29a>
     4d4:	e0 91 9c 07 	lds	r30, 0x079C
     4d8:	f0 91 9d 07 	lds	r31, 0x079D
     4dc:	8c 81       	ldd	r24, Y+4	; 0x04
     4de:	80 87       	std	Z+8, r24	; 0x08
     4e0:	c6 01       	movw	r24, r12
     4e2:	b4 01       	movw	r22, r8
     4e4:	0e 94 a7 06 	call	0xd4e	; 0xd4e <xatoi>
     4e8:	e0 91 9c 07 	lds	r30, 0x079C
     4ec:	f0 91 9d 07 	lds	r31, 0x079D
     4f0:	8c 81       	ldd	r24, Y+4	; 0x04
     4f2:	87 83       	std	Z+7, r24	; 0x07
     4f4:	c6 01       	movw	r24, r12
     4f6:	b4 01       	movw	r22, r8
     4f8:	0e 94 a7 06 	call	0xd4e	; 0xd4e <xatoi>
     4fc:	e0 91 9c 07 	lds	r30, 0x079C
     500:	f0 91 9d 07 	lds	r31, 0x079D
     504:	8c 81       	ldd	r24, Y+4	; 0x04
     506:	86 83       	std	Z+6, r24	; 0x06
     508:	c6 01       	movw	r24, r12
     50a:	b4 01       	movw	r22, r8
     50c:	0e 94 a7 06 	call	0xd4e	; 0xd4e <xatoi>
     510:	e0 91 9c 07 	lds	r30, 0x079C
     514:	f0 91 9d 07 	lds	r31, 0x079D
     518:	8c 81       	ldd	r24, Y+4	; 0x04
     51a:	85 83       	std	Z+5, r24	; 0x05
     51c:	c6 01       	movw	r24, r12
     51e:	b4 01       	movw	r22, r8
     520:	0e 94 a7 06 	call	0xd4e	; 0xd4e <xatoi>
     524:	e0 91 9c 07 	lds	r30, 0x079C
     528:	f0 91 9d 07 	lds	r31, 0x079D
     52c:	8c 81       	ldd	r24, Y+4	; 0x04
     52e:	84 83       	std	Z+4, r24	; 0x04
     530:	c6 01       	movw	r24, r12
     532:	b4 01       	movw	r22, r8
     534:	0e 94 a7 06 	call	0xd4e	; 0xd4e <xatoi>
     538:	e0 91 9c 07 	lds	r30, 0x079C
     53c:	f0 91 9d 07 	lds	r31, 0x079D
     540:	8c 81       	ldd	r24, Y+4	; 0x04
     542:	83 83       	std	Z+3, r24	; 0x03
     544:	c6 01       	movw	r24, r12
     546:	b4 01       	movw	r22, r8
     548:	0e 94 a7 06 	call	0xd4e	; 0xd4e <xatoi>
     54c:	88 23       	and	r24, r24
     54e:	09 f4       	brne	.+2      	; 0x552 <TaskMonitor+0x1aa>
     550:	65 cf       	rjmp	.-310    	; 0x41c <TaskMonitor+0x74>
     552:	40 91 9c 07 	lds	r20, 0x079C
     556:	50 91 9d 07 	lds	r21, 0x079D
     55a:	8c 81       	ldd	r24, Y+4	; 0x04
     55c:	fa 01       	movw	r30, r20
     55e:	82 83       	std	Z+2, r24	; 0x02
     560:	2d b7       	in	r18, 0x3d	; 61
     562:	3e b7       	in	r19, 0x3e	; 62
     564:	2e 50       	subi	r18, 0x0E	; 14
     566:	30 40       	sbci	r19, 0x00	; 0
     568:	0f b6       	in	r0, 0x3f	; 63
     56a:	f8 94       	cli
     56c:	3e bf       	out	0x3e, r19	; 62
     56e:	0f be       	out	0x3f, r0	; 63
     570:	2d bf       	out	0x3d, r18	; 61
     572:	ed b7       	in	r30, 0x3d	; 61
     574:	fe b7       	in	r31, 0x3e	; 62
     576:	31 96       	adiw	r30, 0x01	; 1
     578:	ad b7       	in	r26, 0x3d	; 61
     57a:	be b7       	in	r27, 0x3e	; 62
     57c:	12 96       	adiw	r26, 0x02	; 2
     57e:	7c 92       	st	X, r7
     580:	6e 92       	st	-X, r6
     582:	11 97       	sbiw	r26, 0x01	; 1
     584:	da 01       	movw	r26, r20
     586:	18 96       	adiw	r26, 0x08	; 8
     588:	9c 91       	ld	r25, X
     58a:	18 97       	sbiw	r26, 0x08	; 8
     58c:	92 83       	std	Z+2, r25	; 0x02
     58e:	13 82       	std	Z+3, r1	; 0x03
     590:	17 96       	adiw	r26, 0x07	; 7
     592:	9c 91       	ld	r25, X
     594:	17 97       	sbiw	r26, 0x07	; 7
     596:	94 83       	std	Z+4, r25	; 0x04
     598:	15 82       	std	Z+5, r1	; 0x05
     59a:	16 96       	adiw	r26, 0x06	; 6
     59c:	9c 91       	ld	r25, X
     59e:	16 97       	sbiw	r26, 0x06	; 6
     5a0:	96 83       	std	Z+6, r25	; 0x06
     5a2:	17 82       	std	Z+7, r1	; 0x07
     5a4:	14 96       	adiw	r26, 0x04	; 4
     5a6:	9c 91       	ld	r25, X
     5a8:	14 97       	sbiw	r26, 0x04	; 4
     5aa:	90 87       	std	Z+8, r25	; 0x08
     5ac:	11 86       	std	Z+9, r1	; 0x09
     5ae:	13 96       	adiw	r26, 0x03	; 3
     5b0:	9c 91       	ld	r25, X
     5b2:	92 87       	std	Z+10, r25	; 0x0a
     5b4:	13 86       	std	Z+11, r1	; 0x0b
     5b6:	84 87       	std	Z+12, r24	; 0x0c
     5b8:	15 86       	std	Z+13, r1	; 0x0d
     5ba:	0e 94 92 07 	call	0xf24	; 0xf24 <xSerialPrintf_P>
     5be:	ed b7       	in	r30, 0x3d	; 61
     5c0:	fe b7       	in	r31, 0x3e	; 62
     5c2:	3e 96       	adiw	r30, 0x0e	; 14
     5c4:	0f b6       	in	r0, 0x3f	; 63
     5c6:	f8 94       	cli
     5c8:	fe bf       	out	0x3e, r31	; 62
     5ca:	0f be       	out	0x3f, r0	; 63
     5cc:	ed bf       	out	0x3d, r30	; 61
     5ce:	80 91 9c 07 	lds	r24, 0x079C
     5d2:	90 91 9d 07 	lds	r25, 0x079D
     5d6:	0e 94 97 0a 	call	0x152e	; 0x152e <setDateTimeDS1307>
     5da:	81 30       	cpi	r24, 0x01	; 1
     5dc:	09 f0       	breq	.+2      	; 0x5e0 <TaskMonitor+0x238>
     5de:	1e cf       	rjmp	.-452    	; 0x41c <TaskMonitor+0x74>
     5e0:	82 e5       	ldi	r24, 0x52	; 82
     5e2:	92 e0       	ldi	r25, 0x02	; 2
     5e4:	0e 94 cc 07 	call	0xf98	; 0xf98 <xSerialPrint_P>
     5e8:	19 cf       	rjmp	.-462    	; 0x41c <TaskMonitor+0x74>
     5ea:	11 96       	adiw	r26, 0x01	; 1
     5ec:	8c 91       	ld	r24, X
     5ee:	11 97       	sbiw	r26, 0x01	; 1
     5f0:	31 96       	adiw	r30, 0x01	; 1
     5f2:	fb 83       	std	Y+3, r31	; 0x03
     5f4:	ea 83       	std	Y+2, r30	; 0x02
     5f6:	84 37       	cpi	r24, 0x74	; 116
     5f8:	09 f0       	breq	.+2      	; 0x5fc <TaskMonitor+0x254>
     5fa:	10 cf       	rjmp	.-480    	; 0x41c <TaskMonitor+0x74>
     5fc:	aa ea       	ldi	r26, 0xAA	; 170
     5fe:	b7 e0       	ldi	r27, 0x07	; 7
     600:	e0 e9       	ldi	r30, 0x90	; 144
     602:	f7 e0       	ldi	r31, 0x07	; 7
     604:	8a e0       	ldi	r24, 0x0A	; 10
     606:	01 90       	ld	r0, Z+
     608:	0d 92       	st	X+, r0
     60a:	81 50       	subi	r24, 0x01	; 1
     60c:	e1 f7       	brne	.-8      	; 0x606 <TaskMonitor+0x25e>
     60e:	a0 ea       	ldi	r26, 0xA0	; 160
     610:	b7 e0       	ldi	r27, 0x07	; 7
     612:	e0 e9       	ldi	r30, 0x90	; 144
     614:	f7 e0       	ldi	r31, 0x07	; 7
     616:	8a e0       	ldi	r24, 0x0A	; 10
     618:	01 90       	ld	r0, Z+
     61a:	0d 92       	st	X+, r0
     61c:	81 50       	subi	r24, 0x01	; 1
     61e:	e1 f7       	brne	.-8      	; 0x618 <TaskMonitor+0x270>
     620:	8a ea       	ldi	r24, 0xAA	; 170
     622:	97 e0       	ldi	r25, 0x07	; 7
     624:	60 e0       	ldi	r22, 0x00	; 0
     626:	70 e0       	ldi	r23, 0x00	; 0
     628:	4a e0       	ldi	r20, 0x0A	; 10
     62a:	50 e0       	ldi	r21, 0x00	; 0
     62c:	0e 94 7d 20 	call	0x40fa	; 0x40fa <__eeupd_block_m328p>
     630:	80 ea       	ldi	r24, 0xA0	; 160
     632:	97 e0       	ldi	r25, 0x07	; 7
     634:	6a e0       	ldi	r22, 0x0A	; 10
     636:	70 e0       	ldi	r23, 0x00	; 0
     638:	4a e0       	ldi	r20, 0x0A	; 10
     63a:	50 e0       	ldi	r21, 0x00	; 0
     63c:	0e 94 7d 20 	call	0x40fa	; 0x40fa <__eeupd_block_m328p>
     640:	ed ce       	rjmp	.-550    	; 0x41c <TaskMonitor+0x74>
     642:	80 e9       	ldi	r24, 0x90	; 144
     644:	97 e0       	ldi	r25, 0x07	; 7
     646:	0e 94 ee 09 	call	0x13dc	; 0x13dc <getDateTimeDS1307>
     64a:	81 30       	cpi	r24, 0x01	; 1
     64c:	09 f0       	breq	.+2      	; 0x650 <TaskMonitor+0x2a8>
     64e:	e6 ce       	rjmp	.-564    	; 0x41c <TaskMonitor+0x74>
     650:	2d b7       	in	r18, 0x3d	; 61
     652:	3e b7       	in	r19, 0x3e	; 62
     654:	2e 50       	subi	r18, 0x0E	; 14
     656:	30 40       	sbci	r19, 0x00	; 0
     658:	0f b6       	in	r0, 0x3f	; 63
     65a:	f8 94       	cli
     65c:	3e bf       	out	0x3e, r19	; 62
     65e:	0f be       	out	0x3f, r0	; 63
     660:	2d bf       	out	0x3d, r18	; 61
     662:	ed b7       	in	r30, 0x3d	; 61
     664:	fe b7       	in	r31, 0x3e	; 62
     666:	31 96       	adiw	r30, 0x01	; 1
     668:	ad b7       	in	r26, 0x3d	; 61
     66a:	be b7       	in	r27, 0x3e	; 62
     66c:	12 96       	adiw	r26, 0x02	; 2
     66e:	5c 92       	st	X, r5
     670:	4e 92       	st	-X, r4
     672:	11 97       	sbiw	r26, 0x01	; 1
     674:	80 91 97 07 	lds	r24, 0x0797
     678:	90 e0       	ldi	r25, 0x00	; 0
     67a:	80 53       	subi	r24, 0x30	; 48
     67c:	98 4f       	sbci	r25, 0xF8	; 248
     67e:	93 83       	std	Z+3, r25	; 0x03
     680:	82 83       	std	Z+2, r24	; 0x02
     682:	80 91 96 07 	lds	r24, 0x0796
     686:	84 83       	std	Z+4, r24	; 0x04
     688:	15 82       	std	Z+5, r1	; 0x05
     68a:	80 91 95 07 	lds	r24, 0x0795
     68e:	86 83       	std	Z+6, r24	; 0x06
     690:	17 82       	std	Z+7, r1	; 0x07
     692:	80 91 93 07 	lds	r24, 0x0793
     696:	80 87       	std	Z+8, r24	; 0x08
     698:	11 86       	std	Z+9, r1	; 0x09
     69a:	80 91 92 07 	lds	r24, 0x0792
     69e:	82 87       	std	Z+10, r24	; 0x0a
     6a0:	13 86       	std	Z+11, r1	; 0x0b
     6a2:	80 91 91 07 	lds	r24, 0x0791
     6a6:	84 87       	std	Z+12, r24	; 0x0c
     6a8:	15 86       	std	Z+13, r1	; 0x0d
     6aa:	0e 94 92 07 	call	0xf24	; 0xf24 <xSerialPrintf_P>
     6ae:	ed b7       	in	r30, 0x3d	; 61
     6b0:	fe b7       	in	r31, 0x3e	; 62
     6b2:	3e 96       	adiw	r30, 0x0e	; 14
     6b4:	0f b6       	in	r0, 0x3f	; 63
     6b6:	f8 94       	cli
     6b8:	fe bf       	out	0x3e, r31	; 62
     6ba:	0f be       	out	0x3f, r0	; 63
     6bc:	ed bf       	out	0x3d, r30	; 61
     6be:	ae ce       	rjmp	.-676    	; 0x41c <TaskMonitor+0x74>
     6c0:	8a e0       	ldi	r24, 0x0A	; 10
     6c2:	90 e0       	ldi	r25, 0x00	; 0
     6c4:	0e 94 67 0f 	call	0x1ece	; 0x1ece <pvPortMalloc>
     6c8:	90 93 9d 07 	sts	0x079D, r25
     6cc:	80 93 9c 07 	sts	0x079C, r24
     6d0:	00 97       	sbiw	r24, 0x00	; 0
     6d2:	09 f0       	breq	.+2      	; 0x6d6 <TaskMonitor+0x32e>
     6d4:	8e ce       	rjmp	.-740    	; 0x3f2 <TaskMonitor+0x4a>
     6d6:	85 e8       	ldi	r24, 0x85	; 133
     6d8:	92 e0       	ldi	r25, 0x02	; 2
     6da:	0e 94 cc 07 	call	0xf98	; 0xf98 <xSerialPrint_P>
     6de:	89 ce       	rjmp	.-750    	; 0x3f2 <TaskMonitor+0x4a>
     6e0:	80 e5       	ldi	r24, 0x50	; 80
     6e2:	90 e0       	ldi	r25, 0x00	; 0
     6e4:	0e 94 67 0f 	call	0x1ece	; 0x1ece <pvPortMalloc>
     6e8:	90 93 8d 07 	sts	0x078D, r25
     6ec:	80 93 8c 07 	sts	0x078C, r24
     6f0:	00 97       	sbiw	r24, 0x00	; 0
     6f2:	09 f0       	breq	.+2      	; 0x6f6 <TaskMonitor+0x34e>
     6f4:	77 ce       	rjmp	.-786    	; 0x3e4 <TaskMonitor+0x3c>
     6f6:	86 ea       	ldi	r24, 0xA6	; 166
     6f8:	92 e0       	ldi	r25, 0x02	; 2
     6fa:	0e 94 cc 07 	call	0xf98	; 0xf98 <xSerialPrint_P>
     6fe:	72 ce       	rjmp	.-796    	; 0x3e4 <TaskMonitor+0x3c>

00000700 <TaskWriteRTCRetrograde>:
     700:	ef 92       	push	r14
     702:	ff 92       	push	r15
     704:	0f 93       	push	r16
     706:	1f 93       	push	r17
     708:	cf 93       	push	r28
     70a:	df 93       	push	r29
     70c:	80 91 9e 07 	lds	r24, 0x079E
     710:	90 91 9f 07 	lds	r25, 0x079F
     714:	60 e0       	ldi	r22, 0x00	; 0
     716:	70 e0       	ldi	r23, 0x00	; 0
     718:	4f ef       	ldi	r20, 0xFF	; 255
     71a:	5f ef       	ldi	r21, 0xFF	; 255
     71c:	20 e0       	ldi	r18, 0x00	; 0
     71e:	0e 94 87 12 	call	0x250e	; 0x250e <xQueueGenericReceive>
     722:	81 30       	cpi	r24, 0x01	; 1
     724:	09 f4       	brne	.+2      	; 0x728 <TaskWriteRTCRetrograde+0x28>
     726:	7b c0       	rjmp	.+246    	; 0x81e <TaskWriteRTCRetrograde+0x11e>
     728:	60 91 92 07 	lds	r22, 0x0792
     72c:	70 e0       	ldi	r23, 0x00	; 0
     72e:	80 e0       	ldi	r24, 0x00	; 0
     730:	90 e0       	ldi	r25, 0x00	; 0
     732:	0e 94 ac 1c 	call	0x3958	; 0x3958 <__floatunsisf>
     736:	7b 01       	movw	r14, r22
     738:	8c 01       	movw	r16, r24
     73a:	60 91 93 07 	lds	r22, 0x0793
     73e:	70 e0       	ldi	r23, 0x00	; 0
     740:	80 e0       	ldi	r24, 0x00	; 0
     742:	90 e0       	ldi	r25, 0x00	; 0
     744:	0e 94 ac 1c 	call	0x3958	; 0x3958 <__floatunsisf>
     748:	20 e0       	ldi	r18, 0x00	; 0
     74a:	30 e0       	ldi	r19, 0x00	; 0
     74c:	40 e7       	ldi	r20, 0x70	; 112
     74e:	52 e4       	ldi	r21, 0x42	; 66
     750:	0e 94 3a 1d 	call	0x3a74	; 0x3a74 <__mulsf3>
     754:	a8 01       	movw	r20, r16
     756:	97 01       	movw	r18, r14
     758:	0e 94 17 1c 	call	0x382e	; 0x382e <__addsf3>
     75c:	21 e3       	ldi	r18, 0x31	; 49
     75e:	32 e5       	ldi	r19, 0x52	; 82
     760:	4e e8       	ldi	r20, 0x8E	; 142
     762:	5f e3       	ldi	r21, 0x3F	; 63
     764:	0e 94 3a 1d 	call	0x3a74	; 0x3a74 <__mulsf3>
     768:	9b 01       	movw	r18, r22
     76a:	ac 01       	movw	r20, r24
     76c:	60 e0       	ldi	r22, 0x00	; 0
     76e:	70 ec       	ldi	r23, 0xC0	; 192
     770:	8f e0       	ldi	r24, 0x0F	; 15
     772:	95 e4       	ldi	r25, 0x45	; 69
     774:	0e 94 16 1c 	call	0x382c	; 0x382c <__subsf3>
     778:	0e 94 80 1c 	call	0x3900	; 0x3900 <__fixunssfsi>
     77c:	eb 01       	movw	r28, r22
     77e:	80 91 9e 07 	lds	r24, 0x079E
     782:	90 91 9f 07 	lds	r25, 0x079F
     786:	60 e0       	ldi	r22, 0x00	; 0
     788:	70 e0       	ldi	r23, 0x00	; 0
     78a:	4f ef       	ldi	r20, 0xFF	; 255
     78c:	5f ef       	ldi	r21, 0xFF	; 255
     78e:	20 e0       	ldi	r18, 0x00	; 0
     790:	0e 94 87 12 	call	0x250e	; 0x250e <xQueueGenericReceive>
     794:	81 30       	cpi	r24, 0x01	; 1
     796:	d9 f0       	breq	.+54     	; 0x7ce <TaskWriteRTCRetrograde+0xce>
     798:	80 e0       	ldi	r24, 0x00	; 0
     79a:	90 e0       	ldi	r25, 0x00	; 0
     79c:	0e 94 72 18 	call	0x30e4	; 0x30e4 <vTaskSuspend>
     7a0:	60 91 92 07 	lds	r22, 0x0792
     7a4:	6f 30       	cpi	r22, 0x0F	; 15
     7a6:	11 f2       	breq	.-124    	; 0x72c <TaskWriteRTCRetrograde+0x2c>
     7a8:	60 31       	cpi	r22, 0x10	; 16
     7aa:	58 f4       	brcc	.+22     	; 0x7c2 <TaskWriteRTCRetrograde+0xc2>
     7ac:	66 23       	and	r22, r22
     7ae:	09 f4       	brne	.+2      	; 0x7b2 <TaskWriteRTCRetrograde+0xb2>
     7b0:	bd cf       	rjmp	.-134    	; 0x72c <TaskWriteRTCRetrograde+0x2c>
     7b2:	70 e0       	ldi	r23, 0x00	; 0
     7b4:	80 e0       	ldi	r24, 0x00	; 0
     7b6:	90 e0       	ldi	r25, 0x00	; 0
     7b8:	0e 94 ac 1c 	call	0x3958	; 0x3958 <__floatunsisf>
     7bc:	7b 01       	movw	r14, r22
     7be:	8c 01       	movw	r16, r24
     7c0:	de cf       	rjmp	.-68     	; 0x77e <TaskWriteRTCRetrograde+0x7e>
     7c2:	6e 31       	cpi	r22, 0x1E	; 30
     7c4:	09 f4       	brne	.+2      	; 0x7c8 <TaskWriteRTCRetrograde+0xc8>
     7c6:	b2 cf       	rjmp	.-156    	; 0x72c <TaskWriteRTCRetrograde+0x2c>
     7c8:	6d 32       	cpi	r22, 0x2D	; 45
     7ca:	99 f7       	brne	.-26     	; 0x7b2 <TaskWriteRTCRetrograde+0xb2>
     7cc:	af cf       	rjmp	.-162    	; 0x72c <TaskWriteRTCRetrograde+0x2c>
     7ce:	c8 01       	movw	r24, r16
     7d0:	b7 01       	movw	r22, r14
     7d2:	2c ef       	ldi	r18, 0xFC	; 252
     7d4:	32 ef       	ldi	r19, 0xF2	; 242
     7d6:	48 ed       	ldi	r20, 0xD8	; 216
     7d8:	51 e4       	ldi	r21, 0x41	; 65
     7da:	0e 94 3a 1d 	call	0x3a74	; 0x3a74 <__mulsf3>
     7de:	9b 01       	movw	r18, r22
     7e0:	ac 01       	movw	r20, r24
     7e2:	60 e0       	ldi	r22, 0x00	; 0
     7e4:	70 ec       	ldi	r23, 0xC0	; 192
     7e6:	8f e0       	ldi	r24, 0x0F	; 15
     7e8:	95 e4       	ldi	r25, 0x45	; 69
     7ea:	0e 94 16 1c 	call	0x382c	; 0x382c <__subsf3>
     7ee:	0e 94 80 1c 	call	0x3900	; 0x3900 <__fixunssfsi>
     7f2:	9b 01       	movw	r18, r22
     7f4:	ac 01       	movw	r20, r24
     7f6:	ce 01       	movw	r24, r28
     7f8:	b9 01       	movw	r22, r18
     7fa:	0e 94 2c 07 	call	0xe58	; 0xe58 <set_PWM_hardware>
     7fe:	88 ee       	ldi	r24, 0xE8	; 232
     800:	93 e0       	ldi	r25, 0x03	; 3
     802:	0e 94 b9 17 	call	0x2f72	; 0x2f72 <vTaskDelay>
     806:	80 91 9e 07 	lds	r24, 0x079E
     80a:	90 91 9f 07 	lds	r25, 0x079F
     80e:	60 e0       	ldi	r22, 0x00	; 0
     810:	70 e0       	ldi	r23, 0x00	; 0
     812:	40 e0       	ldi	r20, 0x00	; 0
     814:	50 e0       	ldi	r21, 0x00	; 0
     816:	20 e0       	ldi	r18, 0x00	; 0
     818:	0e 94 4e 11 	call	0x229c	; 0x229c <xQueueGenericSend>
     81c:	bd cf       	rjmp	.-134    	; 0x798 <TaskWriteRTCRetrograde+0x98>
     81e:	0e 94 02 07 	call	0xe04	; 0xe04 <start_PWM_hardware>
     822:	88 ee       	ldi	r24, 0xE8	; 232
     824:	93 e0       	ldi	r25, 0x03	; 3
     826:	0e 94 b9 17 	call	0x2f72	; 0x2f72 <vTaskDelay>
     82a:	80 91 9e 07 	lds	r24, 0x079E
     82e:	90 91 9f 07 	lds	r25, 0x079F
     832:	60 e0       	ldi	r22, 0x00	; 0
     834:	70 e0       	ldi	r23, 0x00	; 0
     836:	40 e0       	ldi	r20, 0x00	; 0
     838:	50 e0       	ldi	r21, 0x00	; 0
     83a:	20 e0       	ldi	r18, 0x00	; 0
     83c:	0e 94 4e 11 	call	0x229c	; 0x229c <xQueueGenericSend>
     840:	73 cf       	rjmp	.-282    	; 0x728 <TaskWriteRTCRetrograde+0x28>

00000842 <TaskWriteLCD>:
     842:	a2 e0       	ldi	r26, 0x02	; 2
     844:	b0 e0       	ldi	r27, 0x00	; 0
     846:	e7 e2       	ldi	r30, 0x27	; 39
     848:	f4 e0       	ldi	r31, 0x04	; 4
     84a:	0c 94 cb 1d 	jmp	0x3b96	; 0x3b96 <__prologue_saves__>
     84e:	0e 94 6b 16 	call	0x2cd6	; 0x2cd6 <xTaskGetTickCount>
     852:	9a 83       	std	Y+2, r25	; 0x02
     854:	89 83       	std	Y+1, r24	; 0x01
     856:	8a ea       	ldi	r24, 0xAA	; 170
     858:	97 e0       	ldi	r25, 0x07	; 7
     85a:	60 e0       	ldi	r22, 0x00	; 0
     85c:	70 e0       	ldi	r23, 0x00	; 0
     85e:	4a e0       	ldi	r20, 0x0A	; 10
     860:	50 e0       	ldi	r21, 0x00	; 0
     862:	0e 94 6d 20 	call	0x40da	; 0x40da <__eerd_block_m328p>
     866:	80 ea       	ldi	r24, 0xA0	; 160
     868:	97 e0       	ldi	r25, 0x07	; 7
     86a:	6a e0       	ldi	r22, 0x0A	; 10
     86c:	70 e0       	ldi	r23, 0x00	; 0
     86e:	4a e0       	ldi	r20, 0x0A	; 10
     870:	50 e0       	ldi	r21, 0x00	; 0
     872:	0e 94 6d 20 	call	0x40da	; 0x40da <__eerd_block_m328p>
     876:	80 e0       	ldi	r24, 0x00	; 0
     878:	0e 94 24 0f 	call	0x1e48	; 0x1e48 <setAnalogMode>
     87c:	0e 94 1c 0d 	call	0x1a38	; 0x1a38 <lcd_Init>
     880:	a0 e1       	ldi	r26, 0x10	; 16
     882:	ca 2e       	mov	r12, r26
     884:	a3 e0       	ldi	r26, 0x03	; 3
     886:	da 2e       	mov	r13, r26
     888:	fd ef       	ldi	r31, 0xFD	; 253
     88a:	af 2e       	mov	r10, r31
     88c:	f2 e0       	ldi	r31, 0x02	; 2
     88e:	bf 2e       	mov	r11, r31
     890:	e5 ef       	ldi	r30, 0xF5	; 245
     892:	8e 2e       	mov	r8, r30
     894:	e2 e0       	ldi	r30, 0x02	; 2
     896:	9e 2e       	mov	r9, r30
     898:	75 ee       	ldi	r23, 0xE5	; 229
     89a:	67 2e       	mov	r6, r23
     89c:	72 e0       	ldi	r23, 0x02	; 2
     89e:	77 2e       	mov	r7, r23
     8a0:	6d ed       	ldi	r22, 0xDD	; 221
     8a2:	26 2e       	mov	r2, r22
     8a4:	62 e0       	ldi	r22, 0x02	; 2
     8a6:	36 2e       	mov	r3, r22
     8a8:	7e 01       	movw	r14, r28
     8aa:	08 94       	sec
     8ac:	e1 1c       	adc	r14, r1
     8ae:	f1 1c       	adc	r15, r1
     8b0:	5f e7       	ldi	r21, 0x7F	; 127
     8b2:	45 2e       	mov	r4, r21
     8b4:	20 c1       	rjmp	.+576    	; 0xaf6 <__stack+0x1f7>
     8b6:	82 30       	cpi	r24, 0x02	; 2
     8b8:	09 f4       	brne	.+2      	; 0x8bc <TaskWriteLCD+0x7a>
     8ba:	d7 c1       	rjmp	.+942    	; 0xc6a <__stack+0x36b>
     8bc:	83 30       	cpi	r24, 0x03	; 3
     8be:	08 f0       	brcs	.+2      	; 0x8c2 <TaskWriteLCD+0x80>
     8c0:	de c1       	rjmp	.+956    	; 0xc7e <__stack+0x37f>
     8c2:	81 30       	cpi	r24, 0x01	; 1
     8c4:	09 f4       	brne	.+2      	; 0x8c8 <TaskWriteLCD+0x86>
     8c6:	d6 c1       	rjmp	.+940    	; 0xc74 <__stack+0x375>
     8c8:	89 e1       	ldi	r24, 0x19	; 25
     8ca:	93 e0       	ldi	r25, 0x03	; 3
     8cc:	0e 94 33 0e 	call	0x1c66	; 0x1c66 <lcd_Print_P>
     8d0:	80 e0       	ldi	r24, 0x00	; 0
     8d2:	6a e0       	ldi	r22, 0x0A	; 10
     8d4:	0e 94 8a 0d 	call	0x1b14	; 0x1b14 <lcd_Locate>
     8d8:	ad b7       	in	r26, 0x3d	; 61
     8da:	be b7       	in	r27, 0x3e	; 62
     8dc:	18 97       	sbiw	r26, 0x08	; 8
     8de:	0f b6       	in	r0, 0x3f	; 63
     8e0:	f8 94       	cli
     8e2:	be bf       	out	0x3e, r27	; 62
     8e4:	0f be       	out	0x3f, r0	; 63
     8e6:	ad bf       	out	0x3d, r26	; 61
     8e8:	ed b7       	in	r30, 0x3d	; 61
     8ea:	fe b7       	in	r31, 0x3e	; 62
     8ec:	31 96       	adiw	r30, 0x01	; 1
     8ee:	12 96       	adiw	r26, 0x02	; 2
     8f0:	dc 92       	st	X, r13
     8f2:	ce 92       	st	-X, r12
     8f4:	11 97       	sbiw	r26, 0x01	; 1
     8f6:	80 91 95 07 	lds	r24, 0x0795
     8fa:	82 83       	std	Z+2, r24	; 0x02
     8fc:	13 82       	std	Z+3, r1	; 0x03
     8fe:	80 91 96 07 	lds	r24, 0x0796
     902:	84 83       	std	Z+4, r24	; 0x04
     904:	15 82       	std	Z+5, r1	; 0x05
     906:	80 91 97 07 	lds	r24, 0x0797
     90a:	90 e0       	ldi	r25, 0x00	; 0
     90c:	80 53       	subi	r24, 0x30	; 48
     90e:	98 4f       	sbci	r25, 0xF8	; 248
     910:	97 83       	std	Z+7, r25	; 0x07
     912:	86 83       	std	Z+6, r24	; 0x06
     914:	0e 94 f9 0d 	call	0x1bf2	; 0x1bf2 <lcd_Printf_P>
     918:	ed b7       	in	r30, 0x3d	; 61
     91a:	fe b7       	in	r31, 0x3e	; 62
     91c:	38 96       	adiw	r30, 0x08	; 8
     91e:	0f b6       	in	r0, 0x3f	; 63
     920:	f8 94       	cli
     922:	fe bf       	out	0x3e, r31	; 62
     924:	0f be       	out	0x3f, r0	; 63
     926:	ed bf       	out	0x3d, r30	; 61
     928:	81 e0       	ldi	r24, 0x01	; 1
     92a:	61 e0       	ldi	r22, 0x01	; 1
     92c:	0e 94 8a 0d 	call	0x1b14	; 0x1b14 <lcd_Locate>
     930:	80 91 99 07 	lds	r24, 0x0799
     934:	8f 37       	cpi	r24, 0x7F	; 127
     936:	b9 f0       	breq	.+46     	; 0x966 <__stack+0x67>
     938:	00 d0       	rcall	.+0      	; 0x93a <__stack+0x3b>
     93a:	00 d0       	rcall	.+0      	; 0x93c <__stack+0x3d>
     93c:	eb e0       	ldi	r30, 0x0B	; 11
     93e:	f3 e0       	ldi	r31, 0x03	; 3
     940:	ad b7       	in	r26, 0x3d	; 61
     942:	be b7       	in	r27, 0x3e	; 62
     944:	12 96       	adiw	r26, 0x02	; 2
     946:	fc 93       	st	X, r31
     948:	ee 93       	st	-X, r30
     94a:	11 97       	sbiw	r26, 0x01	; 1
     94c:	99 27       	eor	r25, r25
     94e:	87 fd       	sbrc	r24, 7
     950:	90 95       	com	r25
     952:	14 96       	adiw	r26, 0x04	; 4
     954:	9c 93       	st	X, r25
     956:	8e 93       	st	-X, r24
     958:	13 97       	sbiw	r26, 0x03	; 3
     95a:	0e 94 f9 0d 	call	0x1bf2	; 0x1bf2 <lcd_Printf_P>
     95e:	0f 90       	pop	r0
     960:	0f 90       	pop	r0
     962:	0f 90       	pop	r0
     964:	0f 90       	pop	r0
     966:	81 e0       	ldi	r24, 0x01	; 1
     968:	68 e0       	ldi	r22, 0x08	; 8
     96a:	0e 94 8a 0d 	call	0x1b14	; 0x1b14 <lcd_Locate>
     96e:	2d b7       	in	r18, 0x3d	; 61
     970:	3e b7       	in	r19, 0x3e	; 62
     972:	28 50       	subi	r18, 0x08	; 8
     974:	30 40       	sbci	r19, 0x00	; 0
     976:	0f b6       	in	r0, 0x3f	; 63
     978:	f8 94       	cli
     97a:	3e bf       	out	0x3e, r19	; 62
     97c:	0f be       	out	0x3f, r0	; 63
     97e:	2d bf       	out	0x3d, r18	; 61
     980:	ed b7       	in	r30, 0x3d	; 61
     982:	fe b7       	in	r31, 0x3e	; 62
     984:	31 96       	adiw	r30, 0x01	; 1
     986:	ad b7       	in	r26, 0x3d	; 61
     988:	be b7       	in	r27, 0x3e	; 62
     98a:	12 96       	adiw	r26, 0x02	; 2
     98c:	bc 92       	st	X, r11
     98e:	ae 92       	st	-X, r10
     990:	11 97       	sbiw	r26, 0x01	; 1
     992:	80 91 93 07 	lds	r24, 0x0793
     996:	82 83       	std	Z+2, r24	; 0x02
     998:	13 82       	std	Z+3, r1	; 0x03
     99a:	80 91 92 07 	lds	r24, 0x0792
     99e:	84 83       	std	Z+4, r24	; 0x04
     9a0:	15 82       	std	Z+5, r1	; 0x05
     9a2:	80 91 91 07 	lds	r24, 0x0791
     9a6:	86 83       	std	Z+6, r24	; 0x06
     9a8:	17 82       	std	Z+7, r1	; 0x07
     9aa:	0e 94 f9 0d 	call	0x1bf2	; 0x1bf2 <lcd_Printf_P>
     9ae:	ed b7       	in	r30, 0x3d	; 61
     9b0:	fe b7       	in	r31, 0x3e	; 62
     9b2:	38 96       	adiw	r30, 0x08	; 8
     9b4:	0f b6       	in	r0, 0x3f	; 63
     9b6:	f8 94       	cli
     9b8:	fe bf       	out	0x3e, r31	; 62
     9ba:	0f be       	out	0x3f, r0	; 63
     9bc:	ed bf       	out	0x3d, r30	; 61
     9be:	82 e0       	ldi	r24, 0x02	; 2
     9c0:	60 e0       	ldi	r22, 0x00	; 0
     9c2:	0e 94 8a 0d 	call	0x1b14	; 0x1b14 <lcd_Locate>
     9c6:	00 d0       	rcall	.+0      	; 0x9c8 <__stack+0xc9>
     9c8:	00 d0       	rcall	.+0      	; 0x9ca <__stack+0xcb>
     9ca:	ad b7       	in	r26, 0x3d	; 61
     9cc:	be b7       	in	r27, 0x3e	; 62
     9ce:	12 96       	adiw	r26, 0x02	; 2
     9d0:	9c 92       	st	X, r9
     9d2:	8e 92       	st	-X, r8
     9d4:	11 97       	sbiw	r26, 0x01	; 1
     9d6:	80 91 b3 07 	lds	r24, 0x07B3
     9da:	99 27       	eor	r25, r25
     9dc:	87 fd       	sbrc	r24, 7
     9de:	90 95       	com	r25
     9e0:	14 96       	adiw	r26, 0x04	; 4
     9e2:	9c 93       	st	X, r25
     9e4:	8e 93       	st	-X, r24
     9e6:	13 97       	sbiw	r26, 0x03	; 3
     9e8:	0e 94 f9 0d 	call	0x1bf2	; 0x1bf2 <lcd_Printf_P>
     9ec:	0f 90       	pop	r0
     9ee:	0f 90       	pop	r0
     9f0:	0f 90       	pop	r0
     9f2:	0f 90       	pop	r0
     9f4:	82 e0       	ldi	r24, 0x02	; 2
     9f6:	68 e0       	ldi	r22, 0x08	; 8
     9f8:	0e 94 8a 0d 	call	0x1b14	; 0x1b14 <lcd_Locate>
     9fc:	ed b7       	in	r30, 0x3d	; 61
     9fe:	fe b7       	in	r31, 0x3e	; 62
     a00:	3a 97       	sbiw	r30, 0x0a	; 10
     a02:	0f b6       	in	r0, 0x3f	; 63
     a04:	f8 94       	cli
     a06:	fe bf       	out	0x3e, r31	; 62
     a08:	0f be       	out	0x3f, r0	; 63
     a0a:	ed bf       	out	0x3d, r30	; 61
     a0c:	31 96       	adiw	r30, 0x01	; 1
     a0e:	ad b7       	in	r26, 0x3d	; 61
     a10:	be b7       	in	r27, 0x3e	; 62
     a12:	12 96       	adiw	r26, 0x02	; 2
     a14:	7c 92       	st	X, r7
     a16:	6e 92       	st	-X, r6
     a18:	11 97       	sbiw	r26, 0x01	; 1
     a1a:	80 91 ad 07 	lds	r24, 0x07AD
     a1e:	82 83       	std	Z+2, r24	; 0x02
     a20:	13 82       	std	Z+3, r1	; 0x03
     a22:	80 91 ac 07 	lds	r24, 0x07AC
     a26:	84 83       	std	Z+4, r24	; 0x04
     a28:	15 82       	std	Z+5, r1	; 0x05
     a2a:	80 91 af 07 	lds	r24, 0x07AF
     a2e:	86 83       	std	Z+6, r24	; 0x06
     a30:	17 82       	std	Z+7, r1	; 0x07
     a32:	80 91 b0 07 	lds	r24, 0x07B0
     a36:	80 87       	std	Z+8, r24	; 0x08
     a38:	11 86       	std	Z+9, r1	; 0x09
     a3a:	0e 94 f9 0d 	call	0x1bf2	; 0x1bf2 <lcd_Printf_P>
     a3e:	ed b7       	in	r30, 0x3d	; 61
     a40:	fe b7       	in	r31, 0x3e	; 62
     a42:	3a 96       	adiw	r30, 0x0a	; 10
     a44:	0f b6       	in	r0, 0x3f	; 63
     a46:	f8 94       	cli
     a48:	fe bf       	out	0x3e, r31	; 62
     a4a:	0f be       	out	0x3f, r0	; 63
     a4c:	ed bf       	out	0x3d, r30	; 61
     a4e:	83 e0       	ldi	r24, 0x03	; 3
     a50:	60 e0       	ldi	r22, 0x00	; 0
     a52:	0e 94 8a 0d 	call	0x1b14	; 0x1b14 <lcd_Locate>
     a56:	00 d0       	rcall	.+0      	; 0xa58 <__stack+0x159>
     a58:	00 d0       	rcall	.+0      	; 0xa5a <__stack+0x15b>
     a5a:	ad b7       	in	r26, 0x3d	; 61
     a5c:	be b7       	in	r27, 0x3e	; 62
     a5e:	12 96       	adiw	r26, 0x02	; 2
     a60:	3c 92       	st	X, r3
     a62:	2e 92       	st	-X, r2
     a64:	11 97       	sbiw	r26, 0x01	; 1
     a66:	80 91 a9 07 	lds	r24, 0x07A9
     a6a:	99 27       	eor	r25, r25
     a6c:	87 fd       	sbrc	r24, 7
     a6e:	90 95       	com	r25
     a70:	14 96       	adiw	r26, 0x04	; 4
     a72:	9c 93       	st	X, r25
     a74:	8e 93       	st	-X, r24
     a76:	13 97       	sbiw	r26, 0x03	; 3
     a78:	0e 94 f9 0d 	call	0x1bf2	; 0x1bf2 <lcd_Printf_P>
     a7c:	0f 90       	pop	r0
     a7e:	0f 90       	pop	r0
     a80:	0f 90       	pop	r0
     a82:	0f 90       	pop	r0
     a84:	83 e0       	ldi	r24, 0x03	; 3
     a86:	68 e0       	ldi	r22, 0x08	; 8
     a88:	0e 94 8a 0d 	call	0x1b14	; 0x1b14 <lcd_Locate>
     a8c:	ed b7       	in	r30, 0x3d	; 61
     a8e:	fe b7       	in	r31, 0x3e	; 62
     a90:	3a 97       	sbiw	r30, 0x0a	; 10
     a92:	0f b6       	in	r0, 0x3f	; 63
     a94:	f8 94       	cli
     a96:	fe bf       	out	0x3e, r31	; 62
     a98:	0f be       	out	0x3f, r0	; 63
     a9a:	ed bf       	out	0x3d, r30	; 61
     a9c:	31 96       	adiw	r30, 0x01	; 1
     a9e:	2d ec       	ldi	r18, 0xCD	; 205
     aa0:	32 e0       	ldi	r19, 0x02	; 2
     aa2:	ad b7       	in	r26, 0x3d	; 61
     aa4:	be b7       	in	r27, 0x3e	; 62
     aa6:	12 96       	adiw	r26, 0x02	; 2
     aa8:	3c 93       	st	X, r19
     aaa:	2e 93       	st	-X, r18
     aac:	11 97       	sbiw	r26, 0x01	; 1
     aae:	80 91 a3 07 	lds	r24, 0x07A3
     ab2:	82 83       	std	Z+2, r24	; 0x02
     ab4:	13 82       	std	Z+3, r1	; 0x03
     ab6:	80 91 a2 07 	lds	r24, 0x07A2
     aba:	84 83       	std	Z+4, r24	; 0x04
     abc:	15 82       	std	Z+5, r1	; 0x05
     abe:	80 91 a5 07 	lds	r24, 0x07A5
     ac2:	86 83       	std	Z+6, r24	; 0x06
     ac4:	17 82       	std	Z+7, r1	; 0x07
     ac6:	80 91 a6 07 	lds	r24, 0x07A6
     aca:	80 87       	std	Z+8, r24	; 0x08
     acc:	11 86       	std	Z+9, r1	; 0x09
     ace:	0e 94 f9 0d 	call	0x1bf2	; 0x1bf2 <lcd_Printf_P>
     ad2:	8d b7       	in	r24, 0x3d	; 61
     ad4:	9e b7       	in	r25, 0x3e	; 62
     ad6:	0a 96       	adiw	r24, 0x0a	; 10
     ad8:	0f b6       	in	r0, 0x3f	; 63
     ada:	f8 94       	cli
     adc:	9e bf       	out	0x3e, r25	; 62
     ade:	0f be       	out	0x3f, r0	; 63
     ae0:	8d bf       	out	0x3d, r24	; 61
     ae2:	80 91 91 07 	lds	r24, 0x0791
     ae6:	88 23       	and	r24, r24
     ae8:	09 f4       	brne	.+2      	; 0xaec <__stack+0x1ed>
     aea:	54 c0       	rjmp	.+168    	; 0xb94 <__stack+0x295>
     aec:	c7 01       	movw	r24, r14
     aee:	62 e3       	ldi	r22, 0x32	; 50
     af0:	70 e0       	ldi	r23, 0x00	; 0
     af2:	0e 94 e5 17 	call	0x2fca	; 0x2fca <vTaskDelayUntil>
     af6:	80 e9       	ldi	r24, 0x90	; 144
     af8:	97 e0       	ldi	r25, 0x07	; 7
     afa:	0e 94 ee 09 	call	0x13dc	; 0x13dc <getDateTimeDS1307>
     afe:	88 23       	and	r24, r24
     b00:	a9 f3       	breq	.-22     	; 0xaec <__stack+0x1ed>
     b02:	80 91 9e 07 	lds	r24, 0x079E
     b06:	90 91 9f 07 	lds	r25, 0x079F
     b0a:	00 97       	sbiw	r24, 0x00	; 0
     b0c:	31 f1       	breq	.+76     	; 0xb5a <__stack+0x25b>
     b0e:	60 e0       	ldi	r22, 0x00	; 0
     b10:	70 e0       	ldi	r23, 0x00	; 0
     b12:	45 e0       	ldi	r20, 0x05	; 5
     b14:	50 e0       	ldi	r21, 0x00	; 0
     b16:	20 e0       	ldi	r18, 0x00	; 0
     b18:	0e 94 87 12 	call	0x250e	; 0x250e <xQueueGenericReceive>
     b1c:	81 30       	cpi	r24, 0x01	; 1
     b1e:	09 f4       	brne	.+2      	; 0xb22 <__stack+0x223>
     b20:	40 c0       	rjmp	.+128    	; 0xba2 <__stack+0x2a3>
     b22:	40 92 99 07 	sts	0x0799, r4
     b26:	80 e0       	ldi	r24, 0x00	; 0
     b28:	60 e0       	ldi	r22, 0x00	; 0
     b2a:	0e 94 8a 0d 	call	0x1b14	; 0x1b14 <lcd_Locate>
     b2e:	80 91 94 07 	lds	r24, 0x0794
     b32:	84 30       	cpi	r24, 0x04	; 4
     b34:	09 f4       	brne	.+2      	; 0xb38 <__stack+0x239>
     b36:	8f c0       	rjmp	.+286    	; 0xc56 <__stack+0x357>
     b38:	85 30       	cpi	r24, 0x05	; 5
     b3a:	08 f4       	brcc	.+2      	; 0xb3e <__stack+0x23f>
     b3c:	bc ce       	rjmp	.-648    	; 0x8b6 <TaskWriteLCD+0x74>
     b3e:	86 30       	cpi	r24, 0x06	; 6
     b40:	09 f4       	brne	.+2      	; 0xb44 <__stack+0x245>
     b42:	8e c0       	rjmp	.+284    	; 0xc60 <__stack+0x361>
     b44:	86 30       	cpi	r24, 0x06	; 6
     b46:	08 f4       	brcc	.+2      	; 0xb4a <__stack+0x24b>
     b48:	81 c0       	rjmp	.+258    	; 0xc4c <__stack+0x34d>
     b4a:	87 30       	cpi	r24, 0x07	; 7
     b4c:	09 f0       	breq	.+2      	; 0xb50 <__stack+0x251>
     b4e:	bc ce       	rjmp	.-648    	; 0x8c8 <TaskWriteLCD+0x86>
     b50:	83 e2       	ldi	r24, 0x23	; 35
     b52:	93 e0       	ldi	r25, 0x03	; 3
     b54:	0e 94 33 0e 	call	0x1c66	; 0x1c66 <lcd_Print_P>
     b58:	bb ce       	rjmp	.-650    	; 0x8d0 <TaskWriteLCD+0x8e>
     b5a:	00 e8       	ldi	r16, 0x80	; 128
     b5c:	00 93 99 07 	sts	0x0799, r16
     b60:	80 91 99 07 	lds	r24, 0x0799
     b64:	83 3e       	cpi	r24, 0xE3	; 227
     b66:	fc f2       	brlt	.-66     	; 0xb26 <__stack+0x227>
     b68:	90 91 a9 07 	lds	r25, 0x07A9
     b6c:	89 17       	cp	r24, r25
     b6e:	dc f6       	brge	.-74     	; 0xb26 <__stack+0x227>
     b70:	e0 ea       	ldi	r30, 0xA0	; 160
     b72:	f7 e0       	ldi	r31, 0x07	; 7
     b74:	a0 e9       	ldi	r26, 0x90	; 144
     b76:	b7 e0       	ldi	r27, 0x07	; 7
     b78:	8a e0       	ldi	r24, 0x0A	; 10
     b7a:	0d 90       	ld	r0, X+
     b7c:	01 92       	st	Z+, r0
     b7e:	81 50       	subi	r24, 0x01	; 1
     b80:	e1 f7       	brne	.-8      	; 0xb7a <__stack+0x27b>
     b82:	80 ea       	ldi	r24, 0xA0	; 160
     b84:	97 e0       	ldi	r25, 0x07	; 7
     b86:	6a e0       	ldi	r22, 0x0A	; 10
     b88:	70 e0       	ldi	r23, 0x00	; 0
     b8a:	4a e0       	ldi	r20, 0x0A	; 10
     b8c:	50 e0       	ldi	r21, 0x00	; 0
     b8e:	0e 94 7d 20 	call	0x40fa	; 0x40fa <__eeupd_block_m328p>
     b92:	c9 cf       	rjmp	.-110    	; 0xb26 <__stack+0x227>
     b94:	80 91 9a 07 	lds	r24, 0x079A
     b98:	90 91 9b 07 	lds	r25, 0x079B
     b9c:	0e 94 71 15 	call	0x2ae2	; 0x2ae2 <vTaskResume>
     ba0:	a5 cf       	rjmp	.-182    	; 0xaec <__stack+0x1ed>
     ba2:	44 e1       	ldi	r20, 0x14	; 20
     ba4:	54 2e       	mov	r5, r20
     ba6:	00 e0       	ldi	r16, 0x00	; 0
     ba8:	10 e0       	ldi	r17, 0x00	; 0
     baa:	80 e0       	ldi	r24, 0x00	; 0
     bac:	60 e0       	ldi	r22, 0x00	; 0
     bae:	0e 94 3f 0f 	call	0x1e7e	; 0x1e7e <startAnalogConversion>
     bb2:	05 c0       	rjmp	.+10     	; 0xbbe <__stack+0x2bf>
     bb4:	89 e9       	ldi	r24, 0x99	; 153
     bb6:	95 e1       	ldi	r25, 0x15	; 21
     bb8:	01 97       	sbiw	r24, 0x01	; 1
     bba:	f1 f7       	brne	.-4      	; 0xbb8 <__stack+0x2b9>
     bbc:	00 c0       	rjmp	.+0      	; 0xbbe <__stack+0x2bf>
     bbe:	0e 94 38 0f 	call	0x1e70	; 0x1e70 <analogIsConverting>
     bc2:	88 23       	and	r24, r24
     bc4:	b9 f7       	brne	.-18     	; 0xbb4 <__stack+0x2b5>
     bc6:	0e 94 58 0f 	call	0x1eb0	; 0x1eb0 <analogConversionResult>
     bca:	08 0f       	add	r16, r24
     bcc:	19 1f       	adc	r17, r25
     bce:	5a 94       	dec	r5
     bd0:	61 f7       	brne	.-40     	; 0xbaa <__stack+0x2ab>
     bd2:	80 91 9e 07 	lds	r24, 0x079E
     bd6:	90 91 9f 07 	lds	r25, 0x079F
     bda:	60 e0       	ldi	r22, 0x00	; 0
     bdc:	70 e0       	ldi	r23, 0x00	; 0
     bde:	40 e0       	ldi	r20, 0x00	; 0
     be0:	50 e0       	ldi	r21, 0x00	; 0
     be2:	20 e0       	ldi	r18, 0x00	; 0
     be4:	0e 94 4e 11 	call	0x229c	; 0x229c <xQueueGenericSend>
     be8:	b8 01       	movw	r22, r16
     bea:	80 e0       	ldi	r24, 0x00	; 0
     bec:	90 e0       	ldi	r25, 0x00	; 0
     bee:	0e 94 ac 1c 	call	0x3958	; 0x3958 <__floatunsisf>
     bf2:	2d e8       	ldi	r18, 0x8D	; 141
     bf4:	3e ef       	ldi	r19, 0xFE	; 254
     bf6:	46 ec       	ldi	r20, 0xC6	; 198
     bf8:	5c e3       	ldi	r21, 0x3C	; 60
     bfa:	0e 94 3a 1d 	call	0x3a74	; 0x3a74 <__mulsf3>
     bfe:	23 e3       	ldi	r18, 0x33	; 51
     c00:	33 e9       	ldi	r19, 0x93	; 147
     c02:	48 e8       	ldi	r20, 0x88	; 136
     c04:	53 e4       	ldi	r21, 0x43	; 67
     c06:	0e 94 16 1c 	call	0x382c	; 0x382c <__subsf3>
     c0a:	0e 94 7b 1c 	call	0x38f6	; 0x38f6 <__fixsfsi>
     c0e:	60 93 99 07 	sts	0x0799, r22
     c12:	6f 37       	cpi	r22, 0x7F	; 127
     c14:	09 f4       	brne	.+2      	; 0xc18 <__stack+0x319>
     c16:	87 cf       	rjmp	.-242    	; 0xb26 <__stack+0x227>
     c18:	61 34       	cpi	r22, 0x41	; 65
     c1a:	0c f0       	brlt	.+2      	; 0xc1e <__stack+0x31f>
     c1c:	a1 cf       	rjmp	.-190    	; 0xb60 <__stack+0x261>
     c1e:	80 91 b3 07 	lds	r24, 0x07B3
     c22:	86 17       	cp	r24, r22
     c24:	0c f0       	brlt	.+2      	; 0xc28 <__stack+0x329>
     c26:	9c cf       	rjmp	.-200    	; 0xb60 <__stack+0x261>
     c28:	ea ea       	ldi	r30, 0xAA	; 170
     c2a:	f7 e0       	ldi	r31, 0x07	; 7
     c2c:	a0 e9       	ldi	r26, 0x90	; 144
     c2e:	b7 e0       	ldi	r27, 0x07	; 7
     c30:	8a e0       	ldi	r24, 0x0A	; 10
     c32:	0d 90       	ld	r0, X+
     c34:	01 92       	st	Z+, r0
     c36:	81 50       	subi	r24, 0x01	; 1
     c38:	e1 f7       	brne	.-8      	; 0xc32 <__stack+0x333>
     c3a:	8a ea       	ldi	r24, 0xAA	; 170
     c3c:	97 e0       	ldi	r25, 0x07	; 7
     c3e:	60 e0       	ldi	r22, 0x00	; 0
     c40:	70 e0       	ldi	r23, 0x00	; 0
     c42:	4a e0       	ldi	r20, 0x0A	; 10
     c44:	50 e0       	ldi	r21, 0x00	; 0
     c46:	0e 94 7d 20 	call	0x40fa	; 0x40fa <__eeupd_block_m328p>
     c4a:	8a cf       	rjmp	.-236    	; 0xb60 <__stack+0x261>
     c4c:	87 e3       	ldi	r24, 0x37	; 55
     c4e:	93 e0       	ldi	r25, 0x03	; 3
     c50:	0e 94 33 0e 	call	0x1c66	; 0x1c66 <lcd_Print_P>
     c54:	3d ce       	rjmp	.-902    	; 0x8d0 <TaskWriteLCD+0x8e>
     c56:	81 e4       	ldi	r24, 0x41	; 65
     c58:	93 e0       	ldi	r25, 0x03	; 3
     c5a:	0e 94 33 0e 	call	0x1c66	; 0x1c66 <lcd_Print_P>
     c5e:	38 ce       	rjmp	.-912    	; 0x8d0 <TaskWriteLCD+0x8e>
     c60:	8d e2       	ldi	r24, 0x2D	; 45
     c62:	93 e0       	ldi	r25, 0x03	; 3
     c64:	0e 94 33 0e 	call	0x1c66	; 0x1c66 <lcd_Print_P>
     c68:	33 ce       	rjmp	.-922    	; 0x8d0 <TaskWriteLCD+0x8e>
     c6a:	85 e5       	ldi	r24, 0x55	; 85
     c6c:	93 e0       	ldi	r25, 0x03	; 3
     c6e:	0e 94 33 0e 	call	0x1c66	; 0x1c66 <lcd_Print_P>
     c72:	2e ce       	rjmp	.-932    	; 0x8d0 <TaskWriteLCD+0x8e>
     c74:	8f e5       	ldi	r24, 0x5F	; 95
     c76:	93 e0       	ldi	r25, 0x03	; 3
     c78:	0e 94 33 0e 	call	0x1c66	; 0x1c66 <lcd_Print_P>
     c7c:	29 ce       	rjmp	.-942    	; 0x8d0 <TaskWriteLCD+0x8e>
     c7e:	8b e4       	ldi	r24, 0x4B	; 75
     c80:	93 e0       	ldi	r25, 0x03	; 3
     c82:	0e 94 33 0e 	call	0x1c66	; 0x1c66 <lcd_Print_P>
     c86:	24 ce       	rjmp	.-952    	; 0x8d0 <TaskWriteLCD+0x8e>

00000c88 <main>:
     c88:	60 e0       	ldi	r22, 0x00	; 0
     c8a:	72 ec       	ldi	r23, 0xC2	; 194
     c8c:	81 e0       	ldi	r24, 0x01	; 1
     c8e:	90 e0       	ldi	r25, 0x00	; 0
     c90:	40 e5       	ldi	r20, 0x50	; 80
     c92:	20 e5       	ldi	r18, 0x50	; 80
     c94:	0e 94 2d 08 	call	0x105a	; 0x105a <xSerialPortInitMinimal>
     c98:	90 93 8f 07 	sts	0x078F, r25
     c9c:	80 93 8e 07 	sts	0x078E, r24
     ca0:	81 e0       	ldi	r24, 0x01	; 1
     ca2:	60 e0       	ldi	r22, 0x00	; 0
     ca4:	43 e0       	ldi	r20, 0x03	; 3
     ca6:	0e 94 d9 10 	call	0x21b2	; 0x21b2 <xQueueGenericCreate>
     caa:	90 93 9f 07 	sts	0x079F, r25
     cae:	80 93 9e 07 	sts	0x079E, r24
     cb2:	00 97       	sbiw	r24, 0x00	; 0
     cb4:	39 f0       	breq	.+14     	; 0xcc4 <main+0x3c>
     cb6:	60 e0       	ldi	r22, 0x00	; 0
     cb8:	70 e0       	ldi	r23, 0x00	; 0
     cba:	40 e0       	ldi	r20, 0x00	; 0
     cbc:	50 e0       	ldi	r21, 0x00	; 0
     cbe:	20 e0       	ldi	r18, 0x00	; 0
     cc0:	0e 94 4e 11 	call	0x229c	; 0x229c <xQueueGenericSend>
     cc4:	85 e6       	ldi	r24, 0x65	; 101
     cc6:	0e 94 2d 0b 	call	0x165a	; 0x165a <I2C_Master_Initialise>
     cca:	8e e1       	ldi	r24, 0x1E	; 30
     ccc:	92 e0       	ldi	r25, 0x02	; 2
     cce:	0e 94 18 09 	call	0x1230	; 0x1230 <avrSerialPrint_P>
     cd2:	81 e2       	ldi	r24, 0x21	; 33
     cd4:	94 e0       	ldi	r25, 0x04	; 4
     cd6:	63 e0       	ldi	r22, 0x03	; 3
     cd8:	71 e0       	ldi	r23, 0x01	; 1
     cda:	40 ec       	ldi	r20, 0xC0	; 192
     cdc:	50 e0       	ldi	r21, 0x00	; 0
     cde:	20 e0       	ldi	r18, 0x00	; 0
     ce0:	30 e0       	ldi	r19, 0x00	; 0
     ce2:	02 e0       	ldi	r16, 0x02	; 2
     ce4:	ee 24       	eor	r14, r14
     ce6:	ff 24       	eor	r15, r15
     ce8:	cc 24       	eor	r12, r12
     cea:	dd 24       	eor	r13, r13
     cec:	aa 24       	eor	r10, r10
     cee:	bb 24       	eor	r11, r11
     cf0:	0e 94 4e 14 	call	0x289c	; 0x289c <xTaskGenericCreate>
     cf4:	80 e8       	ldi	r24, 0x80	; 128
     cf6:	93 e0       	ldi	r25, 0x03	; 3
     cf8:	6c e0       	ldi	r22, 0x0C	; 12
     cfa:	71 e0       	ldi	r23, 0x01	; 1
     cfc:	40 e6       	ldi	r20, 0x60	; 96
     cfe:	50 e0       	ldi	r21, 0x00	; 0
     d00:	20 e0       	ldi	r18, 0x00	; 0
     d02:	30 e0       	ldi	r19, 0x00	; 0
     d04:	01 e0       	ldi	r16, 0x01	; 1
     d06:	ba e9       	ldi	r27, 0x9A	; 154
     d08:	eb 2e       	mov	r14, r27
     d0a:	b7 e0       	ldi	r27, 0x07	; 7
     d0c:	fb 2e       	mov	r15, r27
     d0e:	0e 94 4e 14 	call	0x289c	; 0x289c <xTaskGenericCreate>
     d12:	84 ed       	ldi	r24, 0xD4	; 212
     d14:	91 e0       	ldi	r25, 0x01	; 1
     d16:	6f e1       	ldi	r22, 0x1F	; 31
     d18:	71 e0       	ldi	r23, 0x01	; 1
     d1a:	40 ed       	ldi	r20, 0xD0	; 208
     d1c:	50 e0       	ldi	r21, 0x00	; 0
     d1e:	20 e0       	ldi	r18, 0x00	; 0
     d20:	30 e0       	ldi	r19, 0x00	; 0
     d22:	03 e0       	ldi	r16, 0x03	; 3
     d24:	ee 24       	eor	r14, r14
     d26:	ff 24       	eor	r15, r15
     d28:	0e 94 4e 14 	call	0x289c	; 0x289c <xTaskGenericCreate>
     d2c:	0e 94 2c 16 	call	0x2c58	; 0x2c58 <vTaskStartScheduler>
     d30:	85 ef       	ldi	r24, 0xF5	; 245
     d32:	91 e0       	ldi	r25, 0x01	; 1
     d34:	0e 94 18 09 	call	0x1230	; 0x1230 <avrSerialPrint_P>
     d38:	80 e0       	ldi	r24, 0x00	; 0
     d3a:	61 e0       	ldi	r22, 0x01	; 1
     d3c:	0e 94 8a 0d 	call	0x1b14	; 0x1b14 <lcd_Locate>
     d40:	8a ee       	ldi	r24, 0xEA	; 234
     d42:	91 e0       	ldi	r25, 0x01	; 1
     d44:	0e 94 33 0e 	call	0x1c66	; 0x1c66 <lcd_Print_P>
     d48:	80 e0       	ldi	r24, 0x00	; 0
     d4a:	90 e0       	ldi	r25, 0x00	; 0
     d4c:	08 95       	ret

00000d4e <xatoi>:
     d4e:	0b 01       	movw	r0, r22
     d50:	dc 01       	movw	r26, r24
     d52:	ed 91       	ld	r30, X+
     d54:	fd 91       	ld	r31, X+
     d56:	22 27       	eor	r18, r18
     d58:	33 27       	eor	r19, r19
     d5a:	44 27       	eor	r20, r20
     d5c:	55 27       	eor	r21, r21
     d5e:	e8 94       	clt
     d60:	9a e0       	ldi	r25, 0x0A	; 10
     d62:	01 c0       	rjmp	.+2      	; 0xd66 <xatoi+0x18>
     d64:	31 96       	adiw	r30, 0x01	; 1
     d66:	60 81       	ld	r22, Z
     d68:	60 32       	cpi	r22, 0x20	; 32
     d6a:	e1 f3       	breq	.-8      	; 0xd64 <xatoi+0x16>
     d6c:	a8 f1       	brcs	.+106    	; 0xdd8 <xatoi+0x8a>
     d6e:	6d 32       	cpi	r22, 0x2D	; 45
     d70:	11 f4       	brne	.+4      	; 0xd76 <xatoi+0x28>
     d72:	68 94       	set
     d74:	f7 cf       	rjmp	.-18     	; 0xd64 <xatoi+0x16>
     d76:	6a 33       	cpi	r22, 0x3A	; 58
     d78:	78 f5       	brcc	.+94     	; 0xdd8 <xatoi+0x8a>
     d7a:	60 33       	cpi	r22, 0x30	; 48
     d7c:	68 f1       	brcs	.+90     	; 0xdd8 <xatoi+0x8a>
     d7e:	71 f4       	brne	.+28     	; 0xd9c <xatoi+0x4e>
     d80:	98 e0       	ldi	r25, 0x08	; 8
     d82:	31 96       	adiw	r30, 0x01	; 1
     d84:	60 81       	ld	r22, Z
     d86:	61 32       	cpi	r22, 0x21	; 33
     d88:	48 f1       	brcs	.+82     	; 0xddc <xatoi+0x8e>
     d8a:	62 36       	cpi	r22, 0x62	; 98
     d8c:	11 f4       	brne	.+4      	; 0xd92 <xatoi+0x44>
     d8e:	92 e0       	ldi	r25, 0x02	; 2
     d90:	03 c0       	rjmp	.+6      	; 0xd98 <xatoi+0x4a>
     d92:	68 37       	cpi	r22, 0x78	; 120
     d94:	19 f4       	brne	.+6      	; 0xd9c <xatoi+0x4e>
     d96:	90 e1       	ldi	r25, 0x10	; 16
     d98:	31 96       	adiw	r30, 0x01	; 1
     d9a:	60 81       	ld	r22, Z
     d9c:	61 32       	cpi	r22, 0x21	; 33
     d9e:	f0 f0       	brcs	.+60     	; 0xddc <xatoi+0x8e>
     da0:	61 36       	cpi	r22, 0x61	; 97
     da2:	08 f0       	brcs	.+2      	; 0xda6 <xatoi+0x58>
     da4:	60 52       	subi	r22, 0x20	; 32
     da6:	60 53       	subi	r22, 0x30	; 48
     da8:	b8 f0       	brcs	.+46     	; 0xdd8 <xatoi+0x8a>
     daa:	6a 30       	cpi	r22, 0x0A	; 10
     dac:	18 f0       	brcs	.+6      	; 0xdb4 <xatoi+0x66>
     dae:	67 50       	subi	r22, 0x07	; 7
     db0:	6a 30       	cpi	r22, 0x0A	; 10
     db2:	90 f0       	brcs	.+36     	; 0xdd8 <xatoi+0x8a>
     db4:	69 17       	cp	r22, r25
     db6:	80 f4       	brcc	.+32     	; 0xdd8 <xatoi+0x8a>
     db8:	81 e2       	ldi	r24, 0x21	; 33
     dba:	77 1b       	sub	r23, r23
     dbc:	08 f4       	brcc	.+2      	; 0xdc0 <xatoi+0x72>
     dbe:	79 0f       	add	r23, r25
     dc0:	76 95       	lsr	r23
     dc2:	57 95       	ror	r21
     dc4:	47 95       	ror	r20
     dc6:	37 95       	ror	r19
     dc8:	27 95       	ror	r18
     dca:	8a 95       	dec	r24
     dcc:	b9 f7       	brne	.-18     	; 0xdbc <xatoi+0x6e>
     dce:	26 0f       	add	r18, r22
     dd0:	38 1f       	adc	r19, r24
     dd2:	48 1f       	adc	r20, r24
     dd4:	58 1f       	adc	r21, r24
     dd6:	e0 cf       	rjmp	.-64     	; 0xd98 <xatoi+0x4a>
     dd8:	80 e0       	ldi	r24, 0x00	; 0
     dda:	01 c0       	rjmp	.+2      	; 0xdde <xatoi+0x90>
     ddc:	81 e0       	ldi	r24, 0x01	; 1
     dde:	4e f4       	brtc	.+18     	; 0xdf2 <xatoi+0xa4>
     de0:	66 27       	eor	r22, r22
     de2:	20 95       	com	r18
     de4:	30 95       	com	r19
     de6:	40 95       	com	r20
     de8:	50 95       	com	r21
     dea:	26 1f       	adc	r18, r22
     dec:	36 1f       	adc	r19, r22
     dee:	46 1f       	adc	r20, r22
     df0:	56 1f       	adc	r21, r22
     df2:	fe 93       	st	-X, r31
     df4:	ee 93       	st	-X, r30
     df6:	d0 01       	movw	r26, r0
     df8:	2d 93       	st	X+, r18
     dfa:	3d 93       	st	X+, r19
     dfc:	4d 93       	st	X+, r20
     dfe:	5d 93       	st	X+, r21
     e00:	11 24       	eor	r1, r1
     e02:	08 95       	ret

00000e04 <start_PWM_hardware>:
     e04:	0f b6       	in	r0, 0x3f	; 63
     e06:	f8 94       	cli
     e08:	0f 92       	push	r0
     e0a:	8a e1       	ldi	r24, 0x1A	; 26
     e0c:	80 93 81 00 	sts	0x0081, r24
     e10:	8f ef       	ldi	r24, 0xFF	; 255
     e12:	97 ed       	ldi	r25, 0xD7	; 215
     e14:	90 93 87 00 	sts	0x0087, r25
     e18:	80 93 86 00 	sts	0x0086, r24
     e1c:	84 b1       	in	r24, 0x04	; 4
     e1e:	86 60       	ori	r24, 0x06	; 6
     e20:	84 b9       	out	0x04, r24	; 4
     e22:	83 e3       	ldi	r24, 0x33	; 51
     e24:	90 e1       	ldi	r25, 0x10	; 16
     e26:	90 93 89 00 	sts	0x0089, r25
     e2a:	80 93 88 00 	sts	0x0088, r24
     e2e:	90 93 8b 00 	sts	0x008B, r25
     e32:	80 93 8a 00 	sts	0x008A, r24
     e36:	82 ea       	ldi	r24, 0xA2	; 162
     e38:	80 93 80 00 	sts	0x0080, r24
     e3c:	0f 90       	pop	r0
     e3e:	0f be       	out	0x3f, r0	; 63
     e40:	08 95       	ret

00000e42 <stop_PWM_hardware>:
     e42:	0f b6       	in	r0, 0x3f	; 63
     e44:	f8 94       	cli
     e46:	0f 92       	push	r0
     e48:	10 92 80 00 	sts	0x0080, r1
     e4c:	84 b1       	in	r24, 0x04	; 4
     e4e:	89 7f       	andi	r24, 0xF9	; 249
     e50:	84 b9       	out	0x04, r24	; 4
     e52:	0f 90       	pop	r0
     e54:	0f be       	out	0x3f, r0	; 63
     e56:	08 95       	ret

00000e58 <set_PWM_hardware>:
     e58:	cf 93       	push	r28
     e5a:	df 93       	push	r29
     e5c:	eb 01       	movw	r28, r22
     e5e:	0f b6       	in	r0, 0x3f	; 63
     e60:	f8 94       	cli
     e62:	0f 92       	push	r0
     e64:	bc 01       	movw	r22, r24
     e66:	80 e0       	ldi	r24, 0x00	; 0
     e68:	90 e0       	ldi	r25, 0x00	; 0
     e6a:	0e 94 ac 1c 	call	0x3958	; 0x3958 <__floatunsisf>
     e6e:	2a ea       	ldi	r18, 0xAA	; 170
     e70:	31 ef       	ldi	r19, 0xF1	; 241
     e72:	40 e3       	ldi	r20, 0x30	; 48
     e74:	50 e4       	ldi	r21, 0x40	; 64
     e76:	0e 94 3a 1d 	call	0x3a74	; 0x3a74 <__mulsf3>
     e7a:	0e 94 80 1c 	call	0x3900	; 0x3900 <__fixunssfsi>
     e7e:	70 93 89 00 	sts	0x0089, r23
     e82:	60 93 88 00 	sts	0x0088, r22
     e86:	be 01       	movw	r22, r28
     e88:	80 e0       	ldi	r24, 0x00	; 0
     e8a:	90 e0       	ldi	r25, 0x00	; 0
     e8c:	0e 94 ac 1c 	call	0x3958	; 0x3958 <__floatunsisf>
     e90:	2a ea       	ldi	r18, 0xAA	; 170
     e92:	31 ef       	ldi	r19, 0xF1	; 241
     e94:	40 e3       	ldi	r20, 0x30	; 48
     e96:	50 e4       	ldi	r21, 0x40	; 64
     e98:	0e 94 3a 1d 	call	0x3a74	; 0x3a74 <__mulsf3>
     e9c:	0e 94 80 1c 	call	0x3900	; 0x3900 <__fixunssfsi>
     ea0:	70 93 8b 00 	sts	0x008B, r23
     ea4:	60 93 8a 00 	sts	0x008A, r22
     ea8:	0f 90       	pop	r0
     eaa:	0f be       	out	0x3f, r0	; 63
     eac:	df 91       	pop	r29
     eae:	cf 91       	pop	r28
     eb0:	08 95       	ret

00000eb2 <xSerialPrint>:
     eb2:	a1 e0       	ldi	r26, 0x01	; 1
     eb4:	b0 e0       	ldi	r27, 0x00	; 0
     eb6:	ef e5       	ldi	r30, 0x5F	; 95
     eb8:	f7 e0       	ldi	r31, 0x07	; 7
     eba:	0c 94 d3 1d 	jmp	0x3ba6	; 0x3ba6 <__prologue_saves__+0x10>
     ebe:	dc 01       	movw	r26, r24
     ec0:	0d 90       	ld	r0, X+
     ec2:	00 20       	and	r0, r0
     ec4:	e9 f7       	brne	.-6      	; 0xec0 <xSerialPrint+0xe>
     ec6:	6d 01       	movw	r12, r26
     ec8:	08 94       	sec
     eca:	c1 08       	sbc	r12, r1
     ecc:	d1 08       	sbc	r13, r1
     ece:	c8 1a       	sub	r12, r24
     ed0:	d9 0a       	sbc	r13, r25
     ed2:	e8 2e       	mov	r14, r24
     ed4:	f9 2e       	mov	r15, r25
     ed6:	00 e0       	ldi	r16, 0x00	; 0
     ed8:	10 e0       	ldi	r17, 0x00	; 0
     eda:	5e 01       	movw	r10, r28
     edc:	08 94       	sec
     ede:	a1 1c       	adc	r10, r1
     ee0:	b1 1c       	adc	r11, r1
     ee2:	0c 15       	cp	r16, r12
     ee4:	1d 05       	cpc	r17, r13
     ee6:	d0 f4       	brcc	.+52     	; 0xf1c <xSerialPrint+0x6a>
     ee8:	f7 01       	movw	r30, r14
     eea:	81 91       	ld	r24, Z+
     eec:	7f 01       	movw	r14, r30
     eee:	0f 5f       	subi	r16, 0xFF	; 255
     ef0:	1f 4f       	sbci	r17, 0xFF	; 255
     ef2:	89 83       	std	Y+1, r24	; 0x01
     ef4:	80 91 34 01 	lds	r24, 0x0134
     ef8:	90 91 35 01 	lds	r25, 0x0135
     efc:	b5 01       	movw	r22, r10
     efe:	40 e0       	ldi	r20, 0x00	; 0
     f00:	50 e0       	ldi	r21, 0x00	; 0
     f02:	20 e0       	ldi	r18, 0x00	; 0
     f04:	0e 94 4e 11 	call	0x229c	; 0x229c <xQueueGenericSend>
     f08:	81 30       	cpi	r24, 0x01	; 1
     f0a:	59 f7       	brne	.-42     	; 0xee2 <xSerialPrint+0x30>
     f0c:	80 91 c1 00 	lds	r24, 0x00C1
     f10:	80 62       	ori	r24, 0x20	; 32
     f12:	80 93 c1 00 	sts	0x00C1, r24
     f16:	0c 15       	cp	r16, r12
     f18:	1d 05       	cpc	r17, r13
     f1a:	30 f3       	brcs	.-52     	; 0xee8 <xSerialPrint+0x36>
     f1c:	21 96       	adiw	r28, 0x01	; 1
     f1e:	ea e0       	ldi	r30, 0x0A	; 10
     f20:	0c 94 ef 1d 	jmp	0x3bde	; 0x3bde <__epilogue_restores__+0x10>

00000f24 <xSerialPrintf_P>:
     f24:	a0 e0       	ldi	r26, 0x00	; 0
     f26:	b0 e0       	ldi	r27, 0x00	; 0
     f28:	e8 e9       	ldi	r30, 0x98	; 152
     f2a:	f7 e0       	ldi	r31, 0x07	; 7
     f2c:	0c 94 db 1d 	jmp	0x3bb6	; 0x3bb6 <__prologue_saves__+0x20>
     f30:	fe 01       	movw	r30, r28
     f32:	35 96       	adiw	r30, 0x05	; 5
     f34:	41 91       	ld	r20, Z+
     f36:	51 91       	ld	r21, Z+
     f38:	80 91 38 01 	lds	r24, 0x0138
     f3c:	90 91 39 01 	lds	r25, 0x0139
     f40:	60 e4       	ldi	r22, 0x40	; 64
     f42:	70 e0       	ldi	r23, 0x00	; 0
     f44:	9f 01       	movw	r18, r30
     f46:	0e 94 5b 1e 	call	0x3cb6	; 0x3cb6 <vsnprintf_P>
     f4a:	80 91 38 01 	lds	r24, 0x0138
     f4e:	90 91 39 01 	lds	r25, 0x0139
     f52:	0e 94 59 07 	call	0xeb2	; 0xeb2 <xSerialPrint>
     f56:	20 96       	adiw	r28, 0x00	; 0
     f58:	e2 e0       	ldi	r30, 0x02	; 2
     f5a:	0c 94 f7 1d 	jmp	0x3bee	; 0x3bee <__epilogue_restores__+0x20>

00000f5e <xSerialPrintf>:
     f5e:	a0 e0       	ldi	r26, 0x00	; 0
     f60:	b0 e0       	ldi	r27, 0x00	; 0
     f62:	e5 eb       	ldi	r30, 0xB5	; 181
     f64:	f7 e0       	ldi	r31, 0x07	; 7
     f66:	0c 94 db 1d 	jmp	0x3bb6	; 0x3bb6 <__prologue_saves__+0x20>
     f6a:	fe 01       	movw	r30, r28
     f6c:	35 96       	adiw	r30, 0x05	; 5
     f6e:	41 91       	ld	r20, Z+
     f70:	51 91       	ld	r21, Z+
     f72:	80 91 38 01 	lds	r24, 0x0138
     f76:	90 91 39 01 	lds	r25, 0x0139
     f7a:	60 e4       	ldi	r22, 0x40	; 64
     f7c:	70 e0       	ldi	r23, 0x00	; 0
     f7e:	9f 01       	movw	r18, r30
     f80:	0e 94 30 1e 	call	0x3c60	; 0x3c60 <vsnprintf>
     f84:	80 91 38 01 	lds	r24, 0x0138
     f88:	90 91 39 01 	lds	r25, 0x0139
     f8c:	0e 94 59 07 	call	0xeb2	; 0xeb2 <xSerialPrint>
     f90:	20 96       	adiw	r28, 0x00	; 0
     f92:	e2 e0       	ldi	r30, 0x02	; 2
     f94:	0c 94 f7 1d 	jmp	0x3bee	; 0x3bee <__epilogue_restores__+0x20>

00000f98 <xSerialPrint_P>:
     f98:	a1 e0       	ldi	r26, 0x01	; 1
     f9a:	b0 e0       	ldi	r27, 0x00	; 0
     f9c:	e2 ed       	ldi	r30, 0xD2	; 210
     f9e:	f7 e0       	ldi	r31, 0x07	; 7
     fa0:	0c 94 d3 1d 	jmp	0x3ba6	; 0x3ba6 <__prologue_saves__+0x10>
     fa4:	7c 01       	movw	r14, r24
     fa6:	0e 94 08 1e 	call	0x3c10	; 0x3c10 <strlen_P>
     faa:	6c 01       	movw	r12, r24
     fac:	00 97       	sbiw	r24, 0x00	; 0
     fae:	09 f1       	breq	.+66     	; 0xff2 <xSerialPrint_P+0x5a>
     fb0:	00 e0       	ldi	r16, 0x00	; 0
     fb2:	10 e0       	ldi	r17, 0x00	; 0
     fb4:	5e 01       	movw	r10, r28
     fb6:	08 94       	sec
     fb8:	a1 1c       	adc	r10, r1
     fba:	b1 1c       	adc	r11, r1
     fbc:	f7 01       	movw	r30, r14
     fbe:	e0 0f       	add	r30, r16
     fc0:	f1 1f       	adc	r31, r17
     fc2:	0f 5f       	subi	r16, 0xFF	; 255
     fc4:	1f 4f       	sbci	r17, 0xFF	; 255
     fc6:	e4 91       	lpm	r30, Z+
     fc8:	e9 83       	std	Y+1, r30	; 0x01
     fca:	80 91 34 01 	lds	r24, 0x0134
     fce:	90 91 35 01 	lds	r25, 0x0135
     fd2:	b5 01       	movw	r22, r10
     fd4:	40 e0       	ldi	r20, 0x00	; 0
     fd6:	50 e0       	ldi	r21, 0x00	; 0
     fd8:	20 e0       	ldi	r18, 0x00	; 0
     fda:	0e 94 4e 11 	call	0x229c	; 0x229c <xQueueGenericSend>
     fde:	81 30       	cpi	r24, 0x01	; 1
     fe0:	29 f4       	brne	.+10     	; 0xfec <xSerialPrint_P+0x54>
     fe2:	80 91 c1 00 	lds	r24, 0x00C1
     fe6:	80 62       	ori	r24, 0x20	; 32
     fe8:	80 93 c1 00 	sts	0x00C1, r24
     fec:	0c 15       	cp	r16, r12
     fee:	1d 05       	cpc	r17, r13
     ff0:	28 f3       	brcs	.-54     	; 0xfbc <xSerialPrint_P+0x24>
     ff2:	21 96       	adiw	r28, 0x01	; 1
     ff4:	ea e0       	ldi	r30, 0x0A	; 10
     ff6:	0c 94 ef 1d 	jmp	0x3bde	; 0x3bde <__epilogue_restores__+0x10>

00000ffa <xSerialGetChar>:
     ffa:	80 91 36 01 	lds	r24, 0x0136
     ffe:	90 91 37 01 	lds	r25, 0x0137
    1002:	20 e0       	ldi	r18, 0x00	; 0
    1004:	0e 94 87 12 	call	0x250e	; 0x250e <xQueueGenericReceive>
    1008:	91 e0       	ldi	r25, 0x01	; 1
    100a:	88 23       	and	r24, r24
    100c:	09 f4       	brne	.+2      	; 0x1010 <xSerialGetChar+0x16>
    100e:	90 e0       	ldi	r25, 0x00	; 0
    1010:	89 2f       	mov	r24, r25
    1012:	08 95       	ret

00001014 <xSerialPutChar>:
    1014:	a1 e0       	ldi	r26, 0x01	; 1
    1016:	b0 e0       	ldi	r27, 0x00	; 0
    1018:	e0 e1       	ldi	r30, 0x10	; 16
    101a:	f8 e0       	ldi	r31, 0x08	; 8
    101c:	0c 94 db 1d 	jmp	0x3bb6	; 0x3bb6 <__prologue_saves__+0x20>
    1020:	69 83       	std	Y+1, r22	; 0x01
    1022:	80 91 34 01 	lds	r24, 0x0134
    1026:	90 91 35 01 	lds	r25, 0x0135
    102a:	be 01       	movw	r22, r28
    102c:	6f 5f       	subi	r22, 0xFF	; 255
    102e:	7f 4f       	sbci	r23, 0xFF	; 255
    1030:	20 e0       	ldi	r18, 0x00	; 0
    1032:	0e 94 4e 11 	call	0x229c	; 0x229c <xQueueGenericSend>
    1036:	81 30       	cpi	r24, 0x01	; 1
    1038:	31 f0       	breq	.+12     	; 0x1046 <xSerialPutChar+0x32>
    103a:	80 e0       	ldi	r24, 0x00	; 0
    103c:	21 96       	adiw	r28, 0x01	; 1
    103e:	e2 e0       	ldi	r30, 0x02	; 2
    1040:	0c 94 f7 1d 	jmp	0x3bee	; 0x3bee <__epilogue_restores__+0x20>
    1044:	0a c0       	rjmp	.+20     	; 0x105a <xSerialPortInitMinimal>
    1046:	80 91 c1 00 	lds	r24, 0x00C1
    104a:	80 62       	ori	r24, 0x20	; 32
    104c:	80 93 c1 00 	sts	0x00C1, r24
    1050:	81 e0       	ldi	r24, 0x01	; 1
    1052:	21 96       	adiw	r28, 0x01	; 1
    1054:	e2 e0       	ldi	r30, 0x02	; 2
    1056:	0c 94 f7 1d 	jmp	0x3bee	; 0x3bee <__epilogue_restores__+0x20>

0000105a <xSerialPortInitMinimal>:
    105a:	df 92       	push	r13
    105c:	ef 92       	push	r14
    105e:	ff 92       	push	r15
    1060:	0f 93       	push	r16
    1062:	1f 93       	push	r17
    1064:	7b 01       	movw	r14, r22
    1066:	8c 01       	movw	r16, r24
    1068:	d4 2e       	mov	r13, r20
    106a:	82 2f       	mov	r24, r18
    106c:	0f b6       	in	r0, 0x3f	; 63
    106e:	f8 94       	cli
    1070:	0f 92       	push	r0
    1072:	61 e0       	ldi	r22, 0x01	; 1
    1074:	40 e0       	ldi	r20, 0x00	; 0
    1076:	0e 94 d9 10 	call	0x21b2	; 0x21b2 <xQueueGenericCreate>
    107a:	90 93 37 01 	sts	0x0137, r25
    107e:	80 93 36 01 	sts	0x0136, r24
    1082:	8d 2d       	mov	r24, r13
    1084:	61 e0       	ldi	r22, 0x01	; 1
    1086:	40 e0       	ldi	r20, 0x00	; 0
    1088:	0e 94 d9 10 	call	0x21b2	; 0x21b2 <xQueueGenericCreate>
    108c:	90 93 35 01 	sts	0x0135, r25
    1090:	80 93 34 01 	sts	0x0134, r24
    1094:	80 91 38 01 	lds	r24, 0x0138
    1098:	90 91 39 01 	lds	r25, 0x0139
    109c:	00 97       	sbiw	r24, 0x00	; 0
    109e:	09 f4       	brne	.+2      	; 0x10a2 <xSerialPortInitMinimal+0x48>
    10a0:	3d c0       	rjmp	.+122    	; 0x111c <xSerialPortInitMinimal+0xc2>
    10a2:	c8 01       	movw	r24, r16
    10a4:	b7 01       	movw	r22, r14
    10a6:	60 50       	subi	r22, 0x00	; 0
    10a8:	70 4a       	sbci	r23, 0xA0	; 160
    10aa:	8b 4a       	sbci	r24, 0xAB	; 171
    10ac:	9f 4f       	sbci	r25, 0xFF	; 255
    10ae:	66 0f       	add	r22, r22
    10b0:	77 1f       	adc	r23, r23
    10b2:	88 1f       	adc	r24, r24
    10b4:	99 1f       	adc	r25, r25
    10b6:	66 0f       	add	r22, r22
    10b8:	77 1f       	adc	r23, r23
    10ba:	88 1f       	adc	r24, r24
    10bc:	99 1f       	adc	r25, r25
    10be:	a8 01       	movw	r20, r16
    10c0:	97 01       	movw	r18, r14
    10c2:	22 0f       	add	r18, r18
    10c4:	33 1f       	adc	r19, r19
    10c6:	44 1f       	adc	r20, r20
    10c8:	55 1f       	adc	r21, r21
    10ca:	22 0f       	add	r18, r18
    10cc:	33 1f       	adc	r19, r19
    10ce:	44 1f       	adc	r20, r20
    10d0:	55 1f       	adc	r21, r21
    10d2:	22 0f       	add	r18, r18
    10d4:	33 1f       	adc	r19, r19
    10d6:	44 1f       	adc	r20, r20
    10d8:	55 1f       	adc	r21, r21
    10da:	0e 94 a9 1d 	call	0x3b52	; 0x3b52 <__udivmodsi4>
    10de:	21 50       	subi	r18, 0x01	; 1
    10e0:	30 40       	sbci	r19, 0x00	; 0
    10e2:	40 40       	sbci	r20, 0x00	; 0
    10e4:	50 40       	sbci	r21, 0x00	; 0
    10e6:	20 93 c4 00 	sts	0x00C4, r18
    10ea:	23 2f       	mov	r18, r19
    10ec:	34 2f       	mov	r19, r20
    10ee:	45 2f       	mov	r20, r21
    10f0:	55 27       	eor	r21, r21
    10f2:	20 93 c5 00 	sts	0x00C5, r18
    10f6:	82 e0       	ldi	r24, 0x02	; 2
    10f8:	80 93 c0 00 	sts	0x00C0, r24
    10fc:	88 e9       	ldi	r24, 0x98	; 152
    10fe:	80 93 c1 00 	sts	0x00C1, r24
    1102:	86 e0       	ldi	r24, 0x06	; 6
    1104:	80 93 c2 00 	sts	0x00C2, r24
    1108:	0f 90       	pop	r0
    110a:	0f be       	out	0x3f, r0	; 63
    110c:	80 e0       	ldi	r24, 0x00	; 0
    110e:	90 e0       	ldi	r25, 0x00	; 0
    1110:	1f 91       	pop	r17
    1112:	0f 91       	pop	r16
    1114:	ff 90       	pop	r15
    1116:	ef 90       	pop	r14
    1118:	df 90       	pop	r13
    111a:	08 95       	ret
    111c:	80 e4       	ldi	r24, 0x40	; 64
    111e:	90 e0       	ldi	r25, 0x00	; 0
    1120:	0e 94 67 0f 	call	0x1ece	; 0x1ece <pvPortMalloc>
    1124:	90 93 39 01 	sts	0x0139, r25
    1128:	80 93 38 01 	sts	0x0138, r24
    112c:	00 97       	sbiw	r24, 0x00	; 0
    112e:	09 f0       	breq	.+2      	; 0x1132 <xSerialPortInitMinimal+0xd8>
    1130:	b8 cf       	rjmp	.-144    	; 0x10a2 <xSerialPortInitMinimal+0x48>
    1132:	ec cf       	rjmp	.-40     	; 0x110c <xSerialPortInitMinimal+0xb2>

00001134 <vSerialClose>:
    1134:	80 91 38 01 	lds	r24, 0x0138
    1138:	90 91 39 01 	lds	r25, 0x0139
    113c:	0e 94 fd 0f 	call	0x1ffa	; 0x1ffa <vPortFree>
    1140:	80 91 36 01 	lds	r24, 0x0136
    1144:	90 91 37 01 	lds	r25, 0x0137
    1148:	0e 94 f4 13 	call	0x27e8	; 0x27e8 <vQueueDelete>
    114c:	80 91 34 01 	lds	r24, 0x0134
    1150:	90 91 35 01 	lds	r25, 0x0135
    1154:	0e 94 f4 13 	call	0x27e8	; 0x27e8 <vQueueDelete>
    1158:	0f b6       	in	r0, 0x3f	; 63
    115a:	f8 94       	cli
    115c:	0f 92       	push	r0
    115e:	e1 ec       	ldi	r30, 0xC1	; 193
    1160:	f0 e0       	ldi	r31, 0x00	; 0
    1162:	80 81       	ld	r24, Z
    1164:	8f 7d       	andi	r24, 0xDF	; 223
    1166:	80 83       	st	Z, r24
    1168:	80 81       	ld	r24, Z
    116a:	8f 77       	andi	r24, 0x7F	; 127
    116c:	80 83       	st	Z, r24
    116e:	0f 90       	pop	r0
    1170:	0f be       	out	0x3f, r0	; 63
    1172:	08 95       	ret

00001174 <avrSerialPrint>:
    1174:	cf 93       	push	r28
    1176:	df 93       	push	r29
    1178:	fc 01       	movw	r30, r24
    117a:	dc 01       	movw	r26, r24
    117c:	0d 90       	ld	r0, X+
    117e:	00 20       	and	r0, r0
    1180:	e9 f7       	brne	.-6      	; 0x117c <avrSerialPrint+0x8>
    1182:	11 97       	sbiw	r26, 0x01	; 1
    1184:	a8 1b       	sub	r26, r24
    1186:	b9 0b       	sbc	r27, r25
    1188:	b1 f0       	breq	.+44     	; 0x11b6 <avrSerialPrint+0x42>
    118a:	80 e0       	ldi	r24, 0x00	; 0
    118c:	90 e0       	ldi	r25, 0x00	; 0
    118e:	31 91       	ld	r19, Z+
    1190:	01 96       	adiw	r24, 0x01	; 1
    1192:	20 91 c0 00 	lds	r18, 0x00C0
    1196:	25 fd       	sbrc	r18, 5
    1198:	09 c0       	rjmp	.+18     	; 0x11ac <avrSerialPrint+0x38>
	#else
		//round up by default
		__ticks_dc = (uint32_t)(ceil(fabs(__tmp)));
	#endif

	__builtin_avr_delay_cycles(__ticks_dc);
    119a:	c9 e9       	ldi	r28, 0x99	; 153
    119c:	d5 e1       	ldi	r29, 0x15	; 21
    119e:	21 97       	sbiw	r28, 0x01	; 1
    11a0:	f1 f7       	brne	.-4      	; 0x119e <avrSerialPrint+0x2a>
    11a2:	00 c0       	rjmp	.+0      	; 0x11a4 <avrSerialPrint+0x30>
    11a4:	20 91 c0 00 	lds	r18, 0x00C0
    11a8:	25 ff       	sbrs	r18, 5
    11aa:	f7 cf       	rjmp	.-18     	; 0x119a <avrSerialPrint+0x26>
    11ac:	30 93 c6 00 	sts	0x00C6, r19
    11b0:	8a 17       	cp	r24, r26
    11b2:	9b 07       	cpc	r25, r27
    11b4:	60 f3       	brcs	.-40     	; 0x118e <avrSerialPrint+0x1a>
    11b6:	df 91       	pop	r29
    11b8:	cf 91       	pop	r28
    11ba:	08 95       	ret

000011bc <avrSerialPrintf_P>:
    11bc:	a0 e0       	ldi	r26, 0x00	; 0
    11be:	b0 e0       	ldi	r27, 0x00	; 0
    11c0:	e4 ee       	ldi	r30, 0xE4	; 228
    11c2:	f8 e0       	ldi	r31, 0x08	; 8
    11c4:	0c 94 db 1d 	jmp	0x3bb6	; 0x3bb6 <__prologue_saves__+0x20>
    11c8:	fe 01       	movw	r30, r28
    11ca:	35 96       	adiw	r30, 0x05	; 5
    11cc:	41 91       	ld	r20, Z+
    11ce:	51 91       	ld	r21, Z+
    11d0:	80 91 38 01 	lds	r24, 0x0138
    11d4:	90 91 39 01 	lds	r25, 0x0139
    11d8:	60 e4       	ldi	r22, 0x40	; 64
    11da:	70 e0       	ldi	r23, 0x00	; 0
    11dc:	9f 01       	movw	r18, r30
    11de:	0e 94 5b 1e 	call	0x3cb6	; 0x3cb6 <vsnprintf_P>
    11e2:	80 91 38 01 	lds	r24, 0x0138
    11e6:	90 91 39 01 	lds	r25, 0x0139
    11ea:	0e 94 ba 08 	call	0x1174	; 0x1174 <avrSerialPrint>
    11ee:	20 96       	adiw	r28, 0x00	; 0
    11f0:	e2 e0       	ldi	r30, 0x02	; 2
    11f2:	0c 94 f7 1d 	jmp	0x3bee	; 0x3bee <__epilogue_restores__+0x20>

000011f6 <avrSerialPrintf>:
    11f6:	a0 e0       	ldi	r26, 0x00	; 0
    11f8:	b0 e0       	ldi	r27, 0x00	; 0
    11fa:	e1 e0       	ldi	r30, 0x01	; 1
    11fc:	f9 e0       	ldi	r31, 0x09	; 9
    11fe:	0c 94 db 1d 	jmp	0x3bb6	; 0x3bb6 <__prologue_saves__+0x20>
    1202:	fe 01       	movw	r30, r28
    1204:	35 96       	adiw	r30, 0x05	; 5
    1206:	41 91       	ld	r20, Z+
    1208:	51 91       	ld	r21, Z+
    120a:	80 91 38 01 	lds	r24, 0x0138
    120e:	90 91 39 01 	lds	r25, 0x0139
    1212:	60 e4       	ldi	r22, 0x40	; 64
    1214:	70 e0       	ldi	r23, 0x00	; 0
    1216:	9f 01       	movw	r18, r30
    1218:	0e 94 30 1e 	call	0x3c60	; 0x3c60 <vsnprintf>
    121c:	80 91 38 01 	lds	r24, 0x0138
    1220:	90 91 39 01 	lds	r25, 0x0139
    1224:	0e 94 ba 08 	call	0x1174	; 0x1174 <avrSerialPrint>
    1228:	20 96       	adiw	r28, 0x00	; 0
    122a:	e2 e0       	ldi	r30, 0x02	; 2
    122c:	0c 94 f7 1d 	jmp	0x3bee	; 0x3bee <__epilogue_restores__+0x20>

00001230 <avrSerialPrint_P>:
    1230:	cf 93       	push	r28
    1232:	df 93       	push	r29
    1234:	ec 01       	movw	r28, r24
    1236:	0e 94 08 1e 	call	0x3c10	; 0x3c10 <strlen_P>
    123a:	00 97       	sbiw	r24, 0x00	; 0
    123c:	d1 f0       	breq	.+52     	; 0x1272 <avrSerialPrint_P+0x42>
    123e:	20 e0       	ldi	r18, 0x00	; 0
    1240:	30 e0       	ldi	r19, 0x00	; 0
    1242:	fe 01       	movw	r30, r28
    1244:	e2 0f       	add	r30, r18
    1246:	f3 1f       	adc	r31, r19
    1248:	2f 5f       	subi	r18, 0xFF	; 255
    124a:	3f 4f       	sbci	r19, 0xFF	; 255
    124c:	e4 91       	lpm	r30, Z+
    124e:	40 91 c0 00 	lds	r20, 0x00C0
    1252:	45 fd       	sbrc	r20, 5
    1254:	09 c0       	rjmp	.+18     	; 0x1268 <avrSerialPrint_P+0x38>
    1256:	a9 e9       	ldi	r26, 0x99	; 153
    1258:	b5 e1       	ldi	r27, 0x15	; 21
    125a:	11 97       	sbiw	r26, 0x01	; 1
    125c:	f1 f7       	brne	.-4      	; 0x125a <avrSerialPrint_P+0x2a>
    125e:	00 c0       	rjmp	.+0      	; 0x1260 <avrSerialPrint_P+0x30>
    1260:	40 91 c0 00 	lds	r20, 0x00C0
    1264:	45 ff       	sbrs	r20, 5
    1266:	f7 cf       	rjmp	.-18     	; 0x1256 <avrSerialPrint_P+0x26>
    1268:	e0 93 c6 00 	sts	0x00C6, r30
    126c:	28 17       	cp	r18, r24
    126e:	39 07       	cpc	r19, r25
    1270:	40 f3       	brcs	.-48     	; 0x1242 <avrSerialPrint_P+0x12>
    1272:	df 91       	pop	r29
    1274:	cf 91       	pop	r28
    1276:	08 95       	ret

00001278 <avrSerialWrite>:
    1278:	05 c0       	rjmp	.+10     	; 0x1284 <avrSerialWrite+0xc>
    127a:	e9 e9       	ldi	r30, 0x99	; 153
    127c:	f5 e1       	ldi	r31, 0x15	; 21
    127e:	31 97       	sbiw	r30, 0x01	; 1
    1280:	f1 f7       	brne	.-4      	; 0x127e <avrSerialWrite+0x6>
    1282:	00 c0       	rjmp	.+0      	; 0x1284 <avrSerialWrite+0xc>
    1284:	90 91 c0 00 	lds	r25, 0x00C0
    1288:	95 ff       	sbrs	r25, 5
    128a:	f7 cf       	rjmp	.-18     	; 0x127a <avrSerialWrite+0x2>
    128c:	80 93 c6 00 	sts	0x00C6, r24
    1290:	08 95       	ret

00001292 <avrSerialRead>:
    1292:	05 c0       	rjmp	.+10     	; 0x129e <avrSerialRead+0xc>
    1294:	89 e9       	ldi	r24, 0x99	; 153
    1296:	95 e1       	ldi	r25, 0x15	; 21
    1298:	01 97       	sbiw	r24, 0x01	; 1
    129a:	f1 f7       	brne	.-4      	; 0x1298 <avrSerialRead+0x6>
    129c:	00 c0       	rjmp	.+0      	; 0x129e <avrSerialRead+0xc>
    129e:	80 91 c0 00 	lds	r24, 0x00C0
    12a2:	87 ff       	sbrs	r24, 7
    12a4:	f7 cf       	rjmp	.-18     	; 0x1294 <avrSerialRead+0x2>
    12a6:	20 91 c0 00 	lds	r18, 0x00C0
    12aa:	2c 71       	andi	r18, 0x1C	; 28
    12ac:	19 f4       	brne	.+6      	; 0x12b4 <avrSerialRead+0x22>
    12ae:	80 91 c6 00 	lds	r24, 0x00C6
    12b2:	08 95       	ret
    12b4:	8f ef       	ldi	r24, 0xFF	; 255
    12b6:	08 95       	ret

000012b8 <avrSerialCheckRxComplete>:
    12b8:	80 91 c0 00 	lds	r24, 0x00C0
    12bc:	80 78       	andi	r24, 0x80	; 128
    12be:	08 95       	ret

000012c0 <avrSerialCheckTxReady>:
    12c0:	80 91 c0 00 	lds	r24, 0x00C0
    12c4:	80 72       	andi	r24, 0x20	; 32
    12c6:	08 95       	ret

000012c8 <__vector_18>:
    12c8:	1f 92       	push	r1
    12ca:	0f 92       	push	r0
    12cc:	0f b6       	in	r0, 0x3f	; 63
    12ce:	0f 92       	push	r0
    12d0:	11 24       	eor	r1, r1
    12d2:	2f 93       	push	r18
    12d4:	3f 93       	push	r19
    12d6:	4f 93       	push	r20
    12d8:	5f 93       	push	r21
    12da:	6f 93       	push	r22
    12dc:	7f 93       	push	r23
    12de:	8f 93       	push	r24
    12e0:	9f 93       	push	r25
    12e2:	af 93       	push	r26
    12e4:	bf 93       	push	r27
    12e6:	ef 93       	push	r30
    12e8:	ff 93       	push	r31
    12ea:	df 93       	push	r29
    12ec:	cf 93       	push	r28
    12ee:	00 d0       	rcall	.+0      	; 0x12f0 <__vector_18+0x28>
    12f0:	cd b7       	in	r28, 0x3d	; 61
    12f2:	de b7       	in	r29, 0x3e	; 62
    12f4:	19 82       	std	Y+1, r1	; 0x01
    12f6:	80 91 c0 00 	lds	r24, 0x00C0
    12fa:	8c 71       	andi	r24, 0x1C	; 28
    12fc:	49 f1       	breq	.+82     	; 0x1350 <__vector_18+0x88>
    12fe:	2f ef       	ldi	r18, 0xFF	; 255
    1300:	2a 83       	std	Y+2, r18	; 0x02
    1302:	80 91 36 01 	lds	r24, 0x0136
    1306:	90 91 37 01 	lds	r25, 0x0137
    130a:	be 01       	movw	r22, r28
    130c:	6e 5f       	subi	r22, 0xFE	; 254
    130e:	7f 4f       	sbci	r23, 0xFF	; 255
    1310:	ae 01       	movw	r20, r28
    1312:	4f 5f       	subi	r20, 0xFF	; 255
    1314:	5f 4f       	sbci	r21, 0xFF	; 255
    1316:	20 e0       	ldi	r18, 0x00	; 0
    1318:	0e 94 59 12 	call	0x24b2	; 0x24b2 <xQueueGenericSendFromISR>
    131c:	89 81       	ldd	r24, Y+1	; 0x01
    131e:	88 23       	and	r24, r24
    1320:	11 f0       	breq	.+4      	; 0x1326 <__vector_18+0x5e>
    1322:	0e 94 bd 1a 	call	0x357a	; 0x357a <vPortYield>
    1326:	0f 90       	pop	r0
    1328:	0f 90       	pop	r0
    132a:	cf 91       	pop	r28
    132c:	df 91       	pop	r29
    132e:	ff 91       	pop	r31
    1330:	ef 91       	pop	r30
    1332:	bf 91       	pop	r27
    1334:	af 91       	pop	r26
    1336:	9f 91       	pop	r25
    1338:	8f 91       	pop	r24
    133a:	7f 91       	pop	r23
    133c:	6f 91       	pop	r22
    133e:	5f 91       	pop	r21
    1340:	4f 91       	pop	r20
    1342:	3f 91       	pop	r19
    1344:	2f 91       	pop	r18
    1346:	0f 90       	pop	r0
    1348:	0f be       	out	0x3f, r0	; 63
    134a:	0f 90       	pop	r0
    134c:	1f 90       	pop	r1
    134e:	18 95       	reti
    1350:	30 91 c6 00 	lds	r19, 0x00C6
    1354:	3a 83       	std	Y+2, r19	; 0x02
    1356:	d5 cf       	rjmp	.-86     	; 0x1302 <__vector_18+0x3a>

00001358 <__vector_19>:
    1358:	1f 92       	push	r1
    135a:	0f 92       	push	r0
    135c:	0f b6       	in	r0, 0x3f	; 63
    135e:	0f 92       	push	r0
    1360:	11 24       	eor	r1, r1
    1362:	2f 93       	push	r18
    1364:	3f 93       	push	r19
    1366:	4f 93       	push	r20
    1368:	5f 93       	push	r21
    136a:	6f 93       	push	r22
    136c:	7f 93       	push	r23
    136e:	8f 93       	push	r24
    1370:	9f 93       	push	r25
    1372:	af 93       	push	r26
    1374:	bf 93       	push	r27
    1376:	ef 93       	push	r30
    1378:	ff 93       	push	r31
    137a:	df 93       	push	r29
    137c:	cf 93       	push	r28
    137e:	00 d0       	rcall	.+0      	; 0x1380 <__vector_19+0x28>
    1380:	cd b7       	in	r28, 0x3d	; 61
    1382:	de b7       	in	r29, 0x3e	; 62
    1384:	80 91 34 01 	lds	r24, 0x0134
    1388:	90 91 35 01 	lds	r25, 0x0135
    138c:	be 01       	movw	r22, r28
    138e:	6f 5f       	subi	r22, 0xFF	; 255
    1390:	7f 4f       	sbci	r23, 0xFF	; 255
    1392:	ae 01       	movw	r20, r28
    1394:	4e 5f       	subi	r20, 0xFE	; 254
    1396:	5f 4f       	sbci	r21, 0xFF	; 255
    1398:	0e 94 a0 13 	call	0x2740	; 0x2740 <xQueueReceiveFromISR>
    139c:	81 30       	cpi	r24, 0x01	; 1
    139e:	d1 f0       	breq	.+52     	; 0x13d4 <__vector_19+0x7c>
    13a0:	20 91 c1 00 	lds	r18, 0x00C1
    13a4:	2f 7d       	andi	r18, 0xDF	; 223
    13a6:	20 93 c1 00 	sts	0x00C1, r18
    13aa:	0f 90       	pop	r0
    13ac:	0f 90       	pop	r0
    13ae:	cf 91       	pop	r28
    13b0:	df 91       	pop	r29
    13b2:	ff 91       	pop	r31
    13b4:	ef 91       	pop	r30
    13b6:	bf 91       	pop	r27
    13b8:	af 91       	pop	r26
    13ba:	9f 91       	pop	r25
    13bc:	8f 91       	pop	r24
    13be:	7f 91       	pop	r23
    13c0:	6f 91       	pop	r22
    13c2:	5f 91       	pop	r21
    13c4:	4f 91       	pop	r20
    13c6:	3f 91       	pop	r19
    13c8:	2f 91       	pop	r18
    13ca:	0f 90       	pop	r0
    13cc:	0f be       	out	0x3f, r0	; 63
    13ce:	0f 90       	pop	r0
    13d0:	1f 90       	pop	r1
    13d2:	18 95       	reti
    13d4:	89 81       	ldd	r24, Y+1	; 0x01
    13d6:	80 93 c6 00 	sts	0x00C6, r24
    13da:	e7 cf       	rjmp	.-50     	; 0x13aa <__vector_19+0x52>

000013dc <getDateTimeDS1307>:
    13dc:	a2 e0       	ldi	r26, 0x02	; 2
    13de:	b0 e0       	ldi	r27, 0x00	; 0
    13e0:	e4 ef       	ldi	r30, 0xF4	; 244
    13e2:	f9 e0       	ldi	r31, 0x09	; 9
    13e4:	0c 94 d7 1d 	jmp	0x3bae	; 0x3bae <__prologue_saves__+0x18>
    13e8:	8c 01       	movw	r16, r24
    13ea:	80 91 b4 07 	lds	r24, 0x07B4
    13ee:	90 91 b5 07 	lds	r25, 0x07B5
    13f2:	00 97       	sbiw	r24, 0x00	; 0
    13f4:	49 f0       	breq	.+18     	; 0x1408 <getDateTimeDS1307+0x2c>
    13f6:	60 e0       	ldi	r22, 0x00	; 0
    13f8:	70 e0       	ldi	r23, 0x00	; 0
    13fa:	4a e0       	ldi	r20, 0x0A	; 10
    13fc:	50 e0       	ldi	r21, 0x00	; 0
    13fe:	20 e0       	ldi	r18, 0x00	; 0
    1400:	0e 94 87 12 	call	0x250e	; 0x250e <xQueueGenericReceive>
    1404:	81 30       	cpi	r24, 0x01	; 1
    1406:	29 f0       	breq	.+10     	; 0x1412 <getDateTimeDS1307+0x36>
    1408:	81 e0       	ldi	r24, 0x01	; 1
    140a:	22 96       	adiw	r28, 0x02	; 2
    140c:	e6 e0       	ldi	r30, 0x06	; 6
    140e:	0c 94 f3 1d 	jmp	0x3be6	; 0x3be6 <__epilogue_restores__+0x18>
    1412:	80 ed       	ldi	r24, 0xD0	; 208
    1414:	89 83       	std	Y+1, r24	; 0x01
    1416:	1a 82       	std	Y+2, r1	; 0x02
    1418:	0e 94 ed 0b 	call	0x17da	; 0x17da <I2C_Check_Free_After_Stop>
    141c:	81 30       	cpi	r24, 0x01	; 1
    141e:	09 f4       	brne	.+2      	; 0x1422 <getDateTimeDS1307+0x46>
    1420:	7a c0       	rjmp	.+244    	; 0x1516 <getDateTimeDS1307+0x13a>
    1422:	21 ed       	ldi	r18, 0xD1	; 209
    1424:	f8 01       	movw	r30, r16
    1426:	20 83       	st	Z, r18
    1428:	0e 94 ed 0b 	call	0x17da	; 0x17da <I2C_Check_Free_After_Stop>
    142c:	81 30       	cpi	r24, 0x01	; 1
    142e:	09 f4       	brne	.+2      	; 0x1432 <getDateTimeDS1307+0x56>
    1430:	78 c0       	rjmp	.+240    	; 0x1522 <getDateTimeDS1307+0x146>
    1432:	78 01       	movw	r14, r16
    1434:	c7 01       	movw	r24, r14
    1436:	69 e0       	ldi	r22, 0x09	; 9
    1438:	0e 94 d1 0b 	call	0x17a2	; 0x17a2 <I2C_Master_Get_Data_From_Transceiver>
    143c:	88 23       	and	r24, r24
    143e:	69 f4       	brne	.+26     	; 0x145a <getDateTimeDS1307+0x7e>
    1440:	80 91 b4 07 	lds	r24, 0x07B4
    1444:	90 91 b5 07 	lds	r25, 0x07B5
    1448:	60 e0       	ldi	r22, 0x00	; 0
    144a:	70 e0       	ldi	r23, 0x00	; 0
    144c:	40 e0       	ldi	r20, 0x00	; 0
    144e:	50 e0       	ldi	r21, 0x00	; 0
    1450:	20 e0       	ldi	r18, 0x00	; 0
    1452:	0e 94 4e 11 	call	0x229c	; 0x229c <xQueueGenericSend>
    1456:	80 e0       	ldi	r24, 0x00	; 0
    1458:	d8 cf       	rjmp	.-80     	; 0x140a <getDateTimeDS1307+0x2e>
    145a:	f8 01       	movw	r30, r16
    145c:	21 81       	ldd	r18, Z+1	; 0x01
    145e:	92 2f       	mov	r25, r18
    1460:	96 95       	lsr	r25
    1462:	96 95       	lsr	r25
    1464:	96 95       	lsr	r25
    1466:	9e 70       	andi	r25, 0x0E	; 14
    1468:	89 2f       	mov	r24, r25
    146a:	88 0f       	add	r24, r24
    146c:	88 0f       	add	r24, r24
    146e:	89 0f       	add	r24, r25
    1470:	2f 70       	andi	r18, 0x0F	; 15
    1472:	82 0f       	add	r24, r18
    1474:	81 83       	std	Z+1, r24	; 0x01
    1476:	22 81       	ldd	r18, Z+2	; 0x02
    1478:	92 2f       	mov	r25, r18
    147a:	96 95       	lsr	r25
    147c:	96 95       	lsr	r25
    147e:	96 95       	lsr	r25
    1480:	9e 70       	andi	r25, 0x0E	; 14
    1482:	89 2f       	mov	r24, r25
    1484:	88 0f       	add	r24, r24
    1486:	88 0f       	add	r24, r24
    1488:	89 0f       	add	r24, r25
    148a:	2f 70       	andi	r18, 0x0F	; 15
    148c:	82 0f       	add	r24, r18
    148e:	82 83       	std	Z+2, r24	; 0x02
    1490:	23 81       	ldd	r18, Z+3	; 0x03
    1492:	92 2f       	mov	r25, r18
    1494:	96 95       	lsr	r25
    1496:	96 95       	lsr	r25
    1498:	96 95       	lsr	r25
    149a:	96 70       	andi	r25, 0x06	; 6
    149c:	89 2f       	mov	r24, r25
    149e:	88 0f       	add	r24, r24
    14a0:	88 0f       	add	r24, r24
    14a2:	89 0f       	add	r24, r25
    14a4:	2f 70       	andi	r18, 0x0F	; 15
    14a6:	82 0f       	add	r24, r18
    14a8:	83 83       	std	Z+3, r24	; 0x03
    14aa:	84 81       	ldd	r24, Z+4	; 0x04
    14ac:	87 70       	andi	r24, 0x07	; 7
    14ae:	84 83       	std	Z+4, r24	; 0x04
    14b0:	25 81       	ldd	r18, Z+5	; 0x05
    14b2:	92 2f       	mov	r25, r18
    14b4:	96 95       	lsr	r25
    14b6:	96 95       	lsr	r25
    14b8:	96 95       	lsr	r25
    14ba:	96 70       	andi	r25, 0x06	; 6
    14bc:	89 2f       	mov	r24, r25
    14be:	88 0f       	add	r24, r24
    14c0:	88 0f       	add	r24, r24
    14c2:	89 0f       	add	r24, r25
    14c4:	2f 70       	andi	r18, 0x0F	; 15
    14c6:	82 0f       	add	r24, r18
    14c8:	85 83       	std	Z+5, r24	; 0x05
    14ca:	26 81       	ldd	r18, Z+6	; 0x06
    14cc:	92 2f       	mov	r25, r18
    14ce:	96 95       	lsr	r25
    14d0:	96 95       	lsr	r25
    14d2:	96 95       	lsr	r25
    14d4:	92 70       	andi	r25, 0x02	; 2
    14d6:	89 2f       	mov	r24, r25
    14d8:	88 0f       	add	r24, r24
    14da:	88 0f       	add	r24, r24
    14dc:	89 0f       	add	r24, r25
    14de:	2f 70       	andi	r18, 0x0F	; 15
    14e0:	82 0f       	add	r24, r18
    14e2:	86 83       	std	Z+6, r24	; 0x06
    14e4:	27 81       	ldd	r18, Z+7	; 0x07
    14e6:	92 2f       	mov	r25, r18
    14e8:	92 95       	swap	r25
    14ea:	9f 70       	andi	r25, 0x0F	; 15
    14ec:	99 0f       	add	r25, r25
    14ee:	89 2f       	mov	r24, r25
    14f0:	88 0f       	add	r24, r24
    14f2:	88 0f       	add	r24, r24
    14f4:	89 0f       	add	r24, r25
    14f6:	2f 70       	andi	r18, 0x0F	; 15
    14f8:	82 0f       	add	r24, r18
    14fa:	87 83       	std	Z+7, r24	; 0x07
    14fc:	80 91 b4 07 	lds	r24, 0x07B4
    1500:	90 91 b5 07 	lds	r25, 0x07B5
    1504:	60 e0       	ldi	r22, 0x00	; 0
    1506:	70 e0       	ldi	r23, 0x00	; 0
    1508:	40 e0       	ldi	r20, 0x00	; 0
    150a:	50 e0       	ldi	r21, 0x00	; 0
    150c:	20 e0       	ldi	r18, 0x00	; 0
    150e:	0e 94 4e 11 	call	0x229c	; 0x229c <xQueueGenericSend>
    1512:	81 e0       	ldi	r24, 0x01	; 1
    1514:	7a cf       	rjmp	.-268    	; 0x140a <getDateTimeDS1307+0x2e>
    1516:	ce 01       	movw	r24, r28
    1518:	01 96       	adiw	r24, 0x01	; 1
    151a:	62 e0       	ldi	r22, 0x02	; 2
    151c:	0e 94 8e 0b 	call	0x171c	; 0x171c <I2C_Master_Start_Transceiver_With_Data>
    1520:	80 cf       	rjmp	.-256    	; 0x1422 <getDateTimeDS1307+0x46>
    1522:	78 01       	movw	r14, r16
    1524:	c8 01       	movw	r24, r16
    1526:	69 e0       	ldi	r22, 0x09	; 9
    1528:	0e 94 8e 0b 	call	0x171c	; 0x171c <I2C_Master_Start_Transceiver_With_Data>
    152c:	83 cf       	rjmp	.-250    	; 0x1434 <getDateTimeDS1307+0x58>

0000152e <setDateTimeDS1307>:
    152e:	cf 93       	push	r28
    1530:	df 93       	push	r29
    1532:	ec 01       	movw	r28, r24
    1534:	80 91 b4 07 	lds	r24, 0x07B4
    1538:	90 91 b5 07 	lds	r25, 0x07B5
    153c:	00 97       	sbiw	r24, 0x00	; 0
    153e:	49 f0       	breq	.+18     	; 0x1552 <setDateTimeDS1307+0x24>
    1540:	60 e0       	ldi	r22, 0x00	; 0
    1542:	70 e0       	ldi	r23, 0x00	; 0
    1544:	4a e0       	ldi	r20, 0x0A	; 10
    1546:	50 e0       	ldi	r21, 0x00	; 0
    1548:	20 e0       	ldi	r18, 0x00	; 0
    154a:	0e 94 87 12 	call	0x250e	; 0x250e <xQueueGenericReceive>
    154e:	81 30       	cpi	r24, 0x01	; 1
    1550:	21 f0       	breq	.+8      	; 0x155a <setDateTimeDS1307+0x2c>
    1552:	81 e0       	ldi	r24, 0x01	; 1
    1554:	df 91       	pop	r29
    1556:	cf 91       	pop	r28
    1558:	08 95       	ret
    155a:	30 ed       	ldi	r19, 0xD0	; 208
    155c:	38 83       	st	Y, r19
    155e:	19 82       	std	Y+1, r1	; 0x01
    1560:	8a 81       	ldd	r24, Y+2	; 0x02
    1562:	2a e0       	ldi	r18, 0x0A	; 10
    1564:	62 2f       	mov	r22, r18
    1566:	0e 94 9d 1d 	call	0x3b3a	; 0x3b3a <__udivmodqi4>
    156a:	82 95       	swap	r24
    156c:	80 7f       	andi	r24, 0xF0	; 240
    156e:	89 0f       	add	r24, r25
    1570:	8a 83       	std	Y+2, r24	; 0x02
    1572:	8b 81       	ldd	r24, Y+3	; 0x03
    1574:	0e 94 9d 1d 	call	0x3b3a	; 0x3b3a <__udivmodqi4>
    1578:	82 95       	swap	r24
    157a:	80 7f       	andi	r24, 0xF0	; 240
    157c:	89 0f       	add	r24, r25
    157e:	8b 83       	std	Y+3, r24	; 0x03
    1580:	8c 81       	ldd	r24, Y+4	; 0x04
    1582:	0e 94 9d 1d 	call	0x3b3a	; 0x3b3a <__udivmodqi4>
    1586:	82 95       	swap	r24
    1588:	80 7f       	andi	r24, 0xF0	; 240
    158a:	89 0f       	add	r24, r25
    158c:	8c 83       	std	Y+4, r24	; 0x04
    158e:	8d 81       	ldd	r24, Y+5	; 0x05
    1590:	0e 94 9d 1d 	call	0x3b3a	; 0x3b3a <__udivmodqi4>
    1594:	82 95       	swap	r24
    1596:	80 7f       	andi	r24, 0xF0	; 240
    1598:	89 0f       	add	r24, r25
    159a:	8d 83       	std	Y+5, r24	; 0x05
    159c:	8e 81       	ldd	r24, Y+6	; 0x06
    159e:	0e 94 9d 1d 	call	0x3b3a	; 0x3b3a <__udivmodqi4>
    15a2:	82 95       	swap	r24
    15a4:	80 7f       	andi	r24, 0xF0	; 240
    15a6:	89 0f       	add	r24, r25
    15a8:	8e 83       	std	Y+6, r24	; 0x06
    15aa:	8f 81       	ldd	r24, Y+7	; 0x07
    15ac:	0e 94 9d 1d 	call	0x3b3a	; 0x3b3a <__udivmodqi4>
    15b0:	82 95       	swap	r24
    15b2:	80 7f       	andi	r24, 0xF0	; 240
    15b4:	89 0f       	add	r24, r25
    15b6:	8f 83       	std	Y+7, r24	; 0x07
    15b8:	88 85       	ldd	r24, Y+8	; 0x08
    15ba:	0e 94 9d 1d 	call	0x3b3a	; 0x3b3a <__udivmodqi4>
    15be:	82 95       	swap	r24
    15c0:	80 7f       	andi	r24, 0xF0	; 240
    15c2:	89 0f       	add	r24, r25
    15c4:	88 87       	std	Y+8, r24	; 0x08
    15c6:	80 e1       	ldi	r24, 0x10	; 16
    15c8:	89 87       	std	Y+9, r24	; 0x09
    15ca:	0e 94 ed 0b 	call	0x17da	; 0x17da <I2C_Check_Free_After_Stop>
    15ce:	81 30       	cpi	r24, 0x01	; 1
    15d0:	79 f0       	breq	.+30     	; 0x15f0 <setDateTimeDS1307+0xc2>
    15d2:	80 91 b4 07 	lds	r24, 0x07B4
    15d6:	90 91 b5 07 	lds	r25, 0x07B5
    15da:	60 e0       	ldi	r22, 0x00	; 0
    15dc:	70 e0       	ldi	r23, 0x00	; 0
    15de:	40 e0       	ldi	r20, 0x00	; 0
    15e0:	50 e0       	ldi	r21, 0x00	; 0
    15e2:	20 e0       	ldi	r18, 0x00	; 0
    15e4:	0e 94 4e 11 	call	0x229c	; 0x229c <xQueueGenericSend>
    15e8:	80 e0       	ldi	r24, 0x00	; 0
    15ea:	df 91       	pop	r29
    15ec:	cf 91       	pop	r28
    15ee:	08 95       	ret
    15f0:	ce 01       	movw	r24, r28
    15f2:	6a e0       	ldi	r22, 0x0A	; 10
    15f4:	0e 94 8e 0b 	call	0x171c	; 0x171c <I2C_Master_Start_Transceiver_With_Data>
    15f8:	80 91 b4 07 	lds	r24, 0x07B4
    15fc:	90 91 b5 07 	lds	r25, 0x07B5
    1600:	60 e0       	ldi	r22, 0x00	; 0
    1602:	70 e0       	ldi	r23, 0x00	; 0
    1604:	40 e0       	ldi	r20, 0x00	; 0
    1606:	50 e0       	ldi	r21, 0x00	; 0
    1608:	20 e0       	ldi	r18, 0x00	; 0
    160a:	0e 94 4e 11 	call	0x229c	; 0x229c <xQueueGenericSend>
    160e:	81 e0       	ldi	r24, 0x01	; 1
    1610:	a1 cf       	rjmp	.-190    	; 0x1554 <setDateTimeDS1307+0x26>

00001612 <I2C_Slave_Initialise>:
    1612:	1f 93       	push	r17
    1614:	18 2f       	mov	r17, r24
    1616:	81 e0       	ldi	r24, 0x01	; 1
    1618:	60 e0       	ldi	r22, 0x00	; 0
    161a:	43 e0       	ldi	r20, 0x03	; 3
    161c:	0e 94 d9 10 	call	0x21b2	; 0x21b2 <xQueueGenericCreate>
    1620:	90 93 b5 07 	sts	0x07B5, r25
    1624:	80 93 b4 07 	sts	0x07B4, r24
    1628:	00 97       	sbiw	r24, 0x00	; 0
    162a:	39 f0       	breq	.+14     	; 0x163a <I2C_Slave_Initialise+0x28>
    162c:	60 e0       	ldi	r22, 0x00	; 0
    162e:	70 e0       	ldi	r23, 0x00	; 0
    1630:	40 e0       	ldi	r20, 0x00	; 0
    1632:	50 e0       	ldi	r21, 0x00	; 0
    1634:	20 e0       	ldi	r18, 0x00	; 0
    1636:	0e 94 4e 11 	call	0x229c	; 0x229c <xQueueGenericSend>
    163a:	37 b1       	in	r19, 0x07	; 7
    163c:	3f 7c       	andi	r19, 0xCF	; 207
    163e:	37 b9       	out	0x07, r19	; 7
    1640:	28 b1       	in	r18, 0x08	; 8
    1642:	20 63       	ori	r18, 0x30	; 48
    1644:	28 b9       	out	0x08, r18	; 8
    1646:	10 93 ba 00 	sts	0x00BA, r17
    164a:	1f ef       	ldi	r17, 0xFF	; 255
    164c:	10 93 bb 00 	sts	0x00BB, r17
    1650:	84 e0       	ldi	r24, 0x04	; 4
    1652:	80 93 bc 00 	sts	0x00BC, r24
    1656:	1f 91       	pop	r17
    1658:	08 95       	ret

0000165a <I2C_Master_Initialise>:
    165a:	1f 93       	push	r17
    165c:	18 2f       	mov	r17, r24
    165e:	81 e0       	ldi	r24, 0x01	; 1
    1660:	60 e0       	ldi	r22, 0x00	; 0
    1662:	43 e0       	ldi	r20, 0x03	; 3
    1664:	0e 94 d9 10 	call	0x21b2	; 0x21b2 <xQueueGenericCreate>
    1668:	90 93 b5 07 	sts	0x07B5, r25
    166c:	80 93 b4 07 	sts	0x07B4, r24
    1670:	00 97       	sbiw	r24, 0x00	; 0
    1672:	39 f0       	breq	.+14     	; 0x1682 <I2C_Master_Initialise+0x28>
    1674:	60 e0       	ldi	r22, 0x00	; 0
    1676:	70 e0       	ldi	r23, 0x00	; 0
    1678:	40 e0       	ldi	r20, 0x00	; 0
    167a:	50 e0       	ldi	r21, 0x00	; 0
    167c:	20 e0       	ldi	r18, 0x00	; 0
    167e:	0e 94 4e 11 	call	0x229c	; 0x229c <xQueueGenericSend>
    1682:	47 b1       	in	r20, 0x07	; 7
    1684:	4f 7c       	andi	r20, 0xCF	; 207
    1686:	47 b9       	out	0x07, r20	; 7
    1688:	38 b1       	in	r19, 0x08	; 8
    168a:	30 63       	ori	r19, 0x30	; 48
    168c:	38 b9       	out	0x08, r19	; 8
    168e:	10 92 b9 00 	sts	0x00B9, r1
    1692:	26 e6       	ldi	r18, 0x66	; 102
    1694:	20 93 b8 00 	sts	0x00B8, r18
    1698:	10 93 ba 00 	sts	0x00BA, r17
    169c:	1f ef       	ldi	r17, 0xFF	; 255
    169e:	10 93 bb 00 	sts	0x00BB, r17
    16a2:	84 e0       	ldi	r24, 0x04	; 4
    16a4:	80 93 bc 00 	sts	0x00BC, r24
    16a8:	1f 91       	pop	r17
    16aa:	08 95       	ret

000016ac <I2C_Slave_Start_Transceiver>:
    16ac:	80 91 bc 00 	lds	r24, 0x00BC
    16b0:	80 fd       	sbrc	r24, 0
    16b2:	fc cf       	rjmp	.-8      	; 0x16ac <I2C_Slave_Start_Transceiver>
    16b4:	10 92 3a 01 	sts	0x013A, r1
    16b8:	38 ef       	ldi	r19, 0xF8	; 248
    16ba:	30 93 29 01 	sts	0x0129, r19
    16be:	25 ec       	ldi	r18, 0xC5	; 197
    16c0:	20 93 bc 00 	sts	0x00BC, r18
    16c4:	08 95       	ret

000016c6 <I2C_Master_Start_Transceiver>:
    16c6:	80 91 bc 00 	lds	r24, 0x00BC
    16ca:	80 fd       	sbrc	r24, 0
    16cc:	fc cf       	rjmp	.-8      	; 0x16c6 <I2C_Master_Start_Transceiver>
    16ce:	10 92 3a 01 	sts	0x013A, r1
    16d2:	38 ef       	ldi	r19, 0xF8	; 248
    16d4:	30 93 29 01 	sts	0x0129, r19
    16d8:	25 ee       	ldi	r18, 0xE5	; 229
    16da:	20 93 bc 00 	sts	0x00BC, r18
    16de:	08 95       	ret

000016e0 <I2C_Slave_Start_Transceiver_With_Data>:
    16e0:	20 91 bc 00 	lds	r18, 0x00BC
    16e4:	20 fd       	sbrc	r18, 0
    16e6:	fc cf       	rjmp	.-8      	; 0x16e0 <I2C_Slave_Start_Transceiver_With_Data>
    16e8:	60 93 3b 01 	sts	0x013B, r22
    16ec:	66 23       	and	r22, r22
    16ee:	69 f0       	breq	.+26     	; 0x170a <I2C_Slave_Start_Transceiver_With_Data+0x2a>
    16f0:	a8 2f       	mov	r26, r24
    16f2:	b9 2f       	mov	r27, r25
    16f4:	ec e3       	ldi	r30, 0x3C	; 60
    16f6:	f1 e0       	ldi	r31, 0x01	; 1
    16f8:	61 50       	subi	r22, 0x01	; 1
    16fa:	70 e0       	ldi	r23, 0x00	; 0
    16fc:	63 5c       	subi	r22, 0xC3	; 195
    16fe:	7e 4f       	sbci	r23, 0xFE	; 254
    1700:	8d 91       	ld	r24, X+
    1702:	81 93       	st	Z+, r24
    1704:	e6 17       	cp	r30, r22
    1706:	f7 07       	cpc	r31, r23
    1708:	d9 f7       	brne	.-10     	; 0x1700 <I2C_Slave_Start_Transceiver_With_Data+0x20>
    170a:	10 92 3a 01 	sts	0x013A, r1
    170e:	68 ef       	ldi	r22, 0xF8	; 248
    1710:	60 93 29 01 	sts	0x0129, r22
    1714:	55 ec       	ldi	r21, 0xC5	; 197
    1716:	50 93 bc 00 	sts	0x00BC, r21
    171a:	08 95       	ret

0000171c <I2C_Master_Start_Transceiver_With_Data>:
    171c:	fc 01       	movw	r30, r24
    171e:	80 91 bc 00 	lds	r24, 0x00BC
    1722:	80 fd       	sbrc	r24, 0
    1724:	fc cf       	rjmp	.-8      	; 0x171e <I2C_Master_Start_Transceiver_With_Data+0x2>
    1726:	60 93 3b 01 	sts	0x013B, r22
    172a:	30 81       	ld	r19, Z
    172c:	30 93 3c 01 	sts	0x013C, r19
    1730:	20 81       	ld	r18, Z
    1732:	20 fd       	sbrc	r18, 0
    1734:	0e c0       	rjmp	.+28     	; 0x1752 <I2C_Master_Start_Transceiver_With_Data+0x36>
    1736:	62 30       	cpi	r22, 0x02	; 2
    1738:	60 f0       	brcs	.+24     	; 0x1752 <I2C_Master_Start_Transceiver_With_Data+0x36>
    173a:	31 96       	adiw	r30, 0x01	; 1
    173c:	ad e3       	ldi	r26, 0x3D	; 61
    173e:	b1 e0       	ldi	r27, 0x01	; 1
    1740:	62 50       	subi	r22, 0x02	; 2
    1742:	70 e0       	ldi	r23, 0x00	; 0
    1744:	62 5c       	subi	r22, 0xC2	; 194
    1746:	7e 4f       	sbci	r23, 0xFE	; 254
    1748:	41 91       	ld	r20, Z+
    174a:	4d 93       	st	X+, r20
    174c:	a6 17       	cp	r26, r22
    174e:	b7 07       	cpc	r27, r23
    1750:	d9 f7       	brne	.-10     	; 0x1748 <I2C_Master_Start_Transceiver_With_Data+0x2c>
    1752:	10 92 3a 01 	sts	0x013A, r1
    1756:	68 ef       	ldi	r22, 0xF8	; 248
    1758:	60 93 29 01 	sts	0x0129, r22
    175c:	55 ea       	ldi	r21, 0xA5	; 165
    175e:	50 93 bc 00 	sts	0x00BC, r21
    1762:	08 95       	ret

00001764 <I2C_Slave_Get_Data_From_Transceiver>:
    1764:	20 91 bc 00 	lds	r18, 0x00BC
    1768:	20 fd       	sbrc	r18, 0
    176a:	fc cf       	rjmp	.-8      	; 0x1764 <I2C_Slave_Get_Data_From_Transceiver>
    176c:	20 91 3a 01 	lds	r18, 0x013A
    1770:	20 ff       	sbrs	r18, 0
    1772:	14 c0       	rjmp	.+40     	; 0x179c <I2C_Slave_Get_Data_From_Transceiver+0x38>
    1774:	66 23       	and	r22, r22
    1776:	79 f0       	breq	.+30     	; 0x1796 <I2C_Slave_Get_Data_From_Transceiver+0x32>
    1778:	ec e3       	ldi	r30, 0x3C	; 60
    177a:	f1 e0       	ldi	r31, 0x01	; 1
    177c:	a8 2f       	mov	r26, r24
    177e:	b9 2f       	mov	r27, r25
    1780:	61 50       	subi	r22, 0x01	; 1
    1782:	70 e0       	ldi	r23, 0x00	; 0
    1784:	63 5c       	subi	r22, 0xC3	; 195
    1786:	7e 4f       	sbci	r23, 0xFE	; 254
    1788:	81 91       	ld	r24, Z+
    178a:	8d 93       	st	X+, r24
    178c:	e6 17       	cp	r30, r22
    178e:	f7 07       	cpc	r31, r23
    1790:	d9 f7       	brne	.-10     	; 0x1788 <I2C_Slave_Get_Data_From_Transceiver+0x24>
    1792:	20 91 3a 01 	lds	r18, 0x013A
    1796:	2d 7f       	andi	r18, 0xFD	; 253
    1798:	20 93 3a 01 	sts	0x013A, r18
    179c:	82 2f       	mov	r24, r18
    179e:	81 70       	andi	r24, 0x01	; 1
    17a0:	08 95       	ret

000017a2 <I2C_Master_Get_Data_From_Transceiver>:
    17a2:	20 91 bc 00 	lds	r18, 0x00BC
    17a6:	20 fd       	sbrc	r18, 0
    17a8:	fc cf       	rjmp	.-8      	; 0x17a2 <I2C_Master_Get_Data_From_Transceiver>
    17aa:	20 91 3a 01 	lds	r18, 0x013A
    17ae:	20 ff       	sbrs	r18, 0
    17b0:	11 c0       	rjmp	.+34     	; 0x17d4 <I2C_Master_Get_Data_From_Transceiver+0x32>
    17b2:	66 23       	and	r22, r22
    17b4:	79 f0       	breq	.+30     	; 0x17d4 <I2C_Master_Get_Data_From_Transceiver+0x32>
    17b6:	ec e3       	ldi	r30, 0x3C	; 60
    17b8:	f1 e0       	ldi	r31, 0x01	; 1
    17ba:	a8 2f       	mov	r26, r24
    17bc:	b9 2f       	mov	r27, r25
    17be:	61 50       	subi	r22, 0x01	; 1
    17c0:	70 e0       	ldi	r23, 0x00	; 0
    17c2:	63 5c       	subi	r22, 0xC3	; 195
    17c4:	7e 4f       	sbci	r23, 0xFE	; 254
    17c6:	81 91       	ld	r24, Z+
    17c8:	8d 93       	st	X+, r24
    17ca:	e6 17       	cp	r30, r22
    17cc:	f7 07       	cpc	r31, r23
    17ce:	d9 f7       	brne	.-10     	; 0x17c6 <I2C_Master_Get_Data_From_Transceiver+0x24>
    17d0:	20 91 3a 01 	lds	r18, 0x013A
    17d4:	82 2f       	mov	r24, r18
    17d6:	81 70       	andi	r24, 0x01	; 1
    17d8:	08 95       	ret

000017da <I2C_Check_Free_After_Stop>:
    17da:	80 91 5c 01 	lds	r24, 0x015C
    17de:	88 23       	and	r24, r24
    17e0:	19 f0       	breq	.+6      	; 0x17e8 <I2C_Check_Free_After_Stop+0xe>
    17e2:	86 b1       	in	r24, 0x06	; 6
    17e4:	86 b1       	in	r24, 0x06	; 6
    17e6:	fd cf       	rjmp	.-6      	; 0x17e2 <I2C_Check_Free_After_Stop+0x8>
    17e8:	81 e0       	ldi	r24, 0x01	; 1
    17ea:	08 95       	ret

000017ec <I2C_Get_State_Info>:
    17ec:	80 91 bc 00 	lds	r24, 0x00BC
    17f0:	80 fd       	sbrc	r24, 0
    17f2:	fc cf       	rjmp	.-8      	; 0x17ec <I2C_Get_State_Info>
    17f4:	80 91 29 01 	lds	r24, 0x0129
    17f8:	08 95       	ret

000017fa <__vector_24>:
    17fa:	1f 92       	push	r1
    17fc:	0f 92       	push	r0
    17fe:	0f b6       	in	r0, 0x3f	; 63
    1800:	0f 92       	push	r0
    1802:	11 24       	eor	r1, r1
    1804:	2f 93       	push	r18
    1806:	3f 93       	push	r19
    1808:	8f 93       	push	r24
    180a:	9f 93       	push	r25
    180c:	af 93       	push	r26
    180e:	bf 93       	push	r27
    1810:	ef 93       	push	r30
    1812:	ff 93       	push	r31
    1814:	80 91 b9 00 	lds	r24, 0x00B9
    1818:	90 e0       	ldi	r25, 0x00	; 0
    181a:	08 97       	sbiw	r24, 0x08	; 8
    181c:	81 3c       	cpi	r24, 0xC1	; 193
    181e:	91 05       	cpc	r25, r1
    1820:	a0 f0       	brcs	.+40     	; 0x184a <__vector_24+0x50>
    1822:	30 91 b9 00 	lds	r19, 0x00B9
    1826:	30 93 29 01 	sts	0x0129, r19
    182a:	25 ed       	ldi	r18, 0xD5	; 213
    182c:	20 93 bc 00 	sts	0x00BC, r18
    1830:	ff 91       	pop	r31
    1832:	ef 91       	pop	r30
    1834:	bf 91       	pop	r27
    1836:	af 91       	pop	r26
    1838:	9f 91       	pop	r25
    183a:	8f 91       	pop	r24
    183c:	3f 91       	pop	r19
    183e:	2f 91       	pop	r18
    1840:	0f 90       	pop	r0
    1842:	0f be       	out	0x3f, r0	; 63
    1844:	0f 90       	pop	r0
    1846:	1f 90       	pop	r1
    1848:	18 95       	reti
    184a:	8c 5c       	subi	r24, 0xCC	; 204
    184c:	9f 4f       	sbci	r25, 0xFF	; 255
    184e:	fc 01       	movw	r30, r24
    1850:	0c 94 02 1e 	jmp	0x3c04	; 0x3c04 <__tablejump2__>
    1854:	91 e0       	ldi	r25, 0x01	; 1
    1856:	e0 e0       	ldi	r30, 0x00	; 0
    1858:	f0 e0       	ldi	r31, 0x00	; 0
    185a:	e4 5c       	subi	r30, 0xC4	; 196
    185c:	fe 4f       	sbci	r31, 0xFE	; 254
    185e:	a0 81       	ld	r26, Z
    1860:	a0 93 bb 00 	sts	0x00BB, r26
    1864:	90 93 5d 01 	sts	0x015D, r25
    1868:	f5 ec       	ldi	r31, 0xC5	; 197
    186a:	f0 93 bc 00 	sts	0x00BC, r31
    186e:	e0 cf       	rjmp	.-64     	; 0x1830 <__vector_24+0x36>
    1870:	20 91 5d 01 	lds	r18, 0x015D
    1874:	90 91 bb 00 	lds	r25, 0x00BB
    1878:	e2 2f       	mov	r30, r18
    187a:	f0 e0       	ldi	r31, 0x00	; 0
    187c:	e4 5c       	subi	r30, 0xC4	; 196
    187e:	fe 4f       	sbci	r31, 0xFE	; 254
    1880:	90 83       	st	Z, r25
    1882:	2f 5f       	subi	r18, 0xFF	; 255
    1884:	20 93 5d 01 	sts	0x015D, r18
    1888:	30 e0       	ldi	r19, 0x00	; 0
    188a:	80 91 3b 01 	lds	r24, 0x013B
    188e:	90 e0       	ldi	r25, 0x00	; 0
    1890:	01 97       	sbiw	r24, 0x01	; 1
    1892:	28 17       	cp	r18, r24
    1894:	39 07       	cpc	r19, r25
    1896:	44 f3       	brlt	.-48     	; 0x1868 <__vector_24+0x6e>
    1898:	e5 e8       	ldi	r30, 0x85	; 133
    189a:	e0 93 bc 00 	sts	0x00BC, r30
    189e:	c8 cf       	rjmp	.-112    	; 0x1830 <__vector_24+0x36>
    18a0:	30 91 bb 00 	lds	r19, 0x00BB
    18a4:	e0 91 5d 01 	lds	r30, 0x015D
    18a8:	f0 e0       	ldi	r31, 0x00	; 0
    18aa:	e4 5c       	subi	r30, 0xC4	; 196
    18ac:	fe 4f       	sbci	r31, 0xFE	; 254
    18ae:	30 83       	st	Z, r19
    18b0:	20 91 3a 01 	lds	r18, 0x013A
    18b4:	21 60       	ori	r18, 0x01	; 1
    18b6:	20 93 3a 01 	sts	0x013A, r18
    18ba:	84 ed       	ldi	r24, 0xD4	; 212
    18bc:	80 93 bc 00 	sts	0x00BC, r24
    18c0:	b7 cf       	rjmp	.-146    	; 0x1830 <__vector_24+0x36>
    18c2:	80 91 3a 01 	lds	r24, 0x013A
    18c6:	84 60       	ori	r24, 0x04	; 4
    18c8:	82 60       	ori	r24, 0x02	; 2
    18ca:	80 93 3a 01 	sts	0x013A, r24
    18ce:	10 92 5d 01 	sts	0x015D, r1
    18d2:	25 ec       	ldi	r18, 0xC5	; 197
    18d4:	20 93 bc 00 	sts	0x00BC, r18
    18d8:	ab cf       	rjmp	.-170    	; 0x1830 <__vector_24+0x36>
    18da:	94 e0       	ldi	r25, 0x04	; 4
    18dc:	90 93 5c 01 	sts	0x015C, r25
    18e0:	90 93 bc 00 	sts	0x00BC, r25
    18e4:	a5 cf       	rjmp	.-182    	; 0x1830 <__vector_24+0x36>
    18e6:	a0 91 5d 01 	lds	r26, 0x015D
    18ea:	b0 91 bb 00 	lds	r27, 0x00BB
    18ee:	ea 2f       	mov	r30, r26
    18f0:	f0 e0       	ldi	r31, 0x00	; 0
    18f2:	e4 5c       	subi	r30, 0xC4	; 196
    18f4:	fe 4f       	sbci	r31, 0xFE	; 254
    18f6:	b0 83       	st	Z, r27
    18f8:	af 5f       	subi	r26, 0xFF	; 255
    18fa:	a0 93 5d 01 	sts	0x015D, r26
    18fe:	30 91 3a 01 	lds	r19, 0x013A
    1902:	31 60       	ori	r19, 0x01	; 1
    1904:	30 93 3a 01 	sts	0x013A, r19
    1908:	af cf       	rjmp	.-162    	; 0x1868 <__vector_24+0x6e>
    190a:	20 91 5d 01 	lds	r18, 0x015D
    190e:	bc cf       	rjmp	.-136    	; 0x1888 <__vector_24+0x8e>
    1910:	90 91 5d 01 	lds	r25, 0x015D
    1914:	e9 2f       	mov	r30, r25
    1916:	f0 e0       	ldi	r31, 0x00	; 0
    1918:	9f 5f       	subi	r25, 0xFF	; 255
    191a:	9f cf       	rjmp	.-194    	; 0x185a <__vector_24+0x60>
    191c:	b0 91 5d 01 	lds	r27, 0x015D
    1920:	f0 91 3b 01 	lds	r31, 0x013B
    1924:	bf 17       	cp	r27, r31
    1926:	c1 f1       	breq	.+112    	; 0x1998 <__vector_24+0x19e>
    1928:	90 91 b9 00 	lds	r25, 0x00B9
    192c:	90 93 29 01 	sts	0x0129, r25
    1930:	84 e0       	ldi	r24, 0x04	; 4
    1932:	80 93 bc 00 	sts	0x00BC, r24
    1936:	7c cf       	rjmp	.-264    	; 0x1830 <__vector_24+0x36>
    1938:	10 92 5d 01 	sts	0x015D, r1
    193c:	80 e0       	ldi	r24, 0x00	; 0
    193e:	90 91 3b 01 	lds	r25, 0x013B
    1942:	89 17       	cp	r24, r25
    1944:	e8 f4       	brcc	.+58     	; 0x1980 <__vector_24+0x186>
    1946:	e8 2f       	mov	r30, r24
    1948:	f0 e0       	ldi	r31, 0x00	; 0
    194a:	e4 5c       	subi	r30, 0xC4	; 196
    194c:	fe 4f       	sbci	r31, 0xFE	; 254
    194e:	20 81       	ld	r18, Z
    1950:	20 93 bb 00 	sts	0x00BB, r18
    1954:	8f 5f       	subi	r24, 0xFF	; 255
    1956:	80 93 5d 01 	sts	0x015D, r24
    195a:	85 e8       	ldi	r24, 0x85	; 133
    195c:	80 93 bc 00 	sts	0x00BC, r24
    1960:	67 cf       	rjmp	.-306    	; 0x1830 <__vector_24+0x36>
    1962:	80 91 5d 01 	lds	r24, 0x015D
    1966:	eb cf       	rjmp	.-42     	; 0x193e <__vector_24+0x144>
    1968:	e0 91 b9 00 	lds	r30, 0x00B9
    196c:	e0 93 29 01 	sts	0x0129, r30
    1970:	b5 ee       	ldi	r27, 0xE5	; 229
    1972:	b0 93 bc 00 	sts	0x00BC, r27
    1976:	5c cf       	rjmp	.-328    	; 0x1830 <__vector_24+0x36>
    1978:	85 ee       	ldi	r24, 0xE5	; 229
    197a:	80 93 bc 00 	sts	0x00BC, r24
    197e:	58 cf       	rjmp	.-336    	; 0x1830 <__vector_24+0x36>
    1980:	a0 91 3a 01 	lds	r26, 0x013A
    1984:	a1 60       	ori	r26, 0x01	; 1
    1986:	a0 93 3a 01 	sts	0x013A, r26
    198a:	34 e9       	ldi	r19, 0x94	; 148
    198c:	30 93 bc 00 	sts	0x00BC, r19
    1990:	4f cf       	rjmp	.-354    	; 0x1830 <__vector_24+0x36>
    1992:	80 91 3a 01 	lds	r24, 0x013A
    1996:	98 cf       	rjmp	.-208    	; 0x18c8 <__vector_24+0xce>
    1998:	e0 91 3a 01 	lds	r30, 0x013A
    199c:	e1 60       	ori	r30, 0x01	; 1
    199e:	e0 93 3a 01 	sts	0x013A, r30
    19a2:	c6 cf       	rjmp	.-116    	; 0x1930 <__vector_24+0x136>

000019a4 <lcd_Write>:
    19a4:	80 ff       	sbrs	r24, 0
    19a6:	35 c0       	rjmp	.+106    	; 0x1a12 <lcd_Write+0x6e>
    19a8:	5a 9a       	sbi	0x0b, 2	; 11
    19aa:	00 00       	nop
    19ac:	83 fd       	sbrc	r24, 3
    19ae:	15 c0       	rjmp	.+42     	; 0x19da <lcd_Write+0x36>
    19b0:	67 fd       	sbrc	r22, 7
    19b2:	40 c0       	rjmp	.+128    	; 0x1a34 <lcd_Write+0x90>
    19b4:	5f 98       	cbi	0x0b, 7	; 11
    19b6:	86 2f       	mov	r24, r22
    19b8:	66 ff       	sbrs	r22, 6
    19ba:	3a c0       	rjmp	.+116    	; 0x1a30 <lcd_Write+0x8c>
    19bc:	2d 9a       	sbi	0x05, 5	; 5
    19be:	85 ff       	sbrs	r24, 5
    19c0:	35 c0       	rjmp	.+106    	; 0x1a2c <lcd_Write+0x88>
    19c2:	2c 9a       	sbi	0x05, 4	; 5
    19c4:	84 ff       	sbrs	r24, 4
    19c6:	30 c0       	rjmp	.+96     	; 0x1a28 <lcd_Write+0x84>
    19c8:	2b 9a       	sbi	0x05, 3	; 5
    19ca:	5c 9a       	sbi	0x0b, 4	; 11
	#else
		//round up by default
		__ticks_dc = (uint32_t)(ceil(fabs(__tmp)));
	#endif

	__builtin_avr_delay_cycles(__ticks_dc);
    19cc:	87 e0       	ldi	r24, 0x07	; 7
    19ce:	8a 95       	dec	r24
    19d0:	f1 f7       	brne	.-4      	; 0x19ce <lcd_Write+0x2a>
    19d2:	00 c0       	rjmp	.+0      	; 0x19d4 <lcd_Write+0x30>
    19d4:	5c 98       	cbi	0x0b, 4	; 11
    19d6:	62 95       	swap	r22
    19d8:	60 7f       	andi	r22, 0xF0	; 240
    19da:	67 fd       	sbrc	r22, 7
    19dc:	23 c0       	rjmp	.+70     	; 0x1a24 <lcd_Write+0x80>
    19de:	5f 98       	cbi	0x0b, 7	; 11
    19e0:	66 ff       	sbrs	r22, 6
    19e2:	1e c0       	rjmp	.+60     	; 0x1a20 <lcd_Write+0x7c>
    19e4:	2d 9a       	sbi	0x05, 5	; 5
    19e6:	65 ff       	sbrs	r22, 5
    19e8:	16 c0       	rjmp	.+44     	; 0x1a16 <lcd_Write+0x72>
    19ea:	2c 9a       	sbi	0x05, 4	; 5
    19ec:	64 fd       	sbrc	r22, 4
    19ee:	16 c0       	rjmp	.+44     	; 0x1a1c <lcd_Write+0x78>
    19f0:	2b 98       	cbi	0x05, 3	; 5
    19f2:	5c 9a       	sbi	0x0b, 4	; 11
    19f4:	97 e0       	ldi	r25, 0x07	; 7
    19f6:	9a 95       	dec	r25
    19f8:	f1 f7       	brne	.-4      	; 0x19f6 <lcd_Write+0x52>
    19fa:	00 c0       	rjmp	.+0      	; 0x19fc <lcd_Write+0x58>
    19fc:	5c 98       	cbi	0x0b, 4	; 11
    19fe:	8b ed       	ldi	r24, 0xDB	; 219
    1a00:	91 e0       	ldi	r25, 0x01	; 1
    1a02:	01 97       	sbiw	r24, 0x01	; 1
    1a04:	f1 f7       	brne	.-4      	; 0x1a02 <lcd_Write+0x5e>
    1a06:	00 c0       	rjmp	.+0      	; 0x1a08 <lcd_Write+0x64>
    1a08:	5f 9a       	sbi	0x0b, 7	; 11
    1a0a:	2d 9a       	sbi	0x05, 5	; 5
    1a0c:	2c 9a       	sbi	0x05, 4	; 5
    1a0e:	2b 9a       	sbi	0x05, 3	; 5
    1a10:	08 95       	ret
    1a12:	5a 98       	cbi	0x0b, 2	; 11
    1a14:	ca cf       	rjmp	.-108    	; 0x19aa <lcd_Write+0x6>
    1a16:	2c 98       	cbi	0x05, 4	; 5
    1a18:	64 ff       	sbrs	r22, 4
    1a1a:	ea cf       	rjmp	.-44     	; 0x19f0 <lcd_Write+0x4c>
    1a1c:	2b 9a       	sbi	0x05, 3	; 5
    1a1e:	e9 cf       	rjmp	.-46     	; 0x19f2 <lcd_Write+0x4e>
    1a20:	2d 98       	cbi	0x05, 5	; 5
    1a22:	e1 cf       	rjmp	.-62     	; 0x19e6 <lcd_Write+0x42>
    1a24:	5f 9a       	sbi	0x0b, 7	; 11
    1a26:	dc cf       	rjmp	.-72     	; 0x19e0 <lcd_Write+0x3c>
    1a28:	2b 98       	cbi	0x05, 3	; 5
    1a2a:	cf cf       	rjmp	.-98     	; 0x19ca <lcd_Write+0x26>
    1a2c:	2c 98       	cbi	0x05, 4	; 5
    1a2e:	ca cf       	rjmp	.-108    	; 0x19c4 <lcd_Write+0x20>
    1a30:	2d 98       	cbi	0x05, 5	; 5
    1a32:	c5 cf       	rjmp	.-118    	; 0x19be <lcd_Write+0x1a>
    1a34:	5f 9a       	sbi	0x0b, 7	; 11
    1a36:	bf cf       	rjmp	.-130    	; 0x19b6 <lcd_Write+0x12>

00001a38 <lcd_Init>:
    1a38:	80 91 5e 01 	lds	r24, 0x015E
    1a3c:	90 91 5f 01 	lds	r25, 0x015F
    1a40:	00 97       	sbiw	r24, 0x00	; 0
    1a42:	09 f4       	brne	.+2      	; 0x1a46 <lcd_Init+0xe>
    1a44:	54 c0       	rjmp	.+168    	; 0x1aee <lcd_Init+0xb6>
    1a46:	84 b1       	in	r24, 0x04	; 4
    1a48:	89 63       	ori	r24, 0x39	; 57
    1a4a:	84 b9       	out	0x04, r24	; 4
    1a4c:	8a b1       	in	r24, 0x0a	; 10
    1a4e:	84 69       	ori	r24, 0x94	; 148
    1a50:	8a b9       	out	0x0a, r24	; 10
    1a52:	5c 9a       	sbi	0x0b, 4	; 11
    1a54:	5a 9a       	sbi	0x0b, 2	; 11
    1a56:	28 98       	cbi	0x05, 0	; 5
    1a58:	5f 9a       	sbi	0x0b, 7	; 11
    1a5a:	2d 9a       	sbi	0x05, 5	; 5
    1a5c:	2c 9a       	sbi	0x05, 4	; 5
    1a5e:	2b 9a       	sbi	0x05, 3	; 5
	#else
		//round up by default
		__ticks_dc = (uint32_t)(ceil(fabs(__tmp)));
	#endif

	__builtin_avr_delay_cycles(__ticks_dc);
    1a60:	82 e3       	ldi	r24, 0x32	; 50
    1a62:	93 eb       	ldi	r25, 0xB3	; 179
    1a64:	a2 e0       	ldi	r26, 0x02	; 2
    1a66:	81 50       	subi	r24, 0x01	; 1
    1a68:	90 40       	sbci	r25, 0x00	; 0
    1a6a:	a0 40       	sbci	r26, 0x00	; 0
    1a6c:	e1 f7       	brne	.-8      	; 0x1a66 <lcd_Init+0x2e>
    1a6e:	00 c0       	rjmp	.+0      	; 0x1a70 <lcd_Init+0x38>
    1a70:	00 c0       	rjmp	.+0      	; 0x1a72 <lcd_Init+0x3a>
    1a72:	88 e0       	ldi	r24, 0x08	; 8
    1a74:	60 e3       	ldi	r22, 0x30	; 48
    1a76:	0e 94 d2 0c 	call	0x19a4	; 0x19a4 <lcd_Write>
	#else
		//round up by default
		__ticks_dc = (uint32_t)(ceil(fabs(__tmp)));
	#endif

	__builtin_avr_delay_cycles(__ticks_dc);
    1a7a:	af e8       	ldi	r26, 0x8F	; 143
    1a7c:	b8 e5       	ldi	r27, 0x58	; 88
    1a7e:	11 97       	sbiw	r26, 0x01	; 1
    1a80:	f1 f7       	brne	.-4      	; 0x1a7e <lcd_Init+0x46>
    1a82:	00 00       	nop
    1a84:	88 e0       	ldi	r24, 0x08	; 8
    1a86:	60 e3       	ldi	r22, 0x30	; 48
    1a88:	0e 94 d2 0c 	call	0x19a4	; 0x19a4 <lcd_Write>
    1a8c:	8f e8       	ldi	r24, 0x8F	; 143
    1a8e:	98 e5       	ldi	r25, 0x58	; 88
    1a90:	01 97       	sbiw	r24, 0x01	; 1
    1a92:	f1 f7       	brne	.-4      	; 0x1a90 <lcd_Init+0x58>
    1a94:	00 00       	nop
    1a96:	88 e0       	ldi	r24, 0x08	; 8
    1a98:	60 e3       	ldi	r22, 0x30	; 48
    1a9a:	0e 94 d2 0c 	call	0x19a4	; 0x19a4 <lcd_Write>
    1a9e:	a8 e2       	ldi	r26, 0x28	; 40
    1aa0:	b2 e0       	ldi	r27, 0x02	; 2
    1aa2:	11 97       	sbiw	r26, 0x01	; 1
    1aa4:	f1 f7       	brne	.-4      	; 0x1aa2 <lcd_Init+0x6a>
    1aa6:	00 c0       	rjmp	.+0      	; 0x1aa8 <lcd_Init+0x70>
    1aa8:	00 00       	nop
    1aaa:	88 e0       	ldi	r24, 0x08	; 8
    1aac:	60 e3       	ldi	r22, 0x30	; 48
    1aae:	0e 94 d2 0c 	call	0x19a4	; 0x19a4 <lcd_Write>
    1ab2:	80 e0       	ldi	r24, 0x00	; 0
    1ab4:	68 e2       	ldi	r22, 0x28	; 40
    1ab6:	0e 94 d2 0c 	call	0x19a4	; 0x19a4 <lcd_Write>
    1aba:	80 e0       	ldi	r24, 0x00	; 0
    1abc:	68 e0       	ldi	r22, 0x08	; 8
    1abe:	0e 94 d2 0c 	call	0x19a4	; 0x19a4 <lcd_Write>
    1ac2:	80 e0       	ldi	r24, 0x00	; 0
    1ac4:	61 e0       	ldi	r22, 0x01	; 1
    1ac6:	0e 94 d2 0c 	call	0x19a4	; 0x19a4 <lcd_Write>
    1aca:	88 e1       	ldi	r24, 0x18	; 24
    1acc:	92 e4       	ldi	r25, 0x42	; 66
    1ace:	01 97       	sbiw	r24, 0x01	; 1
    1ad0:	f1 f7       	brne	.-4      	; 0x1ace <lcd_Init+0x96>
    1ad2:	00 c0       	rjmp	.+0      	; 0x1ad4 <lcd_Init+0x9c>
    1ad4:	80 e0       	ldi	r24, 0x00	; 0
    1ad6:	66 e0       	ldi	r22, 0x06	; 6
    1ad8:	0e 94 d2 0c 	call	0x19a4	; 0x19a4 <lcd_Write>
    1adc:	80 e0       	ldi	r24, 0x00	; 0
    1ade:	6c e0       	ldi	r22, 0x0C	; 12
    1ae0:	0e 94 d2 0c 	call	0x19a4	; 0x19a4 <lcd_Write>
    1ae4:	10 92 61 01 	sts	0x0161, r1
    1ae8:	10 92 60 01 	sts	0x0160, r1
    1aec:	08 95       	ret
    1aee:	80 e5       	ldi	r24, 0x50	; 80
    1af0:	90 e0       	ldi	r25, 0x00	; 0
    1af2:	0e 94 67 0f 	call	0x1ece	; 0x1ece <pvPortMalloc>
    1af6:	90 93 5f 01 	sts	0x015F, r25
    1afa:	80 93 5e 01 	sts	0x015E, r24
    1afe:	00 97       	sbiw	r24, 0x00	; 0
    1b00:	09 f0       	breq	.+2      	; 0x1b04 <lcd_Init+0xcc>
    1b02:	a1 cf       	rjmp	.-190    	; 0x1a46 <lcd_Init+0xe>
    1b04:	08 95       	ret

00001b06 <lcd_Close>:
    1b06:	80 91 5e 01 	lds	r24, 0x015E
    1b0a:	90 91 5f 01 	lds	r25, 0x015F
    1b0e:	0e 94 fd 0f 	call	0x1ffa	; 0x1ffa <vPortFree>
    1b12:	08 95       	ret

00001b14 <lcd_Locate>:
    1b14:	80 93 60 01 	sts	0x0160, r24
    1b18:	60 93 61 01 	sts	0x0161, r22
    1b1c:	84 30       	cpi	r24, 0x04	; 4
    1b1e:	58 f4       	brcc	.+22     	; 0x1b36 <lcd_Locate+0x22>
    1b20:	64 31       	cpi	r22, 0x14	; 20
    1b22:	48 f4       	brcc	.+18     	; 0x1b36 <lcd_Locate+0x22>
    1b24:	80 fd       	sbrc	r24, 0
    1b26:	60 5c       	subi	r22, 0xC0	; 192
    1b28:	81 fd       	sbrc	r24, 1
    1b2a:	6c 5e       	subi	r22, 0xEC	; 236
    1b2c:	60 68       	ori	r22, 0x80	; 128
    1b2e:	80 e0       	ldi	r24, 0x00	; 0
    1b30:	0e 94 d2 0c 	call	0x19a4	; 0x19a4 <lcd_Write>
    1b34:	08 95       	ret
    1b36:	6c e0       	ldi	r22, 0x0C	; 12
    1b38:	80 e0       	ldi	r24, 0x00	; 0
    1b3a:	0e 94 d2 0c 	call	0x19a4	; 0x19a4 <lcd_Write>
    1b3e:	08 95       	ret

00001b40 <lcd_Putc>:
    1b40:	68 2f       	mov	r22, r24
    1b42:	80 91 60 01 	lds	r24, 0x0160
    1b46:	84 30       	cpi	r24, 0x04	; 4
    1b48:	50 f4       	brcc	.+20     	; 0x1b5e <lcd_Putc+0x1e>
    1b4a:	6d 30       	cpi	r22, 0x0D	; 13
    1b4c:	21 f1       	breq	.+72     	; 0x1b96 <lcd_Putc+0x56>
    1b4e:	6a 30       	cpi	r22, 0x0A	; 10
    1b50:	31 f1       	breq	.+76     	; 0x1b9e <lcd_Putc+0x5e>
    1b52:	6c 30       	cpi	r22, 0x0C	; 12
    1b54:	b1 f0       	breq	.+44     	; 0x1b82 <lcd_Putc+0x42>
    1b56:	80 91 61 01 	lds	r24, 0x0161
    1b5a:	84 31       	cpi	r24, 0x14	; 20
    1b5c:	08 f0       	brcs	.+2      	; 0x1b60 <lcd_Putc+0x20>
    1b5e:	08 95       	ret
    1b60:	85 e0       	ldi	r24, 0x05	; 5
    1b62:	0e 94 d2 0c 	call	0x19a4	; 0x19a4 <lcd_Write>
    1b66:	20 91 61 01 	lds	r18, 0x0161
    1b6a:	2f 5f       	subi	r18, 0xFF	; 255
    1b6c:	20 93 61 01 	sts	0x0161, r18
    1b70:	24 31       	cpi	r18, 0x14	; 20
    1b72:	a8 f3       	brcs	.-22     	; 0x1b5e <lcd_Putc+0x1e>
    1b74:	80 91 60 01 	lds	r24, 0x0160
    1b78:	8f 5f       	subi	r24, 0xFF	; 255
    1b7a:	60 e0       	ldi	r22, 0x00	; 0
    1b7c:	0e 94 8a 0d 	call	0x1b14	; 0x1b14 <lcd_Locate>
    1b80:	08 95       	ret
    1b82:	80 e0       	ldi	r24, 0x00	; 0
    1b84:	61 e0       	ldi	r22, 0x01	; 1
    1b86:	0e 94 d2 0c 	call	0x19a4	; 0x19a4 <lcd_Write>
    1b8a:	88 e1       	ldi	r24, 0x18	; 24
    1b8c:	92 e4       	ldi	r25, 0x42	; 66
    1b8e:	01 97       	sbiw	r24, 0x01	; 1
    1b90:	f1 f7       	brne	.-4      	; 0x1b8e <lcd_Putc+0x4e>
    1b92:	00 c0       	rjmp	.+0      	; 0x1b94 <lcd_Putc+0x54>
    1b94:	80 e0       	ldi	r24, 0x00	; 0
    1b96:	60 e0       	ldi	r22, 0x00	; 0
    1b98:	0e 94 8a 0d 	call	0x1b14	; 0x1b14 <lcd_Locate>
    1b9c:	08 95       	ret
    1b9e:	8f 5f       	subi	r24, 0xFF	; 255
    1ba0:	60 e0       	ldi	r22, 0x00	; 0
    1ba2:	0e 94 8a 0d 	call	0x1b14	; 0x1b14 <lcd_Locate>
    1ba6:	08 95       	ret

00001ba8 <lcd_Print>:
    1ba8:	ef 92       	push	r14
    1baa:	ff 92       	push	r15
    1bac:	0f 93       	push	r16
    1bae:	1f 93       	push	r17
    1bb0:	cf 93       	push	r28
    1bb2:	df 93       	push	r29
    1bb4:	7c 01       	movw	r14, r24
    1bb6:	dc 01       	movw	r26, r24
    1bb8:	0d 90       	ld	r0, X+
    1bba:	00 20       	and	r0, r0
    1bbc:	e9 f7       	brne	.-6      	; 0x1bb8 <lcd_Print+0x10>
    1bbe:	8d 01       	movw	r16, r26
    1bc0:	01 50       	subi	r16, 0x01	; 1
    1bc2:	10 40       	sbci	r17, 0x00	; 0
    1bc4:	08 1b       	sub	r16, r24
    1bc6:	19 0b       	sbc	r17, r25
    1bc8:	79 f0       	breq	.+30     	; 0x1be8 <lcd_Print+0x40>
    1bca:	80 e0       	ldi	r24, 0x00	; 0
    1bcc:	90 e0       	ldi	r25, 0x00	; 0
    1bce:	c0 e0       	ldi	r28, 0x00	; 0
    1bd0:	d0 e0       	ldi	r29, 0x00	; 0
    1bd2:	21 96       	adiw	r28, 0x01	; 1
    1bd4:	8e 0d       	add	r24, r14
    1bd6:	9f 1d       	adc	r25, r15
    1bd8:	fc 01       	movw	r30, r24
    1bda:	80 81       	ld	r24, Z
    1bdc:	0e 94 a0 0d 	call	0x1b40	; 0x1b40 <lcd_Putc>
    1be0:	ce 01       	movw	r24, r28
    1be2:	c0 17       	cp	r28, r16
    1be4:	d1 07       	cpc	r29, r17
    1be6:	a8 f3       	brcs	.-22     	; 0x1bd2 <lcd_Print+0x2a>
    1be8:	cd b7       	in	r28, 0x3d	; 61
    1bea:	de b7       	in	r29, 0x3e	; 62
    1bec:	e6 e0       	ldi	r30, 0x06	; 6
    1bee:	0c 94 f3 1d 	jmp	0x3be6	; 0x3be6 <__epilogue_restores__+0x18>

00001bf2 <lcd_Printf_P>:
    1bf2:	a0 e0       	ldi	r26, 0x00	; 0
    1bf4:	b0 e0       	ldi	r27, 0x00	; 0
    1bf6:	ef ef       	ldi	r30, 0xFF	; 255
    1bf8:	fd e0       	ldi	r31, 0x0D	; 13
    1bfa:	0c 94 db 1d 	jmp	0x3bb6	; 0x3bb6 <__prologue_saves__+0x20>
    1bfe:	fe 01       	movw	r30, r28
    1c00:	35 96       	adiw	r30, 0x05	; 5
    1c02:	41 91       	ld	r20, Z+
    1c04:	51 91       	ld	r21, Z+
    1c06:	80 91 5e 01 	lds	r24, 0x015E
    1c0a:	90 91 5f 01 	lds	r25, 0x015F
    1c0e:	60 e5       	ldi	r22, 0x50	; 80
    1c10:	70 e0       	ldi	r23, 0x00	; 0
    1c12:	9f 01       	movw	r18, r30
    1c14:	0e 94 5b 1e 	call	0x3cb6	; 0x3cb6 <vsnprintf_P>
    1c18:	80 91 5e 01 	lds	r24, 0x015E
    1c1c:	90 91 5f 01 	lds	r25, 0x015F
    1c20:	0e 94 d4 0d 	call	0x1ba8	; 0x1ba8 <lcd_Print>
    1c24:	20 96       	adiw	r28, 0x00	; 0
    1c26:	e2 e0       	ldi	r30, 0x02	; 2
    1c28:	0c 94 f7 1d 	jmp	0x3bee	; 0x3bee <__epilogue_restores__+0x20>

00001c2c <lcd_Printf>:
    1c2c:	a0 e0       	ldi	r26, 0x00	; 0
    1c2e:	b0 e0       	ldi	r27, 0x00	; 0
    1c30:	ec e1       	ldi	r30, 0x1C	; 28
    1c32:	fe e0       	ldi	r31, 0x0E	; 14
    1c34:	0c 94 db 1d 	jmp	0x3bb6	; 0x3bb6 <__prologue_saves__+0x20>
    1c38:	fe 01       	movw	r30, r28
    1c3a:	35 96       	adiw	r30, 0x05	; 5
    1c3c:	41 91       	ld	r20, Z+
    1c3e:	51 91       	ld	r21, Z+
    1c40:	80 91 5e 01 	lds	r24, 0x015E
    1c44:	90 91 5f 01 	lds	r25, 0x015F
    1c48:	60 e5       	ldi	r22, 0x50	; 80
    1c4a:	70 e0       	ldi	r23, 0x00	; 0
    1c4c:	9f 01       	movw	r18, r30
    1c4e:	0e 94 30 1e 	call	0x3c60	; 0x3c60 <vsnprintf>
    1c52:	80 91 5e 01 	lds	r24, 0x015E
    1c56:	90 91 5f 01 	lds	r25, 0x015F
    1c5a:	0e 94 d4 0d 	call	0x1ba8	; 0x1ba8 <lcd_Print>
    1c5e:	20 96       	adiw	r28, 0x00	; 0
    1c60:	e2 e0       	ldi	r30, 0x02	; 2
    1c62:	0c 94 f7 1d 	jmp	0x3bee	; 0x3bee <__epilogue_restores__+0x20>

00001c66 <lcd_Print_P>:
    1c66:	ef 92       	push	r14
    1c68:	ff 92       	push	r15
    1c6a:	0f 93       	push	r16
    1c6c:	1f 93       	push	r17
    1c6e:	cf 93       	push	r28
    1c70:	df 93       	push	r29
    1c72:	7c 01       	movw	r14, r24
    1c74:	0e 94 08 1e 	call	0x3c10	; 0x3c10 <strlen_P>
    1c78:	8c 01       	movw	r16, r24
    1c7a:	00 97       	sbiw	r24, 0x00	; 0
    1c7c:	61 f0       	breq	.+24     	; 0x1c96 <lcd_Print_P+0x30>
    1c7e:	c0 e0       	ldi	r28, 0x00	; 0
    1c80:	d0 e0       	ldi	r29, 0x00	; 0
    1c82:	f7 01       	movw	r30, r14
    1c84:	ec 0f       	add	r30, r28
    1c86:	fd 1f       	adc	r31, r29
    1c88:	21 96       	adiw	r28, 0x01	; 1
    1c8a:	84 91       	lpm	r24, Z+
    1c8c:	0e 94 a0 0d 	call	0x1b40	; 0x1b40 <lcd_Putc>
    1c90:	c0 17       	cp	r28, r16
    1c92:	d1 07       	cpc	r29, r17
    1c94:	b0 f3       	brcs	.-20     	; 0x1c82 <lcd_Print_P+0x1c>
    1c96:	cd b7       	in	r28, 0x3d	; 61
    1c98:	de b7       	in	r29, 0x3e	; 62
    1c9a:	e6 e0       	ldi	r30, 0x06	; 6
    1c9c:	0c 94 f3 1d 	jmp	0x3be6	; 0x3be6 <__epilogue_restores__+0x18>

00001ca0 <setDigitalOutput>:
    1ca0:	88 30       	cpi	r24, 0x08	; 8
    1ca2:	c0 f4       	brcc	.+48     	; 0x1cd4 <setDigitalOutput+0x34>
    1ca4:	21 e0       	ldi	r18, 0x01	; 1
    1ca6:	30 e0       	ldi	r19, 0x00	; 0
    1ca8:	02 c0       	rjmp	.+4      	; 0x1cae <setDigitalOutput+0xe>
    1caa:	22 0f       	add	r18, r18
    1cac:	33 1f       	adc	r19, r19
    1cae:	8a 95       	dec	r24
    1cb0:	e2 f7       	brpl	.-8      	; 0x1caa <setDigitalOutput+0xa>
    1cb2:	ea e2       	ldi	r30, 0x2A	; 42
    1cb4:	f0 e0       	ldi	r31, 0x00	; 0
    1cb6:	ab e2       	ldi	r26, 0x2B	; 43
    1cb8:	b0 e0       	ldi	r27, 0x00	; 0
    1cba:	6f 3f       	cpi	r22, 0xFF	; 255
    1cbc:	e1 f0       	breq	.+56     	; 0x1cf6 <setDigitalOutput+0x56>
    1cbe:	66 23       	and	r22, r22
    1cc0:	09 f5       	brne	.+66     	; 0x1d04 <setDigitalOutput+0x64>
    1cc2:	9c 91       	ld	r25, X
    1cc4:	42 2f       	mov	r20, r18
    1cc6:	40 95       	com	r20
    1cc8:	49 23       	and	r20, r25
    1cca:	4c 93       	st	X, r20
    1ccc:	50 81       	ld	r21, Z
    1cce:	52 2b       	or	r21, r18
    1cd0:	50 83       	st	Z, r21
    1cd2:	08 95       	ret
    1cd4:	8e 30       	cpi	r24, 0x0E	; 14
    1cd6:	e8 f4       	brcc	.+58     	; 0x1d12 <setDigitalOutput+0x72>
    1cd8:	90 e0       	ldi	r25, 0x00	; 0
    1cda:	08 97       	sbiw	r24, 0x08	; 8
    1cdc:	21 e0       	ldi	r18, 0x01	; 1
    1cde:	30 e0       	ldi	r19, 0x00	; 0
    1ce0:	02 c0       	rjmp	.+4      	; 0x1ce6 <setDigitalOutput+0x46>
    1ce2:	22 0f       	add	r18, r18
    1ce4:	33 1f       	adc	r19, r19
    1ce6:	8a 95       	dec	r24
    1ce8:	e2 f7       	brpl	.-8      	; 0x1ce2 <setDigitalOutput+0x42>
    1cea:	e4 e2       	ldi	r30, 0x24	; 36
    1cec:	f0 e0       	ldi	r31, 0x00	; 0
    1cee:	a5 e2       	ldi	r26, 0x25	; 37
    1cf0:	b0 e0       	ldi	r27, 0x00	; 0
    1cf2:	6f 3f       	cpi	r22, 0xFF	; 255
    1cf4:	21 f7       	brne	.-56     	; 0x1cbe <setDigitalOutput+0x1e>
    1cf6:	8c 91       	ld	r24, X
    1cf8:	82 27       	eor	r24, r18
    1cfa:	8c 93       	st	X, r24
    1cfc:	50 81       	ld	r21, Z
    1cfe:	52 2b       	or	r21, r18
    1d00:	50 83       	st	Z, r21
    1d02:	08 95       	ret
    1d04:	3c 91       	ld	r19, X
    1d06:	32 2b       	or	r19, r18
    1d08:	3c 93       	st	X, r19
    1d0a:	50 81       	ld	r21, Z
    1d0c:	52 2b       	or	r21, r18
    1d0e:	50 83       	st	Z, r21
    1d10:	08 95       	ret
    1d12:	85 31       	cpi	r24, 0x15	; 21
    1d14:	70 f4       	brcc	.+28     	; 0x1d32 <setDigitalOutput+0x92>
    1d16:	90 e0       	ldi	r25, 0x00	; 0
    1d18:	0e 97       	sbiw	r24, 0x0e	; 14
    1d1a:	21 e0       	ldi	r18, 0x01	; 1
    1d1c:	30 e0       	ldi	r19, 0x00	; 0
    1d1e:	02 c0       	rjmp	.+4      	; 0x1d24 <setDigitalOutput+0x84>
    1d20:	22 0f       	add	r18, r18
    1d22:	33 1f       	adc	r19, r19
    1d24:	8a 95       	dec	r24
    1d26:	e2 f7       	brpl	.-8      	; 0x1d20 <setDigitalOutput+0x80>
    1d28:	e7 e2       	ldi	r30, 0x27	; 39
    1d2a:	f0 e0       	ldi	r31, 0x00	; 0
    1d2c:	a8 e2       	ldi	r26, 0x28	; 40
    1d2e:	b0 e0       	ldi	r27, 0x00	; 0
    1d30:	c4 cf       	rjmp	.-120    	; 0x1cba <setDigitalOutput+0x1a>
    1d32:	20 e0       	ldi	r18, 0x00	; 0
    1d34:	e0 e0       	ldi	r30, 0x00	; 0
    1d36:	f0 e0       	ldi	r31, 0x00	; 0
    1d38:	a0 e0       	ldi	r26, 0x00	; 0
    1d3a:	b0 e0       	ldi	r27, 0x00	; 0
    1d3c:	be cf       	rjmp	.-132    	; 0x1cba <setDigitalOutput+0x1a>

00001d3e <setDigitalInput>:
    1d3e:	88 30       	cpi	r24, 0x08	; 8
    1d40:	c0 f4       	brcc	.+48     	; 0x1d72 <setDigitalInput+0x34>
    1d42:	21 e0       	ldi	r18, 0x01	; 1
    1d44:	30 e0       	ldi	r19, 0x00	; 0
    1d46:	02 c0       	rjmp	.+4      	; 0x1d4c <setDigitalInput+0xe>
    1d48:	22 0f       	add	r18, r18
    1d4a:	33 1f       	adc	r19, r19
    1d4c:	8a 95       	dec	r24
    1d4e:	e2 f7       	brpl	.-8      	; 0x1d48 <setDigitalInput+0xa>
    1d50:	92 2f       	mov	r25, r18
    1d52:	90 95       	com	r25
    1d54:	ea e2       	ldi	r30, 0x2A	; 42
    1d56:	f0 e0       	ldi	r31, 0x00	; 0
    1d58:	ab e2       	ldi	r26, 0x2B	; 43
    1d5a:	b0 e0       	ldi	r27, 0x00	; 0
    1d5c:	80 81       	ld	r24, Z
    1d5e:	89 23       	and	r24, r25
    1d60:	80 83       	st	Z, r24
    1d62:	6f 3f       	cpi	r22, 0xFF	; 255
    1d64:	e1 f0       	breq	.+56     	; 0x1d9e <setDigitalInput+0x60>
    1d66:	66 23       	and	r22, r22
    1d68:	f1 f4       	brne	.+60     	; 0x1da6 <setDigitalInput+0x68>
    1d6a:	2c 91       	ld	r18, X
    1d6c:	29 23       	and	r18, r25
    1d6e:	2c 93       	st	X, r18
    1d70:	08 95       	ret
    1d72:	8e 30       	cpi	r24, 0x0E	; 14
    1d74:	e0 f4       	brcc	.+56     	; 0x1dae <setDigitalInput+0x70>
    1d76:	90 e0       	ldi	r25, 0x00	; 0
    1d78:	08 97       	sbiw	r24, 0x08	; 8
    1d7a:	21 e0       	ldi	r18, 0x01	; 1
    1d7c:	30 e0       	ldi	r19, 0x00	; 0
    1d7e:	02 c0       	rjmp	.+4      	; 0x1d84 <setDigitalInput+0x46>
    1d80:	22 0f       	add	r18, r18
    1d82:	33 1f       	adc	r19, r19
    1d84:	8a 95       	dec	r24
    1d86:	e2 f7       	brpl	.-8      	; 0x1d80 <setDigitalInput+0x42>
    1d88:	92 2f       	mov	r25, r18
    1d8a:	90 95       	com	r25
    1d8c:	e4 e2       	ldi	r30, 0x24	; 36
    1d8e:	f0 e0       	ldi	r31, 0x00	; 0
    1d90:	a5 e2       	ldi	r26, 0x25	; 37
    1d92:	b0 e0       	ldi	r27, 0x00	; 0
    1d94:	80 81       	ld	r24, Z
    1d96:	89 23       	and	r24, r25
    1d98:	80 83       	st	Z, r24
    1d9a:	6f 3f       	cpi	r22, 0xFF	; 255
    1d9c:	21 f7       	brne	.-56     	; 0x1d66 <setDigitalInput+0x28>
    1d9e:	3c 91       	ld	r19, X
    1da0:	32 27       	eor	r19, r18
    1da2:	3c 93       	st	X, r19
    1da4:	08 95       	ret
    1da6:	4c 91       	ld	r20, X
    1da8:	42 2b       	or	r20, r18
    1daa:	4c 93       	st	X, r20
    1dac:	08 95       	ret
    1dae:	85 31       	cpi	r24, 0x15	; 21
    1db0:	80 f4       	brcc	.+32     	; 0x1dd2 <setDigitalInput+0x94>
    1db2:	90 e0       	ldi	r25, 0x00	; 0
    1db4:	0e 97       	sbiw	r24, 0x0e	; 14
    1db6:	21 e0       	ldi	r18, 0x01	; 1
    1db8:	30 e0       	ldi	r19, 0x00	; 0
    1dba:	02 c0       	rjmp	.+4      	; 0x1dc0 <setDigitalInput+0x82>
    1dbc:	22 0f       	add	r18, r18
    1dbe:	33 1f       	adc	r19, r19
    1dc0:	8a 95       	dec	r24
    1dc2:	e2 f7       	brpl	.-8      	; 0x1dbc <setDigitalInput+0x7e>
    1dc4:	92 2f       	mov	r25, r18
    1dc6:	90 95       	com	r25
    1dc8:	e7 e2       	ldi	r30, 0x27	; 39
    1dca:	f0 e0       	ldi	r31, 0x00	; 0
    1dcc:	a8 e2       	ldi	r26, 0x28	; 40
    1dce:	b0 e0       	ldi	r27, 0x00	; 0
    1dd0:	c5 cf       	rjmp	.-118    	; 0x1d5c <setDigitalInput+0x1e>
    1dd2:	9f ef       	ldi	r25, 0xFF	; 255
    1dd4:	20 e0       	ldi	r18, 0x00	; 0
    1dd6:	e0 e0       	ldi	r30, 0x00	; 0
    1dd8:	f0 e0       	ldi	r31, 0x00	; 0
    1dda:	a0 e0       	ldi	r26, 0x00	; 0
    1ddc:	b0 e0       	ldi	r27, 0x00	; 0
    1dde:	be cf       	rjmp	.-132    	; 0x1d5c <setDigitalInput+0x1e>

00001de0 <isDigitalInputHigh>:
    1de0:	88 30       	cpi	r24, 0x08	; 8
    1de2:	00 f1       	brcs	.+64     	; 0x1e24 <isDigitalInputHigh+0x44>
    1de4:	8e 30       	cpi	r24, 0x0E	; 14
    1de6:	80 f0       	brcs	.+32     	; 0x1e08 <isDigitalInputHigh+0x28>
    1de8:	85 31       	cpi	r24, 0x15	; 21
    1dea:	40 f5       	brcc	.+80     	; 0x1e3c <isDigitalInputHigh+0x5c>
    1dec:	90 e0       	ldi	r25, 0x00	; 0
    1dee:	0e 97       	sbiw	r24, 0x0e	; 14
    1df0:	21 e0       	ldi	r18, 0x01	; 1
    1df2:	30 e0       	ldi	r19, 0x00	; 0
    1df4:	02 c0       	rjmp	.+4      	; 0x1dfa <isDigitalInputHigh+0x1a>
    1df6:	22 0f       	add	r18, r18
    1df8:	33 1f       	adc	r19, r19
    1dfa:	8a 95       	dec	r24
    1dfc:	e2 f7       	brpl	.-8      	; 0x1df6 <isDigitalInputHigh+0x16>
    1dfe:	e6 e2       	ldi	r30, 0x26	; 38
    1e00:	f0 e0       	ldi	r31, 0x00	; 0
    1e02:	80 81       	ld	r24, Z
    1e04:	82 23       	and	r24, r18
    1e06:	08 95       	ret
    1e08:	90 e0       	ldi	r25, 0x00	; 0
    1e0a:	08 97       	sbiw	r24, 0x08	; 8
    1e0c:	21 e0       	ldi	r18, 0x01	; 1
    1e0e:	30 e0       	ldi	r19, 0x00	; 0
    1e10:	02 c0       	rjmp	.+4      	; 0x1e16 <isDigitalInputHigh+0x36>
    1e12:	22 0f       	add	r18, r18
    1e14:	33 1f       	adc	r19, r19
    1e16:	8a 95       	dec	r24
    1e18:	e2 f7       	brpl	.-8      	; 0x1e12 <isDigitalInputHigh+0x32>
    1e1a:	e3 e2       	ldi	r30, 0x23	; 35
    1e1c:	f0 e0       	ldi	r31, 0x00	; 0
    1e1e:	80 81       	ld	r24, Z
    1e20:	82 23       	and	r24, r18
    1e22:	08 95       	ret
    1e24:	21 e0       	ldi	r18, 0x01	; 1
    1e26:	30 e0       	ldi	r19, 0x00	; 0
    1e28:	02 c0       	rjmp	.+4      	; 0x1e2e <isDigitalInputHigh+0x4e>
    1e2a:	22 0f       	add	r18, r18
    1e2c:	33 1f       	adc	r19, r19
    1e2e:	8a 95       	dec	r24
    1e30:	e2 f7       	brpl	.-8      	; 0x1e2a <isDigitalInputHigh+0x4a>
    1e32:	e9 e2       	ldi	r30, 0x29	; 41
    1e34:	f0 e0       	ldi	r31, 0x00	; 0
    1e36:	80 81       	ld	r24, Z
    1e38:	82 23       	and	r24, r18
    1e3a:	08 95       	ret
    1e3c:	20 e0       	ldi	r18, 0x00	; 0
    1e3e:	e0 e0       	ldi	r30, 0x00	; 0
    1e40:	f0 e0       	ldi	r31, 0x00	; 0
    1e42:	80 81       	ld	r24, Z
    1e44:	82 23       	and	r24, r18
    1e46:	08 95       	ret

00001e48 <setAnalogMode>:
    1e48:	88 23       	and	r24, r24
    1e4a:	31 f0       	breq	.+12     	; 0x1e58 <setAnalogMode+0x10>
    1e4c:	20 91 7c 00 	lds	r18, 0x007C
    1e50:	20 62       	ori	r18, 0x20	; 32
    1e52:	20 93 7c 00 	sts	0x007C, r18
    1e56:	08 95       	ret
    1e58:	80 91 7c 00 	lds	r24, 0x007C
    1e5c:	8f 7d       	andi	r24, 0xDF	; 223
    1e5e:	80 93 7c 00 	sts	0x007C, r24
    1e62:	08 95       	ret

00001e64 <getAnalogMode>:
    1e64:	80 91 7c 00 	lds	r24, 0x007C
    1e68:	82 95       	swap	r24
    1e6a:	86 95       	lsr	r24
    1e6c:	81 70       	andi	r24, 0x01	; 1
    1e6e:	08 95       	ret

00001e70 <analogIsConverting>:
    1e70:	80 91 7a 00 	lds	r24, 0x007A
    1e74:	82 95       	swap	r24
    1e76:	86 95       	lsr	r24
    1e78:	86 95       	lsr	r24
    1e7a:	81 70       	andi	r24, 0x01	; 1
    1e7c:	08 95       	ret

00001e7e <startAnalogConversion>:
    1e7e:	80 32       	cpi	r24, 0x20	; 32
    1e80:	a0 f4       	brcc	.+40     	; 0x1eaa <startAnalogConversion+0x2c>
    1e82:	97 e8       	ldi	r25, 0x87	; 135
    1e84:	90 93 7a 00 	sts	0x007A, r25
    1e88:	90 91 7c 00 	lds	r25, 0x007C
    1e8c:	29 2f       	mov	r18, r25
    1e8e:	20 64       	ori	r18, 0x40	; 64
    1e90:	66 23       	and	r22, r22
    1e92:	61 f4       	brne	.+24     	; 0x1eac <startAnalogConversion+0x2e>
    1e94:	92 2f       	mov	r25, r18
    1e96:	9f 77       	andi	r25, 0x7F	; 127
    1e98:	90 7e       	andi	r25, 0xE0	; 224
    1e9a:	98 2b       	or	r25, r24
    1e9c:	90 93 7c 00 	sts	0x007C, r25
    1ea0:	80 91 7a 00 	lds	r24, 0x007A
    1ea4:	80 64       	ori	r24, 0x40	; 64
    1ea6:	80 93 7a 00 	sts	0x007A, r24
    1eaa:	08 95       	ret
    1eac:	90 6c       	ori	r25, 0xC0	; 192
    1eae:	f4 cf       	rjmp	.-24     	; 0x1e98 <startAnalogConversion+0x1a>

00001eb0 <analogConversionResult>:
    1eb0:	80 91 7c 00 	lds	r24, 0x007C
    1eb4:	85 fd       	sbrc	r24, 5
    1eb6:	06 c0       	rjmp	.+12     	; 0x1ec4 <analogConversionResult+0x14>
    1eb8:	20 91 78 00 	lds	r18, 0x0078
    1ebc:	30 91 79 00 	lds	r19, 0x0079
    1ec0:	c9 01       	movw	r24, r18
    1ec2:	08 95       	ret
    1ec4:	20 91 79 00 	lds	r18, 0x0079
    1ec8:	30 e0       	ldi	r19, 0x00	; 0
    1eca:	c9 01       	movw	r24, r18
    1ecc:	08 95       	ret

00001ece <pvPortMalloc>:
    1ece:	ef 92       	push	r14
    1ed0:	ff 92       	push	r15
    1ed2:	0f 93       	push	r16
    1ed4:	1f 93       	push	r17
    1ed6:	cf 93       	push	r28
    1ed8:	df 93       	push	r29
    1eda:	ec 01       	movw	r28, r24
    1edc:	0e 94 65 16 	call	0x2cca	; 0x2cca <vTaskSuspendAll>
    1ee0:	80 91 32 07 	lds	r24, 0x0732
    1ee4:	88 23       	and	r24, r24
    1ee6:	09 f5       	brne	.+66     	; 0x1f2a <pvPortMalloc+0x5c>
    1ee8:	86 e6       	ldi	r24, 0x66	; 102
    1eea:	91 e0       	ldi	r25, 0x01	; 1
    1eec:	90 93 63 01 	sts	0x0163, r25
    1ef0:	80 93 62 01 	sts	0x0162, r24
    1ef4:	10 92 65 01 	sts	0x0165, r1
    1ef8:	10 92 64 01 	sts	0x0164, r1
    1efc:	88 ec       	ldi	r24, 0xC8	; 200
    1efe:	95 e0       	ldi	r25, 0x05	; 5
    1f00:	90 93 31 07 	sts	0x0731, r25
    1f04:	80 93 30 07 	sts	0x0730, r24
    1f08:	10 92 2f 07 	sts	0x072F, r1
    1f0c:	10 92 2e 07 	sts	0x072E, r1
    1f10:	90 93 69 01 	sts	0x0169, r25
    1f14:	80 93 68 01 	sts	0x0168, r24
    1f18:	8e e2       	ldi	r24, 0x2E	; 46
    1f1a:	97 e0       	ldi	r25, 0x07	; 7
    1f1c:	90 93 67 01 	sts	0x0167, r25
    1f20:	80 93 66 01 	sts	0x0166, r24
    1f24:	81 e0       	ldi	r24, 0x01	; 1
    1f26:	80 93 32 07 	sts	0x0732, r24
    1f2a:	20 97       	sbiw	r28, 0x00	; 0
    1f2c:	41 f0       	breq	.+16     	; 0x1f3e <pvPortMalloc+0x70>
    1f2e:	ae 01       	movw	r20, r28
    1f30:	4b 5f       	subi	r20, 0xFB	; 251
    1f32:	5f 4f       	sbci	r21, 0xFF	; 255
    1f34:	24 96       	adiw	r28, 0x04	; 4
    1f36:	25 e0       	ldi	r18, 0x05	; 5
    1f38:	c7 3c       	cpi	r28, 0xC7	; 199
    1f3a:	d2 07       	cpc	r29, r18
    1f3c:	58 f0       	brcs	.+22     	; 0x1f54 <pvPortMalloc+0x86>
    1f3e:	c0 e0       	ldi	r28, 0x00	; 0
    1f40:	d0 e0       	ldi	r29, 0x00	; 0
    1f42:	0e 94 33 17 	call	0x2e66	; 0x2e66 <xTaskResumeAll>
    1f46:	7e 01       	movw	r14, r28
    1f48:	ce 01       	movw	r24, r28
    1f4a:	cd b7       	in	r28, 0x3d	; 61
    1f4c:	de b7       	in	r29, 0x3e	; 62
    1f4e:	e6 e0       	ldi	r30, 0x06	; 6
    1f50:	0c 94 f3 1d 	jmp	0x3be6	; 0x3be6 <__epilogue_restores__+0x18>
    1f54:	e0 91 62 01 	lds	r30, 0x0162
    1f58:	f0 91 63 01 	lds	r31, 0x0163
    1f5c:	a2 e6       	ldi	r26, 0x62	; 98
    1f5e:	b1 e0       	ldi	r27, 0x01	; 1
    1f60:	06 c0       	rjmp	.+12     	; 0x1f6e <pvPortMalloc+0xa0>
    1f62:	80 81       	ld	r24, Z
    1f64:	91 81       	ldd	r25, Z+1	; 0x01
    1f66:	00 97       	sbiw	r24, 0x00	; 0
    1f68:	39 f0       	breq	.+14     	; 0x1f78 <pvPortMalloc+0xaa>
    1f6a:	df 01       	movw	r26, r30
    1f6c:	fc 01       	movw	r30, r24
    1f6e:	22 81       	ldd	r18, Z+2	; 0x02
    1f70:	33 81       	ldd	r19, Z+3	; 0x03
    1f72:	24 17       	cp	r18, r20
    1f74:	35 07       	cpc	r19, r21
    1f76:	a8 f3       	brcs	.-22     	; 0x1f62 <pvPortMalloc+0x94>
    1f78:	87 e0       	ldi	r24, 0x07	; 7
    1f7a:	ee 32       	cpi	r30, 0x2E	; 46
    1f7c:	f8 07       	cpc	r31, r24
    1f7e:	f9 f2       	breq	.-66     	; 0x1f3e <pvPortMalloc+0x70>
    1f80:	cd 91       	ld	r28, X+
    1f82:	dc 91       	ld	r29, X
    1f84:	11 97       	sbiw	r26, 0x01	; 1
    1f86:	25 96       	adiw	r28, 0x05	; 5
    1f88:	e0 80       	ld	r14, Z
    1f8a:	f1 80       	ldd	r15, Z+1	; 0x01
    1f8c:	11 96       	adiw	r26, 0x01	; 1
    1f8e:	fc 92       	st	X, r15
    1f90:	ee 92       	st	-X, r14
    1f92:	c9 01       	movw	r24, r18
    1f94:	84 1b       	sub	r24, r20
    1f96:	95 0b       	sbc	r25, r21
    1f98:	8b 30       	cpi	r24, 0x0B	; 11
    1f9a:	91 05       	cpc	r25, r1
    1f9c:	18 f1       	brcs	.+70     	; 0x1fe4 <pvPortMalloc+0x116>
    1f9e:	9f 01       	movw	r18, r30
    1fa0:	24 0f       	add	r18, r20
    1fa2:	35 1f       	adc	r19, r21
    1fa4:	d9 01       	movw	r26, r18
    1fa6:	13 96       	adiw	r26, 0x03	; 3
    1fa8:	9c 93       	st	X, r25
    1faa:	8e 93       	st	-X, r24
    1fac:	12 97       	sbiw	r26, 0x02	; 2
    1fae:	53 83       	std	Z+3, r21	; 0x03
    1fb0:	42 83       	std	Z+2, r20	; 0x02
    1fb2:	12 96       	adiw	r26, 0x02	; 2
    1fb4:	6d 91       	ld	r22, X+
    1fb6:	7c 91       	ld	r23, X
    1fb8:	13 97       	sbiw	r26, 0x03	; 3
    1fba:	02 e6       	ldi	r16, 0x62	; 98
    1fbc:	11 e0       	ldi	r17, 0x01	; 1
    1fbe:	01 c0       	rjmp	.+2      	; 0x1fc2 <pvPortMalloc+0xf4>
    1fc0:	8f 01       	movw	r16, r30
    1fc2:	d8 01       	movw	r26, r16
    1fc4:	ed 91       	ld	r30, X+
    1fc6:	fc 91       	ld	r31, X
    1fc8:	11 97       	sbiw	r26, 0x01	; 1
    1fca:	82 81       	ldd	r24, Z+2	; 0x02
    1fcc:	93 81       	ldd	r25, Z+3	; 0x03
    1fce:	86 17       	cp	r24, r22
    1fd0:	97 07       	cpc	r25, r23
    1fd2:	b0 f3       	brcs	.-20     	; 0x1fc0 <pvPortMalloc+0xf2>
    1fd4:	d9 01       	movw	r26, r18
    1fd6:	11 96       	adiw	r26, 0x01	; 1
    1fd8:	fc 93       	st	X, r31
    1fda:	ee 93       	st	-X, r30
    1fdc:	f8 01       	movw	r30, r16
    1fde:	31 83       	std	Z+1, r19	; 0x01
    1fe0:	20 83       	st	Z, r18
    1fe2:	9a 01       	movw	r18, r20
    1fe4:	80 91 2a 01 	lds	r24, 0x012A
    1fe8:	90 91 2b 01 	lds	r25, 0x012B
    1fec:	82 1b       	sub	r24, r18
    1fee:	93 0b       	sbc	r25, r19
    1ff0:	90 93 2b 01 	sts	0x012B, r25
    1ff4:	80 93 2a 01 	sts	0x012A, r24
    1ff8:	a4 cf       	rjmp	.-184    	; 0x1f42 <pvPortMalloc+0x74>

00001ffa <vPortFree>:
    1ffa:	cf 93       	push	r28
    1ffc:	df 93       	push	r29
    1ffe:	00 97       	sbiw	r24, 0x00	; 0
    2000:	11 f1       	breq	.+68     	; 0x2046 <vPortFree+0x4c>
    2002:	ec 01       	movw	r28, r24
    2004:	25 97       	sbiw	r28, 0x05	; 5
    2006:	0e 94 65 16 	call	0x2cca	; 0x2cca <vTaskSuspendAll>
    200a:	2a 81       	ldd	r18, Y+2	; 0x02
    200c:	3b 81       	ldd	r19, Y+3	; 0x03
    200e:	a2 e6       	ldi	r26, 0x62	; 98
    2010:	b1 e0       	ldi	r27, 0x01	; 1
    2012:	01 c0       	rjmp	.+2      	; 0x2016 <vPortFree+0x1c>
    2014:	df 01       	movw	r26, r30
    2016:	ed 91       	ld	r30, X+
    2018:	fc 91       	ld	r31, X
    201a:	11 97       	sbiw	r26, 0x01	; 1
    201c:	82 81       	ldd	r24, Z+2	; 0x02
    201e:	93 81       	ldd	r25, Z+3	; 0x03
    2020:	82 17       	cp	r24, r18
    2022:	93 07       	cpc	r25, r19
    2024:	b8 f3       	brcs	.-18     	; 0x2014 <vPortFree+0x1a>
    2026:	f9 83       	std	Y+1, r31	; 0x01
    2028:	e8 83       	st	Y, r30
    202a:	cd 93       	st	X+, r28
    202c:	dc 93       	st	X, r29
    202e:	80 91 2a 01 	lds	r24, 0x012A
    2032:	90 91 2b 01 	lds	r25, 0x012B
    2036:	82 0f       	add	r24, r18
    2038:	93 1f       	adc	r25, r19
    203a:	90 93 2b 01 	sts	0x012B, r25
    203e:	80 93 2a 01 	sts	0x012A, r24
    2042:	0e 94 33 17 	call	0x2e66	; 0x2e66 <xTaskResumeAll>
    2046:	df 91       	pop	r29
    2048:	cf 91       	pop	r28
    204a:	08 95       	ret

0000204c <xPortGetFreeHeapSize>:
    204c:	80 91 2a 01 	lds	r24, 0x012A
    2050:	90 91 2b 01 	lds	r25, 0x012B
    2054:	08 95       	ret

00002056 <vPortInitialiseBlocks>:
    2056:	08 95       	ret

00002058 <prvUnlockQueue>:
    2058:	0f 93       	push	r16
    205a:	1f 93       	push	r17
    205c:	cf 93       	push	r28
    205e:	df 93       	push	r29
    2060:	ec 01       	movw	r28, r24
    2062:	0f b6       	in	r0, 0x3f	; 63
    2064:	f8 94       	cli
    2066:	0f 92       	push	r0
    2068:	8e 8d       	ldd	r24, Y+30	; 0x1e
    206a:	18 16       	cp	r1, r24
    206c:	dc f4       	brge	.+54     	; 0x20a4 <prvUnlockQueue+0x4c>
    206e:	09 89       	ldd	r16, Y+17	; 0x11
    2070:	00 23       	and	r16, r16
    2072:	c1 f0       	breq	.+48     	; 0x20a4 <prvUnlockQueue+0x4c>
    2074:	8e 01       	movw	r16, r28
    2076:	0f 5e       	subi	r16, 0xEF	; 239
    2078:	1f 4f       	sbci	r17, 0xFF	; 255
    207a:	08 c0       	rjmp	.+16     	; 0x208c <prvUnlockQueue+0x34>
    207c:	3e 8d       	ldd	r19, Y+30	; 0x1e
    207e:	31 50       	subi	r19, 0x01	; 1
    2080:	3e 8f       	std	Y+30, r19	; 0x1e
    2082:	13 16       	cp	r1, r19
    2084:	7c f4       	brge	.+30     	; 0x20a4 <prvUnlockQueue+0x4c>
    2086:	29 89       	ldd	r18, Y+17	; 0x11
    2088:	22 23       	and	r18, r18
    208a:	61 f0       	breq	.+24     	; 0x20a4 <prvUnlockQueue+0x4c>
    208c:	c8 01       	movw	r24, r16
    208e:	0e 94 f5 18 	call	0x31ea	; 0x31ea <xTaskRemoveFromEventList>
    2092:	88 23       	and	r24, r24
    2094:	99 f3       	breq	.-26     	; 0x207c <prvUnlockQueue+0x24>
    2096:	0e 94 8d 19 	call	0x331a	; 0x331a <vTaskMissedYield>
    209a:	3e 8d       	ldd	r19, Y+30	; 0x1e
    209c:	31 50       	subi	r19, 0x01	; 1
    209e:	3e 8f       	std	Y+30, r19	; 0x1e
    20a0:	13 16       	cp	r1, r19
    20a2:	8c f3       	brlt	.-30     	; 0x2086 <prvUnlockQueue+0x2e>
    20a4:	4f ef       	ldi	r20, 0xFF	; 255
    20a6:	4e 8f       	std	Y+30, r20	; 0x1e
    20a8:	0f 90       	pop	r0
    20aa:	0f be       	out	0x3f, r0	; 63
    20ac:	0f b6       	in	r0, 0x3f	; 63
    20ae:	f8 94       	cli
    20b0:	0f 92       	push	r0
    20b2:	1d 8d       	ldd	r17, Y+29	; 0x1d
    20b4:	11 16       	cp	r1, r17
    20b6:	dc f4       	brge	.+54     	; 0x20ee <prvUnlockQueue+0x96>
    20b8:	58 85       	ldd	r21, Y+8	; 0x08
    20ba:	55 23       	and	r21, r21
    20bc:	c1 f0       	breq	.+48     	; 0x20ee <prvUnlockQueue+0x96>
    20be:	8e 01       	movw	r16, r28
    20c0:	08 5f       	subi	r16, 0xF8	; 248
    20c2:	1f 4f       	sbci	r17, 0xFF	; 255
    20c4:	08 c0       	rjmp	.+16     	; 0x20d6 <prvUnlockQueue+0x7e>
    20c6:	7d 8d       	ldd	r23, Y+29	; 0x1d
    20c8:	71 50       	subi	r23, 0x01	; 1
    20ca:	7d 8f       	std	Y+29, r23	; 0x1d
    20cc:	17 16       	cp	r1, r23
    20ce:	7c f4       	brge	.+30     	; 0x20ee <prvUnlockQueue+0x96>
    20d0:	68 85       	ldd	r22, Y+8	; 0x08
    20d2:	66 23       	and	r22, r22
    20d4:	61 f0       	breq	.+24     	; 0x20ee <prvUnlockQueue+0x96>
    20d6:	c8 01       	movw	r24, r16
    20d8:	0e 94 f5 18 	call	0x31ea	; 0x31ea <xTaskRemoveFromEventList>
    20dc:	88 23       	and	r24, r24
    20de:	99 f3       	breq	.-26     	; 0x20c6 <prvUnlockQueue+0x6e>
    20e0:	0e 94 8d 19 	call	0x331a	; 0x331a <vTaskMissedYield>
    20e4:	7d 8d       	ldd	r23, Y+29	; 0x1d
    20e6:	71 50       	subi	r23, 0x01	; 1
    20e8:	7d 8f       	std	Y+29, r23	; 0x1d
    20ea:	17 16       	cp	r1, r23
    20ec:	8c f3       	brlt	.-30     	; 0x20d0 <prvUnlockQueue+0x78>
    20ee:	9f ef       	ldi	r25, 0xFF	; 255
    20f0:	9d 8f       	std	Y+29, r25	; 0x1d
    20f2:	0f 90       	pop	r0
    20f4:	0f be       	out	0x3f, r0	; 63
    20f6:	df 91       	pop	r29
    20f8:	cf 91       	pop	r28
    20fa:	1f 91       	pop	r17
    20fc:	0f 91       	pop	r16
    20fe:	08 95       	ret

00002100 <prvCopyDataToQueue>:
    2100:	cf 93       	push	r28
    2102:	df 93       	push	r29
    2104:	ec 01       	movw	r28, r24
    2106:	2c 8d       	ldd	r18, Y+28	; 0x1c
    2108:	22 23       	and	r18, r18
    210a:	59 f4       	brne	.+22     	; 0x2122 <prvCopyDataToQueue+0x22>
    210c:	88 81       	ld	r24, Y
    210e:	99 81       	ldd	r25, Y+1	; 0x01
    2110:	00 97       	sbiw	r24, 0x00	; 0
    2112:	09 f4       	brne	.+2      	; 0x2116 <prvCopyDataToQueue+0x16>
    2114:	47 c0       	rjmp	.+142    	; 0x21a4 <prvCopyDataToQueue+0xa4>
    2116:	8a 8d       	ldd	r24, Y+26	; 0x1a
    2118:	8f 5f       	subi	r24, 0xFF	; 255
    211a:	8a 8f       	std	Y+26, r24	; 0x1a
    211c:	df 91       	pop	r29
    211e:	cf 91       	pop	r28
    2120:	08 95       	ret
    2122:	44 23       	and	r20, r20
    2124:	e1 f4       	brne	.+56     	; 0x215e <prvCopyDataToQueue+0x5e>
    2126:	8c 81       	ldd	r24, Y+4	; 0x04
    2128:	9d 81       	ldd	r25, Y+5	; 0x05
    212a:	42 2f       	mov	r20, r18
    212c:	50 e0       	ldi	r21, 0x00	; 0
    212e:	0e 94 11 1e 	call	0x3c22	; 0x3c22 <memcpy>
    2132:	2c 8d       	ldd	r18, Y+28	; 0x1c
    2134:	8c 81       	ldd	r24, Y+4	; 0x04
    2136:	9d 81       	ldd	r25, Y+5	; 0x05
    2138:	82 0f       	add	r24, r18
    213a:	91 1d       	adc	r25, r1
    213c:	9d 83       	std	Y+5, r25	; 0x05
    213e:	8c 83       	std	Y+4, r24	; 0x04
    2140:	2a 81       	ldd	r18, Y+2	; 0x02
    2142:	3b 81       	ldd	r19, Y+3	; 0x03
    2144:	82 17       	cp	r24, r18
    2146:	93 07       	cpc	r25, r19
    2148:	30 f3       	brcs	.-52     	; 0x2116 <prvCopyDataToQueue+0x16>
    214a:	88 81       	ld	r24, Y
    214c:	99 81       	ldd	r25, Y+1	; 0x01
    214e:	9d 83       	std	Y+5, r25	; 0x05
    2150:	8c 83       	std	Y+4, r24	; 0x04
    2152:	8a 8d       	ldd	r24, Y+26	; 0x1a
    2154:	8f 5f       	subi	r24, 0xFF	; 255
    2156:	8a 8f       	std	Y+26, r24	; 0x1a
    2158:	df 91       	pop	r29
    215a:	cf 91       	pop	r28
    215c:	08 95       	ret
    215e:	8e 81       	ldd	r24, Y+6	; 0x06
    2160:	9f 81       	ldd	r25, Y+7	; 0x07
    2162:	42 2f       	mov	r20, r18
    2164:	50 e0       	ldi	r21, 0x00	; 0
    2166:	0e 94 11 1e 	call	0x3c22	; 0x3c22 <memcpy>
    216a:	3c 8d       	ldd	r19, Y+28	; 0x1c
    216c:	23 2f       	mov	r18, r19
    216e:	30 e0       	ldi	r19, 0x00	; 0
    2170:	30 95       	com	r19
    2172:	21 95       	neg	r18
    2174:	3f 4f       	sbci	r19, 0xFF	; 255
    2176:	8e 81       	ldd	r24, Y+6	; 0x06
    2178:	9f 81       	ldd	r25, Y+7	; 0x07
    217a:	82 0f       	add	r24, r18
    217c:	93 1f       	adc	r25, r19
    217e:	9f 83       	std	Y+7, r25	; 0x07
    2180:	8e 83       	std	Y+6, r24	; 0x06
    2182:	48 81       	ld	r20, Y
    2184:	59 81       	ldd	r21, Y+1	; 0x01
    2186:	84 17       	cp	r24, r20
    2188:	95 07       	cpc	r25, r21
    218a:	28 f6       	brcc	.-118    	; 0x2116 <prvCopyDataToQueue+0x16>
    218c:	8a 81       	ldd	r24, Y+2	; 0x02
    218e:	9b 81       	ldd	r25, Y+3	; 0x03
    2190:	82 0f       	add	r24, r18
    2192:	93 1f       	adc	r25, r19
    2194:	9f 83       	std	Y+7, r25	; 0x07
    2196:	8e 83       	std	Y+6, r24	; 0x06
    2198:	8a 8d       	ldd	r24, Y+26	; 0x1a
    219a:	8f 5f       	subi	r24, 0xFF	; 255
    219c:	8a 8f       	std	Y+26, r24	; 0x1a
    219e:	df 91       	pop	r29
    21a0:	cf 91       	pop	r28
    21a2:	08 95       	ret
    21a4:	8a 81       	ldd	r24, Y+2	; 0x02
    21a6:	9b 81       	ldd	r25, Y+3	; 0x03
    21a8:	0e 94 05 1a 	call	0x340a	; 0x340a <vTaskPriorityDisinherit>
    21ac:	1b 82       	std	Y+3, r1	; 0x03
    21ae:	1a 82       	std	Y+2, r1	; 0x02
    21b0:	b2 cf       	rjmp	.-156    	; 0x2116 <prvCopyDataToQueue+0x16>

000021b2 <xQueueGenericCreate>:
    21b2:	8f 92       	push	r8
    21b4:	9f 92       	push	r9
    21b6:	bf 92       	push	r11
    21b8:	cf 92       	push	r12
    21ba:	df 92       	push	r13
    21bc:	ef 92       	push	r14
    21be:	ff 92       	push	r15
    21c0:	0f 93       	push	r16
    21c2:	1f 93       	push	r17
    21c4:	df 93       	push	r29
    21c6:	cf 93       	push	r28
    21c8:	0f 92       	push	r0
    21ca:	cd b7       	in	r28, 0x3d	; 61
    21cc:	de b7       	in	r29, 0x3e	; 62
    21ce:	b8 2e       	mov	r11, r24
    21d0:	88 23       	and	r24, r24
    21d2:	81 f4       	brne	.+32     	; 0x21f4 <xQueueGenericCreate+0x42>
    21d4:	40 e0       	ldi	r20, 0x00	; 0
    21d6:	50 e0       	ldi	r21, 0x00	; 0
    21d8:	ca 01       	movw	r24, r20
    21da:	0f 90       	pop	r0
    21dc:	cf 91       	pop	r28
    21de:	df 91       	pop	r29
    21e0:	1f 91       	pop	r17
    21e2:	0f 91       	pop	r16
    21e4:	ff 90       	pop	r15
    21e6:	ef 90       	pop	r14
    21e8:	df 90       	pop	r13
    21ea:	cf 90       	pop	r12
    21ec:	bf 90       	pop	r11
    21ee:	9f 90       	pop	r9
    21f0:	8f 90       	pop	r8
    21f2:	08 95       	ret
    21f4:	8f e1       	ldi	r24, 0x1F	; 31
    21f6:	90 e0       	ldi	r25, 0x00	; 0
    21f8:	69 83       	std	Y+1, r22	; 0x01
    21fa:	0e 94 67 0f 	call	0x1ece	; 0x1ece <pvPortMalloc>
    21fe:	4c 01       	movw	r8, r24
    2200:	69 81       	ldd	r22, Y+1	; 0x01
    2202:	00 97       	sbiw	r24, 0x00	; 0
    2204:	39 f3       	breq	.-50     	; 0x21d4 <xQueueGenericCreate+0x22>
    2206:	0b 2d       	mov	r16, r11
    2208:	10 e0       	ldi	r17, 0x00	; 0
    220a:	c6 2e       	mov	r12, r22
    220c:	dd 24       	eor	r13, r13
    220e:	c0 9e       	mul	r12, r16
    2210:	70 01       	movw	r14, r0
    2212:	c1 9e       	mul	r12, r17
    2214:	f0 0c       	add	r15, r0
    2216:	d0 9e       	mul	r13, r16
    2218:	f0 0c       	add	r15, r0
    221a:	11 24       	eor	r1, r1
    221c:	c7 01       	movw	r24, r14
    221e:	01 96       	adiw	r24, 0x01	; 1
    2220:	0e 94 67 0f 	call	0x1ece	; 0x1ece <pvPortMalloc>
    2224:	f4 01       	movw	r30, r8
    2226:	91 83       	std	Z+1, r25	; 0x01
    2228:	80 83       	st	Z, r24
    222a:	69 81       	ldd	r22, Y+1	; 0x01
    222c:	00 97       	sbiw	r24, 0x00	; 0
    222e:	19 f1       	breq	.+70     	; 0x2276 <xQueueGenericCreate+0xc4>
    2230:	e8 0e       	add	r14, r24
    2232:	f9 1e       	adc	r15, r25
    2234:	f3 82       	std	Z+3, r15	; 0x03
    2236:	e2 82       	std	Z+2, r14	; 0x02
    2238:	12 8e       	std	Z+26, r1	; 0x1a
    223a:	95 83       	std	Z+5, r25	; 0x05
    223c:	84 83       	std	Z+4, r24	; 0x04
    223e:	01 50       	subi	r16, 0x01	; 1
    2240:	10 40       	sbci	r17, 0x00	; 0
    2242:	0c 9d       	mul	r16, r12
    2244:	a0 01       	movw	r20, r0
    2246:	0d 9d       	mul	r16, r13
    2248:	50 0d       	add	r21, r0
    224a:	1c 9d       	mul	r17, r12
    224c:	50 0d       	add	r21, r0
    224e:	11 24       	eor	r1, r1
    2250:	48 0f       	add	r20, r24
    2252:	59 1f       	adc	r21, r25
    2254:	57 83       	std	Z+7, r21	; 0x07
    2256:	46 83       	std	Z+6, r20	; 0x06
    2258:	b3 8e       	std	Z+27, r11	; 0x1b
    225a:	64 8f       	std	Z+28, r22	; 0x1c
    225c:	8f ef       	ldi	r24, 0xFF	; 255
    225e:	85 8f       	std	Z+29, r24	; 0x1d
    2260:	86 8f       	std	Z+30, r24	; 0x1e
    2262:	c4 01       	movw	r24, r8
    2264:	08 96       	adiw	r24, 0x08	; 8
    2266:	0e 94 74 1b 	call	0x36e8	; 0x36e8 <vListInitialise>
    226a:	c4 01       	movw	r24, r8
    226c:	41 96       	adiw	r24, 0x11	; 17
    226e:	0e 94 74 1b 	call	0x36e8	; 0x36e8 <vListInitialise>
    2272:	a4 01       	movw	r20, r8
    2274:	b1 cf       	rjmp	.-158    	; 0x21d8 <xQueueGenericCreate+0x26>
    2276:	c4 01       	movw	r24, r8
    2278:	0e 94 fd 0f 	call	0x1ffa	; 0x1ffa <vPortFree>
    227c:	40 e0       	ldi	r20, 0x00	; 0
    227e:	50 e0       	ldi	r21, 0x00	; 0
    2280:	ab cf       	rjmp	.-170    	; 0x21d8 <xQueueGenericCreate+0x26>

00002282 <xQueueCreateCountingSemaphore>:
    2282:	1f 93       	push	r17
    2284:	16 2f       	mov	r17, r22
    2286:	60 e0       	ldi	r22, 0x00	; 0
    2288:	42 e0       	ldi	r20, 0x02	; 2
    228a:	0e 94 d9 10 	call	0x21b2	; 0x21b2 <xQueueGenericCreate>
    228e:	fc 01       	movw	r30, r24
    2290:	00 97       	sbiw	r24, 0x00	; 0
    2292:	09 f0       	breq	.+2      	; 0x2296 <xQueueCreateCountingSemaphore+0x14>
    2294:	12 8f       	std	Z+26, r17	; 0x1a
    2296:	cf 01       	movw	r24, r30
    2298:	1f 91       	pop	r17
    229a:	08 95       	ret

0000229c <xQueueGenericSend>:
    229c:	6f 92       	push	r6
    229e:	7f 92       	push	r7
    22a0:	9f 92       	push	r9
    22a2:	af 92       	push	r10
    22a4:	bf 92       	push	r11
    22a6:	cf 92       	push	r12
    22a8:	df 92       	push	r13
    22aa:	ef 92       	push	r14
    22ac:	ff 92       	push	r15
    22ae:	0f 93       	push	r16
    22b0:	1f 93       	push	r17
    22b2:	df 93       	push	r29
    22b4:	cf 93       	push	r28
    22b6:	00 d0       	rcall	.+0      	; 0x22b8 <xQueueGenericSend+0x1c>
    22b8:	00 d0       	rcall	.+0      	; 0x22ba <xQueueGenericSend+0x1e>
    22ba:	0f 92       	push	r0
    22bc:	cd b7       	in	r28, 0x3d	; 61
    22be:	de b7       	in	r29, 0x3e	; 62
    22c0:	8c 01       	movw	r16, r24
    22c2:	3b 01       	movw	r6, r22
    22c4:	5d 83       	std	Y+5, r21	; 0x05
    22c6:	4c 83       	std	Y+4, r20	; 0x04
    22c8:	92 2e       	mov	r9, r18
    22ca:	20 e0       	ldi	r18, 0x00	; 0
    22cc:	7e 01       	movw	r14, r28
    22ce:	08 94       	sec
    22d0:	e1 1c       	adc	r14, r1
    22d2:	f1 1c       	adc	r15, r1
    22d4:	94 e0       	ldi	r25, 0x04	; 4
    22d6:	c9 2e       	mov	r12, r25
    22d8:	d1 2c       	mov	r13, r1
    22da:	cc 0e       	add	r12, r28
    22dc:	dd 1e       	adc	r13, r29
    22de:	88 e0       	ldi	r24, 0x08	; 8
    22e0:	a8 2e       	mov	r10, r24
    22e2:	b1 2c       	mov	r11, r1
    22e4:	a0 0e       	add	r10, r16
    22e6:	b1 1e       	adc	r11, r17
    22e8:	0f b6       	in	r0, 0x3f	; 63
    22ea:	f8 94       	cli
    22ec:	0f 92       	push	r0
    22ee:	f8 01       	movw	r30, r16
    22f0:	92 8d       	ldd	r25, Z+26	; 0x1a
    22f2:	83 8d       	ldd	r24, Z+27	; 0x1b
    22f4:	98 17       	cp	r25, r24
    22f6:	08 f4       	brcc	.+2      	; 0x22fa <xQueueGenericSend+0x5e>
    22f8:	4c c0       	rjmp	.+152    	; 0x2392 <xQueueGenericSend+0xf6>
    22fa:	8c 81       	ldd	r24, Y+4	; 0x04
    22fc:	9d 81       	ldd	r25, Y+5	; 0x05
    22fe:	00 97       	sbiw	r24, 0x00	; 0
    2300:	09 f4       	brne	.+2      	; 0x2304 <xQueueGenericSend+0x68>
    2302:	66 c0       	rjmp	.+204    	; 0x23d0 <xQueueGenericSend+0x134>
    2304:	22 23       	and	r18, r18
    2306:	51 f1       	breq	.+84     	; 0x235c <xQueueGenericSend+0xc0>
    2308:	0f 90       	pop	r0
    230a:	0f be       	out	0x3f, r0	; 63
    230c:	0e 94 65 16 	call	0x2cca	; 0x2cca <vTaskSuspendAll>
    2310:	0f b6       	in	r0, 0x3f	; 63
    2312:	f8 94       	cli
    2314:	0f 92       	push	r0
    2316:	f8 01       	movw	r30, r16
    2318:	25 8d       	ldd	r18, Z+29	; 0x1d
    231a:	2f 3f       	cpi	r18, 0xFF	; 255
    231c:	19 f1       	breq	.+70     	; 0x2364 <xQueueGenericSend+0xc8>
    231e:	f8 01       	movw	r30, r16
    2320:	36 8d       	ldd	r19, Z+30	; 0x1e
    2322:	3f 3f       	cpi	r19, 0xFF	; 255
    2324:	21 f1       	breq	.+72     	; 0x236e <xQueueGenericSend+0xd2>
    2326:	0f 90       	pop	r0
    2328:	0f be       	out	0x3f, r0	; 63
    232a:	c7 01       	movw	r24, r14
    232c:	b6 01       	movw	r22, r12
    232e:	0e 94 47 19 	call	0x328e	; 0x328e <xTaskCheckForTimeOut>
    2332:	88 23       	and	r24, r24
    2334:	09 f0       	breq	.+2      	; 0x2338 <xQueueGenericSend+0x9c>
    2336:	50 c0       	rjmp	.+160    	; 0x23d8 <xQueueGenericSend+0x13c>
    2338:	0f b6       	in	r0, 0x3f	; 63
    233a:	f8 94       	cli
    233c:	0f 92       	push	r0
    233e:	f8 01       	movw	r30, r16
    2340:	52 8d       	ldd	r21, Z+26	; 0x1a
    2342:	0f 90       	pop	r0
    2344:	0f be       	out	0x3f, r0	; 63
    2346:	f8 01       	movw	r30, r16
    2348:	43 8d       	ldd	r20, Z+27	; 0x1b
    234a:	54 17       	cp	r21, r20
    234c:	91 f0       	breq	.+36     	; 0x2372 <xQueueGenericSend+0xd6>
    234e:	c8 01       	movw	r24, r16
    2350:	0e 94 2c 10 	call	0x2058	; 0x2058 <prvUnlockQueue>
    2354:	0e 94 33 17 	call	0x2e66	; 0x2e66 <xTaskResumeAll>
    2358:	21 e0       	ldi	r18, 0x01	; 1
    235a:	c6 cf       	rjmp	.-116    	; 0x22e8 <xQueueGenericSend+0x4c>
    235c:	c7 01       	movw	r24, r14
    235e:	0e 94 3c 19 	call	0x3278	; 0x3278 <vTaskSetTimeOutState>
    2362:	d2 cf       	rjmp	.-92     	; 0x2308 <xQueueGenericSend+0x6c>
    2364:	15 8e       	std	Z+29, r1	; 0x1d
    2366:	f8 01       	movw	r30, r16
    2368:	36 8d       	ldd	r19, Z+30	; 0x1e
    236a:	3f 3f       	cpi	r19, 0xFF	; 255
    236c:	e1 f6       	brne	.-72     	; 0x2326 <xQueueGenericSend+0x8a>
    236e:	16 8e       	std	Z+30, r1	; 0x1e
    2370:	da cf       	rjmp	.-76     	; 0x2326 <xQueueGenericSend+0x8a>
    2372:	6c 81       	ldd	r22, Y+4	; 0x04
    2374:	7d 81       	ldd	r23, Y+5	; 0x05
    2376:	c5 01       	movw	r24, r10
    2378:	0e 94 c7 18 	call	0x318e	; 0x318e <vTaskPlaceOnEventList>
    237c:	c8 01       	movw	r24, r16
    237e:	0e 94 2c 10 	call	0x2058	; 0x2058 <prvUnlockQueue>
    2382:	0e 94 33 17 	call	0x2e66	; 0x2e66 <xTaskResumeAll>
    2386:	88 23       	and	r24, r24
    2388:	39 f7       	brne	.-50     	; 0x2358 <xQueueGenericSend+0xbc>
    238a:	0e 94 bd 1a 	call	0x357a	; 0x357a <vPortYield>
    238e:	21 e0       	ldi	r18, 0x01	; 1
    2390:	ab cf       	rjmp	.-170    	; 0x22e8 <xQueueGenericSend+0x4c>
    2392:	c8 01       	movw	r24, r16
    2394:	b3 01       	movw	r22, r6
    2396:	49 2d       	mov	r20, r9
    2398:	0e 94 80 10 	call	0x2100	; 0x2100 <prvCopyDataToQueue>
    239c:	f8 01       	movw	r30, r16
    239e:	81 89       	ldd	r24, Z+17	; 0x11
    23a0:	88 23       	and	r24, r24
    23a2:	09 f5       	brne	.+66     	; 0x23e6 <xQueueGenericSend+0x14a>
    23a4:	0f 90       	pop	r0
    23a6:	0f be       	out	0x3f, r0	; 63
    23a8:	81 e0       	ldi	r24, 0x01	; 1
    23aa:	0f 90       	pop	r0
    23ac:	0f 90       	pop	r0
    23ae:	0f 90       	pop	r0
    23b0:	0f 90       	pop	r0
    23b2:	0f 90       	pop	r0
    23b4:	cf 91       	pop	r28
    23b6:	df 91       	pop	r29
    23b8:	1f 91       	pop	r17
    23ba:	0f 91       	pop	r16
    23bc:	ff 90       	pop	r15
    23be:	ef 90       	pop	r14
    23c0:	df 90       	pop	r13
    23c2:	cf 90       	pop	r12
    23c4:	bf 90       	pop	r11
    23c6:	af 90       	pop	r10
    23c8:	9f 90       	pop	r9
    23ca:	7f 90       	pop	r7
    23cc:	6f 90       	pop	r6
    23ce:	08 95       	ret
    23d0:	0f 90       	pop	r0
    23d2:	0f be       	out	0x3f, r0	; 63
    23d4:	80 e0       	ldi	r24, 0x00	; 0
    23d6:	e9 cf       	rjmp	.-46     	; 0x23aa <xQueueGenericSend+0x10e>
    23d8:	c8 01       	movw	r24, r16
    23da:	0e 94 2c 10 	call	0x2058	; 0x2058 <prvUnlockQueue>
    23de:	0e 94 33 17 	call	0x2e66	; 0x2e66 <xTaskResumeAll>
    23e2:	80 e0       	ldi	r24, 0x00	; 0
    23e4:	e2 cf       	rjmp	.-60     	; 0x23aa <xQueueGenericSend+0x10e>
    23e6:	c8 01       	movw	r24, r16
    23e8:	41 96       	adiw	r24, 0x11	; 17
    23ea:	0e 94 f5 18 	call	0x31ea	; 0x31ea <xTaskRemoveFromEventList>
    23ee:	81 30       	cpi	r24, 0x01	; 1
    23f0:	c9 f6       	brne	.-78     	; 0x23a4 <xQueueGenericSend+0x108>
    23f2:	0e 94 bd 1a 	call	0x357a	; 0x357a <vPortYield>
    23f6:	d6 cf       	rjmp	.-84     	; 0x23a4 <xQueueGenericSend+0x108>

000023f8 <xQueueGiveMutexRecursive>:
    23f8:	0f 93       	push	r16
    23fa:	1f 93       	push	r17
    23fc:	cf 93       	push	r28
    23fe:	df 93       	push	r29
    2400:	ec 01       	movw	r28, r24
    2402:	0a 81       	ldd	r16, Y+2	; 0x02
    2404:	1b 81       	ldd	r17, Y+3	; 0x03
    2406:	0e 94 a9 19 	call	0x3352	; 0x3352 <xTaskGetCurrentTaskHandle>
    240a:	08 17       	cp	r16, r24
    240c:	19 07       	cpc	r17, r25
    240e:	31 f0       	breq	.+12     	; 0x241c <xQueueGiveMutexRecursive+0x24>
    2410:	80 e0       	ldi	r24, 0x00	; 0
    2412:	df 91       	pop	r29
    2414:	cf 91       	pop	r28
    2416:	1f 91       	pop	r17
    2418:	0f 91       	pop	r16
    241a:	08 95       	ret
    241c:	8e 81       	ldd	r24, Y+6	; 0x06
    241e:	9f 81       	ldd	r25, Y+7	; 0x07
    2420:	01 97       	sbiw	r24, 0x01	; 1
    2422:	9f 83       	std	Y+7, r25	; 0x07
    2424:	8e 83       	std	Y+6, r24	; 0x06
    2426:	00 97       	sbiw	r24, 0x00	; 0
    2428:	31 f0       	breq	.+12     	; 0x2436 <xQueueGiveMutexRecursive+0x3e>
    242a:	81 e0       	ldi	r24, 0x01	; 1
    242c:	df 91       	pop	r29
    242e:	cf 91       	pop	r28
    2430:	1f 91       	pop	r17
    2432:	0f 91       	pop	r16
    2434:	08 95       	ret
    2436:	ce 01       	movw	r24, r28
    2438:	60 e0       	ldi	r22, 0x00	; 0
    243a:	70 e0       	ldi	r23, 0x00	; 0
    243c:	40 e0       	ldi	r20, 0x00	; 0
    243e:	50 e0       	ldi	r21, 0x00	; 0
    2440:	20 e0       	ldi	r18, 0x00	; 0
    2442:	0e 94 4e 11 	call	0x229c	; 0x229c <xQueueGenericSend>
    2446:	81 e0       	ldi	r24, 0x01	; 1
    2448:	e4 cf       	rjmp	.-56     	; 0x2412 <xQueueGiveMutexRecursive+0x1a>

0000244a <xQueueCreateMutex>:
    244a:	ef 92       	push	r14
    244c:	ff 92       	push	r15
    244e:	cf 93       	push	r28
    2450:	df 93       	push	r29
    2452:	8f e1       	ldi	r24, 0x1F	; 31
    2454:	90 e0       	ldi	r25, 0x00	; 0
    2456:	0e 94 67 0f 	call	0x1ece	; 0x1ece <pvPortMalloc>
    245a:	e8 2e       	mov	r14, r24
    245c:	e7 01       	movw	r28, r14
    245e:	7e 01       	movw	r14, r28
    2460:	f9 2e       	mov	r15, r25
    2462:	e7 01       	movw	r28, r14
    2464:	20 97       	sbiw	r28, 0x00	; 0
    2466:	f9 f0       	breq	.+62     	; 0x24a6 <xQueueCreateMutex+0x5c>
    2468:	1b 82       	std	Y+3, r1	; 0x03
    246a:	1a 82       	std	Y+2, r1	; 0x02
    246c:	19 82       	std	Y+1, r1	; 0x01
    246e:	18 82       	st	Y, r1
    2470:	1d 82       	std	Y+5, r1	; 0x05
    2472:	1c 82       	std	Y+4, r1	; 0x04
    2474:	1f 82       	std	Y+7, r1	; 0x07
    2476:	1e 82       	std	Y+6, r1	; 0x06
    2478:	1a 8e       	std	Y+26, r1	; 0x1a
    247a:	81 e0       	ldi	r24, 0x01	; 1
    247c:	8b 8f       	std	Y+27, r24	; 0x1b
    247e:	1c 8e       	std	Y+28, r1	; 0x1c
    2480:	8f ef       	ldi	r24, 0xFF	; 255
    2482:	8d 8f       	std	Y+29, r24	; 0x1d
    2484:	8e 8f       	std	Y+30, r24	; 0x1e
    2486:	c7 01       	movw	r24, r14
    2488:	08 96       	adiw	r24, 0x08	; 8
    248a:	0e 94 74 1b 	call	0x36e8	; 0x36e8 <vListInitialise>
    248e:	c7 01       	movw	r24, r14
    2490:	41 96       	adiw	r24, 0x11	; 17
    2492:	0e 94 74 1b 	call	0x36e8	; 0x36e8 <vListInitialise>
    2496:	c7 01       	movw	r24, r14
    2498:	60 e0       	ldi	r22, 0x00	; 0
    249a:	70 e0       	ldi	r23, 0x00	; 0
    249c:	40 e0       	ldi	r20, 0x00	; 0
    249e:	50 e0       	ldi	r21, 0x00	; 0
    24a0:	20 e0       	ldi	r18, 0x00	; 0
    24a2:	0e 94 4e 11 	call	0x229c	; 0x229c <xQueueGenericSend>
    24a6:	ce 01       	movw	r24, r28
    24a8:	df 91       	pop	r29
    24aa:	cf 91       	pop	r28
    24ac:	ff 90       	pop	r15
    24ae:	ef 90       	pop	r14
    24b0:	08 95       	ret

000024b2 <xQueueGenericSendFromISR>:
    24b2:	0f 93       	push	r16
    24b4:	1f 93       	push	r17
    24b6:	cf 93       	push	r28
    24b8:	df 93       	push	r29
    24ba:	ec 01       	movw	r28, r24
    24bc:	8a 01       	movw	r16, r20
    24be:	9a 8d       	ldd	r25, Y+26	; 0x1a
    24c0:	8b 8d       	ldd	r24, Y+27	; 0x1b
    24c2:	98 17       	cp	r25, r24
    24c4:	30 f0       	brcs	.+12     	; 0x24d2 <xQueueGenericSendFromISR+0x20>
    24c6:	80 e0       	ldi	r24, 0x00	; 0
    24c8:	df 91       	pop	r29
    24ca:	cf 91       	pop	r28
    24cc:	1f 91       	pop	r17
    24ce:	0f 91       	pop	r16
    24d0:	08 95       	ret
    24d2:	ce 01       	movw	r24, r28
    24d4:	42 2f       	mov	r20, r18
    24d6:	0e 94 80 10 	call	0x2100	; 0x2100 <prvCopyDataToQueue>
    24da:	8e 8d       	ldd	r24, Y+30	; 0x1e
    24dc:	8f 3f       	cpi	r24, 0xFF	; 255
    24de:	41 f0       	breq	.+16     	; 0x24f0 <xQueueGenericSendFromISR+0x3e>
    24e0:	8f 5f       	subi	r24, 0xFF	; 255
    24e2:	8e 8f       	std	Y+30, r24	; 0x1e
    24e4:	81 e0       	ldi	r24, 0x01	; 1
    24e6:	df 91       	pop	r29
    24e8:	cf 91       	pop	r28
    24ea:	1f 91       	pop	r17
    24ec:	0f 91       	pop	r16
    24ee:	08 95       	ret
    24f0:	29 89       	ldd	r18, Y+17	; 0x11
    24f2:	22 23       	and	r18, r18
    24f4:	11 f4       	brne	.+4      	; 0x24fa <xQueueGenericSendFromISR+0x48>
    24f6:	81 e0       	ldi	r24, 0x01	; 1
    24f8:	e7 cf       	rjmp	.-50     	; 0x24c8 <xQueueGenericSendFromISR+0x16>
    24fa:	ce 01       	movw	r24, r28
    24fc:	41 96       	adiw	r24, 0x11	; 17
    24fe:	0e 94 f5 18 	call	0x31ea	; 0x31ea <xTaskRemoveFromEventList>
    2502:	88 23       	and	r24, r24
    2504:	c1 f3       	breq	.-16     	; 0x24f6 <xQueueGenericSendFromISR+0x44>
    2506:	81 e0       	ldi	r24, 0x01	; 1
    2508:	f8 01       	movw	r30, r16
    250a:	80 83       	st	Z, r24
    250c:	dd cf       	rjmp	.-70     	; 0x24c8 <xQueueGenericSendFromISR+0x16>

0000250e <xQueueGenericReceive>:
    250e:	a5 e0       	ldi	r26, 0x05	; 5
    2510:	b0 e0       	ldi	r27, 0x00	; 0
    2512:	ed e8       	ldi	r30, 0x8D	; 141
    2514:	f2 e1       	ldi	r31, 0x12	; 18
    2516:	0c 94 d0 1d 	jmp	0x3ba0	; 0x3ba0 <__prologue_saves__+0xa>
    251a:	8c 01       	movw	r16, r24
    251c:	86 2e       	mov	r8, r22
    251e:	77 2e       	mov	r7, r23
    2520:	5d 83       	std	Y+5, r21	; 0x05
    2522:	4c 83       	std	Y+4, r20	; 0x04
    2524:	92 2e       	mov	r9, r18
    2526:	20 e0       	ldi	r18, 0x00	; 0
    2528:	7e 01       	movw	r14, r28
    252a:	08 94       	sec
    252c:	e1 1c       	adc	r14, r1
    252e:	f1 1c       	adc	r15, r1
    2530:	44 e0       	ldi	r20, 0x04	; 4
    2532:	c4 2e       	mov	r12, r20
    2534:	d1 2c       	mov	r13, r1
    2536:	cc 0e       	add	r12, r28
    2538:	dd 1e       	adc	r13, r29
    253a:	31 e1       	ldi	r19, 0x11	; 17
    253c:	a3 2e       	mov	r10, r19
    253e:	b1 2c       	mov	r11, r1
    2540:	a8 0e       	add	r10, r24
    2542:	b9 1e       	adc	r11, r25
    2544:	0f b6       	in	r0, 0x3f	; 63
    2546:	f8 94       	cli
    2548:	0f 92       	push	r0
    254a:	f8 01       	movw	r30, r16
    254c:	82 8d       	ldd	r24, Z+26	; 0x1a
    254e:	88 23       	and	r24, r24
    2550:	09 f0       	breq	.+2      	; 0x2554 <xQueueGenericReceive+0x46>
    2552:	60 c0       	rjmp	.+192    	; 0x2614 <xQueueGenericReceive+0x106>
    2554:	8c 81       	ldd	r24, Y+4	; 0x04
    2556:	9d 81       	ldd	r25, Y+5	; 0x05
    2558:	00 97       	sbiw	r24, 0x00	; 0
    255a:	09 f4       	brne	.+2      	; 0x255e <xQueueGenericReceive+0x50>
    255c:	8a c0       	rjmp	.+276    	; 0x2672 <xQueueGenericReceive+0x164>
    255e:	22 23       	and	r18, r18
    2560:	09 f4       	brne	.+2      	; 0x2564 <xQueueGenericReceive+0x56>
    2562:	3a c0       	rjmp	.+116    	; 0x25d8 <xQueueGenericReceive+0xca>
    2564:	0f 90       	pop	r0
    2566:	0f be       	out	0x3f, r0	; 63
    2568:	0e 94 65 16 	call	0x2cca	; 0x2cca <vTaskSuspendAll>
    256c:	0f b6       	in	r0, 0x3f	; 63
    256e:	f8 94       	cli
    2570:	0f 92       	push	r0
    2572:	f8 01       	movw	r30, r16
    2574:	55 8d       	ldd	r21, Z+29	; 0x1d
    2576:	5f 3f       	cpi	r21, 0xFF	; 255
    2578:	09 f4       	brne	.+2      	; 0x257c <xQueueGenericReceive+0x6e>
    257a:	39 c0       	rjmp	.+114    	; 0x25ee <xQueueGenericReceive+0xe0>
    257c:	f8 01       	movw	r30, r16
    257e:	66 8d       	ldd	r22, Z+30	; 0x1e
    2580:	6f 3f       	cpi	r22, 0xFF	; 255
    2582:	09 f4       	brne	.+2      	; 0x2586 <xQueueGenericReceive+0x78>
    2584:	3a c0       	rjmp	.+116    	; 0x25fa <xQueueGenericReceive+0xec>
    2586:	0f 90       	pop	r0
    2588:	0f be       	out	0x3f, r0	; 63
    258a:	c7 01       	movw	r24, r14
    258c:	b6 01       	movw	r22, r12
    258e:	0e 94 47 19 	call	0x328e	; 0x328e <xTaskCheckForTimeOut>
    2592:	88 23       	and	r24, r24
    2594:	09 f0       	breq	.+2      	; 0x2598 <xQueueGenericReceive+0x8a>
    2596:	75 c0       	rjmp	.+234    	; 0x2682 <xQueueGenericReceive+0x174>
    2598:	0f b6       	in	r0, 0x3f	; 63
    259a:	f8 94       	cli
    259c:	0f 92       	push	r0
    259e:	f8 01       	movw	r30, r16
    25a0:	72 8d       	ldd	r23, Z+26	; 0x1a
    25a2:	0f 90       	pop	r0
    25a4:	0f be       	out	0x3f, r0	; 63
    25a6:	77 23       	and	r23, r23
    25a8:	d9 f4       	brne	.+54     	; 0x25e0 <xQueueGenericReceive+0xd2>
    25aa:	f8 01       	movw	r30, r16
    25ac:	80 81       	ld	r24, Z
    25ae:	91 81       	ldd	r25, Z+1	; 0x01
    25b0:	00 97       	sbiw	r24, 0x00	; 0
    25b2:	29 f1       	breq	.+74     	; 0x25fe <xQueueGenericReceive+0xf0>
    25b4:	6c 81       	ldd	r22, Y+4	; 0x04
    25b6:	7d 81       	ldd	r23, Y+5	; 0x05
    25b8:	c5 01       	movw	r24, r10
    25ba:	0e 94 c7 18 	call	0x318e	; 0x318e <vTaskPlaceOnEventList>
    25be:	c8 01       	movw	r24, r16
    25c0:	0e 94 2c 10 	call	0x2058	; 0x2058 <prvUnlockQueue>
    25c4:	0e 94 33 17 	call	0x2e66	; 0x2e66 <xTaskResumeAll>
    25c8:	88 23       	and	r24, r24
    25ca:	11 f0       	breq	.+4      	; 0x25d0 <xQueueGenericReceive+0xc2>
    25cc:	21 e0       	ldi	r18, 0x01	; 1
    25ce:	ba cf       	rjmp	.-140    	; 0x2544 <xQueueGenericReceive+0x36>
    25d0:	0e 94 bd 1a 	call	0x357a	; 0x357a <vPortYield>
    25d4:	21 e0       	ldi	r18, 0x01	; 1
    25d6:	b6 cf       	rjmp	.-148    	; 0x2544 <xQueueGenericReceive+0x36>
    25d8:	c7 01       	movw	r24, r14
    25da:	0e 94 3c 19 	call	0x3278	; 0x3278 <vTaskSetTimeOutState>
    25de:	c2 cf       	rjmp	.-124    	; 0x2564 <xQueueGenericReceive+0x56>
    25e0:	c8 01       	movw	r24, r16
    25e2:	0e 94 2c 10 	call	0x2058	; 0x2058 <prvUnlockQueue>
    25e6:	0e 94 33 17 	call	0x2e66	; 0x2e66 <xTaskResumeAll>
    25ea:	21 e0       	ldi	r18, 0x01	; 1
    25ec:	ab cf       	rjmp	.-170    	; 0x2544 <xQueueGenericReceive+0x36>
    25ee:	15 8e       	std	Z+29, r1	; 0x1d
    25f0:	f8 01       	movw	r30, r16
    25f2:	66 8d       	ldd	r22, Z+30	; 0x1e
    25f4:	6f 3f       	cpi	r22, 0xFF	; 255
    25f6:	09 f0       	breq	.+2      	; 0x25fa <xQueueGenericReceive+0xec>
    25f8:	c6 cf       	rjmp	.-116    	; 0x2586 <xQueueGenericReceive+0x78>
    25fa:	16 8e       	std	Z+30, r1	; 0x1e
    25fc:	c4 cf       	rjmp	.-120    	; 0x2586 <xQueueGenericReceive+0x78>
    25fe:	0f b6       	in	r0, 0x3f	; 63
    2600:	f8 94       	cli
    2602:	0f 92       	push	r0
    2604:	f8 01       	movw	r30, r16
    2606:	82 81       	ldd	r24, Z+2	; 0x02
    2608:	93 81       	ldd	r25, Z+3	; 0x03
    260a:	0e 94 af 19 	call	0x335e	; 0x335e <vTaskPriorityInherit>
    260e:	0f 90       	pop	r0
    2610:	0f be       	out	0x3f, r0	; 63
    2612:	d0 cf       	rjmp	.-96     	; 0x25b4 <xQueueGenericReceive+0xa6>
    2614:	e6 80       	ldd	r14, Z+6	; 0x06
    2616:	f7 80       	ldd	r15, Z+7	; 0x07
    2618:	80 81       	ld	r24, Z
    261a:	91 81       	ldd	r25, Z+1	; 0x01
    261c:	00 97       	sbiw	r24, 0x00	; 0
    261e:	91 f0       	breq	.+36     	; 0x2644 <xQueueGenericReceive+0x136>
    2620:	44 8d       	ldd	r20, Z+28	; 0x1c
    2622:	97 01       	movw	r18, r14
    2624:	24 0f       	add	r18, r20
    2626:	31 1d       	adc	r19, r1
    2628:	37 83       	std	Z+7, r19	; 0x07
    262a:	26 83       	std	Z+6, r18	; 0x06
    262c:	62 81       	ldd	r22, Z+2	; 0x02
    262e:	73 81       	ldd	r23, Z+3	; 0x03
    2630:	26 17       	cp	r18, r22
    2632:	37 07       	cpc	r19, r23
    2634:	08 f0       	brcs	.+2      	; 0x2638 <xQueueGenericReceive+0x12a>
    2636:	3e c0       	rjmp	.+124    	; 0x26b4 <xQueueGenericReceive+0x1a6>
    2638:	88 2d       	mov	r24, r8
    263a:	97 2d       	mov	r25, r7
    263c:	b9 01       	movw	r22, r18
    263e:	50 e0       	ldi	r21, 0x00	; 0
    2640:	0e 94 11 1e 	call	0x3c22	; 0x3c22 <memcpy>
    2644:	99 20       	and	r9, r9
    2646:	41 f5       	brne	.+80     	; 0x2698 <xQueueGenericReceive+0x18a>
    2648:	f8 01       	movw	r30, r16
    264a:	22 8d       	ldd	r18, Z+26	; 0x1a
    264c:	21 50       	subi	r18, 0x01	; 1
    264e:	22 8f       	std	Z+26, r18	; 0x1a
    2650:	80 81       	ld	r24, Z
    2652:	91 81       	ldd	r25, Z+1	; 0x01
    2654:	00 97       	sbiw	r24, 0x00	; 0
    2656:	c9 f1       	breq	.+114    	; 0x26ca <xQueueGenericReceive+0x1bc>
    2658:	f8 01       	movw	r30, r16
    265a:	30 85       	ldd	r19, Z+8	; 0x08
    265c:	33 23       	and	r19, r19
    265e:	11 f1       	breq	.+68     	; 0x26a4 <xQueueGenericReceive+0x196>
    2660:	c8 01       	movw	r24, r16
    2662:	08 96       	adiw	r24, 0x08	; 8
    2664:	0e 94 f5 18 	call	0x31ea	; 0x31ea <xTaskRemoveFromEventList>
    2668:	81 30       	cpi	r24, 0x01	; 1
    266a:	e1 f4       	brne	.+56     	; 0x26a4 <xQueueGenericReceive+0x196>
    266c:	0e 94 bd 1a 	call	0x357a	; 0x357a <vPortYield>
    2670:	19 c0       	rjmp	.+50     	; 0x26a4 <xQueueGenericReceive+0x196>
    2672:	0f 90       	pop	r0
    2674:	0f be       	out	0x3f, r0	; 63
    2676:	80 e0       	ldi	r24, 0x00	; 0
    2678:	25 96       	adiw	r28, 0x05	; 5
    267a:	ed e0       	ldi	r30, 0x0D	; 13
    267c:	0c 94 ec 1d 	jmp	0x3bd8	; 0x3bd8 <__epilogue_restores__+0xa>
    2680:	2a c0       	rjmp	.+84     	; 0x26d6 <xQueueTakeMutexRecursive>
    2682:	c8 01       	movw	r24, r16
    2684:	0e 94 2c 10 	call	0x2058	; 0x2058 <prvUnlockQueue>
    2688:	0e 94 33 17 	call	0x2e66	; 0x2e66 <xTaskResumeAll>
    268c:	80 e0       	ldi	r24, 0x00	; 0
    268e:	25 96       	adiw	r28, 0x05	; 5
    2690:	ed e0       	ldi	r30, 0x0D	; 13
    2692:	0c 94 ec 1d 	jmp	0x3bd8	; 0x3bd8 <__epilogue_restores__+0xa>
    2696:	1f c0       	rjmp	.+62     	; 0x26d6 <xQueueTakeMutexRecursive>
    2698:	f8 01       	movw	r30, r16
    269a:	f7 82       	std	Z+7, r15	; 0x07
    269c:	e6 82       	std	Z+6, r14	; 0x06
    269e:	41 89       	ldd	r20, Z+17	; 0x11
    26a0:	44 23       	and	r20, r20
    26a2:	61 f4       	brne	.+24     	; 0x26bc <xQueueGenericReceive+0x1ae>
    26a4:	0f 90       	pop	r0
    26a6:	0f be       	out	0x3f, r0	; 63
    26a8:	81 e0       	ldi	r24, 0x01	; 1
    26aa:	25 96       	adiw	r28, 0x05	; 5
    26ac:	ed e0       	ldi	r30, 0x0D	; 13
    26ae:	0c 94 ec 1d 	jmp	0x3bd8	; 0x3bd8 <__epilogue_restores__+0xa>
    26b2:	11 c0       	rjmp	.+34     	; 0x26d6 <xQueueTakeMutexRecursive>
    26b4:	97 83       	std	Z+7, r25	; 0x07
    26b6:	86 83       	std	Z+6, r24	; 0x06
    26b8:	9c 01       	movw	r18, r24
    26ba:	be cf       	rjmp	.-132    	; 0x2638 <xQueueGenericReceive+0x12a>
    26bc:	c8 01       	movw	r24, r16
    26be:	41 96       	adiw	r24, 0x11	; 17
    26c0:	0e 94 f5 18 	call	0x31ea	; 0x31ea <xTaskRemoveFromEventList>
    26c4:	88 23       	and	r24, r24
    26c6:	71 f3       	breq	.-36     	; 0x26a4 <xQueueGenericReceive+0x196>
    26c8:	d1 cf       	rjmp	.-94     	; 0x266c <xQueueGenericReceive+0x15e>
    26ca:	0e 94 a9 19 	call	0x3352	; 0x3352 <xTaskGetCurrentTaskHandle>
    26ce:	f8 01       	movw	r30, r16
    26d0:	93 83       	std	Z+3, r25	; 0x03
    26d2:	82 83       	std	Z+2, r24	; 0x02
    26d4:	c1 cf       	rjmp	.-126    	; 0x2658 <xQueueGenericReceive+0x14a>

000026d6 <xQueueTakeMutexRecursive>:
    26d6:	ef 92       	push	r14
    26d8:	ff 92       	push	r15
    26da:	0f 93       	push	r16
    26dc:	1f 93       	push	r17
    26de:	cf 93       	push	r28
    26e0:	df 93       	push	r29
    26e2:	ec 01       	movw	r28, r24
    26e4:	8b 01       	movw	r16, r22
    26e6:	ea 80       	ldd	r14, Y+2	; 0x02
    26e8:	fb 80       	ldd	r15, Y+3	; 0x03
    26ea:	0e 94 a9 19 	call	0x3352	; 0x3352 <xTaskGetCurrentTaskHandle>
    26ee:	e8 16       	cp	r14, r24
    26f0:	f9 06       	cpc	r15, r25
    26f2:	d9 f0       	breq	.+54     	; 0x272a <xQueueTakeMutexRecursive+0x54>
    26f4:	ce 01       	movw	r24, r28
    26f6:	60 e0       	ldi	r22, 0x00	; 0
    26f8:	70 e0       	ldi	r23, 0x00	; 0
    26fa:	a8 01       	movw	r20, r16
    26fc:	20 e0       	ldi	r18, 0x00	; 0
    26fe:	0e 94 87 12 	call	0x250e	; 0x250e <xQueueGenericReceive>
    2702:	81 30       	cpi	r24, 0x01	; 1
    2704:	31 f0       	breq	.+12     	; 0x2712 <xQueueTakeMutexRecursive+0x3c>
    2706:	cd b7       	in	r28, 0x3d	; 61
    2708:	de b7       	in	r29, 0x3e	; 62
    270a:	e6 e0       	ldi	r30, 0x06	; 6
    270c:	0c 94 f3 1d 	jmp	0x3be6	; 0x3be6 <__epilogue_restores__+0x18>
    2710:	17 c0       	rjmp	.+46     	; 0x2740 <xQueueReceiveFromISR>
    2712:	2e 81       	ldd	r18, Y+6	; 0x06
    2714:	3f 81       	ldd	r19, Y+7	; 0x07
    2716:	2f 5f       	subi	r18, 0xFF	; 255
    2718:	3f 4f       	sbci	r19, 0xFF	; 255
    271a:	3f 83       	std	Y+7, r19	; 0x07
    271c:	2e 83       	std	Y+6, r18	; 0x06
    271e:	cd b7       	in	r28, 0x3d	; 61
    2720:	de b7       	in	r29, 0x3e	; 62
    2722:	e6 e0       	ldi	r30, 0x06	; 6
    2724:	0c 94 f3 1d 	jmp	0x3be6	; 0x3be6 <__epilogue_restores__+0x18>
    2728:	0b c0       	rjmp	.+22     	; 0x2740 <xQueueReceiveFromISR>
    272a:	8e 81       	ldd	r24, Y+6	; 0x06
    272c:	9f 81       	ldd	r25, Y+7	; 0x07
    272e:	01 96       	adiw	r24, 0x01	; 1
    2730:	9f 83       	std	Y+7, r25	; 0x07
    2732:	8e 83       	std	Y+6, r24	; 0x06
    2734:	81 e0       	ldi	r24, 0x01	; 1
    2736:	cd b7       	in	r28, 0x3d	; 61
    2738:	de b7       	in	r29, 0x3e	; 62
    273a:	e6 e0       	ldi	r30, 0x06	; 6
    273c:	0c 94 f3 1d 	jmp	0x3be6	; 0x3be6 <__epilogue_restores__+0x18>

00002740 <xQueueReceiveFromISR>:
    2740:	0f 93       	push	r16
    2742:	1f 93       	push	r17
    2744:	cf 93       	push	r28
    2746:	df 93       	push	r29
    2748:	ec 01       	movw	r28, r24
    274a:	8a 01       	movw	r16, r20
    274c:	8a 8d       	ldd	r24, Y+26	; 0x1a
    274e:	88 23       	and	r24, r24
    2750:	39 f1       	breq	.+78     	; 0x27a0 <xQueueReceiveFromISR+0x60>
    2752:	e8 81       	ld	r30, Y
    2754:	f9 81       	ldd	r31, Y+1	; 0x01
    2756:	30 97       	sbiw	r30, 0x00	; 0
    2758:	89 f0       	breq	.+34     	; 0x277c <xQueueReceiveFromISR+0x3c>
    275a:	4c 8d       	ldd	r20, Y+28	; 0x1c
    275c:	2e 81       	ldd	r18, Y+6	; 0x06
    275e:	3f 81       	ldd	r19, Y+7	; 0x07
    2760:	24 0f       	add	r18, r20
    2762:	31 1d       	adc	r19, r1
    2764:	3f 83       	std	Y+7, r19	; 0x07
    2766:	2e 83       	std	Y+6, r18	; 0x06
    2768:	aa 81       	ldd	r26, Y+2	; 0x02
    276a:	bb 81       	ldd	r27, Y+3	; 0x03
    276c:	2a 17       	cp	r18, r26
    276e:	3b 07       	cpc	r19, r27
    2770:	98 f4       	brcc	.+38     	; 0x2798 <xQueueReceiveFromISR+0x58>
    2772:	cb 01       	movw	r24, r22
    2774:	b9 01       	movw	r22, r18
    2776:	50 e0       	ldi	r21, 0x00	; 0
    2778:	0e 94 11 1e 	call	0x3c22	; 0x3c22 <memcpy>
    277c:	2a 8d       	ldd	r18, Y+26	; 0x1a
    277e:	21 50       	subi	r18, 0x01	; 1
    2780:	2a 8f       	std	Y+26, r18	; 0x1a
    2782:	8d 8d       	ldd	r24, Y+29	; 0x1d
    2784:	8f 3f       	cpi	r24, 0xFF	; 255
    2786:	91 f0       	breq	.+36     	; 0x27ac <xQueueReceiveFromISR+0x6c>
    2788:	8f 5f       	subi	r24, 0xFF	; 255
    278a:	8d 8f       	std	Y+29, r24	; 0x1d
    278c:	81 e0       	ldi	r24, 0x01	; 1
    278e:	df 91       	pop	r29
    2790:	cf 91       	pop	r28
    2792:	1f 91       	pop	r17
    2794:	0f 91       	pop	r16
    2796:	08 95       	ret
    2798:	ff 83       	std	Y+7, r31	; 0x07
    279a:	ee 83       	std	Y+6, r30	; 0x06
    279c:	9f 01       	movw	r18, r30
    279e:	e9 cf       	rjmp	.-46     	; 0x2772 <xQueueReceiveFromISR+0x32>
    27a0:	80 e0       	ldi	r24, 0x00	; 0
    27a2:	df 91       	pop	r29
    27a4:	cf 91       	pop	r28
    27a6:	1f 91       	pop	r17
    27a8:	0f 91       	pop	r16
    27aa:	08 95       	ret
    27ac:	38 85       	ldd	r19, Y+8	; 0x08
    27ae:	33 23       	and	r19, r19
    27b0:	31 f4       	brne	.+12     	; 0x27be <xQueueReceiveFromISR+0x7e>
    27b2:	81 e0       	ldi	r24, 0x01	; 1
    27b4:	df 91       	pop	r29
    27b6:	cf 91       	pop	r28
    27b8:	1f 91       	pop	r17
    27ba:	0f 91       	pop	r16
    27bc:	08 95       	ret
    27be:	ce 01       	movw	r24, r28
    27c0:	08 96       	adiw	r24, 0x08	; 8
    27c2:	0e 94 f5 18 	call	0x31ea	; 0x31ea <xTaskRemoveFromEventList>
    27c6:	88 23       	and	r24, r24
    27c8:	a1 f3       	breq	.-24     	; 0x27b2 <xQueueReceiveFromISR+0x72>
    27ca:	81 e0       	ldi	r24, 0x01	; 1
    27cc:	f8 01       	movw	r30, r16
    27ce:	80 83       	st	Z, r24
    27d0:	de cf       	rjmp	.-68     	; 0x278e <xQueueReceiveFromISR+0x4e>

000027d2 <uxQueueMessagesWaiting>:
    27d2:	0f b6       	in	r0, 0x3f	; 63
    27d4:	f8 94       	cli
    27d6:	0f 92       	push	r0
    27d8:	fc 01       	movw	r30, r24
    27da:	82 8d       	ldd	r24, Z+26	; 0x1a
    27dc:	0f 90       	pop	r0
    27de:	0f be       	out	0x3f, r0	; 63
    27e0:	08 95       	ret

000027e2 <uxQueueMessagesWaitingFromISR>:
    27e2:	fc 01       	movw	r30, r24
    27e4:	82 8d       	ldd	r24, Z+26	; 0x1a
    27e6:	08 95       	ret

000027e8 <vQueueDelete>:
    27e8:	cf 93       	push	r28
    27ea:	df 93       	push	r29
    27ec:	ec 01       	movw	r28, r24
    27ee:	88 81       	ld	r24, Y
    27f0:	99 81       	ldd	r25, Y+1	; 0x01
    27f2:	0e 94 fd 0f 	call	0x1ffa	; 0x1ffa <vPortFree>
    27f6:	ce 01       	movw	r24, r28
    27f8:	0e 94 fd 0f 	call	0x1ffa	; 0x1ffa <vPortFree>
    27fc:	df 91       	pop	r29
    27fe:	cf 91       	pop	r28
    2800:	08 95       	ret

00002802 <xQueueIsQueueEmptyFromISR>:
    2802:	fc 01       	movw	r30, r24
    2804:	92 8d       	ldd	r25, Z+26	; 0x1a
    2806:	81 e0       	ldi	r24, 0x01	; 1
    2808:	91 11       	cpse	r25, r1
    280a:	80 e0       	ldi	r24, 0x00	; 0
    280c:	08 95       	ret

0000280e <xQueueIsQueueFullFromISR>:
    280e:	fc 01       	movw	r30, r24
    2810:	22 8d       	ldd	r18, Z+26	; 0x1a
    2812:	81 e0       	ldi	r24, 0x01	; 1
    2814:	93 8d       	ldd	r25, Z+27	; 0x1b
    2816:	29 13       	cpse	r18, r25
    2818:	80 e0       	ldi	r24, 0x00	; 0
    281a:	08 95       	ret

0000281c <prvAddCurrentTaskToDelayedList>:
    281c:	cf 93       	push	r28
    281e:	df 93       	push	r29
    2820:	ec 01       	movw	r28, r24
    2822:	e0 91 33 07 	lds	r30, 0x0733
    2826:	f0 91 34 07 	lds	r31, 0x0734
    282a:	93 83       	std	Z+3, r25	; 0x03
    282c:	82 83       	std	Z+2, r24	; 0x02
    282e:	80 91 5c 07 	lds	r24, 0x075C
    2832:	90 91 5d 07 	lds	r25, 0x075D
    2836:	c8 17       	cp	r28, r24
    2838:	d9 07       	cpc	r29, r25
    283a:	d0 f0       	brcs	.+52     	; 0x2870 <prvAddCurrentTaskToDelayedList+0x54>
    283c:	80 91 73 07 	lds	r24, 0x0773
    2840:	90 91 74 07 	lds	r25, 0x0774
    2844:	60 91 33 07 	lds	r22, 0x0733
    2848:	70 91 34 07 	lds	r23, 0x0734
    284c:	6e 5f       	subi	r22, 0xFE	; 254
    284e:	7f 4f       	sbci	r23, 0xFF	; 255
    2850:	0e 94 ab 1b 	call	0x3756	; 0x3756 <vListInsert>
    2854:	80 91 31 01 	lds	r24, 0x0131
    2858:	90 91 32 01 	lds	r25, 0x0132
    285c:	c8 17       	cp	r28, r24
    285e:	d9 07       	cpc	r29, r25
    2860:	20 f4       	brcc	.+8      	; 0x286a <prvAddCurrentTaskToDelayedList+0x4e>
    2862:	d0 93 32 01 	sts	0x0132, r29
    2866:	c0 93 31 01 	sts	0x0131, r28
    286a:	df 91       	pop	r29
    286c:	cf 91       	pop	r28
    286e:	08 95       	ret
    2870:	80 91 71 07 	lds	r24, 0x0771
    2874:	90 91 72 07 	lds	r25, 0x0772
    2878:	60 91 33 07 	lds	r22, 0x0733
    287c:	70 91 34 07 	lds	r23, 0x0734
    2880:	6e 5f       	subi	r22, 0xFE	; 254
    2882:	7f 4f       	sbci	r23, 0xFF	; 255
    2884:	0e 94 ab 1b 	call	0x3756	; 0x3756 <vListInsert>
    2888:	df 91       	pop	r29
    288a:	cf 91       	pop	r28
    288c:	08 95       	ret

0000288e <prvIdleTask>:
    288e:	80 91 36 07 	lds	r24, 0x0736
    2892:	82 30       	cpi	r24, 0x02	; 2
    2894:	e0 f3       	brcs	.-8      	; 0x288e <prvIdleTask>
    2896:	0e 94 bd 1a 	call	0x357a	; 0x357a <vPortYield>
    289a:	f9 cf       	rjmp	.-14     	; 0x288e <prvIdleTask>

0000289c <xTaskGenericCreate>:
    289c:	a0 e0       	ldi	r26, 0x00	; 0
    289e:	b0 e0       	ldi	r27, 0x00	; 0
    28a0:	e4 e5       	ldi	r30, 0x54	; 84
    28a2:	f4 e1       	ldi	r31, 0x14	; 20
    28a4:	0c 94 cb 1d 	jmp	0x3b96	; 0x3b96 <__prologue_saves__>
    28a8:	1c 01       	movw	r2, r24
    28aa:	2b 01       	movw	r4, r22
    28ac:	4a 01       	movw	r8, r20
    28ae:	39 01       	movw	r6, r18
    28b0:	57 01       	movw	r10, r14
    28b2:	8a e2       	ldi	r24, 0x2A	; 42
    28b4:	90 e0       	ldi	r25, 0x00	; 0
    28b6:	0e 94 67 0f 	call	0x1ece	; 0x1ece <pvPortMalloc>
    28ba:	e8 2e       	mov	r14, r24
    28bc:	e7 01       	movw	r28, r14
    28be:	7e 01       	movw	r14, r28
    28c0:	f9 2e       	mov	r15, r25
    28c2:	e7 01       	movw	r28, r14
    28c4:	20 97       	sbiw	r28, 0x00	; 0
    28c6:	09 f4       	brne	.+2      	; 0x28ca <xTaskGenericCreate+0x2e>
    28c8:	9d c0       	rjmp	.+314    	; 0x2a04 <xTaskGenericCreate+0x168>
    28ca:	c1 14       	cp	r12, r1
    28cc:	d1 04       	cpc	r13, r1
    28ce:	09 f4       	brne	.+2      	; 0x28d2 <xTaskGenericCreate+0x36>
    28d0:	de c0       	rjmp	.+444    	; 0x2a8e <xTaskGenericCreate+0x1f2>
    28d2:	d8 8e       	std	Y+24, r13	; 0x18
    28d4:	cf 8a       	std	Y+23, r12	; 0x17
    28d6:	c6 01       	movw	r24, r12
    28d8:	65 ea       	ldi	r22, 0xA5	; 165
    28da:	70 e0       	ldi	r23, 0x00	; 0
    28dc:	a4 01       	movw	r20, r8
    28de:	0e 94 1a 1e 	call	0x3c34	; 0x3c34 <memset>
    28e2:	08 94       	sec
    28e4:	81 08       	sbc	r8, r1
    28e6:	91 08       	sbc	r9, r1
    28e8:	ef 88       	ldd	r14, Y+23	; 0x17
    28ea:	f8 8c       	ldd	r15, Y+24	; 0x18
    28ec:	e8 0c       	add	r14, r8
    28ee:	f9 1c       	adc	r15, r9
    28f0:	ce 01       	movw	r24, r28
    28f2:	49 96       	adiw	r24, 0x19	; 25
    28f4:	b2 01       	movw	r22, r4
    28f6:	40 e1       	ldi	r20, 0x10	; 16
    28f8:	50 e0       	ldi	r21, 0x00	; 0
    28fa:	0e 94 21 1e 	call	0x3c42	; 0x3c42 <strncpy>
    28fe:	18 a6       	std	Y+40, r1	; 0x28
    2900:	10 2f       	mov	r17, r16
    2902:	04 30       	cpi	r16, 0x04	; 4
    2904:	08 f0       	brcs	.+2      	; 0x2908 <xTaskGenericCreate+0x6c>
    2906:	78 c0       	rjmp	.+240    	; 0x29f8 <xTaskGenericCreate+0x15c>
    2908:	1e 8b       	std	Y+22, r17	; 0x16
    290a:	19 a7       	std	Y+41, r17	; 0x29
    290c:	e2 e0       	ldi	r30, 0x02	; 2
    290e:	ce 2e       	mov	r12, r30
    2910:	d1 2c       	mov	r13, r1
    2912:	cc 0e       	add	r12, r28
    2914:	dd 1e       	adc	r13, r29
    2916:	c6 01       	movw	r24, r12
    2918:	0e 94 82 1b 	call	0x3704	; 0x3704 <vListInitialiseItem>
    291c:	ce 01       	movw	r24, r28
    291e:	0c 96       	adiw	r24, 0x0c	; 12
    2920:	0e 94 82 1b 	call	0x3704	; 0x3704 <vListInitialiseItem>
    2924:	d9 87       	std	Y+9, r29	; 0x09
    2926:	c8 87       	std	Y+8, r28	; 0x08
    2928:	84 e0       	ldi	r24, 0x04	; 4
    292a:	90 e0       	ldi	r25, 0x00	; 0
    292c:	81 1b       	sub	r24, r17
    292e:	91 09       	sbc	r25, r1
    2930:	9d 87       	std	Y+13, r25	; 0x0d
    2932:	8c 87       	std	Y+12, r24	; 0x0c
    2934:	db 8b       	std	Y+19, r29	; 0x13
    2936:	ca 8b       	std	Y+18, r28	; 0x12
    2938:	c7 01       	movw	r24, r14
    293a:	b1 01       	movw	r22, r2
    293c:	a3 01       	movw	r20, r6
    293e:	0e 94 3a 1a 	call	0x3474	; 0x3474 <pxPortInitialiseStack>
    2942:	99 83       	std	Y+1, r25	; 0x01
    2944:	88 83       	st	Y, r24
    2946:	a1 14       	cp	r10, r1
    2948:	b1 04       	cpc	r11, r1
    294a:	19 f0       	breq	.+6      	; 0x2952 <xTaskGenericCreate+0xb6>
    294c:	f5 01       	movw	r30, r10
    294e:	d1 83       	std	Z+1, r29	; 0x01
    2950:	c0 83       	st	Z, r28
    2952:	0f b6       	in	r0, 0x3f	; 63
    2954:	f8 94       	cli
    2956:	0f 92       	push	r0
    2958:	20 91 76 07 	lds	r18, 0x0776
    295c:	2f 5f       	subi	r18, 0xFF	; 255
    295e:	20 93 76 07 	sts	0x0776, r18
    2962:	80 91 33 07 	lds	r24, 0x0733
    2966:	90 91 34 07 	lds	r25, 0x0734
    296a:	00 97       	sbiw	r24, 0x00	; 0
    296c:	09 f4       	brne	.+2      	; 0x2970 <xTaskGenericCreate+0xd4>
    296e:	51 c0       	rjmp	.+162    	; 0x2a12 <xTaskGenericCreate+0x176>
    2970:	40 91 77 07 	lds	r20, 0x0777
    2974:	44 23       	and	r20, r20
    2976:	59 f4       	brne	.+22     	; 0x298e <xTaskGenericCreate+0xf2>
    2978:	e0 91 33 07 	lds	r30, 0x0733
    297c:	f0 91 34 07 	lds	r31, 0x0734
    2980:	56 89       	ldd	r21, Z+22	; 0x16
    2982:	05 17       	cp	r16, r21
    2984:	20 f0       	brcs	.+8      	; 0x298e <xTaskGenericCreate+0xf2>
    2986:	d0 93 34 07 	sts	0x0734, r29
    298a:	c0 93 33 07 	sts	0x0733, r28
    298e:	2e 89       	ldd	r18, Y+22	; 0x16
    2990:	60 91 78 07 	lds	r22, 0x0778
    2994:	62 17       	cp	r22, r18
    2996:	10 f4       	brcc	.+4      	; 0x299c <xTaskGenericCreate+0x100>
    2998:	20 93 78 07 	sts	0x0778, r18
    299c:	90 91 79 07 	lds	r25, 0x0779
    29a0:	9f 5f       	subi	r25, 0xFF	; 255
    29a2:	90 93 79 07 	sts	0x0779, r25
    29a6:	70 91 35 07 	lds	r23, 0x0735
    29aa:	72 17       	cp	r23, r18
    29ac:	10 f4       	brcc	.+4      	; 0x29b2 <xTaskGenericCreate+0x116>
    29ae:	20 93 35 07 	sts	0x0735, r18
    29b2:	30 e0       	ldi	r19, 0x00	; 0
    29b4:	c9 01       	movw	r24, r18
    29b6:	88 0f       	add	r24, r24
    29b8:	99 1f       	adc	r25, r25
    29ba:	88 0f       	add	r24, r24
    29bc:	99 1f       	adc	r25, r25
    29be:	88 0f       	add	r24, r24
    29c0:	99 1f       	adc	r25, r25
    29c2:	82 0f       	add	r24, r18
    29c4:	93 1f       	adc	r25, r19
    29c6:	8a 5c       	subi	r24, 0xCA	; 202
    29c8:	98 4f       	sbci	r25, 0xF8	; 248
    29ca:	b6 01       	movw	r22, r12
    29cc:	0e 94 86 1b 	call	0x370c	; 0x370c <vListInsertEnd>
    29d0:	0f 90       	pop	r0
    29d2:	0f be       	out	0x3f, r0	; 63
    29d4:	80 91 77 07 	lds	r24, 0x0777
    29d8:	88 23       	and	r24, r24
    29da:	39 f0       	breq	.+14     	; 0x29ea <xTaskGenericCreate+0x14e>
    29dc:	e0 91 33 07 	lds	r30, 0x0733
    29e0:	f0 91 34 07 	lds	r31, 0x0734
    29e4:	a6 89       	ldd	r26, Z+22	; 0x16
    29e6:	a0 17       	cp	r26, r16
    29e8:	48 f0       	brcs	.+18     	; 0x29fc <xTaskGenericCreate+0x160>
    29ea:	81 e0       	ldi	r24, 0x01	; 1
    29ec:	cd b7       	in	r28, 0x3d	; 61
    29ee:	de b7       	in	r29, 0x3e	; 62
    29f0:	e2 e1       	ldi	r30, 0x12	; 18
    29f2:	0c 94 e7 1d 	jmp	0x3bce	; 0x3bce <__epilogue_restores__>
    29f6:	5f c0       	rjmp	.+190    	; 0x2ab6 <xTaskIsTaskSuspended>
    29f8:	13 e0       	ldi	r17, 0x03	; 3
    29fa:	86 cf       	rjmp	.-244    	; 0x2908 <xTaskGenericCreate+0x6c>
    29fc:	0e 94 bd 1a 	call	0x357a	; 0x357a <vPortYield>
    2a00:	81 e0       	ldi	r24, 0x01	; 1
    2a02:	f4 cf       	rjmp	.-24     	; 0x29ec <xTaskGenericCreate+0x150>
    2a04:	8f ef       	ldi	r24, 0xFF	; 255
    2a06:	cd b7       	in	r28, 0x3d	; 61
    2a08:	de b7       	in	r29, 0x3e	; 62
    2a0a:	e2 e1       	ldi	r30, 0x12	; 18
    2a0c:	0c 94 e7 1d 	jmp	0x3bce	; 0x3bce <__epilogue_restores__>
    2a10:	52 c0       	rjmp	.+164    	; 0x2ab6 <xTaskIsTaskSuspended>
    2a12:	d0 93 34 07 	sts	0x0734, r29
    2a16:	c0 93 33 07 	sts	0x0733, r28
    2a1a:	30 91 76 07 	lds	r19, 0x0776
    2a1e:	31 30       	cpi	r19, 0x01	; 1
    2a20:	09 f0       	breq	.+2      	; 0x2a24 <xTaskGenericCreate+0x188>
    2a22:	b5 cf       	rjmp	.-150    	; 0x298e <xTaskGenericCreate+0xf2>
    2a24:	ee 24       	eor	r14, r14
    2a26:	ff 24       	eor	r15, r15
    2a28:	c7 01       	movw	r24, r14
    2a2a:	88 0f       	add	r24, r24
    2a2c:	99 1f       	adc	r25, r25
    2a2e:	88 0f       	add	r24, r24
    2a30:	99 1f       	adc	r25, r25
    2a32:	88 0f       	add	r24, r24
    2a34:	99 1f       	adc	r25, r25
    2a36:	8e 0d       	add	r24, r14
    2a38:	9f 1d       	adc	r25, r15
    2a3a:	8a 5c       	subi	r24, 0xCA	; 202
    2a3c:	98 4f       	sbci	r25, 0xF8	; 248
    2a3e:	0e 94 74 1b 	call	0x36e8	; 0x36e8 <vListInitialise>
    2a42:	08 94       	sec
    2a44:	e1 1c       	adc	r14, r1
    2a46:	f1 1c       	adc	r15, r1
    2a48:	f4 e0       	ldi	r31, 0x04	; 4
    2a4a:	ef 16       	cp	r14, r31
    2a4c:	f1 04       	cpc	r15, r1
    2a4e:	61 f7       	brne	.-40     	; 0x2a28 <xTaskGenericCreate+0x18c>
    2a50:	6a e7       	ldi	r22, 0x7A	; 122
    2a52:	e6 2e       	mov	r14, r22
    2a54:	67 e0       	ldi	r22, 0x07	; 7
    2a56:	f6 2e       	mov	r15, r22
    2a58:	c7 01       	movw	r24, r14
    2a5a:	0e 94 74 1b 	call	0x36e8	; 0x36e8 <vListInitialise>
    2a5e:	53 e8       	ldi	r21, 0x83	; 131
    2a60:	a5 2e       	mov	r10, r21
    2a62:	57 e0       	ldi	r21, 0x07	; 7
    2a64:	b5 2e       	mov	r11, r21
    2a66:	c5 01       	movw	r24, r10
    2a68:	0e 94 74 1b 	call	0x36e8	; 0x36e8 <vListInitialise>
    2a6c:	8f e5       	ldi	r24, 0x5F	; 95
    2a6e:	97 e0       	ldi	r25, 0x07	; 7
    2a70:	0e 94 74 1b 	call	0x36e8	; 0x36e8 <vListInitialise>
    2a74:	88 e6       	ldi	r24, 0x68	; 104
    2a76:	97 e0       	ldi	r25, 0x07	; 7
    2a78:	0e 94 74 1b 	call	0x36e8	; 0x36e8 <vListInitialise>
    2a7c:	f0 92 74 07 	sts	0x0774, r15
    2a80:	e0 92 73 07 	sts	0x0773, r14
    2a84:	b0 92 72 07 	sts	0x0772, r11
    2a88:	a0 92 71 07 	sts	0x0771, r10
    2a8c:	80 cf       	rjmp	.-256    	; 0x298e <xTaskGenericCreate+0xf2>
    2a8e:	c4 01       	movw	r24, r8
    2a90:	0e 94 67 0f 	call	0x1ece	; 0x1ece <pvPortMalloc>
    2a94:	c8 2e       	mov	r12, r24
    2a96:	d9 2e       	mov	r13, r25
    2a98:	d8 8e       	std	Y+24, r13	; 0x18
    2a9a:	cf 8a       	std	Y+23, r12	; 0x17
    2a9c:	c1 14       	cp	r12, r1
    2a9e:	d1 04       	cpc	r13, r1
    2aa0:	09 f0       	breq	.+2      	; 0x2aa4 <xTaskGenericCreate+0x208>
    2aa2:	19 cf       	rjmp	.-462    	; 0x28d6 <xTaskGenericCreate+0x3a>
    2aa4:	c7 01       	movw	r24, r14
    2aa6:	0e 94 fd 0f 	call	0x1ffa	; 0x1ffa <vPortFree>
    2aaa:	8f ef       	ldi	r24, 0xFF	; 255
    2aac:	cd b7       	in	r28, 0x3d	; 61
    2aae:	de b7       	in	r29, 0x3e	; 62
    2ab0:	e2 e1       	ldi	r30, 0x12	; 18
    2ab2:	0c 94 e7 1d 	jmp	0x3bce	; 0x3bce <__epilogue_restores__>

00002ab6 <xTaskIsTaskSuspended>:
    2ab6:	fc 01       	movw	r30, r24
    2ab8:	82 85       	ldd	r24, Z+10	; 0x0a
    2aba:	93 85       	ldd	r25, Z+11	; 0x0b
    2abc:	27 e0       	ldi	r18, 0x07	; 7
    2abe:	88 36       	cpi	r24, 0x68	; 104
    2ac0:	92 07       	cpc	r25, r18
    2ac2:	11 f0       	breq	.+4      	; 0x2ac8 <xTaskIsTaskSuspended+0x12>
    2ac4:	80 e0       	ldi	r24, 0x00	; 0
    2ac6:	08 95       	ret
    2ac8:	24 89       	ldd	r18, Z+20	; 0x14
    2aca:	35 89       	ldd	r19, Z+21	; 0x15
    2acc:	87 e0       	ldi	r24, 0x07	; 7
    2ace:	2f 35       	cpi	r18, 0x5F	; 95
    2ad0:	38 07       	cpc	r19, r24
    2ad2:	29 f0       	breq	.+10     	; 0x2ade <xTaskIsTaskSuspended+0x28>
    2ad4:	81 e0       	ldi	r24, 0x01	; 1
    2ad6:	21 15       	cp	r18, r1
    2ad8:	31 05       	cpc	r19, r1
    2ada:	a1 f7       	brne	.-24     	; 0x2ac4 <xTaskIsTaskSuspended+0xe>
    2adc:	08 95       	ret
    2ade:	80 e0       	ldi	r24, 0x00	; 0
    2ae0:	08 95       	ret

00002ae2 <vTaskResume>:
    2ae2:	a2 e0       	ldi	r26, 0x02	; 2
    2ae4:	b0 e0       	ldi	r27, 0x00	; 0
    2ae6:	e7 e7       	ldi	r30, 0x77	; 119
    2ae8:	f5 e1       	ldi	r31, 0x15	; 21
    2aea:	0c 94 d7 1d 	jmp	0x3bae	; 0x3bae <__prologue_saves__+0x18>
    2aee:	8c 01       	movw	r16, r24
    2af0:	00 97       	sbiw	r24, 0x00	; 0
    2af2:	a9 f0       	breq	.+42     	; 0x2b1e <vTaskResume+0x3c>
    2af4:	80 91 33 07 	lds	r24, 0x0733
    2af8:	90 91 34 07 	lds	r25, 0x0734
    2afc:	08 17       	cp	r16, r24
    2afe:	19 07       	cpc	r17, r25
    2b00:	71 f0       	breq	.+28     	; 0x2b1e <vTaskResume+0x3c>
    2b02:	0f b6       	in	r0, 0x3f	; 63
    2b04:	f8 94       	cli
    2b06:	0f 92       	push	r0
    2b08:	d8 01       	movw	r26, r16
    2b0a:	1a 96       	adiw	r26, 0x0a	; 10
    2b0c:	8d 91       	ld	r24, X+
    2b0e:	9c 91       	ld	r25, X
    2b10:	1b 97       	sbiw	r26, 0x0b	; 11
    2b12:	b7 e0       	ldi	r27, 0x07	; 7
    2b14:	88 36       	cpi	r24, 0x68	; 104
    2b16:	9b 07       	cpc	r25, r27
    2b18:	31 f0       	breq	.+12     	; 0x2b26 <vTaskResume+0x44>
    2b1a:	0f 90       	pop	r0
    2b1c:	0f be       	out	0x3f, r0	; 63
    2b1e:	22 96       	adiw	r28, 0x02	; 2
    2b20:	e6 e0       	ldi	r30, 0x06	; 6
    2b22:	0c 94 f3 1d 	jmp	0x3be6	; 0x3be6 <__epilogue_restores__+0x18>
    2b26:	f8 01       	movw	r30, r16
    2b28:	84 89       	ldd	r24, Z+20	; 0x14
    2b2a:	95 89       	ldd	r25, Z+21	; 0x15
    2b2c:	f7 e0       	ldi	r31, 0x07	; 7
    2b2e:	8f 35       	cpi	r24, 0x5F	; 95
    2b30:	9f 07       	cpc	r25, r31
    2b32:	99 f3       	breq	.-26     	; 0x2b1a <vTaskResume+0x38>
    2b34:	00 97       	sbiw	r24, 0x00	; 0
    2b36:	89 f7       	brne	.-30     	; 0x2b1a <vTaskResume+0x38>
    2b38:	b8 01       	movw	r22, r16
    2b3a:	6e 5f       	subi	r22, 0xFE	; 254
    2b3c:	7f 4f       	sbci	r23, 0xFF	; 255
    2b3e:	cb 01       	movw	r24, r22
    2b40:	69 83       	std	Y+1, r22	; 0x01
    2b42:	7a 83       	std	Y+2, r23	; 0x02
    2b44:	0e 94 ea 1b 	call	0x37d4	; 0x37d4 <vListRemove>
    2b48:	f8 01       	movw	r30, r16
    2b4a:	26 89       	ldd	r18, Z+22	; 0x16
    2b4c:	80 91 35 07 	lds	r24, 0x0735
    2b50:	69 81       	ldd	r22, Y+1	; 0x01
    2b52:	7a 81       	ldd	r23, Y+2	; 0x02
    2b54:	82 17       	cp	r24, r18
    2b56:	10 f4       	brcc	.+4      	; 0x2b5c <vTaskResume+0x7a>
    2b58:	20 93 35 07 	sts	0x0735, r18
    2b5c:	30 e0       	ldi	r19, 0x00	; 0
    2b5e:	c9 01       	movw	r24, r18
    2b60:	88 0f       	add	r24, r24
    2b62:	99 1f       	adc	r25, r25
    2b64:	88 0f       	add	r24, r24
    2b66:	99 1f       	adc	r25, r25
    2b68:	88 0f       	add	r24, r24
    2b6a:	99 1f       	adc	r25, r25
    2b6c:	82 0f       	add	r24, r18
    2b6e:	93 1f       	adc	r25, r19
    2b70:	8a 5c       	subi	r24, 0xCA	; 202
    2b72:	98 4f       	sbci	r25, 0xF8	; 248
    2b74:	0e 94 86 1b 	call	0x370c	; 0x370c <vListInsertEnd>
    2b78:	e0 91 33 07 	lds	r30, 0x0733
    2b7c:	f0 91 34 07 	lds	r31, 0x0734
    2b80:	d8 01       	movw	r26, r16
    2b82:	56 96       	adiw	r26, 0x16	; 22
    2b84:	9c 91       	ld	r25, X
    2b86:	56 97       	sbiw	r26, 0x16	; 22
    2b88:	86 89       	ldd	r24, Z+22	; 0x16
    2b8a:	98 17       	cp	r25, r24
    2b8c:	30 f2       	brcs	.-116    	; 0x2b1a <vTaskResume+0x38>
    2b8e:	0e 94 bd 1a 	call	0x357a	; 0x357a <vPortYield>
    2b92:	c3 cf       	rjmp	.-122    	; 0x2b1a <vTaskResume+0x38>

00002b94 <xTaskResumeFromISR>:
    2b94:	ef 92       	push	r14
    2b96:	ff 92       	push	r15
    2b98:	0f 93       	push	r16
    2b9a:	1f 93       	push	r17
    2b9c:	cf 93       	push	r28
    2b9e:	df 93       	push	r29
    2ba0:	e8 2e       	mov	r14, r24
    2ba2:	e7 01       	movw	r28, r14
    2ba4:	7e 01       	movw	r14, r28
    2ba6:	f9 2e       	mov	r15, r25
    2ba8:	e7 01       	movw	r28, r14
    2baa:	8a 85       	ldd	r24, Y+10	; 0x0a
    2bac:	9b 85       	ldd	r25, Y+11	; 0x0b
    2bae:	37 e0       	ldi	r19, 0x07	; 7
    2bb0:	88 36       	cpi	r24, 0x68	; 104
    2bb2:	93 07       	cpc	r25, r19
    2bb4:	41 f0       	breq	.+16     	; 0x2bc6 <xTaskResumeFromISR+0x32>
    2bb6:	ff 24       	eor	r15, r15
    2bb8:	8f 2d       	mov	r24, r15
    2bba:	cd b7       	in	r28, 0x3d	; 61
    2bbc:	de b7       	in	r29, 0x3e	; 62
    2bbe:	e6 e0       	ldi	r30, 0x06	; 6
    2bc0:	0c 94 f3 1d 	jmp	0x3be6	; 0x3be6 <__epilogue_restores__+0x18>
    2bc4:	49 c0       	rjmp	.+146    	; 0x2c58 <vTaskStartScheduler>
    2bc6:	8c 89       	ldd	r24, Y+20	; 0x14
    2bc8:	9d 89       	ldd	r25, Y+21	; 0x15
    2bca:	27 e0       	ldi	r18, 0x07	; 7
    2bcc:	8f 35       	cpi	r24, 0x5F	; 95
    2bce:	92 07       	cpc	r25, r18
    2bd0:	91 f3       	breq	.-28     	; 0x2bb6 <xTaskResumeFromISR+0x22>
    2bd2:	00 97       	sbiw	r24, 0x00	; 0
    2bd4:	81 f7       	brne	.-32     	; 0x2bb6 <xTaskResumeFromISR+0x22>
    2bd6:	f0 90 5e 07 	lds	r15, 0x075E
    2bda:	ff 20       	and	r15, r15
    2bdc:	79 f5       	brne	.+94     	; 0x2c3c <xTaskResumeFromISR+0xa8>
    2bde:	e0 91 33 07 	lds	r30, 0x0733
    2be2:	f0 91 34 07 	lds	r31, 0x0734
    2be6:	ff 24       	eor	r15, r15
    2be8:	f3 94       	inc	r15
    2bea:	9e 89       	ldd	r25, Y+22	; 0x16
    2bec:	86 89       	ldd	r24, Z+22	; 0x16
    2bee:	98 17       	cp	r25, r24
    2bf0:	08 f4       	brcc	.+2      	; 0x2bf4 <xTaskResumeFromISR+0x60>
    2bf2:	ff 24       	eor	r15, r15
    2bf4:	8e 01       	movw	r16, r28
    2bf6:	0e 5f       	subi	r16, 0xFE	; 254
    2bf8:	1f 4f       	sbci	r17, 0xFF	; 255
    2bfa:	c8 01       	movw	r24, r16
    2bfc:	0e 94 ea 1b 	call	0x37d4	; 0x37d4 <vListRemove>
    2c00:	4e 89       	ldd	r20, Y+22	; 0x16
    2c02:	80 91 35 07 	lds	r24, 0x0735
    2c06:	84 17       	cp	r24, r20
    2c08:	10 f4       	brcc	.+4      	; 0x2c0e <xTaskResumeFromISR+0x7a>
    2c0a:	40 93 35 07 	sts	0x0735, r20
    2c0e:	50 e0       	ldi	r21, 0x00	; 0
    2c10:	9a 01       	movw	r18, r20
    2c12:	22 0f       	add	r18, r18
    2c14:	33 1f       	adc	r19, r19
    2c16:	22 0f       	add	r18, r18
    2c18:	33 1f       	adc	r19, r19
    2c1a:	22 0f       	add	r18, r18
    2c1c:	33 1f       	adc	r19, r19
    2c1e:	24 0f       	add	r18, r20
    2c20:	35 1f       	adc	r19, r21
    2c22:	c9 01       	movw	r24, r18
    2c24:	8a 5c       	subi	r24, 0xCA	; 202
    2c26:	98 4f       	sbci	r25, 0xF8	; 248
    2c28:	b8 01       	movw	r22, r16
    2c2a:	0e 94 86 1b 	call	0x370c	; 0x370c <vListInsertEnd>
    2c2e:	8f 2d       	mov	r24, r15
    2c30:	cd b7       	in	r28, 0x3d	; 61
    2c32:	de b7       	in	r29, 0x3e	; 62
    2c34:	e6 e0       	ldi	r30, 0x06	; 6
    2c36:	0c 94 f3 1d 	jmp	0x3be6	; 0x3be6 <__epilogue_restores__+0x18>
    2c3a:	0e c0       	rjmp	.+28     	; 0x2c58 <vTaskStartScheduler>
    2c3c:	be 01       	movw	r22, r28
    2c3e:	64 5f       	subi	r22, 0xF4	; 244
    2c40:	7f 4f       	sbci	r23, 0xFF	; 255
    2c42:	8f e5       	ldi	r24, 0x5F	; 95
    2c44:	97 e0       	ldi	r25, 0x07	; 7
    2c46:	0e 94 86 1b 	call	0x370c	; 0x370c <vListInsertEnd>
    2c4a:	ff 24       	eor	r15, r15
    2c4c:	8f 2d       	mov	r24, r15
    2c4e:	cd b7       	in	r28, 0x3d	; 61
    2c50:	de b7       	in	r29, 0x3e	; 62
    2c52:	e6 e0       	ldi	r30, 0x06	; 6
    2c54:	0c 94 f3 1d 	jmp	0x3be6	; 0x3be6 <__epilogue_restores__+0x18>

00002c58 <vTaskStartScheduler>:
    2c58:	af 92       	push	r10
    2c5a:	bf 92       	push	r11
    2c5c:	cf 92       	push	r12
    2c5e:	df 92       	push	r13
    2c60:	ef 92       	push	r14
    2c62:	ff 92       	push	r15
    2c64:	0f 93       	push	r16
    2c66:	87 e4       	ldi	r24, 0x47	; 71
    2c68:	94 e1       	ldi	r25, 0x14	; 20
    2c6a:	6c e2       	ldi	r22, 0x2C	; 44
    2c6c:	71 e0       	ldi	r23, 0x01	; 1
    2c6e:	45 e5       	ldi	r20, 0x55	; 85
    2c70:	50 e0       	ldi	r21, 0x00	; 0
    2c72:	20 e0       	ldi	r18, 0x00	; 0
    2c74:	30 e0       	ldi	r19, 0x00	; 0
    2c76:	00 e0       	ldi	r16, 0x00	; 0
    2c78:	ee 24       	eor	r14, r14
    2c7a:	ff 24       	eor	r15, r15
    2c7c:	cc 24       	eor	r12, r12
    2c7e:	dd 24       	eor	r13, r13
    2c80:	aa 24       	eor	r10, r10
    2c82:	bb 24       	eor	r11, r11
    2c84:	0e 94 4e 14 	call	0x289c	; 0x289c <xTaskGenericCreate>
    2c88:	81 30       	cpi	r24, 0x01	; 1
    2c8a:	41 f0       	breq	.+16     	; 0x2c9c <vTaskStartScheduler+0x44>
    2c8c:	0f 91       	pop	r16
    2c8e:	ff 90       	pop	r15
    2c90:	ef 90       	pop	r14
    2c92:	df 90       	pop	r13
    2c94:	cf 90       	pop	r12
    2c96:	bf 90       	pop	r11
    2c98:	af 90       	pop	r10
    2c9a:	08 95       	ret
    2c9c:	f8 94       	cli
    2c9e:	80 93 77 07 	sts	0x0777, r24
    2ca2:	10 92 5d 07 	sts	0x075D, r1
    2ca6:	10 92 5c 07 	sts	0x075C, r1
    2caa:	0e 94 84 1a 	call	0x3508	; 0x3508 <xPortStartScheduler>
    2cae:	0f 91       	pop	r16
    2cb0:	ff 90       	pop	r15
    2cb2:	ef 90       	pop	r14
    2cb4:	df 90       	pop	r13
    2cb6:	cf 90       	pop	r12
    2cb8:	bf 90       	pop	r11
    2cba:	af 90       	pop	r10
    2cbc:	08 95       	ret

00002cbe <vTaskEndScheduler>:
    2cbe:	f8 94       	cli
    2cc0:	10 92 77 07 	sts	0x0777, r1
    2cc4:	0e 94 bc 1a 	call	0x3578	; 0x3578 <vPortEndScheduler>
    2cc8:	08 95       	ret

00002cca <vTaskSuspendAll>:
    2cca:	80 91 5e 07 	lds	r24, 0x075E
    2cce:	8f 5f       	subi	r24, 0xFF	; 255
    2cd0:	80 93 5e 07 	sts	0x075E, r24
    2cd4:	08 95       	ret

00002cd6 <xTaskGetTickCount>:
    2cd6:	0f b6       	in	r0, 0x3f	; 63
    2cd8:	f8 94       	cli
    2cda:	0f 92       	push	r0
    2cdc:	20 91 5c 07 	lds	r18, 0x075C
    2ce0:	30 91 5d 07 	lds	r19, 0x075D
    2ce4:	0f 90       	pop	r0
    2ce6:	0f be       	out	0x3f, r0	; 63
    2ce8:	c9 01       	movw	r24, r18
    2cea:	08 95       	ret

00002cec <xTaskGetTickCountFromISR>:
    2cec:	20 91 5c 07 	lds	r18, 0x075C
    2cf0:	30 91 5d 07 	lds	r19, 0x075D
    2cf4:	c9 01       	movw	r24, r18
    2cf6:	08 95       	ret

00002cf8 <uxTaskGetNumberOfTasks>:
    2cf8:	80 91 76 07 	lds	r24, 0x0776
    2cfc:	08 95       	ret

00002cfe <vTaskIncrementTick>:
    2cfe:	0f 93       	push	r16
    2d00:	1f 93       	push	r17
    2d02:	cf 93       	push	r28
    2d04:	df 93       	push	r29
    2d06:	80 91 5e 07 	lds	r24, 0x075E
    2d0a:	88 23       	and	r24, r24
    2d0c:	09 f0       	breq	.+2      	; 0x2d10 <vTaskIncrementTick+0x12>
    2d0e:	65 c0       	rjmp	.+202    	; 0x2dda <vTaskIncrementTick+0xdc>
    2d10:	a0 91 5c 07 	lds	r26, 0x075C
    2d14:	b0 91 5d 07 	lds	r27, 0x075D
    2d18:	11 96       	adiw	r26, 0x01	; 1
    2d1a:	b0 93 5d 07 	sts	0x075D, r27
    2d1e:	a0 93 5c 07 	sts	0x075C, r26
    2d22:	80 91 5c 07 	lds	r24, 0x075C
    2d26:	90 91 5d 07 	lds	r25, 0x075D
    2d2a:	00 97       	sbiw	r24, 0x00	; 0
    2d2c:	09 f4       	brne	.+2      	; 0x2d30 <vTaskIncrementTick+0x32>
    2d2e:	5f c0       	rjmp	.+190    	; 0x2dee <vTaskIncrementTick+0xf0>
    2d30:	80 91 31 01 	lds	r24, 0x0131
    2d34:	90 91 32 01 	lds	r25, 0x0132
    2d38:	20 91 5c 07 	lds	r18, 0x075C
    2d3c:	30 91 5d 07 	lds	r19, 0x075D
    2d40:	28 17       	cp	r18, r24
    2d42:	39 07       	cpc	r19, r25
    2d44:	c0 f5       	brcc	.+112    	; 0x2db6 <vTaskIncrementTick+0xb8>
    2d46:	4e c0       	rjmp	.+156    	; 0x2de4 <vTaskIncrementTick+0xe6>
    2d48:	e0 91 73 07 	lds	r30, 0x0773
    2d4c:	f0 91 74 07 	lds	r31, 0x0774
    2d50:	05 80       	ldd	r0, Z+5	; 0x05
    2d52:	f6 81       	ldd	r31, Z+6	; 0x06
    2d54:	e0 2d       	mov	r30, r0
    2d56:	c6 81       	ldd	r28, Z+6	; 0x06
    2d58:	d7 81       	ldd	r29, Z+7	; 0x07
    2d5a:	8a 81       	ldd	r24, Y+2	; 0x02
    2d5c:	9b 81       	ldd	r25, Y+3	; 0x03
    2d5e:	20 91 5c 07 	lds	r18, 0x075C
    2d62:	30 91 5d 07 	lds	r19, 0x075D
    2d66:	28 17       	cp	r18, r24
    2d68:	39 07       	cpc	r19, r25
    2d6a:	08 f4       	brcc	.+2      	; 0x2d6e <vTaskIncrementTick+0x70>
    2d6c:	73 c0       	rjmp	.+230    	; 0x2e54 <vTaskIncrementTick+0x156>
    2d6e:	8e 01       	movw	r16, r28
    2d70:	0e 5f       	subi	r16, 0xFE	; 254
    2d72:	1f 4f       	sbci	r17, 0xFF	; 255
    2d74:	c8 01       	movw	r24, r16
    2d76:	0e 94 ea 1b 	call	0x37d4	; 0x37d4 <vListRemove>
    2d7a:	8c 89       	ldd	r24, Y+20	; 0x14
    2d7c:	9d 89       	ldd	r25, Y+21	; 0x15
    2d7e:	00 97       	sbiw	r24, 0x00	; 0
    2d80:	21 f0       	breq	.+8      	; 0x2d8a <vTaskIncrementTick+0x8c>
    2d82:	ce 01       	movw	r24, r28
    2d84:	0c 96       	adiw	r24, 0x0c	; 12
    2d86:	0e 94 ea 1b 	call	0x37d4	; 0x37d4 <vListRemove>
    2d8a:	2e 89       	ldd	r18, Y+22	; 0x16
    2d8c:	30 91 35 07 	lds	r19, 0x0735
    2d90:	32 17       	cp	r19, r18
    2d92:	10 f4       	brcc	.+4      	; 0x2d98 <vTaskIncrementTick+0x9a>
    2d94:	20 93 35 07 	sts	0x0735, r18
    2d98:	30 e0       	ldi	r19, 0x00	; 0
    2d9a:	c9 01       	movw	r24, r18
    2d9c:	88 0f       	add	r24, r24
    2d9e:	99 1f       	adc	r25, r25
    2da0:	88 0f       	add	r24, r24
    2da2:	99 1f       	adc	r25, r25
    2da4:	88 0f       	add	r24, r24
    2da6:	99 1f       	adc	r25, r25
    2da8:	82 0f       	add	r24, r18
    2daa:	93 1f       	adc	r25, r19
    2dac:	8a 5c       	subi	r24, 0xCA	; 202
    2dae:	98 4f       	sbci	r25, 0xF8	; 248
    2db0:	b8 01       	movw	r22, r16
    2db2:	0e 94 86 1b 	call	0x370c	; 0x370c <vListInsertEnd>
    2db6:	e0 91 73 07 	lds	r30, 0x0773
    2dba:	f0 91 74 07 	lds	r31, 0x0774
    2dbe:	00 81       	ld	r16, Z
    2dc0:	00 23       	and	r16, r16
    2dc2:	11 f6       	brne	.-124    	; 0x2d48 <vTaskIncrementTick+0x4a>
    2dc4:	8f ef       	ldi	r24, 0xFF	; 255
    2dc6:	9f ef       	ldi	r25, 0xFF	; 255
    2dc8:	90 93 32 01 	sts	0x0132, r25
    2dcc:	80 93 31 01 	sts	0x0131, r24
    2dd0:	df 91       	pop	r29
    2dd2:	cf 91       	pop	r28
    2dd4:	1f 91       	pop	r17
    2dd6:	0f 91       	pop	r16
    2dd8:	08 95       	ret
    2dda:	10 91 75 07 	lds	r17, 0x0775
    2dde:	1f 5f       	subi	r17, 0xFF	; 255
    2de0:	10 93 75 07 	sts	0x0775, r17
    2de4:	df 91       	pop	r29
    2de6:	cf 91       	pop	r28
    2de8:	1f 91       	pop	r17
    2dea:	0f 91       	pop	r16
    2dec:	08 95       	ret
    2dee:	80 91 73 07 	lds	r24, 0x0773
    2df2:	90 91 74 07 	lds	r25, 0x0774
    2df6:	20 91 71 07 	lds	r18, 0x0771
    2dfa:	30 91 72 07 	lds	r19, 0x0772
    2dfe:	30 93 74 07 	sts	0x0774, r19
    2e02:	20 93 73 07 	sts	0x0773, r18
    2e06:	90 93 72 07 	sts	0x0772, r25
    2e0a:	80 93 71 07 	sts	0x0771, r24
    2e0e:	80 91 5b 07 	lds	r24, 0x075B
    2e12:	8f 5f       	subi	r24, 0xFF	; 255
    2e14:	80 93 5b 07 	sts	0x075B, r24
    2e18:	e0 91 73 07 	lds	r30, 0x0773
    2e1c:	f0 91 74 07 	lds	r31, 0x0774
    2e20:	80 81       	ld	r24, Z
    2e22:	88 23       	and	r24, r24
    2e24:	39 f4       	brne	.+14     	; 0x2e34 <vTaskIncrementTick+0x136>
    2e26:	8f ef       	ldi	r24, 0xFF	; 255
    2e28:	9f ef       	ldi	r25, 0xFF	; 255
    2e2a:	90 93 32 01 	sts	0x0132, r25
    2e2e:	80 93 31 01 	sts	0x0131, r24
    2e32:	82 cf       	rjmp	.-252    	; 0x2d38 <vTaskIncrementTick+0x3a>
    2e34:	c0 91 73 07 	lds	r28, 0x0773
    2e38:	d0 91 74 07 	lds	r29, 0x0774
    2e3c:	ed 81       	ldd	r30, Y+5	; 0x05
    2e3e:	fe 81       	ldd	r31, Y+6	; 0x06
    2e40:	06 80       	ldd	r0, Z+6	; 0x06
    2e42:	f7 81       	ldd	r31, Z+7	; 0x07
    2e44:	e0 2d       	mov	r30, r0
    2e46:	82 81       	ldd	r24, Z+2	; 0x02
    2e48:	93 81       	ldd	r25, Z+3	; 0x03
    2e4a:	90 93 32 01 	sts	0x0132, r25
    2e4e:	80 93 31 01 	sts	0x0131, r24
    2e52:	72 cf       	rjmp	.-284    	; 0x2d38 <vTaskIncrementTick+0x3a>
    2e54:	90 93 32 01 	sts	0x0132, r25
    2e58:	80 93 31 01 	sts	0x0131, r24
    2e5c:	df 91       	pop	r29
    2e5e:	cf 91       	pop	r28
    2e60:	1f 91       	pop	r17
    2e62:	0f 91       	pop	r16
    2e64:	08 95       	ret

00002e66 <xTaskResumeAll>:
    2e66:	a1 e0       	ldi	r26, 0x01	; 1
    2e68:	b0 e0       	ldi	r27, 0x00	; 0
    2e6a:	e9 e3       	ldi	r30, 0x39	; 57
    2e6c:	f7 e1       	ldi	r31, 0x17	; 23
    2e6e:	0c 94 d7 1d 	jmp	0x3bae	; 0x3bae <__prologue_saves__+0x18>
    2e72:	0f b6       	in	r0, 0x3f	; 63
    2e74:	f8 94       	cli
    2e76:	0f 92       	push	r0
    2e78:	20 91 5e 07 	lds	r18, 0x075E
    2e7c:	21 50       	subi	r18, 0x01	; 1
    2e7e:	20 93 5e 07 	sts	0x075E, r18
    2e82:	80 91 5e 07 	lds	r24, 0x075E
    2e86:	88 23       	and	r24, r24
    2e88:	09 f0       	breq	.+2      	; 0x2e8c <xTaskResumeAll+0x26>
    2e8a:	5b c0       	rjmp	.+182    	; 0x2f42 <xTaskResumeAll+0xdc>
    2e8c:	30 91 76 07 	lds	r19, 0x0776
    2e90:	33 23       	and	r19, r19
    2e92:	09 f4       	brne	.+2      	; 0x2e96 <xTaskResumeAll+0x30>
    2e94:	56 c0       	rjmp	.+172    	; 0x2f42 <xTaskResumeAll+0xdc>
    2e96:	19 82       	std	Y+1, r1	; 0x01
    2e98:	40 91 5f 07 	lds	r20, 0x075F
    2e9c:	44 23       	and	r20, r20
    2e9e:	d1 f1       	breq	.+116    	; 0x2f14 <xTaskResumeAll+0xae>
    2ea0:	e0 91 64 07 	lds	r30, 0x0764
    2ea4:	f0 91 65 07 	lds	r31, 0x0765
    2ea8:	e6 80       	ldd	r14, Z+6	; 0x06
    2eaa:	f7 80       	ldd	r15, Z+7	; 0x07
    2eac:	c7 01       	movw	r24, r14
    2eae:	0c 96       	adiw	r24, 0x0c	; 12
    2eb0:	0e 94 ea 1b 	call	0x37d4	; 0x37d4 <vListRemove>
    2eb4:	87 01       	movw	r16, r14
    2eb6:	0e 5f       	subi	r16, 0xFE	; 254
    2eb8:	1f 4f       	sbci	r17, 0xFF	; 255
    2eba:	c8 01       	movw	r24, r16
    2ebc:	0e 94 ea 1b 	call	0x37d4	; 0x37d4 <vListRemove>
    2ec0:	d7 01       	movw	r26, r14
    2ec2:	56 96       	adiw	r26, 0x16	; 22
    2ec4:	2c 91       	ld	r18, X
    2ec6:	56 97       	sbiw	r26, 0x16	; 22
    2ec8:	80 91 35 07 	lds	r24, 0x0735
    2ecc:	82 17       	cp	r24, r18
    2ece:	10 f4       	brcc	.+4      	; 0x2ed4 <xTaskResumeAll+0x6e>
    2ed0:	20 93 35 07 	sts	0x0735, r18
    2ed4:	30 e0       	ldi	r19, 0x00	; 0
    2ed6:	c9 01       	movw	r24, r18
    2ed8:	88 0f       	add	r24, r24
    2eda:	99 1f       	adc	r25, r25
    2edc:	88 0f       	add	r24, r24
    2ede:	99 1f       	adc	r25, r25
    2ee0:	88 0f       	add	r24, r24
    2ee2:	99 1f       	adc	r25, r25
    2ee4:	82 0f       	add	r24, r18
    2ee6:	93 1f       	adc	r25, r19
    2ee8:	8a 5c       	subi	r24, 0xCA	; 202
    2eea:	98 4f       	sbci	r25, 0xF8	; 248
    2eec:	b8 01       	movw	r22, r16
    2eee:	0e 94 86 1b 	call	0x370c	; 0x370c <vListInsertEnd>
    2ef2:	e0 91 33 07 	lds	r30, 0x0733
    2ef6:	f0 91 34 07 	lds	r31, 0x0734
    2efa:	d7 01       	movw	r26, r14
    2efc:	56 96       	adiw	r26, 0x16	; 22
    2efe:	9c 91       	ld	r25, X
    2f00:	56 97       	sbiw	r26, 0x16	; 22
    2f02:	86 89       	ldd	r24, Z+22	; 0x16
    2f04:	98 17       	cp	r25, r24
    2f06:	40 f2       	brcs	.-112    	; 0x2e98 <xTaskResumeAll+0x32>
    2f08:	b1 e0       	ldi	r27, 0x01	; 1
    2f0a:	b9 83       	std	Y+1, r27	; 0x01
    2f0c:	40 91 5f 07 	lds	r20, 0x075F
    2f10:	44 23       	and	r20, r20
    2f12:	31 f6       	brne	.-116    	; 0x2ea0 <xTaskResumeAll+0x3a>
    2f14:	50 91 75 07 	lds	r21, 0x0775
    2f18:	55 23       	and	r21, r21
    2f1a:	d9 f4       	brne	.+54     	; 0x2f52 <xTaskResumeAll+0xec>
    2f1c:	e9 81       	ldd	r30, Y+1	; 0x01
    2f1e:	e1 30       	cpi	r30, 0x01	; 1
    2f20:	21 f0       	breq	.+8      	; 0x2f2a <xTaskResumeAll+0xc4>
    2f22:	a0 91 5a 07 	lds	r26, 0x075A
    2f26:	a1 30       	cpi	r26, 0x01	; 1
    2f28:	61 f4       	brne	.+24     	; 0x2f42 <xTaskResumeAll+0xdc>
    2f2a:	10 92 5a 07 	sts	0x075A, r1
    2f2e:	0e 94 bd 1a 	call	0x357a	; 0x357a <vPortYield>
    2f32:	81 e0       	ldi	r24, 0x01	; 1
    2f34:	0f 90       	pop	r0
    2f36:	0f be       	out	0x3f, r0	; 63
    2f38:	21 96       	adiw	r28, 0x01	; 1
    2f3a:	e6 e0       	ldi	r30, 0x06	; 6
    2f3c:	0c 94 f3 1d 	jmp	0x3be6	; 0x3be6 <__epilogue_restores__+0x18>
    2f40:	18 c0       	rjmp	.+48     	; 0x2f72 <vTaskDelay>
    2f42:	80 e0       	ldi	r24, 0x00	; 0
    2f44:	0f 90       	pop	r0
    2f46:	0f be       	out	0x3f, r0	; 63
    2f48:	21 96       	adiw	r28, 0x01	; 1
    2f4a:	e6 e0       	ldi	r30, 0x06	; 6
    2f4c:	0c 94 f3 1d 	jmp	0x3be6	; 0x3be6 <__epilogue_restores__+0x18>
    2f50:	10 c0       	rjmp	.+32     	; 0x2f72 <vTaskDelay>
    2f52:	60 91 75 07 	lds	r22, 0x0775
    2f56:	66 23       	and	r22, r22
    2f58:	41 f3       	breq	.-48     	; 0x2f2a <xTaskResumeAll+0xc4>
    2f5a:	0e 94 7f 16 	call	0x2cfe	; 0x2cfe <vTaskIncrementTick>
    2f5e:	90 91 75 07 	lds	r25, 0x0775
    2f62:	91 50       	subi	r25, 0x01	; 1
    2f64:	90 93 75 07 	sts	0x0775, r25
    2f68:	70 91 75 07 	lds	r23, 0x0775
    2f6c:	77 23       	and	r23, r23
    2f6e:	a9 f7       	brne	.-22     	; 0x2f5a <xTaskResumeAll+0xf4>
    2f70:	dc cf       	rjmp	.-72     	; 0x2f2a <xTaskResumeAll+0xc4>

00002f72 <vTaskDelay>:
    2f72:	0f 93       	push	r16
    2f74:	1f 93       	push	r17
    2f76:	cf 93       	push	r28
    2f78:	df 93       	push	r29
    2f7a:	ec 01       	movw	r28, r24
    2f7c:	00 97       	sbiw	r24, 0x00	; 0
    2f7e:	39 f4       	brne	.+14     	; 0x2f8e <vTaskDelay+0x1c>
    2f80:	0e 94 bd 1a 	call	0x357a	; 0x357a <vPortYield>
    2f84:	df 91       	pop	r29
    2f86:	cf 91       	pop	r28
    2f88:	1f 91       	pop	r17
    2f8a:	0f 91       	pop	r16
    2f8c:	08 95       	ret
    2f8e:	80 91 5e 07 	lds	r24, 0x075E
    2f92:	8f 5f       	subi	r24, 0xFF	; 255
    2f94:	80 93 5e 07 	sts	0x075E, r24
    2f98:	00 91 5c 07 	lds	r16, 0x075C
    2f9c:	10 91 5d 07 	lds	r17, 0x075D
    2fa0:	80 91 33 07 	lds	r24, 0x0733
    2fa4:	90 91 34 07 	lds	r25, 0x0734
    2fa8:	02 96       	adiw	r24, 0x02	; 2
    2faa:	0e 94 ea 1b 	call	0x37d4	; 0x37d4 <vListRemove>
    2fae:	ce 01       	movw	r24, r28
    2fb0:	80 0f       	add	r24, r16
    2fb2:	91 1f       	adc	r25, r17
    2fb4:	0e 94 0e 14 	call	0x281c	; 0x281c <prvAddCurrentTaskToDelayedList>
    2fb8:	0e 94 33 17 	call	0x2e66	; 0x2e66 <xTaskResumeAll>
    2fbc:	88 23       	and	r24, r24
    2fbe:	01 f3       	breq	.-64     	; 0x2f80 <vTaskDelay+0xe>
    2fc0:	df 91       	pop	r29
    2fc2:	cf 91       	pop	r28
    2fc4:	1f 91       	pop	r17
    2fc6:	0f 91       	pop	r16
    2fc8:	08 95       	ret

00002fca <vTaskDelayUntil>:
    2fca:	cf 93       	push	r28
    2fcc:	df 93       	push	r29
    2fce:	fc 01       	movw	r30, r24
    2fd0:	eb 01       	movw	r28, r22
    2fd2:	80 91 5e 07 	lds	r24, 0x075E
    2fd6:	8f 5f       	subi	r24, 0xFF	; 255
    2fd8:	80 93 5e 07 	sts	0x075E, r24
    2fdc:	80 81       	ld	r24, Z
    2fde:	91 81       	ldd	r25, Z+1	; 0x01
    2fe0:	c8 0f       	add	r28, r24
    2fe2:	d9 1f       	adc	r29, r25
    2fe4:	20 91 5c 07 	lds	r18, 0x075C
    2fe8:	30 91 5d 07 	lds	r19, 0x075D
    2fec:	28 17       	cp	r18, r24
    2fee:	39 07       	cpc	r19, r25
    2ff0:	f8 f4       	brcc	.+62     	; 0x3030 <vTaskDelayUntil+0x66>
    2ff2:	c8 17       	cp	r28, r24
    2ff4:	d9 07       	cpc	r29, r25
    2ff6:	30 f5       	brcc	.+76     	; 0x3044 <vTaskDelayUntil+0x7a>
    2ff8:	80 91 5c 07 	lds	r24, 0x075C
    2ffc:	90 91 5d 07 	lds	r25, 0x075D
    3000:	8c 17       	cp	r24, r28
    3002:	9d 07       	cpc	r25, r29
    3004:	f8 f4       	brcc	.+62     	; 0x3044 <vTaskDelayUntil+0x7a>
    3006:	d1 83       	std	Z+1, r29	; 0x01
    3008:	c0 83       	st	Z, r28
    300a:	80 91 33 07 	lds	r24, 0x0733
    300e:	90 91 34 07 	lds	r25, 0x0734
    3012:	02 96       	adiw	r24, 0x02	; 2
    3014:	0e 94 ea 1b 	call	0x37d4	; 0x37d4 <vListRemove>
    3018:	ce 01       	movw	r24, r28
    301a:	0e 94 0e 14 	call	0x281c	; 0x281c <prvAddCurrentTaskToDelayedList>
    301e:	0e 94 33 17 	call	0x2e66	; 0x2e66 <xTaskResumeAll>
    3022:	88 23       	and	r24, r24
    3024:	11 f4       	brne	.+4      	; 0x302a <vTaskDelayUntil+0x60>
    3026:	0e 94 bd 1a 	call	0x357a	; 0x357a <vPortYield>
    302a:	df 91       	pop	r29
    302c:	cf 91       	pop	r28
    302e:	08 95       	ret
    3030:	c8 17       	cp	r28, r24
    3032:	d9 07       	cpc	r29, r25
    3034:	40 f3       	brcs	.-48     	; 0x3006 <vTaskDelayUntil+0x3c>
    3036:	80 91 5c 07 	lds	r24, 0x075C
    303a:	90 91 5d 07 	lds	r25, 0x075D
    303e:	8c 17       	cp	r24, r28
    3040:	9d 07       	cpc	r25, r29
    3042:	08 f3       	brcs	.-62     	; 0x3006 <vTaskDelayUntil+0x3c>
    3044:	d1 83       	std	Z+1, r29	; 0x01
    3046:	c0 83       	st	Z, r28
    3048:	ea cf       	rjmp	.-44     	; 0x301e <vTaskDelayUntil+0x54>

0000304a <vTaskSwitchContext>:
    304a:	80 91 5e 07 	lds	r24, 0x075E
    304e:	88 23       	and	r24, r24
    3050:	31 f0       	breq	.+12     	; 0x305e <vTaskSwitchContext+0x14>
    3052:	3c c0       	rjmp	.+120    	; 0x30cc <vTaskSwitchContext+0x82>
    3054:	30 91 35 07 	lds	r19, 0x0735
    3058:	31 50       	subi	r19, 0x01	; 1
    305a:	30 93 35 07 	sts	0x0735, r19
    305e:	80 91 35 07 	lds	r24, 0x0735
    3062:	90 e0       	ldi	r25, 0x00	; 0
    3064:	fc 01       	movw	r30, r24
    3066:	ee 0f       	add	r30, r30
    3068:	ff 1f       	adc	r31, r31
    306a:	ee 0f       	add	r30, r30
    306c:	ff 1f       	adc	r31, r31
    306e:	ee 0f       	add	r30, r30
    3070:	ff 1f       	adc	r31, r31
    3072:	e8 0f       	add	r30, r24
    3074:	f9 1f       	adc	r31, r25
    3076:	ea 5c       	subi	r30, 0xCA	; 202
    3078:	f8 4f       	sbci	r31, 0xF8	; 248
    307a:	80 81       	ld	r24, Z
    307c:	88 23       	and	r24, r24
    307e:	51 f3       	breq	.-44     	; 0x3054 <vTaskSwitchContext+0xa>
    3080:	20 91 35 07 	lds	r18, 0x0735
    3084:	30 e0       	ldi	r19, 0x00	; 0
    3086:	c9 01       	movw	r24, r18
    3088:	88 0f       	add	r24, r24
    308a:	99 1f       	adc	r25, r25
    308c:	88 0f       	add	r24, r24
    308e:	99 1f       	adc	r25, r25
    3090:	88 0f       	add	r24, r24
    3092:	99 1f       	adc	r25, r25
    3094:	82 0f       	add	r24, r18
    3096:	93 1f       	adc	r25, r19
    3098:	dc 01       	movw	r26, r24
    309a:	aa 5c       	subi	r26, 0xCA	; 202
    309c:	b8 4f       	sbci	r27, 0xF8	; 248
    309e:	11 96       	adiw	r26, 0x01	; 1
    30a0:	ed 91       	ld	r30, X+
    30a2:	fc 91       	ld	r31, X
    30a4:	12 97       	sbiw	r26, 0x02	; 2
    30a6:	02 80       	ldd	r0, Z+2	; 0x02
    30a8:	f3 81       	ldd	r31, Z+3	; 0x03
    30aa:	e0 2d       	mov	r30, r0
    30ac:	12 96       	adiw	r26, 0x02	; 2
    30ae:	fc 93       	st	X, r31
    30b0:	ee 93       	st	-X, r30
    30b2:	11 97       	sbiw	r26, 0x01	; 1
    30b4:	87 5c       	subi	r24, 0xC7	; 199
    30b6:	98 4f       	sbci	r25, 0xF8	; 248
    30b8:	e8 17       	cp	r30, r24
    30ba:	f9 07       	cpc	r31, r25
    30bc:	59 f0       	breq	.+22     	; 0x30d4 <vTaskSwitchContext+0x8a>
    30be:	86 81       	ldd	r24, Z+6	; 0x06
    30c0:	97 81       	ldd	r25, Z+7	; 0x07
    30c2:	90 93 34 07 	sts	0x0734, r25
    30c6:	80 93 33 07 	sts	0x0733, r24
    30ca:	08 95       	ret
    30cc:	21 e0       	ldi	r18, 0x01	; 1
    30ce:	20 93 5a 07 	sts	0x075A, r18
    30d2:	08 95       	ret
    30d4:	02 80       	ldd	r0, Z+2	; 0x02
    30d6:	f3 81       	ldd	r31, Z+3	; 0x03
    30d8:	e0 2d       	mov	r30, r0
    30da:	12 96       	adiw	r26, 0x02	; 2
    30dc:	fc 93       	st	X, r31
    30de:	ee 93       	st	-X, r30
    30e0:	11 97       	sbiw	r26, 0x01	; 1
    30e2:	ed cf       	rjmp	.-38     	; 0x30be <vTaskSwitchContext+0x74>

000030e4 <vTaskSuspend>:
    30e4:	ef 92       	push	r14
    30e6:	ff 92       	push	r15
    30e8:	0f 93       	push	r16
    30ea:	1f 93       	push	r17
    30ec:	cf 93       	push	r28
    30ee:	df 93       	push	r29
    30f0:	ec 01       	movw	r28, r24
    30f2:	0f b6       	in	r0, 0x3f	; 63
    30f4:	f8 94       	cli
    30f6:	0f 92       	push	r0
    30f8:	80 91 33 07 	lds	r24, 0x0733
    30fc:	90 91 34 07 	lds	r25, 0x0734
    3100:	c8 17       	cp	r28, r24
    3102:	d9 07       	cpc	r29, r25
    3104:	a9 f1       	breq	.+106    	; 0x3170 <vTaskSuspend+0x8c>
    3106:	20 97       	sbiw	r28, 0x00	; 0
    3108:	99 f1       	breq	.+102    	; 0x3170 <vTaskSuspend+0x8c>
    310a:	8e 01       	movw	r16, r28
    310c:	72 e0       	ldi	r23, 0x02	; 2
    310e:	e7 2e       	mov	r14, r23
    3110:	f1 2c       	mov	r15, r1
    3112:	e0 0e       	add	r14, r16
    3114:	f1 1e       	adc	r15, r17
    3116:	c7 01       	movw	r24, r14
    3118:	0e 94 ea 1b 	call	0x37d4	; 0x37d4 <vListRemove>
    311c:	f8 01       	movw	r30, r16
    311e:	84 89       	ldd	r24, Z+20	; 0x14
    3120:	95 89       	ldd	r25, Z+21	; 0x15
    3122:	00 97       	sbiw	r24, 0x00	; 0
    3124:	21 f0       	breq	.+8      	; 0x312e <vTaskSuspend+0x4a>
    3126:	c8 01       	movw	r24, r16
    3128:	0c 96       	adiw	r24, 0x0c	; 12
    312a:	0e 94 ea 1b 	call	0x37d4	; 0x37d4 <vListRemove>
    312e:	88 e6       	ldi	r24, 0x68	; 104
    3130:	97 e0       	ldi	r25, 0x07	; 7
    3132:	b7 01       	movw	r22, r14
    3134:	0e 94 86 1b 	call	0x370c	; 0x370c <vListInsertEnd>
    3138:	0f 90       	pop	r0
    313a:	0f be       	out	0x3f, r0	; 63
    313c:	20 97       	sbiw	r28, 0x00	; 0
    313e:	31 f0       	breq	.+12     	; 0x314c <vTaskSuspend+0x68>
    3140:	cd b7       	in	r28, 0x3d	; 61
    3142:	de b7       	in	r29, 0x3e	; 62
    3144:	e6 e0       	ldi	r30, 0x06	; 6
    3146:	0c 94 f3 1d 	jmp	0x3be6	; 0x3be6 <__epilogue_restores__+0x18>
    314a:	21 c0       	rjmp	.+66     	; 0x318e <vTaskPlaceOnEventList>
    314c:	80 91 77 07 	lds	r24, 0x0777
    3150:	88 23       	and	r24, r24
    3152:	d1 f4       	brne	.+52     	; 0x3188 <vTaskSuspend+0xa4>
    3154:	90 91 68 07 	lds	r25, 0x0768
    3158:	20 91 76 07 	lds	r18, 0x0776
    315c:	92 17       	cp	r25, r18
    315e:	79 f0       	breq	.+30     	; 0x317e <vTaskSuspend+0x9a>
    3160:	0e 94 25 18 	call	0x304a	; 0x304a <vTaskSwitchContext>
    3164:	cd b7       	in	r28, 0x3d	; 61
    3166:	de b7       	in	r29, 0x3e	; 62
    3168:	e6 e0       	ldi	r30, 0x06	; 6
    316a:	0c 94 f3 1d 	jmp	0x3be6	; 0x3be6 <__epilogue_restores__+0x18>
    316e:	0f c0       	rjmp	.+30     	; 0x318e <vTaskPlaceOnEventList>
    3170:	00 91 33 07 	lds	r16, 0x0733
    3174:	10 91 34 07 	lds	r17, 0x0734
    3178:	c0 e0       	ldi	r28, 0x00	; 0
    317a:	d0 e0       	ldi	r29, 0x00	; 0
    317c:	c7 cf       	rjmp	.-114    	; 0x310c <vTaskSuspend+0x28>
    317e:	10 92 34 07 	sts	0x0734, r1
    3182:	10 92 33 07 	sts	0x0733, r1
    3186:	dc cf       	rjmp	.-72     	; 0x3140 <vTaskSuspend+0x5c>
    3188:	0e 94 bd 1a 	call	0x357a	; 0x357a <vPortYield>
    318c:	d9 cf       	rjmp	.-78     	; 0x3140 <vTaskSuspend+0x5c>

0000318e <vTaskPlaceOnEventList>:
    318e:	cf 93       	push	r28
    3190:	df 93       	push	r29
    3192:	eb 01       	movw	r28, r22
    3194:	60 91 33 07 	lds	r22, 0x0733
    3198:	70 91 34 07 	lds	r23, 0x0734
    319c:	64 5f       	subi	r22, 0xF4	; 244
    319e:	7f 4f       	sbci	r23, 0xFF	; 255
    31a0:	0e 94 ab 1b 	call	0x3756	; 0x3756 <vListInsert>
    31a4:	80 91 33 07 	lds	r24, 0x0733
    31a8:	90 91 34 07 	lds	r25, 0x0734
    31ac:	02 96       	adiw	r24, 0x02	; 2
    31ae:	0e 94 ea 1b 	call	0x37d4	; 0x37d4 <vListRemove>
    31b2:	8f ef       	ldi	r24, 0xFF	; 255
    31b4:	cf 3f       	cpi	r28, 0xFF	; 255
    31b6:	d8 07       	cpc	r29, r24
    31b8:	59 f0       	breq	.+22     	; 0x31d0 <vTaskPlaceOnEventList+0x42>
    31ba:	80 91 5c 07 	lds	r24, 0x075C
    31be:	90 91 5d 07 	lds	r25, 0x075D
    31c2:	8c 0f       	add	r24, r28
    31c4:	9d 1f       	adc	r25, r29
    31c6:	0e 94 0e 14 	call	0x281c	; 0x281c <prvAddCurrentTaskToDelayedList>
    31ca:	df 91       	pop	r29
    31cc:	cf 91       	pop	r28
    31ce:	08 95       	ret
    31d0:	60 91 33 07 	lds	r22, 0x0733
    31d4:	70 91 34 07 	lds	r23, 0x0734
    31d8:	6e 5f       	subi	r22, 0xFE	; 254
    31da:	7f 4f       	sbci	r23, 0xFF	; 255
    31dc:	88 e6       	ldi	r24, 0x68	; 104
    31de:	97 e0       	ldi	r25, 0x07	; 7
    31e0:	0e 94 86 1b 	call	0x370c	; 0x370c <vListInsertEnd>
    31e4:	df 91       	pop	r29
    31e6:	cf 91       	pop	r28
    31e8:	08 95       	ret

000031ea <xTaskRemoveFromEventList>:
    31ea:	0f 93       	push	r16
    31ec:	1f 93       	push	r17
    31ee:	cf 93       	push	r28
    31f0:	df 93       	push	r29
    31f2:	dc 01       	movw	r26, r24
    31f4:	15 96       	adiw	r26, 0x05	; 5
    31f6:	ed 91       	ld	r30, X+
    31f8:	fc 91       	ld	r31, X
    31fa:	16 97       	sbiw	r26, 0x06	; 6
    31fc:	c6 81       	ldd	r28, Z+6	; 0x06
    31fe:	d7 81       	ldd	r29, Z+7	; 0x07
    3200:	8e 01       	movw	r16, r28
    3202:	04 5f       	subi	r16, 0xF4	; 244
    3204:	1f 4f       	sbci	r17, 0xFF	; 255
    3206:	c8 01       	movw	r24, r16
    3208:	0e 94 ea 1b 	call	0x37d4	; 0x37d4 <vListRemove>
    320c:	80 91 5e 07 	lds	r24, 0x075E
    3210:	88 23       	and	r24, r24
    3212:	49 f5       	brne	.+82     	; 0x3266 <xTaskRemoveFromEventList+0x7c>
    3214:	8e 01       	movw	r16, r28
    3216:	0e 5f       	subi	r16, 0xFE	; 254
    3218:	1f 4f       	sbci	r17, 0xFF	; 255
    321a:	c8 01       	movw	r24, r16
    321c:	0e 94 ea 1b 	call	0x37d4	; 0x37d4 <vListRemove>
    3220:	2e 89       	ldd	r18, Y+22	; 0x16
    3222:	80 91 35 07 	lds	r24, 0x0735
    3226:	82 17       	cp	r24, r18
    3228:	20 f1       	brcs	.+72     	; 0x3272 <xTaskRemoveFromEventList+0x88>
    322a:	30 e0       	ldi	r19, 0x00	; 0
    322c:	c9 01       	movw	r24, r18
    322e:	88 0f       	add	r24, r24
    3230:	99 1f       	adc	r25, r25
    3232:	88 0f       	add	r24, r24
    3234:	99 1f       	adc	r25, r25
    3236:	88 0f       	add	r24, r24
    3238:	99 1f       	adc	r25, r25
    323a:	82 0f       	add	r24, r18
    323c:	93 1f       	adc	r25, r19
    323e:	8a 5c       	subi	r24, 0xCA	; 202
    3240:	98 4f       	sbci	r25, 0xF8	; 248
    3242:	b8 01       	movw	r22, r16
    3244:	0e 94 86 1b 	call	0x370c	; 0x370c <vListInsertEnd>
    3248:	e0 91 33 07 	lds	r30, 0x0733
    324c:	f0 91 34 07 	lds	r31, 0x0734
    3250:	81 e0       	ldi	r24, 0x01	; 1
    3252:	2e 89       	ldd	r18, Y+22	; 0x16
    3254:	96 89       	ldd	r25, Z+22	; 0x16
    3256:	29 17       	cp	r18, r25
    3258:	08 f4       	brcc	.+2      	; 0x325c <xTaskRemoveFromEventList+0x72>
    325a:	80 e0       	ldi	r24, 0x00	; 0
    325c:	df 91       	pop	r29
    325e:	cf 91       	pop	r28
    3260:	1f 91       	pop	r17
    3262:	0f 91       	pop	r16
    3264:	08 95       	ret
    3266:	8f e5       	ldi	r24, 0x5F	; 95
    3268:	97 e0       	ldi	r25, 0x07	; 7
    326a:	b8 01       	movw	r22, r16
    326c:	0e 94 86 1b 	call	0x370c	; 0x370c <vListInsertEnd>
    3270:	eb cf       	rjmp	.-42     	; 0x3248 <xTaskRemoveFromEventList+0x5e>
    3272:	20 93 35 07 	sts	0x0735, r18
    3276:	d9 cf       	rjmp	.-78     	; 0x322a <xTaskRemoveFromEventList+0x40>

00003278 <vTaskSetTimeOutState>:
    3278:	fc 01       	movw	r30, r24
    327a:	80 91 5b 07 	lds	r24, 0x075B
    327e:	80 83       	st	Z, r24
    3280:	80 91 5c 07 	lds	r24, 0x075C
    3284:	90 91 5d 07 	lds	r25, 0x075D
    3288:	92 83       	std	Z+2, r25	; 0x02
    328a:	81 83       	std	Z+1, r24	; 0x01
    328c:	08 95       	ret

0000328e <xTaskCheckForTimeOut>:
    328e:	fc 01       	movw	r30, r24
    3290:	db 01       	movw	r26, r22
    3292:	0f b6       	in	r0, 0x3f	; 63
    3294:	f8 94       	cli
    3296:	0f 92       	push	r0
    3298:	8d 91       	ld	r24, X+
    329a:	9c 91       	ld	r25, X
    329c:	11 97       	sbiw	r26, 0x01	; 1
    329e:	2f ef       	ldi	r18, 0xFF	; 255
    32a0:	8f 3f       	cpi	r24, 0xFF	; 255
    32a2:	92 07       	cpc	r25, r18
    32a4:	b1 f1       	breq	.+108    	; 0x3312 <xTaskCheckForTimeOut+0x84>
    32a6:	20 91 5b 07 	lds	r18, 0x075B
    32aa:	30 81       	ld	r19, Z
    32ac:	32 17       	cp	r19, r18
    32ae:	71 f1       	breq	.+92     	; 0x330c <xTaskCheckForTimeOut+0x7e>
    32b0:	41 81       	ldd	r20, Z+1	; 0x01
    32b2:	52 81       	ldd	r21, Z+2	; 0x02
    32b4:	20 91 5c 07 	lds	r18, 0x075C
    32b8:	30 91 5d 07 	lds	r19, 0x075D
    32bc:	24 17       	cp	r18, r20
    32be:	35 07       	cpc	r19, r21
    32c0:	08 f5       	brcc	.+66     	; 0x3304 <xTaskCheckForTimeOut+0x76>
    32c2:	20 91 5c 07 	lds	r18, 0x075C
    32c6:	30 91 5d 07 	lds	r19, 0x075D
    32ca:	24 1b       	sub	r18, r20
    32cc:	35 0b       	sbc	r19, r21
    32ce:	28 17       	cp	r18, r24
    32d0:	39 07       	cpc	r19, r25
    32d2:	c0 f4       	brcc	.+48     	; 0x3304 <xTaskCheckForTimeOut+0x76>
    32d4:	20 91 5c 07 	lds	r18, 0x075C
    32d8:	30 91 5d 07 	lds	r19, 0x075D
    32dc:	82 1b       	sub	r24, r18
    32de:	93 0b       	sbc	r25, r19
    32e0:	84 0f       	add	r24, r20
    32e2:	95 1f       	adc	r25, r21
    32e4:	11 96       	adiw	r26, 0x01	; 1
    32e6:	9c 93       	st	X, r25
    32e8:	8e 93       	st	-X, r24
    32ea:	80 91 5b 07 	lds	r24, 0x075B
    32ee:	80 83       	st	Z, r24
    32f0:	80 91 5c 07 	lds	r24, 0x075C
    32f4:	90 91 5d 07 	lds	r25, 0x075D
    32f8:	92 83       	std	Z+2, r25	; 0x02
    32fa:	81 83       	std	Z+1, r24	; 0x01
    32fc:	80 e0       	ldi	r24, 0x00	; 0
    32fe:	0f 90       	pop	r0
    3300:	0f be       	out	0x3f, r0	; 63
    3302:	08 95       	ret
    3304:	81 e0       	ldi	r24, 0x01	; 1
    3306:	0f 90       	pop	r0
    3308:	0f be       	out	0x3f, r0	; 63
    330a:	08 95       	ret
    330c:	41 81       	ldd	r20, Z+1	; 0x01
    330e:	52 81       	ldd	r21, Z+2	; 0x02
    3310:	d8 cf       	rjmp	.-80     	; 0x32c2 <xTaskCheckForTimeOut+0x34>
    3312:	80 e0       	ldi	r24, 0x00	; 0
    3314:	0f 90       	pop	r0
    3316:	0f be       	out	0x3f, r0	; 63
    3318:	08 95       	ret

0000331a <vTaskMissedYield>:
    331a:	81 e0       	ldi	r24, 0x01	; 1
    331c:	80 93 5a 07 	sts	0x075A, r24
    3320:	08 95       	ret

00003322 <uxTaskGetStackHighWaterMark>:
    3322:	00 97       	sbiw	r24, 0x00	; 0
    3324:	79 f0       	breq	.+30     	; 0x3344 <uxTaskGetStackHighWaterMark+0x22>
    3326:	fc 01       	movw	r30, r24
    3328:	07 88       	ldd	r0, Z+23	; 0x17
    332a:	f0 8d       	ldd	r31, Z+24	; 0x18
    332c:	e0 2d       	mov	r30, r0
    332e:	80 81       	ld	r24, Z
    3330:	85 3a       	cpi	r24, 0xA5	; 165
    3332:	69 f4       	brne	.+26     	; 0x334e <uxTaskGetStackHighWaterMark+0x2c>
    3334:	31 96       	adiw	r30, 0x01	; 1
    3336:	80 e0       	ldi	r24, 0x00	; 0
    3338:	90 e0       	ldi	r25, 0x00	; 0
    333a:	01 96       	adiw	r24, 0x01	; 1
    333c:	21 91       	ld	r18, Z+
    333e:	25 3a       	cpi	r18, 0xA5	; 165
    3340:	e1 f3       	breq	.-8      	; 0x333a <uxTaskGetStackHighWaterMark+0x18>
    3342:	08 95       	ret
    3344:	e0 91 33 07 	lds	r30, 0x0733
    3348:	f0 91 34 07 	lds	r31, 0x0734
    334c:	ed cf       	rjmp	.-38     	; 0x3328 <uxTaskGetStackHighWaterMark+0x6>
    334e:	80 e0       	ldi	r24, 0x00	; 0
    3350:	08 95       	ret

00003352 <xTaskGetCurrentTaskHandle>:
    3352:	20 91 33 07 	lds	r18, 0x0733
    3356:	30 91 34 07 	lds	r19, 0x0734
    335a:	c9 01       	movw	r24, r18
    335c:	08 95       	ret

0000335e <vTaskPriorityInherit>:
    335e:	ef 92       	push	r14
    3360:	ff 92       	push	r15
    3362:	0f 93       	push	r16
    3364:	1f 93       	push	r17
    3366:	cf 93       	push	r28
    3368:	df 93       	push	r29
    336a:	e8 2e       	mov	r14, r24
    336c:	e7 01       	movw	r28, r14
    336e:	7e 01       	movw	r14, r28
    3370:	f9 2e       	mov	r15, r25
    3372:	e7 01       	movw	r28, r14
    3374:	8e 89       	ldd	r24, Y+22	; 0x16
    3376:	e0 91 33 07 	lds	r30, 0x0733
    337a:	f0 91 34 07 	lds	r31, 0x0734
    337e:	96 89       	ldd	r25, Z+22	; 0x16
    3380:	89 17       	cp	r24, r25
    3382:	e0 f4       	brcc	.+56     	; 0x33bc <vTaskPriorityInherit+0x5e>
    3384:	e0 91 33 07 	lds	r30, 0x0733
    3388:	f0 91 34 07 	lds	r31, 0x0734
    338c:	46 89       	ldd	r20, Z+22	; 0x16
    338e:	24 e0       	ldi	r18, 0x04	; 4
    3390:	30 e0       	ldi	r19, 0x00	; 0
    3392:	24 1b       	sub	r18, r20
    3394:	31 09       	sbc	r19, r1
    3396:	3d 87       	std	Y+13, r19	; 0x0d
    3398:	2c 87       	std	Y+12, r18	; 0x0c
    339a:	99 e0       	ldi	r25, 0x09	; 9
    339c:	89 9f       	mul	r24, r25
    339e:	c0 01       	movw	r24, r0
    33a0:	11 24       	eor	r1, r1
    33a2:	8a 5c       	subi	r24, 0xCA	; 202
    33a4:	98 4f       	sbci	r25, 0xF8	; 248
    33a6:	2a 85       	ldd	r18, Y+10	; 0x0a
    33a8:	3b 85       	ldd	r19, Y+11	; 0x0b
    33aa:	28 17       	cp	r18, r24
    33ac:	39 07       	cpc	r19, r25
    33ae:	59 f0       	breq	.+22     	; 0x33c6 <vTaskPriorityInherit+0x68>
    33b0:	e0 91 33 07 	lds	r30, 0x0733
    33b4:	f0 91 34 07 	lds	r31, 0x0734
    33b8:	86 89       	ldd	r24, Z+22	; 0x16
    33ba:	8e 8b       	std	Y+22, r24	; 0x16
    33bc:	cd b7       	in	r28, 0x3d	; 61
    33be:	de b7       	in	r29, 0x3e	; 62
    33c0:	e6 e0       	ldi	r30, 0x06	; 6
    33c2:	0c 94 f3 1d 	jmp	0x3be6	; 0x3be6 <__epilogue_restores__+0x18>
    33c6:	87 01       	movw	r16, r14
    33c8:	0e 5f       	subi	r16, 0xFE	; 254
    33ca:	1f 4f       	sbci	r17, 0xFF	; 255
    33cc:	c8 01       	movw	r24, r16
    33ce:	0e 94 ea 1b 	call	0x37d4	; 0x37d4 <vListRemove>
    33d2:	e0 91 33 07 	lds	r30, 0x0733
    33d6:	f0 91 34 07 	lds	r31, 0x0734
    33da:	26 89       	ldd	r18, Z+22	; 0x16
    33dc:	2e 8b       	std	Y+22, r18	; 0x16
    33de:	80 91 35 07 	lds	r24, 0x0735
    33e2:	82 17       	cp	r24, r18
    33e4:	10 f4       	brcc	.+4      	; 0x33ea <vTaskPriorityInherit+0x8c>
    33e6:	20 93 35 07 	sts	0x0735, r18
    33ea:	30 e0       	ldi	r19, 0x00	; 0
    33ec:	c9 01       	movw	r24, r18
    33ee:	88 0f       	add	r24, r24
    33f0:	99 1f       	adc	r25, r25
    33f2:	88 0f       	add	r24, r24
    33f4:	99 1f       	adc	r25, r25
    33f6:	88 0f       	add	r24, r24
    33f8:	99 1f       	adc	r25, r25
    33fa:	82 0f       	add	r24, r18
    33fc:	93 1f       	adc	r25, r19
    33fe:	8a 5c       	subi	r24, 0xCA	; 202
    3400:	98 4f       	sbci	r25, 0xF8	; 248
    3402:	b8 01       	movw	r22, r16
    3404:	0e 94 86 1b 	call	0x370c	; 0x370c <vListInsertEnd>
    3408:	d9 cf       	rjmp	.-78     	; 0x33bc <vTaskPriorityInherit+0x5e>

0000340a <vTaskPriorityDisinherit>:
    340a:	0f 93       	push	r16
    340c:	1f 93       	push	r17
    340e:	cf 93       	push	r28
    3410:	df 93       	push	r29
    3412:	ec 01       	movw	r28, r24
    3414:	00 97       	sbiw	r24, 0x00	; 0
    3416:	31 f1       	breq	.+76     	; 0x3464 <vTaskPriorityDisinherit+0x5a>
    3418:	9e 89       	ldd	r25, Y+22	; 0x16
    341a:	89 a5       	ldd	r24, Y+41	; 0x29
    341c:	98 17       	cp	r25, r24
    341e:	11 f1       	breq	.+68     	; 0x3464 <vTaskPriorityDisinherit+0x5a>
    3420:	8e 01       	movw	r16, r28
    3422:	0e 5f       	subi	r16, 0xFE	; 254
    3424:	1f 4f       	sbci	r17, 0xFF	; 255
    3426:	c8 01       	movw	r24, r16
    3428:	0e 94 ea 1b 	call	0x37d4	; 0x37d4 <vListRemove>
    342c:	49 a5       	ldd	r20, Y+41	; 0x29
    342e:	4e 8b       	std	Y+22, r20	; 0x16
    3430:	24 2f       	mov	r18, r20
    3432:	30 e0       	ldi	r19, 0x00	; 0
    3434:	84 e0       	ldi	r24, 0x04	; 4
    3436:	90 e0       	ldi	r25, 0x00	; 0
    3438:	82 1b       	sub	r24, r18
    343a:	93 0b       	sbc	r25, r19
    343c:	9d 87       	std	Y+13, r25	; 0x0d
    343e:	8c 87       	std	Y+12, r24	; 0x0c
    3440:	80 91 35 07 	lds	r24, 0x0735
    3444:	84 17       	cp	r24, r20
    3446:	98 f0       	brcs	.+38     	; 0x346e <vTaskPriorityDisinherit+0x64>
    3448:	c9 01       	movw	r24, r18
    344a:	88 0f       	add	r24, r24
    344c:	99 1f       	adc	r25, r25
    344e:	88 0f       	add	r24, r24
    3450:	99 1f       	adc	r25, r25
    3452:	88 0f       	add	r24, r24
    3454:	99 1f       	adc	r25, r25
    3456:	82 0f       	add	r24, r18
    3458:	93 1f       	adc	r25, r19
    345a:	8a 5c       	subi	r24, 0xCA	; 202
    345c:	98 4f       	sbci	r25, 0xF8	; 248
    345e:	b8 01       	movw	r22, r16
    3460:	0e 94 86 1b 	call	0x370c	; 0x370c <vListInsertEnd>
    3464:	df 91       	pop	r29
    3466:	cf 91       	pop	r28
    3468:	1f 91       	pop	r17
    346a:	0f 91       	pop	r16
    346c:	08 95       	ret
    346e:	40 93 35 07 	sts	0x0735, r20
    3472:	ea cf       	rjmp	.-44     	; 0x3448 <vTaskPriorityDisinherit+0x3e>

00003474 <pxPortInitialiseStack>:
    3474:	21 e1       	ldi	r18, 0x11	; 17
    3476:	fc 01       	movw	r30, r24
    3478:	20 83       	st	Z, r18
    347a:	92 e2       	ldi	r25, 0x22	; 34
    347c:	92 93       	st	-Z, r25
    347e:	b3 e3       	ldi	r27, 0x33	; 51
    3480:	b2 93       	st	-Z, r27
    3482:	62 93       	st	-Z, r22
    3484:	72 93       	st	-Z, r23
    3486:	12 92       	st	-Z, r1
    3488:	a0 e8       	ldi	r26, 0x80	; 128
    348a:	a2 93       	st	-Z, r26
    348c:	12 92       	st	-Z, r1
    348e:	72 e0       	ldi	r23, 0x02	; 2
    3490:	72 93       	st	-Z, r23
    3492:	63 e0       	ldi	r22, 0x03	; 3
    3494:	62 93       	st	-Z, r22
    3496:	34 e0       	ldi	r19, 0x04	; 4
    3498:	32 93       	st	-Z, r19
    349a:	85 e0       	ldi	r24, 0x05	; 5
    349c:	82 93       	st	-Z, r24
    349e:	b6 e0       	ldi	r27, 0x06	; 6
    34a0:	b2 93       	st	-Z, r27
    34a2:	a7 e0       	ldi	r26, 0x07	; 7
    34a4:	a2 93       	st	-Z, r26
    34a6:	78 e0       	ldi	r23, 0x08	; 8
    34a8:	72 93       	st	-Z, r23
    34aa:	69 e0       	ldi	r22, 0x09	; 9
    34ac:	62 93       	st	-Z, r22
    34ae:	30 e1       	ldi	r19, 0x10	; 16
    34b0:	32 93       	st	-Z, r19
    34b2:	22 93       	st	-Z, r18
    34b4:	82 e1       	ldi	r24, 0x12	; 18
    34b6:	82 93       	st	-Z, r24
    34b8:	b3 e1       	ldi	r27, 0x13	; 19
    34ba:	b2 93       	st	-Z, r27
    34bc:	a4 e1       	ldi	r26, 0x14	; 20
    34be:	a2 93       	st	-Z, r26
    34c0:	75 e1       	ldi	r23, 0x15	; 21
    34c2:	72 93       	st	-Z, r23
    34c4:	66 e1       	ldi	r22, 0x16	; 22
    34c6:	62 93       	st	-Z, r22
    34c8:	37 e1       	ldi	r19, 0x17	; 23
    34ca:	32 93       	st	-Z, r19
    34cc:	28 e1       	ldi	r18, 0x18	; 24
    34ce:	22 93       	st	-Z, r18
    34d0:	89 e1       	ldi	r24, 0x19	; 25
    34d2:	82 93       	st	-Z, r24
    34d4:	b0 e2       	ldi	r27, 0x20	; 32
    34d6:	b2 93       	st	-Z, r27
    34d8:	a1 e2       	ldi	r26, 0x21	; 33
    34da:	a2 93       	st	-Z, r26
    34dc:	92 93       	st	-Z, r25
    34de:	73 e2       	ldi	r23, 0x23	; 35
    34e0:	72 93       	st	-Z, r23
    34e2:	42 93       	st	-Z, r20
    34e4:	52 93       	st	-Z, r21
    34e6:	66 e2       	ldi	r22, 0x26	; 38
    34e8:	62 93       	st	-Z, r22
    34ea:	57 e2       	ldi	r21, 0x27	; 39
    34ec:	52 93       	st	-Z, r21
    34ee:	48 e2       	ldi	r20, 0x28	; 40
    34f0:	42 93       	st	-Z, r20
    34f2:	39 e2       	ldi	r19, 0x29	; 41
    34f4:	32 93       	st	-Z, r19
    34f6:	20 e3       	ldi	r18, 0x30	; 48
    34f8:	22 93       	st	-Z, r18
    34fa:	81 e3       	ldi	r24, 0x31	; 49
    34fc:	82 93       	st	-Z, r24
    34fe:	9f 01       	movw	r18, r30
    3500:	21 50       	subi	r18, 0x01	; 1
    3502:	30 40       	sbci	r19, 0x00	; 0
    3504:	c9 01       	movw	r24, r18
    3506:	08 95       	ret

00003508 <xPortStartScheduler>:
    3508:	45 e3       	ldi	r20, 0x35	; 53
    350a:	47 bd       	out	0x27, r20	; 39
    350c:	32 e0       	ldi	r19, 0x02	; 2
    350e:	34 bd       	out	0x24, r19	; 36
    3510:	25 e0       	ldi	r18, 0x05	; 5
    3512:	25 bd       	out	0x25, r18	; 37
    3514:	ee e6       	ldi	r30, 0x6E	; 110
    3516:	f0 e0       	ldi	r31, 0x00	; 0
    3518:	80 81       	ld	r24, Z
    351a:	82 60       	ori	r24, 0x02	; 2
    351c:	80 83       	st	Z, r24
    351e:	a0 91 33 07 	lds	r26, 0x0733
    3522:	b0 91 34 07 	lds	r27, 0x0734
    3526:	cd 91       	ld	r28, X+
    3528:	cd bf       	out	0x3d, r28	; 61
    352a:	dd 91       	ld	r29, X+
    352c:	de bf       	out	0x3e, r29	; 62
    352e:	ff 91       	pop	r31
    3530:	ef 91       	pop	r30
    3532:	df 91       	pop	r29
    3534:	cf 91       	pop	r28
    3536:	bf 91       	pop	r27
    3538:	af 91       	pop	r26
    353a:	9f 91       	pop	r25
    353c:	8f 91       	pop	r24
    353e:	7f 91       	pop	r23
    3540:	6f 91       	pop	r22
    3542:	5f 91       	pop	r21
    3544:	4f 91       	pop	r20
    3546:	3f 91       	pop	r19
    3548:	2f 91       	pop	r18
    354a:	1f 91       	pop	r17
    354c:	0f 91       	pop	r16
    354e:	ff 90       	pop	r15
    3550:	ef 90       	pop	r14
    3552:	df 90       	pop	r13
    3554:	cf 90       	pop	r12
    3556:	bf 90       	pop	r11
    3558:	af 90       	pop	r10
    355a:	9f 90       	pop	r9
    355c:	8f 90       	pop	r8
    355e:	7f 90       	pop	r7
    3560:	6f 90       	pop	r6
    3562:	5f 90       	pop	r5
    3564:	4f 90       	pop	r4
    3566:	3f 90       	pop	r3
    3568:	2f 90       	pop	r2
    356a:	1f 90       	pop	r1
    356c:	0f 90       	pop	r0
    356e:	0f be       	out	0x3f, r0	; 63
    3570:	0f 90       	pop	r0
    3572:	08 95       	ret
    3574:	81 e0       	ldi	r24, 0x01	; 1
    3576:	08 95       	ret

00003578 <vPortEndScheduler>:
    3578:	08 95       	ret

0000357a <vPortYield>:
    357a:	0f 92       	push	r0
    357c:	0f b6       	in	r0, 0x3f	; 63
    357e:	f8 94       	cli
    3580:	0f 92       	push	r0
    3582:	1f 92       	push	r1
    3584:	11 24       	eor	r1, r1
    3586:	2f 92       	push	r2
    3588:	3f 92       	push	r3
    358a:	4f 92       	push	r4
    358c:	5f 92       	push	r5
    358e:	6f 92       	push	r6
    3590:	7f 92       	push	r7
    3592:	8f 92       	push	r8
    3594:	9f 92       	push	r9
    3596:	af 92       	push	r10
    3598:	bf 92       	push	r11
    359a:	cf 92       	push	r12
    359c:	df 92       	push	r13
    359e:	ef 92       	push	r14
    35a0:	ff 92       	push	r15
    35a2:	0f 93       	push	r16
    35a4:	1f 93       	push	r17
    35a6:	2f 93       	push	r18
    35a8:	3f 93       	push	r19
    35aa:	4f 93       	push	r20
    35ac:	5f 93       	push	r21
    35ae:	6f 93       	push	r22
    35b0:	7f 93       	push	r23
    35b2:	8f 93       	push	r24
    35b4:	9f 93       	push	r25
    35b6:	af 93       	push	r26
    35b8:	bf 93       	push	r27
    35ba:	cf 93       	push	r28
    35bc:	df 93       	push	r29
    35be:	ef 93       	push	r30
    35c0:	ff 93       	push	r31
    35c2:	a0 91 33 07 	lds	r26, 0x0733
    35c6:	b0 91 34 07 	lds	r27, 0x0734
    35ca:	0d b6       	in	r0, 0x3d	; 61
    35cc:	0d 92       	st	X+, r0
    35ce:	0e b6       	in	r0, 0x3e	; 62
    35d0:	0d 92       	st	X+, r0
    35d2:	0e 94 25 18 	call	0x304a	; 0x304a <vTaskSwitchContext>
    35d6:	a0 91 33 07 	lds	r26, 0x0733
    35da:	b0 91 34 07 	lds	r27, 0x0734
    35de:	cd 91       	ld	r28, X+
    35e0:	cd bf       	out	0x3d, r28	; 61
    35e2:	dd 91       	ld	r29, X+
    35e4:	de bf       	out	0x3e, r29	; 62
    35e6:	ff 91       	pop	r31
    35e8:	ef 91       	pop	r30
    35ea:	df 91       	pop	r29
    35ec:	cf 91       	pop	r28
    35ee:	bf 91       	pop	r27
    35f0:	af 91       	pop	r26
    35f2:	9f 91       	pop	r25
    35f4:	8f 91       	pop	r24
    35f6:	7f 91       	pop	r23
    35f8:	6f 91       	pop	r22
    35fa:	5f 91       	pop	r21
    35fc:	4f 91       	pop	r20
    35fe:	3f 91       	pop	r19
    3600:	2f 91       	pop	r18
    3602:	1f 91       	pop	r17
    3604:	0f 91       	pop	r16
    3606:	ff 90       	pop	r15
    3608:	ef 90       	pop	r14
    360a:	df 90       	pop	r13
    360c:	cf 90       	pop	r12
    360e:	bf 90       	pop	r11
    3610:	af 90       	pop	r10
    3612:	9f 90       	pop	r9
    3614:	8f 90       	pop	r8
    3616:	7f 90       	pop	r7
    3618:	6f 90       	pop	r6
    361a:	5f 90       	pop	r5
    361c:	4f 90       	pop	r4
    361e:	3f 90       	pop	r3
    3620:	2f 90       	pop	r2
    3622:	1f 90       	pop	r1
    3624:	0f 90       	pop	r0
    3626:	0f be       	out	0x3f, r0	; 63
    3628:	0f 90       	pop	r0
    362a:	08 95       	ret

0000362c <vPortYieldFromTick>:
    362c:	0f 92       	push	r0
    362e:	0f b6       	in	r0, 0x3f	; 63
    3630:	f8 94       	cli
    3632:	0f 92       	push	r0
    3634:	1f 92       	push	r1
    3636:	11 24       	eor	r1, r1
    3638:	2f 92       	push	r2
    363a:	3f 92       	push	r3
    363c:	4f 92       	push	r4
    363e:	5f 92       	push	r5
    3640:	6f 92       	push	r6
    3642:	7f 92       	push	r7
    3644:	8f 92       	push	r8
    3646:	9f 92       	push	r9
    3648:	af 92       	push	r10
    364a:	bf 92       	push	r11
    364c:	cf 92       	push	r12
    364e:	df 92       	push	r13
    3650:	ef 92       	push	r14
    3652:	ff 92       	push	r15
    3654:	0f 93       	push	r16
    3656:	1f 93       	push	r17
    3658:	2f 93       	push	r18
    365a:	3f 93       	push	r19
    365c:	4f 93       	push	r20
    365e:	5f 93       	push	r21
    3660:	6f 93       	push	r22
    3662:	7f 93       	push	r23
    3664:	8f 93       	push	r24
    3666:	9f 93       	push	r25
    3668:	af 93       	push	r26
    366a:	bf 93       	push	r27
    366c:	cf 93       	push	r28
    366e:	df 93       	push	r29
    3670:	ef 93       	push	r30
    3672:	ff 93       	push	r31
    3674:	a0 91 33 07 	lds	r26, 0x0733
    3678:	b0 91 34 07 	lds	r27, 0x0734
    367c:	0d b6       	in	r0, 0x3d	; 61
    367e:	0d 92       	st	X+, r0
    3680:	0e b6       	in	r0, 0x3e	; 62
    3682:	0d 92       	st	X+, r0
    3684:	0e 94 7f 16 	call	0x2cfe	; 0x2cfe <vTaskIncrementTick>
    3688:	0e 94 25 18 	call	0x304a	; 0x304a <vTaskSwitchContext>
    368c:	a0 91 33 07 	lds	r26, 0x0733
    3690:	b0 91 34 07 	lds	r27, 0x0734
    3694:	cd 91       	ld	r28, X+
    3696:	cd bf       	out	0x3d, r28	; 61
    3698:	dd 91       	ld	r29, X+
    369a:	de bf       	out	0x3e, r29	; 62
    369c:	ff 91       	pop	r31
    369e:	ef 91       	pop	r30
    36a0:	df 91       	pop	r29
    36a2:	cf 91       	pop	r28
    36a4:	bf 91       	pop	r27
    36a6:	af 91       	pop	r26
    36a8:	9f 91       	pop	r25
    36aa:	8f 91       	pop	r24
    36ac:	7f 91       	pop	r23
    36ae:	6f 91       	pop	r22
    36b0:	5f 91       	pop	r21
    36b2:	4f 91       	pop	r20
    36b4:	3f 91       	pop	r19
    36b6:	2f 91       	pop	r18
    36b8:	1f 91       	pop	r17
    36ba:	0f 91       	pop	r16
    36bc:	ff 90       	pop	r15
    36be:	ef 90       	pop	r14
    36c0:	df 90       	pop	r13
    36c2:	cf 90       	pop	r12
    36c4:	bf 90       	pop	r11
    36c6:	af 90       	pop	r10
    36c8:	9f 90       	pop	r9
    36ca:	8f 90       	pop	r8
    36cc:	7f 90       	pop	r7
    36ce:	6f 90       	pop	r6
    36d0:	5f 90       	pop	r5
    36d2:	4f 90       	pop	r4
    36d4:	3f 90       	pop	r3
    36d6:	2f 90       	pop	r2
    36d8:	1f 90       	pop	r1
    36da:	0f 90       	pop	r0
    36dc:	0f be       	out	0x3f, r0	; 63
    36de:	0f 90       	pop	r0
    36e0:	08 95       	ret

000036e2 <__vector_14>:
    36e2:	0e 94 16 1b 	call	0x362c	; 0x362c <vPortYieldFromTick>
    36e6:	18 95       	reti

000036e8 <vListInitialise>:
    36e8:	fc 01       	movw	r30, r24
    36ea:	03 96       	adiw	r24, 0x03	; 3
    36ec:	92 83       	std	Z+2, r25	; 0x02
    36ee:	81 83       	std	Z+1, r24	; 0x01
    36f0:	2f ef       	ldi	r18, 0xFF	; 255
    36f2:	3f ef       	ldi	r19, 0xFF	; 255
    36f4:	34 83       	std	Z+4, r19	; 0x04
    36f6:	23 83       	std	Z+3, r18	; 0x03
    36f8:	96 83       	std	Z+6, r25	; 0x06
    36fa:	85 83       	std	Z+5, r24	; 0x05
    36fc:	90 87       	std	Z+8, r25	; 0x08
    36fe:	87 83       	std	Z+7, r24	; 0x07
    3700:	10 82       	st	Z, r1
    3702:	08 95       	ret

00003704 <vListInitialiseItem>:
    3704:	fc 01       	movw	r30, r24
    3706:	11 86       	std	Z+9, r1	; 0x09
    3708:	10 86       	std	Z+8, r1	; 0x08
    370a:	08 95       	ret

0000370c <vListInsertEnd>:
    370c:	cf 93       	push	r28
    370e:	df 93       	push	r29
    3710:	fc 01       	movw	r30, r24
    3712:	db 01       	movw	r26, r22
    3714:	21 81       	ldd	r18, Z+1	; 0x01
    3716:	32 81       	ldd	r19, Z+2	; 0x02
    3718:	e9 01       	movw	r28, r18
    371a:	8a 81       	ldd	r24, Y+2	; 0x02
    371c:	9b 81       	ldd	r25, Y+3	; 0x03
    371e:	13 96       	adiw	r26, 0x03	; 3
    3720:	9c 93       	st	X, r25
    3722:	8e 93       	st	-X, r24
    3724:	12 97       	sbiw	r26, 0x02	; 2
    3726:	15 96       	adiw	r26, 0x05	; 5
    3728:	3c 93       	st	X, r19
    372a:	2e 93       	st	-X, r18
    372c:	14 97       	sbiw	r26, 0x04	; 4
    372e:	8a 81       	ldd	r24, Y+2	; 0x02
    3730:	9b 81       	ldd	r25, Y+3	; 0x03
    3732:	ec 01       	movw	r28, r24
    3734:	7d 83       	std	Y+5, r23	; 0x05
    3736:	6c 83       	std	Y+4, r22	; 0x04
    3738:	e9 01       	movw	r28, r18
    373a:	7b 83       	std	Y+3, r23	; 0x03
    373c:	6a 83       	std	Y+2, r22	; 0x02
    373e:	72 83       	std	Z+2, r23	; 0x02
    3740:	61 83       	std	Z+1, r22	; 0x01
    3742:	19 96       	adiw	r26, 0x09	; 9
    3744:	fc 93       	st	X, r31
    3746:	ee 93       	st	-X, r30
    3748:	18 97       	sbiw	r26, 0x08	; 8
    374a:	80 81       	ld	r24, Z
    374c:	8f 5f       	subi	r24, 0xFF	; 255
    374e:	80 83       	st	Z, r24
    3750:	df 91       	pop	r29
    3752:	cf 91       	pop	r28
    3754:	08 95       	ret

00003756 <vListInsert>:
    3756:	cf 93       	push	r28
    3758:	df 93       	push	r29
    375a:	fc 01       	movw	r30, r24
    375c:	db 01       	movw	r26, r22
    375e:	2d 91       	ld	r18, X+
    3760:	3c 91       	ld	r19, X
    3762:	11 97       	sbiw	r26, 0x01	; 1
    3764:	bf ef       	ldi	r27, 0xFF	; 255
    3766:	2f 3f       	cpi	r18, 0xFF	; 255
    3768:	3b 07       	cpc	r19, r27
    376a:	89 f1       	breq	.+98     	; 0x37ce <vListInsert+0x78>
    376c:	dc 01       	movw	r26, r24
    376e:	13 96       	adiw	r26, 0x03	; 3
    3770:	12 96       	adiw	r26, 0x02	; 2
    3772:	cd 91       	ld	r28, X+
    3774:	dc 91       	ld	r29, X
    3776:	13 97       	sbiw	r26, 0x03	; 3
    3778:	88 81       	ld	r24, Y
    377a:	99 81       	ldd	r25, Y+1	; 0x01
    377c:	28 17       	cp	r18, r24
    377e:	39 07       	cpc	r19, r25
    3780:	68 f0       	brcs	.+26     	; 0x379c <vListInsert+0x46>
    3782:	12 96       	adiw	r26, 0x02	; 2
    3784:	0d 90       	ld	r0, X+
    3786:	bc 91       	ld	r27, X
    3788:	a0 2d       	mov	r26, r0
    378a:	12 96       	adiw	r26, 0x02	; 2
    378c:	cd 91       	ld	r28, X+
    378e:	dc 91       	ld	r29, X
    3790:	13 97       	sbiw	r26, 0x03	; 3
    3792:	88 81       	ld	r24, Y
    3794:	99 81       	ldd	r25, Y+1	; 0x01
    3796:	28 17       	cp	r18, r24
    3798:	39 07       	cpc	r19, r25
    379a:	98 f7       	brcc	.-26     	; 0x3782 <vListInsert+0x2c>
    379c:	12 96       	adiw	r26, 0x02	; 2
    379e:	8d 91       	ld	r24, X+
    37a0:	9c 91       	ld	r25, X
    37a2:	13 97       	sbiw	r26, 0x03	; 3
    37a4:	eb 01       	movw	r28, r22
    37a6:	9b 83       	std	Y+3, r25	; 0x03
    37a8:	8a 83       	std	Y+2, r24	; 0x02
    37aa:	ec 01       	movw	r28, r24
    37ac:	7d 83       	std	Y+5, r23	; 0x05
    37ae:	6c 83       	std	Y+4, r22	; 0x04
    37b0:	eb 01       	movw	r28, r22
    37b2:	bd 83       	std	Y+5, r27	; 0x05
    37b4:	ac 83       	std	Y+4, r26	; 0x04
    37b6:	13 96       	adiw	r26, 0x03	; 3
    37b8:	7c 93       	st	X, r23
    37ba:	6e 93       	st	-X, r22
    37bc:	12 97       	sbiw	r26, 0x02	; 2
    37be:	f9 87       	std	Y+9, r31	; 0x09
    37c0:	e8 87       	std	Y+8, r30	; 0x08
    37c2:	80 81       	ld	r24, Z
    37c4:	8f 5f       	subi	r24, 0xFF	; 255
    37c6:	80 83       	st	Z, r24
    37c8:	df 91       	pop	r29
    37ca:	cf 91       	pop	r28
    37cc:	08 95       	ret
    37ce:	a7 81       	ldd	r26, Z+7	; 0x07
    37d0:	b0 85       	ldd	r27, Z+8	; 0x08
    37d2:	e4 cf       	rjmp	.-56     	; 0x379c <vListInsert+0x46>

000037d4 <vListRemove>:
    37d4:	cf 93       	push	r28
    37d6:	df 93       	push	r29
    37d8:	fc 01       	movw	r30, r24
    37da:	a2 81       	ldd	r26, Z+2	; 0x02
    37dc:	b3 81       	ldd	r27, Z+3	; 0x03
    37de:	84 81       	ldd	r24, Z+4	; 0x04
    37e0:	95 81       	ldd	r25, Z+5	; 0x05
    37e2:	15 96       	adiw	r26, 0x05	; 5
    37e4:	9c 93       	st	X, r25
    37e6:	8e 93       	st	-X, r24
    37e8:	14 97       	sbiw	r26, 0x04	; 4
    37ea:	c4 81       	ldd	r28, Z+4	; 0x04
    37ec:	d5 81       	ldd	r29, Z+5	; 0x05
    37ee:	bb 83       	std	Y+3, r27	; 0x03
    37f0:	aa 83       	std	Y+2, r26	; 0x02
    37f2:	a0 85       	ldd	r26, Z+8	; 0x08
    37f4:	b1 85       	ldd	r27, Z+9	; 0x09
    37f6:	11 96       	adiw	r26, 0x01	; 1
    37f8:	8d 91       	ld	r24, X+
    37fa:	9c 91       	ld	r25, X
    37fc:	12 97       	sbiw	r26, 0x02	; 2
    37fe:	8e 17       	cp	r24, r30
    3800:	9f 07       	cpc	r25, r31
    3802:	41 f0       	breq	.+16     	; 0x3814 <vListRemove+0x40>
    3804:	11 86       	std	Z+9, r1	; 0x09
    3806:	10 86       	std	Z+8, r1	; 0x08
    3808:	2c 91       	ld	r18, X
    380a:	21 50       	subi	r18, 0x01	; 1
    380c:	2c 93       	st	X, r18
    380e:	df 91       	pop	r29
    3810:	cf 91       	pop	r28
    3812:	08 95       	ret
    3814:	12 96       	adiw	r26, 0x02	; 2
    3816:	dc 93       	st	X, r29
    3818:	ce 93       	st	-X, r28
    381a:	11 97       	sbiw	r26, 0x01	; 1
    381c:	11 86       	std	Z+9, r1	; 0x09
    381e:	10 86       	std	Z+8, r1	; 0x08
    3820:	2c 91       	ld	r18, X
    3822:	21 50       	subi	r18, 0x01	; 1
    3824:	2c 93       	st	X, r18
    3826:	df 91       	pop	r29
    3828:	cf 91       	pop	r28
    382a:	08 95       	ret

0000382c <__subsf3>:
    382c:	50 58       	subi	r21, 0x80	; 128

0000382e <__addsf3>:
    382e:	bb 27       	eor	r27, r27
    3830:	aa 27       	eor	r26, r26
    3832:	0e d0       	rcall	.+28     	; 0x3850 <__addsf3x>
    3834:	e5 c0       	rjmp	.+458    	; 0x3a00 <__fp_round>
    3836:	d6 d0       	rcall	.+428    	; 0x39e4 <__fp_pscA>
    3838:	30 f0       	brcs	.+12     	; 0x3846 <__addsf3+0x18>
    383a:	db d0       	rcall	.+438    	; 0x39f2 <__fp_pscB>
    383c:	20 f0       	brcs	.+8      	; 0x3846 <__addsf3+0x18>
    383e:	31 f4       	brne	.+12     	; 0x384c <__addsf3+0x1e>
    3840:	9f 3f       	cpi	r25, 0xFF	; 255
    3842:	11 f4       	brne	.+4      	; 0x3848 <__addsf3+0x1a>
    3844:	1e f4       	brtc	.+6      	; 0x384c <__addsf3+0x1e>
    3846:	cb c0       	rjmp	.+406    	; 0x39de <__fp_nan>
    3848:	0e f4       	brtc	.+2      	; 0x384c <__addsf3+0x1e>
    384a:	e0 95       	com	r30
    384c:	e7 fb       	bst	r30, 7
    384e:	c1 c0       	rjmp	.+386    	; 0x39d2 <__fp_inf>

00003850 <__addsf3x>:
    3850:	e9 2f       	mov	r30, r25
    3852:	e7 d0       	rcall	.+462    	; 0x3a22 <__fp_split3>
    3854:	80 f3       	brcs	.-32     	; 0x3836 <__addsf3+0x8>
    3856:	ba 17       	cp	r27, r26
    3858:	62 07       	cpc	r22, r18
    385a:	73 07       	cpc	r23, r19
    385c:	84 07       	cpc	r24, r20
    385e:	95 07       	cpc	r25, r21
    3860:	18 f0       	brcs	.+6      	; 0x3868 <__addsf3x+0x18>
    3862:	71 f4       	brne	.+28     	; 0x3880 <__addsf3x+0x30>
    3864:	9e f5       	brtc	.+102    	; 0x38cc <__addsf3x+0x7c>
    3866:	ff c0       	rjmp	.+510    	; 0x3a66 <__fp_zero>
    3868:	0e f4       	brtc	.+2      	; 0x386c <__addsf3x+0x1c>
    386a:	e0 95       	com	r30
    386c:	0b 2e       	mov	r0, r27
    386e:	ba 2f       	mov	r27, r26
    3870:	a0 2d       	mov	r26, r0
    3872:	0b 01       	movw	r0, r22
    3874:	b9 01       	movw	r22, r18
    3876:	90 01       	movw	r18, r0
    3878:	0c 01       	movw	r0, r24
    387a:	ca 01       	movw	r24, r20
    387c:	a0 01       	movw	r20, r0
    387e:	11 24       	eor	r1, r1
    3880:	ff 27       	eor	r31, r31
    3882:	59 1b       	sub	r21, r25
    3884:	99 f0       	breq	.+38     	; 0x38ac <__addsf3x+0x5c>
    3886:	59 3f       	cpi	r21, 0xF9	; 249
    3888:	50 f4       	brcc	.+20     	; 0x389e <__addsf3x+0x4e>
    388a:	50 3e       	cpi	r21, 0xE0	; 224
    388c:	68 f1       	brcs	.+90     	; 0x38e8 <__addsf3x+0x98>
    388e:	1a 16       	cp	r1, r26
    3890:	f0 40       	sbci	r31, 0x00	; 0
    3892:	a2 2f       	mov	r26, r18
    3894:	23 2f       	mov	r18, r19
    3896:	34 2f       	mov	r19, r20
    3898:	44 27       	eor	r20, r20
    389a:	58 5f       	subi	r21, 0xF8	; 248
    389c:	f3 cf       	rjmp	.-26     	; 0x3884 <__addsf3x+0x34>
    389e:	46 95       	lsr	r20
    38a0:	37 95       	ror	r19
    38a2:	27 95       	ror	r18
    38a4:	a7 95       	ror	r26
    38a6:	f0 40       	sbci	r31, 0x00	; 0
    38a8:	53 95       	inc	r21
    38aa:	c9 f7       	brne	.-14     	; 0x389e <__addsf3x+0x4e>
    38ac:	7e f4       	brtc	.+30     	; 0x38cc <__addsf3x+0x7c>
    38ae:	1f 16       	cp	r1, r31
    38b0:	ba 0b       	sbc	r27, r26
    38b2:	62 0b       	sbc	r22, r18
    38b4:	73 0b       	sbc	r23, r19
    38b6:	84 0b       	sbc	r24, r20
    38b8:	ba f0       	brmi	.+46     	; 0x38e8 <__addsf3x+0x98>
    38ba:	91 50       	subi	r25, 0x01	; 1
    38bc:	a1 f0       	breq	.+40     	; 0x38e6 <__addsf3x+0x96>
    38be:	ff 0f       	add	r31, r31
    38c0:	bb 1f       	adc	r27, r27
    38c2:	66 1f       	adc	r22, r22
    38c4:	77 1f       	adc	r23, r23
    38c6:	88 1f       	adc	r24, r24
    38c8:	c2 f7       	brpl	.-16     	; 0x38ba <__addsf3x+0x6a>
    38ca:	0e c0       	rjmp	.+28     	; 0x38e8 <__addsf3x+0x98>
    38cc:	ba 0f       	add	r27, r26
    38ce:	62 1f       	adc	r22, r18
    38d0:	73 1f       	adc	r23, r19
    38d2:	84 1f       	adc	r24, r20
    38d4:	48 f4       	brcc	.+18     	; 0x38e8 <__addsf3x+0x98>
    38d6:	87 95       	ror	r24
    38d8:	77 95       	ror	r23
    38da:	67 95       	ror	r22
    38dc:	b7 95       	ror	r27
    38de:	f7 95       	ror	r31
    38e0:	9e 3f       	cpi	r25, 0xFE	; 254
    38e2:	08 f0       	brcs	.+2      	; 0x38e6 <__addsf3x+0x96>
    38e4:	b3 cf       	rjmp	.-154    	; 0x384c <__addsf3+0x1e>
    38e6:	93 95       	inc	r25
    38e8:	88 0f       	add	r24, r24
    38ea:	08 f0       	brcs	.+2      	; 0x38ee <__addsf3x+0x9e>
    38ec:	99 27       	eor	r25, r25
    38ee:	ee 0f       	add	r30, r30
    38f0:	97 95       	ror	r25
    38f2:	87 95       	ror	r24
    38f4:	08 95       	ret

000038f6 <__fixsfsi>:
    38f6:	04 d0       	rcall	.+8      	; 0x3900 <__fixunssfsi>
    38f8:	68 94       	set
    38fa:	b1 11       	cpse	r27, r1
    38fc:	b5 c0       	rjmp	.+362    	; 0x3a68 <__fp_szero>
    38fe:	08 95       	ret

00003900 <__fixunssfsi>:
    3900:	98 d0       	rcall	.+304    	; 0x3a32 <__fp_splitA>
    3902:	88 f0       	brcs	.+34     	; 0x3926 <__fixunssfsi+0x26>
    3904:	9f 57       	subi	r25, 0x7F	; 127
    3906:	90 f0       	brcs	.+36     	; 0x392c <__fixunssfsi+0x2c>
    3908:	b9 2f       	mov	r27, r25
    390a:	99 27       	eor	r25, r25
    390c:	b7 51       	subi	r27, 0x17	; 23
    390e:	a0 f0       	brcs	.+40     	; 0x3938 <__fixunssfsi+0x38>
    3910:	d1 f0       	breq	.+52     	; 0x3946 <__fixunssfsi+0x46>
    3912:	66 0f       	add	r22, r22
    3914:	77 1f       	adc	r23, r23
    3916:	88 1f       	adc	r24, r24
    3918:	99 1f       	adc	r25, r25
    391a:	1a f0       	brmi	.+6      	; 0x3922 <__fixunssfsi+0x22>
    391c:	ba 95       	dec	r27
    391e:	c9 f7       	brne	.-14     	; 0x3912 <__fixunssfsi+0x12>
    3920:	12 c0       	rjmp	.+36     	; 0x3946 <__fixunssfsi+0x46>
    3922:	b1 30       	cpi	r27, 0x01	; 1
    3924:	81 f0       	breq	.+32     	; 0x3946 <__fixunssfsi+0x46>
    3926:	9f d0       	rcall	.+318    	; 0x3a66 <__fp_zero>
    3928:	b1 e0       	ldi	r27, 0x01	; 1
    392a:	08 95       	ret
    392c:	9c c0       	rjmp	.+312    	; 0x3a66 <__fp_zero>
    392e:	67 2f       	mov	r22, r23
    3930:	78 2f       	mov	r23, r24
    3932:	88 27       	eor	r24, r24
    3934:	b8 5f       	subi	r27, 0xF8	; 248
    3936:	39 f0       	breq	.+14     	; 0x3946 <__fixunssfsi+0x46>
    3938:	b9 3f       	cpi	r27, 0xF9	; 249
    393a:	cc f3       	brlt	.-14     	; 0x392e <__fixunssfsi+0x2e>
    393c:	86 95       	lsr	r24
    393e:	77 95       	ror	r23
    3940:	67 95       	ror	r22
    3942:	b3 95       	inc	r27
    3944:	d9 f7       	brne	.-10     	; 0x393c <__fixunssfsi+0x3c>
    3946:	3e f4       	brtc	.+14     	; 0x3956 <__fixunssfsi+0x56>
    3948:	90 95       	com	r25
    394a:	80 95       	com	r24
    394c:	70 95       	com	r23
    394e:	61 95       	neg	r22
    3950:	7f 4f       	sbci	r23, 0xFF	; 255
    3952:	8f 4f       	sbci	r24, 0xFF	; 255
    3954:	9f 4f       	sbci	r25, 0xFF	; 255
    3956:	08 95       	ret

00003958 <__floatunsisf>:
    3958:	e8 94       	clt
    395a:	09 c0       	rjmp	.+18     	; 0x396e <__floatsisf+0x12>

0000395c <__floatsisf>:
    395c:	97 fb       	bst	r25, 7
    395e:	3e f4       	brtc	.+14     	; 0x396e <__floatsisf+0x12>
    3960:	90 95       	com	r25
    3962:	80 95       	com	r24
    3964:	70 95       	com	r23
    3966:	61 95       	neg	r22
    3968:	7f 4f       	sbci	r23, 0xFF	; 255
    396a:	8f 4f       	sbci	r24, 0xFF	; 255
    396c:	9f 4f       	sbci	r25, 0xFF	; 255
    396e:	99 23       	and	r25, r25
    3970:	a9 f0       	breq	.+42     	; 0x399c <__floatsisf+0x40>
    3972:	f9 2f       	mov	r31, r25
    3974:	96 e9       	ldi	r25, 0x96	; 150
    3976:	bb 27       	eor	r27, r27
    3978:	93 95       	inc	r25
    397a:	f6 95       	lsr	r31
    397c:	87 95       	ror	r24
    397e:	77 95       	ror	r23
    3980:	67 95       	ror	r22
    3982:	b7 95       	ror	r27
    3984:	f1 11       	cpse	r31, r1
    3986:	f8 cf       	rjmp	.-16     	; 0x3978 <__floatsisf+0x1c>
    3988:	fa f4       	brpl	.+62     	; 0x39c8 <__floatsisf+0x6c>
    398a:	bb 0f       	add	r27, r27
    398c:	11 f4       	brne	.+4      	; 0x3992 <__floatsisf+0x36>
    398e:	60 ff       	sbrs	r22, 0
    3990:	1b c0       	rjmp	.+54     	; 0x39c8 <__floatsisf+0x6c>
    3992:	6f 5f       	subi	r22, 0xFF	; 255
    3994:	7f 4f       	sbci	r23, 0xFF	; 255
    3996:	8f 4f       	sbci	r24, 0xFF	; 255
    3998:	9f 4f       	sbci	r25, 0xFF	; 255
    399a:	16 c0       	rjmp	.+44     	; 0x39c8 <__floatsisf+0x6c>
    399c:	88 23       	and	r24, r24
    399e:	11 f0       	breq	.+4      	; 0x39a4 <__floatsisf+0x48>
    39a0:	96 e9       	ldi	r25, 0x96	; 150
    39a2:	11 c0       	rjmp	.+34     	; 0x39c6 <__floatsisf+0x6a>
    39a4:	77 23       	and	r23, r23
    39a6:	21 f0       	breq	.+8      	; 0x39b0 <__floatsisf+0x54>
    39a8:	9e e8       	ldi	r25, 0x8E	; 142
    39aa:	87 2f       	mov	r24, r23
    39ac:	76 2f       	mov	r23, r22
    39ae:	05 c0       	rjmp	.+10     	; 0x39ba <__floatsisf+0x5e>
    39b0:	66 23       	and	r22, r22
    39b2:	71 f0       	breq	.+28     	; 0x39d0 <__floatsisf+0x74>
    39b4:	96 e8       	ldi	r25, 0x86	; 134
    39b6:	86 2f       	mov	r24, r22
    39b8:	70 e0       	ldi	r23, 0x00	; 0
    39ba:	60 e0       	ldi	r22, 0x00	; 0
    39bc:	2a f0       	brmi	.+10     	; 0x39c8 <__floatsisf+0x6c>
    39be:	9a 95       	dec	r25
    39c0:	66 0f       	add	r22, r22
    39c2:	77 1f       	adc	r23, r23
    39c4:	88 1f       	adc	r24, r24
    39c6:	da f7       	brpl	.-10     	; 0x39be <__floatsisf+0x62>
    39c8:	88 0f       	add	r24, r24
    39ca:	96 95       	lsr	r25
    39cc:	87 95       	ror	r24
    39ce:	97 f9       	bld	r25, 7
    39d0:	08 95       	ret

000039d2 <__fp_inf>:
    39d2:	97 f9       	bld	r25, 7
    39d4:	9f 67       	ori	r25, 0x7F	; 127
    39d6:	80 e8       	ldi	r24, 0x80	; 128
    39d8:	70 e0       	ldi	r23, 0x00	; 0
    39da:	60 e0       	ldi	r22, 0x00	; 0
    39dc:	08 95       	ret

000039de <__fp_nan>:
    39de:	9f ef       	ldi	r25, 0xFF	; 255
    39e0:	80 ec       	ldi	r24, 0xC0	; 192
    39e2:	08 95       	ret

000039e4 <__fp_pscA>:
    39e4:	00 24       	eor	r0, r0
    39e6:	0a 94       	dec	r0
    39e8:	16 16       	cp	r1, r22
    39ea:	17 06       	cpc	r1, r23
    39ec:	18 06       	cpc	r1, r24
    39ee:	09 06       	cpc	r0, r25
    39f0:	08 95       	ret

000039f2 <__fp_pscB>:
    39f2:	00 24       	eor	r0, r0
    39f4:	0a 94       	dec	r0
    39f6:	12 16       	cp	r1, r18
    39f8:	13 06       	cpc	r1, r19
    39fa:	14 06       	cpc	r1, r20
    39fc:	05 06       	cpc	r0, r21
    39fe:	08 95       	ret

00003a00 <__fp_round>:
    3a00:	09 2e       	mov	r0, r25
    3a02:	03 94       	inc	r0
    3a04:	00 0c       	add	r0, r0
    3a06:	11 f4       	brne	.+4      	; 0x3a0c <__fp_round+0xc>
    3a08:	88 23       	and	r24, r24
    3a0a:	52 f0       	brmi	.+20     	; 0x3a20 <__fp_round+0x20>
    3a0c:	bb 0f       	add	r27, r27
    3a0e:	40 f4       	brcc	.+16     	; 0x3a20 <__fp_round+0x20>
    3a10:	bf 2b       	or	r27, r31
    3a12:	11 f4       	brne	.+4      	; 0x3a18 <__fp_round+0x18>
    3a14:	60 ff       	sbrs	r22, 0
    3a16:	04 c0       	rjmp	.+8      	; 0x3a20 <__fp_round+0x20>
    3a18:	6f 5f       	subi	r22, 0xFF	; 255
    3a1a:	7f 4f       	sbci	r23, 0xFF	; 255
    3a1c:	8f 4f       	sbci	r24, 0xFF	; 255
    3a1e:	9f 4f       	sbci	r25, 0xFF	; 255
    3a20:	08 95       	ret

00003a22 <__fp_split3>:
    3a22:	57 fd       	sbrc	r21, 7
    3a24:	90 58       	subi	r25, 0x80	; 128
    3a26:	44 0f       	add	r20, r20
    3a28:	55 1f       	adc	r21, r21
    3a2a:	59 f0       	breq	.+22     	; 0x3a42 <__fp_splitA+0x10>
    3a2c:	5f 3f       	cpi	r21, 0xFF	; 255
    3a2e:	71 f0       	breq	.+28     	; 0x3a4c <__fp_splitA+0x1a>
    3a30:	47 95       	ror	r20

00003a32 <__fp_splitA>:
    3a32:	88 0f       	add	r24, r24
    3a34:	97 fb       	bst	r25, 7
    3a36:	99 1f       	adc	r25, r25
    3a38:	61 f0       	breq	.+24     	; 0x3a52 <__fp_splitA+0x20>
    3a3a:	9f 3f       	cpi	r25, 0xFF	; 255
    3a3c:	79 f0       	breq	.+30     	; 0x3a5c <__fp_splitA+0x2a>
    3a3e:	87 95       	ror	r24
    3a40:	08 95       	ret
    3a42:	12 16       	cp	r1, r18
    3a44:	13 06       	cpc	r1, r19
    3a46:	14 06       	cpc	r1, r20
    3a48:	55 1f       	adc	r21, r21
    3a4a:	f2 cf       	rjmp	.-28     	; 0x3a30 <__fp_split3+0xe>
    3a4c:	46 95       	lsr	r20
    3a4e:	f1 df       	rcall	.-30     	; 0x3a32 <__fp_splitA>
    3a50:	08 c0       	rjmp	.+16     	; 0x3a62 <__fp_splitA+0x30>
    3a52:	16 16       	cp	r1, r22
    3a54:	17 06       	cpc	r1, r23
    3a56:	18 06       	cpc	r1, r24
    3a58:	99 1f       	adc	r25, r25
    3a5a:	f1 cf       	rjmp	.-30     	; 0x3a3e <__fp_splitA+0xc>
    3a5c:	86 95       	lsr	r24
    3a5e:	71 05       	cpc	r23, r1
    3a60:	61 05       	cpc	r22, r1
    3a62:	08 94       	sec
    3a64:	08 95       	ret

00003a66 <__fp_zero>:
    3a66:	e8 94       	clt

00003a68 <__fp_szero>:
    3a68:	bb 27       	eor	r27, r27
    3a6a:	66 27       	eor	r22, r22
    3a6c:	77 27       	eor	r23, r23
    3a6e:	cb 01       	movw	r24, r22
    3a70:	97 f9       	bld	r25, 7
    3a72:	08 95       	ret

00003a74 <__mulsf3>:
    3a74:	0b d0       	rcall	.+22     	; 0x3a8c <__mulsf3x>
    3a76:	c4 cf       	rjmp	.-120    	; 0x3a00 <__fp_round>
    3a78:	b5 df       	rcall	.-150    	; 0x39e4 <__fp_pscA>
    3a7a:	28 f0       	brcs	.+10     	; 0x3a86 <__mulsf3+0x12>
    3a7c:	ba df       	rcall	.-140    	; 0x39f2 <__fp_pscB>
    3a7e:	18 f0       	brcs	.+6      	; 0x3a86 <__mulsf3+0x12>
    3a80:	95 23       	and	r25, r21
    3a82:	09 f0       	breq	.+2      	; 0x3a86 <__mulsf3+0x12>
    3a84:	a6 cf       	rjmp	.-180    	; 0x39d2 <__fp_inf>
    3a86:	ab cf       	rjmp	.-170    	; 0x39de <__fp_nan>
    3a88:	11 24       	eor	r1, r1
    3a8a:	ee cf       	rjmp	.-36     	; 0x3a68 <__fp_szero>

00003a8c <__mulsf3x>:
    3a8c:	ca df       	rcall	.-108    	; 0x3a22 <__fp_split3>
    3a8e:	a0 f3       	brcs	.-24     	; 0x3a78 <__mulsf3+0x4>

00003a90 <__mulsf3_pse>:
    3a90:	95 9f       	mul	r25, r21
    3a92:	d1 f3       	breq	.-12     	; 0x3a88 <__mulsf3+0x14>
    3a94:	95 0f       	add	r25, r21
    3a96:	50 e0       	ldi	r21, 0x00	; 0
    3a98:	55 1f       	adc	r21, r21
    3a9a:	62 9f       	mul	r22, r18
    3a9c:	f0 01       	movw	r30, r0
    3a9e:	72 9f       	mul	r23, r18
    3aa0:	bb 27       	eor	r27, r27
    3aa2:	f0 0d       	add	r31, r0
    3aa4:	b1 1d       	adc	r27, r1
    3aa6:	63 9f       	mul	r22, r19
    3aa8:	aa 27       	eor	r26, r26
    3aaa:	f0 0d       	add	r31, r0
    3aac:	b1 1d       	adc	r27, r1
    3aae:	aa 1f       	adc	r26, r26
    3ab0:	64 9f       	mul	r22, r20
    3ab2:	66 27       	eor	r22, r22
    3ab4:	b0 0d       	add	r27, r0
    3ab6:	a1 1d       	adc	r26, r1
    3ab8:	66 1f       	adc	r22, r22
    3aba:	82 9f       	mul	r24, r18
    3abc:	22 27       	eor	r18, r18
    3abe:	b0 0d       	add	r27, r0
    3ac0:	a1 1d       	adc	r26, r1
    3ac2:	62 1f       	adc	r22, r18
    3ac4:	73 9f       	mul	r23, r19
    3ac6:	b0 0d       	add	r27, r0
    3ac8:	a1 1d       	adc	r26, r1
    3aca:	62 1f       	adc	r22, r18
    3acc:	83 9f       	mul	r24, r19
    3ace:	a0 0d       	add	r26, r0
    3ad0:	61 1d       	adc	r22, r1
    3ad2:	22 1f       	adc	r18, r18
    3ad4:	74 9f       	mul	r23, r20
    3ad6:	33 27       	eor	r19, r19
    3ad8:	a0 0d       	add	r26, r0
    3ada:	61 1d       	adc	r22, r1
    3adc:	23 1f       	adc	r18, r19
    3ade:	84 9f       	mul	r24, r20
    3ae0:	60 0d       	add	r22, r0
    3ae2:	21 1d       	adc	r18, r1
    3ae4:	82 2f       	mov	r24, r18
    3ae6:	76 2f       	mov	r23, r22
    3ae8:	6a 2f       	mov	r22, r26
    3aea:	11 24       	eor	r1, r1
    3aec:	9f 57       	subi	r25, 0x7F	; 127
    3aee:	50 40       	sbci	r21, 0x00	; 0
    3af0:	8a f0       	brmi	.+34     	; 0x3b14 <__mulsf3_pse+0x84>
    3af2:	e1 f0       	breq	.+56     	; 0x3b2c <__mulsf3_pse+0x9c>
    3af4:	88 23       	and	r24, r24
    3af6:	4a f0       	brmi	.+18     	; 0x3b0a <__mulsf3_pse+0x7a>
    3af8:	ee 0f       	add	r30, r30
    3afa:	ff 1f       	adc	r31, r31
    3afc:	bb 1f       	adc	r27, r27
    3afe:	66 1f       	adc	r22, r22
    3b00:	77 1f       	adc	r23, r23
    3b02:	88 1f       	adc	r24, r24
    3b04:	91 50       	subi	r25, 0x01	; 1
    3b06:	50 40       	sbci	r21, 0x00	; 0
    3b08:	a9 f7       	brne	.-22     	; 0x3af4 <__mulsf3_pse+0x64>
    3b0a:	9e 3f       	cpi	r25, 0xFE	; 254
    3b0c:	51 05       	cpc	r21, r1
    3b0e:	70 f0       	brcs	.+28     	; 0x3b2c <__mulsf3_pse+0x9c>
    3b10:	60 cf       	rjmp	.-320    	; 0x39d2 <__fp_inf>
    3b12:	aa cf       	rjmp	.-172    	; 0x3a68 <__fp_szero>
    3b14:	5f 3f       	cpi	r21, 0xFF	; 255
    3b16:	ec f3       	brlt	.-6      	; 0x3b12 <__mulsf3_pse+0x82>
    3b18:	98 3e       	cpi	r25, 0xE8	; 232
    3b1a:	dc f3       	brlt	.-10     	; 0x3b12 <__mulsf3_pse+0x82>
    3b1c:	86 95       	lsr	r24
    3b1e:	77 95       	ror	r23
    3b20:	67 95       	ror	r22
    3b22:	b7 95       	ror	r27
    3b24:	f7 95       	ror	r31
    3b26:	e7 95       	ror	r30
    3b28:	9f 5f       	subi	r25, 0xFF	; 255
    3b2a:	c1 f7       	brne	.-16     	; 0x3b1c <__mulsf3_pse+0x8c>
    3b2c:	fe 2b       	or	r31, r30
    3b2e:	88 0f       	add	r24, r24
    3b30:	91 1d       	adc	r25, r1
    3b32:	96 95       	lsr	r25
    3b34:	87 95       	ror	r24
    3b36:	97 f9       	bld	r25, 7
    3b38:	08 95       	ret

00003b3a <__udivmodqi4>:
    3b3a:	99 1b       	sub	r25, r25
    3b3c:	79 e0       	ldi	r23, 0x09	; 9
    3b3e:	04 c0       	rjmp	.+8      	; 0x3b48 <__udivmodqi4_ep>

00003b40 <__udivmodqi4_loop>:
    3b40:	99 1f       	adc	r25, r25
    3b42:	96 17       	cp	r25, r22
    3b44:	08 f0       	brcs	.+2      	; 0x3b48 <__udivmodqi4_ep>
    3b46:	96 1b       	sub	r25, r22

00003b48 <__udivmodqi4_ep>:
    3b48:	88 1f       	adc	r24, r24
    3b4a:	7a 95       	dec	r23
    3b4c:	c9 f7       	brne	.-14     	; 0x3b40 <__udivmodqi4_loop>
    3b4e:	80 95       	com	r24
    3b50:	08 95       	ret

00003b52 <__udivmodsi4>:
    3b52:	a1 e2       	ldi	r26, 0x21	; 33
    3b54:	1a 2e       	mov	r1, r26
    3b56:	aa 1b       	sub	r26, r26
    3b58:	bb 1b       	sub	r27, r27
    3b5a:	fd 01       	movw	r30, r26
    3b5c:	0d c0       	rjmp	.+26     	; 0x3b78 <__udivmodsi4_ep>

00003b5e <__udivmodsi4_loop>:
    3b5e:	aa 1f       	adc	r26, r26
    3b60:	bb 1f       	adc	r27, r27
    3b62:	ee 1f       	adc	r30, r30
    3b64:	ff 1f       	adc	r31, r31
    3b66:	a2 17       	cp	r26, r18
    3b68:	b3 07       	cpc	r27, r19
    3b6a:	e4 07       	cpc	r30, r20
    3b6c:	f5 07       	cpc	r31, r21
    3b6e:	20 f0       	brcs	.+8      	; 0x3b78 <__udivmodsi4_ep>
    3b70:	a2 1b       	sub	r26, r18
    3b72:	b3 0b       	sbc	r27, r19
    3b74:	e4 0b       	sbc	r30, r20
    3b76:	f5 0b       	sbc	r31, r21

00003b78 <__udivmodsi4_ep>:
    3b78:	66 1f       	adc	r22, r22
    3b7a:	77 1f       	adc	r23, r23
    3b7c:	88 1f       	adc	r24, r24
    3b7e:	99 1f       	adc	r25, r25
    3b80:	1a 94       	dec	r1
    3b82:	69 f7       	brne	.-38     	; 0x3b5e <__udivmodsi4_loop>
    3b84:	60 95       	com	r22
    3b86:	70 95       	com	r23
    3b88:	80 95       	com	r24
    3b8a:	90 95       	com	r25
    3b8c:	9b 01       	movw	r18, r22
    3b8e:	ac 01       	movw	r20, r24
    3b90:	bd 01       	movw	r22, r26
    3b92:	cf 01       	movw	r24, r30
    3b94:	08 95       	ret

00003b96 <__prologue_saves__>:
    3b96:	2f 92       	push	r2
    3b98:	3f 92       	push	r3
    3b9a:	4f 92       	push	r4
    3b9c:	5f 92       	push	r5
    3b9e:	6f 92       	push	r6
    3ba0:	7f 92       	push	r7
    3ba2:	8f 92       	push	r8
    3ba4:	9f 92       	push	r9
    3ba6:	af 92       	push	r10
    3ba8:	bf 92       	push	r11
    3baa:	cf 92       	push	r12
    3bac:	df 92       	push	r13
    3bae:	ef 92       	push	r14
    3bb0:	ff 92       	push	r15
    3bb2:	0f 93       	push	r16
    3bb4:	1f 93       	push	r17
    3bb6:	cf 93       	push	r28
    3bb8:	df 93       	push	r29
    3bba:	cd b7       	in	r28, 0x3d	; 61
    3bbc:	de b7       	in	r29, 0x3e	; 62
    3bbe:	ca 1b       	sub	r28, r26
    3bc0:	db 0b       	sbc	r29, r27
    3bc2:	0f b6       	in	r0, 0x3f	; 63
    3bc4:	f8 94       	cli
    3bc6:	de bf       	out	0x3e, r29	; 62
    3bc8:	0f be       	out	0x3f, r0	; 63
    3bca:	cd bf       	out	0x3d, r28	; 61
    3bcc:	09 94       	ijmp

00003bce <__epilogue_restores__>:
    3bce:	2a 88       	ldd	r2, Y+18	; 0x12
    3bd0:	39 88       	ldd	r3, Y+17	; 0x11
    3bd2:	48 88       	ldd	r4, Y+16	; 0x10
    3bd4:	5f 84       	ldd	r5, Y+15	; 0x0f
    3bd6:	6e 84       	ldd	r6, Y+14	; 0x0e
    3bd8:	7d 84       	ldd	r7, Y+13	; 0x0d
    3bda:	8c 84       	ldd	r8, Y+12	; 0x0c
    3bdc:	9b 84       	ldd	r9, Y+11	; 0x0b
    3bde:	aa 84       	ldd	r10, Y+10	; 0x0a
    3be0:	b9 84       	ldd	r11, Y+9	; 0x09
    3be2:	c8 84       	ldd	r12, Y+8	; 0x08
    3be4:	df 80       	ldd	r13, Y+7	; 0x07
    3be6:	ee 80       	ldd	r14, Y+6	; 0x06
    3be8:	fd 80       	ldd	r15, Y+5	; 0x05
    3bea:	0c 81       	ldd	r16, Y+4	; 0x04
    3bec:	1b 81       	ldd	r17, Y+3	; 0x03
    3bee:	aa 81       	ldd	r26, Y+2	; 0x02
    3bf0:	b9 81       	ldd	r27, Y+1	; 0x01
    3bf2:	ce 0f       	add	r28, r30
    3bf4:	d1 1d       	adc	r29, r1
    3bf6:	0f b6       	in	r0, 0x3f	; 63
    3bf8:	f8 94       	cli
    3bfa:	de bf       	out	0x3e, r29	; 62
    3bfc:	0f be       	out	0x3f, r0	; 63
    3bfe:	cd bf       	out	0x3d, r28	; 61
    3c00:	ed 01       	movw	r28, r26
    3c02:	08 95       	ret

00003c04 <__tablejump2__>:
    3c04:	ee 0f       	add	r30, r30
    3c06:	ff 1f       	adc	r31, r31

00003c08 <__tablejump__>:
    3c08:	05 90       	lpm	r0, Z+
    3c0a:	f4 91       	lpm	r31, Z+
    3c0c:	e0 2d       	mov	r30, r0
    3c0e:	09 94       	ijmp

00003c10 <strlen_P>:
    3c10:	fc 01       	movw	r30, r24
    3c12:	05 90       	lpm	r0, Z+
    3c14:	00 20       	and	r0, r0
    3c16:	e9 f7       	brne	.-6      	; 0x3c12 <strlen_P+0x2>
    3c18:	80 95       	com	r24
    3c1a:	90 95       	com	r25
    3c1c:	8e 0f       	add	r24, r30
    3c1e:	9f 1f       	adc	r25, r31
    3c20:	08 95       	ret

00003c22 <memcpy>:
    3c22:	fb 01       	movw	r30, r22
    3c24:	dc 01       	movw	r26, r24
    3c26:	02 c0       	rjmp	.+4      	; 0x3c2c <memcpy+0xa>
    3c28:	01 90       	ld	r0, Z+
    3c2a:	0d 92       	st	X+, r0
    3c2c:	41 50       	subi	r20, 0x01	; 1
    3c2e:	50 40       	sbci	r21, 0x00	; 0
    3c30:	d8 f7       	brcc	.-10     	; 0x3c28 <memcpy+0x6>
    3c32:	08 95       	ret

00003c34 <memset>:
    3c34:	dc 01       	movw	r26, r24
    3c36:	01 c0       	rjmp	.+2      	; 0x3c3a <memset+0x6>
    3c38:	6d 93       	st	X+, r22
    3c3a:	41 50       	subi	r20, 0x01	; 1
    3c3c:	50 40       	sbci	r21, 0x00	; 0
    3c3e:	e0 f7       	brcc	.-8      	; 0x3c38 <memset+0x4>
    3c40:	08 95       	ret

00003c42 <strncpy>:
    3c42:	fb 01       	movw	r30, r22
    3c44:	dc 01       	movw	r26, r24
    3c46:	41 50       	subi	r20, 0x01	; 1
    3c48:	50 40       	sbci	r21, 0x00	; 0
    3c4a:	48 f0       	brcs	.+18     	; 0x3c5e <strncpy+0x1c>
    3c4c:	01 90       	ld	r0, Z+
    3c4e:	0d 92       	st	X+, r0
    3c50:	00 20       	and	r0, r0
    3c52:	c9 f7       	brne	.-14     	; 0x3c46 <strncpy+0x4>
    3c54:	01 c0       	rjmp	.+2      	; 0x3c58 <strncpy+0x16>
    3c56:	1d 92       	st	X+, r1
    3c58:	41 50       	subi	r20, 0x01	; 1
    3c5a:	50 40       	sbci	r21, 0x00	; 0
    3c5c:	e0 f7       	brcc	.-8      	; 0x3c56 <strncpy+0x14>
    3c5e:	08 95       	ret

00003c60 <vsnprintf>:
    3c60:	ae e0       	ldi	r26, 0x0E	; 14
    3c62:	b0 e0       	ldi	r27, 0x00	; 0
    3c64:	e6 e3       	ldi	r30, 0x36	; 54
    3c66:	fe e1       	ldi	r31, 0x1E	; 30
    3c68:	0c 94 d9 1d 	jmp	0x3bb2	; 0x3bb2 <__prologue_saves__+0x1c>
    3c6c:	8c 01       	movw	r16, r24
    3c6e:	cb 01       	movw	r24, r22
    3c70:	ba 01       	movw	r22, r20
    3c72:	46 e0       	ldi	r20, 0x06	; 6
    3c74:	4c 83       	std	Y+4, r20	; 0x04
    3c76:	1a 83       	std	Y+2, r17	; 0x02
    3c78:	09 83       	std	Y+1, r16	; 0x01
    3c7a:	97 ff       	sbrs	r25, 7
    3c7c:	02 c0       	rjmp	.+4      	; 0x3c82 <vsnprintf+0x22>
    3c7e:	80 e0       	ldi	r24, 0x00	; 0
    3c80:	90 e8       	ldi	r25, 0x80	; 128
    3c82:	01 97       	sbiw	r24, 0x01	; 1
    3c84:	9e 83       	std	Y+6, r25	; 0x06
    3c86:	8d 83       	std	Y+5, r24	; 0x05
    3c88:	ce 01       	movw	r24, r28
    3c8a:	01 96       	adiw	r24, 0x01	; 1
    3c8c:	a9 01       	movw	r20, r18
    3c8e:	0e 94 86 1e 	call	0x3d0c	; 0x3d0c <vfprintf>
    3c92:	4d 81       	ldd	r20, Y+5	; 0x05
    3c94:	5e 81       	ldd	r21, Y+6	; 0x06
    3c96:	57 fd       	sbrc	r21, 7
    3c98:	0a c0       	rjmp	.+20     	; 0x3cae <vsnprintf+0x4e>
    3c9a:	2f 81       	ldd	r18, Y+7	; 0x07
    3c9c:	38 85       	ldd	r19, Y+8	; 0x08
    3c9e:	42 17       	cp	r20, r18
    3ca0:	53 07       	cpc	r21, r19
    3ca2:	0c f4       	brge	.+2      	; 0x3ca6 <vsnprintf+0x46>
    3ca4:	9a 01       	movw	r18, r20
    3ca6:	02 0f       	add	r16, r18
    3ca8:	13 1f       	adc	r17, r19
    3caa:	f8 01       	movw	r30, r16
    3cac:	10 82       	st	Z, r1
    3cae:	2e 96       	adiw	r28, 0x0e	; 14
    3cb0:	e4 e0       	ldi	r30, 0x04	; 4
    3cb2:	0c 94 f5 1d 	jmp	0x3bea	; 0x3bea <__epilogue_restores__+0x1c>

00003cb6 <vsnprintf_P>:
    3cb6:	ae e0       	ldi	r26, 0x0E	; 14
    3cb8:	b0 e0       	ldi	r27, 0x00	; 0
    3cba:	e1 e6       	ldi	r30, 0x61	; 97
    3cbc:	fe e1       	ldi	r31, 0x1E	; 30
    3cbe:	0c 94 d9 1d 	jmp	0x3bb2	; 0x3bb2 <__prologue_saves__+0x1c>
    3cc2:	8c 01       	movw	r16, r24
    3cc4:	cb 01       	movw	r24, r22
    3cc6:	ba 01       	movw	r22, r20
    3cc8:	4e e0       	ldi	r20, 0x0E	; 14
    3cca:	4c 83       	std	Y+4, r20	; 0x04
    3ccc:	1a 83       	std	Y+2, r17	; 0x02
    3cce:	09 83       	std	Y+1, r16	; 0x01
    3cd0:	97 ff       	sbrs	r25, 7
    3cd2:	02 c0       	rjmp	.+4      	; 0x3cd8 <vsnprintf_P+0x22>
    3cd4:	80 e0       	ldi	r24, 0x00	; 0
    3cd6:	90 e8       	ldi	r25, 0x80	; 128
    3cd8:	01 97       	sbiw	r24, 0x01	; 1
    3cda:	9e 83       	std	Y+6, r25	; 0x06
    3cdc:	8d 83       	std	Y+5, r24	; 0x05
    3cde:	ce 01       	movw	r24, r28
    3ce0:	01 96       	adiw	r24, 0x01	; 1
    3ce2:	a9 01       	movw	r20, r18
    3ce4:	0e 94 86 1e 	call	0x3d0c	; 0x3d0c <vfprintf>
    3ce8:	4d 81       	ldd	r20, Y+5	; 0x05
    3cea:	5e 81       	ldd	r21, Y+6	; 0x06
    3cec:	57 fd       	sbrc	r21, 7
    3cee:	0a c0       	rjmp	.+20     	; 0x3d04 <vsnprintf_P+0x4e>
    3cf0:	2f 81       	ldd	r18, Y+7	; 0x07
    3cf2:	38 85       	ldd	r19, Y+8	; 0x08
    3cf4:	42 17       	cp	r20, r18
    3cf6:	53 07       	cpc	r21, r19
    3cf8:	0c f4       	brge	.+2      	; 0x3cfc <vsnprintf_P+0x46>
    3cfa:	9a 01       	movw	r18, r20
    3cfc:	02 0f       	add	r16, r18
    3cfe:	13 1f       	adc	r17, r19
    3d00:	f8 01       	movw	r30, r16
    3d02:	10 82       	st	Z, r1
    3d04:	2e 96       	adiw	r28, 0x0e	; 14
    3d06:	e4 e0       	ldi	r30, 0x04	; 4
    3d08:	0c 94 f5 1d 	jmp	0x3bea	; 0x3bea <__epilogue_restores__+0x1c>

00003d0c <vfprintf>:
    3d0c:	ac e0       	ldi	r26, 0x0C	; 12
    3d0e:	b0 e0       	ldi	r27, 0x00	; 0
    3d10:	ec e8       	ldi	r30, 0x8C	; 140
    3d12:	fe e1       	ldi	r31, 0x1E	; 30
    3d14:	0c 94 cb 1d 	jmp	0x3b96	; 0x3b96 <__prologue_saves__>
    3d18:	6c 01       	movw	r12, r24
    3d1a:	1b 01       	movw	r2, r22
    3d1c:	8a 01       	movw	r16, r20
    3d1e:	fc 01       	movw	r30, r24
    3d20:	17 82       	std	Z+7, r1	; 0x07
    3d22:	16 82       	std	Z+6, r1	; 0x06
    3d24:	83 81       	ldd	r24, Z+3	; 0x03
    3d26:	81 ff       	sbrs	r24, 1
    3d28:	d1 c1       	rjmp	.+930    	; 0x40cc <vfprintf+0x3c0>
    3d2a:	2e 01       	movw	r4, r28
    3d2c:	08 94       	sec
    3d2e:	41 1c       	adc	r4, r1
    3d30:	51 1c       	adc	r5, r1
    3d32:	f6 01       	movw	r30, r12
    3d34:	93 81       	ldd	r25, Z+3	; 0x03
    3d36:	f1 01       	movw	r30, r2
    3d38:	93 fd       	sbrc	r25, 3
    3d3a:	85 91       	lpm	r24, Z+
    3d3c:	93 ff       	sbrs	r25, 3
    3d3e:	81 91       	ld	r24, Z+
    3d40:	1f 01       	movw	r2, r30
    3d42:	88 23       	and	r24, r24
    3d44:	09 f4       	brne	.+2      	; 0x3d48 <vfprintf+0x3c>
    3d46:	be c1       	rjmp	.+892    	; 0x40c4 <vfprintf+0x3b8>
    3d48:	85 32       	cpi	r24, 0x25	; 37
    3d4a:	39 f4       	brne	.+14     	; 0x3d5a <vfprintf+0x4e>
    3d4c:	93 fd       	sbrc	r25, 3
    3d4e:	85 91       	lpm	r24, Z+
    3d50:	93 ff       	sbrs	r25, 3
    3d52:	81 91       	ld	r24, Z+
    3d54:	1f 01       	movw	r2, r30
    3d56:	85 32       	cpi	r24, 0x25	; 37
    3d58:	29 f4       	brne	.+10     	; 0x3d64 <vfprintf+0x58>
    3d5a:	90 e0       	ldi	r25, 0x00	; 0
    3d5c:	b6 01       	movw	r22, r12
    3d5e:	0e 94 b5 20 	call	0x416a	; 0x416a <fputc>
    3d62:	e7 cf       	rjmp	.-50     	; 0x3d32 <vfprintf+0x26>
    3d64:	ee 24       	eor	r14, r14
    3d66:	ff 24       	eor	r15, r15
    3d68:	20 e0       	ldi	r18, 0x00	; 0
    3d6a:	20 32       	cpi	r18, 0x20	; 32
    3d6c:	b0 f4       	brcc	.+44     	; 0x3d9a <vfprintf+0x8e>
    3d6e:	8b 32       	cpi	r24, 0x2B	; 43
    3d70:	69 f0       	breq	.+26     	; 0x3d8c <vfprintf+0x80>
    3d72:	8c 32       	cpi	r24, 0x2C	; 44
    3d74:	28 f4       	brcc	.+10     	; 0x3d80 <vfprintf+0x74>
    3d76:	80 32       	cpi	r24, 0x20	; 32
    3d78:	51 f0       	breq	.+20     	; 0x3d8e <vfprintf+0x82>
    3d7a:	83 32       	cpi	r24, 0x23	; 35
    3d7c:	71 f4       	brne	.+28     	; 0x3d9a <vfprintf+0x8e>
    3d7e:	0b c0       	rjmp	.+22     	; 0x3d96 <vfprintf+0x8a>
    3d80:	8d 32       	cpi	r24, 0x2D	; 45
    3d82:	39 f0       	breq	.+14     	; 0x3d92 <vfprintf+0x86>
    3d84:	80 33       	cpi	r24, 0x30	; 48
    3d86:	49 f4       	brne	.+18     	; 0x3d9a <vfprintf+0x8e>
    3d88:	21 60       	ori	r18, 0x01	; 1
    3d8a:	2c c0       	rjmp	.+88     	; 0x3de4 <vfprintf+0xd8>
    3d8c:	22 60       	ori	r18, 0x02	; 2
    3d8e:	24 60       	ori	r18, 0x04	; 4
    3d90:	29 c0       	rjmp	.+82     	; 0x3de4 <vfprintf+0xd8>
    3d92:	28 60       	ori	r18, 0x08	; 8
    3d94:	27 c0       	rjmp	.+78     	; 0x3de4 <vfprintf+0xd8>
    3d96:	20 61       	ori	r18, 0x10	; 16
    3d98:	25 c0       	rjmp	.+74     	; 0x3de4 <vfprintf+0xd8>
    3d9a:	27 fd       	sbrc	r18, 7
    3d9c:	2c c0       	rjmp	.+88     	; 0x3df6 <vfprintf+0xea>
    3d9e:	38 2f       	mov	r19, r24
    3da0:	30 53       	subi	r19, 0x30	; 48
    3da2:	3a 30       	cpi	r19, 0x0A	; 10
    3da4:	98 f4       	brcc	.+38     	; 0x3dcc <vfprintf+0xc0>
    3da6:	26 ff       	sbrs	r18, 6
    3da8:	08 c0       	rjmp	.+16     	; 0x3dba <vfprintf+0xae>
    3daa:	8e 2d       	mov	r24, r14
    3dac:	88 0f       	add	r24, r24
    3dae:	e8 2e       	mov	r14, r24
    3db0:	ee 0c       	add	r14, r14
    3db2:	ee 0c       	add	r14, r14
    3db4:	e8 0e       	add	r14, r24
    3db6:	e3 0e       	add	r14, r19
    3db8:	15 c0       	rjmp	.+42     	; 0x3de4 <vfprintf+0xd8>
    3dba:	8f 2d       	mov	r24, r15
    3dbc:	88 0f       	add	r24, r24
    3dbe:	f8 2e       	mov	r15, r24
    3dc0:	ff 0c       	add	r15, r15
    3dc2:	ff 0c       	add	r15, r15
    3dc4:	f8 0e       	add	r15, r24
    3dc6:	f3 0e       	add	r15, r19
    3dc8:	20 62       	ori	r18, 0x20	; 32
    3dca:	0c c0       	rjmp	.+24     	; 0x3de4 <vfprintf+0xd8>
    3dcc:	8e 32       	cpi	r24, 0x2E	; 46
    3dce:	21 f4       	brne	.+8      	; 0x3dd8 <vfprintf+0xcc>
    3dd0:	26 fd       	sbrc	r18, 6
    3dd2:	78 c1       	rjmp	.+752    	; 0x40c4 <vfprintf+0x3b8>
    3dd4:	20 64       	ori	r18, 0x40	; 64
    3dd6:	06 c0       	rjmp	.+12     	; 0x3de4 <vfprintf+0xd8>
    3dd8:	8c 36       	cpi	r24, 0x6C	; 108
    3dda:	11 f4       	brne	.+4      	; 0x3de0 <vfprintf+0xd4>
    3ddc:	20 68       	ori	r18, 0x80	; 128
    3dde:	02 c0       	rjmp	.+4      	; 0x3de4 <vfprintf+0xd8>
    3de0:	88 36       	cpi	r24, 0x68	; 104
    3de2:	49 f4       	brne	.+18     	; 0x3df6 <vfprintf+0xea>
    3de4:	f1 01       	movw	r30, r2
    3de6:	93 fd       	sbrc	r25, 3
    3de8:	85 91       	lpm	r24, Z+
    3dea:	93 ff       	sbrs	r25, 3
    3dec:	81 91       	ld	r24, Z+
    3dee:	1f 01       	movw	r2, r30
    3df0:	88 23       	and	r24, r24
    3df2:	09 f0       	breq	.+2      	; 0x3df6 <vfprintf+0xea>
    3df4:	ba cf       	rjmp	.-140    	; 0x3d6a <vfprintf+0x5e>
    3df6:	98 2f       	mov	r25, r24
    3df8:	95 54       	subi	r25, 0x45	; 69
    3dfa:	93 30       	cpi	r25, 0x03	; 3
    3dfc:	18 f0       	brcs	.+6      	; 0x3e04 <vfprintf+0xf8>
    3dfe:	90 52       	subi	r25, 0x20	; 32
    3e00:	93 30       	cpi	r25, 0x03	; 3
    3e02:	28 f4       	brcc	.+10     	; 0x3e0e <vfprintf+0x102>
    3e04:	0c 5f       	subi	r16, 0xFC	; 252
    3e06:	1f 4f       	sbci	r17, 0xFF	; 255
    3e08:	ff e3       	ldi	r31, 0x3F	; 63
    3e0a:	f9 83       	std	Y+1, r31	; 0x01
    3e0c:	0d c0       	rjmp	.+26     	; 0x3e28 <vfprintf+0x11c>
    3e0e:	83 36       	cpi	r24, 0x63	; 99
    3e10:	31 f0       	breq	.+12     	; 0x3e1e <vfprintf+0x112>
    3e12:	83 37       	cpi	r24, 0x73	; 115
    3e14:	71 f0       	breq	.+28     	; 0x3e32 <vfprintf+0x126>
    3e16:	83 35       	cpi	r24, 0x53	; 83
    3e18:	09 f0       	breq	.+2      	; 0x3e1c <vfprintf+0x110>
    3e1a:	60 c0       	rjmp	.+192    	; 0x3edc <vfprintf+0x1d0>
    3e1c:	22 c0       	rjmp	.+68     	; 0x3e62 <vfprintf+0x156>
    3e1e:	f8 01       	movw	r30, r16
    3e20:	80 81       	ld	r24, Z
    3e22:	89 83       	std	Y+1, r24	; 0x01
    3e24:	0e 5f       	subi	r16, 0xFE	; 254
    3e26:	1f 4f       	sbci	r17, 0xFF	; 255
    3e28:	42 01       	movw	r8, r4
    3e2a:	71 e0       	ldi	r23, 0x01	; 1
    3e2c:	a7 2e       	mov	r10, r23
    3e2e:	b1 2c       	mov	r11, r1
    3e30:	16 c0       	rjmp	.+44     	; 0x3e5e <vfprintf+0x152>
    3e32:	62 e0       	ldi	r22, 0x02	; 2
    3e34:	66 2e       	mov	r6, r22
    3e36:	71 2c       	mov	r7, r1
    3e38:	60 0e       	add	r6, r16
    3e3a:	71 1e       	adc	r7, r17
    3e3c:	f8 01       	movw	r30, r16
    3e3e:	80 80       	ld	r8, Z
    3e40:	91 80       	ldd	r9, Z+1	; 0x01
    3e42:	26 ff       	sbrs	r18, 6
    3e44:	03 c0       	rjmp	.+6      	; 0x3e4c <vfprintf+0x140>
    3e46:	6e 2d       	mov	r22, r14
    3e48:	70 e0       	ldi	r23, 0x00	; 0
    3e4a:	02 c0       	rjmp	.+4      	; 0x3e50 <vfprintf+0x144>
    3e4c:	6f ef       	ldi	r22, 0xFF	; 255
    3e4e:	7f ef       	ldi	r23, 0xFF	; 255
    3e50:	c4 01       	movw	r24, r8
    3e52:	2c 87       	std	Y+12, r18	; 0x0c
    3e54:	0e 94 aa 20 	call	0x4154	; 0x4154 <strnlen>
    3e58:	5c 01       	movw	r10, r24
    3e5a:	83 01       	movw	r16, r6
    3e5c:	2c 85       	ldd	r18, Y+12	; 0x0c
    3e5e:	2f 77       	andi	r18, 0x7F	; 127
    3e60:	17 c0       	rjmp	.+46     	; 0x3e90 <vfprintf+0x184>
    3e62:	52 e0       	ldi	r21, 0x02	; 2
    3e64:	65 2e       	mov	r6, r21
    3e66:	71 2c       	mov	r7, r1
    3e68:	60 0e       	add	r6, r16
    3e6a:	71 1e       	adc	r7, r17
    3e6c:	f8 01       	movw	r30, r16
    3e6e:	80 80       	ld	r8, Z
    3e70:	91 80       	ldd	r9, Z+1	; 0x01
    3e72:	26 ff       	sbrs	r18, 6
    3e74:	03 c0       	rjmp	.+6      	; 0x3e7c <vfprintf+0x170>
    3e76:	6e 2d       	mov	r22, r14
    3e78:	70 e0       	ldi	r23, 0x00	; 0
    3e7a:	02 c0       	rjmp	.+4      	; 0x3e80 <vfprintf+0x174>
    3e7c:	6f ef       	ldi	r22, 0xFF	; 255
    3e7e:	7f ef       	ldi	r23, 0xFF	; 255
    3e80:	c4 01       	movw	r24, r8
    3e82:	2c 87       	std	Y+12, r18	; 0x0c
    3e84:	0e 94 9f 20 	call	0x413e	; 0x413e <strnlen_P>
    3e88:	5c 01       	movw	r10, r24
    3e8a:	2c 85       	ldd	r18, Y+12	; 0x0c
    3e8c:	20 68       	ori	r18, 0x80	; 128
    3e8e:	83 01       	movw	r16, r6
    3e90:	23 fd       	sbrc	r18, 3
    3e92:	20 c0       	rjmp	.+64     	; 0x3ed4 <vfprintf+0x1c8>
    3e94:	08 c0       	rjmp	.+16     	; 0x3ea6 <vfprintf+0x19a>
    3e96:	80 e2       	ldi	r24, 0x20	; 32
    3e98:	90 e0       	ldi	r25, 0x00	; 0
    3e9a:	b6 01       	movw	r22, r12
    3e9c:	2c 87       	std	Y+12, r18	; 0x0c
    3e9e:	0e 94 b5 20 	call	0x416a	; 0x416a <fputc>
    3ea2:	fa 94       	dec	r15
    3ea4:	2c 85       	ldd	r18, Y+12	; 0x0c
    3ea6:	8f 2d       	mov	r24, r15
    3ea8:	90 e0       	ldi	r25, 0x00	; 0
    3eaa:	a8 16       	cp	r10, r24
    3eac:	b9 06       	cpc	r11, r25
    3eae:	98 f3       	brcs	.-26     	; 0x3e96 <vfprintf+0x18a>
    3eb0:	11 c0       	rjmp	.+34     	; 0x3ed4 <vfprintf+0x1c8>
    3eb2:	f4 01       	movw	r30, r8
    3eb4:	27 fd       	sbrc	r18, 7
    3eb6:	85 91       	lpm	r24, Z+
    3eb8:	27 ff       	sbrs	r18, 7
    3eba:	81 91       	ld	r24, Z+
    3ebc:	4f 01       	movw	r8, r30
    3ebe:	90 e0       	ldi	r25, 0x00	; 0
    3ec0:	b6 01       	movw	r22, r12
    3ec2:	2c 87       	std	Y+12, r18	; 0x0c
    3ec4:	0e 94 b5 20 	call	0x416a	; 0x416a <fputc>
    3ec8:	2c 85       	ldd	r18, Y+12	; 0x0c
    3eca:	f1 10       	cpse	r15, r1
    3ecc:	fa 94       	dec	r15
    3ece:	08 94       	sec
    3ed0:	a1 08       	sbc	r10, r1
    3ed2:	b1 08       	sbc	r11, r1
    3ed4:	a1 14       	cp	r10, r1
    3ed6:	b1 04       	cpc	r11, r1
    3ed8:	61 f7       	brne	.-40     	; 0x3eb2 <vfprintf+0x1a6>
    3eda:	f1 c0       	rjmp	.+482    	; 0x40be <vfprintf+0x3b2>
    3edc:	84 36       	cpi	r24, 0x64	; 100
    3ede:	11 f0       	breq	.+4      	; 0x3ee4 <vfprintf+0x1d8>
    3ee0:	89 36       	cpi	r24, 0x69	; 105
    3ee2:	49 f5       	brne	.+82     	; 0x3f36 <vfprintf+0x22a>
    3ee4:	27 ff       	sbrs	r18, 7
    3ee6:	08 c0       	rjmp	.+16     	; 0x3ef8 <vfprintf+0x1ec>
    3ee8:	f8 01       	movw	r30, r16
    3eea:	60 81       	ld	r22, Z
    3eec:	71 81       	ldd	r23, Z+1	; 0x01
    3eee:	82 81       	ldd	r24, Z+2	; 0x02
    3ef0:	93 81       	ldd	r25, Z+3	; 0x03
    3ef2:	0c 5f       	subi	r16, 0xFC	; 252
    3ef4:	1f 4f       	sbci	r17, 0xFF	; 255
    3ef6:	09 c0       	rjmp	.+18     	; 0x3f0a <vfprintf+0x1fe>
    3ef8:	f8 01       	movw	r30, r16
    3efa:	60 81       	ld	r22, Z
    3efc:	71 81       	ldd	r23, Z+1	; 0x01
    3efe:	88 27       	eor	r24, r24
    3f00:	77 fd       	sbrc	r23, 7
    3f02:	80 95       	com	r24
    3f04:	98 2f       	mov	r25, r24
    3f06:	0e 5f       	subi	r16, 0xFE	; 254
    3f08:	1f 4f       	sbci	r17, 0xFF	; 255
    3f0a:	4f e6       	ldi	r20, 0x6F	; 111
    3f0c:	b4 2e       	mov	r11, r20
    3f0e:	b2 22       	and	r11, r18
    3f10:	97 ff       	sbrs	r25, 7
    3f12:	09 c0       	rjmp	.+18     	; 0x3f26 <vfprintf+0x21a>
    3f14:	90 95       	com	r25
    3f16:	80 95       	com	r24
    3f18:	70 95       	com	r23
    3f1a:	61 95       	neg	r22
    3f1c:	7f 4f       	sbci	r23, 0xFF	; 255
    3f1e:	8f 4f       	sbci	r24, 0xFF	; 255
    3f20:	9f 4f       	sbci	r25, 0xFF	; 255
    3f22:	f0 e8       	ldi	r31, 0x80	; 128
    3f24:	bf 2a       	or	r11, r31
    3f26:	a2 01       	movw	r20, r4
    3f28:	2a e0       	ldi	r18, 0x0A	; 10
    3f2a:	30 e0       	ldi	r19, 0x00	; 0
    3f2c:	0e 94 e1 20 	call	0x41c2	; 0x41c2 <__ultoa_invert>
    3f30:	78 2e       	mov	r7, r24
    3f32:	74 18       	sub	r7, r4
    3f34:	45 c0       	rjmp	.+138    	; 0x3fc0 <vfprintf+0x2b4>
    3f36:	85 37       	cpi	r24, 0x75	; 117
    3f38:	31 f4       	brne	.+12     	; 0x3f46 <vfprintf+0x23a>
    3f3a:	3f ee       	ldi	r19, 0xEF	; 239
    3f3c:	b3 2e       	mov	r11, r19
    3f3e:	b2 22       	and	r11, r18
    3f40:	2a e0       	ldi	r18, 0x0A	; 10
    3f42:	30 e0       	ldi	r19, 0x00	; 0
    3f44:	25 c0       	rjmp	.+74     	; 0x3f90 <vfprintf+0x284>
    3f46:	99 ef       	ldi	r25, 0xF9	; 249
    3f48:	b9 2e       	mov	r11, r25
    3f4a:	b2 22       	and	r11, r18
    3f4c:	8f 36       	cpi	r24, 0x6F	; 111
    3f4e:	c1 f0       	breq	.+48     	; 0x3f80 <vfprintf+0x274>
    3f50:	80 37       	cpi	r24, 0x70	; 112
    3f52:	20 f4       	brcc	.+8      	; 0x3f5c <vfprintf+0x250>
    3f54:	88 35       	cpi	r24, 0x58	; 88
    3f56:	09 f0       	breq	.+2      	; 0x3f5a <vfprintf+0x24e>
    3f58:	b5 c0       	rjmp	.+362    	; 0x40c4 <vfprintf+0x3b8>
    3f5a:	0d c0       	rjmp	.+26     	; 0x3f76 <vfprintf+0x26a>
    3f5c:	80 37       	cpi	r24, 0x70	; 112
    3f5e:	21 f0       	breq	.+8      	; 0x3f68 <vfprintf+0x25c>
    3f60:	88 37       	cpi	r24, 0x78	; 120
    3f62:	09 f0       	breq	.+2      	; 0x3f66 <vfprintf+0x25a>
    3f64:	af c0       	rjmp	.+350    	; 0x40c4 <vfprintf+0x3b8>
    3f66:	02 c0       	rjmp	.+4      	; 0x3f6c <vfprintf+0x260>
    3f68:	20 e1       	ldi	r18, 0x10	; 16
    3f6a:	b2 2a       	or	r11, r18
    3f6c:	b4 fe       	sbrs	r11, 4
    3f6e:	0b c0       	rjmp	.+22     	; 0x3f86 <vfprintf+0x27a>
    3f70:	84 e0       	ldi	r24, 0x04	; 4
    3f72:	b8 2a       	or	r11, r24
    3f74:	08 c0       	rjmp	.+16     	; 0x3f86 <vfprintf+0x27a>
    3f76:	b4 fe       	sbrs	r11, 4
    3f78:	09 c0       	rjmp	.+18     	; 0x3f8c <vfprintf+0x280>
    3f7a:	e6 e0       	ldi	r30, 0x06	; 6
    3f7c:	be 2a       	or	r11, r30
    3f7e:	06 c0       	rjmp	.+12     	; 0x3f8c <vfprintf+0x280>
    3f80:	28 e0       	ldi	r18, 0x08	; 8
    3f82:	30 e0       	ldi	r19, 0x00	; 0
    3f84:	05 c0       	rjmp	.+10     	; 0x3f90 <vfprintf+0x284>
    3f86:	20 e1       	ldi	r18, 0x10	; 16
    3f88:	30 e0       	ldi	r19, 0x00	; 0
    3f8a:	02 c0       	rjmp	.+4      	; 0x3f90 <vfprintf+0x284>
    3f8c:	20 e1       	ldi	r18, 0x10	; 16
    3f8e:	32 e0       	ldi	r19, 0x02	; 2
    3f90:	b7 fe       	sbrs	r11, 7
    3f92:	08 c0       	rjmp	.+16     	; 0x3fa4 <vfprintf+0x298>
    3f94:	f8 01       	movw	r30, r16
    3f96:	60 81       	ld	r22, Z
    3f98:	71 81       	ldd	r23, Z+1	; 0x01
    3f9a:	82 81       	ldd	r24, Z+2	; 0x02
    3f9c:	93 81       	ldd	r25, Z+3	; 0x03
    3f9e:	0c 5f       	subi	r16, 0xFC	; 252
    3fa0:	1f 4f       	sbci	r17, 0xFF	; 255
    3fa2:	07 c0       	rjmp	.+14     	; 0x3fb2 <vfprintf+0x2a6>
    3fa4:	f8 01       	movw	r30, r16
    3fa6:	60 81       	ld	r22, Z
    3fa8:	71 81       	ldd	r23, Z+1	; 0x01
    3faa:	80 e0       	ldi	r24, 0x00	; 0
    3fac:	90 e0       	ldi	r25, 0x00	; 0
    3fae:	0e 5f       	subi	r16, 0xFE	; 254
    3fb0:	1f 4f       	sbci	r17, 0xFF	; 255
    3fb2:	a2 01       	movw	r20, r4
    3fb4:	0e 94 e1 20 	call	0x41c2	; 0x41c2 <__ultoa_invert>
    3fb8:	78 2e       	mov	r7, r24
    3fba:	74 18       	sub	r7, r4
    3fbc:	ff e7       	ldi	r31, 0x7F	; 127
    3fbe:	bf 22       	and	r11, r31
    3fc0:	b6 fe       	sbrs	r11, 6
    3fc2:	0b c0       	rjmp	.+22     	; 0x3fda <vfprintf+0x2ce>
    3fc4:	2e ef       	ldi	r18, 0xFE	; 254
    3fc6:	b2 22       	and	r11, r18
    3fc8:	7e 14       	cp	r7, r14
    3fca:	38 f4       	brcc	.+14     	; 0x3fda <vfprintf+0x2ce>
    3fcc:	b4 fe       	sbrs	r11, 4
    3fce:	07 c0       	rjmp	.+14     	; 0x3fde <vfprintf+0x2d2>
    3fd0:	b2 fc       	sbrc	r11, 2
    3fd2:	05 c0       	rjmp	.+10     	; 0x3fde <vfprintf+0x2d2>
    3fd4:	8f ee       	ldi	r24, 0xEF	; 239
    3fd6:	b8 22       	and	r11, r24
    3fd8:	02 c0       	rjmp	.+4      	; 0x3fde <vfprintf+0x2d2>
    3fda:	a7 2c       	mov	r10, r7
    3fdc:	01 c0       	rjmp	.+2      	; 0x3fe0 <vfprintf+0x2d4>
    3fde:	ae 2c       	mov	r10, r14
    3fe0:	8b 2d       	mov	r24, r11
    3fe2:	90 e0       	ldi	r25, 0x00	; 0
    3fe4:	b4 fe       	sbrs	r11, 4
    3fe6:	0d c0       	rjmp	.+26     	; 0x4002 <vfprintf+0x2f6>
    3fe8:	fe 01       	movw	r30, r28
    3fea:	e7 0d       	add	r30, r7
    3fec:	f1 1d       	adc	r31, r1
    3fee:	20 81       	ld	r18, Z
    3ff0:	20 33       	cpi	r18, 0x30	; 48
    3ff2:	19 f4       	brne	.+6      	; 0x3ffa <vfprintf+0x2ee>
    3ff4:	e9 ee       	ldi	r30, 0xE9	; 233
    3ff6:	be 22       	and	r11, r30
    3ff8:	09 c0       	rjmp	.+18     	; 0x400c <vfprintf+0x300>
    3ffa:	a3 94       	inc	r10
    3ffc:	b2 fe       	sbrs	r11, 2
    3ffe:	06 c0       	rjmp	.+12     	; 0x400c <vfprintf+0x300>
    4000:	04 c0       	rjmp	.+8      	; 0x400a <vfprintf+0x2fe>
    4002:	86 78       	andi	r24, 0x86	; 134
    4004:	90 70       	andi	r25, 0x00	; 0
    4006:	00 97       	sbiw	r24, 0x00	; 0
    4008:	09 f0       	breq	.+2      	; 0x400c <vfprintf+0x300>
    400a:	a3 94       	inc	r10
    400c:	8b 2c       	mov	r8, r11
    400e:	99 24       	eor	r9, r9
    4010:	b3 fc       	sbrc	r11, 3
    4012:	14 c0       	rjmp	.+40     	; 0x403c <vfprintf+0x330>
    4014:	b0 fe       	sbrs	r11, 0
    4016:	0f c0       	rjmp	.+30     	; 0x4036 <vfprintf+0x32a>
    4018:	af 14       	cp	r10, r15
    401a:	28 f4       	brcc	.+10     	; 0x4026 <vfprintf+0x31a>
    401c:	e7 2c       	mov	r14, r7
    401e:	ef 0c       	add	r14, r15
    4020:	ea 18       	sub	r14, r10
    4022:	af 2c       	mov	r10, r15
    4024:	08 c0       	rjmp	.+16     	; 0x4036 <vfprintf+0x32a>
    4026:	e7 2c       	mov	r14, r7
    4028:	06 c0       	rjmp	.+12     	; 0x4036 <vfprintf+0x32a>
    402a:	80 e2       	ldi	r24, 0x20	; 32
    402c:	90 e0       	ldi	r25, 0x00	; 0
    402e:	b6 01       	movw	r22, r12
    4030:	0e 94 b5 20 	call	0x416a	; 0x416a <fputc>
    4034:	a3 94       	inc	r10
    4036:	af 14       	cp	r10, r15
    4038:	c0 f3       	brcs	.-16     	; 0x402a <vfprintf+0x31e>
    403a:	04 c0       	rjmp	.+8      	; 0x4044 <vfprintf+0x338>
    403c:	af 14       	cp	r10, r15
    403e:	10 f4       	brcc	.+4      	; 0x4044 <vfprintf+0x338>
    4040:	fa 18       	sub	r15, r10
    4042:	01 c0       	rjmp	.+2      	; 0x4046 <vfprintf+0x33a>
    4044:	ff 24       	eor	r15, r15
    4046:	84 fe       	sbrs	r8, 4
    4048:	0f c0       	rjmp	.+30     	; 0x4068 <vfprintf+0x35c>
    404a:	80 e3       	ldi	r24, 0x30	; 48
    404c:	90 e0       	ldi	r25, 0x00	; 0
    404e:	b6 01       	movw	r22, r12
    4050:	0e 94 b5 20 	call	0x416a	; 0x416a <fputc>
    4054:	82 fe       	sbrs	r8, 2
    4056:	1f c0       	rjmp	.+62     	; 0x4096 <vfprintf+0x38a>
    4058:	81 fe       	sbrs	r8, 1
    405a:	03 c0       	rjmp	.+6      	; 0x4062 <vfprintf+0x356>
    405c:	88 e5       	ldi	r24, 0x58	; 88
    405e:	90 e0       	ldi	r25, 0x00	; 0
    4060:	10 c0       	rjmp	.+32     	; 0x4082 <vfprintf+0x376>
    4062:	88 e7       	ldi	r24, 0x78	; 120
    4064:	90 e0       	ldi	r25, 0x00	; 0
    4066:	0d c0       	rjmp	.+26     	; 0x4082 <vfprintf+0x376>
    4068:	c4 01       	movw	r24, r8
    406a:	86 78       	andi	r24, 0x86	; 134
    406c:	90 70       	andi	r25, 0x00	; 0
    406e:	00 97       	sbiw	r24, 0x00	; 0
    4070:	91 f0       	breq	.+36     	; 0x4096 <vfprintf+0x38a>
    4072:	81 fc       	sbrc	r8, 1
    4074:	02 c0       	rjmp	.+4      	; 0x407a <vfprintf+0x36e>
    4076:	80 e2       	ldi	r24, 0x20	; 32
    4078:	01 c0       	rjmp	.+2      	; 0x407c <vfprintf+0x370>
    407a:	8b e2       	ldi	r24, 0x2B	; 43
    407c:	b7 fc       	sbrc	r11, 7
    407e:	8d e2       	ldi	r24, 0x2D	; 45
    4080:	90 e0       	ldi	r25, 0x00	; 0
    4082:	b6 01       	movw	r22, r12
    4084:	0e 94 b5 20 	call	0x416a	; 0x416a <fputc>
    4088:	06 c0       	rjmp	.+12     	; 0x4096 <vfprintf+0x38a>
    408a:	80 e3       	ldi	r24, 0x30	; 48
    408c:	90 e0       	ldi	r25, 0x00	; 0
    408e:	b6 01       	movw	r22, r12
    4090:	0e 94 b5 20 	call	0x416a	; 0x416a <fputc>
    4094:	ea 94       	dec	r14
    4096:	7e 14       	cp	r7, r14
    4098:	c0 f3       	brcs	.-16     	; 0x408a <vfprintf+0x37e>
    409a:	7a 94       	dec	r7
    409c:	f2 01       	movw	r30, r4
    409e:	e7 0d       	add	r30, r7
    40a0:	f1 1d       	adc	r31, r1
    40a2:	80 81       	ld	r24, Z
    40a4:	90 e0       	ldi	r25, 0x00	; 0
    40a6:	b6 01       	movw	r22, r12
    40a8:	0e 94 b5 20 	call	0x416a	; 0x416a <fputc>
    40ac:	77 20       	and	r7, r7
    40ae:	a9 f7       	brne	.-22     	; 0x409a <vfprintf+0x38e>
    40b0:	06 c0       	rjmp	.+12     	; 0x40be <vfprintf+0x3b2>
    40b2:	80 e2       	ldi	r24, 0x20	; 32
    40b4:	90 e0       	ldi	r25, 0x00	; 0
    40b6:	b6 01       	movw	r22, r12
    40b8:	0e 94 b5 20 	call	0x416a	; 0x416a <fputc>
    40bc:	fa 94       	dec	r15
    40be:	ff 20       	and	r15, r15
    40c0:	c1 f7       	brne	.-16     	; 0x40b2 <vfprintf+0x3a6>
    40c2:	37 ce       	rjmp	.-914    	; 0x3d32 <vfprintf+0x26>
    40c4:	f6 01       	movw	r30, r12
    40c6:	26 81       	ldd	r18, Z+6	; 0x06
    40c8:	37 81       	ldd	r19, Z+7	; 0x07
    40ca:	02 c0       	rjmp	.+4      	; 0x40d0 <vfprintf+0x3c4>
    40cc:	2f ef       	ldi	r18, 0xFF	; 255
    40ce:	3f ef       	ldi	r19, 0xFF	; 255
    40d0:	c9 01       	movw	r24, r18
    40d2:	2c 96       	adiw	r28, 0x0c	; 12
    40d4:	e2 e1       	ldi	r30, 0x12	; 18
    40d6:	0c 94 e7 1d 	jmp	0x3bce	; 0x3bce <__epilogue_restores__>

000040da <__eerd_block_m328p>:
    40da:	dc 01       	movw	r26, r24
    40dc:	cb 01       	movw	r24, r22

000040de <__eerd_blraw_m328p>:
    40de:	fc 01       	movw	r30, r24
    40e0:	f9 99       	sbic	0x1f, 1	; 31
    40e2:	fe cf       	rjmp	.-4      	; 0x40e0 <__eerd_blraw_m328p+0x2>
    40e4:	06 c0       	rjmp	.+12     	; 0x40f2 <__eerd_blraw_m328p+0x14>
    40e6:	f2 bd       	out	0x22, r31	; 34
    40e8:	e1 bd       	out	0x21, r30	; 33
    40ea:	f8 9a       	sbi	0x1f, 0	; 31
    40ec:	31 96       	adiw	r30, 0x01	; 1
    40ee:	00 b4       	in	r0, 0x20	; 32
    40f0:	0d 92       	st	X+, r0
    40f2:	41 50       	subi	r20, 0x01	; 1
    40f4:	50 40       	sbci	r21, 0x00	; 0
    40f6:	b8 f7       	brcc	.-18     	; 0x40e6 <__eerd_blraw_m328p+0x8>
    40f8:	08 95       	ret

000040fa <__eeupd_block_m328p>:
    40fa:	dc 01       	movw	r26, r24
    40fc:	a4 0f       	add	r26, r20
    40fe:	b5 1f       	adc	r27, r21
    4100:	41 50       	subi	r20, 0x01	; 1
    4102:	50 40       	sbci	r21, 0x00	; 0
    4104:	48 f0       	brcs	.+18     	; 0x4118 <__eeupd_block_m328p+0x1e>
    4106:	cb 01       	movw	r24, r22
    4108:	84 0f       	add	r24, r20
    410a:	95 1f       	adc	r25, r21
    410c:	2e 91       	ld	r18, -X
    410e:	0e 94 8e 20 	call	0x411c	; 0x411c <__eeupd_r18_m328p>
    4112:	41 50       	subi	r20, 0x01	; 1
    4114:	50 40       	sbci	r21, 0x00	; 0
    4116:	d0 f7       	brcc	.-12     	; 0x410c <__eeupd_block_m328p+0x12>
    4118:	08 95       	ret

0000411a <__eeupd_byte_m328p>:
    411a:	26 2f       	mov	r18, r22

0000411c <__eeupd_r18_m328p>:
    411c:	f9 99       	sbic	0x1f, 1	; 31
    411e:	fe cf       	rjmp	.-4      	; 0x411c <__eeupd_r18_m328p>
    4120:	92 bd       	out	0x22, r25	; 34
    4122:	81 bd       	out	0x21, r24	; 33
    4124:	f8 9a       	sbi	0x1f, 0	; 31
    4126:	01 97       	sbiw	r24, 0x01	; 1
    4128:	00 b4       	in	r0, 0x20	; 32
    412a:	02 16       	cp	r0, r18
    412c:	39 f0       	breq	.+14     	; 0x413c <__eeupd_r18_m328p+0x20>
    412e:	1f ba       	out	0x1f, r1	; 31
    4130:	20 bd       	out	0x20, r18	; 32
    4132:	0f b6       	in	r0, 0x3f	; 63
    4134:	f8 94       	cli
    4136:	fa 9a       	sbi	0x1f, 2	; 31
    4138:	f9 9a       	sbi	0x1f, 1	; 31
    413a:	0f be       	out	0x3f, r0	; 63
    413c:	08 95       	ret

0000413e <strnlen_P>:
    413e:	fc 01       	movw	r30, r24
    4140:	05 90       	lpm	r0, Z+
    4142:	61 50       	subi	r22, 0x01	; 1
    4144:	70 40       	sbci	r23, 0x00	; 0
    4146:	01 10       	cpse	r0, r1
    4148:	d8 f7       	brcc	.-10     	; 0x4140 <strnlen_P+0x2>
    414a:	80 95       	com	r24
    414c:	90 95       	com	r25
    414e:	8e 0f       	add	r24, r30
    4150:	9f 1f       	adc	r25, r31
    4152:	08 95       	ret

00004154 <strnlen>:
    4154:	fc 01       	movw	r30, r24
    4156:	61 50       	subi	r22, 0x01	; 1
    4158:	70 40       	sbci	r23, 0x00	; 0
    415a:	01 90       	ld	r0, Z+
    415c:	01 10       	cpse	r0, r1
    415e:	d8 f7       	brcc	.-10     	; 0x4156 <strnlen+0x2>
    4160:	80 95       	com	r24
    4162:	90 95       	com	r25
    4164:	8e 0f       	add	r24, r30
    4166:	9f 1f       	adc	r25, r31
    4168:	08 95       	ret

0000416a <fputc>:
    416a:	0f 93       	push	r16
    416c:	1f 93       	push	r17
    416e:	cf 93       	push	r28
    4170:	df 93       	push	r29
    4172:	8c 01       	movw	r16, r24
    4174:	eb 01       	movw	r28, r22
    4176:	8b 81       	ldd	r24, Y+3	; 0x03
    4178:	81 ff       	sbrs	r24, 1
    417a:	1b c0       	rjmp	.+54     	; 0x41b2 <fputc+0x48>
    417c:	82 ff       	sbrs	r24, 2
    417e:	0d c0       	rjmp	.+26     	; 0x419a <fputc+0x30>
    4180:	2e 81       	ldd	r18, Y+6	; 0x06
    4182:	3f 81       	ldd	r19, Y+7	; 0x07
    4184:	8c 81       	ldd	r24, Y+4	; 0x04
    4186:	9d 81       	ldd	r25, Y+5	; 0x05
    4188:	28 17       	cp	r18, r24
    418a:	39 07       	cpc	r19, r25
    418c:	64 f4       	brge	.+24     	; 0x41a6 <fputc+0x3c>
    418e:	e8 81       	ld	r30, Y
    4190:	f9 81       	ldd	r31, Y+1	; 0x01
    4192:	01 93       	st	Z+, r16
    4194:	f9 83       	std	Y+1, r31	; 0x01
    4196:	e8 83       	st	Y, r30
    4198:	06 c0       	rjmp	.+12     	; 0x41a6 <fputc+0x3c>
    419a:	e8 85       	ldd	r30, Y+8	; 0x08
    419c:	f9 85       	ldd	r31, Y+9	; 0x09
    419e:	80 2f       	mov	r24, r16
    41a0:	09 95       	icall
    41a2:	00 97       	sbiw	r24, 0x00	; 0
    41a4:	31 f4       	brne	.+12     	; 0x41b2 <fputc+0x48>
    41a6:	8e 81       	ldd	r24, Y+6	; 0x06
    41a8:	9f 81       	ldd	r25, Y+7	; 0x07
    41aa:	01 96       	adiw	r24, 0x01	; 1
    41ac:	9f 83       	std	Y+7, r25	; 0x07
    41ae:	8e 83       	std	Y+6, r24	; 0x06
    41b0:	02 c0       	rjmp	.+4      	; 0x41b6 <fputc+0x4c>
    41b2:	0f ef       	ldi	r16, 0xFF	; 255
    41b4:	1f ef       	ldi	r17, 0xFF	; 255
    41b6:	c8 01       	movw	r24, r16
    41b8:	df 91       	pop	r29
    41ba:	cf 91       	pop	r28
    41bc:	1f 91       	pop	r17
    41be:	0f 91       	pop	r16
    41c0:	08 95       	ret

000041c2 <__ultoa_invert>:
    41c2:	fa 01       	movw	r30, r20
    41c4:	aa 27       	eor	r26, r26
    41c6:	28 30       	cpi	r18, 0x08	; 8
    41c8:	51 f1       	breq	.+84     	; 0x421e <__ultoa_invert+0x5c>
    41ca:	20 31       	cpi	r18, 0x10	; 16
    41cc:	81 f1       	breq	.+96     	; 0x422e <__ultoa_invert+0x6c>
    41ce:	e8 94       	clt
    41d0:	6f 93       	push	r22
    41d2:	6e 7f       	andi	r22, 0xFE	; 254
    41d4:	6e 5f       	subi	r22, 0xFE	; 254
    41d6:	7f 4f       	sbci	r23, 0xFF	; 255
    41d8:	8f 4f       	sbci	r24, 0xFF	; 255
    41da:	9f 4f       	sbci	r25, 0xFF	; 255
    41dc:	af 4f       	sbci	r26, 0xFF	; 255
    41de:	b1 e0       	ldi	r27, 0x01	; 1
    41e0:	3e d0       	rcall	.+124    	; 0x425e <__ultoa_invert+0x9c>
    41e2:	b4 e0       	ldi	r27, 0x04	; 4
    41e4:	3c d0       	rcall	.+120    	; 0x425e <__ultoa_invert+0x9c>
    41e6:	67 0f       	add	r22, r23
    41e8:	78 1f       	adc	r23, r24
    41ea:	89 1f       	adc	r24, r25
    41ec:	9a 1f       	adc	r25, r26
    41ee:	a1 1d       	adc	r26, r1
    41f0:	68 0f       	add	r22, r24
    41f2:	79 1f       	adc	r23, r25
    41f4:	8a 1f       	adc	r24, r26
    41f6:	91 1d       	adc	r25, r1
    41f8:	a1 1d       	adc	r26, r1
    41fa:	6a 0f       	add	r22, r26
    41fc:	71 1d       	adc	r23, r1
    41fe:	81 1d       	adc	r24, r1
    4200:	91 1d       	adc	r25, r1
    4202:	a1 1d       	adc	r26, r1
    4204:	20 d0       	rcall	.+64     	; 0x4246 <__ultoa_invert+0x84>
    4206:	09 f4       	brne	.+2      	; 0x420a <__ultoa_invert+0x48>
    4208:	68 94       	set
    420a:	3f 91       	pop	r19
    420c:	2a e0       	ldi	r18, 0x0A	; 10
    420e:	26 9f       	mul	r18, r22
    4210:	11 24       	eor	r1, r1
    4212:	30 19       	sub	r19, r0
    4214:	30 5d       	subi	r19, 0xD0	; 208
    4216:	31 93       	st	Z+, r19
    4218:	de f6       	brtc	.-74     	; 0x41d0 <__ultoa_invert+0xe>
    421a:	cf 01       	movw	r24, r30
    421c:	08 95       	ret
    421e:	46 2f       	mov	r20, r22
    4220:	47 70       	andi	r20, 0x07	; 7
    4222:	40 5d       	subi	r20, 0xD0	; 208
    4224:	41 93       	st	Z+, r20
    4226:	b3 e0       	ldi	r27, 0x03	; 3
    4228:	0f d0       	rcall	.+30     	; 0x4248 <__ultoa_invert+0x86>
    422a:	c9 f7       	brne	.-14     	; 0x421e <__ultoa_invert+0x5c>
    422c:	f6 cf       	rjmp	.-20     	; 0x421a <__ultoa_invert+0x58>
    422e:	46 2f       	mov	r20, r22
    4230:	4f 70       	andi	r20, 0x0F	; 15
    4232:	40 5d       	subi	r20, 0xD0	; 208
    4234:	4a 33       	cpi	r20, 0x3A	; 58
    4236:	18 f0       	brcs	.+6      	; 0x423e <__ultoa_invert+0x7c>
    4238:	49 5d       	subi	r20, 0xD9	; 217
    423a:	31 fd       	sbrc	r19, 1
    423c:	40 52       	subi	r20, 0x20	; 32
    423e:	41 93       	st	Z+, r20
    4240:	02 d0       	rcall	.+4      	; 0x4246 <__ultoa_invert+0x84>
    4242:	a9 f7       	brne	.-22     	; 0x422e <__ultoa_invert+0x6c>
    4244:	ea cf       	rjmp	.-44     	; 0x421a <__ultoa_invert+0x58>
    4246:	b4 e0       	ldi	r27, 0x04	; 4
    4248:	a6 95       	lsr	r26
    424a:	97 95       	ror	r25
    424c:	87 95       	ror	r24
    424e:	77 95       	ror	r23
    4250:	67 95       	ror	r22
    4252:	ba 95       	dec	r27
    4254:	c9 f7       	brne	.-14     	; 0x4248 <__ultoa_invert+0x86>
    4256:	00 97       	sbiw	r24, 0x00	; 0
    4258:	61 05       	cpc	r22, r1
    425a:	71 05       	cpc	r23, r1
    425c:	08 95       	ret
    425e:	9b 01       	movw	r18, r22
    4260:	ac 01       	movw	r20, r24
    4262:	0a 2e       	mov	r0, r26
    4264:	06 94       	lsr	r0
    4266:	57 95       	ror	r21
    4268:	47 95       	ror	r20
    426a:	37 95       	ror	r19
    426c:	27 95       	ror	r18
    426e:	ba 95       	dec	r27
    4270:	c9 f7       	brne	.-14     	; 0x4264 <__ultoa_invert+0xa2>
    4272:	62 0f       	add	r22, r18
    4274:	73 1f       	adc	r23, r19
    4276:	84 1f       	adc	r24, r20
    4278:	95 1f       	adc	r25, r21
    427a:	a0 1d       	adc	r26, r0
    427c:	08 95       	ret

0000427e <_exit>:
    427e:	f8 94       	cli

00004280 <__stop_program>:
    4280:	ff cf       	rjmp	.-2      	; 0x4280 <__stop_program>
