Archive member included because of file (symbol)

/home/phillip/AVR/EclipseWorkspace/freeRTOS710/Debug/libfreeRTOS710.a(servoPWM.o)
                              ./main.o (start_PWM_hardware)
/home/phillip/AVR/EclipseWorkspace/freeRTOS710/Debug/libfreeRTOS710.a(lib_serial.o)
                              ./main.o (xSerialPrint)
/home/phillip/AVR/EclipseWorkspace/freeRTOS710/Debug/libfreeRTOS710.a(rtc.o)
                              ./main.o (getDateTimeDS1307)
/home/phillip/AVR/EclipseWorkspace/freeRTOS710/Debug/libfreeRTOS710.a(i2cMultiMaster.o)
                              /home/phillip/AVR/EclipseWorkspace/freeRTOS710/Debug/libfreeRTOS710.a(rtc.o) (xI2CSemaphore)
/home/phillip/AVR/EclipseWorkspace/freeRTOS710/Debug/libfreeRTOS710.a(hd44780.o)
                              ./main.o (lcd_Init)
/home/phillip/AVR/EclipseWorkspace/freeRTOS710/Debug/libfreeRTOS710.a(digitalAnalog.o)
                              ./main.o (setAnalogMode)
/home/phillip/AVR/EclipseWorkspace/freeRTOS710/Debug/libfreeRTOS710.a(heap_2.o)
                              ./main.o (pvPortMalloc)
/home/phillip/AVR/EclipseWorkspace/freeRTOS710/Debug/libfreeRTOS710.a(queue.o)
                              ./main.o (xQueueGenericCreate)
/home/phillip/AVR/EclipseWorkspace/freeRTOS710/Debug/libfreeRTOS710.a(tasks.o)
                              ./main.o (xTaskGenericCreate)
/home/phillip/AVR/EclipseWorkspace/freeRTOS710/Debug/libfreeRTOS710.a(port.o)
                              /home/phillip/AVR/EclipseWorkspace/freeRTOS710/Debug/libfreeRTOS710.a(tasks.o) (pxPortInitialiseStack)
/home/phillip/AVR/EclipseWorkspace/freeRTOS710/Debug/libfreeRTOS710.a(list.o)
                              /home/phillip/AVR/EclipseWorkspace/freeRTOS710/Debug/libfreeRTOS710.a(queue.o) (vListInitialise)
/usr/lib/gcc/avr/4.5.3/../../../avr/lib/avr5/libm.a(addsf3.o)
                              ./main.o (__subsf3)
/usr/lib/gcc/avr/4.5.3/../../../avr/lib/avr5/libm.a(addsf3x.o)
                              /usr/lib/gcc/avr/4.5.3/../../../avr/lib/avr5/libm.a(addsf3.o) (__addsf3x)
/usr/lib/gcc/avr/4.5.3/../../../avr/lib/avr5/libm.a(fixsfsi.o)
                              ./main.o (__fixsfsi)
/usr/lib/gcc/avr/4.5.3/../../../avr/lib/avr5/libm.a(fixunssfsi.o)
                              ./main.o (__fixunssfsi)
/usr/lib/gcc/avr/4.5.3/../../../avr/lib/avr5/libm.a(floatsisf.o)
                              ./main.o (__floatunsisf)
/usr/lib/gcc/avr/4.5.3/../../../avr/lib/avr5/libm.a(fp_inf.o)
                              /usr/lib/gcc/avr/4.5.3/../../../avr/lib/avr5/libm.a(addsf3x.o) (__fp_inf)
/usr/lib/gcc/avr/4.5.3/../../../avr/lib/avr5/libm.a(fp_nan.o)
                              /usr/lib/gcc/avr/4.5.3/../../../avr/lib/avr5/libm.a(addsf3x.o) (__fp_nan)
/usr/lib/gcc/avr/4.5.3/../../../avr/lib/avr5/libm.a(fp_pscA.o)
                              /usr/lib/gcc/avr/4.5.3/../../../avr/lib/avr5/libm.a(addsf3x.o) (__fp_pscA)
/usr/lib/gcc/avr/4.5.3/../../../avr/lib/avr5/libm.a(fp_pscB.o)
                              /usr/lib/gcc/avr/4.5.3/../../../avr/lib/avr5/libm.a(addsf3x.o) (__fp_pscB)
/usr/lib/gcc/avr/4.5.3/../../../avr/lib/avr5/libm.a(fp_round.o)
                              /usr/lib/gcc/avr/4.5.3/../../../avr/lib/avr5/libm.a(addsf3.o) (__fp_round)
/usr/lib/gcc/avr/4.5.3/../../../avr/lib/avr5/libm.a(fp_split3.o)
                              /usr/lib/gcc/avr/4.5.3/../../../avr/lib/avr5/libm.a(addsf3x.o) (__fp_split3)
/usr/lib/gcc/avr/4.5.3/../../../avr/lib/avr5/libm.a(fp_zero.o)
                              /usr/lib/gcc/avr/4.5.3/../../../avr/lib/avr5/libm.a(addsf3x.o) (__fp_zero)
/usr/lib/gcc/avr/4.5.3/../../../avr/lib/avr5/libm.a(mulsf3.o)
                              ./main.o (__mulsf3)
/usr/lib/gcc/avr/4.5.3/../../../avr/lib/avr5/libm.a(mulsf3x.o)
                              /usr/lib/gcc/avr/4.5.3/../../../avr/lib/avr5/libm.a(mulsf3.o) (__mulsf3x)
/usr/lib/gcc/avr/4.5.3/avr5/libgcc.a(_udivmodqi4.o)
                              /home/phillip/AVR/EclipseWorkspace/freeRTOS710/Debug/libfreeRTOS710.a(rtc.o) (__udivmodqi4)
/usr/lib/gcc/avr/4.5.3/avr5/libgcc.a(_udivmodsi4.o)
                              /home/phillip/AVR/EclipseWorkspace/freeRTOS710/Debug/libfreeRTOS710.a(lib_serial.o) (__udivmodsi4)
/usr/lib/gcc/avr/4.5.3/avr5/libgcc.a(_prologue.o)
                              ./main.o (__prologue_saves__)
/usr/lib/gcc/avr/4.5.3/avr5/libgcc.a(_epilogue.o)
                              /home/phillip/AVR/EclipseWorkspace/freeRTOS710/Debug/libfreeRTOS710.a(lib_serial.o) (__epilogue_restores__)
/usr/lib/gcc/avr/4.5.3/avr5/libgcc.a(_exit.o)
                              /usr/lib/gcc/avr/4.5.3/../../../avr/lib/avr5/crtm328p.o (exit)
/usr/lib/gcc/avr/4.5.3/avr5/libgcc.a(_tablejump.o)
                              /home/phillip/AVR/EclipseWorkspace/freeRTOS710/Debug/libfreeRTOS710.a(i2cMultiMaster.o) (__tablejump2__)
/usr/lib/gcc/avr/4.5.3/avr5/libgcc.a(_copy_data.o)
                              ./main.o (__do_copy_data)
/usr/lib/gcc/avr/4.5.3/avr5/libgcc.a(_clear_bss.o)
                              ./main.o (__do_clear_bss)
/usr/lib/gcc/avr/4.5.3/../../../avr/lib/avr5/libc.a(strlen_P.o)
                              /home/phillip/AVR/EclipseWorkspace/freeRTOS710/Debug/libfreeRTOS710.a(lib_serial.o) (strlen_P)
/usr/lib/gcc/avr/4.5.3/../../../avr/lib/avr5/libc.a(memcpy.o)
                              /home/phillip/AVR/EclipseWorkspace/freeRTOS710/Debug/libfreeRTOS710.a(queue.o) (memcpy)
/usr/lib/gcc/avr/4.5.3/../../../avr/lib/avr5/libc.a(memset.o)
                              /home/phillip/AVR/EclipseWorkspace/freeRTOS710/Debug/libfreeRTOS710.a(tasks.o) (memset)
/usr/lib/gcc/avr/4.5.3/../../../avr/lib/avr5/libc.a(strncpy.o)
                              /home/phillip/AVR/EclipseWorkspace/freeRTOS710/Debug/libfreeRTOS710.a(tasks.o) (strncpy)
/usr/lib/gcc/avr/4.5.3/../../../avr/lib/avr5/libc.a(vsnprintf.o)
                              /home/phillip/AVR/EclipseWorkspace/freeRTOS710/Debug/libfreeRTOS710.a(lib_serial.o) (vsnprintf)
/usr/lib/gcc/avr/4.5.3/../../../avr/lib/avr5/libc.a(vsnprintf_p.o)
                              /home/phillip/AVR/EclipseWorkspace/freeRTOS710/Debug/libfreeRTOS710.a(lib_serial.o) (vsnprintf_P)
/usr/lib/gcc/avr/4.5.3/../../../avr/lib/avr5/libc.a(vfprintf_std.o)
                              /usr/lib/gcc/avr/4.5.3/../../../avr/lib/avr5/libc.a(vsnprintf.o) (vfprintf)
/usr/lib/gcc/avr/4.5.3/../../../avr/lib/avr5/libc.a(eerd_block_atmega328p.o)
                              ./main.o (__eerd_block_m328p)
/usr/lib/gcc/avr/4.5.3/../../../avr/lib/avr5/libc.a(eeupd_block_atmega328p.o)
                              ./main.o (__eeupd_block_m328p)
/usr/lib/gcc/avr/4.5.3/../../../avr/lib/avr5/libc.a(eeupd_byte_atmega328p.o)
                              /usr/lib/gcc/avr/4.5.3/../../../avr/lib/avr5/libc.a(eeupd_block_atmega328p.o) (__eeupd_r18_m328p)
/usr/lib/gcc/avr/4.5.3/../../../avr/lib/avr5/libc.a(strnlen_P.o)
                              /usr/lib/gcc/avr/4.5.3/../../../avr/lib/avr5/libc.a(vfprintf_std.o) (strnlen_P)
/usr/lib/gcc/avr/4.5.3/../../../avr/lib/avr5/libc.a(strnlen.o)
                              /usr/lib/gcc/avr/4.5.3/../../../avr/lib/avr5/libc.a(vfprintf_std.o) (strnlen)
/usr/lib/gcc/avr/4.5.3/../../../avr/lib/avr5/libc.a(fputc.o)
                              /usr/lib/gcc/avr/4.5.3/../../../avr/lib/avr5/libc.a(vfprintf_std.o) (fputc)
/usr/lib/gcc/avr/4.5.3/../../../avr/lib/avr5/libc.a(ultoa_invert.o)
                              /usr/lib/gcc/avr/4.5.3/../../../avr/lib/avr5/libc.a(vfprintf_std.o) (__ultoa_invert)

Allocating common symbols
Common symbol       size              file

LineBuffer          0x2               ./main.o
xSerialPort         0x2               ./main.o
xCurrentTempTime    0xa               ./main.o
xTaskWriteRTCRetrograde
                    0x2               ./main.o
xI2CSemaphore       0x2               /home/phillip/AVR/EclipseWorkspace/freeRTOS710/Debug/libfreeRTOS710.a(i2cMultiMaster.o)
SetTimeDate         0x2               ./main.o
xADCSemaphore       0x2               ./main.o
xMinimumTempTime    0xa               ./main.o
xMaximumTempTime    0xa               ./main.o

Discarded input sections

 .data          0x0000000000000000        0x0 /usr/lib/gcc/avr/4.5.3/../../../avr/lib/avr5/crtm328p.o
 .bss           0x0000000000000000        0x0 /usr/lib/gcc/avr/4.5.3/../../../avr/lib/avr5/crtm328p.o
 .bss           0x0000000000000000        0x0 ./main.o
 .data          0x0000000000000000        0x0 ./xitoa.o
 .bss           0x0000000000000000        0x0 ./xitoa.o
 .data          0x0000000000000000        0x0 /home/phillip/AVR/EclipseWorkspace/freeRTOS710/Debug/libfreeRTOS710.a(servoPWM.o)
 .bss           0x0000000000000000        0x0 /home/phillip/AVR/EclipseWorkspace/freeRTOS710/Debug/libfreeRTOS710.a(servoPWM.o)
 .data          0x0000000000000000        0x0 /home/phillip/AVR/EclipseWorkspace/freeRTOS710/Debug/libfreeRTOS710.a(lib_serial.o)
 .data          0x0000000000000000        0x0 /home/phillip/AVR/EclipseWorkspace/freeRTOS710/Debug/libfreeRTOS710.a(rtc.o)
 .bss           0x0000000000000000        0x0 /home/phillip/AVR/EclipseWorkspace/freeRTOS710/Debug/libfreeRTOS710.a(rtc.o)
 .data          0x0000000000000000        0x0 /home/phillip/AVR/EclipseWorkspace/freeRTOS710/Debug/libfreeRTOS710.a(hd44780.o)
 .data          0x0000000000000000        0x0 /home/phillip/AVR/EclipseWorkspace/freeRTOS710/Debug/libfreeRTOS710.a(digitalAnalog.o)
 .bss           0x0000000000000000        0x0 /home/phillip/AVR/EclipseWorkspace/freeRTOS710/Debug/libfreeRTOS710.a(digitalAnalog.o)
 .data          0x0000000000000000        0x0 /home/phillip/AVR/EclipseWorkspace/freeRTOS710/Debug/libfreeRTOS710.a(queue.o)
 .bss           0x0000000000000000        0x0 /home/phillip/AVR/EclipseWorkspace/freeRTOS710/Debug/libfreeRTOS710.a(queue.o)
 .data          0x0000000000000000        0x0 /home/phillip/AVR/EclipseWorkspace/freeRTOS710/Debug/libfreeRTOS710.a(port.o)
 .bss           0x0000000000000000        0x0 /home/phillip/AVR/EclipseWorkspace/freeRTOS710/Debug/libfreeRTOS710.a(port.o)
 .data          0x0000000000000000        0x0 /home/phillip/AVR/EclipseWorkspace/freeRTOS710/Debug/libfreeRTOS710.a(list.o)
 .bss           0x0000000000000000        0x0 /home/phillip/AVR/EclipseWorkspace/freeRTOS710/Debug/libfreeRTOS710.a(list.o)
 .text          0x0000000000000000        0x0 /usr/lib/gcc/avr/4.5.3/../../../avr/lib/avr5/libm.a(addsf3.o)
 .data          0x0000000000000000        0x0 /usr/lib/gcc/avr/4.5.3/../../../avr/lib/avr5/libm.a(addsf3.o)
 .bss           0x0000000000000000        0x0 /usr/lib/gcc/avr/4.5.3/../../../avr/lib/avr5/libm.a(addsf3.o)
 .text          0x0000000000000000        0x0 /usr/lib/gcc/avr/4.5.3/../../../avr/lib/avr5/libm.a(addsf3x.o)
 .data          0x0000000000000000        0x0 /usr/lib/gcc/avr/4.5.3/../../../avr/lib/avr5/libm.a(addsf3x.o)
 .bss           0x0000000000000000        0x0 /usr/lib/gcc/avr/4.5.3/../../../avr/lib/avr5/libm.a(addsf3x.o)
 .text          0x0000000000000000        0x0 /usr/lib/gcc/avr/4.5.3/../../../avr/lib/avr5/libm.a(fixsfsi.o)
 .data          0x0000000000000000        0x0 /usr/lib/gcc/avr/4.5.3/../../../avr/lib/avr5/libm.a(fixsfsi.o)
 .bss           0x0000000000000000        0x0 /usr/lib/gcc/avr/4.5.3/../../../avr/lib/avr5/libm.a(fixsfsi.o)
 .text          0x0000000000000000        0x0 /usr/lib/gcc/avr/4.5.3/../../../avr/lib/avr5/libm.a(fixunssfsi.o)
 .data          0x0000000000000000        0x0 /usr/lib/gcc/avr/4.5.3/../../../avr/lib/avr5/libm.a(fixunssfsi.o)
 .bss           0x0000000000000000        0x0 /usr/lib/gcc/avr/4.5.3/../../../avr/lib/avr5/libm.a(fixunssfsi.o)
 .text          0x0000000000000000        0x0 /usr/lib/gcc/avr/4.5.3/../../../avr/lib/avr5/libm.a(floatsisf.o)
 .data          0x0000000000000000        0x0 /usr/lib/gcc/avr/4.5.3/../../../avr/lib/avr5/libm.a(floatsisf.o)
 .bss           0x0000000000000000        0x0 /usr/lib/gcc/avr/4.5.3/../../../avr/lib/avr5/libm.a(floatsisf.o)
 .text          0x0000000000000000        0x0 /usr/lib/gcc/avr/4.5.3/../../../avr/lib/avr5/libm.a(fp_inf.o)
 .data          0x0000000000000000        0x0 /usr/lib/gcc/avr/4.5.3/../../../avr/lib/avr5/libm.a(fp_inf.o)
 .bss           0x0000000000000000        0x0 /usr/lib/gcc/avr/4.5.3/../../../avr/lib/avr5/libm.a(fp_inf.o)
 .text          0x0000000000000000        0x0 /usr/lib/gcc/avr/4.5.3/../../../avr/lib/avr5/libm.a(fp_nan.o)
 .data          0x0000000000000000        0x0 /usr/lib/gcc/avr/4.5.3/../../../avr/lib/avr5/libm.a(fp_nan.o)
 .bss           0x0000000000000000        0x0 /usr/lib/gcc/avr/4.5.3/../../../avr/lib/avr5/libm.a(fp_nan.o)
 .text          0x0000000000000000        0x0 /usr/lib/gcc/avr/4.5.3/../../../avr/lib/avr5/libm.a(fp_pscA.o)
 .data          0x0000000000000000        0x0 /usr/lib/gcc/avr/4.5.3/../../../avr/lib/avr5/libm.a(fp_pscA.o)
 .bss           0x0000000000000000        0x0 /usr/lib/gcc/avr/4.5.3/../../../avr/lib/avr5/libm.a(fp_pscA.o)
 .text          0x0000000000000000        0x0 /usr/lib/gcc/avr/4.5.3/../../../avr/lib/avr5/libm.a(fp_pscB.o)
 .data          0x0000000000000000        0x0 /usr/lib/gcc/avr/4.5.3/../../../avr/lib/avr5/libm.a(fp_pscB.o)
 .bss           0x0000000000000000        0x0 /usr/lib/gcc/avr/4.5.3/../../../avr/lib/avr5/libm.a(fp_pscB.o)
 .text          0x0000000000000000        0x0 /usr/lib/gcc/avr/4.5.3/../../../avr/lib/avr5/libm.a(fp_round.o)
 .data          0x0000000000000000        0x0 /usr/lib/gcc/avr/4.5.3/../../../avr/lib/avr5/libm.a(fp_round.o)
 .bss           0x0000000000000000        0x0 /usr/lib/gcc/avr/4.5.3/../../../avr/lib/avr5/libm.a(fp_round.o)
 .text          0x0000000000000000        0x0 /usr/lib/gcc/avr/4.5.3/../../../avr/lib/avr5/libm.a(fp_split3.o)
 .data          0x0000000000000000        0x0 /usr/lib/gcc/avr/4.5.3/../../../avr/lib/avr5/libm.a(fp_split3.o)
 .bss           0x0000000000000000        0x0 /usr/lib/gcc/avr/4.5.3/../../../avr/lib/avr5/libm.a(fp_split3.o)
 .text          0x0000000000000000        0x0 /usr/lib/gcc/avr/4.5.3/../../../avr/lib/avr5/libm.a(fp_zero.o)
 .data          0x0000000000000000        0x0 /usr/lib/gcc/avr/4.5.3/../../../avr/lib/avr5/libm.a(fp_zero.o)
 .bss           0x0000000000000000        0x0 /usr/lib/gcc/avr/4.5.3/../../../avr/lib/avr5/libm.a(fp_zero.o)
 .text          0x0000000000000000        0x0 /usr/lib/gcc/avr/4.5.3/../../../avr/lib/avr5/libm.a(mulsf3.o)
 .data          0x0000000000000000        0x0 /usr/lib/gcc/avr/4.5.3/../../../avr/lib/avr5/libm.a(mulsf3.o)
 .bss           0x0000000000000000        0x0 /usr/lib/gcc/avr/4.5.3/../../../avr/lib/avr5/libm.a(mulsf3.o)
 .text          0x0000000000000000        0x0 /usr/lib/gcc/avr/4.5.3/../../../avr/lib/avr5/libm.a(mulsf3x.o)
 .data          0x0000000000000000        0x0 /usr/lib/gcc/avr/4.5.3/../../../avr/lib/avr5/libm.a(mulsf3x.o)
 .bss           0x0000000000000000        0x0 /usr/lib/gcc/avr/4.5.3/../../../avr/lib/avr5/libm.a(mulsf3x.o)
 .text          0x0000000000000000        0x0 /usr/lib/gcc/avr/4.5.3/avr5/libgcc.a(_udivmodqi4.o)
 .data          0x0000000000000000        0x0 /usr/lib/gcc/avr/4.5.3/avr5/libgcc.a(_udivmodqi4.o)
 .bss           0x0000000000000000        0x0 /usr/lib/gcc/avr/4.5.3/avr5/libgcc.a(_udivmodqi4.o)
 .text          0x0000000000000000        0x0 /usr/lib/gcc/avr/4.5.3/avr5/libgcc.a(_udivmodsi4.o)
 .data          0x0000000000000000        0x0 /usr/lib/gcc/avr/4.5.3/avr5/libgcc.a(_udivmodsi4.o)
 .bss           0x0000000000000000        0x0 /usr/lib/gcc/avr/4.5.3/avr5/libgcc.a(_udivmodsi4.o)
 .text          0x0000000000000000        0x0 /usr/lib/gcc/avr/4.5.3/avr5/libgcc.a(_prologue.o)
 .data          0x0000000000000000        0x0 /usr/lib/gcc/avr/4.5.3/avr5/libgcc.a(_prologue.o)
 .bss           0x0000000000000000        0x0 /usr/lib/gcc/avr/4.5.3/avr5/libgcc.a(_prologue.o)
 .text          0x0000000000000000        0x0 /usr/lib/gcc/avr/4.5.3/avr5/libgcc.a(_epilogue.o)
 .data          0x0000000000000000        0x0 /usr/lib/gcc/avr/4.5.3/avr5/libgcc.a(_epilogue.o)
 .bss           0x0000000000000000        0x0 /usr/lib/gcc/avr/4.5.3/avr5/libgcc.a(_epilogue.o)
 .text          0x0000000000000000        0x0 /usr/lib/gcc/avr/4.5.3/avr5/libgcc.a(_exit.o)
 .data          0x0000000000000000        0x0 /usr/lib/gcc/avr/4.5.3/avr5/libgcc.a(_exit.o)
 .bss           0x0000000000000000        0x0 /usr/lib/gcc/avr/4.5.3/avr5/libgcc.a(_exit.o)
 .text.libgcc   0x0000000000000000        0x0 /usr/lib/gcc/avr/4.5.3/avr5/libgcc.a(_exit.o)
 .text          0x0000000000000000        0x0 /usr/lib/gcc/avr/4.5.3/avr5/libgcc.a(_tablejump.o)
 .data          0x0000000000000000        0x0 /usr/lib/gcc/avr/4.5.3/avr5/libgcc.a(_tablejump.o)
 .bss           0x0000000000000000        0x0 /usr/lib/gcc/avr/4.5.3/avr5/libgcc.a(_tablejump.o)
 .text          0x0000000000000000        0x0 /usr/lib/gcc/avr/4.5.3/avr5/libgcc.a(_copy_data.o)
 .data          0x0000000000000000        0x0 /usr/lib/gcc/avr/4.5.3/avr5/libgcc.a(_copy_data.o)
 .bss           0x0000000000000000        0x0 /usr/lib/gcc/avr/4.5.3/avr5/libgcc.a(_copy_data.o)
 .text.libgcc   0x0000000000000000        0x0 /usr/lib/gcc/avr/4.5.3/avr5/libgcc.a(_copy_data.o)
 .text          0x0000000000000000        0x0 /usr/lib/gcc/avr/4.5.3/avr5/libgcc.a(_clear_bss.o)
 .data          0x0000000000000000        0x0 /usr/lib/gcc/avr/4.5.3/avr5/libgcc.a(_clear_bss.o)
 .bss           0x0000000000000000        0x0 /usr/lib/gcc/avr/4.5.3/avr5/libgcc.a(_clear_bss.o)
 .text.libgcc   0x0000000000000000        0x0 /usr/lib/gcc/avr/4.5.3/avr5/libgcc.a(_clear_bss.o)
 .text          0x0000000000000000        0x0 /usr/lib/gcc/avr/4.5.3/../../../avr/lib/avr5/libc.a(strlen_P.o)
 .data          0x0000000000000000        0x0 /usr/lib/gcc/avr/4.5.3/../../../avr/lib/avr5/libc.a(strlen_P.o)
 .bss           0x0000000000000000        0x0 /usr/lib/gcc/avr/4.5.3/../../../avr/lib/avr5/libc.a(strlen_P.o)
 .text          0x0000000000000000        0x0 /usr/lib/gcc/avr/4.5.3/../../../avr/lib/avr5/libc.a(memcpy.o)
 .data          0x0000000000000000        0x0 /usr/lib/gcc/avr/4.5.3/../../../avr/lib/avr5/libc.a(memcpy.o)
 .bss           0x0000000000000000        0x0 /usr/lib/gcc/avr/4.5.3/../../../avr/lib/avr5/libc.a(memcpy.o)
 .text          0x0000000000000000        0x0 /usr/lib/gcc/avr/4.5.3/../../../avr/lib/avr5/libc.a(memset.o)
 .data          0x0000000000000000        0x0 /usr/lib/gcc/avr/4.5.3/../../../avr/lib/avr5/libc.a(memset.o)
 .bss           0x0000000000000000        0x0 /usr/lib/gcc/avr/4.5.3/../../../avr/lib/avr5/libc.a(memset.o)
 .text          0x0000000000000000        0x0 /usr/lib/gcc/avr/4.5.3/../../../avr/lib/avr5/libc.a(strncpy.o)
 .data          0x0000000000000000        0x0 /usr/lib/gcc/avr/4.5.3/../../../avr/lib/avr5/libc.a(strncpy.o)
 .bss           0x0000000000000000        0x0 /usr/lib/gcc/avr/4.5.3/../../../avr/lib/avr5/libc.a(strncpy.o)
 .text          0x0000000000000000        0x0 /usr/lib/gcc/avr/4.5.3/../../../avr/lib/avr5/libc.a(vsnprintf.o)
 .data          0x0000000000000000        0x0 /usr/lib/gcc/avr/4.5.3/../../../avr/lib/avr5/libc.a(vsnprintf.o)
 .bss           0x0000000000000000        0x0 /usr/lib/gcc/avr/4.5.3/../../../avr/lib/avr5/libc.a(vsnprintf.o)
 .text          0x0000000000000000        0x0 /usr/lib/gcc/avr/4.5.3/../../../avr/lib/avr5/libc.a(vsnprintf_p.o)
 .data          0x0000000000000000        0x0 /usr/lib/gcc/avr/4.5.3/../../../avr/lib/avr5/libc.a(vsnprintf_p.o)
 .bss           0x0000000000000000        0x0 /usr/lib/gcc/avr/4.5.3/../../../avr/lib/avr5/libc.a(vsnprintf_p.o)
 .text          0x0000000000000000        0x0 /usr/lib/gcc/avr/4.5.3/../../../avr/lib/avr5/libc.a(vfprintf_std.o)
 .data          0x0000000000000000        0x0 /usr/lib/gcc/avr/4.5.3/../../../avr/lib/avr5/libc.a(vfprintf_std.o)
 .bss           0x0000000000000000        0x0 /usr/lib/gcc/avr/4.5.3/../../../avr/lib/avr5/libc.a(vfprintf_std.o)
 .text          0x0000000000000000        0x0 /usr/lib/gcc/avr/4.5.3/../../../avr/lib/avr5/libc.a(eerd_block_atmega328p.o)
 .data          0x0000000000000000        0x0 /usr/lib/gcc/avr/4.5.3/../../../avr/lib/avr5/libc.a(eerd_block_atmega328p.o)
 .bss           0x0000000000000000        0x0 /usr/lib/gcc/avr/4.5.3/../../../avr/lib/avr5/libc.a(eerd_block_atmega328p.o)
 .text          0x0000000000000000        0x0 /usr/lib/gcc/avr/4.5.3/../../../avr/lib/avr5/libc.a(eeupd_block_atmega328p.o)
 .data          0x0000000000000000        0x0 /usr/lib/gcc/avr/4.5.3/../../../avr/lib/avr5/libc.a(eeupd_block_atmega328p.o)
 .bss           0x0000000000000000        0x0 /usr/lib/gcc/avr/4.5.3/../../../avr/lib/avr5/libc.a(eeupd_block_atmega328p.o)
 .text          0x0000000000000000        0x0 /usr/lib/gcc/avr/4.5.3/../../../avr/lib/avr5/libc.a(eeupd_byte_atmega328p.o)
 .data          0x0000000000000000        0x0 /usr/lib/gcc/avr/4.5.3/../../../avr/lib/avr5/libc.a(eeupd_byte_atmega328p.o)
 .bss           0x0000000000000000        0x0 /usr/lib/gcc/avr/4.5.3/../../../avr/lib/avr5/libc.a(eeupd_byte_atmega328p.o)
 .text          0x0000000000000000        0x0 /usr/lib/gcc/avr/4.5.3/../../../avr/lib/avr5/libc.a(strnlen_P.o)
 .data          0x0000000000000000        0x0 /usr/lib/gcc/avr/4.5.3/../../../avr/lib/avr5/libc.a(strnlen_P.o)
 .bss           0x0000000000000000        0x0 /usr/lib/gcc/avr/4.5.3/../../../avr/lib/avr5/libc.a(strnlen_P.o)
 .text          0x0000000000000000        0x0 /usr/lib/gcc/avr/4.5.3/../../../avr/lib/avr5/libc.a(strnlen.o)
 .data          0x0000000000000000        0x0 /usr/lib/gcc/avr/4.5.3/../../../avr/lib/avr5/libc.a(strnlen.o)
 .bss           0x0000000000000000        0x0 /usr/lib/gcc/avr/4.5.3/../../../avr/lib/avr5/libc.a(strnlen.o)
 .text          0x0000000000000000        0x0 /usr/lib/gcc/avr/4.5.3/../../../avr/lib/avr5/libc.a(fputc.o)
 .data          0x0000000000000000        0x0 /usr/lib/gcc/avr/4.5.3/../../../avr/lib/avr5/libc.a(fputc.o)
 .bss           0x0000000000000000        0x0 /usr/lib/gcc/avr/4.5.3/../../../avr/lib/avr5/libc.a(fputc.o)
 .text          0x0000000000000000        0x0 /usr/lib/gcc/avr/4.5.3/../../../avr/lib/avr5/libc.a(ultoa_invert.o)
 .data          0x0000000000000000        0x0 /usr/lib/gcc/avr/4.5.3/../../../avr/lib/avr5/libc.a(ultoa_invert.o)
 .bss           0x0000000000000000        0x0 /usr/lib/gcc/avr/4.5.3/../../../avr/lib/avr5/libc.a(ultoa_invert.o)

Memory Configuration

Name             Origin             Length             Attributes
text             0x0000000000000000 0x0000000000020000 xr
data             0x0000000000800060 0x000000000000ffa0 rw !x
eeprom           0x0000000000810000 0x0000000000010000 rw !x
fuse             0x0000000000820000 0x0000000000000400 rw !x
lock             0x0000000000830000 0x0000000000000400 rw !x
signature        0x0000000000840000 0x0000000000000400 rw !x
*default*        0x0000000000000000 0xffffffffffffffff

Linker script and memory map

Address of section .data set to 0x800100
LOAD /usr/lib/gcc/avr/4.5.3/../../../avr/lib/avr5/crtm328p.o
LOAD ./main.o
LOAD ./xitoa.o
LOAD /home/phillip/AVR/EclipseWorkspace/freeRTOS710/Debug/libfreeRTOS710.a
LOAD /usr/lib/gcc/avr/4.5.3/../../../avr/lib/avr5/libm.a
LOAD /usr/lib/gcc/avr/4.5.3/avr5/libgcc.a
LOAD /usr/lib/gcc/avr/4.5.3/../../../avr/lib/avr5/libc.a
LOAD /usr/lib/gcc/avr/4.5.3/avr5/libgcc.a

.hash
 *(.hash)

.dynsym
 *(.dynsym)

.dynstr
 *(.dynstr)

.gnu.version
 *(.gnu.version)

.gnu.version_d
 *(.gnu.version_d)

.gnu.version_r
 *(.gnu.version_r)

.rel.init
 *(.rel.init)

.rela.init
 *(.rela.init)

.rel.text
 *(.rel.text)
 *(.rel.text.*)
 *(.rel.gnu.linkonce.t*)

.rela.text
 *(.rela.text)
 *(.rela.text.*)
 *(.rela.gnu.linkonce.t*)

.rel.fini
 *(.rel.fini)

.rela.fini
 *(.rela.fini)

.rel.rodata
 *(.rel.rodata)
 *(.rel.rodata.*)
 *(.rel.gnu.linkonce.r*)

.rela.rodata
 *(.rela.rodata)
 *(.rela.rodata.*)
 *(.rela.gnu.linkonce.r*)

.rel.data
 *(.rel.data)
 *(.rel.data.*)
 *(.rel.gnu.linkonce.d*)

.rela.data
 *(.rela.data)
 *(.rela.data.*)
 *(.rela.gnu.linkonce.d*)

.rel.ctors
 *(.rel.ctors)

.rela.ctors
 *(.rela.ctors)

.rel.dtors
 *(.rel.dtors)

.rela.dtors
 *(.rela.dtors)

.rel.got
 *(.rel.got)

.rela.got
 *(.rela.got)

.rel.bss
 *(.rel.bss)

.rela.bss
 *(.rela.bss)

.rel.plt
 *(.rel.plt)

.rela.plt
 *(.rela.plt)

.text           0x0000000000000000     0x4282
 *(.vectors)
 .vectors       0x0000000000000000       0x68 /usr/lib/gcc/avr/4.5.3/../../../avr/lib/avr5/crtm328p.o
                0x0000000000000000                __vectors
                0x0000000000000000                __vector_default
 *(.vectors)
 *(.progmem.gcc*)
 .progmem.gcc_sw_table
                0x0000000000000068      0x182 /home/phillip/AVR/EclipseWorkspace/freeRTOS710/Debug/libfreeRTOS710.a(i2cMultiMaster.o)
 *(.progmem*)
 .progmem.data  0x00000000000001ea      0x17f ./main.o
                0x000000000000036a                . = ALIGN (0x2)
 *fill*         0x0000000000000369        0x1 00
                0x000000000000036a                __trampolines_start = .
 *(.trampolines)
 .trampolines   0x000000000000036a        0x0 linker stubs
 *(.trampolines*)
                0x000000000000036a                __trampolines_end = .
 *(.jumptables)
 *(.jumptables*)
 *(.lowtext)
 *(.lowtext*)
                0x000000000000036a                __ctors_start = .
 *(.ctors)
                0x000000000000036a                __ctors_end = .
                0x000000000000036a                __dtors_start = .
 *(.dtors)
                0x000000000000036a                __dtors_end = .
 SORT(*)(.ctors)
 SORT(*)(.dtors)
 *(.init0)
 .init0         0x000000000000036a        0x0 /usr/lib/gcc/avr/4.5.3/../../../avr/lib/avr5/crtm328p.o
                0x000000000000036a                __init
 *(.init0)
 *(.init1)
 *(.init1)
 *(.init2)
 .init2         0x000000000000036a        0xc /usr/lib/gcc/avr/4.5.3/../../../avr/lib/avr5/crtm328p.o
 *(.init2)
 *(.init3)
 *(.init3)
 *(.init4)
 .init4         0x0000000000000376       0x16 /usr/lib/gcc/avr/4.5.3/avr5/libgcc.a(_copy_data.o)
                0x0000000000000376                __do_copy_data
 .init4         0x000000000000038c       0x10 /usr/lib/gcc/avr/4.5.3/avr5/libgcc.a(_clear_bss.o)
                0x000000000000038c                __do_clear_bss
 *(.init4)
 *(.init5)
 *(.init5)
 *(.init6)
 *(.init6)
 *(.init7)
 *(.init7)
 *(.init8)
 *(.init8)
 *(.init9)
 .init9         0x000000000000039c        0x8 /usr/lib/gcc/avr/4.5.3/../../../avr/lib/avr5/crtm328p.o
 *(.init9)
 *(.text)
 .text          0x00000000000003a4        0x4 /usr/lib/gcc/avr/4.5.3/../../../avr/lib/avr5/crtm328p.o
                0x00000000000003a4                __vector_22
                0x00000000000003a4                __vector_1
                0x00000000000003a4                __vector_12
                0x00000000000003a4                __bad_interrupt
                0x00000000000003a4                __vector_6
                0x00000000000003a4                __vector_3
                0x00000000000003a4                __vector_23
                0x00000000000003a4                __vector_25
                0x00000000000003a4                __vector_11
                0x00000000000003a4                __vector_13
                0x00000000000003a4                __vector_17
                0x00000000000003a4                __vector_7
                0x00000000000003a4                __vector_5
                0x00000000000003a4                __vector_4
                0x00000000000003a4                __vector_9
                0x00000000000003a4                __vector_2
                0x00000000000003a4                __vector_21
                0x00000000000003a4                __vector_15
                0x00000000000003a4                __vector_8
                0x00000000000003a4                __vector_10
                0x00000000000003a4                __vector_16
                0x00000000000003a4                __vector_20
 .text          0x00000000000003a8      0x9a6 ./main.o
                0x0000000000000c88                main
 .text          0x0000000000000d4e       0xb6 ./xitoa.o
                0x0000000000000d4e                xatoi
 .text          0x0000000000000e04       0xae /home/phillip/AVR/EclipseWorkspace/freeRTOS710/Debug/libfreeRTOS710.a(servoPWM.o)
                0x0000000000000e04                start_PWM_hardware
                0x0000000000000e42                stop_PWM_hardware
                0x0000000000000e58                set_PWM_hardware
 .text          0x0000000000000eb2      0x52a /home/phillip/AVR/EclipseWorkspace/freeRTOS710/Debug/libfreeRTOS710.a(lib_serial.o)
                0x0000000000000eb2                xSerialPrint
                0x0000000000000f24                xSerialPrintf_P
                0x0000000000000f5e                xSerialPrintf
                0x0000000000000f98                xSerialPrint_P
                0x0000000000000ffa                xSerialGetChar
                0x0000000000001014                xSerialPutChar
                0x000000000000105a                xSerialPortInitMinimal
                0x0000000000001134                vSerialClose
                0x0000000000001174                avrSerialPrint
                0x00000000000011bc                avrSerialPrintf_P
                0x00000000000011f6                avrSerialPrintf
                0x0000000000001230                avrSerialPrint_P
                0x0000000000001278                avrSerialWrite
                0x0000000000001292                avrSerialRead
                0x00000000000012b8                avrSerialCheckRxComplete
                0x00000000000012c0                avrSerialCheckTxReady
                0x00000000000012c8                __vector_18
                0x0000000000001358                __vector_19
 .text          0x00000000000013dc      0x236 /home/phillip/AVR/EclipseWorkspace/freeRTOS710/Debug/libfreeRTOS710.a(rtc.o)
                0x00000000000013dc                getDateTimeDS1307
                0x000000000000152e                setDateTimeDS1307
 .text          0x0000000000001612      0x392 /home/phillip/AVR/EclipseWorkspace/freeRTOS710/Debug/libfreeRTOS710.a(i2cMultiMaster.o)
                0x0000000000001612                I2C_Slave_Initialise
                0x000000000000165a                I2C_Master_Initialise
                0x00000000000016ac                I2C_Slave_Start_Transceiver
                0x00000000000016c6                I2C_Master_Start_Transceiver
                0x00000000000016e0                I2C_Slave_Start_Transceiver_With_Data
                0x000000000000171c                I2C_Master_Start_Transceiver_With_Data
                0x0000000000001764                I2C_Slave_Get_Data_From_Transceiver
                0x00000000000017a2                I2C_Master_Get_Data_From_Transceiver
                0x00000000000017da                I2C_Check_Free_After_Stop
                0x00000000000017ec                I2C_Get_State_Info
                0x00000000000017fa                __vector_24
 .text          0x00000000000019a4      0x2fc /home/phillip/AVR/EclipseWorkspace/freeRTOS710/Debug/libfreeRTOS710.a(hd44780.o)
                0x0000000000001a38                lcd_Init
                0x0000000000001b06                lcd_Close
                0x0000000000001b14                lcd_Locate
                0x0000000000001b40                lcd_Putc
                0x0000000000001ba8                lcd_Print
                0x0000000000001bf2                lcd_Printf_P
                0x0000000000001c2c                lcd_Printf
                0x0000000000001c66                lcd_Print_P
 .text          0x0000000000001ca0      0x22e /home/phillip/AVR/EclipseWorkspace/freeRTOS710/Debug/libfreeRTOS710.a(digitalAnalog.o)
                0x0000000000001ca0                setDigitalOutput
                0x0000000000001d3e                setDigitalInput
                0x0000000000001de0                isDigitalInputHigh
                0x0000000000001e48                setAnalogMode
                0x0000000000001e64                getAnalogMode
                0x0000000000001e70                analogIsConverting
                0x0000000000001e7e                startAnalogConversion
                0x0000000000001eb0                analogConversionResult
 .text          0x0000000000001ece      0x18a /home/phillip/AVR/EclipseWorkspace/freeRTOS710/Debug/libfreeRTOS710.a(heap_2.o)
                0x0000000000001ece                pvPortMalloc
                0x0000000000001ffa                vPortFree
                0x000000000000204c                xPortGetFreeHeapSize
                0x0000000000002056                vPortInitialiseBlocks
 .text          0x0000000000002058      0x7c4 /home/phillip/AVR/EclipseWorkspace/freeRTOS710/Debug/libfreeRTOS710.a(queue.o)
                0x00000000000021b2                xQueueGenericCreate
                0x0000000000002282                xQueueCreateCountingSemaphore
                0x000000000000229c                xQueueGenericSend
                0x00000000000023f8                xQueueGiveMutexRecursive
                0x000000000000244a                xQueueCreateMutex
                0x00000000000024b2                xQueueGenericSendFromISR
                0x000000000000250e                xQueueGenericReceive
                0x00000000000026d6                xQueueTakeMutexRecursive
                0x0000000000002740                xQueueReceiveFromISR
                0x00000000000027d2                uxQueueMessagesWaiting
                0x00000000000027e2                uxQueueMessagesWaitingFromISR
                0x00000000000027e8                vQueueDelete
                0x0000000000002802                xQueueIsQueueEmptyFromISR
                0x000000000000280e                xQueueIsQueueFullFromISR
 .text          0x000000000000281c      0xc58 /home/phillip/AVR/EclipseWorkspace/freeRTOS710/Debug/libfreeRTOS710.a(tasks.o)
                0x000000000000289c                xTaskGenericCreate
                0x0000000000002ab6                xTaskIsTaskSuspended
                0x0000000000002ae2                vTaskResume
                0x0000000000002b94                xTaskResumeFromISR
                0x0000000000002c58                vTaskStartScheduler
                0x0000000000002cbe                vTaskEndScheduler
                0x0000000000002cca                vTaskSuspendAll
                0x0000000000002cd6                xTaskGetTickCount
                0x0000000000002cec                xTaskGetTickCountFromISR
                0x0000000000002cf8                uxTaskGetNumberOfTasks
                0x0000000000002cfe                vTaskIncrementTick
                0x0000000000002e66                xTaskResumeAll
                0x0000000000002f72                vTaskDelay
                0x0000000000002fca                vTaskDelayUntil
                0x000000000000304a                vTaskSwitchContext
                0x00000000000030e4                vTaskSuspend
                0x000000000000318e                vTaskPlaceOnEventList
                0x00000000000031ea                xTaskRemoveFromEventList
                0x0000000000003278                vTaskSetTimeOutState
                0x000000000000328e                xTaskCheckForTimeOut
                0x000000000000331a                vTaskMissedYield
                0x0000000000003322                uxTaskGetStackHighWaterMark
                0x0000000000003352                xTaskGetCurrentTaskHandle
                0x000000000000335e                vTaskPriorityInherit
                0x000000000000340a                vTaskPriorityDisinherit
 .text          0x0000000000003474      0x274 /home/phillip/AVR/EclipseWorkspace/freeRTOS710/Debug/libfreeRTOS710.a(port.o)
                0x0000000000003474                pxPortInitialiseStack
                0x0000000000003508                xPortStartScheduler
                0x0000000000003578                vPortEndScheduler
                0x000000000000357a                vPortYield
                0x000000000000362c                vPortYieldFromTick
                0x00000000000036e2                __vector_14
 .text          0x00000000000036e8      0x144 /home/phillip/AVR/EclipseWorkspace/freeRTOS710/Debug/libfreeRTOS710.a(list.o)
                0x00000000000036e8                vListInitialise
                0x0000000000003704                vListInitialiseItem
                0x000000000000370c                vListInsertEnd
                0x0000000000003756                vListInsert
                0x00000000000037d4                vListRemove
                0x000000000000382c                . = ALIGN (0x2)
 *(.text.*)
 .text.avr-libc.fplib
                0x000000000000382c        0xa /usr/lib/gcc/avr/4.5.3/../../../avr/lib/avr5/libm.a(addsf3.o)
                0x000000000000382c                __subsf3
                0x000000000000382e                __addsf3
 .text.avr-libc.fplib
                0x0000000000003836       0xc0 /usr/lib/gcc/avr/4.5.3/../../../avr/lib/avr5/libm.a(addsf3x.o)
                0x0000000000003850                __addsf3x
 .text.avr-libc.fplib
                0x00000000000038f6        0xa /usr/lib/gcc/avr/4.5.3/../../../avr/lib/avr5/libm.a(fixsfsi.o)
                0x00000000000038f6                __fixsfsi
 .text.avr-libc.fplib
                0x0000000000003900       0x58 /usr/lib/gcc/avr/4.5.3/../../../avr/lib/avr5/libm.a(fixunssfsi.o)
                0x0000000000003900                __fixunssfsi
 .text.avr-libc.fplib
                0x0000000000003958       0x7a /usr/lib/gcc/avr/4.5.3/../../../avr/lib/avr5/libm.a(floatsisf.o)
                0x0000000000003958                __floatunsisf
                0x000000000000395c                __floatsisf
 .text.avr-libc.fplib
                0x00000000000039d2        0xc /usr/lib/gcc/avr/4.5.3/../../../avr/lib/avr5/libm.a(fp_inf.o)
                0x00000000000039d2                __fp_inf
 .text.avr-libc.fplib
                0x00000000000039de        0x6 /usr/lib/gcc/avr/4.5.3/../../../avr/lib/avr5/libm.a(fp_nan.o)
                0x00000000000039de                __fp_nan
 .text.avr-libc.fplib
                0x00000000000039e4        0xe /usr/lib/gcc/avr/4.5.3/../../../avr/lib/avr5/libm.a(fp_pscA.o)
                0x00000000000039e4                __fp_pscA
 .text.avr-libc.fplib
                0x00000000000039f2        0xe /usr/lib/gcc/avr/4.5.3/../../../avr/lib/avr5/libm.a(fp_pscB.o)
                0x00000000000039f2                __fp_pscB
 .text.avr-libc.fplib
                0x0000000000003a00       0x22 /usr/lib/gcc/avr/4.5.3/../../../avr/lib/avr5/libm.a(fp_round.o)
                0x0000000000003a00                __fp_round
 .text.avr-libc.fplib
                0x0000000000003a22       0x44 /usr/lib/gcc/avr/4.5.3/../../../avr/lib/avr5/libm.a(fp_split3.o)
                0x0000000000003a22                __fp_split3
                0x0000000000003a32                __fp_splitA
 .text.avr-libc.fplib
                0x0000000000003a66        0xe /usr/lib/gcc/avr/4.5.3/../../../avr/lib/avr5/libm.a(fp_zero.o)
                0x0000000000003a66                __fp_zero
                0x0000000000003a68                __fp_szero
 .text.avr-libc.fplib
                0x0000000000003a74        0x4 /usr/lib/gcc/avr/4.5.3/../../../avr/lib/avr5/libm.a(mulsf3.o)
                0x0000000000003a74                __mulsf3
 .text.avr-libc.fplib
                0x0000000000003a78       0xc2 /usr/lib/gcc/avr/4.5.3/../../../avr/lib/avr5/libm.a(mulsf3x.o)
                0x0000000000003a8c                __mulsf3x
                0x0000000000003a90                __mulsf3_pse
 .text.libgcc   0x0000000000003b3a       0x18 /usr/lib/gcc/avr/4.5.3/avr5/libgcc.a(_udivmodqi4.o)
                0x0000000000003b3a                __udivmodqi4
 .text.libgcc   0x0000000000003b52       0x44 /usr/lib/gcc/avr/4.5.3/avr5/libgcc.a(_udivmodsi4.o)
                0x0000000000003b52                __udivmodsi4
 .text.libgcc   0x0000000000003b96       0x38 /usr/lib/gcc/avr/4.5.3/avr5/libgcc.a(_prologue.o)
                0x0000000000003b96                __prologue_saves__
 .text.libgcc   0x0000000000003bce       0x36 /usr/lib/gcc/avr/4.5.3/avr5/libgcc.a(_epilogue.o)
                0x0000000000003bce                __epilogue_restores__
 .text.libgcc   0x0000000000003c04        0xc /usr/lib/gcc/avr/4.5.3/avr5/libgcc.a(_tablejump.o)
                0x0000000000003c04                __tablejump2__
                0x0000000000003c08                __tablejump__
 .text.avr-libc
                0x0000000000003c10       0x12 /usr/lib/gcc/avr/4.5.3/../../../avr/lib/avr5/libc.a(strlen_P.o)
                0x0000000000003c10                strlen_P
 .text.avr-libc
                0x0000000000003c22       0x12 /usr/lib/gcc/avr/4.5.3/../../../avr/lib/avr5/libc.a(memcpy.o)
                0x0000000000003c22                memcpy
 .text.avr-libc
                0x0000000000003c34        0xe /usr/lib/gcc/avr/4.5.3/../../../avr/lib/avr5/libc.a(memset.o)
                0x0000000000003c34                memset
 .text.avr-libc
                0x0000000000003c42       0x1e /usr/lib/gcc/avr/4.5.3/../../../avr/lib/avr5/libc.a(strncpy.o)
                0x0000000000003c42                strncpy
 .text.avr-libc
                0x0000000000003c60       0x56 /usr/lib/gcc/avr/4.5.3/../../../avr/lib/avr5/libc.a(vsnprintf.o)
                0x0000000000003c60                vsnprintf
 .text.avr-libc
                0x0000000000003cb6       0x56 /usr/lib/gcc/avr/4.5.3/../../../avr/lib/avr5/libc.a(vsnprintf_p.o)
                0x0000000000003cb6                vsnprintf_P
 .text.avr-libc
                0x0000000000003d0c      0x3ce /usr/lib/gcc/avr/4.5.3/../../../avr/lib/avr5/libc.a(vfprintf_std.o)
                0x0000000000003d0c                vfprintf
 .text.avr-libc
                0x00000000000040da       0x20 /usr/lib/gcc/avr/4.5.3/../../../avr/lib/avr5/libc.a(eerd_block_atmega328p.o)
                0x00000000000040da                __eerd_block_m328p
                0x00000000000040de                __eerd_blraw_m328p
 .text.avr-libc
                0x00000000000040fa       0x20 /usr/lib/gcc/avr/4.5.3/../../../avr/lib/avr5/libc.a(eeupd_block_atmega328p.o)
                0x00000000000040fa                __eeupd_block_m328p
 .text.avr-libc
                0x000000000000411a       0x24 /usr/lib/gcc/avr/4.5.3/../../../avr/lib/avr5/libc.a(eeupd_byte_atmega328p.o)
                0x000000000000411a                __eeupd_byte_m328p
                0x000000000000411c                __eeupd_r18_m328p
 .text.avr-libc
                0x000000000000413e       0x16 /usr/lib/gcc/avr/4.5.3/../../../avr/lib/avr5/libc.a(strnlen_P.o)
                0x000000000000413e                strnlen_P
 .text.avr-libc
                0x0000000000004154       0x16 /usr/lib/gcc/avr/4.5.3/../../../avr/lib/avr5/libc.a(strnlen.o)
                0x0000000000004154                strnlen
 .text.avr-libc
                0x000000000000416a       0x58 /usr/lib/gcc/avr/4.5.3/../../../avr/lib/avr5/libc.a(fputc.o)
                0x000000000000416a                fputc
 .text.avr-libc
                0x00000000000041c2       0xbc /usr/lib/gcc/avr/4.5.3/../../../avr/lib/avr5/libc.a(ultoa_invert.o)
                0x00000000000041c2                __ultoa_invert
                0x000000000000427e                . = ALIGN (0x2)
 *(.fini9)
 .fini9         0x000000000000427e        0x0 /usr/lib/gcc/avr/4.5.3/avr5/libgcc.a(_exit.o)
                0x000000000000427e                exit
                0x000000000000427e                _exit
 *(.fini9)
 *(.fini8)
 *(.fini8)
 *(.fini7)
 *(.fini7)
 *(.fini6)
 *(.fini6)
 *(.fini5)
 *(.fini5)
 *(.fini4)
 *(.fini4)
 *(.fini3)
 *(.fini3)
 *(.fini2)
 *(.fini2)
 *(.fini1)
 *(.fini1)
 *(.fini0)
 .fini0         0x000000000000427e        0x4 /usr/lib/gcc/avr/4.5.3/avr5/libgcc.a(_exit.o)
 *(.fini0)
                0x0000000000004282                _etext = .

.data           0x0000000000800100       0x34 load address 0x0000000000004282
                0x0000000000800100                PROVIDE (__data_start, .)
 *(.data)
 .data          0x0000000000800100       0x29 ./main.o
 .data          0x0000000000800129        0x1 /home/phillip/AVR/EclipseWorkspace/freeRTOS710/Debug/libfreeRTOS710.a(i2cMultiMaster.o)
 .data          0x000000000080012a        0x2 /home/phillip/AVR/EclipseWorkspace/freeRTOS710/Debug/libfreeRTOS710.a(heap_2.o)
 .data          0x000000000080012c        0x7 /home/phillip/AVR/EclipseWorkspace/freeRTOS710/Debug/libfreeRTOS710.a(tasks.o)
 *(.data*)
 *(.rodata)
 *(.rodata*)
 *(.gnu.linkonce.d*)
                0x0000000000800134                . = ALIGN (0x2)
 *fill*         0x0000000000800133        0x1 00
                0x0000000000800134                _edata = .
                0x0000000000800134                PROVIDE (__data_end, .)

.bss            0x0000000000800134      0x682
                0x0000000000800134                PROVIDE (__bss_start, .)
 *(.bss)
 .bss           0x0000000000800134        0x6 /home/phillip/AVR/EclipseWorkspace/freeRTOS710/Debug/libfreeRTOS710.a(lib_serial.o)
 .bss           0x000000000080013a       0x24 /home/phillip/AVR/EclipseWorkspace/freeRTOS710/Debug/libfreeRTOS710.a(i2cMultiMaster.o)
                0x000000000080013a                I2C_statusReg
 .bss           0x000000000080015e        0x4 /home/phillip/AVR/EclipseWorkspace/freeRTOS710/Debug/libfreeRTOS710.a(hd44780.o)
 .bss           0x0000000000800162      0x5d1 /home/phillip/AVR/EclipseWorkspace/freeRTOS710/Debug/libfreeRTOS710.a(heap_2.o)
 .bss           0x0000000000800733       0x59 /home/phillip/AVR/EclipseWorkspace/freeRTOS710/Debug/libfreeRTOS710.a(tasks.o)
                0x0000000000800733                pxCurrentTCB
 *(.bss*)
 *(COMMON)
 COMMON         0x000000000080078c       0x28 ./main.o
                0x000000000080078c                LineBuffer
                0x000000000080078e                xSerialPort
                0x0000000000800790                xCurrentTempTime
                0x000000000080079a                xTaskWriteRTCRetrograde
                0x000000000080079c                SetTimeDate
                0x000000000080079e                xADCSemaphore
                0x00000000008007a0                xMinimumTempTime
                0x00000000008007aa                xMaximumTempTime
 COMMON         0x00000000008007b4        0x2 /home/phillip/AVR/EclipseWorkspace/freeRTOS710/Debug/libfreeRTOS710.a(i2cMultiMaster.o)
                0x00000000008007b4                xI2CSemaphore
                0x00000000008007b6                PROVIDE (__bss_end, .)
                0x0000000000004282                __data_load_start = LOADADDR (.data)
                0x00000000000042b6                __data_load_end = (__data_load_start + SIZEOF (.data))

.noinit         0x00000000008007b6        0x0
                0x00000000008007b6                PROVIDE (__noinit_start, .)
 *(.noinit*)
                0x00000000008007b6                PROVIDE (__noinit_end, .)
                0x00000000008007b6                _end = .
                0x00000000008007b6                PROVIDE (__heap_start, .)

.eeprom         0x0000000000810000       0x14
 *(.eeprom*)
 .eeprom        0x0000000000810000       0x14 ./main.o
                0x0000000000810000                xMaximumEverTempTime
                0x000000000081000a                xMinimumEverTempTime
                0x0000000000810014                __eeprom_end = .

.fuse
 *(.fuse)
 *(.lfuse)
 *(.hfuse)
 *(.efuse)

.lock
 *(.lock*)

.signature
 *(.signature*)

.stab           0x0000000000000000     0xa638
 *(.stab)
 .stab          0x0000000000000000      0x6cc /usr/lib/gcc/avr/4.5.3/../../../avr/lib/avr5/crtm328p.o
 .stab          0x00000000000006cc      0x5c4 /home/phillip/AVR/EclipseWorkspace/freeRTOS710/Debug/libfreeRTOS710.a(servoPWM.o)
                                        0x5d0 (size before relaxing)
 .stab          0x0000000000000c90      0xe70 /home/phillip/AVR/EclipseWorkspace/freeRTOS710/Debug/libfreeRTOS710.a(lib_serial.o)
                                       0x1080 (size before relaxing)
 .stab          0x0000000000001b00      0x6b4 /home/phillip/AVR/EclipseWorkspace/freeRTOS710/Debug/libfreeRTOS710.a(rtc.o)
                                        0x984 (size before relaxing)
 .stab          0x00000000000021b4      0x960 /home/phillip/AVR/EclipseWorkspace/freeRTOS710/Debug/libfreeRTOS710.a(i2cMultiMaster.o)
                                        0xcf0 (size before relaxing)
 .stab          0x0000000000002b14      0x924 /home/phillip/AVR/EclipseWorkspace/freeRTOS710/Debug/libfreeRTOS710.a(hd44780.o)
                                        0xc3c (size before relaxing)
 .stab          0x0000000000003438      0x6cc /home/phillip/AVR/EclipseWorkspace/freeRTOS710/Debug/libfreeRTOS710.a(digitalAnalog.o)
                                        0x894 (size before relaxing)
 .stab          0x0000000000003b04      0x4ec /home/phillip/AVR/EclipseWorkspace/freeRTOS710/Debug/libfreeRTOS710.a(heap_2.o)
                                        0x834 (size before relaxing)
 .stab          0x0000000000003ff0     0x11ac /home/phillip/AVR/EclipseWorkspace/freeRTOS710/Debug/libfreeRTOS710.a(queue.o)
                                       0x14f4 (size before relaxing)
 .stab          0x000000000000519c     0x17f4 /home/phillip/AVR/EclipseWorkspace/freeRTOS710/Debug/libfreeRTOS710.a(tasks.o)
                                       0x1b60 (size before relaxing)
 .stab          0x0000000000006990      0x540 /home/phillip/AVR/EclipseWorkspace/freeRTOS710/Debug/libfreeRTOS710.a(port.o)
                                        0x888 (size before relaxing)
 .stab          0x0000000000006ed0      0x4b0 /home/phillip/AVR/EclipseWorkspace/freeRTOS710/Debug/libfreeRTOS710.a(list.o)
                                        0x798 (size before relaxing)
 .stab          0x0000000000007380       0x78 /usr/lib/gcc/avr/4.5.3/../../../avr/lib/avr5/libm.a(addsf3.o)
                                         0x84 (size before relaxing)
 .stab          0x00000000000073f8      0x4bc /usr/lib/gcc/avr/4.5.3/../../../avr/lib/avr5/libm.a(addsf3x.o)
                                        0x4c8 (size before relaxing)
 .stab          0x00000000000078b4       0x6c /usr/lib/gcc/avr/4.5.3/../../../avr/lib/avr5/libm.a(fixsfsi.o)
                                         0x78 (size before relaxing)
 .stab          0x0000000000007920      0x240 /usr/lib/gcc/avr/4.5.3/../../../avr/lib/avr5/libm.a(fixunssfsi.o)
                                        0x24c (size before relaxing)
 .stab          0x0000000000007b60      0x318 /usr/lib/gcc/avr/4.5.3/../../../avr/lib/avr5/libm.a(floatsisf.o)
                                        0x324 (size before relaxing)
 .stab          0x0000000000007e78       0x78 /usr/lib/gcc/avr/4.5.3/../../../avr/lib/avr5/libm.a(fp_inf.o)
                                         0x84 (size before relaxing)
 .stab          0x0000000000007ef0       0x54 /usr/lib/gcc/avr/4.5.3/../../../avr/lib/avr5/libm.a(fp_nan.o)
                                         0x60 (size before relaxing)
 .stab          0x0000000000007f44       0x84 /usr/lib/gcc/avr/4.5.3/../../../avr/lib/avr5/libm.a(fp_pscA.o)
                                         0x90 (size before relaxing)
 .stab          0x0000000000007fc8       0x84 /usr/lib/gcc/avr/4.5.3/../../../avr/lib/avr5/libm.a(fp_pscB.o)
                                         0x90 (size before relaxing)
 .stab          0x000000000000804c       0xfc /usr/lib/gcc/avr/4.5.3/../../../avr/lib/avr5/libm.a(fp_round.o)
                                        0x108 (size before relaxing)
 .stab          0x0000000000008148      0x1d4 /usr/lib/gcc/avr/4.5.3/../../../avr/lib/avr5/libm.a(fp_split3.o)
                                        0x1e0 (size before relaxing)
 .stab          0x000000000000831c       0x90 /usr/lib/gcc/avr/4.5.3/../../../avr/lib/avr5/libm.a(fp_zero.o)
                                         0x9c (size before relaxing)
 .stab          0x00000000000083ac       0x48 /usr/lib/gcc/avr/4.5.3/../../../avr/lib/avr5/libm.a(mulsf3.o)
                                         0x54 (size before relaxing)
 .stab          0x00000000000083f4      0x4d4 /usr/lib/gcc/avr/4.5.3/../../../avr/lib/avr5/libm.a(mulsf3x.o)
                                        0x4e0 (size before relaxing)
 .stab          0x00000000000088c8       0x84 /usr/lib/gcc/avr/4.5.3/../../../avr/lib/avr5/libc.a(strlen_P.o)
                                         0x90 (size before relaxing)
 .stab          0x000000000000894c       0x84 /usr/lib/gcc/avr/4.5.3/../../../avr/lib/avr5/libc.a(memcpy.o)
                                         0x90 (size before relaxing)
 .stab          0x00000000000089d0       0x6c /usr/lib/gcc/avr/4.5.3/../../../avr/lib/avr5/libc.a(memset.o)
                                         0x78 (size before relaxing)
 .stab          0x0000000000008a3c       0xcc /usr/lib/gcc/avr/4.5.3/../../../avr/lib/avr5/libc.a(strncpy.o)
                                         0xd8 (size before relaxing)
 .stab          0x0000000000008b08      0x3b4 /usr/lib/gcc/avr/4.5.3/../../../avr/lib/avr5/libc.a(vsnprintf.o)
                                        0x3fc (size before relaxing)
 .stab          0x0000000000008ebc      0x21c /usr/lib/gcc/avr/4.5.3/../../../avr/lib/avr5/libc.a(vsnprintf_p.o)
                                        0x3fc (size before relaxing)
 .stab          0x00000000000090d8      0xac8 /usr/lib/gcc/avr/4.5.3/../../../avr/lib/avr5/libc.a(vfprintf_std.o)
                                        0xcd8 (size before relaxing)
 .stab          0x0000000000009ba0      0x108 /usr/lib/gcc/avr/4.5.3/../../../avr/lib/avr5/libc.a(eerd_block_atmega328p.o)
                                        0x114 (size before relaxing)
 .stab          0x0000000000009ca8       0xe4 /usr/lib/gcc/avr/4.5.3/../../../avr/lib/avr5/libc.a(eeupd_block_atmega328p.o)
                                         0xf0 (size before relaxing)
 .stab          0x0000000000009d8c      0x114 /usr/lib/gcc/avr/4.5.3/../../../avr/lib/avr5/libc.a(eeupd_byte_atmega328p.o)
                                        0x120 (size before relaxing)
 .stab          0x0000000000009ea0       0x9c /usr/lib/gcc/avr/4.5.3/../../../avr/lib/avr5/libc.a(strnlen_P.o)
                                         0xa8 (size before relaxing)
 .stab          0x0000000000009f3c       0x9c /usr/lib/gcc/avr/4.5.3/../../../avr/lib/avr5/libc.a(strnlen.o)
                                         0xa8 (size before relaxing)
 .stab          0x0000000000009fd8      0x1e0 /usr/lib/gcc/avr/4.5.3/../../../avr/lib/avr5/libc.a(fputc.o)
                                        0x3c0 (size before relaxing)
 .stab          0x000000000000a1b8      0x480 /usr/lib/gcc/avr/4.5.3/../../../avr/lib/avr5/libc.a(ultoa_invert.o)
                                        0x48c (size before relaxing)

.stabstr        0x0000000000000000     0x49c4
 *(.stabstr)
 .stabstr       0x0000000000000000     0x49c4 /usr/lib/gcc/avr/4.5.3/../../../avr/lib/avr5/crtm328p.o

.stab.excl
 *(.stab.excl)

.stab.exclstr
 *(.stab.exclstr)

.stab.index
 *(.stab.index)

.stab.indexstr
 *(.stab.indexstr)

.comment
 *(.comment)

.debug
 *(.debug)

.line
 *(.line)

.debug_srcinfo
 *(.debug_srcinfo)

.debug_sfnames
 *(.debug_sfnames)

.debug_aranges
 *(.debug_aranges)

.debug_pubnames
 *(.debug_pubnames)

.debug_info
 *(.debug_info)
 *(.gnu.linkonce.wi.*)

.debug_abbrev
 *(.debug_abbrev)

.debug_line
 *(.debug_line)

.debug_frame
 *(.debug_frame)

.debug_str
 *(.debug_str)

.debug_loc
 *(.debug_loc)

.debug_macinfo
 *(.debug_macinfo)
OUTPUT(retrograde_v2.elf elf32-avr)
LOAD linker stubs
