ARM GAS  /var/folders/5n/p_75w94d66l9ssrldxqdhh700000gn/T//cc2x1xCc.s 			page 1


   1              		.syntax unified
   2              		.cpu cortex-m4
   3              		.fpu softvfp
   4              		.eabi_attribute 20, 1
   5              		.eabi_attribute 21, 1
   6              		.eabi_attribute 23, 3
   7              		.eabi_attribute 24, 1
   8              		.eabi_attribute 25, 1
   9              		.eabi_attribute 26, 1
  10              		.eabi_attribute 30, 2
  11              		.eabi_attribute 34, 1
  12              		.eabi_attribute 18, 4
  13              		.thumb
  14              		.file	"chregistry.c"
  15              		.text
  16              	.Ltext0:
  17              		.cfi_sections	.debug_frame
  18              		.section	.text.chRegFirstThread,"ax",%progbits
  19              		.align	2
  20              		.p2align 4,,15
  21              		.global	chRegFirstThread
  22              		.thumb
  23              		.thumb_func
  24              		.type	chRegFirstThread, %function
  25              	chRegFirstThread:
  26              	.LFB7:
  27              		.file 1 "../../os/kernel/src/chregistry.c"
  28              		.loc 1 72 0
  29              		.cfi_startproc
  30              		@ args = 0, pretend = 0, frame = 0
  31              		@ frame_needed = 0, uses_anonymous_args = 0
  32              		@ link register save eliminated.
  33              	.LBB2:
  34              		.loc 1 75 0
  35 0000 2023     		movs	r3, #32
  36              	.LVL0:
  37              	@ 75 "../../os/kernel/src/chregistry.c" 1
  38 0002 83F31188 		msr     BASEPRI, r3
  39              	@ 0 "" 2
  40              	.LVL1:
  41              		.thumb
  42              	.LBE2:
  43              		.loc 1 76 0
  44 0006 40F20002 		movw	r2, #:lower16:rlist
  45 000a C0F20002 		movt	r2, #:upper16:rlist
  46              	.LBB3:
  47              		.loc 1 80 0
  48 000e 0023     		movs	r3, #0
  49              	.LVL2:
  50              	.LBE3:
  51              		.loc 1 76 0
  52 0010 1069     		ldr	r0, [r2, #16]
  53              	.LVL3:
  54              		.loc 1 78 0
  55 0012 827F     		ldrb	r2, [r0, #30]	@ zero_extendqisi2
  56 0014 0132     		adds	r2, r2, #1
  57 0016 8277     		strb	r2, [r0, #30]
ARM GAS  /var/folders/5n/p_75w94d66l9ssrldxqdhh700000gn/T//cc2x1xCc.s 			page 2


  58              	.LBB4:
  59              		.loc 1 80 0
  60              	@ 80 "../../os/kernel/src/chregistry.c" 1
  61 0018 83F31188 		msr     BASEPRI, r3
  62              	@ 0 "" 2
  63              	.LVL4:
  64              		.thumb
  65              	.LBE4:
  66              		.loc 1 82 0
  67 001c 7047     		bx	lr
  68              		.cfi_endproc
  69              	.LFE7:
  70              		.size	chRegFirstThread, .-chRegFirstThread
  71 001e 00BF     		.section	.text.chRegNextThread,"ax",%progbits
  72              		.align	2
  73              		.p2align 4,,15
  74              		.global	chRegNextThread
  75              		.thumb
  76              		.thumb_func
  77              		.type	chRegNextThread, %function
  78              	chRegNextThread:
  79              	.LFB8:
  80              		.loc 1 95 0
  81              		.cfi_startproc
  82              		@ args = 0, pretend = 0, frame = 0
  83              		@ frame_needed = 0, uses_anonymous_args = 0
  84              	.LVL5:
  85 0000 10B5     		push	{r4, lr}
  86              	.LCFI0:
  87              		.cfi_def_cfa_offset 8
  88              		.cfi_offset 4, -8
  89              		.cfi_offset 14, -4
  90              	.LBB5:
  91              		.loc 1 98 0
  92 0002 2023     		movs	r3, #32
  93              	.LVL6:
  94              	@ 98 "../../os/kernel/src/chregistry.c" 1
  95 0004 83F31188 		msr     BASEPRI, r3
  96              	@ 0 "" 2
  97              	.LVL7:
  98              		.thumb
  99              	.LBE5:
 100              		.loc 1 100 0
 101 0008 074B     		ldr	r3, .L6
 102              	.LVL8:
 103              		.loc 1 99 0
 104 000a 0469     		ldr	r4, [r0, #16]
 105              	.LVL9:
 106              		.loc 1 100 0
 107 000c 9C42     		cmp	r4, r3
 108 000e 09D0     		beq	.L4
 109              		.loc 1 106 0
 110 0010 A37F     		ldrb	r3, [r4, #30]	@ zero_extendqisi2
 111 0012 0133     		adds	r3, r3, #1
 112 0014 A377     		strb	r3, [r4, #30]
 113              	.LVL10:
 114              	.L3:
ARM GAS  /var/folders/5n/p_75w94d66l9ssrldxqdhh700000gn/T//cc2x1xCc.s 			page 3


 115              	.LBB6:
 116              		.loc 1 109 0
 117 0016 0023     		movs	r3, #0
 118              	.LVL11:
 119              	@ 109 "../../os/kernel/src/chregistry.c" 1
 120 0018 83F31188 		msr     BASEPRI, r3
 121              	@ 0 "" 2
 122              	.LVL12:
 123              		.thumb
 124              	.LBE6:
 125              		.loc 1 111 0
 126 001c FFF7FEFF 		bl	chThdRelease
 127              	.LVL13:
 128              		.loc 1 114 0
 129 0020 2046     		mov	r0, r4
 130 0022 10BD     		pop	{r4, pc}
 131              	.LVL14:
 132              	.L4:
 133              		.loc 1 101 0
 134 0024 0024     		movs	r4, #0
 135              	.LVL15:
 136 0026 F6E7     		b	.L3
 137              	.L7:
 138              		.align	2
 139              	.L6:
 140 0028 00000000 		.word	rlist
 141              		.cfi_endproc
 142              	.LFE8:
 143              		.size	chRegNextThread, .-chRegNextThread
 144 002c AFF30080 		.text
 145              	.Letext0:
 146              		.file 2 "/usr/local/cross/lib/gcc/arm-none-eabi/4.7.2/../../../../arm-none-eabi/include/stdint.h"
 147              		.file 3 "../../os/ports/GCC/ARMCMx/chtypes.h"
 148              		.file 4 "../../os/kernel/include/chlists.h"
 149              		.file 5 "../../os/kernel/include/chthreads.h"
 150              		.file 6 "../../os/ports/GCC/ARMCMx/chcore_v7m.h"
 151              		.file 7 "../../os/kernel/include/chschd.h"
 152              		.file 8 "../../os/kernel/include/chmtx.h"
 153              		.file 9 "../../os/kernel/include/chdynamic.h"
 154              		.section	.debug_info,"",%progbits
 155              	.Ldebug_info0:
 156 0000 2B050000 		.4byte	0x52b
 157 0004 0200     		.2byte	0x2
 158 0006 00000000 		.4byte	.Ldebug_abbrev0
 159 000a 04       		.byte	0x4
 160 000b 01       		.uleb128 0x1
 161 000c 7B010000 		.4byte	.LASF64
 162 0010 01       		.byte	0x1
 163 0011 79020000 		.4byte	.LASF65
 164 0015 BF000000 		.4byte	.LASF66
 165 0019 18000000 		.4byte	.Ldebug_ranges0+0x18
 166 001d 00000000 		.4byte	0
 167 0021 00000000 		.4byte	0
 168 0025 00000000 		.4byte	.Ldebug_line0
 169 0029 02       		.uleb128 0x2
 170 002a 04       		.byte	0x4
 171 002b 05       		.byte	0x5
ARM GAS  /var/folders/5n/p_75w94d66l9ssrldxqdhh700000gn/T//cc2x1xCc.s 			page 4


 172 002c 696E7400 		.ascii	"int\000"
 173 0030 03       		.uleb128 0x3
 174 0031 04       		.byte	0x4
 175 0032 07       		.byte	0x7
 176 0033 B2000000 		.4byte	.LASF0
 177 0037 03       		.uleb128 0x3
 178 0038 01       		.byte	0x1
 179 0039 06       		.byte	0x6
 180 003a 53000000 		.4byte	.LASF1
 181 003e 04       		.uleb128 0x4
 182 003f B1020000 		.4byte	.LASF5
 183 0043 02       		.byte	0x2
 184 0044 2A       		.byte	0x2a
 185 0045 49000000 		.4byte	0x49
 186 0049 03       		.uleb128 0x3
 187 004a 01       		.byte	0x1
 188 004b 08       		.byte	0x8
 189 004c B8010000 		.4byte	.LASF2
 190 0050 03       		.uleb128 0x3
 191 0051 02       		.byte	0x2
 192 0052 05       		.byte	0x5
 193 0053 D0010000 		.4byte	.LASF3
 194 0057 03       		.uleb128 0x3
 195 0058 02       		.byte	0x2
 196 0059 07       		.byte	0x7
 197 005a 18010000 		.4byte	.LASF4
 198 005e 04       		.uleb128 0x4
 199 005f B0010000 		.4byte	.LASF6
 200 0063 02       		.byte	0x2
 201 0064 4F       		.byte	0x4f
 202 0065 69000000 		.4byte	0x69
 203 0069 03       		.uleb128 0x3
 204 006a 04       		.byte	0x4
 205 006b 05       		.byte	0x5
 206 006c 81000000 		.4byte	.LASF7
 207 0070 04       		.uleb128 0x4
 208 0071 1E020000 		.4byte	.LASF8
 209 0075 02       		.byte	0x2
 210 0076 50       		.byte	0x50
 211 0077 7B000000 		.4byte	0x7b
 212 007b 03       		.uleb128 0x3
 213 007c 04       		.byte	0x4
 214 007d 07       		.byte	0x7
 215 007e 5F000000 		.4byte	.LASF9
 216 0082 03       		.uleb128 0x3
 217 0083 08       		.byte	0x8
 218 0084 05       		.byte	0x5
 219 0085 45000000 		.4byte	.LASF10
 220 0089 03       		.uleb128 0x3
 221 008a 08       		.byte	0x8
 222 008b 07       		.byte	0x7
 223 008c 0D000000 		.4byte	.LASF11
 224 0090 04       		.uleb128 0x4
 225 0091 31010000 		.4byte	.LASF12
 226 0095 03       		.byte	0x3
 227 0096 2F       		.byte	0x2f
 228 0097 3E000000 		.4byte	0x3e
ARM GAS  /var/folders/5n/p_75w94d66l9ssrldxqdhh700000gn/T//cc2x1xCc.s 			page 5


 229 009b 04       		.uleb128 0x4
 230 009c 8A000000 		.4byte	.LASF13
 231 00a0 03       		.byte	0x3
 232 00a1 30       		.byte	0x30
 233 00a2 3E000000 		.4byte	0x3e
 234 00a6 04       		.uleb128 0x4
 235 00a7 99010000 		.4byte	.LASF14
 236 00ab 03       		.byte	0x3
 237 00ac 31       		.byte	0x31
 238 00ad 3E000000 		.4byte	0x3e
 239 00b1 04       		.uleb128 0x4
 240 00b2 A8010000 		.4byte	.LASF15
 241 00b6 03       		.byte	0x3
 242 00b7 32       		.byte	0x32
 243 00b8 70000000 		.4byte	0x70
 244 00bc 04       		.uleb128 0x4
 245 00bd 2B010000 		.4byte	.LASF16
 246 00c1 03       		.byte	0x3
 247 00c2 33       		.byte	0x33
 248 00c3 5E000000 		.4byte	0x5e
 249 00c7 04       		.uleb128 0x4
 250 00c8 45010000 		.4byte	.LASF17
 251 00cc 03       		.byte	0x3
 252 00cd 35       		.byte	0x35
 253 00ce 70000000 		.4byte	0x70
 254 00d2 04       		.uleb128 0x4
 255 00d3 4B020000 		.4byte	.LASF18
 256 00d7 03       		.byte	0x3
 257 00d8 36       		.byte	0x36
 258 00d9 70000000 		.4byte	0x70
 259 00dd 04       		.uleb128 0x4
 260 00de AC000000 		.4byte	.LASF19
 261 00e2 03       		.byte	0x3
 262 00e3 37       		.byte	0x37
 263 00e4 5E000000 		.4byte	0x5e
 264 00e8 04       		.uleb128 0x4
 265 00e9 0C020000 		.4byte	.LASF20
 266 00ed 04       		.byte	0x4
 267 00ee 2A       		.byte	0x2a
 268 00ef F3000000 		.4byte	0xf3
 269 00f3 05       		.uleb128 0x5
 270 00f4 0C020000 		.4byte	.LASF20
 271 00f8 48       		.byte	0x48
 272 00f9 05       		.byte	0x5
 273 00fa 5E       		.byte	0x5e
 274 00fb 0A020000 		.4byte	0x20a
 275 00ff 06       		.uleb128 0x6
 276 0100 F0010000 		.4byte	.LASF21
 277 0104 05       		.byte	0x5
 278 0105 5F       		.byte	0x5f
 279 0106 2F020000 		.4byte	0x22f
 280 010a 02       		.byte	0x2
 281 010b 23       		.byte	0x23
 282 010c 00       		.uleb128 0
 283 010d 06       		.uleb128 0x6
 284 010e A1010000 		.4byte	.LASF22
 285 0112 05       		.byte	0x5
ARM GAS  /var/folders/5n/p_75w94d66l9ssrldxqdhh700000gn/T//cc2x1xCc.s 			page 6


 286 0113 61       		.byte	0x61
 287 0114 2F020000 		.4byte	0x22f
 288 0118 02       		.byte	0x2
 289 0119 23       		.byte	0x23
 290 011a 04       		.uleb128 0x4
 291 011b 06       		.uleb128 0x6
 292 011c 3E000000 		.4byte	.LASF23
 293 0120 05       		.byte	0x5
 294 0121 63       		.byte	0x63
 295 0122 B1000000 		.4byte	0xb1
 296 0126 02       		.byte	0x2
 297 0127 23       		.byte	0x23
 298 0128 08       		.uleb128 0x8
 299 0129 06       		.uleb128 0x6
 300 012a D9020000 		.4byte	.LASF24
 301 012e 05       		.byte	0x5
 302 012f 64       		.byte	0x64
 303 0130 FC020000 		.4byte	0x2fc
 304 0134 02       		.byte	0x2
 305 0135 23       		.byte	0x23
 306 0136 0C       		.uleb128 0xc
 307 0137 06       		.uleb128 0x6
 308 0138 93000000 		.4byte	.LASF25
 309 013c 05       		.byte	0x5
 310 013d 66       		.byte	0x66
 311 013e 2F020000 		.4byte	0x22f
 312 0142 02       		.byte	0x2
 313 0143 23       		.byte	0x23
 314 0144 10       		.uleb128 0x10
 315 0145 06       		.uleb128 0x6
 316 0146 60010000 		.4byte	.LASF26
 317 014a 05       		.byte	0x5
 318 014b 67       		.byte	0x67
 319 014c 2F020000 		.4byte	0x22f
 320 0150 02       		.byte	0x2
 321 0151 23       		.byte	0x23
 322 0152 14       		.uleb128 0x14
 323 0153 06       		.uleb128 0x6
 324 0154 C0020000 		.4byte	.LASF27
 325 0158 05       		.byte	0x5
 326 0159 6E       		.byte	0x6e
 327 015a 1E040000 		.4byte	0x41e
 328 015e 02       		.byte	0x2
 329 015f 23       		.byte	0x23
 330 0160 18       		.uleb128 0x18
 331 0161 06       		.uleb128 0x6
 332 0162 DA010000 		.4byte	.LASF28
 333 0166 05       		.byte	0x5
 334 0167 79       		.byte	0x79
 335 0168 9B000000 		.4byte	0x9b
 336 016c 02       		.byte	0x2
 337 016d 23       		.byte	0x23
 338 016e 1C       		.uleb128 0x1c
 339 016f 06       		.uleb128 0x6
 340 0170 F7010000 		.4byte	.LASF29
 341 0174 05       		.byte	0x5
 342 0175 7D       		.byte	0x7d
ARM GAS  /var/folders/5n/p_75w94d66l9ssrldxqdhh700000gn/T//cc2x1xCc.s 			page 7


 343 0176 90000000 		.4byte	0x90
 344 017a 02       		.byte	0x2
 345 017b 23       		.byte	0x23
 346 017c 1D       		.uleb128 0x1d
 347 017d 06       		.uleb128 0x6
 348 017e 9A020000 		.4byte	.LASF30
 349 0182 05       		.byte	0x5
 350 0183 82       		.byte	0x82
 351 0184 A6000000 		.4byte	0xa6
 352 0188 02       		.byte	0x2
 353 0189 23       		.byte	0x23
 354 018a 1E       		.uleb128 0x1e
 355 018b 06       		.uleb128 0x6
 356 018c 60020000 		.4byte	.LASF31
 357 0190 05       		.byte	0x5
 358 0191 89       		.byte	0x89
 359 0192 26030000 		.4byte	0x326
 360 0196 02       		.byte	0x2
 361 0197 23       		.byte	0x23
 362 0198 20       		.uleb128 0x20
 363 0199 07       		.uleb128 0x7
 364 019a 705F7500 		.ascii	"p_u\000"
 365 019e 05       		.byte	0x5
 366 019f AE       		.byte	0xae
 367 01a0 E9030000 		.4byte	0x3e9
 368 01a4 02       		.byte	0x2
 369 01a5 23       		.byte	0x23
 370 01a6 24       		.uleb128 0x24
 371 01a7 06       		.uleb128 0x6
 372 01a8 DF020000 		.4byte	.LASF32
 373 01ac 05       		.byte	0x5
 374 01ad B3       		.byte	0xb3
 375 01ae 57020000 		.4byte	0x257
 376 01b2 02       		.byte	0x2
 377 01b3 23       		.byte	0x23
 378 01b4 28       		.uleb128 0x28
 379 01b5 06       		.uleb128 0x6
 380 01b6 6E020000 		.4byte	.LASF33
 381 01ba 05       		.byte	0x5
 382 01bb B9       		.byte	0xb9
 383 01bc 35020000 		.4byte	0x235
 384 01c0 02       		.byte	0x2
 385 01c1 23       		.byte	0x23
 386 01c2 2C       		.uleb128 0x2c
 387 01c3 06       		.uleb128 0x6
 388 01c4 00000000 		.4byte	.LASF34
 389 01c8 05       		.byte	0x5
 390 01c9 BD       		.byte	0xbd
 391 01ca BC000000 		.4byte	0xbc
 392 01ce 02       		.byte	0x2
 393 01cf 23       		.byte	0x23
 394 01d0 34       		.uleb128 0x34
 395 01d1 06       		.uleb128 0x6
 396 01d2 13020000 		.4byte	.LASF35
 397 01d6 05       		.byte	0x5
 398 01d7 C3       		.byte	0xc3
 399 01d8 C7000000 		.4byte	0xc7
ARM GAS  /var/folders/5n/p_75w94d66l9ssrldxqdhh700000gn/T//cc2x1xCc.s 			page 8


 400 01dc 02       		.byte	0x2
 401 01dd 23       		.byte	0x23
 402 01de 38       		.uleb128 0x38
 403 01df 06       		.uleb128 0x6
 404 01e0 C6010000 		.4byte	.LASF36
 405 01e4 05       		.byte	0x5
 406 01e5 CA       		.byte	0xca
 407 01e6 30040000 		.4byte	0x430
 408 01ea 02       		.byte	0x2
 409 01eb 23       		.byte	0x23
 410 01ec 3C       		.uleb128 0x3c
 411 01ed 06       		.uleb128 0x6
 412 01ee 55020000 		.4byte	.LASF37
 413 01f2 05       		.byte	0x5
 414 01f3 CE       		.byte	0xce
 415 01f4 B1000000 		.4byte	0xb1
 416 01f8 02       		.byte	0x2
 417 01f9 23       		.byte	0x23
 418 01fa 40       		.uleb128 0x40
 419 01fb 06       		.uleb128 0x6
 420 01fc 71000000 		.4byte	.LASF38
 421 0200 05       		.byte	0x5
 422 0201 D4       		.byte	0xd4
 423 0202 6D020000 		.4byte	0x26d
 424 0206 02       		.byte	0x2
 425 0207 23       		.byte	0x23
 426 0208 44       		.uleb128 0x44
 427 0209 00       		.byte	0
 428 020a 08       		.uleb128 0x8
 429 020b 08       		.byte	0x8
 430 020c 04       		.byte	0x4
 431 020d 61       		.byte	0x61
 432 020e 2F020000 		.4byte	0x22f
 433 0212 06       		.uleb128 0x6
 434 0213 F0010000 		.4byte	.LASF21
 435 0217 04       		.byte	0x4
 436 0218 62       		.byte	0x62
 437 0219 2F020000 		.4byte	0x22f
 438 021d 02       		.byte	0x2
 439 021e 23       		.byte	0x23
 440 021f 00       		.uleb128 0
 441 0220 06       		.uleb128 0x6
 442 0221 A1010000 		.4byte	.LASF22
 443 0225 04       		.byte	0x4
 444 0226 64       		.byte	0x64
 445 0227 2F020000 		.4byte	0x22f
 446 022b 02       		.byte	0x2
 447 022c 23       		.byte	0x23
 448 022d 04       		.uleb128 0x4
 449 022e 00       		.byte	0
 450 022f 09       		.uleb128 0x9
 451 0230 04       		.byte	0x4
 452 0231 E8000000 		.4byte	0xe8
 453 0235 04       		.uleb128 0x4
 454 0236 6E010000 		.4byte	.LASF39
 455 023a 04       		.byte	0x4
 456 023b 66       		.byte	0x66
ARM GAS  /var/folders/5n/p_75w94d66l9ssrldxqdhh700000gn/T//cc2x1xCc.s 			page 9


 457 023c 0A020000 		.4byte	0x20a
 458 0240 08       		.uleb128 0x8
 459 0241 04       		.byte	0x4
 460 0242 04       		.byte	0x4
 461 0243 6B       		.byte	0x6b
 462 0244 57020000 		.4byte	0x257
 463 0248 06       		.uleb128 0x6
 464 0249 F0010000 		.4byte	.LASF21
 465 024d 04       		.byte	0x4
 466 024e 6D       		.byte	0x6d
 467 024f 2F020000 		.4byte	0x22f
 468 0253 02       		.byte	0x2
 469 0254 23       		.byte	0x23
 470 0255 00       		.uleb128 0
 471 0256 00       		.byte	0
 472 0257 04       		.uleb128 0x4
 473 0258 39010000 		.4byte	.LASF40
 474 025c 04       		.byte	0x4
 475 025d 70       		.byte	0x70
 476 025e 40020000 		.4byte	0x240
 477 0262 04       		.uleb128 0x4
 478 0263 A3000000 		.4byte	.LASF41
 479 0267 06       		.byte	0x6
 480 0268 D7       		.byte	0xd7
 481 0269 6D020000 		.4byte	0x26d
 482 026d 0A       		.uleb128 0xa
 483 026e 04       		.byte	0x4
 484 026f 05       		.uleb128 0x5
 485 0270 67020000 		.4byte	.LASF42
 486 0274 24       		.byte	0x24
 487 0275 06       		.byte	0x6
 488 0276 FE       		.byte	0xfe
 489 0277 FC020000 		.4byte	0x2fc
 490 027b 0B       		.uleb128 0xb
 491 027c 723400   		.ascii	"r4\000"
 492 027f 06       		.byte	0x6
 493 0280 1101     		.2byte	0x111
 494 0282 62020000 		.4byte	0x262
 495 0286 02       		.byte	0x2
 496 0287 23       		.byte	0x23
 497 0288 00       		.uleb128 0
 498 0289 0B       		.uleb128 0xb
 499 028a 723500   		.ascii	"r5\000"
 500 028d 06       		.byte	0x6
 501 028e 1201     		.2byte	0x112
 502 0290 62020000 		.4byte	0x262
 503 0294 02       		.byte	0x2
 504 0295 23       		.byte	0x23
 505 0296 04       		.uleb128 0x4
 506 0297 0B       		.uleb128 0xb
 507 0298 723600   		.ascii	"r6\000"
 508 029b 06       		.byte	0x6
 509 029c 1301     		.2byte	0x113
 510 029e 62020000 		.4byte	0x262
 511 02a2 02       		.byte	0x2
 512 02a3 23       		.byte	0x23
 513 02a4 08       		.uleb128 0x8
ARM GAS  /var/folders/5n/p_75w94d66l9ssrldxqdhh700000gn/T//cc2x1xCc.s 			page 10


 514 02a5 0B       		.uleb128 0xb
 515 02a6 723700   		.ascii	"r7\000"
 516 02a9 06       		.byte	0x6
 517 02aa 1401     		.2byte	0x114
 518 02ac 62020000 		.4byte	0x262
 519 02b0 02       		.byte	0x2
 520 02b1 23       		.byte	0x23
 521 02b2 0C       		.uleb128 0xc
 522 02b3 0B       		.uleb128 0xb
 523 02b4 723800   		.ascii	"r8\000"
 524 02b7 06       		.byte	0x6
 525 02b8 1501     		.2byte	0x115
 526 02ba 62020000 		.4byte	0x262
 527 02be 02       		.byte	0x2
 528 02bf 23       		.byte	0x23
 529 02c0 10       		.uleb128 0x10
 530 02c1 0B       		.uleb128 0xb
 531 02c2 723900   		.ascii	"r9\000"
 532 02c5 06       		.byte	0x6
 533 02c6 1601     		.2byte	0x116
 534 02c8 62020000 		.4byte	0x262
 535 02cc 02       		.byte	0x2
 536 02cd 23       		.byte	0x23
 537 02ce 14       		.uleb128 0x14
 538 02cf 0B       		.uleb128 0xb
 539 02d0 72313000 		.ascii	"r10\000"
 540 02d4 06       		.byte	0x6
 541 02d5 1701     		.2byte	0x117
 542 02d7 62020000 		.4byte	0x262
 543 02db 02       		.byte	0x2
 544 02dc 23       		.byte	0x23
 545 02dd 18       		.uleb128 0x18
 546 02de 0B       		.uleb128 0xb
 547 02df 72313100 		.ascii	"r11\000"
 548 02e3 06       		.byte	0x6
 549 02e4 1801     		.2byte	0x118
 550 02e6 62020000 		.4byte	0x262
 551 02ea 02       		.byte	0x2
 552 02eb 23       		.byte	0x23
 553 02ec 1C       		.uleb128 0x1c
 554 02ed 0B       		.uleb128 0xb
 555 02ee 6C7200   		.ascii	"lr\000"
 556 02f1 06       		.byte	0x6
 557 02f2 1901     		.2byte	0x119
 558 02f4 62020000 		.4byte	0x262
 559 02f8 02       		.byte	0x2
 560 02f9 23       		.byte	0x23
 561 02fa 20       		.uleb128 0x20
 562 02fb 00       		.byte	0
 563 02fc 0C       		.uleb128 0xc
 564 02fd 10010000 		.4byte	.LASF43
 565 0301 04       		.byte	0x4
 566 0302 06       		.byte	0x6
 567 0303 2301     		.2byte	0x123
 568 0305 19030000 		.4byte	0x319
 569 0309 0B       		.uleb128 0xb
 570 030a 72313300 		.ascii	"r13\000"
ARM GAS  /var/folders/5n/p_75w94d66l9ssrldxqdhh700000gn/T//cc2x1xCc.s 			page 11


 571 030e 06       		.byte	0x6
 572 030f 2401     		.2byte	0x124
 573 0311 19030000 		.4byte	0x319
 574 0315 02       		.byte	0x2
 575 0316 23       		.byte	0x23
 576 0317 00       		.uleb128 0
 577 0318 00       		.byte	0
 578 0319 09       		.uleb128 0x9
 579 031a 04       		.byte	0x4
 580 031b 6F020000 		.4byte	0x26f
 581 031f 03       		.uleb128 0x3
 582 0320 04       		.byte	0x4
 583 0321 07       		.byte	0x7
 584 0322 57010000 		.4byte	.LASF44
 585 0326 0D       		.uleb128 0xd
 586 0327 D2000000 		.4byte	0xd2
 587 032b 08       		.uleb128 0x8
 588 032c 20       		.byte	0x20
 589 032d 07       		.byte	0x7
 590 032e 5E       		.byte	0x5e
 591 032f 96030000 		.4byte	0x396
 592 0333 06       		.uleb128 0x6
 593 0334 27020000 		.4byte	.LASF45
 594 0338 07       		.byte	0x7
 595 0339 5F       		.byte	0x5f
 596 033a 35020000 		.4byte	0x235
 597 033e 02       		.byte	0x2
 598 033f 23       		.byte	0x23
 599 0340 00       		.uleb128 0
 600 0341 06       		.uleb128 0x6
 601 0342 E2010000 		.4byte	.LASF46
 602 0346 07       		.byte	0x7
 603 0347 60       		.byte	0x60
 604 0348 B1000000 		.4byte	0xb1
 605 034c 02       		.byte	0x2
 606 034d 23       		.byte	0x23
 607 034e 08       		.uleb128 0x8
 608 034f 06       		.uleb128 0x6
 609 0350 68010000 		.4byte	.LASF47
 610 0354 07       		.byte	0x7
 611 0355 62       		.byte	0x62
 612 0356 FC020000 		.4byte	0x2fc
 613 035a 02       		.byte	0x2
 614 035b 23       		.byte	0x23
 615 035c 0C       		.uleb128 0xc
 616 035d 06       		.uleb128 0x6
 617 035e 9B000000 		.4byte	.LASF48
 618 0362 07       		.byte	0x7
 619 0363 65       		.byte	0x65
 620 0364 2F020000 		.4byte	0x22f
 621 0368 02       		.byte	0x2
 622 0369 23       		.byte	0x23
 623 036a 10       		.uleb128 0x10
 624 036b 06       		.uleb128 0x6
 625 036c 91010000 		.4byte	.LASF49
 626 0370 07       		.byte	0x7
 627 0371 66       		.byte	0x66
ARM GAS  /var/folders/5n/p_75w94d66l9ssrldxqdhh700000gn/T//cc2x1xCc.s 			page 12


 628 0372 2F020000 		.4byte	0x22f
 629 0376 02       		.byte	0x2
 630 0377 23       		.byte	0x23
 631 0378 14       		.uleb128 0x14
 632 0379 06       		.uleb128 0x6
 633 037a C7020000 		.4byte	.LASF50
 634 037e 07       		.byte	0x7
 635 037f 6A       		.byte	0x6a
 636 0380 DD000000 		.4byte	0xdd
 637 0384 02       		.byte	0x2
 638 0385 23       		.byte	0x23
 639 0386 18       		.uleb128 0x18
 640 0387 06       		.uleb128 0x6
 641 0388 87010000 		.4byte	.LASF51
 642 038c 07       		.byte	0x7
 643 038d 6C       		.byte	0x6c
 644 038e 2F020000 		.4byte	0x22f
 645 0392 02       		.byte	0x2
 646 0393 23       		.byte	0x23
 647 0394 1C       		.uleb128 0x1c
 648 0395 00       		.byte	0
 649 0396 04       		.uleb128 0x4
 650 0397 A1020000 		.4byte	.LASF52
 651 039b 07       		.byte	0x7
 652 039c 6E       		.byte	0x6e
 653 039d 2B030000 		.4byte	0x32b
 654 03a1 05       		.uleb128 0x5
 655 03a2 51010000 		.4byte	.LASF53
 656 03a6 10       		.byte	0x10
 657 03a7 08       		.byte	0x8
 658 03a8 2C       		.byte	0x2c
 659 03a9 D8030000 		.4byte	0x3d8
 660 03ad 06       		.uleb128 0x6
 661 03ae 79000000 		.4byte	.LASF54
 662 03b2 08       		.byte	0x8
 663 03b3 2D       		.byte	0x2d
 664 03b4 35020000 		.4byte	0x235
 665 03b8 02       		.byte	0x2
 666 03b9 23       		.byte	0x23
 667 03ba 00       		.uleb128 0
 668 03bb 06       		.uleb128 0x6
 669 03bc D1020000 		.4byte	.LASF55
 670 03c0 08       		.byte	0x8
 671 03c1 2F       		.byte	0x2f
 672 03c2 2F020000 		.4byte	0x22f
 673 03c6 02       		.byte	0x2
 674 03c7 23       		.byte	0x23
 675 03c8 08       		.uleb128 0x8
 676 03c9 06       		.uleb128 0x6
 677 03ca 44020000 		.4byte	.LASF56
 678 03ce 08       		.byte	0x8
 679 03cf 31       		.byte	0x31
 680 03d0 D8030000 		.4byte	0x3d8
 681 03d4 02       		.byte	0x2
 682 03d5 23       		.byte	0x23
 683 03d6 0C       		.uleb128 0xc
 684 03d7 00       		.byte	0
ARM GAS  /var/folders/5n/p_75w94d66l9ssrldxqdhh700000gn/T//cc2x1xCc.s 			page 13


 685 03d8 09       		.uleb128 0x9
 686 03d9 04       		.byte	0x4
 687 03da A1030000 		.4byte	0x3a1
 688 03de 04       		.uleb128 0x4
 689 03df 51010000 		.4byte	.LASF53
 690 03e3 08       		.byte	0x8
 691 03e4 33       		.byte	0x33
 692 03e5 A1030000 		.4byte	0x3a1
 693 03e9 0E       		.uleb128 0xe
 694 03ea 04       		.byte	0x4
 695 03eb 05       		.byte	0x5
 696 03ec 90       		.byte	0x90
 697 03ed 1E040000 		.4byte	0x41e
 698 03f1 0F       		.uleb128 0xf
 699 03f2 06000000 		.4byte	.LASF57
 700 03f6 05       		.byte	0x5
 701 03f7 97       		.byte	0x97
 702 03f8 BC000000 		.4byte	0xbc
 703 03fc 0F       		.uleb128 0xf
 704 03fd 24000000 		.4byte	.LASF58
 705 0401 05       		.byte	0x5
 706 0402 9E       		.byte	0x9e
 707 0403 BC000000 		.4byte	0xbc
 708 0407 0F       		.uleb128 0xf
 709 0408 B9020000 		.4byte	.LASF59
 710 040c 05       		.byte	0x5
 711 040d A5       		.byte	0xa5
 712 040e 6D020000 		.4byte	0x26d
 713 0412 0F       		.uleb128 0xf
 714 0413 E9010000 		.4byte	.LASF60
 715 0417 05       		.byte	0x5
 716 0418 AC       		.byte	0xac
 717 0419 C7000000 		.4byte	0xc7
 718 041d 00       		.byte	0
 719 041e 09       		.uleb128 0x9
 720 041f 04       		.byte	0x4
 721 0420 24040000 		.4byte	0x424
 722 0424 10       		.uleb128 0x10
 723 0425 29040000 		.4byte	0x429
 724 0429 03       		.uleb128 0x3
 725 042a 01       		.byte	0x1
 726 042b 08       		.byte	0x8
 727 042c 2F020000 		.4byte	.LASF61
 728 0430 09       		.uleb128 0x9
 729 0431 04       		.byte	0x4
 730 0432 DE030000 		.4byte	0x3de
 731 0436 11       		.uleb128 0x11
 732 0437 01       		.byte	0x1
 733 0438 2D000000 		.4byte	.LASF62
 734 043c 01       		.byte	0x1
 735 043d 48       		.byte	0x48
 736 043e 01       		.byte	0x1
 737 043f 2F020000 		.4byte	0x22f
 738 0443 00000000 		.4byte	.LFB7
 739 0447 1E000000 		.4byte	.LFE7
 740 044b 02       		.byte	0x2
 741 044c 7D       		.byte	0x7d
ARM GAS  /var/folders/5n/p_75w94d66l9ssrldxqdhh700000gn/T//cc2x1xCc.s 			page 14


 742 044d 00       		.sleb128 0
 743 044e 01       		.byte	0x1
 744 044f 92040000 		.4byte	0x492
 745 0453 12       		.uleb128 0x12
 746 0454 747000   		.ascii	"tp\000"
 747 0457 01       		.byte	0x1
 748 0458 49       		.byte	0x49
 749 0459 2F020000 		.4byte	0x22f
 750 045d 01       		.byte	0x1
 751 045e 50       		.byte	0x50
 752 045f 13       		.uleb128 0x13
 753 0460 00000000 		.4byte	.LBB2
 754 0464 06000000 		.4byte	.LBE2
 755 0468 7C040000 		.4byte	0x47c
 756 046c 14       		.uleb128 0x14
 757 046d 746D7000 		.ascii	"tmp\000"
 758 0471 01       		.byte	0x1
 759 0472 4B       		.byte	0x4b
 760 0473 70000000 		.4byte	0x70
 761 0477 00000000 		.4byte	.LLST0
 762 047b 00       		.byte	0
 763 047c 15       		.uleb128 0x15
 764 047d 00000000 		.4byte	.Ldebug_ranges0+0
 765 0481 14       		.uleb128 0x14
 766 0482 746D7000 		.ascii	"tmp\000"
 767 0486 01       		.byte	0x1
 768 0487 50       		.byte	0x50
 769 0488 70000000 		.4byte	0x70
 770 048c 13000000 		.4byte	.LLST1
 771 0490 00       		.byte	0
 772 0491 00       		.byte	0
 773 0492 16       		.uleb128 0x16
 774 0493 01       		.byte	0x1
 775 0494 34020000 		.4byte	.LASF63
 776 0498 01       		.byte	0x1
 777 0499 5F       		.byte	0x5f
 778 049a 01       		.byte	0x1
 779 049b 2F020000 		.4byte	0x22f
 780 049f 00000000 		.4byte	.LFB8
 781 04a3 2C000000 		.4byte	.LFE8
 782 04a7 26000000 		.4byte	.LLST2
 783 04ab 01       		.byte	0x1
 784 04ac 11050000 		.4byte	0x511
 785 04b0 17       		.uleb128 0x17
 786 04b1 747000   		.ascii	"tp\000"
 787 04b4 01       		.byte	0x1
 788 04b5 5F       		.byte	0x5f
 789 04b6 2F020000 		.4byte	0x22f
 790 04ba 46000000 		.4byte	.LLST3
 791 04be 14       		.uleb128 0x14
 792 04bf 6E747000 		.ascii	"ntp\000"
 793 04c3 01       		.byte	0x1
 794 04c4 60       		.byte	0x60
 795 04c5 2F020000 		.4byte	0x22f
 796 04c9 72000000 		.4byte	.LLST4
 797 04cd 13       		.uleb128 0x13
 798 04ce 02000000 		.4byte	.LBB5
ARM GAS  /var/folders/5n/p_75w94d66l9ssrldxqdhh700000gn/T//cc2x1xCc.s 			page 15


 799 04d2 08000000 		.4byte	.LBE5
 800 04d6 EA040000 		.4byte	0x4ea
 801 04da 14       		.uleb128 0x14
 802 04db 746D7000 		.ascii	"tmp\000"
 803 04df 01       		.byte	0x1
 804 04e0 62       		.byte	0x62
 805 04e1 70000000 		.4byte	0x70
 806 04e5 91000000 		.4byte	.LLST5
 807 04e9 00       		.byte	0
 808 04ea 13       		.uleb128 0x13
 809 04eb 16000000 		.4byte	.LBB6
 810 04ef 1C000000 		.4byte	.LBE6
 811 04f3 07050000 		.4byte	0x507
 812 04f7 14       		.uleb128 0x14
 813 04f8 746D7000 		.ascii	"tmp\000"
 814 04fc 01       		.byte	0x1
 815 04fd 6D       		.byte	0x6d
 816 04fe 70000000 		.4byte	0x70
 817 0502 A4000000 		.4byte	.LLST6
 818 0506 00       		.byte	0
 819 0507 18       		.uleb128 0x18
 820 0508 20000000 		.4byte	.LVL13
 821 050c 1E050000 		.4byte	0x51e
 822 0510 00       		.byte	0
 823 0511 19       		.uleb128 0x19
 824 0512 AB020000 		.4byte	.LASF67
 825 0516 07       		.byte	0x7
 826 0517 72       		.byte	0x72
 827 0518 96030000 		.4byte	0x396
 828 051c 01       		.byte	0x1
 829 051d 01       		.byte	0x1
 830 051e 1A       		.uleb128 0x1a
 831 051f 01       		.byte	0x1
 832 0520 FF010000 		.4byte	.LASF68
 833 0524 09       		.byte	0x9
 834 0525 3A       		.byte	0x3a
 835 0526 01       		.byte	0x1
 836 0527 01       		.byte	0x1
 837 0528 1B       		.uleb128 0x1b
 838 0529 2F020000 		.4byte	0x22f
 839 052d 00       		.byte	0
 840 052e 00       		.byte	0
 841              		.section	.debug_abbrev,"",%progbits
 842              	.Ldebug_abbrev0:
 843 0000 01       		.uleb128 0x1
 844 0001 11       		.uleb128 0x11
 845 0002 01       		.byte	0x1
 846 0003 25       		.uleb128 0x25
 847 0004 0E       		.uleb128 0xe
 848 0005 13       		.uleb128 0x13
 849 0006 0B       		.uleb128 0xb
 850 0007 03       		.uleb128 0x3
 851 0008 0E       		.uleb128 0xe
 852 0009 1B       		.uleb128 0x1b
 853 000a 0E       		.uleb128 0xe
 854 000b 55       		.uleb128 0x55
 855 000c 06       		.uleb128 0x6
ARM GAS  /var/folders/5n/p_75w94d66l9ssrldxqdhh700000gn/T//cc2x1xCc.s 			page 16


 856 000d 11       		.uleb128 0x11
 857 000e 01       		.uleb128 0x1
 858 000f 52       		.uleb128 0x52
 859 0010 01       		.uleb128 0x1
 860 0011 10       		.uleb128 0x10
 861 0012 06       		.uleb128 0x6
 862 0013 00       		.byte	0
 863 0014 00       		.byte	0
 864 0015 02       		.uleb128 0x2
 865 0016 24       		.uleb128 0x24
 866 0017 00       		.byte	0
 867 0018 0B       		.uleb128 0xb
 868 0019 0B       		.uleb128 0xb
 869 001a 3E       		.uleb128 0x3e
 870 001b 0B       		.uleb128 0xb
 871 001c 03       		.uleb128 0x3
 872 001d 08       		.uleb128 0x8
 873 001e 00       		.byte	0
 874 001f 00       		.byte	0
 875 0020 03       		.uleb128 0x3
 876 0021 24       		.uleb128 0x24
 877 0022 00       		.byte	0
 878 0023 0B       		.uleb128 0xb
 879 0024 0B       		.uleb128 0xb
 880 0025 3E       		.uleb128 0x3e
 881 0026 0B       		.uleb128 0xb
 882 0027 03       		.uleb128 0x3
 883 0028 0E       		.uleb128 0xe
 884 0029 00       		.byte	0
 885 002a 00       		.byte	0
 886 002b 04       		.uleb128 0x4
 887 002c 16       		.uleb128 0x16
 888 002d 00       		.byte	0
 889 002e 03       		.uleb128 0x3
 890 002f 0E       		.uleb128 0xe
 891 0030 3A       		.uleb128 0x3a
 892 0031 0B       		.uleb128 0xb
 893 0032 3B       		.uleb128 0x3b
 894 0033 0B       		.uleb128 0xb
 895 0034 49       		.uleb128 0x49
 896 0035 13       		.uleb128 0x13
 897 0036 00       		.byte	0
 898 0037 00       		.byte	0
 899 0038 05       		.uleb128 0x5
 900 0039 13       		.uleb128 0x13
 901 003a 01       		.byte	0x1
 902 003b 03       		.uleb128 0x3
 903 003c 0E       		.uleb128 0xe
 904 003d 0B       		.uleb128 0xb
 905 003e 0B       		.uleb128 0xb
 906 003f 3A       		.uleb128 0x3a
 907 0040 0B       		.uleb128 0xb
 908 0041 3B       		.uleb128 0x3b
 909 0042 0B       		.uleb128 0xb
 910 0043 01       		.uleb128 0x1
 911 0044 13       		.uleb128 0x13
 912 0045 00       		.byte	0
ARM GAS  /var/folders/5n/p_75w94d66l9ssrldxqdhh700000gn/T//cc2x1xCc.s 			page 17


 913 0046 00       		.byte	0
 914 0047 06       		.uleb128 0x6
 915 0048 0D       		.uleb128 0xd
 916 0049 00       		.byte	0
 917 004a 03       		.uleb128 0x3
 918 004b 0E       		.uleb128 0xe
 919 004c 3A       		.uleb128 0x3a
 920 004d 0B       		.uleb128 0xb
 921 004e 3B       		.uleb128 0x3b
 922 004f 0B       		.uleb128 0xb
 923 0050 49       		.uleb128 0x49
 924 0051 13       		.uleb128 0x13
 925 0052 38       		.uleb128 0x38
 926 0053 0A       		.uleb128 0xa
 927 0054 00       		.byte	0
 928 0055 00       		.byte	0
 929 0056 07       		.uleb128 0x7
 930 0057 0D       		.uleb128 0xd
 931 0058 00       		.byte	0
 932 0059 03       		.uleb128 0x3
 933 005a 08       		.uleb128 0x8
 934 005b 3A       		.uleb128 0x3a
 935 005c 0B       		.uleb128 0xb
 936 005d 3B       		.uleb128 0x3b
 937 005e 0B       		.uleb128 0xb
 938 005f 49       		.uleb128 0x49
 939 0060 13       		.uleb128 0x13
 940 0061 38       		.uleb128 0x38
 941 0062 0A       		.uleb128 0xa
 942 0063 00       		.byte	0
 943 0064 00       		.byte	0
 944 0065 08       		.uleb128 0x8
 945 0066 13       		.uleb128 0x13
 946 0067 01       		.byte	0x1
 947 0068 0B       		.uleb128 0xb
 948 0069 0B       		.uleb128 0xb
 949 006a 3A       		.uleb128 0x3a
 950 006b 0B       		.uleb128 0xb
 951 006c 3B       		.uleb128 0x3b
 952 006d 0B       		.uleb128 0xb
 953 006e 01       		.uleb128 0x1
 954 006f 13       		.uleb128 0x13
 955 0070 00       		.byte	0
 956 0071 00       		.byte	0
 957 0072 09       		.uleb128 0x9
 958 0073 0F       		.uleb128 0xf
 959 0074 00       		.byte	0
 960 0075 0B       		.uleb128 0xb
 961 0076 0B       		.uleb128 0xb
 962 0077 49       		.uleb128 0x49
 963 0078 13       		.uleb128 0x13
 964 0079 00       		.byte	0
 965 007a 00       		.byte	0
 966 007b 0A       		.uleb128 0xa
 967 007c 0F       		.uleb128 0xf
 968 007d 00       		.byte	0
 969 007e 0B       		.uleb128 0xb
ARM GAS  /var/folders/5n/p_75w94d66l9ssrldxqdhh700000gn/T//cc2x1xCc.s 			page 18


 970 007f 0B       		.uleb128 0xb
 971 0080 00       		.byte	0
 972 0081 00       		.byte	0
 973 0082 0B       		.uleb128 0xb
 974 0083 0D       		.uleb128 0xd
 975 0084 00       		.byte	0
 976 0085 03       		.uleb128 0x3
 977 0086 08       		.uleb128 0x8
 978 0087 3A       		.uleb128 0x3a
 979 0088 0B       		.uleb128 0xb
 980 0089 3B       		.uleb128 0x3b
 981 008a 05       		.uleb128 0x5
 982 008b 49       		.uleb128 0x49
 983 008c 13       		.uleb128 0x13
 984 008d 38       		.uleb128 0x38
 985 008e 0A       		.uleb128 0xa
 986 008f 00       		.byte	0
 987 0090 00       		.byte	0
 988 0091 0C       		.uleb128 0xc
 989 0092 13       		.uleb128 0x13
 990 0093 01       		.byte	0x1
 991 0094 03       		.uleb128 0x3
 992 0095 0E       		.uleb128 0xe
 993 0096 0B       		.uleb128 0xb
 994 0097 0B       		.uleb128 0xb
 995 0098 3A       		.uleb128 0x3a
 996 0099 0B       		.uleb128 0xb
 997 009a 3B       		.uleb128 0x3b
 998 009b 05       		.uleb128 0x5
 999 009c 01       		.uleb128 0x1
 1000 009d 13       		.uleb128 0x13
 1001 009e 00       		.byte	0
 1002 009f 00       		.byte	0
 1003 00a0 0D       		.uleb128 0xd
 1004 00a1 35       		.uleb128 0x35
 1005 00a2 00       		.byte	0
 1006 00a3 49       		.uleb128 0x49
 1007 00a4 13       		.uleb128 0x13
 1008 00a5 00       		.byte	0
 1009 00a6 00       		.byte	0
 1010 00a7 0E       		.uleb128 0xe
 1011 00a8 17       		.uleb128 0x17
 1012 00a9 01       		.byte	0x1
 1013 00aa 0B       		.uleb128 0xb
 1014 00ab 0B       		.uleb128 0xb
 1015 00ac 3A       		.uleb128 0x3a
 1016 00ad 0B       		.uleb128 0xb
 1017 00ae 3B       		.uleb128 0x3b
 1018 00af 0B       		.uleb128 0xb
 1019 00b0 01       		.uleb128 0x1
 1020 00b1 13       		.uleb128 0x13
 1021 00b2 00       		.byte	0
 1022 00b3 00       		.byte	0
 1023 00b4 0F       		.uleb128 0xf
 1024 00b5 0D       		.uleb128 0xd
 1025 00b6 00       		.byte	0
 1026 00b7 03       		.uleb128 0x3
ARM GAS  /var/folders/5n/p_75w94d66l9ssrldxqdhh700000gn/T//cc2x1xCc.s 			page 19


 1027 00b8 0E       		.uleb128 0xe
 1028 00b9 3A       		.uleb128 0x3a
 1029 00ba 0B       		.uleb128 0xb
 1030 00bb 3B       		.uleb128 0x3b
 1031 00bc 0B       		.uleb128 0xb
 1032 00bd 49       		.uleb128 0x49
 1033 00be 13       		.uleb128 0x13
 1034 00bf 00       		.byte	0
 1035 00c0 00       		.byte	0
 1036 00c1 10       		.uleb128 0x10
 1037 00c2 26       		.uleb128 0x26
 1038 00c3 00       		.byte	0
 1039 00c4 49       		.uleb128 0x49
 1040 00c5 13       		.uleb128 0x13
 1041 00c6 00       		.byte	0
 1042 00c7 00       		.byte	0
 1043 00c8 11       		.uleb128 0x11
 1044 00c9 2E       		.uleb128 0x2e
 1045 00ca 01       		.byte	0x1
 1046 00cb 3F       		.uleb128 0x3f
 1047 00cc 0C       		.uleb128 0xc
 1048 00cd 03       		.uleb128 0x3
 1049 00ce 0E       		.uleb128 0xe
 1050 00cf 3A       		.uleb128 0x3a
 1051 00d0 0B       		.uleb128 0xb
 1052 00d1 3B       		.uleb128 0x3b
 1053 00d2 0B       		.uleb128 0xb
 1054 00d3 27       		.uleb128 0x27
 1055 00d4 0C       		.uleb128 0xc
 1056 00d5 49       		.uleb128 0x49
 1057 00d6 13       		.uleb128 0x13
 1058 00d7 11       		.uleb128 0x11
 1059 00d8 01       		.uleb128 0x1
 1060 00d9 12       		.uleb128 0x12
 1061 00da 01       		.uleb128 0x1
 1062 00db 40       		.uleb128 0x40
 1063 00dc 0A       		.uleb128 0xa
 1064 00dd 9742     		.uleb128 0x2117
 1065 00df 0C       		.uleb128 0xc
 1066 00e0 01       		.uleb128 0x1
 1067 00e1 13       		.uleb128 0x13
 1068 00e2 00       		.byte	0
 1069 00e3 00       		.byte	0
 1070 00e4 12       		.uleb128 0x12
 1071 00e5 34       		.uleb128 0x34
 1072 00e6 00       		.byte	0
 1073 00e7 03       		.uleb128 0x3
 1074 00e8 08       		.uleb128 0x8
 1075 00e9 3A       		.uleb128 0x3a
 1076 00ea 0B       		.uleb128 0xb
 1077 00eb 3B       		.uleb128 0x3b
 1078 00ec 0B       		.uleb128 0xb
 1079 00ed 49       		.uleb128 0x49
 1080 00ee 13       		.uleb128 0x13
 1081 00ef 02       		.uleb128 0x2
 1082 00f0 0A       		.uleb128 0xa
 1083 00f1 00       		.byte	0
ARM GAS  /var/folders/5n/p_75w94d66l9ssrldxqdhh700000gn/T//cc2x1xCc.s 			page 20


 1084 00f2 00       		.byte	0
 1085 00f3 13       		.uleb128 0x13
 1086 00f4 0B       		.uleb128 0xb
 1087 00f5 01       		.byte	0x1
 1088 00f6 11       		.uleb128 0x11
 1089 00f7 01       		.uleb128 0x1
 1090 00f8 12       		.uleb128 0x12
 1091 00f9 01       		.uleb128 0x1
 1092 00fa 01       		.uleb128 0x1
 1093 00fb 13       		.uleb128 0x13
 1094 00fc 00       		.byte	0
 1095 00fd 00       		.byte	0
 1096 00fe 14       		.uleb128 0x14
 1097 00ff 34       		.uleb128 0x34
 1098 0100 00       		.byte	0
 1099 0101 03       		.uleb128 0x3
 1100 0102 08       		.uleb128 0x8
 1101 0103 3A       		.uleb128 0x3a
 1102 0104 0B       		.uleb128 0xb
 1103 0105 3B       		.uleb128 0x3b
 1104 0106 0B       		.uleb128 0xb
 1105 0107 49       		.uleb128 0x49
 1106 0108 13       		.uleb128 0x13
 1107 0109 02       		.uleb128 0x2
 1108 010a 06       		.uleb128 0x6
 1109 010b 00       		.byte	0
 1110 010c 00       		.byte	0
 1111 010d 15       		.uleb128 0x15
 1112 010e 0B       		.uleb128 0xb
 1113 010f 01       		.byte	0x1
 1114 0110 55       		.uleb128 0x55
 1115 0111 06       		.uleb128 0x6
 1116 0112 00       		.byte	0
 1117 0113 00       		.byte	0
 1118 0114 16       		.uleb128 0x16
 1119 0115 2E       		.uleb128 0x2e
 1120 0116 01       		.byte	0x1
 1121 0117 3F       		.uleb128 0x3f
 1122 0118 0C       		.uleb128 0xc
 1123 0119 03       		.uleb128 0x3
 1124 011a 0E       		.uleb128 0xe
 1125 011b 3A       		.uleb128 0x3a
 1126 011c 0B       		.uleb128 0xb
 1127 011d 3B       		.uleb128 0x3b
 1128 011e 0B       		.uleb128 0xb
 1129 011f 27       		.uleb128 0x27
 1130 0120 0C       		.uleb128 0xc
 1131 0121 49       		.uleb128 0x49
 1132 0122 13       		.uleb128 0x13
 1133 0123 11       		.uleb128 0x11
 1134 0124 01       		.uleb128 0x1
 1135 0125 12       		.uleb128 0x12
 1136 0126 01       		.uleb128 0x1
 1137 0127 40       		.uleb128 0x40
 1138 0128 06       		.uleb128 0x6
 1139 0129 9742     		.uleb128 0x2117
 1140 012b 0C       		.uleb128 0xc
ARM GAS  /var/folders/5n/p_75w94d66l9ssrldxqdhh700000gn/T//cc2x1xCc.s 			page 21


 1141 012c 01       		.uleb128 0x1
 1142 012d 13       		.uleb128 0x13
 1143 012e 00       		.byte	0
 1144 012f 00       		.byte	0
 1145 0130 17       		.uleb128 0x17
 1146 0131 05       		.uleb128 0x5
 1147 0132 00       		.byte	0
 1148 0133 03       		.uleb128 0x3
 1149 0134 08       		.uleb128 0x8
 1150 0135 3A       		.uleb128 0x3a
 1151 0136 0B       		.uleb128 0xb
 1152 0137 3B       		.uleb128 0x3b
 1153 0138 0B       		.uleb128 0xb
 1154 0139 49       		.uleb128 0x49
 1155 013a 13       		.uleb128 0x13
 1156 013b 02       		.uleb128 0x2
 1157 013c 06       		.uleb128 0x6
 1158 013d 00       		.byte	0
 1159 013e 00       		.byte	0
 1160 013f 18       		.uleb128 0x18
 1161 0140 898201   		.uleb128 0x4109
 1162 0143 00       		.byte	0
 1163 0144 11       		.uleb128 0x11
 1164 0145 01       		.uleb128 0x1
 1165 0146 31       		.uleb128 0x31
 1166 0147 13       		.uleb128 0x13
 1167 0148 00       		.byte	0
 1168 0149 00       		.byte	0
 1169 014a 19       		.uleb128 0x19
 1170 014b 34       		.uleb128 0x34
 1171 014c 00       		.byte	0
 1172 014d 03       		.uleb128 0x3
 1173 014e 0E       		.uleb128 0xe
 1174 014f 3A       		.uleb128 0x3a
 1175 0150 0B       		.uleb128 0xb
 1176 0151 3B       		.uleb128 0x3b
 1177 0152 0B       		.uleb128 0xb
 1178 0153 49       		.uleb128 0x49
 1179 0154 13       		.uleb128 0x13
 1180 0155 3F       		.uleb128 0x3f
 1181 0156 0C       		.uleb128 0xc
 1182 0157 3C       		.uleb128 0x3c
 1183 0158 0C       		.uleb128 0xc
 1184 0159 00       		.byte	0
 1185 015a 00       		.byte	0
 1186 015b 1A       		.uleb128 0x1a
 1187 015c 2E       		.uleb128 0x2e
 1188 015d 01       		.byte	0x1
 1189 015e 3F       		.uleb128 0x3f
 1190 015f 0C       		.uleb128 0xc
 1191 0160 03       		.uleb128 0x3
 1192 0161 0E       		.uleb128 0xe
 1193 0162 3A       		.uleb128 0x3a
 1194 0163 0B       		.uleb128 0xb
 1195 0164 3B       		.uleb128 0x3b
 1196 0165 0B       		.uleb128 0xb
 1197 0166 27       		.uleb128 0x27
ARM GAS  /var/folders/5n/p_75w94d66l9ssrldxqdhh700000gn/T//cc2x1xCc.s 			page 22


 1198 0167 0C       		.uleb128 0xc
 1199 0168 3C       		.uleb128 0x3c
 1200 0169 0C       		.uleb128 0xc
 1201 016a 00       		.byte	0
 1202 016b 00       		.byte	0
 1203 016c 1B       		.uleb128 0x1b
 1204 016d 05       		.uleb128 0x5
 1205 016e 00       		.byte	0
 1206 016f 49       		.uleb128 0x49
 1207 0170 13       		.uleb128 0x13
 1208 0171 00       		.byte	0
 1209 0172 00       		.byte	0
 1210 0173 00       		.byte	0
 1211              		.section	.debug_loc,"",%progbits
 1212              	.Ldebug_loc0:
 1213              	.LLST0:
 1214 0000 06000000 		.4byte	.LVL1
 1215 0004 10000000 		.4byte	.LVL2
 1216 0008 0100     		.2byte	0x1
 1217 000a 53       		.byte	0x53
 1218 000b 00000000 		.4byte	0
 1219 000f 00000000 		.4byte	0
 1220              	.LLST1:
 1221 0013 1C000000 		.4byte	.LVL4
 1222 0017 1E000000 		.4byte	.LFE7
 1223 001b 0100     		.2byte	0x1
 1224 001d 53       		.byte	0x53
 1225 001e 00000000 		.4byte	0
 1226 0022 00000000 		.4byte	0
 1227              	.LLST2:
 1228 0026 00000000 		.4byte	.LFB8
 1229 002a 02000000 		.4byte	.LCFI0
 1230 002e 0200     		.2byte	0x2
 1231 0030 7D       		.byte	0x7d
 1232 0031 00       		.sleb128 0
 1233 0032 02000000 		.4byte	.LCFI0
 1234 0036 2C000000 		.4byte	.LFE8
 1235 003a 0200     		.2byte	0x2
 1236 003c 7D       		.byte	0x7d
 1237 003d 08       		.sleb128 8
 1238 003e 00000000 		.4byte	0
 1239 0042 00000000 		.4byte	0
 1240              	.LLST3:
 1241 0046 00000000 		.4byte	.LVL5
 1242 004a 1F000000 		.4byte	.LVL13-1
 1243 004e 0100     		.2byte	0x1
 1244 0050 50       		.byte	0x50
 1245 0051 1F000000 		.4byte	.LVL13-1
 1246 0055 24000000 		.4byte	.LVL14
 1247 0059 0400     		.2byte	0x4
 1248 005b F3       		.byte	0xf3
 1249 005c 01       		.uleb128 0x1
 1250 005d 50       		.byte	0x50
 1251 005e 9F       		.byte	0x9f
 1252 005f 24000000 		.4byte	.LVL14
 1253 0063 2C000000 		.4byte	.LFE8
 1254 0067 0100     		.2byte	0x1
ARM GAS  /var/folders/5n/p_75w94d66l9ssrldxqdhh700000gn/T//cc2x1xCc.s 			page 23


 1255 0069 50       		.byte	0x50
 1256 006a 00000000 		.4byte	0
 1257 006e 00000000 		.4byte	0
 1258              	.LLST4:
 1259 0072 0C000000 		.4byte	.LVL9
 1260 0076 26000000 		.4byte	.LVL15
 1261 007a 0100     		.2byte	0x1
 1262 007c 54       		.byte	0x54
 1263 007d 26000000 		.4byte	.LVL15
 1264 0081 2C000000 		.4byte	.LFE8
 1265 0085 0200     		.2byte	0x2
 1266 0087 70       		.byte	0x70
 1267 0088 10       		.sleb128 16
 1268 0089 00000000 		.4byte	0
 1269 008d 00000000 		.4byte	0
 1270              	.LLST5:
 1271 0091 08000000 		.4byte	.LVL7
 1272 0095 0A000000 		.4byte	.LVL8
 1273 0099 0100     		.2byte	0x1
 1274 009b 53       		.byte	0x53
 1275 009c 00000000 		.4byte	0
 1276 00a0 00000000 		.4byte	0
 1277              	.LLST6:
 1278 00a4 1C000000 		.4byte	.LVL12
 1279 00a8 1F000000 		.4byte	.LVL13-1
 1280 00ac 0100     		.2byte	0x1
 1281 00ae 53       		.byte	0x53
 1282 00af 00000000 		.4byte	0
 1283 00b3 00000000 		.4byte	0
 1284              		.section	.debug_aranges,"",%progbits
 1285 0000 24000000 		.4byte	0x24
 1286 0004 0200     		.2byte	0x2
 1287 0006 00000000 		.4byte	.Ldebug_info0
 1288 000a 04       		.byte	0x4
 1289 000b 00       		.byte	0
 1290 000c 0000     		.2byte	0
 1291 000e 0000     		.2byte	0
 1292 0010 00000000 		.4byte	.LFB7
 1293 0014 1E000000 		.4byte	.LFE7-.LFB7
 1294 0018 00000000 		.4byte	.LFB8
 1295 001c 2C000000 		.4byte	.LFE8-.LFB8
 1296 0020 00000000 		.4byte	0
 1297 0024 00000000 		.4byte	0
 1298              		.section	.debug_ranges,"",%progbits
 1299              	.Ldebug_ranges0:
 1300 0000 0E000000 		.4byte	.LBB3
 1301 0004 10000000 		.4byte	.LBE3
 1302 0008 18000000 		.4byte	.LBB4
 1303 000c 1C000000 		.4byte	.LBE4
 1304 0010 00000000 		.4byte	0
 1305 0014 00000000 		.4byte	0
 1306 0018 00000000 		.4byte	.LFB7
 1307 001c 1E000000 		.4byte	.LFE7
 1308 0020 00000000 		.4byte	.LFB8
 1309 0024 2C000000 		.4byte	.LFE8
 1310 0028 00000000 		.4byte	0
 1311 002c 00000000 		.4byte	0
ARM GAS  /var/folders/5n/p_75w94d66l9ssrldxqdhh700000gn/T//cc2x1xCc.s 			page 24


 1312              		.section	.debug_line,"",%progbits
 1313              	.Ldebug_line0:
 1314 0000 5B010000 		.section	.debug_str,"MS",%progbits,1
 1314      02002301 
 1314      00000201 
 1314      FB0E0D00 
 1314      01010101 
 1315              	.LASF34:
 1316 0000 705F6D73 		.ascii	"p_msg\000"
 1316      6700
 1317              	.LASF57:
 1318 0006 7264796D 		.ascii	"rdymsg\000"
 1318      736700
 1319              	.LASF11:
 1320 000d 6C6F6E67 		.ascii	"long long unsigned int\000"
 1320      206C6F6E 
 1320      6720756E 
 1320      7369676E 
 1320      65642069 
 1321              	.LASF58:
 1322 0024 65786974 		.ascii	"exitcode\000"
 1322      636F6465 
 1322      00
 1323              	.LASF62:
 1324 002d 63685265 		.ascii	"chRegFirstThread\000"
 1324      67466972 
 1324      73745468 
 1324      72656164 
 1324      00
 1325              	.LASF23:
 1326 003e 705F7072 		.ascii	"p_prio\000"
 1326      696F00
 1327              	.LASF10:
 1328 0045 6C6F6E67 		.ascii	"long long int\000"
 1328      206C6F6E 
 1328      6720696E 
 1328      7400
 1329              	.LASF1:
 1330 0053 7369676E 		.ascii	"signed char\000"
 1330      65642063 
 1330      68617200 
 1331              	.LASF9:
 1332 005f 6C6F6E67 		.ascii	"long unsigned int\000"
 1332      20756E73 
 1332      69676E65 
 1332      6420696E 
 1332      7400
 1333              	.LASF38:
 1334 0071 705F6D70 		.ascii	"p_mpool\000"
 1334      6F6F6C00 
 1335              	.LASF54:
 1336 0079 6D5F7175 		.ascii	"m_queue\000"
 1336      65756500 
 1337              	.LASF7:
 1338 0081 6C6F6E67 		.ascii	"long int\000"
 1338      20696E74 
 1338      00
ARM GAS  /var/folders/5n/p_75w94d66l9ssrldxqdhh700000gn/T//cc2x1xCc.s 			page 25


 1339              	.LASF13:
 1340 008a 74737461 		.ascii	"tstate_t\000"
 1340      74655F74 
 1340      00
 1341              	.LASF25:
 1342 0093 705F6E65 		.ascii	"p_newer\000"
 1342      77657200 
 1343              	.LASF48:
 1344 009b 725F6E65 		.ascii	"r_newer\000"
 1344      77657200 
 1345              	.LASF41:
 1346 00a3 72656761 		.ascii	"regarm_t\000"
 1346      726D5F74 
 1346      00
 1347              	.LASF19:
 1348 00ac 636E745F 		.ascii	"cnt_t\000"
 1348      7400
 1349              	.LASF0:
 1350 00b2 756E7369 		.ascii	"unsigned int\000"
 1350      676E6564 
 1350      20696E74 
 1350      00
 1351              	.LASF66:
 1352 00bf 2F557365 		.ascii	"/Users/sin/Documents/Eclipse/Workspace/ChibiOS_2.4."
 1352      72732F73 
 1352      696E2F44 
 1352      6F63756D 
 1352      656E7473 
 1353 00f2 322F6465 		.ascii	"2/demos/ARMCM4-STM32F407-LWIP\000"
 1353      6D6F732F 
 1353      41524D43 
 1353      4D342D53 
 1353      544D3332 
 1354              	.LASF43:
 1355 0110 636F6E74 		.ascii	"context\000"
 1355      65787400 
 1356              	.LASF4:
 1357 0118 73686F72 		.ascii	"short unsigned int\000"
 1357      7420756E 
 1357      7369676E 
 1357      65642069 
 1357      6E7400
 1358              	.LASF16:
 1359 012b 6D73675F 		.ascii	"msg_t\000"
 1359      7400
 1360              	.LASF12:
 1361 0131 746D6F64 		.ascii	"tmode_t\000"
 1361      655F7400 
 1362              	.LASF40:
 1363 0139 54687265 		.ascii	"ThreadsList\000"
 1363      6164734C 
 1363      69737400 
 1364              	.LASF17:
 1365 0145 6576656E 		.ascii	"eventmask_t\000"
 1365      746D6173 
 1365      6B5F7400 
 1366              	.LASF53:
ARM GAS  /var/folders/5n/p_75w94d66l9ssrldxqdhh700000gn/T//cc2x1xCc.s 			page 26


 1367 0151 4D757465 		.ascii	"Mutex\000"
 1367      7800
 1368              	.LASF44:
 1369 0157 73697A65 		.ascii	"sizetype\000"
 1369      74797065 
 1369      00
 1370              	.LASF26:
 1371 0160 705F6F6C 		.ascii	"p_older\000"
 1371      64657200 
 1372              	.LASF47:
 1373 0168 725F6374 		.ascii	"r_ctx\000"
 1373      7800
 1374              	.LASF39:
 1375 016e 54687265 		.ascii	"ThreadsQueue\000"
 1375      61647351 
 1375      75657565 
 1375      00
 1376              	.LASF64:
 1377 017b 474E5520 		.ascii	"GNU C 4.7.2\000"
 1377      4320342E 
 1377      372E3200 
 1378              	.LASF51:
 1379 0187 725F6375 		.ascii	"r_current\000"
 1379      7272656E 
 1379      7400
 1380              	.LASF49:
 1381 0191 725F6F6C 		.ascii	"r_older\000"
 1381      64657200 
 1382              	.LASF14:
 1383 0199 74726566 		.ascii	"trefs_t\000"
 1383      735F7400 
 1384              	.LASF22:
 1385 01a1 705F7072 		.ascii	"p_prev\000"
 1385      657600
 1386              	.LASF15:
 1387 01a8 74707269 		.ascii	"tprio_t\000"
 1387      6F5F7400 
 1388              	.LASF6:
 1389 01b0 696E7433 		.ascii	"int32_t\000"
 1389      325F7400 
 1390              	.LASF2:
 1391 01b8 756E7369 		.ascii	"unsigned char\000"
 1391      676E6564 
 1391      20636861 
 1391      7200
 1392              	.LASF36:
 1393 01c6 705F6D74 		.ascii	"p_mtxlist\000"
 1393      786C6973 
 1393      7400
 1394              	.LASF3:
 1395 01d0 73686F72 		.ascii	"short int\000"
 1395      7420696E 
 1395      7400
 1396              	.LASF28:
 1397 01da 705F7374 		.ascii	"p_state\000"
 1397      61746500 
 1398              	.LASF46:
ARM GAS  /var/folders/5n/p_75w94d66l9ssrldxqdhh700000gn/T//cc2x1xCc.s 			page 27


 1399 01e2 725F7072 		.ascii	"r_prio\000"
 1399      696F00
 1400              	.LASF60:
 1401 01e9 65776D61 		.ascii	"ewmask\000"
 1401      736B00
 1402              	.LASF21:
 1403 01f0 705F6E65 		.ascii	"p_next\000"
 1403      787400
 1404              	.LASF29:
 1405 01f7 705F666C 		.ascii	"p_flags\000"
 1405      61677300 
 1406              	.LASF68:
 1407 01ff 63685468 		.ascii	"chThdRelease\000"
 1407      6452656C 
 1407      65617365 
 1407      00
 1408              	.LASF20:
 1409 020c 54687265 		.ascii	"Thread\000"
 1409      616400
 1410              	.LASF35:
 1411 0213 705F6570 		.ascii	"p_epending\000"
 1411      656E6469 
 1411      6E6700
 1412              	.LASF8:
 1413 021e 75696E74 		.ascii	"uint32_t\000"
 1413      33325F74 
 1413      00
 1414              	.LASF45:
 1415 0227 725F7175 		.ascii	"r_queue\000"
 1415      65756500 
 1416              	.LASF61:
 1417 022f 63686172 		.ascii	"char\000"
 1417      00
 1418              	.LASF63:
 1419 0234 63685265 		.ascii	"chRegNextThread\000"
 1419      674E6578 
 1419      74546872 
 1419      65616400 
 1420              	.LASF56:
 1421 0244 6D5F6E65 		.ascii	"m_next\000"
 1421      787400
 1422              	.LASF18:
 1423 024b 73797374 		.ascii	"systime_t\000"
 1423      696D655F 
 1423      7400
 1424              	.LASF37:
 1425 0255 705F7265 		.ascii	"p_realprio\000"
 1425      616C7072 
 1425      696F00
 1426              	.LASF31:
 1427 0260 705F7469 		.ascii	"p_time\000"
 1427      6D6500
 1428              	.LASF42:
 1429 0267 696E7463 		.ascii	"intctx\000"
 1429      747800
 1430              	.LASF33:
 1431 026e 705F6D73 		.ascii	"p_msgqueue\000"
ARM GAS  /var/folders/5n/p_75w94d66l9ssrldxqdhh700000gn/T//cc2x1xCc.s 			page 28


 1431      67717565 
 1431      756500
 1432              	.LASF65:
 1433 0279 2E2E2F2E 		.ascii	"../../os/kernel/src/chregistry.c\000"
 1433      2E2F6F73 
 1433      2F6B6572 
 1433      6E656C2F 
 1433      7372632F 
 1434              	.LASF30:
 1435 029a 705F7265 		.ascii	"p_refs\000"
 1435      667300
 1436              	.LASF52:
 1437 02a1 52656164 		.ascii	"ReadyList\000"
 1437      794C6973 
 1437      7400
 1438              	.LASF67:
 1439 02ab 726C6973 		.ascii	"rlist\000"
 1439      7400
 1440              	.LASF5:
 1441 02b1 75696E74 		.ascii	"uint8_t\000"
 1441      385F7400 
 1442              	.LASF59:
 1443 02b9 77746F62 		.ascii	"wtobjp\000"
 1443      6A7000
 1444              	.LASF27:
 1445 02c0 705F6E61 		.ascii	"p_name\000"
 1445      6D6500
 1446              	.LASF50:
 1447 02c7 725F7072 		.ascii	"r_preempt\000"
 1447      65656D70 
 1447      7400
 1448              	.LASF55:
 1449 02d1 6D5F6F77 		.ascii	"m_owner\000"
 1449      6E657200 
 1450              	.LASF24:
 1451 02d9 705F6374 		.ascii	"p_ctx\000"
 1451      7800
 1452              	.LASF32:
 1453 02df 705F7761 		.ascii	"p_waiting\000"
 1453      6974696E 
 1453      6700
 1454              		.ident	"GCC: (GNU) 4.7.2"
ARM GAS  /var/folders/5n/p_75w94d66l9ssrldxqdhh700000gn/T//cc2x1xCc.s 			page 29


DEFINED SYMBOLS
                            *ABS*:0000000000000000 chregistry.c
/var/folders/5n/p_75w94d66l9ssrldxqdhh700000gn/T//cc2x1xCc.s:19     .text.chRegFirstThread:0000000000000000 $t
/var/folders/5n/p_75w94d66l9ssrldxqdhh700000gn/T//cc2x1xCc.s:25     .text.chRegFirstThread:0000000000000000 chRegFirstThread
/var/folders/5n/p_75w94d66l9ssrldxqdhh700000gn/T//cc2x1xCc.s:72     .text.chRegNextThread:0000000000000000 $t
/var/folders/5n/p_75w94d66l9ssrldxqdhh700000gn/T//cc2x1xCc.s:78     .text.chRegNextThread:0000000000000000 chRegNextThread
/var/folders/5n/p_75w94d66l9ssrldxqdhh700000gn/T//cc2x1xCc.s:140    .text.chRegNextThread:0000000000000028 $d
                     .debug_frame:0000000000000010 $d
/var/folders/5n/p_75w94d66l9ssrldxqdhh700000gn/T//cc2x1xCc.s:144    .text.chRegNextThread:000000000000002c $t

UNDEFINED SYMBOLS
rlist
chThdRelease
