ARM GAS  /var/folders/5n/p_75w94d66l9ssrldxqdhh700000gn/T//cc813tB2.s 			page 1


   1              		.syntax unified
   2              		.cpu cortex-m4
   3              		.fpu softvfp
   4              		.eabi_attribute 20, 1
   5              		.eabi_attribute 21, 1
   6              		.eabi_attribute 23, 3
   7              		.eabi_attribute 24, 1
   8              		.eabi_attribute 25, 1
   9              		.eabi_attribute 26, 1
  10              		.eabi_attribute 30, 2
  11              		.eabi_attribute 34, 1
  12              		.eabi_attribute 18, 4
  13              		.thumb
  14              		.file	"etharp.c"
  15              		.text
  16              	.Ltext0:
  17              		.cfi_sections	.debug_frame
  18              		.section	.text.find_entry,"ax",%progbits
  19              		.align	2
  20              		.p2align 4,,15
  21              		.thumb
  22              		.thumb_func
  23              		.type	find_entry, %function
  24              	find_entry:
  25              	.LFB9:
  26              		.file 1 "../../ext/lwip-1.4.0/src/netif/etharp.c"
  27              		.loc 1 259 0
  28              		.cfi_startproc
  29              		@ args = 0, pretend = 0, frame = 24
  30              		@ frame_needed = 0, uses_anonymous_args = 0
  31              	.LVL0:
  32 0000 2DE9F04F 		push	{r4, r5, r6, r7, r8, r9, sl, fp, lr}
  33              	.LCFI0:
  34              		.cfi_def_cfa_offset 36
  35              		.cfi_offset 4, -36
  36              		.cfi_offset 5, -32
  37              		.cfi_offset 6, -28
  38              		.cfi_offset 7, -24
  39              		.cfi_offset 8, -20
  40              		.cfi_offset 9, -16
  41              		.cfi_offset 10, -12
  42              		.cfi_offset 11, -8
  43              		.cfi_offset 14, -4
  44 0004 514E     		ldr	r6, .L51
  45 0006 87B0     		sub	sp, sp, #28
  46              	.LCFI1:
  47              		.cfi_def_cfa_offset 64
  48              		.loc 1 266 0
  49 0008 0027     		movs	r7, #0
  50              		.loc 1 264 0
  51 000a 4FF00A0B 		mov	fp, #10
  52              		.loc 1 262 0
  53 000e 0397     		str	r7, [sp, #12]
  54 0010 0597     		str	r7, [sp, #20]
  55              		.loc 1 283 0
  56 0012 3C46     		mov	r4, r7
  57              		.loc 1 260 0
ARM GAS  /var/folders/5n/p_75w94d66l9ssrldxqdhh700000gn/T//cc813tB2.s 			page 2


  58 0014 0297     		str	r7, [sp, #8]
  59              		.loc 1 259 0
  60 0016 8A46     		mov	sl, r1
  61 0018 B046     		mov	r8, r6
  62              		.loc 1 261 0
  63 001a D946     		mov	r9, fp
  64              		.loc 1 260 0
  65 001c CDF804B0 		str	fp, [sp, #4]
  66 0020 CDF810B0 		str	fp, [sp, #16]
  67 0024 0746     		mov	r7, r0
  68              	.LVL1:
  69              	.L9:
  70              	.LBB5:
  71              		.loc 1 284 0
  72 0026 98F80E50 		ldrb	r5, [r8, #14]	@ zero_extendqisi2
  73              	.LVL2:
  74              		.loc 1 286 0
  75 002a 002D     		cmp	r5, #0
  76 002c 08BF     		it	eq
  77 002e B9F10A0F 		cmpeq	r9, #10
  78              		.loc 1 289 0
  79 0032 08BF     		it	eq
  80 0034 5FFA84F9 		uxtbeq	r9, r4
  81              		.loc 1 286 0
  82 0038 0FD0     		beq	.L3
  83              		.loc 1 290 0
  84 003a 75B1     		cbz	r5, .L3
  85              		.loc 1 291 0
  86 003c 6B1E     		subs	r3, r5, #1
  87 003e 012B     		cmp	r3, #1
  88 0040 01D9     		bls	.L4
  89              		.loc 1 291 0 is_stmt 0 discriminator 1
  90 0042 FFF7FEFF 		bl	port_halt
  91              	.LVL3:
  92              	.L4:
  93              		.loc 1 294 0 is_stmt 1
  94 0046 27B1     		cbz	r7, .L5
  95              		.loc 1 294 0 is_stmt 0 discriminator 1
  96 0048 3A68     		ldr	r2, [r7, #0]
  97 004a D8F80430 		ldr	r3, [r8, #4]
  98 004e 9A42     		cmp	r2, r3
  99 0050 21D0     		beq	.L45
 100              	.L5:
 101              		.loc 1 300 0 is_stmt 1
 102 0052 012D     		cmp	r5, #1
 103 0054 24D0     		beq	.L47
 104              		.loc 1 316 0
 105 0056 022D     		cmp	r5, #2
 106 0058 32D0     		beq	.L48
 107              	.L3:
 108              	.LVL4:
 109              	.LBE5:
 110              		.loc 1 283 0
 111 005a 0134     		adds	r4, r4, #1
 112 005c E4B2     		uxtb	r4, r4
 113              	.LVL5:
 114 005e 0A2C     		cmp	r4, #10
ARM GAS  /var/folders/5n/p_75w94d66l9ssrldxqdhh700000gn/T//cc813tB2.s 			page 3


 115 0060 08F11008 		add	r8, r8, #16
 116 0064 DFD1     		bne	.L9
 117              		.loc 1 334 0
 118 0066 0AF00203 		and	r3, sl, #2
 119 006a DBB2     		uxtb	r3, r3
 120 006c 3D46     		mov	r5, r7
 121              	.LVL6:
 122 006e 002B     		cmp	r3, #0
 123 0070 69D1     		bne	.L23
 124              	.LVL7:
 125              		.loc 1 334 0 is_stmt 0 discriminator 1
 126 0072 4FFA89F7 		sxtb	r7, r9
 127 0076 0A2F     		cmp	r7, #10
 128 0078 2BD0     		beq	.L49
 129 007a 3F01     		lsls	r7, r7, #4
 130              		.loc 1 384 0 is_stmt 1
 131 007c F319     		adds	r3, r6, r7
 132              		.loc 1 352 0
 133 007e 5FFA89F4 		uxtb	r4, r9
 134              	.LVL8:
 135              		.loc 1 384 0
 136 0082 9B7B     		ldrb	r3, [r3, #14]	@ zero_extendqisi2
 137 0084 CBB9     		cbnz	r3, .L50
 138              	.LVL9:
 139              	.L19:
 140              		.loc 1 388 0
 141 0086 15B1     		cbz	r5, .L20
 142              		.loc 1 390 0
 143 0088 2A68     		ldr	r2, [r5, #0]
 144 008a F319     		adds	r3, r6, r7
 145 008c 5A60     		str	r2, [r3, #4]
 146              	.L20:
 147              		.loc 1 392 0
 148 008e F619     		adds	r6, r6, r7
 149 0090 0023     		movs	r3, #0
 150 0092 F373     		strb	r3, [r6, #15]
 151 0094 0836     		adds	r6, r6, #8
 152              	.LVL10:
 153              	.L45:
 154              		.loc 1 396 0
 155 0096 E0B2     		uxtb	r0, r4
 156              	.L6:
 157              		.loc 1 397 0
 158 0098 40B2     		sxtb	r0, r0
 159 009a 07B0     		add	sp, sp, #28
 160 009c BDE8F08F 		pop	{r4, r5, r6, r7, r8, r9, sl, fp, pc}
 161              	.LVL11:
 162              	.L47:
 163              	.LBB6:
 164              		.loc 1 302 0
 165 00a0 D8F80030 		ldr	r3, [r8, #0]
 166 00a4 002B     		cmp	r3, #0
 167 00a6 45D0     		beq	.L8
 168              		.loc 1 303 0
 169 00a8 98F80F30 		ldrb	r3, [r8, #15]	@ zero_extendqisi2
 170 00ac 029A     		ldr	r2, [sp, #8]
 171 00ae 9342     		cmp	r3, r2
ARM GAS  /var/folders/5n/p_75w94d66l9ssrldxqdhh700000gn/T//cc813tB2.s 			page 4


 172              		.loc 1 304 0
 173 00b0 24BF     		itt	cs
 174 00b2 5FFA84FB 		uxtbcs	fp, r4
 175              	.LVL12:
 176 00b6 0293     		strcs	r3, [sp, #8]
 177 00b8 CFE7     		b	.L3
 178              	.LVL13:
 179              	.L50:
 180              	.LBE6:
 181              		.loc 1 384 0 discriminator 1
 182 00ba FFF7FEFF 		bl	port_halt
 183              	.LVL14:
 184 00be E2E7     		b	.L19
 185              	.LVL15:
 186              	.L48:
 187              	.LBB7:
 188              		.loc 1 323 0
 189 00c0 039A     		ldr	r2, [sp, #12]
 190 00c2 98F80F30 		ldrb	r3, [r8, #15]	@ zero_extendqisi2
 191 00c6 9342     		cmp	r3, r2
 192              		.loc 1 324 0
 193 00c8 22BF     		ittt	cs
 194 00ca E2B2     		uxtbcs	r2, r4
 195 00cc 0192     		strcs	r2, [sp, #4]
 196              	.LVL16:
 197 00ce 0393     		strcs	r3, [sp, #12]
 198 00d0 C3E7     		b	.L3
 199              	.LVL17:
 200              	.L49:
 201              	.LBE7:
 202              		.loc 1 336 0
 203 00d2 1AF0010F 		tst	sl, #1
 204 00d6 36D0     		beq	.L23
 205              		.loc 1 356 0
 206 00d8 019B     		ldr	r3, [sp, #4]
 207 00da 5FB2     		sxtb	r7, r3
 208 00dc 0A2F     		cmp	r7, #10
 209 00de 1AD0     		beq	.L13
 210              		.loc 1 361 0
 211 00e0 3B01     		lsls	r3, r7, #4
 212              		.loc 1 358 0
 213 00e2 019A     		ldr	r2, [sp, #4]
 214              		.loc 1 361 0
 215 00e4 F358     		ldr	r3, [r6, r3]
 216              		.loc 1 358 0
 217 00e6 D4B2     		uxtb	r4, r2
 218              	.LVL18:
 219              		.loc 1 361 0
 220 00e8 0BB1     		cbz	r3, .L17
 221              	.LVL19:
 222              	.L44:
 223              		.loc 1 379 0 discriminator 1
 224 00ea FFF7FEFF 		bl	port_halt
 225              	.LVL20:
 226              	.L17:
 227              	.LBB8:
 228              	.LBB9:
ARM GAS  /var/folders/5n/p_75w94d66l9ssrldxqdhh700000gn/T//cc813tB2.s 			page 5


 229              		.loc 1 174 0
 230 00ee 3F01     		lsls	r7, r7, #4
 231              	.LVL21:
 232 00f0 F059     		ldr	r0, [r6, r7]
 233 00f2 20B1     		cbz	r0, .L18
 234              		.loc 1 177 0
 235 00f4 FFF7FEFF 		bl	pbuf_free
 236              	.LVL22:
 237              		.loc 1 178 0
 238 00f8 144B     		ldr	r3, .L51
 239 00fa 0022     		movs	r2, #0
 240 00fc DA51     		str	r2, [r3, r7]
 241              	.L18:
 242              		.loc 1 181 0
 243 00fe F319     		adds	r3, r6, r7
 244 0100 0022     		movs	r2, #0
 245              	.LBE9:
 246              	.LBE8:
 247              		.loc 1 383 0
 248 0102 092C     		cmp	r4, #9
 249              	.LBB11:
 250              	.LBB10:
 251              		.loc 1 181 0
 252 0104 9A73     		strb	r2, [r3, #14]
 253              	.LVL23:
 254              	.LBE10:
 255              	.LBE11:
 256              		.loc 1 383 0
 257 0106 BED9     		bls	.L19
 258              		.loc 1 383 0 is_stmt 0 discriminator 1
 259 0108 FFF7FEFF 		bl	port_halt
 260              	.LVL24:
 261              		.loc 1 384 0 is_stmt 1 discriminator 1
 262 010c F319     		adds	r3, r6, r7
 263 010e 9B7B     		ldrb	r3, [r3, #14]	@ zero_extendqisi2
 264 0110 002B     		cmp	r3, #0
 265 0112 B8D0     		beq	.L19
 266 0114 D1E7     		b	.L50
 267              	.L13:
 268              		.loc 1 363 0
 269 0116 049B     		ldr	r3, [sp, #16]
 270 0118 0A2B     		cmp	r3, #10
 271              		.loc 1 365 0
 272 011a 1CBF     		itt	ne
 273 011c DCB2     		uxtbne	r4, r3
 274              	.LVL25:
 275 011e 2746     		movne	r7, r4
 276              		.loc 1 363 0
 277 0120 05D1     		bne	.L16
 278              		.loc 1 368 0
 279 0122 BBF10A0F 		cmp	fp, #10
 280 0126 0ED0     		beq	.L23
 281              		.loc 1 370 0
 282 0128 5FFA8BF4 		uxtb	r4, fp
 283              	.LVL26:
 284 012c 2746     		mov	r7, r4
 285              	.LVL27:
ARM GAS  /var/folders/5n/p_75w94d66l9ssrldxqdhh700000gn/T//cc813tB2.s 			page 6


 286              	.L16:
 287              		.loc 1 379 0
 288 012e 092C     		cmp	r4, #9
 289 0130 DBD8     		bhi	.L44
 290 0132 DCE7     		b	.L17
 291              	.LVL28:
 292              	.L8:
 293              	.LBB12:
 294              		.loc 1 310 0
 295 0134 98F80F30 		ldrb	r3, [r8, #15]	@ zero_extendqisi2
 296 0138 059A     		ldr	r2, [sp, #20]
 297 013a 9342     		cmp	r3, r2
 298 013c 8DD3     		bcc	.L3
 299              		.loc 1 311 0
 300 013e E2B2     		uxtb	r2, r4
 301 0140 0492     		str	r2, [sp, #16]
 302              	.LVL29:
 303 0142 0593     		str	r3, [sp, #20]
 304 0144 89E7     		b	.L3
 305              	.LVL30:
 306              	.L23:
 307              	.LBE12:
 308              		.loc 1 338 0
 309 0146 FF20     		movs	r0, #255
 310 0148 A6E7     		b	.L6
 311              	.L52:
 312 014a 00BF     		.align	2
 313              	.L51:
 314 014c 00000000 		.word	.LANCHOR0
 315              		.cfi_endproc
 316              	.LFE9:
 317              		.size	find_entry, .-find_entry
 318              		.section	.text.etharp_send_ip,"ax",%progbits
 319              		.align	2
 320              		.p2align 4,,15
 321              		.thumb
 322              		.thumb_func
 323              		.type	etharp_send_ip, %function
 324              	etharp_send_ip:
 325              	.LFB10:
 326              		.loc 1 411 0
 327              		.cfi_startproc
 328              		@ args = 0, pretend = 0, frame = 0
 329              		@ frame_needed = 0, uses_anonymous_args = 0
 330              	.LVL31:
 331 0000 2DE9F041 		push	{r4, r5, r6, r7, r8, lr}
 332              	.LCFI2:
 333              		.cfi_def_cfa_offset 24
 334              		.cfi_offset 4, -24
 335              		.cfi_offset 5, -20
 336              		.cfi_offset 6, -16
 337              		.cfi_offset 7, -12
 338              		.cfi_offset 8, -8
 339              		.cfi_offset 14, -4
 340              		.loc 1 411 0
 341 0004 0E46     		mov	r6, r1
 342              		.loc 1 414 0
ARM GAS  /var/folders/5n/p_75w94d66l9ssrldxqdhh700000gn/T//cc813tB2.s 			page 7


 343 0006 90F82210 		ldrb	r1, [r0, #34]	@ zero_extendqisi2
 344              	.LVL32:
 345              		.loc 1 412 0
 346 000a 7468     		ldr	r4, [r6, #4]
 347              	.LVL33:
 348              		.loc 1 414 0
 349 000c 0629     		cmp	r1, #6
 350              		.loc 1 411 0
 351 000e 0546     		mov	r5, r0
 352 0010 1746     		mov	r7, r2
 353 0012 9846     		mov	r8, r3
 354              		.loc 1 414 0
 355 0014 01D0     		beq	.L54
 356              		.loc 1 414 0 is_stmt 0 discriminator 1
 357 0016 FFF7FEFF 		bl	port_halt
 358              	.LVL34:
 359              	.L54:
 360              		.loc 1 416 0 is_stmt 1
 361 001a D8F80030 		ldr	r3, [r8, #0]	@ unaligned
 362 001e 2360     		str	r3, [r4, #0]	@ unaligned
 363 0020 B8F80430 		ldrh	r3, [r8, #4]	@ unaligned
 364 0024 A380     		strh	r3, [r4, #4]	@ unaligned
 365              		.loc 1 417 0
 366 0026 3B68     		ldr	r3, [r7, #0]	@ unaligned
 367 0028 C4F80630 		str	r3, [r4, #6]	@ unaligned
 368 002c BB88     		ldrh	r3, [r7, #4]	@ unaligned
 369 002e 6381     		strh	r3, [r4, #10]	@ unaligned
 370              		.loc 1 418 0
 371 0030 0823     		movs	r3, #8
 372 0032 2373     		strb	r3, [r4, #12]
 373 0034 0023     		movs	r3, #0
 374 0036 6373     		strb	r3, [r4, #13]
 375              		.loc 1 421 0
 376 0038 AB69     		ldr	r3, [r5, #24]
 377 003a 2846     		mov	r0, r5
 378 003c 3146     		mov	r1, r6
 379 003e 9847     		blx	r3
 380              	.LVL35:
 381              		.loc 1 422 0
 382 0040 BDE8F081 		pop	{r4, r5, r6, r7, r8, pc}
 383              		.cfi_endproc
 384              	.LFE10:
 385              		.size	etharp_send_ip, .-etharp_send_ip
 386 0044 AFF30080 		.section	.text.etharp_tmr,"ax",%progbits
 386      AFF30080 
 386      AFF30080 
 387              		.align	2
 388              		.p2align 4,,15
 389              		.global	etharp_tmr
 390              		.thumb
 391              		.thumb_func
 392              		.type	etharp_tmr, %function
 393              	etharp_tmr:
 394              	.LFB8:
 395              		.loc 1 204 0
 396              		.cfi_startproc
 397              		@ args = 0, pretend = 0, frame = 0
ARM GAS  /var/folders/5n/p_75w94d66l9ssrldxqdhh700000gn/T//cc813tB2.s 			page 8


 398              		@ frame_needed = 0, uses_anonymous_args = 0
 399              	.LVL36:
 400 0000 F8B5     		push	{r3, r4, r5, r6, r7, lr}
 401              	.LCFI3:
 402              		.cfi_def_cfa_offset 24
 403              		.cfi_offset 3, -24
 404              		.cfi_offset 4, -20
 405              		.cfi_offset 5, -16
 406              		.cfi_offset 6, -12
 407              		.cfi_offset 7, -8
 408              		.cfi_offset 14, -4
 409 0002 134D     		ldr	r5, .L72
 410 0004 A5F10E04 		sub	r4, r5, #14
 411              		.loc 1 203 0
 412 0008 04F1A006 		add	r6, r4, #160
 413              	.LBB16:
 414              	.LBB17:
 415              	.LBB18:
 416              		.loc 1 181 0
 417 000c 0027     		movs	r7, #0
 418 000e 05E0     		b	.L64
 419              	.LVL37:
 420              	.L71:
 421              	.LBE18:
 422              	.LBE17:
 423              		.loc 1 217 0 discriminator 1
 424 0010 012B     		cmp	r3, #1
 425 0012 1AD0     		beq	.L69
 426              	.L60:
 427 0014 1034     		adds	r4, r4, #16
 428              	.LVL38:
 429 0016 1035     		adds	r5, r5, #16
 430              	.LBE16:
 431              		.loc 1 209 0
 432 0018 B442     		cmp	r4, r6
 433 001a 15D0     		beq	.L70
 434              	.LVL39:
 435              	.L64:
 436              	.LBB21:
 437              		.loc 1 211 0
 438 001c A37B     		ldrb	r3, [r4, #14]	@ zero_extendqisi2
 439 001e 002B     		cmp	r3, #0
 440 0020 F8D0     		beq	.L60
 441              		.loc 1 216 0
 442 0022 E27B     		ldrb	r2, [r4, #15]	@ zero_extendqisi2
 443 0024 0132     		adds	r2, r2, #1
 444 0026 D2B2     		uxtb	r2, r2
 445              		.loc 1 217 0
 446 0028 EF2A     		cmp	r2, #239
 447              		.loc 1 216 0
 448 002a E273     		strb	r2, [r4, #15]
 449              		.loc 1 217 0
 450 002c F0D9     		bls	.L71
 451              	.L61:
 452              	.LBB20:
 453              	.LBB19:
 454              		.loc 1 174 0
ARM GAS  /var/folders/5n/p_75w94d66l9ssrldxqdhh700000gn/T//cc813tB2.s 			page 9


 455 002e 55F80E3C 		ldr	r3, [r5, #-14]
 456              		.loc 1 177 0
 457 0032 1846     		mov	r0, r3
 458              		.loc 1 174 0
 459 0034 1BB1     		cbz	r3, .L63
 460              		.loc 1 177 0
 461 0036 FFF7FEFF 		bl	pbuf_free
 462              	.LVL40:
 463              		.loc 1 178 0
 464 003a 45F80E7C 		str	r7, [r5, #-14]
 465              	.L63:
 466              		.loc 1 181 0
 467 003e A773     		strb	r7, [r4, #14]
 468 0040 1034     		adds	r4, r4, #16
 469 0042 1035     		adds	r5, r5, #16
 470              	.LBE19:
 471              	.LBE20:
 472              	.LBE21:
 473              		.loc 1 209 0
 474 0044 B442     		cmp	r4, r6
 475 0046 E9D1     		bne	.L64
 476              	.L70:
 477              		.loc 1 234 0
 478 0048 F8BD     		pop	{r3, r4, r5, r6, r7, pc}
 479              	.LVL41:
 480              	.L69:
 481              	.LBB22:
 482              		.loc 1 218 0
 483 004a 012A     		cmp	r2, #1
 484 004c EFD8     		bhi	.L61
 485 004e E1E7     		b	.L60
 486              	.L73:
 487              		.align	2
 488              	.L72:
 489 0050 0E000000 		.word	.LANCHOR0+14
 490              	.LBE22:
 491              		.cfi_endproc
 492              	.LFE8:
 493              		.size	etharp_tmr, .-etharp_tmr
 494 0054 AFF30080 		.section	.text.etharp_find_addr,"ax",%progbits
 494      AFF30080 
 494      AFF30080 
 495              		.align	2
 496              		.p2align 4,,15
 497              		.global	etharp_find_addr
 498              		.thumb
 499              		.thumb_func
 500              		.type	etharp_find_addr, %function
 501              	etharp_find_addr:
 502              	.LFB12:
 503              		.loc 1 585 0
 504              		.cfi_startproc
 505              		@ args = 0, pretend = 0, frame = 0
 506              		@ frame_needed = 0, uses_anonymous_args = 0
 507              	.LVL42:
 508              		.loc 1 588 0
 509 0000 002A     		cmp	r2, #0
ARM GAS  /var/folders/5n/p_75w94d66l9ssrldxqdhh700000gn/T//cc813tB2.s 			page 10


 510 0002 18BF     		it	ne
 511 0004 002B     		cmpne	r3, #0
 512              		.loc 1 585 0
 513 0006 70B5     		push	{r4, r5, r6, lr}
 514              	.LCFI4:
 515              		.cfi_def_cfa_offset 16
 516              		.cfi_offset 4, -16
 517              		.cfi_offset 5, -12
 518              		.cfi_offset 6, -8
 519              		.cfi_offset 14, -4
 520              		.loc 1 588 0
 521 0008 1C46     		mov	r4, r3
 522 000a 1546     		mov	r5, r2
 523              		.loc 1 585 0
 524 000c 0E46     		mov	r6, r1
 525              		.loc 1 588 0
 526 000e 12D0     		beq	.L82
 527              	.LVL43:
 528              	.L75:
 529              		.loc 1 593 0
 530 0010 0221     		movs	r1, #2
 531 0012 3046     		mov	r0, r6
 532 0014 FFF7FEFF 		bl	find_entry
 533              	.LVL44:
 534              		.loc 1 594 0
 535 0018 0028     		cmp	r0, #0
 536              	.LVL45:
 537 001a 0FDB     		blt	.L78
 538              		.loc 1 594 0 is_stmt 0 discriminator 1
 539 001c 094A     		ldr	r2, .L83
 540 001e 0101     		lsls	r1, r0, #4
 541 0020 5318     		adds	r3, r2, r1
 542 0022 9E7B     		ldrb	r6, [r3, #14]	@ zero_extendqisi2
 543              	.LVL46:
 544 0024 022E     		cmp	r6, #2
 545 0026 09D1     		bne	.L78
 546              		.loc 1 595 0 is_stmt 1
 547 0028 0831     		adds	r1, r1, #8
 548 002a 5218     		adds	r2, r2, r1
 549              		.loc 1 596 0
 550 002c 0433     		adds	r3, r3, #4
 551              		.loc 1 595 0
 552 002e 2A60     		str	r2, [r5, #0]
 553              		.loc 1 600 0
 554 0030 40B2     		sxtb	r0, r0
 555              		.loc 1 596 0
 556 0032 2360     		str	r3, [r4, #0]
 557              		.loc 1 600 0
 558 0034 70BD     		pop	{r4, r5, r6, pc}
 559              	.LVL47:
 560              	.L82:
 561              		.loc 1 588 0 discriminator 1
 562 0036 FFF7FEFF 		bl	port_halt
 563              	.LVL48:
 564 003a E9E7     		b	.L75
 565              	.LVL49:
 566              	.L78:
ARM GAS  /var/folders/5n/p_75w94d66l9ssrldxqdhh700000gn/T//cc813tB2.s 			page 11


 567              		.loc 1 599 0
 568 003c FF20     		movs	r0, #255
 569              		.loc 1 600 0
 570 003e 40B2     		sxtb	r0, r0
 571 0040 70BD     		pop	{r4, r5, r6, pc}
 572              	.L84:
 573 0042 00BF     		.align	2
 574              	.L83:
 575 0044 00000000 		.word	.LANCHOR0
 576              		.cfi_endproc
 577              	.LFE12:
 578              		.size	etharp_find_addr, .-etharp_find_addr
 579 0048 AFF30080 		.section	.text.etharp_request,"ax",%progbits
 579      AFF30080 
 580              		.align	2
 581              		.p2align 4,,15
 582              		.global	etharp_request
 583              		.thumb
 584              		.thumb_func
 585              		.type	etharp_request, %function
 586              	etharp_request:
 587              	.LFB17:
 588              		.loc 1 1199 0
 589              		.cfi_startproc
 590              		@ args = 0, pretend = 0, frame = 0
 591              		@ frame_needed = 0, uses_anonymous_args = 0
 592              	.LVL50:
 593 0000 2DE9F843 		push	{r3, r4, r5, r6, r7, r8, r9, lr}
 594              	.LCFI5:
 595              		.cfi_def_cfa_offset 32
 596              		.cfi_offset 3, -32
 597              		.cfi_offset 4, -28
 598              		.cfi_offset 5, -24
 599              		.cfi_offset 6, -20
 600              		.cfi_offset 7, -16
 601              		.cfi_offset 8, -12
 602              		.cfi_offset 9, -8
 603              		.cfi_offset 14, -4
 604              	.LBB25:
 605              	.LBB26:
 606              		.loc 1 1131 0
 607 0004 0022     		movs	r2, #0
 608              	.LBE26:
 609              	.LBE25:
 610              		.loc 1 1199 0
 611 0006 0546     		mov	r5, r0
 612 0008 8846     		mov	r8, r1
 613              	.LBB35:
 614              	.LBB27:
 615              		.loc 1 1131 0
 616 000a 0320     		movs	r0, #3
 617              	.LVL51:
 618 000c 2A21     		movs	r1, #42
 619              	.LVL52:
 620 000e FFF7FEFF 		bl	pbuf_alloc
 621              	.LVL53:
 622              	.LBE27:
ARM GAS  /var/folders/5n/p_75w94d66l9ssrldxqdhh700000gn/T//cc813tB2.s 			page 12


 623              	.LBE35:
 624              		.loc 1 1202 0
 625 0012 05F12307 		add	r7, r5, #35
 626              	.LBB36:
 627              	.LBB28:
 628              		.loc 1 1133 0
 629 0016 0646     		mov	r6, r0
 630              	.LBE28:
 631              	.LBE36:
 632              		.loc 1 1202 0
 633 0018 05F10409 		add	r9, r5, #4
 634              	.LVL54:
 635              	.LBB37:
 636              	.LBB29:
 637              		.loc 1 1133 0
 638 001c 0028     		cmp	r0, #0
 639 001e 49D0     		beq	.L93
 640              		.loc 1 1139 0
 641 0020 4389     		ldrh	r3, [r0, #10]
 642 0022 292B     		cmp	r3, #41
 643 0024 43D9     		bls	.L94
 644              	.LVL55:
 645              	.L88:
 646              		.loc 1 1145 0
 647 0026 0120     		movs	r0, #1
 648              		.loc 1 1142 0
 649 0028 7468     		ldr	r4, [r6, #4]
 650              	.LVL56:
 651              		.loc 1 1145 0
 652 002a FFF7FEFF 		bl	lwip_htons
 653              	.LVL57:
 654 002e A082     		strh	r0, [r4, #20]	@ unaligned
 655              		.loc 1 1147 0
 656 0030 95F82230 		ldrb	r3, [r5, #34]	@ zero_extendqisi2
 657 0034 062B     		cmp	r3, #6
 658 0036 01D0     		beq	.L89
 659 0038 FFF7FEFF 		bl	port_halt
 660              	.LVL58:
 661              	.L89:
 662              	.LBE29:
 663              		.loc 1 1201 0
 664 003c 204A     		ldr	r2, .L95
 665              	.LBB30:
 666              		.loc 1 1156 0
 667 003e 3968     		ldr	r1, [r7, #0]	@ unaligned
 668              	.LBE30:
 669              		.loc 1 1157 0
 670 0040 1068     		ldr	r0, [r2, #0]	@ unaligned
 671              		.loc 1 1201 0
 672 0042 204B     		ldr	r3, .L95+4
 673              	.LBB31:
 674              		.loc 1 1156 0
 675 0044 C4F81610 		str	r1, [r4, #22]	@ unaligned
 676 0048 B7F804E0 		ldrh	lr, [r7, #4]	@ unaligned
 677              	.LBE31:
 678              		.loc 1 1157 0
 679 004c 9188     		ldrh	r1, [r2, #4]	@ unaligned
ARM GAS  /var/folders/5n/p_75w94d66l9ssrldxqdhh700000gn/T//cc813tB2.s 			page 13


 680 004e 2062     		str	r0, [r4, #32]	@ unaligned
 681              		.loc 1 1162 0
 682 0050 9A88     		ldrh	r2, [r3, #4]	@ unaligned
 683 0052 1868     		ldr	r0, [r3, #0]	@ unaligned
 684              		.loc 1 1157 0
 685 0054 A184     		strh	r1, [r4, #36]	@ unaligned
 686              		.loc 1 1162 0
 687 0056 A280     		strh	r2, [r4, #4]	@ unaligned
 688              	.LBB32:
 689              		.loc 1 1156 0
 690 0058 A4F81AE0 		strh	lr, [r4, #26]	@ unaligned
 691              	.LBE32:
 692              		.loc 1 1162 0
 693 005c 2060     		str	r0, [r4, #0]	@ unaligned
 694              	.LBB33:
 695              		.loc 1 1164 0
 696 005e 3B68     		ldr	r3, [r7, #0]	@ unaligned
 697 0060 C4F80630 		str	r3, [r4, #6]	@ unaligned
 698 0064 BB88     		ldrh	r3, [r7, #4]	@ unaligned
 699 0066 6381     		strh	r3, [r4, #10]	@ unaligned
 700              		.loc 1 1167 0
 701 0068 D9F80030 		ldr	r3, [r9, #0]	@ unaligned
 702 006c E361     		str	r3, [r4, #28]	@ unaligned
 703              		.loc 1 1168 0
 704 006e D8F80000 		ldr	r0, [r8, #0]	@ unaligned
 705              		.loc 1 1170 0
 706 0072 0021     		movs	r1, #0
 707              		.loc 1 1171 0
 708 0074 0822     		movs	r2, #8
 709              		.loc 1 1168 0
 710 0076 C4F82600 		str	r0, [r4, #38]	@ unaligned
 711              		.loc 1 1170 0
 712 007a A173     		strb	r1, [r4, #14]
 713              		.loc 1 1171 0
 714 007c 6174     		strb	r1, [r4, #17]
 715              		.loc 1 1173 0
 716 007e 0623     		movs	r3, #6
 717              		.loc 1 1170 0
 718 0080 0120     		movs	r0, #1
 719              		.loc 1 1174 0
 720 0082 0421     		movs	r1, #4
 721              		.loc 1 1170 0
 722 0084 E073     		strb	r0, [r4, #15]
 723              		.loc 1 1171 0
 724 0086 2274     		strb	r2, [r4, #16]
 725              		.loc 1 1174 0
 726 0088 E174     		strb	r1, [r4, #19]
 727              		.loc 1 1176 0
 728 008a 2273     		strb	r2, [r4, #12]
 729              		.loc 1 1173 0
 730 008c A374     		strb	r3, [r4, #18]
 731              		.loc 1 1176 0
 732 008e 6373     		strb	r3, [r4, #13]
 733              		.loc 1 1178 0
 734 0090 AB69     		ldr	r3, [r5, #24]
 735 0092 2846     		mov	r0, r5
 736 0094 3146     		mov	r1, r6
ARM GAS  /var/folders/5n/p_75w94d66l9ssrldxqdhh700000gn/T//cc813tB2.s 			page 14


 737 0096 9847     		blx	r3
 738              	.LVL59:
 739              		.loc 1 1179 0
 740 0098 0B4B     		ldr	r3, .L95+8
 741 009a 1A8B     		ldrh	r2, [r3, #24]
 742              		.loc 1 1178 0
 743 009c 0446     		mov	r4, r0
 744              	.LVL60:
 745              		.loc 1 1179 0
 746 009e 0132     		adds	r2, r2, #1
 747              		.loc 1 1181 0
 748 00a0 3046     		mov	r0, r6
 749              	.LVL61:
 750              		.loc 1 1179 0
 751 00a2 1A83     		strh	r2, [r3, #24]	@ movhi
 752              		.loc 1 1181 0
 753 00a4 FFF7FEFF 		bl	pbuf_free
 754              	.LVL62:
 755              	.L87:
 756              	.LBE33:
 757              	.LBE37:
 758              		.loc 1 1204 0
 759 00a8 60B2     		sxtb	r0, r4
 760 00aa BDE8F883 		pop	{r3, r4, r5, r6, r7, r8, r9, pc}
 761              	.LVL63:
 762              	.L94:
 763              	.LBB38:
 764              	.LBB34:
 765              		.loc 1 1139 0
 766 00ae FFF7FEFF 		bl	port_halt
 767              	.LVL64:
 768 00b2 B8E7     		b	.L88
 769              	.LVL65:
 770              	.L93:
 771              		.loc 1 1136 0
 772 00b4 044B     		ldr	r3, .L95+8
 773 00b6 9A8C     		ldrh	r2, [r3, #36]
 774 00b8 0132     		adds	r2, r2, #1
 775 00ba 9A84     		strh	r2, [r3, #36]	@ movhi
 776              		.loc 1 1137 0
 777 00bc FF24     		movs	r4, #255
 778 00be F3E7     		b	.L87
 779              	.L96:
 780              		.align	2
 781              	.L95:
 782 00c0 00000000 		.word	.LANCHOR1
 783 00c4 00000000 		.word	.LANCHOR2
 784 00c8 00000000 		.word	lwip_stats
 785              	.LBE34:
 786              	.LBE38:
 787              		.cfi_endproc
 788              	.LFE17:
 789              		.size	etharp_request, .-etharp_request
 790 00cc AFF30080 		.section	.text.etharp_query,"ax",%progbits
 791              		.align	2
 792              		.p2align 4,,15
 793              		.global	etharp_query
ARM GAS  /var/folders/5n/p_75w94d66l9ssrldxqdhh700000gn/T//cc813tB2.s 			page 15


 794              		.thumb
 795              		.thumb_func
 796              		.type	etharp_query, %function
 797              	etharp_query:
 798              	.LFB15:
 799              		.loc 1 958 0
 800              		.cfi_startproc
 801              		@ args = 0, pretend = 0, frame = 0
 802              		@ frame_needed = 0, uses_anonymous_args = 0
 803              	.LVL66:
 804 0000 2DE9F047 		push	{r4, r5, r6, r7, r8, r9, sl, lr}
 805              	.LCFI6:
 806              		.cfi_def_cfa_offset 32
 807              		.cfi_offset 4, -32
 808              		.cfi_offset 5, -28
 809              		.cfi_offset 6, -24
 810              		.cfi_offset 7, -20
 811              		.cfi_offset 8, -16
 812              		.cfi_offset 9, -12
 813              		.cfi_offset 10, -8
 814              		.cfi_offset 14, -4
 815              		.loc 1 958 0
 816 0004 0C46     		mov	r4, r1
 817 0006 0646     		mov	r6, r0
 818              	.LVL67:
 819              		.loc 1 964 0
 820 0008 0146     		mov	r1, r0
 821              	.LVL68:
 822 000a 2068     		ldr	r0, [r4, #0]
 823              	.LVL69:
 824              		.loc 1 958 0
 825 000c 1746     		mov	r7, r2
 826              		.loc 1 964 0
 827 000e FFF7FEFF 		bl	ip4_addr_isbroadcast
 828              	.LVL70:
 829 0012 0028     		cmp	r0, #0
 830 0014 42D1     		bne	.L118
 831              		.loc 1 965 0 discriminator 1
 832 0016 2368     		ldr	r3, [r4, #0]
 833 0018 03F0F002 		and	r2, r3, #240
 834              		.loc 1 964 0 discriminator 1
 835 001c E02A     		cmp	r2, #224
 836 001e 3DD0     		beq	.L118
 837              		.loc 1 966 0
 838 0020 002B     		cmp	r3, #0
 839 0022 3BD0     		beq	.L118
 840              		.loc 1 972 0
 841 0024 0121     		movs	r1, #1
 842 0026 2046     		mov	r0, r4
 843 0028 FFF7FEFF 		bl	find_entry
 844              	.LVL71:
 845              		.loc 1 975 0
 846 002c 051E     		subs	r5, r0, #0
 847 002e 2CDB     		blt	.L148
 848              		.loc 1 985 0
 849 0030 DFF80C81 		ldr	r8, .L154+8
 850 0034 4FEA0519 		lsl	r9, r5, #4
ARM GAS  /var/folders/5n/p_75w94d66l9ssrldxqdhh700000gn/T//cc813tB2.s 			page 16


 851 0038 08EB090A 		add	sl, r8, r9
 852 003c 0AF1080A 		add	sl, sl, #8
 853 0040 9AF80630 		ldrb	r3, [sl, #6]	@ zero_extendqisi2
 854 0044 73B1     		cbz	r3, .L149
 855              		.loc 1 990 0
 856 0046 5A1E     		subs	r2, r3, #1
 857 0048 012A     		cmp	r2, #1
 858 004a 03D9     		bls	.L102
 859              		.loc 1 990 0 is_stmt 0 discriminator 1
 860 004c FFF7FEFF 		bl	port_halt
 861              	.LVL72:
 862 0050 9AF80630 		ldrb	r3, [sl, #6]	@ zero_extendqisi2
 863              	.L102:
 864              		.loc 1 995 0 is_stmt 1
 865 0054 012B     		cmp	r3, #1
 866 0056 08D0     		beq	.L101
 867              		.loc 1 995 0 is_stmt 0 discriminator 1
 868 0058 002F     		cmp	r7, #0
 869 005a 42D0     		beq	.L150
 870              		.loc 1 1012 0 is_stmt 1
 871 005c 022B     		cmp	r3, #2
 872 005e 33D0     		beq	.L113
 873              		.loc 1 960 0
 874 0060 FF25     		movs	r5, #255
 875 0062 0FE0     		b	.L98
 876              	.LVL73:
 877              	.L149:
 878              		.loc 1 986 0
 879 0064 0123     		movs	r3, #1
 880 0066 8AF80630 		strb	r3, [sl, #6]
 881              	.LVL74:
 882              	.L101:
 883              		.loc 1 997 0
 884 006a 3046     		mov	r0, r6
 885 006c 2146     		mov	r1, r4
 886 006e FFF7FEFF 		bl	etharp_request
 887              	.LVL75:
 888              		.loc 1 1004 0
 889 0072 37B1     		cbz	r7, .L120
 890              		.loc 1 1012 0
 891 0074 08EB0903 		add	r3, r8, r9
 892 0078 9B7B     		ldrb	r3, [r3, #14]	@ zero_extendqisi2
 893 007a 022B     		cmp	r3, #2
 894 007c 24D0     		beq	.L113
 895              		.loc 1 1018 0
 896 007e 012B     		cmp	r3, #1
 897 0080 10D0     		beq	.L151
 898              	.L120:
 899              		.loc 1 997 0
 900 0082 0546     		mov	r5, r0
 901              	.LVL76:
 902              	.L98:
 903 0084 68B2     		sxtb	r0, r5
 904 0086 BDE8F087 		pop	{r4, r5, r6, r7, r8, r9, sl, pc}
 905              	.LVL77:
 906              	.L148:
 907              		.loc 1 977 0
ARM GAS  /var/folders/5n/p_75w94d66l9ssrldxqdhh700000gn/T//cc813tB2.s 			page 17


 908 008a 002F     		cmp	r7, #0
 909 008c FAD0     		beq	.L98
 910              		.loc 1 979 0
 911 008e 2A4B     		ldr	r3, .L154
 912 0090 9A8C     		ldrh	r2, [r3, #36]
 913 0092 0132     		adds	r2, r2, #1
 914 0094 9A84     		strh	r2, [r3, #36]	@ movhi
 915 0096 68B2     		sxtb	r0, r5
 916              	.LVL78:
 917 0098 BDE8F087 		pop	{r4, r5, r6, r7, r8, r9, sl, pc}
 918              	.L118:
 919              		.loc 1 968 0
 920 009c F225     		movs	r5, #242
 921 009e 68B2     		sxtb	r0, r5
 922 00a0 BDE8F087 		pop	{r4, r5, r6, r7, r8, r9, sl, pc}
 923              	.LVL79:
 924              	.L151:
 925              		.loc 1 1018 0
 926 00a4 3C46     		mov	r4, r7
 927              	.LVL80:
 928 00a6 05E0     		b	.L108
 929              	.LVL81:
 930              	.L106:
 931              	.LBB39:
 932              		.loc 1 1028 0
 933 00a8 257B     		ldrb	r5, [r4, #12]	@ zero_extendqisi2
 934 00aa 012D     		cmp	r5, #1
 935 00ac 1FD1     		bne	.L107
 936              		.loc 1 1032 0
 937 00ae 2468     		ldr	r4, [r4, #0]
 938              	.LVL82:
 939              		.loc 1 1026 0
 940 00b0 002C     		cmp	r4, #0
 941 00b2 32D0     		beq	.L152
 942              	.LVL83:
 943              	.L108:
 944              		.loc 1 1027 0
 945 00b4 6689     		ldrh	r6, [r4, #10]
 946 00b6 2589     		ldrh	r5, [r4, #8]
 947 00b8 AE42     		cmp	r6, r5
 948 00ba F5D1     		bne	.L106
 949              		.loc 1 1027 0 is_stmt 0 discriminator 1
 950 00bc 2368     		ldr	r3, [r4, #0]
 951 00be 002B     		cmp	r3, #0
 952 00c0 F2D0     		beq	.L106
 953              		.loc 1 1027 0 discriminator 2
 954 00c2 FFF7FEFF 		bl	port_halt
 955              	.LVL84:
 956 00c6 EFE7     		b	.L106
 957              	.LVL85:
 958              	.L113:
 959              	.LBE39:
 960              		.loc 1 1016 0 is_stmt 1
 961 00c8 09F10803 		add	r3, r9, #8
 962              		.loc 1 1014 0
 963 00cc 1B4C     		ldr	r4, .L154+4
 964              	.LVL86:
ARM GAS  /var/folders/5n/p_75w94d66l9ssrldxqdhh700000gn/T//cc813tB2.s 			page 18


 965              		.loc 1 1016 0
 966 00ce 3046     		mov	r0, r6
 967 00d0 3946     		mov	r1, r7
 968 00d2 06F12302 		add	r2, r6, #35
 969 00d6 4344     		add	r3, r8, r3
 970              		.loc 1 1014 0
 971 00d8 2570     		strb	r5, [r4, #0]
 972              		.loc 1 1095 0
 973 00da BDE8F047 		pop	{r4, r5, r6, r7, r8, r9, sl, lr}
 974              		.loc 1 1016 0
 975 00de FFF7FEBF 		b	etharp_send_ip
 976              	.LVL87:
 977              	.L150:
 978              		.loc 1 997 0
 979 00e2 3046     		mov	r0, r6
 980 00e4 2146     		mov	r1, r4
 981              		.loc 1 1095 0
 982 00e6 BDE8F047 		pop	{r4, r5, r6, r7, r8, r9, sl, lr}
 983              		.loc 1 997 0
 984 00ea FFF7FEBF 		b	etharp_request
 985              	.LVL88:
 986              	.L107:
 987              	.LBB40:
 988              		.loc 1 1036 0
 989 00ee 2189     		ldrh	r1, [r4, #8]
 990 00f0 0320     		movs	r0, #3
 991 00f2 0022     		movs	r2, #0
 992 00f4 FFF7FEFF 		bl	pbuf_alloc
 993              	.LVL89:
 994              		.loc 1 1037 0
 995 00f8 0446     		mov	r4, r0
 996 00fa B0B1     		cbz	r0, .L111
 997              		.loc 1 1038 0
 998 00fc 3946     		mov	r1, r7
 999 00fe FFF7FEFF 		bl	pbuf_copy
 1000              	.LVL90:
 1001 0102 78B9     		cbnz	r0, .L153
 1002              	.LVL91:
 1003              	.L110:
 1004              		.loc 1 1080 0
 1005 0104 58F80900 		ldr	r0, [r8, r9]
 1006 0108 08B1     		cbz	r0, .L112
 1007              		.loc 1 1082 0
 1008 010a FFF7FEFF 		bl	pbuf_free
 1009              	.LVL92:
 1010              	.L112:
 1011              		.loc 1 1085 0
 1012 010e 0025     		movs	r5, #0
 1013              		.loc 1 1084 0
 1014 0110 48F80940 		str	r4, [r8, r9]
 1015              	.LVL93:
 1016 0114 68B2     		sxtb	r0, r5
 1017 0116 BDE8F087 		pop	{r4, r5, r6, r7, r8, r9, sl, pc}
 1018              	.LVL94:
 1019              	.L152:
 1020              		.loc 1 1046 0
 1021 011a 3846     		mov	r0, r7
ARM GAS  /var/folders/5n/p_75w94d66l9ssrldxqdhh700000gn/T//cc813tB2.s 			page 19


 1022 011c FFF7FEFF 		bl	pbuf_ref
 1023              	.LVL95:
 1024 0120 3C46     		mov	r4, r7
 1025 0122 EFE7     		b	.L110
 1026              	.LVL96:
 1027              	.L153:
 1028              		.loc 1 1039 0
 1029 0124 2046     		mov	r0, r4
 1030 0126 FFF7FEFF 		bl	pbuf_free
 1031              	.LVL97:
 1032              	.L111:
 1033              		.loc 1 1089 0
 1034 012a 034B     		ldr	r3, .L154
 1035 012c 9A8C     		ldrh	r2, [r3, #36]
 1036 012e 0132     		adds	r2, r2, #1
 1037 0130 9A84     		strh	r2, [r3, #36]	@ movhi
 1038              	.LVL98:
 1039              		.loc 1 1091 0
 1040 0132 FF25     		movs	r5, #255
 1041 0134 A6E7     		b	.L98
 1042              	.L155:
 1043 0136 00BF     		.align	2
 1044              	.L154:
 1045 0138 00000000 		.word	lwip_stats
 1046 013c 00000000 		.word	.LANCHOR3
 1047 0140 00000000 		.word	.LANCHOR0
 1048              	.LBE40:
 1049              		.cfi_endproc
 1050              	.LFE15:
 1051              		.size	etharp_query, .-etharp_query
 1052 0144 AFF30080 		.section	.text.etharp_output,"ax",%progbits
 1052      AFF30080 
 1052      AFF30080 
 1053              		.align	2
 1054              		.p2align 4,,15
 1055              		.global	etharp_output
 1056              		.thumb
 1057              		.thumb_func
 1058              		.type	etharp_output, %function
 1059              	etharp_output:
 1060              	.LFB14:
 1061              		.loc 1 838 0
 1062              		.cfi_startproc
 1063              		@ args = 0, pretend = 0, frame = 8
 1064              		@ frame_needed = 0, uses_anonymous_args = 0
 1065              	.LVL99:
 1066 0000 F0B5     		push	{r4, r5, r6, r7, lr}
 1067              	.LCFI7:
 1068              		.cfi_def_cfa_offset 20
 1069              		.cfi_offset 4, -20
 1070              		.cfi_offset 5, -16
 1071              		.cfi_offset 6, -12
 1072              		.cfi_offset 7, -8
 1073              		.cfi_offset 14, -4
 1074 0002 0E46     		mov	r6, r1
 1075 0004 83B0     		sub	sp, sp, #12
 1076              	.LCFI8:
ARM GAS  /var/folders/5n/p_75w94d66l9ssrldxqdhh700000gn/T//cc813tB2.s 			page 20


 1077              		.cfi_def_cfa_offset 32
 1078              		.loc 1 838 0
 1079 0006 0446     		mov	r4, r0
 1080              		.loc 1 842 0
 1081 0008 0E21     		movs	r1, #14
 1082              	.LVL100:
 1083 000a 3046     		mov	r0, r6
 1084              	.LVL101:
 1085              		.loc 1 838 0
 1086 000c 1546     		mov	r5, r2
 1087              		.loc 1 842 0
 1088 000e FFF7FEFF 		bl	pbuf_header
 1089              	.LVL102:
 1090 0012 0028     		cmp	r0, #0
 1091 0014 4AD1     		bne	.L168
 1092              	.LVL103:
 1093              		.loc 1 856 0
 1094 0016 2868     		ldr	r0, [r5, #0]
 1095 0018 2146     		mov	r1, r4
 1096 001a FFF7FEFF 		bl	ip4_addr_isbroadcast
 1097              	.LVL104:
 1098 001e 0028     		cmp	r0, #0
 1099 0020 27D1     		bne	.L163
 1100              		.loc 1 860 0
 1101 0022 2B68     		ldr	r3, [r5, #0]
 1102 0024 03F0F002 		and	r2, r3, #240
 1103 0028 E02A     		cmp	r2, #224
 1104 002a 2AD0     		beq	.L169
 1105              		.loc 1 873 0
 1106 002c 6168     		ldr	r1, [r4, #4]
 1107 002e A268     		ldr	r2, [r4, #8]
 1108 0030 5940     		eors	r1, r1, r3
 1109 0032 1142     		tst	r1, r2
 1110 0034 09D0     		beq	.L161
 1111              		.loc 1 874 0 discriminator 1
 1112 0036 9BB2     		uxth	r3, r3
 1113              		.loc 1 873 0 discriminator 1
 1114 0038 4FF6A962 		movw	r2, #65193
 1115 003c 9342     		cmp	r3, r2
 1116 003e 04D0     		beq	.L161
 1117              		.loc 1 886 0
 1118 0040 E368     		ldr	r3, [r4, #12]
 1119 0042 04F10C05 		add	r5, r4, #12
 1120              	.LVL105:
 1121 0046 002B     		cmp	r3, #0
 1122 0048 36D0     		beq	.L164
 1123              	.L161:
 1124              	.LVL106:
 1125              		.loc 1 902 0
 1126 004a 234A     		ldr	r2, .L171
 1127 004c 234B     		ldr	r3, .L171+4
 1128 004e 1178     		ldrb	r1, [r2, #0]	@ zero_extendqisi2
 1129 0050 0901     		lsls	r1, r1, #4
 1130 0052 5A18     		adds	r2, r3, r1
 1131 0054 907B     		ldrb	r0, [r2, #14]	@ zero_extendqisi2
 1132 0056 0228     		cmp	r0, #2
 1133 0058 03D1     		bne	.L162
ARM GAS  /var/folders/5n/p_75w94d66l9ssrldxqdhh700000gn/T//cc813tB2.s 			page 21


 1134              		.loc 1 902 0 is_stmt 0 discriminator 1
 1135 005a 2868     		ldr	r0, [r5, #0]
 1136 005c 5268     		ldr	r2, [r2, #4]
 1137 005e 9042     		cmp	r0, r2
 1138 0060 2CD0     		beq	.L170
 1139              	.L162:
 1140              		.loc 1 914 0 is_stmt 1
 1141 0062 2046     		mov	r0, r4
 1142 0064 2946     		mov	r1, r5
 1143 0066 3246     		mov	r2, r6
 1144 0068 FFF7FEFF 		bl	etharp_query
 1145              	.LVL107:
 1146              	.L158:
 1147              		.loc 1 921 0
 1148 006c 40B2     		sxtb	r0, r0
 1149 006e 03B0     		add	sp, sp, #12
 1150 0070 F0BD     		pop	{r4, r5, r6, r7, pc}
 1151              	.LVL108:
 1152              	.L163:
 1153              		.loc 1 858 0
 1154 0072 1B4B     		ldr	r3, .L171+8
 1155              	.LVL109:
 1156              	.L159:
 1157              		.loc 1 920 0
 1158 0074 2046     		mov	r0, r4
 1159 0076 3146     		mov	r1, r6
 1160 0078 04F12302 		add	r2, r4, #35
 1161 007c FFF7FEFF 		bl	etharp_send_ip
 1162              	.LVL110:
 1163 0080 F4E7     		b	.L158
 1164              	.LVL111:
 1165              	.L169:
 1166              		.loc 1 865 0
 1167 0082 6978     		ldrb	r1, [r5, #1]	@ zero_extendqisi2
 1168              		.loc 1 867 0
 1169 0084 EB78     		ldrb	r3, [r5, #3]	@ zero_extendqisi2
 1170              		.loc 1 866 0
 1171 0086 AA78     		ldrb	r2, [r5, #2]	@ zero_extendqisi2
 1172              		.loc 1 863 0
 1173 0088 8DF80100 		strb	r0, [sp, #1]
 1174              		.loc 1 862 0
 1175 008c 0120     		movs	r0, #1
 1176              		.loc 1 865 0
 1177 008e 01F07F01 		and	r1, r1, #127
 1178              		.loc 1 862 0
 1179 0092 8DF80000 		strb	r0, [sp, #0]
 1180              		.loc 1 864 0
 1181 0096 5E20     		movs	r0, #94
 1182              		.loc 1 867 0
 1183 0098 8DF80530 		strb	r3, [sp, #5]
 1184              	.LVL112:
 1185              		.loc 1 864 0
 1186 009c 8DF80200 		strb	r0, [sp, #2]
 1187              		.loc 1 865 0
 1188 00a0 8DF80310 		strb	r1, [sp, #3]
 1189              		.loc 1 866 0
 1190 00a4 8DF80420 		strb	r2, [sp, #4]
ARM GAS  /var/folders/5n/p_75w94d66l9ssrldxqdhh700000gn/T//cc813tB2.s 			page 22


 1191              		.loc 1 869 0
 1192 00a8 6B46     		mov	r3, sp
 1193 00aa E3E7     		b	.L159
 1194              	.LVL113:
 1195              	.L168:
 1196              		.loc 1 846 0
 1197 00ac 0D4B     		ldr	r3, .L171+12
 1198 00ae 5A89     		ldrh	r2, [r3, #10]
 1199 00b0 0132     		adds	r2, r2, #1
 1200 00b2 5A81     		strh	r2, [r3, #10]	@ movhi
 1201              		.loc 1 847 0
 1202 00b4 FE20     		movs	r0, #254
 1203 00b6 D9E7     		b	.L158
 1204              	.LVL114:
 1205              	.L164:
 1206              		.loc 1 892 0
 1207 00b8 FC20     		movs	r0, #252
 1208 00ba D7E7     		b	.L158
 1209              	.LVL115:
 1210              	.L170:
 1211              		.loc 1 905 0
 1212 00bc 094D     		ldr	r5, .L171+12
 1213              	.LVL116:
 1214 00be EA8D     		ldrh	r2, [r5, #46]
 1215              		.loc 1 906 0
 1216 00c0 01F10807 		add	r7, r1, #8
 1217 00c4 2046     		mov	r0, r4
 1218 00c6 3146     		mov	r1, r6
 1219              		.loc 1 905 0
 1220 00c8 541C     		adds	r4, r2, #1
 1221              	.LVL117:
 1222              		.loc 1 906 0
 1223 00ca DB19     		adds	r3, r3, r7
 1224 00cc 00F12302 		add	r2, r0, #35
 1225              		.loc 1 905 0
 1226 00d0 EC85     		strh	r4, [r5, #46]	@ movhi
 1227              		.loc 1 906 0
 1228 00d2 FFF7FEFF 		bl	etharp_send_ip
 1229              	.LVL118:
 1230 00d6 C9E7     		b	.L158
 1231              	.L172:
 1232              		.align	2
 1233              	.L171:
 1234 00d8 00000000 		.word	.LANCHOR3
 1235 00dc 00000000 		.word	.LANCHOR0
 1236 00e0 00000000 		.word	.LANCHOR2
 1237 00e4 00000000 		.word	lwip_stats
 1238              		.cfi_endproc
 1239              	.LFE14:
 1240              		.size	etharp_output, .-etharp_output
 1241 00e8 AFF30080 		.section	.text.ethernet_input,"ax",%progbits
 1241      AFF30080 
 1242              		.align	2
 1243              		.p2align 4,,15
 1244              		.global	ethernet_input
 1245              		.thumb
 1246              		.thumb_func
ARM GAS  /var/folders/5n/p_75w94d66l9ssrldxqdhh700000gn/T//cc813tB2.s 			page 23


 1247              		.type	ethernet_input, %function
 1248              	ethernet_input:
 1249              	.LFB18:
 1250              		.loc 1 1217 0
 1251              		.cfi_startproc
 1252              		@ args = 0, pretend = 0, frame = 24
 1253              		@ frame_needed = 0, uses_anonymous_args = 0
 1254              	.LVL119:
 1255 0000 2DE9F04F 		push	{r4, r5, r6, r7, r8, r9, sl, fp, lr}
 1256              	.LCFI9:
 1257              		.cfi_def_cfa_offset 36
 1258              		.cfi_offset 4, -36
 1259              		.cfi_offset 5, -32
 1260              		.cfi_offset 6, -28
 1261              		.cfi_offset 7, -24
 1262              		.cfi_offset 8, -20
 1263              		.cfi_offset 9, -16
 1264              		.cfi_offset 10, -12
 1265              		.cfi_offset 11, -8
 1266              		.cfi_offset 14, -4
 1267              		.loc 1 1222 0
 1268 0004 4389     		ldrh	r3, [r0, #10]
 1269 0006 0E2B     		cmp	r3, #14
 1270              		.loc 1 1217 0
 1271 0008 87B0     		sub	sp, sp, #28
 1272              	.LCFI10:
 1273              		.cfi_def_cfa_offset 64
 1274              		.loc 1 1217 0
 1275 000a 0446     		mov	r4, r0
 1276 000c 0D46     		mov	r5, r1
 1277              		.loc 1 1222 0
 1278 000e 06D9     		bls	.L220
 1279              		.loc 1 1230 0
 1280 0010 4668     		ldr	r6, [r0, #4]
 1281              	.LVL120:
 1282              		.loc 1 1265 0
 1283 0012 B289     		ldrh	r2, [r6, #12]	@ unaligned
 1284 0014 082A     		cmp	r2, #8
 1285 0016 10D0     		beq	.L177
 1286 0018 B2F5C16F 		cmp	r2, #1544
 1287 001c 1CD0     		beq	.L223
 1288              	.LVL121:
 1289              	.L220:
 1290              		.loc 1 1305 0
 1291 001e 734B     		ldr	r3, .L226
 1292 0020 198D     		ldrh	r1, [r3, #40]
 1293              	.LVL122:
 1294              		.loc 1 1306 0
 1295 0022 DA8B     		ldrh	r2, [r3, #30]
 1296              		.loc 1 1305 0
 1297 0024 0131     		adds	r1, r1, #1
 1298              		.loc 1 1306 0
 1299 0026 0132     		adds	r2, r2, #1
 1300              		.loc 1 1305 0
 1301 0028 1985     		strh	r1, [r3, #40]	@ movhi
 1302              		.loc 1 1306 0
 1303 002a DA83     		strh	r2, [r3, #30]	@ movhi
ARM GAS  /var/folders/5n/p_75w94d66l9ssrldxqdhh700000gn/T//cc813tB2.s 			page 24


 1304              	.LVL123:
 1305              	.L175:
 1306              		.loc 1 1315 0
 1307 002c 2046     		mov	r0, r4
 1308 002e FFF7FEFF 		bl	pbuf_free
 1309              	.LVL124:
 1310              	.L221:
 1311              		.loc 1 1317 0
 1312 0032 0020     		movs	r0, #0
 1313 0034 07B0     		add	sp, sp, #28
 1314 0036 BDE8F08F 		pop	{r4, r5, r6, r7, r8, r9, sl, fp, pc}
 1315              	.LVL125:
 1316              	.L177:
 1317              		.loc 1 1269 0
 1318 003a 91F82930 		ldrb	r3, [r1, #41]	@ zero_extendqisi2
 1319 003e 03F02003 		and	r3, r3, #32
 1320 0042 DBB2     		uxtb	r3, r3
 1321 0044 002B     		cmp	r3, #0
 1322 0046 F1D0     		beq	.L175
 1323              		.loc 1 1277 0
 1324 0048 6FF00D01 		mvn	r1, #13
 1325              	.LVL126:
 1326 004c FFF7FEFF 		bl	pbuf_header
 1327              	.LVL127:
 1328 0050 E8B1     		cbz	r0, .L179
 1329              		.loc 1 1278 0 discriminator 1
 1330 0052 FFF7FEFF 		bl	port_halt
 1331              	.LVL128:
 1332              		.loc 1 1279 0 discriminator 1
 1333 0056 E9E7     		b	.L175
 1334              	.LVL129:
 1335              	.L223:
 1336              		.loc 1 1287 0
 1337 0058 91F82920 		ldrb	r2, [r1, #41]	@ zero_extendqisi2
 1338 005c 02F02002 		and	r2, r2, #32
 1339 0060 D2B2     		uxtb	r2, r2
 1340 0062 002A     		cmp	r2, #0
 1341 0064 E2D0     		beq	.L175
 1342              	.LVL130:
 1343              	.LBB46:
 1344              	.LBB47:
 1345              		.loc 1 683 0
 1346 0066 292B     		cmp	r3, #41
 1347 0068 16D9     		bls	.L224
 1348              	.LVL131:
 1349              		.loc 1 702 0
 1350 006a F389     		ldrh	r3, [r6, #14]	@ unaligned
 1351 006c B3F5807F 		cmp	r3, #256
 1352 0070 02D1     		bne	.L183
 1353 0072 B37C     		ldrb	r3, [r6, #18]	@ zero_extendqisi2
 1354 0074 062B     		cmp	r3, #6
 1355 0076 19D0     		beq	.L225
 1356              	.L183:
 1357              		.loc 1 709 0
 1358 0078 5C4B     		ldr	r3, .L226
 1359 007a 198D     		ldrh	r1, [r3, #40]
 1360              	.LVL132:
ARM GAS  /var/folders/5n/p_75w94d66l9ssrldxqdhh700000gn/T//cc813tB2.s 			page 25


 1361              		.loc 1 710 0
 1362 007c DA8B     		ldrh	r2, [r3, #30]
 1363              		.loc 1 709 0
 1364 007e 0131     		adds	r1, r1, #1
 1365              		.loc 1 710 0
 1366 0080 0132     		adds	r2, r2, #1
 1367              		.loc 1 711 0
 1368 0082 2046     		mov	r0, r4
 1369              	.LVL133:
 1370              		.loc 1 709 0
 1371 0084 1985     		strh	r1, [r3, #40]	@ movhi
 1372              		.loc 1 710 0
 1373 0086 DA83     		strh	r2, [r3, #30]	@ movhi
 1374              		.loc 1 711 0
 1375 0088 FFF7FEFF 		bl	pbuf_free
 1376              	.LVL134:
 1377 008c D1E7     		b	.L221
 1378              	.LVL135:
 1379              	.L179:
 1380              	.LBE47:
 1381              	.LBE46:
 1382              		.loc 1 1282 0
 1383 008e 2046     		mov	r0, r4
 1384 0090 2946     		mov	r1, r5
 1385 0092 FFF7FEFF 		bl	ip_input
 1386              	.LVL136:
 1387              		.loc 1 1284 0
 1388 0096 CCE7     		b	.L221
 1389              	.LVL137:
 1390              	.L224:
 1391              	.LBB55:
 1392              	.LBB53:
 1393              		.loc 1 687 0
 1394 0098 544B     		ldr	r3, .L226
 1395 009a 598C     		ldrh	r1, [r3, #34]
 1396              	.LVL138:
 1397              		.loc 1 688 0
 1398 009c DA8B     		ldrh	r2, [r3, #30]
 1399              		.loc 1 687 0
 1400 009e 0131     		adds	r1, r1, #1
 1401              		.loc 1 688 0
 1402 00a0 0132     		adds	r2, r2, #1
 1403              		.loc 1 687 0
 1404 00a2 5984     		strh	r1, [r3, #34]	@ movhi
 1405              		.loc 1 688 0
 1406 00a4 DA83     		strh	r2, [r3, #30]	@ movhi
 1407              		.loc 1 689 0
 1408 00a6 FFF7FEFF 		bl	pbuf_free
 1409              	.LVL139:
 1410 00aa C2E7     		b	.L221
 1411              	.LVL140:
 1412              	.L225:
 1413              		.loc 1 703 0
 1414 00ac F37C     		ldrb	r3, [r6, #19]	@ zero_extendqisi2
 1415 00ae 042B     		cmp	r3, #4
 1416 00b0 E2D1     		bne	.L183
 1417              		.loc 1 704 0
ARM GAS  /var/folders/5n/p_75w94d66l9ssrldxqdhh700000gn/T//cc813tB2.s 			page 26


 1418 00b2 338A     		ldrh	r3, [r6, #16]	@ unaligned
 1419 00b4 082B     		cmp	r3, #8
 1420 00b6 DFD1     		bne	.L183
 1421              		.loc 1 714 0
 1422 00b8 DFF830A1 		ldr	sl, .L226
 1423              		.loc 1 725 0
 1424 00bc 0296     		str	r6, [sp, #8]
 1425              		.loc 1 714 0
 1426 00be BAF81A20 		ldrh	r2, [sl, #26]
 1427              		.loc 1 729 0
 1428 00c2 4B68     		ldr	r3, [r1, #4]
 1429              		.loc 1 725 0
 1430 00c4 3746     		mov	r7, r6
 1431              		.loc 1 714 0
 1432 00c6 0132     		adds	r2, r2, #1
 1433 00c8 AAF81A20 		strh	r2, [sl, #26]	@ movhi
 1434              		.loc 1 725 0
 1435 00cc 57F81C0F 		ldr	r0, [r7, #28]!	@ unaligned
 1436              	.LVL141:
 1437 00d0 0297     		str	r7, [sp, #8]
 1438 00d2 0490     		str	r0, [sp, #16]	@ unaligned
 1439              		.loc 1 726 0
 1440 00d4 D6F82600 		ldr	r0, [r6, #38]	@ unaligned
 1441              		.loc 1 741 0
 1442 00d8 06F11607 		add	r7, r6, #22
 1443              		.loc 1 726 0
 1444 00dc 0590     		str	r0, [sp, #20]	@ unaligned
 1445              		.loc 1 741 0
 1446 00de 0197     		str	r7, [sp, #4]
 1447              		.loc 1 729 0
 1448 00e0 002B     		cmp	r3, #0
 1449 00e2 4ED0     		beq	.L195
 1450              	.LVL142:
 1451              		.loc 1 741 0
 1452 00e4 059A     		ldr	r2, [sp, #20]
 1453 00e6 9342     		cmp	r3, r2
 1454 00e8 4BD1     		bne	.L195
 1455 00ea 4FF00109 		mov	r9, #1
 1456 00ee CB46     		mov	fp, r9
 1457              	.LVL143:
 1458              	.L186:
 1459              	.LBB48:
 1460              	.LBB49:
 1461              		.loc 1 446 0
 1462 00f0 95F82230 		ldrb	r3, [r5, #34]	@ zero_extendqisi2
 1463 00f4 062B     		cmp	r3, #6
 1464 00f6 01D0     		beq	.L187
 1465 00f8 FFF7FEFF 		bl	port_halt
 1466              	.LVL144:
 1467              	.L187:
 1468              		.loc 1 452 0
 1469 00fc 0498     		ldr	r0, [sp, #16]
 1470              	.LBE49:
 1471              	.LBE48:
 1472              	.LBE53:
 1473              	.LBE55:
 1474              		.loc 1 1291 0
ARM GAS  /var/folders/5n/p_75w94d66l9ssrldxqdhh700000gn/T//cc813tB2.s 			page 27


 1475 00fe 05F12308 		add	r8, r5, #35
 1476              	.LBB56:
 1477              	.LBB54:
 1478              	.LBB52:
 1479              	.LBB51:
 1480              		.loc 1 452 0
 1481 0102 80B3     		cbz	r0, .L189
 1482              		.loc 1 453 0
 1483 0104 2946     		mov	r1, r5
 1484 0106 FFF7FEFF 		bl	ip4_addr_isbroadcast
 1485              	.LVL145:
 1486              		.loc 1 452 0
 1487 010a 0390     		str	r0, [sp, #12]
 1488 010c 58BB     		cbnz	r0, .L189
 1489              		.loc 1 454 0
 1490 010e 049B     		ldr	r3, [sp, #16]
 1491 0110 03F0F003 		and	r3, r3, #240
 1492              		.loc 1 453 0
 1493 0114 E02B     		cmp	r3, #224
 1494 0116 26D0     		beq	.L189
 1495              		.loc 1 459 0
 1496 0118 04A8     		add	r0, sp, #16
 1497 011a 5946     		mov	r1, fp
 1498 011c FFF7FEFF 		bl	find_entry
 1499              	.LVL146:
 1500              		.loc 1 461 0
 1501 0120 0028     		cmp	r0, #0
 1502              	.LVL147:
 1503 0122 20DB     		blt	.L189
 1504              		.loc 1 473 0
 1505 0124 DFF8C8E0 		ldr	lr, .L226+4
 1506              		.loc 1 484 0
 1507 0128 019F     		ldr	r7, [sp, #4]
 1508              		.loc 1 473 0
 1509 012a 4FEA001C 		lsl	ip, r0, #4
 1510 012e 0EEB0C02 		add	r2, lr, ip
 1511 0132 0221     		movs	r1, #2
 1512 0134 9173     		strb	r1, [r2, #14]
 1513              		.loc 1 484 0
 1514 0136 3868     		ldr	r0, [r7, #0]	@ unaligned
 1515              		.loc 1 500 0
 1516 0138 5EF80CB0 		ldr	fp, [lr, ip]
 1517              	.LVL148:
 1518              		.loc 1 484 0
 1519 013c 9060     		str	r0, [r2, #8]	@ unaligned
 1520              		.loc 1 473 0
 1521 013e 02F10803 		add	r3, r2, #8
 1522              		.loc 1 484 0
 1523 0142 BA88     		ldrh	r2, [r7, #4]	@ unaligned
 1524              		.loc 1 486 0
 1525 0144 039F     		ldr	r7, [sp, #12]
 1526              		.loc 1 484 0
 1527 0146 9A80     		strh	r2, [r3, #4]	@ unaligned
 1528              		.loc 1 486 0
 1529 0148 DF71     		strb	r7, [r3, #7]
 1530              		.loc 1 500 0
 1531 014a BBF1000F 		cmp	fp, #0
ARM GAS  /var/folders/5n/p_75w94d66l9ssrldxqdhh700000gn/T//cc813tB2.s 			page 28


 1532 014e 0AD0     		beq	.L189
 1533              	.LVL149:
 1534              	.LBB50:
 1535              		.loc 1 505 0
 1536 0150 2846     		mov	r0, r5
 1537 0152 5946     		mov	r1, fp
 1538 0154 4246     		mov	r2, r8
 1539 0156 019B     		ldr	r3, [sp, #4]
 1540              		.loc 1 502 0
 1541 0158 4EF80C70 		str	r7, [lr, ip]
 1542              		.loc 1 505 0
 1543 015c FFF7FEFF 		bl	etharp_send_ip
 1544              	.LVL150:
 1545              		.loc 1 507 0
 1546 0160 5846     		mov	r0, fp
 1547 0162 FFF7FEFF 		bl	pbuf_free
 1548              	.LVL151:
 1549              	.L189:
 1550              	.LBE50:
 1551              	.LBE51:
 1552              	.LBE52:
 1553              		.loc 1 745 0
 1554 0166 B38A     		ldrh	r3, [r6, #20]	@ unaligned
 1555 0168 B3F5807F 		cmp	r3, #256
 1556 016c 0ED0     		beq	.L192
 1557 016e B3F5007F 		cmp	r3, #512
 1558 0172 3FF45BAF 		beq	.L175
 1559              		.loc 1 811 0
 1560 0176 BAF82C30 		ldrh	r3, [sl, #44]
 1561 017a 0133     		adds	r3, r3, #1
 1562 017c AAF82C30 		strh	r3, [sl, #44]	@ movhi
 1563 0180 54E7     		b	.L175
 1564              	.LVL152:
 1565              	.L195:
 1566              		.loc 1 741 0
 1567 0182 4FF00009 		mov	r9, #0
 1568 0186 4FF0020B 		mov	fp, #2
 1569 018a B1E7     		b	.L186
 1570              	.LVL153:
 1571              	.L192:
 1572              		.loc 1 754 0
 1573 018c B9F1000F 		cmp	r9, #0
 1574 0190 3FF44CAF 		beq	.L175
 1575              		.loc 1 760 0
 1576 0194 0220     		movs	r0, #2
 1577 0196 FFF7FEFF 		bl	lwip_htons
 1578              	.LVL154:
 1579 019a B082     		strh	r0, [r6, #20]	@ unaligned
 1580              		.loc 1 762 0
 1581 019c 029F     		ldr	r7, [sp, #8]
 1582 019e 3B68     		ldr	r3, [r7, #0]	@ unaligned
 1583 01a0 C6F82630 		str	r3, [r6, #38]	@ unaligned
 1584              		.loc 1 763 0
 1585 01a4 6B68     		ldr	r3, [r5, #4]	@ unaligned
 1586 01a6 F361     		str	r3, [r6, #28]	@ unaligned
 1587              		.loc 1 765 0
 1588 01a8 95F82230 		ldrb	r3, [r5, #34]	@ zero_extendqisi2
ARM GAS  /var/folders/5n/p_75w94d66l9ssrldxqdhh700000gn/T//cc813tB2.s 			page 29


 1589 01ac 062B     		cmp	r3, #6
 1590 01ae 01D0     		beq	.L194
 1591 01b0 FFF7FEFF 		bl	port_halt
 1592              	.LVL155:
 1593              	.L194:
 1594              		.loc 1 774 0
 1595 01b4 019F     		ldr	r7, [sp, #4]
 1596 01b6 3B68     		ldr	r3, [r7, #0]	@ unaligned
 1597 01b8 3362     		str	r3, [r6, #32]	@ unaligned
 1598 01ba BB88     		ldrh	r3, [r7, #4]	@ unaligned
 1599 01bc B384     		strh	r3, [r6, #36]	@ unaligned
 1600              		.loc 1 778 0
 1601 01be 3B68     		ldr	r3, [r7, #0]	@ unaligned
 1602 01c0 3360     		str	r3, [r6, #0]	@ unaligned
 1603 01c2 BB88     		ldrh	r3, [r7, #4]	@ unaligned
 1604 01c4 B380     		strh	r3, [r6, #4]	@ unaligned
 1605              		.loc 1 780 0
 1606 01c6 D8F80030 		ldr	r3, [r8, #0]	@ unaligned
 1607 01ca 3B60     		str	r3, [r7, #0]	@ unaligned
 1608 01cc B8F80430 		ldrh	r3, [r8, #4]	@ unaligned
 1609 01d0 BB80     		strh	r3, [r7, #4]	@ unaligned
 1610              		.loc 1 781 0
 1611 01d2 D8F80030 		ldr	r3, [r8, #0]	@ unaligned
 1612 01d6 C6F80630 		str	r3, [r6, #6]	@ unaligned
 1613 01da B8F80430 		ldrh	r3, [r8, #4]	@ unaligned
 1614 01de 7381     		strh	r3, [r6, #10]	@ unaligned
 1615              		.loc 1 787 0
 1616 01e0 AB69     		ldr	r3, [r5, #24]
 1617 01e2 2846     		mov	r0, r5
 1618 01e4 2146     		mov	r1, r4
 1619 01e6 9847     		blx	r3
 1620              	.LVL156:
 1621 01e8 20E7     		b	.L175
 1622              	.L227:
 1623 01ea 00BF     		.align	2
 1624              	.L226:
 1625 01ec 00000000 		.word	lwip_stats
 1626 01f0 00000000 		.word	.LANCHOR0
 1627              	.LBE54:
 1628              	.LBE56:
 1629              		.cfi_endproc
 1630              	.LFE18:
 1631              		.size	ethernet_input, .-ethernet_input
 1632              		.global	ethzero
 1633              		.global	ethbroadcast
 1634 01f4 AFF30080 		.section	.bss.etharp_cached_entry,"aw",%nobits
 1634      AFF30080 
 1634      AFF30080 
 1635              		.set	.LANCHOR3,. + 0
 1636              		.type	etharp_cached_entry, %object
 1637              		.size	etharp_cached_entry, 1
 1638              	etharp_cached_entry:
 1639 0000 00       		.space	1
 1640              		.section	.bss.arp_table,"aw",%nobits
 1641              		.align	2
 1642              		.set	.LANCHOR0,. + 0
 1643              		.type	arp_table, %object
ARM GAS  /var/folders/5n/p_75w94d66l9ssrldxqdhh700000gn/T//cc813tB2.s 			page 30


 1644              		.size	arp_table, 160
 1645              	arp_table:
 1646 0000 00000000 		.space	160
 1646      00000000 
 1646      00000000 
 1646      00000000 
 1646      00000000 
 1647              		.section	.rodata.ethbroadcast,"a",%progbits
 1648              		.align	2
 1649              		.set	.LANCHOR2,. + 0
 1650              		.type	ethbroadcast, %object
 1651              		.size	ethbroadcast, 6
 1652              	ethbroadcast:
 1653 0000 FF       		.byte	-1
 1654 0001 FF       		.byte	-1
 1655 0002 FF       		.byte	-1
 1656 0003 FF       		.byte	-1
 1657 0004 FF       		.byte	-1
 1658 0005 FF       		.byte	-1
 1659 0006 0000     		.section	.rodata.ethzero,"a",%progbits
 1660              		.align	2
 1661              		.set	.LANCHOR1,. + 0
 1662              		.type	ethzero, %object
 1663              		.size	ethzero, 6
 1664              	ethzero:
 1665 0000 00000000 		.space	6
 1665      0000
 1666 0006 0000     		.text
 1667              	.Letext0:
 1668              		.file 2 "/usr/local/cross/lib/gcc/arm-none-eabi/4.7.2/../../../../arm-none-eabi/include/stdint.h"
 1669              		.file 3 "../../os/various/lwip_bindings/arch/cc.h"
 1670              		.file 4 "../../ext/lwip-1.4.0/src/include/ipv4/lwip/ip_addr.h"
 1671              		.file 5 "../../ext/lwip-1.4.0/src/include/lwip/err.h"
 1672              		.file 6 "../../ext/lwip-1.4.0/src/include/lwip/pbuf.h"
 1673              		.file 7 "../../ext/lwip-1.4.0/src/include/lwip/netif.h"
 1674              		.file 8 "../../ext/lwip-1.4.0/src/include/lwip/mem.h"
 1675              		.file 9 "../../ext/lwip-1.4.0/src/include/lwip/memp.h"
 1676              		.file 10 "../../ext/lwip-1.4.0/src/include/lwip/stats.h"
 1677              		.file 11 "../../ext/lwip-1.4.0/src/include/netif/etharp.h"
 1678              		.file 12 "../../ext/lwip-1.4.0/src/include/lwip/def.h"
 1679              		.file 13 "../../ext/lwip-1.4.0/src/include/ipv4/lwip/ip.h"
 1680              		.file 14 "../../os/ports/GCC/ARMCMx/chcore_v7m.h"