ARM GAS  /var/folders/5n/p_75w94d66l9ssrldxqdhh700000gn/T//ccgVdQOR.s 			page 1


   1              		.syntax unified
   2              		.cpu cortex-m4
   3              		.fpu softvfp
   4              		.eabi_attribute 20, 1
   5              		.eabi_attribute 21, 1
   6              		.eabi_attribute 23, 3
   7              		.eabi_attribute 24, 1
   8              		.eabi_attribute 25, 1
   9              		.eabi_attribute 26, 1
  10              		.eabi_attribute 30, 2
  11              		.eabi_attribute 34, 1
  12              		.eabi_attribute 18, 4
  13              		.thumb
  14              		.file	"ip.c"
  15              		.text
  16              	.Ltext0:
  17              		.cfi_sections	.debug_frame
  18              		.section	.text.ip_route,"ax",%progbits
  19              		.align	2
  20              		.p2align 4,,15
  21              		.global	ip_route
  22              		.thumb
  23              		.thumb_func
  24              		.type	ip_route, %function
  25              	ip_route:
  26              	.LFB7:
  27              		.file 1 "../../ext/lwip-1.4.0/src/core/ipv4/ip.c"
  28              		.loc 1 125 0
  29              		.cfi_startproc
  30              		@ args = 0, pretend = 0, frame = 0
  31              		@ frame_needed = 0, uses_anonymous_args = 0
  32              		@ link register save eliminated.
  33              	.LVL0:
  34 0000 10B4     		push	{r4}
  35              	.LCFI0:
  36              		.cfi_def_cfa_offset 4
  37              		.cfi_offset 4, -4
  38              		.loc 1 129 0
  39 0002 0F4B     		ldr	r3, .L23
  40              	.L21:
  41 0004 1B68     		ldr	r3, [r3, #0]
  42              	.LVL1:
  43 0006 63B1     		cbz	r3, .L2
  44              		.loc 1 131 0
  45 0008 93F82920 		ldrb	r2, [r3, #41]	@ zero_extendqisi2
  46 000c D107     		lsls	r1, r2, #31
  47 000e F9D5     		bpl	.L21
  48              		.loc 1 132 0
  49 0010 5C68     		ldr	r4, [r3, #4]
  50 0012 0168     		ldr	r1, [r0, #0]
  51 0014 9A68     		ldr	r2, [r3, #8]
  52 0016 6140     		eors	r1, r1, r4
  53 0018 1142     		tst	r1, r2
  54 001a F3D1     		bne	.L21
  55              	.LVL2:
  56              	.L4:
  57              		.loc 1 147 0
ARM GAS  /var/folders/5n/p_75w94d66l9ssrldxqdhh700000gn/T//ccgVdQOR.s 			page 2


  58 001c 1846     		mov	r0, r3
  59              	.LVL3:
  60 001e 10BC     		pop	{r4}
  61 0020 7047     		bx	lr
  62              	.LVL4:
  63              	.L2:
  64              		.loc 1 138 0
  65 0022 084B     		ldr	r3, .L23+4
  66              	.LVL5:
  67 0024 1B68     		ldr	r3, [r3, #0]
  68 0026 1BB1     		cbz	r3, .L6
  69              		.loc 1 138 0 is_stmt 0 discriminator 1
  70 0028 93F82920 		ldrb	r2, [r3, #41]	@ zero_extendqisi2
  71 002c D207     		lsls	r2, r2, #31
  72 002e F5D4     		bmi	.L4
  73              	.L6:
  74              		.loc 1 141 0 is_stmt 1
  75 0030 054B     		ldr	r3, .L23+8
  76 0032 B3F85620 		ldrh	r2, [r3, #86]
  77 0036 0132     		adds	r2, r2, #1
  78 0038 A3F85620 		strh	r2, [r3, #86]	@ movhi
  79              		.loc 1 143 0
  80 003c 0023     		movs	r3, #0
  81 003e EDE7     		b	.L4
  82              	.L24:
  83              		.align	2
  84              	.L23:
  85 0040 00000000 		.word	netif_list
  86 0044 00000000 		.word	netif_default
  87 0048 00000000 		.word	lwip_stats
  88              		.cfi_endproc
  89              	.LFE7:
  90              		.size	ip_route, .-ip_route
  91 004c AFF30080 		.section	.text.ip_input,"ax",%progbits
  92              		.align	2
  93              		.p2align 4,,15
  94              		.global	ip_input
  95              		.thumb
  96              		.thumb_func
  97              		.type	ip_input, %function
  98              	ip_input:
  99              	.LFB8:
 100              		.loc 1 243 0
 101              		.cfi_startproc
 102              		@ args = 0, pretend = 0, frame = 8
 103              		@ frame_needed = 0, uses_anonymous_args = 0
 104              	.LVL6:
 105 0000 2DE9F04F 		push	{r4, r5, r6, r7, r8, r9, sl, fp, lr}
 106              	.LCFI1:
 107              		.cfi_def_cfa_offset 36
 108              		.cfi_offset 4, -36
 109              		.cfi_offset 5, -32
 110              		.cfi_offset 6, -28
 111              		.cfi_offset 7, -24
 112              		.cfi_offset 8, -20
 113              		.cfi_offset 9, -16
 114              		.cfi_offset 10, -12
ARM GAS  /var/folders/5n/p_75w94d66l9ssrldxqdhh700000gn/T//ccgVdQOR.s 			page 3


 115              		.cfi_offset 11, -8
 116              		.cfi_offset 14, -4
 117              		.loc 1 252 0
 118 0004 794C     		ldr	r4, .L68
 119              		.loc 1 256 0
 120 0006 4668     		ldr	r6, [r0, #4]
 121              	.LVL7:
 122              		.loc 1 252 0
 123 0008 B4F84A30 		ldrh	r3, [r4, #74]
 124 000c 0133     		adds	r3, r3, #1
 125 000e A4F84A30 		strh	r3, [r4, #74]	@ movhi
 126              		.loc 1 243 0
 127 0012 83B0     		sub	sp, sp, #12
 128              	.LCFI2:
 129              		.cfi_def_cfa_offset 48
 130              		.loc 1 243 0
 131 0014 0546     		mov	r5, r0
 132              		.loc 1 257 0
 133 0016 3088     		ldrh	r0, [r6, #0]	@ unaligned
 134              	.LVL8:
 135              		.loc 1 243 0
 136 0018 8846     		mov	r8, r1
 137              		.loc 1 257 0
 138 001a FFF7FEFF 		bl	lwip_ntohs
 139              	.LVL9:
 140 001e C0F30F30 		ubfx	r0, r0, #12, #16
 141 0022 0428     		cmp	r0, #4
 142 0024 10D0     		beq	.L26
 143              		.loc 1 260 0
 144 0026 2846     		mov	r0, r5
 145 0028 FFF7FEFF 		bl	pbuf_free
 146              	.LVL10:
 147              		.loc 1 261 0
 148 002c B4F85C20 		ldrh	r2, [r4, #92]
 149              		.loc 1 262 0
 150 0030 B4F84E30 		ldrh	r3, [r4, #78]
 151              		.loc 1 261 0
 152 0034 0132     		adds	r2, r2, #1
 153              		.loc 1 262 0
 154 0036 0133     		adds	r3, r3, #1
 155              		.loc 1 261 0
 156 0038 A4F85C20 		strh	r2, [r4, #92]	@ movhi
 157              		.loc 1 262 0
 158 003c A4F84E30 		strh	r3, [r4, #78]	@ movhi
 159              	.L27:
 160              		.loc 1 544 0
 161 0040 0020     		movs	r0, #0
 162 0042 03B0     		add	sp, sp, #12
 163 0044 BDE8F08F 		pop	{r4, r5, r6, r7, r8, r9, sl, fp, pc}
 164              	.L26:
 165              		.loc 1 268 0
 166 0048 3088     		ldrh	r0, [r6, #0]	@ unaligned
 167 004a FFF7FEFF 		bl	lwip_ntohs
 168              	.LVL11:
 169 004e C0F30327 		ubfx	r7, r0, #8, #4
 170              	.LVL12:
 171              		.loc 1 272 0
ARM GAS  /var/folders/5n/p_75w94d66l9ssrldxqdhh700000gn/T//ccgVdQOR.s 			page 4


 172 0052 7088     		ldrh	r0, [r6, #2]	@ unaligned
 173 0054 FFF7FEFF 		bl	lwip_ntohs
 174              	.LVL13:
 175              		.loc 1 275 0
 176 0058 6B89     		ldrh	r3, [r5, #10]
 177              		.loc 1 270 0
 178 005a BF00     		lsls	r7, r7, #2
 179              	.LVL14:
 180              		.loc 1 275 0
 181 005c BB42     		cmp	r3, r7
 182              		.loc 1 272 0
 183 005e 8146     		mov	r9, r0
 184              	.LVL15:
 185              		.loc 1 275 0
 186 0060 02D3     		bcc	.L28
 187              		.loc 1 275 0 is_stmt 0 discriminator 1
 188 0062 2B89     		ldrh	r3, [r5, #8]
 189 0064 8342     		cmp	r3, r0
 190 0066 0DD2     		bcs	.L29
 191              	.L28:
 192              		.loc 1 287 0 is_stmt 1
 193 0068 2846     		mov	r0, r5
 194              	.LVL16:
 195 006a FFF7FEFF 		bl	pbuf_free
 196              	.LVL17:
 197              		.loc 1 288 0
 198 006e B4F85220 		ldrh	r2, [r4, #82]
 199              		.loc 1 289 0
 200 0072 B4F84E30 		ldrh	r3, [r4, #78]
 201              		.loc 1 288 0
 202 0076 0132     		adds	r2, r2, #1
 203              		.loc 1 289 0
 204 0078 0133     		adds	r3, r3, #1
 205              		.loc 1 288 0
 206 007a A4F85220 		strh	r2, [r4, #82]	@ movhi
 207              		.loc 1 289 0
 208 007e A4F84E30 		strh	r3, [r4, #78]	@ movhi
 209              		.loc 1 291 0
 210 0082 DDE7     		b	.L27
 211              	.LVL18:
 212              	.L29:
 213              		.loc 1 296 0
 214 0084 3046     		mov	r0, r6
 215              	.LVL19:
 216 0086 3946     		mov	r1, r7
 217 0088 FFF7FEFF 		bl	inet_chksum
 218              	.LVL20:
 219 008c 0028     		cmp	r0, #0
 220 008e 40F08C80 		bne	.L64
 221              		.loc 1 311 0
 222 0092 4946     		mov	r1, r9
 223 0094 2846     		mov	r0, r5
 224 0096 FFF7FEFF 		bl	pbuf_realloc
 225              	.LVL21:
 226              		.loc 1 314 0
 227 009a DFF860A1 		ldr	sl, .L68+16
 228 009e 3369     		ldr	r3, [r6, #16]	@ unaligned
ARM GAS  /var/folders/5n/p_75w94d66l9ssrldxqdhh700000gn/T//ccgVdQOR.s 			page 5


 229              		.loc 1 315 0
 230 00a0 DFF850B1 		ldr	fp, .L68+8
 231              		.loc 1 314 0
 232 00a4 CAF80030 		str	r3, [sl, #0]
 233              		.loc 1 315 0
 234 00a8 F368     		ldr	r3, [r6, #12]	@ unaligned
 235              	.LBB2:
 236              		.loc 1 365 0
 237 00aa 514A     		ldr	r2, .L68+4
 238              	.LBE2:
 239              		.loc 1 315 0
 240 00ac CBF80030 		str	r3, [fp, #0]
 241              	.LVL22:
 242 00b0 4746     		mov	r7, r8
 243              	.LVL23:
 244              		.loc 1 331 0
 245 00b2 4FF00109 		mov	r9, #1
 246              	.LVL24:
 247              	.L38:
 248              	.LBB3:
 249              		.loc 1 341 0
 250 00b6 97F82930 		ldrb	r3, [r7, #41]	@ zero_extendqisi2
 251 00ba D807     		lsls	r0, r3, #31
 252 00bc 0BD5     		bpl	.L34
 253              		.loc 1 341 0 is_stmt 0 discriminator 1
 254 00be 7B68     		ldr	r3, [r7, #4]
 255 00c0 4BB1     		cbz	r3, .L34
 256              		.loc 1 343 0 is_stmt 1
 257 00c2 DAF80000 		ldr	r0, [sl, #0]
 258 00c6 8342     		cmp	r3, r0
 259 00c8 10D0     		beq	.L35
 260              		.loc 1 345 0 discriminator 1
 261 00ca 3946     		mov	r1, r7
 262 00cc 0192     		str	r2, [sp, #4]
 263 00ce FFF7FEFF 		bl	ip4_addr_isbroadcast
 264              	.LVL25:
 265              		.loc 1 343 0 discriminator 1
 266 00d2 019A     		ldr	r2, [sp, #4]
 267 00d4 50B9     		cbnz	r0, .L35
 268              	.L34:
 269              		.loc 1 363 0
 270 00d6 B9F1000F 		cmp	r9, #0
 271 00da 5BD0     		beq	.L65
 272              	.LVL26:
 273              		.loc 1 365 0
 274 00dc 1768     		ldr	r7, [r2, #0]
 275              	.LVL27:
 276              	.L36:
 277              		.loc 1 369 0
 278 00de 4745     		cmp	r7, r8
 279              		.loc 1 370 0
 280 00e0 08BF     		it	eq
 281 00e2 3F68     		ldreq	r7, [r7, #0]
 282              	.LVL28:
 283 00e4 4FF00009 		mov	r9, #0
 284              		.loc 1 372 0
 285 00e8 002F     		cmp	r7, #0
ARM GAS  /var/folders/5n/p_75w94d66l9ssrldxqdhh700000gn/T//ccgVdQOR.s 			page 6


 286 00ea E4D1     		bne	.L38
 287              	.LVL29:
 288              	.L35:
 289              	.LBE3:
 290              		.loc 1 405 0
 291 00ec DBF80000 		ldr	r0, [fp, #0]
 292 00f0 4146     		mov	r1, r8
 293 00f2 FFF7FEFF 		bl	ip4_addr_isbroadcast
 294              	.LVL30:
 295 00f6 0028     		cmp	r0, #0
 296 00f8 4ED1     		bne	.L39
 297              		.loc 1 406 0 discriminator 1
 298 00fa 3E4B     		ldr	r3, .L68+8
 299 00fc 1B68     		ldr	r3, [r3, #0]
 300 00fe 03F0F003 		and	r3, r3, #240
 301              		.loc 1 405 0 discriminator 1
 302 0102 E02B     		cmp	r3, #224
 303 0104 48D0     		beq	.L39
 304              		.loc 1 419 0
 305 0106 002F     		cmp	r7, #0
 306 0108 6CD0     		beq	.L66
 307              		.loc 1 437 0
 308 010a F288     		ldrh	r2, [r6, #6]	@ unaligned
 309 010c 4FF63F73 		movw	r3, #65343
 310 0110 1340     		ands	r3, r3, r2
 311 0112 33B1     		cbz	r3, .L42
 312              		.loc 1 442 0
 313 0114 2846     		mov	r0, r5
 314 0116 FFF7FEFF 		bl	ip_reass
 315              	.LVL31:
 316              		.loc 1 444 0
 317 011a 0546     		mov	r5, r0
 318 011c 0028     		cmp	r0, #0
 319 011e 8FD0     		beq	.L27
 320              		.loc 1 447 0
 321 0120 4668     		ldr	r6, [r0, #4]
 322              	.LVL32:
 323              	.L42:
 324              		.loc 1 483 0
 325 0122 DFF8DC90 		ldr	r9, .L68+20
 326              		.loc 1 484 0
 327 0126 344F     		ldr	r7, .L68+12
 328              	.LVL33:
 329              		.loc 1 483 0
 330 0128 C9F80080 		str	r8, [r9, #0]
 331              		.loc 1 488 0
 332 012c 2846     		mov	r0, r5
 333 012e 4146     		mov	r1, r8
 334              		.loc 1 484 0
 335 0130 3E60     		str	r6, [r7, #0]
 336              		.loc 1 488 0
 337 0132 FFF7FEFF 		bl	raw_input
 338              	.LVL34:
 339 0136 20BB     		cbnz	r0, .L43
 340              		.loc 1 492 0
 341 0138 737A     		ldrb	r3, [r6, #9]	@ zero_extendqisi2
 342 013a 062B     		cmp	r3, #6
ARM GAS  /var/folders/5n/p_75w94d66l9ssrldxqdhh700000gn/T//ccgVdQOR.s 			page 7


 343 013c 48D0     		beq	.L46
 344 013e 112B     		cmp	r3, #17
 345 0140 41D0     		beq	.L47
 346 0142 012B     		cmp	r3, #1
 347 0144 49D0     		beq	.L67
 348              		.loc 1 522 0
 349 0146 DAF80000 		ldr	r0, [sl, #0]
 350 014a 4146     		mov	r1, r8
 351 014c FFF7FEFF 		bl	ip4_addr_isbroadcast
 352              	.LVL35:
 353 0150 50B9     		cbnz	r0, .L48
 354              		.loc 1 523 0 discriminator 1
 355 0152 2A4B     		ldr	r3, .L68+16
 356 0154 1B68     		ldr	r3, [r3, #0]
 357 0156 03F0F003 		and	r3, r3, #240
 358              		.loc 1 522 0 discriminator 1
 359 015a E02B     		cmp	r3, #224
 360 015c 04D0     		beq	.L48
 361              		.loc 1 524 0
 362 015e 6E60     		str	r6, [r5, #4]
 363              		.loc 1 525 0
 364 0160 2846     		mov	r0, r5
 365 0162 0221     		movs	r1, #2
 366 0164 FFF7FEFF 		bl	icmp_dest_unreach
 367              	.LVL36:
 368              	.L48:
 369              		.loc 1 528 0
 370 0168 2846     		mov	r0, r5
 371 016a FFF7FEFF 		bl	pbuf_free
 372              	.LVL37:
 373              		.loc 1 532 0
 374 016e B4F85820 		ldrh	r2, [r4, #88]
 375              		.loc 1 533 0
 376 0172 B4F84E30 		ldrh	r3, [r4, #78]
 377              		.loc 1 532 0
 378 0176 0132     		adds	r2, r2, #1
 379              		.loc 1 533 0
 380 0178 0133     		adds	r3, r3, #1
 381              		.loc 1 532 0
 382 017a A4F85820 		strh	r2, [r4, #88]	@ movhi
 383              		.loc 1 533 0
 384 017e A4F84E30 		strh	r3, [r4, #78]	@ movhi
 385              	.L43:
 386              		.loc 1 538 0
 387 0182 0023     		movs	r3, #0
 388 0184 C9F80030 		str	r3, [r9, #0]
 389              		.loc 1 539 0
 390 0188 3B60     		str	r3, [r7, #0]
 391              		.loc 1 540 0
 392 018a CBF80030 		str	r3, [fp, #0]
 393              		.loc 1 541 0
 394 018e CAF80030 		str	r3, [sl, #0]
 395              		.loc 1 543 0
 396 0192 55E7     		b	.L27
 397              	.LVL38:
 398              	.L65:
 399              	.LBB4:
ARM GAS  /var/folders/5n/p_75w94d66l9ssrldxqdhh700000gn/T//ccgVdQOR.s 			page 8


 400              		.loc 1 367 0
 401 0194 3F68     		ldr	r7, [r7, #0]
 402              	.LVL39:
 403 0196 A2E7     		b	.L36
 404              	.LVL40:
 405              	.L39:
 406              	.LBE4:
 407              		.loc 1 410 0
 408 0198 2846     		mov	r0, r5
 409 019a FFF7FEFF 		bl	pbuf_free
 410              	.LVL41:
 411              		.loc 1 411 0
 412 019e B4F84E30 		ldrh	r3, [r4, #78]
 413 01a2 0133     		adds	r3, r3, #1
 414 01a4 A4F84E30 		strh	r3, [r4, #78]	@ movhi
 415              		.loc 1 414 0
 416 01a8 4AE7     		b	.L27
 417              	.LVL42:
 418              	.L64:
 419              		.loc 1 301 0
 420 01aa 2846     		mov	r0, r5
 421 01ac FFF7FEFF 		bl	pbuf_free
 422              	.LVL43:
 423              		.loc 1 302 0
 424 01b0 B4F85020 		ldrh	r2, [r4, #80]
 425              		.loc 1 303 0
 426 01b4 B4F84E30 		ldrh	r3, [r4, #78]
 427              		.loc 1 302 0
 428 01b8 0132     		adds	r2, r2, #1
 429              		.loc 1 303 0
 430 01ba 0133     		adds	r3, r3, #1
 431              		.loc 1 302 0
 432 01bc A4F85020 		strh	r2, [r4, #80]	@ movhi
 433              		.loc 1 303 0
 434 01c0 A4F84E30 		strh	r3, [r4, #78]	@ movhi
 435              		.loc 1 305 0
 436 01c4 3CE7     		b	.L27
 437              	.LVL44:
 438              	.L47:
 439              		.loc 1 499 0
 440 01c6 2846     		mov	r0, r5
 441 01c8 4146     		mov	r1, r8
 442 01ca FFF7FEFF 		bl	udp_input
 443              	.LVL45:
 444              		.loc 1 500 0
 445 01ce D8E7     		b	.L43
 446              	.L46:
 447              		.loc 1 505 0
 448 01d0 2846     		mov	r0, r5
 449 01d2 4146     		mov	r1, r8
 450 01d4 FFF7FEFF 		bl	tcp_input
 451              	.LVL46:
 452              		.loc 1 506 0
 453 01d8 D3E7     		b	.L43
 454              	.L67:
 455              		.loc 1 511 0
 456 01da 2846     		mov	r0, r5
ARM GAS  /var/folders/5n/p_75w94d66l9ssrldxqdhh700000gn/T//ccgVdQOR.s 			page 9


 457 01dc 4146     		mov	r1, r8
 458 01de FFF7FEFF 		bl	icmp_input
 459              	.LVL47:
 460              		.loc 1 512 0
 461 01e2 CEE7     		b	.L43
 462              	.LVL48:
 463              	.L66:
 464              		.loc 1 433 0
 465 01e4 2846     		mov	r0, r5
 466 01e6 FFF7FEFF 		bl	pbuf_free
 467              	.LVL49:
 468              		.loc 1 434 0
 469 01ea 29E7     		b	.L27
 470              	.L69:
 471              		.align	2
 472              	.L68:
 473 01ec 00000000 		.word	lwip_stats
 474 01f0 00000000 		.word	netif_list
 475 01f4 00000000 		.word	.LANCHOR1
 476 01f8 00000000 		.word	.LANCHOR3
 477 01fc 00000000 		.word	.LANCHOR0
 478 0200 00000000 		.word	.LANCHOR2
 479              		.cfi_endproc
 480              	.LFE8:
 481              		.size	ip_input, .-ip_input
 482 0204 AFF30080 		.section	.text.ip_output_if,"ax",%progbits
 482      AFF30080 
 482      AFF30080 
 483              		.align	2
 484              		.p2align 4,,15
 485              		.global	ip_output_if
 486              		.thumb
 487              		.thumb_func
 488              		.type	ip_output_if, %function
 489              	ip_output_if:
 490              	.LFB9:
 491              		.loc 1 575 0
 492              		.cfi_startproc
 493              		@ args = 12, pretend = 0, frame = 24
 494              		@ frame_needed = 0, uses_anonymous_args = 0
 495              	.LVL50:
 496 0000 2DE9F04F 		push	{r4, r5, r6, r7, r8, r9, sl, fp, lr}
 497              	.LCFI3:
 498              		.cfi_def_cfa_offset 36
 499              		.cfi_offset 4, -36
 500              		.cfi_offset 5, -32
 501              		.cfi_offset 6, -28
 502              		.cfi_offset 7, -24
 503              		.cfi_offset 8, -20
 504              		.cfi_offset 9, -16
 505              		.cfi_offset 10, -12
 506              		.cfi_offset 11, -8
 507              		.cfi_offset 14, -4
 508 0004 8A46     		mov	sl, r1
 509              		.loc 1 599 0
 510 0006 C189     		ldrh	r1, [r0, #14]
 511              	.LVL51:
ARM GAS  /var/folders/5n/p_75w94d66l9ssrldxqdhh700000gn/T//ccgVdQOR.s 			page 10


 512              		.loc 1 575 0
 513 0008 87B0     		sub	sp, sp, #28
 514              	.LCFI4:
 515              		.cfi_def_cfa_offset 64
 516              		.loc 1 599 0
 517 000a 0129     		cmp	r1, #1
 518              		.loc 1 575 0
 519 000c 0546     		mov	r5, r0
 520 000e 9DF84490 		ldrb	r9, [sp, #68]	@ zero_extendqisi2
 521 0012 129F     		ldr	r7, [sp, #72]
 522 0014 1646     		mov	r6, r2
 523 0016 9846     		mov	r8, r3
 524              		.loc 1 599 0
 525 0018 01D0     		beq	.L71
 526              		.loc 1 599 0 is_stmt 0 discriminator 1
 527 001a FFF7FEFF 		bl	port_halt
 528              	.LVL52:
 529              	.L71:
 530              		.loc 1 604 0 is_stmt 1
 531 001e 002E     		cmp	r6, #0
 532 0020 6BD0     		beq	.L72
 533              	.LVL53:
 534              	.LBB5:
 535              		.loc 1 635 0
 536 0022 2846     		mov	r0, r5
 537 0024 1421     		movs	r1, #20
 538 0026 FFF7FEFF 		bl	pbuf_header
 539              	.LVL54:
 540 002a 0028     		cmp	r0, #0
 541 002c 74D1     		bne	.L90
 542              		.loc 1 644 0
 543 002e 6B89     		ldrh	r3, [r5, #10]
 544              		.loc 1 643 0
 545 0030 6C68     		ldr	r4, [r5, #4]
 546              	.LVL55:
 547              		.loc 1 644 0
 548 0032 132B     		cmp	r3, #19
 549 0034 67D9     		bls	.L91
 550              	.L75:
 551              		.loc 1 647 0
 552 0036 84F80880 		strb	r8, [r4, #8]
 553              		.loc 1 648 0
 554 003a 84F80990 		strb	r9, [r4, #9]
 555              		.loc 1 654 0
 556 003e 3368     		ldr	r3, [r6, #0]
 557              		.loc 1 669 0
 558 0040 DFF8E8B0 		ldr	fp, .L93+4
 559              		.loc 1 654 0
 560 0044 2361     		str	r3, [r4, #16]	@ unaligned
 561              		.loc 1 660 0
 562 0046 9DF84000 		ldrb	r0, [sp, #64]	@ zero_extendqisi2
 563              		.loc 1 656 0
 564 004a 99B2     		uxth	r1, r3
 565              		.loc 1 657 0
 566 004c 4FEA134C 		lsr	ip, r3, #16
 567              		.loc 1 660 0
 568 0050 40F48A40 		orr	r0, r0, #17664
ARM GAS  /var/folders/5n/p_75w94d66l9ssrldxqdhh700000gn/T//ccgVdQOR.s 			page 11


 569 0054 0191     		str	r1, [sp, #4]
 570 0056 CDF800C0 		str	ip, [sp, #0]
 571 005a FFF7FEFF 		bl	lwip_htons
 572              	.LVL56:
 573 005e 2080     		strh	r0, [r4, #0]	@ unaligned
 574 0060 0346     		mov	r3, r0
 575              		.loc 1 664 0
 576 0062 2889     		ldrh	r0, [r5, #8]
 577 0064 0293     		str	r3, [sp, #8]
 578 0066 FFF7FEFF 		bl	lwip_htons
 579              	.LVL57:
 580 006a 0390     		str	r0, [sp, #12]
 581 006c 039A     		ldr	r2, [sp, #12]
 582              		.loc 1 668 0
 583 006e 0020     		movs	r0, #0
 584              		.loc 1 664 0
 585 0070 6280     		strh	r2, [r4, #2]	@ unaligned
 586              		.loc 1 668 0
 587 0072 A071     		strb	r0, [r4, #6]
 588 0074 E071     		strb	r0, [r4, #7]
 589              		.loc 1 669 0
 590 0076 BBF80000 		ldrh	r0, [fp, #0]
 591 007a FFF7FEFF 		bl	lwip_htons
 592              	.LVL58:
 593 007e A080     		strh	r0, [r4, #4]	@ unaligned
 594              		.loc 1 673 0
 595 0080 BBF800E0 		ldrh	lr, [fp, #0]
 596              		.loc 1 675 0
 597 0084 0199     		ldr	r1, [sp, #4]
 598 0086 029B     		ldr	r3, [sp, #8]
 599 0088 DDF800C0 		ldr	ip, [sp, #0]
 600              		.loc 1 673 0
 601 008c 0EF1010E 		add	lr, lr, #1
 602              		.loc 1 650 0
 603 0090 48EA0928 		orr	r8, r8, r9, lsl #8
 604              	.LVL59:
 605              		.loc 1 673 0
 606 0094 ABF800E0 		strh	lr, [fp, #0]	@ movhi
 607              		.loc 1 675 0
 608 0098 BAF1000F 		cmp	sl, #0
 609 009c 03D0     		beq	.L76
 610              		.loc 1 675 0 is_stmt 0 discriminator 1
 611 009e DAF80020 		ldr	r2, [sl, #0]
 612 00a2 002A     		cmp	r2, #0
 613 00a4 27D1     		bne	.L77
 614              	.L76:
 615              		.loc 1 676 0 is_stmt 1
 616 00a6 7A68     		ldr	r2, [r7, #4]
 617 00a8 E260     		str	r2, [r4, #12]	@ unaligned
 618              	.L78:
 619              	.LVL60:
 620              		.loc 1 656 0
 621 00aa 6144     		add	r1, ip, r1
 622              	.LVL61:
 623              		.loc 1 657 0
 624 00ac 4144     		add	r1, r1, r8
 625              		.loc 1 662 0
ARM GAS  /var/folders/5n/p_75w94d66l9ssrldxqdhh700000gn/T//ccgVdQOR.s 			page 12


 626 00ae CB18     		adds	r3, r1, r3
 627              	.LVL62:
 628              		.loc 1 666 0
 629 00b0 0399     		ldr	r1, [sp, #12]
 630 00b2 03EB010B 		add	fp, r3, r1
 631              		.loc 1 671 0
 632 00b6 5844     		add	r0, fp, r0
 633              	.LVL63:
 634              		.loc 1 683 0
 635 00b8 10FA82F0 		uxtah	r0, r0, r2
 636              		.loc 1 684 0
 637 00bc 00EB1242 		add	r2, r0, r2, lsr #16
 638              	.LVL64:
 639              		.loc 1 685 0
 640 00c0 93B2     		uxth	r3, r2
 641 00c2 03EB1242 		add	r2, r3, r2, lsr #16
 642              	.LVL65:
 643              		.loc 1 686 0
 644 00c6 02EB1242 		add	r2, r2, r2, lsr #16
 645              	.LVL66:
 646              		.loc 1 688 0
 647 00ca D243     		mvns	r2, r2
 648              	.LVL67:
 649 00cc 6281     		strh	r2, [r4, #10]	@ unaligned
 650              	.LVL68:
 651              	.L79:
 652              	.LBE5:
 653              		.loc 1 702 0
 654 00ce 164B     		ldr	r3, .L93
 655              		.loc 1 721 0
 656 00d0 3A8C     		ldrh	r2, [r7, #32]
 657              		.loc 1 702 0
 658 00d2 B3F84810 		ldrh	r1, [r3, #72]
 659 00d6 0131     		adds	r1, r1, #1
 660 00d8 A3F84810 		strh	r1, [r3, #72]	@ movhi
 661              		.loc 1 721 0
 662 00dc 12B1     		cbz	r2, .L80
 663              		.loc 1 721 0 is_stmt 0 discriminator 1
 664 00de 2B89     		ldrh	r3, [r5, #8]
 665 00e0 9342     		cmp	r3, r2
 666 00e2 13D8     		bhi	.L92
 667              	.L80:
 668              		.loc 1 727 0 is_stmt 1
 669 00e4 7B69     		ldr	r3, [r7, #20]
 670 00e6 3846     		mov	r0, r7
 671 00e8 2946     		mov	r1, r5
 672 00ea 3246     		mov	r2, r6
 673 00ec 9847     		blx	r3
 674              	.LVL69:
 675              	.L74:
 676              		.loc 1 728 0
 677 00ee 40B2     		sxtb	r0, r0
 678 00f0 07B0     		add	sp, sp, #28
 679 00f2 BDE8F08F 		pop	{r4, r5, r6, r7, r8, r9, sl, fp, pc}
 680              	.LVL70:
 681              	.L77:
 682              	.LBB6:
ARM GAS  /var/folders/5n/p_75w94d66l9ssrldxqdhh700000gn/T//ccgVdQOR.s 			page 13


 683              		.loc 1 679 0
 684 00f6 E260     		str	r2, [r4, #12]	@ unaligned
 685 00f8 D7E7     		b	.L78
 686              	.LVL71:
 687              	.L72:
 688              	.LBE6:
 689              		.loc 1 698 0
 690 00fa 6B68     		ldr	r3, [r5, #4]
 691 00fc 06AE     		add	r6, sp, #24
 692              	.LVL72:
 693 00fe 1B69     		ldr	r3, [r3, #16]	@ unaligned
 694 0100 46F8043D 		str	r3, [r6, #-4]!
 695              	.LVL73:
 696 0104 E3E7     		b	.L79
 697              	.LVL74:
 698              	.L91:
 699              	.LBB7:
 700              		.loc 1 644 0 discriminator 1
 701 0106 FFF7FEFF 		bl	port_halt
 702              	.LVL75:
 703 010a 94E7     		b	.L75
 704              	.LVL76:
 705              	.L92:
 706              	.LBE7:
 707              		.loc 1 722 0
 708 010c 2846     		mov	r0, r5
 709 010e 3946     		mov	r1, r7
 710 0110 3246     		mov	r2, r6
 711 0112 FFF7FEFF 		bl	ip_frag
 712              	.LVL77:
 713 0116 EAE7     		b	.L74
 714              	.LVL78:
 715              	.L90:
 716              	.LBB8:
 717              		.loc 1 638 0
 718 0118 034B     		ldr	r3, .L93
 719 011a B3F85C20 		ldrh	r2, [r3, #92]
 720 011e 0132     		adds	r2, r2, #1
 721 0120 A3F85C20 		strh	r2, [r3, #92]	@ movhi
 722              		.loc 1 640 0
 723 0124 FE20     		movs	r0, #254
 724 0126 E2E7     		b	.L74
 725              	.L94:
 726              		.align	2
 727              	.L93:
 728 0128 00000000 		.word	lwip_stats
 729 012c 00000000 		.word	.LANCHOR4
 730              	.LBE8:
 731              		.cfi_endproc
 732              	.LFE9:
 733              		.size	ip_output_if, .-ip_output_if
 734              		.section	.text.ip_output,"ax",%progbits
 735              		.align	2
 736              		.p2align 4,,15
 737              		.global	ip_output
 738              		.thumb
 739              		.thumb_func
ARM GAS  /var/folders/5n/p_75w94d66l9ssrldxqdhh700000gn/T//ccgVdQOR.s 			page 14


 740              		.type	ip_output, %function
 741              	ip_output:
 742              	.LFB10:
 743              		.loc 1 750 0
 744              		.cfi_startproc
 745              		@ args = 8, pretend = 0, frame = 0
 746              		@ frame_needed = 0, uses_anonymous_args = 0
 747              	.LVL79:
 748 0000 F0B5     		push	{r4, r5, r6, r7, lr}
 749              	.LCFI5:
 750              		.cfi_def_cfa_offset 20
 751              		.cfi_offset 4, -20
 752              		.cfi_offset 5, -16
 753              		.cfi_offset 6, -12
 754              		.cfi_offset 7, -8
 755              		.cfi_offset 14, -4
 756 0002 0446     		mov	r4, r0
 757              		.loc 1 755 0
 758 0004 C089     		ldrh	r0, [r0, #14]
 759              	.LVL80:
 760 0006 0128     		cmp	r0, #1
 761              		.loc 1 750 0
 762 0008 85B0     		sub	sp, sp, #20
 763              	.LCFI6:
 764              		.cfi_def_cfa_offset 40
 765              		.loc 1 750 0
 766 000a 0F46     		mov	r7, r1
 767 000c 1546     		mov	r5, r2
 768 000e 1E46     		mov	r6, r3
 769              		.loc 1 755 0
 770 0010 01D0     		beq	.L96
 771              		.loc 1 755 0 is_stmt 0 discriminator 1
 772 0012 FFF7FEFF 		bl	port_halt
 773              	.LVL81:
 774              	.L96:
 775              		.loc 1 757 0 is_stmt 1
 776 0016 2846     		mov	r0, r5
 777 0018 FFF7FEFF 		bl	ip_route
 778              	.LVL82:
 779 001c 78B1     		cbz	r0, .L102
 780              		.loc 1 764 0
 781 001e 9DF82830 		ldrb	r3, [sp, #40]	@ zero_extendqisi2
 782 0022 0290     		str	r0, [sp, #8]
 783 0024 0093     		str	r3, [sp, #0]
 784 0026 9DF82C30 		ldrb	r3, [sp, #44]	@ zero_extendqisi2
 785 002a 2046     		mov	r0, r4
 786              	.LVL83:
 787 002c 0193     		str	r3, [sp, #4]
 788 002e 3946     		mov	r1, r7
 789 0030 2A46     		mov	r2, r5
 790 0032 3346     		mov	r3, r6
 791 0034 FFF7FEFF 		bl	ip_output_if
 792              	.LVL84:
 793              	.L98:
 794              		.loc 1 765 0
 795 0038 40B2     		sxtb	r0, r0
 796 003a 05B0     		add	sp, sp, #20
ARM GAS  /var/folders/5n/p_75w94d66l9ssrldxqdhh700000gn/T//ccgVdQOR.s 			page 15


 797 003c F0BD     		pop	{r4, r5, r6, r7, pc}
 798              	.LVL85:
 799              	.L102:
 800              		.loc 1 760 0
 801 003e 044B     		ldr	r3, .L103
 802 0040 B3F85620 		ldrh	r2, [r3, #86]
 803 0044 0132     		adds	r2, r2, #1
 804 0046 A3F85620 		strh	r2, [r3, #86]	@ movhi
 805              		.loc 1 761 0
 806 004a FC20     		movs	r0, #252
 807              	.LVL86:
 808 004c F4E7     		b	.L98
 809              	.L104:
 810 004e 00BF     		.align	2
 811              	.L103:
 812 0050 00000000 		.word	lwip_stats
 813              		.cfi_endproc
 814              	.LFE10:
 815              		.size	ip_output, .-ip_output
 816              		.global	current_iphdr_dest
 817              		.global	current_iphdr_src
 818              		.global	current_header
 819              		.global	current_netif
 820 0054 AFF30080 		.section	.bss.current_header,"aw",%nobits
 820      AFF30080 
 820      AFF30080 
 821              		.align	2
 822              		.set	.LANCHOR3,. + 0
 823              		.type	current_header, %object
 824              		.size	current_header, 4
 825              	current_header:
 826 0000 00000000 		.space	4
 827              		.section	.bss.ip_id,"aw",%nobits
 828              		.align	1
 829              		.set	.LANCHOR4,. + 0
 830              		.type	ip_id, %object
 831              		.size	ip_id, 2
 832              	ip_id:
 833 0000 0000     		.space	2
 834              		.section	.bss.current_iphdr_src,"aw",%nobits
 835              		.align	2
 836              		.set	.LANCHOR1,. + 0
 837              		.type	current_iphdr_src, %object
 838              		.size	current_iphdr_src, 4
 839              	current_iphdr_src:
 840 0000 00000000 		.space	4
 841              		.section	.bss.current_iphdr_dest,"aw",%nobits
 842              		.align	2
 843              		.set	.LANCHOR0,. + 0
 844              		.type	current_iphdr_dest, %object
 845              		.size	current_iphdr_dest, 4
 846              	current_iphdr_dest:
 847 0000 00000000 		.space	4
 848              		.section	.bss.current_netif,"aw",%nobits
 849              		.align	2
 850              		.set	.LANCHOR2,. + 0
 851              		.type	current_netif, %object
ARM GAS  /var/folders/5n/p_75w94d66l9ssrldxqdhh700000gn/T//ccgVdQOR.s 			page 16


 852              		.size	current_netif, 4
 853              	current_netif:
 854 0000 00000000 		.space	4
 855              		.text
 856              	.Letext0:
 857              		.file 2 "/usr/local/cross/lib/gcc/arm-none-eabi/4.7.2/../../../../arm-none-eabi/include/stdint.h"
 858              		.file 3 "../../os/various/lwip_bindings/arch/cc.h"
 859              		.file 4 "../../ext/lwip-1.4.0/src/include/lwip/err.h"
 860              		.file 5 "../../ext/lwip-1.4.0/src/include/lwip/pbuf.h"
 861              		.file 6 "../../ext/lwip-1.4.0/src/include/ipv4/lwip/ip_addr.h"
 862              		.file 7 "../../ext/lwip-1.4.0/src/include/lwip/netif.h"
 863              		.file 8 "../../ext/lwip-1.4.0/src/include/ipv4/lwip/ip.h"
 864              		.file 9 "../../ext/lwip-1.4.0/src/include/lwip/mem.h"
 865              		.file 10 "../../ext/lwip-1.4.0/src/include/lwip/stats.h"
 866              		.file 11 "../../ext/lwip-1.4.0/src/include/lwip/def.h"
 867              		.file 12 "../../ext/lwip-1.4.0/src/include/ipv4/lwip/inet_chksum.h"
 868              		.file 13 "../../ext/lwip-1.4.0/src/include/ipv4/lwip/ip_frag.h"
 869              		.file 14 "../../ext/lwip-1.4.0/src/include/lwip/raw.h"
 870              		.file 15 "../../ext/lwip-1.4.0/src/include/ipv4/lwip/icmp.h"
 871              		.file 16 "../../ext/lwip-1.4.0/src/include/lwip/udp.h"
 872              		.file 17 "../../ext/lwip-1.4.0/src/include/lwip/tcp_impl.h"
 873              		.file 18 "../../ext/lwip-1.4.0/src/include/lwip/memp.h"
 874              		.file 19 "../../os/ports/GCC/ARMCMx/chcore_v7m.h"
 875              		.section	.debug_info,"",%progbits
 876              	.Ldebug_info0:
 877 0000 2A0D0000 		.4byte	0xd2a
 878 0004 0200     		.2byte	0x2
 879 0006 00000000 		.4byte	.Ldebug_abbrev0
 880 000a 04       		.byte	0x4
 881 000b 01       		.uleb128 0x1
 882 000c F4000000 		.4byte	.LASF133
 883 0010 01       		.byte	0x1
 884 0011 67040000 		.4byte	.LASF134
 885 0015 06030000 		.4byte	.LASF135
 886 0019 48000000 		.4byte	.Ldebug_ranges0+0x48
 887 001d 00000000 		.4byte	0
 888 0021 00000000 		.4byte	0
 889 0025 00000000 		.4byte	.Ldebug_line0
 890 0029 02       		.uleb128 0x2
 891 002a 04       		.byte	0x4
 892 002b 05       		.byte	0x5
 893 002c 696E7400 		.ascii	"int\000"
 894 0030 03       		.uleb128 0x3
 895 0031 04       		.byte	0x4
 896 0032 07       		.byte	0x7
 897 0033 3D000000 		.4byte	.LASF0
 898 0037 04       		.uleb128 0x4
 899 0038 ED000000 		.4byte	.LASF2
 900 003c 02       		.byte	0x2
 901 003d 29       		.byte	0x29
 902 003e 42000000 		.4byte	0x42
 903 0042 03       		.uleb128 0x3
 904 0043 01       		.byte	0x1
 905 0044 06       		.byte	0x6
 906 0045 57050000 		.4byte	.LASF1
 907 0049 04       		.uleb128 0x4
 908 004a 9F020000 		.4byte	.LASF3
ARM GAS  /var/folders/5n/p_75w94d66l9ssrldxqdhh700000gn/T//ccgVdQOR.s 			page 17


 909 004e 02       		.byte	0x2
 910 004f 2A       		.byte	0x2a
 911 0050 54000000 		.4byte	0x54
 912 0054 03       		.uleb128 0x3
 913 0055 01       		.byte	0x1
 914 0056 08       		.byte	0x8
 915 0057 DB040000 		.4byte	.LASF4
 916 005b 04       		.uleb128 0x4
 917 005c 30010000 		.4byte	.LASF5
 918 0060 02       		.byte	0x2
 919 0061 35       		.byte	0x35
 920 0062 66000000 		.4byte	0x66
 921 0066 03       		.uleb128 0x3
 922 0067 02       		.byte	0x2
 923 0068 05       		.byte	0x5
 924 0069 CD030000 		.4byte	.LASF6
 925 006d 04       		.uleb128 0x4
 926 006e 95030000 		.4byte	.LASF7
 927 0072 02       		.byte	0x2
 928 0073 36       		.byte	0x36
 929 0074 78000000 		.4byte	0x78
 930 0078 03       		.uleb128 0x3
 931 0079 02       		.byte	0x2
 932 007a 07       		.byte	0x7
 933 007b 6E050000 		.4byte	.LASF8
 934 007f 03       		.uleb128 0x3
 935 0080 04       		.byte	0x4
 936 0081 05       		.byte	0x5
 937 0082 DC030000 		.4byte	.LASF9
 938 0086 04       		.uleb128 0x4
 939 0087 E4000000 		.4byte	.LASF10
 940 008b 02       		.byte	0x2
 941 008c 50       		.byte	0x50
 942 008d 91000000 		.4byte	0x91
 943 0091 03       		.uleb128 0x3
 944 0092 04       		.byte	0x4
 945 0093 07       		.byte	0x7
 946 0094 AC040000 		.4byte	.LASF11
 947 0098 03       		.uleb128 0x3
 948 0099 08       		.byte	0x8
 949 009a 05       		.byte	0x5
 950 009b D8020000 		.4byte	.LASF12
 951 009f 03       		.uleb128 0x3
 952 00a0 08       		.byte	0x8
 953 00a1 07       		.byte	0x7
 954 00a2 51010000 		.4byte	.LASF13
 955 00a6 05       		.uleb128 0x5
 956 00a7 04       		.byte	0x4
 957 00a8 03       		.uleb128 0x3
 958 00a9 04       		.byte	0x4
 959 00aa 07       		.byte	0x7
 960 00ab A3040000 		.4byte	.LASF14
 961 00af 03       		.uleb128 0x3
 962 00b0 01       		.byte	0x1
 963 00b1 08       		.byte	0x8
 964 00b2 61020000 		.4byte	.LASF15
 965 00b6 04       		.uleb128 0x4
ARM GAS  /var/folders/5n/p_75w94d66l9ssrldxqdhh700000gn/T//ccgVdQOR.s 			page 18


 966 00b7 01030000 		.4byte	.LASF16
 967 00bb 03       		.byte	0x3
 968 00bc 43       		.byte	0x43
 969 00bd 49000000 		.4byte	0x49
 970 00c1 04       		.uleb128 0x4
 971 00c2 15020000 		.4byte	.LASF17
 972 00c6 03       		.byte	0x3
 973 00c7 44       		.byte	0x44
 974 00c8 37000000 		.4byte	0x37
 975 00cc 04       		.uleb128 0x4
 976 00cd 6D000000 		.4byte	.LASF18
 977 00d1 03       		.byte	0x3
 978 00d2 45       		.byte	0x45
 979 00d3 6D000000 		.4byte	0x6d
 980 00d7 04       		.uleb128 0x4
 981 00d8 BE040000 		.4byte	.LASF19
 982 00dc 03       		.byte	0x3
 983 00dd 46       		.byte	0x46
 984 00de 5B000000 		.4byte	0x5b
 985 00e2 04       		.uleb128 0x4
 986 00e3 C7030000 		.4byte	.LASF20
 987 00e7 03       		.byte	0x3
 988 00e8 47       		.byte	0x47
 989 00e9 86000000 		.4byte	0x86
 990 00ed 04       		.uleb128 0x4
 991 00ee 5C000000 		.4byte	.LASF21
 992 00f2 04       		.byte	0x4
 993 00f3 2F       		.byte	0x2f
 994 00f4 C1000000 		.4byte	0xc1
 995 00f8 06       		.uleb128 0x6
 996 00f9 07020000 		.4byte	.LASF27
 997 00fd 10       		.byte	0x10
 998 00fe 05       		.byte	0x5
 999 00ff 49       		.byte	0x49
 1000 0100 67010000 		.4byte	0x167
 1001 0104 07       		.uleb128 0x7
 1002 0105 4A000000 		.4byte	.LASF22
 1003 0109 05       		.byte	0x5
 1004 010a 4B       		.byte	0x4b
 1005 010b 67010000 		.4byte	0x167
 1006 010f 02       		.byte	0x2
 1007 0110 23       		.byte	0x23
 1008 0111 00       		.uleb128 0
 1009 0112 07       		.uleb128 0x7
 1010 0113 EE010000 		.4byte	.LASF23
 1011 0117 05       		.byte	0x5
 1012 0118 4E       		.byte	0x4e
 1013 0119 A6000000 		.4byte	0xa6
 1014 011d 02       		.byte	0x2
 1015 011e 23       		.byte	0x23
 1016 011f 04       		.uleb128 0x4
 1017 0120 07       		.uleb128 0x7
 1018 0121 E6010000 		.4byte	.LASF24
 1019 0125 05       		.byte	0x5
 1020 0126 57       		.byte	0x57
 1021 0127 CC000000 		.4byte	0xcc
 1022 012b 02       		.byte	0x2
ARM GAS  /var/folders/5n/p_75w94d66l9ssrldxqdhh700000gn/T//ccgVdQOR.s 			page 19


 1023 012c 23       		.byte	0x23
 1024 012d 08       		.uleb128 0x8
 1025 012e 08       		.uleb128 0x8
 1026 012f 6C656E00 		.ascii	"len\000"
 1027 0133 05       		.byte	0x5
 1028 0134 5A       		.byte	0x5a
 1029 0135 CC000000 		.4byte	0xcc
 1030 0139 02       		.byte	0x2
 1031 013a 23       		.byte	0x23
 1032 013b 0A       		.uleb128 0xa
 1033 013c 07       		.uleb128 0x7
 1034 013d CC040000 		.4byte	.LASF25
 1035 0141 05       		.byte	0x5
 1036 0142 5D       		.byte	0x5d
 1037 0143 B6000000 		.4byte	0xb6
 1038 0147 02       		.byte	0x2
 1039 0148 23       		.byte	0x23
 1040 0149 0C       		.uleb128 0xc
 1041 014a 07       		.uleb128 0x7
 1042 014b 28000000 		.4byte	.LASF26
 1043 014f 05       		.byte	0x5
 1044 0150 60       		.byte	0x60
 1045 0151 B6000000 		.4byte	0xb6
 1046 0155 02       		.byte	0x2
 1047 0156 23       		.byte	0x23
 1048 0157 0D       		.uleb128 0xd
 1049 0158 08       		.uleb128 0x8
 1050 0159 72656600 		.ascii	"ref\000"
 1051 015d 05       		.byte	0x5
 1052 015e 67       		.byte	0x67
 1053 015f CC000000 		.4byte	0xcc
 1054 0163 02       		.byte	0x2
 1055 0164 23       		.byte	0x23
 1056 0165 0E       		.uleb128 0xe
 1057 0166 00       		.byte	0
 1058 0167 09       		.uleb128 0x9
 1059 0168 04       		.byte	0x4
 1060 0169 F8000000 		.4byte	0xf8
 1061 016d 06       		.uleb128 0x6
 1062 016e D4050000 		.4byte	.LASF28
 1063 0172 04       		.byte	0x4
 1064 0173 06       		.byte	0x6
 1065 0174 2C       		.byte	0x2c
 1066 0175 88010000 		.4byte	0x188
 1067 0179 07       		.uleb128 0x7
 1068 017a 28050000 		.4byte	.LASF29
 1069 017e 06       		.byte	0x6
 1070 017f 2D       		.byte	0x2d
 1071 0180 E2000000 		.4byte	0xe2
 1072 0184 02       		.byte	0x2
 1073 0185 23       		.byte	0x23
 1074 0186 00       		.uleb128 0
 1075 0187 00       		.byte	0
 1076 0188 06       		.uleb128 0x6
 1077 0189 8A020000 		.4byte	.LASF30
 1078 018d 04       		.byte	0x4
 1079 018e 06       		.byte	0x6
ARM GAS  /var/folders/5n/p_75w94d66l9ssrldxqdhh700000gn/T//ccgVdQOR.s 			page 20


 1080 018f 36       		.byte	0x36
 1081 0190 A3010000 		.4byte	0x1a3
 1082 0194 07       		.uleb128 0x7
 1083 0195 28050000 		.4byte	.LASF29
 1084 0199 06       		.byte	0x6
 1085 019a 37       		.byte	0x37
 1086 019b E2000000 		.4byte	0xe2
 1087 019f 02       		.byte	0x2
 1088 01a0 23       		.byte	0x23
 1089 01a1 00       		.uleb128 0
 1090 01a2 00       		.byte	0
 1091 01a3 04       		.uleb128 0x4
 1092 01a4 9E050000 		.4byte	.LASF31
 1093 01a8 06       		.byte	0x6
 1094 01a9 40       		.byte	0x40
 1095 01aa 6D010000 		.4byte	0x16d
 1096 01ae 04       		.uleb128 0x4
 1097 01af FD040000 		.4byte	.LASF32
 1098 01b3 06       		.byte	0x6
 1099 01b4 41       		.byte	0x41
 1100 01b5 88010000 		.4byte	0x188
 1101 01b9 09       		.uleb128 0x9
 1102 01ba 04       		.byte	0x4
 1103 01bb BF010000 		.4byte	0x1bf
 1104 01bf 06       		.uleb128 0x6
 1105 01c0 46050000 		.4byte	.LASF33
 1106 01c4 30       		.byte	0x30
 1107 01c5 07       		.byte	0x7
 1108 01c6 88       		.byte	0x88
 1109 01c7 8F020000 		.4byte	0x28f
 1110 01cb 07       		.uleb128 0x7
 1111 01cc 4A000000 		.4byte	.LASF22
 1112 01d0 07       		.byte	0x7
 1113 01d1 8A       		.byte	0x8a
 1114 01d2 B9010000 		.4byte	0x1b9
 1115 01d6 02       		.byte	0x2
 1116 01d7 23       		.byte	0x23
 1117 01d8 00       		.uleb128 0
 1118 01d9 07       		.uleb128 0x7
 1119 01da D4050000 		.4byte	.LASF28
 1120 01de 07       		.byte	0x7
 1121 01df 8D       		.byte	0x8d
 1122 01e0 A3010000 		.4byte	0x1a3
 1123 01e4 02       		.byte	0x2
 1124 01e5 23       		.byte	0x23
 1125 01e6 04       		.uleb128 0x4
 1126 01e7 07       		.uleb128 0x7
 1127 01e8 D0020000 		.4byte	.LASF34
 1128 01ec 07       		.byte	0x7
 1129 01ed 8E       		.byte	0x8e
 1130 01ee A3010000 		.4byte	0x1a3
 1131 01f2 02       		.byte	0x2
 1132 01f3 23       		.byte	0x23
 1133 01f4 08       		.uleb128 0x8
 1134 01f5 08       		.uleb128 0x8
 1135 01f6 677700   		.ascii	"gw\000"
 1136 01f9 07       		.byte	0x7
ARM GAS  /var/folders/5n/p_75w94d66l9ssrldxqdhh700000gn/T//ccgVdQOR.s 			page 21


 1137 01fa 8F       		.byte	0x8f
 1138 01fb A3010000 		.4byte	0x1a3
 1139 01ff 02       		.byte	0x2
 1140 0200 23       		.byte	0x23
 1141 0201 0C       		.uleb128 0xc
 1142 0202 07       		.uleb128 0x7
 1143 0203 22000000 		.4byte	.LASF35
 1144 0207 07       		.byte	0x7
 1145 0208 93       		.byte	0x93
 1146 0209 8F020000 		.4byte	0x28f
 1147 020d 02       		.byte	0x2
 1148 020e 23       		.byte	0x23
 1149 020f 10       		.uleb128 0x10
 1150 0210 07       		.uleb128 0x7
 1151 0211 00020000 		.4byte	.LASF36
 1152 0215 07       		.byte	0x7
 1153 0216 97       		.byte	0x97
 1154 0217 B5020000 		.4byte	0x2b5
 1155 021b 02       		.byte	0x2
 1156 021c 23       		.byte	0x23
 1157 021d 14       		.uleb128 0x14
 1158 021e 07       		.uleb128 0x7
 1159 021f 62000000 		.4byte	.LASF37
 1160 0223 07       		.byte	0x7
 1161 0224 9B       		.byte	0x9b
 1162 0225 E6020000 		.4byte	0x2e6
 1163 0229 02       		.byte	0x2
 1164 022a 23       		.byte	0x23
 1165 022b 18       		.uleb128 0x18
 1166 022c 07       		.uleb128 0x7
 1167 022d 40050000 		.4byte	.LASF38
 1168 0231 07       		.byte	0x7
 1169 0232 A8       		.byte	0xa8
 1170 0233 A6000000 		.4byte	0xa6
 1171 0237 02       		.byte	0x2
 1172 0238 23       		.byte	0x23
 1173 0239 1C       		.uleb128 0x1c
 1174 023a 08       		.uleb128 0x8
 1175 023b 6D747500 		.ascii	"mtu\000"
 1176 023f 07       		.byte	0x7
 1177 0240 B6       		.byte	0xb6
 1178 0241 CC000000 		.4byte	0xcc
 1179 0245 02       		.byte	0x2
 1180 0246 23       		.byte	0x23
 1181 0247 20       		.uleb128 0x20
 1182 0248 07       		.uleb128 0x7
 1183 0249 9C010000 		.4byte	.LASF39
 1184 024d 07       		.byte	0x7
 1185 024e B8       		.byte	0xb8
 1186 024f B6000000 		.4byte	0xb6
 1187 0253 02       		.byte	0x2
 1188 0254 23       		.byte	0x23
 1189 0255 22       		.uleb128 0x22
 1190 0256 07       		.uleb128 0x7
 1191 0257 43010000 		.4byte	.LASF40
 1192 025b 07       		.byte	0x7
 1193 025c BA       		.byte	0xba
ARM GAS  /var/folders/5n/p_75w94d66l9ssrldxqdhh700000gn/T//ccgVdQOR.s 			page 22


 1194 025d 0C030000 		.4byte	0x30c
 1195 0261 02       		.byte	0x2
 1196 0262 23       		.byte	0x23
 1197 0263 23       		.uleb128 0x23
 1198 0264 07       		.uleb128 0x7
 1199 0265 28000000 		.4byte	.LASF26
 1200 0269 07       		.byte	0x7
 1201 026a BC       		.byte	0xbc
 1202 026b B6000000 		.4byte	0xb6
 1203 026f 02       		.byte	0x2
 1204 0270 23       		.byte	0x23
 1205 0271 29       		.uleb128 0x29
 1206 0272 07       		.uleb128 0x7
 1207 0273 31040000 		.4byte	.LASF41
 1208 0277 07       		.byte	0x7
 1209 0278 BE       		.byte	0xbe
 1210 0279 1C030000 		.4byte	0x31c
 1211 027d 02       		.byte	0x2
 1212 027e 23       		.byte	0x23
 1213 027f 2A       		.uleb128 0x2a
 1214 0280 08       		.uleb128 0x8
 1215 0281 6E756D00 		.ascii	"num\000"
 1216 0285 07       		.byte	0x7
 1217 0286 C0       		.byte	0xc0
 1218 0287 B6000000 		.4byte	0xb6
 1219 028b 02       		.byte	0x2
 1220 028c 23       		.byte	0x23
 1221 028d 2C       		.uleb128 0x2c
 1222 028e 00       		.byte	0
 1223 028f 04       		.uleb128 0x4
 1224 0290 D5000000 		.4byte	.LASF42
 1225 0294 07       		.byte	0x7
 1226 0295 6D       		.byte	0x6d
 1227 0296 9A020000 		.4byte	0x29a
 1228 029a 09       		.uleb128 0x9
 1229 029b 04       		.byte	0x4
 1230 029c A0020000 		.4byte	0x2a0
 1231 02a0 0A       		.uleb128 0xa
 1232 02a1 01       		.byte	0x1
 1233 02a2 ED000000 		.4byte	0xed
 1234 02a6 B5020000 		.4byte	0x2b5
 1235 02aa 0B       		.uleb128 0xb
 1236 02ab 67010000 		.4byte	0x167
 1237 02af 0B       		.uleb128 0xb
 1238 02b0 B9010000 		.4byte	0x1b9
 1239 02b4 00       		.byte	0
 1240 02b5 04       		.uleb128 0x4
 1241 02b6 87000000 		.4byte	.LASF43
 1242 02ba 07       		.byte	0x7
 1243 02bb 76       		.byte	0x76
 1244 02bc C0020000 		.4byte	0x2c0
 1245 02c0 09       		.uleb128 0x9
 1246 02c1 04       		.byte	0x4
 1247 02c2 C6020000 		.4byte	0x2c6
 1248 02c6 0A       		.uleb128 0xa
 1249 02c7 01       		.byte	0x1
 1250 02c8 ED000000 		.4byte	0xed
ARM GAS  /var/folders/5n/p_75w94d66l9ssrldxqdhh700000gn/T//ccgVdQOR.s 			page 23


 1251 02cc E0020000 		.4byte	0x2e0
 1252 02d0 0B       		.uleb128 0xb
 1253 02d1 B9010000 		.4byte	0x1b9
 1254 02d5 0B       		.uleb128 0xb
 1255 02d6 67010000 		.4byte	0x167
 1256 02da 0B       		.uleb128 0xb
 1257 02db E0020000 		.4byte	0x2e0
 1258 02df 00       		.byte	0
 1259 02e0 09       		.uleb128 0x9
 1260 02e1 04       		.byte	0x4
 1261 02e2 A3010000 		.4byte	0x1a3
 1262 02e6 04       		.uleb128 0x4
 1263 02e7 36040000 		.4byte	.LASF44
 1264 02eb 07       		.byte	0x7
 1265 02ec 7E       		.byte	0x7e
 1266 02ed F1020000 		.4byte	0x2f1
 1267 02f1 09       		.uleb128 0x9
 1268 02f2 04       		.byte	0x4
 1269 02f3 F7020000 		.4byte	0x2f7
 1270 02f7 0A       		.uleb128 0xa
 1271 02f8 01       		.byte	0x1
 1272 02f9 ED000000 		.4byte	0xed
 1273 02fd 0C030000 		.4byte	0x30c
 1274 0301 0B       		.uleb128 0xb
 1275 0302 B9010000 		.4byte	0x1b9
 1276 0306 0B       		.uleb128 0xb
 1277 0307 67010000 		.4byte	0x167
 1278 030b 00       		.byte	0
 1279 030c 0C       		.uleb128 0xc
 1280 030d B6000000 		.4byte	0xb6
 1281 0311 1C030000 		.4byte	0x31c
 1282 0315 0D       		.uleb128 0xd
 1283 0316 A8000000 		.4byte	0xa8
 1284 031a 05       		.byte	0x5
 1285 031b 00       		.byte	0
 1286 031c 0C       		.uleb128 0xc
 1287 031d AF000000 		.4byte	0xaf
 1288 0321 2C030000 		.4byte	0x32c
 1289 0325 0D       		.uleb128 0xd
 1290 0326 A8000000 		.4byte	0xa8
 1291 032a 01       		.byte	0x1
 1292 032b 00       		.byte	0
 1293 032c 06       		.uleb128 0x6
 1294 032d 2A040000 		.4byte	.LASF45
 1295 0331 14       		.byte	0x14
 1296 0332 08       		.byte	0x8
 1297 0333 74       		.byte	0x74
 1298 0334 B7030000 		.4byte	0x3b7
 1299 0338 07       		.uleb128 0x7
 1300 0339 A4030000 		.4byte	.LASF46
 1301 033d 08       		.byte	0x8
 1302 033e 76       		.byte	0x76
 1303 033f CC000000 		.4byte	0xcc
 1304 0343 02       		.byte	0x2
 1305 0344 23       		.byte	0x23
 1306 0345 00       		.uleb128 0
 1307 0346 07       		.uleb128 0x7
ARM GAS  /var/folders/5n/p_75w94d66l9ssrldxqdhh700000gn/T//ccgVdQOR.s 			page 24


 1308 0347 99050000 		.4byte	.LASF47
 1309 034b 08       		.byte	0x8
 1310 034c 78       		.byte	0x78
 1311 034d CC000000 		.4byte	0xcc
 1312 0351 02       		.byte	0x2
 1313 0352 23       		.byte	0x23
 1314 0353 02       		.uleb128 0x2
 1315 0354 08       		.uleb128 0x8
 1316 0355 5F696400 		.ascii	"_id\000"
 1317 0359 08       		.byte	0x8
 1318 035a 7A       		.byte	0x7a
 1319 035b CC000000 		.4byte	0xcc
 1320 035f 02       		.byte	0x2
 1321 0360 23       		.byte	0x23
 1322 0361 04       		.uleb128 0x4
 1323 0362 07       		.uleb128 0x7
 1324 0363 A7010000 		.4byte	.LASF48
 1325 0367 08       		.byte	0x8
 1326 0368 7C       		.byte	0x7c
 1327 0369 CC000000 		.4byte	0xcc
 1328 036d 02       		.byte	0x2
 1329 036e 23       		.byte	0x23
 1330 036f 06       		.uleb128 0x6
 1331 0370 07       		.uleb128 0x7
 1332 0371 73000000 		.4byte	.LASF49
 1333 0375 08       		.byte	0x8
 1334 0376 82       		.byte	0x82
 1335 0377 B6000000 		.4byte	0xb6
 1336 037b 02       		.byte	0x2
 1337 037c 23       		.byte	0x23
 1338 037d 08       		.uleb128 0x8
 1339 037e 07       		.uleb128 0x7
 1340 037f A7020000 		.4byte	.LASF50
 1341 0383 08       		.byte	0x8
 1342 0384 84       		.byte	0x84
 1343 0385 B6000000 		.4byte	0xb6
 1344 0389 02       		.byte	0x2
 1345 038a 23       		.byte	0x23
 1346 038b 09       		.uleb128 0x9
 1347 038c 07       		.uleb128 0x7
 1348 038d 94010000 		.4byte	.LASF51
 1349 0391 08       		.byte	0x8
 1350 0392 86       		.byte	0x86
 1351 0393 CC000000 		.4byte	0xcc
 1352 0397 02       		.byte	0x2
 1353 0398 23       		.byte	0x23
 1354 0399 0A       		.uleb128 0xa
 1355 039a 08       		.uleb128 0x8
 1356 039b 73726300 		.ascii	"src\000"
 1357 039f 08       		.byte	0x8
 1358 03a0 88       		.byte	0x88
 1359 03a1 AE010000 		.4byte	0x1ae
 1360 03a5 02       		.byte	0x2
 1361 03a6 23       		.byte	0x23
 1362 03a7 0C       		.uleb128 0xc
 1363 03a8 07       		.uleb128 0x7
 1364 03a9 C5050000 		.4byte	.LASF52
ARM GAS  /var/folders/5n/p_75w94d66l9ssrldxqdhh700000gn/T//ccgVdQOR.s 			page 25


 1365 03ad 08       		.byte	0x8
 1366 03ae 89       		.byte	0x89
 1367 03af AE010000 		.4byte	0x1ae
 1368 03b3 02       		.byte	0x2
 1369 03b4 23       		.byte	0x23
 1370 03b5 10       		.uleb128 0x10
 1371 03b6 00       		.byte	0
 1372 03b7 04       		.uleb128 0x4
 1373 03b8 73020000 		.4byte	.LASF53
 1374 03bc 09       		.byte	0x9
 1375 03bd 4B       		.byte	0x4b
 1376 03be CC000000 		.4byte	0xcc
 1377 03c2 0E       		.uleb128 0xe
 1378 03c3 59040000 		.4byte	.LASF136
 1379 03c7 01       		.byte	0x1
 1380 03c8 0F       		.byte	0xf
 1381 03c9 38       		.byte	0x38
 1382 03ca F3030000 		.4byte	0x3f3
 1383 03ce 0F       		.uleb128 0xf
 1384 03cf 4F000000 		.4byte	.LASF54
 1385 03d3 00       		.sleb128 0
 1386 03d4 0F       		.uleb128 0xf
 1387 03d5 14000000 		.4byte	.LASF55
 1388 03d9 01       		.sleb128 1
 1389 03da 0F       		.uleb128 0xf
 1390 03db 09050000 		.4byte	.LASF56
 1391 03df 02       		.sleb128 2
 1392 03e0 0F       		.uleb128 0xf
 1393 03e1 66030000 		.4byte	.LASF57
 1394 03e5 03       		.sleb128 3
 1395 03e6 0F       		.uleb128 0xf
 1396 03e7 2D050000 		.4byte	.LASF58
 1397 03eb 04       		.sleb128 4
 1398 03ec 0F       		.uleb128 0xf
 1399 03ed AF010000 		.4byte	.LASF59
 1400 03f1 05       		.sleb128 5
 1401 03f2 00       		.byte	0
 1402 03f3 10       		.uleb128 0x10
 1403 03f4 01       		.byte	0x1
 1404 03f5 12       		.byte	0x12
 1405 03f6 2B       		.byte	0x2b
 1406 03f7 56040000 		.4byte	0x456
 1407 03fb 0F       		.uleb128 0xf
 1408 03fc 8F040000 		.4byte	.LASF60
 1409 0400 00       		.sleb128 0
 1410 0401 0F       		.uleb128 0xf
 1411 0402 02040000 		.4byte	.LASF61
 1412 0406 01       		.sleb128 1
 1413 0407 0F       		.uleb128 0xf
 1414 0408 EF020000 		.4byte	.LASF62
 1415 040c 02       		.sleb128 2
 1416 040d 0F       		.uleb128 0xf
 1417 040e 00000000 		.4byte	.LASF63
 1418 0412 03       		.sleb128 3
 1419 0413 0F       		.uleb128 0xf
 1420 0414 F0040000 		.4byte	.LASF64
 1421 0418 04       		.sleb128 4
ARM GAS  /var/folders/5n/p_75w94d66l9ssrldxqdhh700000gn/T//ccgVdQOR.s 			page 26


 1422 0419 0F       		.uleb128 0xf
 1423 041a 2E000000 		.4byte	.LASF65
 1424 041e 05       		.sleb128 5
 1425 041f 0F       		.uleb128 0xf
 1426 0420 4A040000 		.4byte	.LASF66
 1427 0424 06       		.sleb128 6
 1428 0425 0F       		.uleb128 0xf
 1429 0426 C4020000 		.4byte	.LASF67
 1430 042a 07       		.sleb128 7
 1431 042b 0F       		.uleb128 0xf
 1432 042c 29020000 		.4byte	.LASF68
 1433 0430 08       		.sleb128 8
 1434 0431 0F       		.uleb128 0xf
 1435 0432 00010000 		.4byte	.LASF69
 1436 0436 09       		.sleb128 9
 1437 0437 0F       		.uleb128 0xf
 1438 0438 BB010000 		.4byte	.LASF70
 1439 043c 0A       		.sleb128 10
 1440 043d 0F       		.uleb128 0xf
 1441 043e F1030000 		.4byte	.LASF71
 1442 0442 0B       		.sleb128 11
 1443 0443 0F       		.uleb128 0xf
 1444 0444 57020000 		.4byte	.LASF72
 1445 0448 0C       		.sleb128 12
 1446 0449 0F       		.uleb128 0xf
 1447 044a A2000000 		.4byte	.LASF73
 1448 044e 0D       		.sleb128 13
 1449 044f 0F       		.uleb128 0xf
 1450 0450 0C020000 		.4byte	.LASF74
 1451 0454 0E       		.sleb128 14
 1452 0455 00       		.byte	0
 1453 0456 06       		.uleb128 0x6
 1454 0457 7E020000 		.4byte	.LASF75
 1455 045b 18       		.byte	0x18
 1456 045c 0A       		.byte	0xa
 1457 045d 3A       		.byte	0x3a
 1458 045e 0A050000 		.4byte	0x50a
 1459 0462 07       		.uleb128 0x7
 1460 0463 81050000 		.4byte	.LASF76
 1461 0467 0A       		.byte	0xa
 1462 0468 3B       		.byte	0x3b
 1463 0469 CC000000 		.4byte	0xcc
 1464 046d 02       		.byte	0x2
 1465 046e 23       		.byte	0x23
 1466 046f 00       		.uleb128 0
 1467 0470 07       		.uleb128 0x7
 1468 0471 52050000 		.4byte	.LASF77
 1469 0475 0A       		.byte	0xa
 1470 0476 3C       		.byte	0x3c
 1471 0477 CC000000 		.4byte	0xcc
 1472 047b 02       		.byte	0x2
 1473 047c 23       		.byte	0x23
 1474 047d 02       		.uleb128 0x2
 1475 047e 08       		.uleb128 0x8
 1476 047f 667700   		.ascii	"fw\000"
 1477 0482 0A       		.byte	0xa
 1478 0483 3D       		.byte	0x3d
ARM GAS  /var/folders/5n/p_75w94d66l9ssrldxqdhh700000gn/T//ccgVdQOR.s 			page 27


 1479 0484 CC000000 		.4byte	0xcc
 1480 0488 02       		.byte	0x2
 1481 0489 23       		.byte	0x23
 1482 048a 04       		.uleb128 0x4
 1483 048b 07       		.uleb128 0x7
 1484 048c 3B050000 		.4byte	.LASF78
 1485 0490 0A       		.byte	0xa
 1486 0491 3E       		.byte	0x3e
 1487 0492 CC000000 		.4byte	0xcc
 1488 0496 02       		.byte	0x2
 1489 0497 23       		.byte	0x23
 1490 0498 06       		.uleb128 0x6
 1491 0499 07       		.uleb128 0x7
 1492 049a 5F030000 		.4byte	.LASF79
 1493 049e 0A       		.byte	0xa
 1494 049f 3F       		.byte	0x3f
 1495 04a0 CC000000 		.4byte	0xcc
 1496 04a4 02       		.byte	0x2
 1497 04a5 23       		.byte	0x23
 1498 04a6 08       		.uleb128 0x8
 1499 04a7 07       		.uleb128 0x7
 1500 04a8 9C040000 		.4byte	.LASF80
 1501 04ac 0A       		.byte	0xa
 1502 04ad 40       		.byte	0x40
 1503 04ae CC000000 		.4byte	0xcc
 1504 04b2 02       		.byte	0x2
 1505 04b3 23       		.byte	0x23
 1506 04b4 0A       		.uleb128 0xa
 1507 04b5 07       		.uleb128 0x7
 1508 04b6 E9040000 		.4byte	.LASF81
 1509 04ba 0A       		.byte	0xa
 1510 04bb 41       		.byte	0x41
 1511 04bc CC000000 		.4byte	0xcc
 1512 04c0 02       		.byte	0x2
 1513 04c1 23       		.byte	0x23
 1514 04c2 0C       		.uleb128 0xc
 1515 04c3 07       		.uleb128 0x7
 1516 04c4 E5030000 		.4byte	.LASF82
 1517 04c8 0A       		.byte	0xa
 1518 04c9 42       		.byte	0x42
 1519 04ca CC000000 		.4byte	0xcc
 1520 04ce 02       		.byte	0x2
 1521 04cf 23       		.byte	0x23
 1522 04d0 0E       		.uleb128 0xe
 1523 04d1 07       		.uleb128 0x7
 1524 04d2 C4040000 		.4byte	.LASF83
 1525 04d6 0A       		.byte	0xa
 1526 04d7 43       		.byte	0x43
 1527 04d8 CC000000 		.4byte	0xcc
 1528 04dc 02       		.byte	0x2
 1529 04dd 23       		.byte	0x23
 1530 04de 10       		.uleb128 0x10
 1531 04df 07       		.uleb128 0x7
 1532 04e0 13010000 		.4byte	.LASF84
 1533 04e4 0A       		.byte	0xa
 1534 04e5 44       		.byte	0x44
 1535 04e6 CC000000 		.4byte	0xcc
ARM GAS  /var/folders/5n/p_75w94d66l9ssrldxqdhh700000gn/T//ccgVdQOR.s 			page 28


 1536 04ea 02       		.byte	0x2
 1537 04eb 23       		.byte	0x23
 1538 04ec 12       		.uleb128 0x12
 1539 04ed 08       		.uleb128 0x8
 1540 04ee 65727200 		.ascii	"err\000"
 1541 04f2 0A       		.byte	0xa
 1542 04f3 45       		.byte	0x45
 1543 04f4 CC000000 		.4byte	0xcc
 1544 04f8 02       		.byte	0x2
 1545 04f9 23       		.byte	0x23
 1546 04fa 14       		.uleb128 0x14
 1547 04fb 07       		.uleb128 0x7
 1548 04fc 14040000 		.4byte	.LASF85
 1549 0500 0A       		.byte	0xa
 1550 0501 46       		.byte	0x46
 1551 0502 CC000000 		.4byte	0xcc
 1552 0506 02       		.byte	0x2
 1553 0507 23       		.byte	0x23
 1554 0508 16       		.uleb128 0x16
 1555 0509 00       		.byte	0
 1556 050a 06       		.uleb128 0x6
 1557 050b 7D000000 		.4byte	.LASF86
 1558 050f 0A       		.byte	0xa
 1559 0510 0A       		.byte	0xa
 1560 0511 5A       		.byte	0x5a
 1561 0512 5D050000 		.4byte	0x55d
 1562 0516 07       		.uleb128 0x7
 1563 0517 EB030000 		.4byte	.LASF87
 1564 051b 0A       		.byte	0xa
 1565 051c 5E       		.byte	0x5e
 1566 051d B7030000 		.4byte	0x3b7
 1567 0521 02       		.byte	0x2
 1568 0522 23       		.byte	0x23
 1569 0523 00       		.uleb128 0
 1570 0524 07       		.uleb128 0x7
 1571 0525 D0010000 		.4byte	.LASF88
 1572 0529 0A       		.byte	0xa
 1573 052a 5F       		.byte	0x5f
 1574 052b B7030000 		.4byte	0x3b7
 1575 052f 02       		.byte	0x2
 1576 0530 23       		.byte	0x23
 1577 0531 02       		.uleb128 0x2
 1578 0532 08       		.uleb128 0x8
 1579 0533 6D617800 		.ascii	"max\000"
 1580 0537 0A       		.byte	0xa
 1581 0538 60       		.byte	0x60
 1582 0539 B7030000 		.4byte	0x3b7
 1583 053d 02       		.byte	0x2
 1584 053e 23       		.byte	0x23
 1585 053f 04       		.uleb128 0x4
 1586 0540 08       		.uleb128 0x8
 1587 0541 65727200 		.ascii	"err\000"
 1588 0545 0A       		.byte	0xa
 1589 0546 61       		.byte	0x61
 1590 0547 CC000000 		.4byte	0xcc
 1591 054b 02       		.byte	0x2
 1592 054c 23       		.byte	0x23
ARM GAS  /var/folders/5n/p_75w94d66l9ssrldxqdhh700000gn/T//ccgVdQOR.s 			page 29


 1593 054d 06       		.uleb128 0x6
 1594 054e 07       		.uleb128 0x7
 1595 054f 28010000 		.4byte	.LASF89
 1596 0553 0A       		.byte	0xa
 1597 0554 62       		.byte	0x62
 1598 0555 CC000000 		.4byte	0xcc
 1599 0559 02       		.byte	0x2
 1600 055a 23       		.byte	0x23
 1601 055b 08       		.uleb128 0x8
 1602 055c 00       		.byte	0
 1603 055d 06       		.uleb128 0x6
 1604 055e C7000000 		.4byte	.LASF90
 1605 0562 06       		.byte	0x6
 1606 0563 0A       		.byte	0xa
 1607 0564 65       		.byte	0x65
 1608 0565 94050000 		.4byte	0x594
 1609 0569 07       		.uleb128 0x7
 1610 056a D0010000 		.4byte	.LASF88
 1611 056e 0A       		.byte	0xa
 1612 056f 66       		.byte	0x66
 1613 0570 CC000000 		.4byte	0xcc
 1614 0574 02       		.byte	0x2
 1615 0575 23       		.byte	0x23
 1616 0576 00       		.uleb128 0
 1617 0577 08       		.uleb128 0x8
 1618 0578 6D617800 		.ascii	"max\000"
 1619 057c 0A       		.byte	0xa
 1620 057d 67       		.byte	0x67
 1621 057e CC000000 		.4byte	0xcc
 1622 0582 02       		.byte	0x2
 1623 0583 23       		.byte	0x23
 1624 0584 02       		.uleb128 0x2
 1625 0585 08       		.uleb128 0x8
 1626 0586 65727200 		.ascii	"err\000"
 1627 058a 0A       		.byte	0xa
 1628 058b 68       		.byte	0x68
 1629 058c CC000000 		.4byte	0xcc
 1630 0590 02       		.byte	0x2
 1631 0591 23       		.byte	0x23
 1632 0592 04       		.uleb128 0x4
 1633 0593 00       		.byte	0
 1634 0594 06       		.uleb128 0x6
 1635 0595 D1040000 		.4byte	.LASF91
 1636 0599 12       		.byte	0x12
 1637 059a 0A       		.byte	0xa
 1638 059b 6B       		.byte	0x6b
 1639 059c CB050000 		.4byte	0x5cb
 1640 05a0 08       		.uleb128 0x8
 1641 05a1 73656D00 		.ascii	"sem\000"
 1642 05a5 0A       		.byte	0xa
 1643 05a6 6C       		.byte	0x6c
 1644 05a7 5D050000 		.4byte	0x55d
 1645 05ab 02       		.byte	0x2
 1646 05ac 23       		.byte	0x23
 1647 05ad 00       		.uleb128 0
 1648 05ae 07       		.uleb128 0x7
 1649 05af 1A010000 		.4byte	.LASF92
ARM GAS  /var/folders/5n/p_75w94d66l9ssrldxqdhh700000gn/T//ccgVdQOR.s 			page 30


 1650 05b3 0A       		.byte	0xa
 1651 05b4 6D       		.byte	0x6d
 1652 05b5 5D050000 		.4byte	0x55d
 1653 05b9 02       		.byte	0x2
 1654 05ba 23       		.byte	0x23
 1655 05bb 06       		.uleb128 0x6
 1656 05bc 07       		.uleb128 0x7
 1657 05bd 0F040000 		.4byte	.LASF93
 1658 05c1 0A       		.byte	0xa
 1659 05c2 6E       		.byte	0x6e
 1660 05c3 5D050000 		.4byte	0x55d
 1661 05c7 02       		.byte	0x2
 1662 05c8 23       		.byte	0x23
 1663 05c9 0C       		.uleb128 0xc
 1664 05ca 00       		.byte	0
 1665 05cb 11       		.uleb128 0x11
 1666 05cc D5010000 		.4byte	.LASF94
 1667 05d0 5001     		.2byte	0x150
 1668 05d2 0A       		.byte	0xa
 1669 05d3 71       		.byte	0x71
 1670 05d4 68060000 		.4byte	0x668
 1671 05d8 07       		.uleb128 0x7
 1672 05d9 78000000 		.4byte	.LASF95
 1673 05dd 0A       		.byte	0xa
 1674 05de 73       		.byte	0x73
 1675 05df 56040000 		.4byte	0x456
 1676 05e3 02       		.byte	0x2
 1677 05e4 23       		.byte	0x23
 1678 05e5 00       		.uleb128 0
 1679 05e6 07       		.uleb128 0x7
 1680 05e7 4A010000 		.4byte	.LASF96
 1681 05eb 0A       		.byte	0xa
 1682 05ec 76       		.byte	0x76
 1683 05ed 56040000 		.4byte	0x456
 1684 05f1 02       		.byte	0x2
 1685 05f2 23       		.byte	0x23
 1686 05f3 18       		.uleb128 0x18
 1687 05f4 07       		.uleb128 0x7
 1688 05f5 20010000 		.4byte	.LASF97
 1689 05f9 0A       		.byte	0xa
 1690 05fa 79       		.byte	0x79
 1691 05fb 56040000 		.4byte	0x456
 1692 05ff 02       		.byte	0x2
 1693 0600 23       		.byte	0x23
 1694 0601 30       		.uleb128 0x30
 1695 0602 08       		.uleb128 0x8
 1696 0603 697000   		.ascii	"ip\000"
 1697 0606 0A       		.byte	0xa
 1698 0607 7C       		.byte	0x7c
 1699 0608 56040000 		.4byte	0x456
 1700 060c 02       		.byte	0x2
 1701 060d 23       		.byte	0x23
 1702 060e 48       		.uleb128 0x48
 1703 060f 07       		.uleb128 0x7
 1704 0610 D7030000 		.4byte	.LASF98
 1705 0614 0A       		.byte	0xa
 1706 0615 7F       		.byte	0x7f
ARM GAS  /var/folders/5n/p_75w94d66l9ssrldxqdhh700000gn/T//ccgVdQOR.s 			page 31


 1707 0616 56040000 		.4byte	0x456
 1708 061a 02       		.byte	0x2
 1709 061b 23       		.byte	0x23
 1710 061c 60       		.uleb128 0x60
 1711 061d 08       		.uleb128 0x8
 1712 061e 75647000 		.ascii	"udp\000"
 1713 0622 0A       		.byte	0xa
 1714 0623 85       		.byte	0x85
 1715 0624 56040000 		.4byte	0x456
 1716 0628 02       		.byte	0x2
 1717 0629 23       		.byte	0x23
 1718 062a 78       		.uleb128 0x78
 1719 062b 08       		.uleb128 0x8
 1720 062c 74637000 		.ascii	"tcp\000"
 1721 0630 0A       		.byte	0xa
 1722 0631 88       		.byte	0x88
 1723 0632 56040000 		.4byte	0x456
 1724 0636 03       		.byte	0x3
 1725 0637 23       		.byte	0x23
 1726 0638 9001     		.uleb128 0x90
 1727 063a 08       		.uleb128 0x8
 1728 063b 6D656D00 		.ascii	"mem\000"
 1729 063f 0A       		.byte	0xa
 1730 0640 8B       		.byte	0x8b
 1731 0641 0A050000 		.4byte	0x50a
 1732 0645 03       		.byte	0x3
 1733 0646 23       		.byte	0x23
 1734 0647 A801     		.uleb128 0xa8
 1735 0649 07       		.uleb128 0x7
 1736 064a FC020000 		.4byte	.LASF99
 1737 064e 0A       		.byte	0xa
 1738 064f 8E       		.byte	0x8e
 1739 0650 68060000 		.4byte	0x668
 1740 0654 03       		.byte	0x3
 1741 0655 23       		.byte	0x23
 1742 0656 B201     		.uleb128 0xb2
 1743 0658 08       		.uleb128 0x8
 1744 0659 73797300 		.ascii	"sys\000"
 1745 065d 0A       		.byte	0xa
 1746 065e 91       		.byte	0x91
 1747 065f 94050000 		.4byte	0x594
 1748 0663 03       		.byte	0x3
 1749 0664 23       		.byte	0x23
 1750 0665 BE02     		.uleb128 0x13e
 1751 0667 00       		.byte	0
 1752 0668 0C       		.uleb128 0xc
 1753 0669 0A050000 		.4byte	0x50a
 1754 066d 78060000 		.4byte	0x678
 1755 0671 0D       		.uleb128 0xd
 1756 0672 A8000000 		.4byte	0xa8
 1757 0676 0D       		.byte	0xd
 1758 0677 00       		.byte	0
 1759 0678 12       		.uleb128 0x12
 1760 0679 01       		.byte	0x1
 1761 067a A8050000 		.4byte	.LASF100
 1762 067e 01       		.byte	0x1
 1763 067f 7C       		.byte	0x7c
ARM GAS  /var/folders/5n/p_75w94d66l9ssrldxqdhh700000gn/T//ccgVdQOR.s 			page 32


 1764 0680 01       		.byte	0x1
 1765 0681 B9010000 		.4byte	0x1b9
 1766 0685 00000000 		.4byte	.LFB7
 1767 0689 4C000000 		.4byte	.LFE7
 1768 068d 00000000 		.4byte	.LLST0
 1769 0691 01       		.byte	0x1
 1770 0692 B5060000 		.4byte	0x6b5
 1771 0696 13       		.uleb128 0x13
 1772 0697 C5050000 		.4byte	.LASF52
 1773 069b 01       		.byte	0x1
 1774 069c 7C       		.byte	0x7c
 1775 069d E0020000 		.4byte	0x2e0
 1776 06a1 20000000 		.4byte	.LLST1
 1777 06a5 14       		.uleb128 0x14
 1778 06a6 46050000 		.4byte	.LASF33
 1779 06aa 01       		.byte	0x1
 1780 06ab 7E       		.byte	0x7e
 1781 06ac B9010000 		.4byte	0x1b9
 1782 06b0 4C000000 		.4byte	.LLST2
 1783 06b4 00       		.byte	0
 1784 06b5 12       		.uleb128 0x12
 1785 06b6 01       		.byte	0x1
 1786 06b7 8C030000 		.4byte	.LASF101
 1787 06bb 01       		.byte	0x1
 1788 06bc F2       		.byte	0xf2
 1789 06bd 01       		.byte	0x1
 1790 06be ED000000 		.4byte	0xed
 1791 06c2 00000000 		.4byte	.LFB8
 1792 06c6 04020000 		.4byte	.LFE8
 1793 06ca 6A000000 		.4byte	.LLST3
 1794 06ce 01       		.byte	0x1
 1795 06cf D4080000 		.4byte	0x8d4
 1796 06d3 15       		.uleb128 0x15
 1797 06d4 7000     		.ascii	"p\000"
 1798 06d6 01       		.byte	0x1
 1799 06d7 F2       		.byte	0xf2
 1800 06d8 67010000 		.4byte	0x167
 1801 06dc 96000000 		.4byte	.LLST4
 1802 06e0 15       		.uleb128 0x15
 1803 06e1 696E7000 		.ascii	"inp\000"
 1804 06e5 01       		.byte	0x1
 1805 06e6 F2       		.byte	0xf2
 1806 06e7 B9010000 		.4byte	0x1b9
 1807 06eb CA000000 		.4byte	.LLST5
 1808 06ef 16       		.uleb128 0x16
 1809 06f0 4C050000 		.4byte	.LASF102
 1810 06f4 01       		.byte	0x1
 1811 06f5 F4       		.byte	0xf4
 1812 06f6 D4080000 		.4byte	0x8d4
 1813 06fa 01       		.byte	0x1
 1814 06fb 56       		.byte	0x56
 1815 06fc 14       		.uleb128 0x14
 1816 06fd 46050000 		.4byte	.LASF33
 1817 0701 01       		.byte	0x1
 1818 0702 F5       		.byte	0xf5
 1819 0703 B9010000 		.4byte	0x1b9
 1820 0707 E8000000 		.4byte	.LLST6
ARM GAS  /var/folders/5n/p_75w94d66l9ssrldxqdhh700000gn/T//ccgVdQOR.s 			page 33


 1821 070b 14       		.uleb128 0x14
 1822 070c 63050000 		.4byte	.LASF103
 1823 0710 01       		.byte	0x1
 1824 0711 F6       		.byte	0xf6
 1825 0712 CC000000 		.4byte	0xcc
 1826 0716 1C010000 		.4byte	.LLST7
 1827 071a 14       		.uleb128 0x14
 1828 071b BB050000 		.4byte	.LASF104
 1829 071f 01       		.byte	0x1
 1830 0720 F7       		.byte	0xf7
 1831 0721 CC000000 		.4byte	0xcc
 1832 0725 3A010000 		.4byte	.LLST8
 1833 0729 17       		.uleb128 0x17
 1834 072a 00000000 		.4byte	.Ldebug_ranges0+0
 1835 072e 53070000 		.4byte	0x753
 1836 0732 18       		.uleb128 0x18
 1837 0733 22050000 		.4byte	.LASF105
 1838 0737 01       		.byte	0x1
 1839 0738 4B01     		.2byte	0x14b
 1840 073a 29000000 		.4byte	0x29
 1841 073e 79010000 		.4byte	.LLST9
 1842 0742 19       		.uleb128 0x19
 1843 0743 D2000000 		.4byte	.LVL25
 1844 0747 A80B0000 		.4byte	0xba8
 1845 074b 1A       		.uleb128 0x1a
 1846 074c 01       		.byte	0x1
 1847 074d 51       		.byte	0x51
 1848 074e 02       		.byte	0x2
 1849 074f 77       		.byte	0x77
 1850 0750 00       		.sleb128 0
 1851 0751 00       		.byte	0
 1852 0752 00       		.byte	0
 1853 0753 1B       		.uleb128 0x1b
 1854 0754 1E000000 		.4byte	.LVL9
 1855 0758 D00B0000 		.4byte	0xbd0
 1856 075c 1C       		.uleb128 0x1c
 1857 075d 2C000000 		.4byte	.LVL10
 1858 0761 E80B0000 		.4byte	0xbe8
 1859 0765 70070000 		.4byte	0x770
 1860 0769 1A       		.uleb128 0x1a
 1861 076a 01       		.byte	0x1
 1862 076b 50       		.byte	0x50
 1863 076c 02       		.byte	0x2
 1864 076d 75       		.byte	0x75
 1865 076e 00       		.sleb128 0
 1866 076f 00       		.byte	0
 1867 0770 1B       		.uleb128 0x1b
 1868 0771 4E000000 		.4byte	.LVL11
 1869 0775 D00B0000 		.4byte	0xbd0
 1870 0779 1B       		.uleb128 0x1b
 1871 077a 58000000 		.4byte	.LVL13
 1872 077e D00B0000 		.4byte	0xbd0
 1873 0782 1C       		.uleb128 0x1c
 1874 0783 6E000000 		.4byte	.LVL17
 1875 0787 E80B0000 		.4byte	0xbe8
 1876 078b 96070000 		.4byte	0x796
 1877 078f 1A       		.uleb128 0x1a
ARM GAS  /var/folders/5n/p_75w94d66l9ssrldxqdhh700000gn/T//ccgVdQOR.s 			page 34


 1878 0790 01       		.byte	0x1
 1879 0791 50       		.byte	0x50
 1880 0792 02       		.byte	0x2
 1881 0793 75       		.byte	0x75
 1882 0794 00       		.sleb128 0
 1883 0795 00       		.byte	0
 1884 0796 1C       		.uleb128 0x1c
 1885 0797 8C000000 		.4byte	.LVL20
 1886 079b 000C0000 		.4byte	0xc00
 1887 079f B0070000 		.4byte	0x7b0
 1888 07a3 1A       		.uleb128 0x1a
 1889 07a4 01       		.byte	0x1
 1890 07a5 51       		.byte	0x51
 1891 07a6 02       		.byte	0x2
 1892 07a7 77       		.byte	0x77
 1893 07a8 00       		.sleb128 0
 1894 07a9 1A       		.uleb128 0x1a
 1895 07aa 01       		.byte	0x1
 1896 07ab 50       		.byte	0x50
 1897 07ac 02       		.byte	0x2
 1898 07ad 76       		.byte	0x76
 1899 07ae 00       		.sleb128 0
 1900 07af 00       		.byte	0
 1901 07b0 1C       		.uleb128 0x1c
 1902 07b1 9A000000 		.4byte	.LVL21
 1903 07b5 1D0C0000 		.4byte	0xc1d
 1904 07b9 CA070000 		.4byte	0x7ca
 1905 07bd 1A       		.uleb128 0x1a
 1906 07be 01       		.byte	0x1
 1907 07bf 51       		.byte	0x51
 1908 07c0 02       		.byte	0x2
 1909 07c1 79       		.byte	0x79
 1910 07c2 00       		.sleb128 0
 1911 07c3 1A       		.uleb128 0x1a
 1912 07c4 01       		.byte	0x1
 1913 07c5 50       		.byte	0x50
 1914 07c6 02       		.byte	0x2
 1915 07c7 75       		.byte	0x75
 1916 07c8 00       		.sleb128 0
 1917 07c9 00       		.byte	0
 1918 07ca 1C       		.uleb128 0x1c
 1919 07cb F6000000 		.4byte	.LVL30
 1920 07cf A80B0000 		.4byte	0xba8
 1921 07d3 DE070000 		.4byte	0x7de
 1922 07d7 1A       		.uleb128 0x1a
 1923 07d8 01       		.byte	0x1
 1924 07d9 51       		.byte	0x51
 1925 07da 02       		.byte	0x2
 1926 07db 78       		.byte	0x78
 1927 07dc 00       		.sleb128 0
 1928 07dd 00       		.byte	0
 1929 07de 1C       		.uleb128 0x1c
 1930 07df 1A010000 		.4byte	.LVL31
 1931 07e3 360C0000 		.4byte	0xc36
 1932 07e7 F2070000 		.4byte	0x7f2
 1933 07eb 1A       		.uleb128 0x1a
 1934 07ec 01       		.byte	0x1
ARM GAS  /var/folders/5n/p_75w94d66l9ssrldxqdhh700000gn/T//ccgVdQOR.s 			page 35


 1935 07ed 50       		.byte	0x50
 1936 07ee 02       		.byte	0x2
 1937 07ef 75       		.byte	0x75
 1938 07f0 00       		.sleb128 0
 1939 07f1 00       		.byte	0
 1940 07f2 1C       		.uleb128 0x1c
 1941 07f3 36010000 		.4byte	.LVL34
 1942 07f7 4E0C0000 		.4byte	0xc4e
 1943 07fb 0C080000 		.4byte	0x80c
 1944 07ff 1A       		.uleb128 0x1a
 1945 0800 01       		.byte	0x1
 1946 0801 51       		.byte	0x51
 1947 0802 02       		.byte	0x2
 1948 0803 78       		.byte	0x78
 1949 0804 00       		.sleb128 0
 1950 0805 1A       		.uleb128 0x1a
 1951 0806 01       		.byte	0x1
 1952 0807 50       		.byte	0x50
 1953 0808 02       		.byte	0x2
 1954 0809 75       		.byte	0x75
 1955 080a 00       		.sleb128 0
 1956 080b 00       		.byte	0
 1957 080c 1C       		.uleb128 0x1c
 1958 080d 50010000 		.4byte	.LVL35
 1959 0811 A80B0000 		.4byte	0xba8
 1960 0815 20080000 		.4byte	0x820
 1961 0819 1A       		.uleb128 0x1a
 1962 081a 01       		.byte	0x1
 1963 081b 51       		.byte	0x51
 1964 081c 02       		.byte	0x2
 1965 081d 78       		.byte	0x78
 1966 081e 00       		.sleb128 0
 1967 081f 00       		.byte	0
 1968 0820 1C       		.uleb128 0x1c
 1969 0821 68010000 		.4byte	.LVL36
 1970 0825 6B0C0000 		.4byte	0xc6b
 1971 0829 39080000 		.4byte	0x839
 1972 082d 1A       		.uleb128 0x1a
 1973 082e 01       		.byte	0x1
 1974 082f 51       		.byte	0x51
 1975 0830 01       		.byte	0x1
 1976 0831 32       		.byte	0x32
 1977 0832 1A       		.uleb128 0x1a
 1978 0833 01       		.byte	0x1
 1979 0834 50       		.byte	0x50
 1980 0835 02       		.byte	0x2
 1981 0836 75       		.byte	0x75
 1982 0837 00       		.sleb128 0
 1983 0838 00       		.byte	0
 1984 0839 1C       		.uleb128 0x1c
 1985 083a 6E010000 		.4byte	.LVL37
 1986 083e E80B0000 		.4byte	0xbe8
 1987 0842 4D080000 		.4byte	0x84d
 1988 0846 1A       		.uleb128 0x1a
 1989 0847 01       		.byte	0x1
 1990 0848 50       		.byte	0x50
 1991 0849 02       		.byte	0x2
ARM GAS  /var/folders/5n/p_75w94d66l9ssrldxqdhh700000gn/T//ccgVdQOR.s 			page 36


 1992 084a 75       		.byte	0x75
 1993 084b 00       		.sleb128 0
 1994 084c 00       		.byte	0
 1995 084d 1C       		.uleb128 0x1c
 1996 084e 9E010000 		.4byte	.LVL41
 1997 0852 E80B0000 		.4byte	0xbe8
 1998 0856 61080000 		.4byte	0x861
 1999 085a 1A       		.uleb128 0x1a
 2000 085b 01       		.byte	0x1
 2001 085c 50       		.byte	0x50
 2002 085d 02       		.byte	0x2
 2003 085e 75       		.byte	0x75
 2004 085f 00       		.sleb128 0
 2005 0860 00       		.byte	0
 2006 0861 1C       		.uleb128 0x1c
 2007 0862 B0010000 		.4byte	.LVL43
 2008 0866 E80B0000 		.4byte	0xbe8
 2009 086a 75080000 		.4byte	0x875
 2010 086e 1A       		.uleb128 0x1a
 2011 086f 01       		.byte	0x1
 2012 0870 50       		.byte	0x50
 2013 0871 02       		.byte	0x2
 2014 0872 75       		.byte	0x75
 2015 0873 00       		.sleb128 0
 2016 0874 00       		.byte	0
 2017 0875 1C       		.uleb128 0x1c
 2018 0876 CE010000 		.4byte	.LVL45
 2019 087a 840C0000 		.4byte	0xc84
 2020 087e 8F080000 		.4byte	0x88f
 2021 0882 1A       		.uleb128 0x1a
 2022 0883 01       		.byte	0x1
 2023 0884 51       		.byte	0x51
 2024 0885 02       		.byte	0x2
 2025 0886 78       		.byte	0x78
 2026 0887 00       		.sleb128 0
 2027 0888 1A       		.uleb128 0x1a
 2028 0889 01       		.byte	0x1
 2029 088a 50       		.byte	0x50
 2030 088b 02       		.byte	0x2
 2031 088c 75       		.byte	0x75
 2032 088d 00       		.sleb128 0
 2033 088e 00       		.byte	0
 2034 088f 1C       		.uleb128 0x1c
 2035 0890 D8010000 		.4byte	.LVL46
 2036 0894 9D0C0000 		.4byte	0xc9d
 2037 0898 A9080000 		.4byte	0x8a9
 2038 089c 1A       		.uleb128 0x1a
 2039 089d 01       		.byte	0x1
 2040 089e 51       		.byte	0x51
 2041 089f 02       		.byte	0x2
 2042 08a0 78       		.byte	0x78
 2043 08a1 00       		.sleb128 0
 2044 08a2 1A       		.uleb128 0x1a
 2045 08a3 01       		.byte	0x1
 2046 08a4 50       		.byte	0x50
 2047 08a5 02       		.byte	0x2
 2048 08a6 75       		.byte	0x75
ARM GAS  /var/folders/5n/p_75w94d66l9ssrldxqdhh700000gn/T//ccgVdQOR.s 			page 37


 2049 08a7 00       		.sleb128 0
 2050 08a8 00       		.byte	0
 2051 08a9 1C       		.uleb128 0x1c
 2052 08aa E2010000 		.4byte	.LVL47
 2053 08ae B60C0000 		.4byte	0xcb6
 2054 08b2 C3080000 		.4byte	0x8c3
 2055 08b6 1A       		.uleb128 0x1a
 2056 08b7 01       		.byte	0x1
 2057 08b8 51       		.byte	0x51
 2058 08b9 02       		.byte	0x2
 2059 08ba 78       		.byte	0x78
 2060 08bb 00       		.sleb128 0
 2061 08bc 1A       		.uleb128 0x1a
 2062 08bd 01       		.byte	0x1
 2063 08be 50       		.byte	0x50
 2064 08bf 02       		.byte	0x2
 2065 08c0 75       		.byte	0x75
 2066 08c1 00       		.sleb128 0
 2067 08c2 00       		.byte	0
 2068 08c3 19       		.uleb128 0x19
 2069 08c4 EA010000 		.4byte	.LVL49
 2070 08c8 E80B0000 		.4byte	0xbe8
 2071 08cc 1A       		.uleb128 0x1a
 2072 08cd 01       		.byte	0x1
 2073 08ce 50       		.byte	0x50
 2074 08cf 02       		.byte	0x2
 2075 08d0 75       		.byte	0x75
 2076 08d1 00       		.sleb128 0
 2077 08d2 00       		.byte	0
 2078 08d3 00       		.byte	0
 2079 08d4 09       		.uleb128 0x9
 2080 08d5 04       		.byte	0x4
 2081 08d6 2C030000 		.4byte	0x32c
 2082 08da 1D       		.uleb128 0x1d
 2083 08db 01       		.byte	0x1
 2084 08dc 1D040000 		.4byte	.LASF106
 2085 08e0 01       		.byte	0x1
 2086 08e1 3C02     		.2byte	0x23c
 2087 08e3 01       		.byte	0x1
 2088 08e4 ED000000 		.4byte	0xed
 2089 08e8 00000000 		.4byte	.LFB9
 2090 08ec 30010000 		.4byte	.LFE9
 2091 08f0 AF010000 		.4byte	.LLST10
 2092 08f4 01       		.byte	0x1
 2093 08f5 400A0000 		.4byte	0xa40
 2094 08f9 1E       		.uleb128 0x1e
 2095 08fa 7000     		.ascii	"p\000"
 2096 08fc 01       		.byte	0x1
 2097 08fd 3C02     		.2byte	0x23c
 2098 08ff 67010000 		.4byte	0x167
 2099 0903 DC010000 		.4byte	.LLST11
 2100 0907 1E       		.uleb128 0x1e
 2101 0908 73726300 		.ascii	"src\000"
 2102 090c 01       		.byte	0x1
 2103 090d 3C02     		.2byte	0x23c
 2104 090f E0020000 		.4byte	0x2e0
 2105 0913 FA010000 		.4byte	.LLST12
ARM GAS  /var/folders/5n/p_75w94d66l9ssrldxqdhh700000gn/T//ccgVdQOR.s 			page 38


 2106 0917 1F       		.uleb128 0x1f
 2107 0918 C5050000 		.4byte	.LASF52
 2108 091c 01       		.byte	0x1
 2109 091d 3C02     		.2byte	0x23c
 2110 091f E0020000 		.4byte	0x2e0
 2111 0923 18020000 		.4byte	.LLST13
 2112 0927 1E       		.uleb128 0x1e
 2113 0928 74746C00 		.ascii	"ttl\000"
 2114 092c 01       		.byte	0x1
 2115 092d 3D02     		.2byte	0x23d
 2116 092f B6000000 		.4byte	0xb6
 2117 0933 5C020000 		.4byte	.LLST14
 2118 0937 20       		.uleb128 0x20
 2119 0938 746F7300 		.ascii	"tos\000"
 2120 093c 01       		.byte	0x1
 2121 093d 3D02     		.2byte	0x23d
 2122 093f B6000000 		.4byte	0xb6
 2123 0943 02       		.byte	0x2
 2124 0944 91       		.byte	0x91
 2125 0945 00       		.sleb128 0
 2126 0946 21       		.uleb128 0x21
 2127 0947 99020000 		.4byte	.LASF107
 2128 094b 01       		.byte	0x1
 2129 094c 3E02     		.2byte	0x23e
 2130 094e B6000000 		.4byte	0xb6
 2131 0952 02       		.byte	0x2
 2132 0953 91       		.byte	0x91
 2133 0954 04       		.sleb128 4
 2134 0955 21       		.uleb128 0x21
 2135 0956 46050000 		.4byte	.LASF33
 2136 095a 01       		.byte	0x1
 2137 095b 3E02     		.2byte	0x23e
 2138 095d B9010000 		.4byte	0x1b9
 2139 0961 02       		.byte	0x2
 2140 0962 91       		.byte	0x91
 2141 0963 08       		.sleb128 8
 2142 0964 18       		.uleb128 0x18
 2143 0965 4C050000 		.4byte	.LASF102
 2144 0969 01       		.byte	0x1
 2145 096a 4F02     		.2byte	0x24f
 2146 096c D4080000 		.4byte	0x8d4
 2147 0970 7D020000 		.4byte	.LLST15
 2148 0974 22       		.uleb128 0x22
 2149 0975 B1050000 		.4byte	.LASF108
 2150 0979 01       		.byte	0x1
 2151 097a 5002     		.2byte	0x250
 2152 097c A3010000 		.4byte	0x1a3
 2153 0980 02       		.byte	0x2
 2154 0981 91       		.byte	0x91
 2155 0982 54       		.sleb128 -44
 2156 0983 18       		.uleb128 0x18
 2157 0984 57030000 		.4byte	.LASF109
 2158 0988 01       		.byte	0x1
 2159 0989 5202     		.2byte	0x252
 2160 098b E2000000 		.4byte	0xe2
 2161 098f B2020000 		.4byte	.LLST16
 2162 0993 17       		.uleb128 0x17
ARM GAS  /var/folders/5n/p_75w94d66l9ssrldxqdhh700000gn/T//ccgVdQOR.s 			page 39


 2163 0994 20000000 		.4byte	.Ldebug_ranges0+0x20
 2164 0998 FE090000 		.4byte	0x9fe
 2165 099c 18       		.uleb128 0x18
 2166 099d 8C010000 		.4byte	.LASF110
 2167 09a1 01       		.byte	0x1
 2168 09a2 5D02     		.2byte	0x25d
 2169 09a4 CC000000 		.4byte	0xcc
 2170 09a8 AB030000 		.4byte	.LLST17
 2171 09ac 1C       		.uleb128 0x1c
 2172 09ad 2A000000 		.4byte	.LVL54
 2173 09b1 CF0C0000 		.4byte	0xccf
 2174 09b5 C5090000 		.4byte	0x9c5
 2175 09b9 1A       		.uleb128 0x1a
 2176 09ba 01       		.byte	0x1
 2177 09bb 51       		.byte	0x51
 2178 09bc 01       		.byte	0x1
 2179 09bd 44       		.byte	0x44
 2180 09be 1A       		.uleb128 0x1a
 2181 09bf 01       		.byte	0x1
 2182 09c0 50       		.byte	0x50
 2183 09c1 02       		.byte	0x2
 2184 09c2 75       		.byte	0x75
 2185 09c3 00       		.sleb128 0
 2186 09c4 00       		.byte	0
 2187 09c5 1C       		.uleb128 0x1c
 2188 09c6 5E000000 		.4byte	.LVL56
 2189 09ca EC0C0000 		.4byte	0xcec
 2190 09ce E2090000 		.4byte	0x9e2
 2191 09d2 1A       		.uleb128 0x1a
 2192 09d3 01       		.byte	0x1
 2193 09d4 50       		.byte	0x50
 2194 09d5 0B       		.byte	0xb
 2195 09d6 91       		.byte	0x91
 2196 09d7 00       		.sleb128 0
 2197 09d8 94       		.byte	0x94
 2198 09d9 01       		.byte	0x1
 2199 09da 08       		.byte	0x8
 2200 09db FF       		.byte	0xff
 2201 09dc 1A       		.byte	0x1a
 2202 09dd 0A       		.byte	0xa
 2203 09de 0045     		.2byte	0x4500
 2204 09e0 21       		.byte	0x21
 2205 09e1 00       		.byte	0
 2206 09e2 1B       		.uleb128 0x1b
 2207 09e3 6A000000 		.4byte	.LVL57
 2208 09e7 EC0C0000 		.4byte	0xcec
 2209 09eb 1B       		.uleb128 0x1b
 2210 09ec 7E000000 		.4byte	.LVL58
 2211 09f0 EC0C0000 		.4byte	0xcec
 2212 09f4 1B       		.uleb128 0x1b
 2213 09f5 0A010000 		.4byte	.LVL75
 2214 09f9 040D0000 		.4byte	0xd04
 2215 09fd 00       		.byte	0
 2216 09fe 1B       		.uleb128 0x1b
 2217 09ff 1E000000 		.4byte	.LVL52
 2218 0a03 040D0000 		.4byte	0xd04
 2219 0a07 23       		.uleb128 0x23
ARM GAS  /var/folders/5n/p_75w94d66l9ssrldxqdhh700000gn/T//ccgVdQOR.s 			page 40


 2220 0a08 EE000000 		.4byte	.LVL69
 2221 0a0c 230A0000 		.4byte	0xa23
 2222 0a10 1A       		.uleb128 0x1a
 2223 0a11 01       		.byte	0x1
 2224 0a12 52       		.byte	0x52
 2225 0a13 02       		.byte	0x2
 2226 0a14 76       		.byte	0x76
 2227 0a15 00       		.sleb128 0
 2228 0a16 1A       		.uleb128 0x1a
 2229 0a17 01       		.byte	0x1
 2230 0a18 51       		.byte	0x51
 2231 0a19 02       		.byte	0x2
 2232 0a1a 75       		.byte	0x75
 2233 0a1b 00       		.sleb128 0
 2234 0a1c 1A       		.uleb128 0x1a
 2235 0a1d 01       		.byte	0x1
 2236 0a1e 50       		.byte	0x50
 2237 0a1f 02       		.byte	0x2
 2238 0a20 77       		.byte	0x77
 2239 0a21 00       		.sleb128 0
 2240 0a22 00       		.byte	0
 2241 0a23 19       		.uleb128 0x19
 2242 0a24 16010000 		.4byte	.LVL77
 2243 0a28 0F0D0000 		.4byte	0xd0f
 2244 0a2c 1A       		.uleb128 0x1a
 2245 0a2d 01       		.byte	0x1
 2246 0a2e 52       		.byte	0x52
 2247 0a2f 02       		.byte	0x2
 2248 0a30 76       		.byte	0x76
 2249 0a31 00       		.sleb128 0
 2250 0a32 1A       		.uleb128 0x1a
 2251 0a33 01       		.byte	0x1
 2252 0a34 51       		.byte	0x51
 2253 0a35 02       		.byte	0x2
 2254 0a36 77       		.byte	0x77
 2255 0a37 00       		.sleb128 0
 2256 0a38 1A       		.uleb128 0x1a
 2257 0a39 01       		.byte	0x1
 2258 0a3a 50       		.byte	0x50
 2259 0a3b 02       		.byte	0x2
 2260 0a3c 75       		.byte	0x75
 2261 0a3d 00       		.sleb128 0
 2262 0a3e 00       		.byte	0
 2263 0a3f 00       		.byte	0
 2264 0a40 1D       		.uleb128 0x1d
 2265 0a41 01       		.byte	0x1
 2266 0a42 DC010000 		.4byte	.LASF111
 2267 0a46 01       		.byte	0x1
 2268 0a47 EC02     		.2byte	0x2ec
 2269 0a49 01       		.byte	0x1
 2270 0a4a ED000000 		.4byte	0xed
 2271 0a4e 00000000 		.4byte	.LFB10
 2272 0a52 54000000 		.4byte	.LFE10
 2273 0a56 E3030000 		.4byte	.LLST18
 2274 0a5a 01       		.byte	0x1
 2275 0a5b 1D0B0000 		.4byte	0xb1d
 2276 0a5f 1E       		.uleb128 0x1e
ARM GAS  /var/folders/5n/p_75w94d66l9ssrldxqdhh700000gn/T//ccgVdQOR.s 			page 41


 2277 0a60 7000     		.ascii	"p\000"
 2278 0a62 01       		.byte	0x1
 2279 0a63 EC02     		.2byte	0x2ec
 2280 0a65 67010000 		.4byte	0x167
 2281 0a69 0F040000 		.4byte	.LLST19
 2282 0a6d 1E       		.uleb128 0x1e
 2283 0a6e 73726300 		.ascii	"src\000"
 2284 0a72 01       		.byte	0x1
 2285 0a73 EC02     		.2byte	0x2ec
 2286 0a75 E0020000 		.4byte	0x2e0
 2287 0a79 2D040000 		.4byte	.LLST20
 2288 0a7d 1F       		.uleb128 0x1f
 2289 0a7e C5050000 		.4byte	.LASF52
 2290 0a82 01       		.byte	0x1
 2291 0a83 EC02     		.2byte	0x2ec
 2292 0a85 E0020000 		.4byte	0x2e0
 2293 0a89 4B040000 		.4byte	.LLST21
 2294 0a8d 1E       		.uleb128 0x1e
 2295 0a8e 74746C00 		.ascii	"ttl\000"
 2296 0a92 01       		.byte	0x1
 2297 0a93 ED02     		.2byte	0x2ed
 2298 0a95 B6000000 		.4byte	0xb6
 2299 0a99 69040000 		.4byte	.LLST22
 2300 0a9d 20       		.uleb128 0x20
 2301 0a9e 746F7300 		.ascii	"tos\000"
 2302 0aa2 01       		.byte	0x1
 2303 0aa3 ED02     		.2byte	0x2ed
 2304 0aa5 B6000000 		.4byte	0xb6
 2305 0aa9 02       		.byte	0x2
 2306 0aaa 91       		.byte	0x91
 2307 0aab 00       		.sleb128 0
 2308 0aac 21       		.uleb128 0x21
 2309 0aad 99020000 		.4byte	.LASF107
 2310 0ab1 01       		.byte	0x1
 2311 0ab2 ED02     		.2byte	0x2ed
 2312 0ab4 B6000000 		.4byte	0xb6
 2313 0ab8 02       		.byte	0x2
 2314 0ab9 91       		.byte	0x91
 2315 0aba 04       		.sleb128 4
 2316 0abb 18       		.uleb128 0x18
 2317 0abc 46050000 		.4byte	.LASF33
 2318 0ac0 01       		.byte	0x1
 2319 0ac1 EF02     		.2byte	0x2ef
 2320 0ac3 B9010000 		.4byte	0x1b9
 2321 0ac7 8A040000 		.4byte	.LLST23
 2322 0acb 1B       		.uleb128 0x1b
 2323 0acc 16000000 		.4byte	.LVL81
 2324 0ad0 040D0000 		.4byte	0xd04
 2325 0ad4 1C       		.uleb128 0x1c
 2326 0ad5 1C000000 		.4byte	.LVL82
 2327 0ad9 78060000 		.4byte	0x678
 2328 0add E80A0000 		.4byte	0xae8
 2329 0ae1 1A       		.uleb128 0x1a
 2330 0ae2 01       		.byte	0x1
 2331 0ae3 50       		.byte	0x50
 2332 0ae4 02       		.byte	0x2
 2333 0ae5 75       		.byte	0x75
ARM GAS  /var/folders/5n/p_75w94d66l9ssrldxqdhh700000gn/T//ccgVdQOR.s 			page 42


 2334 0ae6 00       		.sleb128 0
 2335 0ae7 00       		.byte	0
 2336 0ae8 19       		.uleb128 0x19
 2337 0ae9 38000000 		.4byte	.LVL84
 2338 0aed DA080000 		.4byte	0x8da
 2339 0af1 1A       		.uleb128 0x1a
 2340 0af2 01       		.byte	0x1
 2341 0af3 53       		.byte	0x53
 2342 0af4 02       		.byte	0x2
 2343 0af5 76       		.byte	0x76
 2344 0af6 00       		.sleb128 0
 2345 0af7 1A       		.uleb128 0x1a
 2346 0af8 01       		.byte	0x1
 2347 0af9 52       		.byte	0x52
 2348 0afa 02       		.byte	0x2
 2349 0afb 75       		.byte	0x75
 2350 0afc 00       		.sleb128 0
 2351 0afd 1A       		.uleb128 0x1a
 2352 0afe 01       		.byte	0x1
 2353 0aff 51       		.byte	0x51
 2354 0b00 02       		.byte	0x2
 2355 0b01 77       		.byte	0x77
 2356 0b02 00       		.sleb128 0
 2357 0b03 1A       		.uleb128 0x1a
 2358 0b04 01       		.byte	0x1
 2359 0b05 50       		.byte	0x50
 2360 0b06 02       		.byte	0x2
 2361 0b07 74       		.byte	0x74
 2362 0b08 00       		.sleb128 0
 2363 0b09 1A       		.uleb128 0x1a
 2364 0b0a 02       		.byte	0x2
 2365 0b0b 7D       		.byte	0x7d
 2366 0b0c 04       		.sleb128 4
 2367 0b0d 04       		.byte	0x4
 2368 0b0e 91       		.byte	0x91
 2369 0b0f 04       		.sleb128 4
 2370 0b10 94       		.byte	0x94
 2371 0b11 01       		.byte	0x1
 2372 0b12 1A       		.uleb128 0x1a
 2373 0b13 02       		.byte	0x2
 2374 0b14 7D       		.byte	0x7d
 2375 0b15 00       		.sleb128 0
 2376 0b16 04       		.byte	0x4
 2377 0b17 91       		.byte	0x91
 2378 0b18 00       		.sleb128 0
 2379 0b19 94       		.byte	0x94
 2380 0b1a 01       		.byte	0x1
 2381 0b1b 00       		.byte	0
 2382 0b1c 00       		.byte	0
 2383 0b1d 16       		.uleb128 0x16
 2384 0b1e 9E030000 		.4byte	.LASF112
 2385 0b22 01       		.byte	0x1
 2386 0b23 70       		.byte	0x70
 2387 0b24 CC000000 		.4byte	0xcc
 2388 0b28 05       		.byte	0x5
 2389 0b29 03       		.byte	0x3
 2390 0b2a 00000000 		.4byte	ip_id
ARM GAS  /var/folders/5n/p_75w94d66l9ssrldxqdhh700000gn/T//ccgVdQOR.s 			page 43


 2391 0b2e 24       		.uleb128 0x24
 2392 0b2f 38010000 		.4byte	.LASF113
 2393 0b33 07       		.byte	0x7
 2394 0b34 F9       		.byte	0xf9
 2395 0b35 B9010000 		.4byte	0x1b9
 2396 0b39 01       		.byte	0x1
 2397 0b3a 01       		.byte	0x1
 2398 0b3b 24       		.uleb128 0x24
 2399 0b3c 7E030000 		.4byte	.LASF114
 2400 0b40 07       		.byte	0x7
 2401 0b41 FB       		.byte	0xfb
 2402 0b42 B9010000 		.4byte	0x1b9
 2403 0b46 01       		.byte	0x1
 2404 0b47 01       		.byte	0x1
 2405 0b48 25       		.uleb128 0x25
 2406 0b49 AE030000 		.4byte	.LASF115
 2407 0b4d 01       		.byte	0x1
 2408 0b4e 64       		.byte	0x64
 2409 0b4f B9010000 		.4byte	0x1b9
 2410 0b53 01       		.byte	0x1
 2411 0b54 05       		.byte	0x5
 2412 0b55 03       		.byte	0x3
 2413 0b56 00000000 		.4byte	current_netif
 2414 0b5a 25       		.uleb128 0x25
 2415 0b5b 1A020000 		.4byte	.LASF116
 2416 0b5f 01       		.byte	0x1
 2417 0b60 69       		.byte	0x69
 2418 0b61 6C0B0000 		.4byte	0xb6c
 2419 0b65 01       		.byte	0x1
 2420 0b66 05       		.byte	0x5
 2421 0b67 03       		.byte	0x3
 2422 0b68 00000000 		.4byte	current_header
 2423 0b6c 09       		.uleb128 0x9
 2424 0b6d 04       		.byte	0x4
 2425 0b6e 720B0000 		.4byte	0xb72
 2426 0b72 26       		.uleb128 0x26
 2427 0b73 2C030000 		.4byte	0x32c
 2428 0b77 25       		.uleb128 0x25
 2429 0b78 7A010000 		.4byte	.LASF117
 2430 0b7c 01       		.byte	0x1
 2431 0b7d 6B       		.byte	0x6b
 2432 0b7e A3010000 		.4byte	0x1a3
 2433 0b82 01       		.byte	0x1
 2434 0b83 05       		.byte	0x5
 2435 0b84 03       		.byte	0x3
 2436 0b85 00000000 		.4byte	current_iphdr_src
 2437 0b89 25       		.uleb128 0x25
 2438 0b8a 86050000 		.4byte	.LASF118
 2439 0b8e 01       		.byte	0x1
 2440 0b8f 6D       		.byte	0x6d
 2441 0b90 A3010000 		.4byte	0x1a3
 2442 0b94 01       		.byte	0x1
 2443 0b95 05       		.byte	0x5
 2444 0b96 03       		.byte	0x3
 2445 0b97 00000000 		.4byte	current_iphdr_dest
 2446 0b9b 24       		.uleb128 0x24
 2447 0b9c B1000000 		.4byte	.LASF119
ARM GAS  /var/folders/5n/p_75w94d66l9ssrldxqdhh700000gn/T//ccgVdQOR.s 			page 44


 2448 0ba0 0A       		.byte	0xa
 2449 0ba1 95       		.byte	0x95
 2450 0ba2 CB050000 		.4byte	0x5cb
 2451 0ba6 01       		.byte	0x1
 2452 0ba7 01       		.byte	0x1
 2453 0ba8 27       		.uleb128 0x27
 2454 0ba9 01       		.byte	0x1
 2455 0baa 36020000 		.4byte	.LASF120
 2456 0bae 06       		.byte	0x6
 2457 0baf CB       		.byte	0xcb
 2458 0bb0 01       		.byte	0x1
 2459 0bb1 B6000000 		.4byte	0xb6
 2460 0bb5 01       		.byte	0x1
 2461 0bb6 C50B0000 		.4byte	0xbc5
 2462 0bba 0B       		.uleb128 0xb
 2463 0bbb E2000000 		.4byte	0xe2
 2464 0bbf 0B       		.uleb128 0xb
 2465 0bc0 C50B0000 		.4byte	0xbc5
 2466 0bc4 00       		.byte	0
 2467 0bc5 09       		.uleb128 0x9
 2468 0bc6 04       		.byte	0x4
 2469 0bc7 CB0B0000 		.4byte	0xbcb
 2470 0bcb 26       		.uleb128 0x26
 2471 0bcc BF010000 		.4byte	0x1bf
 2472 0bd0 27       		.uleb128 0x27
 2473 0bd1 01       		.byte	0x1
 2474 0bd2 BC030000 		.4byte	.LASF121
 2475 0bd6 0B       		.byte	0xb
 2476 0bd7 68       		.byte	0x68
 2477 0bd8 01       		.byte	0x1
 2478 0bd9 CC000000 		.4byte	0xcc
 2479 0bdd 01       		.byte	0x1
 2480 0bde E80B0000 		.4byte	0xbe8
 2481 0be2 0B       		.uleb128 0xb
 2482 0be3 CC000000 		.4byte	0xcc
 2483 0be7 00       		.byte	0
 2484 0be8 27       		.uleb128 0x27
 2485 0be9 01       		.byte	0x1
 2486 0bea BA020000 		.4byte	.LASF122
 2487 0bee 05       		.byte	0x5
 2488 0bef 83       		.byte	0x83
 2489 0bf0 01       		.byte	0x1
 2490 0bf1 B6000000 		.4byte	0xb6
 2491 0bf5 01       		.byte	0x1
 2492 0bf6 000C0000 		.4byte	0xc00
 2493 0bfa 0B       		.uleb128 0xb
 2494 0bfb 67010000 		.4byte	0x167
 2495 0bff 00       		.byte	0
 2496 0c00 27       		.uleb128 0x27
 2497 0c01 01       		.byte	0x1
 2498 0c02 AE020000 		.4byte	.LASF123
 2499 0c06 0C       		.byte	0xc
 2500 0c07 49       		.byte	0x49
 2501 0c08 01       		.byte	0x1
 2502 0c09 CC000000 		.4byte	0xcc
 2503 0c0d 01       		.byte	0x1
 2504 0c0e 1D0C0000 		.4byte	0xc1d
ARM GAS  /var/folders/5n/p_75w94d66l9ssrldxqdhh700000gn/T//ccgVdQOR.s 			page 45


 2505 0c12 0B       		.uleb128 0xb
 2506 0c13 A6000000 		.4byte	0xa6
 2507 0c17 0B       		.uleb128 0xb
 2508 0c18 CC000000 		.4byte	0xcc
 2509 0c1c 00       		.byte	0
 2510 0c1d 28       		.uleb128 0x28
 2511 0c1e 01       		.byte	0x1
 2512 0c1f 66020000 		.4byte	.LASF126
 2513 0c23 05       		.byte	0x5
 2514 0c24 80       		.byte	0x80
 2515 0c25 01       		.byte	0x1
 2516 0c26 01       		.byte	0x1
 2517 0c27 360C0000 		.4byte	0xc36
 2518 0c2b 0B       		.uleb128 0xb
 2519 0c2c 67010000 		.4byte	0x167
 2520 0c30 0B       		.uleb128 0xb
 2521 0c31 CC000000 		.4byte	0xcc
 2522 0c35 00       		.byte	0
 2523 0c36 27       		.uleb128 0x27
 2524 0c37 01       		.byte	0x1
 2525 0c38 E6020000 		.4byte	.LASF124
 2526 0c3c 0D       		.byte	0xd
 2527 0c3d 41       		.byte	0x41
 2528 0c3e 01       		.byte	0x1
 2529 0c3f 67010000 		.4byte	0x167
 2530 0c43 01       		.byte	0x1
 2531 0c44 4E0C0000 		.4byte	0xc4e
 2532 0c48 0B       		.uleb128 0xb
 2533 0c49 67010000 		.4byte	0x167
 2534 0c4d 00       		.byte	0
 2535 0c4e 27       		.uleb128 0x27
 2536 0c4f 01       		.byte	0x1
 2537 0c50 74030000 		.4byte	.LASF125
 2538 0c54 0E       		.byte	0xe
 2539 0c55 59       		.byte	0x59
 2540 0c56 01       		.byte	0x1
 2541 0c57 B6000000 		.4byte	0xb6
 2542 0c5b 01       		.byte	0x1
 2543 0c5c 6B0C0000 		.4byte	0xc6b
 2544 0c60 0B       		.uleb128 0xb
 2545 0c61 67010000 		.4byte	0x167
 2546 0c65 0B       		.uleb128 0xb
 2547 0c66 B9010000 		.4byte	0x1b9
 2548 0c6a 00       		.byte	0
 2549 0c6b 28       		.uleb128 0x28
 2550 0c6c 01       		.byte	0x1
 2551 0c6d 68010000 		.4byte	.LASF127
 2552 0c71 0F       		.byte	0xf
 2553 0c72 66       		.byte	0x66
 2554 0c73 01       		.byte	0x1
 2555 0c74 01       		.byte	0x1
 2556 0c75 840C0000 		.4byte	0xc84
 2557 0c79 0B       		.uleb128 0xb
 2558 0c7a 67010000 		.4byte	0x167
 2559 0c7e 0B       		.uleb128 0xb
 2560 0c7f C2030000 		.4byte	0x3c2
 2561 0c83 00       		.byte	0
ARM GAS  /var/folders/5n/p_75w94d66l9ssrldxqdhh700000gn/T//ccgVdQOR.s 			page 46


 2562 0c84 28       		.uleb128 0x28
 2563 0c85 01       		.byte	0x1
 2564 0c86 CA050000 		.4byte	.LASF128
 2565 0c8a 10       		.byte	0x10
 2566 0c8b 9B       		.byte	0x9b
 2567 0c8c 01       		.byte	0x1
 2568 0c8d 01       		.byte	0x1
 2569 0c8e 9D0C0000 		.4byte	0xc9d
 2570 0c92 0B       		.uleb128 0xb
 2571 0c93 67010000 		.4byte	0x167
 2572 0c97 0B       		.uleb128 0xb
 2573 0c98 B9010000 		.4byte	0x1b9
 2574 0c9c 00       		.byte	0
 2575 0c9d 28       		.uleb128 0x28
 2576 0c9e 01       		.byte	0x1
 2577 0c9f F6010000 		.4byte	.LASF129
 2578 0ca3 11       		.byte	0x11
 2579 0ca4 41       		.byte	0x41
 2580 0ca5 01       		.byte	0x1
 2581 0ca6 01       		.byte	0x1
 2582 0ca7 B60C0000 		.4byte	0xcb6
 2583 0cab 0B       		.uleb128 0xb
 2584 0cac 67010000 		.4byte	0x167
 2585 0cb0 0B       		.uleb128 0xb
 2586 0cb1 B9010000 		.4byte	0x1b9
 2587 0cb5 00       		.byte	0
 2588 0cb6 28       		.uleb128 0x28
 2589 0cb7 01       		.byte	0x1
 2590 0cb8 BC000000 		.4byte	.LASF130
 2591 0cbc 0F       		.byte	0xf
 2592 0cbd 65       		.byte	0x65
 2593 0cbe 01       		.byte	0x1
 2594 0cbf 01       		.byte	0x1
 2595 0cc0 CF0C0000 		.4byte	0xccf
 2596 0cc4 0B       		.uleb128 0xb
 2597 0cc5 67010000 		.4byte	0x167
 2598 0cc9 0B       		.uleb128 0xb
 2599 0cca B9010000 		.4byte	0x1b9
 2600 0cce 00       		.byte	0
 2601 0ccf 27       		.uleb128 0x27
 2602 0cd0 01       		.byte	0x1
 2603 0cd1 4B020000 		.4byte	.LASF131
 2604 0cd5 05       		.byte	0x5
 2605 0cd6 81       		.byte	0x81
 2606 0cd7 01       		.byte	0x1
 2607 0cd8 B6000000 		.4byte	0xb6
 2608 0cdc 01       		.byte	0x1
 2609 0cdd EC0C0000 		.4byte	0xcec
 2610 0ce1 0B       		.uleb128 0xb
 2611 0ce2 67010000 		.4byte	0x167
 2612 0ce6 0B       		.uleb128 0xb
 2613 0ce7 D7000000 		.4byte	0xd7
 2614 0ceb 00       		.byte	0
 2615 0cec 27       		.uleb128 0x27
 2616 0ced 01       		.byte	0x1
 2617 0cee 97000000 		.4byte	.LASF132
 2618 0cf2 0B       		.byte	0xb
ARM GAS  /var/folders/5n/p_75w94d66l9ssrldxqdhh700000gn/T//ccgVdQOR.s 			page 47


 2619 0cf3 67       		.byte	0x67
 2620 0cf4 01       		.byte	0x1
 2621 0cf5 CC000000 		.4byte	0xcc
 2622 0cf9 01       		.byte	0x1
 2623 0cfa 040D0000 		.4byte	0xd04
 2624 0cfe 0B       		.uleb128 0xb
 2625 0cff CC000000 		.4byte	0xcc
 2626 0d03 00       		.byte	0
 2627 0d04 29       		.uleb128 0x29
 2628 0d05 01       		.byte	0x1
 2629 0d06 18050000 		.4byte	.LASF137
 2630 0d0a 13       		.byte	0x13
 2631 0d0b F301     		.2byte	0x1f3
 2632 0d0d 01       		.byte	0x1
 2633 0d0e 01       		.byte	0x1
 2634 0d0f 2A       		.uleb128 0x2a
 2635 0d10 01       		.byte	0x1
 2636 0d11 20010000 		.4byte	.LASF97
 2637 0d15 0D       		.byte	0xd
 2638 0d16 51       		.byte	0x51
 2639 0d17 01       		.byte	0x1
 2640 0d18 ED000000 		.4byte	0xed
 2641 0d1c 01       		.byte	0x1
 2642 0d1d 0B       		.uleb128 0xb
 2643 0d1e 67010000 		.4byte	0x167
 2644 0d22 0B       		.uleb128 0xb
 2645 0d23 B9010000 		.4byte	0x1b9
 2646 0d27 0B       		.uleb128 0xb
 2647 0d28 E0020000 		.4byte	0x2e0
 2648 0d2c 00       		.byte	0
 2649 0d2d 00       		.byte	0
 2650              		.section	.debug_abbrev,"",%progbits
 2651              	.Ldebug_abbrev0:
 2652 0000 01       		.uleb128 0x1
 2653 0001 11       		.uleb128 0x11
 2654 0002 01       		.byte	0x1
 2655 0003 25       		.uleb128 0x25
 2656 0004 0E       		.uleb128 0xe
 2657 0005 13       		.uleb128 0x13
 2658 0006 0B       		.uleb128 0xb
 2659 0007 03       		.uleb128 0x3
 2660 0008 0E       		.uleb128 0xe
 2661 0009 1B       		.uleb128 0x1b
 2662 000a 0E       		.uleb128 0xe
 2663 000b 55       		.uleb128 0x55
 2664 000c 06       		.uleb128 0x6
 2665 000d 11       		.uleb128 0x11
 2666 000e 01       		.uleb128 0x1
 2667 000f 52       		.uleb128 0x52
 2668 0010 01       		.uleb128 0x1
 2669 0011 10       		.uleb128 0x10
 2670 0012 06       		.uleb128 0x6
 2671 0013 00       		.byte	0
 2672 0014 00       		.byte	0
 2673 0015 02       		.uleb128 0x2
 2674 0016 24       		.uleb128 0x24
 2675 0017 00       		.byte	0
ARM GAS  /var/folders/5n/p_75w94d66l9ssrldxqdhh700000gn/T//ccgVdQOR.s 			page 48


 2676 0018 0B       		.uleb128 0xb
 2677 0019 0B       		.uleb128 0xb
 2678 001a 3E       		.uleb128 0x3e
 2679 001b 0B       		.uleb128 0xb
 2680 001c 03       		.uleb128 0x3
 2681 001d 08       		.uleb128 0x8
 2682 001e 00       		.byte	0
 2683 001f 00       		.byte	0
 2684 0020 03       		.uleb128 0x3
 2685 0021 24       		.uleb128 0x24
 2686 0022 00       		.byte	0
 2687 0023 0B       		.uleb128 0xb
 2688 0024 0B       		.uleb128 0xb
 2689 0025 3E       		.uleb128 0x3e
 2690 0026 0B       		.uleb128 0xb
 2691 0027 03       		.uleb128 0x3
 2692 0028 0E       		.uleb128 0xe
 2693 0029 00       		.byte	0
 2694 002a 00       		.byte	0
 2695 002b 04       		.uleb128 0x4
 2696 002c 16       		.uleb128 0x16
 2697 002d 00       		.byte	0
 2698 002e 03       		.uleb128 0x3
 2699 002f 0E       		.uleb128 0xe
 2700 0030 3A       		.uleb128 0x3a
 2701 0031 0B       		.uleb128 0xb
 2702 0032 3B       		.uleb128 0x3b
 2703 0033 0B       		.uleb128 0xb
 2704 0034 49       		.uleb128 0x49
 2705 0035 13       		.uleb128 0x13
 2706 0036 00       		.byte	0
 2707 0037 00       		.byte	0
 2708 0038 05       		.uleb128 0x5
 2709 0039 0F       		.uleb128 0xf
 2710 003a 00       		.byte	0
 2711 003b 0B       		.uleb128 0xb
 2712 003c 0B       		.uleb128 0xb
 2713 003d 00       		.byte	0
 2714 003e 00       		.byte	0
 2715 003f 06       		.uleb128 0x6
 2716 0040 13       		.uleb128 0x13
 2717 0041 01       		.byte	0x1
 2718 0042 03       		.uleb128 0x3
 2719 0043 0E       		.uleb128 0xe
 2720 0044 0B       		.uleb128 0xb
 2721 0045 0B       		.uleb128 0xb
 2722 0046 3A       		.uleb128 0x3a
 2723 0047 0B       		.uleb128 0xb
 2724 0048 3B       		.uleb128 0x3b
 2725 0049 0B       		.uleb128 0xb
 2726 004a 01       		.uleb128 0x1
 2727 004b 13       		.uleb128 0x13
 2728 004c 00       		.byte	0
 2729 004d 00       		.byte	0
 2730 004e 07       		.uleb128 0x7
 2731 004f 0D       		.uleb128 0xd
 2732 0050 00       		.byte	0
ARM GAS  /var/folders/5n/p_75w94d66l9ssrldxqdhh700000gn/T//ccgVdQOR.s 			page 49


 2733 0051 03       		.uleb128 0x3
 2734 0052 0E       		.uleb128 0xe
 2735 0053 3A       		.uleb128 0x3a
 2736 0054 0B       		.uleb128 0xb
 2737 0055 3B       		.uleb128 0x3b
 2738 0056 0B       		.uleb128 0xb
 2739 0057 49       		.uleb128 0x49
 2740 0058 13       		.uleb128 0x13
 2741 0059 38       		.uleb128 0x38
 2742 005a 0A       		.uleb128 0xa
 2743 005b 00       		.byte	0
 2744 005c 00       		.byte	0
 2745 005d 08       		.uleb128 0x8
 2746 005e 0D       		.uleb128 0xd
 2747 005f 00       		.byte	0
 2748 0060 03       		.uleb128 0x3
 2749 0061 08       		.uleb128 0x8
 2750 0062 3A       		.uleb128 0x3a
 2751 0063 0B       		.uleb128 0xb
 2752 0064 3B       		.uleb128 0x3b
 2753 0065 0B       		.uleb128 0xb
 2754 0066 49       		.uleb128 0x49
 2755 0067 13       		.uleb128 0x13
 2756 0068 38       		.uleb128 0x38
 2757 0069 0A       		.uleb128 0xa
 2758 006a 00       		.byte	0
 2759 006b 00       		.byte	0
 2760 006c 09       		.uleb128 0x9
 2761 006d 0F       		.uleb128 0xf
 2762 006e 00       		.byte	0
 2763 006f 0B       		.uleb128 0xb
 2764 0070 0B       		.uleb128 0xb
 2765 0071 49       		.uleb128 0x49
 2766 0072 13       		.uleb128 0x13
 2767 0073 00       		.byte	0
 2768 0074 00       		.byte	0
 2769 0075 0A       		.uleb128 0xa
 2770 0076 15       		.uleb128 0x15
 2771 0077 01       		.byte	0x1
 2772 0078 27       		.uleb128 0x27
 2773 0079 0C       		.uleb128 0xc
 2774 007a 49       		.uleb128 0x49
 2775 007b 13       		.uleb128 0x13
 2776 007c 01       		.uleb128 0x1
 2777 007d 13       		.uleb128 0x13
 2778 007e 00       		.byte	0
 2779 007f 00       		.byte	0
 2780 0080 0B       		.uleb128 0xb
 2781 0081 05       		.uleb128 0x5
 2782 0082 00       		.byte	0
 2783 0083 49       		.uleb128 0x49
 2784 0084 13       		.uleb128 0x13
 2785 0085 00       		.byte	0
 2786 0086 00       		.byte	0
 2787 0087 0C       		.uleb128 0xc
 2788 0088 01       		.uleb128 0x1
 2789 0089 01       		.byte	0x1
ARM GAS  /var/folders/5n/p_75w94d66l9ssrldxqdhh700000gn/T//ccgVdQOR.s 			page 50


 2790 008a 49       		.uleb128 0x49
 2791 008b 13       		.uleb128 0x13
 2792 008c 01       		.uleb128 0x1
 2793 008d 13       		.uleb128 0x13
 2794 008e 00       		.byte	0
 2795 008f 00       		.byte	0
 2796 0090 0D       		.uleb128 0xd
 2797 0091 21       		.uleb128 0x21
 2798 0092 00       		.byte	0
 2799 0093 49       		.uleb128 0x49
 2800 0094 13       		.uleb128 0x13
 2801 0095 2F       		.uleb128 0x2f
 2802 0096 0B       		.uleb128 0xb
 2803 0097 00       		.byte	0
 2804 0098 00       		.byte	0
 2805 0099 0E       		.uleb128 0xe
 2806 009a 04       		.uleb128 0x4
 2807 009b 01       		.byte	0x1
 2808 009c 03       		.uleb128 0x3
 2809 009d 0E       		.uleb128 0xe
 2810 009e 0B       		.uleb128 0xb
 2811 009f 0B       		.uleb128 0xb
 2812 00a0 3A       		.uleb128 0x3a
 2813 00a1 0B       		.uleb128 0xb
 2814 00a2 3B       		.uleb128 0x3b
 2815 00a3 0B       		.uleb128 0xb
 2816 00a4 01       		.uleb128 0x1
 2817 00a5 13       		.uleb128 0x13
 2818 00a6 00       		.byte	0
 2819 00a7 00       		.byte	0
 2820 00a8 0F       		.uleb128 0xf
 2821 00a9 28       		.uleb128 0x28
 2822 00aa 00       		.byte	0
 2823 00ab 03       		.uleb128 0x3
 2824 00ac 0E       		.uleb128 0xe
 2825 00ad 1C       		.uleb128 0x1c
 2826 00ae 0D       		.uleb128 0xd
 2827 00af 00       		.byte	0
 2828 00b0 00       		.byte	0
 2829 00b1 10       		.uleb128 0x10
 2830 00b2 04       		.uleb128 0x4
 2831 00b3 01       		.byte	0x1
 2832 00b4 0B       		.uleb128 0xb
 2833 00b5 0B       		.uleb128 0xb
 2834 00b6 3A       		.uleb128 0x3a
 2835 00b7 0B       		.uleb128 0xb
 2836 00b8 3B       		.uleb128 0x3b
 2837 00b9 0B       		.uleb128 0xb
 2838 00ba 01       		.uleb128 0x1
 2839 00bb 13       		.uleb128 0x13
 2840 00bc 00       		.byte	0
 2841 00bd 00       		.byte	0
 2842 00be 11       		.uleb128 0x11
 2843 00bf 13       		.uleb128 0x13
 2844 00c0 01       		.byte	0x1
 2845 00c1 03       		.uleb128 0x3
 2846 00c2 0E       		.uleb128 0xe
ARM GAS  /var/folders/5n/p_75w94d66l9ssrldxqdhh700000gn/T//ccgVdQOR.s 			page 51


 2847 00c3 0B       		.uleb128 0xb
 2848 00c4 05       		.uleb128 0x5
 2849 00c5 3A       		.uleb128 0x3a
 2850 00c6 0B       		.uleb128 0xb
 2851 00c7 3B       		.uleb128 0x3b
 2852 00c8 0B       		.uleb128 0xb
 2853 00c9 01       		.uleb128 0x1
 2854 00ca 13       		.uleb128 0x13
 2855 00cb 00       		.byte	0
 2856 00cc 00       		.byte	0
 2857 00cd 12       		.uleb128 0x12
 2858 00ce 2E       		.uleb128 0x2e
 2859 00cf 01       		.byte	0x1
 2860 00d0 3F       		.uleb128 0x3f
 2861 00d1 0C       		.uleb128 0xc
 2862 00d2 03       		.uleb128 0x3
 2863 00d3 0E       		.uleb128 0xe
 2864 00d4 3A       		.uleb128 0x3a
 2865 00d5 0B       		.uleb128 0xb
 2866 00d6 3B       		.uleb128 0x3b
 2867 00d7 0B       		.uleb128 0xb
 2868 00d8 27       		.uleb128 0x27
 2869 00d9 0C       		.uleb128 0xc
 2870 00da 49       		.uleb128 0x49
 2871 00db 13       		.uleb128 0x13
 2872 00dc 11       		.uleb128 0x11
 2873 00dd 01       		.uleb128 0x1
 2874 00de 12       		.uleb128 0x12
 2875 00df 01       		.uleb128 0x1
 2876 00e0 40       		.uleb128 0x40
 2877 00e1 06       		.uleb128 0x6
 2878 00e2 9742     		.uleb128 0x2117
 2879 00e4 0C       		.uleb128 0xc
 2880 00e5 01       		.uleb128 0x1
 2881 00e6 13       		.uleb128 0x13
 2882 00e7 00       		.byte	0
 2883 00e8 00       		.byte	0
 2884 00e9 13       		.uleb128 0x13
 2885 00ea 05       		.uleb128 0x5
 2886 00eb 00       		.byte	0
 2887 00ec 03       		.uleb128 0x3
 2888 00ed 0E       		.uleb128 0xe
 2889 00ee 3A       		.uleb128 0x3a
 2890 00ef 0B       		.uleb128 0xb
 2891 00f0 3B       		.uleb128 0x3b
 2892 00f1 0B       		.uleb128 0xb
 2893 00f2 49       		.uleb128 0x49
 2894 00f3 13       		.uleb128 0x13
 2895 00f4 02       		.uleb128 0x2
 2896 00f5 06       		.uleb128 0x6
 2897 00f6 00       		.byte	0
 2898 00f7 00       		.byte	0
 2899 00f8 14       		.uleb128 0x14
 2900 00f9 34       		.uleb128 0x34
 2901 00fa 00       		.byte	0
 2902 00fb 03       		.uleb128 0x3
 2903 00fc 0E       		.uleb128 0xe
ARM GAS  /var/folders/5n/p_75w94d66l9ssrldxqdhh700000gn/T//ccgVdQOR.s 			page 52


 2904 00fd 3A       		.uleb128 0x3a
 2905 00fe 0B       		.uleb128 0xb
 2906 00ff 3B       		.uleb128 0x3b
 2907 0100 0B       		.uleb128 0xb
 2908 0101 49       		.uleb128 0x49
 2909 0102 13       		.uleb128 0x13
 2910 0103 02       		.uleb128 0x2
 2911 0104 06       		.uleb128 0x6
 2912 0105 00       		.byte	0
 2913 0106 00       		.byte	0
 2914 0107 15       		.uleb128 0x15
 2915 0108 05       		.uleb128 0x5
 2916 0109 00       		.byte	0
 2917 010a 03       		.uleb128 0x3
 2918 010b 08       		.uleb128 0x8
 2919 010c 3A       		.uleb128 0x3a
 2920 010d 0B       		.uleb128 0xb
 2921 010e 3B       		.uleb128 0x3b
 2922 010f 0B       		.uleb128 0xb
 2923 0110 49       		.uleb128 0x49
 2924 0111 13       		.uleb128 0x13
 2925 0112 02       		.uleb128 0x2
 2926 0113 06       		.uleb128 0x6
 2927 0114 00       		.byte	0
 2928 0115 00       		.byte	0
 2929 0116 16       		.uleb128 0x16
 2930 0117 34       		.uleb128 0x34
 2931 0118 00       		.byte	0
 2932 0119 03       		.uleb128 0x3
 2933 011a 0E       		.uleb128 0xe
 2934 011b 3A       		.uleb128 0x3a
 2935 011c 0B       		.uleb128 0xb
 2936 011d 3B       		.uleb128 0x3b
 2937 011e 0B       		.uleb128 0xb
 2938 011f 49       		.uleb128 0x49
 2939 0120 13       		.uleb128 0x13
 2940 0121 02       		.uleb128 0x2
 2941 0122 0A       		.uleb128 0xa
 2942 0123 00       		.byte	0
 2943 0124 00       		.byte	0
 2944 0125 17       		.uleb128 0x17
 2945 0126 0B       		.uleb128 0xb
 2946 0127 01       		.byte	0x1
 2947 0128 55       		.uleb128 0x55
 2948 0129 06       		.uleb128 0x6
 2949 012a 01       		.uleb128 0x1
 2950 012b 13       		.uleb128 0x13
 2951 012c 00       		.byte	0
 2952 012d 00       		.byte	0
 2953 012e 18       		.uleb128 0x18
 2954 012f 34       		.uleb128 0x34
 2955 0130 00       		.byte	0
 2956 0131 03       		.uleb128 0x3
 2957 0132 0E       		.uleb128 0xe
 2958 0133 3A       		.uleb128 0x3a
 2959 0134 0B       		.uleb128 0xb
 2960 0135 3B       		.uleb128 0x3b
ARM GAS  /var/folders/5n/p_75w94d66l9ssrldxqdhh700000gn/T//ccgVdQOR.s 			page 53


 2961 0136 05       		.uleb128 0x5
 2962 0137 49       		.uleb128 0x49
 2963 0138 13       		.uleb128 0x13
 2964 0139 02       		.uleb128 0x2
 2965 013a 06       		.uleb128 0x6
 2966 013b 00       		.byte	0
 2967 013c 00       		.byte	0
 2968 013d 19       		.uleb128 0x19
 2969 013e 898201   		.uleb128 0x4109
 2970 0141 01       		.byte	0x1
 2971 0142 11       		.uleb128 0x11
 2972 0143 01       		.uleb128 0x1
 2973 0144 31       		.uleb128 0x31
 2974 0145 13       		.uleb128 0x13
 2975 0146 00       		.byte	0
 2976 0147 00       		.byte	0
 2977 0148 1A       		.uleb128 0x1a
 2978 0149 8A8201   		.uleb128 0x410a
 2979 014c 00       		.byte	0
 2980 014d 02       		.uleb128 0x2
 2981 014e 0A       		.uleb128 0xa
 2982 014f 9142     		.uleb128 0x2111
 2983 0151 0A       		.uleb128 0xa
 2984 0152 00       		.byte	0
 2985 0153 00       		.byte	0
 2986 0154 1B       		.uleb128 0x1b
 2987 0155 898201   		.uleb128 0x4109
 2988 0158 00       		.byte	0
 2989 0159 11       		.uleb128 0x11
 2990 015a 01       		.uleb128 0x1
 2991 015b 31       		.uleb128 0x31
 2992 015c 13       		.uleb128 0x13
 2993 015d 00       		.byte	0
 2994 015e 00       		.byte	0
 2995 015f 1C       		.uleb128 0x1c
 2996 0160 898201   		.uleb128 0x4109
 2997 0163 01       		.byte	0x1
 2998 0164 11       		.uleb128 0x11
 2999 0165 01       		.uleb128 0x1
 3000 0166 31       		.uleb128 0x31
 3001 0167 13       		.uleb128 0x13
 3002 0168 01       		.uleb128 0x1
 3003 0169 13       		.uleb128 0x13
 3004 016a 00       		.byte	0
 3005 016b 00       		.byte	0
 3006 016c 1D       		.uleb128 0x1d
 3007 016d 2E       		.uleb128 0x2e
 3008 016e 01       		.byte	0x1
 3009 016f 3F       		.uleb128 0x3f
 3010 0170 0C       		.uleb128 0xc
 3011 0171 03       		.uleb128 0x3
 3012 0172 0E       		.uleb128 0xe
 3013 0173 3A       		.uleb128 0x3a
 3014 0174 0B       		.uleb128 0xb
 3015 0175 3B       		.uleb128 0x3b
 3016 0176 05       		.uleb128 0x5
 3017 0177 27       		.uleb128 0x27
ARM GAS  /var/folders/5n/p_75w94d66l9ssrldxqdhh700000gn/T//ccgVdQOR.s 			page 54


 3018 0178 0C       		.uleb128 0xc
 3019 0179 49       		.uleb128 0x49
 3020 017a 13       		.uleb128 0x13
 3021 017b 11       		.uleb128 0x11
 3022 017c 01       		.uleb128 0x1
 3023 017d 12       		.uleb128 0x12
 3024 017e 01       		.uleb128 0x1
 3025 017f 40       		.uleb128 0x40
 3026 0180 06       		.uleb128 0x6
 3027 0181 9742     		.uleb128 0x2117
 3028 0183 0C       		.uleb128 0xc
 3029 0184 01       		.uleb128 0x1
 3030 0185 13       		.uleb128 0x13
 3031 0186 00       		.byte	0
 3032 0187 00       		.byte	0
 3033 0188 1E       		.uleb128 0x1e
 3034 0189 05       		.uleb128 0x5
 3035 018a 00       		.byte	0
 3036 018b 03       		.uleb128 0x3
 3037 018c 08       		.uleb128 0x8
 3038 018d 3A       		.uleb128 0x3a
 3039 018e 0B       		.uleb128 0xb
 3040 018f 3B       		.uleb128 0x3b
 3041 0190 05       		.uleb128 0x5
 3042 0191 49       		.uleb128 0x49
 3043 0192 13       		.uleb128 0x13
 3044 0193 02       		.uleb128 0x2
 3045 0194 06       		.uleb128 0x6
 3046 0195 00       		.byte	0
 3047 0196 00       		.byte	0
 3048 0197 1F       		.uleb128 0x1f
 3049 0198 05       		.uleb128 0x5
 3050 0199 00       		.byte	0
 3051 019a 03       		.uleb128 0x3
 3052 019b 0E       		.uleb128 0xe
 3053 019c 3A       		.uleb128 0x3a
 3054 019d 0B       		.uleb128 0xb
 3055 019e 3B       		.uleb128 0x3b
 3056 019f 05       		.uleb128 0x5
 3057 01a0 49       		.uleb128 0x49
 3058 01a1 13       		.uleb128 0x13
 3059 01a2 02       		.uleb128 0x2
 3060 01a3 06       		.uleb128 0x6
 3061 01a4 00       		.byte	0
 3062 01a5 00       		.byte	0
 3063 01a6 20       		.uleb128 0x20
 3064 01a7 05       		.uleb128 0x5
 3065 01a8 00       		.byte	0
 3066 01a9 03       		.uleb128 0x3
 3067 01aa 08       		.uleb128 0x8
 3068 01ab 3A       		.uleb128 0x3a
 3069 01ac 0B       		.uleb128 0xb
 3070 01ad 3B       		.uleb128 0x3b
 3071 01ae 05       		.uleb128 0x5
 3072 01af 49       		.uleb128 0x49
 3073 01b0 13       		.uleb128 0x13
 3074 01b1 02       		.uleb128 0x2
ARM GAS  /var/folders/5n/p_75w94d66l9ssrldxqdhh700000gn/T//ccgVdQOR.s 			page 55


 3075 01b2 0A       		.uleb128 0xa
 3076 01b3 00       		.byte	0
 3077 01b4 00       		.byte	0
 3078 01b5 21       		.uleb128 0x21
 3079 01b6 05       		.uleb128 0x5
 3080 01b7 00       		.byte	0
 3081 01b8 03       		.uleb128 0x3
 3082 01b9 0E       		.uleb128 0xe
 3083 01ba 3A       		.uleb128 0x3a
 3084 01bb 0B       		.uleb128 0xb
 3085 01bc 3B       		.uleb128 0x3b
 3086 01bd 05       		.uleb128 0x5
 3087 01be 49       		.uleb128 0x49
 3088 01bf 13       		.uleb128 0x13
 3089 01c0 02       		.uleb128 0x2
 3090 01c1 0A       		.uleb128 0xa
 3091 01c2 00       		.byte	0
 3092 01c3 00       		.byte	0
 3093 01c4 22       		.uleb128 0x22
 3094 01c5 34       		.uleb128 0x34
 3095 01c6 00       		.byte	0
 3096 01c7 03       		.uleb128 0x3
 3097 01c8 0E       		.uleb128 0xe
 3098 01c9 3A       		.uleb128 0x3a
 3099 01ca 0B       		.uleb128 0xb
 3100 01cb 3B       		.uleb128 0x3b
 3101 01cc 05       		.uleb128 0x5
 3102 01cd 49       		.uleb128 0x49
 3103 01ce 13       		.uleb128 0x13
 3104 01cf 02       		.uleb128 0x2
 3105 01d0 0A       		.uleb128 0xa
 3106 01d1 00       		.byte	0
 3107 01d2 00       		.byte	0
 3108 01d3 23       		.uleb128 0x23
 3109 01d4 898201   		.uleb128 0x4109
 3110 01d7 01       		.byte	0x1
 3111 01d8 11       		.uleb128 0x11
 3112 01d9 01       		.uleb128 0x1
 3113 01da 01       		.uleb128 0x1
 3114 01db 13       		.uleb128 0x13
 3115 01dc 00       		.byte	0
 3116 01dd 00       		.byte	0
 3117 01de 24       		.uleb128 0x24
 3118 01df 34       		.uleb128 0x34
 3119 01e0 00       		.byte	0
 3120 01e1 03       		.uleb128 0x3
 3121 01e2 0E       		.uleb128 0xe
 3122 01e3 3A       		.uleb128 0x3a
 3123 01e4 0B       		.uleb128 0xb
 3124 01e5 3B       		.uleb128 0x3b
 3125 01e6 0B       		.uleb128 0xb
 3126 01e7 49       		.uleb128 0x49
 3127 01e8 13       		.uleb128 0x13
 3128 01e9 3F       		.uleb128 0x3f
 3129 01ea 0C       		.uleb128 0xc
 3130 01eb 3C       		.uleb128 0x3c
 3131 01ec 0C       		.uleb128 0xc
ARM GAS  /var/folders/5n/p_75w94d66l9ssrldxqdhh700000gn/T//ccgVdQOR.s 			page 56


 3132 01ed 00       		.byte	0
 3133 01ee 00       		.byte	0
 3134 01ef 25       		.uleb128 0x25
 3135 01f0 34       		.uleb128 0x34
 3136 01f1 00       		.byte	0
 3137 01f2 03       		.uleb128 0x3
 3138 01f3 0E       		.uleb128 0xe
 3139 01f4 3A       		.uleb128 0x3a
 3140 01f5 0B       		.uleb128 0xb
 3141 01f6 3B       		.uleb128 0x3b
 3142 01f7 0B       		.uleb128 0xb
 3143 01f8 49       		.uleb128 0x49
 3144 01f9 13       		.uleb128 0x13
 3145 01fa 3F       		.uleb128 0x3f
 3146 01fb 0C       		.uleb128 0xc
 3147 01fc 02       		.uleb128 0x2
 3148 01fd 0A       		.uleb128 0xa
 3149 01fe 00       		.byte	0
 3150 01ff 00       		.byte	0
 3151 0200 26       		.uleb128 0x26
 3152 0201 26       		.uleb128 0x26
 3153 0202 00       		.byte	0
 3154 0203 49       		.uleb128 0x49
 3155 0204 13       		.uleb128 0x13
 3156 0205 00       		.byte	0
 3157 0206 00       		.byte	0
 3158 0207 27       		.uleb128 0x27
 3159 0208 2E       		.uleb128 0x2e
 3160 0209 01       		.byte	0x1
 3161 020a 3F       		.uleb128 0x3f
 3162 020b 0C       		.uleb128 0xc
 3163 020c 03       		.uleb128 0x3
 3164 020d 0E       		.uleb128 0xe
 3165 020e 3A       		.uleb128 0x3a
 3166 020f 0B       		.uleb128 0xb
 3167 0210 3B       		.uleb128 0x3b
 3168 0211 0B       		.uleb128 0xb
 3169 0212 27       		.uleb128 0x27
 3170 0213 0C       		.uleb128 0xc
 3171 0214 49       		.uleb128 0x49
 3172 0215 13       		.uleb128 0x13
 3173 0216 3C       		.uleb128 0x3c
 3174 0217 0C       		.uleb128 0xc
 3175 0218 01       		.uleb128 0x1
 3176 0219 13       		.uleb128 0x13
 3177 021a 00       		.byte	0
 3178 021b 00       		.byte	0
 3179 021c 28       		.uleb128 0x28
 3180 021d 2E       		.uleb128 0x2e
 3181 021e 01       		.byte	0x1
 3182 021f 3F       		.uleb128 0x3f
 3183 0220 0C       		.uleb128 0xc
 3184 0221 03       		.uleb128 0x3
 3185 0222 0E       		.uleb128 0xe
 3186 0223 3A       		.uleb128 0x3a
 3187 0224 0B       		.uleb128 0xb
 3188 0225 3B       		.uleb128 0x3b
ARM GAS  /var/folders/5n/p_75w94d66l9ssrldxqdhh700000gn/T//ccgVdQOR.s 			page 57


 3189 0226 0B       		.uleb128 0xb
 3190 0227 27       		.uleb128 0x27
 3191 0228 0C       		.uleb128 0xc
 3192 0229 3C       		.uleb128 0x3c
 3193 022a 0C       		.uleb128 0xc
 3194 022b 01       		.uleb128 0x1
 3195 022c 13       		.uleb128 0x13
 3196 022d 00       		.byte	0
 3197 022e 00       		.byte	0
 3198 022f 29       		.uleb128 0x29
 3199 0230 2E       		.uleb128 0x2e
 3200 0231 00       		.byte	0
 3201 0232 3F       		.uleb128 0x3f
 3202 0233 0C       		.uleb128 0xc
 3203 0234 03       		.uleb128 0x3
 3204 0235 0E       		.uleb128 0xe
 3205 0236 3A       		.uleb128 0x3a
 3206 0237 0B       		.uleb128 0xb
 3207 0238 3B       		.uleb128 0x3b
 3208 0239 05       		.uleb128 0x5
 3209 023a 27       		.uleb128 0x27
 3210 023b 0C       		.uleb128 0xc
 3211 023c 3C       		.uleb128 0x3c
 3212 023d 0C       		.uleb128 0xc
 3213 023e 00       		.byte	0
 3214 023f 00       		.byte	0
 3215 0240 2A       		.uleb128 0x2a
 3216 0241 2E       		.uleb128 0x2e
 3217 0242 01       		.byte	0x1
 3218 0243 3F       		.uleb128 0x3f
 3219 0244 0C       		.uleb128 0xc
 3220 0245 03       		.uleb128 0x3
 3221 0246 0E       		.uleb128 0xe
 3222 0247 3A       		.uleb128 0x3a
 3223 0248 0B       		.uleb128 0xb
 3224 0249 3B       		.uleb128 0x3b
 3225 024a 0B       		.uleb128 0xb
 3226 024b 27       		.uleb128 0x27
 3227 024c 0C       		.uleb128 0xc
 3228 024d 49       		.uleb128 0x49
 3229 024e 13       		.uleb128 0x13
 3230 024f 3C       		.uleb128 0x3c
 3231 0250 0C       		.uleb128 0xc
 3232 0251 00       		.byte	0
 3233 0252 00       		.byte	0
 3234 0253 00       		.byte	0
 3235              		.section	.debug_loc,"",%progbits
 3236              	.Ldebug_loc0:
 3237              	.LLST0:
 3238 0000 00000000 		.4byte	.LFB7
 3239 0004 02000000 		.4byte	.LCFI0
 3240 0008 0200     		.2byte	0x2
 3241 000a 7D       		.byte	0x7d
 3242 000b 00       		.sleb128 0
 3243 000c 02000000 		.4byte	.LCFI0
 3244 0010 4C000000 		.4byte	.LFE7
 3245 0014 0200     		.2byte	0x2
ARM GAS  /var/folders/5n/p_75w94d66l9ssrldxqdhh700000gn/T//ccgVdQOR.s 			page 58


 3246 0016 7D       		.byte	0x7d
 3247 0017 04       		.sleb128 4
 3248 0018 00000000 		.4byte	0
 3249 001c 00000000 		.4byte	0
 3250              	.LLST1:
 3251 0020 00000000 		.4byte	.LVL0
 3252 0024 1E000000 		.4byte	.LVL3
 3253 0028 0100     		.2byte	0x1
 3254 002a 50       		.byte	0x50
 3255 002b 1E000000 		.4byte	.LVL3
 3256 002f 22000000 		.4byte	.LVL4
 3257 0033 0400     		.2byte	0x4
 3258 0035 F3       		.byte	0xf3
 3259 0036 01       		.uleb128 0x1
 3260 0037 50       		.byte	0x50
 3261 0038 9F       		.byte	0x9f
 3262 0039 22000000 		.4byte	.LVL4
 3263 003d 4C000000 		.4byte	.LFE7
 3264 0041 0100     		.2byte	0x1
 3265 0043 50       		.byte	0x50
 3266 0044 00000000 		.4byte	0
 3267 0048 00000000 		.4byte	0
 3268              	.LLST2:
 3269 004c 06000000 		.4byte	.LVL1
 3270 0050 1C000000 		.4byte	.LVL2
 3271 0054 0100     		.2byte	0x1
 3272 0056 53       		.byte	0x53
 3273 0057 22000000 		.4byte	.LVL4
 3274 005b 24000000 		.4byte	.LVL5
 3275 005f 0100     		.2byte	0x1
 3276 0061 53       		.byte	0x53
 3277 0062 00000000 		.4byte	0
 3278 0066 00000000 		.4byte	0
 3279              	.LLST3:
 3280 006a 00000000 		.4byte	.LFB8
 3281 006e 04000000 		.4byte	.LCFI1
 3282 0072 0200     		.2byte	0x2
 3283 0074 7D       		.byte	0x7d
 3284 0075 00       		.sleb128 0
 3285 0076 04000000 		.4byte	.LCFI1
 3286 007a 14000000 		.4byte	.LCFI2
 3287 007e 0200     		.2byte	0x2
 3288 0080 7D       		.byte	0x7d
 3289 0081 24       		.sleb128 36
 3290 0082 14000000 		.4byte	.LCFI2
 3291 0086 04020000 		.4byte	.LFE8
 3292 008a 0200     		.2byte	0x2
 3293 008c 7D       		.byte	0x7d
 3294 008d 30       		.sleb128 48
 3295 008e 00000000 		.4byte	0
 3296 0092 00000000 		.4byte	0
 3297              	.LLST4:
 3298 0096 00000000 		.4byte	.LVL6
 3299 009a 18000000 		.4byte	.LVL8
 3300 009e 0100     		.2byte	0x1
 3301 00a0 50       		.byte	0x50
 3302 00a1 18000000 		.4byte	.LVL8
ARM GAS  /var/folders/5n/p_75w94d66l9ssrldxqdhh700000gn/T//ccgVdQOR.s 			page 59


 3303 00a5 1A010000 		.4byte	.LVL31
 3304 00a9 0100     		.2byte	0x1
 3305 00ab 55       		.byte	0x55
 3306 00ac 1A010000 		.4byte	.LVL31
 3307 00b0 22010000 		.4byte	.LVL32
 3308 00b4 0100     		.2byte	0x1
 3309 00b6 50       		.byte	0x50
 3310 00b7 22010000 		.4byte	.LVL32
 3311 00bb 04020000 		.4byte	.LFE8
 3312 00bf 0100     		.2byte	0x1
 3313 00c1 55       		.byte	0x55
 3314 00c2 00000000 		.4byte	0
 3315 00c6 00000000 		.4byte	0
 3316              	.LLST5:
 3317 00ca 00000000 		.4byte	.LVL6
 3318 00ce 1D000000 		.4byte	.LVL9-1
 3319 00d2 0100     		.2byte	0x1
 3320 00d4 51       		.byte	0x51
 3321 00d5 1D000000 		.4byte	.LVL9-1
 3322 00d9 04020000 		.4byte	.LFE8
 3323 00dd 0100     		.2byte	0x1
 3324 00df 58       		.byte	0x58
 3325 00e0 00000000 		.4byte	0
 3326 00e4 00000000 		.4byte	0
 3327              	.LLST6:
 3328 00e8 B0000000 		.4byte	.LVL22
 3329 00ec B6000000 		.4byte	.LVL24
 3330 00f0 0100     		.2byte	0x1
 3331 00f2 58       		.byte	0x58
 3332 00f3 B6000000 		.4byte	.LVL24
 3333 00f7 28010000 		.4byte	.LVL33
 3334 00fb 0100     		.2byte	0x1
 3335 00fd 57       		.byte	0x57
 3336 00fe 94010000 		.4byte	.LVL38
 3337 0102 AA010000 		.4byte	.LVL42
 3338 0106 0100     		.2byte	0x1
 3339 0108 57       		.byte	0x57
 3340 0109 E4010000 		.4byte	.LVL48
 3341 010d 04020000 		.4byte	.LFE8
 3342 0111 0100     		.2byte	0x1
 3343 0113 57       		.byte	0x57
 3344 0114 00000000 		.4byte	0
 3345 0118 00000000 		.4byte	0
 3346              	.LLST7:
 3347 011c 52000000 		.4byte	.LVL12
 3348 0120 B2000000 		.4byte	.LVL23
 3349 0124 0100     		.2byte	0x1
 3350 0126 57       		.byte	0x57
 3351 0127 AA010000 		.4byte	.LVL42
 3352 012b C6010000 		.4byte	.LVL44
 3353 012f 0100     		.2byte	0x1
 3354 0131 57       		.byte	0x57
 3355 0132 00000000 		.4byte	0
 3356 0136 00000000 		.4byte	0
 3357              	.LLST8:
 3358 013a 60000000 		.4byte	.LVL15
 3359 013e 6A000000 		.4byte	.LVL16
ARM GAS  /var/folders/5n/p_75w94d66l9ssrldxqdhh700000gn/T//ccgVdQOR.s 			page 60


 3360 0142 0100     		.2byte	0x1
 3361 0144 50       		.byte	0x50
 3362 0145 6A000000 		.4byte	.LVL16
 3363 0149 84000000 		.4byte	.LVL18
 3364 014d 0100     		.2byte	0x1
 3365 014f 59       		.byte	0x59
 3366 0150 84000000 		.4byte	.LVL18
 3367 0154 86000000 		.4byte	.LVL19
 3368 0158 0100     		.2byte	0x1
 3369 015a 50       		.byte	0x50
 3370 015b 86000000 		.4byte	.LVL19
 3371 015f B6000000 		.4byte	.LVL24
 3372 0163 0100     		.2byte	0x1
 3373 0165 59       		.byte	0x59
 3374 0166 AA010000 		.4byte	.LVL42
 3375 016a C6010000 		.4byte	.LVL44
 3376 016e 0100     		.2byte	0x1
 3377 0170 59       		.byte	0x59
 3378 0171 00000000 		.4byte	0
 3379 0175 00000000 		.4byte	0
 3380              	.LLST9:
 3381 0179 B0000000 		.4byte	.LVL22
 3382 017d B6000000 		.4byte	.LVL24
 3383 0181 0200     		.2byte	0x2
 3384 0183 31       		.byte	0x31
 3385 0184 9F       		.byte	0x9f
 3386 0185 B6000000 		.4byte	.LVL24
 3387 0189 DC000000 		.4byte	.LVL26
 3388 018d 0100     		.2byte	0x1
 3389 018f 59       		.byte	0x59
 3390 0190 DC000000 		.4byte	.LVL26
 3391 0194 EC000000 		.4byte	.LVL29
 3392 0198 0200     		.2byte	0x2
 3393 019a 30       		.byte	0x30
 3394 019b 9F       		.byte	0x9f
 3395 019c 94010000 		.4byte	.LVL38
 3396 01a0 98010000 		.4byte	.LVL40
 3397 01a4 0100     		.2byte	0x1
 3398 01a6 59       		.byte	0x59
 3399 01a7 00000000 		.4byte	0
 3400 01ab 00000000 		.4byte	0
 3401              	.LLST10:
 3402 01af 00000000 		.4byte	.LFB9
 3403 01b3 04000000 		.4byte	.LCFI3
 3404 01b7 0200     		.2byte	0x2
 3405 01b9 7D       		.byte	0x7d
 3406 01ba 00       		.sleb128 0
 3407 01bb 04000000 		.4byte	.LCFI3
 3408 01bf 0A000000 		.4byte	.LCFI4
 3409 01c3 0200     		.2byte	0x2
 3410 01c5 7D       		.byte	0x7d
 3411 01c6 24       		.sleb128 36
 3412 01c7 0A000000 		.4byte	.LCFI4
 3413 01cb 30010000 		.4byte	.LFE9
 3414 01cf 0300     		.2byte	0x3
 3415 01d1 7D       		.byte	0x7d
 3416 01d2 C000     		.sleb128 64
ARM GAS  /var/folders/5n/p_75w94d66l9ssrldxqdhh700000gn/T//ccgVdQOR.s 			page 61


 3417 01d4 00000000 		.4byte	0
 3418 01d8 00000000 		.4byte	0
 3419              	.LLST11:
 3420 01dc 00000000 		.4byte	.LVL50
 3421 01e0 1D000000 		.4byte	.LVL52-1
 3422 01e4 0100     		.2byte	0x1
 3423 01e6 50       		.byte	0x50
 3424 01e7 1D000000 		.4byte	.LVL52-1
 3425 01eb 30010000 		.4byte	.LFE9
 3426 01ef 0100     		.2byte	0x1
 3427 01f1 55       		.byte	0x55
 3428 01f2 00000000 		.4byte	0
 3429 01f6 00000000 		.4byte	0
 3430              	.LLST12:
 3431 01fa 00000000 		.4byte	.LVL50
 3432 01fe 08000000 		.4byte	.LVL51
 3433 0202 0100     		.2byte	0x1
 3434 0204 51       		.byte	0x51
 3435 0205 08000000 		.4byte	.LVL51
 3436 0209 30010000 		.4byte	.LFE9
 3437 020d 0100     		.2byte	0x1
 3438 020f 5A       		.byte	0x5a
 3439 0210 00000000 		.4byte	0
 3440 0214 00000000 		.4byte	0
 3441              	.LLST13:
 3442 0218 00000000 		.4byte	.LVL50
 3443 021c 1D000000 		.4byte	.LVL52-1
 3444 0220 0100     		.2byte	0x1
 3445 0222 52       		.byte	0x52
 3446 0223 1D000000 		.4byte	.LVL52-1
 3447 0227 FE000000 		.4byte	.LVL72
 3448 022b 0100     		.2byte	0x1
 3449 022d 56       		.byte	0x56
 3450 022e FE000000 		.4byte	.LVL72
 3451 0232 04010000 		.4byte	.LVL73
 3452 0236 0400     		.2byte	0x4
 3453 0238 F3       		.byte	0xf3
 3454 0239 01       		.uleb128 0x1
 3455 023a 52       		.byte	0x52
 3456 023b 9F       		.byte	0x9f
 3457 023c 04010000 		.4byte	.LVL73
 3458 0240 06010000 		.4byte	.LVL74
 3459 0244 0300     		.2byte	0x3
 3460 0246 91       		.byte	0x91
 3461 0247 54       		.sleb128 -44
 3462 0248 9F       		.byte	0x9f
 3463 0249 06010000 		.4byte	.LVL74
 3464 024d 30010000 		.4byte	.LFE9
 3465 0251 0100     		.2byte	0x1
 3466 0253 56       		.byte	0x56
 3467 0254 00000000 		.4byte	0
 3468 0258 00000000 		.4byte	0
 3469              	.LLST14:
 3470 025c 00000000 		.4byte	.LVL50
 3471 0260 1D000000 		.4byte	.LVL52-1
 3472 0264 0100     		.2byte	0x1
 3473 0266 53       		.byte	0x53
ARM GAS  /var/folders/5n/p_75w94d66l9ssrldxqdhh700000gn/T//ccgVdQOR.s 			page 62


 3474 0267 1D000000 		.4byte	.LVL52-1
 3475 026b 30010000 		.4byte	.LFE9
 3476 026f 0400     		.2byte	0x4
 3477 0271 F3       		.byte	0xf3
 3478 0272 01       		.uleb128 0x1
 3479 0273 53       		.byte	0x53
 3480 0274 9F       		.byte	0x9f
 3481 0275 00000000 		.4byte	0
 3482 0279 00000000 		.4byte	0
 3483              	.LLST15:
 3484 027d 32000000 		.4byte	.LVL55
 3485 0281 CE000000 		.4byte	.LVL68
 3486 0285 0100     		.2byte	0x1
 3487 0287 54       		.byte	0x54
 3488 0288 F6000000 		.4byte	.LVL70
 3489 028c FA000000 		.4byte	.LVL71
 3490 0290 0100     		.2byte	0x1
 3491 0292 54       		.byte	0x54
 3492 0293 FA000000 		.4byte	.LVL71
 3493 0297 06010000 		.4byte	.LVL74
 3494 029b 0200     		.2byte	0x2
 3495 029d 75       		.byte	0x75
 3496 029e 04       		.sleb128 4
 3497 029f 06010000 		.4byte	.LVL74
 3498 02a3 0C010000 		.4byte	.LVL76
 3499 02a7 0100     		.2byte	0x1
 3500 02a9 54       		.byte	0x54
 3501 02aa 00000000 		.4byte	0
 3502 02ae 00000000 		.4byte	0
 3503              	.LLST16:
 3504 02b2 00000000 		.4byte	.LVL50
 3505 02b6 94000000 		.4byte	.LVL59
 3506 02ba 0200     		.2byte	0x2
 3507 02bc 30       		.byte	0x30
 3508 02bd 9F       		.byte	0x9f
 3509 02be 94000000 		.4byte	.LVL59
 3510 02c2 AA000000 		.4byte	.LVL60
 3511 02c6 1300     		.2byte	0x13
 3512 02c8 70       		.byte	0x70
 3513 02c9 00       		.sleb128 0
 3514 02ca 71       		.byte	0x71
 3515 02cb 00       		.sleb128 0
 3516 02cc 22       		.byte	0x22
 3517 02cd 73       		.byte	0x73
 3518 02ce 00       		.sleb128 0
 3519 02cf 22       		.byte	0x22
 3520 02d0 78       		.byte	0x78
 3521 02d1 00       		.sleb128 0
 3522 02d2 22       		.byte	0x22
 3523 02d3 7C       		.byte	0x7c
 3524 02d4 00       		.sleb128 0
 3525 02d5 22       		.byte	0x22
 3526 02d6 91       		.byte	0x91
 3527 02d7 4C       		.sleb128 -52
 3528 02d8 06       		.byte	0x6
 3529 02d9 22       		.byte	0x22
 3530 02da 9F       		.byte	0x9f
ARM GAS  /var/folders/5n/p_75w94d66l9ssrldxqdhh700000gn/T//ccgVdQOR.s 			page 63


 3531 02db AA000000 		.4byte	.LVL60
 3532 02df AC000000 		.4byte	.LVL61
 3533 02e3 1A00     		.2byte	0x1a
 3534 02e5 72       		.byte	0x72
 3535 02e6 00       		.sleb128 0
 3536 02e7 0A       		.byte	0xa
 3537 02e8 FFFF     		.2byte	0xffff
 3538 02ea 1A       		.byte	0x1a
 3539 02eb 70       		.byte	0x70
 3540 02ec 00       		.sleb128 0
 3541 02ed 22       		.byte	0x22
 3542 02ee 91       		.byte	0x91
 3543 02ef 4C       		.sleb128 -52
 3544 02f0 06       		.byte	0x6
 3545 02f1 22       		.byte	0x22
 3546 02f2 71       		.byte	0x71
 3547 02f3 00       		.sleb128 0
 3548 02f4 22       		.byte	0x22
 3549 02f5 73       		.byte	0x73
 3550 02f6 00       		.sleb128 0
 3551 02f7 22       		.byte	0x22
 3552 02f8 78       		.byte	0x78
 3553 02f9 00       		.sleb128 0
 3554 02fa 22       		.byte	0x22
 3555 02fb 7C       		.byte	0x7c
 3556 02fc 00       		.sleb128 0
 3557 02fd 22       		.byte	0x22
 3558 02fe 9F       		.byte	0x9f
 3559 02ff AC000000 		.4byte	.LVL61
 3560 0303 B0000000 		.4byte	.LVL62
 3561 0307 1B00     		.2byte	0x1b
 3562 0309 72       		.byte	0x72
 3563 030a 00       		.sleb128 0
 3564 030b 0A       		.byte	0xa
 3565 030c FFFF     		.2byte	0xffff
 3566 030e 1A       		.byte	0x1a
 3567 030f 70       		.byte	0x70
 3568 0310 00       		.sleb128 0
 3569 0311 22       		.byte	0x22
 3570 0312 91       		.byte	0x91
 3571 0313 4C       		.sleb128 -52
 3572 0314 06       		.byte	0x6
 3573 0315 22       		.byte	0x22
 3574 0316 91       		.byte	0x91
 3575 0317 44       		.sleb128 -60
 3576 0318 06       		.byte	0x6
 3577 0319 22       		.byte	0x22
 3578 031a 73       		.byte	0x73
 3579 031b 00       		.sleb128 0
 3580 031c 22       		.byte	0x22
 3581 031d 78       		.byte	0x78
 3582 031e 00       		.sleb128 0
 3583 031f 22       		.byte	0x22
 3584 0320 7C       		.byte	0x7c
 3585 0321 00       		.sleb128 0
 3586 0322 22       		.byte	0x22
 3587 0323 9F       		.byte	0x9f
ARM GAS  /var/folders/5n/p_75w94d66l9ssrldxqdhh700000gn/T//ccgVdQOR.s 			page 64


 3588 0324 B0000000 		.4byte	.LVL62
 3589 0328 B8000000 		.4byte	.LVL63
 3590 032c 1C00     		.2byte	0x1c
 3591 032e 72       		.byte	0x72
 3592 032f 00       		.sleb128 0
 3593 0330 0A       		.byte	0xa
 3594 0331 FFFF     		.2byte	0xffff
 3595 0333 1A       		.byte	0x1a
 3596 0334 70       		.byte	0x70
 3597 0335 00       		.sleb128 0
 3598 0336 78       		.byte	0x78
 3599 0337 00       		.sleb128 0
 3600 0338 22       		.byte	0x22
 3601 0339 91       		.byte	0x91
 3602 033a 4C       		.sleb128 -52
 3603 033b 06       		.byte	0x6
 3604 033c 22       		.byte	0x22
 3605 033d 91       		.byte	0x91
 3606 033e 48       		.sleb128 -56
 3607 033f 06       		.byte	0x6
 3608 0340 22       		.byte	0x22
 3609 0341 7C       		.byte	0x7c
 3610 0342 00       		.sleb128 0
 3611 0343 22       		.byte	0x22
 3612 0344 91       		.byte	0x91
 3613 0345 44       		.sleb128 -60
 3614 0346 06       		.byte	0x6
 3615 0347 22       		.byte	0x22
 3616 0348 22       		.byte	0x22
 3617 0349 9F       		.byte	0x9f
 3618 034a C0000000 		.4byte	.LVL64
 3619 034e CA000000 		.4byte	.LVL66
 3620 0352 0100     		.2byte	0x1
 3621 0354 52       		.byte	0x52
 3622 0355 CA000000 		.4byte	.LVL66
 3623 0359 CC000000 		.4byte	.LVL67
 3624 035d 0400     		.2byte	0x4
 3625 035f 72       		.byte	0x72
 3626 0360 00       		.sleb128 0
 3627 0361 20       		.byte	0x20
 3628 0362 9F       		.byte	0x9f
 3629 0363 CC000000 		.4byte	.LVL67
 3630 0367 CE000000 		.4byte	.LVL68
 3631 036b 0100     		.2byte	0x1
 3632 036d 52       		.byte	0x52
 3633 036e F6000000 		.4byte	.LVL70
 3634 0372 FA000000 		.4byte	.LVL71
 3635 0376 1300     		.2byte	0x13
 3636 0378 70       		.byte	0x70
 3637 0379 00       		.sleb128 0
 3638 037a 71       		.byte	0x71
 3639 037b 00       		.sleb128 0
 3640 037c 22       		.byte	0x22
 3641 037d 73       		.byte	0x73
 3642 037e 00       		.sleb128 0
 3643 037f 22       		.byte	0x22
 3644 0380 78       		.byte	0x78
ARM GAS  /var/folders/5n/p_75w94d66l9ssrldxqdhh700000gn/T//ccgVdQOR.s 			page 65


 3645 0381 00       		.sleb128 0
 3646 0382 22       		.byte	0x22
 3647 0383 7C       		.byte	0x7c
 3648 0384 00       		.sleb128 0
 3649 0385 22       		.byte	0x22
 3650 0386 91       		.byte	0x91
 3651 0387 4C       		.sleb128 -52
 3652 0388 06       		.byte	0x6
 3653 0389 22       		.byte	0x22
 3654 038a 9F       		.byte	0x9f
 3655 038b FA000000 		.4byte	.LVL71
 3656 038f 0C010000 		.4byte	.LVL76
 3657 0393 0200     		.2byte	0x2
 3658 0395 30       		.byte	0x30
 3659 0396 9F       		.byte	0x9f
 3660 0397 18010000 		.4byte	.LVL78
 3661 039b 30010000 		.4byte	.LFE9
 3662 039f 0200     		.2byte	0x2
 3663 03a1 30       		.byte	0x30
 3664 03a2 9F       		.byte	0x9f
 3665 03a3 00000000 		.4byte	0
 3666 03a7 00000000 		.4byte	0
 3667              	.LLST17:
 3668 03ab 22000000 		.4byte	.LVL53
 3669 03af CE000000 		.4byte	.LVL68
 3670 03b3 0200     		.2byte	0x2
 3671 03b5 44       		.byte	0x44
 3672 03b6 9F       		.byte	0x9f
 3673 03b7 F6000000 		.4byte	.LVL70
 3674 03bb FA000000 		.4byte	.LVL71
 3675 03bf 0200     		.2byte	0x2
 3676 03c1 44       		.byte	0x44
 3677 03c2 9F       		.byte	0x9f
 3678 03c3 06010000 		.4byte	.LVL74
 3679 03c7 0C010000 		.4byte	.LVL76
 3680 03cb 0200     		.2byte	0x2
 3681 03cd 44       		.byte	0x44
 3682 03ce 9F       		.byte	0x9f
 3683 03cf 18010000 		.4byte	.LVL78
 3684 03d3 30010000 		.4byte	.LFE9
 3685 03d7 0200     		.2byte	0x2
 3686 03d9 44       		.byte	0x44
 3687 03da 9F       		.byte	0x9f
 3688 03db 00000000 		.4byte	0
 3689 03df 00000000 		.4byte	0
 3690              	.LLST18:
 3691 03e3 00000000 		.4byte	.LFB10
 3692 03e7 02000000 		.4byte	.LCFI5
 3693 03eb 0200     		.2byte	0x2
 3694 03ed 7D       		.byte	0x7d
 3695 03ee 00       		.sleb128 0
 3696 03ef 02000000 		.4byte	.LCFI5
 3697 03f3 0A000000 		.4byte	.LCFI6
 3698 03f7 0200     		.2byte	0x2
 3699 03f9 7D       		.byte	0x7d
 3700 03fa 14       		.sleb128 20
 3701 03fb 0A000000 		.4byte	.LCFI6
ARM GAS  /var/folders/5n/p_75w94d66l9ssrldxqdhh700000gn/T//ccgVdQOR.s 			page 66


 3702 03ff 54000000 		.4byte	.LFE10
 3703 0403 0200     		.2byte	0x2
 3704 0405 7D       		.byte	0x7d
 3705 0406 28       		.sleb128 40
 3706 0407 00000000 		.4byte	0
 3707 040b 00000000 		.4byte	0
 3708              	.LLST19:
 3709 040f 00000000 		.4byte	.LVL79
 3710 0413 06000000 		.4byte	.LVL80
 3711 0417 0100     		.2byte	0x1
 3712 0419 50       		.byte	0x50
 3713 041a 06000000 		.4byte	.LVL80
 3714 041e 54000000 		.4byte	.LFE10
 3715 0422 0100     		.2byte	0x1
 3716 0424 54       		.byte	0x54
 3717 0425 00000000 		.4byte	0
 3718 0429 00000000 		.4byte	0
 3719              	.LLST20:
 3720 042d 00000000 		.4byte	.LVL79
 3721 0431 15000000 		.4byte	.LVL81-1
 3722 0435 0100     		.2byte	0x1
 3723 0437 51       		.byte	0x51
 3724 0438 15000000 		.4byte	.LVL81-1
 3725 043c 54000000 		.4byte	.LFE10
 3726 0440 0100     		.2byte	0x1
 3727 0442 57       		.byte	0x57
 3728 0443 00000000 		.4byte	0
 3729 0447 00000000 		.4byte	0
 3730              	.LLST21:
 3731 044b 00000000 		.4byte	.LVL79
 3732 044f 15000000 		.4byte	.LVL81-1
 3733 0453 0100     		.2byte	0x1
 3734 0455 52       		.byte	0x52
 3735 0456 15000000 		.4byte	.LVL81-1
 3736 045a 54000000 		.4byte	.LFE10
 3737 045e 0100     		.2byte	0x1
 3738 0460 55       		.byte	0x55
 3739 0461 00000000 		.4byte	0
 3740 0465 00000000 		.4byte	0
 3741              	.LLST22:
 3742 0469 00000000 		.4byte	.LVL79
 3743 046d 15000000 		.4byte	.LVL81-1
 3744 0471 0100     		.2byte	0x1
 3745 0473 53       		.byte	0x53
 3746 0474 15000000 		.4byte	.LVL81-1
 3747 0478 54000000 		.4byte	.LFE10
 3748 047c 0400     		.2byte	0x4
 3749 047e F3       		.byte	0xf3
 3750 047f 01       		.uleb128 0x1
 3751 0480 53       		.byte	0x53
 3752 0481 9F       		.byte	0x9f
 3753 0482 00000000 		.4byte	0
 3754 0486 00000000 		.4byte	0
 3755              	.LLST23:
 3756 048a 1C000000 		.4byte	.LVL82
 3757 048e 2C000000 		.4byte	.LVL83
 3758 0492 0100     		.2byte	0x1
ARM GAS  /var/folders/5n/p_75w94d66l9ssrldxqdhh700000gn/T//ccgVdQOR.s 			page 67


 3759 0494 50       		.byte	0x50
 3760 0495 2C000000 		.4byte	.LVL83
 3761 0499 37000000 		.4byte	.LVL84-1
 3762 049d 0200     		.2byte	0x2
 3763 049f 91       		.byte	0x91
 3764 04a0 60       		.sleb128 -32
 3765 04a1 3E000000 		.4byte	.LVL85
 3766 04a5 4C000000 		.4byte	.LVL86
 3767 04a9 0100     		.2byte	0x1
 3768 04ab 50       		.byte	0x50
 3769 04ac 00000000 		.4byte	0
 3770 04b0 00000000 		.4byte	0
 3771              		.section	.debug_aranges,"",%progbits
 3772 0000 34000000 		.4byte	0x34
 3773 0004 0200     		.2byte	0x2
 3774 0006 00000000 		.4byte	.Ldebug_info0
 3775 000a 04       		.byte	0x4
 3776 000b 00       		.byte	0
 3777 000c 0000     		.2byte	0
 3778 000e 0000     		.2byte	0
 3779 0010 00000000 		.4byte	.LFB7
 3780 0014 4C000000 		.4byte	.LFE7-.LFB7
 3781 0018 00000000 		.4byte	.LFB8
 3782 001c 04020000 		.4byte	.LFE8-.LFB8
 3783 0020 00000000 		.4byte	.LFB9
 3784 0024 30010000 		.4byte	.LFE9-.LFB9
 3785 0028 00000000 		.4byte	.LFB10
 3786 002c 54000000 		.4byte	.LFE10-.LFB10
 3787 0030 00000000 		.4byte	0
 3788 0034 00000000 		.4byte	0
 3789              		.section	.debug_ranges,"",%progbits
 3790              	.Ldebug_ranges0:
 3791 0000 AA000000 		.4byte	.LBB2
 3792 0004 AC000000 		.4byte	.LBE2
 3793 0008 B6000000 		.4byte	.LBB3
 3794 000c EC000000 		.4byte	.LBE3
 3795 0010 94010000 		.4byte	.LBB4
 3796 0014 98010000 		.4byte	.LBE4
 3797 0018 00000000 		.4byte	0
 3798 001c 00000000 		.4byte	0
 3799 0020 22000000 		.4byte	.LBB5
 3800 0024 CE000000 		.4byte	.LBE5
 3801 0028 F6000000 		.4byte	.LBB6
 3802 002c FA000000 		.4byte	.LBE6
 3803 0030 06010000 		.4byte	.LBB7
 3804 0034 0C010000 		.4byte	.LBE7
 3805 0038 18010000 		.4byte	.LBB8
 3806 003c 30010000 		.4byte	.LBE8
 3807 0040 00000000 		.4byte	0
 3808 0044 00000000 		.4byte	0
 3809 0048 00000000 		.4byte	.LFB7
 3810 004c 4C000000 		.4byte	.LFE7
 3811 0050 00000000 		.4byte	.LFB8
 3812 0054 04020000 		.4byte	.LFE8
 3813 0058 00000000 		.4byte	.LFB9
 3814 005c 30010000 		.4byte	.LFE9
 3815 0060 00000000 		.4byte	.LFB10
ARM GAS  /var/folders/5n/p_75w94d66l9ssrldxqdhh700000gn/T//ccgVdQOR.s 			page 68


 3816 0064 54000000 		.4byte	.LFE10
 3817 0068 00000000 		.4byte	0
 3818 006c 00000000 		.4byte	0
 3819              		.section	.debug_line,"",%progbits
 3820              	.Ldebug_line0:
 3821 0000 87030000 		.section	.debug_str,"MS",%progbits,1
 3821      0200E201 
 3821      00000201 
 3821      FB0E0D00 
 3821      01010101 
 3822              	.LASF63:
 3823 0000 4D454D50 		.ascii	"MEMP_TCP_PCB_LISTEN\000"
 3823      5F544350 
 3823      5F504342 
 3823      5F4C4953 
 3823      54454E00 
 3824              	.LASF55:
 3825 0014 49434D50 		.ascii	"ICMP_DUR_HOST\000"
 3825      5F445552 
 3825      5F484F53 
 3825      5400
 3826              	.LASF35:
 3827 0022 696E7075 		.ascii	"input\000"
 3827      7400
 3828              	.LASF26:
 3829 0028 666C6167 		.ascii	"flags\000"
 3829      7300
 3830              	.LASF65:
 3831 002e 4D454D50 		.ascii	"MEMP_REASSDATA\000"
 3831      5F524541 
 3831      53534441 
 3831      544100
 3832              	.LASF0:
 3833 003d 756E7369 		.ascii	"unsigned int\000"
 3833      676E6564 
 3833      20696E74 
 3833      00
 3834              	.LASF22:
 3835 004a 6E657874 		.ascii	"next\000"
 3835      00
 3836              	.LASF54:
 3837 004f 49434D50 		.ascii	"ICMP_DUR_NET\000"
 3837      5F445552 
 3837      5F4E4554 
 3837      00
 3838              	.LASF21:
 3839 005c 6572725F 		.ascii	"err_t\000"
 3839      7400
 3840              	.LASF37:
 3841 0062 6C696E6B 		.ascii	"linkoutput\000"
 3841      6F757470 
 3841      757400
 3842              	.LASF18:
 3843 006d 7531365F 		.ascii	"u16_t\000"
 3843      7400
 3844              	.LASF49:
 3845 0073 5F74746C 		.ascii	"_ttl\000"
ARM GAS  /var/folders/5n/p_75w94d66l9ssrldxqdhh700000gn/T//ccgVdQOR.s 			page 69


 3845      00
 3846              	.LASF95:
 3847 0078 6C696E6B 		.ascii	"link\000"
 3847      00
 3848              	.LASF86:
 3849 007d 73746174 		.ascii	"stats_mem\000"
 3849      735F6D65 
 3849      6D00
 3850              	.LASF43:
 3851 0087 6E657469 		.ascii	"netif_output_fn\000"
 3851      665F6F75 
 3851      74707574 
 3851      5F666E00 
 3852              	.LASF132:
 3853 0097 6C776970 		.ascii	"lwip_htons\000"
 3853      5F68746F 
 3853      6E7300
 3854              	.LASF73:
 3855 00a2 4D454D50 		.ascii	"MEMP_PBUF_POOL\000"
 3855      5F504255 
 3855      465F504F 
 3855      4F4C00
 3856              	.LASF119:
 3857 00b1 6C776970 		.ascii	"lwip_stats\000"
 3857      5F737461 
 3857      747300
 3858              	.LASF130:
 3859 00bc 69636D70 		.ascii	"icmp_input\000"
 3859      5F696E70 
 3859      757400
 3860              	.LASF90:
 3861 00c7 73746174 		.ascii	"stats_syselem\000"
 3861      735F7379 
 3861      73656C65 
 3861      6D00
 3862              	.LASF42:
 3863 00d5 6E657469 		.ascii	"netif_input_fn\000"
 3863      665F696E 
 3863      7075745F 
 3863      666E00
 3864              	.LASF10:
 3865 00e4 75696E74 		.ascii	"uint32_t\000"
 3865      33325F74 
 3865      00
 3866              	.LASF2:
 3867 00ed 696E7438 		.ascii	"int8_t\000"
 3867      5F7400
 3868              	.LASF133:
 3869 00f4 474E5520 		.ascii	"GNU C 4.7.2\000"
 3869      4320342E 
 3869      372E3200 
 3870              	.LASF69:
 3871 0100 4D454D50 		.ascii	"MEMP_TCPIP_MSG_API\000"
 3871      5F544350 
 3871      49505F4D 
 3871      53475F41 
 3871      504900
ARM GAS  /var/folders/5n/p_75w94d66l9ssrldxqdhh700000gn/T//ccgVdQOR.s 			page 70


 3872              	.LASF84:
 3873 0113 6F707465 		.ascii	"opterr\000"
 3873      727200
 3874              	.LASF92:
 3875 011a 6D757465 		.ascii	"mutex\000"
 3875      7800
 3876              	.LASF97:
 3877 0120 69705F66 		.ascii	"ip_frag\000"
 3877      72616700 
 3878              	.LASF89:
 3879 0128 696C6C65 		.ascii	"illegal\000"
 3879      67616C00 
 3880              	.LASF5:
 3881 0130 696E7431 		.ascii	"int16_t\000"
 3881      365F7400 
 3882              	.LASF113:
 3883 0138 6E657469 		.ascii	"netif_list\000"
 3883      665F6C69 
 3883      737400
 3884              	.LASF40:
 3885 0143 68776164 		.ascii	"hwaddr\000"
 3885      647200
 3886              	.LASF96:
 3887 014a 65746861 		.ascii	"etharp\000"
 3887      727000
 3888              	.LASF13:
 3889 0151 6C6F6E67 		.ascii	"long long unsigned int\000"
 3889      206C6F6E 
 3889      6720756E 
 3889      7369676E 
 3889      65642069 
 3890              	.LASF127:
 3891 0168 69636D70 		.ascii	"icmp_dest_unreach\000"
 3891      5F646573 
 3891      745F756E 
 3891      72656163 
 3891      6800
 3892              	.LASF117:
 3893 017a 63757272 		.ascii	"current_iphdr_src\000"
 3893      656E745F 
 3893      69706864 
 3893      725F7372 
 3893      6300
 3894              	.LASF110:
 3895 018c 69705F68 		.ascii	"ip_hlen\000"
 3895      6C656E00 
 3896              	.LASF51:
 3897 0194 5F63686B 		.ascii	"_chksum\000"
 3897      73756D00 
 3898              	.LASF39:
 3899 019c 68776164 		.ascii	"hwaddr_len\000"
 3899      64725F6C 
 3899      656E00
 3900              	.LASF48:
 3901 01a7 5F6F6666 		.ascii	"_offset\000"
 3901      73657400 
 3902              	.LASF59:
ARM GAS  /var/folders/5n/p_75w94d66l9ssrldxqdhh700000gn/T//ccgVdQOR.s 			page 71


 3903 01af 49434D50 		.ascii	"ICMP_DUR_SR\000"
 3903      5F445552 
 3903      5F535200 
 3904              	.LASF70:
 3905 01bb 4D454D50 		.ascii	"MEMP_TCPIP_MSG_INPKT\000"
 3905      5F544350 
 3905      49505F4D 
 3905      53475F49 
 3905      4E504B54 
 3906              	.LASF88:
 3907 01d0 75736564 		.ascii	"used\000"
 3907      00
 3908              	.LASF94:
 3909 01d5 73746174 		.ascii	"stats_\000"
 3909      735F00
 3910              	.LASF111:
 3911 01dc 69705F6F 		.ascii	"ip_output\000"
 3911      75747075 
 3911      7400
 3912              	.LASF24:
 3913 01e6 746F745F 		.ascii	"tot_len\000"
 3913      6C656E00 
 3914              	.LASF23:
 3915 01ee 7061796C 		.ascii	"payload\000"
 3915      6F616400 
 3916              	.LASF129:
 3917 01f6 7463705F 		.ascii	"tcp_input\000"
 3917      696E7075 
 3917      7400
 3918              	.LASF36:
 3919 0200 6F757470 		.ascii	"output\000"
 3919      757400
 3920              	.LASF27:
 3921 0207 70627566 		.ascii	"pbuf\000"
 3921      00
 3922              	.LASF74:
 3923 020c 4D454D50 		.ascii	"MEMP_MAX\000"
 3923      5F4D4158 
 3923      00
 3924              	.LASF17:
 3925 0215 73385F74 		.ascii	"s8_t\000"
 3925      00
 3926              	.LASF116:
 3927 021a 63757272 		.ascii	"current_header\000"
 3927      656E745F 
 3927      68656164 
 3927      657200
 3928              	.LASF68:
 3929 0229 4D454D50 		.ascii	"MEMP_NETCONN\000"
 3929      5F4E4554 
 3929      434F4E4E 
 3929      00
 3930              	.LASF120:
 3931 0236 6970345F 		.ascii	"ip4_addr_isbroadcast\000"
 3931      61646472 
 3931      5F697362 
 3931      726F6164 
ARM GAS  /var/folders/5n/p_75w94d66l9ssrldxqdhh700000gn/T//ccgVdQOR.s 			page 72


 3931      63617374 
 3932              	.LASF131:
 3933 024b 70627566 		.ascii	"pbuf_header\000"
 3933      5F686561 
 3933      64657200 
 3934              	.LASF72:
 3935 0257 4D454D50 		.ascii	"MEMP_PBUF\000"
 3935      5F504255 
 3935      4600
 3936              	.LASF15:
 3937 0261 63686172 		.ascii	"char\000"
 3937      00
 3938              	.LASF126:
 3939 0266 70627566 		.ascii	"pbuf_realloc\000"
 3939      5F726561 
 3939      6C6C6F63 
 3939      00
 3940              	.LASF53:
 3941 0273 6D656D5F 		.ascii	"mem_size_t\000"
 3941      73697A65 
 3941      5F7400
 3942              	.LASF75:
 3943 027e 73746174 		.ascii	"stats_proto\000"
 3943      735F7072 
 3943      6F746F00 
 3944              	.LASF30:
 3945 028a 69705F61 		.ascii	"ip_addr_packed\000"
 3945      6464725F 
 3945      7061636B 
 3945      656400
 3946              	.LASF107:
 3947 0299 70726F74 		.ascii	"proto\000"
 3947      6F00
 3948              	.LASF3:
 3949 029f 75696E74 		.ascii	"uint8_t\000"
 3949      385F7400 
 3950              	.LASF50:
 3951 02a7 5F70726F 		.ascii	"_proto\000"
 3951      746F00
 3952              	.LASF123:
 3953 02ae 696E6574 		.ascii	"inet_chksum\000"
 3953      5F63686B 
 3953      73756D00 
 3954              	.LASF122:
 3955 02ba 70627566 		.ascii	"pbuf_free\000"
 3955      5F667265 
 3955      6500
 3956              	.LASF67:
 3957 02c4 4D454D50 		.ascii	"MEMP_NETBUF\000"
 3957      5F4E4554 
 3957      42554600 
 3958              	.LASF34:
 3959 02d0 6E65746D 		.ascii	"netmask\000"
 3959      61736B00 
 3960              	.LASF12:
 3961 02d8 6C6F6E67 		.ascii	"long long int\000"
 3961      206C6F6E 
ARM GAS  /var/folders/5n/p_75w94d66l9ssrldxqdhh700000gn/T//ccgVdQOR.s 			page 73


 3961      6720696E 
 3961      7400
 3962              	.LASF124:
 3963 02e6 69705F72 		.ascii	"ip_reass\000"
 3963      65617373 
 3963      00
 3964              	.LASF62:
 3965 02ef 4D454D50 		.ascii	"MEMP_TCP_PCB\000"
 3965      5F544350 
 3965      5F504342 
 3965      00
 3966              	.LASF99:
 3967 02fc 6D656D70 		.ascii	"memp\000"
 3967      00
 3968              	.LASF16:
 3969 0301 75385F74 		.ascii	"u8_t\000"
 3969      00
 3970              	.LASF135:
 3971 0306 2F557365 		.ascii	"/Users/sin/Documents/Eclipse/Workspace/ChibiOS_2.4."
 3971      72732F73 
 3971      696E2F44 
 3971      6F63756D 
 3971      656E7473 
 3972 0339 322F6465 		.ascii	"2/demos/ARMCM4-STM32F407-LWIP\000"
 3972      6D6F732F 
 3972      41524D43 
 3972      4D342D53 
 3972      544D3332 
 3973              	.LASF109:
 3974 0357 63686B5F 		.ascii	"chk_sum\000"
 3974      73756D00 
 3975              	.LASF79:
 3976 035f 63686B65 		.ascii	"chkerr\000"
 3976      727200
 3977              	.LASF57:
 3978 0366 49434D50 		.ascii	"ICMP_DUR_PORT\000"
 3978      5F445552 
 3978      5F504F52 
 3978      5400
 3979              	.LASF125:
 3980 0374 7261775F 		.ascii	"raw_input\000"
 3980      696E7075 
 3980      7400
 3981              	.LASF114:
 3982 037e 6E657469 		.ascii	"netif_default\000"
 3982      665F6465 
 3982      6661756C 
 3982      7400
 3983              	.LASF101:
 3984 038c 69705F69 		.ascii	"ip_input\000"
 3984      6E707574 
 3984      00
 3985              	.LASF7:
 3986 0395 75696E74 		.ascii	"uint16_t\000"
 3986      31365F74 
 3986      00
 3987              	.LASF112:
ARM GAS  /var/folders/5n/p_75w94d66l9ssrldxqdhh700000gn/T//ccgVdQOR.s 			page 74


 3988 039e 69705F69 		.ascii	"ip_id\000"
 3988      6400
 3989              	.LASF46:
 3990 03a4 5F765F68 		.ascii	"_v_hl_tos\000"
 3990      6C5F746F 
 3990      7300
 3991              	.LASF115:
 3992 03ae 63757272 		.ascii	"current_netif\000"
 3992      656E745F 
 3992      6E657469 
 3992      6600
 3993              	.LASF121:
 3994 03bc 6C776970 		.ascii	"lwip_ntohs\000"
 3994      5F6E746F 
 3994      687300
 3995              	.LASF20:
 3996 03c7 7533325F 		.ascii	"u32_t\000"
 3996      7400
 3997              	.LASF6:
 3998 03cd 73686F72 		.ascii	"short int\000"
 3998      7420696E 
 3998      7400
 3999              	.LASF98:
 4000 03d7 69636D70 		.ascii	"icmp\000"
 4000      00
 4001              	.LASF9:
 4002 03dc 6C6F6E67 		.ascii	"long int\000"
 4002      20696E74 
 4002      00
 4003              	.LASF82:
 4004 03e5 72746572 		.ascii	"rterr\000"
 4004      7200
 4005              	.LASF87:
 4006 03eb 61766169 		.ascii	"avail\000"
 4006      6C00
 4007              	.LASF71:
 4008 03f1 4D454D50 		.ascii	"MEMP_SYS_TIMEOUT\000"
 4008      5F535953 
 4008      5F54494D 
 4008      454F5554 
 4008      00
 4009              	.LASF61:
 4010 0402 4D454D50 		.ascii	"MEMP_UDP_PCB\000"
 4010      5F554450 
 4010      5F504342 
 4010      00
 4011              	.LASF93:
 4012 040f 6D626F78 		.ascii	"mbox\000"
 4012      00
 4013              	.LASF85:
 4014 0414 63616368 		.ascii	"cachehit\000"
 4014      65686974 
 4014      00
 4015              	.LASF106:
 4016 041d 69705F6F 		.ascii	"ip_output_if\000"
 4016      75747075 
 4016      745F6966 
ARM GAS  /var/folders/5n/p_75w94d66l9ssrldxqdhh700000gn/T//ccgVdQOR.s 			page 75


 4016      00
 4017              	.LASF45:
 4018 042a 69705F68 		.ascii	"ip_hdr\000"
 4018      647200
 4019              	.LASF41:
 4020 0431 6E616D65 		.ascii	"name\000"
 4020      00
 4021              	.LASF44:
 4022 0436 6E657469 		.ascii	"netif_linkoutput_fn\000"
 4022      665F6C69 
 4022      6E6B6F75 
 4022      74707574 
 4022      5F666E00 
 4023              	.LASF66:
 4024 044a 4D454D50 		.ascii	"MEMP_FRAG_PBUF\000"
 4024      5F465241 
 4024      475F5042 
 4024      554600
 4025              	.LASF136:
 4026 0459 69636D70 		.ascii	"icmp_dur_type\000"
 4026      5F647572 
 4026      5F747970 
 4026      6500
 4027              	.LASF134:
 4028 0467 2E2E2F2E 		.ascii	"../../ext/lwip-1.4.0/src/core/ipv4/ip.c\000"
 4028      2E2F6578 
 4028      742F6C77 
 4028      69702D31 
 4028      2E342E30 
 4029              	.LASF60:
 4030 048f 4D454D50 		.ascii	"MEMP_RAW_PCB\000"
 4030      5F524157 
 4030      5F504342 
 4030      00
 4031              	.LASF80:
 4032 049c 6C656E65 		.ascii	"lenerr\000"
 4032      727200
 4033              	.LASF14:
 4034 04a3 73697A65 		.ascii	"sizetype\000"
 4034      74797065 
 4034      00
 4035              	.LASF11:
 4036 04ac 6C6F6E67 		.ascii	"long unsigned int\000"
 4036      20756E73 
 4036      69676E65 
 4036      6420696E 
 4036      7400
 4037              	.LASF19:
 4038 04be 7331365F 		.ascii	"s16_t\000"
 4038      7400
 4039              	.LASF83:
 4040 04c4 70726F74 		.ascii	"proterr\000"
 4040      65727200 
 4041              	.LASF25:
 4042 04cc 74797065 		.ascii	"type\000"
 4042      00
 4043              	.LASF91:
ARM GAS  /var/folders/5n/p_75w94d66l9ssrldxqdhh700000gn/T//ccgVdQOR.s 			page 76


 4044 04d1 73746174 		.ascii	"stats_sys\000"
 4044      735F7379 
 4044      7300
 4045              	.LASF4:
 4046 04db 756E7369 		.ascii	"unsigned char\000"
 4046      676E6564 
 4046      20636861 
 4046      7200
 4047              	.LASF81:
 4048 04e9 6D656D65 		.ascii	"memerr\000"
 4048      727200
 4049              	.LASF64:
 4050 04f0 4D454D50 		.ascii	"MEMP_TCP_SEG\000"
 4050      5F544350 
 4050      5F534547 
 4050      00
 4051              	.LASF32:
 4052 04fd 69705F61 		.ascii	"ip_addr_p_t\000"
 4052      6464725F 
 4052      705F7400 
 4053              	.LASF56:
 4054 0509 49434D50 		.ascii	"ICMP_DUR_PROTO\000"
 4054      5F445552 
 4054      5F50524F 
 4054      544F00
 4055              	.LASF137:
 4056 0518 706F7274 		.ascii	"port_halt\000"
 4056      5F68616C 
 4056      7400
 4057              	.LASF105:
 4058 0522 66697273 		.ascii	"first\000"
 4058      7400
 4059              	.LASF29:
 4060 0528 61646472 		.ascii	"addr\000"
 4060      00
 4061              	.LASF58:
 4062 052d 49434D50 		.ascii	"ICMP_DUR_FRAG\000"
 4062      5F445552 
 4062      5F465241 
 4062      4700
 4063              	.LASF78:
 4064 053b 64726F70 		.ascii	"drop\000"
 4064      00
 4065              	.LASF38:
 4066 0540 73746174 		.ascii	"state\000"
 4066      6500
 4067              	.LASF33:
 4068 0546 6E657469 		.ascii	"netif\000"
 4068      6600
 4069              	.LASF102:
 4070 054c 69706864 		.ascii	"iphdr\000"
 4070      7200
 4071              	.LASF77:
 4072 0552 72656376 		.ascii	"recv\000"
 4072      00
 4073              	.LASF1:
 4074 0557 7369676E 		.ascii	"signed char\000"
ARM GAS  /var/folders/5n/p_75w94d66l9ssrldxqdhh700000gn/T//ccgVdQOR.s 			page 77


 4074      65642063 
 4074      68617200 
 4075              	.LASF103:
 4076 0563 69706864 		.ascii	"iphdr_hlen\000"
 4076      725F686C 
 4076      656E00
 4077              	.LASF8:
 4078 056e 73686F72 		.ascii	"short unsigned int\000"
 4078      7420756E 
 4078      7369676E 
 4078      65642069 
 4078      6E7400
 4079              	.LASF76:
 4080 0581 786D6974 		.ascii	"xmit\000"
 4080      00
 4081              	.LASF118:
 4082 0586 63757272 		.ascii	"current_iphdr_dest\000"
 4082      656E745F 
 4082      69706864 
 4082      725F6465 
 4082      737400
 4083              	.LASF47:
 4084 0599 5F6C656E 		.ascii	"_len\000"
 4084      00
 4085              	.LASF31:
 4086 059e 69705F61 		.ascii	"ip_addr_t\000"
 4086      6464725F 
 4086      7400
 4087              	.LASF100:
 4088 05a8 69705F72 		.ascii	"ip_route\000"
 4088      6F757465 
 4088      00
 4089              	.LASF108:
 4090 05b1 64657374 		.ascii	"dest_addr\000"
 4090      5F616464 
 4090      7200
 4091              	.LASF104:
 4092 05bb 69706864 		.ascii	"iphdr_len\000"
 4092      725F6C65 
 4092      6E00
 4093              	.LASF52:
 4094 05c5 64657374 		.ascii	"dest\000"
 4094      00
 4095              	.LASF128:
 4096 05ca 7564705F 		.ascii	"udp_input\000"
 4096      696E7075 
 4096      7400
 4097              	.LASF28:
 4098 05d4 69705F61 		.ascii	"ip_addr\000"
 4098      64647200 
 4099              		.ident	"GCC: (GNU) 4.7.2"
ARM GAS  /var/folders/5n/p_75w94d66l9ssrldxqdhh700000gn/T//ccgVdQOR.s 			page 78


DEFINED SYMBOLS
                            *ABS*:0000000000000000 ip.c
/var/folders/5n/p_75w94d66l9ssrldxqdhh700000gn/T//ccgVdQOR.s:19     .text.ip_route:0000000000000000 $t
/var/folders/5n/p_75w94d66l9ssrldxqdhh700000gn/T//ccgVdQOR.s:25     .text.ip_route:0000000000000000 ip_route
/var/folders/5n/p_75w94d66l9ssrldxqdhh700000gn/T//ccgVdQOR.s:85     .text.ip_route:0000000000000040 $d
/var/folders/5n/p_75w94d66l9ssrldxqdhh700000gn/T//ccgVdQOR.s:92     .text.ip_input:0000000000000000 $t
/var/folders/5n/p_75w94d66l9ssrldxqdhh700000gn/T//ccgVdQOR.s:98     .text.ip_input:0000000000000000 ip_input
/var/folders/5n/p_75w94d66l9ssrldxqdhh700000gn/T//ccgVdQOR.s:473    .text.ip_input:00000000000001ec $d
/var/folders/5n/p_75w94d66l9ssrldxqdhh700000gn/T//ccgVdQOR.s:483    .text.ip_output_if:0000000000000000 $t
/var/folders/5n/p_75w94d66l9ssrldxqdhh700000gn/T//ccgVdQOR.s:489    .text.ip_output_if:0000000000000000 ip_output_if
/var/folders/5n/p_75w94d66l9ssrldxqdhh700000gn/T//ccgVdQOR.s:728    .text.ip_output_if:0000000000000128 $d
/var/folders/5n/p_75w94d66l9ssrldxqdhh700000gn/T//ccgVdQOR.s:735    .text.ip_output:0000000000000000 $t
/var/folders/5n/p_75w94d66l9ssrldxqdhh700000gn/T//ccgVdQOR.s:741    .text.ip_output:0000000000000000 ip_output
/var/folders/5n/p_75w94d66l9ssrldxqdhh700000gn/T//ccgVdQOR.s:812    .text.ip_output:0000000000000050 $d
/var/folders/5n/p_75w94d66l9ssrldxqdhh700000gn/T//ccgVdQOR.s:846    .bss.current_iphdr_dest:0000000000000000 current_iphdr_dest
/var/folders/5n/p_75w94d66l9ssrldxqdhh700000gn/T//ccgVdQOR.s:839    .bss.current_iphdr_src:0000000000000000 current_iphdr_src
/var/folders/5n/p_75w94d66l9ssrldxqdhh700000gn/T//ccgVdQOR.s:825    .bss.current_header:0000000000000000 current_header
/var/folders/5n/p_75w94d66l9ssrldxqdhh700000gn/T//ccgVdQOR.s:853    .bss.current_netif:0000000000000000 current_netif
/var/folders/5n/p_75w94d66l9ssrldxqdhh700000gn/T//ccgVdQOR.s:821    .bss.current_header:0000000000000000 $d
/var/folders/5n/p_75w94d66l9ssrldxqdhh700000gn/T//ccgVdQOR.s:828    .bss.ip_id:0000000000000000 $d
/var/folders/5n/p_75w94d66l9ssrldxqdhh700000gn/T//ccgVdQOR.s:832    .bss.ip_id:0000000000000000 ip_id
/var/folders/5n/p_75w94d66l9ssrldxqdhh700000gn/T//ccgVdQOR.s:835    .bss.current_iphdr_src:0000000000000000 $d
/var/folders/5n/p_75w94d66l9ssrldxqdhh700000gn/T//ccgVdQOR.s:842    .bss.current_iphdr_dest:0000000000000000 $d
/var/folders/5n/p_75w94d66l9ssrldxqdhh700000gn/T//ccgVdQOR.s:849    .bss.current_netif:0000000000000000 $d
                     .debug_frame:0000000000000010 $d
/var/folders/5n/p_75w94d66l9ssrldxqdhh700000gn/T//ccgVdQOR.s:91     .text.ip_route:000000000000004c $t
/var/folders/5n/p_75w94d66l9ssrldxqdhh700000gn/T//ccgVdQOR.s:482    .text.ip_input:0000000000000204 $t
/var/folders/5n/p_75w94d66l9ssrldxqdhh700000gn/T//ccgVdQOR.s:820    .text.ip_output:0000000000000054 $t

UNDEFINED SYMBOLS
netif_list
netif_default
lwip_stats
lwip_ntohs
pbuf_free
inet_chksum
pbuf_realloc
ip4_addr_isbroadcast
ip_reass
raw_input
icmp_dest_unreach
udp_input
tcp_input
icmp_input
port_halt
pbuf_header
lwip_htons
ip_frag
