ARM GAS  /var/folders/5n/p_75w94d66l9ssrldxqdhh700000gn/T//ccgVdQOR.s 			page 1


   1              		.syntax unified
   2              		.cpu cortex-m4
   3              		.fpu softvfp
   4              		.eabi_attribute 20, 1
   5              		.eabi_attribute 21, 1
   6              		.eabi_attribute 23, 3
   7              		.eabi_attribute 24, 1
   8              		.eabi_attribute 25, 1
   9              		.eabi_attribute 26, 1
  10              		.eabi_attribute 30, 2
  11              		.eabi_attribute 34, 1
  12              		.eabi_attribute 18, 4
  13              		.thumb
  14              		.file	"ip.c"
  15              		.text
  16              	.Ltext0:
  17              		.cfi_sections	.debug_frame
  18              		.section	.text.ip_route,"ax",%progbits
  19              		.align	2
  20              		.p2align 4,,15
  21              		.global	ip_route
  22              		.thumb
  23              		.thumb_func
  24              		.type	ip_route, %function
  25              	ip_route:
  26              	.LFB7:
  27              		.file 1 "../../ext/lwip-1.4.0/src/core/ipv4/ip.c"
  28              		.loc 1 125 0
  29              		.cfi_startproc
  30              		@ args = 0, pretend = 0, frame = 0
  31              		@ frame_needed = 0, uses_anonymous_args = 0
  32              		@ link register save eliminated.
  33              	.LVL0:
  34 0000 10B4     		push	{r4}
  35              	.LCFI0:
  36              		.cfi_def_cfa_offset 4
  37              		.cfi_offset 4, -4
  38              		.loc 1 129 0
  39 0002 0F4B     		ldr	r3, .L23
  40              	.L21:
  41 0004 1B68     		ldr	r3, [r3, #0]
  42              	.LVL1:
  43 0006 63B1     		cbz	r3, .L2
  44              		.loc 1 131 0
  45 0008 93F82920 		ldrb	r2, [r3, #41]	@ zero_extendqisi2
  46 000c D107     		lsls	r1, r2, #31
  47 000e F9D5     		bpl	.L21
  48              		.loc 1 132 0
  49 0010 5C68     		ldr	r4, [r3, #4]
  50 0012 0168     		ldr	r1, [r0, #0]
  51 0014 9A68     		ldr	r2, [r3, #8]
  52 0016 6140     		eors	r1, r1, r4
  53 0018 1142     		tst	r1, r2
  54 001a F3D1     		bne	.L21
  55              	.LVL2:
  56              	.L4:
  57              		.loc 1 147 0
ARM GAS  /var/folders/5n/p_75w94d66l9ssrldxqdhh700000gn/T//ccgVdQOR.s 			page 2


  58 001c 1846     		mov	r0, r3
  59              	.LVL3:
  60 001e 10BC     		pop	{r4}
  61 0020 7047     		bx	lr
  62              	.LVL4:
  63              	.L2:
  64              		.loc 1 138 0
  65 0022 084B     		ldr	r3, .L23+4
  66              	.LVL5:
  67 0024 1B68     		ldr	r3, [r3, #0]
  68 0026 1BB1     		cbz	r3, .L6
  69              		.loc 1 138 0 is_stmt 0 discriminator 1
  70 0028 93F82920 		ldrb	r2, [r3, #41]	@ zero_extendqisi2
  71 002c D207     		lsls	r2, r2, #31
  72 002e F5D4     		bmi	.L4
  73              	.L6:
  74              		.loc 1 141 0 is_stmt 1
  75 0030 054B     		ldr	r3, .L23+8
  76 0032 B3F85620 		ldrh	r2, [r3, #86]
  77 0036 0132     		adds	r2, r2, #1
  78 0038 A3F85620 		strh	r2, [r3, #86]	@ movhi
  79              		.loc 1 143 0
  80 003c 0023     		movs	r3, #0
  81 003e EDE7     		b	.L4
  82              	.L24:
  83              		.align	2
  84              	.L23:
  85 0040 00000000 		.word	netif_list
  86 0044 00000000 		.word	netif_default
  87 0048 00000000 		.word	lwip_stats
  88              		.cfi_endproc
  89              	.LFE7:
  90              		.size	ip_route, .-ip_route
  91 004c AFF30080 		.section	.text.ip_input,"ax",%progbits
  92              		.align	2
  93              		.p2align 4,,15
  94              		.global	ip_input
  95              		.thumb
  96              		.thumb_func
  97              		.type	ip_input, %function
  98              	ip_input:
  99              	.LFB8:
 100              		.loc 1 243 0
 101              		.cfi_startproc
 102              		@ args = 0, pretend = 0, frame = 8
 103              		@ frame_needed = 0, uses_anonymous_args = 0
 104              	.LVL6:
 105 0000 2DE9F04F 		push	{r4, r5, r6, r7, r8, r9, sl, fp, lr}
 106              	.LCFI1:
 107              		.cfi_def_cfa_offset 36
 108              		.cfi_offset 4, -36
 109              		.cfi_offset 5, -32
 110              		.cfi_offset 6, -28
 111              		.cfi_offset 7, -24
 112              		.cfi_offset 8, -20
 113              		.cfi_offset 9, -16
 114              		.cfi_offset 10, -12
ARM GAS  /var/folders/5n/p_75w94d66l9ssrldxqdhh700000gn/T//ccgVdQOR.s 			page 3


 115              		.cfi_offset 11, -8
 116              		.cfi_offset 14, -4
 117              		.loc 1 252 0
 118 0004 794C     		ldr	r4, .L68
 119              		.loc 1 256 0
 120 0006 4668     		ldr	r6, [r0, #4]
 121              	.LVL7:
 122              		.loc 1 252 0
 123 0008 B4F84A30 		ldrh	r3, [r4, #74]
 124 000c 0133     		adds	r3, r3, #1
 125 000e A4F84A30 		strh	r3, [r4, #74]	@ movhi
 126              		.loc 1 243 0
 127 0012 83B0     		sub	sp, sp, #12
 128              	.LCFI2:
 129              		.cfi_def_cfa_offset 48
 130              		.loc 1 243 0
 131 0014 0546     		mov	r5, r0
 132              		.loc 1 257 0
 133 0016 3088     		ldrh	r0, [r6, #0]	@ unaligned
 134              	.LVL8:
 135              		.loc 1 243 0
 136 0018 8846     		mov	r8, r1
 137              		.loc 1 257 0
 138 001a FFF7FEFF 		bl	lwip_ntohs
 139              	.LVL9:
 140 001e C0F30F30 		ubfx	r0, r0, #12, #16
 141 0022 0428     		cmp	r0, #4
 142 0024 10D0     		beq	.L26
 143              		.loc 1 260 0
 144 0026 2846     		mov	r0, r5
 145 0028 FFF7FEFF 		bl	pbuf_free
 146              	.LVL10:
 147              		.loc 1 261 0
 148 002c B4F85C20 		ldrh	r2, [r4, #92]
 149              		.loc 1 262 0
 150 0030 B4F84E30 		ldrh	r3, [r4, #78]
 151              		.loc 1 261 0
 152 0034 0132     		adds	r2, r2, #1
 153              		.loc 1 262 0
 154 0036 0133     		adds	r3, r3, #1
 155              		.loc 1 261 0
 156 0038 A4F85C20 		strh	r2, [r4, #92]	@ movhi
 157              		.loc 1 262 0
 158 003c A4F84E30 		strh	r3, [r4, #78]	@ movhi
 159              	.L27:
 160              		.loc 1 544 0
 161 0040 0020     		movs	r0, #0
 162 0042 03B0     		add	sp, sp, #12
 163 0044 BDE8F08F 		pop	{r4, r5, r6, r7, r8, r9, sl, fp, pc}
 164              	.L26:
 165              		.loc 1 268 0
 166 0048 3088     		ldrh	r0, [r6, #0]	@ unaligned
 167 004a FFF7FEFF 		bl	lwip_ntohs
 168              	.LVL11:
 169 004e C0F30327 		ubfx	r7, r0, #8, #4
 170              	.LVL12:
 171              		.loc 1 272 0
ARM GAS  /var/folders/5n/p_75w94d66l9ssrldxqdhh700000gn/T//ccgVdQOR.s 			page 4


 172 0052 7088     		ldrh	r0, [r6, #2]	@ unaligned
 173 0054 FFF7FEFF 		bl	lwip_ntohs
 174              	.LVL13:
 175              		.loc 1 275 0
 176 0058 6B89     		ldrh	r3, [r5, #10]
 177              		.loc 1 270 0
 178 005a BF00     		lsls	r7, r7, #2
 179              	.LVL14:
 180              		.loc 1 275 0
 181 005c BB42     		cmp	r3, r7
 182              		.loc 1 272 0
 183 005e 8146     		mov	r9, r0
 184              	.LVL15:
 185              		.loc 1 275 0
 186 0060 02D3     		bcc	.L28
 187              		.loc 1 275 0 is_stmt 0 discriminator 1
 188 0062 2B89     		ldrh	r3, [r5, #8]
 189 0064 8342     		cmp	r3, r0
 190 0066 0DD2     		bcs	.L29
 191              	.L28:
 192              		.loc 1 287 0 is_stmt 1
 193 0068 2846     		mov	r0, r5
 194              	.LVL16:
 195 006a FFF7FEFF 		bl	pbuf_free
 196              	.LVL17:
 197              		.loc 1 288 0
 198 006e B4F85220 		ldrh	r2, [r4, #82]
 199              		.loc 1 289 0
 200 0072 B4F84E30 		ldrh	r3, [r4, #78]
 201              		.loc 1 288 0
 202 0076 0132     		adds	r2, r2, #1
 203              		.loc 1 289 0
 204 0078 0133     		adds	r3, r3, #1
 205              		.loc 1 288 0
 206 007a A4F85220 		strh	r2, [r4, #82]	@ movhi
 207              		.loc 1 289 0
 208 007e A4F84E30 		strh	r3, [r4, #78]	@ movhi
 209              		.loc 1 291 0
 210 0082 DDE7     		b	.L27
 211              	.LVL18:
 212              	.L29:
 213              		.loc 1 296 0
 214 0084 3046     		mov	r0, r6
 215              	.LVL19:
 216 0086 3946     		mov	r1, r7
 217 0088 FFF7FEFF 		bl	inet_chksum
 218              	.LVL20:
 219 008c 0028     		cmp	r0, #0
 220 008e 40F08C80 		bne	.L64
 221              		.loc 1 311 0
 222 0092 4946     		mov	r1, r9
 223 0094 2846     		mov	r0, r5
 224 0096 FFF7FEFF 		bl	pbuf_realloc
 225              	.LVL21:
 226              		.loc 1 314 0
 227 009a DFF860A1 		ldr	sl, .L68+16
 228 009e 3369     		ldr	r3, [r6, #16]	@ unaligned
ARM GAS  /var/folders/5n/p_75w94d66l9ssrldxqdhh700000gn/T//ccgVdQOR.s 			page 5


 229              		.loc 1 315 0
 230 00a0 DFF850B1 		ldr	fp, .L68+8
 231              		.loc 1 314 0
 232 00a4 CAF80030 		str	r3, [sl, #0]
 233              		.loc 1 315 0
 234 00a8 F368     		ldr	r3, [r6, #12]	@ unaligned
 235              	.LBB2:
 236              		.loc 1 365 0
 237 00aa 514A     		ldr	r2, .L68+4
 238              	.LBE2:
 239              		.loc 1 315 0
 240 00ac CBF80030 		str	r3, [fp, #0]
 241              	.LVL22:
 242 00b0 4746     		mov	r7, r8
 243              	.LVL23:
 244              		.loc 1 331 0
 245 00b2 4FF00109 		mov	r9, #1
 246              	.LVL24:
 247              	.L38:
 248              	.LBB3:
 249              		.loc 1 341 0
 250 00b6 97F82930 		ldrb	r3, [r7, #41]	@ zero_extendqisi2
 251 00ba D807     		lsls	r0, r3, #31
 252 00bc 0BD5     		bpl	.L34
 253              		.loc 1 341 0 is_stmt 0 discriminator 1
 254 00be 7B68     		ldr	r3, [r7, #4]
 255 00c0 4BB1     		cbz	r3, .L34
 256              		.loc 1 343 0 is_stmt 1
 257 00c2 DAF80000 		ldr	r0, [sl, #0]
 258 00c6 8342     		cmp	r3, r0
 259 00c8 10D0     		beq	.L35
 260              		.loc 1 345 0 discriminator 1
 261 00ca 3946     		mov	r1, r7
 262 00cc 0192     		str	r2, [sp, #4]
 263 00ce FFF7FEFF 		bl	ip4_addr_isbroadcast
 264              	.LVL25:
 265              		.loc 1 343 0 discriminator 1
 266 00d2 019A     		ldr	r2, [sp, #4]
 267 00d4 50B9     		cbnz	r0, .L35
 268              	.L34:
 269              		.loc 1 363 0
 270 00d6 B9F1000F 		cmp	r9, #0
 271 00da 5BD0     		beq	.L65
 272              	.LVL26:
 273              		.loc 1 365 0
 274 00dc 1768     		ldr	r7, [r2, #0]
 275              	.LVL27:
 276              	.L36:
 277              		.loc 1 369 0
 278 00de 4745     		cmp	r7, r8
 279              		.loc 1 370 0
 280 00e0 08BF     		it	eq
 281 00e2 3F68     		ldreq	r7, [r7, #0]
 282              	.LVL28:
 283 00e4 4FF00009 		mov	r9, #0
 284              		.loc 1 372 0
 285 00e8 002F     		cmp	r7, #0
ARM GAS  /var/folders/5n/p_75w94d66l9ssrldxqdhh700000gn/T//ccgVdQOR.s 			page 6


 286 00ea E4D1     		bne	.L38
 287              	.LVL29:
 288              	.L35:
 289              	.LBE3:
 290              		.loc 1 405 0
 291 00ec DBF80000 		ldr	r0, [fp, #0]
 292 00f0 4146     		mov	r1, r8
 293 00f2 FFF7FEFF 		bl	ip4_addr_isbroadcast
 294              	.LVL30:
 295 00f6 0028     		cmp	r0, #0
 296 00f8 4ED1     		bne	.L39
 297              		.loc 1 406 0 discriminator 1
 298 00fa 3E4B     		ldr	r3, .L68+8
 299 00fc 1B68     		ldr	r3, [r3, #0]
 300 00fe 03F0F003 		and	r3, r3, #240
 301              		.loc 1 405 0 discriminator 1
 302 0102 E02B     		cmp	r3, #224
 303 0104 48D0     		beq	.L39
 304              		.loc 1 419 0
 305 0106 002F     		cmp	r7, #0
 306 0108 6CD0     		beq	.L66
 307              		.loc 1 437 0
 308 010a F288     		ldrh	r2, [r6, #6]	@ unaligned
 309 010c 4FF63F73 		movw	r3, #65343
 310 0110 1340     		ands	r3, r3, r2
 311 0112 33B1     		cbz	r3, .L42
 312              		.loc 1 442 0
 313 0114 2846     		mov	r0, r5
 314 0116 FFF7FEFF 		bl	ip_reass
 315              	.LVL31:
 316              		.loc 1 444 0
 317 011a 0546     		mov	r5, r0
 318 011c 0028     		cmp	r0, #0
 319 011e 8FD0     		beq	.L27
 320              		.loc 1 447 0
 321 0120 4668     		ldr	r6, [r0, #4]
 322              	.LVL32:
 323              	.L42:
 324              		.loc 1 483 0
 325 0122 DFF8DC90 		ldr	r9, .L68+20
 326              		.loc 1 484 0
 327 0126 344F     		ldr	r7, .L68+12
 328              	.LVL33:
 329              		.loc 1 483 0
 330 0128 C9F80080 		str	r8, [r9, #0]
 331              		.loc 1 488 0
 332 012c 2846     		mov	r0, r5
 333 012e 4146     		mov	r1, r8
 334              		.loc 1 484 0
 335 0130 3E60     		str	r6, [r7, #0]
 336              		.loc 1 488 0
 337 0132 FFF7FEFF 		bl	raw_input
 338              	.LVL34:
 339 0136 20BB     		cbnz	r0, .L43
 340              		.loc 1 492 0
 341 0138 737A     		ldrb	r3, [r6, #9]	@ zero_extendqisi2
 342 013a 062B     		cmp	r3, #6
ARM GAS  /var/folders/5n/p_75w94d66l9ssrldxqdhh700000gn/T//ccgVdQOR.s 			page 7


 343 013c 48D0     		beq	.L46
 344 013e 112B     		cmp	r3, #17
 345 0140 41D0     		beq	.L47
 346 0142 012B     		cmp	r3, #1
 347 0144 49D0     		beq	.L67
 348              		.loc 1 522 0
 349 0146 DAF80000 		ldr	r0, [sl, #0]
 350 014a 4146     		mov	r1, r8
 351 014c FFF7FEFF 		bl	ip4_addr_isbroadcast
 352              	.LVL35:
 353 0150 50B9     		cbnz	r0, .L48
 354              		.loc 1 523 0 discriminator 1
 355 0152 2A4B     		ldr	r3, .L68+16
 356 0154 1B68     		ldr	r3, [r3, #0]
 357 0156 03F0F003 		and	r3, r3, #240
 358              		.loc 1 522 0 discriminator 1
 359 015a E02B     		cmp	r3, #224
 360 015c 04D0     		beq	.L48
 361              		.loc 1 524 0
 362 015e 6E60     		str	r6, [r5, #4]
 363              		.loc 1 525 0
 364 0160 2846     		mov	r0, r5
 365 0162 0221     		movs	r1, #2
 366 0164 FFF7FEFF 		bl	icmp_dest_unreach
 367              	.LVL36:
 368              	.L48:
 369              		.loc 1 528 0
 370 0168 2846     		mov	r0, r5
 371 016a FFF7FEFF 		bl	pbuf_free
 372              	.LVL37:
 373              		.loc 1 532 0
 374 016e B4F85820 		ldrh	r2, [r4, #88]
 375              		.loc 1 533 0
 376 0172 B4F84E30 		ldrh	r3, [r4, #78]
 377              		.loc 1 532 0
 378 0176 0132     		adds	r2, r2, #1
 379              		.loc 1 533 0
 380 0178 0133     		adds	r3, r3, #1
 381              		.loc 1 532 0
 382 017a A4F85820 		strh	r2, [r4, #88]	@ movhi
 383              		.loc 1 533 0
 384 017e A4F84E30 		strh	r3, [r4, #78]	@ movhi
 385              	.L43:
 386              		.loc 1 538 0
 387 0182 0023     		movs	r3, #0
 388 0184 C9F80030 		str	r3, [r9, #0]
 389              		.loc 1 539 0
 390 0188 3B60     		str	r3, [r7, #0]
 391              		.loc 1 540 0
 392 018a CBF80030 		str	r3, [fp, #0]
 393              		.loc 1 541 0
 394 018e CAF80030 		str	r3, [sl, #0]
 395              		.loc 1 543 0
 396 0192 55E7     		b	.L27
 397              	.LVL38:
 398              	.L65:
 399              	.LBB4:
ARM GAS  /var/folders/5n/p_75w94d66l9ssrldxqdhh700000gn/T//ccgVdQOR.s 			page 8


 400              		.loc 1 367 0
 401 0194 3F68     		ldr	r7, [r7, #0]
 402              	.LVL39:
 403 0196 A2E7     		b	.L36
 404              	.LVL40:
 405              	.L39:
 406              	.LBE4:
 407              		.loc 1 410 0
 408 0198 2846     		mov	r0, r5
 409 019a FFF7FEFF 		bl	pbuf_free
 410              	.LVL41:
 411              		.loc 1 411 0
 412 019e B4F84E30 		ldrh	r3, [r4, #78]
 413 01a2 0133     		adds	r3, r3, #1
 414 01a4 A4F84E30 		strh	r3, [r4, #78]	@ movhi
 415              		.loc 1 414 0
 416 01a8 4AE7     		b	.L27
 417              	.LVL42:
 418              	.L64:
 419              		.loc 1 301 0
 420 01aa 2846     		mov	r0, r5
 421 01ac FFF7FEFF 		bl	pbuf_free
 422              	.LVL43:
 423              		.loc 1 302 0
 424 01b0 B4F85020 		ldrh	r2, [r4, #80]
 425              		.loc 1 303 0
 426 01b4 B4F84E30 		ldrh	r3, [r4, #78]
 427              		.loc 1 302 0
 428 01b8 0132     		adds	r2, r2, #1
 429              		.loc 1 303 0
 430 01ba 0133     		adds	r3, r3, #1
 431              		.loc 1 302 0
 432 01bc A4F85020 		strh	r2, [r4, #80]	@ movhi
 433              		.loc 1 303 0
 434 01c0 A4F84E30 		strh	r3, [r4, #78]	@ movhi
 435              		.loc 1 305 0
 436 01c4 3CE7     		b	.L27
 437              	.LVL44:
 438              	.L47:
 439              		.loc 1 499 0
 440 01c6 2846     		mov	r0, r5
 441 01c8 4146     		mov	r1, r8
 442 01ca FFF7FEFF 		bl	udp_input
 443              	.LVL45:
 444              		.loc 1 500 0
 445 01ce D8E7     		b	.L43
 446              	.L46:
 447              		.loc 1 505 0
 448 01d0 2846     		mov	r0, r5
 449 01d2 4146     		mov	r1, r8
 450 01d4 FFF7FEFF 		bl	tcp_input
 451              	.LVL46:
 452              		.loc 1 506 0
 453 01d8 D3E7     		b	.L43
 454              	.L67:
 455              		.loc 1 511 0
 456 01da 2846     		mov	r0, r5
ARM GAS  /var/folders/5n/p_75w94d66l9ssrldxqdhh700000gn/T//ccgVdQOR.s 			page 9


 457 01dc 4146     		mov	r1, r8
 458 01de FFF7FEFF 		bl	icmp_input
 459              	.LVL47:
 460              		.loc 1 512 0
 461 01e2 CEE7     		b	.L43
 462              	.LVL48:
 463              	.L66:
 464              		.loc 1 433 0
 465 01e4 2846     		mov	r0, r5
 466 01e6 FFF7FEFF 		bl	pbuf_free
 467              	.LVL49:
 468              		.loc 1 434 0
 469 01ea 29E7     		b	.L27
 470              	.L69:
 471              		.align	2
 472              	.L68:
 473 01ec 00000000 		.word	lwip_stats
 474 01f0 00000000 		.word	netif_list
 475 01f4 00000000 		.word	.LANCHOR1
 476 01f8 00000000 		.word	.LANCHOR3
 477 01fc 00000000 		.word	.LANCHOR0
 478 0200 00000000 		.word	.LANCHOR2
 479              		.cfi_endproc
 480              	.LFE8:
 481              		.size	ip_input, .-ip_input
 482 0204 AFF30080 		.section	.text.ip_output_if,"ax",%progbits
 482      AFF30080 
 482      AFF30080 
 483              		.align	2
 484              		.p2align 4,,15
 485              		.global	ip_output_if
 486              		.thumb
 487              		.thumb_func
 488              		.type	ip_output_if, %function
 489              	ip_output_if:
 490              	.LFB9:
 491              		.loc 1 575 0
 492              		.cfi_startproc
 493              		@ args = 12, pretend = 0, frame = 24
 494              		@ frame_needed = 0, uses_anonymous_args = 0
 495              	.LVL50:
 496 0000 2DE9F04F 		push	{r4, r5, r6, r7, r8, r9, sl, fp, lr}
 497              	.LCFI3:
 498              		.cfi_def_cfa_offset 36
 499              		.cfi_offset 4, -36
 500              		.cfi_offset 5, -32
 501              		.cfi_offset 6, -28
 502              		.cfi_offset 7, -24
 503              		.cfi_offset 8, -20
 504              		.cfi_offset 9, -16
 505              		.cfi_offset 10, -12
 506              		.cfi_offset 11, -8
 507              		.cfi_offset 14, -4
 508 0004 8A46     		mov	sl, r1
 509              		.loc 1 599 0
 510 0006 C189     		ldrh	r1, [r0, #14]
 511              	.LVL51:
ARM GAS  /var/folders/5n/p_75w94d66l9ssrldxqdhh700000gn/T//ccgVdQOR.s 			page 10


 512              		.loc 1 575 0
 513 0008 87B0     		sub	sp, sp, #28
 514              	.LCFI4:
 515              		.cfi_def_cfa_offset 64
 516              		.loc 1 599 0
 517 000a 0129     		cmp	r1, #1
 518              		.loc 1 575 0
 519 000c 0546     		mov	r5, r0
 520 000e 9DF84490 		ldrb	r9, [sp, #68]	@ zero_extendqisi2
 521 0012 129F     		ldr	r7, [sp, #72]
 522 0014 1646     		mov	r6, r2
 523 0016 9846     		mov	r8, r3
 524              		.loc 1 599 0
 525 0018 01D0     		beq	.L71
 526              		.loc 1 599 0 is_stmt 0 discriminator 1
 527 001a FFF7FEFF 		bl	port_halt
 528              	.LVL52:
 529              	.L71:
 530              		.loc 1 604 0 is_stmt 1
 531 001e 002E     		cmp	r6, #0
 532 0020 6BD0     		beq	.L72
 533              	.LVL53:
 534              	.LBB5:
 535              		.loc 1 635 0
 536 0022 2846     		mov	r0, r5
 537 0024 1421     		movs	r1, #20
 538 0026 FFF7FEFF 		bl	pbuf_header
 539              	.LVL54:
 540 002a 0028     		cmp	r0, #0
 541 002c 74D1     		bne	.L90
 542              		.loc 1 644 0
 543 002e 6B89     		ldrh	r3, [r5, #10]
 544              		.loc 1 643 0
 545 0030 6C68     		ldr	r4, [r5, #4]
 546              	.LVL55:
 547              		.loc 1 644 0
 548 0032 132B     		cmp	r3, #19
 549 0034 67D9     		bls	.L91
 550              	.L75:
 551              		.loc 1 647 0
 552 0036 84F80880 		strb	r8, [r4, #8]
 553              		.loc 1 648 0
 554 003a 84F80990 		strb	r9, [r4, #9]
 555              		.loc 1 654 0
 556 003e 3368     		ldr	r3, [r6, #0]
 557              		.loc 1 669 0
 558 0040 DFF8E8B0 		ldr	fp, .L93+4
 559              		.loc 1 654 0
 560 0044 2361     		str	r3, [r4, #16]	@ unaligned
 561              		.loc 1 660 0
 562 0046 9DF84000 		ldrb	r0, [sp, #64]	@ zero_extendqisi2
 563              		.loc 1 656 0
 564 004a 99B2     		uxth	r1, r3
 565              		.loc 1 657 0
 566 004c 4FEA134C 		lsr	ip, r3, #16
 567              		.loc 1 660 0
 568 0050 40F48A40 		orr	r0, r0, #17664
ARM GAS  /var/folders/5n/p_75w94d66l9ssrldxqdhh700000gn/T//ccgVdQOR.s 			page 11


 569 0054 0191     		str	r1, [sp, #4]
 570 0056 CDF800C0 		str	ip, [sp, #0]
 571 005a FFF7FEFF 		bl	lwip_htons
 572              	.LVL56:
 573 005e 2080     		strh	r0, [r4, #0]	@ unaligned
 574 0060 0346     		mov	r3, r0
 575              		.loc 1 664 0
 576 0062 2889     		ldrh	r0, [r5, #8]
 577 0064 0293     		str	r3, [sp, #8]
 578 0066 FFF7FEFF 		bl	lwip_htons
 579              	.LVL57:
 580 006a 0390     		str	r0, [sp, #12]
 581 006c 039A     		ldr	r2, [sp, #12]
 582              		.loc 1 668 0
 583 006e 0020     		movs	r0, #0
 584              		.loc 1 664 0
 585 0070 6280     		strh	r2, [r4, #2]	@ unaligned
 586              		.loc 1 668 0
 587 0072 A071     		strb	r0, [r4, #6]
 588 0074 E071     		strb	r0, [r4, #7]
 589              		.loc 1 669 0
 590 0076 BBF80000 		ldrh	r0, [fp, #0]
 591 007a FFF7FEFF 		bl	lwip_htons
 592              	.LVL58:
 593 007e A080     		strh	r0, [r4, #4]	@ unaligned
 594              		.loc 1 673 0
 595 0080 BBF800E0 		ldrh	lr, [fp, #0]
 596              		.loc 1 675 0
 597 0084 0199     		ldr	r1, [sp, #4]
 598 0086 029B     		ldr	r3, [sp, #8]
 599 0088 DDF800C0 		ldr	ip, [sp, #0]
 600              		.loc 1 673 0
 601 008c 0EF1010E 		add	lr, lr, #1
 602              		.loc 1 650 0
 603 0090 48EA0928 		orr	r8, r8, r9, lsl #8
 604              	.LVL59:
 605              		.loc 1 673 0
 606 0094 ABF800E0 		strh	lr, [fp, #0]	@ movhi
 607              		.loc 1 675 0
 608 0098 BAF1000F 		cmp	sl, #0
 609 009c 03D0     		beq	.L76
 610              		.loc 1 675 0 is_stmt 0 discriminator 1
 611 009e DAF80020 		ldr	r2, [sl, #0]
 612 00a2 002A     		cmp	r2, #0
 613 00a4 27D1     		bne	.L77
 614              	.L76:
 615              		.loc 1 676 0 is_stmt 1
 616 00a6 7A68     		ldr	r2, [r7, #4]
 617 00a8 E260     		str	r2, [r4, #12]	@ unaligned
 618              	.L78:
 619              	.LVL60:
 620              		.loc 1 656 0
 621 00aa 6144     		add	r1, ip, r1
 622              	.LVL61:
 623              		.loc 1 657 0
 624 00ac 4144     		add	r1, r1, r8
 625              		.loc 1 662 0
ARM GAS  /var/folders/5n/p_75w94d66l9ssrldxqdhh700000gn/T//ccgVdQOR.s 			page 12


 626 00ae CB18     		adds	r3, r1, r3
 627              	.LVL62:
 628              		.loc 1 666 0
 629 00b0 0399     		ldr	r1, [sp, #12]
 630 00b2 03EB010B 		add	fp, r3, r1
 631              		.loc 1 671 0
 632 00b6 5844     		add	r0, fp, r0
 633              	.LVL63:
 634              		.loc 1 683 0
 635 00b8 10FA82F0 		uxtah	r0, r0, r2
 636              		.loc 1 684 0
 637 00bc 00EB1242 		add	r2, r0, r2, lsr #16
 638              	.LVL64:
 639              		.loc 1 685 0
 640 00c0 93B2     		uxth	r3, r2
 641 00c2 03EB1242 		add	r2, r3, r2, lsr #16
 642              	.LVL65:
 643              		.loc 1 686 0
 644 00c6 02EB1242 		add	r2, r2, r2, lsr #16
 645              	.LVL66:
 646              		.loc 1 688 0
 647 00ca D243     		mvns	r2, r2
 648              	.LVL67:
 649 00cc 6281     		strh	r2, [r4, #10]	@ unaligned
 650              	.LVL68:
 651              	.L79:
 652              	.LBE5:
 653              		.loc 1 702 0
 654 00ce 164B     		ldr	r3, .L93
 655              		.loc 1 721 0
 656 00d0 3A8C     		ldrh	r2, [r7, #32]
 657              		.loc 1 702 0
 658 00d2 B3F84810 		ldrh	r1, [r3, #72]
 659 00d6 0131     		adds	r1, r1, #1
 660 00d8 A3F84810 		strh	r1, [r3, #72]	@ movhi
 661              		.loc 1 721 0
 662 00dc 12B1     		cbz	r2, .L80
 663              		.loc 1 721 0 is_stmt 0 discriminator 1
 664 00de 2B89     		ldrh	r3, [r5, #8]
 665 00e0 9342     		cmp	r3, r2
 666 00e2 13D8     		bhi	.L92
 667              	.L80:
 668              		.loc 1 727 0 is_stmt 1
 669 00e4 7B69     		ldr	r3, [r7, #20]
 670 00e6 3846     		mov	r0, r7
 671 00e8 2946     		mov	r1, r5
 672 00ea 3246     		mov	r2, r6
 673 00ec 9847     		blx	r3
 674              	.LVL69:
 675              	.L74:
 676              		.loc 1 728 0
 677 00ee 40B2     		sxtb	r0, r0
 678 00f0 07B0     		add	sp, sp, #28
 679 00f2 BDE8F08F 		pop	{r4, r5, r6, r7, r8, r9, sl, fp, pc}
 680              	.LVL70:
 681              	.L77:
 682              	.LBB6:
ARM GAS  /var/folders/5n/p_75w94d66l9ssrldxqdhh700000gn/T//ccgVdQOR.s 			page 13


 683              		.loc 1 679 0
 684 00f6 E260     		str	r2, [r4, #12]	@ unaligned
 685 00f8 D7E7     		b	.L78
 686              	.LVL71:
 687              	.L72:
 688              	.LBE6:
 689              		.loc 1 698 0
 690 00fa 6B68     		ldr	r3, [r5, #4]
 691 00fc 06AE     		add	r6, sp, #24
 692              	.LVL72:
 693 00fe 1B69     		ldr	r3, [r3, #16]	@ unaligned
 694 0100 46F8043D 		str	r3, [r6, #-4]!
 695              	.LVL73:
 696 0104 E3E7     		b	.L79
 697              	.LVL74:
 698              	.L91:
 699              	.LBB7:
 700              		.loc 1 644 0 discriminator 1
 701 0106 FFF7FEFF 		bl	port_halt
 702              	.LVL75:
 703 010a 94E7     		b	.L75
 704              	.LVL76:
 705              	.L92:
 706              	.LBE7:
 707              		.loc 1 722 0
 708 010c 2846     		mov	r0, r5
 709 010e 3946     		mov	r1, r7
 710 0110 3246     		mov	r2, r6
 711 0112 FFF7FEFF 		bl	ip_frag
 712              	.LVL77:
 713 0116 EAE7     		b	.L74
 714              	.LVL78:
 715              	.L90:
 716              	.LBB8:
 717              		.loc 1 638 0
 718 0118 034B     		ldr	r3, .L93
 719 011a B3F85C20 		ldrh	r2, [r3, #92]
 720 011e 0132     		adds	r2, r2, #1
 721 0120 A3F85C20 		strh	r2, [r3, #92]	@ movhi
 722              		.loc 1 640 0
 723 0124 FE20     		movs	r0, #254
 724 0126 E2E7     		b	.L74
 725              	.L94:
 726              		.align	2
 727              	.L93:
 728 0128 00000000 		.word	lwip_stats
 729 012c 00000000 		.word	.LANCHOR4
 730              	.LBE8:
 731              		.cfi_endproc
 732              	.LFE9:
 733              		.size	ip_output_if, .-ip_output_if
 734              		.section	.text.ip_output,"ax",%progbits
 735              		.align	2
 736              		.p2align 4,,15
 737              		.global	ip_output
 738              		.thumb
 739              		.thumb_func
ARM GAS  /var/folders/5n/p_75w94d66l9ssrldxqdhh700000gn/T//ccgVdQOR.s 			page 14


 740              		.type	ip_output, %function
 741              	ip_output:
 742              	.LFB10:
 743              		.loc 1 750 0
 744              		.cfi_startproc
 745              		@ args = 8, pretend = 0, frame = 0
 746              		@ frame_needed = 0, uses_anonymous_args = 0
 747              	.LVL79:
 748 0000 F0B5     		push	{r4, r5, r6, r7, lr}
 749              	.LCFI5:
 750              		.cfi_def_cfa_offset 20
 751              		.cfi_offset 4, -20
 752              		.cfi_offset 5, -16
 753              		.cfi_offset 6, -12
 754              		.cfi_offset 7, -8
 755              		.cfi_offset 14, -4
 756 0002 0446     		mov	r4, r0
 757              		.loc 1 755 0
 758 0004 C089     		ldrh	r0, [r0, #14]
 759              	.LVL80:
 760 0006 0128     		cmp	r0, #1
 761              		.loc 1 750 0
 762 0008 85B0     		sub	sp, sp, #20
 763              	.LCFI6:
 764              		.cfi_def_cfa_offset 40
 765              		.loc 1 750 0
 766 000a 0F46     		mov	r7, r1
 767 000c 1546     		mov	r5, r2
 768 000e 1E46     		mov	r6, r3
 769              		.loc 1 755 0
 770 0010 01D0     		beq	.L96
 771              		.loc 1 755 0 is_stmt 0 discriminator 1
 772 0012 FFF7FEFF 		bl	port_halt
 773              	.LVL81:
 774              	.L96:
 775              		.loc 1 757 0 is_stmt 1
 776 0016 2846     		mov	r0, r5
 777 0018 FFF7FEFF 		bl	ip_route
 778              	.LVL82:
 779 001c 78B1     		cbz	r0, .L102
 780              		.loc 1 764 0
 781 001e 9DF82830 		ldrb	r3, [sp, #40]	@ zero_extendqisi2
 782 0022 0290     		str	r0, [sp, #8]
 783 0024 0093     		str	r3, [sp, #0]
 784 0026 9DF82C30 		ldrb	r3, [sp, #44]	@ zero_extendqisi2
 785 002a 2046     		mov	r0, r4
 786              	.LVL83:
 787 002c 0193     		str	r3, [sp, #4]
 788 002e 3946     		mov	r1, r7
 789 0030 2A46     		mov	r2, r5
 790 0032 3346     		mov	r3, r6
 791 0034 FFF7FEFF 		bl	ip_output_if
 792              	.LVL84:
 793              	.L98:
 794              		.loc 1 765 0
 795 0038 40B2     		sxtb	r0, r0
 796 003a 05B0     		add	sp, sp, #20
ARM GAS  /var/folders/5n/p_75w94d66l9ssrldxqdhh700000gn/T//ccgVdQOR.s 			page 15


 797 003c F0BD     		pop	{r4, r5, r6, r7, pc}
 798              	.LVL85:
 799              	.L102:
 800              		.loc 1 760 0
 801 003e 044B     		ldr	r3, .L103
 802 0040 B3F85620 		ldrh	r2, [r3, #86]
 803 0044 0132     		adds	r2, r2, #1
 804 0046 A3F85620 		strh	r2, [r3, #86]	@ movhi
 805              		.loc 1 761 0
 806 004a FC20     		movs	r0, #252
 807              	.LVL86:
 808 004c F4E7     		b	.L98
 809              	.L104:
 810 004e 00BF     		.align	2
 811              	.L103:
 812 0050 00000000 		.word	lwip_stats
 813              		.cfi_endproc
 814              	.LFE10:
 815              		.size	ip_output, .-ip_output
 816              		.global	current_iphdr_dest
 817              		.global	current_iphdr_src
 818              		.global	current_header
 819              		.global	current_netif
 820 0054 AFF30080 		.section	.bss.current_header,"aw",%nobits
 820      AFF30080 
 820      AFF30080 
 821              		.align	2
 822              		.set	.LANCHOR3,. + 0
 823              		.type	current_header, %object
 824              		.size	current_header, 4
 825              	current_header:
 826 0000 00000000 		.space	4
 827              		.section	.bss.ip_id,"aw",%nobits
 828              		.align	1
 829              		.set	.LANCHOR4,. + 0
 830              		.type	ip_id, %object
 831              		.size	ip_id, 2
 832              	ip_id:
 833 0000 0000     		.space	2
 834              		.section	.bss.current_iphdr_src,"aw",%nobits
 835              		.align	2
 836              		.set	.LANCHOR1,. + 0
 837              		.type	current_iphdr_src, %object
 838              		.size	current_iphdr_src, 4
 839              	current_iphdr_src:
 840 0000 00000000 		.space	4
 841              		.section	.bss.current_iphdr_dest,"aw",%nobits
 842              		.align	2
 843              		.set	.LANCHOR0,. + 0
 844              		.type	current_iphdr_dest, %object
 845              		.size	current_iphdr_dest, 4
 846              	current_iphdr_dest:
 847 0000 00000000 		.space	4
 848              		.section	.bss.current_netif,"aw",%nobits
 849              		.align	2
 850              		.set	.LANCHOR2,. + 0
 851              		.type	current_netif, %object
ARM GAS  /var/folders/5n/p_75w94d66l9ssrldxqdhh700000gn/T//ccgVdQOR.s 			page 16


 852              		.size	current_netif, 4
 853              	current_netif:
 854 0000 00000000 		.space	4
 855              		.text
 856              	.Letext0:
 857              		.file 2 "/usr/local/cross/lib/gcc/arm-none-eabi/4.7.2/../../../../arm-none-eabi/include/stdint.h"
 858              		.file 3 "../../os/various/lwip_bindings/arch/cc.h"
 859              		.file 4 "../../ext/lwip-1.4.0/src/include/lwip/err.h"
 860              		.file 5 "../../ext/lwip-1.4.0/src/include/lwip/pbuf.h"
 861              		.file 6 "../../ext/lwip-1.4.0/src/include/ipv4/lwip/ip_addr.h"
 862              		.file 7 "../../ext/lwip-1.4.0/src/include/lwip/netif.h"
 863              		.file 8 "../../ext/lwip-1.4.0/src/include/ipv4/lwip/ip.h"
 864              		.file 9 "../../ext/lwip-1.4.0/src/include/lwip/mem.h"
 865              		.file 10 "../../ext/lwip-1.4.0/src/include/lwip/stats.h"
 866              		.file 11 "../../ext/lwip-1.4.0/src/include/lwip/def.h"
 867              		.file 12 "../../ext/lwip-1.4.0/src/include/ipv4/lwip/inet_chksum.h"
 868              		.file 13 "../../ext/lwip-1.4.0/src/include/ipv4/lwip/ip_frag.h"
 869              		.file 14 "../../ext/lwip-1.4.0/src/include/lwip/raw.h"
 870              		.file 15 "../../ext/lwip-1.4.0/src/include/ipv4/lwip/icmp.h"
 871              		.file 16 "../../ext/lwip-1.4.0/src/include/lwip/udp.h"
 872              		.file 17 "../../ext/lwip-1.4.0/src/include/lwip/tcp_impl.h"
 873              		.file 18 "../../ext/lwip-1.4.0/src/include/lwip/memp.h"
 874              		.file 19 "../../os/ports/GCC/ARMCMx/chcore_v7m.h"