ARM GAS  /var/folders/5n/p_75w94d66l9ssrldxqdhh700000gn/T//ccp9Ul8m.s 			page 1


   1              		.syntax unified
   2              		.cpu cortex-m4
   3              		.fpu softvfp
   4              		.eabi_attribute 20, 1
   5              		.eabi_attribute 21, 1
   6              		.eabi_attribute 23, 3
   7              		.eabi_attribute 24, 1
   8              		.eabi_attribute 25, 1
   9              		.eabi_attribute 26, 1
  10              		.eabi_attribute 30, 2
  11              		.eabi_attribute 34, 1
  12              		.eabi_attribute 18, 4
  13              		.thumb
  14              		.file	"lwipthread.c"
  15              		.text
  16              	.Ltext0:
  17              		.cfi_sections	.debug_frame
  18              		.section	.text.ethernetif_init,"ax",%progbits
  19              		.align	2
  20              		.p2align 4,,15
  21              		.thumb
  22              		.thumb_func
  23              		.type	ethernetif_init, %function
  24              	ethernetif_init:
  25              	.LFB120:
  26              		.file 1 "../../os/various/lwip_bindings/lwipthread.c"
  27              		.loc 1 190 0
  28              		.cfi_startproc
  29              		@ args = 0, pretend = 0, frame = 0
  30              		@ frame_needed = 0, uses_anonymous_args = 0
  31              		@ link register save eliminated.
  32              	.LVL0:
  33              		.loc 1 190 0
  34 0000 0346     		mov	r3, r0
  35              		.loc 1 204 0
  36 0002 6D22     		movs	r2, #109
  37 0004 83F82A20 		strb	r2, [r3, #42]
  38              		.loc 1 205 0
  39 0008 7322     		movs	r2, #115
  40 000a 83F82B20 		strb	r2, [r3, #43]
  41              		.loc 1 210 0
  42 000e 40F20002 		movw	r2, #:lower16:etharp_output
  43 0012 C0F20002 		movt	r2, #:upper16:etharp_output
  44 0016 5A61     		str	r2, [r3, #20]
  45              		.loc 1 211 0
  46 0018 40F20002 		movw	r2, #:lower16:low_level_output
  47 001c C0F20002 		movt	r2, #:upper16:low_level_output
  48 0020 9A61     		str	r2, [r3, #24]
  49              	.LVL1:
  50              	.LBB4:
  51              	.LBB5:
  52              		.loc 1 100 0
  53 0022 0622     		movs	r2, #6
  54 0024 83F82220 		strb	r2, [r3, #34]
  55              		.loc 1 103 0
  56 0028 40F2DC52 		movw	r2, #1500
  57              	.LBE5:
ARM GAS  /var/folders/5n/p_75w94d66l9ssrldxqdhh700000gn/T//ccp9Ul8m.s 			page 2


  58              	.LBE4:
  59              		.loc 1 203 0
  60 002c 0020     		movs	r0, #0
  61              	.LVL2:
  62              	.LBB8:
  63              	.LBB6:
  64              		.loc 1 103 0
  65 002e 1A84     		strh	r2, [r3, #32]	@ movhi
  66              		.loc 1 107 0
  67 0030 3222     		movs	r2, #50
  68              	.LBE6:
  69              	.LBE8:
  70              		.loc 1 203 0
  71 0032 D861     		str	r0, [r3, #28]
  72              	.LBB9:
  73              	.LBB7:
  74              		.loc 1 107 0
  75 0034 83F82920 		strb	r2, [r3, #41]
  76              	.LBE7:
  77              	.LBE9:
  78              		.loc 1 217 0
  79 0038 7047     		bx	lr
  80              		.cfi_endproc
  81              	.LFE120:
  82              		.size	ethernetif_init, .-ethernetif_init
  83 003a 00BFAFF3 		.section	.text.low_level_output,"ax",%progbits
  83      0080
  84              		.align	2
  85              		.p2align 4,,15
  86              		.thumb
  87              		.thumb_func
  88              		.type	low_level_output, %function
  89              	low_level_output:
  90              	.LFB118:
  91              		.loc 1 115 0
  92              		.cfi_startproc
  93              		@ args = 0, pretend = 0, frame = 16
  94              		@ frame_needed = 0, uses_anonymous_args = 0
  95              	.LVL3:
  96 0000 10B5     		push	{r4, lr}
  97              	.LCFI0:
  98              		.cfi_def_cfa_offset 8
  99              		.cfi_offset 4, -8
 100              		.cfi_offset 14, -4
 101 0002 84B0     		sub	sp, sp, #16
 102              	.LCFI1:
 103              		.cfi_def_cfa_offset 24
 104              		.loc 1 115 0
 105 0004 0C46     		mov	r4, r1
 106              		.loc 1 120 0
 107 0006 0E48     		ldr	r0, .L12
 108              	.LVL4:
 109 0008 01A9     		add	r1, sp, #4
 110              	.LVL5:
 111 000a 3222     		movs	r2, #50
 112 000c FFF7FEFF 		bl	macWaitTransmitDescriptor
 113              	.LVL6:
ARM GAS  /var/folders/5n/p_75w94d66l9ssrldxqdhh700000gn/T//ccp9Ul8m.s 			page 3


 114 0010 98B9     		cbnz	r0, .L7
 115              	.LVL7:
 116              		.loc 1 128 0 discriminator 2
 117 0012 3CB1     		cbz	r4, .L11
 118              	.LVL8:
 119              	.L5:
 120              		.loc 1 129 0 discriminator 2
 121 0014 6168     		ldr	r1, [r4, #4]
 122 0016 6289     		ldrh	r2, [r4, #10]
 123 0018 01A8     		add	r0, sp, #4
 124 001a FFF7FEFF 		bl	mac_lld_write_transmit_descriptor
 125              	.LVL9:
 126              		.loc 1 128 0 discriminator 2
 127 001e 2468     		ldr	r4, [r4, #0]
 128              	.LVL10:
 129 0020 002C     		cmp	r4, #0
 130 0022 F7D1     		bne	.L5
 131              	.L11:
 132              		.loc 1 130 0
 133 0024 01A8     		add	r0, sp, #4
 134 0026 FFF7FEFF 		bl	macReleaseTransmitDescriptor
 135              	.LVL11:
 136              		.loc 1 136 0
 137 002a 064B     		ldr	r3, .L12+4
 138 002c 1A88     		ldrh	r2, [r3, #0]
 139 002e 0132     		adds	r2, r2, #1
 140 0030 1A80     		strh	r2, [r3, #0]	@ movhi
 141              		.loc 1 138 0
 142 0032 0020     		movs	r0, #0
 143              	.LVL12:
 144              	.L3:
 145              		.loc 1 139 0
 146 0034 40B2     		sxtb	r0, r0
 147 0036 04B0     		add	sp, sp, #16
 148 0038 10BD     		pop	{r4, pc}
 149              	.LVL13:
 150              	.L7:
 151              		.loc 1 121 0
 152 003a FD20     		movs	r0, #253
 153 003c FAE7     		b	.L3
 154              	.L13:
 155 003e 00BF     		.align	2
 156              	.L12:
 157 0040 00000000 		.word	ETHD1
 158 0044 00000000 		.word	lwip_stats
 159              		.cfi_endproc
 160              	.LFE118:
 161              		.size	low_level_output, .-low_level_output
 162 0048 AFF30080 		.section	.text.lwip_thread,"ax",%progbits
 162      AFF30080 
 163              		.align	2
 164              		.p2align 4,,15
 165              		.global	lwip_thread
 166              		.thumb
 167              		.thumb_func
 168              		.type	lwip_thread, %function
 169              	lwip_thread:
ARM GAS  /var/folders/5n/p_75w94d66l9ssrldxqdhh700000gn/T//ccp9Ul8m.s 			page 4


 170              	.LFB121:
 171              		.loc 1 225 0
 172              		.cfi_startproc
 173              		@ args = 0, pretend = 0, frame = 80
 174              		@ frame_needed = 0, uses_anonymous_args = 0
 175              	.LVL14:
 176 0000 2DE9F041 		push	{r4, r5, r6, r7, r8, lr}
 177              	.LCFI2:
 178              		.cfi_def_cfa_offset 24
 179              		.cfi_offset 4, -24
 180              		.cfi_offset 5, -20
 181              		.cfi_offset 6, -16
 182              		.cfi_offset 7, -12
 183              		.cfi_offset 8, -8
 184              		.cfi_offset 14, -4
 185              		.loc 1 232 0
 186 0004 684B     		ldr	r3, .L47
 187 0006 694A     		ldr	r2, .L47+4
 188 0008 DB69     		ldr	r3, [r3, #28]
 189 000a 694E     		ldr	r6, .L47+8
 190 000c 9A61     		str	r2, [r3, #24]
 191              		.loc 1 225 0
 192 000e 98B0     		sub	sp, sp, #96
 193              	.LCFI3:
 194              		.cfi_def_cfa_offset 120
 195              		.loc 1 225 0
 196 0010 0446     		mov	r4, r0
 197              		.loc 1 235 0
 198 0012 FFF7FEFF 		bl	sys_init
 199              	.LVL15:
 200              		.loc 1 236 0
 201 0016 FFF7FEFF 		bl	mem_init
 202              	.LVL16:
 203              		.loc 1 237 0
 204 001a FFF7FEFF 		bl	memp_init
 205              	.LVL17:
 206              		.loc 1 239 0
 207 001e FFF7FEFF 		bl	netif_init
 208              	.LVL18:
 209              		.loc 1 241 0
 210 0022 0020     		movs	r0, #0
 211 0024 0146     		mov	r1, r0
 212 0026 FFF7FEFF 		bl	tcpip_init
 213              	.LVL19:
 214              		.loc 1 244 0
 215 002a 7CB1     		cbz	r4, .L15
 216 002c 0023     		movs	r3, #0
 217              	.L16:
 218              	.LBB17:
 219              		.loc 1 249 0 discriminator 2
 220 002e 2268     		ldr	r2, [r4, #0]
 221              		.loc 1 225 0 discriminator 2
 222 0030 F118     		adds	r1, r6, r3
 223              		.loc 1 249 0 discriminator 2
 224 0032 D25C     		ldrb	r2, [r2, r3]	@ zero_extendqisi2
 225              		.loc 1 248 0 discriminator 2
 226 0034 0133     		adds	r3, r3, #1
ARM GAS  /var/folders/5n/p_75w94d66l9ssrldxqdhh700000gn/T//ccp9Ul8m.s 			page 5


 227              	.LVL20:
 228 0036 062B     		cmp	r3, #6
 229              		.loc 1 249 0 discriminator 2
 230 0038 81F82320 		strb	r2, [r1, #35]
 231              		.loc 1 248 0 discriminator 2
 232 003c F7D1     		bne	.L16
 233              		.loc 1 250 0
 234 003e 6168     		ldr	r1, [r4, #4]
 235              		.loc 1 251 0
 236 0040 E268     		ldr	r2, [r4, #12]
 237              		.loc 1 252 0
 238 0042 A368     		ldr	r3, [r4, #8]
 239              	.LVL21:
 240              		.loc 1 250 0
 241 0044 0591     		str	r1, [sp, #20]
 242              		.loc 1 251 0
 243 0046 0692     		str	r2, [sp, #24]
 244              		.loc 1 252 0
 245 0048 0793     		str	r3, [sp, #28]
 246 004a 1DE0     		b	.L17
 247              	.L15:
 248              	.LBE17:
 249              		.loc 1 255 0
 250 004c C221     		movs	r1, #194
 251 004e 86F82310 		strb	r1, [r6, #35]
 252              		.loc 1 256 0
 253 0052 AF21     		movs	r1, #175
 254              		.loc 1 261 0
 255 0054 4AF6C002 		movw	r2, #43200
 256              		.loc 1 256 0
 257 0058 86F82410 		strb	r1, [r6, #36]
 258              		.loc 1 257 0
 259 005c 5121     		movs	r1, #81
 260              		.loc 1 262 0
 261 005e 1346     		mov	r3, r2
 262              		.loc 1 257 0
 263 0060 86F82510 		strb	r1, [r6, #37]
 264              		.loc 1 258 0
 265 0064 0321     		movs	r1, #3
 266              		.loc 1 262 0
 267 0066 C0F20113 		movt	r3, 257
 268              		.loc 1 258 0
 269 006a 86F82610 		strb	r1, [r6, #38]
 270              		.loc 1 259 0
 271 006e CF21     		movs	r1, #207
 272              		.loc 1 261 0
 273 0070 C1F20142 		movt	r2, 5121
 274              		.loc 1 259 0
 275 0074 86F82710 		strb	r1, [r6, #39]
 276              		.loc 1 262 0
 277 0078 0693     		str	r3, [sp, #24]
 278              		.loc 1 260 0
 279 007a 4621     		movs	r1, #70
 280              		.loc 1 263 0
 281 007c 6FF07F43 		mvn	r3, #-16777216
 282              		.loc 1 260 0
 283 0080 86F82810 		strb	r1, [r6, #40]
ARM GAS  /var/folders/5n/p_75w94d66l9ssrldxqdhh700000gn/T//ccp9Ul8m.s 			page 6


 284              		.loc 1 261 0
 285 0084 0592     		str	r2, [sp, #20]
 286              		.loc 1 263 0
 287 0086 0793     		str	r3, [sp, #28]
 288              	.L17:
 289              		.loc 1 265 0
 290 0088 4A48     		ldr	r0, .L47+12
 291 008a 4B49     		ldr	r1, .L47+16
 292 008c 4B4F     		ldr	r7, .L47+20
 293 008e FFF7FEFF 		bl	macStart
 294              	.LVL22:
 295              		.loc 1 266 0
 296 0092 4B4B     		ldr	r3, .L47+24
 297 0094 4B48     		ldr	r0, .L47+28
 298 0096 0193     		str	r3, [sp, #4]
 299 0098 0024     		movs	r4, #0
 300              	.LVL23:
 301 009a 05A9     		add	r1, sp, #20
 302 009c 07AA     		add	r2, sp, #28
 303 009e 06AB     		add	r3, sp, #24
 304 00a0 0290     		str	r0, [sp, #8]
 305 00a2 0094     		str	r4, [sp, #0]
 306 00a4 4248     		ldr	r0, .L47+8
 307 00a6 FFF7FEFF 		bl	netif_add
 308              	.LVL24:
 309              		.loc 1 268 0
 310 00aa 4148     		ldr	r0, .L47+8
 311 00ac FFF7FEFF 		bl	netif_set_default
 312              	.LVL25:
 313              		.loc 1 269 0
 314 00b0 3F48     		ldr	r0, .L47+8
 315 00b2 FFF7FEFF 		bl	netif_set_up
 316              	.LVL26:
 317              		.loc 1 272 0
 318 00b6 16AD     		add	r5, sp, #88
 319 00b8 41F28833 		movw	r3, #5000
 320              		.loc 1 273 0
 321 00bc 11A8     		add	r0, sp, #68
 322              		.loc 1 272 0
 323 00be 1793     		str	r3, [sp, #92]
 324 00c0 1695     		str	r5, [sp, #88]
 325 00c2 1494     		str	r4, [sp, #80]
 326              		.loc 1 273 0
 327 00c4 FFF7FEFF 		bl	evtStart
 328              	.LVL27:
 329              		.loc 1 274 0
 330 00c8 2846     		mov	r0, r5
 331 00ca 08A9     		add	r1, sp, #32
 332 00cc 0122     		movs	r2, #1
 333 00ce FFF7FEFF 		bl	chEvtRegisterMask
 334              	.LVL28:
 335              		.loc 1 275 0
 336 00d2 0BA9     		add	r1, sp, #44
 337 00d4 0222     		movs	r2, #2
 338 00d6 3C48     		ldr	r0, .L47+32
 339 00d8 FFF7FEFF 		bl	chEvtRegisterMask
 340              	.LVL29:
ARM GAS  /var/folders/5n/p_75w94d66l9ssrldxqdhh700000gn/T//ccp9Ul8m.s 			page 7


 341              		.loc 1 276 0
 342 00dc 0320     		movs	r0, #3
 343 00de FFF7FEFF 		bl	chEvtAddFlags
 344              	.LVL30:
 345              		.loc 1 279 0
 346 00e2 0220     		movs	r0, #2
 347 00e4 FFF7FEFF 		bl	chThdSetPriority
 348              	.LVL31:
 349 00e8 01E0     		b	.L45
 350              	.LVL32:
 351              	.L19:
 352              	.LBB18:
 353              		.loc 1 294 0
 354 00ea A307     		lsls	r3, r4, #30
 355 00ec 19D4     		bmi	.L46
 356              	.LVL33:
 357              	.L45:
 358              		.loc 1 282 0
 359 00ee 4FF0FF30 		mov	r0, #-1
 360 00f2 FFF7FEFF 		bl	chEvtWaitAny
 361              	.LVL34:
 362              		.loc 1 283 0
 363 00f6 C207     		lsls	r2, r0, #31
 364              		.loc 1 282 0
 365 00f8 0446     		mov	r4, r0
 366              	.LVL35:
 367              		.loc 1 283 0
 368 00fa F6D5     		bpl	.L19
 369              	.LBB19:
 370              		.loc 1 284 0
 371 00fc 2D48     		ldr	r0, .L47+12
 372              	.LVL36:
 373 00fe FFF7FEFF 		bl	macPollLinkStatus
 374              	.LVL37:
 375              		.loc 1 285 0
 376 0102 96F82930 		ldrb	r3, [r6, #41]	@ zero_extendqisi2
 377 0106 C3F30013 		ubfx	r3, r3, #4, #1
 378 010a 9842     		cmp	r0, r3
 379              		.loc 1 284 0
 380 010c 0246     		mov	r2, r0
 381              	.LVL38:
 382              		.loc 1 285 0
 383 010e ECD0     		beq	.L19
 384              		.loc 1 286 0
 385 0110 0028     		cmp	r0, #0
 386 0112 33D0     		beq	.L21
 387              		.loc 1 287 0
 388 0114 0022     		movs	r2, #0
 389 0116 2649     		ldr	r1, .L47+8
 390 0118 2C48     		ldr	r0, .L47+36
 391              	.LVL39:
 392 011a FFF7FEFF 		bl	tcpip_callback_with_block
 393              	.LVL40:
 394              	.LBE19:
 395              		.loc 1 294 0
 396 011e A307     		lsls	r3, r4, #30
 397 0120 E5D5     		bpl	.L45
ARM GAS  /var/folders/5n/p_75w94d66l9ssrldxqdhh700000gn/T//ccp9Ul8m.s 			page 8


 398              	.L46:
 399              	.LBB20:
 400              	.LBB21:
 401              		.loc 1 298 0 discriminator 1
 402 0122 40F60608 		movw	r8, #2054
 403              	.LVL41:
 404              	.L44:
 405              	.LBE21:
 406              	.LBB22:
 407              	.LBB23:
 408              		.loc 1 150 0 discriminator 1
 409 0126 2348     		ldr	r0, .L47+12
 410 0128 0EA9     		add	r1, sp, #56
 411 012a 0022     		movs	r2, #0
 412 012c FFF7FEFF 		bl	macWaitReceiveDescriptor
 413              	.LVL42:
 414 0130 0028     		cmp	r0, #0
 415 0132 DCD1     		bne	.L45
 416              	.LVL43:
 417              		.loc 1 158 0
 418 0134 0320     		movs	r0, #3
 419 0136 BDF83C10 		ldrh	r1, [sp, #60]
 420 013a 0246     		mov	r2, r0
 421 013c FFF7FEFF 		bl	pbuf_alloc
 422              	.LVL44:
 423              		.loc 1 160 0
 424 0140 0546     		mov	r5, r0
 425 0142 38B3     		cbz	r0, .L28
 426 0144 0446     		mov	r4, r0
 427              	.LVL45:
 428              	.L29:
 429              		.loc 1 168 0
 430 0146 6168     		ldr	r1, [r4, #4]
 431 0148 6289     		ldrh	r2, [r4, #10]
 432 014a 0EA8     		add	r0, sp, #56
 433 014c FFF7FEFF 		bl	mac_lld_read_receive_descriptor
 434              	.LVL46:
 435              		.loc 1 167 0
 436 0150 2468     		ldr	r4, [r4, #0]
 437              	.LVL47:
 438 0152 002C     		cmp	r4, #0
 439 0154 F7D1     		bne	.L29
 440              		.loc 1 169 0
 441 0156 0EA8     		add	r0, sp, #56
 442 0158 FFF7FEFF 		bl	macReleaseReceiveDescriptor
 443              	.LVL48:
 444              		.loc 1 175 0
 445 015c 7A88     		ldrh	r2, [r7, #2]
 446              	.LBE23:
 447              	.LBE22:
 448              	.LBB26:
 449              		.loc 1 298 0
 450 015e 6B68     		ldr	r3, [r5, #4]
 451              	.LBE26:
 452              	.LBB27:
 453              	.LBB24:
 454              		.loc 1 175 0
ARM GAS  /var/folders/5n/p_75w94d66l9ssrldxqdhh700000gn/T//ccp9Ul8m.s 			page 9


 455 0160 0132     		adds	r2, r2, #1
 456 0162 7A80     		strh	r2, [r7, #2]	@ movhi
 457              	.LVL49:
 458              	.LBE24:
 459              	.LBE27:
 460              	.LBB28:
 461              		.loc 1 298 0
 462 0164 9889     		ldrh	r0, [r3, #12]	@ unaligned
 463 0166 FFF7FEFF 		bl	lwip_htons
 464              	.LVL50:
 465 016a B0F5006F 		cmp	r0, #2048
 466 016e 0AD0     		beq	.L24
 467 0170 4045     		cmp	r0, r8
 468 0172 08D0     		beq	.L24
 469              	.L26:
 470              		.loc 1 312 0
 471 0174 2846     		mov	r0, r5
 472 0176 FFF7FEFF 		bl	pbuf_free
 473              	.LVL51:
 474 017a D4E7     		b	.L44
 475              	.LVL52:
 476              	.L21:
 477              	.LBE28:
 478              	.LBE20:
 479              	.LBB31:
 480              		.loc 1 290 0
 481 017c 0C49     		ldr	r1, .L47+8
 482 017e 1448     		ldr	r0, .L47+40
 483              	.LVL53:
 484 0180 FFF7FEFF 		bl	tcpip_callback_with_block
 485              	.LVL54:
 486 0184 B1E7     		b	.L19
 487              	.LVL55:
 488              	.L24:
 489              	.LBE31:
 490              	.LBB32:
 491              	.LBB29:
 492              		.loc 1 308 0
 493 0186 3369     		ldr	r3, [r6, #16]
 494 0188 0949     		ldr	r1, .L47+8
 495 018a 2846     		mov	r0, r5
 496 018c 9847     		blx	r3
 497              	.LVL56:
 498 018e 0028     		cmp	r0, #0
 499 0190 C9D0     		beq	.L44
 500 0192 EFE7     		b	.L26
 501              	.LVL57:
 502              	.L28:
 503              	.LBE29:
 504              	.LBB30:
 505              	.LBB25:
 506              		.loc 1 178 0
 507 0194 0EA8     		add	r0, sp, #56
 508              	.LVL58:
 509 0196 FFF7FEFF 		bl	macReleaseReceiveDescriptor
 510              	.LVL59:
 511              		.loc 1 179 0
ARM GAS  /var/folders/5n/p_75w94d66l9ssrldxqdhh700000gn/T//ccp9Ul8m.s 			page 10


 512 019a BA89     		ldrh	r2, [r7, #12]
 513              		.loc 1 180 0
 514 019c FB88     		ldrh	r3, [r7, #6]
 515              		.loc 1 179 0
 516 019e 0132     		adds	r2, r2, #1
 517              		.loc 1 180 0
 518 01a0 0133     		adds	r3, r3, #1
 519              		.loc 1 179 0
 520 01a2 BA81     		strh	r2, [r7, #12]	@ movhi
 521              		.loc 1 180 0
 522 01a4 FB80     		strh	r3, [r7, #6]	@ movhi
 523 01a6 A2E7     		b	.L45
 524              	.L48:
 525              		.align	2
 526              	.L47:
 527 01a8 00000000 		.word	rlist
 528 01ac 00000000 		.word	.LC0
 529 01b0 00000000 		.word	.LANCHOR0
 530 01b4 00000000 		.word	ETHD1
 531 01b8 00000000 		.word	.LANCHOR1
 532 01bc 00000000 		.word	lwip_stats
 533 01c0 00000000 		.word	ethernetif_init
 534 01c4 00000000 		.word	tcpip_input
 535 01c8 20000000 		.word	ETHD1+32
 536 01cc 00000000 		.word	netif_set_link_up
 537 01d0 00000000 		.word	netif_set_link_down
 538              	.LBE25:
 539              	.LBE30:
 540              	.LBE32:
 541              	.LBE18:
 542              		.cfi_endproc
 543              	.LFE121:
 544              		.size	lwip_thread, .-lwip_thread
 545              		.global	wa_lwip_thread
 546 01d4 AFF30080 		.section	.rodata.mac_config.7115,"a",%progbits
 546      AFF30080 
 546      AFF30080 
 547              		.align	2
 548              		.set	.LANCHOR1,. + 0
 549              		.type	mac_config.7115, %object
 550              		.size	mac_config.7115, 4
 551              	mac_config.7115:
 552 0000 23000000 		.word	thisif.7114+35
 553              		.section	.bss.wa_lwip_thread,"aw",%nobits
 554              		.align	3
 555              		.type	wa_lwip_thread, %object
 556              		.size	wa_lwip_thread, 688
 557              	wa_lwip_thread:
 558 0000 00000000 		.space	688
 558      00000000 
 558      00000000 
 558      00000000 
 558      00000000 
 559              		.section	.bss.thisif.7114,"aw",%nobits
 560              		.align	2
 561              		.set	.LANCHOR0,. + 0
 562              		.type	thisif.7114, %object
ARM GAS  /var/folders/5n/p_75w94d66l9ssrldxqdhh700000gn/T//ccp9Ul8m.s 			page 11


 563              		.size	thisif.7114, 48
 564              	thisif.7114:
 565 0000 00000000 		.space	48
 565      00000000 
 565      00000000 
 565      00000000 
 565      00000000 
 566              		.section	.rodata.str1.4,"aMS",%progbits,1
 567              		.align	2
 568              	.LC0:
 569 0000 6C776970 		.ascii	"lwipthread\000"
 569      74687265 
 569      616400
 570 000b 00       		.text
 571              	.Letext0:
 572              		.file 2 "/usr/local/cross/lib/gcc/arm-none-eabi/4.7.2/include/stddef.h"
 573              		.file 3 "/usr/local/cross/lib/gcc/arm-none-eabi/4.7.2/../../../../arm-none-eabi/include/stdint.h"
 574              		.file 4 "../../os/ports/GCC/ARMCMx/chtypes.h"
 575              		.file 5 "../../os/kernel/include/chlists.h"
 576              		.file 6 "../../os/kernel/include/chthreads.h"
 577              		.file 7 "../../os/ports/GCC/ARMCMx/chcore_v7m.h"
 578              		.file 8 "../../os/kernel/include/chvt.h"
 579              		.file 9 "../../os/kernel/include/chschd.h"
 580              		.file 10 "../../os/kernel/include/chsem.h"
 581              		.file 11 "../../os/kernel/include/chmtx.h"
 582              		.file 12 "../../os/kernel/include/chevents.h"
 583              		.file 13 "../../os/hal/include/mac.h"
 584              		.file 14 "../../os/hal/platforms/STM32/mac_lld.h"
 585              		.file 15 "../../os/various/evtimer.h"
 586              		.file 16 "../../os/various/lwip_bindings/arch/cc.h"
 587              		.file 17 "../../ext/lwip-1.4.0/src/include/lwip/mem.h"
 588              		.file 18 "../../ext/lwip-1.4.0/src/include/lwip/err.h"
 589              		.file 19 "../../ext/lwip-1.4.0/src/include/lwip/pbuf.h"
 590              		.file 20 "../../ext/lwip-1.4.0/src/include/lwip/memp.h"
 591              		.file 21 "../../ext/lwip-1.4.0/src/include/lwip/stats.h"
 592              		.file 22 "../../ext/lwip-1.4.0/src/include/ipv4/lwip/ip_addr.h"
 593              		.file 23 "../../ext/lwip-1.4.0/src/include/lwip/netif.h"
 594              		.file 24 "../../ext/lwip-1.4.0/src/include/lwip/tcpip.h"
 595              		.file 25 "../../ext/lwip-1.4.0/src/include/netif/etharp.h"
 596              		.file 26 "../../os/various/lwip_bindings/lwipthread.h"
 597              		.file 27 "../../os/ports/common/ARMCMx/CMSIS/include/core_cm4.h"
 598              		.file 28 "../../ext/lwip-1.4.0/src/include/lwip/def.h"
 599              		.file 29 "../../ext/lwip-1.4.0/src/include/lwip/sys.h"