ARM GAS  /var/folders/5n/p_75w94d66l9ssrldxqdhh700000gn/T//ccp9Ul8m.s 			page 1


   1              		.syntax unified
   2              		.cpu cortex-m4
   3              		.fpu softvfp
   4              		.eabi_attribute 20, 1
   5              		.eabi_attribute 21, 1
   6              		.eabi_attribute 23, 3
   7              		.eabi_attribute 24, 1
   8              		.eabi_attribute 25, 1
   9              		.eabi_attribute 26, 1
  10              		.eabi_attribute 30, 2
  11              		.eabi_attribute 34, 1
  12              		.eabi_attribute 18, 4
  13              		.thumb
  14              		.file	"lwipthread.c"
  15              		.text
  16              	.Ltext0:
  17              		.cfi_sections	.debug_frame
  18              		.section	.text.ethernetif_init,"ax",%progbits
  19              		.align	2
  20              		.p2align 4,,15
  21              		.thumb
  22              		.thumb_func
  23              		.type	ethernetif_init, %function
  24              	ethernetif_init:
  25              	.LFB120:
  26              		.file 1 "../../os/various/lwip_bindings/lwipthread.c"
  27              		.loc 1 190 0
  28              		.cfi_startproc
  29              		@ args = 0, pretend = 0, frame = 0
  30              		@ frame_needed = 0, uses_anonymous_args = 0
  31              		@ link register save eliminated.
  32              	.LVL0:
  33              		.loc 1 190 0
  34 0000 0346     		mov	r3, r0
  35              		.loc 1 204 0
  36 0002 6D22     		movs	r2, #109
  37 0004 83F82A20 		strb	r2, [r3, #42]
  38              		.loc 1 205 0
  39 0008 7322     		movs	r2, #115
  40 000a 83F82B20 		strb	r2, [r3, #43]
  41              		.loc 1 210 0
  42 000e 40F20002 		movw	r2, #:lower16:etharp_output
  43 0012 C0F20002 		movt	r2, #:upper16:etharp_output
  44 0016 5A61     		str	r2, [r3, #20]
  45              		.loc 1 211 0
  46 0018 40F20002 		movw	r2, #:lower16:low_level_output
  47 001c C0F20002 		movt	r2, #:upper16:low_level_output
  48 0020 9A61     		str	r2, [r3, #24]
  49              	.LVL1:
  50              	.LBB4:
  51              	.LBB5:
  52              		.loc 1 100 0
  53 0022 0622     		movs	r2, #6
  54 0024 83F82220 		strb	r2, [r3, #34]
  55              		.loc 1 103 0
  56 0028 40F2DC52 		movw	r2, #1500
  57              	.LBE5:
ARM GAS  /var/folders/5n/p_75w94d66l9ssrldxqdhh700000gn/T//ccp9Ul8m.s 			page 2


  58              	.LBE4:
  59              		.loc 1 203 0
  60 002c 0020     		movs	r0, #0
  61              	.LVL2:
  62              	.LBB8:
  63              	.LBB6:
  64              		.loc 1 103 0
  65 002e 1A84     		strh	r2, [r3, #32]	@ movhi
  66              		.loc 1 107 0
  67 0030 3222     		movs	r2, #50
  68              	.LBE6:
  69              	.LBE8:
  70              		.loc 1 203 0
  71 0032 D861     		str	r0, [r3, #28]
  72              	.LBB9:
  73              	.LBB7:
  74              		.loc 1 107 0
  75 0034 83F82920 		strb	r2, [r3, #41]
  76              	.LBE7:
  77              	.LBE9:
  78              		.loc 1 217 0
  79 0038 7047     		bx	lr
  80              		.cfi_endproc
  81              	.LFE120:
  82              		.size	ethernetif_init, .-ethernetif_init
  83 003a 00BFAFF3 		.section	.text.low_level_output,"ax",%progbits
  83      0080
  84              		.align	2
  85              		.p2align 4,,15
  86              		.thumb
  87              		.thumb_func
  88              		.type	low_level_output, %function
  89              	low_level_output:
  90              	.LFB118:
  91              		.loc 1 115 0
  92              		.cfi_startproc
  93              		@ args = 0, pretend = 0, frame = 16
  94              		@ frame_needed = 0, uses_anonymous_args = 0
  95              	.LVL3:
  96 0000 10B5     		push	{r4, lr}
  97              	.LCFI0:
  98              		.cfi_def_cfa_offset 8
  99              		.cfi_offset 4, -8
 100              		.cfi_offset 14, -4
 101 0002 84B0     		sub	sp, sp, #16
 102              	.LCFI1:
 103              		.cfi_def_cfa_offset 24
 104              		.loc 1 115 0
 105 0004 0C46     		mov	r4, r1
 106              		.loc 1 120 0
 107 0006 0E48     		ldr	r0, .L12
 108              	.LVL4:
 109 0008 01A9     		add	r1, sp, #4
 110              	.LVL5:
 111 000a 3222     		movs	r2, #50
 112 000c FFF7FEFF 		bl	macWaitTransmitDescriptor
 113              	.LVL6:
ARM GAS  /var/folders/5n/p_75w94d66l9ssrldxqdhh700000gn/T//ccp9Ul8m.s 			page 3


 114 0010 98B9     		cbnz	r0, .L7
 115              	.LVL7:
 116              		.loc 1 128 0 discriminator 2
 117 0012 3CB1     		cbz	r4, .L11
 118              	.LVL8:
 119              	.L5:
 120              		.loc 1 129 0 discriminator 2
 121 0014 6168     		ldr	r1, [r4, #4]
 122 0016 6289     		ldrh	r2, [r4, #10]
 123 0018 01A8     		add	r0, sp, #4
 124 001a FFF7FEFF 		bl	mac_lld_write_transmit_descriptor
 125              	.LVL9:
 126              		.loc 1 128 0 discriminator 2
 127 001e 2468     		ldr	r4, [r4, #0]
 128              	.LVL10:
 129 0020 002C     		cmp	r4, #0
 130 0022 F7D1     		bne	.L5
 131              	.L11:
 132              		.loc 1 130 0
 133 0024 01A8     		add	r0, sp, #4
 134 0026 FFF7FEFF 		bl	macReleaseTransmitDescriptor
 135              	.LVL11:
 136              		.loc 1 136 0
 137 002a 064B     		ldr	r3, .L12+4
 138 002c 1A88     		ldrh	r2, [r3, #0]
 139 002e 0132     		adds	r2, r2, #1
 140 0030 1A80     		strh	r2, [r3, #0]	@ movhi
 141              		.loc 1 138 0
 142 0032 0020     		movs	r0, #0
 143              	.LVL12:
 144              	.L3:
 145              		.loc 1 139 0
 146 0034 40B2     		sxtb	r0, r0
 147 0036 04B0     		add	sp, sp, #16
 148 0038 10BD     		pop	{r4, pc}
 149              	.LVL13:
 150              	.L7:
 151              		.loc 1 121 0
 152 003a FD20     		movs	r0, #253
 153 003c FAE7     		b	.L3
 154              	.L13:
 155 003e 00BF     		.align	2
 156              	.L12:
 157 0040 00000000 		.word	ETHD1
 158 0044 00000000 		.word	lwip_stats
 159              		.cfi_endproc
 160              	.LFE118:
 161              		.size	low_level_output, .-low_level_output
 162 0048 AFF30080 		.section	.text.lwip_thread,"ax",%progbits
 162      AFF30080 
 163              		.align	2
 164              		.p2align 4,,15
 165              		.global	lwip_thread
 166              		.thumb
 167              		.thumb_func
 168              		.type	lwip_thread, %function
 169              	lwip_thread:
ARM GAS  /var/folders/5n/p_75w94d66l9ssrldxqdhh700000gn/T//ccp9Ul8m.s 			page 4


 170              	.LFB121:
 171              		.loc 1 225 0
 172              		.cfi_startproc
 173              		@ args = 0, pretend = 0, frame = 80
 174              		@ frame_needed = 0, uses_anonymous_args = 0
 175              	.LVL14:
 176 0000 2DE9F041 		push	{r4, r5, r6, r7, r8, lr}
 177              	.LCFI2:
 178              		.cfi_def_cfa_offset 24
 179              		.cfi_offset 4, -24
 180              		.cfi_offset 5, -20
 181              		.cfi_offset 6, -16
 182              		.cfi_offset 7, -12
 183              		.cfi_offset 8, -8
 184              		.cfi_offset 14, -4
 185              		.loc 1 232 0
 186 0004 684B     		ldr	r3, .L47
 187 0006 694A     		ldr	r2, .L47+4
 188 0008 DB69     		ldr	r3, [r3, #28]
 189 000a 694E     		ldr	r6, .L47+8
 190 000c 9A61     		str	r2, [r3, #24]
 191              		.loc 1 225 0
 192 000e 98B0     		sub	sp, sp, #96
 193              	.LCFI3:
 194              		.cfi_def_cfa_offset 120
 195              		.loc 1 225 0
 196 0010 0446     		mov	r4, r0
 197              		.loc 1 235 0
 198 0012 FFF7FEFF 		bl	sys_init
 199              	.LVL15:
 200              		.loc 1 236 0
 201 0016 FFF7FEFF 		bl	mem_init
 202              	.LVL16:
 203              		.loc 1 237 0
 204 001a FFF7FEFF 		bl	memp_init
 205              	.LVL17:
 206              		.loc 1 239 0
 207 001e FFF7FEFF 		bl	netif_init
 208              	.LVL18:
 209              		.loc 1 241 0
 210 0022 0020     		movs	r0, #0
 211 0024 0146     		mov	r1, r0
 212 0026 FFF7FEFF 		bl	tcpip_init
 213              	.LVL19:
 214              		.loc 1 244 0
 215 002a 7CB1     		cbz	r4, .L15
 216 002c 0023     		movs	r3, #0
 217              	.L16:
 218              	.LBB17:
 219              		.loc 1 249 0 discriminator 2
 220 002e 2268     		ldr	r2, [r4, #0]
 221              		.loc 1 225 0 discriminator 2
 222 0030 F118     		adds	r1, r6, r3
 223              		.loc 1 249 0 discriminator 2
 224 0032 D25C     		ldrb	r2, [r2, r3]	@ zero_extendqisi2
 225              		.loc 1 248 0 discriminator 2
 226 0034 0133     		adds	r3, r3, #1
ARM GAS  /var/folders/5n/p_75w94d66l9ssrldxqdhh700000gn/T//ccp9Ul8m.s 			page 5


 227              	.LVL20:
 228 0036 062B     		cmp	r3, #6
 229              		.loc 1 249 0 discriminator 2
 230 0038 81F82320 		strb	r2, [r1, #35]
 231              		.loc 1 248 0 discriminator 2
 232 003c F7D1     		bne	.L16
 233              		.loc 1 250 0
 234 003e 6168     		ldr	r1, [r4, #4]
 235              		.loc 1 251 0
 236 0040 E268     		ldr	r2, [r4, #12]
 237              		.loc 1 252 0
 238 0042 A368     		ldr	r3, [r4, #8]
 239              	.LVL21:
 240              		.loc 1 250 0
 241 0044 0591     		str	r1, [sp, #20]
 242              		.loc 1 251 0
 243 0046 0692     		str	r2, [sp, #24]
 244              		.loc 1 252 0
 245 0048 0793     		str	r3, [sp, #28]
 246 004a 1DE0     		b	.L17
 247              	.L15:
 248              	.LBE17:
 249              		.loc 1 255 0
 250 004c C221     		movs	r1, #194
 251 004e 86F82310 		strb	r1, [r6, #35]
 252              		.loc 1 256 0
 253 0052 AF21     		movs	r1, #175
 254              		.loc 1 261 0
 255 0054 4AF6C002 		movw	r2, #43200
 256              		.loc 1 256 0
 257 0058 86F82410 		strb	r1, [r6, #36]
 258              		.loc 1 257 0
 259 005c 5121     		movs	r1, #81
 260              		.loc 1 262 0
 261 005e 1346     		mov	r3, r2
 262              		.loc 1 257 0
 263 0060 86F82510 		strb	r1, [r6, #37]
 264              		.loc 1 258 0
 265 0064 0321     		movs	r1, #3
 266              		.loc 1 262 0
 267 0066 C0F20113 		movt	r3, 257
 268              		.loc 1 258 0
 269 006a 86F82610 		strb	r1, [r6, #38]
 270              		.loc 1 259 0
 271 006e CF21     		movs	r1, #207
 272              		.loc 1 261 0
 273 0070 C1F20142 		movt	r2, 5121
 274              		.loc 1 259 0
 275 0074 86F82710 		strb	r1, [r6, #39]
 276              		.loc 1 262 0
 277 0078 0693     		str	r3, [sp, #24]
 278              		.loc 1 260 0
 279 007a 4621     		movs	r1, #70
 280              		.loc 1 263 0
 281 007c 6FF07F43 		mvn	r3, #-16777216
 282              		.loc 1 260 0
 283 0080 86F82810 		strb	r1, [r6, #40]
ARM GAS  /var/folders/5n/p_75w94d66l9ssrldxqdhh700000gn/T//ccp9Ul8m.s 			page 6


 284              		.loc 1 261 0
 285 0084 0592     		str	r2, [sp, #20]
 286              		.loc 1 263 0
 287 0086 0793     		str	r3, [sp, #28]
 288              	.L17:
 289              		.loc 1 265 0
 290 0088 4A48     		ldr	r0, .L47+12
 291 008a 4B49     		ldr	r1, .L47+16
 292 008c 4B4F     		ldr	r7, .L47+20
 293 008e FFF7FEFF 		bl	macStart
 294              	.LVL22:
 295              		.loc 1 266 0
 296 0092 4B4B     		ldr	r3, .L47+24
 297 0094 4B48     		ldr	r0, .L47+28
 298 0096 0193     		str	r3, [sp, #4]
 299 0098 0024     		movs	r4, #0
 300              	.LVL23:
 301 009a 05A9     		add	r1, sp, #20
 302 009c 07AA     		add	r2, sp, #28
 303 009e 06AB     		add	r3, sp, #24
 304 00a0 0290     		str	r0, [sp, #8]
 305 00a2 0094     		str	r4, [sp, #0]
 306 00a4 4248     		ldr	r0, .L47+8
 307 00a6 FFF7FEFF 		bl	netif_add
 308              	.LVL24:
 309              		.loc 1 268 0
 310 00aa 4148     		ldr	r0, .L47+8
 311 00ac FFF7FEFF 		bl	netif_set_default
 312              	.LVL25:
 313              		.loc 1 269 0
 314 00b0 3F48     		ldr	r0, .L47+8
 315 00b2 FFF7FEFF 		bl	netif_set_up
 316              	.LVL26:
 317              		.loc 1 272 0
 318 00b6 16AD     		add	r5, sp, #88
 319 00b8 41F28833 		movw	r3, #5000
 320              		.loc 1 273 0
 321 00bc 11A8     		add	r0, sp, #68
 322              		.loc 1 272 0
 323 00be 1793     		str	r3, [sp, #92]
 324 00c0 1695     		str	r5, [sp, #88]
 325 00c2 1494     		str	r4, [sp, #80]
 326              		.loc 1 273 0
 327 00c4 FFF7FEFF 		bl	evtStart
 328              	.LVL27:
 329              		.loc 1 274 0
 330 00c8 2846     		mov	r0, r5
 331 00ca 08A9     		add	r1, sp, #32
 332 00cc 0122     		movs	r2, #1
 333 00ce FFF7FEFF 		bl	chEvtRegisterMask
 334              	.LVL28:
 335              		.loc 1 275 0
 336 00d2 0BA9     		add	r1, sp, #44
 337 00d4 0222     		movs	r2, #2
 338 00d6 3C48     		ldr	r0, .L47+32
 339 00d8 FFF7FEFF 		bl	chEvtRegisterMask
 340              	.LVL29:
ARM GAS  /var/folders/5n/p_75w94d66l9ssrldxqdhh700000gn/T//ccp9Ul8m.s 			page 7


 341              		.loc 1 276 0
 342 00dc 0320     		movs	r0, #3
 343 00de FFF7FEFF 		bl	chEvtAddFlags
 344              	.LVL30:
 345              		.loc 1 279 0
 346 00e2 0220     		movs	r0, #2
 347 00e4 FFF7FEFF 		bl	chThdSetPriority
 348              	.LVL31:
 349 00e8 01E0     		b	.L45
 350              	.LVL32:
 351              	.L19:
 352              	.LBB18:
 353              		.loc 1 294 0
 354 00ea A307     		lsls	r3, r4, #30
 355 00ec 19D4     		bmi	.L46
 356              	.LVL33:
 357              	.L45:
 358              		.loc 1 282 0
 359 00ee 4FF0FF30 		mov	r0, #-1
 360 00f2 FFF7FEFF 		bl	chEvtWaitAny
 361              	.LVL34:
 362              		.loc 1 283 0
 363 00f6 C207     		lsls	r2, r0, #31
 364              		.loc 1 282 0
 365 00f8 0446     		mov	r4, r0
 366              	.LVL35:
 367              		.loc 1 283 0
 368 00fa F6D5     		bpl	.L19
 369              	.LBB19:
 370              		.loc 1 284 0
 371 00fc 2D48     		ldr	r0, .L47+12
 372              	.LVL36:
 373 00fe FFF7FEFF 		bl	macPollLinkStatus
 374              	.LVL37:
 375              		.loc 1 285 0
 376 0102 96F82930 		ldrb	r3, [r6, #41]	@ zero_extendqisi2
 377 0106 C3F30013 		ubfx	r3, r3, #4, #1
 378 010a 9842     		cmp	r0, r3
 379              		.loc 1 284 0
 380 010c 0246     		mov	r2, r0
 381              	.LVL38:
 382              		.loc 1 285 0
 383 010e ECD0     		beq	.L19
 384              		.loc 1 286 0
 385 0110 0028     		cmp	r0, #0
 386 0112 33D0     		beq	.L21
 387              		.loc 1 287 0
 388 0114 0022     		movs	r2, #0
 389 0116 2649     		ldr	r1, .L47+8
 390 0118 2C48     		ldr	r0, .L47+36
 391              	.LVL39:
 392 011a FFF7FEFF 		bl	tcpip_callback_with_block
 393              	.LVL40:
 394              	.LBE19:
 395              		.loc 1 294 0
 396 011e A307     		lsls	r3, r4, #30
 397 0120 E5D5     		bpl	.L45
ARM GAS  /var/folders/5n/p_75w94d66l9ssrldxqdhh700000gn/T//ccp9Ul8m.s 			page 8


 398              	.L46:
 399              	.LBB20:
 400              	.LBB21:
 401              		.loc 1 298 0 discriminator 1
 402 0122 40F60608 		movw	r8, #2054
 403              	.LVL41:
 404              	.L44:
 405              	.LBE21:
 406              	.LBB22:
 407              	.LBB23:
 408              		.loc 1 150 0 discriminator 1
 409 0126 2348     		ldr	r0, .L47+12
 410 0128 0EA9     		add	r1, sp, #56
 411 012a 0022     		movs	r2, #0
 412 012c FFF7FEFF 		bl	macWaitReceiveDescriptor
 413              	.LVL42:
 414 0130 0028     		cmp	r0, #0
 415 0132 DCD1     		bne	.L45
 416              	.LVL43:
 417              		.loc 1 158 0
 418 0134 0320     		movs	r0, #3
 419 0136 BDF83C10 		ldrh	r1, [sp, #60]
 420 013a 0246     		mov	r2, r0
 421 013c FFF7FEFF 		bl	pbuf_alloc
 422              	.LVL44:
 423              		.loc 1 160 0
 424 0140 0546     		mov	r5, r0
 425 0142 38B3     		cbz	r0, .L28
 426 0144 0446     		mov	r4, r0
 427              	.LVL45:
 428              	.L29:
 429              		.loc 1 168 0
 430 0146 6168     		ldr	r1, [r4, #4]
 431 0148 6289     		ldrh	r2, [r4, #10]
 432 014a 0EA8     		add	r0, sp, #56
 433 014c FFF7FEFF 		bl	mac_lld_read_receive_descriptor
 434              	.LVL46:
 435              		.loc 1 167 0
 436 0150 2468     		ldr	r4, [r4, #0]
 437              	.LVL47:
 438 0152 002C     		cmp	r4, #0
 439 0154 F7D1     		bne	.L29
 440              		.loc 1 169 0
 441 0156 0EA8     		add	r0, sp, #56
 442 0158 FFF7FEFF 		bl	macReleaseReceiveDescriptor
 443              	.LVL48:
 444              		.loc 1 175 0
 445 015c 7A88     		ldrh	r2, [r7, #2]
 446              	.LBE23:
 447              	.LBE22:
 448              	.LBB26:
 449              		.loc 1 298 0
 450 015e 6B68     		ldr	r3, [r5, #4]
 451              	.LBE26:
 452              	.LBB27:
 453              	.LBB24:
 454              		.loc 1 175 0
ARM GAS  /var/folders/5n/p_75w94d66l9ssrldxqdhh700000gn/T//ccp9Ul8m.s 			page 9


 455 0160 0132     		adds	r2, r2, #1
 456 0162 7A80     		strh	r2, [r7, #2]	@ movhi
 457              	.LVL49:
 458              	.LBE24:
 459              	.LBE27:
 460              	.LBB28:
 461              		.loc 1 298 0
 462 0164 9889     		ldrh	r0, [r3, #12]	@ unaligned
 463 0166 FFF7FEFF 		bl	lwip_htons
 464              	.LVL50:
 465 016a B0F5006F 		cmp	r0, #2048
 466 016e 0AD0     		beq	.L24
 467 0170 4045     		cmp	r0, r8
 468 0172 08D0     		beq	.L24
 469              	.L26:
 470              		.loc 1 312 0
 471 0174 2846     		mov	r0, r5
 472 0176 FFF7FEFF 		bl	pbuf_free
 473              	.LVL51:
 474 017a D4E7     		b	.L44
 475              	.LVL52:
 476              	.L21:
 477              	.LBE28:
 478              	.LBE20:
 479              	.LBB31:
 480              		.loc 1 290 0
 481 017c 0C49     		ldr	r1, .L47+8
 482 017e 1448     		ldr	r0, .L47+40
 483              	.LVL53:
 484 0180 FFF7FEFF 		bl	tcpip_callback_with_block
 485              	.LVL54:
 486 0184 B1E7     		b	.L19
 487              	.LVL55:
 488              	.L24:
 489              	.LBE31:
 490              	.LBB32:
 491              	.LBB29:
 492              		.loc 1 308 0
 493 0186 3369     		ldr	r3, [r6, #16]
 494 0188 0949     		ldr	r1, .L47+8
 495 018a 2846     		mov	r0, r5
 496 018c 9847     		blx	r3
 497              	.LVL56:
 498 018e 0028     		cmp	r0, #0
 499 0190 C9D0     		beq	.L44
 500 0192 EFE7     		b	.L26
 501              	.LVL57:
 502              	.L28:
 503              	.LBE29:
 504              	.LBB30:
 505              	.LBB25:
 506              		.loc 1 178 0
 507 0194 0EA8     		add	r0, sp, #56
 508              	.LVL58:
 509 0196 FFF7FEFF 		bl	macReleaseReceiveDescriptor
 510              	.LVL59:
 511              		.loc 1 179 0
ARM GAS  /var/folders/5n/p_75w94d66l9ssrldxqdhh700000gn/T//ccp9Ul8m.s 			page 10


 512 019a BA89     		ldrh	r2, [r7, #12]
 513              		.loc 1 180 0
 514 019c FB88     		ldrh	r3, [r7, #6]
 515              		.loc 1 179 0
 516 019e 0132     		adds	r2, r2, #1
 517              		.loc 1 180 0
 518 01a0 0133     		adds	r3, r3, #1
 519              		.loc 1 179 0
 520 01a2 BA81     		strh	r2, [r7, #12]	@ movhi
 521              		.loc 1 180 0
 522 01a4 FB80     		strh	r3, [r7, #6]	@ movhi
 523 01a6 A2E7     		b	.L45
 524              	.L48:
 525              		.align	2
 526              	.L47:
 527 01a8 00000000 		.word	rlist
 528 01ac 00000000 		.word	.LC0
 529 01b0 00000000 		.word	.LANCHOR0
 530 01b4 00000000 		.word	ETHD1
 531 01b8 00000000 		.word	.LANCHOR1
 532 01bc 00000000 		.word	lwip_stats
 533 01c0 00000000 		.word	ethernetif_init
 534 01c4 00000000 		.word	tcpip_input
 535 01c8 20000000 		.word	ETHD1+32
 536 01cc 00000000 		.word	netif_set_link_up
 537 01d0 00000000 		.word	netif_set_link_down
 538              	.LBE25:
 539              	.LBE30:
 540              	.LBE32:
 541              	.LBE18:
 542              		.cfi_endproc
 543              	.LFE121:
 544              		.size	lwip_thread, .-lwip_thread
 545              		.global	wa_lwip_thread
 546 01d4 AFF30080 		.section	.rodata.mac_config.7115,"a",%progbits
 546      AFF30080 
 546      AFF30080 
 547              		.align	2
 548              		.set	.LANCHOR1,. + 0
 549              		.type	mac_config.7115, %object
 550              		.size	mac_config.7115, 4
 551              	mac_config.7115:
 552 0000 23000000 		.word	thisif.7114+35
 553              		.section	.bss.wa_lwip_thread,"aw",%nobits
 554              		.align	3
 555              		.type	wa_lwip_thread, %object
 556              		.size	wa_lwip_thread, 688
 557              	wa_lwip_thread:
 558 0000 00000000 		.space	688
 558      00000000 
 558      00000000 
 558      00000000 
 558      00000000 
 559              		.section	.bss.thisif.7114,"aw",%nobits
 560              		.align	2
 561              		.set	.LANCHOR0,. + 0
 562              		.type	thisif.7114, %object
ARM GAS  /var/folders/5n/p_75w94d66l9ssrldxqdhh700000gn/T//ccp9Ul8m.s 			page 11


 563              		.size	thisif.7114, 48
 564              	thisif.7114:
 565 0000 00000000 		.space	48
 565      00000000 
 565      00000000 
 565      00000000 
 565      00000000 
 566              		.section	.rodata.str1.4,"aMS",%progbits,1
 567              		.align	2
 568              	.LC0:
 569 0000 6C776970 		.ascii	"lwipthread\000"
 569      74687265 
 569      616400
 570 000b 00       		.text
 571              	.Letext0:
 572              		.file 2 "/usr/local/cross/lib/gcc/arm-none-eabi/4.7.2/include/stddef.h"
 573              		.file 3 "/usr/local/cross/lib/gcc/arm-none-eabi/4.7.2/../../../../arm-none-eabi/include/stdint.h"
 574              		.file 4 "../../os/ports/GCC/ARMCMx/chtypes.h"
 575              		.file 5 "../../os/kernel/include/chlists.h"
 576              		.file 6 "../../os/kernel/include/chthreads.h"
 577              		.file 7 "../../os/ports/GCC/ARMCMx/chcore_v7m.h"
 578              		.file 8 "../../os/kernel/include/chvt.h"
 579              		.file 9 "../../os/kernel/include/chschd.h"
 580              		.file 10 "../../os/kernel/include/chsem.h"
 581              		.file 11 "../../os/kernel/include/chmtx.h"
 582              		.file 12 "../../os/kernel/include/chevents.h"
 583              		.file 13 "../../os/hal/include/mac.h"
 584              		.file 14 "../../os/hal/platforms/STM32/mac_lld.h"
 585              		.file 15 "../../os/various/evtimer.h"
 586              		.file 16 "../../os/various/lwip_bindings/arch/cc.h"
 587              		.file 17 "../../ext/lwip-1.4.0/src/include/lwip/mem.h"
 588              		.file 18 "../../ext/lwip-1.4.0/src/include/lwip/err.h"
 589              		.file 19 "../../ext/lwip-1.4.0/src/include/lwip/pbuf.h"
 590              		.file 20 "../../ext/lwip-1.4.0/src/include/lwip/memp.h"
 591              		.file 21 "../../ext/lwip-1.4.0/src/include/lwip/stats.h"
 592              		.file 22 "../../ext/lwip-1.4.0/src/include/ipv4/lwip/ip_addr.h"
 593              		.file 23 "../../ext/lwip-1.4.0/src/include/lwip/netif.h"
 594              		.file 24 "../../ext/lwip-1.4.0/src/include/lwip/tcpip.h"
 595              		.file 25 "../../ext/lwip-1.4.0/src/include/netif/etharp.h"
 596              		.file 26 "../../os/various/lwip_bindings/lwipthread.h"
 597              		.file 27 "../../os/ports/common/ARMCMx/CMSIS/include/core_cm4.h"
 598              		.file 28 "../../ext/lwip-1.4.0/src/include/lwip/def.h"
 599              		.file 29 "../../ext/lwip-1.4.0/src/include/lwip/sys.h"
 600              		.section	.debug_info,"",%progbits
 601              	.Ldebug_info0:
 602 0000 8E150000 		.4byte	0x158e
 603 0004 0200     		.2byte	0x2
 604 0006 00000000 		.4byte	.Ldebug_abbrev0
 605 000a 04       		.byte	0x4
 606 000b 01       		.uleb128 0x1
 607 000c C3000000 		.4byte	.LASF243
 608 0010 01       		.byte	0x1
 609 0011 71020000 		.4byte	.LASF244
 610 0015 6D010000 		.4byte	.LASF245
 611 0019 B8000000 		.4byte	.Ldebug_ranges0+0xb8
 612 001d 00000000 		.4byte	0
 613 0021 00000000 		.4byte	0
ARM GAS  /var/folders/5n/p_75w94d66l9ssrldxqdhh700000gn/T//ccp9Ul8m.s 			page 12


 614 0025 00000000 		.4byte	.Ldebug_line0
 615 0029 02       		.uleb128 0x2
 616 002a 04       		.byte	0x4
 617 002b 05       		.byte	0x5
 618 002c 696E7400 		.ascii	"int\000"
 619 0030 03       		.uleb128 0x3
 620 0031 0F000000 		.4byte	.LASF1
 621 0035 02       		.byte	0x2
 622 0036 D5       		.byte	0xd5
 623 0037 3B000000 		.4byte	0x3b
 624 003b 04       		.uleb128 0x4
 625 003c 04       		.byte	0x4
 626 003d 07       		.byte	0x7
 627 003e C2050000 		.4byte	.LASF0
 628 0042 03       		.uleb128 0x3
 629 0043 00000000 		.4byte	.LASF2
 630 0047 03       		.byte	0x3
 631 0048 29       		.byte	0x29
 632 0049 4D000000 		.4byte	0x4d
 633 004d 04       		.uleb128 0x4
 634 004e 01       		.byte	0x1
 635 004f 06       		.byte	0x6
 636 0050 F5010000 		.4byte	.LASF3
 637 0054 03       		.uleb128 0x3
 638 0055 08020000 		.4byte	.LASF4
 639 0059 03       		.byte	0x3
 640 005a 2A       		.byte	0x2a
 641 005b 5F000000 		.4byte	0x5f
 642 005f 04       		.uleb128 0x4
 643 0060 01       		.byte	0x1
 644 0061 08       		.byte	0x8
 645 0062 9D020000 		.4byte	.LASF5
 646 0066 04       		.uleb128 0x4
 647 0067 02       		.byte	0x2
 648 0068 05       		.byte	0x5
 649 0069 48080000 		.4byte	.LASF6
 650 006d 03       		.uleb128 0x3
 651 006e 5C070000 		.4byte	.LASF7
 652 0072 03       		.byte	0x3
 653 0073 36       		.byte	0x36
 654 0074 78000000 		.4byte	0x78
 655 0078 04       		.uleb128 0x4
 656 0079 02       		.byte	0x2
 657 007a 07       		.byte	0x7
 658 007b 78090000 		.4byte	.LASF8
 659 007f 03       		.uleb128 0x3
 660 0080 74000000 		.4byte	.LASF9
 661 0084 03       		.byte	0x3
 662 0085 4F       		.byte	0x4f
 663 0086 8A000000 		.4byte	0x8a
 664 008a 04       		.uleb128 0x4
 665 008b 04       		.byte	0x4
 666 008c 05       		.byte	0x5
 667 008d 18010000 		.4byte	.LASF10
 668 0091 03       		.uleb128 0x3
 669 0092 E3080000 		.4byte	.LASF11
 670 0096 03       		.byte	0x3
ARM GAS  /var/folders/5n/p_75w94d66l9ssrldxqdhh700000gn/T//ccp9Ul8m.s 			page 13


 671 0097 50       		.byte	0x50
 672 0098 9C000000 		.4byte	0x9c
 673 009c 04       		.uleb128 0x4
 674 009d 04       		.byte	0x4
 675 009e 07       		.byte	0x7
 676 009f A7040000 		.4byte	.LASF12
 677 00a3 04       		.uleb128 0x4
 678 00a4 08       		.byte	0x8
 679 00a5 05       		.byte	0x5
 680 00a6 1C050000 		.4byte	.LASF13
 681 00aa 03       		.uleb128 0x3
 682 00ab 52080000 		.4byte	.LASF14
 683 00af 03       		.byte	0x3
 684 00b0 78       		.byte	0x78
 685 00b1 B5000000 		.4byte	0xb5
 686 00b5 04       		.uleb128 0x4
 687 00b6 08       		.byte	0x8
 688 00b7 07       		.byte	0x7
 689 00b8 0D070000 		.4byte	.LASF15
 690 00bc 03       		.uleb128 0x3
 691 00bd 6D080000 		.4byte	.LASF16
 692 00c1 04       		.byte	0x4
 693 00c2 2E       		.byte	0x2e
 694 00c3 7F000000 		.4byte	0x7f
 695 00c7 03       		.uleb128 0x3
 696 00c8 0E080000 		.4byte	.LASF17
 697 00cc 04       		.byte	0x4
 698 00cd 2F       		.byte	0x2f
 699 00ce 54000000 		.4byte	0x54
 700 00d2 03       		.uleb128 0x3
 701 00d3 4B010000 		.4byte	.LASF18
 702 00d7 04       		.byte	0x4
 703 00d8 30       		.byte	0x30
 704 00d9 54000000 		.4byte	0x54
 705 00dd 03       		.uleb128 0x3
 706 00de AA080000 		.4byte	.LASF19
 707 00e2 04       		.byte	0x4
 708 00e3 31       		.byte	0x31
 709 00e4 54000000 		.4byte	0x54
 710 00e8 03       		.uleb128 0x3
 711 00e9 38000000 		.4byte	.LASF20
 712 00ed 04       		.byte	0x4
 713 00ee 32       		.byte	0x32
 714 00ef 91000000 		.4byte	0x91
 715 00f3 03       		.uleb128 0x3
 716 00f4 65070000 		.4byte	.LASF21
 717 00f8 04       		.byte	0x4
 718 00f9 33       		.byte	0x33
 719 00fa 7F000000 		.4byte	0x7f
 720 00fe 03       		.uleb128 0x3
 721 00ff 5D020000 		.4byte	.LASF22
 722 0103 04       		.byte	0x4
 723 0104 35       		.byte	0x35
 724 0105 91000000 		.4byte	0x91
 725 0109 03       		.uleb128 0x3
 726 010a 1F000000 		.4byte	.LASF23
 727 010e 04       		.byte	0x4
ARM GAS  /var/folders/5n/p_75w94d66l9ssrldxqdhh700000gn/T//ccp9Ul8m.s 			page 14


 728 010f 36       		.byte	0x36
 729 0110 91000000 		.4byte	0x91
 730 0114 03       		.uleb128 0x3
 731 0115 E2030000 		.4byte	.LASF24
 732 0119 04       		.byte	0x4
 733 011a 37       		.byte	0x37
 734 011b 7F000000 		.4byte	0x7f
 735 011f 03       		.uleb128 0x3
 736 0120 74080000 		.4byte	.LASF25
 737 0124 05       		.byte	0x5
 738 0125 2A       		.byte	0x2a
 739 0126 2A010000 		.4byte	0x12a
 740 012a 05       		.uleb128 0x5
 741 012b 74080000 		.4byte	.LASF25
 742 012f 48       		.byte	0x48
 743 0130 06       		.byte	0x6
 744 0131 5E       		.byte	0x5e
 745 0132 41020000 		.4byte	0x241
 746 0136 06       		.uleb128 0x6
 747 0137 21010000 		.4byte	.LASF26
 748 013b 06       		.byte	0x6
 749 013c 5F       		.byte	0x5f
 750 013d 66020000 		.4byte	0x266
 751 0141 02       		.byte	0x2
 752 0142 23       		.byte	0x23
 753 0143 00       		.uleb128 0
 754 0144 06       		.uleb128 0x6
 755 0145 33010000 		.4byte	.LASF27
 756 0149 06       		.byte	0x6
 757 014a 61       		.byte	0x61
 758 014b 66020000 		.4byte	0x266
 759 014f 02       		.byte	0x2
 760 0150 23       		.byte	0x23
 761 0151 04       		.uleb128 0x4
 762 0152 06       		.uleb128 0x6
 763 0153 38030000 		.4byte	.LASF28
 764 0157 06       		.byte	0x6
 765 0158 63       		.byte	0x63
 766 0159 E8000000 		.4byte	0xe8
 767 015d 02       		.byte	0x2
 768 015e 23       		.byte	0x23
 769 015f 08       		.uleb128 0x8
 770 0160 06       		.uleb128 0x6
 771 0161 32000000 		.4byte	.LASF29
 772 0165 06       		.byte	0x6
 773 0166 64       		.byte	0x64
 774 0167 3E030000 		.4byte	0x33e
 775 016b 02       		.byte	0x2
 776 016c 23       		.byte	0x23
 777 016d 0C       		.uleb128 0xc
 778 016e 06       		.uleb128 0x6
 779 016f 10010000 		.4byte	.LASF30
 780 0173 06       		.byte	0x6
 781 0174 66       		.byte	0x66
 782 0175 66020000 		.4byte	0x266
 783 0179 02       		.byte	0x2
 784 017a 23       		.byte	0x23
ARM GAS  /var/folders/5n/p_75w94d66l9ssrldxqdhh700000gn/T//ccp9Ul8m.s 			page 15


 785 017b 10       		.uleb128 0x10
 786 017c 06       		.uleb128 0x6
 787 017d 47070000 		.4byte	.LASF31
 788 0181 06       		.byte	0x6
 789 0182 67       		.byte	0x67
 790 0183 66020000 		.4byte	0x266
 791 0187 02       		.byte	0x2
 792 0188 23       		.byte	0x23
 793 0189 14       		.uleb128 0x14
 794 018a 06       		.uleb128 0x6
 795 018b 060A0000 		.4byte	.LASF32
 796 018f 06       		.byte	0x6
 797 0190 6E       		.byte	0x6e
 798 0191 88050000 		.4byte	0x588
 799 0195 02       		.byte	0x2
 800 0196 23       		.byte	0x23
 801 0197 18       		.uleb128 0x18
 802 0198 06       		.uleb128 0x6
 803 0199 5B0A0000 		.4byte	.LASF33
 804 019d 06       		.byte	0x6
 805 019e 79       		.byte	0x79
 806 019f D2000000 		.4byte	0xd2
 807 01a3 02       		.byte	0x2
 808 01a4 23       		.byte	0x23
 809 01a5 1C       		.uleb128 0x1c
 810 01a6 06       		.uleb128 0x6
 811 01a7 AE050000 		.4byte	.LASF34
 812 01ab 06       		.byte	0x6
 813 01ac 7D       		.byte	0x7d
 814 01ad C7000000 		.4byte	0xc7
 815 01b1 02       		.byte	0x2
 816 01b2 23       		.byte	0x23
 817 01b3 1D       		.uleb128 0x1d
 818 01b4 06       		.uleb128 0x6
 819 01b5 F7050000 		.4byte	.LASF35
 820 01b9 06       		.byte	0x6
 821 01ba 82       		.byte	0x82
 822 01bb DD000000 		.4byte	0xdd
 823 01bf 02       		.byte	0x2
 824 01c0 23       		.byte	0x23
 825 01c1 1E       		.uleb128 0x1e
 826 01c2 06       		.uleb128 0x6
 827 01c3 78060000 		.4byte	.LASF36
 828 01c7 06       		.byte	0x6
 829 01c8 89       		.byte	0x89
 830 01c9 EE030000 		.4byte	0x3ee
 831 01cd 02       		.byte	0x2
 832 01ce 23       		.byte	0x23
 833 01cf 20       		.uleb128 0x20
 834 01d0 07       		.uleb128 0x7
 835 01d1 705F7500 		.ascii	"p_u\000"
 836 01d5 06       		.byte	0x6
 837 01d6 AE       		.byte	0xae
 838 01d7 53050000 		.4byte	0x553
 839 01db 02       		.byte	0x2
 840 01dc 23       		.byte	0x23
 841 01dd 24       		.uleb128 0x24
ARM GAS  /var/folders/5n/p_75w94d66l9ssrldxqdhh700000gn/T//ccp9Ul8m.s 			page 16


 842 01de 06       		.uleb128 0x6
 843 01df 9F050000 		.4byte	.LASF37
 844 01e3 06       		.byte	0x6
 845 01e4 B3       		.byte	0xb3
 846 01e5 8E020000 		.4byte	0x28e
 847 01e9 02       		.byte	0x2
 848 01ea 23       		.byte	0x23
 849 01eb 28       		.uleb128 0x28
 850 01ec 06       		.uleb128 0x6
 851 01ed 63000000 		.4byte	.LASF38
 852 01f1 06       		.byte	0x6
 853 01f2 B9       		.byte	0xb9
 854 01f3 6C020000 		.4byte	0x26c
 855 01f7 02       		.byte	0x2
 856 01f8 23       		.byte	0x23
 857 01f9 2C       		.uleb128 0x2c
 858 01fa 06       		.uleb128 0x6
 859 01fb 490A0000 		.4byte	.LASF39
 860 01ff 06       		.byte	0x6
 861 0200 BD       		.byte	0xbd
 862 0201 F3000000 		.4byte	0xf3
 863 0205 02       		.byte	0x2
 864 0206 23       		.byte	0x23
 865 0207 34       		.uleb128 0x34
 866 0208 06       		.uleb128 0x6
 867 0209 41040000 		.4byte	.LASF40
 868 020d 06       		.byte	0x6
 869 020e C3       		.byte	0xc3
 870 020f FE000000 		.4byte	0xfe
 871 0213 02       		.byte	0x2
 872 0214 23       		.byte	0x23
 873 0215 38       		.uleb128 0x38
 874 0216 06       		.uleb128 0x6
 875 0217 5A010000 		.4byte	.LASF41
 876 021b 06       		.byte	0x6
 877 021c CA       		.byte	0xca
 878 021d 9A050000 		.4byte	0x59a
 879 0221 02       		.byte	0x2
 880 0222 23       		.byte	0x23
 881 0223 3C       		.uleb128 0x3c
 882 0224 06       		.uleb128 0x6
 883 0225 C4060000 		.4byte	.LASF42
 884 0229 06       		.byte	0x6
 885 022a CE       		.byte	0xce
 886 022b E8000000 		.4byte	0xe8
 887 022f 02       		.byte	0x2
 888 0230 23       		.byte	0x23
 889 0231 40       		.uleb128 0x40
 890 0232 06       		.uleb128 0x6
 891 0233 E2050000 		.4byte	.LASF43
 892 0237 06       		.byte	0x6
 893 0238 D4       		.byte	0xd4
 894 0239 A4020000 		.4byte	0x2a4
 895 023d 02       		.byte	0x2
 896 023e 23       		.byte	0x23
 897 023f 44       		.uleb128 0x44
 898 0240 00       		.byte	0
ARM GAS  /var/folders/5n/p_75w94d66l9ssrldxqdhh700000gn/T//ccp9Ul8m.s 			page 17


 899 0241 08       		.uleb128 0x8
 900 0242 08       		.byte	0x8
 901 0243 05       		.byte	0x5
 902 0244 61       		.byte	0x61
 903 0245 66020000 		.4byte	0x266
 904 0249 06       		.uleb128 0x6
 905 024a 21010000 		.4byte	.LASF26
 906 024e 05       		.byte	0x5
 907 024f 62       		.byte	0x62
 908 0250 66020000 		.4byte	0x266
 909 0254 02       		.byte	0x2
 910 0255 23       		.byte	0x23
 911 0256 00       		.uleb128 0
 912 0257 06       		.uleb128 0x6
 913 0258 33010000 		.4byte	.LASF27
 914 025c 05       		.byte	0x5
 915 025d 64       		.byte	0x64
 916 025e 66020000 		.4byte	0x266
 917 0262 02       		.byte	0x2
 918 0263 23       		.byte	0x23
 919 0264 04       		.uleb128 0x4
 920 0265 00       		.byte	0
 921 0266 09       		.uleb128 0x9
 922 0267 04       		.byte	0x4
 923 0268 1F010000 		.4byte	0x11f
 924 026c 03       		.uleb128 0x3
 925 026d 13090000 		.4byte	.LASF44
 926 0271 05       		.byte	0x5
 927 0272 66       		.byte	0x66
 928 0273 41020000 		.4byte	0x241
 929 0277 08       		.uleb128 0x8
 930 0278 04       		.byte	0x4
 931 0279 05       		.byte	0x5
 932 027a 6B       		.byte	0x6b
 933 027b 8E020000 		.4byte	0x28e
 934 027f 06       		.uleb128 0x6
 935 0280 21010000 		.4byte	.LASF26
 936 0284 05       		.byte	0x5
 937 0285 6D       		.byte	0x6d
 938 0286 66020000 		.4byte	0x266
 939 028a 02       		.byte	0x2
 940 028b 23       		.byte	0x23
 941 028c 00       		.uleb128 0
 942 028d 00       		.byte	0
 943 028e 03       		.uleb128 0x3
 944 028f 35060000 		.4byte	.LASF45
 945 0293 05       		.byte	0x5
 946 0294 70       		.byte	0x70
 947 0295 77020000 		.4byte	0x277
 948 0299 03       		.uleb128 0x3
 949 029a 64010000 		.4byte	.LASF46
 950 029e 07       		.byte	0x7
 951 029f D7       		.byte	0xd7
 952 02a0 A4020000 		.4byte	0x2a4
 953 02a4 0A       		.uleb128 0xa
 954 02a5 04       		.byte	0x4
 955 02a6 03       		.uleb128 0x3
ARM GAS  /var/folders/5n/p_75w94d66l9ssrldxqdhh700000gn/T//ccp9Ul8m.s 			page 18


 956 02a7 98030000 		.4byte	.LASF47
 957 02ab 07       		.byte	0x7
 958 02ac DD       		.byte	0xdd
 959 02ad AA000000 		.4byte	0xaa
 960 02b1 05       		.uleb128 0x5
 961 02b2 3A040000 		.4byte	.LASF48
 962 02b6 24       		.byte	0x24
 963 02b7 07       		.byte	0x7
 964 02b8 FE       		.byte	0xfe
 965 02b9 3E030000 		.4byte	0x33e
 966 02bd 0B       		.uleb128 0xb
 967 02be 723400   		.ascii	"r4\000"
 968 02c1 07       		.byte	0x7
 969 02c2 1101     		.2byte	0x111
 970 02c4 99020000 		.4byte	0x299
 971 02c8 02       		.byte	0x2
 972 02c9 23       		.byte	0x23
 973 02ca 00       		.uleb128 0
 974 02cb 0B       		.uleb128 0xb
 975 02cc 723500   		.ascii	"r5\000"
 976 02cf 07       		.byte	0x7
 977 02d0 1201     		.2byte	0x112
 978 02d2 99020000 		.4byte	0x299
 979 02d6 02       		.byte	0x2
 980 02d7 23       		.byte	0x23
 981 02d8 04       		.uleb128 0x4
 982 02d9 0B       		.uleb128 0xb
 983 02da 723600   		.ascii	"r6\000"
 984 02dd 07       		.byte	0x7
 985 02de 1301     		.2byte	0x113
 986 02e0 99020000 		.4byte	0x299
 987 02e4 02       		.byte	0x2
 988 02e5 23       		.byte	0x23
 989 02e6 08       		.uleb128 0x8
 990 02e7 0B       		.uleb128 0xb
 991 02e8 723700   		.ascii	"r7\000"
 992 02eb 07       		.byte	0x7
 993 02ec 1401     		.2byte	0x114
 994 02ee 99020000 		.4byte	0x299
 995 02f2 02       		.byte	0x2
 996 02f3 23       		.byte	0x23
 997 02f4 0C       		.uleb128 0xc
 998 02f5 0B       		.uleb128 0xb
 999 02f6 723800   		.ascii	"r8\000"
 1000 02f9 07       		.byte	0x7
 1001 02fa 1501     		.2byte	0x115
 1002 02fc 99020000 		.4byte	0x299
 1003 0300 02       		.byte	0x2
 1004 0301 23       		.byte	0x23
 1005 0302 10       		.uleb128 0x10
 1006 0303 0B       		.uleb128 0xb
 1007 0304 723900   		.ascii	"r9\000"
 1008 0307 07       		.byte	0x7
 1009 0308 1601     		.2byte	0x116
 1010 030a 99020000 		.4byte	0x299
 1011 030e 02       		.byte	0x2
 1012 030f 23       		.byte	0x23
ARM GAS  /var/folders/5n/p_75w94d66l9ssrldxqdhh700000gn/T//ccp9Ul8m.s 			page 19


 1013 0310 14       		.uleb128 0x14
 1014 0311 0B       		.uleb128 0xb
 1015 0312 72313000 		.ascii	"r10\000"
 1016 0316 07       		.byte	0x7
 1017 0317 1701     		.2byte	0x117
 1018 0319 99020000 		.4byte	0x299
 1019 031d 02       		.byte	0x2
 1020 031e 23       		.byte	0x23
 1021 031f 18       		.uleb128 0x18
 1022 0320 0B       		.uleb128 0xb
 1023 0321 72313100 		.ascii	"r11\000"
 1024 0325 07       		.byte	0x7
 1025 0326 1801     		.2byte	0x118
 1026 0328 99020000 		.4byte	0x299
 1027 032c 02       		.byte	0x2
 1028 032d 23       		.byte	0x23
 1029 032e 1C       		.uleb128 0x1c
 1030 032f 0B       		.uleb128 0xb
 1031 0330 6C7200   		.ascii	"lr\000"
 1032 0333 07       		.byte	0x7
 1033 0334 1901     		.2byte	0x119
 1034 0336 99020000 		.4byte	0x299
 1035 033a 02       		.byte	0x2
 1036 033b 23       		.byte	0x23
 1037 033c 20       		.uleb128 0x20
 1038 033d 00       		.byte	0
 1039 033e 0C       		.uleb128 0xc
 1040 033f 69020000 		.4byte	.LASF49
 1041 0343 04       		.byte	0x4
 1042 0344 07       		.byte	0x7
 1043 0345 2301     		.2byte	0x123
 1044 0347 5B030000 		.4byte	0x35b
 1045 034b 0B       		.uleb128 0xb
 1046 034c 72313300 		.ascii	"r13\000"
 1047 0350 07       		.byte	0x7
 1048 0351 2401     		.2byte	0x124
 1049 0353 5B030000 		.4byte	0x35b
 1050 0357 02       		.byte	0x2
 1051 0358 23       		.byte	0x23
 1052 0359 00       		.uleb128 0
 1053 035a 00       		.byte	0
 1054 035b 09       		.uleb128 0x9
 1055 035c 04       		.byte	0x4
 1056 035d B1020000 		.4byte	0x2b1
 1057 0361 0D       		.uleb128 0xd
 1058 0362 91000000 		.4byte	0x91
 1059 0366 04       		.uleb128 0x4
 1060 0367 04       		.byte	0x4
 1061 0368 07       		.byte	0x7
 1062 0369 16000000 		.4byte	.LASF50
 1063 036d 03       		.uleb128 0x3
 1064 036e 7C000000 		.4byte	.LASF51
 1065 0372 08       		.byte	0x8
 1066 0373 53       		.byte	0x53
 1067 0374 78030000 		.4byte	0x378
 1068 0378 09       		.uleb128 0x9
 1069 0379 04       		.byte	0x4
ARM GAS  /var/folders/5n/p_75w94d66l9ssrldxqdhh700000gn/T//ccp9Ul8m.s 			page 20


 1070 037a 7E030000 		.4byte	0x37e
 1071 037e 0E       		.uleb128 0xe
 1072 037f 01       		.byte	0x1
 1073 0380 8A030000 		.4byte	0x38a
 1074 0384 0F       		.uleb128 0xf
 1075 0385 A4020000 		.4byte	0x2a4
 1076 0389 00       		.byte	0
 1077 038a 03       		.uleb128 0x3
 1078 038b EC080000 		.4byte	.LASF52
 1079 038f 08       		.byte	0x8
 1080 0390 58       		.byte	0x58
 1081 0391 95030000 		.4byte	0x395
 1082 0395 05       		.uleb128 0x5
 1083 0396 EC080000 		.4byte	.LASF52
 1084 039a 14       		.byte	0x14
 1085 039b 08       		.byte	0x8
 1086 039c 5F       		.byte	0x5f
 1087 039d E8030000 		.4byte	0x3e8
 1088 03a1 06       		.uleb128 0x6
 1089 03a2 32050000 		.4byte	.LASF53
 1090 03a6 08       		.byte	0x8
 1091 03a7 60       		.byte	0x60
 1092 03a8 E8030000 		.4byte	0x3e8
 1093 03ac 02       		.byte	0x2
 1094 03ad 23       		.byte	0x23
 1095 03ae 00       		.uleb128 0
 1096 03af 06       		.uleb128 0x6
 1097 03b0 C5020000 		.4byte	.LASF54
 1098 03b4 08       		.byte	0x8
 1099 03b5 62       		.byte	0x62
 1100 03b6 E8030000 		.4byte	0x3e8
 1101 03ba 02       		.byte	0x2
 1102 03bb 23       		.byte	0x23
 1103 03bc 04       		.uleb128 0x4
 1104 03bd 06       		.uleb128 0x6
 1105 03be 130A0000 		.4byte	.LASF55
 1106 03c2 08       		.byte	0x8
 1107 03c3 64       		.byte	0x64
 1108 03c4 09010000 		.4byte	0x109
 1109 03c8 02       		.byte	0x2
 1110 03c9 23       		.byte	0x23
 1111 03ca 08       		.uleb128 0x8
 1112 03cb 06       		.uleb128 0x6
 1113 03cc 12040000 		.4byte	.LASF56
 1114 03d0 08       		.byte	0x8
 1115 03d1 65       		.byte	0x65
 1116 03d2 6D030000 		.4byte	0x36d
 1117 03d6 02       		.byte	0x2
 1118 03d7 23       		.byte	0x23
 1119 03d8 0C       		.uleb128 0xc
 1120 03d9 06       		.uleb128 0x6
 1121 03da 00010000 		.4byte	.LASF57
 1122 03de 08       		.byte	0x8
 1123 03df 67       		.byte	0x67
 1124 03e0 A4020000 		.4byte	0x2a4
 1125 03e4 02       		.byte	0x2
 1126 03e5 23       		.byte	0x23
ARM GAS  /var/folders/5n/p_75w94d66l9ssrldxqdhh700000gn/T//ccp9Ul8m.s 			page 21


 1127 03e6 10       		.uleb128 0x10
 1128 03e7 00       		.byte	0
 1129 03e8 09       		.uleb128 0x9
 1130 03e9 04       		.byte	0x4
 1131 03ea 8A030000 		.4byte	0x38a
 1132 03ee 0D       		.uleb128 0xd
 1133 03ef 09010000 		.4byte	0x109
 1134 03f3 08       		.uleb128 0x8
 1135 03f4 20       		.byte	0x20
 1136 03f5 09       		.byte	0x9
 1137 03f6 5E       		.byte	0x5e
 1138 03f7 5E040000 		.4byte	0x45e
 1139 03fb 06       		.uleb128 0x6
 1140 03fc E2070000 		.4byte	.LASF58
 1141 0400 09       		.byte	0x9
 1142 0401 5F       		.byte	0x5f
 1143 0402 6C020000 		.4byte	0x26c
 1144 0406 02       		.byte	0x2
 1145 0407 23       		.byte	0x23
 1146 0408 00       		.uleb128 0
 1147 0409 06       		.uleb128 0x6
 1148 040a 66080000 		.4byte	.LASF59
 1149 040e 09       		.byte	0x9
 1150 040f 60       		.byte	0x60
 1151 0410 E8000000 		.4byte	0xe8
 1152 0414 02       		.byte	0x2
 1153 0415 23       		.byte	0x23
 1154 0416 08       		.uleb128 0x8
 1155 0417 06       		.uleb128 0x6
 1156 0418 6E000000 		.4byte	.LASF60
 1157 041c 09       		.byte	0x9
 1158 041d 62       		.byte	0x62
 1159 041e 3E030000 		.4byte	0x33e
 1160 0422 02       		.byte	0x2
 1161 0423 23       		.byte	0x23
 1162 0424 0C       		.uleb128 0xc
 1163 0425 06       		.uleb128 0x6
 1164 0426 D4020000 		.4byte	.LASF61
 1165 042a 09       		.byte	0x9
 1166 042b 65       		.byte	0x65
 1167 042c 66020000 		.4byte	0x266
 1168 0430 02       		.byte	0x2
 1169 0431 23       		.byte	0x23
 1170 0432 10       		.uleb128 0x10
 1171 0433 06       		.uleb128 0x6
 1172 0434 1E080000 		.4byte	.LASF62
 1173 0438 09       		.byte	0x9
 1174 0439 66       		.byte	0x66
 1175 043a 66020000 		.4byte	0x266
 1176 043e 02       		.byte	0x2
 1177 043f 23       		.byte	0x23
 1178 0440 14       		.uleb128 0x14
 1179 0441 06       		.uleb128 0x6
 1180 0442 BA060000 		.4byte	.LASF63
 1181 0446 09       		.byte	0x9
 1182 0447 6A       		.byte	0x6a
 1183 0448 14010000 		.4byte	0x114
ARM GAS  /var/folders/5n/p_75w94d66l9ssrldxqdhh700000gn/T//ccp9Ul8m.s 			page 22


 1184 044c 02       		.byte	0x2
 1185 044d 23       		.byte	0x23
 1186 044e 18       		.uleb128 0x18
 1187 044f 06       		.uleb128 0x6
 1188 0450 95070000 		.4byte	.LASF64
 1189 0454 09       		.byte	0x9
 1190 0455 6C       		.byte	0x6c
 1191 0456 66020000 		.4byte	0x266
 1192 045a 02       		.byte	0x2
 1193 045b 23       		.byte	0x23
 1194 045c 1C       		.uleb128 0x1c
 1195 045d 00       		.byte	0
 1196 045e 03       		.uleb128 0x3
 1197 045f E4090000 		.4byte	.LASF65
 1198 0463 09       		.byte	0x9
 1199 0464 6E       		.byte	0x6e
 1200 0465 F3030000 		.4byte	0x3f3
 1201 0469 05       		.uleb128 0x5
 1202 046a B0060000 		.4byte	.LASF66
 1203 046e 0C       		.byte	0xc
 1204 046f 0A       		.byte	0xa
 1205 0470 2C       		.byte	0x2c
 1206 0471 92040000 		.4byte	0x492
 1207 0475 06       		.uleb128 0x6
 1208 0476 36080000 		.4byte	.LASF67
 1209 047a 0A       		.byte	0xa
 1210 047b 2D       		.byte	0x2d
 1211 047c 6C020000 		.4byte	0x26c
 1212 0480 02       		.byte	0x2
 1213 0481 23       		.byte	0x23
 1214 0482 00       		.uleb128 0
 1215 0483 06       		.uleb128 0x6
 1216 0484 EE060000 		.4byte	.LASF68
 1217 0488 0A       		.byte	0xa
 1218 0489 2F       		.byte	0x2f
 1219 048a 14010000 		.4byte	0x114
 1220 048e 02       		.byte	0x2
 1221 048f 23       		.byte	0x23
 1222 0490 08       		.uleb128 0x8
 1223 0491 00       		.byte	0
 1224 0492 03       		.uleb128 0x3
 1225 0493 B0060000 		.4byte	.LASF66
 1226 0497 0A       		.byte	0xa
 1227 0498 30       		.byte	0x30
 1228 0499 69040000 		.4byte	0x469
 1229 049d 05       		.uleb128 0x5
 1230 049e 16050000 		.4byte	.LASF69
 1231 04a2 10       		.byte	0x10
 1232 04a3 0B       		.byte	0xb
 1233 04a4 2C       		.byte	0x2c
 1234 04a5 D4040000 		.4byte	0x4d4
 1235 04a9 06       		.uleb128 0x6
 1236 04aa 2A050000 		.4byte	.LASF70
 1237 04ae 0B       		.byte	0xb
 1238 04af 2D       		.byte	0x2d
 1239 04b0 6C020000 		.4byte	0x26c
 1240 04b4 02       		.byte	0x2
ARM GAS  /var/folders/5n/p_75w94d66l9ssrldxqdhh700000gn/T//ccp9Ul8m.s 			page 23


 1241 04b5 23       		.byte	0x23
 1242 04b6 00       		.uleb128 0
 1243 04b7 06       		.uleb128 0x6
 1244 04b8 F8000000 		.4byte	.LASF71
 1245 04bc 0B       		.byte	0xb
 1246 04bd 2F       		.byte	0x2f
 1247 04be 66020000 		.4byte	0x266
 1248 04c2 02       		.byte	0x2
 1249 04c3 23       		.byte	0x23
 1250 04c4 08       		.uleb128 0x8
 1251 04c5 06       		.uleb128 0x6
 1252 04c6 1B0A0000 		.4byte	.LASF72
 1253 04ca 0B       		.byte	0xb
 1254 04cb 31       		.byte	0x31
 1255 04cc D4040000 		.4byte	0x4d4
 1256 04d0 02       		.byte	0x2
 1257 04d1 23       		.byte	0x23
 1258 04d2 0C       		.uleb128 0xc
 1259 04d3 00       		.byte	0
 1260 04d4 09       		.uleb128 0x9
 1261 04d5 04       		.byte	0x4
 1262 04d6 9D040000 		.4byte	0x49d
 1263 04da 03       		.uleb128 0x3
 1264 04db 16050000 		.4byte	.LASF69
 1265 04df 0B       		.byte	0xb
 1266 04e0 33       		.byte	0x33
 1267 04e1 9D040000 		.4byte	0x49d
 1268 04e5 03       		.uleb128 0x3
 1269 04e6 BD080000 		.4byte	.LASF73
 1270 04ea 0C       		.byte	0xc
 1271 04eb 29       		.byte	0x29
 1272 04ec F0040000 		.4byte	0x4f0
 1273 04f0 05       		.uleb128 0x5
 1274 04f1 BD080000 		.4byte	.LASF73
 1275 04f5 0C       		.byte	0xc
 1276 04f6 0C       		.byte	0xc
 1277 04f7 2E       		.byte	0x2e
 1278 04f8 27050000 		.4byte	0x527
 1279 04fc 06       		.uleb128 0x6
 1280 04fd DC040000 		.4byte	.LASF74
 1281 0501 0C       		.byte	0xc
 1282 0502 2F       		.byte	0x2f
 1283 0503 27050000 		.4byte	0x527
 1284 0507 02       		.byte	0x2
 1285 0508 23       		.byte	0x23
 1286 0509 00       		.uleb128 0
 1287 050a 06       		.uleb128 0x6
 1288 050b 4F0A0000 		.4byte	.LASF75
 1289 050f 0C       		.byte	0xc
 1290 0510 32       		.byte	0x32
 1291 0511 66020000 		.4byte	0x266
 1292 0515 02       		.byte	0x2
 1293 0516 23       		.byte	0x23
 1294 0517 04       		.uleb128 0x4
 1295 0518 06       		.uleb128 0x6
 1296 0519 DC090000 		.4byte	.LASF76
 1297 051d 0C       		.byte	0xc
ARM GAS  /var/folders/5n/p_75w94d66l9ssrldxqdhh700000gn/T//ccp9Ul8m.s 			page 24


 1298 051e 34       		.byte	0x34
 1299 051f FE000000 		.4byte	0xfe
 1300 0523 02       		.byte	0x2
 1301 0524 23       		.byte	0x23
 1302 0525 08       		.uleb128 0x8
 1303 0526 00       		.byte	0
 1304 0527 09       		.uleb128 0x9
 1305 0528 04       		.byte	0x4
 1306 0529 E5040000 		.4byte	0x4e5
 1307 052d 05       		.uleb128 0x5
 1308 052e 9B040000 		.4byte	.LASF77
 1309 0532 04       		.byte	0x4
 1310 0533 0C       		.byte	0xc
 1311 0534 3C       		.byte	0x3c
 1312 0535 48050000 		.4byte	0x548
 1313 0539 06       		.uleb128 0x6
 1314 053a 81040000 		.4byte	.LASF78
 1315 053e 0C       		.byte	0xc
 1316 053f 3D       		.byte	0x3d
 1317 0540 27050000 		.4byte	0x527
 1318 0544 02       		.byte	0x2
 1319 0545 23       		.byte	0x23
 1320 0546 00       		.uleb128 0
 1321 0547 00       		.byte	0
 1322 0548 03       		.uleb128 0x3
 1323 0549 9B040000 		.4byte	.LASF77
 1324 054d 0C       		.byte	0xc
 1325 054e 40       		.byte	0x40
 1326 054f 2D050000 		.4byte	0x52d
 1327 0553 10       		.uleb128 0x10
 1328 0554 04       		.byte	0x4
 1329 0555 06       		.byte	0x6
 1330 0556 90       		.byte	0x90
 1331 0557 88050000 		.4byte	0x588
 1332 055b 11       		.uleb128 0x11
 1333 055c 56090000 		.4byte	.LASF79
 1334 0560 06       		.byte	0x6
 1335 0561 97       		.byte	0x97
 1336 0562 F3000000 		.4byte	0xf3
 1337 0566 11       		.uleb128 0x11
 1338 0567 07010000 		.4byte	.LASF80
 1339 056b 06       		.byte	0x6
 1340 056c 9E       		.byte	0x9e
 1341 056d F3000000 		.4byte	0xf3
 1342 0571 11       		.uleb128 0x11
 1343 0572 52030000 		.4byte	.LASF81
 1344 0576 06       		.byte	0x6
 1345 0577 A5       		.byte	0xa5
 1346 0578 A4020000 		.4byte	0x2a4
 1347 057c 11       		.uleb128 0x11
 1348 057d 01020000 		.4byte	.LASF82
 1349 0581 06       		.byte	0x6
 1350 0582 AC       		.byte	0xac
 1351 0583 FE000000 		.4byte	0xfe
 1352 0587 00       		.byte	0
 1353 0588 09       		.uleb128 0x9
 1354 0589 04       		.byte	0x4
ARM GAS  /var/folders/5n/p_75w94d66l9ssrldxqdhh700000gn/T//ccp9Ul8m.s 			page 25


 1355 058a 8E050000 		.4byte	0x58e
 1356 058e 12       		.uleb128 0x12
 1357 058f 93050000 		.4byte	0x593
 1358 0593 04       		.uleb128 0x4
 1359 0594 01       		.byte	0x1
 1360 0595 08       		.byte	0x8
 1361 0596 21030000 		.4byte	.LASF83
 1362 059a 09       		.uleb128 0x9
 1363 059b 04       		.byte	0x4
 1364 059c DA040000 		.4byte	0x4da
 1365 05a0 09       		.uleb128 0x9
 1366 05a1 04       		.byte	0x4
 1367 05a2 54000000 		.4byte	0x54
 1368 05a6 0D       		.uleb128 0xd
 1369 05a7 7F000000 		.4byte	0x7f
 1370 05ab 13       		.uleb128 0x13
 1371 05ac 01       		.byte	0x1
 1372 05ad 0D       		.byte	0xd
 1373 05ae 4F       		.byte	0x4f
 1374 05af C6050000 		.4byte	0x5c6
 1375 05b3 14       		.uleb128 0x14
 1376 05b4 CF000000 		.4byte	.LASF84
 1377 05b8 00       		.sleb128 0
 1378 05b9 14       		.uleb128 0x14
 1379 05ba 2D090000 		.4byte	.LASF85
 1380 05be 01       		.sleb128 1
 1381 05bf 14       		.uleb128 0x14
 1382 05c0 3A050000 		.4byte	.LASF86
 1383 05c4 02       		.sleb128 2
 1384 05c5 00       		.byte	0
 1385 05c6 03       		.uleb128 0x3
 1386 05c7 B2080000 		.4byte	.LASF87
 1387 05cb 0D       		.byte	0xd
 1388 05cc 53       		.byte	0x53
 1389 05cd AB050000 		.4byte	0x5ab
 1390 05d1 03       		.uleb128 0x3
 1391 05d2 FF040000 		.4byte	.LASF88
 1392 05d6 0D       		.byte	0xd
 1393 05d7 58       		.byte	0x58
 1394 05d8 DC050000 		.4byte	0x5dc
 1395 05dc 05       		.uleb128 0x5
 1396 05dd FF040000 		.4byte	.LASF88
 1397 05e1 34       		.byte	0x34
 1398 05e2 0E       		.byte	0xe
 1399 05e3 EB       		.byte	0xeb
 1400 05e4 6C060000 		.4byte	0x66c
 1401 05e8 06       		.uleb128 0x6
 1402 05e9 B2000000 		.4byte	.LASF89
 1403 05ed 0E       		.byte	0xe
 1404 05ee EF       		.byte	0xef
 1405 05ef C6050000 		.4byte	0x5c6
 1406 05f3 02       		.byte	0x2
 1407 05f4 23       		.byte	0x23
 1408 05f5 00       		.uleb128 0
 1409 05f6 06       		.uleb128 0x6
 1410 05f7 AB000000 		.4byte	.LASF90
 1411 05fb 0E       		.byte	0xe
ARM GAS  /var/folders/5n/p_75w94d66l9ssrldxqdhh700000gn/T//ccp9Ul8m.s 			page 26


 1412 05fc F3       		.byte	0xf3
 1413 05fd 26070000 		.4byte	0x726
 1414 0601 02       		.byte	0x2
 1415 0602 23       		.byte	0x23
 1416 0603 04       		.uleb128 0x4
 1417 0604 06       		.uleb128 0x6
 1418 0605 0D0A0000 		.4byte	.LASF91
 1419 0609 0E       		.byte	0xe
 1420 060a F7       		.byte	0xf7
 1421 060b 92040000 		.4byte	0x492
 1422 060f 02       		.byte	0x2
 1423 0610 23       		.byte	0x23
 1424 0611 08       		.uleb128 0x8
 1425 0612 06       		.uleb128 0x6
 1426 0613 3F030000 		.4byte	.LASF92
 1427 0617 0E       		.byte	0xe
 1428 0618 FB       		.byte	0xfb
 1429 0619 92040000 		.4byte	0x492
 1430 061d 02       		.byte	0x2
 1431 061e 23       		.byte	0x23
 1432 061f 14       		.uleb128 0x14
 1433 0620 15       		.uleb128 0x15
 1434 0621 72030000 		.4byte	.LASF93
 1435 0625 0E       		.byte	0xe
 1436 0626 0001     		.2byte	0x100
 1437 0628 48050000 		.4byte	0x548
 1438 062c 02       		.byte	0x2
 1439 062d 23       		.byte	0x23
 1440 062e 20       		.uleb128 0x20
 1441 062f 15       		.uleb128 0x15
 1442 0630 16080000 		.4byte	.LASF94
 1443 0634 0E       		.byte	0xe
 1444 0635 0601     		.2byte	0x106
 1445 0637 BC000000 		.4byte	0xbc
 1446 063b 02       		.byte	0x2
 1447 063c 23       		.byte	0x23
 1448 063d 24       		.uleb128 0x24
 1449 063e 15       		.uleb128 0x15
 1450 063f A3000000 		.4byte	.LASF95
 1451 0643 0E       		.byte	0xe
 1452 0644 0A01     		.2byte	0x10a
 1453 0646 91000000 		.4byte	0x91
 1454 064a 02       		.byte	0x2
 1455 064b 23       		.byte	0x23
 1456 064c 28       		.uleb128 0x28
 1457 064d 15       		.uleb128 0x15
 1458 064e 32030000 		.4byte	.LASF96
 1459 0652 0E       		.byte	0xe
 1460 0653 0E01     		.2byte	0x10e
 1461 0655 31070000 		.4byte	0x731
 1462 0659 02       		.byte	0x2
 1463 065a 23       		.byte	0x23
 1464 065b 2C       		.uleb128 0x2c
 1465 065c 15       		.uleb128 0x15
 1466 065d F7090000 		.4byte	.LASF97
 1467 0661 0E       		.byte	0xe
 1468 0662 1201     		.2byte	0x112
ARM GAS  /var/folders/5n/p_75w94d66l9ssrldxqdhh700000gn/T//ccp9Ul8m.s 			page 27


 1469 0664 37070000 		.4byte	0x737
 1470 0668 02       		.byte	0x2
 1471 0669 23       		.byte	0x23
 1472 066a 30       		.uleb128 0x30
 1473 066b 00       		.byte	0
 1474 066c 08       		.uleb128 0x8
 1475 066d 10       		.byte	0x10
 1476 066e 0E       		.byte	0xe
 1477 066f CC       		.byte	0xcc
 1478 0670 AD060000 		.4byte	0x6ad
 1479 0674 06       		.uleb128 0x6
 1480 0675 CB080000 		.4byte	.LASF98
 1481 0679 0E       		.byte	0xe
 1482 067a CD       		.byte	0xcd
 1483 067b 61030000 		.4byte	0x361
 1484 067f 02       		.byte	0x2
 1485 0680 23       		.byte	0x23
 1486 0681 00       		.uleb128 0
 1487 0682 06       		.uleb128 0x6
 1488 0683 D1080000 		.4byte	.LASF99
 1489 0687 0E       		.byte	0xe
 1490 0688 CE       		.byte	0xce
 1491 0689 61030000 		.4byte	0x361
 1492 068d 02       		.byte	0x2
 1493 068e 23       		.byte	0x23
 1494 068f 04       		.uleb128 0x4
 1495 0690 06       		.uleb128 0x6
 1496 0691 D7080000 		.4byte	.LASF100
 1497 0695 0E       		.byte	0xe
 1498 0696 CF       		.byte	0xcf
 1499 0697 61030000 		.4byte	0x361
 1500 069b 02       		.byte	0x2
 1501 069c 23       		.byte	0x23
 1502 069d 08       		.uleb128 0x8
 1503 069e 06       		.uleb128 0x6
 1504 069f DD080000 		.4byte	.LASF101
 1505 06a3 0E       		.byte	0xe
 1506 06a4 D0       		.byte	0xd0
 1507 06a5 61030000 		.4byte	0x361
 1508 06a9 02       		.byte	0x2
 1509 06aa 23       		.byte	0x23
 1510 06ab 0C       		.uleb128 0xc
 1511 06ac 00       		.byte	0
 1512 06ad 03       		.uleb128 0x3
 1513 06ae AB020000 		.4byte	.LASF102
 1514 06b2 0E       		.byte	0xe
 1515 06b3 D1       		.byte	0xd1
 1516 06b4 6C060000 		.4byte	0x66c
 1517 06b8 08       		.uleb128 0x8
 1518 06b9 10       		.byte	0x10
 1519 06ba 0E       		.byte	0xe
 1520 06bb D6       		.byte	0xd6
 1521 06bc F9060000 		.4byte	0x6f9
 1522 06c0 06       		.uleb128 0x6
 1523 06c1 08060000 		.4byte	.LASF103
 1524 06c5 0E       		.byte	0xe
 1525 06c6 D7       		.byte	0xd7
ARM GAS  /var/folders/5n/p_75w94d66l9ssrldxqdhh700000gn/T//ccp9Ul8m.s 			page 28


 1526 06c7 61030000 		.4byte	0x361
 1527 06cb 02       		.byte	0x2
 1528 06cc 23       		.byte	0x23
 1529 06cd 00       		.uleb128 0
 1530 06ce 06       		.uleb128 0x6
 1531 06cf 0E060000 		.4byte	.LASF104
 1532 06d3 0E       		.byte	0xe
 1533 06d4 D8       		.byte	0xd8
 1534 06d5 61030000 		.4byte	0x361
 1535 06d9 02       		.byte	0x2
 1536 06da 23       		.byte	0x23
 1537 06db 04       		.uleb128 0x4
 1538 06dc 06       		.uleb128 0x6
 1539 06dd 14060000 		.4byte	.LASF105
 1540 06e1 0E       		.byte	0xe
 1541 06e2 D9       		.byte	0xd9
 1542 06e3 61030000 		.4byte	0x361
 1543 06e7 02       		.byte	0x2
 1544 06e8 23       		.byte	0x23
 1545 06e9 08       		.uleb128 0x8
 1546 06ea 06       		.uleb128 0x6
 1547 06eb 1A060000 		.4byte	.LASF106
 1548 06ef 0E       		.byte	0xe
 1549 06f0 DA       		.byte	0xda
 1550 06f1 61030000 		.4byte	0x361
 1551 06f5 02       		.byte	0x2
 1552 06f6 23       		.byte	0x23
 1553 06f7 0C       		.uleb128 0xc
 1554 06f8 00       		.byte	0
 1555 06f9 03       		.uleb128 0x3
 1556 06fa 8B090000 		.4byte	.LASF107
 1557 06fe 0E       		.byte	0xe
 1558 06ff DB       		.byte	0xdb
 1559 0700 B8060000 		.4byte	0x6b8
 1560 0704 08       		.uleb128 0x8
 1561 0705 04       		.byte	0x4
 1562 0706 0E       		.byte	0xe
 1563 0707 E0       		.byte	0xe0
 1564 0708 1B070000 		.4byte	0x71b
 1565 070c 06       		.uleb128 0x6
 1566 070d C4010000 		.4byte	.LASF108
 1567 0711 0E       		.byte	0xe
 1568 0712 E4       		.byte	0xe4
 1569 0713 A0050000 		.4byte	0x5a0
 1570 0717 02       		.byte	0x2
 1571 0718 23       		.byte	0x23
 1572 0719 00       		.uleb128 0
 1573 071a 00       		.byte	0
 1574 071b 03       		.uleb128 0x3
 1575 071c C4070000 		.4byte	.LASF109
 1576 0720 0E       		.byte	0xe
 1577 0721 E6       		.byte	0xe6
 1578 0722 04070000 		.4byte	0x704
 1579 0726 09       		.uleb128 0x9
 1580 0727 04       		.byte	0x4
 1581 0728 2C070000 		.4byte	0x72c
 1582 072c 12       		.uleb128 0x12
ARM GAS  /var/folders/5n/p_75w94d66l9ssrldxqdhh700000gn/T//ccp9Ul8m.s 			page 29


 1583 072d 1B070000 		.4byte	0x71b
 1584 0731 09       		.uleb128 0x9
 1585 0732 04       		.byte	0x4
 1586 0733 AD060000 		.4byte	0x6ad
 1587 0737 09       		.uleb128 0x9
 1588 0738 04       		.byte	0x4
 1589 0739 F9060000 		.4byte	0x6f9
 1590 073d 16       		.uleb128 0x16
 1591 073e 0C       		.byte	0xc
 1592 073f 0E       		.byte	0xe
 1593 0740 1801     		.2byte	0x118
 1594 0742 74070000 		.4byte	0x774
 1595 0746 15       		.uleb128 0x15
 1596 0747 4B060000 		.4byte	.LASF110
 1597 074b 0E       		.byte	0xe
 1598 074c 1C01     		.2byte	0x11c
 1599 074e 30000000 		.4byte	0x30
 1600 0752 02       		.byte	0x2
 1601 0753 23       		.byte	0x23
 1602 0754 00       		.uleb128 0
 1603 0755 15       		.uleb128 0x15
 1604 0756 08070000 		.4byte	.LASF111
 1605 075a 0E       		.byte	0xe
 1606 075b 2001     		.2byte	0x120
 1607 075d 30000000 		.4byte	0x30
 1608 0761 02       		.byte	0x2
 1609 0762 23       		.byte	0x23
 1610 0763 04       		.uleb128 0x4
 1611 0764 15       		.uleb128 0x15
 1612 0765 6F090000 		.4byte	.LASF112
 1613 0769 0E       		.byte	0xe
 1614 076a 2501     		.2byte	0x125
 1615 076c 37070000 		.4byte	0x737
 1616 0770 02       		.byte	0x2
 1617 0771 23       		.byte	0x23
 1618 0772 08       		.uleb128 0x8
 1619 0773 00       		.byte	0
 1620 0774 17       		.uleb128 0x17
 1621 0775 24070000 		.4byte	.LASF113
 1622 0779 0E       		.byte	0xe
 1623 077a 2601     		.2byte	0x126
 1624 077c 3D070000 		.4byte	0x73d
 1625 0780 16       		.uleb128 0x16
 1626 0781 0C       		.byte	0xc
 1627 0782 0E       		.byte	0xe
 1628 0783 2B01     		.2byte	0x12b
 1629 0785 B7070000 		.4byte	0x7b7
 1630 0789 15       		.uleb128 0x15
 1631 078a 4B060000 		.4byte	.LASF110
 1632 078e 0E       		.byte	0xe
 1633 078f 2F01     		.2byte	0x12f
 1634 0791 30000000 		.4byte	0x30
 1635 0795 02       		.byte	0x2
 1636 0796 23       		.byte	0x23
 1637 0797 00       		.uleb128 0
 1638 0798 15       		.uleb128 0x15
 1639 0799 08070000 		.4byte	.LASF111
ARM GAS  /var/folders/5n/p_75w94d66l9ssrldxqdhh700000gn/T//ccp9Ul8m.s 			page 30


 1640 079d 0E       		.byte	0xe
 1641 079e 3301     		.2byte	0x133
 1642 07a0 30000000 		.4byte	0x30
 1643 07a4 02       		.byte	0x2
 1644 07a5 23       		.byte	0x23
 1645 07a6 04       		.uleb128 0x4
 1646 07a7 15       		.uleb128 0x15
 1647 07a8 6F090000 		.4byte	.LASF112
 1648 07ac 0E       		.byte	0xe
 1649 07ad 3801     		.2byte	0x138
 1650 07af 31070000 		.4byte	0x731
 1651 07b3 02       		.byte	0x2
 1652 07b4 23       		.byte	0x23
 1653 07b5 08       		.uleb128 0x8
 1654 07b6 00       		.byte	0
 1655 07b7 17       		.uleb128 0x17
 1656 07b8 C7090000 		.4byte	.LASF114
 1657 07bc 0E       		.byte	0xe
 1658 07bd 3901     		.2byte	0x139
 1659 07bf 80070000 		.4byte	0x780
 1660 07c3 08       		.uleb128 0x8
 1661 07c4 1C       		.byte	0x1c
 1662 07c5 0F       		.byte	0xf
 1663 07c6 2A       		.byte	0x2a
 1664 07c7 F6070000 		.4byte	0x7f6
 1665 07cb 06       		.uleb128 0x6
 1666 07cc 2F060000 		.4byte	.LASF115
 1667 07d0 0F       		.byte	0xf
 1668 07d1 2B       		.byte	0x2b
 1669 07d2 8A030000 		.4byte	0x38a
 1670 07d6 02       		.byte	0x2
 1671 07d7 23       		.byte	0x23
 1672 07d8 00       		.uleb128 0
 1673 07d9 06       		.uleb128 0x6
 1674 07da 54010000 		.4byte	.LASF116
 1675 07de 0F       		.byte	0xf
 1676 07df 2C       		.byte	0x2c
 1677 07e0 48050000 		.4byte	0x548
 1678 07e4 02       		.byte	0x2
 1679 07e5 23       		.byte	0x23
 1680 07e6 14       		.uleb128 0x14
 1681 07e7 06       		.uleb128 0x6
 1682 07e8 B6050000 		.4byte	.LASF117
 1683 07ec 0F       		.byte	0xf
 1684 07ed 2D       		.byte	0x2d
 1685 07ee 09010000 		.4byte	0x109
 1686 07f2 02       		.byte	0x2
 1687 07f3 23       		.byte	0x23
 1688 07f4 18       		.uleb128 0x18
 1689 07f5 00       		.byte	0
 1690 07f6 03       		.uleb128 0x3
 1691 07f7 0E050000 		.4byte	.LASF118
 1692 07fb 0F       		.byte	0xf
 1693 07fc 2E       		.byte	0x2e
 1694 07fd C3070000 		.4byte	0x7c3
 1695 0801 03       		.uleb128 0x3
 1696 0802 B5090000 		.4byte	.LASF119
ARM GAS  /var/folders/5n/p_75w94d66l9ssrldxqdhh700000gn/T//ccp9Ul8m.s 			page 31


 1697 0806 10       		.byte	0x10
 1698 0807 43       		.byte	0x43
 1699 0808 54000000 		.4byte	0x54
 1700 080c 03       		.uleb128 0x3
 1701 080d 5E000000 		.4byte	.LASF120
 1702 0811 10       		.byte	0x10
 1703 0812 44       		.byte	0x44
 1704 0813 42000000 		.4byte	0x42
 1705 0817 03       		.uleb128 0x3
 1706 0818 DC050000 		.4byte	.LASF121
 1707 081c 10       		.byte	0x10
 1708 081d 45       		.byte	0x45
 1709 081e 6D000000 		.4byte	0x6d
 1710 0822 03       		.uleb128 0x3
 1711 0823 02080000 		.4byte	.LASF122
 1712 0827 10       		.byte	0x10
 1713 0828 47       		.byte	0x47
 1714 0829 91000000 		.4byte	0x91
 1715 082d 03       		.uleb128 0x3
 1716 082e A3030000 		.4byte	.LASF123
 1717 0832 11       		.byte	0x11
 1718 0833 4B       		.byte	0x4b
 1719 0834 17080000 		.4byte	0x817
 1720 0838 03       		.uleb128 0x3
 1721 0839 CF060000 		.4byte	.LASF124
 1722 083d 12       		.byte	0x12
 1723 083e 2F       		.byte	0x2f
 1724 083f 0C080000 		.4byte	0x80c
 1725 0843 13       		.uleb128 0x13
 1726 0844 01       		.byte	0x1
 1727 0845 13       		.byte	0x13
 1728 0846 32       		.byte	0x32
 1729 0847 64080000 		.4byte	0x864
 1730 084b 14       		.uleb128 0x14
 1731 084c 04090000 		.4byte	.LASF125
 1732 0850 00       		.sleb128 0
 1733 0851 14       		.uleb128 0x14
 1734 0852 EF050000 		.4byte	.LASF126
 1735 0856 01       		.sleb128 1
 1736 0857 14       		.uleb128 0x14
 1737 0858 3F0A0000 		.4byte	.LASF127
 1738 085c 02       		.sleb128 2
 1739 085d 14       		.uleb128 0x14
 1740 085e FD090000 		.4byte	.LASF128
 1741 0862 03       		.sleb128 3
 1742 0863 00       		.byte	0
 1743 0864 03       		.uleb128 0x3
 1744 0865 CE070000 		.4byte	.LASF129
 1745 0869 13       		.byte	0x13
 1746 086a 37       		.byte	0x37
 1747 086b 43080000 		.4byte	0x843
 1748 086f 13       		.uleb128 0x13
 1749 0870 01       		.byte	0x1
 1750 0871 13       		.byte	0x13
 1751 0872 39       		.byte	0x39
 1752 0873 90080000 		.4byte	0x890
 1753 0877 14       		.uleb128 0x14
ARM GAS  /var/folders/5n/p_75w94d66l9ssrldxqdhh700000gn/T//ccp9Ul8m.s 			page 32


 1754 0878 EE090000 		.4byte	.LASF130
 1755 087c 00       		.sleb128 0
 1756 087d 14       		.uleb128 0x14
 1757 087e C7040000 		.4byte	.LASF131
 1758 0882 01       		.sleb128 1
 1759 0883 14       		.uleb128 0x14
 1760 0884 DA000000 		.4byte	.LASF132
 1761 0888 02       		.sleb128 2
 1762 0889 14       		.uleb128 0x14
 1763 088a FB020000 		.4byte	.LASF133
 1764 088e 03       		.sleb128 3
 1765 088f 00       		.byte	0
 1766 0890 03       		.uleb128 0x3
 1767 0891 41060000 		.4byte	.LASF134
 1768 0895 13       		.byte	0x13
 1769 0896 3E       		.byte	0x3e
 1770 0897 6F080000 		.4byte	0x86f
 1771 089b 05       		.uleb128 0x5
 1772 089c 2D030000 		.4byte	.LASF135
 1773 08a0 10       		.byte	0x10
 1774 08a1 13       		.byte	0x13
 1775 08a2 49       		.byte	0x49
 1776 08a3 0A090000 		.4byte	0x90a
 1777 08a7 06       		.uleb128 0x6
 1778 08a8 A1060000 		.4byte	.LASF136
 1779 08ac 13       		.byte	0x13
 1780 08ad 4B       		.byte	0x4b
 1781 08ae 0A090000 		.4byte	0x90a
 1782 08b2 02       		.byte	0x2
 1783 08b3 23       		.byte	0x23
 1784 08b4 00       		.uleb128 0
 1785 08b5 06       		.uleb128 0x6
 1786 08b6 E4040000 		.4byte	.LASF137
 1787 08ba 13       		.byte	0x13
 1788 08bb 4E       		.byte	0x4e
 1789 08bc A4020000 		.4byte	0x2a4
 1790 08c0 02       		.byte	0x2
 1791 08c1 23       		.byte	0x23
 1792 08c2 04       		.uleb128 0x4
 1793 08c3 06       		.uleb128 0x6
 1794 08c4 99060000 		.4byte	.LASF138
 1795 08c8 13       		.byte	0x13
 1796 08c9 57       		.byte	0x57
 1797 08ca 17080000 		.4byte	0x817
 1798 08ce 02       		.byte	0x2
 1799 08cf 23       		.byte	0x23
 1800 08d0 08       		.uleb128 0x8
 1801 08d1 07       		.uleb128 0x7
 1802 08d2 6C656E00 		.ascii	"len\000"
 1803 08d6 13       		.byte	0x13
 1804 08d7 5A       		.byte	0x5a
 1805 08d8 17080000 		.4byte	0x817
 1806 08dc 02       		.byte	0x2
 1807 08dd 23       		.byte	0x23
 1808 08de 0A       		.uleb128 0xa
 1809 08df 06       		.uleb128 0x6
 1810 08e0 BE000000 		.4byte	.LASF139
ARM GAS  /var/folders/5n/p_75w94d66l9ssrldxqdhh700000gn/T//ccp9Ul8m.s 			page 33


 1811 08e4 13       		.byte	0x13
 1812 08e5 5D       		.byte	0x5d
 1813 08e6 01080000 		.4byte	0x801
 1814 08ea 02       		.byte	0x2
 1815 08eb 23       		.byte	0x23
 1816 08ec 0C       		.uleb128 0xc
 1817 08ed 06       		.uleb128 0x6
 1818 08ee 7A030000 		.4byte	.LASF140
 1819 08f2 13       		.byte	0x13
 1820 08f3 60       		.byte	0x60
 1821 08f4 01080000 		.4byte	0x801
 1822 08f8 02       		.byte	0x2
 1823 08f9 23       		.byte	0x23
 1824 08fa 0D       		.uleb128 0xd
 1825 08fb 07       		.uleb128 0x7
 1826 08fc 72656600 		.ascii	"ref\000"
 1827 0900 13       		.byte	0x13
 1828 0901 67       		.byte	0x67
 1829 0902 17080000 		.4byte	0x817
 1830 0906 02       		.byte	0x2
 1831 0907 23       		.byte	0x23
 1832 0908 0E       		.uleb128 0xe
 1833 0909 00       		.byte	0
 1834 090a 09       		.uleb128 0x9
 1835 090b 04       		.byte	0x4
 1836 090c 9B080000 		.4byte	0x89b
 1837 0910 13       		.uleb128 0x13
 1838 0911 01       		.byte	0x1
 1839 0912 14       		.byte	0x14
 1840 0913 2B       		.byte	0x2b
 1841 0914 73090000 		.4byte	0x973
 1842 0918 14       		.uleb128 0x14
 1843 0919 45030000 		.4byte	.LASF141
 1844 091d 00       		.sleb128 0
 1845 091e 14       		.uleb128 0x14
 1846 091f 3A070000 		.4byte	.LASF142
 1847 0923 01       		.sleb128 1
 1848 0924 14       		.uleb128 0x14
 1849 0925 40000000 		.4byte	.LASF143
 1850 0929 02       		.sleb128 2
 1851 092a 14       		.uleb128 0x14
 1852 092b 2B0A0000 		.4byte	.LASF144
 1853 092f 03       		.sleb128 3
 1854 0930 14       		.uleb128 0x14
 1855 0931 4F070000 		.4byte	.LASF145
 1856 0935 04       		.sleb128 4
 1857 0936 14       		.uleb128 0x14
 1858 0937 DF060000 		.4byte	.LASF146
 1859 093b 05       		.sleb128 5
 1860 093c 14       		.uleb128 0x14
 1861 093d F9060000 		.4byte	.LASF147
 1862 0941 06       		.sleb128 6
 1863 0942 14       		.uleb128 0x14
 1864 0943 DC020000 		.4byte	.LASF148
 1865 0947 07       		.sleb128 7
 1866 0948 14       		.uleb128 0x14
 1867 0949 2D040000 		.4byte	.LASF149
ARM GAS  /var/folders/5n/p_75w94d66l9ssrldxqdhh700000gn/T//ccp9Ul8m.s 			page 34


 1868 094d 08       		.sleb128 8
 1869 094e 14       		.uleb128 0x14
 1870 094f 1A040000 		.4byte	.LASF150
 1871 0953 09       		.sleb128 9
 1872 0954 14       		.uleb128 0x14
 1873 0955 6B070000 		.4byte	.LASF151
 1874 0959 0A       		.sleb128 10
 1875 095a 14       		.uleb128 0x14
 1876 095b 85000000 		.4byte	.LASF152
 1877 095f 0B       		.sleb128 11
 1878 0960 14       		.uleb128 0x14
 1879 0961 3E080000 		.4byte	.LASF153
 1880 0965 0C       		.sleb128 12
 1881 0966 14       		.uleb128 0x14
 1882 0967 E6010000 		.4byte	.LASF154
 1883 096b 0D       		.sleb128 13
 1884 096c 14       		.uleb128 0x14
 1885 096d F9070000 		.4byte	.LASF155
 1886 0971 0E       		.sleb128 14
 1887 0972 00       		.byte	0
 1888 0973 05       		.uleb128 0x5
 1889 0974 73050000 		.4byte	.LASF156
 1890 0978 18       		.byte	0x18
 1891 0979 15       		.byte	0x15
 1892 097a 3A       		.byte	0x3a
 1893 097b 270A0000 		.4byte	0xa27
 1894 097f 06       		.uleb128 0x6
 1895 0980 09050000 		.4byte	.LASF157
 1896 0984 15       		.byte	0x15
 1897 0985 3B       		.byte	0x3b
 1898 0986 17080000 		.4byte	0x817
 1899 098a 02       		.byte	0x2
 1900 098b 23       		.byte	0x23
 1901 098c 00       		.uleb128 0
 1902 098d 06       		.uleb128 0x6
 1903 098e 8F060000 		.4byte	.LASF158
 1904 0992 15       		.byte	0x15
 1905 0993 3C       		.byte	0x3c
 1906 0994 17080000 		.4byte	0x817
 1907 0998 02       		.byte	0x2
 1908 0999 23       		.byte	0x23
 1909 099a 02       		.uleb128 0x2
 1910 099b 07       		.uleb128 0x7
 1911 099c 667700   		.ascii	"fw\000"
 1912 099f 15       		.byte	0x15
 1913 09a0 3D       		.byte	0x3d
 1914 09a1 17080000 		.4byte	0x817
 1915 09a5 02       		.byte	0x2
 1916 09a6 23       		.byte	0x23
 1917 09a7 04       		.uleb128 0x4
 1918 09a8 06       		.uleb128 0x6
 1919 09a9 E8020000 		.4byte	.LASF159
 1920 09ad 15       		.byte	0x15
 1921 09ae 3E       		.byte	0x3e
 1922 09af 17080000 		.4byte	0x817
 1923 09b3 02       		.byte	0x2
 1924 09b4 23       		.byte	0x23
ARM GAS  /var/folders/5n/p_75w94d66l9ssrldxqdhh700000gn/T//ccp9Ul8m.s 			page 35


 1925 09b5 06       		.uleb128 0x6
 1926 09b6 06       		.uleb128 0x6
 1927 09b7 BD070000 		.4byte	.LASF160
 1928 09bb 15       		.byte	0x15
 1929 09bc 3F       		.byte	0x3f
 1930 09bd 17080000 		.4byte	0x817
 1931 09c1 02       		.byte	0x2
 1932 09c2 23       		.byte	0x23
 1933 09c3 08       		.uleb128 0x8
 1934 09c4 06       		.uleb128 0x6
 1935 09c5 CD020000 		.4byte	.LASF161
 1936 09c9 15       		.byte	0x15
 1937 09ca 40       		.byte	0x40
 1938 09cb 17080000 		.4byte	0x817
 1939 09cf 02       		.byte	0x2
 1940 09d0 23       		.byte	0x23
 1941 09d1 0A       		.uleb128 0xa
 1942 09d2 06       		.uleb128 0x6
 1943 09d3 D4030000 		.4byte	.LASF162
 1944 09d7 15       		.byte	0x15
 1945 09d8 41       		.byte	0x41
 1946 09d9 17080000 		.4byte	0x817
 1947 09dd 02       		.byte	0x2
 1948 09de 23       		.byte	0x23
 1949 09df 0C       		.uleb128 0xc
 1950 09e0 06       		.uleb128 0x6
 1951 09e1 96000000 		.4byte	.LASF163
 1952 09e5 15       		.byte	0x15
 1953 09e6 42       		.byte	0x42
 1954 09e7 17080000 		.4byte	0x817
 1955 09eb 02       		.byte	0x2
 1956 09ec 23       		.byte	0x23
 1957 09ed 0E       		.uleb128 0xe
 1958 09ee 06       		.uleb128 0x6
 1959 09ef 07000000 		.4byte	.LASF164
 1960 09f3 15       		.byte	0x15
 1961 09f4 43       		.byte	0x43
 1962 09f5 17080000 		.4byte	0x817
 1963 09f9 02       		.byte	0x2
 1964 09fa 23       		.byte	0x23
 1965 09fb 10       		.uleb128 0x10
 1966 09fc 06       		.uleb128 0x6
 1967 09fd A7070000 		.4byte	.LASF165
 1968 0a01 15       		.byte	0x15
 1969 0a02 44       		.byte	0x44
 1970 0a03 17080000 		.4byte	0x817
 1971 0a07 02       		.byte	0x2
 1972 0a08 23       		.byte	0x23
 1973 0a09 12       		.uleb128 0x12
 1974 0a0a 07       		.uleb128 0x7
 1975 0a0b 65727200 		.ascii	"err\000"
 1976 0a0f 15       		.byte	0x15
 1977 0a10 45       		.byte	0x45
 1978 0a11 17080000 		.4byte	0x817
 1979 0a15 02       		.byte	0x2
 1980 0a16 23       		.byte	0x23
 1981 0a17 14       		.uleb128 0x14
ARM GAS  /var/folders/5n/p_75w94d66l9ssrldxqdhh700000gn/T//ccp9Ul8m.s 			page 36


 1982 0a18 06       		.uleb128 0x6
 1983 0a19 CB030000 		.4byte	.LASF166
 1984 0a1d 15       		.byte	0x15
 1985 0a1e 46       		.byte	0x46
 1986 0a1f 17080000 		.4byte	0x817
 1987 0a23 02       		.byte	0x2
 1988 0a24 23       		.byte	0x23
 1989 0a25 16       		.uleb128 0x16
 1990 0a26 00       		.byte	0
 1991 0a27 05       		.uleb128 0x5
 1992 0a28 8B070000 		.4byte	.LASF167
 1993 0a2c 0A       		.byte	0xa
 1994 0a2d 15       		.byte	0x15
 1995 0a2e 5A       		.byte	0x5a
 1996 0a2f 7A0A0000 		.4byte	0xa7a
 1997 0a33 06       		.uleb128 0x6
 1998 0a34 BE010000 		.4byte	.LASF168
 1999 0a38 15       		.byte	0x15
 2000 0a39 5E       		.byte	0x5e
 2001 0a3a 2D080000 		.4byte	0x82d
 2002 0a3e 02       		.byte	0x2
 2003 0a3f 23       		.byte	0x23
 2004 0a40 00       		.uleb128 0
 2005 0a41 06       		.uleb128 0x6
 2006 0a42 94060000 		.4byte	.LASF169
 2007 0a46 15       		.byte	0x15
 2008 0a47 5F       		.byte	0x5f
 2009 0a48 2D080000 		.4byte	0x82d
 2010 0a4c 02       		.byte	0x2
 2011 0a4d 23       		.byte	0x23
 2012 0a4e 02       		.uleb128 0x2
 2013 0a4f 07       		.uleb128 0x7
 2014 0a50 6D617800 		.ascii	"max\000"
 2015 0a54 15       		.byte	0x15
 2016 0a55 60       		.byte	0x60
 2017 0a56 2D080000 		.4byte	0x82d
 2018 0a5a 02       		.byte	0x2
 2019 0a5b 23       		.byte	0x23
 2020 0a5c 04       		.uleb128 0x4
 2021 0a5d 07       		.uleb128 0x7
 2022 0a5e 65727200 		.ascii	"err\000"
 2023 0a62 15       		.byte	0x15
 2024 0a63 61       		.byte	0x61
 2025 0a64 17080000 		.4byte	0x817
 2026 0a68 02       		.byte	0x2
 2027 0a69 23       		.byte	0x23
 2028 0a6a 06       		.uleb128 0x6
 2029 0a6b 06       		.uleb128 0x6
 2030 0a6c 9F070000 		.4byte	.LASF170
 2031 0a70 15       		.byte	0x15
 2032 0a71 62       		.byte	0x62
 2033 0a72 17080000 		.4byte	0x817
 2034 0a76 02       		.byte	0x2
 2035 0a77 23       		.byte	0x23
 2036 0a78 08       		.uleb128 0x8
 2037 0a79 00       		.byte	0
 2038 0a7a 05       		.uleb128 0x5
ARM GAS  /var/folders/5n/p_75w94d66l9ssrldxqdhh700000gn/T//ccp9Ul8m.s 			page 37


 2039 0a7b 65050000 		.4byte	.LASF171
 2040 0a7f 06       		.byte	0x6
 2041 0a80 15       		.byte	0x15
 2042 0a81 65       		.byte	0x65
 2043 0a82 B10A0000 		.4byte	0xab1
 2044 0a86 06       		.uleb128 0x6
 2045 0a87 94060000 		.4byte	.LASF169
 2046 0a8b 15       		.byte	0x15
 2047 0a8c 66       		.byte	0x66
 2048 0a8d 17080000 		.4byte	0x817
 2049 0a91 02       		.byte	0x2
 2050 0a92 23       		.byte	0x23
 2051 0a93 00       		.uleb128 0
 2052 0a94 07       		.uleb128 0x7
 2053 0a95 6D617800 		.ascii	"max\000"
 2054 0a99 15       		.byte	0x15
 2055 0a9a 67       		.byte	0x67
 2056 0a9b 17080000 		.4byte	0x817
 2057 0a9f 02       		.byte	0x2
 2058 0aa0 23       		.byte	0x23
 2059 0aa1 02       		.uleb128 0x2
 2060 0aa2 07       		.uleb128 0x7
 2061 0aa3 65727200 		.ascii	"err\000"
 2062 0aa7 15       		.byte	0x15
 2063 0aa8 68       		.byte	0x68
 2064 0aa9 17080000 		.4byte	0x817
 2065 0aad 02       		.byte	0x2
 2066 0aae 23       		.byte	0x23
 2067 0aaf 04       		.uleb128 0x4
 2068 0ab0 00       		.byte	0
 2069 0ab1 05       		.uleb128 0x5
 2070 0ab2 D5060000 		.4byte	.LASF172
 2071 0ab6 12       		.byte	0x12
 2072 0ab7 15       		.byte	0x15
 2073 0ab8 6B       		.byte	0x6b
 2074 0ab9 E80A0000 		.4byte	0xae8
 2075 0abd 07       		.uleb128 0x7
 2076 0abe 73656D00 		.ascii	"sem\000"
 2077 0ac2 15       		.byte	0x15
 2078 0ac3 6C       		.byte	0x6c
 2079 0ac4 7A0A0000 		.4byte	0xa7a
 2080 0ac8 02       		.byte	0x2
 2081 0ac9 23       		.byte	0x23
 2082 0aca 00       		.uleb128 0
 2083 0acb 06       		.uleb128 0x6
 2084 0acc 52050000 		.4byte	.LASF173
 2085 0ad0 15       		.byte	0x15
 2086 0ad1 6D       		.byte	0x6d
 2087 0ad2 7A0A0000 		.4byte	0xa7a
 2088 0ad6 02       		.byte	0x2
 2089 0ad7 23       		.byte	0x23
 2090 0ad8 06       		.uleb128 0x6
 2091 0ad9 06       		.uleb128 0x6
 2092 0ada EA050000 		.4byte	.LASF174
 2093 0ade 15       		.byte	0x15
 2094 0adf 6E       		.byte	0x6e
 2095 0ae0 7A0A0000 		.4byte	0xa7a
ARM GAS  /var/folders/5n/p_75w94d66l9ssrldxqdhh700000gn/T//ccp9Ul8m.s 			page 38


 2096 0ae4 02       		.byte	0x2
 2097 0ae5 23       		.byte	0x23
 2098 0ae6 0C       		.uleb128 0xc
 2099 0ae7 00       		.byte	0
 2100 0ae8 18       		.uleb128 0x18
 2101 0ae9 DB030000 		.4byte	.LASF175
 2102 0aed 5001     		.2byte	0x150
 2103 0aef 15       		.byte	0x15
 2104 0af0 71       		.byte	0x71
 2105 0af1 850B0000 		.4byte	0xb85
 2106 0af5 06       		.uleb128 0x6
 2107 0af6 D7040000 		.4byte	.LASF176
 2108 0afa 15       		.byte	0x15
 2109 0afb 73       		.byte	0x73
 2110 0afc 73090000 		.4byte	0x973
 2111 0b00 02       		.byte	0x2
 2112 0b01 23       		.byte	0x23
 2113 0b02 00       		.uleb128 0
 2114 0b03 06       		.uleb128 0x6
 2115 0b04 F1000000 		.4byte	.LASF177
 2116 0b08 15       		.byte	0x15
 2117 0b09 76       		.byte	0x76
 2118 0b0a 73090000 		.4byte	0x973
 2119 0b0e 02       		.byte	0x2
 2120 0b0f 23       		.byte	0x23
 2121 0b10 18       		.uleb128 0x18
 2122 0b11 06       		.uleb128 0x6
 2123 0b12 CF050000 		.4byte	.LASF178
 2124 0b16 15       		.byte	0x15
 2125 0b17 79       		.byte	0x79
 2126 0b18 73090000 		.4byte	0x973
 2127 0b1c 02       		.byte	0x2
 2128 0b1d 23       		.byte	0x23
 2129 0b1e 30       		.uleb128 0x30
 2130 0b1f 07       		.uleb128 0x7
 2131 0b20 697000   		.ascii	"ip\000"
 2132 0b23 15       		.byte	0x15
 2133 0b24 7C       		.byte	0x7c
 2134 0b25 73090000 		.4byte	0x973
 2135 0b29 02       		.byte	0x2
 2136 0b2a 23       		.byte	0x23
 2137 0b2b 48       		.uleb128 0x48
 2138 0b2c 06       		.uleb128 0x6
 2139 0b2d F4060000 		.4byte	.LASF179
 2140 0b31 15       		.byte	0x15
 2141 0b32 7F       		.byte	0x7f
 2142 0b33 73090000 		.4byte	0x973
 2143 0b37 02       		.byte	0x2
 2144 0b38 23       		.byte	0x23
 2145 0b39 60       		.uleb128 0x60
 2146 0b3a 07       		.uleb128 0x7
 2147 0b3b 75647000 		.ascii	"udp\000"
 2148 0b3f 15       		.byte	0x15
 2149 0b40 85       		.byte	0x85
 2150 0b41 73090000 		.4byte	0x973
 2151 0b45 02       		.byte	0x2
 2152 0b46 23       		.byte	0x23
ARM GAS  /var/folders/5n/p_75w94d66l9ssrldxqdhh700000gn/T//ccp9Ul8m.s 			page 39


 2153 0b47 78       		.uleb128 0x78
 2154 0b48 07       		.uleb128 0x7
 2155 0b49 74637000 		.ascii	"tcp\000"
 2156 0b4d 15       		.byte	0x15
 2157 0b4e 88       		.byte	0x88
 2158 0b4f 73090000 		.4byte	0x973
 2159 0b53 03       		.byte	0x3
 2160 0b54 23       		.byte	0x23
 2161 0b55 9001     		.uleb128 0x90
 2162 0b57 07       		.uleb128 0x7
 2163 0b58 6D656D00 		.ascii	"mem\000"
 2164 0b5c 15       		.byte	0x15
 2165 0b5d 8B       		.byte	0x8b
 2166 0b5e 270A0000 		.4byte	0xa27
 2167 0b62 03       		.byte	0x3
 2168 0b63 23       		.byte	0x23
 2169 0b64 A801     		.uleb128 0xa8
 2170 0b66 06       		.uleb128 0x6
 2171 0b67 E3000000 		.4byte	.LASF180
 2172 0b6b 15       		.byte	0x15
 2173 0b6c 8E       		.byte	0x8e
 2174 0b6d 850B0000 		.4byte	0xb85
 2175 0b71 03       		.byte	0x3
 2176 0b72 23       		.byte	0x23
 2177 0b73 B201     		.uleb128 0xb2
 2178 0b75 07       		.uleb128 0x7
 2179 0b76 73797300 		.ascii	"sys\000"
 2180 0b7a 15       		.byte	0x15
 2181 0b7b 91       		.byte	0x91
 2182 0b7c B10A0000 		.4byte	0xab1
 2183 0b80 03       		.byte	0x3
 2184 0b81 23       		.byte	0x23
 2185 0b82 BE02     		.uleb128 0x13e
 2186 0b84 00       		.byte	0
 2187 0b85 19       		.uleb128 0x19
 2188 0b86 270A0000 		.4byte	0xa27
 2189 0b8a 950B0000 		.4byte	0xb95
 2190 0b8e 1A       		.uleb128 0x1a
 2191 0b8f 66030000 		.4byte	0x366
 2192 0b93 0D       		.byte	0xd
 2193 0b94 00       		.byte	0
 2194 0b95 05       		.uleb128 0x5
 2195 0b96 B6030000 		.4byte	.LASF181
 2196 0b9a 04       		.byte	0x4
 2197 0b9b 16       		.byte	0x16
 2198 0b9c 2C       		.byte	0x2c
 2199 0b9d B00B0000 		.4byte	0xbb0
 2200 0ba1 06       		.uleb128 0x6
 2201 0ba2 A9050000 		.4byte	.LASF182
 2202 0ba6 16       		.byte	0x16
 2203 0ba7 2D       		.byte	0x2d
 2204 0ba8 22080000 		.4byte	0x822
 2205 0bac 02       		.byte	0x2
 2206 0bad 23       		.byte	0x23
 2207 0bae 00       		.uleb128 0
 2208 0baf 00       		.byte	0
 2209 0bb0 03       		.uleb128 0x3
ARM GAS  /var/folders/5n/p_75w94d66l9ssrldxqdhh700000gn/T//ccp9Ul8m.s 			page 40


 2210 0bb1 A6060000 		.4byte	.LASF183
 2211 0bb5 16       		.byte	0x16
 2212 0bb6 40       		.byte	0x40
 2213 0bb7 950B0000 		.4byte	0xb95
 2214 0bbb 03       		.uleb128 0x3
 2215 0bbc ED020000 		.4byte	.LASF184
 2216 0bc0 17       		.byte	0x17
 2217 0bc1 66       		.byte	0x66
 2218 0bc2 C60B0000 		.4byte	0xbc6
 2219 0bc6 09       		.uleb128 0x9
 2220 0bc7 04       		.byte	0x4
 2221 0bc8 CC0B0000 		.4byte	0xbcc
 2222 0bcc 1B       		.uleb128 0x1b
 2223 0bcd 01       		.byte	0x1
 2224 0bce 38080000 		.4byte	0x838
 2225 0bd2 DC0B0000 		.4byte	0xbdc
 2226 0bd6 0F       		.uleb128 0xf
 2227 0bd7 DC0B0000 		.4byte	0xbdc
 2228 0bdb 00       		.byte	0
 2229 0bdc 09       		.uleb128 0x9
 2230 0bdd 04       		.byte	0x4
 2231 0bde E20B0000 		.4byte	0xbe2
 2232 0be2 05       		.uleb128 0x5
 2233 0be3 B9040000 		.4byte	.LASF185
 2234 0be7 30       		.byte	0x30
 2235 0be8 17       		.byte	0x17
 2236 0be9 88       		.byte	0x88
 2237 0bea B20C0000 		.4byte	0xcb2
 2238 0bee 06       		.uleb128 0x6
 2239 0bef A1060000 		.4byte	.LASF136
 2240 0bf3 17       		.byte	0x17
 2241 0bf4 8A       		.byte	0x8a
 2242 0bf5 DC0B0000 		.4byte	0xbdc
 2243 0bf9 02       		.byte	0x2
 2244 0bfa 23       		.byte	0x23
 2245 0bfb 00       		.uleb128 0
 2246 0bfc 06       		.uleb128 0x6
 2247 0bfd B6030000 		.4byte	.LASF181
 2248 0c01 17       		.byte	0x17
 2249 0c02 8D       		.byte	0x8d
 2250 0c03 B00B0000 		.4byte	0xbb0
 2251 0c07 02       		.byte	0x2
 2252 0c08 23       		.byte	0x23
 2253 0c09 04       		.uleb128 0x4
 2254 0c0a 06       		.uleb128 0x6
 2255 0c0b 45050000 		.4byte	.LASF186
 2256 0c0f 17       		.byte	0x17
 2257 0c10 8E       		.byte	0x8e
 2258 0c11 B00B0000 		.4byte	0xbb0
 2259 0c15 02       		.byte	0x2
 2260 0c16 23       		.byte	0x23
 2261 0c17 08       		.uleb128 0x8
 2262 0c18 07       		.uleb128 0x7
 2263 0c19 677700   		.ascii	"gw\000"
 2264 0c1c 17       		.byte	0x17
 2265 0c1d 8F       		.byte	0x8f
 2266 0c1e B00B0000 		.4byte	0xbb0
ARM GAS  /var/folders/5n/p_75w94d66l9ssrldxqdhh700000gn/T//ccp9Ul8m.s 			page 41


 2267 0c22 02       		.byte	0x2
 2268 0c23 23       		.byte	0x23
 2269 0c24 0C       		.uleb128 0xc
 2270 0c25 06       		.uleb128 0x6
 2271 0c26 BE030000 		.4byte	.LASF187
 2272 0c2a 17       		.byte	0x17
 2273 0c2b 93       		.byte	0x93
 2274 0c2c B20C0000 		.4byte	0xcb2
 2275 0c30 02       		.byte	0x2
 2276 0c31 23       		.byte	0x23
 2277 0c32 10       		.uleb128 0x10
 2278 0c33 06       		.uleb128 0x6
 2279 0c34 26030000 		.4byte	.LASF188
 2280 0c38 17       		.byte	0x17
 2281 0c39 97       		.byte	0x97
 2282 0c3a D80C0000 		.4byte	0xcd8
 2283 0c3e 02       		.byte	0x2
 2284 0c3f 23       		.byte	0x23
 2285 0c40 14       		.uleb128 0x14
 2286 0c41 06       		.uleb128 0x6
 2287 0c42 D0010000 		.4byte	.LASF189
 2288 0c46 17       		.byte	0x17
 2289 0c47 9B       		.byte	0x9b
 2290 0c48 090D0000 		.4byte	0xd09
 2291 0c4c 02       		.byte	0x2
 2292 0c4d 23       		.byte	0x23
 2293 0c4e 18       		.uleb128 0x18
 2294 0c4f 06       		.uleb128 0x6
 2295 0c50 B2000000 		.4byte	.LASF89
 2296 0c54 17       		.byte	0x17
 2297 0c55 A8       		.byte	0xa8
 2298 0c56 A4020000 		.4byte	0x2a4
 2299 0c5a 02       		.byte	0x2
 2300 0c5b 23       		.byte	0x23
 2301 0c5c 1C       		.uleb128 0x1c
 2302 0c5d 07       		.uleb128 0x7
 2303 0c5e 6D747500 		.ascii	"mtu\000"
 2304 0c62 17       		.byte	0x17
 2305 0c63 B6       		.byte	0xb6
 2306 0c64 17080000 		.4byte	0x817
 2307 0c68 02       		.byte	0x2
 2308 0c69 23       		.byte	0x23
 2309 0c6a 20       		.uleb128 0x20
 2310 0c6b 06       		.uleb128 0x6
 2311 0c6c DB010000 		.4byte	.LASF190
 2312 0c70 17       		.byte	0x17
 2313 0c71 B8       		.byte	0xb8
 2314 0c72 01080000 		.4byte	0x801
 2315 0c76 02       		.byte	0x2
 2316 0c77 23       		.byte	0x23
 2317 0c78 22       		.uleb128 0x22
 2318 0c79 06       		.uleb128 0x6
 2319 0c7a D0040000 		.4byte	.LASF191
 2320 0c7e 17       		.byte	0x17
 2321 0c7f BA       		.byte	0xba
 2322 0c80 2F0D0000 		.4byte	0xd2f
 2323 0c84 02       		.byte	0x2
ARM GAS  /var/folders/5n/p_75w94d66l9ssrldxqdhh700000gn/T//ccp9Ul8m.s 			page 42


 2324 0c85 23       		.byte	0x23
 2325 0c86 23       		.uleb128 0x23
 2326 0c87 06       		.uleb128 0x6
 2327 0c88 7A030000 		.4byte	.LASF140
 2328 0c8c 17       		.byte	0x17
 2329 0c8d BC       		.byte	0xbc
 2330 0c8e 01080000 		.4byte	0x801
 2331 0c92 02       		.byte	0x2
 2332 0c93 23       		.byte	0x23
 2333 0c94 29       		.uleb128 0x29
 2334 0c95 06       		.uleb128 0x6
 2335 0c96 31080000 		.4byte	.LASF192
 2336 0c9a 17       		.byte	0x17
 2337 0c9b BE       		.byte	0xbe
 2338 0c9c 3F0D0000 		.4byte	0xd3f
 2339 0ca0 02       		.byte	0x2
 2340 0ca1 23       		.byte	0x23
 2341 0ca2 2A       		.uleb128 0x2a
 2342 0ca3 07       		.uleb128 0x7
 2343 0ca4 6E756D00 		.ascii	"num\000"
 2344 0ca8 17       		.byte	0x17
 2345 0ca9 C0       		.byte	0xc0
 2346 0caa 01080000 		.4byte	0x801
 2347 0cae 02       		.byte	0x2
 2348 0caf 23       		.byte	0x23
 2349 0cb0 2C       		.uleb128 0x2c
 2350 0cb1 00       		.byte	0
 2351 0cb2 03       		.uleb128 0x3
 2352 0cb3 20060000 		.4byte	.LASF193
 2353 0cb7 17       		.byte	0x17
 2354 0cb8 6D       		.byte	0x6d
 2355 0cb9 BD0C0000 		.4byte	0xcbd
 2356 0cbd 09       		.uleb128 0x9
 2357 0cbe 04       		.byte	0x4
 2358 0cbf C30C0000 		.4byte	0xcc3
 2359 0cc3 1B       		.uleb128 0x1b
 2360 0cc4 01       		.byte	0x1
 2361 0cc5 38080000 		.4byte	0x838
 2362 0cc9 D80C0000 		.4byte	0xcd8
 2363 0ccd 0F       		.uleb128 0xf
 2364 0cce 0A090000 		.4byte	0x90a
 2365 0cd2 0F       		.uleb128 0xf
 2366 0cd3 DC0B0000 		.4byte	0xbdc
 2367 0cd7 00       		.byte	0
 2368 0cd8 03       		.uleb128 0x3
 2369 0cd9 7F060000 		.4byte	.LASF194
 2370 0cdd 17       		.byte	0x17
 2371 0cde 76       		.byte	0x76
 2372 0cdf E30C0000 		.4byte	0xce3
 2373 0ce3 09       		.uleb128 0x9
 2374 0ce4 04       		.byte	0x4
 2375 0ce5 E90C0000 		.4byte	0xce9
 2376 0ce9 1B       		.uleb128 0x1b
 2377 0cea 01       		.byte	0x1
 2378 0ceb 38080000 		.4byte	0x838
 2379 0cef 030D0000 		.4byte	0xd03
 2380 0cf3 0F       		.uleb128 0xf
ARM GAS  /var/folders/5n/p_75w94d66l9ssrldxqdhh700000gn/T//ccp9Ul8m.s 			page 43


 2381 0cf4 DC0B0000 		.4byte	0xbdc
 2382 0cf8 0F       		.uleb128 0xf
 2383 0cf9 0A090000 		.4byte	0x90a
 2384 0cfd 0F       		.uleb128 0xf
 2385 0cfe 030D0000 		.4byte	0xd03
 2386 0d02 00       		.byte	0
 2387 0d03 09       		.uleb128 0x9
 2388 0d04 04       		.byte	0x4
 2389 0d05 B00B0000 		.4byte	0xbb0
 2390 0d09 03       		.uleb128 0x3
 2391 0d0a 52060000 		.4byte	.LASF195
 2392 0d0e 17       		.byte	0x17
 2393 0d0f 7E       		.byte	0x7e
 2394 0d10 140D0000 		.4byte	0xd14
 2395 0d14 09       		.uleb128 0x9
 2396 0d15 04       		.byte	0x4
 2397 0d16 1A0D0000 		.4byte	0xd1a
 2398 0d1a 1B       		.uleb128 0x1b
 2399 0d1b 01       		.byte	0x1
 2400 0d1c 38080000 		.4byte	0x838
 2401 0d20 2F0D0000 		.4byte	0xd2f
 2402 0d24 0F       		.uleb128 0xf
 2403 0d25 DC0B0000 		.4byte	0xbdc
 2404 0d29 0F       		.uleb128 0xf
 2405 0d2a 0A090000 		.4byte	0x90a
 2406 0d2e 00       		.byte	0
 2407 0d2f 19       		.uleb128 0x19
 2408 0d30 01080000 		.4byte	0x801
 2409 0d34 3F0D0000 		.4byte	0xd3f
 2410 0d38 1A       		.uleb128 0x1a
 2411 0d39 66030000 		.4byte	0x366
 2412 0d3d 05       		.byte	0x5
 2413 0d3e 00       		.byte	0
 2414 0d3f 19       		.uleb128 0x19
 2415 0d40 93050000 		.4byte	0x593
 2416 0d44 4F0D0000 		.4byte	0xd4f
 2417 0d48 1A       		.uleb128 0x1a
 2418 0d49 66030000 		.4byte	0x366
 2419 0d4d 01       		.byte	0x1
 2420 0d4e 00       		.byte	0
 2421 0d4f 03       		.uleb128 0x3
 2422 0d50 EC040000 		.4byte	.LASF196
 2423 0d54 18       		.byte	0x18
 2424 0d55 4C       		.byte	0x4c
 2425 0d56 78030000 		.4byte	0x378
 2426 0d5a 03       		.uleb128 0x3
 2427 0d5b 66060000 		.4byte	.LASF197
 2428 0d5f 18       		.byte	0x18
 2429 0d60 4E       		.byte	0x4e
 2430 0d61 78030000 		.4byte	0x378
 2431 0d65 05       		.uleb128 0x5
 2432 0d66 29000000 		.4byte	.LASF198
 2433 0d6a 06       		.byte	0x6
 2434 0d6b 19       		.byte	0x19
 2435 0d6c 3B       		.byte	0x3b
 2436 0d6d 800D0000 		.4byte	0xd80
 2437 0d71 06       		.uleb128 0x6
ARM GAS  /var/folders/5n/p_75w94d66l9ssrldxqdhh700000gn/T//ccp9Ul8m.s 			page 44


 2438 0d72 A9050000 		.4byte	.LASF182
 2439 0d76 19       		.byte	0x19
 2440 0d77 3C       		.byte	0x3c
 2441 0d78 2F0D0000 		.4byte	0xd2f
 2442 0d7c 02       		.byte	0x2
 2443 0d7d 23       		.byte	0x23
 2444 0d7e 00       		.uleb128 0
 2445 0d7f 00       		.byte	0
 2446 0d80 05       		.uleb128 0x5
 2447 0d81 AE030000 		.4byte	.LASF199
 2448 0d85 0E       		.byte	0xe
 2449 0d86 19       		.byte	0x19
 2450 0d87 48       		.byte	0x48
 2451 0d88 B70D0000 		.4byte	0xdb7
 2452 0d8c 06       		.uleb128 0x6
 2453 0d8d F4070000 		.4byte	.LASF200
 2454 0d91 19       		.byte	0x19
 2455 0d92 4C       		.byte	0x4c
 2456 0d93 650D0000 		.4byte	0xd65
 2457 0d97 02       		.byte	0x2
 2458 0d98 23       		.byte	0x23
 2459 0d99 00       		.uleb128 0
 2460 0d9a 07       		.uleb128 0x7
 2461 0d9b 73726300 		.ascii	"src\000"
 2462 0d9f 19       		.byte	0x19
 2463 0da0 4D       		.byte	0x4d
 2464 0da1 650D0000 		.4byte	0xd65
 2465 0da5 02       		.byte	0x2
 2466 0da6 23       		.byte	0x23
 2467 0da7 06       		.uleb128 0x6
 2468 0da8 06       		.uleb128 0x6
 2469 0da9 BE000000 		.4byte	.LASF139
 2470 0dad 19       		.byte	0x19
 2471 0dae 4E       		.byte	0x4e
 2472 0daf 17080000 		.4byte	0x817
 2473 0db3 02       		.byte	0x2
 2474 0db4 23       		.byte	0x23
 2475 0db5 0C       		.uleb128 0xc
 2476 0db6 00       		.byte	0
 2477 0db7 05       		.uleb128 0x5
 2478 0db8 4C040000 		.4byte	.LASF201
 2479 0dbc 10       		.byte	0x10
 2480 0dbd 1A       		.byte	0x1a
 2481 0dbe 74       		.byte	0x74
 2482 0dbf FC0D0000 		.4byte	0xdfc
 2483 0dc3 06       		.uleb128 0x6
 2484 0dc4 76040000 		.4byte	.LASF202
 2485 0dc8 1A       		.byte	0x1a
 2486 0dc9 75       		.byte	0x75
 2487 0dca A0050000 		.4byte	0x5a0
 2488 0dce 02       		.byte	0x2
 2489 0dcf 23       		.byte	0x23
 2490 0dd0 00       		.uleb128 0
 2491 0dd1 06       		.uleb128 0x6
 2492 0dd2 BF040000 		.4byte	.LASF203
 2493 0dd6 1A       		.byte	0x1a
 2494 0dd7 76       		.byte	0x76
ARM GAS  /var/folders/5n/p_75w94d66l9ssrldxqdhh700000gn/T//ccp9Ul8m.s 			page 45


 2495 0dd8 91000000 		.4byte	0x91
 2496 0ddc 02       		.byte	0x2
 2497 0ddd 23       		.byte	0x23
 2498 0dde 04       		.uleb128 0x4
 2499 0ddf 06       		.uleb128 0x6
 2500 0de0 45050000 		.4byte	.LASF186
 2501 0de4 1A       		.byte	0x1a
 2502 0de5 77       		.byte	0x77
 2503 0de6 91000000 		.4byte	0x91
 2504 0dea 02       		.byte	0x2
 2505 0deb 23       		.byte	0x23
 2506 0dec 08       		.uleb128 0x8
 2507 0ded 06       		.uleb128 0x6
 2508 0dee 7B080000 		.4byte	.LASF204
 2509 0df2 1A       		.byte	0x1a
 2510 0df3 78       		.byte	0x78
 2511 0df4 91000000 		.4byte	0x91
 2512 0df8 02       		.byte	0x2
 2513 0df9 23       		.byte	0x23
 2514 0dfa 0C       		.uleb128 0xc
 2515 0dfb 00       		.byte	0
 2516 0dfc 1C       		.uleb128 0x1c
 2517 0dfd 89030000 		.4byte	.LASF246
 2518 0e01 01       		.byte	0x1
 2519 0e02 62       		.byte	0x62
 2520 0e03 01       		.byte	0x1
 2521 0e04 01       		.byte	0x1
 2522 0e05 150E0000 		.4byte	0xe15
 2523 0e09 1D       		.uleb128 0x1d
 2524 0e0a B9040000 		.4byte	.LASF185
 2525 0e0e 01       		.byte	0x1
 2526 0e0f 62       		.byte	0x62
 2527 0e10 DC0B0000 		.4byte	0xbdc
 2528 0e14 00       		.byte	0
 2529 0e15 1E       		.uleb128 0x1e
 2530 0e16 A5090000 		.4byte	.LASF247
 2531 0e1a 01       		.byte	0x1
 2532 0e1b 90       		.byte	0x90
 2533 0e1c 01       		.byte	0x1
 2534 0e1d 0A090000 		.4byte	0x90a
 2535 0e21 01       		.byte	0x1
 2536 0e22 590E0000 		.4byte	0xe59
 2537 0e26 1D       		.uleb128 0x1d
 2538 0e27 B9040000 		.4byte	.LASF185
 2539 0e2b 01       		.byte	0x1
 2540 0e2c 90       		.byte	0x90
 2541 0e2d DC0B0000 		.4byte	0xbdc
 2542 0e31 1F       		.uleb128 0x1f
 2543 0e32 726400   		.ascii	"rd\000"
 2544 0e35 01       		.byte	0x1
 2545 0e36 91       		.byte	0x91
 2546 0e37 B7070000 		.4byte	0x7b7
 2547 0e3b 1F       		.uleb128 0x1f
 2548 0e3c 7000     		.ascii	"p\000"
 2549 0e3e 01       		.byte	0x1
 2550 0e3f 92       		.byte	0x92
 2551 0e40 0A090000 		.4byte	0x90a
ARM GAS  /var/folders/5n/p_75w94d66l9ssrldxqdhh700000gn/T//ccp9Ul8m.s 			page 46


 2552 0e44 1F       		.uleb128 0x1f
 2553 0e45 7100     		.ascii	"q\000"
 2554 0e47 01       		.byte	0x1
 2555 0e48 92       		.byte	0x92
 2556 0e49 0A090000 		.4byte	0x90a
 2557 0e4d 1F       		.uleb128 0x1f
 2558 0e4e 6C656E00 		.ascii	"len\000"
 2559 0e52 01       		.byte	0x1
 2560 0e53 93       		.byte	0x93
 2561 0e54 17080000 		.4byte	0x817
 2562 0e58 00       		.byte	0
 2563 0e59 20       		.uleb128 0x20
 2564 0e5a E8030000 		.4byte	.LASF205
 2565 0e5e 01       		.byte	0x1
 2566 0e5f BE       		.byte	0xbe
 2567 0e60 01       		.byte	0x1
 2568 0e61 38080000 		.4byte	0x838
 2569 0e65 00000000 		.4byte	.LFB120
 2570 0e69 3A000000 		.4byte	.LFE120
 2571 0e6d 02       		.byte	0x2
 2572 0e6e 7D       		.byte	0x7d
 2573 0e6f 00       		.sleb128 0
 2574 0e70 01       		.byte	0x1
 2575 0e71 9E0E0000 		.4byte	0xe9e
 2576 0e75 21       		.uleb128 0x21
 2577 0e76 B9040000 		.4byte	.LASF185
 2578 0e7a 01       		.byte	0x1
 2579 0e7b BE       		.byte	0xbe
 2580 0e7c DC0B0000 		.4byte	0xbdc
 2581 0e80 00000000 		.4byte	.LLST0
 2582 0e84 22       		.uleb128 0x22
 2583 0e85 FC0D0000 		.4byte	0xdfc
 2584 0e89 22000000 		.4byte	.LBB4
 2585 0e8d 00000000 		.4byte	.Ldebug_ranges0+0
 2586 0e91 01       		.byte	0x1
 2587 0e92 D6       		.byte	0xd6
 2588 0e93 23       		.uleb128 0x23
 2589 0e94 090E0000 		.4byte	0xe09
 2590 0e98 1E000000 		.4byte	.LLST1
 2591 0e9c 00       		.byte	0
 2592 0e9d 00       		.byte	0
 2593 0e9e 24       		.uleb128 0x24
 2594 0e9f 3A010000 		.4byte	.LASF206
 2595 0ea3 01       		.byte	0x1
 2596 0ea4 73       		.byte	0x73
 2597 0ea5 01       		.byte	0x1
 2598 0ea6 38080000 		.4byte	0x838
 2599 0eaa 00000000 		.4byte	.LFB118
 2600 0eae 48000000 		.4byte	.LFE118
 2601 0eb2 3C000000 		.4byte	.LLST2
 2602 0eb6 01       		.byte	0x1
 2603 0eb7 300F0000 		.4byte	0xf30
 2604 0ebb 21       		.uleb128 0x21
 2605 0ebc B9040000 		.4byte	.LASF185
 2606 0ec0 01       		.byte	0x1
 2607 0ec1 73       		.byte	0x73
 2608 0ec2 DC0B0000 		.4byte	0xbdc
ARM GAS  /var/folders/5n/p_75w94d66l9ssrldxqdhh700000gn/T//ccp9Ul8m.s 			page 47


 2609 0ec6 68000000 		.4byte	.LLST3
 2610 0eca 25       		.uleb128 0x25
 2611 0ecb 7000     		.ascii	"p\000"
 2612 0ecd 01       		.byte	0x1
 2613 0ece 73       		.byte	0x73
 2614 0ecf 0A090000 		.4byte	0x90a
 2615 0ed3 89000000 		.4byte	.LLST4
 2616 0ed7 26       		.uleb128 0x26
 2617 0ed8 7100     		.ascii	"q\000"
 2618 0eda 01       		.byte	0x1
 2619 0edb 74       		.byte	0x74
 2620 0edc 0A090000 		.4byte	0x90a
 2621 0ee0 C0000000 		.4byte	.LLST5
 2622 0ee4 27       		.uleb128 0x27
 2623 0ee5 746400   		.ascii	"td\000"
 2624 0ee8 01       		.byte	0x1
 2625 0ee9 75       		.byte	0x75
 2626 0eea 74070000 		.4byte	0x774
 2627 0eee 02       		.byte	0x2
 2628 0eef 91       		.byte	0x91
 2629 0ef0 6C       		.sleb128 -20
 2630 0ef1 28       		.uleb128 0x28
 2631 0ef2 10000000 		.4byte	.LVL6
 2632 0ef6 04130000 		.4byte	0x1304
 2633 0efa 0B0F0000 		.4byte	0xf0b
 2634 0efe 29       		.uleb128 0x29
 2635 0eff 01       		.byte	0x1
 2636 0f00 52       		.byte	0x52
 2637 0f01 02       		.byte	0x2
 2638 0f02 08       		.byte	0x8
 2639 0f03 32       		.byte	0x32
 2640 0f04 29       		.uleb128 0x29
 2641 0f05 01       		.byte	0x1
 2642 0f06 51       		.byte	0x51
 2643 0f07 02       		.byte	0x2
 2644 0f08 91       		.byte	0x91
 2645 0f09 6C       		.sleb128 -20
 2646 0f0a 00       		.byte	0
 2647 0f0b 28       		.uleb128 0x28
 2648 0f0c 1E000000 		.4byte	.LVL9
 2649 0f10 32130000 		.4byte	0x1332
 2650 0f14 1F0F0000 		.4byte	0xf1f
 2651 0f18 29       		.uleb128 0x29
 2652 0f19 01       		.byte	0x1
 2653 0f1a 50       		.byte	0x50
 2654 0f1b 02       		.byte	0x2
 2655 0f1c 91       		.byte	0x91
 2656 0f1d 6C       		.sleb128 -20
 2657 0f1e 00       		.byte	0
 2658 0f1f 2A       		.uleb128 0x2a
 2659 0f20 2A000000 		.4byte	.LVL11
 2660 0f24 55130000 		.4byte	0x1355
 2661 0f28 29       		.uleb128 0x29
 2662 0f29 01       		.byte	0x1
 2663 0f2a 50       		.byte	0x50
 2664 0f2b 02       		.byte	0x2
 2665 0f2c 91       		.byte	0x91
ARM GAS  /var/folders/5n/p_75w94d66l9ssrldxqdhh700000gn/T//ccp9Ul8m.s 			page 48


 2666 0f2d 6C       		.sleb128 -20
 2667 0f2e 00       		.byte	0
 2668 0f2f 00       		.byte	0
 2669 0f30 2B       		.uleb128 0x2b
 2670 0f31 01       		.byte	0x1
 2671 0f32 7F050000 		.4byte	.LASF248
 2672 0f36 01       		.byte	0x1
 2673 0f37 E1       		.byte	0xe1
 2674 0f38 01       		.byte	0x1
 2675 0f39 F3000000 		.4byte	0xf3
 2676 0f3d 00000000 		.4byte	.LFB121
 2677 0f41 D4010000 		.4byte	.LFE121
 2678 0f45 D3000000 		.4byte	.LLST6
 2679 0f49 01       		.byte	0x1
 2680 0f4a A0120000 		.4byte	0x12a0
 2681 0f4e 25       		.uleb128 0x25
 2682 0f4f 7000     		.ascii	"p\000"
 2683 0f51 01       		.byte	0x1
 2684 0f52 E1       		.byte	0xe1
 2685 0f53 A4020000 		.4byte	0x2a4
 2686 0f57 00010000 		.4byte	.LLST7
 2687 0f5b 27       		.uleb128 0x27
 2688 0f5c 65767400 		.ascii	"evt\000"
 2689 0f60 01       		.byte	0x1
 2690 0f61 E2       		.byte	0xe2
 2691 0f62 F6070000 		.4byte	0x7f6
 2692 0f66 02       		.byte	0x2
 2693 0f67 91       		.byte	0x91
 2694 0f68 4C       		.sleb128 -52
 2695 0f69 27       		.uleb128 0x27
 2696 0f6a 656C3000 		.ascii	"el0\000"
 2697 0f6e 01       		.byte	0x1
 2698 0f6f E3       		.byte	0xe3
 2699 0f70 E5040000 		.4byte	0x4e5
 2700 0f74 03       		.byte	0x3
 2701 0f75 91       		.byte	0x91
 2702 0f76 A87F     		.sleb128 -88
 2703 0f78 27       		.uleb128 0x27
 2704 0f79 656C3100 		.ascii	"el1\000"
 2705 0f7d 01       		.byte	0x1
 2706 0f7e E3       		.byte	0xe3
 2707 0f7f E5040000 		.4byte	0x4e5
 2708 0f83 03       		.byte	0x3
 2709 0f84 91       		.byte	0x91
 2710 0f85 B47F     		.sleb128 -76
 2711 0f87 27       		.uleb128 0x27
 2712 0f88 697000   		.ascii	"ip\000"
 2713 0f8b 01       		.byte	0x1
 2714 0f8c E4       		.byte	0xe4
 2715 0f8d 950B0000 		.4byte	0xb95
 2716 0f91 03       		.byte	0x3
 2717 0f92 91       		.byte	0x91
 2718 0f93 9C7F     		.sleb128 -100
 2719 0f95 2C       		.uleb128 0x2c
 2720 0f96 7B080000 		.4byte	.LASF204
 2721 0f9a 01       		.byte	0x1
 2722 0f9b E4       		.byte	0xe4
ARM GAS  /var/folders/5n/p_75w94d66l9ssrldxqdhh700000gn/T//ccp9Ul8m.s 			page 49


 2723 0f9c 950B0000 		.4byte	0xb95
 2724 0fa0 03       		.byte	0x3
 2725 0fa1 91       		.byte	0x91
 2726 0fa2 A07F     		.sleb128 -96
 2727 0fa4 2C       		.uleb128 0x2c
 2728 0fa5 45050000 		.4byte	.LASF186
 2729 0fa9 01       		.byte	0x1
 2730 0faa E4       		.byte	0xe4
 2731 0fab 950B0000 		.4byte	0xb95
 2732 0faf 03       		.byte	0x3
 2733 0fb0 91       		.byte	0x91
 2734 0fb1 A47F     		.sleb128 -92
 2735 0fb3 2C       		.uleb128 0x2c
 2736 0fb4 C4030000 		.4byte	.LASF207
 2737 0fb8 01       		.byte	0x1
 2738 0fb9 E5       		.byte	0xe5
 2739 0fba E20B0000 		.4byte	0xbe2
 2740 0fbe 05       		.byte	0x5
 2741 0fbf 03       		.byte	0x3
 2742 0fc0 00000000 		.4byte	thisif.7114
 2743 0fc4 2C       		.uleb128 0x2c
 2744 0fc5 26080000 		.4byte	.LASF208
 2745 0fc9 01       		.byte	0x1
 2746 0fca E6       		.byte	0xe6
 2747 0fcb 2C070000 		.4byte	0x72c
 2748 0fcf 05       		.byte	0x5
 2749 0fd0 03       		.byte	0x3
 2750 0fd1 00000000 		.4byte	mac_config.7115
 2751 0fd5 2D       		.uleb128 0x2d
 2752 0fd6 2E000000 		.4byte	.LBB17
 2753 0fda 4C000000 		.4byte	.LBE17
 2754 0fde FB0F0000 		.4byte	0xffb
 2755 0fe2 2E       		.uleb128 0x2e
 2756 0fe3 D7050000 		.4byte	.LASF209
 2757 0fe7 01       		.byte	0x1
 2758 0fe8 F5       		.byte	0xf5
 2759 0fe9 A0120000 		.4byte	0x12a0
 2760 0fed 26       		.uleb128 0x26
 2761 0fee 6900     		.ascii	"i\000"
 2762 0ff0 01       		.byte	0x1
 2763 0ff1 F6       		.byte	0xf6
 2764 0ff2 3B000000 		.4byte	0x3b
 2765 0ff6 2C010000 		.4byte	.LLST8
 2766 0ffa 00       		.byte	0
 2767 0ffb 2D       		.uleb128 0x2d
 2768 0ffc EA000000 		.4byte	.LBB18
 2769 1000 D4010000 		.4byte	.LBE18
 2770 1004 7A110000 		.4byte	0x117a
 2771 1008 2F       		.uleb128 0x2f
 2772 1009 4D050000 		.4byte	.LASF210
 2773 100d 01       		.byte	0x1
 2774 100e 1A01     		.2byte	0x11a
 2775 1010 FE000000 		.4byte	0xfe
 2776 1014 3F010000 		.4byte	.LLST9
 2777 1018 30       		.uleb128 0x30
 2778 1019 20000000 		.4byte	.Ldebug_ranges0+0x20
 2779 101d 64100000 		.4byte	0x1064
ARM GAS  /var/folders/5n/p_75w94d66l9ssrldxqdhh700000gn/T//ccp9Ul8m.s 			page 50


 2780 1021 2F       		.uleb128 0x2f
 2781 1022 8B050000 		.4byte	.LASF211
 2782 1026 01       		.byte	0x1
 2783 1027 1C01     		.2byte	0x11c
 2784 1029 BC000000 		.4byte	0xbc
 2785 102d 73010000 		.4byte	.LLST10
 2786 1031 31       		.uleb128 0x31
 2787 1032 02010000 		.4byte	.LVL37
 2788 1036 69130000 		.4byte	0x1369
 2789 103a 28       		.uleb128 0x28
 2790 103b 1E010000 		.4byte	.LVL40
 2791 103f 81130000 		.4byte	0x1381
 2792 1043 53100000 		.4byte	0x1053
 2793 1047 29       		.uleb128 0x29
 2794 1048 01       		.byte	0x1
 2795 1049 52       		.byte	0x52
 2796 104a 01       		.byte	0x1
 2797 104b 30       		.byte	0x30
 2798 104c 29       		.uleb128 0x29
 2799 104d 01       		.byte	0x1
 2800 104e 51       		.byte	0x51
 2801 104f 02       		.byte	0x2
 2802 1050 76       		.byte	0x76
 2803 1051 00       		.sleb128 0
 2804 1052 00       		.byte	0
 2805 1053 2A       		.uleb128 0x2a
 2806 1054 84010000 		.4byte	.LVL54
 2807 1058 81130000 		.4byte	0x1381
 2808 105c 29       		.uleb128 0x29
 2809 105d 01       		.byte	0x1
 2810 105e 51       		.byte	0x51
 2811 105f 02       		.byte	0x2
 2812 1060 76       		.byte	0x76
 2813 1061 00       		.sleb128 0
 2814 1062 00       		.byte	0
 2815 1063 00       		.byte	0
 2816 1064 30       		.uleb128 0x30
 2817 1065 38000000 		.4byte	.Ldebug_ranges0+0x38
 2818 1069 69110000 		.4byte	0x1169
 2819 106d 32       		.uleb128 0x32
 2820 106e 7000     		.ascii	"p\000"
 2821 1070 01       		.byte	0x1
 2822 1071 2701     		.2byte	0x127
 2823 1073 0A090000 		.4byte	0x90a
 2824 1077 30       		.uleb128 0x30
 2825 1078 50000000 		.4byte	.Ldebug_ranges0+0x50
 2826 107c C0100000 		.4byte	0x10c0
 2827 1080 2F       		.uleb128 0x2f
 2828 1081 9C000000 		.4byte	.LASF212
 2829 1085 01       		.byte	0x1
 2830 1086 2901     		.2byte	0x129
 2831 1088 A6120000 		.4byte	0x12a6
 2832 108c 9C010000 		.4byte	.LLST11
 2833 1090 31       		.uleb128 0x31
 2834 1091 6A010000 		.4byte	.LVL50
 2835 1095 A3130000 		.4byte	0x13a3
 2836 1099 28       		.uleb128 0x28
ARM GAS  /var/folders/5n/p_75w94d66l9ssrldxqdhh700000gn/T//ccp9Ul8m.s 			page 51


 2837 109a 7A010000 		.4byte	.LVL51
 2838 109e BB130000 		.4byte	0x13bb
 2839 10a2 AD100000 		.4byte	0x10ad
 2840 10a6 29       		.uleb128 0x29
 2841 10a7 01       		.byte	0x1
 2842 10a8 50       		.byte	0x50
 2843 10a9 02       		.byte	0x2
 2844 10aa 75       		.byte	0x75
 2845 10ab 00       		.sleb128 0
 2846 10ac 00       		.byte	0
 2847 10ad 33       		.uleb128 0x33
 2848 10ae 8E010000 		.4byte	.LVL56
 2849 10b2 29       		.uleb128 0x29
 2850 10b3 01       		.byte	0x1
 2851 10b4 51       		.byte	0x51
 2852 10b5 02       		.byte	0x2
 2853 10b6 76       		.byte	0x76
 2854 10b7 00       		.sleb128 0
 2855 10b8 29       		.uleb128 0x29
 2856 10b9 01       		.byte	0x1
 2857 10ba 50       		.byte	0x50
 2858 10bb 02       		.byte	0x2
 2859 10bc 75       		.byte	0x75
 2860 10bd 00       		.sleb128 0
 2861 10be 00       		.byte	0
 2862 10bf 00       		.byte	0
 2863 10c0 34       		.uleb128 0x34
 2864 10c1 150E0000 		.4byte	0xe15
 2865 10c5 26010000 		.4byte	.LBB22
 2866 10c9 78000000 		.4byte	.Ldebug_ranges0+0x78
 2867 10cd 01       		.byte	0x1
 2868 10ce 2801     		.2byte	0x128
 2869 10d0 35       		.uleb128 0x35
 2870 10d1 98000000 		.4byte	.Ldebug_ranges0+0x98
 2871 10d5 36       		.uleb128 0x36
 2872 10d6 260E0000 		.4byte	0xe26
 2873 10da 37       		.uleb128 0x37
 2874 10db 310E0000 		.4byte	0xe31
 2875 10df 02       		.byte	0x2
 2876 10e0 91       		.byte	0x91
 2877 10e1 40       		.sleb128 -64
 2878 10e2 38       		.uleb128 0x38
 2879 10e3 3B0E0000 		.4byte	0xe3b
 2880 10e7 AF010000 		.4byte	.LLST12
 2881 10eb 38       		.uleb128 0x38
 2882 10ec 440E0000 		.4byte	0xe44
 2883 10f0 EE010000 		.4byte	.LLST13
 2884 10f4 38       		.uleb128 0x38
 2885 10f5 4D0E0000 		.4byte	0xe4d
 2886 10f9 0C020000 		.4byte	.LLST14
 2887 10fd 28       		.uleb128 0x28
 2888 10fe 30010000 		.4byte	.LVL42
 2889 1102 D3130000 		.4byte	0x13d3
 2890 1106 16110000 		.4byte	0x1116
 2891 110a 29       		.uleb128 0x29
 2892 110b 01       		.byte	0x1
 2893 110c 52       		.byte	0x52
ARM GAS  /var/folders/5n/p_75w94d66l9ssrldxqdhh700000gn/T//ccp9Ul8m.s 			page 52


 2894 110d 01       		.byte	0x1
 2895 110e 30       		.byte	0x30
 2896 110f 29       		.uleb128 0x29
 2897 1110 01       		.byte	0x1
 2898 1111 51       		.byte	0x51
 2899 1112 02       		.byte	0x2
 2900 1113 91       		.byte	0x91
 2901 1114 40       		.sleb128 -64
 2902 1115 00       		.byte	0
 2903 1116 28       		.uleb128 0x28
 2904 1117 40010000 		.4byte	.LVL44
 2905 111b FB130000 		.4byte	0x13fb
 2906 111f 2E110000 		.4byte	0x112e
 2907 1123 29       		.uleb128 0x29
 2908 1124 01       		.byte	0x1
 2909 1125 52       		.byte	0x52
 2910 1126 01       		.byte	0x1
 2911 1127 33       		.byte	0x33
 2912 1128 29       		.uleb128 0x29
 2913 1129 01       		.byte	0x1
 2914 112a 50       		.byte	0x50
 2915 112b 01       		.byte	0x1
 2916 112c 33       		.byte	0x33
 2917 112d 00       		.byte	0
 2918 112e 28       		.uleb128 0x28
 2919 112f 50010000 		.4byte	.LVL46
 2920 1133 1D140000 		.4byte	0x141d
 2921 1137 42110000 		.4byte	0x1142
 2922 113b 29       		.uleb128 0x29
 2923 113c 01       		.byte	0x1
 2924 113d 50       		.byte	0x50
 2925 113e 02       		.byte	0x2
 2926 113f 91       		.byte	0x91
 2927 1140 40       		.sleb128 -64
 2928 1141 00       		.byte	0
 2929 1142 28       		.uleb128 0x28
 2930 1143 5C010000 		.4byte	.LVL48
 2931 1147 40140000 		.4byte	0x1440
 2932 114b 56110000 		.4byte	0x1156
 2933 114f 29       		.uleb128 0x29
 2934 1150 01       		.byte	0x1
 2935 1151 50       		.byte	0x50
 2936 1152 02       		.byte	0x2
 2937 1153 91       		.byte	0x91
 2938 1154 40       		.sleb128 -64
 2939 1155 00       		.byte	0
 2940 1156 2A       		.uleb128 0x2a
 2941 1157 9A010000 		.4byte	.LVL59
 2942 115b 40140000 		.4byte	0x1440
 2943 115f 29       		.uleb128 0x29
 2944 1160 01       		.byte	0x1
 2945 1161 50       		.byte	0x50
 2946 1162 02       		.byte	0x2
 2947 1163 91       		.byte	0x91
 2948 1164 40       		.sleb128 -64
 2949 1165 00       		.byte	0
 2950 1166 00       		.byte	0
ARM GAS  /var/folders/5n/p_75w94d66l9ssrldxqdhh700000gn/T//ccp9Ul8m.s 			page 53


 2951 1167 00       		.byte	0
 2952 1168 00       		.byte	0
 2953 1169 2A       		.uleb128 0x2a
 2954 116a F6000000 		.4byte	.LVL34
 2955 116e 54140000 		.4byte	0x1454
 2956 1172 29       		.uleb128 0x29
 2957 1173 01       		.byte	0x1
 2958 1174 50       		.byte	0x50
 2959 1175 02       		.byte	0x2
 2960 1176 09       		.byte	0x9
 2961 1177 FF       		.byte	0xff
 2962 1178 00       		.byte	0
 2963 1179 00       		.byte	0
 2964 117a 31       		.uleb128 0x31
 2965 117b 16000000 		.4byte	.LVL15
 2966 117f 6C140000 		.4byte	0x146c
 2967 1183 31       		.uleb128 0x31
 2968 1184 1A000000 		.4byte	.LVL16
 2969 1188 76140000 		.4byte	0x1476
 2970 118c 31       		.uleb128 0x31
 2971 118d 1E000000 		.4byte	.LVL17
 2972 1191 80140000 		.4byte	0x1480
 2973 1195 31       		.uleb128 0x31
 2974 1196 22000000 		.4byte	.LVL18
 2975 119a 8A140000 		.4byte	0x148a
 2976 119e 28       		.uleb128 0x28
 2977 119f 2A000000 		.4byte	.LVL19
 2978 11a3 94140000 		.4byte	0x1494
 2979 11a7 B6110000 		.4byte	0x11b6
 2980 11ab 29       		.uleb128 0x29
 2981 11ac 01       		.byte	0x1
 2982 11ad 51       		.byte	0x51
 2983 11ae 01       		.byte	0x1
 2984 11af 30       		.byte	0x30
 2985 11b0 29       		.uleb128 0x29
 2986 11b1 01       		.byte	0x1
 2987 11b2 50       		.byte	0x50
 2988 11b3 01       		.byte	0x1
 2989 11b4 30       		.byte	0x30
 2990 11b5 00       		.byte	0
 2991 11b6 28       		.uleb128 0x28
 2992 11b7 92000000 		.4byte	.LVL22
 2993 11bb AD140000 		.4byte	0x14ad
 2994 11bf CD110000 		.4byte	0x11cd
 2995 11c3 29       		.uleb128 0x29
 2996 11c4 01       		.byte	0x1
 2997 11c5 51       		.byte	0x51
 2998 11c6 05       		.byte	0x5
 2999 11c7 03       		.byte	0x3
 3000 11c8 00000000 		.4byte	.LANCHOR1
 3001 11cc 00       		.byte	0
 3002 11cd 28       		.uleb128 0x28
 3003 11ce AA000000 		.4byte	.LVL24
 3004 11d2 C6140000 		.4byte	0x14c6
 3005 11d6 07120000 		.4byte	0x1207
 3006 11da 29       		.uleb128 0x29
 3007 11db 01       		.byte	0x1
ARM GAS  /var/folders/5n/p_75w94d66l9ssrldxqdhh700000gn/T//ccp9Ul8m.s 			page 54


 3008 11dc 53       		.byte	0x53
 3009 11dd 03       		.byte	0x3
 3010 11de 91       		.byte	0x91
 3011 11df A07F     		.sleb128 -96
 3012 11e1 29       		.uleb128 0x29
 3013 11e2 01       		.byte	0x1
 3014 11e3 52       		.byte	0x52
 3015 11e4 03       		.byte	0x3
 3016 11e5 91       		.byte	0x91
 3017 11e6 A47F     		.sleb128 -92
 3018 11e8 29       		.uleb128 0x29
 3019 11e9 01       		.byte	0x1
 3020 11ea 51       		.byte	0x51
 3021 11eb 03       		.byte	0x3
 3022 11ec 91       		.byte	0x91
 3023 11ed 9C7F     		.sleb128 -100
 3024 11ef 29       		.uleb128 0x29
 3025 11f0 01       		.byte	0x1
 3026 11f1 50       		.byte	0x50
 3027 11f2 02       		.byte	0x2
 3028 11f3 76       		.byte	0x76
 3029 11f4 00       		.sleb128 0
 3030 11f5 29       		.uleb128 0x29
 3031 11f6 02       		.byte	0x2
 3032 11f7 7D       		.byte	0x7d
 3033 11f8 04       		.sleb128 4
 3034 11f9 05       		.byte	0x5
 3035 11fa 03       		.byte	0x3
 3036 11fb 00000000 		.4byte	ethernetif_init
 3037 11ff 29       		.uleb128 0x29
 3038 1200 02       		.byte	0x2
 3039 1201 7D       		.byte	0x7d
 3040 1202 00       		.sleb128 0
 3041 1203 02       		.byte	0x2
 3042 1204 74       		.byte	0x74
 3043 1205 00       		.sleb128 0
 3044 1206 00       		.byte	0
 3045 1207 28       		.uleb128 0x28
 3046 1208 B0000000 		.4byte	.LVL25
 3047 120c FC140000 		.4byte	0x14fc
 3048 1210 1B120000 		.4byte	0x121b
 3049 1214 29       		.uleb128 0x29
 3050 1215 01       		.byte	0x1
 3051 1216 50       		.byte	0x50
 3052 1217 02       		.byte	0x2
 3053 1218 76       		.byte	0x76
 3054 1219 00       		.sleb128 0
 3055 121a 00       		.byte	0
 3056 121b 28       		.uleb128 0x28
 3057 121c B6000000 		.4byte	.LVL26
 3058 1220 11150000 		.4byte	0x1511
 3059 1224 2F120000 		.4byte	0x122f
 3060 1228 29       		.uleb128 0x29
 3061 1229 01       		.byte	0x1
 3062 122a 50       		.byte	0x50
 3063 122b 02       		.byte	0x2
 3064 122c 76       		.byte	0x76
ARM GAS  /var/folders/5n/p_75w94d66l9ssrldxqdhh700000gn/T//ccp9Ul8m.s 			page 55


 3065 122d 00       		.sleb128 0
 3066 122e 00       		.byte	0
 3067 122f 28       		.uleb128 0x28
 3068 1230 C8000000 		.4byte	.LVL27
 3069 1234 26150000 		.4byte	0x1526
 3070 1238 43120000 		.4byte	0x1243
 3071 123c 29       		.uleb128 0x29
 3072 123d 01       		.byte	0x1
 3073 123e 50       		.byte	0x50
 3074 123f 02       		.byte	0x2
 3075 1240 91       		.byte	0x91
 3076 1241 4C       		.sleb128 -52
 3077 1242 00       		.byte	0
 3078 1243 28       		.uleb128 0x28
 3079 1244 D2000000 		.4byte	.LVL28
 3080 1248 40150000 		.4byte	0x1540
 3081 124c 63120000 		.4byte	0x1263
 3082 1250 29       		.uleb128 0x29
 3083 1251 01       		.byte	0x1
 3084 1252 52       		.byte	0x52
 3085 1253 01       		.byte	0x1
 3086 1254 31       		.byte	0x31
 3087 1255 29       		.uleb128 0x29
 3088 1256 01       		.byte	0x1
 3089 1257 51       		.byte	0x51
 3090 1258 03       		.byte	0x3
 3091 1259 91       		.byte	0x91
 3092 125a A87F     		.sleb128 -88
 3093 125c 29       		.uleb128 0x29
 3094 125d 01       		.byte	0x1
 3095 125e 50       		.byte	0x50
 3096 125f 02       		.byte	0x2
 3097 1260 75       		.byte	0x75
 3098 1261 00       		.sleb128 0
 3099 1262 00       		.byte	0
 3100 1263 28       		.uleb128 0x28
 3101 1264 DC000000 		.4byte	.LVL29
 3102 1268 40150000 		.4byte	0x1540
 3103 126c 7D120000 		.4byte	0x127d
 3104 1270 29       		.uleb128 0x29
 3105 1271 01       		.byte	0x1
 3106 1272 52       		.byte	0x52
 3107 1273 01       		.byte	0x1
 3108 1274 32       		.byte	0x32
 3109 1275 29       		.uleb128 0x29
 3110 1276 01       		.byte	0x1
 3111 1277 51       		.byte	0x51
 3112 1278 03       		.byte	0x3
 3113 1279 91       		.byte	0x91
 3114 127a B47F     		.sleb128 -76
 3115 127c 00       		.byte	0
 3116 127d 28       		.uleb128 0x28
 3117 127e E2000000 		.4byte	.LVL30
 3118 1282 64150000 		.4byte	0x1564
 3119 1286 90120000 		.4byte	0x1290
 3120 128a 29       		.uleb128 0x29
 3121 128b 01       		.byte	0x1
ARM GAS  /var/folders/5n/p_75w94d66l9ssrldxqdhh700000gn/T//ccp9Ul8m.s 			page 56


 3122 128c 50       		.byte	0x50
 3123 128d 01       		.byte	0x1
 3124 128e 33       		.byte	0x33
 3125 128f 00       		.byte	0
 3126 1290 2A       		.uleb128 0x2a
 3127 1291 E8000000 		.4byte	.LVL31
 3128 1295 7C150000 		.4byte	0x157c
 3129 1299 29       		.uleb128 0x29
 3130 129a 01       		.byte	0x1
 3131 129b 50       		.byte	0x50
 3132 129c 01       		.byte	0x1
 3133 129d 32       		.byte	0x32
 3134 129e 00       		.byte	0
 3135 129f 00       		.byte	0
 3136 12a0 09       		.uleb128 0x9
 3137 12a1 04       		.byte	0x4
 3138 12a2 B70D0000 		.4byte	0xdb7
 3139 12a6 09       		.uleb128 0x9
 3140 12a7 04       		.byte	0x4
 3141 12a8 800D0000 		.4byte	0xd80
 3142 12ac 39       		.uleb128 0x39
 3143 12ad 08080000 		.4byte	.LASF213
 3144 12b1 09       		.byte	0x9
 3145 12b2 72       		.byte	0x72
 3146 12b3 5E040000 		.4byte	0x45e
 3147 12b7 01       		.byte	0x1
 3148 12b8 01       		.byte	0x1
 3149 12b9 3A       		.uleb128 0x3a
 3150 12ba 58050000 		.4byte	.LASF214
 3151 12be 1B       		.byte	0x1b
 3152 12bf 1A05     		.2byte	0x51a
 3153 12c1 A6050000 		.4byte	0x5a6
 3154 12c5 01       		.byte	0x1
 3155 12c6 01       		.byte	0x1
 3156 12c7 3A       		.uleb128 0x3a
 3157 12c8 B8000000 		.4byte	.LASF215
 3158 12cc 0E       		.byte	0xe
 3159 12cd 4401     		.2byte	0x144
 3160 12cf D1050000 		.4byte	0x5d1
 3161 12d3 01       		.byte	0x1
 3162 12d4 01       		.byte	0x1
 3163 12d5 39       		.uleb128 0x39
 3164 12d6 5B080000 		.4byte	.LASF216
 3165 12da 15       		.byte	0x15
 3166 12db 95       		.byte	0x95
 3167 12dc E80A0000 		.4byte	0xae8
 3168 12e0 01       		.byte	0x1
 3169 12e1 01       		.byte	0x1
 3170 12e2 19       		.uleb128 0x19
 3171 12e3 A6020000 		.4byte	0x2a6
 3172 12e7 F2120000 		.4byte	0x12f2
 3173 12eb 1A       		.uleb128 0x1a
 3174 12ec 66030000 		.4byte	0x366
 3175 12f0 55       		.byte	0x55
 3176 12f1 00       		.byte	0
 3177 12f2 3B       		.uleb128 0x3b
 3178 12f3 AE070000 		.4byte	.LASF217
ARM GAS  /var/folders/5n/p_75w94d66l9ssrldxqdhh700000gn/T//ccp9Ul8m.s 			page 57


 3179 12f7 01       		.byte	0x1
 3180 12f8 5D       		.byte	0x5d
 3181 12f9 E2120000 		.4byte	0x12e2
 3182 12fd 01       		.byte	0x1
 3183 12fe 05       		.byte	0x5
 3184 12ff 03       		.byte	0x3
 3185 1300 00000000 		.4byte	wa_lwip_thread
 3186 1304 3C       		.uleb128 0x3c
 3187 1305 01       		.byte	0x1
 3188 1306 5C040000 		.4byte	.LASF218
 3189 130a 0D       		.byte	0xd
 3190 130b 9C       		.byte	0x9c
 3191 130c 01       		.byte	0x1
 3192 130d F3000000 		.4byte	0xf3
 3193 1311 01       		.byte	0x1
 3194 1312 26130000 		.4byte	0x1326
 3195 1316 0F       		.uleb128 0xf
 3196 1317 26130000 		.4byte	0x1326
 3197 131b 0F       		.uleb128 0xf
 3198 131c 2C130000 		.4byte	0x132c
 3199 1320 0F       		.uleb128 0xf
 3200 1321 09010000 		.4byte	0x109
 3201 1325 00       		.byte	0
 3202 1326 09       		.uleb128 0x9
 3203 1327 04       		.byte	0x4
 3204 1328 D1050000 		.4byte	0x5d1
 3205 132c 09       		.uleb128 0x9
 3206 132d 04       		.byte	0x4
 3207 132e 74070000 		.4byte	0x774
 3208 1332 3D       		.uleb128 0x3d
 3209 1333 01       		.byte	0x1
 3210 1334 10020000 		.4byte	.LASF219
 3211 1338 0E       		.byte	0xe
 3212 1339 4F01     		.2byte	0x14f
 3213 133b 01       		.byte	0x1
 3214 133c 30000000 		.4byte	0x30
 3215 1340 01       		.byte	0x1
 3216 1341 55130000 		.4byte	0x1355
 3217 1345 0F       		.uleb128 0xf
 3218 1346 2C130000 		.4byte	0x132c
 3219 134a 0F       		.uleb128 0xf
 3220 134b A0050000 		.4byte	0x5a0
 3221 134f 0F       		.uleb128 0xf
 3222 1350 30000000 		.4byte	0x30
 3223 1354 00       		.byte	0
 3224 1355 3E       		.uleb128 0x3e
 3225 1356 01       		.byte	0x1
 3226 1357 83080000 		.4byte	.LASF227
 3227 135b 0D       		.byte	0xd
 3228 135c 9F       		.byte	0x9f
 3229 135d 01       		.byte	0x1
 3230 135e 01       		.byte	0x1
 3231 135f 69130000 		.4byte	0x1369
 3232 1363 0F       		.uleb128 0xf
 3233 1364 2C130000 		.4byte	0x132c
 3234 1368 00       		.byte	0
 3235 1369 3C       		.uleb128 0x3c
ARM GAS  /var/folders/5n/p_75w94d66l9ssrldxqdhh700000gn/T//ccp9Ul8m.s 			page 58


 3236 136a 01       		.byte	0x1
 3237 136b 36090000 		.4byte	.LASF220
 3238 136f 0D       		.byte	0xd
 3239 1370 A4       		.byte	0xa4
 3240 1371 01       		.byte	0x1
 3241 1372 BC000000 		.4byte	0xbc
 3242 1376 01       		.byte	0x1
 3243 1377 81130000 		.4byte	0x1381
 3244 137b 0F       		.uleb128 0xf
 3245 137c 26130000 		.4byte	0x1326
 3246 1380 00       		.byte	0
 3247 1381 3C       		.uleb128 0x3c
 3248 1382 01       		.byte	0x1
 3249 1383 F8030000 		.4byte	.LASF221
 3250 1387 18       		.byte	0x18
 3251 1388 62       		.byte	0x62
 3252 1389 01       		.byte	0x1
 3253 138a 38080000 		.4byte	0x838
 3254 138e 01       		.byte	0x1
 3255 138f A3130000 		.4byte	0x13a3
 3256 1393 0F       		.uleb128 0xf
 3257 1394 5A0D0000 		.4byte	0xd5a
 3258 1398 0F       		.uleb128 0xf
 3259 1399 A4020000 		.4byte	0x2a4
 3260 139d 0F       		.uleb128 0xf
 3261 139e 01080000 		.4byte	0x801
 3262 13a2 00       		.byte	0
 3263 13a3 3C       		.uleb128 0x3c
 3264 13a4 01       		.byte	0x1
 3265 13a5 28010000 		.4byte	.LASF222
 3266 13a9 1C       		.byte	0x1c
 3267 13aa 67       		.byte	0x67
 3268 13ab 01       		.byte	0x1
 3269 13ac 17080000 		.4byte	0x817
 3270 13b0 01       		.byte	0x1
 3271 13b1 BB130000 		.4byte	0x13bb
 3272 13b5 0F       		.uleb128 0xf
 3273 13b6 17080000 		.4byte	0x817
 3274 13ba 00       		.byte	0
 3275 13bb 3C       		.uleb128 0x3c
 3276 13bc 01       		.byte	0x1
 3277 13bd EA070000 		.4byte	.LASF223
 3278 13c1 13       		.byte	0x13
 3279 13c2 83       		.byte	0x83
 3280 13c3 01       		.byte	0x1
 3281 13c4 01080000 		.4byte	0x801
 3282 13c8 01       		.byte	0x1
 3283 13c9 D3130000 		.4byte	0x13d3
 3284 13cd 0F       		.uleb128 0xf
 3285 13ce 0A090000 		.4byte	0x90a
 3286 13d2 00       		.byte	0
 3287 13d3 3C       		.uleb128 0x3c
 3288 13d4 01       		.byte	0x1
 3289 13d5 59030000 		.4byte	.LASF224
 3290 13d9 0D       		.byte	0xd
 3291 13da A0       		.byte	0xa0
 3292 13db 01       		.byte	0x1
ARM GAS  /var/folders/5n/p_75w94d66l9ssrldxqdhh700000gn/T//ccp9Ul8m.s 			page 59


 3293 13dc F3000000 		.4byte	0xf3
 3294 13e0 01       		.byte	0x1
 3295 13e1 F5130000 		.4byte	0x13f5
 3296 13e5 0F       		.uleb128 0xf
 3297 13e6 26130000 		.4byte	0x1326
 3298 13ea 0F       		.uleb128 0xf
 3299 13eb F5130000 		.4byte	0x13f5
 3300 13ef 0F       		.uleb128 0xf
 3301 13f0 09010000 		.4byte	0x109
 3302 13f4 00       		.byte	0
 3303 13f5 09       		.uleb128 0x9
 3304 13f6 04       		.byte	0x4
 3305 13f7 B7070000 		.4byte	0x7b7
 3306 13fb 3C       		.uleb128 0x3c
 3307 13fc 01       		.byte	0x1
 3308 13fd 80070000 		.4byte	.LASF225
 3309 1401 13       		.byte	0x13
 3310 1402 7A       		.byte	0x7a
 3311 1403 01       		.byte	0x1
 3312 1404 0A090000 		.4byte	0x90a
 3313 1408 01       		.byte	0x1
 3314 1409 1D140000 		.4byte	0x141d
 3315 140d 0F       		.uleb128 0xf
 3316 140e 64080000 		.4byte	0x864
 3317 1412 0F       		.uleb128 0xf
 3318 1413 17080000 		.4byte	0x817
 3319 1417 0F       		.uleb128 0xf
 3320 1418 90080000 		.4byte	0x890
 3321 141c 00       		.byte	0
 3322 141d 3D       		.uleb128 0x3d
 3323 141e 01       		.byte	0x1
 3324 141f 32020000 		.4byte	.LASF226
 3325 1423 0E       		.byte	0xe
 3326 1424 5501     		.2byte	0x155
 3327 1426 01       		.byte	0x1
 3328 1427 30000000 		.4byte	0x30
 3329 142b 01       		.byte	0x1
 3330 142c 40140000 		.4byte	0x1440
 3331 1430 0F       		.uleb128 0xf
 3332 1431 F5130000 		.4byte	0x13f5
 3333 1435 0F       		.uleb128 0xf
 3334 1436 A0050000 		.4byte	0x5a0
 3335 143a 0F       		.uleb128 0xf
 3336 143b 30000000 		.4byte	0x30
 3337 143f 00       		.byte	0
 3338 1440 3E       		.uleb128 0x3e
 3339 1441 01       		.byte	0x1
 3340 1442 05030000 		.4byte	.LASF228
 3341 1446 0D       		.byte	0xd
 3342 1447 A3       		.byte	0xa3
 3343 1448 01       		.byte	0x1
 3344 1449 01       		.byte	0x1
 3345 144a 54140000 		.4byte	0x1454
 3346 144e 0F       		.uleb128 0xf
 3347 144f F5130000 		.4byte	0x13f5
 3348 1453 00       		.byte	0
 3349 1454 3C       		.uleb128 0x3c
ARM GAS  /var/folders/5n/p_75w94d66l9ssrldxqdhh700000gn/T//ccp9Ul8m.s 			page 60


 3350 1455 01       		.byte	0x1
 3351 1456 BA090000 		.4byte	.LASF229
 3352 145a 0C       		.byte	0xc
 3353 145b B7       		.byte	0xb7
 3354 145c 01       		.byte	0x1
 3355 145d FE000000 		.4byte	0xfe
 3356 1461 01       		.byte	0x1
 3357 1462 6C140000 		.4byte	0x146c
 3358 1466 0F       		.uleb128 0xf
 3359 1467 FE000000 		.4byte	0xfe
 3360 146b 00       		.byte	0
 3361 146c 3F       		.uleb128 0x3f
 3362 146d 01       		.byte	0x1
 3363 146e E8000000 		.4byte	.LASF230
 3364 1472 1D       		.byte	0x1d
 3365 1473 DF       		.byte	0xdf
 3366 1474 01       		.byte	0x1
 3367 1475 01       		.byte	0x1
 3368 1476 3F       		.uleb128 0x3f
 3369 1477 01       		.byte	0x1
 3370 1478 80030000 		.4byte	.LASF231
 3371 147c 11       		.byte	0x11
 3372 147d 57       		.byte	0x57
 3373 147e 01       		.byte	0x1
 3374 147f 01       		.byte	0x1
 3375 1480 3F       		.uleb128 0x3f
 3376 1481 01       		.byte	0x1
 3377 1482 FE050000 		.4byte	.LASF232
 3378 1486 14       		.byte	0x14
 3379 1487 64       		.byte	0x64
 3380 1488 01       		.byte	0x1
 3381 1489 01       		.byte	0x1
 3382 148a 3F       		.uleb128 0x3f
 3383 148b 01       		.byte	0x1
 3384 148c 52020000 		.4byte	.LASF233
 3385 1490 17       		.byte	0x17
 3386 1491 FD       		.byte	0xfd
 3387 1492 01       		.byte	0x1
 3388 1493 01       		.byte	0x1
 3389 1494 3E       		.uleb128 0x3e
 3390 1495 01       		.byte	0x1
 3391 1496 F9080000 		.4byte	.LASF234
 3392 149a 18       		.byte	0x18
 3393 149b 50       		.byte	0x50
 3394 149c 01       		.byte	0x1
 3395 149d 01       		.byte	0x1
 3396 149e AD140000 		.4byte	0x14ad
 3397 14a2 0F       		.uleb128 0xf
 3398 14a3 4F0D0000 		.4byte	0xd4f
 3399 14a7 0F       		.uleb128 0xf
 3400 14a8 A4020000 		.4byte	0x2a4
 3401 14ac 00       		.byte	0
 3402 14ad 3E       		.uleb128 0x3e
 3403 14ae 01       		.byte	0x1
 3404 14af D9070000 		.4byte	.LASF235
 3405 14b3 0D       		.byte	0xd
 3406 14b4 99       		.byte	0x99
ARM GAS  /var/folders/5n/p_75w94d66l9ssrldxqdhh700000gn/T//ccp9Ul8m.s 			page 61


 3407 14b5 01       		.byte	0x1
 3408 14b6 01       		.byte	0x1
 3409 14b7 C6140000 		.4byte	0x14c6
 3410 14bb 0F       		.uleb128 0xf
 3411 14bc 26130000 		.4byte	0x1326
 3412 14c0 0F       		.uleb128 0xf
 3413 14c1 26070000 		.4byte	0x726
 3414 14c5 00       		.byte	0
 3415 14c6 3C       		.uleb128 0x3c
 3416 14c7 01       		.byte	0x1
 3417 14c8 A0080000 		.4byte	.LASF236
 3418 14cc 17       		.byte	0x17
 3419 14cd FF       		.byte	0xff
 3420 14ce 01       		.byte	0x1
 3421 14cf DC0B0000 		.4byte	0xbdc
 3422 14d3 01       		.byte	0x1
 3423 14d4 FC140000 		.4byte	0x14fc
 3424 14d8 0F       		.uleb128 0xf
 3425 14d9 DC0B0000 		.4byte	0xbdc
 3426 14dd 0F       		.uleb128 0xf
 3427 14de 030D0000 		.4byte	0xd03
 3428 14e2 0F       		.uleb128 0xf
 3429 14e3 030D0000 		.4byte	0xd03
 3430 14e7 0F       		.uleb128 0xf
 3431 14e8 030D0000 		.4byte	0xd03
 3432 14ec 0F       		.uleb128 0xf
 3433 14ed A4020000 		.4byte	0x2a4
 3434 14f1 0F       		.uleb128 0xf
 3435 14f2 BB0B0000 		.4byte	0xbbb
 3436 14f6 0F       		.uleb128 0xf
 3437 14f7 B20C0000 		.4byte	0xcb2
 3438 14fb 00       		.byte	0
 3439 14fc 40       		.uleb128 0x40
 3440 14fd 01       		.byte	0x1
 3441 14fe 89040000 		.4byte	.LASF237
 3442 1502 17       		.byte	0x17
 3443 1503 0D01     		.2byte	0x10d
 3444 1505 01       		.byte	0x1
 3445 1506 01       		.byte	0x1
 3446 1507 11150000 		.4byte	0x1511
 3447 150b 0F       		.uleb128 0xf
 3448 150c DC0B0000 		.4byte	0xbdc
 3449 1510 00       		.byte	0
 3450 1511 40       		.uleb128 0x40
 3451 1512 01       		.byte	0x1
 3452 1513 20090000 		.4byte	.LASF238
 3453 1517 17       		.byte	0x17
 3454 1518 1301     		.2byte	0x113
 3455 151a 01       		.byte	0x1
 3456 151b 01       		.byte	0x1
 3457 151c 26150000 		.4byte	0x1526
 3458 1520 0F       		.uleb128 0xf
 3459 1521 DC0B0000 		.4byte	0xbdc
 3460 1525 00       		.byte	0
 3461 1526 3E       		.uleb128 0x3e
 3462 1527 01       		.byte	0x1
 3463 1528 220A0000 		.4byte	.LASF239
ARM GAS  /var/folders/5n/p_75w94d66l9ssrldxqdhh700000gn/T//ccp9Ul8m.s 			page 62


 3464 152c 0F       		.byte	0xf
 3465 152d 33       		.byte	0x33
 3466 152e 01       		.byte	0x1
 3467 152f 01       		.byte	0x1
 3468 1530 3A150000 		.4byte	0x153a
 3469 1534 0F       		.uleb128 0xf
 3470 1535 3A150000 		.4byte	0x153a
 3471 1539 00       		.byte	0
 3472 153a 09       		.uleb128 0x9
 3473 153b 04       		.byte	0x4
 3474 153c F6070000 		.4byte	0x7f6
 3475 1540 3E       		.uleb128 0x3e
 3476 1541 01       		.byte	0x1
 3477 1542 5D090000 		.4byte	.LASF240
 3478 1546 0C       		.byte	0xc
 3479 1547 AA       		.byte	0xaa
 3480 1548 01       		.byte	0x1
 3481 1549 01       		.byte	0x1
 3482 154a 5E150000 		.4byte	0x155e
 3483 154e 0F       		.uleb128 0xf
 3484 154f 5E150000 		.4byte	0x155e
 3485 1553 0F       		.uleb128 0xf
 3486 1554 27050000 		.4byte	0x527
 3487 1558 0F       		.uleb128 0xf
 3488 1559 FE000000 		.4byte	0xfe
 3489 155d 00       		.byte	0
 3490 155e 09       		.uleb128 0x9
 3491 155f 04       		.byte	0x4
 3492 1560 48050000 		.4byte	0x548
 3493 1564 3C       		.uleb128 0x3c
 3494 1565 01       		.byte	0x1
 3495 1566 48090000 		.4byte	.LASF241
 3496 156a 0C       		.byte	0xc
 3497 156b AF       		.byte	0xaf
 3498 156c 01       		.byte	0x1
 3499 156d FE000000 		.4byte	0xfe
 3500 1571 01       		.byte	0x1
 3501 1572 7C150000 		.4byte	0x157c
 3502 1576 0F       		.uleb128 0xf
 3503 1577 FE000000 		.4byte	0xfe
 3504 157b 00       		.byte	0
 3505 157c 41       		.uleb128 0x41
 3506 157d 01       		.byte	0x1
 3507 157e 4D000000 		.4byte	.LASF242
 3508 1582 06       		.byte	0x6
 3509 1583 6601     		.2byte	0x166
 3510 1585 01       		.byte	0x1
 3511 1586 E8000000 		.4byte	0xe8
 3512 158a 01       		.byte	0x1
 3513 158b 0F       		.uleb128 0xf
 3514 158c E8000000 		.4byte	0xe8
 3515 1590 00       		.byte	0
 3516 1591 00       		.byte	0
 3517              		.section	.debug_abbrev,"",%progbits
 3518              	.Ldebug_abbrev0:
 3519 0000 01       		.uleb128 0x1
 3520 0001 11       		.uleb128 0x11
ARM GAS  /var/folders/5n/p_75w94d66l9ssrldxqdhh700000gn/T//ccp9Ul8m.s 			page 63


 3521 0002 01       		.byte	0x1
 3522 0003 25       		.uleb128 0x25
 3523 0004 0E       		.uleb128 0xe
 3524 0005 13       		.uleb128 0x13
 3525 0006 0B       		.uleb128 0xb
 3526 0007 03       		.uleb128 0x3
 3527 0008 0E       		.uleb128 0xe
 3528 0009 1B       		.uleb128 0x1b
 3529 000a 0E       		.uleb128 0xe
 3530 000b 55       		.uleb128 0x55
 3531 000c 06       		.uleb128 0x6
 3532 000d 11       		.uleb128 0x11
 3533 000e 01       		.uleb128 0x1
 3534 000f 52       		.uleb128 0x52
 3535 0010 01       		.uleb128 0x1
 3536 0011 10       		.uleb128 0x10
 3537 0012 06       		.uleb128 0x6
 3538 0013 00       		.byte	0
 3539 0014 00       		.byte	0
 3540 0015 02       		.uleb128 0x2
 3541 0016 24       		.uleb128 0x24
 3542 0017 00       		.byte	0
 3543 0018 0B       		.uleb128 0xb
 3544 0019 0B       		.uleb128 0xb
 3545 001a 3E       		.uleb128 0x3e
 3546 001b 0B       		.uleb128 0xb
 3547 001c 03       		.uleb128 0x3
 3548 001d 08       		.uleb128 0x8
 3549 001e 00       		.byte	0
 3550 001f 00       		.byte	0
 3551 0020 03       		.uleb128 0x3
 3552 0021 16       		.uleb128 0x16
 3553 0022 00       		.byte	0
 3554 0023 03       		.uleb128 0x3
 3555 0024 0E       		.uleb128 0xe
 3556 0025 3A       		.uleb128 0x3a
 3557 0026 0B       		.uleb128 0xb
 3558 0027 3B       		.uleb128 0x3b
 3559 0028 0B       		.uleb128 0xb
 3560 0029 49       		.uleb128 0x49
 3561 002a 13       		.uleb128 0x13
 3562 002b 00       		.byte	0
 3563 002c 00       		.byte	0
 3564 002d 04       		.uleb128 0x4
 3565 002e 24       		.uleb128 0x24
 3566 002f 00       		.byte	0
 3567 0030 0B       		.uleb128 0xb
 3568 0031 0B       		.uleb128 0xb
 3569 0032 3E       		.uleb128 0x3e
 3570 0033 0B       		.uleb128 0xb
 3571 0034 03       		.uleb128 0x3
 3572 0035 0E       		.uleb128 0xe
 3573 0036 00       		.byte	0
 3574 0037 00       		.byte	0
 3575 0038 05       		.uleb128 0x5
 3576 0039 13       		.uleb128 0x13
 3577 003a 01       		.byte	0x1
ARM GAS  /var/folders/5n/p_75w94d66l9ssrldxqdhh700000gn/T//ccp9Ul8m.s 			page 64


 3578 003b 03       		.uleb128 0x3
 3579 003c 0E       		.uleb128 0xe
 3580 003d 0B       		.uleb128 0xb
 3581 003e 0B       		.uleb128 0xb
 3582 003f 3A       		.uleb128 0x3a
 3583 0040 0B       		.uleb128 0xb
 3584 0041 3B       		.uleb128 0x3b
 3585 0042 0B       		.uleb128 0xb
 3586 0043 01       		.uleb128 0x1
 3587 0044 13       		.uleb128 0x13
 3588 0045 00       		.byte	0
 3589 0046 00       		.byte	0
 3590 0047 06       		.uleb128 0x6
 3591 0048 0D       		.uleb128 0xd
 3592 0049 00       		.byte	0
 3593 004a 03       		.uleb128 0x3
 3594 004b 0E       		.uleb128 0xe
 3595 004c 3A       		.uleb128 0x3a
 3596 004d 0B       		.uleb128 0xb
 3597 004e 3B       		.uleb128 0x3b
 3598 004f 0B       		.uleb128 0xb
 3599 0050 49       		.uleb128 0x49
 3600 0051 13       		.uleb128 0x13
 3601 0052 38       		.uleb128 0x38
 3602 0053 0A       		.uleb128 0xa
 3603 0054 00       		.byte	0
 3604 0055 00       		.byte	0
 3605 0056 07       		.uleb128 0x7
 3606 0057 0D       		.uleb128 0xd
 3607 0058 00       		.byte	0
 3608 0059 03       		.uleb128 0x3
 3609 005a 08       		.uleb128 0x8
 3610 005b 3A       		.uleb128 0x3a
 3611 005c 0B       		.uleb128 0xb
 3612 005d 3B       		.uleb128 0x3b
 3613 005e 0B       		.uleb128 0xb
 3614 005f 49       		.uleb128 0x49
 3615 0060 13       		.uleb128 0x13
 3616 0061 38       		.uleb128 0x38
 3617 0062 0A       		.uleb128 0xa
 3618 0063 00       		.byte	0
 3619 0064 00       		.byte	0
 3620 0065 08       		.uleb128 0x8
 3621 0066 13       		.uleb128 0x13
 3622 0067 01       		.byte	0x1
 3623 0068 0B       		.uleb128 0xb
 3624 0069 0B       		.uleb128 0xb
 3625 006a 3A       		.uleb128 0x3a
 3626 006b 0B       		.uleb128 0xb
 3627 006c 3B       		.uleb128 0x3b
 3628 006d 0B       		.uleb128 0xb
 3629 006e 01       		.uleb128 0x1
 3630 006f 13       		.uleb128 0x13
 3631 0070 00       		.byte	0
 3632 0071 00       		.byte	0
 3633 0072 09       		.uleb128 0x9
 3634 0073 0F       		.uleb128 0xf
ARM GAS  /var/folders/5n/p_75w94d66l9ssrldxqdhh700000gn/T//ccp9Ul8m.s 			page 65


 3635 0074 00       		.byte	0
 3636 0075 0B       		.uleb128 0xb
 3637 0076 0B       		.uleb128 0xb
 3638 0077 49       		.uleb128 0x49
 3639 0078 13       		.uleb128 0x13
 3640 0079 00       		.byte	0
 3641 007a 00       		.byte	0
 3642 007b 0A       		.uleb128 0xa
 3643 007c 0F       		.uleb128 0xf
 3644 007d 00       		.byte	0
 3645 007e 0B       		.uleb128 0xb
 3646 007f 0B       		.uleb128 0xb
 3647 0080 00       		.byte	0
 3648 0081 00       		.byte	0
 3649 0082 0B       		.uleb128 0xb
 3650 0083 0D       		.uleb128 0xd
 3651 0084 00       		.byte	0
 3652 0085 03       		.uleb128 0x3
 3653 0086 08       		.uleb128 0x8
 3654 0087 3A       		.uleb128 0x3a
 3655 0088 0B       		.uleb128 0xb
 3656 0089 3B       		.uleb128 0x3b
 3657 008a 05       		.uleb128 0x5
 3658 008b 49       		.uleb128 0x49
 3659 008c 13       		.uleb128 0x13
 3660 008d 38       		.uleb128 0x38
 3661 008e 0A       		.uleb128 0xa
 3662 008f 00       		.byte	0
 3663 0090 00       		.byte	0
 3664 0091 0C       		.uleb128 0xc
 3665 0092 13       		.uleb128 0x13
 3666 0093 01       		.byte	0x1
 3667 0094 03       		.uleb128 0x3
 3668 0095 0E       		.uleb128 0xe
 3669 0096 0B       		.uleb128 0xb
 3670 0097 0B       		.uleb128 0xb
 3671 0098 3A       		.uleb128 0x3a
 3672 0099 0B       		.uleb128 0xb
 3673 009a 3B       		.uleb128 0x3b
 3674 009b 05       		.uleb128 0x5
 3675 009c 01       		.uleb128 0x1
 3676 009d 13       		.uleb128 0x13
 3677 009e 00       		.byte	0
 3678 009f 00       		.byte	0
 3679 00a0 0D       		.uleb128 0xd
 3680 00a1 35       		.uleb128 0x35
 3681 00a2 00       		.byte	0
 3682 00a3 49       		.uleb128 0x49
 3683 00a4 13       		.uleb128 0x13
 3684 00a5 00       		.byte	0
 3685 00a6 00       		.byte	0
 3686 00a7 0E       		.uleb128 0xe
 3687 00a8 15       		.uleb128 0x15
 3688 00a9 01       		.byte	0x1
 3689 00aa 27       		.uleb128 0x27
 3690 00ab 0C       		.uleb128 0xc
 3691 00ac 01       		.uleb128 0x1
ARM GAS  /var/folders/5n/p_75w94d66l9ssrldxqdhh700000gn/T//ccp9Ul8m.s 			page 66


 3692 00ad 13       		.uleb128 0x13
 3693 00ae 00       		.byte	0
 3694 00af 00       		.byte	0
 3695 00b0 0F       		.uleb128 0xf
 3696 00b1 05       		.uleb128 0x5
 3697 00b2 00       		.byte	0
 3698 00b3 49       		.uleb128 0x49
 3699 00b4 13       		.uleb128 0x13
 3700 00b5 00       		.byte	0
 3701 00b6 00       		.byte	0
 3702 00b7 10       		.uleb128 0x10
 3703 00b8 17       		.uleb128 0x17
 3704 00b9 01       		.byte	0x1
 3705 00ba 0B       		.uleb128 0xb
 3706 00bb 0B       		.uleb128 0xb
 3707 00bc 3A       		.uleb128 0x3a
 3708 00bd 0B       		.uleb128 0xb
 3709 00be 3B       		.uleb128 0x3b
 3710 00bf 0B       		.uleb128 0xb
 3711 00c0 01       		.uleb128 0x1
 3712 00c1 13       		.uleb128 0x13
 3713 00c2 00       		.byte	0
 3714 00c3 00       		.byte	0
 3715 00c4 11       		.uleb128 0x11
 3716 00c5 0D       		.uleb128 0xd
 3717 00c6 00       		.byte	0
 3718 00c7 03       		.uleb128 0x3
 3719 00c8 0E       		.uleb128 0xe
 3720 00c9 3A       		.uleb128 0x3a
 3721 00ca 0B       		.uleb128 0xb
 3722 00cb 3B       		.uleb128 0x3b
 3723 00cc 0B       		.uleb128 0xb
 3724 00cd 49       		.uleb128 0x49
 3725 00ce 13       		.uleb128 0x13
 3726 00cf 00       		.byte	0
 3727 00d0 00       		.byte	0
 3728 00d1 12       		.uleb128 0x12
 3729 00d2 26       		.uleb128 0x26
 3730 00d3 00       		.byte	0
 3731 00d4 49       		.uleb128 0x49
 3732 00d5 13       		.uleb128 0x13
 3733 00d6 00       		.byte	0
 3734 00d7 00       		.byte	0
 3735 00d8 13       		.uleb128 0x13
 3736 00d9 04       		.uleb128 0x4
 3737 00da 01       		.byte	0x1
 3738 00db 0B       		.uleb128 0xb
 3739 00dc 0B       		.uleb128 0xb
 3740 00dd 3A       		.uleb128 0x3a
 3741 00de 0B       		.uleb128 0xb
 3742 00df 3B       		.uleb128 0x3b
 3743 00e0 0B       		.uleb128 0xb
 3744 00e1 01       		.uleb128 0x1
 3745 00e2 13       		.uleb128 0x13
 3746 00e3 00       		.byte	0
 3747 00e4 00       		.byte	0
 3748 00e5 14       		.uleb128 0x14
ARM GAS  /var/folders/5n/p_75w94d66l9ssrldxqdhh700000gn/T//ccp9Ul8m.s 			page 67


 3749 00e6 28       		.uleb128 0x28
 3750 00e7 00       		.byte	0
 3751 00e8 03       		.uleb128 0x3
 3752 00e9 0E       		.uleb128 0xe
 3753 00ea 1C       		.uleb128 0x1c
 3754 00eb 0D       		.uleb128 0xd
 3755 00ec 00       		.byte	0
 3756 00ed 00       		.byte	0
 3757 00ee 15       		.uleb128 0x15
 3758 00ef 0D       		.uleb128 0xd
 3759 00f0 00       		.byte	0
 3760 00f1 03       		.uleb128 0x3
 3761 00f2 0E       		.uleb128 0xe
 3762 00f3 3A       		.uleb128 0x3a
 3763 00f4 0B       		.uleb128 0xb
 3764 00f5 3B       		.uleb128 0x3b
 3765 00f6 05       		.uleb128 0x5
 3766 00f7 49       		.uleb128 0x49
 3767 00f8 13       		.uleb128 0x13
 3768 00f9 38       		.uleb128 0x38
 3769 00fa 0A       		.uleb128 0xa
 3770 00fb 00       		.byte	0
 3771 00fc 00       		.byte	0
 3772 00fd 16       		.uleb128 0x16
 3773 00fe 13       		.uleb128 0x13
 3774 00ff 01       		.byte	0x1
 3775 0100 0B       		.uleb128 0xb
 3776 0101 0B       		.uleb128 0xb
 3777 0102 3A       		.uleb128 0x3a
 3778 0103 0B       		.uleb128 0xb
 3779 0104 3B       		.uleb128 0x3b
 3780 0105 05       		.uleb128 0x5
 3781 0106 01       		.uleb128 0x1
 3782 0107 13       		.uleb128 0x13
 3783 0108 00       		.byte	0
 3784 0109 00       		.byte	0
 3785 010a 17       		.uleb128 0x17
 3786 010b 16       		.uleb128 0x16
 3787 010c 00       		.byte	0
 3788 010d 03       		.uleb128 0x3
 3789 010e 0E       		.uleb128 0xe
 3790 010f 3A       		.uleb128 0x3a
 3791 0110 0B       		.uleb128 0xb
 3792 0111 3B       		.uleb128 0x3b
 3793 0112 05       		.uleb128 0x5
 3794 0113 49       		.uleb128 0x49
 3795 0114 13       		.uleb128 0x13
 3796 0115 00       		.byte	0
 3797 0116 00       		.byte	0
 3798 0117 18       		.uleb128 0x18
 3799 0118 13       		.uleb128 0x13
 3800 0119 01       		.byte	0x1
 3801 011a 03       		.uleb128 0x3
 3802 011b 0E       		.uleb128 0xe
 3803 011c 0B       		.uleb128 0xb
 3804 011d 05       		.uleb128 0x5
 3805 011e 3A       		.uleb128 0x3a
ARM GAS  /var/folders/5n/p_75w94d66l9ssrldxqdhh700000gn/T//ccp9Ul8m.s 			page 68


 3806 011f 0B       		.uleb128 0xb
 3807 0120 3B       		.uleb128 0x3b
 3808 0121 0B       		.uleb128 0xb
 3809 0122 01       		.uleb128 0x1
 3810 0123 13       		.uleb128 0x13
 3811 0124 00       		.byte	0
 3812 0125 00       		.byte	0
 3813 0126 19       		.uleb128 0x19
 3814 0127 01       		.uleb128 0x1
 3815 0128 01       		.byte	0x1
 3816 0129 49       		.uleb128 0x49
 3817 012a 13       		.uleb128 0x13
 3818 012b 01       		.uleb128 0x1
 3819 012c 13       		.uleb128 0x13
 3820 012d 00       		.byte	0
 3821 012e 00       		.byte	0
 3822 012f 1A       		.uleb128 0x1a
 3823 0130 21       		.uleb128 0x21
 3824 0131 00       		.byte	0
 3825 0132 49       		.uleb128 0x49
 3826 0133 13       		.uleb128 0x13
 3827 0134 2F       		.uleb128 0x2f
 3828 0135 0B       		.uleb128 0xb
 3829 0136 00       		.byte	0
 3830 0137 00       		.byte	0
 3831 0138 1B       		.uleb128 0x1b
 3832 0139 15       		.uleb128 0x15
 3833 013a 01       		.byte	0x1
 3834 013b 27       		.uleb128 0x27
 3835 013c 0C       		.uleb128 0xc
 3836 013d 49       		.uleb128 0x49
 3837 013e 13       		.uleb128 0x13
 3838 013f 01       		.uleb128 0x1
 3839 0140 13       		.uleb128 0x13
 3840 0141 00       		.byte	0
 3841 0142 00       		.byte	0
 3842 0143 1C       		.uleb128 0x1c
 3843 0144 2E       		.uleb128 0x2e
 3844 0145 01       		.byte	0x1
 3845 0146 03       		.uleb128 0x3
 3846 0147 0E       		.uleb128 0xe
 3847 0148 3A       		.uleb128 0x3a
 3848 0149 0B       		.uleb128 0xb
 3849 014a 3B       		.uleb128 0x3b
 3850 014b 0B       		.uleb128 0xb
 3851 014c 27       		.uleb128 0x27
 3852 014d 0C       		.uleb128 0xc
 3853 014e 20       		.uleb128 0x20
 3854 014f 0B       		.uleb128 0xb
 3855 0150 01       		.uleb128 0x1
 3856 0151 13       		.uleb128 0x13
 3857 0152 00       		.byte	0
 3858 0153 00       		.byte	0
 3859 0154 1D       		.uleb128 0x1d
 3860 0155 05       		.uleb128 0x5
 3861 0156 00       		.byte	0
 3862 0157 03       		.uleb128 0x3
ARM GAS  /var/folders/5n/p_75w94d66l9ssrldxqdhh700000gn/T//ccp9Ul8m.s 			page 69


 3863 0158 0E       		.uleb128 0xe
 3864 0159 3A       		.uleb128 0x3a
 3865 015a 0B       		.uleb128 0xb
 3866 015b 3B       		.uleb128 0x3b
 3867 015c 0B       		.uleb128 0xb
 3868 015d 49       		.uleb128 0x49
 3869 015e 13       		.uleb128 0x13
 3870 015f 00       		.byte	0
 3871 0160 00       		.byte	0
 3872 0161 1E       		.uleb128 0x1e
 3873 0162 2E       		.uleb128 0x2e
 3874 0163 01       		.byte	0x1
 3875 0164 03       		.uleb128 0x3
 3876 0165 0E       		.uleb128 0xe
 3877 0166 3A       		.uleb128 0x3a
 3878 0167 0B       		.uleb128 0xb
 3879 0168 3B       		.uleb128 0x3b
 3880 0169 0B       		.uleb128 0xb
 3881 016a 27       		.uleb128 0x27
 3882 016b 0C       		.uleb128 0xc
 3883 016c 49       		.uleb128 0x49
 3884 016d 13       		.uleb128 0x13
 3885 016e 20       		.uleb128 0x20
 3886 016f 0B       		.uleb128 0xb
 3887 0170 01       		.uleb128 0x1
 3888 0171 13       		.uleb128 0x13
 3889 0172 00       		.byte	0
 3890 0173 00       		.byte	0
 3891 0174 1F       		.uleb128 0x1f
 3892 0175 34       		.uleb128 0x34
 3893 0176 00       		.byte	0
 3894 0177 03       		.uleb128 0x3
 3895 0178 08       		.uleb128 0x8
 3896 0179 3A       		.uleb128 0x3a
 3897 017a 0B       		.uleb128 0xb
 3898 017b 3B       		.uleb128 0x3b
 3899 017c 0B       		.uleb128 0xb
 3900 017d 49       		.uleb128 0x49
 3901 017e 13       		.uleb128 0x13
 3902 017f 00       		.byte	0
 3903 0180 00       		.byte	0
 3904 0181 20       		.uleb128 0x20
 3905 0182 2E       		.uleb128 0x2e
 3906 0183 01       		.byte	0x1
 3907 0184 03       		.uleb128 0x3
 3908 0185 0E       		.uleb128 0xe
 3909 0186 3A       		.uleb128 0x3a
 3910 0187 0B       		.uleb128 0xb
 3911 0188 3B       		.uleb128 0x3b
 3912 0189 0B       		.uleb128 0xb
 3913 018a 27       		.uleb128 0x27
 3914 018b 0C       		.uleb128 0xc
 3915 018c 49       		.uleb128 0x49
 3916 018d 13       		.uleb128 0x13
 3917 018e 11       		.uleb128 0x11
 3918 018f 01       		.uleb128 0x1
 3919 0190 12       		.uleb128 0x12
ARM GAS  /var/folders/5n/p_75w94d66l9ssrldxqdhh700000gn/T//ccp9Ul8m.s 			page 70


 3920 0191 01       		.uleb128 0x1
 3921 0192 40       		.uleb128 0x40
 3922 0193 0A       		.uleb128 0xa
 3923 0194 9742     		.uleb128 0x2117
 3924 0196 0C       		.uleb128 0xc
 3925 0197 01       		.uleb128 0x1
 3926 0198 13       		.uleb128 0x13
 3927 0199 00       		.byte	0
 3928 019a 00       		.byte	0
 3929 019b 21       		.uleb128 0x21
 3930 019c 05       		.uleb128 0x5
 3931 019d 00       		.byte	0
 3932 019e 03       		.uleb128 0x3
 3933 019f 0E       		.uleb128 0xe
 3934 01a0 3A       		.uleb128 0x3a
 3935 01a1 0B       		.uleb128 0xb
 3936 01a2 3B       		.uleb128 0x3b
 3937 01a3 0B       		.uleb128 0xb
 3938 01a4 49       		.uleb128 0x49
 3939 01a5 13       		.uleb128 0x13
 3940 01a6 02       		.uleb128 0x2
 3941 01a7 06       		.uleb128 0x6
 3942 01a8 00       		.byte	0
 3943 01a9 00       		.byte	0
 3944 01aa 22       		.uleb128 0x22
 3945 01ab 1D       		.uleb128 0x1d
 3946 01ac 01       		.byte	0x1
 3947 01ad 31       		.uleb128 0x31
 3948 01ae 13       		.uleb128 0x13
 3949 01af 52       		.uleb128 0x52
 3950 01b0 01       		.uleb128 0x1
 3951 01b1 55       		.uleb128 0x55
 3952 01b2 06       		.uleb128 0x6
 3953 01b3 58       		.uleb128 0x58
 3954 01b4 0B       		.uleb128 0xb
 3955 01b5 59       		.uleb128 0x59
 3956 01b6 0B       		.uleb128 0xb
 3957 01b7 00       		.byte	0
 3958 01b8 00       		.byte	0
 3959 01b9 23       		.uleb128 0x23
 3960 01ba 05       		.uleb128 0x5
 3961 01bb 00       		.byte	0
 3962 01bc 31       		.uleb128 0x31
 3963 01bd 13       		.uleb128 0x13
 3964 01be 02       		.uleb128 0x2
 3965 01bf 06       		.uleb128 0x6
 3966 01c0 00       		.byte	0
 3967 01c1 00       		.byte	0
 3968 01c2 24       		.uleb128 0x24
 3969 01c3 2E       		.uleb128 0x2e
 3970 01c4 01       		.byte	0x1
 3971 01c5 03       		.uleb128 0x3
 3972 01c6 0E       		.uleb128 0xe
 3973 01c7 3A       		.uleb128 0x3a
 3974 01c8 0B       		.uleb128 0xb
 3975 01c9 3B       		.uleb128 0x3b
 3976 01ca 0B       		.uleb128 0xb
ARM GAS  /var/folders/5n/p_75w94d66l9ssrldxqdhh700000gn/T//ccp9Ul8m.s 			page 71


 3977 01cb 27       		.uleb128 0x27
 3978 01cc 0C       		.uleb128 0xc
 3979 01cd 49       		.uleb128 0x49
 3980 01ce 13       		.uleb128 0x13
 3981 01cf 11       		.uleb128 0x11
 3982 01d0 01       		.uleb128 0x1
 3983 01d1 12       		.uleb128 0x12
 3984 01d2 01       		.uleb128 0x1
 3985 01d3 40       		.uleb128 0x40
 3986 01d4 06       		.uleb128 0x6
 3987 01d5 9742     		.uleb128 0x2117
 3988 01d7 0C       		.uleb128 0xc
 3989 01d8 01       		.uleb128 0x1
 3990 01d9 13       		.uleb128 0x13
 3991 01da 00       		.byte	0
 3992 01db 00       		.byte	0
 3993 01dc 25       		.uleb128 0x25
 3994 01dd 05       		.uleb128 0x5
 3995 01de 00       		.byte	0
 3996 01df 03       		.uleb128 0x3
 3997 01e0 08       		.uleb128 0x8
 3998 01e1 3A       		.uleb128 0x3a
 3999 01e2 0B       		.uleb128 0xb
 4000 01e3 3B       		.uleb128 0x3b
 4001 01e4 0B       		.uleb128 0xb
 4002 01e5 49       		.uleb128 0x49
 4003 01e6 13       		.uleb128 0x13
 4004 01e7 02       		.uleb128 0x2
 4005 01e8 06       		.uleb128 0x6
 4006 01e9 00       		.byte	0
 4007 01ea 00       		.byte	0
 4008 01eb 26       		.uleb128 0x26
 4009 01ec 34       		.uleb128 0x34
 4010 01ed 00       		.byte	0
 4011 01ee 03       		.uleb128 0x3
 4012 01ef 08       		.uleb128 0x8
 4013 01f0 3A       		.uleb128 0x3a
 4014 01f1 0B       		.uleb128 0xb
 4015 01f2 3B       		.uleb128 0x3b
 4016 01f3 0B       		.uleb128 0xb
 4017 01f4 49       		.uleb128 0x49
 4018 01f5 13       		.uleb128 0x13
 4019 01f6 02       		.uleb128 0x2
 4020 01f7 06       		.uleb128 0x6
 4021 01f8 00       		.byte	0
 4022 01f9 00       		.byte	0
 4023 01fa 27       		.uleb128 0x27
 4024 01fb 34       		.uleb128 0x34
 4025 01fc 00       		.byte	0
 4026 01fd 03       		.uleb128 0x3
 4027 01fe 08       		.uleb128 0x8
 4028 01ff 3A       		.uleb128 0x3a
 4029 0200 0B       		.uleb128 0xb
 4030 0201 3B       		.uleb128 0x3b
 4031 0202 0B       		.uleb128 0xb
 4032 0203 49       		.uleb128 0x49
 4033 0204 13       		.uleb128 0x13
ARM GAS  /var/folders/5n/p_75w94d66l9ssrldxqdhh700000gn/T//ccp9Ul8m.s 			page 72


 4034 0205 02       		.uleb128 0x2
 4035 0206 0A       		.uleb128 0xa
 4036 0207 00       		.byte	0
 4037 0208 00       		.byte	0
 4038 0209 28       		.uleb128 0x28
 4039 020a 898201   		.uleb128 0x4109
 4040 020d 01       		.byte	0x1
 4041 020e 11       		.uleb128 0x11
 4042 020f 01       		.uleb128 0x1
 4043 0210 31       		.uleb128 0x31
 4044 0211 13       		.uleb128 0x13
 4045 0212 01       		.uleb128 0x1
 4046 0213 13       		.uleb128 0x13
 4047 0214 00       		.byte	0
 4048 0215 00       		.byte	0
 4049 0216 29       		.uleb128 0x29
 4050 0217 8A8201   		.uleb128 0x410a
 4051 021a 00       		.byte	0
 4052 021b 02       		.uleb128 0x2
 4053 021c 0A       		.uleb128 0xa
 4054 021d 9142     		.uleb128 0x2111
 4055 021f 0A       		.uleb128 0xa
 4056 0220 00       		.byte	0
 4057 0221 00       		.byte	0
 4058 0222 2A       		.uleb128 0x2a
 4059 0223 898201   		.uleb128 0x4109
 4060 0226 01       		.byte	0x1
 4061 0227 11       		.uleb128 0x11
 4062 0228 01       		.uleb128 0x1
 4063 0229 31       		.uleb128 0x31
 4064 022a 13       		.uleb128 0x13
 4065 022b 00       		.byte	0
 4066 022c 00       		.byte	0
 4067 022d 2B       		.uleb128 0x2b
 4068 022e 2E       		.uleb128 0x2e
 4069 022f 01       		.byte	0x1
 4070 0230 3F       		.uleb128 0x3f
 4071 0231 0C       		.uleb128 0xc
 4072 0232 03       		.uleb128 0x3
 4073 0233 0E       		.uleb128 0xe
 4074 0234 3A       		.uleb128 0x3a
 4075 0235 0B       		.uleb128 0xb
 4076 0236 3B       		.uleb128 0x3b
 4077 0237 0B       		.uleb128 0xb
 4078 0238 27       		.uleb128 0x27
 4079 0239 0C       		.uleb128 0xc
 4080 023a 49       		.uleb128 0x49
 4081 023b 13       		.uleb128 0x13
 4082 023c 11       		.uleb128 0x11
 4083 023d 01       		.uleb128 0x1
 4084 023e 12       		.uleb128 0x12
 4085 023f 01       		.uleb128 0x1
 4086 0240 40       		.uleb128 0x40
 4087 0241 06       		.uleb128 0x6
 4088 0242 9742     		.uleb128 0x2117
 4089 0244 0C       		.uleb128 0xc
 4090 0245 01       		.uleb128 0x1
ARM GAS  /var/folders/5n/p_75w94d66l9ssrldxqdhh700000gn/T//ccp9Ul8m.s 			page 73


 4091 0246 13       		.uleb128 0x13
 4092 0247 00       		.byte	0
 4093 0248 00       		.byte	0
 4094 0249 2C       		.uleb128 0x2c
 4095 024a 34       		.uleb128 0x34
 4096 024b 00       		.byte	0
 4097 024c 03       		.uleb128 0x3
 4098 024d 0E       		.uleb128 0xe
 4099 024e 3A       		.uleb128 0x3a
 4100 024f 0B       		.uleb128 0xb
 4101 0250 3B       		.uleb128 0x3b
 4102 0251 0B       		.uleb128 0xb
 4103 0252 49       		.uleb128 0x49
 4104 0253 13       		.uleb128 0x13
 4105 0254 02       		.uleb128 0x2
 4106 0255 0A       		.uleb128 0xa
 4107 0256 00       		.byte	0
 4108 0257 00       		.byte	0
 4109 0258 2D       		.uleb128 0x2d
 4110 0259 0B       		.uleb128 0xb
 4111 025a 01       		.byte	0x1
 4112 025b 11       		.uleb128 0x11
 4113 025c 01       		.uleb128 0x1
 4114 025d 12       		.uleb128 0x12
 4115 025e 01       		.uleb128 0x1
 4116 025f 01       		.uleb128 0x1
 4117 0260 13       		.uleb128 0x13
 4118 0261 00       		.byte	0
 4119 0262 00       		.byte	0
 4120 0263 2E       		.uleb128 0x2e
 4121 0264 34       		.uleb128 0x34
 4122 0265 00       		.byte	0
 4123 0266 03       		.uleb128 0x3
 4124 0267 0E       		.uleb128 0xe
 4125 0268 3A       		.uleb128 0x3a
 4126 0269 0B       		.uleb128 0xb
 4127 026a 3B       		.uleb128 0x3b
 4128 026b 0B       		.uleb128 0xb
 4129 026c 49       		.uleb128 0x49
 4130 026d 13       		.uleb128 0x13
 4131 026e 00       		.byte	0
 4132 026f 00       		.byte	0
 4133 0270 2F       		.uleb128 0x2f
 4134 0271 34       		.uleb128 0x34
 4135 0272 00       		.byte	0
 4136 0273 03       		.uleb128 0x3
 4137 0274 0E       		.uleb128 0xe
 4138 0275 3A       		.uleb128 0x3a
 4139 0276 0B       		.uleb128 0xb
 4140 0277 3B       		.uleb128 0x3b
 4141 0278 05       		.uleb128 0x5
 4142 0279 49       		.uleb128 0x49
 4143 027a 13       		.uleb128 0x13
 4144 027b 02       		.uleb128 0x2
 4145 027c 06       		.uleb128 0x6
 4146 027d 00       		.byte	0
 4147 027e 00       		.byte	0
ARM GAS  /var/folders/5n/p_75w94d66l9ssrldxqdhh700000gn/T//ccp9Ul8m.s 			page 74


 4148 027f 30       		.uleb128 0x30
 4149 0280 0B       		.uleb128 0xb
 4150 0281 01       		.byte	0x1
 4151 0282 55       		.uleb128 0x55
 4152 0283 06       		.uleb128 0x6
 4153 0284 01       		.uleb128 0x1
 4154 0285 13       		.uleb128 0x13
 4155 0286 00       		.byte	0
 4156 0287 00       		.byte	0
 4157 0288 31       		.uleb128 0x31
 4158 0289 898201   		.uleb128 0x4109
 4159 028c 00       		.byte	0
 4160 028d 11       		.uleb128 0x11
 4161 028e 01       		.uleb128 0x1
 4162 028f 31       		.uleb128 0x31
 4163 0290 13       		.uleb128 0x13
 4164 0291 00       		.byte	0
 4165 0292 00       		.byte	0
 4166 0293 32       		.uleb128 0x32
 4167 0294 34       		.uleb128 0x34
 4168 0295 00       		.byte	0
 4169 0296 03       		.uleb128 0x3
 4170 0297 08       		.uleb128 0x8
 4171 0298 3A       		.uleb128 0x3a
 4172 0299 0B       		.uleb128 0xb
 4173 029a 3B       		.uleb128 0x3b
 4174 029b 05       		.uleb128 0x5
 4175 029c 49       		.uleb128 0x49
 4176 029d 13       		.uleb128 0x13
 4177 029e 00       		.byte	0
 4178 029f 00       		.byte	0
 4179 02a0 33       		.uleb128 0x33
 4180 02a1 898201   		.uleb128 0x4109
 4181 02a4 01       		.byte	0x1
 4182 02a5 11       		.uleb128 0x11
 4183 02a6 01       		.uleb128 0x1
 4184 02a7 00       		.byte	0
 4185 02a8 00       		.byte	0
 4186 02a9 34       		.uleb128 0x34
 4187 02aa 1D       		.uleb128 0x1d
 4188 02ab 01       		.byte	0x1
 4189 02ac 31       		.uleb128 0x31
 4190 02ad 13       		.uleb128 0x13
 4191 02ae 52       		.uleb128 0x52
 4192 02af 01       		.uleb128 0x1
 4193 02b0 55       		.uleb128 0x55
 4194 02b1 06       		.uleb128 0x6
 4195 02b2 58       		.uleb128 0x58
 4196 02b3 0B       		.uleb128 0xb
 4197 02b4 59       		.uleb128 0x59
 4198 02b5 05       		.uleb128 0x5
 4199 02b6 00       		.byte	0
 4200 02b7 00       		.byte	0
 4201 02b8 35       		.uleb128 0x35
 4202 02b9 0B       		.uleb128 0xb
 4203 02ba 01       		.byte	0x1
 4204 02bb 55       		.uleb128 0x55
ARM GAS  /var/folders/5n/p_75w94d66l9ssrldxqdhh700000gn/T//ccp9Ul8m.s 			page 75


 4205 02bc 06       		.uleb128 0x6
 4206 02bd 00       		.byte	0
 4207 02be 00       		.byte	0
 4208 02bf 36       		.uleb128 0x36
 4209 02c0 05       		.uleb128 0x5
 4210 02c1 00       		.byte	0
 4211 02c2 31       		.uleb128 0x31
 4212 02c3 13       		.uleb128 0x13
 4213 02c4 00       		.byte	0
 4214 02c5 00       		.byte	0
 4215 02c6 37       		.uleb128 0x37
 4216 02c7 34       		.uleb128 0x34
 4217 02c8 00       		.byte	0
 4218 02c9 31       		.uleb128 0x31
 4219 02ca 13       		.uleb128 0x13
 4220 02cb 02       		.uleb128 0x2
 4221 02cc 0A       		.uleb128 0xa
 4222 02cd 00       		.byte	0
 4223 02ce 00       		.byte	0
 4224 02cf 38       		.uleb128 0x38
 4225 02d0 34       		.uleb128 0x34
 4226 02d1 00       		.byte	0
 4227 02d2 31       		.uleb128 0x31
 4228 02d3 13       		.uleb128 0x13
 4229 02d4 02       		.uleb128 0x2
 4230 02d5 06       		.uleb128 0x6
 4231 02d6 00       		.byte	0
 4232 02d7 00       		.byte	0
 4233 02d8 39       		.uleb128 0x39
 4234 02d9 34       		.uleb128 0x34
 4235 02da 00       		.byte	0
 4236 02db 03       		.uleb128 0x3
 4237 02dc 0E       		.uleb128 0xe
 4238 02dd 3A       		.uleb128 0x3a
 4239 02de 0B       		.uleb128 0xb
 4240 02df 3B       		.uleb128 0x3b
 4241 02e0 0B       		.uleb128 0xb
 4242 02e1 49       		.uleb128 0x49
 4243 02e2 13       		.uleb128 0x13
 4244 02e3 3F       		.uleb128 0x3f
 4245 02e4 0C       		.uleb128 0xc
 4246 02e5 3C       		.uleb128 0x3c
 4247 02e6 0C       		.uleb128 0xc
 4248 02e7 00       		.byte	0
 4249 02e8 00       		.byte	0
 4250 02e9 3A       		.uleb128 0x3a
 4251 02ea 34       		.uleb128 0x34
 4252 02eb 00       		.byte	0
 4253 02ec 03       		.uleb128 0x3
 4254 02ed 0E       		.uleb128 0xe
 4255 02ee 3A       		.uleb128 0x3a
 4256 02ef 0B       		.uleb128 0xb
 4257 02f0 3B       		.uleb128 0x3b
 4258 02f1 05       		.uleb128 0x5
 4259 02f2 49       		.uleb128 0x49
 4260 02f3 13       		.uleb128 0x13
 4261 02f4 3F       		.uleb128 0x3f
ARM GAS  /var/folders/5n/p_75w94d66l9ssrldxqdhh700000gn/T//ccp9Ul8m.s 			page 76


 4262 02f5 0C       		.uleb128 0xc
 4263 02f6 3C       		.uleb128 0x3c
 4264 02f7 0C       		.uleb128 0xc
 4265 02f8 00       		.byte	0
 4266 02f9 00       		.byte	0
 4267 02fa 3B       		.uleb128 0x3b
 4268 02fb 34       		.uleb128 0x34
 4269 02fc 00       		.byte	0
 4270 02fd 03       		.uleb128 0x3
 4271 02fe 0E       		.uleb128 0xe
 4272 02ff 3A       		.uleb128 0x3a
 4273 0300 0B       		.uleb128 0xb
 4274 0301 3B       		.uleb128 0x3b
 4275 0302 0B       		.uleb128 0xb
 4276 0303 49       		.uleb128 0x49
 4277 0304 13       		.uleb128 0x13
 4278 0305 3F       		.uleb128 0x3f
 4279 0306 0C       		.uleb128 0xc
 4280 0307 02       		.uleb128 0x2
 4281 0308 0A       		.uleb128 0xa
 4282 0309 00       		.byte	0
 4283 030a 00       		.byte	0
 4284 030b 3C       		.uleb128 0x3c
 4285 030c 2E       		.uleb128 0x2e
 4286 030d 01       		.byte	0x1
 4287 030e 3F       		.uleb128 0x3f
 4288 030f 0C       		.uleb128 0xc
 4289 0310 03       		.uleb128 0x3
 4290 0311 0E       		.uleb128 0xe
 4291 0312 3A       		.uleb128 0x3a
 4292 0313 0B       		.uleb128 0xb
 4293 0314 3B       		.uleb128 0x3b
 4294 0315 0B       		.uleb128 0xb
 4295 0316 27       		.uleb128 0x27
 4296 0317 0C       		.uleb128 0xc
 4297 0318 49       		.uleb128 0x49
 4298 0319 13       		.uleb128 0x13
 4299 031a 3C       		.uleb128 0x3c
 4300 031b 0C       		.uleb128 0xc
 4301 031c 01       		.uleb128 0x1
 4302 031d 13       		.uleb128 0x13
 4303 031e 00       		.byte	0
 4304 031f 00       		.byte	0
 4305 0320 3D       		.uleb128 0x3d
 4306 0321 2E       		.uleb128 0x2e
 4307 0322 01       		.byte	0x1
 4308 0323 3F       		.uleb128 0x3f
 4309 0324 0C       		.uleb128 0xc
 4310 0325 03       		.uleb128 0x3
 4311 0326 0E       		.uleb128 0xe
 4312 0327 3A       		.uleb128 0x3a
 4313 0328 0B       		.uleb128 0xb
 4314 0329 3B       		.uleb128 0x3b
 4315 032a 05       		.uleb128 0x5
 4316 032b 27       		.uleb128 0x27
 4317 032c 0C       		.uleb128 0xc
 4318 032d 49       		.uleb128 0x49
ARM GAS  /var/folders/5n/p_75w94d66l9ssrldxqdhh700000gn/T//ccp9Ul8m.s 			page 77


 4319 032e 13       		.uleb128 0x13
 4320 032f 3C       		.uleb128 0x3c
 4321 0330 0C       		.uleb128 0xc
 4322 0331 01       		.uleb128 0x1
 4323 0332 13       		.uleb128 0x13
 4324 0333 00       		.byte	0
 4325 0334 00       		.byte	0
 4326 0335 3E       		.uleb128 0x3e
 4327 0336 2E       		.uleb128 0x2e
 4328 0337 01       		.byte	0x1
 4329 0338 3F       		.uleb128 0x3f
 4330 0339 0C       		.uleb128 0xc
 4331 033a 03       		.uleb128 0x3
 4332 033b 0E       		.uleb128 0xe
 4333 033c 3A       		.uleb128 0x3a
 4334 033d 0B       		.uleb128 0xb
 4335 033e 3B       		.uleb128 0x3b
 4336 033f 0B       		.uleb128 0xb
 4337 0340 27       		.uleb128 0x27
 4338 0341 0C       		.uleb128 0xc
 4339 0342 3C       		.uleb128 0x3c
 4340 0343 0C       		.uleb128 0xc
 4341 0344 01       		.uleb128 0x1
 4342 0345 13       		.uleb128 0x13
 4343 0346 00       		.byte	0
 4344 0347 00       		.byte	0
 4345 0348 3F       		.uleb128 0x3f
 4346 0349 2E       		.uleb128 0x2e
 4347 034a 00       		.byte	0
 4348 034b 3F       		.uleb128 0x3f
 4349 034c 0C       		.uleb128 0xc
 4350 034d 03       		.uleb128 0x3
 4351 034e 0E       		.uleb128 0xe
 4352 034f 3A       		.uleb128 0x3a
 4353 0350 0B       		.uleb128 0xb
 4354 0351 3B       		.uleb128 0x3b
 4355 0352 0B       		.uleb128 0xb
 4356 0353 27       		.uleb128 0x27
 4357 0354 0C       		.uleb128 0xc
 4358 0355 3C       		.uleb128 0x3c
 4359 0356 0C       		.uleb128 0xc
 4360 0357 00       		.byte	0
 4361 0358 00       		.byte	0
 4362 0359 40       		.uleb128 0x40
 4363 035a 2E       		.uleb128 0x2e
 4364 035b 01       		.byte	0x1
 4365 035c 3F       		.uleb128 0x3f
 4366 035d 0C       		.uleb128 0xc
 4367 035e 03       		.uleb128 0x3
 4368 035f 0E       		.uleb128 0xe
 4369 0360 3A       		.uleb128 0x3a
 4370 0361 0B       		.uleb128 0xb
 4371 0362 3B       		.uleb128 0x3b
 4372 0363 05       		.uleb128 0x5
 4373 0364 27       		.uleb128 0x27
 4374 0365 0C       		.uleb128 0xc
 4375 0366 3C       		.uleb128 0x3c
ARM GAS  /var/folders/5n/p_75w94d66l9ssrldxqdhh700000gn/T//ccp9Ul8m.s 			page 78


 4376 0367 0C       		.uleb128 0xc
 4377 0368 01       		.uleb128 0x1
 4378 0369 13       		.uleb128 0x13
 4379 036a 00       		.byte	0
 4380 036b 00       		.byte	0
 4381 036c 41       		.uleb128 0x41
 4382 036d 2E       		.uleb128 0x2e
 4383 036e 01       		.byte	0x1
 4384 036f 3F       		.uleb128 0x3f
 4385 0370 0C       		.uleb128 0xc
 4386 0371 03       		.uleb128 0x3
 4387 0372 0E       		.uleb128 0xe
 4388 0373 3A       		.uleb128 0x3a
 4389 0374 0B       		.uleb128 0xb
 4390 0375 3B       		.uleb128 0x3b
 4391 0376 05       		.uleb128 0x5
 4392 0377 27       		.uleb128 0x27
 4393 0378 0C       		.uleb128 0xc
 4394 0379 49       		.uleb128 0x49
 4395 037a 13       		.uleb128 0x13
 4396 037b 3C       		.uleb128 0x3c
 4397 037c 0C       		.uleb128 0xc
 4398 037d 00       		.byte	0
 4399 037e 00       		.byte	0
 4400 037f 00       		.byte	0
 4401              		.section	.debug_loc,"",%progbits
 4402              	.Ldebug_loc0:
 4403              	.LLST0:
 4404 0000 00000000 		.4byte	.LVL0
 4405 0004 2E000000 		.4byte	.LVL2
 4406 0008 0100     		.2byte	0x1
 4407 000a 50       		.byte	0x50
 4408 000b 2E000000 		.4byte	.LVL2
 4409 000f 3A000000 		.4byte	.LFE120
 4410 0013 0100     		.2byte	0x1
 4411 0015 53       		.byte	0x53
 4412 0016 00000000 		.4byte	0
 4413 001a 00000000 		.4byte	0
 4414              	.LLST1:
 4415 001e 22000000 		.4byte	.LVL1
 4416 0022 2E000000 		.4byte	.LVL2
 4417 0026 0100     		.2byte	0x1
 4418 0028 50       		.byte	0x50
 4419 0029 2E000000 		.4byte	.LVL2
 4420 002d 3A000000 		.4byte	.LFE120
 4421 0031 0100     		.2byte	0x1
 4422 0033 53       		.byte	0x53
 4423 0034 00000000 		.4byte	0
 4424 0038 00000000 		.4byte	0
 4425              	.LLST2:
 4426 003c 00000000 		.4byte	.LFB118
 4427 0040 02000000 		.4byte	.LCFI0
 4428 0044 0200     		.2byte	0x2
 4429 0046 7D       		.byte	0x7d
 4430 0047 00       		.sleb128 0
 4431 0048 02000000 		.4byte	.LCFI0
 4432 004c 04000000 		.4byte	.LCFI1
ARM GAS  /var/folders/5n/p_75w94d66l9ssrldxqdhh700000gn/T//ccp9Ul8m.s 			page 79


 4433 0050 0200     		.2byte	0x2
 4434 0052 7D       		.byte	0x7d
 4435 0053 08       		.sleb128 8
 4436 0054 04000000 		.4byte	.LCFI1
 4437 0058 48000000 		.4byte	.LFE118
 4438 005c 0200     		.2byte	0x2
 4439 005e 7D       		.byte	0x7d
 4440 005f 18       		.sleb128 24
 4441 0060 00000000 		.4byte	0
 4442 0064 00000000 		.4byte	0
 4443              	.LLST3:
 4444 0068 00000000 		.4byte	.LVL3
 4445 006c 08000000 		.4byte	.LVL4
 4446 0070 0100     		.2byte	0x1
 4447 0072 50       		.byte	0x50
 4448 0073 08000000 		.4byte	.LVL4
 4449 0077 48000000 		.4byte	.LFE118
 4450 007b 0400     		.2byte	0x4
 4451 007d F3       		.byte	0xf3
 4452 007e 01       		.uleb128 0x1
 4453 007f 50       		.byte	0x50
 4454 0080 9F       		.byte	0x9f
 4455 0081 00000000 		.4byte	0
 4456 0085 00000000 		.4byte	0
 4457              	.LLST4:
 4458 0089 00000000 		.4byte	.LVL3
 4459 008d 0A000000 		.4byte	.LVL5
 4460 0091 0100     		.2byte	0x1
 4461 0093 51       		.byte	0x51
 4462 0094 0A000000 		.4byte	.LVL5
 4463 0098 14000000 		.4byte	.LVL8
 4464 009c 0100     		.2byte	0x1
 4465 009e 54       		.byte	0x54
 4466 009f 14000000 		.4byte	.LVL8
 4467 00a3 3A000000 		.4byte	.LVL13
 4468 00a7 0400     		.2byte	0x4
 4469 00a9 F3       		.byte	0xf3
 4470 00aa 01       		.uleb128 0x1
 4471 00ab 51       		.byte	0x51
 4472 00ac 9F       		.byte	0x9f
 4473 00ad 3A000000 		.4byte	.LVL13
 4474 00b1 48000000 		.4byte	.LFE118
 4475 00b5 0100     		.2byte	0x1
 4476 00b7 54       		.byte	0x54
 4477 00b8 00000000 		.4byte	0
 4478 00bc 00000000 		.4byte	0
 4479              	.LLST5:
 4480 00c0 12000000 		.4byte	.LVL7
 4481 00c4 34000000 		.4byte	.LVL12
 4482 00c8 0100     		.2byte	0x1
 4483 00ca 54       		.byte	0x54
 4484 00cb 00000000 		.4byte	0
 4485 00cf 00000000 		.4byte	0
 4486              	.LLST6:
 4487 00d3 00000000 		.4byte	.LFB121
 4488 00d7 04000000 		.4byte	.LCFI2
 4489 00db 0200     		.2byte	0x2
ARM GAS  /var/folders/5n/p_75w94d66l9ssrldxqdhh700000gn/T//ccp9Ul8m.s 			page 80


 4490 00dd 7D       		.byte	0x7d
 4491 00de 00       		.sleb128 0
 4492 00df 04000000 		.4byte	.LCFI2
 4493 00e3 10000000 		.4byte	.LCFI3
 4494 00e7 0200     		.2byte	0x2
 4495 00e9 7D       		.byte	0x7d
 4496 00ea 18       		.sleb128 24
 4497 00eb 10000000 		.4byte	.LCFI3
 4498 00ef D4010000 		.4byte	.LFE121
 4499 00f3 0300     		.2byte	0x3
 4500 00f5 7D       		.byte	0x7d
 4501 00f6 F800     		.sleb128 120
 4502 00f8 00000000 		.4byte	0
 4503 00fc 00000000 		.4byte	0
 4504              	.LLST7:
 4505 0100 00000000 		.4byte	.LVL14
 4506 0104 15000000 		.4byte	.LVL15-1
 4507 0108 0100     		.2byte	0x1
 4508 010a 50       		.byte	0x50
 4509 010b 15000000 		.4byte	.LVL15-1
 4510 010f 9A000000 		.4byte	.LVL23
 4511 0113 0100     		.2byte	0x1
 4512 0115 54       		.byte	0x54
 4513 0116 9A000000 		.4byte	.LVL23
 4514 011a D4010000 		.4byte	.LFE121
 4515 011e 0400     		.2byte	0x4
 4516 0120 F3       		.byte	0xf3
 4517 0121 01       		.uleb128 0x1
 4518 0122 50       		.byte	0x50
 4519 0123 9F       		.byte	0x9f
 4520 0124 00000000 		.4byte	0
 4521 0128 00000000 		.4byte	0
 4522              	.LLST8:
 4523 012c 36000000 		.4byte	.LVL20
 4524 0130 44000000 		.4byte	.LVL21
 4525 0134 0100     		.2byte	0x1
 4526 0136 53       		.byte	0x53
 4527 0137 00000000 		.4byte	0
 4528 013b 00000000 		.4byte	0
 4529              	.LLST9:
 4530 013f EA000000 		.4byte	.LVL32
 4531 0143 EE000000 		.4byte	.LVL33
 4532 0147 0100     		.2byte	0x1
 4533 0149 54       		.byte	0x54
 4534 014a FA000000 		.4byte	.LVL35
 4535 014e FE000000 		.4byte	.LVL36
 4536 0152 0100     		.2byte	0x1
 4537 0154 50       		.byte	0x50
 4538 0155 FE000000 		.4byte	.LVL36
 4539 0159 26010000 		.4byte	.LVL41
 4540 015d 0100     		.2byte	0x1
 4541 015f 54       		.byte	0x54
 4542 0160 7C010000 		.4byte	.LVL52
 4543 0164 86010000 		.4byte	.LVL55
 4544 0168 0100     		.2byte	0x1
 4545 016a 54       		.byte	0x54
 4546 016b 00000000 		.4byte	0
ARM GAS  /var/folders/5n/p_75w94d66l9ssrldxqdhh700000gn/T//ccp9Ul8m.s 			page 81


 4547 016f 00000000 		.4byte	0
 4548              	.LLST10:
 4549 0173 0E010000 		.4byte	.LVL38
 4550 0177 1A010000 		.4byte	.LVL39
 4551 017b 0100     		.2byte	0x1
 4552 017d 50       		.byte	0x50
 4553 017e 7C010000 		.4byte	.LVL52
 4554 0182 80010000 		.4byte	.LVL53
 4555 0186 0100     		.2byte	0x1
 4556 0188 50       		.byte	0x50
 4557 0189 80010000 		.4byte	.LVL53
 4558 018d 83010000 		.4byte	.LVL54-1
 4559 0191 0100     		.2byte	0x1
 4560 0193 52       		.byte	0x52
 4561 0194 00000000 		.4byte	0
 4562 0198 00000000 		.4byte	0
 4563              	.LLST11:
 4564 019c 64010000 		.4byte	.LVL49
 4565 01a0 69010000 		.4byte	.LVL50-1
 4566 01a4 0100     		.2byte	0x1
 4567 01a6 53       		.byte	0x53
 4568 01a7 00000000 		.4byte	0
 4569 01ab 00000000 		.4byte	0
 4570              	.LLST12:
 4571 01af 40010000 		.4byte	.LVL44
 4572 01b3 46010000 		.4byte	.LVL45
 4573 01b7 0100     		.2byte	0x1
 4574 01b9 50       		.byte	0x50
 4575 01ba 46010000 		.4byte	.LVL45
 4576 01be 7C010000 		.4byte	.LVL52
 4577 01c2 0100     		.2byte	0x1
 4578 01c4 55       		.byte	0x55
 4579 01c5 86010000 		.4byte	.LVL55
 4580 01c9 94010000 		.4byte	.LVL57
 4581 01cd 0100     		.2byte	0x1
 4582 01cf 55       		.byte	0x55
 4583 01d0 94010000 		.4byte	.LVL57
 4584 01d4 96010000 		.4byte	.LVL58
 4585 01d8 0100     		.2byte	0x1
 4586 01da 50       		.byte	0x50
 4587 01db 96010000 		.4byte	.LVL58
 4588 01df D4010000 		.4byte	.LFE121
 4589 01e3 0100     		.2byte	0x1
 4590 01e5 55       		.byte	0x55
 4591 01e6 00000000 		.4byte	0
 4592 01ea 00000000 		.4byte	0
 4593              	.LLST13:
 4594 01ee 52010000 		.4byte	.LVL47
 4595 01f2 7C010000 		.4byte	.LVL52
 4596 01f6 0100     		.2byte	0x1
 4597 01f8 54       		.byte	0x54
 4598 01f9 86010000 		.4byte	.LVL55
 4599 01fd 94010000 		.4byte	.LVL57
 4600 0201 0100     		.2byte	0x1
 4601 0203 54       		.byte	0x54
 4602 0204 00000000 		.4byte	0
 4603 0208 00000000 		.4byte	0
ARM GAS  /var/folders/5n/p_75w94d66l9ssrldxqdhh700000gn/T//ccp9Ul8m.s 			page 82


 4604              	.LLST14:
 4605 020c 34010000 		.4byte	.LVL43
 4606 0210 3F010000 		.4byte	.LVL44-1
 4607 0214 0200     		.2byte	0x2
 4608 0216 91       		.byte	0x91
 4609 0217 44       		.sleb128 -60
 4610 0218 00000000 		.4byte	0
 4611 021c 00000000 		.4byte	0
 4612              		.section	.debug_aranges,"",%progbits
 4613 0000 2C000000 		.4byte	0x2c
 4614 0004 0200     		.2byte	0x2
 4615 0006 00000000 		.4byte	.Ldebug_info0
 4616 000a 04       		.byte	0x4
 4617 000b 00       		.byte	0
 4618 000c 0000     		.2byte	0
 4619 000e 0000     		.2byte	0
 4620 0010 00000000 		.4byte	.LFB120
 4621 0014 3A000000 		.4byte	.LFE120-.LFB120
 4622 0018 00000000 		.4byte	.LFB118
 4623 001c 48000000 		.4byte	.LFE118-.LFB118
 4624 0020 00000000 		.4byte	.LFB121
 4625 0024 D4010000 		.4byte	.LFE121-.LFB121
 4626 0028 00000000 		.4byte	0
 4627 002c 00000000 		.4byte	0
 4628              		.section	.debug_ranges,"",%progbits
 4629              	.Ldebug_ranges0:
 4630 0000 22000000 		.4byte	.LBB4
 4631 0004 2C000000 		.4byte	.LBE4
 4632 0008 2E000000 		.4byte	.LBB8
 4633 000c 32000000 		.4byte	.LBE8
 4634 0010 34000000 		.4byte	.LBB9
 4635 0014 38000000 		.4byte	.LBE9
 4636 0018 00000000 		.4byte	0
 4637 001c 00000000 		.4byte	0
 4638 0020 FC000000 		.4byte	.LBB19
 4639 0024 1E010000 		.4byte	.LBE19
 4640 0028 7C010000 		.4byte	.LBB31
 4641 002c 86010000 		.4byte	.LBE31
 4642 0030 00000000 		.4byte	0
 4643 0034 00000000 		.4byte	0
 4644 0038 22010000 		.4byte	.LBB20
 4645 003c 7C010000 		.4byte	.LBE20
 4646 0040 86010000 		.4byte	.LBB32
 4647 0044 D4010000 		.4byte	.LBE32
 4648 0048 00000000 		.4byte	0
 4649 004c 00000000 		.4byte	0
 4650 0050 22010000 		.4byte	.LBB21
 4651 0054 26010000 		.4byte	.LBE21
 4652 0058 5E010000 		.4byte	.LBB26
 4653 005c 60010000 		.4byte	.LBE26
 4654 0060 64010000 		.4byte	.LBB28
 4655 0064 7C010000 		.4byte	.LBE28
 4656 0068 86010000 		.4byte	.LBB29
 4657 006c 94010000 		.4byte	.LBE29
 4658 0070 00000000 		.4byte	0
 4659 0074 00000000 		.4byte	0
 4660 0078 26010000 		.4byte	.LBB22
ARM GAS  /var/folders/5n/p_75w94d66l9ssrldxqdhh700000gn/T//ccp9Ul8m.s 			page 83


 4661 007c 5E010000 		.4byte	.LBE22
 4662 0080 60010000 		.4byte	.LBB27
 4663 0084 64010000 		.4byte	.LBE27
 4664 0088 94010000 		.4byte	.LBB30
 4665 008c D4010000 		.4byte	.LBE30
 4666 0090 00000000 		.4byte	0
 4667 0094 00000000 		.4byte	0
 4668 0098 26010000 		.4byte	.LBB23
 4669 009c 5E010000 		.4byte	.LBE23
 4670 00a0 60010000 		.4byte	.LBB24
 4671 00a4 64010000 		.4byte	.LBE24
 4672 00a8 94010000 		.4byte	.LBB25
 4673 00ac D4010000 		.4byte	.LBE25
 4674 00b0 00000000 		.4byte	0
 4675 00b4 00000000 		.4byte	0
 4676 00b8 00000000 		.4byte	.LFB120
 4677 00bc 3A000000 		.4byte	.LFE120
 4678 00c0 00000000 		.4byte	.LFB118
 4679 00c4 48000000 		.4byte	.LFE118
 4680 00c8 00000000 		.4byte	.LFB121
 4681 00cc D4010000 		.4byte	.LFE121
 4682 00d0 00000000 		.4byte	0
 4683 00d4 00000000 		.4byte	0
 4684              		.section	.debug_line,"",%progbits
 4685              	.Ldebug_line0:
 4686 0000 4D040000 		.section	.debug_str,"MS",%progbits,1
 4686      02004803 
 4686      00000201 
 4686      FB0E0D00 
 4686      01010101 
 4687              	.LASF2:
 4688 0000 696E7438 		.ascii	"int8_t\000"
 4688      5F7400
 4689              	.LASF164:
 4690 0007 70726F74 		.ascii	"proterr\000"
 4690      65727200 
 4691              	.LASF1:
 4692 000f 73697A65 		.ascii	"size_t\000"
 4692      5F7400
 4693              	.LASF50:
 4694 0016 73697A65 		.ascii	"sizetype\000"
 4694      74797065 
 4694      00
 4695              	.LASF23:
 4696 001f 73797374 		.ascii	"systime_t\000"
 4696      696D655F 
 4696      7400
 4697              	.LASF198:
 4698 0029 6574685F 		.ascii	"eth_addr\000"
 4698      61646472 
 4698      00
 4699              	.LASF29:
 4700 0032 705F6374 		.ascii	"p_ctx\000"
 4700      7800
 4701              	.LASF20:
 4702 0038 74707269 		.ascii	"tprio_t\000"
 4702      6F5F7400 
ARM GAS  /var/folders/5n/p_75w94d66l9ssrldxqdhh700000gn/T//ccp9Ul8m.s 			page 84


 4703              	.LASF143:
 4704 0040 4D454D50 		.ascii	"MEMP_TCP_PCB\000"
 4704      5F544350 
 4704      5F504342 
 4704      00
 4705              	.LASF242:
 4706 004d 63685468 		.ascii	"chThdSetPriority\000"
 4706      64536574 
 4706      5072696F 
 4706      72697479 
 4706      00
 4707              	.LASF120:
 4708 005e 73385F74 		.ascii	"s8_t\000"
 4708      00
 4709              	.LASF38:
 4710 0063 705F6D73 		.ascii	"p_msgqueue\000"
 4710      67717565 
 4710      756500
 4711              	.LASF60:
 4712 006e 725F6374 		.ascii	"r_ctx\000"
 4712      7800
 4713              	.LASF9:
 4714 0074 696E7433 		.ascii	"int32_t\000"
 4714      325F7400 
 4715              	.LASF51:
 4716 007c 76746675 		.ascii	"vtfunc_t\000"
 4716      6E635F74 
 4716      00
 4717              	.LASF152:
 4718 0085 4D454D50 		.ascii	"MEMP_SYS_TIMEOUT\000"
 4718      5F535953 
 4718      5F54494D 
 4718      454F5554 
 4718      00
 4719              	.LASF163:
 4720 0096 72746572 		.ascii	"rterr\000"
 4720      7200
 4721              	.LASF212:
 4722 009c 65746868 		.ascii	"ethhdr\000"
 4722      647200
 4723              	.LASF95:
 4724 00a3 70687961 		.ascii	"phyaddr\000"
 4724      64647200 
 4725              	.LASF90:
 4726 00ab 636F6E66 		.ascii	"config\000"
 4726      696700
 4727              	.LASF89:
 4728 00b2 73746174 		.ascii	"state\000"
 4728      6500
 4729              	.LASF215:
 4730 00b8 45544844 		.ascii	"ETHD1\000"
 4730      3100
 4731              	.LASF139:
 4732 00be 74797065 		.ascii	"type\000"
 4732      00
 4733              	.LASF243:
 4734 00c3 474E5520 		.ascii	"GNU C 4.7.2\000"
ARM GAS  /var/folders/5n/p_75w94d66l9ssrldxqdhh700000gn/T//ccp9Ul8m.s 			page 85


 4734      4320342E 
 4734      372E3200 
 4735              	.LASF84:
 4736 00cf 4D41435F 		.ascii	"MAC_UNINIT\000"
 4736      554E494E 
 4736      495400
 4737              	.LASF132:
 4738 00da 50425546 		.ascii	"PBUF_REF\000"
 4738      5F524546 
 4738      00
 4739              	.LASF180:
 4740 00e3 6D656D70 		.ascii	"memp\000"
 4740      00
 4741              	.LASF230:
 4742 00e8 7379735F 		.ascii	"sys_init\000"
 4742      696E6974 
 4742      00
 4743              	.LASF177:
 4744 00f1 65746861 		.ascii	"etharp\000"
 4744      727000
 4745              	.LASF71:
 4746 00f8 6D5F6F77 		.ascii	"m_owner\000"
 4746      6E657200 
 4747              	.LASF57:
 4748 0100 76745F70 		.ascii	"vt_par\000"
 4748      617200
 4749              	.LASF80:
 4750 0107 65786974 		.ascii	"exitcode\000"
 4750      636F6465 
 4750      00
 4751              	.LASF30:
 4752 0110 705F6E65 		.ascii	"p_newer\000"
 4752      77657200 
 4753              	.LASF10:
 4754 0118 6C6F6E67 		.ascii	"long int\000"
 4754      20696E74 
 4754      00
 4755              	.LASF26:
 4756 0121 705F6E65 		.ascii	"p_next\000"
 4756      787400
 4757              	.LASF222:
 4758 0128 6C776970 		.ascii	"lwip_htons\000"
 4758      5F68746F 
 4758      6E7300
 4759              	.LASF27:
 4760 0133 705F7072 		.ascii	"p_prev\000"
 4760      657600
 4761              	.LASF206:
 4762 013a 6C6F775F 		.ascii	"low_level_output\000"
 4762      6C657665 
 4762      6C5F6F75 
 4762      74707574 
 4762      00
 4763              	.LASF18:
 4764 014b 74737461 		.ascii	"tstate_t\000"
 4764      74655F74 
 4764      00
ARM GAS  /var/folders/5n/p_75w94d66l9ssrldxqdhh700000gn/T//ccp9Ul8m.s 			page 86


 4765              	.LASF116:
 4766 0154 65745F65 		.ascii	"et_es\000"
 4766      7300
 4767              	.LASF41:
 4768 015a 705F6D74 		.ascii	"p_mtxlist\000"
 4768      786C6973 
 4768      7400
 4769              	.LASF46:
 4770 0164 72656761 		.ascii	"regarm_t\000"
 4770      726D5F74 
 4770      00
 4771              	.LASF245:
 4772 016d 2F557365 		.ascii	"/Users/sin/Documents/Eclipse/Workspace/ChibiOS_2.4."
 4772      72732F73 
 4772      696E2F44 
 4772      6F63756D 
 4772      656E7473 
 4773 01a0 322F6465 		.ascii	"2/demos/ARMCM4-STM32F407-LWIP\000"
 4773      6D6F732F 
 4773      41524D43 
 4773      4D342D53 
 4773      544D3332 
 4774              	.LASF168:
 4775 01be 61766169 		.ascii	"avail\000"
 4775      6C00
 4776              	.LASF108:
 4777 01c4 6D61635F 		.ascii	"mac_address\000"
 4777      61646472 
 4777      65737300 
 4778              	.LASF189:
 4779 01d0 6C696E6B 		.ascii	"linkoutput\000"
 4779      6F757470 
 4779      757400
 4780              	.LASF190:
 4781 01db 68776164 		.ascii	"hwaddr_len\000"
 4781      64725F6C 
 4781      656E00
 4782              	.LASF154:
 4783 01e6 4D454D50 		.ascii	"MEMP_PBUF_POOL\000"
 4783      5F504255 
 4783      465F504F 
 4783      4F4C00
 4784              	.LASF3:
 4785 01f5 7369676E 		.ascii	"signed char\000"
 4785      65642063 
 4785      68617200 
 4786              	.LASF82:
 4787 0201 65776D61 		.ascii	"ewmask\000"
 4787      736B00
 4788              	.LASF4:
 4789 0208 75696E74 		.ascii	"uint8_t\000"
 4789      385F7400 
 4790              	.LASF219:
 4791 0210 6D61635F 		.ascii	"mac_lld_write_transmit_descriptor\000"
 4791      6C6C645F 
 4791      77726974 
 4791      655F7472 
ARM GAS  /var/folders/5n/p_75w94d66l9ssrldxqdhh700000gn/T//ccp9Ul8m.s 			page 87


 4791      616E736D 
 4792              	.LASF226:
 4793 0232 6D61635F 		.ascii	"mac_lld_read_receive_descriptor\000"
 4793      6C6C645F 
 4793      72656164 
 4793      5F726563 
 4793      65697665 
 4794              	.LASF233:
 4795 0252 6E657469 		.ascii	"netif_init\000"
 4795      665F696E 
 4795      697400
 4796              	.LASF22:
 4797 025d 6576656E 		.ascii	"eventmask_t\000"
 4797      746D6173 
 4797      6B5F7400 
 4798              	.LASF49:
 4799 0269 636F6E74 		.ascii	"context\000"
 4799      65787400 
 4800              	.LASF244:
 4801 0271 2E2E2F2E 		.ascii	"../../os/various/lwip_bindings/lwipthread.c\000"
 4801      2E2F6F73 
 4801      2F766172 
 4801      696F7573 
 4801      2F6C7769 
 4802              	.LASF5:
 4803 029d 756E7369 		.ascii	"unsigned char\000"
 4803      676E6564 
 4803      20636861 
 4803      7200
 4804              	.LASF102:
 4805 02ab 73746D33 		.ascii	"stm32_eth_rx_descriptor_t\000"
 4805      325F6574 
 4805      685F7278 
 4805      5F646573 
 4805      63726970 
 4806              	.LASF54:
 4807 02c5 76745F70 		.ascii	"vt_prev\000"
 4807      72657600 
 4808              	.LASF161:
 4809 02cd 6C656E65 		.ascii	"lenerr\000"
 4809      727200
 4810              	.LASF61:
 4811 02d4 725F6E65 		.ascii	"r_newer\000"
 4811      77657200 
 4812              	.LASF148:
 4813 02dc 4D454D50 		.ascii	"MEMP_NETBUF\000"
 4813      5F4E4554 
 4813      42554600 
 4814              	.LASF159:
 4815 02e8 64726F70 		.ascii	"drop\000"
 4815      00
 4816              	.LASF184:
 4817 02ed 6E657469 		.ascii	"netif_init_fn\000"
 4817      665F696E 
 4817      69745F66 
 4817      6E00
 4818              	.LASF133:
ARM GAS  /var/folders/5n/p_75w94d66l9ssrldxqdhh700000gn/T//ccp9Ul8m.s 			page 88


 4819 02fb 50425546 		.ascii	"PBUF_POOL\000"
 4819      5F504F4F 
 4819      4C00
 4820              	.LASF228:
 4821 0305 6D616352 		.ascii	"macReleaseReceiveDescriptor\000"
 4821      656C6561 
 4821      73655265 
 4821      63656976 
 4821      65446573 
 4822              	.LASF83:
 4823 0321 63686172 		.ascii	"char\000"
 4823      00
 4824              	.LASF188:
 4825 0326 6F757470 		.ascii	"output\000"
 4825      757400
 4826              	.LASF135:
 4827 032d 70627566 		.ascii	"pbuf\000"
 4827      00
 4828              	.LASF96:
 4829 0332 72787074 		.ascii	"rxptr\000"
 4829      7200
 4830              	.LASF28:
 4831 0338 705F7072 		.ascii	"p_prio\000"
 4831      696F00
 4832              	.LASF92:
 4833 033f 72647365 		.ascii	"rdsem\000"
 4833      6D00
 4834              	.LASF141:
 4835 0345 4D454D50 		.ascii	"MEMP_RAW_PCB\000"
 4835      5F524157 
 4835      5F504342 
 4835      00
 4836              	.LASF81:
 4837 0352 77746F62 		.ascii	"wtobjp\000"
 4837      6A7000
 4838              	.LASF224:
 4839 0359 6D616357 		.ascii	"macWaitReceiveDescriptor\000"
 4839      61697452 
 4839      65636569 
 4839      76654465 
 4839      73637269 
 4840              	.LASF93:
 4841 0372 72646576 		.ascii	"rdevent\000"
 4841      656E7400 
 4842              	.LASF140:
 4843 037a 666C6167 		.ascii	"flags\000"
 4843      7300
 4844              	.LASF231:
 4845 0380 6D656D5F 		.ascii	"mem_init\000"
 4845      696E6974 
 4845      00
 4846              	.LASF246:
 4847 0389 6C6F775F 		.ascii	"low_level_init\000"
 4847      6C657665 
 4847      6C5F696E 
 4847      697400
 4848              	.LASF47:
ARM GAS  /var/folders/5n/p_75w94d66l9ssrldxqdhh700000gn/T//ccp9Ul8m.s 			page 89


 4849 0398 73746B61 		.ascii	"stkalign_t\000"
 4849      6C69676E 
 4849      5F7400
 4850              	.LASF123:
 4851 03a3 6D656D5F 		.ascii	"mem_size_t\000"
 4851      73697A65 
 4851      5F7400
 4852              	.LASF199:
 4853 03ae 6574685F 		.ascii	"eth_hdr\000"
 4853      68647200 
 4854              	.LASF181:
 4855 03b6 69705F61 		.ascii	"ip_addr\000"
 4855      64647200 
 4856              	.LASF187:
 4857 03be 696E7075 		.ascii	"input\000"
 4857      7400
 4858              	.LASF207:
 4859 03c4 74686973 		.ascii	"thisif\000"
 4859      696600
 4860              	.LASF166:
 4861 03cb 63616368 		.ascii	"cachehit\000"
 4861      65686974 
 4861      00
 4862              	.LASF162:
 4863 03d4 6D656D65 		.ascii	"memerr\000"
 4863      727200
 4864              	.LASF175:
 4865 03db 73746174 		.ascii	"stats_\000"
 4865      735F00
 4866              	.LASF24:
 4867 03e2 636E745F 		.ascii	"cnt_t\000"
 4867      7400
 4868              	.LASF205:
 4869 03e8 65746865 		.ascii	"ethernetif_init\000"
 4869      726E6574 
 4869      69665F69 
 4869      6E697400 
 4870              	.LASF221:
 4871 03f8 74637069 		.ascii	"tcpip_callback_with_block\000"
 4871      705F6361 
 4871      6C6C6261 
 4871      636B5F77 
 4871      6974685F 
 4872              	.LASF56:
 4873 0412 76745F66 		.ascii	"vt_func\000"
 4873      756E6300 
 4874              	.LASF150:
 4875 041a 4D454D50 		.ascii	"MEMP_TCPIP_MSG_API\000"
 4875      5F544350 
 4875      49505F4D 
 4875      53475F41 
 4875      504900
 4876              	.LASF149:
 4877 042d 4D454D50 		.ascii	"MEMP_NETCONN\000"
 4877      5F4E4554 
 4877      434F4E4E 
 4877      00
ARM GAS  /var/folders/5n/p_75w94d66l9ssrldxqdhh700000gn/T//ccp9Ul8m.s 			page 90


 4878              	.LASF48:
 4879 043a 696E7463 		.ascii	"intctx\000"
 4879      747800
 4880              	.LASF40:
 4881 0441 705F6570 		.ascii	"p_epending\000"
 4881      656E6469 
 4881      6E6700
 4882              	.LASF201:
 4883 044c 6C776970 		.ascii	"lwipthread_opts\000"
 4883      74687265 
 4883      61645F6F 
 4883      70747300 
 4884              	.LASF218:
 4885 045c 6D616357 		.ascii	"macWaitTransmitDescriptor\000"
 4885      61697454 
 4885      72616E73 
 4885      6D697444 
 4885      65736372 
 4886              	.LASF202:
 4887 0476 6D616361 		.ascii	"macaddress\000"
 4887      64647265 
 4887      737300
 4888              	.LASF78:
 4889 0481 65735F6E 		.ascii	"es_next\000"
 4889      65787400 
 4890              	.LASF237:
 4891 0489 6E657469 		.ascii	"netif_set_default\000"
 4891      665F7365 
 4891      745F6465 
 4891      6661756C 
 4891      7400
 4892              	.LASF77:
 4893 049b 4576656E 		.ascii	"EventSource\000"
 4893      74536F75 
 4893      72636500 
 4894              	.LASF12:
 4895 04a7 6C6F6E67 		.ascii	"long unsigned int\000"
 4895      20756E73 
 4895      69676E65 
 4895      6420696E 
 4895      7400
 4896              	.LASF185:
 4897 04b9 6E657469 		.ascii	"netif\000"
 4897      6600
 4898              	.LASF203:
 4899 04bf 61646472 		.ascii	"address\000"
 4899      65737300 
 4900              	.LASF131:
 4901 04c7 50425546 		.ascii	"PBUF_ROM\000"
 4901      5F524F4D 
 4901      00
 4902              	.LASF191:
 4903 04d0 68776164 		.ascii	"hwaddr\000"
 4903      647200
 4904              	.LASF176:
 4905 04d7 6C696E6B 		.ascii	"link\000"
 4905      00
ARM GAS  /var/folders/5n/p_75w94d66l9ssrldxqdhh700000gn/T//ccp9Ul8m.s 			page 91


 4906              	.LASF74:
 4907 04dc 656C5F6E 		.ascii	"el_next\000"
 4907      65787400 
 4908              	.LASF137:
 4909 04e4 7061796C 		.ascii	"payload\000"
 4909      6F616400 
 4910              	.LASF196:
 4911 04ec 74637069 		.ascii	"tcpip_init_done_fn\000"
 4911      705F696E 
 4911      69745F64 
 4911      6F6E655F 
 4911      666E00
 4912              	.LASF88:
 4913 04ff 4D414344 		.ascii	"MACDriver\000"
 4913      72697665 
 4913      7200
 4914              	.LASF157:
 4915 0509 786D6974 		.ascii	"xmit\000"
 4915      00
 4916              	.LASF118:
 4917 050e 45765469 		.ascii	"EvTimer\000"
 4917      6D657200 
 4918              	.LASF69:
 4919 0516 4D757465 		.ascii	"Mutex\000"
 4919      7800
 4920              	.LASF13:
 4921 051c 6C6F6E67 		.ascii	"long long int\000"
 4921      206C6F6E 
 4921      6720696E 
 4921      7400
 4922              	.LASF70:
 4923 052a 6D5F7175 		.ascii	"m_queue\000"
 4923      65756500 
 4924              	.LASF53:
 4925 0532 76745F6E 		.ascii	"vt_next\000"
 4925      65787400 
 4926              	.LASF86:
 4927 053a 4D41435F 		.ascii	"MAC_ACTIVE\000"
 4927      41435449 
 4927      564500
 4928              	.LASF186:
 4929 0545 6E65746D 		.ascii	"netmask\000"
 4929      61736B00 
 4930              	.LASF210:
 4931 054d 6D61736B 		.ascii	"mask\000"
 4931      00
 4932              	.LASF173:
 4933 0552 6D757465 		.ascii	"mutex\000"
 4933      7800
 4934              	.LASF214:
 4935 0558 49544D5F 		.ascii	"ITM_RxBuffer\000"
 4935      52784275 
 4935      66666572 
 4935      00
 4936              	.LASF171:
 4937 0565 73746174 		.ascii	"stats_syselem\000"
 4937      735F7379 
ARM GAS  /var/folders/5n/p_75w94d66l9ssrldxqdhh700000gn/T//ccp9Ul8m.s 			page 92


 4937      73656C65 
 4937      6D00
 4938              	.LASF156:
 4939 0573 73746174 		.ascii	"stats_proto\000"
 4939      735F7072 
 4939      6F746F00 
 4940              	.LASF248:
 4941 057f 6C776970 		.ascii	"lwip_thread\000"
 4941      5F746872 
 4941      65616400 
 4942              	.LASF211:
 4943 058b 63757272 		.ascii	"current_link_status\000"
 4943      656E745F 
 4943      6C696E6B 
 4943      5F737461 
 4943      74757300 
 4944              	.LASF37:
 4945 059f 705F7761 		.ascii	"p_waiting\000"
 4945      6974696E 
 4945      6700
 4946              	.LASF182:
 4947 05a9 61646472 		.ascii	"addr\000"
 4947      00
 4948              	.LASF34:
 4949 05ae 705F666C 		.ascii	"p_flags\000"
 4949      61677300 
 4950              	.LASF117:
 4951 05b6 65745F69 		.ascii	"et_interval\000"
 4951      6E746572 
 4951      76616C00 
 4952              	.LASF0:
 4953 05c2 756E7369 		.ascii	"unsigned int\000"
 4953      676E6564 
 4953      20696E74 
 4953      00
 4954              	.LASF178:
 4955 05cf 69705F66 		.ascii	"ip_frag\000"
 4955      72616700 
 4956              	.LASF209:
 4957 05d7 6F707473 		.ascii	"opts\000"
 4957      00
 4958              	.LASF121:
 4959 05dc 7531365F 		.ascii	"u16_t\000"
 4959      7400
 4960              	.LASF43:
 4961 05e2 705F6D70 		.ascii	"p_mpool\000"
 4961      6F6F6C00 
 4962              	.LASF174:
 4963 05ea 6D626F78 		.ascii	"mbox\000"
 4963      00
 4964              	.LASF126:
 4965 05ef 50425546 		.ascii	"PBUF_IP\000"
 4965      5F495000 
 4966              	.LASF35:
 4967 05f7 705F7265 		.ascii	"p_refs\000"
 4967      667300
 4968              	.LASF232:
ARM GAS  /var/folders/5n/p_75w94d66l9ssrldxqdhh700000gn/T//ccp9Ul8m.s 			page 93


 4969 05fe 6D656D70 		.ascii	"memp_init\000"
 4969      5F696E69 
 4969      7400
 4970              	.LASF103:
 4971 0608 74646573 		.ascii	"tdes0\000"
 4971      3000
 4972              	.LASF104:
 4973 060e 74646573 		.ascii	"tdes1\000"
 4973      3100
 4974              	.LASF105:
 4975 0614 74646573 		.ascii	"tdes2\000"
 4975      3200
 4976              	.LASF106:
 4977 061a 74646573 		.ascii	"tdes3\000"
 4977      3300
 4978              	.LASF193:
 4979 0620 6E657469 		.ascii	"netif_input_fn\000"
 4979      665F696E 
 4979      7075745F 
 4979      666E00
 4980              	.LASF115:
 4981 062f 65745F76 		.ascii	"et_vt\000"
 4981      7400
 4982              	.LASF45:
 4983 0635 54687265 		.ascii	"ThreadsList\000"
 4983      6164734C 
 4983      69737400 
 4984              	.LASF134:
 4985 0641 70627566 		.ascii	"pbuf_type\000"
 4985      5F747970 
 4985      6500
 4986              	.LASF110:
 4987 064b 6F666673 		.ascii	"offset\000"
 4987      657400
 4988              	.LASF195:
 4989 0652 6E657469 		.ascii	"netif_linkoutput_fn\000"
 4989      665F6C69 
 4989      6E6B6F75 
 4989      74707574 
 4989      5F666E00 
 4990              	.LASF197:
 4991 0666 74637069 		.ascii	"tcpip_callback_fn\000"
 4991      705F6361 
 4991      6C6C6261 
 4991      636B5F66 
 4991      6E00
 4992              	.LASF36:
 4993 0678 705F7469 		.ascii	"p_time\000"
 4993      6D6500
 4994              	.LASF194:
 4995 067f 6E657469 		.ascii	"netif_output_fn\000"
 4995      665F6F75 
 4995      74707574 
 4995      5F666E00 
 4996              	.LASF158:
 4997 068f 72656376 		.ascii	"recv\000"
 4997      00
ARM GAS  /var/folders/5n/p_75w94d66l9ssrldxqdhh700000gn/T//ccp9Ul8m.s 			page 94


 4998              	.LASF169:
 4999 0694 75736564 		.ascii	"used\000"
 4999      00
 5000              	.LASF138:
 5001 0699 746F745F 		.ascii	"tot_len\000"
 5001      6C656E00 
 5002              	.LASF136:
 5003 06a1 6E657874 		.ascii	"next\000"
 5003      00
 5004              	.LASF183:
 5005 06a6 69705F61 		.ascii	"ip_addr_t\000"
 5005      6464725F 
 5005      7400
 5006              	.LASF66:
 5007 06b0 53656D61 		.ascii	"Semaphore\000"
 5007      70686F72 
 5007      6500
 5008              	.LASF63:
 5009 06ba 725F7072 		.ascii	"r_preempt\000"
 5009      65656D70 
 5009      7400
 5010              	.LASF42:
 5011 06c4 705F7265 		.ascii	"p_realprio\000"
 5011      616C7072 
 5011      696F00
 5012              	.LASF124:
 5013 06cf 6572725F 		.ascii	"err_t\000"
 5013      7400
 5014              	.LASF172:
 5015 06d5 73746174 		.ascii	"stats_sys\000"
 5015      735F7379 
 5015      7300
 5016              	.LASF146:
 5017 06df 4D454D50 		.ascii	"MEMP_REASSDATA\000"
 5017      5F524541 
 5017      53534441 
 5017      544100
 5018              	.LASF68:
 5019 06ee 735F636E 		.ascii	"s_cnt\000"
 5019      7400
 5020              	.LASF179:
 5021 06f4 69636D70 		.ascii	"icmp\000"
 5021      00
 5022              	.LASF147:
 5023 06f9 4D454D50 		.ascii	"MEMP_FRAG_PBUF\000"
 5023      5F465241 
 5023      475F5042 
 5023      554600
 5024              	.LASF111:
 5025 0708 73697A65 		.ascii	"size\000"
 5025      00
 5026              	.LASF15:
 5027 070d 6C6F6E67 		.ascii	"long long unsigned int\000"
 5027      206C6F6E 
 5027      6720756E 
 5027      7369676E 
 5027      65642069 
ARM GAS  /var/folders/5n/p_75w94d66l9ssrldxqdhh700000gn/T//ccp9Ul8m.s 			page 95


 5028              	.LASF113:
 5029 0724 4D414354 		.ascii	"MACTransmitDescriptor\000"
 5029      72616E73 
 5029      6D697444 
 5029      65736372 
 5029      6970746F 
 5030              	.LASF142:
 5031 073a 4D454D50 		.ascii	"MEMP_UDP_PCB\000"
 5031      5F554450 
 5031      5F504342 
 5031      00
 5032              	.LASF31:
 5033 0747 705F6F6C 		.ascii	"p_older\000"
 5033      64657200 
 5034              	.LASF145:
 5035 074f 4D454D50 		.ascii	"MEMP_TCP_SEG\000"
 5035      5F544350 
 5035      5F534547 
 5035      00
 5036              	.LASF7:
 5037 075c 75696E74 		.ascii	"uint16_t\000"
 5037      31365F74 
 5037      00
 5038              	.LASF21:
 5039 0765 6D73675F 		.ascii	"msg_t\000"
 5039      7400
 5040              	.LASF151:
 5041 076b 4D454D50 		.ascii	"MEMP_TCPIP_MSG_INPKT\000"
 5041      5F544350 
 5041      49505F4D 
 5041      53475F49 
 5041      4E504B54 
 5042              	.LASF225:
 5043 0780 70627566 		.ascii	"pbuf_alloc\000"
 5043      5F616C6C 
 5043      6F6300
 5044              	.LASF167:
 5045 078b 73746174 		.ascii	"stats_mem\000"
 5045      735F6D65 
 5045      6D00
 5046              	.LASF64:
 5047 0795 725F6375 		.ascii	"r_current\000"
 5047      7272656E 
 5047      7400
 5048              	.LASF170:
 5049 079f 696C6C65 		.ascii	"illegal\000"
 5049      67616C00 
 5050              	.LASF165:
 5051 07a7 6F707465 		.ascii	"opterr\000"
 5051      727200
 5052              	.LASF217:
 5053 07ae 77615F6C 		.ascii	"wa_lwip_thread\000"
 5053      7769705F 
 5053      74687265 
 5053      616400
 5054              	.LASF160:
 5055 07bd 63686B65 		.ascii	"chkerr\000"
ARM GAS  /var/folders/5n/p_75w94d66l9ssrldxqdhh700000gn/T//ccp9Ul8m.s 			page 96


 5055      727200
 5056              	.LASF109:
 5057 07c4 4D414343 		.ascii	"MACConfig\000"
 5057      6F6E6669 
 5057      6700
 5058              	.LASF129:
 5059 07ce 70627566 		.ascii	"pbuf_layer\000"
 5059      5F6C6179 
 5059      657200
 5060              	.LASF235:
 5061 07d9 6D616353 		.ascii	"macStart\000"
 5061      74617274 
 5061      00
 5062              	.LASF58:
 5063 07e2 725F7175 		.ascii	"r_queue\000"
 5063      65756500 
 5064              	.LASF223:
 5065 07ea 70627566 		.ascii	"pbuf_free\000"
 5065      5F667265 
 5065      6500
 5066              	.LASF200:
 5067 07f4 64657374 		.ascii	"dest\000"
 5067      00
 5068              	.LASF155:
 5069 07f9 4D454D50 		.ascii	"MEMP_MAX\000"
 5069      5F4D4158 
 5069      00
 5070              	.LASF122:
 5071 0802 7533325F 		.ascii	"u32_t\000"
 5071      7400
 5072              	.LASF213:
 5073 0808 726C6973 		.ascii	"rlist\000"
 5073      7400
 5074              	.LASF17:
 5075 080e 746D6F64 		.ascii	"tmode_t\000"
 5075      655F7400 
 5076              	.LASF94:
 5077 0816 6C696E6B 		.ascii	"link_up\000"
 5077      5F757000 
 5078              	.LASF62:
 5079 081e 725F6F6C 		.ascii	"r_older\000"
 5079      64657200 
 5080              	.LASF208:
 5081 0826 6D61635F 		.ascii	"mac_config\000"
 5081      636F6E66 
 5081      696700
 5082              	.LASF192:
 5083 0831 6E616D65 		.ascii	"name\000"
 5083      00
 5084              	.LASF67:
 5085 0836 735F7175 		.ascii	"s_queue\000"
 5085      65756500 
 5086              	.LASF153:
 5087 083e 4D454D50 		.ascii	"MEMP_PBUF\000"
 5087      5F504255 
 5087      4600
 5088              	.LASF6:
ARM GAS  /var/folders/5n/p_75w94d66l9ssrldxqdhh700000gn/T//ccp9Ul8m.s 			page 97


 5089 0848 73686F72 		.ascii	"short int\000"
 5089      7420696E 
 5089      7400
 5090              	.LASF14:
 5091 0852 75696E74 		.ascii	"uint64_t\000"
 5091      36345F74 
 5091      00
 5092              	.LASF216:
 5093 085b 6C776970 		.ascii	"lwip_stats\000"
 5093      5F737461 
 5093      747300
 5094              	.LASF59:
 5095 0866 725F7072 		.ascii	"r_prio\000"
 5095      696F00
 5096              	.LASF16:
 5097 086d 626F6F6C 		.ascii	"bool_t\000"
 5097      5F7400
 5098              	.LASF25:
 5099 0874 54687265 		.ascii	"Thread\000"
 5099      616400
 5100              	.LASF204:
 5101 087b 67617465 		.ascii	"gateway\000"
 5101      77617900 
 5102              	.LASF227:
 5103 0883 6D616352 		.ascii	"macReleaseTransmitDescriptor\000"
 5103      656C6561 
 5103      73655472 
 5103      616E736D 
 5103      69744465 
 5104              	.LASF236:
 5105 08a0 6E657469 		.ascii	"netif_add\000"
 5105      665F6164 
 5105      6400
 5106              	.LASF19:
 5107 08aa 74726566 		.ascii	"trefs_t\000"
 5107      735F7400 
 5108              	.LASF87:
 5109 08b2 6D616373 		.ascii	"macstate_t\000"
 5109      74617465 
 5109      5F7400
 5110              	.LASF73:
 5111 08bd 4576656E 		.ascii	"EventListener\000"
 5111      744C6973 
 5111      74656E65 
 5111      7200
 5112              	.LASF98:
 5113 08cb 72646573 		.ascii	"rdes0\000"
 5113      3000
 5114              	.LASF99:
 5115 08d1 72646573 		.ascii	"rdes1\000"
 5115      3100
 5116              	.LASF100:
 5117 08d7 72646573 		.ascii	"rdes2\000"
 5117      3200
 5118              	.LASF101:
 5119 08dd 72646573 		.ascii	"rdes3\000"
 5119      3300
ARM GAS  /var/folders/5n/p_75w94d66l9ssrldxqdhh700000gn/T//ccp9Ul8m.s 			page 98


 5120              	.LASF11:
 5121 08e3 75696E74 		.ascii	"uint32_t\000"
 5121      33325F74 
 5121      00
 5122              	.LASF52:
 5123 08ec 56697274 		.ascii	"VirtualTimer\000"
 5123      75616C54 
 5123      696D6572 
 5123      00
 5124              	.LASF234:
 5125 08f9 74637069 		.ascii	"tcpip_init\000"
 5125      705F696E 
 5125      697400
 5126              	.LASF125:
 5127 0904 50425546 		.ascii	"PBUF_TRANSPORT\000"
 5127      5F545241 
 5127      4E53504F 
 5127      525400
 5128              	.LASF44:
 5129 0913 54687265 		.ascii	"ThreadsQueue\000"
 5129      61647351 
 5129      75657565 
 5129      00
 5130              	.LASF238:
 5131 0920 6E657469 		.ascii	"netif_set_up\000"
 5131      665F7365 
 5131      745F7570 
 5131      00
 5132              	.LASF85:
 5133 092d 4D41435F 		.ascii	"MAC_STOP\000"
 5133      53544F50 
 5133      00
 5134              	.LASF220:
 5135 0936 6D616350 		.ascii	"macPollLinkStatus\000"
 5135      6F6C6C4C 
 5135      696E6B53 
 5135      74617475 
 5135      7300
 5136              	.LASF241:
 5137 0948 63684576 		.ascii	"chEvtAddFlags\000"
 5137      74416464 
 5137      466C6167 
 5137      7300
 5138              	.LASF79:
 5139 0956 7264796D 		.ascii	"rdymsg\000"
 5139      736700
 5140              	.LASF240:
 5141 095d 63684576 		.ascii	"chEvtRegisterMask\000"
 5141      74526567 
 5141      69737465 
 5141      724D6173 
 5141      6B00
 5142              	.LASF112:
 5143 096f 70687973 		.ascii	"physdesc\000"
 5143      64657363 
 5143      00
 5144              	.LASF8:
ARM GAS  /var/folders/5n/p_75w94d66l9ssrldxqdhh700000gn/T//ccp9Ul8m.s 			page 99


 5145 0978 73686F72 		.ascii	"short unsigned int\000"
 5145      7420756E 
 5145      7369676E 
 5145      65642069 
 5145      6E7400
 5146              	.LASF107:
 5147 098b 73746D33 		.ascii	"stm32_eth_tx_descriptor_t\000"
 5147      325F6574 
 5147      685F7478 
 5147      5F646573 
 5147      63726970 
 5148              	.LASF247:
 5149 09a5 6C6F775F 		.ascii	"low_level_input\000"
 5149      6C657665 
 5149      6C5F696E 
 5149      70757400 
 5150              	.LASF119:
 5151 09b5 75385F74 		.ascii	"u8_t\000"
 5151      00
 5152              	.LASF229:
 5153 09ba 63684576 		.ascii	"chEvtWaitAny\000"
 5153      74576169 
 5153      74416E79 
 5153      00
 5154              	.LASF114:
 5155 09c7 4D414352 		.ascii	"MACReceiveDescriptor\000"
 5155      65636569 
 5155      76654465 
 5155      73637269 
 5155      70746F72 
 5156              	.LASF76:
 5157 09dc 656C5F6D 		.ascii	"el_mask\000"
 5157      61736B00 
 5158              	.LASF65:
 5159 09e4 52656164 		.ascii	"ReadyList\000"
 5159      794C6973 
 5159      7400
 5160              	.LASF130:
 5161 09ee 50425546 		.ascii	"PBUF_RAM\000"
 5161      5F52414D 
 5161      00
 5162              	.LASF97:
 5163 09f7 74787074 		.ascii	"txptr\000"
 5163      7200
 5164              	.LASF128:
 5165 09fd 50425546 		.ascii	"PBUF_RAW\000"
 5165      5F524157 
 5165      00
 5166              	.LASF32:
 5167 0a06 705F6E61 		.ascii	"p_name\000"
 5167      6D6500
 5168              	.LASF91:
 5169 0a0d 74647365 		.ascii	"tdsem\000"
 5169      6D00
 5170              	.LASF55:
 5171 0a13 76745F74 		.ascii	"vt_time\000"
 5171      696D6500 
ARM GAS  /var/folders/5n/p_75w94d66l9ssrldxqdhh700000gn/T//ccp9Ul8m.s 			page 100


 5172              	.LASF72:
 5173 0a1b 6D5F6E65 		.ascii	"m_next\000"
 5173      787400
 5174              	.LASF239:
 5175 0a22 65767453 		.ascii	"evtStart\000"
 5175      74617274 
 5175      00
 5176              	.LASF144:
 5177 0a2b 4D454D50 		.ascii	"MEMP_TCP_PCB_LISTEN\000"
 5177      5F544350 
 5177      5F504342 
 5177      5F4C4953 
 5177      54454E00 
 5178              	.LASF127:
 5179 0a3f 50425546 		.ascii	"PBUF_LINK\000"
 5179      5F4C494E 
 5179      4B00
 5180              	.LASF39:
 5181 0a49 705F6D73 		.ascii	"p_msg\000"
 5181      6700
 5182              	.LASF75:
 5183 0a4f 656C5F6C 		.ascii	"el_listener\000"
 5183      69737465 
 5183      6E657200 
 5184              	.LASF33:
 5185 0a5b 705F7374 		.ascii	"p_state\000"
 5185      61746500 
 5186              		.ident	"GCC: (GNU) 4.7.2"
ARM GAS  /var/folders/5n/p_75w94d66l9ssrldxqdhh700000gn/T//ccp9Ul8m.s 			page 101


DEFINED SYMBOLS
                            *ABS*:0000000000000000 lwipthread.c
/var/folders/5n/p_75w94d66l9ssrldxqdhh700000gn/T//ccp9Ul8m.s:19     .text.ethernetif_init:0000000000000000 $t
/var/folders/5n/p_75w94d66l9ssrldxqdhh700000gn/T//ccp9Ul8m.s:24     .text.ethernetif_init:0000000000000000 ethernetif_init
/var/folders/5n/p_75w94d66l9ssrldxqdhh700000gn/T//ccp9Ul8m.s:89     .text.low_level_output:0000000000000000 low_level_output
/var/folders/5n/p_75w94d66l9ssrldxqdhh700000gn/T//ccp9Ul8m.s:84     .text.low_level_output:0000000000000000 $t
/var/folders/5n/p_75w94d66l9ssrldxqdhh700000gn/T//ccp9Ul8m.s:157    .text.low_level_output:0000000000000040 $d
/var/folders/5n/p_75w94d66l9ssrldxqdhh700000gn/T//ccp9Ul8m.s:163    .text.lwip_thread:0000000000000000 $t
/var/folders/5n/p_75w94d66l9ssrldxqdhh700000gn/T//ccp9Ul8m.s:169    .text.lwip_thread:0000000000000000 lwip_thread
/var/folders/5n/p_75w94d66l9ssrldxqdhh700000gn/T//ccp9Ul8m.s:527    .text.lwip_thread:00000000000001a8 $d
/var/folders/5n/p_75w94d66l9ssrldxqdhh700000gn/T//ccp9Ul8m.s:557    .bss.wa_lwip_thread:0000000000000000 wa_lwip_thread
/var/folders/5n/p_75w94d66l9ssrldxqdhh700000gn/T//ccp9Ul8m.s:547    .rodata.mac_config.7115:0000000000000000 $d
/var/folders/5n/p_75w94d66l9ssrldxqdhh700000gn/T//ccp9Ul8m.s:551    .rodata.mac_config.7115:0000000000000000 mac_config.7115
/var/folders/5n/p_75w94d66l9ssrldxqdhh700000gn/T//ccp9Ul8m.s:564    .bss.thisif.7114:0000000000000000 thisif.7114
/var/folders/5n/p_75w94d66l9ssrldxqdhh700000gn/T//ccp9Ul8m.s:554    .bss.wa_lwip_thread:0000000000000000 $d
/var/folders/5n/p_75w94d66l9ssrldxqdhh700000gn/T//ccp9Ul8m.s:560    .bss.thisif.7114:0000000000000000 $d
/var/folders/5n/p_75w94d66l9ssrldxqdhh700000gn/T//ccp9Ul8m.s:567    .rodata.str1.4:0000000000000000 $d
                     .debug_frame:0000000000000010 $d
/var/folders/5n/p_75w94d66l9ssrldxqdhh700000gn/T//ccp9Ul8m.s:162    .text.low_level_output:0000000000000048 $t
/var/folders/5n/p_75w94d66l9ssrldxqdhh700000gn/T//ccp9Ul8m.s:546    .text.lwip_thread:00000000000001d4 $t

UNDEFINED SYMBOLS
etharp_output
macWaitTransmitDescriptor
mac_lld_write_transmit_descriptor
macReleaseTransmitDescriptor
ETHD1
lwip_stats
sys_init
mem_init
memp_init
netif_init
tcpip_init
macStart
netif_add
netif_set_default
netif_set_up
evtStart
chEvtRegisterMask
chEvtAddFlags
chThdSetPriority
chEvtWaitAny
macPollLinkStatus
tcpip_callback_with_block
macWaitReceiveDescriptor
pbuf_alloc
mac_lld_read_receive_descriptor
macReleaseReceiveDescriptor
lwip_htons
pbuf_free
rlist
tcpip_input
netif_set_link_up
netif_set_link_down
