ARM GAS  /var/folders/5n/p_75w94d66l9ssrldxqdhh700000gn/T//ccMCLwZc.s 			page 1


   1              		.syntax unified
   2              		.cpu cortex-m4
   3              		.fpu softvfp
   4              		.eabi_attribute 20, 1
   5              		.eabi_attribute 21, 1
   6              		.eabi_attribute 23, 3
   7              		.eabi_attribute 24, 1
   8              		.eabi_attribute 25, 1
   9              		.eabi_attribute 26, 1
  10              		.eabi_attribute 30, 2
  11              		.eabi_attribute 34, 1
  12              		.eabi_attribute 18, 4
  13              		.thumb
  14              		.file	"main.c"
  15              		.text
  16              	.Ltext0:
  17              		.cfi_sections	.debug_frame
  18              		.section	.text.Thread1,"ax",%progbits
  19              		.align	2
  20              		.p2align 4,,15
  21              		.thumb
  22              		.thumb_func
  23              		.type	Thread1, %function
  24              	Thread1:
  25              	.LFB117:
  26              		.file 1 "main.c"
  27              		.loc 1 40 0
  28              		.cfi_startproc
  29              		@ args = 0, pretend = 0, frame = 0
  30              		@ frame_needed = 0, uses_anonymous_args = 0
  31              	.LVL0:
  32              		.loc 1 43 0
  33 0000 0A4B     		ldr	r3, .L4
  34 0002 0B4A     		ldr	r2, .L4+4
  35 0004 DB69     		ldr	r3, [r3, #28]
  36              		.loc 1 40 0
  37 0006 70B5     		push	{r4, r5, r6, lr}
  38              	.LCFI0:
  39              		.cfi_def_cfa_offset 16
  40              		.cfi_offset 4, -16
  41              		.cfi_offset 5, -12
  42              		.cfi_offset 6, -8
  43              		.cfi_offset 14, -4
  44              		.loc 1 45 0
  45 0008 4FF4A054 		mov	r4, #5120
  46 000c 4025     		movs	r5, #64
  47              		.loc 1 43 0
  48 000e 9A61     		str	r2, [r3, #24]
  49              		.loc 1 45 0
  50 0010 C4F20204 		movt	r4, 16386
  51 0014 2E46     		mov	r6, r5	@ movhi
  52              	.LVL1:
  53              	.L2:
  54              		.loc 1 45 0 is_stmt 0 discriminator 1
  55 0016 6683     		strh	r6, [r4, #26]	@ movhi
  56              		.loc 1 46 0 is_stmt 1 discriminator 1
  57 0018 4FF4FA70 		mov	r0, #500
ARM GAS  /var/folders/5n/p_75w94d66l9ssrldxqdhh700000gn/T//ccMCLwZc.s 			page 2


  58 001c FFF7FEFF 		bl	chThdSleep
  59              	.LVL2:
  60              		.loc 1 47 0 discriminator 1
  61 0020 2583     		strh	r5, [r4, #24]	@ movhi
  62              		.loc 1 48 0 discriminator 1
  63 0022 4FF4FA70 		mov	r0, #500
  64 0026 FFF7FEFF 		bl	chThdSleep
  65              	.LVL3:
  66 002a F4E7     		b	.L2
  67              	.L5:
  68              		.align	2
  69              	.L4:
  70 002c 00000000 		.word	rlist
  71 0030 00000000 		.word	.LC0
  72              		.cfi_endproc
  73              	.LFE117:
  74              		.size	Thread1, .-Thread1
  75 0034 AFF30080 		.section	.text.startup.main,"ax",%progbits
  75      AFF30080 
  75      AFF30080 
  76              		.align	2
  77              		.p2align 4,,15
  78              		.global	main
  79              		.thumb
  80              		.thumb_func
  81              		.type	main, %function
  82              	main:
  83              	.LFB118:
  84              		.loc 1 55 0
  85              		.cfi_startproc
  86              		@ args = 0, pretend = 0, frame = 0
  87              		@ frame_needed = 0, uses_anonymous_args = 0
  88 0000 10B5     		push	{r4, lr}
  89              	.LCFI1:
  90              		.cfi_def_cfa_offset 8
  91              		.cfi_offset 4, -8
  92              		.cfi_offset 14, -4
  93              		.loc 1 75 0
  94 0002 0024     		movs	r4, #0
  95              		.loc 1 55 0
  96 0004 82B0     		sub	sp, sp, #8
  97              	.LCFI2:
  98              		.cfi_def_cfa_offset 16
  99              		.loc 1 64 0
 100 0006 FFF7FEFF 		bl	halInit
 101              	.LVL4:
 102              		.loc 1 65 0
 103 000a FFF7FEFF 		bl	chSysInit
 104              	.LVL5:
 105              		.loc 1 70 0
 106 000e 2146     		mov	r1, r4
 107 0010 1548     		ldr	r0, .L9
 108 0012 FFF7FEFF 		bl	sdStart
 109              	.LVL6:
 110              		.loc 1 75 0
 111 0016 4FF49871 		mov	r1, #304
 112 001a 4022     		movs	r2, #64
ARM GAS  /var/folders/5n/p_75w94d66l9ssrldxqdhh700000gn/T//ccMCLwZc.s 			page 3


 113 001c 134B     		ldr	r3, .L9+4
 114 001e 0094     		str	r4, [sp, #0]
 115 0020 1348     		ldr	r0, .L9+8
 116 0022 FFF7FEFF 		bl	chThdCreateStatic
 117              	.LVL7:
 118              		.loc 1 80 0
 119 0026 4FF40071 		mov	r1, #512
 120 002a 4122     		movs	r2, #65
 121 002c 114B     		ldr	r3, .L9+12
 122 002e 0094     		str	r4, [sp, #0]
 123 0030 1148     		ldr	r0, .L9+16
 124 0032 FFF7FEFF 		bl	chThdCreateStatic
 125              	.LVL8:
 126              		.loc 1 86 0
 127 0036 0094     		str	r4, [sp, #0]
 128 0038 1048     		ldr	r0, .L9+20
 129 003a 114B     		ldr	r3, .L9+24
 130 003c 4FF49661 		mov	r1, #1200
 131 0040 4122     		movs	r2, #65
 132              		.loc 1 94 0
 133 0042 4FF40064 		mov	r4, #2048
 134              		.loc 1 86 0
 135 0046 FFF7FEFF 		bl	chThdCreateStatic
 136              	.LVL9:
 137              		.loc 1 94 0
 138 004a C4F20204 		movt	r4, 16386
 139 004e 03E0     		b	.L8
 140              	.L7:
 141              		.loc 1 96 0
 142 0050 4FF4FA70 		mov	r0, #500
 143 0054 FFF7FEFF 		bl	chThdSleep
 144              	.LVL10:
 145              	.L8:
 146              		.loc 1 94 0
 147 0058 2369     		ldr	r3, [r4, #16]
 148 005a 9B04     		lsls	r3, r3, #18
 149 005c F8D4     		bmi	.L7
 150              		.loc 1 95 0
 151 005e 0248     		ldr	r0, .L9
 152 0060 FFF7FEFF 		bl	TestThread
 153              	.LVL11:
 154 0064 F4E7     		b	.L7
 155              	.L10:
 156 0066 00BF     		.align	2
 157              	.L9:
 158 0068 00000000 		.word	SD6
 159 006c 00000000 		.word	Thread1
 160 0070 00000000 		.word	.LANCHOR0
 161 0074 00000000 		.word	lwip_thread
 162 0078 00000000 		.word	wa_lwip_thread
 163 007c 00000000 		.word	wa_http_server
 164 0080 00000000 		.word	http_server
 165              		.cfi_endproc
 166              	.LFE118:
 167              		.size	main, .-main
 168 0084 AFF30080 		.section	.bss.waThread1,"aw",%nobits
 168      AFF30080 
ARM GAS  /var/folders/5n/p_75w94d66l9ssrldxqdhh700000gn/T//ccMCLwZc.s 			page 4


 168      AFF30080 
 169              		.align	3
 170              		.set	.LANCHOR0,. + 0
 171              		.type	waThread1, %object
 172              		.size	waThread1, 304
 173              	waThread1:
 174 0000 00000000 		.space	304
 174      00000000 
 174      00000000 
 174      00000000 
 174      00000000 
 175              		.section	.rodata.str1.4,"aMS",%progbits,1
 176              		.align	2
 177              	.LC0:
 178 0000 626C696E 		.ascii	"blinker\000"
 178      6B657200 
 179              		.text
 180              	.Letext0:
 181              		.file 2 "/usr/local/cross/lib/gcc/arm-none-eabi/4.7.2/include/stddef.h"
 182              		.file 3 "/usr/local/cross/lib/gcc/arm-none-eabi/4.7.2/../../../../arm-none-eabi/include/stdint.h"
 183              		.file 4 "../../os/ports/GCC/ARMCMx/chtypes.h"
 184              		.file 5 "../../os/kernel/include/chlists.h"
 185              		.file 6 "../../os/kernel/include/chthreads.h"
 186              		.file 7 "../../os/ports/GCC/ARMCMx/chcore_v7m.h"
 187              		.file 8 "../../os/kernel/include/chschd.h"
 188              		.file 9 "../../os/kernel/include/chmtx.h"
 189              		.file 10 "../../os/kernel/include/chevents.h"
 190              		.file 11 "../../os/kernel/include/chqueues.h"
 191              		.file 12 "../../os/kernel/include/chioch.h"
 192              		.file 13 "../../os/hal/platforms/STM32F4xx/stm32f4xx.h"
 193              		.file 14 "../../os/hal/platforms/STM32/GPIOv2/pal_lld.h"
 194              		.file 15 "../../os/hal/include/serial.h"
 195              		.file 16 "../../os/hal/platforms/STM32/serial_lld.h"
 196              		.file 17 "../../os/ports/common/ARMCMx/CMSIS/include/core_cm4.h"
 197              		.file 18 "../../os/various/lwip_bindings/lwipthread.h"
 198              		.file 19 "web/web.h"
 199              		.file 20 "../../os/hal/include/hal.h"
 200              		.file 21 "../../os/kernel/include/chsys.h"
 201              		.file 22 "../../test/test.h"