ARM GAS  /var/folders/5n/p_75w94d66l9ssrldxqdhh700000gn/T//ccMCLwZc.s 			page 1


   1              		.syntax unified
   2              		.cpu cortex-m4
   3              		.fpu softvfp
   4              		.eabi_attribute 20, 1
   5              		.eabi_attribute 21, 1
   6              		.eabi_attribute 23, 3
   7              		.eabi_attribute 24, 1
   8              		.eabi_attribute 25, 1
   9              		.eabi_attribute 26, 1
  10              		.eabi_attribute 30, 2
  11              		.eabi_attribute 34, 1
  12              		.eabi_attribute 18, 4
  13              		.thumb
  14              		.file	"main.c"
  15              		.text
  16              	.Ltext0:
  17              		.cfi_sections	.debug_frame
  18              		.section	.text.Thread1,"ax",%progbits
  19              		.align	2
  20              		.p2align 4,,15
  21              		.thumb
  22              		.thumb_func
  23              		.type	Thread1, %function
  24              	Thread1:
  25              	.LFB117:
  26              		.file 1 "main.c"
  27              		.loc 1 40 0
  28              		.cfi_startproc
  29              		@ args = 0, pretend = 0, frame = 0
  30              		@ frame_needed = 0, uses_anonymous_args = 0
  31              	.LVL0:
  32              		.loc 1 43 0
  33 0000 0A4B     		ldr	r3, .L4
  34 0002 0B4A     		ldr	r2, .L4+4
  35 0004 DB69     		ldr	r3, [r3, #28]
  36              		.loc 1 40 0
  37 0006 70B5     		push	{r4, r5, r6, lr}
  38              	.LCFI0:
  39              		.cfi_def_cfa_offset 16
  40              		.cfi_offset 4, -16
  41              		.cfi_offset 5, -12
  42              		.cfi_offset 6, -8
  43              		.cfi_offset 14, -4
  44              		.loc 1 45 0
  45 0008 4FF4A054 		mov	r4, #5120
  46 000c 4025     		movs	r5, #64
  47              		.loc 1 43 0
  48 000e 9A61     		str	r2, [r3, #24]
  49              		.loc 1 45 0
  50 0010 C4F20204 		movt	r4, 16386
  51 0014 2E46     		mov	r6, r5	@ movhi
  52              	.LVL1:
  53              	.L2:
  54              		.loc 1 45 0 is_stmt 0 discriminator 1
  55 0016 6683     		strh	r6, [r4, #26]	@ movhi
  56              		.loc 1 46 0 is_stmt 1 discriminator 1
  57 0018 4FF4FA70 		mov	r0, #500
ARM GAS  /var/folders/5n/p_75w94d66l9ssrldxqdhh700000gn/T//ccMCLwZc.s 			page 2


  58 001c FFF7FEFF 		bl	chThdSleep
  59              	.LVL2:
  60              		.loc 1 47 0 discriminator 1
  61 0020 2583     		strh	r5, [r4, #24]	@ movhi
  62              		.loc 1 48 0 discriminator 1
  63 0022 4FF4FA70 		mov	r0, #500
  64 0026 FFF7FEFF 		bl	chThdSleep
  65              	.LVL3:
  66 002a F4E7     		b	.L2
  67              	.L5:
  68              		.align	2
  69              	.L4:
  70 002c 00000000 		.word	rlist
  71 0030 00000000 		.word	.LC0
  72              		.cfi_endproc
  73              	.LFE117:
  74              		.size	Thread1, .-Thread1
  75 0034 AFF30080 		.section	.text.startup.main,"ax",%progbits
  75      AFF30080 
  75      AFF30080 
  76              		.align	2
  77              		.p2align 4,,15
  78              		.global	main
  79              		.thumb
  80              		.thumb_func
  81              		.type	main, %function
  82              	main:
  83              	.LFB118:
  84              		.loc 1 55 0
  85              		.cfi_startproc
  86              		@ args = 0, pretend = 0, frame = 0
  87              		@ frame_needed = 0, uses_anonymous_args = 0
  88 0000 10B5     		push	{r4, lr}
  89              	.LCFI1:
  90              		.cfi_def_cfa_offset 8
  91              		.cfi_offset 4, -8
  92              		.cfi_offset 14, -4
  93              		.loc 1 75 0
  94 0002 0024     		movs	r4, #0
  95              		.loc 1 55 0
  96 0004 82B0     		sub	sp, sp, #8
  97              	.LCFI2:
  98              		.cfi_def_cfa_offset 16
  99              		.loc 1 64 0
 100 0006 FFF7FEFF 		bl	halInit
 101              	.LVL4:
 102              		.loc 1 65 0
 103 000a FFF7FEFF 		bl	chSysInit
 104              	.LVL5:
 105              		.loc 1 70 0
 106 000e 2146     		mov	r1, r4
 107 0010 1548     		ldr	r0, .L9
 108 0012 FFF7FEFF 		bl	sdStart
 109              	.LVL6:
 110              		.loc 1 75 0
 111 0016 4FF49871 		mov	r1, #304
 112 001a 4022     		movs	r2, #64
ARM GAS  /var/folders/5n/p_75w94d66l9ssrldxqdhh700000gn/T//ccMCLwZc.s 			page 3


 113 001c 134B     		ldr	r3, .L9+4
 114 001e 0094     		str	r4, [sp, #0]
 115 0020 1348     		ldr	r0, .L9+8
 116 0022 FFF7FEFF 		bl	chThdCreateStatic
 117              	.LVL7:
 118              		.loc 1 80 0
 119 0026 4FF40071 		mov	r1, #512
 120 002a 4122     		movs	r2, #65
 121 002c 114B     		ldr	r3, .L9+12
 122 002e 0094     		str	r4, [sp, #0]
 123 0030 1148     		ldr	r0, .L9+16
 124 0032 FFF7FEFF 		bl	chThdCreateStatic
 125              	.LVL8:
 126              		.loc 1 86 0
 127 0036 0094     		str	r4, [sp, #0]
 128 0038 1048     		ldr	r0, .L9+20
 129 003a 114B     		ldr	r3, .L9+24
 130 003c 4FF49661 		mov	r1, #1200
 131 0040 4122     		movs	r2, #65
 132              		.loc 1 94 0
 133 0042 4FF40064 		mov	r4, #2048
 134              		.loc 1 86 0
 135 0046 FFF7FEFF 		bl	chThdCreateStatic
 136              	.LVL9:
 137              		.loc 1 94 0
 138 004a C4F20204 		movt	r4, 16386
 139 004e 03E0     		b	.L8
 140              	.L7:
 141              		.loc 1 96 0
 142 0050 4FF4FA70 		mov	r0, #500
 143 0054 FFF7FEFF 		bl	chThdSleep
 144              	.LVL10:
 145              	.L8:
 146              		.loc 1 94 0
 147 0058 2369     		ldr	r3, [r4, #16]
 148 005a 9B04     		lsls	r3, r3, #18
 149 005c F8D4     		bmi	.L7
 150              		.loc 1 95 0
 151 005e 0248     		ldr	r0, .L9
 152 0060 FFF7FEFF 		bl	TestThread
 153              	.LVL11:
 154 0064 F4E7     		b	.L7
 155              	.L10:
 156 0066 00BF     		.align	2
 157              	.L9:
 158 0068 00000000 		.word	SD6
 159 006c 00000000 		.word	Thread1
 160 0070 00000000 		.word	.LANCHOR0
 161 0074 00000000 		.word	lwip_thread
 162 0078 00000000 		.word	wa_lwip_thread
 163 007c 00000000 		.word	wa_http_server
 164 0080 00000000 		.word	http_server
 165              		.cfi_endproc
 166              	.LFE118:
 167              		.size	main, .-main
 168 0084 AFF30080 		.section	.bss.waThread1,"aw",%nobits
 168      AFF30080 
ARM GAS  /var/folders/5n/p_75w94d66l9ssrldxqdhh700000gn/T//ccMCLwZc.s 			page 4


 168      AFF30080 
 169              		.align	3
 170              		.set	.LANCHOR0,. + 0
 171              		.type	waThread1, %object
 172              		.size	waThread1, 304
 173              	waThread1:
 174 0000 00000000 		.space	304
 174      00000000 
 174      00000000 
 174      00000000 
 174      00000000 
 175              		.section	.rodata.str1.4,"aMS",%progbits,1
 176              		.align	2
 177              	.LC0:
 178 0000 626C696E 		.ascii	"blinker\000"
 178      6B657200 
 179              		.text
 180              	.Letext0:
 181              		.file 2 "/usr/local/cross/lib/gcc/arm-none-eabi/4.7.2/include/stddef.h"
 182              		.file 3 "/usr/local/cross/lib/gcc/arm-none-eabi/4.7.2/../../../../arm-none-eabi/include/stdint.h"
 183              		.file 4 "../../os/ports/GCC/ARMCMx/chtypes.h"
 184              		.file 5 "../../os/kernel/include/chlists.h"
 185              		.file 6 "../../os/kernel/include/chthreads.h"
 186              		.file 7 "../../os/ports/GCC/ARMCMx/chcore_v7m.h"
 187              		.file 8 "../../os/kernel/include/chschd.h"
 188              		.file 9 "../../os/kernel/include/chmtx.h"
 189              		.file 10 "../../os/kernel/include/chevents.h"
 190              		.file 11 "../../os/kernel/include/chqueues.h"
 191              		.file 12 "../../os/kernel/include/chioch.h"
 192              		.file 13 "../../os/hal/platforms/STM32F4xx/stm32f4xx.h"
 193              		.file 14 "../../os/hal/platforms/STM32/GPIOv2/pal_lld.h"
 194              		.file 15 "../../os/hal/include/serial.h"
 195              		.file 16 "../../os/hal/platforms/STM32/serial_lld.h"
 196              		.file 17 "../../os/ports/common/ARMCMx/CMSIS/include/core_cm4.h"
 197              		.file 18 "../../os/various/lwip_bindings/lwipthread.h"
 198              		.file 19 "web/web.h"
 199              		.file 20 "../../os/hal/include/hal.h"
 200              		.file 21 "../../os/kernel/include/chsys.h"
 201              		.file 22 "../../test/test.h"
 202              		.section	.debug_info,"",%progbits
 203              	.Ldebug_info0:
 204 0000 A20C0000 		.4byte	0xca2
 205 0004 0200     		.2byte	0x2
 206 0006 00000000 		.4byte	.Ldebug_abbrev0
 207 000a 04       		.byte	0x4
 208 000b 01       		.uleb128 0x1
 209 000c 9E020000 		.4byte	.LASF140
 210 0010 01       		.byte	0x1
 211 0011 AA020000 		.4byte	.LASF141
 212 0015 6E030000 		.4byte	.LASF142
 213 0019 00000000 		.4byte	.Ldebug_ranges0+0
 214 001d 00000000 		.4byte	0
 215 0021 00000000 		.4byte	0
 216 0025 00000000 		.4byte	.Ldebug_line0
 217 0029 02       		.uleb128 0x2
 218 002a 04       		.byte	0x4
 219 002b 05       		.byte	0x5
ARM GAS  /var/folders/5n/p_75w94d66l9ssrldxqdhh700000gn/T//ccMCLwZc.s 			page 5


 220 002c 696E7400 		.ascii	"int\000"
 221 0030 03       		.uleb128 0x3
 222 0031 11000000 		.4byte	.LASF2
 223 0035 02       		.byte	0x2
 224 0036 D5       		.byte	0xd5
 225 0037 3B000000 		.4byte	0x3b
 226 003b 04       		.uleb128 0x4
 227 003c 04       		.byte	0x4
 228 003d 07       		.byte	0x7
 229 003e 74010000 		.4byte	.LASF0
 230 0042 04       		.uleb128 0x4
 231 0043 01       		.byte	0x1
 232 0044 06       		.byte	0x6
 233 0045 B4000000 		.4byte	.LASF1
 234 0049 03       		.uleb128 0x3
 235 004a 0F050000 		.4byte	.LASF3
 236 004e 03       		.byte	0x3
 237 004f 2A       		.byte	0x2a
 238 0050 54000000 		.4byte	0x54
 239 0054 04       		.uleb128 0x4
 240 0055 01       		.byte	0x1
 241 0056 08       		.byte	0x8
 242 0057 5A030000 		.4byte	.LASF4
 243 005b 04       		.uleb128 0x4
 244 005c 02       		.byte	0x2
 245 005d 05       		.byte	0x5
 246 005e D5030000 		.4byte	.LASF5
 247 0062 03       		.uleb128 0x3
 248 0063 81010000 		.4byte	.LASF6
 249 0067 03       		.byte	0x3
 250 0068 36       		.byte	0x36
 251 0069 6D000000 		.4byte	0x6d
 252 006d 04       		.uleb128 0x4
 253 006e 02       		.byte	0x2
 254 006f 07       		.byte	0x7
 255 0070 CC010000 		.4byte	.LASF7
 256 0074 03       		.uleb128 0x3
 257 0075 52030000 		.4byte	.LASF8
 258 0079 03       		.byte	0x3
 259 007a 4F       		.byte	0x4f
 260 007b 7F000000 		.4byte	0x7f
 261 007f 04       		.uleb128 0x4
 262 0080 04       		.byte	0x4
 263 0081 05       		.byte	0x5
 264 0082 F1000000 		.4byte	.LASF9
 265 0086 03       		.uleb128 0x3
 266 0087 D8040000 		.4byte	.LASF10
 267 008b 03       		.byte	0x3
 268 008c 50       		.byte	0x50
 269 008d 91000000 		.4byte	0x91
 270 0091 04       		.uleb128 0x4
 271 0092 04       		.byte	0x4
 272 0093 07       		.byte	0x7
 273 0094 63040000 		.4byte	.LASF11
 274 0098 04       		.uleb128 0x4
 275 0099 08       		.byte	0x8
 276 009a 05       		.byte	0x5
ARM GAS  /var/folders/5n/p_75w94d66l9ssrldxqdhh700000gn/T//ccMCLwZc.s 			page 6


 277 009b A6000000 		.4byte	.LASF12
 278 009f 03       		.uleb128 0x3
 279 00a0 1F000000 		.4byte	.LASF13
 280 00a4 03       		.byte	0x3
 281 00a5 78       		.byte	0x78
 282 00a6 AA000000 		.4byte	0xaa
 283 00aa 04       		.uleb128 0x4
 284 00ab 08       		.byte	0x8
 285 00ac 07       		.byte	0x7
 286 00ad 5C000000 		.4byte	.LASF14
 287 00b1 03       		.uleb128 0x3
 288 00b2 4E000000 		.4byte	.LASF15
 289 00b6 03       		.byte	0x3
 290 00b7 A6       		.byte	0xa6
 291 00b8 3B000000 		.4byte	0x3b
 292 00bc 03       		.uleb128 0x3
 293 00bd DC000000 		.4byte	.LASF16
 294 00c1 04       		.byte	0x4
 295 00c2 2E       		.byte	0x2e
 296 00c3 74000000 		.4byte	0x74
 297 00c7 03       		.uleb128 0x3
 298 00c8 01020000 		.4byte	.LASF17
 299 00cc 04       		.byte	0x4
 300 00cd 2F       		.byte	0x2f
 301 00ce 49000000 		.4byte	0x49
 302 00d2 03       		.uleb128 0x3
 303 00d3 FA000000 		.4byte	.LASF18
 304 00d7 04       		.byte	0x4
 305 00d8 30       		.byte	0x30
 306 00d9 49000000 		.4byte	0x49
 307 00dd 03       		.uleb128 0x3
 308 00de ED020000 		.4byte	.LASF19
 309 00e2 04       		.byte	0x4
 310 00e3 31       		.byte	0x31
 311 00e4 49000000 		.4byte	0x49
 312 00e8 03       		.uleb128 0x3
 313 00e9 38030000 		.4byte	.LASF20
 314 00ed 04       		.byte	0x4
 315 00ee 32       		.byte	0x32
 316 00ef 86000000 		.4byte	0x86
 317 00f3 03       		.uleb128 0x3
 318 00f4 DF010000 		.4byte	.LASF21
 319 00f8 04       		.byte	0x4
 320 00f9 33       		.byte	0x33
 321 00fa 74000000 		.4byte	0x74
 322 00fe 03       		.uleb128 0x3
 323 00ff 15020000 		.4byte	.LASF22
 324 0103 04       		.byte	0x4
 325 0104 35       		.byte	0x35
 326 0105 86000000 		.4byte	0x86
 327 0109 03       		.uleb128 0x3
 328 010a 98040000 		.4byte	.LASF23
 329 010e 04       		.byte	0x4
 330 010f 36       		.byte	0x36
 331 0110 86000000 		.4byte	0x86
 332 0114 03       		.uleb128 0x3
 333 0115 68010000 		.4byte	.LASF24
ARM GAS  /var/folders/5n/p_75w94d66l9ssrldxqdhh700000gn/T//ccMCLwZc.s 			page 7


 334 0119 04       		.byte	0x4
 335 011a 37       		.byte	0x37
 336 011b 74000000 		.4byte	0x74
 337 011f 03       		.uleb128 0x3
 338 0120 14040000 		.4byte	.LASF25
 339 0124 05       		.byte	0x5
 340 0125 2A       		.byte	0x2a
 341 0126 2A010000 		.4byte	0x12a
 342 012a 05       		.uleb128 0x5
 343 012b 14040000 		.4byte	.LASF25
 344 012f 48       		.byte	0x48
 345 0130 06       		.byte	0x6
 346 0131 5E       		.byte	0x5e
 347 0132 41020000 		.4byte	0x241
 348 0136 06       		.uleb128 0x6
 349 0137 F5030000 		.4byte	.LASF26
 350 013b 06       		.byte	0x6
 351 013c 5F       		.byte	0x5f
 352 013d 66020000 		.4byte	0x266
 353 0141 02       		.byte	0x2
 354 0142 23       		.byte	0x23
 355 0143 00       		.uleb128 0
 356 0144 06       		.uleb128 0x6
 357 0145 27030000 		.4byte	.LASF27
 358 0149 06       		.byte	0x6
 359 014a 61       		.byte	0x61
 360 014b 66020000 		.4byte	0x266
 361 014f 02       		.byte	0x2
 362 0150 23       		.byte	0x23
 363 0151 04       		.uleb128 0x4
 364 0152 06       		.uleb128 0x6
 365 0153 8F000000 		.4byte	.LASF28
 366 0157 06       		.byte	0x6
 367 0158 63       		.byte	0x63
 368 0159 E8000000 		.4byte	0xe8
 369 015d 02       		.byte	0x2
 370 015e 23       		.byte	0x23
 371 015f 08       		.uleb128 0x8
 372 0160 06       		.uleb128 0x6
 373 0161 71050000 		.4byte	.LASF29
 374 0165 06       		.byte	0x6
 375 0166 64       		.byte	0x64
 376 0167 3E030000 		.4byte	0x33e
 377 016b 02       		.byte	0x2
 378 016c 23       		.byte	0x23
 379 016d 0C       		.uleb128 0xc
 380 016e 06       		.uleb128 0x6
 381 016f 22010000 		.4byte	.LASF30
 382 0173 06       		.byte	0x6
 383 0174 66       		.byte	0x66
 384 0175 66020000 		.4byte	0x266
 385 0179 02       		.byte	0x2
 386 017a 23       		.byte	0x23
 387 017b 10       		.uleb128 0x10
 388 017c 06       		.uleb128 0x6
 389 017d 83020000 		.4byte	.LASF31
 390 0181 06       		.byte	0x6
ARM GAS  /var/folders/5n/p_75w94d66l9ssrldxqdhh700000gn/T//ccMCLwZc.s 			page 8


 391 0182 67       		.byte	0x67
 392 0183 66020000 		.4byte	0x266
 393 0187 02       		.byte	0x2
 394 0188 23       		.byte	0x23
 395 0189 14       		.uleb128 0x14
 396 018a 06       		.uleb128 0x6
 397 018b E7040000 		.4byte	.LASF32
 398 018f 06       		.byte	0x6
 399 0190 6E       		.byte	0x6e
 400 0191 D3040000 		.4byte	0x4d3
 401 0195 02       		.byte	0x2
 402 0196 23       		.byte	0x23
 403 0197 18       		.uleb128 0x18
 404 0198 06       		.uleb128 0x6
 405 0199 DF030000 		.4byte	.LASF33
 406 019d 06       		.byte	0x6
 407 019e 79       		.byte	0x79
 408 019f D2000000 		.4byte	0xd2
 409 01a3 02       		.byte	0x2
 410 01a4 23       		.byte	0x23
 411 01a5 1C       		.uleb128 0x1c
 412 01a6 06       		.uleb128 0x6
 413 01a7 FC030000 		.4byte	.LASF34
 414 01ab 06       		.byte	0x6
 415 01ac 7D       		.byte	0x7d
 416 01ad C7000000 		.4byte	0xc7
 417 01b1 02       		.byte	0x2
 418 01b2 23       		.byte	0x23
 419 01b3 1D       		.uleb128 0x1d
 420 01b4 06       		.uleb128 0x6
 421 01b5 03010000 		.4byte	.LASF35
 422 01b9 06       		.byte	0x6
 423 01ba 82       		.byte	0x82
 424 01bb DD000000 		.4byte	0xdd
 425 01bf 02       		.byte	0x2
 426 01c0 23       		.byte	0x23
 427 01c1 1E       		.uleb128 0x1e
 428 01c2 06       		.uleb128 0x6
 429 01c3 1B010000 		.4byte	.LASF36
 430 01c7 06       		.byte	0x6
 431 01c8 89       		.byte	0x89
 432 01c9 6D030000 		.4byte	0x36d
 433 01cd 02       		.byte	0x2
 434 01ce 23       		.byte	0x23
 435 01cf 20       		.uleb128 0x20
 436 01d0 07       		.uleb128 0x7
 437 01d1 705F7500 		.ascii	"p_u\000"
 438 01d5 06       		.byte	0x6
 439 01d6 AE       		.byte	0xae
 440 01d7 9E040000 		.4byte	0x49e
 441 01db 02       		.byte	0x2
 442 01dc 23       		.byte	0x23
 443 01dd 24       		.uleb128 0x24
 444 01de 06       		.uleb128 0x6
 445 01df 77050000 		.4byte	.LASF37
 446 01e3 06       		.byte	0x6
 447 01e4 B3       		.byte	0xb3
ARM GAS  /var/folders/5n/p_75w94d66l9ssrldxqdhh700000gn/T//ccMCLwZc.s 			page 9


 448 01e5 8E020000 		.4byte	0x28e
 449 01e9 02       		.byte	0x2
 450 01ea 23       		.byte	0x23
 451 01eb 28       		.uleb128 0x28
 452 01ec 06       		.uleb128 0x6
 453 01ed A1010000 		.4byte	.LASF38
 454 01f1 06       		.byte	0x6
 455 01f2 B9       		.byte	0xb9
 456 01f3 6C020000 		.4byte	0x26c
 457 01f7 02       		.byte	0x2
 458 01f8 23       		.byte	0x23
 459 01f9 2C       		.uleb128 0x2c
 460 01fa 06       		.uleb128 0x6
 461 01fb 68030000 		.4byte	.LASF39
 462 01ff 06       		.byte	0x6
 463 0200 BD       		.byte	0xbd
 464 0201 F3000000 		.4byte	0xf3
 465 0205 02       		.byte	0x2
 466 0206 23       		.byte	0x23
 467 0207 34       		.uleb128 0x34
 468 0208 06       		.uleb128 0x6
 469 0209 1B040000 		.4byte	.LASF40
 470 020d 06       		.byte	0x6
 471 020e C3       		.byte	0xc3
 472 020f FE000000 		.4byte	0xfe
 473 0213 02       		.byte	0x2
 474 0214 23       		.byte	0x23
 475 0215 38       		.uleb128 0x38
 476 0216 06       		.uleb128 0x6
 477 0217 CB030000 		.4byte	.LASF41
 478 021b 06       		.byte	0x6
 479 021c CA       		.byte	0xca
 480 021d E5040000 		.4byte	0x4e5
 481 0221 02       		.byte	0x2
 482 0222 23       		.byte	0x23
 483 0223 3C       		.uleb128 0x3c
 484 0224 06       		.uleb128 0x6
 485 0225 A2040000 		.4byte	.LASF42
 486 0229 06       		.byte	0x6
 487 022a CE       		.byte	0xce
 488 022b E8000000 		.4byte	0xe8
 489 022f 02       		.byte	0x2
 490 0230 23       		.byte	0x23
 491 0231 40       		.uleb128 0x40
 492 0232 06       		.uleb128 0x6
 493 0233 D4000000 		.4byte	.LASF43
 494 0237 06       		.byte	0x6
 495 0238 D4       		.byte	0xd4
 496 0239 A4020000 		.4byte	0x2a4
 497 023d 02       		.byte	0x2
 498 023e 23       		.byte	0x23
 499 023f 44       		.uleb128 0x44
 500 0240 00       		.byte	0
 501 0241 08       		.uleb128 0x8
 502 0242 08       		.byte	0x8
 503 0243 05       		.byte	0x5
 504 0244 61       		.byte	0x61
ARM GAS  /var/folders/5n/p_75w94d66l9ssrldxqdhh700000gn/T//ccMCLwZc.s 			page 10


 505 0245 66020000 		.4byte	0x266
 506 0249 06       		.uleb128 0x6
 507 024a F5030000 		.4byte	.LASF26
 508 024e 05       		.byte	0x5
 509 024f 62       		.byte	0x62
 510 0250 66020000 		.4byte	0x266
 511 0254 02       		.byte	0x2
 512 0255 23       		.byte	0x23
 513 0256 00       		.uleb128 0
 514 0257 06       		.uleb128 0x6
 515 0258 27030000 		.4byte	.LASF27
 516 025c 05       		.byte	0x5
 517 025d 64       		.byte	0x64
 518 025e 66020000 		.4byte	0x266
 519 0262 02       		.byte	0x2
 520 0263 23       		.byte	0x23
 521 0264 04       		.uleb128 0x4
 522 0265 00       		.byte	0
 523 0266 09       		.uleb128 0x9
 524 0267 04       		.byte	0x4
 525 0268 1F010000 		.4byte	0x11f
 526 026c 03       		.uleb128 0x3
 527 026d 91020000 		.4byte	.LASF44
 528 0271 05       		.byte	0x5
 529 0272 66       		.byte	0x66
 530 0273 41020000 		.4byte	0x241
 531 0277 08       		.uleb128 0x8
 532 0278 04       		.byte	0x4
 533 0279 05       		.byte	0x5
 534 027a 6B       		.byte	0x6b
 535 027b 8E020000 		.4byte	0x28e
 536 027f 06       		.uleb128 0x6
 537 0280 F5030000 		.4byte	.LASF26
 538 0284 05       		.byte	0x5
 539 0285 6D       		.byte	0x6d
 540 0286 66020000 		.4byte	0x266
 541 028a 02       		.byte	0x2
 542 028b 23       		.byte	0x23
 543 028c 00       		.uleb128 0
 544 028d 00       		.byte	0
 545 028e 03       		.uleb128 0x3
 546 028f 09020000 		.4byte	.LASF45
 547 0293 05       		.byte	0x5
 548 0294 70       		.byte	0x70
 549 0295 77020000 		.4byte	0x277
 550 0299 03       		.uleb128 0x3
 551 029a 53010000 		.4byte	.LASF46
 552 029e 07       		.byte	0x7
 553 029f D7       		.byte	0xd7
 554 02a0 A4020000 		.4byte	0x2a4
 555 02a4 0A       		.uleb128 0xa
 556 02a5 04       		.byte	0x4
 557 02a6 03       		.uleb128 0x3
 558 02a7 43020000 		.4byte	.LASF47
 559 02ab 07       		.byte	0x7
 560 02ac DD       		.byte	0xdd
 561 02ad 9F000000 		.4byte	0x9f
ARM GAS  /var/folders/5n/p_75w94d66l9ssrldxqdhh700000gn/T//ccMCLwZc.s 			page 11


 562 02b1 05       		.uleb128 0x5
 563 02b2 C8040000 		.4byte	.LASF48
 564 02b6 24       		.byte	0x24
 565 02b7 07       		.byte	0x7
 566 02b8 FE       		.byte	0xfe
 567 02b9 3E030000 		.4byte	0x33e
 568 02bd 0B       		.uleb128 0xb
 569 02be 723400   		.ascii	"r4\000"
 570 02c1 07       		.byte	0x7
 571 02c2 1101     		.2byte	0x111
 572 02c4 99020000 		.4byte	0x299
 573 02c8 02       		.byte	0x2
 574 02c9 23       		.byte	0x23
 575 02ca 00       		.uleb128 0
 576 02cb 0B       		.uleb128 0xb
 577 02cc 723500   		.ascii	"r5\000"
 578 02cf 07       		.byte	0x7
 579 02d0 1201     		.2byte	0x112
 580 02d2 99020000 		.4byte	0x299
 581 02d6 02       		.byte	0x2
 582 02d7 23       		.byte	0x23
 583 02d8 04       		.uleb128 0x4
 584 02d9 0B       		.uleb128 0xb
 585 02da 723600   		.ascii	"r6\000"
 586 02dd 07       		.byte	0x7
 587 02de 1301     		.2byte	0x113
 588 02e0 99020000 		.4byte	0x299
 589 02e4 02       		.byte	0x2
 590 02e5 23       		.byte	0x23
 591 02e6 08       		.uleb128 0x8
 592 02e7 0B       		.uleb128 0xb
 593 02e8 723700   		.ascii	"r7\000"
 594 02eb 07       		.byte	0x7
 595 02ec 1401     		.2byte	0x114
 596 02ee 99020000 		.4byte	0x299
 597 02f2 02       		.byte	0x2
 598 02f3 23       		.byte	0x23
 599 02f4 0C       		.uleb128 0xc
 600 02f5 0B       		.uleb128 0xb
 601 02f6 723800   		.ascii	"r8\000"
 602 02f9 07       		.byte	0x7
 603 02fa 1501     		.2byte	0x115
 604 02fc 99020000 		.4byte	0x299
 605 0300 02       		.byte	0x2
 606 0301 23       		.byte	0x23
 607 0302 10       		.uleb128 0x10
 608 0303 0B       		.uleb128 0xb
 609 0304 723900   		.ascii	"r9\000"
 610 0307 07       		.byte	0x7
 611 0308 1601     		.2byte	0x116
 612 030a 99020000 		.4byte	0x299
 613 030e 02       		.byte	0x2
 614 030f 23       		.byte	0x23
 615 0310 14       		.uleb128 0x14
 616 0311 0B       		.uleb128 0xb
 617 0312 72313000 		.ascii	"r10\000"
 618 0316 07       		.byte	0x7
ARM GAS  /var/folders/5n/p_75w94d66l9ssrldxqdhh700000gn/T//ccMCLwZc.s 			page 12


 619 0317 1701     		.2byte	0x117
 620 0319 99020000 		.4byte	0x299
 621 031d 02       		.byte	0x2
 622 031e 23       		.byte	0x23
 623 031f 18       		.uleb128 0x18
 624 0320 0B       		.uleb128 0xb
 625 0321 72313100 		.ascii	"r11\000"
 626 0325 07       		.byte	0x7
 627 0326 1801     		.2byte	0x118
 628 0328 99020000 		.4byte	0x299
 629 032c 02       		.byte	0x2
 630 032d 23       		.byte	0x23
 631 032e 1C       		.uleb128 0x1c
 632 032f 0B       		.uleb128 0xb
 633 0330 6C7200   		.ascii	"lr\000"
 634 0333 07       		.byte	0x7
 635 0334 1901     		.2byte	0x119
 636 0336 99020000 		.4byte	0x299
 637 033a 02       		.byte	0x2
 638 033b 23       		.byte	0x23
 639 033c 20       		.uleb128 0x20
 640 033d 00       		.byte	0
 641 033e 0C       		.uleb128 0xc
 642 033f B6040000 		.4byte	.LASF49
 643 0343 04       		.byte	0x4
 644 0344 07       		.byte	0x7
 645 0345 2301     		.2byte	0x123
 646 0347 5B030000 		.4byte	0x35b
 647 034b 0B       		.uleb128 0xb
 648 034c 72313300 		.ascii	"r13\000"
 649 0350 07       		.byte	0x7
 650 0351 2401     		.2byte	0x124
 651 0353 5B030000 		.4byte	0x35b
 652 0357 02       		.byte	0x2
 653 0358 23       		.byte	0x23
 654 0359 00       		.uleb128 0
 655 035a 00       		.byte	0
 656 035b 09       		.uleb128 0x9
 657 035c 04       		.byte	0x4
 658 035d B1020000 		.4byte	0x2b1
 659 0361 0D       		.uleb128 0xd
 660 0362 86000000 		.4byte	0x86
 661 0366 04       		.uleb128 0x4
 662 0367 04       		.byte	0x4
 663 0368 07       		.byte	0x7
 664 0369 6E020000 		.4byte	.LASF50
 665 036d 0D       		.uleb128 0xd
 666 036e 09010000 		.4byte	0x109
 667 0372 08       		.uleb128 0x8
 668 0373 20       		.byte	0x20
 669 0374 08       		.byte	0x8
 670 0375 5E       		.byte	0x5e
 671 0376 DD030000 		.4byte	0x3dd
 672 037a 06       		.uleb128 0x6
 673 037b 44040000 		.4byte	.LASF51
 674 037f 08       		.byte	0x8
 675 0380 5F       		.byte	0x5f
ARM GAS  /var/folders/5n/p_75w94d66l9ssrldxqdhh700000gn/T//ccMCLwZc.s 			page 13


 676 0381 6C020000 		.4byte	0x26c
 677 0385 02       		.byte	0x2
 678 0386 23       		.byte	0x23
 679 0387 00       		.uleb128 0
 680 0388 06       		.uleb128 0x6
 681 0389 E7030000 		.4byte	.LASF52
 682 038d 08       		.byte	0x8
 683 038e 60       		.byte	0x60
 684 038f E8000000 		.4byte	0xe8
 685 0393 02       		.byte	0x2
 686 0394 23       		.byte	0x23
 687 0395 08       		.uleb128 0x8
 688 0396 06       		.uleb128 0x6
 689 0397 8B020000 		.4byte	.LASF53
 690 039b 08       		.byte	0x8
 691 039c 62       		.byte	0x62
 692 039d 3E030000 		.4byte	0x33e
 693 03a1 02       		.byte	0x2
 694 03a2 23       		.byte	0x23
 695 03a3 0C       		.uleb128 0xc
 696 03a4 06       		.uleb128 0x6
 697 03a5 4B010000 		.4byte	.LASF54
 698 03a9 08       		.byte	0x8
 699 03aa 65       		.byte	0x65
 700 03ab 66020000 		.4byte	0x266
 701 03af 02       		.byte	0x2
 702 03b0 23       		.byte	0x23
 703 03b1 10       		.uleb128 0x10
 704 03b2 06       		.uleb128 0x6
 705 03b3 B1020000 		.4byte	.LASF55
 706 03b7 08       		.byte	0x8
 707 03b8 66       		.byte	0x66
 708 03b9 66020000 		.4byte	0x266
 709 03bd 02       		.byte	0x2
 710 03be 23       		.byte	0x23
 711 03bf 14       		.uleb128 0x14
 712 03c0 06       		.uleb128 0x6
 713 03c1 48030000 		.4byte	.LASF56
 714 03c5 08       		.byte	0x8
 715 03c6 6A       		.byte	0x6a
 716 03c7 14010000 		.4byte	0x114
 717 03cb 02       		.byte	0x2
 718 03cc 23       		.byte	0x23
 719 03cd 18       		.uleb128 0x18
 720 03ce 06       		.uleb128 0x6
 721 03cf 75040000 		.4byte	.LASF57
 722 03d3 08       		.byte	0x8
 723 03d4 6C       		.byte	0x6c
 724 03d5 66020000 		.4byte	0x266
 725 03d9 02       		.byte	0x2
 726 03da 23       		.byte	0x23
 727 03db 1C       		.uleb128 0x1c
 728 03dc 00       		.byte	0
 729 03dd 03       		.uleb128 0x3
 730 03de F6040000 		.4byte	.LASF58
 731 03e2 08       		.byte	0x8
 732 03e3 6E       		.byte	0x6e
ARM GAS  /var/folders/5n/p_75w94d66l9ssrldxqdhh700000gn/T//ccMCLwZc.s 			page 14


 733 03e4 72030000 		.4byte	0x372
 734 03e8 05       		.uleb128 0x5
 735 03e9 7D020000 		.4byte	.LASF59
 736 03ed 10       		.byte	0x10
 737 03ee 09       		.byte	0x9
 738 03ef 2C       		.byte	0x2c
 739 03f0 1F040000 		.4byte	0x41f
 740 03f4 06       		.uleb128 0x6
 741 03f5 E3000000 		.4byte	.LASF60
 742 03f9 09       		.byte	0x9
 743 03fa 2D       		.byte	0x2d
 744 03fb 6C020000 		.4byte	0x26c
 745 03ff 02       		.byte	0x2
 746 0400 23       		.byte	0x23
 747 0401 00       		.uleb128 0
 748 0402 06       		.uleb128 0x6
 749 0403 69050000 		.4byte	.LASF61
 750 0407 09       		.byte	0x9
 751 0408 2F       		.byte	0x2f
 752 0409 66020000 		.4byte	0x266
 753 040d 02       		.byte	0x2
 754 040e 23       		.byte	0x23
 755 040f 08       		.uleb128 0x8
 756 0410 06       		.uleb128 0x6
 757 0411 91040000 		.4byte	.LASF62
 758 0415 09       		.byte	0x9
 759 0416 31       		.byte	0x31
 760 0417 1F040000 		.4byte	0x41f
 761 041b 02       		.byte	0x2
 762 041c 23       		.byte	0x23
 763 041d 0C       		.uleb128 0xc
 764 041e 00       		.byte	0
 765 041f 09       		.uleb128 0x9
 766 0420 04       		.byte	0x4
 767 0421 E8030000 		.4byte	0x3e8
 768 0425 03       		.uleb128 0x3
 769 0426 7D020000 		.4byte	.LASF59
 770 042a 09       		.byte	0x9
 771 042b 33       		.byte	0x33
 772 042c E8030000 		.4byte	0x3e8
 773 0430 03       		.uleb128 0x3
 774 0431 1D050000 		.4byte	.LASF63
 775 0435 0A       		.byte	0xa
 776 0436 29       		.byte	0x29
 777 0437 3B040000 		.4byte	0x43b
 778 043b 05       		.uleb128 0x5
 779 043c 1D050000 		.4byte	.LASF63
 780 0440 0C       		.byte	0xc
 781 0441 0A       		.byte	0xa
 782 0442 2E       		.byte	0x2e
 783 0443 72040000 		.4byte	0x472
 784 0447 06       		.uleb128 0x6
 785 0448 04040000 		.4byte	.LASF64
 786 044c 0A       		.byte	0xa
 787 044d 2F       		.byte	0x2f
 788 044e 72040000 		.4byte	0x472
 789 0452 02       		.byte	0x2
ARM GAS  /var/folders/5n/p_75w94d66l9ssrldxqdhh700000gn/T//ccMCLwZc.s 			page 15


 790 0453 23       		.byte	0x23
 791 0454 00       		.uleb128 0
 792 0455 06       		.uleb128 0x6
 793 0456 BF030000 		.4byte	.LASF65
 794 045a 0A       		.byte	0xa
 795 045b 32       		.byte	0x32
 796 045c 66020000 		.4byte	0x266
 797 0460 02       		.byte	0x2
 798 0461 23       		.byte	0x23
 799 0462 04       		.uleb128 0x4
 800 0463 06       		.uleb128 0x6
 801 0464 B9020000 		.4byte	.LASF66
 802 0468 0A       		.byte	0xa
 803 0469 34       		.byte	0x34
 804 046a FE000000 		.4byte	0xfe
 805 046e 02       		.byte	0x2
 806 046f 23       		.byte	0x23
 807 0470 08       		.uleb128 0x8
 808 0471 00       		.byte	0
 809 0472 09       		.uleb128 0x9
 810 0473 04       		.byte	0x4
 811 0474 30040000 		.4byte	0x430
 812 0478 05       		.uleb128 0x5
 813 0479 5C010000 		.4byte	.LASF67
 814 047d 04       		.byte	0x4
 815 047e 0A       		.byte	0xa
 816 047f 3C       		.byte	0x3c
 817 0480 93040000 		.4byte	0x493
 818 0484 06       		.uleb128 0x6
 819 0485 EE040000 		.4byte	.LASF68
 820 0489 0A       		.byte	0xa
 821 048a 3D       		.byte	0x3d
 822 048b 72040000 		.4byte	0x472
 823 048f 02       		.byte	0x2
 824 0490 23       		.byte	0x23
 825 0491 00       		.uleb128 0
 826 0492 00       		.byte	0
 827 0493 03       		.uleb128 0x3
 828 0494 5C010000 		.4byte	.LASF67
 829 0498 0A       		.byte	0xa
 830 0499 40       		.byte	0x40
 831 049a 78040000 		.4byte	0x478
 832 049e 0E       		.uleb128 0xe
 833 049f 04       		.byte	0x4
 834 04a0 06       		.byte	0x6
 835 04a1 90       		.byte	0x90
 836 04a2 D3040000 		.4byte	0x4d3
 837 04a6 0F       		.uleb128 0xf
 838 04a7 18000000 		.4byte	.LASF69
 839 04ab 06       		.byte	0x6
 840 04ac 97       		.byte	0x97
 841 04ad F3000000 		.4byte	0xf3
 842 04b1 0F       		.uleb128 0xf
 843 04b2 79000000 		.4byte	.LASF70
 844 04b6 06       		.byte	0x6
 845 04b7 9E       		.byte	0x9e
 846 04b8 F3000000 		.4byte	0xf3
ARM GAS  /var/folders/5n/p_75w94d66l9ssrldxqdhh700000gn/T//ccMCLwZc.s 			page 16


 847 04bc 0F       		.uleb128 0xf
 848 04bd 2B050000 		.4byte	.LASF71
 849 04c1 06       		.byte	0x6
 850 04c2 A5       		.byte	0xa5
 851 04c3 A4020000 		.4byte	0x2a4
 852 04c7 0F       		.uleb128 0xf
 853 04c8 EE030000 		.4byte	.LASF72
 854 04cc 06       		.byte	0x6
 855 04cd AC       		.byte	0xac
 856 04ce FE000000 		.4byte	0xfe
 857 04d2 00       		.byte	0
 858 04d3 09       		.uleb128 0x9
 859 04d4 04       		.byte	0x4
 860 04d5 D9040000 		.4byte	0x4d9
 861 04d9 10       		.uleb128 0x10
 862 04da DE040000 		.4byte	0x4de
 863 04de 04       		.uleb128 0x4
 864 04df 01       		.byte	0x1
 865 04e0 08       		.byte	0x8
 866 04e1 84040000 		.4byte	.LASF73
 867 04e5 09       		.uleb128 0x9
 868 04e6 04       		.byte	0x4
 869 04e7 25040000 		.4byte	0x425
 870 04eb 03       		.uleb128 0x3
 871 04ec 00000000 		.4byte	.LASF74
 872 04f0 06       		.byte	0x6
 873 04f1 DF       		.byte	0xdf
 874 04f2 F6040000 		.4byte	0x4f6
 875 04f6 09       		.uleb128 0x9
 876 04f7 04       		.byte	0x4
 877 04f8 FC040000 		.4byte	0x4fc
 878 04fc 11       		.uleb128 0x11
 879 04fd 01       		.byte	0x1
 880 04fe F3000000 		.4byte	0xf3
 881 0502 0C050000 		.4byte	0x50c
 882 0506 12       		.uleb128 0x12
 883 0507 A4020000 		.4byte	0x2a4
 884 050b 00       		.byte	0
 885 050c 03       		.uleb128 0x3
 886 050d 36020000 		.4byte	.LASF75
 887 0511 0B       		.byte	0xb
 888 0512 37       		.byte	0x37
 889 0513 17050000 		.4byte	0x517
 890 0517 05       		.uleb128 0x5
 891 0518 36020000 		.4byte	.LASF75
 892 051c 20       		.byte	0x20
 893 051d 0B       		.byte	0xb
 894 051e 45       		.byte	0x45
 895 051f 86050000 		.4byte	0x586
 896 0523 06       		.uleb128 0x6
 897 0524 9C000000 		.4byte	.LASF76
 898 0528 0B       		.byte	0xb
 899 0529 46       		.byte	0x46
 900 052a 6C020000 		.4byte	0x26c
 901 052e 02       		.byte	0x2
 902 052f 23       		.byte	0x23
 903 0530 00       		.uleb128 0
ARM GAS  /var/folders/5n/p_75w94d66l9ssrldxqdhh700000gn/T//ccMCLwZc.s 			page 17


 904 0531 06       		.uleb128 0x6
 905 0532 3A040000 		.4byte	.LASF77
 906 0536 0B       		.byte	0xb
 907 0537 47       		.byte	0x47
 908 0538 30000000 		.4byte	0x30
 909 053c 02       		.byte	0x2
 910 053d 23       		.byte	0x23
 911 053e 08       		.uleb128 0x8
 912 053f 06       		.uleb128 0x6
 913 0540 0A010000 		.4byte	.LASF78
 914 0544 0B       		.byte	0xb
 915 0545 48       		.byte	0x48
 916 0546 A9050000 		.4byte	0x5a9
 917 054a 02       		.byte	0x2
 918 054b 23       		.byte	0x23
 919 054c 0C       		.uleb128 0xc
 920 054d 06       		.uleb128 0x6
 921 054e E1040000 		.4byte	.LASF79
 922 0552 0B       		.byte	0xb
 923 0553 49       		.byte	0x49
 924 0554 A9050000 		.4byte	0x5a9
 925 0558 02       		.byte	0x2
 926 0559 23       		.byte	0x23
 927 055a 10       		.uleb128 0x10
 928 055b 06       		.uleb128 0x6
 929 055c 13010000 		.4byte	.LASF80
 930 0560 0B       		.byte	0xb
 931 0561 4B       		.byte	0x4b
 932 0562 A9050000 		.4byte	0x5a9
 933 0566 02       		.byte	0x2
 934 0567 23       		.byte	0x23
 935 0568 14       		.uleb128 0x14
 936 0569 06       		.uleb128 0x6
 937 056a 40030000 		.4byte	.LASF81
 938 056e 0B       		.byte	0xb
 939 056f 4C       		.byte	0x4c
 940 0570 A9050000 		.4byte	0x5a9
 941 0574 02       		.byte	0x2
 942 0575 23       		.byte	0x23
 943 0576 18       		.uleb128 0x18
 944 0577 06       		.uleb128 0x6
 945 0578 00050000 		.4byte	.LASF82
 946 057c 0B       		.byte	0xb
 947 057d 4D       		.byte	0x4d
 948 057e 86050000 		.4byte	0x586
 949 0582 02       		.byte	0x2
 950 0583 23       		.byte	0x23
 951 0584 1C       		.uleb128 0x1c
 952 0585 00       		.byte	0
 953 0586 03       		.uleb128 0x3
 954 0587 2C020000 		.4byte	.LASF83
 955 058b 0B       		.byte	0xb
 956 058c 3A       		.byte	0x3a
 957 058d 91050000 		.4byte	0x591
 958 0591 09       		.uleb128 0x9
 959 0592 04       		.byte	0x4
 960 0593 97050000 		.4byte	0x597
ARM GAS  /var/folders/5n/p_75w94d66l9ssrldxqdhh700000gn/T//ccMCLwZc.s 			page 18


 961 0597 13       		.uleb128 0x13
 962 0598 01       		.byte	0x1
 963 0599 A3050000 		.4byte	0x5a3
 964 059d 12       		.uleb128 0x12
 965 059e A3050000 		.4byte	0x5a3
 966 05a2 00       		.byte	0
 967 05a3 09       		.uleb128 0x9
 968 05a4 04       		.byte	0x4
 969 05a5 0C050000 		.4byte	0x50c
 970 05a9 09       		.uleb128 0x9
 971 05aa 04       		.byte	0x4
 972 05ab 49000000 		.4byte	0x49
 973 05af 03       		.uleb128 0x3
 974 05b0 21020000 		.4byte	.LASF84
 975 05b4 0B       		.byte	0xb
 976 05b5 76       		.byte	0x76
 977 05b6 0C050000 		.4byte	0x50c
 978 05ba 03       		.uleb128 0x3
 979 05bb 28000000 		.4byte	.LASF85
 980 05bf 0B       		.byte	0xb
 981 05c0 E6       		.byte	0xe6
 982 05c1 0C050000 		.4byte	0x50c
 983 05c5 11       		.uleb128 0x11
 984 05c6 01       		.byte	0x1
 985 05c7 30000000 		.4byte	0x30
 986 05cb DF050000 		.4byte	0x5df
 987 05cf 12       		.uleb128 0x12
 988 05d0 A4020000 		.4byte	0x2a4
 989 05d4 12       		.uleb128 0x12
 990 05d5 DF050000 		.4byte	0x5df
 991 05d9 12       		.uleb128 0x12
 992 05da 30000000 		.4byte	0x30
 993 05de 00       		.byte	0
 994 05df 09       		.uleb128 0x9
 995 05e0 04       		.byte	0x4
 996 05e1 E5050000 		.4byte	0x5e5
 997 05e5 10       		.uleb128 0x10
 998 05e6 49000000 		.4byte	0x49
 999 05ea 09       		.uleb128 0x9
 1000 05eb 04       		.byte	0x4
 1001 05ec C5050000 		.4byte	0x5c5
 1002 05f0 11       		.uleb128 0x11
 1003 05f1 01       		.byte	0x1
 1004 05f2 30000000 		.4byte	0x30
 1005 05f6 0A060000 		.4byte	0x60a
 1006 05fa 12       		.uleb128 0x12
 1007 05fb A4020000 		.4byte	0x2a4
 1008 05ff 12       		.uleb128 0x12
 1009 0600 A9050000 		.4byte	0x5a9
 1010 0604 12       		.uleb128 0x12
 1011 0605 30000000 		.4byte	0x30
 1012 0609 00       		.byte	0
 1013 060a 09       		.uleb128 0x9
 1014 060b 04       		.byte	0x4
 1015 060c F0050000 		.4byte	0x5f0
 1016 0610 11       		.uleb128 0x11
 1017 0611 01       		.byte	0x1
ARM GAS  /var/folders/5n/p_75w94d66l9ssrldxqdhh700000gn/T//ccMCLwZc.s 			page 19


 1018 0612 BC000000 		.4byte	0xbc
 1019 0616 20060000 		.4byte	0x620
 1020 061a 12       		.uleb128 0x12
 1021 061b A4020000 		.4byte	0x2a4
 1022 061f 00       		.byte	0
 1023 0620 09       		.uleb128 0x9
 1024 0621 04       		.byte	0x4
 1025 0622 10060000 		.4byte	0x610
 1026 0626 11       		.uleb128 0x11
 1027 0627 01       		.byte	0x1
 1028 0628 F3000000 		.4byte	0xf3
 1029 062c 40060000 		.4byte	0x640
 1030 0630 12       		.uleb128 0x12
 1031 0631 A4020000 		.4byte	0x2a4
 1032 0635 12       		.uleb128 0x12
 1033 0636 49000000 		.4byte	0x49
 1034 063a 12       		.uleb128 0x12
 1035 063b 09010000 		.4byte	0x109
 1036 063f 00       		.byte	0
 1037 0640 09       		.uleb128 0x9
 1038 0641 04       		.byte	0x4
 1039 0642 26060000 		.4byte	0x626
 1040 0646 11       		.uleb128 0x11
 1041 0647 01       		.byte	0x1
 1042 0648 F3000000 		.4byte	0xf3
 1043 064c 5B060000 		.4byte	0x65b
 1044 0650 12       		.uleb128 0x12
 1045 0651 A4020000 		.4byte	0x2a4
 1046 0655 12       		.uleb128 0x12
 1047 0656 09010000 		.4byte	0x109
 1048 065a 00       		.byte	0
 1049 065b 09       		.uleb128 0x9
 1050 065c 04       		.byte	0x4
 1051 065d 46060000 		.4byte	0x646
 1052 0661 11       		.uleb128 0x11
 1053 0662 01       		.byte	0x1
 1054 0663 30000000 		.4byte	0x30
 1055 0667 80060000 		.4byte	0x680
 1056 066b 12       		.uleb128 0x12
 1057 066c A4020000 		.4byte	0x2a4
 1058 0670 12       		.uleb128 0x12
 1059 0671 DF050000 		.4byte	0x5df
 1060 0675 12       		.uleb128 0x12
 1061 0676 30000000 		.4byte	0x30
 1062 067a 12       		.uleb128 0x12
 1063 067b 09010000 		.4byte	0x109
 1064 067f 00       		.byte	0
 1065 0680 09       		.uleb128 0x9
 1066 0681 04       		.byte	0x4
 1067 0682 61060000 		.4byte	0x661
 1068 0686 11       		.uleb128 0x11
 1069 0687 01       		.byte	0x1
 1070 0688 30000000 		.4byte	0x30
 1071 068c A5060000 		.4byte	0x6a5
 1072 0690 12       		.uleb128 0x12
 1073 0691 A4020000 		.4byte	0x2a4
 1074 0695 12       		.uleb128 0x12
ARM GAS  /var/folders/5n/p_75w94d66l9ssrldxqdhh700000gn/T//ccMCLwZc.s 			page 20


 1075 0696 A9050000 		.4byte	0x5a9
 1076 069a 12       		.uleb128 0x12
 1077 069b 30000000 		.4byte	0x30
 1078 069f 12       		.uleb128 0x12
 1079 06a0 09010000 		.4byte	0x109
 1080 06a4 00       		.byte	0
 1081 06a5 09       		.uleb128 0x9
 1082 06a6 04       		.byte	0x4
 1083 06a7 86060000 		.4byte	0x686
 1084 06ab 14       		.uleb128 0x14
 1085 06ac BE040000 		.4byte	.LASF86
 1086 06b0 0C       		.byte	0xc
 1087 06b1 0B01     		.2byte	0x10b
 1088 06b3 B1000000 		.4byte	0xb1
 1089 06b7 11       		.uleb128 0x11
 1090 06b8 01       		.byte	0x1
 1091 06b9 AB060000 		.4byte	0x6ab
 1092 06bd C7060000 		.4byte	0x6c7
 1093 06c1 12       		.uleb128 0x12
 1094 06c2 A4020000 		.4byte	0x2a4
 1095 06c6 00       		.byte	0
 1096 06c7 09       		.uleb128 0x9
 1097 06c8 04       		.byte	0x4
 1098 06c9 B7060000 		.4byte	0x6b7
 1099 06cd 0D       		.uleb128 0xd
 1100 06ce 62000000 		.4byte	0x62
 1101 06d2 0D       		.uleb128 0xd
 1102 06d3 74000000 		.4byte	0x74
 1103 06d7 15       		.uleb128 0x15
 1104 06d8 1C       		.byte	0x1c
 1105 06d9 0D       		.byte	0xd
 1106 06da 9303     		.2byte	0x393
 1107 06dc B1070000 		.4byte	0x7b1
 1108 06e0 0B       		.uleb128 0xb
 1109 06e1 535200   		.ascii	"SR\000"
 1110 06e4 0D       		.byte	0xd
 1111 06e5 9503     		.2byte	0x395
 1112 06e7 CD060000 		.4byte	0x6cd
 1113 06eb 02       		.byte	0x2
 1114 06ec 23       		.byte	0x23
 1115 06ed 00       		.uleb128 0
 1116 06ee 16       		.uleb128 0x16
 1117 06ef F5020000 		.4byte	.LASF87
 1118 06f3 0D       		.byte	0xd
 1119 06f4 9603     		.2byte	0x396
 1120 06f6 62000000 		.4byte	0x62
 1121 06fa 02       		.byte	0x2
 1122 06fb 23       		.byte	0x23
 1123 06fc 02       		.uleb128 0x2
 1124 06fd 0B       		.uleb128 0xb
 1125 06fe 445200   		.ascii	"DR\000"
 1126 0701 0D       		.byte	0xd
 1127 0702 9703     		.2byte	0x397
 1128 0704 CD060000 		.4byte	0x6cd
 1129 0708 02       		.byte	0x2
 1130 0709 23       		.byte	0x23
 1131 070a 04       		.uleb128 0x4
ARM GAS  /var/folders/5n/p_75w94d66l9ssrldxqdhh700000gn/T//ccMCLwZc.s 			page 21


 1132 070b 16       		.uleb128 0x16
 1133 070c FF020000 		.4byte	.LASF88
 1134 0710 0D       		.byte	0xd
 1135 0711 9803     		.2byte	0x398
 1136 0713 62000000 		.4byte	0x62
 1137 0717 02       		.byte	0x2
 1138 0718 23       		.byte	0x23
 1139 0719 06       		.uleb128 0x6
 1140 071a 0B       		.uleb128 0xb
 1141 071b 42525200 		.ascii	"BRR\000"
 1142 071f 0D       		.byte	0xd
 1143 0720 9903     		.2byte	0x399
 1144 0722 CD060000 		.4byte	0x6cd
 1145 0726 02       		.byte	0x2
 1146 0727 23       		.byte	0x23
 1147 0728 08       		.uleb128 0x8
 1148 0729 16       		.uleb128 0x16
 1149 072a 09030000 		.4byte	.LASF89
 1150 072e 0D       		.byte	0xd
 1151 072f 9A03     		.2byte	0x39a
 1152 0731 62000000 		.4byte	0x62
 1153 0735 02       		.byte	0x2
 1154 0736 23       		.byte	0x23
 1155 0737 0A       		.uleb128 0xa
 1156 0738 0B       		.uleb128 0xb
 1157 0739 43523100 		.ascii	"CR1\000"
 1158 073d 0D       		.byte	0xd
 1159 073e 9B03     		.2byte	0x39b
 1160 0740 CD060000 		.4byte	0x6cd
 1161 0744 02       		.byte	0x2
 1162 0745 23       		.byte	0x23
 1163 0746 0C       		.uleb128 0xc
 1164 0747 16       		.uleb128 0x16
 1165 0748 13030000 		.4byte	.LASF90
 1166 074c 0D       		.byte	0xd
 1167 074d 9C03     		.2byte	0x39c
 1168 074f 62000000 		.4byte	0x62
 1169 0753 02       		.byte	0x2
 1170 0754 23       		.byte	0x23
 1171 0755 0E       		.uleb128 0xe
 1172 0756 0B       		.uleb128 0xb
 1173 0757 43523200 		.ascii	"CR2\000"
 1174 075b 0D       		.byte	0xd
 1175 075c 9D03     		.2byte	0x39d
 1176 075e CD060000 		.4byte	0x6cd
 1177 0762 02       		.byte	0x2
 1178 0763 23       		.byte	0x23
 1179 0764 10       		.uleb128 0x10
 1180 0765 16       		.uleb128 0x16
 1181 0766 1D030000 		.4byte	.LASF91
 1182 076a 0D       		.byte	0xd
 1183 076b 9E03     		.2byte	0x39e
 1184 076d 62000000 		.4byte	0x62
 1185 0771 02       		.byte	0x2
 1186 0772 23       		.byte	0x23
 1187 0773 12       		.uleb128 0x12
 1188 0774 0B       		.uleb128 0xb
ARM GAS  /var/folders/5n/p_75w94d66l9ssrldxqdhh700000gn/T//ccMCLwZc.s 			page 22


 1189 0775 43523300 		.ascii	"CR3\000"
 1190 0779 0D       		.byte	0xd
 1191 077a 9F03     		.2byte	0x39f
 1192 077c CD060000 		.4byte	0x6cd
 1193 0780 02       		.byte	0x2
 1194 0781 23       		.byte	0x23
 1195 0782 14       		.uleb128 0x14
 1196 0783 16       		.uleb128 0x16
 1197 0784 30040000 		.4byte	.LASF92
 1198 0788 0D       		.byte	0xd
 1199 0789 A003     		.2byte	0x3a0
 1200 078b 62000000 		.4byte	0x62
 1201 078f 02       		.byte	0x2
 1202 0790 23       		.byte	0x23
 1203 0791 16       		.uleb128 0x16
 1204 0792 16       		.uleb128 0x16
 1205 0793 CF000000 		.4byte	.LASF93
 1206 0797 0D       		.byte	0xd
 1207 0798 A103     		.2byte	0x3a1
 1208 079a CD060000 		.4byte	0x6cd
 1209 079e 02       		.byte	0x2
 1210 079f 23       		.byte	0x23
 1211 07a0 18       		.uleb128 0x18
 1212 07a1 16       		.uleb128 0x16
 1213 07a2 2E030000 		.4byte	.LASF94
 1214 07a6 0D       		.byte	0xd
 1215 07a7 A203     		.2byte	0x3a2
 1216 07a9 62000000 		.4byte	0x62
 1217 07ad 02       		.byte	0x2
 1218 07ae 23       		.byte	0x23
 1219 07af 1A       		.uleb128 0x1a
 1220 07b0 00       		.byte	0
 1221 07b1 14       		.uleb128 0x14
 1222 07b2 EC010000 		.4byte	.LASF95
 1223 07b6 0D       		.byte	0xd
 1224 07b7 A303     		.2byte	0x3a3
 1225 07b9 D7060000 		.4byte	0x6d7
 1226 07bd 08       		.uleb128 0x8
 1227 07be 04       		.byte	0x4
 1228 07bf 0E       		.byte	0xe
 1229 07c0 9D       		.byte	0x9d
 1230 07c1 E2070000 		.4byte	0x7e2
 1231 07c5 07       		.uleb128 0x7
 1232 07c6 73657400 		.ascii	"set\000"
 1233 07ca 0E       		.byte	0xe
 1234 07cb 9E       		.byte	0x9e
 1235 07cc 62000000 		.4byte	0x62
 1236 07d0 02       		.byte	0x2
 1237 07d1 23       		.byte	0x23
 1238 07d2 00       		.uleb128 0
 1239 07d3 06       		.uleb128 0x6
 1240 07d4 77020000 		.4byte	.LASF96
 1241 07d8 0E       		.byte	0xe
 1242 07d9 9F       		.byte	0x9f
 1243 07da 62000000 		.4byte	0x62
 1244 07de 02       		.byte	0x2
 1245 07df 23       		.byte	0x23
ARM GAS  /var/folders/5n/p_75w94d66l9ssrldxqdhh700000gn/T//ccMCLwZc.s 			page 23


 1246 07e0 02       		.uleb128 0x2
 1247 07e1 00       		.byte	0
 1248 07e2 0E       		.uleb128 0xe
 1249 07e3 04       		.byte	0x4
 1250 07e4 0E       		.byte	0xe
 1251 07e5 9B       		.byte	0x9b
 1252 07e6 FD070000 		.4byte	0x7fd
 1253 07ea 17       		.uleb128 0x17
 1254 07eb 5700     		.ascii	"W\000"
 1255 07ed 0E       		.byte	0xe
 1256 07ee 9C       		.byte	0x9c
 1257 07ef 86000000 		.4byte	0x86
 1258 07f3 17       		.uleb128 0x17
 1259 07f4 4800     		.ascii	"H\000"
 1260 07f6 0E       		.byte	0xe
 1261 07f7 A0       		.byte	0xa0
 1262 07f8 BD070000 		.4byte	0x7bd
 1263 07fc 00       		.byte	0
 1264 07fd 08       		.uleb128 0x8
 1265 07fe 28       		.byte	0x28
 1266 07ff 0E       		.byte	0xe
 1267 0800 93       		.byte	0x93
 1268 0801 92080000 		.4byte	0x892
 1269 0805 06       		.uleb128 0x6
 1270 0806 48000000 		.4byte	.LASF97
 1271 080a 0E       		.byte	0xe
 1272 080b 95       		.byte	0x95
 1273 080c 61030000 		.4byte	0x361
 1274 0810 02       		.byte	0x2
 1275 0811 23       		.byte	0x23
 1276 0812 00       		.uleb128 0
 1277 0813 06       		.uleb128 0x6
 1278 0814 34000000 		.4byte	.LASF98
 1279 0818 0E       		.byte	0xe
 1280 0819 96       		.byte	0x96
 1281 081a 61030000 		.4byte	0x361
 1282 081e 02       		.byte	0x2
 1283 081f 23       		.byte	0x23
 1284 0820 04       		.uleb128 0x4
 1285 0821 06       		.uleb128 0x6
 1286 0822 43010000 		.4byte	.LASF99
 1287 0826 0E       		.byte	0xe
 1288 0827 97       		.byte	0x97
 1289 0828 61030000 		.4byte	0x361
 1290 082c 02       		.byte	0x2
 1291 082d 23       		.byte	0x23
 1292 082e 08       		.uleb128 0x8
 1293 082f 06       		.uleb128 0x6
 1294 0830 73000000 		.4byte	.LASF100
 1295 0834 0E       		.byte	0xe
 1296 0835 98       		.byte	0x98
 1297 0836 61030000 		.4byte	0x361
 1298 083a 02       		.byte	0x2
 1299 083b 23       		.byte	0x23
 1300 083c 0C       		.uleb128 0xc
 1301 083d 07       		.uleb128 0x7
 1302 083e 49445200 		.ascii	"IDR\000"
ARM GAS  /var/folders/5n/p_75w94d66l9ssrldxqdhh700000gn/T//ccMCLwZc.s 			page 24


 1303 0842 0E       		.byte	0xe
 1304 0843 99       		.byte	0x99
 1305 0844 61030000 		.4byte	0x361
 1306 0848 02       		.byte	0x2
 1307 0849 23       		.byte	0x23
 1308 084a 10       		.uleb128 0x10
 1309 084b 07       		.uleb128 0x7
 1310 084c 4F445200 		.ascii	"ODR\000"
 1311 0850 0E       		.byte	0xe
 1312 0851 9A       		.byte	0x9a
 1313 0852 61030000 		.4byte	0x361
 1314 0856 02       		.byte	0x2
 1315 0857 23       		.byte	0x23
 1316 0858 14       		.uleb128 0x14
 1317 0859 06       		.uleb128 0x6
 1318 085a C0000000 		.4byte	.LASF101
 1319 085e 0E       		.byte	0xe
 1320 085f A1       		.byte	0xa1
 1321 0860 92080000 		.4byte	0x892
 1322 0864 02       		.byte	0x2
 1323 0865 23       		.byte	0x23
 1324 0866 18       		.uleb128 0x18
 1325 0867 06       		.uleb128 0x6
 1326 0868 C1010000 		.4byte	.LASF102
 1327 086c 0E       		.byte	0xe
 1328 086d A2       		.byte	0xa2
 1329 086e 61030000 		.4byte	0x361
 1330 0872 02       		.byte	0x2
 1331 0873 23       		.byte	0x23
 1332 0874 1C       		.uleb128 0x1c
 1333 0875 06       		.uleb128 0x6
 1334 0876 DE020000 		.4byte	.LASF103
 1335 087a 0E       		.byte	0xe
 1336 087b A3       		.byte	0xa3
 1337 087c 61030000 		.4byte	0x361
 1338 0880 02       		.byte	0x2
 1339 0881 23       		.byte	0x23
 1340 0882 20       		.uleb128 0x20
 1341 0883 06       		.uleb128 0x6
 1342 0884 D9020000 		.4byte	.LASF104
 1343 0888 0E       		.byte	0xe
 1344 0889 A4       		.byte	0xa4
 1345 088a 61030000 		.4byte	0x361
 1346 088e 02       		.byte	0x2
 1347 088f 23       		.byte	0x23
 1348 0890 24       		.uleb128 0x24
 1349 0891 00       		.byte	0
 1350 0892 0D       		.uleb128 0xd
 1351 0893 E2070000 		.4byte	0x7e2
 1352 0897 03       		.uleb128 0x3
 1353 0898 AC010000 		.4byte	.LASF105
 1354 089c 0E       		.byte	0xe
 1355 089d A5       		.byte	0xa5
 1356 089e FD070000 		.4byte	0x7fd
 1357 08a2 03       		.uleb128 0x3
 1358 08a3 3B000000 		.4byte	.LASF106
 1359 08a7 0E       		.byte	0xe
ARM GAS  /var/folders/5n/p_75w94d66l9ssrldxqdhh700000gn/T//ccMCLwZc.s 			page 25


 1360 08a8 EF       		.byte	0xef
 1361 08a9 86000000 		.4byte	0x86
 1362 08ad 18       		.uleb128 0x18
 1363 08ae 01       		.byte	0x1
 1364 08af 0F       		.byte	0xf
 1365 08b0 64       		.byte	0x64
 1366 08b1 C8080000 		.4byte	0x8c8
 1367 08b5 19       		.uleb128 0x19
 1368 08b6 26040000 		.4byte	.LASF107
 1369 08ba 00       		.sleb128 0
 1370 08bb 19       		.uleb128 0x19
 1371 08bc 0C040000 		.4byte	.LASF108
 1372 08c0 01       		.sleb128 1
 1373 08c1 19       		.uleb128 0x19
 1374 08c2 CF040000 		.4byte	.LASF109
 1375 08c6 02       		.sleb128 2
 1376 08c7 00       		.byte	0
 1377 08c8 03       		.uleb128 0x3
 1378 08c9 4C040000 		.4byte	.LASF110
 1379 08cd 0F       		.byte	0xf
 1380 08ce 68       		.byte	0x68
 1381 08cf AD080000 		.4byte	0x8ad
 1382 08d3 03       		.uleb128 0x3
 1383 08d4 56040000 		.4byte	.LASF111
 1384 08d8 0F       		.byte	0xf
 1385 08d9 6D       		.byte	0x6d
 1386 08da DE080000 		.4byte	0x8de
 1387 08de 05       		.uleb128 0x5
 1388 08df 56040000 		.4byte	.LASF111
 1389 08e3 74       		.byte	0x74
 1390 08e4 0F       		.byte	0xf
 1391 08e5 87       		.byte	0x87
 1392 08e6 67090000 		.4byte	0x967
 1393 08ea 07       		.uleb128 0x7
 1394 08eb 766D7400 		.ascii	"vmt\000"
 1395 08ef 0F       		.byte	0xf
 1396 08f0 89       		.byte	0x89
 1397 08f1 3E0A0000 		.4byte	0xa3e
 1398 08f5 02       		.byte	0x2
 1399 08f6 23       		.byte	0x23
 1400 08f7 00       		.uleb128 0
 1401 08f8 06       		.uleb128 0x6
 1402 08f9 C6010000 		.4byte	.LASF112
 1403 08fd 0F       		.byte	0xf
 1404 08fe 8A       		.byte	0x8a
 1405 08ff 93040000 		.4byte	0x493
 1406 0903 02       		.byte	0x2
 1407 0904 23       		.byte	0x23
 1408 0905 04       		.uleb128 0x4
 1409 0906 06       		.uleb128 0x6
 1410 0907 17050000 		.4byte	.LASF113
 1411 090b 0F       		.byte	0xf
 1412 090c 8A       		.byte	0x8a
 1413 090d AB060000 		.4byte	0x6ab
 1414 0911 02       		.byte	0x2
 1415 0912 23       		.byte	0x23
 1416 0913 08       		.uleb128 0x8
ARM GAS  /var/folders/5n/p_75w94d66l9ssrldxqdhh700000gn/T//ccMCLwZc.s 			page 26


 1417 0914 06       		.uleb128 0x6
 1418 0915 EB000000 		.4byte	.LASF114
 1419 0919 0F       		.byte	0xf
 1420 091a 8A       		.byte	0x8a
 1421 091b C8080000 		.4byte	0x8c8
 1422 091f 02       		.byte	0x2
 1423 0920 23       		.byte	0x23
 1424 0921 0C       		.uleb128 0xc
 1425 0922 06       		.uleb128 0x6
 1426 0923 9A010000 		.4byte	.LASF115
 1427 0927 0F       		.byte	0xf
 1428 0928 8A       		.byte	0x8a
 1429 0929 AF050000 		.4byte	0x5af
 1430 092d 02       		.byte	0x2
 1431 092e 23       		.byte	0x23
 1432 092f 10       		.uleb128 0x10
 1433 0930 06       		.uleb128 0x6
 1434 0931 E5010000 		.4byte	.LASF116
 1435 0935 0F       		.byte	0xf
 1436 0936 8A       		.byte	0x8a
 1437 0937 BA050000 		.4byte	0x5ba
 1438 093b 02       		.byte	0x2
 1439 093c 23       		.byte	0x23
 1440 093d 30       		.uleb128 0x30
 1441 093e 07       		.uleb128 0x7
 1442 093f 696200   		.ascii	"ib\000"
 1443 0942 0F       		.byte	0xf
 1444 0943 8A       		.byte	0x8a
 1445 0944 490A0000 		.4byte	0xa49
 1446 0948 02       		.byte	0x2
 1447 0949 23       		.byte	0x23
 1448 094a 50       		.uleb128 0x50
 1449 094b 07       		.uleb128 0x7
 1450 094c 6F6200   		.ascii	"ob\000"
 1451 094f 0F       		.byte	0xf
 1452 0950 8A       		.byte	0x8a
 1453 0951 490A0000 		.4byte	0xa49
 1454 0955 02       		.byte	0x2
 1455 0956 23       		.byte	0x23
 1456 0957 60       		.uleb128 0x60
 1457 0958 06       		.uleb128 0x6
 1458 0959 6E010000 		.4byte	.LASF117
 1459 095d 0F       		.byte	0xf
 1460 095e 8A       		.byte	0x8a
 1461 095f 590A0000 		.4byte	0xa59
 1462 0963 02       		.byte	0x2
 1463 0964 23       		.byte	0x23
 1464 0965 70       		.uleb128 0x70
 1465 0966 00       		.byte	0
 1466 0967 08       		.uleb128 0x8
 1467 0968 0C       		.byte	0xc
 1468 0969 10       		.byte	0x10
 1469 096a C4       		.byte	0xc4
 1470 096b A8090000 		.4byte	0x9a8
 1471 096f 06       		.uleb128 0x6
 1472 0970 08000000 		.4byte	.LASF118
 1473 0974 10       		.byte	0x10
ARM GAS  /var/folders/5n/p_75w94d66l9ssrldxqdhh700000gn/T//ccMCLwZc.s 			page 27


 1474 0975 C8       		.byte	0xc8
 1475 0976 86000000 		.4byte	0x86
 1476 097a 02       		.byte	0x2
 1477 097b 23       		.byte	0x23
 1478 097c 00       		.uleb128 0
 1479 097d 06       		.uleb128 0x6
 1480 097e 4F050000 		.4byte	.LASF119
 1481 0982 10       		.byte	0x10
 1482 0983 CC       		.byte	0xcc
 1483 0984 62000000 		.4byte	0x62
 1484 0988 02       		.byte	0x2
 1485 0989 23       		.byte	0x23
 1486 098a 04       		.uleb128 0x4
 1487 098b 06       		.uleb128 0x6
 1488 098c 56050000 		.4byte	.LASF120
 1489 0990 10       		.byte	0x10
 1490 0991 D0       		.byte	0xd0
 1491 0992 62000000 		.4byte	0x62
 1492 0996 02       		.byte	0x2
 1493 0997 23       		.byte	0x23
 1494 0998 06       		.uleb128 0x6
 1495 0999 06       		.uleb128 0x6
 1496 099a 5D050000 		.4byte	.LASF121
 1497 099e 10       		.byte	0x10
 1498 099f D4       		.byte	0xd4
 1499 09a0 62000000 		.4byte	0x62
 1500 09a4 02       		.byte	0x2
 1501 09a5 23       		.byte	0x23
 1502 09a6 08       		.uleb128 0x8
 1503 09a7 00       		.byte	0
 1504 09a8 03       		.uleb128 0x3
 1505 09a9 CC020000 		.4byte	.LASF122
 1506 09ad 10       		.byte	0x10
 1507 09ae D5       		.byte	0xd5
 1508 09af 67090000 		.4byte	0x967
 1509 09b3 05       		.uleb128 0x5
 1510 09b4 8A010000 		.4byte	.LASF123
 1511 09b8 24       		.byte	0x24
 1512 09b9 0F       		.byte	0xf
 1513 09ba 7C       		.byte	0x7c
 1514 09bb 3E0A0000 		.4byte	0xa3e
 1515 09bf 06       		.uleb128 0x6
 1516 09c0 68020000 		.4byte	.LASF124
 1517 09c4 0F       		.byte	0xf
 1518 09c5 7D       		.byte	0x7d
 1519 09c6 EA050000 		.4byte	0x5ea
 1520 09ca 02       		.byte	0x2
 1521 09cb 23       		.byte	0x23
 1522 09cc 00       		.uleb128 0
 1523 09cd 06       		.uleb128 0x6
 1524 09ce 7F040000 		.4byte	.LASF125
 1525 09d2 0F       		.byte	0xf
 1526 09d3 7D       		.byte	0x7d
 1527 09d4 0A060000 		.4byte	0x60a
 1528 09d8 02       		.byte	0x2
 1529 09d9 23       		.byte	0x23
 1530 09da 04       		.uleb128 0x4
ARM GAS  /var/folders/5n/p_75w94d66l9ssrldxqdhh700000gn/T//ccMCLwZc.s 			page 28


 1531 09db 06       		.uleb128 0x6
 1532 09dc 2A010000 		.4byte	.LASF126
 1533 09e0 0F       		.byte	0xf
 1534 09e1 7D       		.byte	0x7d
 1535 09e2 20060000 		.4byte	0x620
 1536 09e6 02       		.byte	0x2
 1537 09e7 23       		.byte	0x23
 1538 09e8 08       		.uleb128 0x8
 1539 09e9 06       		.uleb128 0x6
 1540 09ea 41050000 		.4byte	.LASF127
 1541 09ee 0F       		.byte	0xf
 1542 09ef 7D       		.byte	0x7d
 1543 09f0 20060000 		.4byte	0x620
 1544 09f4 02       		.byte	0x2
 1545 09f5 23       		.byte	0x23
 1546 09f6 0C       		.uleb128 0xc
 1547 09f7 07       		.uleb128 0x7
 1548 09f8 70757400 		.ascii	"put\000"
 1549 09fc 0F       		.byte	0xf
 1550 09fd 7D       		.byte	0x7d
 1551 09fe 40060000 		.4byte	0x640
 1552 0a02 02       		.byte	0x2
 1553 0a03 23       		.byte	0x23
 1554 0a04 10       		.uleb128 0x10
 1555 0a05 07       		.uleb128 0x7
 1556 0a06 67657400 		.ascii	"get\000"
 1557 0a0a 0F       		.byte	0xf
 1558 0a0b 7D       		.byte	0x7d
 1559 0a0c 5B060000 		.4byte	0x65b
 1560 0a10 02       		.byte	0x2
 1561 0a11 23       		.byte	0x23
 1562 0a12 14       		.uleb128 0x14
 1563 0a13 06       		.uleb128 0x6
 1564 0a14 FA010000 		.4byte	.LASF128
 1565 0a18 0F       		.byte	0xf
 1566 0a19 7D       		.byte	0x7d
 1567 0a1a 80060000 		.4byte	0x680
 1568 0a1e 02       		.byte	0x2
 1569 0a1f 23       		.byte	0x23
 1570 0a20 18       		.uleb128 0x18
 1571 0a21 06       		.uleb128 0x6
 1572 0a22 96000000 		.4byte	.LASF129
 1573 0a26 0F       		.byte	0xf
 1574 0a27 7D       		.byte	0x7d
 1575 0a28 A5060000 		.4byte	0x6a5
 1576 0a2c 02       		.byte	0x2
 1577 0a2d 23       		.byte	0x23
 1578 0a2e 1C       		.uleb128 0x1c
 1579 0a2f 06       		.uleb128 0x6
 1580 0a30 AD040000 		.4byte	.LASF130
 1581 0a34 0F       		.byte	0xf
 1582 0a35 7D       		.byte	0x7d
 1583 0a36 C7060000 		.4byte	0x6c7
 1584 0a3a 02       		.byte	0x2
 1585 0a3b 23       		.byte	0x23
 1586 0a3c 20       		.uleb128 0x20
 1587 0a3d 00       		.byte	0
ARM GAS  /var/folders/5n/p_75w94d66l9ssrldxqdhh700000gn/T//ccMCLwZc.s 			page 29


 1588 0a3e 09       		.uleb128 0x9
 1589 0a3f 04       		.byte	0x4
 1590 0a40 440A0000 		.4byte	0xa44
 1591 0a44 10       		.uleb128 0x10
 1592 0a45 B3090000 		.4byte	0x9b3
 1593 0a49 1A       		.uleb128 0x1a
 1594 0a4a 49000000 		.4byte	0x49
 1595 0a4e 590A0000 		.4byte	0xa59
 1596 0a52 1B       		.uleb128 0x1b
 1597 0a53 66030000 		.4byte	0x366
 1598 0a57 0F       		.byte	0xf
 1599 0a58 00       		.byte	0
 1600 0a59 09       		.uleb128 0x9
 1601 0a5a 04       		.byte	0x4
 1602 0a5b B1070000 		.4byte	0x7b1
 1603 0a5f 1A       		.uleb128 0x1a
 1604 0a60 A6020000 		.4byte	0x2a6
 1605 0a64 6F0A0000 		.4byte	0xa6f
 1606 0a68 1B       		.uleb128 0x1b
 1607 0a69 66030000 		.4byte	0x366
 1608 0a6d 25       		.byte	0x25
 1609 0a6e 00       		.byte	0
 1610 0a6f 1C       		.uleb128 0x1c
 1611 0a70 4E020000 		.4byte	.LASF143
 1612 0a74 01       		.byte	0x1
 1613 0a75 28       		.byte	0x28
 1614 0a76 01       		.byte	0x1
 1615 0a77 F3000000 		.4byte	0xf3
 1616 0a7b 00000000 		.4byte	.LFB117
 1617 0a7f 34000000 		.4byte	.LFE117
 1618 0a83 00000000 		.4byte	.LLST0
 1619 0a87 01       		.byte	0x1
 1620 0a88 C20A0000 		.4byte	0xac2
 1621 0a8c 1D       		.uleb128 0x1d
 1622 0a8d 61726700 		.ascii	"arg\000"
 1623 0a91 01       		.byte	0x1
 1624 0a92 28       		.byte	0x28
 1625 0a93 A4020000 		.4byte	0x2a4
 1626 0a97 20000000 		.4byte	.LLST1
 1627 0a9b 1E       		.uleb128 0x1e
 1628 0a9c 20000000 		.4byte	.LVL2
 1629 0aa0 100C0000 		.4byte	0xc10
 1630 0aa4 B00A0000 		.4byte	0xab0
 1631 0aa8 1F       		.uleb128 0x1f
 1632 0aa9 01       		.byte	0x1
 1633 0aaa 50       		.byte	0x50
 1634 0aab 03       		.byte	0x3
 1635 0aac 0A       		.byte	0xa
 1636 0aad F401     		.2byte	0x1f4
 1637 0aaf 00       		.byte	0
 1638 0ab0 20       		.uleb128 0x20
 1639 0ab1 2A000000 		.4byte	.LVL3
 1640 0ab5 100C0000 		.4byte	0xc10
 1641 0ab9 1F       		.uleb128 0x1f
 1642 0aba 01       		.byte	0x1
 1643 0abb 50       		.byte	0x50
 1644 0abc 03       		.byte	0x3
ARM GAS  /var/folders/5n/p_75w94d66l9ssrldxqdhh700000gn/T//ccMCLwZc.s 			page 30


 1645 0abd 0A       		.byte	0xa
 1646 0abe F401     		.2byte	0x1f4
 1647 0ac0 00       		.byte	0
 1648 0ac1 00       		.byte	0
 1649 0ac2 21       		.uleb128 0x21
 1650 0ac3 01       		.byte	0x1
 1651 0ac4 64050000 		.4byte	.LASF144
 1652 0ac8 01       		.byte	0x1
 1653 0ac9 37       		.byte	0x37
 1654 0aca 01       		.byte	0x1
 1655 0acb 29000000 		.4byte	0x29
 1656 0acf 00000000 		.4byte	.LFB118
 1657 0ad3 84000000 		.4byte	.LFE118
 1658 0ad7 41000000 		.4byte	.LLST2
 1659 0adb 01       		.byte	0x1
 1660 0adc 9C0B0000 		.4byte	0xb9c
 1661 0ae0 22       		.uleb128 0x22
 1662 0ae1 0A000000 		.4byte	.LVL4
 1663 0ae5 250C0000 		.4byte	0xc25
 1664 0ae9 22       		.uleb128 0x22
 1665 0aea 0E000000 		.4byte	.LVL5
 1666 0aee 2F0C0000 		.4byte	0xc2f
 1667 0af2 1E       		.uleb128 0x1e
 1668 0af3 16000000 		.4byte	.LVL6
 1669 0af7 390C0000 		.4byte	0xc39
 1670 0afb 060B0000 		.4byte	0xb06
 1671 0aff 1F       		.uleb128 0x1f
 1672 0b00 01       		.byte	0x1
 1673 0b01 51       		.byte	0x51
 1674 0b02 02       		.byte	0x2
 1675 0b03 74       		.byte	0x74
 1676 0b04 00       		.sleb128 0
 1677 0b05 00       		.byte	0
 1678 0b06 1E       		.uleb128 0x1e
 1679 0b07 26000000 		.4byte	.LVL7
 1680 0b0b 640C0000 		.4byte	0xc64
 1681 0b0f 3A0B0000 		.4byte	0xb3a
 1682 0b13 1F       		.uleb128 0x1f
 1683 0b14 01       		.byte	0x1
 1684 0b15 53       		.byte	0x53
 1685 0b16 05       		.byte	0x5
 1686 0b17 03       		.byte	0x3
 1687 0b18 00000000 		.4byte	Thread1
 1688 0b1c 1F       		.uleb128 0x1f
 1689 0b1d 01       		.byte	0x1
 1690 0b1e 52       		.byte	0x52
 1691 0b1f 02       		.byte	0x2
 1692 0b20 08       		.byte	0x8
 1693 0b21 40       		.byte	0x40
 1694 0b22 1F       		.uleb128 0x1f
 1695 0b23 01       		.byte	0x1
 1696 0b24 51       		.byte	0x51
 1697 0b25 03       		.byte	0x3
 1698 0b26 0A       		.byte	0xa
 1699 0b27 3001     		.2byte	0x130
 1700 0b29 1F       		.uleb128 0x1f
 1701 0b2a 01       		.byte	0x1
ARM GAS  /var/folders/5n/p_75w94d66l9ssrldxqdhh700000gn/T//ccMCLwZc.s 			page 31


 1702 0b2b 50       		.byte	0x50
 1703 0b2c 05       		.byte	0x5
 1704 0b2d 03       		.byte	0x3
 1705 0b2e 00000000 		.4byte	.LANCHOR0
 1706 0b32 1F       		.uleb128 0x1f
 1707 0b33 02       		.byte	0x2
 1708 0b34 7D       		.byte	0x7d
 1709 0b35 00       		.sleb128 0
 1710 0b36 02       		.byte	0x2
 1711 0b37 74       		.byte	0x74
 1712 0b38 00       		.sleb128 0
 1713 0b39 00       		.byte	0
 1714 0b3a 1E       		.uleb128 0x1e
 1715 0b3b 36000000 		.4byte	.LVL8
 1716 0b3f 640C0000 		.4byte	0xc64
 1717 0b43 5C0B0000 		.4byte	0xb5c
 1718 0b47 1F       		.uleb128 0x1f
 1719 0b48 01       		.byte	0x1
 1720 0b49 52       		.byte	0x52
 1721 0b4a 02       		.byte	0x2
 1722 0b4b 08       		.byte	0x8
 1723 0b4c 41       		.byte	0x41
 1724 0b4d 1F       		.uleb128 0x1f
 1725 0b4e 01       		.byte	0x1
 1726 0b4f 51       		.byte	0x51
 1727 0b50 03       		.byte	0x3
 1728 0b51 0A       		.byte	0xa
 1729 0b52 0002     		.2byte	0x200
 1730 0b54 1F       		.uleb128 0x1f
 1731 0b55 02       		.byte	0x2
 1732 0b56 7D       		.byte	0x7d
 1733 0b57 00       		.sleb128 0
 1734 0b58 02       		.byte	0x2
 1735 0b59 74       		.byte	0x74
 1736 0b5a 00       		.sleb128 0
 1737 0b5b 00       		.byte	0
 1738 0b5c 1E       		.uleb128 0x1e
 1739 0b5d 4A000000 		.4byte	.LVL9
 1740 0b61 640C0000 		.4byte	0xc64
 1741 0b65 7D0B0000 		.4byte	0xb7d
 1742 0b69 1F       		.uleb128 0x1f
 1743 0b6a 01       		.byte	0x1
 1744 0b6b 52       		.byte	0x52
 1745 0b6c 02       		.byte	0x2
 1746 0b6d 08       		.byte	0x8
 1747 0b6e 41       		.byte	0x41
 1748 0b6f 1F       		.uleb128 0x1f
 1749 0b70 01       		.byte	0x1
 1750 0b71 51       		.byte	0x51
 1751 0b72 03       		.byte	0x3
 1752 0b73 0A       		.byte	0xa
 1753 0b74 B004     		.2byte	0x4b0
 1754 0b76 1F       		.uleb128 0x1f
 1755 0b77 02       		.byte	0x2
 1756 0b78 7D       		.byte	0x7d
 1757 0b79 00       		.sleb128 0
 1758 0b7a 01       		.byte	0x1
ARM GAS  /var/folders/5n/p_75w94d66l9ssrldxqdhh700000gn/T//ccMCLwZc.s 			page 32


 1759 0b7b 30       		.byte	0x30
 1760 0b7c 00       		.byte	0
 1761 0b7d 1E       		.uleb128 0x1e
 1762 0b7e 58000000 		.4byte	.LVL10
 1763 0b82 100C0000 		.4byte	0xc10
 1764 0b86 920B0000 		.4byte	0xb92
 1765 0b8a 1F       		.uleb128 0x1f
 1766 0b8b 01       		.byte	0x1
 1767 0b8c 50       		.byte	0x50
 1768 0b8d 03       		.byte	0x3
 1769 0b8e 0A       		.byte	0xa
 1770 0b8f F401     		.2byte	0x1f4
 1771 0b91 00       		.byte	0
 1772 0b92 22       		.uleb128 0x22
 1773 0b93 64000000 		.4byte	.LVL11
 1774 0b97 910C0000 		.4byte	0xc91
 1775 0b9b 00       		.byte	0
 1776 0b9c 23       		.uleb128 0x23
 1777 0b9d E3020000 		.4byte	.LASF145
 1778 0ba1 01       		.byte	0x1
 1779 0ba2 27       		.byte	0x27
 1780 0ba3 5F0A0000 		.4byte	0xa5f
 1781 0ba7 05       		.byte	0x5
 1782 0ba8 03       		.byte	0x3
 1783 0ba9 00000000 		.4byte	waThread1
 1784 0bad 24       		.uleb128 0x24
 1785 0bae 09050000 		.4byte	.LASF131
 1786 0bb2 08       		.byte	0x8
 1787 0bb3 72       		.byte	0x72
 1788 0bb4 DD030000 		.4byte	0x3dd
 1789 0bb8 01       		.byte	0x1
 1790 0bb9 01       		.byte	0x1
 1791 0bba 25       		.uleb128 0x25
 1792 0bbb 82000000 		.4byte	.LASF132
 1793 0bbf 11       		.byte	0x11
 1794 0bc0 1A05     		.2byte	0x51a
 1795 0bc2 D2060000 		.4byte	0x6d2
 1796 0bc6 01       		.byte	0x1
 1797 0bc7 01       		.byte	0x1
 1798 0bc8 26       		.uleb128 0x26
 1799 0bc9 53443600 		.ascii	"SD6\000"
 1800 0bcd 10       		.byte	0x10
 1801 0bce 0A01     		.2byte	0x10a
 1802 0bd0 D3080000 		.4byte	0x8d3
 1803 0bd4 01       		.byte	0x1
 1804 0bd5 01       		.byte	0x1
 1805 0bd6 1A       		.uleb128 0x1a
 1806 0bd7 A6020000 		.4byte	0x2a6
 1807 0bdb E60B0000 		.4byte	0xbe6
 1808 0bdf 1B       		.uleb128 0x1b
 1809 0be0 66030000 		.4byte	0x366
 1810 0be4 55       		.byte	0x55
 1811 0be5 00       		.byte	0
 1812 0be6 24       		.uleb128 0x24
 1813 0be7 32050000 		.4byte	.LASF133
 1814 0beb 12       		.byte	0x12
 1815 0bec 7B       		.byte	0x7b
ARM GAS  /var/folders/5n/p_75w94d66l9ssrldxqdhh700000gn/T//ccMCLwZc.s 			page 33


 1816 0bed D60B0000 		.4byte	0xbd6
 1817 0bf1 01       		.byte	0x1
 1818 0bf2 01       		.byte	0x1
 1819 0bf3 1A       		.uleb128 0x1a
 1820 0bf4 A6020000 		.4byte	0x2a6
 1821 0bf8 030C0000 		.4byte	0xc03
 1822 0bfc 1B       		.uleb128 0x1b
 1823 0bfd 66030000 		.4byte	0x366
 1824 0c01 95       		.byte	0x95
 1825 0c02 00       		.byte	0
 1826 0c03 24       		.uleb128 0x24
 1827 0c04 81050000 		.4byte	.LASF134
 1828 0c08 13       		.byte	0x13
 1829 0c09 32       		.byte	0x32
 1830 0c0a F30B0000 		.4byte	0xbf3
 1831 0c0e 01       		.byte	0x1
 1832 0c0f 01       		.byte	0x1
 1833 0c10 27       		.uleb128 0x27
 1834 0c11 01       		.byte	0x1
 1835 0c12 C1020000 		.4byte	.LASF137
 1836 0c16 06       		.byte	0x6
 1837 0c17 6901     		.2byte	0x169
 1838 0c19 01       		.byte	0x1
 1839 0c1a 01       		.byte	0x1
 1840 0c1b 250C0000 		.4byte	0xc25
 1841 0c1f 12       		.uleb128 0x12
 1842 0c20 09010000 		.4byte	0x109
 1843 0c24 00       		.byte	0
 1844 0c25 28       		.uleb128 0x28
 1845 0c26 01       		.byte	0x1
 1846 0c27 B9010000 		.4byte	.LASF135
 1847 0c2b 14       		.byte	0x14
 1848 0c2c A4       		.byte	0xa4
 1849 0c2d 01       		.byte	0x1
 1850 0c2e 01       		.byte	0x1
 1851 0c2f 28       		.uleb128 0x28
 1852 0c30 01       		.byte	0x1
 1853 0c31 C5000000 		.4byte	.LASF136
 1854 0c35 15       		.byte	0x15
 1855 0c36 F6       		.byte	0xf6
 1856 0c37 01       		.byte	0x1
 1857 0c38 01       		.byte	0x1
 1858 0c39 27       		.uleb128 0x27
 1859 0c3a 01       		.byte	0x1
 1860 0c3b 89040000 		.4byte	.LASF138
 1861 0c3f 0F       		.byte	0xf
 1862 0c40 3901     		.2byte	0x139
 1863 0c42 01       		.byte	0x1
 1864 0c43 01       		.byte	0x1
 1865 0c44 530C0000 		.4byte	0xc53
 1866 0c48 12       		.uleb128 0x12
 1867 0c49 530C0000 		.4byte	0xc53
 1868 0c4d 12       		.uleb128 0x12
 1869 0c4e 590C0000 		.4byte	0xc59
 1870 0c52 00       		.byte	0
 1871 0c53 09       		.uleb128 0x9
 1872 0c54 04       		.byte	0x4
ARM GAS  /var/folders/5n/p_75w94d66l9ssrldxqdhh700000gn/T//ccMCLwZc.s 			page 34


 1873 0c55 D3080000 		.4byte	0x8d3
 1874 0c59 09       		.uleb128 0x9
 1875 0c5a 04       		.byte	0x4
 1876 0c5b 5F0C0000 		.4byte	0xc5f
 1877 0c5f 10       		.uleb128 0x10
 1878 0c60 A8090000 		.4byte	0x9a8
 1879 0c64 29       		.uleb128 0x29
 1880 0c65 01       		.byte	0x1
 1881 0c66 56020000 		.4byte	.LASF146
 1882 0c6a 06       		.byte	0x6
 1883 0c6b 6401     		.2byte	0x164
 1884 0c6d 01       		.byte	0x1
 1885 0c6e 66020000 		.4byte	0x266
 1886 0c72 01       		.byte	0x1
 1887 0c73 910C0000 		.4byte	0xc91
 1888 0c77 12       		.uleb128 0x12
 1889 0c78 A4020000 		.4byte	0x2a4
 1890 0c7c 12       		.uleb128 0x12
 1891 0c7d 30000000 		.4byte	0x30
 1892 0c81 12       		.uleb128 0x12
 1893 0c82 E8000000 		.4byte	0xe8
 1894 0c86 12       		.uleb128 0x12
 1895 0c87 EB040000 		.4byte	0x4eb
 1896 0c8b 12       		.uleb128 0x12
 1897 0c8c A4020000 		.4byte	0x2a4
 1898 0c90 00       		.byte	0
 1899 0c91 2A       		.uleb128 0x2a
 1900 0c92 01       		.byte	0x1
 1901 0c93 38010000 		.4byte	.LASF139
 1902 0c97 16       		.byte	0x16
 1903 0c98 5D       		.byte	0x5d
 1904 0c99 01       		.byte	0x1
 1905 0c9a F3000000 		.4byte	0xf3
 1906 0c9e 01       		.byte	0x1
 1907 0c9f 12       		.uleb128 0x12
 1908 0ca0 A4020000 		.4byte	0x2a4
 1909 0ca4 00       		.byte	0
 1910 0ca5 00       		.byte	0
 1911              		.section	.debug_abbrev,"",%progbits
 1912              	.Ldebug_abbrev0:
 1913 0000 01       		.uleb128 0x1
 1914 0001 11       		.uleb128 0x11
 1915 0002 01       		.byte	0x1
 1916 0003 25       		.uleb128 0x25
 1917 0004 0E       		.uleb128 0xe
 1918 0005 13       		.uleb128 0x13
 1919 0006 0B       		.uleb128 0xb
 1920 0007 03       		.uleb128 0x3
 1921 0008 0E       		.uleb128 0xe
 1922 0009 1B       		.uleb128 0x1b
 1923 000a 0E       		.uleb128 0xe
 1924 000b 55       		.uleb128 0x55
 1925 000c 06       		.uleb128 0x6
 1926 000d 11       		.uleb128 0x11
 1927 000e 01       		.uleb128 0x1
 1928 000f 52       		.uleb128 0x52
 1929 0010 01       		.uleb128 0x1
ARM GAS  /var/folders/5n/p_75w94d66l9ssrldxqdhh700000gn/T//ccMCLwZc.s 			page 35


 1930 0011 10       		.uleb128 0x10
 1931 0012 06       		.uleb128 0x6
 1932 0013 00       		.byte	0
 1933 0014 00       		.byte	0
 1934 0015 02       		.uleb128 0x2
 1935 0016 24       		.uleb128 0x24
 1936 0017 00       		.byte	0
 1937 0018 0B       		.uleb128 0xb
 1938 0019 0B       		.uleb128 0xb
 1939 001a 3E       		.uleb128 0x3e
 1940 001b 0B       		.uleb128 0xb
 1941 001c 03       		.uleb128 0x3
 1942 001d 08       		.uleb128 0x8
 1943 001e 00       		.byte	0
 1944 001f 00       		.byte	0
 1945 0020 03       		.uleb128 0x3
 1946 0021 16       		.uleb128 0x16
 1947 0022 00       		.byte	0
 1948 0023 03       		.uleb128 0x3
 1949 0024 0E       		.uleb128 0xe
 1950 0025 3A       		.uleb128 0x3a
 1951 0026 0B       		.uleb128 0xb
 1952 0027 3B       		.uleb128 0x3b
 1953 0028 0B       		.uleb128 0xb
 1954 0029 49       		.uleb128 0x49
 1955 002a 13       		.uleb128 0x13
 1956 002b 00       		.byte	0
 1957 002c 00       		.byte	0
 1958 002d 04       		.uleb128 0x4
 1959 002e 24       		.uleb128 0x24
 1960 002f 00       		.byte	0
 1961 0030 0B       		.uleb128 0xb
 1962 0031 0B       		.uleb128 0xb
 1963 0032 3E       		.uleb128 0x3e
 1964 0033 0B       		.uleb128 0xb
 1965 0034 03       		.uleb128 0x3
 1966 0035 0E       		.uleb128 0xe
 1967 0036 00       		.byte	0
 1968 0037 00       		.byte	0
 1969 0038 05       		.uleb128 0x5
 1970 0039 13       		.uleb128 0x13
 1971 003a 01       		.byte	0x1
 1972 003b 03       		.uleb128 0x3
 1973 003c 0E       		.uleb128 0xe
 1974 003d 0B       		.uleb128 0xb
 1975 003e 0B       		.uleb128 0xb
 1976 003f 3A       		.uleb128 0x3a
 1977 0040 0B       		.uleb128 0xb
 1978 0041 3B       		.uleb128 0x3b
 1979 0042 0B       		.uleb128 0xb
 1980 0043 01       		.uleb128 0x1
 1981 0044 13       		.uleb128 0x13
 1982 0045 00       		.byte	0
 1983 0046 00       		.byte	0
 1984 0047 06       		.uleb128 0x6
 1985 0048 0D       		.uleb128 0xd
 1986 0049 00       		.byte	0
ARM GAS  /var/folders/5n/p_75w94d66l9ssrldxqdhh700000gn/T//ccMCLwZc.s 			page 36


 1987 004a 03       		.uleb128 0x3
 1988 004b 0E       		.uleb128 0xe
 1989 004c 3A       		.uleb128 0x3a
 1990 004d 0B       		.uleb128 0xb
 1991 004e 3B       		.uleb128 0x3b
 1992 004f 0B       		.uleb128 0xb
 1993 0050 49       		.uleb128 0x49
 1994 0051 13       		.uleb128 0x13
 1995 0052 38       		.uleb128 0x38
 1996 0053 0A       		.uleb128 0xa
 1997 0054 00       		.byte	0
 1998 0055 00       		.byte	0
 1999 0056 07       		.uleb128 0x7
 2000 0057 0D       		.uleb128 0xd
 2001 0058 00       		.byte	0
 2002 0059 03       		.uleb128 0x3
 2003 005a 08       		.uleb128 0x8
 2004 005b 3A       		.uleb128 0x3a
 2005 005c 0B       		.uleb128 0xb
 2006 005d 3B       		.uleb128 0x3b
 2007 005e 0B       		.uleb128 0xb
 2008 005f 49       		.uleb128 0x49
 2009 0060 13       		.uleb128 0x13
 2010 0061 38       		.uleb128 0x38
 2011 0062 0A       		.uleb128 0xa
 2012 0063 00       		.byte	0
 2013 0064 00       		.byte	0
 2014 0065 08       		.uleb128 0x8
 2015 0066 13       		.uleb128 0x13
 2016 0067 01       		.byte	0x1
 2017 0068 0B       		.uleb128 0xb
 2018 0069 0B       		.uleb128 0xb
 2019 006a 3A       		.uleb128 0x3a
 2020 006b 0B       		.uleb128 0xb
 2021 006c 3B       		.uleb128 0x3b
 2022 006d 0B       		.uleb128 0xb
 2023 006e 01       		.uleb128 0x1
 2024 006f 13       		.uleb128 0x13
 2025 0070 00       		.byte	0
 2026 0071 00       		.byte	0
 2027 0072 09       		.uleb128 0x9
 2028 0073 0F       		.uleb128 0xf
 2029 0074 00       		.byte	0
 2030 0075 0B       		.uleb128 0xb
 2031 0076 0B       		.uleb128 0xb
 2032 0077 49       		.uleb128 0x49
 2033 0078 13       		.uleb128 0x13
 2034 0079 00       		.byte	0
 2035 007a 00       		.byte	0
 2036 007b 0A       		.uleb128 0xa
 2037 007c 0F       		.uleb128 0xf
 2038 007d 00       		.byte	0
 2039 007e 0B       		.uleb128 0xb
 2040 007f 0B       		.uleb128 0xb
 2041 0080 00       		.byte	0
 2042 0081 00       		.byte	0
 2043 0082 0B       		.uleb128 0xb
ARM GAS  /var/folders/5n/p_75w94d66l9ssrldxqdhh700000gn/T//ccMCLwZc.s 			page 37


 2044 0083 0D       		.uleb128 0xd
 2045 0084 00       		.byte	0
 2046 0085 03       		.uleb128 0x3
 2047 0086 08       		.uleb128 0x8
 2048 0087 3A       		.uleb128 0x3a
 2049 0088 0B       		.uleb128 0xb
 2050 0089 3B       		.uleb128 0x3b
 2051 008a 05       		.uleb128 0x5
 2052 008b 49       		.uleb128 0x49
 2053 008c 13       		.uleb128 0x13
 2054 008d 38       		.uleb128 0x38
 2055 008e 0A       		.uleb128 0xa
 2056 008f 00       		.byte	0
 2057 0090 00       		.byte	0
 2058 0091 0C       		.uleb128 0xc
 2059 0092 13       		.uleb128 0x13
 2060 0093 01       		.byte	0x1
 2061 0094 03       		.uleb128 0x3
 2062 0095 0E       		.uleb128 0xe
 2063 0096 0B       		.uleb128 0xb
 2064 0097 0B       		.uleb128 0xb
 2065 0098 3A       		.uleb128 0x3a
 2066 0099 0B       		.uleb128 0xb
 2067 009a 3B       		.uleb128 0x3b
 2068 009b 05       		.uleb128 0x5
 2069 009c 01       		.uleb128 0x1
 2070 009d 13       		.uleb128 0x13
 2071 009e 00       		.byte	0
 2072 009f 00       		.byte	0
 2073 00a0 0D       		.uleb128 0xd
 2074 00a1 35       		.uleb128 0x35
 2075 00a2 00       		.byte	0
 2076 00a3 49       		.uleb128 0x49
 2077 00a4 13       		.uleb128 0x13
 2078 00a5 00       		.byte	0
 2079 00a6 00       		.byte	0
 2080 00a7 0E       		.uleb128 0xe
 2081 00a8 17       		.uleb128 0x17
 2082 00a9 01       		.byte	0x1
 2083 00aa 0B       		.uleb128 0xb
 2084 00ab 0B       		.uleb128 0xb
 2085 00ac 3A       		.uleb128 0x3a
 2086 00ad 0B       		.uleb128 0xb
 2087 00ae 3B       		.uleb128 0x3b
 2088 00af 0B       		.uleb128 0xb
 2089 00b0 01       		.uleb128 0x1
 2090 00b1 13       		.uleb128 0x13
 2091 00b2 00       		.byte	0
 2092 00b3 00       		.byte	0
 2093 00b4 0F       		.uleb128 0xf
 2094 00b5 0D       		.uleb128 0xd
 2095 00b6 00       		.byte	0
 2096 00b7 03       		.uleb128 0x3
 2097 00b8 0E       		.uleb128 0xe
 2098 00b9 3A       		.uleb128 0x3a
 2099 00ba 0B       		.uleb128 0xb
 2100 00bb 3B       		.uleb128 0x3b
ARM GAS  /var/folders/5n/p_75w94d66l9ssrldxqdhh700000gn/T//ccMCLwZc.s 			page 38


 2101 00bc 0B       		.uleb128 0xb
 2102 00bd 49       		.uleb128 0x49
 2103 00be 13       		.uleb128 0x13
 2104 00bf 00       		.byte	0
 2105 00c0 00       		.byte	0
 2106 00c1 10       		.uleb128 0x10
 2107 00c2 26       		.uleb128 0x26
 2108 00c3 00       		.byte	0
 2109 00c4 49       		.uleb128 0x49
 2110 00c5 13       		.uleb128 0x13
 2111 00c6 00       		.byte	0
 2112 00c7 00       		.byte	0
 2113 00c8 11       		.uleb128 0x11
 2114 00c9 15       		.uleb128 0x15
 2115 00ca 01       		.byte	0x1
 2116 00cb 27       		.uleb128 0x27
 2117 00cc 0C       		.uleb128 0xc
 2118 00cd 49       		.uleb128 0x49
 2119 00ce 13       		.uleb128 0x13
 2120 00cf 01       		.uleb128 0x1
 2121 00d0 13       		.uleb128 0x13
 2122 00d1 00       		.byte	0
 2123 00d2 00       		.byte	0
 2124 00d3 12       		.uleb128 0x12
 2125 00d4 05       		.uleb128 0x5
 2126 00d5 00       		.byte	0
 2127 00d6 49       		.uleb128 0x49
 2128 00d7 13       		.uleb128 0x13
 2129 00d8 00       		.byte	0
 2130 00d9 00       		.byte	0
 2131 00da 13       		.uleb128 0x13
 2132 00db 15       		.uleb128 0x15
 2133 00dc 01       		.byte	0x1
 2134 00dd 27       		.uleb128 0x27
 2135 00de 0C       		.uleb128 0xc
 2136 00df 01       		.uleb128 0x1
 2137 00e0 13       		.uleb128 0x13
 2138 00e1 00       		.byte	0
 2139 00e2 00       		.byte	0
 2140 00e3 14       		.uleb128 0x14
 2141 00e4 16       		.uleb128 0x16
 2142 00e5 00       		.byte	0
 2143 00e6 03       		.uleb128 0x3
 2144 00e7 0E       		.uleb128 0xe
 2145 00e8 3A       		.uleb128 0x3a
 2146 00e9 0B       		.uleb128 0xb
 2147 00ea 3B       		.uleb128 0x3b
 2148 00eb 05       		.uleb128 0x5
 2149 00ec 49       		.uleb128 0x49
 2150 00ed 13       		.uleb128 0x13
 2151 00ee 00       		.byte	0
 2152 00ef 00       		.byte	0
 2153 00f0 15       		.uleb128 0x15
 2154 00f1 13       		.uleb128 0x13
 2155 00f2 01       		.byte	0x1
 2156 00f3 0B       		.uleb128 0xb
 2157 00f4 0B       		.uleb128 0xb
ARM GAS  /var/folders/5n/p_75w94d66l9ssrldxqdhh700000gn/T//ccMCLwZc.s 			page 39


 2158 00f5 3A       		.uleb128 0x3a
 2159 00f6 0B       		.uleb128 0xb
 2160 00f7 3B       		.uleb128 0x3b
 2161 00f8 05       		.uleb128 0x5
 2162 00f9 01       		.uleb128 0x1
 2163 00fa 13       		.uleb128 0x13
 2164 00fb 00       		.byte	0
 2165 00fc 00       		.byte	0
 2166 00fd 16       		.uleb128 0x16
 2167 00fe 0D       		.uleb128 0xd
 2168 00ff 00       		.byte	0
 2169 0100 03       		.uleb128 0x3
 2170 0101 0E       		.uleb128 0xe
 2171 0102 3A       		.uleb128 0x3a
 2172 0103 0B       		.uleb128 0xb
 2173 0104 3B       		.uleb128 0x3b
 2174 0105 05       		.uleb128 0x5
 2175 0106 49       		.uleb128 0x49
 2176 0107 13       		.uleb128 0x13
 2177 0108 38       		.uleb128 0x38
 2178 0109 0A       		.uleb128 0xa
 2179 010a 00       		.byte	0
 2180 010b 00       		.byte	0
 2181 010c 17       		.uleb128 0x17
 2182 010d 0D       		.uleb128 0xd
 2183 010e 00       		.byte	0
 2184 010f 03       		.uleb128 0x3
 2185 0110 08       		.uleb128 0x8
 2186 0111 3A       		.uleb128 0x3a
 2187 0112 0B       		.uleb128 0xb
 2188 0113 3B       		.uleb128 0x3b
 2189 0114 0B       		.uleb128 0xb
 2190 0115 49       		.uleb128 0x49
 2191 0116 13       		.uleb128 0x13
 2192 0117 00       		.byte	0
 2193 0118 00       		.byte	0
 2194 0119 18       		.uleb128 0x18
 2195 011a 04       		.uleb128 0x4
 2196 011b 01       		.byte	0x1
 2197 011c 0B       		.uleb128 0xb
 2198 011d 0B       		.uleb128 0xb
 2199 011e 3A       		.uleb128 0x3a
 2200 011f 0B       		.uleb128 0xb
 2201 0120 3B       		.uleb128 0x3b
 2202 0121 0B       		.uleb128 0xb
 2203 0122 01       		.uleb128 0x1
 2204 0123 13       		.uleb128 0x13
 2205 0124 00       		.byte	0
 2206 0125 00       		.byte	0
 2207 0126 19       		.uleb128 0x19
 2208 0127 28       		.uleb128 0x28
 2209 0128 00       		.byte	0
 2210 0129 03       		.uleb128 0x3
 2211 012a 0E       		.uleb128 0xe
 2212 012b 1C       		.uleb128 0x1c
 2213 012c 0D       		.uleb128 0xd
 2214 012d 00       		.byte	0
ARM GAS  /var/folders/5n/p_75w94d66l9ssrldxqdhh700000gn/T//ccMCLwZc.s 			page 40


 2215 012e 00       		.byte	0
 2216 012f 1A       		.uleb128 0x1a
 2217 0130 01       		.uleb128 0x1
 2218 0131 01       		.byte	0x1
 2219 0132 49       		.uleb128 0x49
 2220 0133 13       		.uleb128 0x13
 2221 0134 01       		.uleb128 0x1
 2222 0135 13       		.uleb128 0x13
 2223 0136 00       		.byte	0
 2224 0137 00       		.byte	0
 2225 0138 1B       		.uleb128 0x1b
 2226 0139 21       		.uleb128 0x21
 2227 013a 00       		.byte	0
 2228 013b 49       		.uleb128 0x49
 2229 013c 13       		.uleb128 0x13
 2230 013d 2F       		.uleb128 0x2f
 2231 013e 0B       		.uleb128 0xb
 2232 013f 00       		.byte	0
 2233 0140 00       		.byte	0
 2234 0141 1C       		.uleb128 0x1c
 2235 0142 2E       		.uleb128 0x2e
 2236 0143 01       		.byte	0x1
 2237 0144 03       		.uleb128 0x3
 2238 0145 0E       		.uleb128 0xe
 2239 0146 3A       		.uleb128 0x3a
 2240 0147 0B       		.uleb128 0xb
 2241 0148 3B       		.uleb128 0x3b
 2242 0149 0B       		.uleb128 0xb
 2243 014a 27       		.uleb128 0x27
 2244 014b 0C       		.uleb128 0xc
 2245 014c 49       		.uleb128 0x49
 2246 014d 13       		.uleb128 0x13
 2247 014e 11       		.uleb128 0x11
 2248 014f 01       		.uleb128 0x1
 2249 0150 12       		.uleb128 0x12
 2250 0151 01       		.uleb128 0x1
 2251 0152 40       		.uleb128 0x40
 2252 0153 06       		.uleb128 0x6
 2253 0154 9742     		.uleb128 0x2117
 2254 0156 0C       		.uleb128 0xc
 2255 0157 01       		.uleb128 0x1
 2256 0158 13       		.uleb128 0x13
 2257 0159 00       		.byte	0
 2258 015a 00       		.byte	0
 2259 015b 1D       		.uleb128 0x1d
 2260 015c 05       		.uleb128 0x5
 2261 015d 00       		.byte	0
 2262 015e 03       		.uleb128 0x3
 2263 015f 08       		.uleb128 0x8
 2264 0160 3A       		.uleb128 0x3a
 2265 0161 0B       		.uleb128 0xb
 2266 0162 3B       		.uleb128 0x3b
 2267 0163 0B       		.uleb128 0xb
 2268 0164 49       		.uleb128 0x49
 2269 0165 13       		.uleb128 0x13
 2270 0166 02       		.uleb128 0x2
 2271 0167 06       		.uleb128 0x6
ARM GAS  /var/folders/5n/p_75w94d66l9ssrldxqdhh700000gn/T//ccMCLwZc.s 			page 41


 2272 0168 00       		.byte	0
 2273 0169 00       		.byte	0
 2274 016a 1E       		.uleb128 0x1e
 2275 016b 898201   		.uleb128 0x4109
 2276 016e 01       		.byte	0x1
 2277 016f 11       		.uleb128 0x11
 2278 0170 01       		.uleb128 0x1
 2279 0171 31       		.uleb128 0x31
 2280 0172 13       		.uleb128 0x13
 2281 0173 01       		.uleb128 0x1
 2282 0174 13       		.uleb128 0x13
 2283 0175 00       		.byte	0
 2284 0176 00       		.byte	0
 2285 0177 1F       		.uleb128 0x1f
 2286 0178 8A8201   		.uleb128 0x410a
 2287 017b 00       		.byte	0
 2288 017c 02       		.uleb128 0x2
 2289 017d 0A       		.uleb128 0xa
 2290 017e 9142     		.uleb128 0x2111
 2291 0180 0A       		.uleb128 0xa
 2292 0181 00       		.byte	0
 2293 0182 00       		.byte	0
 2294 0183 20       		.uleb128 0x20
 2295 0184 898201   		.uleb128 0x4109
 2296 0187 01       		.byte	0x1
 2297 0188 11       		.uleb128 0x11
 2298 0189 01       		.uleb128 0x1
 2299 018a 31       		.uleb128 0x31
 2300 018b 13       		.uleb128 0x13
 2301 018c 00       		.byte	0
 2302 018d 00       		.byte	0
 2303 018e 21       		.uleb128 0x21
 2304 018f 2E       		.uleb128 0x2e
 2305 0190 01       		.byte	0x1
 2306 0191 3F       		.uleb128 0x3f
 2307 0192 0C       		.uleb128 0xc
 2308 0193 03       		.uleb128 0x3
 2309 0194 0E       		.uleb128 0xe
 2310 0195 3A       		.uleb128 0x3a
 2311 0196 0B       		.uleb128 0xb
 2312 0197 3B       		.uleb128 0x3b
 2313 0198 0B       		.uleb128 0xb
 2314 0199 27       		.uleb128 0x27
 2315 019a 0C       		.uleb128 0xc
 2316 019b 49       		.uleb128 0x49
 2317 019c 13       		.uleb128 0x13
 2318 019d 11       		.uleb128 0x11
 2319 019e 01       		.uleb128 0x1
 2320 019f 12       		.uleb128 0x12
 2321 01a0 01       		.uleb128 0x1
 2322 01a1 40       		.uleb128 0x40
 2323 01a2 06       		.uleb128 0x6
 2324 01a3 9742     		.uleb128 0x2117
 2325 01a5 0C       		.uleb128 0xc
 2326 01a6 01       		.uleb128 0x1
 2327 01a7 13       		.uleb128 0x13
 2328 01a8 00       		.byte	0
ARM GAS  /var/folders/5n/p_75w94d66l9ssrldxqdhh700000gn/T//ccMCLwZc.s 			page 42


 2329 01a9 00       		.byte	0
 2330 01aa 22       		.uleb128 0x22
 2331 01ab 898201   		.uleb128 0x4109
 2332 01ae 00       		.byte	0
 2333 01af 11       		.uleb128 0x11
 2334 01b0 01       		.uleb128 0x1
 2335 01b1 31       		.uleb128 0x31
 2336 01b2 13       		.uleb128 0x13
 2337 01b3 00       		.byte	0
 2338 01b4 00       		.byte	0
 2339 01b5 23       		.uleb128 0x23
 2340 01b6 34       		.uleb128 0x34
 2341 01b7 00       		.byte	0
 2342 01b8 03       		.uleb128 0x3
 2343 01b9 0E       		.uleb128 0xe
 2344 01ba 3A       		.uleb128 0x3a
 2345 01bb 0B       		.uleb128 0xb
 2346 01bc 3B       		.uleb128 0x3b
 2347 01bd 0B       		.uleb128 0xb
 2348 01be 49       		.uleb128 0x49
 2349 01bf 13       		.uleb128 0x13
 2350 01c0 02       		.uleb128 0x2
 2351 01c1 0A       		.uleb128 0xa
 2352 01c2 00       		.byte	0
 2353 01c3 00       		.byte	0
 2354 01c4 24       		.uleb128 0x24
 2355 01c5 34       		.uleb128 0x34
 2356 01c6 00       		.byte	0
 2357 01c7 03       		.uleb128 0x3
 2358 01c8 0E       		.uleb128 0xe
 2359 01c9 3A       		.uleb128 0x3a
 2360 01ca 0B       		.uleb128 0xb
 2361 01cb 3B       		.uleb128 0x3b
 2362 01cc 0B       		.uleb128 0xb
 2363 01cd 49       		.uleb128 0x49
 2364 01ce 13       		.uleb128 0x13
 2365 01cf 3F       		.uleb128 0x3f
 2366 01d0 0C       		.uleb128 0xc
 2367 01d1 3C       		.uleb128 0x3c
 2368 01d2 0C       		.uleb128 0xc
 2369 01d3 00       		.byte	0
 2370 01d4 00       		.byte	0
 2371 01d5 25       		.uleb128 0x25
 2372 01d6 34       		.uleb128 0x34
 2373 01d7 00       		.byte	0
 2374 01d8 03       		.uleb128 0x3
 2375 01d9 0E       		.uleb128 0xe
 2376 01da 3A       		.uleb128 0x3a
 2377 01db 0B       		.uleb128 0xb
 2378 01dc 3B       		.uleb128 0x3b
 2379 01dd 05       		.uleb128 0x5
 2380 01de 49       		.uleb128 0x49
 2381 01df 13       		.uleb128 0x13
 2382 01e0 3F       		.uleb128 0x3f
 2383 01e1 0C       		.uleb128 0xc
 2384 01e2 3C       		.uleb128 0x3c
 2385 01e3 0C       		.uleb128 0xc
ARM GAS  /var/folders/5n/p_75w94d66l9ssrldxqdhh700000gn/T//ccMCLwZc.s 			page 43


 2386 01e4 00       		.byte	0
 2387 01e5 00       		.byte	0
 2388 01e6 26       		.uleb128 0x26
 2389 01e7 34       		.uleb128 0x34
 2390 01e8 00       		.byte	0
 2391 01e9 03       		.uleb128 0x3
 2392 01ea 08       		.uleb128 0x8
 2393 01eb 3A       		.uleb128 0x3a
 2394 01ec 0B       		.uleb128 0xb
 2395 01ed 3B       		.uleb128 0x3b
 2396 01ee 05       		.uleb128 0x5
 2397 01ef 49       		.uleb128 0x49
 2398 01f0 13       		.uleb128 0x13
 2399 01f1 3F       		.uleb128 0x3f
 2400 01f2 0C       		.uleb128 0xc
 2401 01f3 3C       		.uleb128 0x3c
 2402 01f4 0C       		.uleb128 0xc
 2403 01f5 00       		.byte	0
 2404 01f6 00       		.byte	0
 2405 01f7 27       		.uleb128 0x27
 2406 01f8 2E       		.uleb128 0x2e
 2407 01f9 01       		.byte	0x1
 2408 01fa 3F       		.uleb128 0x3f
 2409 01fb 0C       		.uleb128 0xc
 2410 01fc 03       		.uleb128 0x3
 2411 01fd 0E       		.uleb128 0xe
 2412 01fe 3A       		.uleb128 0x3a
 2413 01ff 0B       		.uleb128 0xb
 2414 0200 3B       		.uleb128 0x3b
 2415 0201 05       		.uleb128 0x5
 2416 0202 27       		.uleb128 0x27
 2417 0203 0C       		.uleb128 0xc
 2418 0204 3C       		.uleb128 0x3c
 2419 0205 0C       		.uleb128 0xc
 2420 0206 01       		.uleb128 0x1
 2421 0207 13       		.uleb128 0x13
 2422 0208 00       		.byte	0
 2423 0209 00       		.byte	0
 2424 020a 28       		.uleb128 0x28
 2425 020b 2E       		.uleb128 0x2e
 2426 020c 00       		.byte	0
 2427 020d 3F       		.uleb128 0x3f
 2428 020e 0C       		.uleb128 0xc
 2429 020f 03       		.uleb128 0x3
 2430 0210 0E       		.uleb128 0xe
 2431 0211 3A       		.uleb128 0x3a
 2432 0212 0B       		.uleb128 0xb
 2433 0213 3B       		.uleb128 0x3b
 2434 0214 0B       		.uleb128 0xb
 2435 0215 27       		.uleb128 0x27
 2436 0216 0C       		.uleb128 0xc
 2437 0217 3C       		.uleb128 0x3c
 2438 0218 0C       		.uleb128 0xc
 2439 0219 00       		.byte	0
 2440 021a 00       		.byte	0
 2441 021b 29       		.uleb128 0x29
 2442 021c 2E       		.uleb128 0x2e
ARM GAS  /var/folders/5n/p_75w94d66l9ssrldxqdhh700000gn/T//ccMCLwZc.s 			page 44


 2443 021d 01       		.byte	0x1
 2444 021e 3F       		.uleb128 0x3f
 2445 021f 0C       		.uleb128 0xc
 2446 0220 03       		.uleb128 0x3
 2447 0221 0E       		.uleb128 0xe
 2448 0222 3A       		.uleb128 0x3a
 2449 0223 0B       		.uleb128 0xb
 2450 0224 3B       		.uleb128 0x3b
 2451 0225 05       		.uleb128 0x5
 2452 0226 27       		.uleb128 0x27
 2453 0227 0C       		.uleb128 0xc
 2454 0228 49       		.uleb128 0x49
 2455 0229 13       		.uleb128 0x13
 2456 022a 3C       		.uleb128 0x3c
 2457 022b 0C       		.uleb128 0xc
 2458 022c 01       		.uleb128 0x1
 2459 022d 13       		.uleb128 0x13
 2460 022e 00       		.byte	0
 2461 022f 00       		.byte	0
 2462 0230 2A       		.uleb128 0x2a
 2463 0231 2E       		.uleb128 0x2e
 2464 0232 01       		.byte	0x1
 2465 0233 3F       		.uleb128 0x3f
 2466 0234 0C       		.uleb128 0xc
 2467 0235 03       		.uleb128 0x3
 2468 0236 0E       		.uleb128 0xe
 2469 0237 3A       		.uleb128 0x3a
 2470 0238 0B       		.uleb128 0xb
 2471 0239 3B       		.uleb128 0x3b
 2472 023a 0B       		.uleb128 0xb
 2473 023b 27       		.uleb128 0x27
 2474 023c 0C       		.uleb128 0xc
 2475 023d 49       		.uleb128 0x49
 2476 023e 13       		.uleb128 0x13
 2477 023f 3C       		.uleb128 0x3c
 2478 0240 0C       		.uleb128 0xc
 2479 0241 00       		.byte	0
 2480 0242 00       		.byte	0
 2481 0243 00       		.byte	0
 2482              		.section	.debug_loc,"",%progbits
 2483              	.Ldebug_loc0:
 2484              	.LLST0:
 2485 0000 00000000 		.4byte	.LFB117
 2486 0004 08000000 		.4byte	.LCFI0
 2487 0008 0200     		.2byte	0x2
 2488 000a 7D       		.byte	0x7d
 2489 000b 00       		.sleb128 0
 2490 000c 08000000 		.4byte	.LCFI0
 2491 0010 34000000 		.4byte	.LFE117
 2492 0014 0200     		.2byte	0x2
 2493 0016 7D       		.byte	0x7d
 2494 0017 10       		.sleb128 16
 2495 0018 00000000 		.4byte	0
 2496 001c 00000000 		.4byte	0
 2497              	.LLST1:
 2498 0020 00000000 		.4byte	.LVL0
 2499 0024 16000000 		.4byte	.LVL1
ARM GAS  /var/folders/5n/p_75w94d66l9ssrldxqdhh700000gn/T//ccMCLwZc.s 			page 45


 2500 0028 0100     		.2byte	0x1
 2501 002a 50       		.byte	0x50
 2502 002b 16000000 		.4byte	.LVL1
 2503 002f 34000000 		.4byte	.LFE117
 2504 0033 0400     		.2byte	0x4
 2505 0035 F3       		.byte	0xf3
 2506 0036 01       		.uleb128 0x1
 2507 0037 50       		.byte	0x50
 2508 0038 9F       		.byte	0x9f
 2509 0039 00000000 		.4byte	0
 2510 003d 00000000 		.4byte	0
 2511              	.LLST2:
 2512 0041 00000000 		.4byte	.LFB118
 2513 0045 02000000 		.4byte	.LCFI1
 2514 0049 0200     		.2byte	0x2
 2515 004b 7D       		.byte	0x7d
 2516 004c 00       		.sleb128 0
 2517 004d 02000000 		.4byte	.LCFI1
 2518 0051 06000000 		.4byte	.LCFI2
 2519 0055 0200     		.2byte	0x2
 2520 0057 7D       		.byte	0x7d
 2521 0058 08       		.sleb128 8
 2522 0059 06000000 		.4byte	.LCFI2
 2523 005d 84000000 		.4byte	.LFE118
 2524 0061 0200     		.2byte	0x2
 2525 0063 7D       		.byte	0x7d
 2526 0064 10       		.sleb128 16
 2527 0065 00000000 		.4byte	0
 2528 0069 00000000 		.4byte	0
 2529              		.section	.debug_aranges,"",%progbits
 2530 0000 24000000 		.4byte	0x24
 2531 0004 0200     		.2byte	0x2
 2532 0006 00000000 		.4byte	.Ldebug_info0
 2533 000a 04       		.byte	0x4
 2534 000b 00       		.byte	0
 2535 000c 0000     		.2byte	0
 2536 000e 0000     		.2byte	0
 2537 0010 00000000 		.4byte	.LFB117
 2538 0014 34000000 		.4byte	.LFE117-.LFB117
 2539 0018 00000000 		.4byte	.LFB118
 2540 001c 84000000 		.4byte	.LFE118-.LFB118
 2541 0020 00000000 		.4byte	0
 2542 0024 00000000 		.4byte	0
 2543              		.section	.debug_ranges,"",%progbits
 2544              	.Ldebug_ranges0:
 2545 0000 00000000 		.4byte	.LFB117
 2546 0004 34000000 		.4byte	.LFE117
 2547 0008 00000000 		.4byte	.LFB118
 2548 000c 84000000 		.4byte	.LFE118
 2549 0010 00000000 		.4byte	0
 2550 0014 00000000 		.4byte	0
 2551              		.section	.debug_line,"",%progbits
 2552              	.Ldebug_line0:
 2553 0000 05030000 		.section	.debug_str,"MS",%progbits,1
 2553      0200B002 
 2553      00000201 
 2553      FB0E0D00 
ARM GAS  /var/folders/5n/p_75w94d66l9ssrldxqdhh700000gn/T//ccMCLwZc.s 			page 46


 2553      01010101 
 2554              	.LASF74:
 2555 0000 7466756E 		.ascii	"tfunc_t\000"
 2555      635F7400 
 2556              	.LASF118:
 2557 0008 73635F73 		.ascii	"sc_speed\000"
 2557      70656564 
 2557      00
 2558              	.LASF2:
 2559 0011 73697A65 		.ascii	"size_t\000"
 2559      5F7400
 2560              	.LASF69:
 2561 0018 7264796D 		.ascii	"rdymsg\000"
 2561      736700
 2562              	.LASF13:
 2563 001f 75696E74 		.ascii	"uint64_t\000"
 2563      36345F74 
 2563      00
 2564              	.LASF85:
 2565 0028 4F757470 		.ascii	"OutputQueue\000"
 2565      75745175 
 2565      65756500 
 2566              	.LASF98:
 2567 0034 4F545950 		.ascii	"OTYPER\000"
 2567      455200
 2568              	.LASF106:
 2569 003b 696F706F 		.ascii	"ioportmask_t\000"
 2569      72746D61 
 2569      736B5F74 
 2569      00
 2570              	.LASF97:
 2571 0048 4D4F4445 		.ascii	"MODER\000"
 2571      5200
 2572              	.LASF15:
 2573 004e 75696E74 		.ascii	"uint_fast16_t\000"
 2573      5F666173 
 2573      7431365F 
 2573      7400
 2574              	.LASF14:
 2575 005c 6C6F6E67 		.ascii	"long long unsigned int\000"
 2575      206C6F6E 
 2575      6720756E 
 2575      7369676E 
 2575      65642069 
 2576              	.LASF100:
 2577 0073 50555044 		.ascii	"PUPDR\000"
 2577      5200
 2578              	.LASF70:
 2579 0079 65786974 		.ascii	"exitcode\000"
 2579      636F6465 
 2579      00
 2580              	.LASF132:
 2581 0082 49544D5F 		.ascii	"ITM_RxBuffer\000"
 2581      52784275 
 2581      66666572 
 2581      00
 2582              	.LASF28:
ARM GAS  /var/folders/5n/p_75w94d66l9ssrldxqdhh700000gn/T//ccMCLwZc.s 			page 47


 2583 008f 705F7072 		.ascii	"p_prio\000"
 2583      696F00
 2584              	.LASF129:
 2585 0096 72656164 		.ascii	"readt\000"
 2585      7400
 2586              	.LASF76:
 2587 009c 715F7761 		.ascii	"q_waiting\000"
 2587      6974696E 
 2587      6700
 2588              	.LASF12:
 2589 00a6 6C6F6E67 		.ascii	"long long int\000"
 2589      206C6F6E 
 2589      6720696E 
 2589      7400
 2590              	.LASF1:
 2591 00b4 7369676E 		.ascii	"signed char\000"
 2591      65642063 
 2591      68617200 
 2592              	.LASF101:
 2593 00c0 42535252 		.ascii	"BSRR\000"
 2593      00
 2594              	.LASF136:
 2595 00c5 63685379 		.ascii	"chSysInit\000"
 2595      73496E69 
 2595      7400
 2596              	.LASF93:
 2597 00cf 47545052 		.ascii	"GTPR\000"
 2597      00
 2598              	.LASF43:
 2599 00d4 705F6D70 		.ascii	"p_mpool\000"
 2599      6F6F6C00 
 2600              	.LASF16:
 2601 00dc 626F6F6C 		.ascii	"bool_t\000"
 2601      5F7400
 2602              	.LASF60:
 2603 00e3 6D5F7175 		.ascii	"m_queue\000"
 2603      65756500 
 2604              	.LASF114:
 2605 00eb 73746174 		.ascii	"state\000"
 2605      6500
 2606              	.LASF9:
 2607 00f1 6C6F6E67 		.ascii	"long int\000"
 2607      20696E74 
 2607      00
 2608              	.LASF18:
 2609 00fa 74737461 		.ascii	"tstate_t\000"
 2609      74655F74 
 2609      00
 2610              	.LASF35:
 2611 0103 705F7265 		.ascii	"p_refs\000"
 2611      667300
 2612              	.LASF78:
 2613 010a 715F6275 		.ascii	"q_buffer\000"
 2613      66666572 
 2613      00
 2614              	.LASF80:
 2615 0113 715F7772 		.ascii	"q_wrptr\000"
ARM GAS  /var/folders/5n/p_75w94d66l9ssrldxqdhh700000gn/T//ccMCLwZc.s 			page 48


 2615      70747200 
 2616              	.LASF36:
 2617 011b 705F7469 		.ascii	"p_time\000"
 2617      6D6500
 2618              	.LASF30:
 2619 0122 705F6E65 		.ascii	"p_newer\000"
 2619      77657200 
 2620              	.LASF126:
 2621 012a 70757477 		.ascii	"putwouldblock\000"
 2621      6F756C64 
 2621      626C6F63 
 2621      6B00
 2622              	.LASF139:
 2623 0138 54657374 		.ascii	"TestThread\000"
 2623      54687265 
 2623      616400
 2624              	.LASF99:
 2625 0143 4F535045 		.ascii	"OSPEEDR\000"
 2625      45445200 
 2626              	.LASF54:
 2627 014b 725F6E65 		.ascii	"r_newer\000"
 2627      77657200 
 2628              	.LASF46:
 2629 0153 72656761 		.ascii	"regarm_t\000"
 2629      726D5F74 
 2629      00
 2630              	.LASF67:
 2631 015c 4576656E 		.ascii	"EventSource\000"
 2631      74536F75 
 2631      72636500 
 2632              	.LASF24:
 2633 0168 636E745F 		.ascii	"cnt_t\000"
 2633      7400
 2634              	.LASF117:
 2635 016e 75736172 		.ascii	"usart\000"
 2635      7400
 2636              	.LASF0:
 2637 0174 756E7369 		.ascii	"unsigned int\000"
 2637      676E6564 
 2637      20696E74 
 2637      00
 2638              	.LASF6:
 2639 0181 75696E74 		.ascii	"uint16_t\000"
 2639      31365F74 
 2639      00
 2640              	.LASF123:
 2641 018a 53657269 		.ascii	"SerialDriverVMT\000"
 2641      616C4472 
 2641      69766572 
 2641      564D5400 
 2642              	.LASF115:
 2643 019a 69717565 		.ascii	"iqueue\000"
 2643      756500
 2644              	.LASF38:
 2645 01a1 705F6D73 		.ascii	"p_msgqueue\000"
 2645      67717565 
 2645      756500
ARM GAS  /var/folders/5n/p_75w94d66l9ssrldxqdhh700000gn/T//ccMCLwZc.s 			page 49


 2646              	.LASF105:
 2647 01ac 4750494F 		.ascii	"GPIO_TypeDef\000"
 2647      5F547970 
 2647      65446566 
 2647      00
 2648              	.LASF135:
 2649 01b9 68616C49 		.ascii	"halInit\000"
 2649      6E697400 
 2650              	.LASF102:
 2651 01c1 4C434B52 		.ascii	"LCKR\000"
 2651      00
 2652              	.LASF112:
 2653 01c6 6576656E 		.ascii	"event\000"
 2653      7400
 2654              	.LASF7:
 2655 01cc 73686F72 		.ascii	"short unsigned int\000"
 2655      7420756E 
 2655      7369676E 
 2655      65642069 
 2655      6E7400
 2656              	.LASF21:
 2657 01df 6D73675F 		.ascii	"msg_t\000"
 2657      7400
 2658              	.LASF116:
 2659 01e5 6F717565 		.ascii	"oqueue\000"
 2659      756500
 2660              	.LASF95:
 2661 01ec 55534152 		.ascii	"USART_TypeDef\000"
 2661      545F5479 
 2661      70654465 
 2661      6600
 2662              	.LASF128:
 2663 01fa 77726974 		.ascii	"writet\000"
 2663      657400
 2664              	.LASF17:
 2665 0201 746D6F64 		.ascii	"tmode_t\000"
 2665      655F7400 
 2666              	.LASF45:
 2667 0209 54687265 		.ascii	"ThreadsList\000"
 2667      6164734C 
 2667      69737400 
 2668              	.LASF22:
 2669 0215 6576656E 		.ascii	"eventmask_t\000"
 2669      746D6173 
 2669      6B5F7400 
 2670              	.LASF84:
 2671 0221 496E7075 		.ascii	"InputQueue\000"
 2671      74517565 
 2671      756500
 2672              	.LASF83:
 2673 022c 716E6F74 		.ascii	"qnotify_t\000"
 2673      6966795F 
 2673      7400
 2674              	.LASF75:
 2675 0236 47656E65 		.ascii	"GenericQueue\000"
 2675      72696351 
 2675      75657565 
ARM GAS  /var/folders/5n/p_75w94d66l9ssrldxqdhh700000gn/T//ccMCLwZc.s 			page 50


 2675      00
 2676              	.LASF47:
 2677 0243 73746B61 		.ascii	"stkalign_t\000"
 2677      6C69676E 
 2677      5F7400
 2678              	.LASF143:
 2679 024e 54687265 		.ascii	"Thread1\000"
 2679      61643100 
 2680              	.LASF146:
 2681 0256 63685468 		.ascii	"chThdCreateStatic\000"
 2681      64437265 
 2681      61746553 
 2681      74617469 
 2681      6300
 2682              	.LASF124:
 2683 0268 77726974 		.ascii	"write\000"
 2683      6500
 2684              	.LASF50:
 2685 026e 73697A65 		.ascii	"sizetype\000"
 2685      74797065 
 2685      00
 2686              	.LASF96:
 2687 0277 636C6561 		.ascii	"clear\000"
 2687      7200
 2688              	.LASF59:
 2689 027d 4D757465 		.ascii	"Mutex\000"
 2689      7800
 2690              	.LASF31:
 2691 0283 705F6F6C 		.ascii	"p_older\000"
 2691      64657200 
 2692              	.LASF53:
 2693 028b 725F6374 		.ascii	"r_ctx\000"
 2693      7800
 2694              	.LASF44:
 2695 0291 54687265 		.ascii	"ThreadsQueue\000"
 2695      61647351 
 2695      75657565 
 2695      00
 2696              	.LASF140:
 2697 029e 474E5520 		.ascii	"GNU C 4.7.2\000"
 2697      4320342E 
 2697      372E3200 
 2698              	.LASF141:
 2699 02aa 6D61696E 		.ascii	"main.c\000"
 2699      2E6300
 2700              	.LASF55:
 2701 02b1 725F6F6C 		.ascii	"r_older\000"
 2701      64657200 
 2702              	.LASF66:
 2703 02b9 656C5F6D 		.ascii	"el_mask\000"
 2703      61736B00 
 2704              	.LASF137:
 2705 02c1 63685468 		.ascii	"chThdSleep\000"
 2705      64536C65 
 2705      657000
 2706              	.LASF122:
 2707 02cc 53657269 		.ascii	"SerialConfig\000"
ARM GAS  /var/folders/5n/p_75w94d66l9ssrldxqdhh700000gn/T//ccMCLwZc.s 			page 51


 2707      616C436F 
 2707      6E666967 
 2707      00
 2708              	.LASF104:
 2709 02d9 41465248 		.ascii	"AFRH\000"
 2709      00
 2710              	.LASF103:
 2711 02de 4146524C 		.ascii	"AFRL\000"
 2711      00
 2712              	.LASF145:
 2713 02e3 77615468 		.ascii	"waThread1\000"
 2713      72656164 
 2713      3100
 2714              	.LASF19:
 2715 02ed 74726566 		.ascii	"trefs_t\000"
 2715      735F7400 
 2716              	.LASF87:
 2717 02f5 52455345 		.ascii	"RESERVED0\000"
 2717      52564544 
 2717      3000
 2718              	.LASF88:
 2719 02ff 52455345 		.ascii	"RESERVED1\000"
 2719      52564544 
 2719      3100
 2720              	.LASF89:
 2721 0309 52455345 		.ascii	"RESERVED2\000"
 2721      52564544 
 2721      3200
 2722              	.LASF90:
 2723 0313 52455345 		.ascii	"RESERVED3\000"
 2723      52564544 
 2723      3300
 2724              	.LASF91:
 2725 031d 52455345 		.ascii	"RESERVED4\000"
 2725      52564544 
 2725      3400
 2726              	.LASF27:
 2727 0327 705F7072 		.ascii	"p_prev\000"
 2727      657600
 2728              	.LASF94:
 2729 032e 52455345 		.ascii	"RESERVED6\000"
 2729      52564544 
 2729      3600
 2730              	.LASF20:
 2731 0338 74707269 		.ascii	"tprio_t\000"
 2731      6F5F7400 
 2732              	.LASF81:
 2733 0340 715F7264 		.ascii	"q_rdptr\000"
 2733      70747200 
 2734              	.LASF56:
 2735 0348 725F7072 		.ascii	"r_preempt\000"
 2735      65656D70 
 2735      7400
 2736              	.LASF8:
 2737 0352 696E7433 		.ascii	"int32_t\000"
 2737      325F7400 
 2738              	.LASF4:
ARM GAS  /var/folders/5n/p_75w94d66l9ssrldxqdhh700000gn/T//ccMCLwZc.s 			page 52


 2739 035a 756E7369 		.ascii	"unsigned char\000"
 2739      676E6564 
 2739      20636861 
 2739      7200
 2740              	.LASF39:
 2741 0368 705F6D73 		.ascii	"p_msg\000"
 2741      6700
 2742              	.LASF142:
 2743 036e 2F557365 		.ascii	"/Users/sin/Documents/Eclipse/Workspace/ChibiOS_2.4."
 2743      72732F73 
 2743      696E2F44 
 2743      6F63756D 
 2743      656E7473 
 2744 03a1 322F6465 		.ascii	"2/demos/ARMCM4-STM32F407-LWIP\000"
 2744      6D6F732F 
 2744      41524D43 
 2744      4D342D53 
 2744      544D3332 
 2745              	.LASF65:
 2746 03bf 656C5F6C 		.ascii	"el_listener\000"
 2746      69737465 
 2746      6E657200 
 2747              	.LASF41:
 2748 03cb 705F6D74 		.ascii	"p_mtxlist\000"
 2748      786C6973 
 2748      7400
 2749              	.LASF5:
 2750 03d5 73686F72 		.ascii	"short int\000"
 2750      7420696E 
 2750      7400
 2751              	.LASF33:
 2752 03df 705F7374 		.ascii	"p_state\000"
 2752      61746500 
 2753              	.LASF52:
 2754 03e7 725F7072 		.ascii	"r_prio\000"
 2754      696F00
 2755              	.LASF72:
 2756 03ee 65776D61 		.ascii	"ewmask\000"
 2756      736B00
 2757              	.LASF26:
 2758 03f5 705F6E65 		.ascii	"p_next\000"
 2758      787400
 2759              	.LASF34:
 2760 03fc 705F666C 		.ascii	"p_flags\000"
 2760      61677300 
 2761              	.LASF64:
 2762 0404 656C5F6E 		.ascii	"el_next\000"
 2762      65787400 
 2763              	.LASF108:
 2764 040c 53445F53 		.ascii	"SD_STOP\000"
 2764      544F5000 
 2765              	.LASF25:
 2766 0414 54687265 		.ascii	"Thread\000"
 2766      616400
 2767              	.LASF40:
 2768 041b 705F6570 		.ascii	"p_epending\000"
 2768      656E6469 
ARM GAS  /var/folders/5n/p_75w94d66l9ssrldxqdhh700000gn/T//ccMCLwZc.s 			page 53


 2768      6E6700
 2769              	.LASF107:
 2770 0426 53445F55 		.ascii	"SD_UNINIT\000"
 2770      4E494E49 
 2770      5400
 2771              	.LASF92:
 2772 0430 52455345 		.ascii	"RESERVED5\000"
 2772      52564544 
 2772      3500
 2773              	.LASF77:
 2774 043a 715F636F 		.ascii	"q_counter\000"
 2774      756E7465 
 2774      7200
 2775              	.LASF51:
 2776 0444 725F7175 		.ascii	"r_queue\000"
 2776      65756500 
 2777              	.LASF110:
 2778 044c 73647374 		.ascii	"sdstate_t\000"
 2778      6174655F 
 2778      7400
 2779              	.LASF111:
 2780 0456 53657269 		.ascii	"SerialDriver\000"
 2780      616C4472 
 2780      69766572 
 2780      00
 2781              	.LASF11:
 2782 0463 6C6F6E67 		.ascii	"long unsigned int\000"
 2782      20756E73 
 2782      69676E65 
 2782      6420696E 
 2782      7400
 2783              	.LASF57:
 2784 0475 725F6375 		.ascii	"r_current\000"
 2784      7272656E 
 2784      7400
 2785              	.LASF125:
 2786 047f 72656164 		.ascii	"read\000"
 2786      00
 2787              	.LASF73:
 2788 0484 63686172 		.ascii	"char\000"
 2788      00
 2789              	.LASF138:
 2790 0489 73645374 		.ascii	"sdStart\000"
 2790      61727400 
 2791              	.LASF62:
 2792 0491 6D5F6E65 		.ascii	"m_next\000"
 2792      787400
 2793              	.LASF23:
 2794 0498 73797374 		.ascii	"systime_t\000"
 2794      696D655F 
 2794      7400
 2795              	.LASF42:
 2796 04a2 705F7265 		.ascii	"p_realprio\000"
 2796      616C7072 
 2796      696F00
 2797              	.LASF130:
 2798 04ad 67657466 		.ascii	"getflags\000"
ARM GAS  /var/folders/5n/p_75w94d66l9ssrldxqdhh700000gn/T//ccMCLwZc.s 			page 54


 2798      6C616773 
 2798      00
 2799              	.LASF49:
 2800 04b6 636F6E74 		.ascii	"context\000"
 2800      65787400 
 2801              	.LASF86:
 2802 04be 696F666C 		.ascii	"ioflags_t\000"
 2802      6167735F 
 2802      7400
 2803              	.LASF48:
 2804 04c8 696E7463 		.ascii	"intctx\000"
 2804      747800
 2805              	.LASF109:
 2806 04cf 53445F52 		.ascii	"SD_READY\000"
 2806      45414459 
 2806      00
 2807              	.LASF10:
 2808 04d8 75696E74 		.ascii	"uint32_t\000"
 2808      33325F74 
 2808      00
 2809              	.LASF79:
 2810 04e1 715F746F 		.ascii	"q_top\000"
 2810      7000
 2811              	.LASF32:
 2812 04e7 705F6E61 		.ascii	"p_name\000"
 2812      6D6500
 2813              	.LASF68:
 2814 04ee 65735F6E 		.ascii	"es_next\000"
 2814      65787400 
 2815              	.LASF58:
 2816 04f6 52656164 		.ascii	"ReadyList\000"
 2816      794C6973 
 2816      7400
 2817              	.LASF82:
 2818 0500 715F6E6F 		.ascii	"q_notify\000"
 2818      74696679 
 2818      00
 2819              	.LASF131:
 2820 0509 726C6973 		.ascii	"rlist\000"
 2820      7400
 2821              	.LASF3:
 2822 050f 75696E74 		.ascii	"uint8_t\000"
 2822      385F7400 
 2823              	.LASF113:
 2824 0517 666C6167 		.ascii	"flags\000"
 2824      7300
 2825              	.LASF63:
 2826 051d 4576656E 		.ascii	"EventListener\000"
 2826      744C6973 
 2826      74656E65 
 2826      7200
 2827              	.LASF71:
 2828 052b 77746F62 		.ascii	"wtobjp\000"
 2828      6A7000
 2829              	.LASF133:
 2830 0532 77615F6C 		.ascii	"wa_lwip_thread\000"
 2830      7769705F 
ARM GAS  /var/folders/5n/p_75w94d66l9ssrldxqdhh700000gn/T//ccMCLwZc.s 			page 55


 2830      74687265 
 2830      616400
 2831              	.LASF127:
 2832 0541 67657477 		.ascii	"getwouldblock\000"
 2832      6F756C64 
 2832      626C6F63 
 2832      6B00
 2833              	.LASF119:
 2834 054f 73635F63 		.ascii	"sc_cr1\000"
 2834      723100
 2835              	.LASF120:
 2836 0556 73635F63 		.ascii	"sc_cr2\000"
 2836      723200
 2837              	.LASF121:
 2838 055d 73635F63 		.ascii	"sc_cr3\000"
 2838      723300
 2839              	.LASF144:
 2840 0564 6D61696E 		.ascii	"main\000"
 2840      00
 2841              	.LASF61:
 2842 0569 6D5F6F77 		.ascii	"m_owner\000"
 2842      6E657200 
 2843              	.LASF29:
 2844 0571 705F6374 		.ascii	"p_ctx\000"
 2844      7800
 2845              	.LASF37:
 2846 0577 705F7761 		.ascii	"p_waiting\000"
 2846      6974696E 
 2846      6700
 2847              	.LASF134:
 2848 0581 77615F68 		.ascii	"wa_http_server\000"
 2848      7474705F 
 2848      73657276 
 2848      657200
 2849              		.ident	"GCC: (GNU) 4.7.2"
ARM GAS  /var/folders/5n/p_75w94d66l9ssrldxqdhh700000gn/T//ccMCLwZc.s 			page 56


DEFINED SYMBOLS
                            *ABS*:0000000000000000 main.c
/var/folders/5n/p_75w94d66l9ssrldxqdhh700000gn/T//ccMCLwZc.s:19     .text.Thread1:0000000000000000 $t
/var/folders/5n/p_75w94d66l9ssrldxqdhh700000gn/T//ccMCLwZc.s:24     .text.Thread1:0000000000000000 Thread1
/var/folders/5n/p_75w94d66l9ssrldxqdhh700000gn/T//ccMCLwZc.s:70     .text.Thread1:000000000000002c $d
/var/folders/5n/p_75w94d66l9ssrldxqdhh700000gn/T//ccMCLwZc.s:76     .text.startup.main:0000000000000000 $t
/var/folders/5n/p_75w94d66l9ssrldxqdhh700000gn/T//ccMCLwZc.s:82     .text.startup.main:0000000000000000 main
/var/folders/5n/p_75w94d66l9ssrldxqdhh700000gn/T//ccMCLwZc.s:158    .text.startup.main:0000000000000068 $d
/var/folders/5n/p_75w94d66l9ssrldxqdhh700000gn/T//ccMCLwZc.s:169    .bss.waThread1:0000000000000000 $d
/var/folders/5n/p_75w94d66l9ssrldxqdhh700000gn/T//ccMCLwZc.s:173    .bss.waThread1:0000000000000000 waThread1
/var/folders/5n/p_75w94d66l9ssrldxqdhh700000gn/T//ccMCLwZc.s:176    .rodata.str1.4:0000000000000000 $d
                     .debug_frame:0000000000000010 $d
/var/folders/5n/p_75w94d66l9ssrldxqdhh700000gn/T//ccMCLwZc.s:75     .text.Thread1:0000000000000034 $t
/var/folders/5n/p_75w94d66l9ssrldxqdhh700000gn/T//ccMCLwZc.s:168    .text.startup.main:0000000000000084 $t

UNDEFINED SYMBOLS
chThdSleep
rlist
halInit
chSysInit
sdStart
chThdCreateStatic
TestThread
SD6
lwip_thread
wa_lwip_thread
wa_http_server
http_server
