ARM GAS  /var/folders/5n/p_75w94d66l9ssrldxqdhh700000gn/T//ccszYPrJ.s 			page 1


   1              		.syntax unified
   2              		.cpu cortex-m4
   3              		.fpu softvfp
   4              		.eabi_attribute 20, 1
   5              		.eabi_attribute 21, 1
   6              		.eabi_attribute 23, 3
   7              		.eabi_attribute 24, 1
   8              		.eabi_attribute 25, 1
   9              		.eabi_attribute 26, 1
  10              		.eabi_attribute 30, 2
  11              		.eabi_attribute 34, 1
  12              		.eabi_attribute 18, 4
  13              		.thumb
  14              		.file	"memp.c"
  15              		.text
  16              	.Ltext0:
  17              		.cfi_sections	.debug_frame
  18              		.section	.text.memp_init,"ax",%progbits
  19              		.align	2
  20              		.p2align 4,,15
  21              		.global	memp_init
  22              		.thumb
  23              		.thumb_func
  24              		.type	memp_init, %function
  25              	memp_init:
  26              	.LFB7:
  27              		.file 1 "../../ext/lwip-1.4.0/src/core/memp.c"
  28              		.loc 1 338 0
  29              		.cfi_startproc
  30              		@ args = 0, pretend = 0, frame = 0
  31              		@ frame_needed = 0, uses_anonymous_args = 0
  32              		@ link register save eliminated.
  33              	.LVL0:
  34 0000 214B     		ldr	r3, .L13
  35 0002 2249     		ldr	r1, .L13+4
  36 0004 2DE9F00F 		push	{r4, r5, r6, r7, r8, r9, sl, fp}
  37              	.LCFI0:
  38              		.cfi_def_cfa_offset 32
  39              		.cfi_offset 4, -32
  40              		.cfi_offset 5, -28
  41              		.cfi_offset 6, -24
  42              		.cfi_offset 7, -20
  43              		.cfi_offset 8, -16
  44              		.cfi_offset 9, -12
  45              		.cfi_offset 10, -8
  46              		.cfi_offset 11, -4
  47              		.loc 1 343 0
  48 0008 0022     		movs	r2, #0
  49              		.loc 1 337 0
  50 000a 03F18C04 		add	r4, r3, #140
  51              	.LVL1:
  52              	.L2:
  53              		.loc 1 346 0 discriminator 2
  54 000e 31F8020F 		ldrh	r0, [r1, #2]!
  55              		.loc 1 343 0 discriminator 2
  56 0012 A3F8B420 		strh	r2, [r3, #180]	@ movhi
  57              		.loc 1 344 0 discriminator 2
ARM GAS  /var/folders/5n/p_75w94d66l9ssrldxqdhh700000gn/T//ccszYPrJ.s 			page 2


  58 0016 A3F8B620 		strh	r2, [r3, #182]	@ movhi
  59              		.loc 1 345 0 discriminator 2
  60 001a A3F8B820 		strh	r2, [r3, #184]	@ movhi
  61              		.loc 1 346 0 discriminator 2
  62 001e A3F8B200 		strh	r0, [r3, #178]	@ movhi
  63 0022 0A33     		adds	r3, r3, #10
  64              		.loc 1 342 0 discriminator 2
  65 0024 A342     		cmp	r3, r4
  66 0026 F2D1     		bne	.L2
  67 0028 194E     		ldr	r6, .L13+8
  68              		.loc 1 350 0
  69 002a 1A4F     		ldr	r7, .L13+12
  70 002c DFF86890 		ldr	r9, .L13+16
  71 0030 DFF868A0 		ldr	sl, .L13+20
  72              		.loc 1 337 0
  73 0034 0025     		movs	r5, #0
  74              		.loc 1 350 0
  75 0036 27F00307 		bic	r7, r7, #3
  76              	.LVL2:
  77              		.loc 1 337 0
  78 003a 06F13808 		add	r8, r6, #56
  79              		.loc 1 354 0
  80 003e AC46     		mov	ip, r5
  81              	.LVL3:
  82              	.L5:
  83              		.loc 1 359 0
  84 0040 39F80540 		ldrh	r4, [r9, r5]
  85              		.loc 1 354 0
  86 0044 46F804CB 		str	ip, [r6], #4
  87              	.LVL4:
  88              		.loc 1 359 0
  89 0048 BCB1     		cbz	r4, .L3
  90 004a 0021     		movs	r1, #0
  91 004c 35F80A00 		ldrh	r0, [r5, sl]
  92 0050 3B46     		mov	r3, r7
  93 0052 0A46     		mov	r2, r1
  94 0054 00E0     		b	.L4
  95              	.LVL5:
  96              	.L6:
  97              		.loc 1 362 0
  98 0056 5B46     		mov	r3, fp
  99              	.LVL6:
 100              	.L4:
 101              		.loc 1 359 0 discriminator 2
 102 0058 0132     		adds	r2, r2, #1
 103 005a 92B2     		uxth	r2, r2
 104 005c A242     		cmp	r2, r4
 105              		.loc 1 360 0 discriminator 2
 106 005e 1960     		str	r1, [r3, #0]
 107              		.loc 1 362 0 discriminator 2
 108 0060 03EB000B 		add	fp, r3, r0
 109              	.LVL7:
 110 0064 1946     		mov	r1, r3
 111              		.loc 1 359 0 discriminator 2
 112 0066 F6D1     		bne	.L6
 113              		.loc 1 337 0
 114 0068 013A     		subs	r2, r2, #1
ARM GAS  /var/folders/5n/p_75w94d66l9ssrldxqdhh700000gn/T//ccszYPrJ.s 			page 3


 115              	.LVL8:
 116 006a 92B2     		uxth	r2, r2
 117              	.LVL9:
 118 006c 00FB0273 		mla	r3, r0, r2, r7
 119 0070 02FB0000 		mla	r0, r2, r0, r0
 120 0074 46F8043C 		str	r3, [r6, #-4]
 121              		.loc 1 362 0
 122 0078 3F18     		adds	r7, r7, r0
 123              	.LVL10:
 124              	.L3:
 125 007a 0235     		adds	r5, r5, #2
 126              		.loc 1 353 0
 127 007c 4645     		cmp	r6, r8
 128 007e DFD1     		bne	.L5
 129              		.loc 1 374 0
 130 0080 BDE8F00F 		pop	{r4, r5, r6, r7, r8, r9, sl, fp}
 131 0084 7047     		bx	lr
 132              	.L14:
 133 0086 00BF     		.align	2
 134              	.L13:
 135 0088 00000000 		.word	lwip_stats
 136 008c FEFFFFFF 		.word	.LANCHOR0-2
 137 0090 00000000 		.word	.LANCHOR2
 138 0094 03000000 		.word	.LANCHOR1+3
 139 0098 00000000 		.word	.LANCHOR0
 140 009c 00000000 		.word	.LANCHOR3
 141              		.cfi_endproc
 142              	.LFE7:
 143              		.size	memp_init, .-memp_init
 144              		.section	.text.memp_malloc,"ax",%progbits
 145              		.align	2
 146              		.p2align 4,,15
 147              		.global	memp_malloc
 148              		.thumb
 149              		.thumb_func
 150              		.type	memp_malloc, %function
 151              	memp_malloc:
 152              	.LFB8:
 153              		.loc 1 393 0
 154              		.cfi_startproc
 155              		@ args = 0, pretend = 0, frame = 0
 156              		@ frame_needed = 0, uses_anonymous_args = 0
 157              	.LVL11:
 158              		.loc 1 397 0
 159 0000 0D28     		cmp	r0, #13
 160              		.loc 1 393 0
 161 0002 38B5     		push	{r3, r4, r5, lr}
 162              	.LCFI1:
 163              		.cfi_def_cfa_offset 16
 164              		.cfi_offset 3, -16
 165              		.cfi_offset 4, -12
 166              		.cfi_offset 5, -8
 167              		.cfi_offset 14, -4
 168              		.loc 1 397 0
 169 0004 2BD8     		bhi	.L23
 170              		.loc 1 404 0
 171 0006 184A     		ldr	r2, .L25
ARM GAS  /var/folders/5n/p_75w94d66l9ssrldxqdhh700000gn/T//ccszYPrJ.s 			page 4


 172 0008 52F82040 		ldr	r4, [r2, r0, lsl #2]
 173              	.LVL12:
 174              		.loc 1 406 0
 175 000c DCB1     		cbz	r4, .L18
 176              		.loc 1 413 0
 177 000e 174B     		ldr	r3, .L25+4
 178              		.loc 1 407 0
 179 0010 2168     		ldr	r1, [r4, #0]
 180              		.loc 1 413 0
 181 0012 00EB8005 		add	r5, r0, r0, lsl #2
 182 0016 03EB4503 		add	r3, r3, r5, lsl #1
 183              		.loc 1 407 0
 184 001a 42F82010 		str	r1, [r2, r0, lsl #2]
 185              		.loc 1 413 0
 186 001e B3F8B420 		ldrh	r2, [r3, #180]
 187 0022 B3F8B610 		ldrh	r1, [r3, #182]
 188 0026 0132     		adds	r2, r2, #1
 189 0028 92B2     		uxth	r2, r2
 190 002a 9142     		cmp	r1, r2
 191 002c A3F8B420 		strh	r2, [r3, #180]	@ movhi
 192 0030 38BF     		it	cc
 193 0032 A3F8B620 		strhcc	r2, [r3, #182]	@ movhi
 194              		.loc 1 414 0
 195 0036 A307     		lsls	r3, r4, #30
 196 0038 01D1     		bne	.L24
 197              	.LVL13:
 198              	.L17:
 199              		.loc 1 425 0
 200 003a 2046     		mov	r0, r4
 201 003c 38BD     		pop	{r3, r4, r5, pc}
 202              	.LVL14:
 203              	.L24:
 204              		.loc 1 414 0 discriminator 1
 205 003e FFF7FEFF 		bl	port_halt
 206              	.LVL15:
 207              		.loc 1 425 0 discriminator 1
 208 0042 2046     		mov	r0, r4
 209 0044 38BD     		pop	{r3, r4, r5, pc}
 210              	.LVL16:
 211              	.L18:
 212              		.loc 1 419 0
 213 0046 094B     		ldr	r3, .L25+4
 214 0048 00EB8000 		add	r0, r0, r0, lsl #2
 215              	.LVL17:
 216 004c 03EB4000 		add	r0, r3, r0, lsl #1
 217 0050 B0F8B830 		ldrh	r3, [r0, #184]
 218 0054 0133     		adds	r3, r3, #1
 219 0056 A0F8B830 		strh	r3, [r0, #184]	@ movhi
 220              		.loc 1 425 0
 221 005a 2046     		mov	r0, r4
 222 005c 38BD     		pop	{r3, r4, r5, pc}
 223              	.LVL18:
 224              	.L23:
 225              		.loc 1 397 0 discriminator 1
 226 005e FFF7FEFF 		bl	port_halt
 227              	.LVL19:
 228 0062 0024     		movs	r4, #0
ARM GAS  /var/folders/5n/p_75w94d66l9ssrldxqdhh700000gn/T//ccszYPrJ.s 			page 5


 229 0064 E9E7     		b	.L17
 230              	.L26:
 231 0066 00BF     		.align	2
 232              	.L25:
 233 0068 00000000 		.word	.LANCHOR2
 234 006c 00000000 		.word	lwip_stats
 235              		.cfi_endproc
 236              	.LFE8:
 237              		.size	memp_malloc, .-memp_malloc
 238              		.section	.text.memp_free,"ax",%progbits
 239              		.align	2
 240              		.p2align 4,,15
 241              		.global	memp_free
 242              		.thumb
 243              		.thumb_func
 244              		.type	memp_free, %function
 245              	memp_free:
 246              	.LFB9:
 247              		.loc 1 435 0
 248              		.cfi_startproc
 249              		@ args = 0, pretend = 0, frame = 0
 250              		@ frame_needed = 0, uses_anonymous_args = 0
 251              	.LVL20:
 252 0000 38B5     		push	{r3, r4, r5, lr}
 253              	.LCFI2:
 254              		.cfi_def_cfa_offset 16
 255              		.cfi_offset 3, -16
 256              		.cfi_offset 4, -12
 257              		.cfi_offset 5, -8
 258              		.cfi_offset 14, -4
 259              		.loc 1 439 0
 260 0002 0C46     		mov	r4, r1
 261              		.loc 1 435 0
 262 0004 0546     		mov	r5, r0
 263              		.loc 1 439 0
 264 0006 89B1     		cbz	r1, .L27
 265              		.loc 1 442 0
 266 0008 8A07     		lsls	r2, r1, #30
 267 000a 10D1     		bne	.L36
 268              	.LVL21:
 269              	.L29:
 270              		.loc 1 457 0
 271 000c 094A     		ldr	r2, .L37
 272              		.loc 1 459 0
 273 000e 0A4B     		ldr	r3, .L37+4
 274              		.loc 1 457 0
 275 0010 05EB8501 		add	r1, r5, r5, lsl #2
 276 0014 02EB4102 		add	r2, r2, r1, lsl #1
 277              		.loc 1 459 0
 278 0018 53F82510 		ldr	r1, [r3, r5, lsl #2]
 279              		.loc 1 457 0
 280 001c B2F8B400 		ldrh	r0, [r2, #180]
 281 0020 0138     		subs	r0, r0, #1
 282 0022 A2F8B400 		strh	r0, [r2, #180]	@ movhi
 283              		.loc 1 459 0
 284 0026 2160     		str	r1, [r4, #0]
 285              		.loc 1 460 0
ARM GAS  /var/folders/5n/p_75w94d66l9ssrldxqdhh700000gn/T//ccszYPrJ.s 			page 6


 286 0028 43F82540 		str	r4, [r3, r5, lsl #2]
 287              	.LVL22:
 288              	.L27:
 289 002c 38BD     		pop	{r3, r4, r5, pc}
 290              	.LVL23:
 291              	.L36:
 292              		.loc 1 442 0 discriminator 1
 293 002e FFF7FEFF 		bl	port_halt
 294              	.LVL24:
 295 0032 EBE7     		b	.L29
 296              	.L38:
 297              		.align	2
 298              	.L37:
 299 0034 00000000 		.word	lwip_stats
 300 0038 00000000 		.word	.LANCHOR2
 301              		.cfi_endproc
 302              	.LFE9:
 303              		.size	memp_free, .-memp_free
 304 003c AFF30080 		.section	.rodata.memp_num,"a",%progbits
 305              		.align	2
 306              		.set	.LANCHOR0,. + 0
 307              		.type	memp_num, %object
 308              		.size	memp_num, 28
 309              	memp_num:
 310 0000 0400     		.short	4
 311 0002 0400     		.short	4
 312 0004 0500     		.short	5
 313 0006 0800     		.short	8
 314 0008 1000     		.short	16
 315 000a 0500     		.short	5
 316 000c 0F00     		.short	15
 317 000e 0200     		.short	2
 318 0010 0400     		.short	4
 319 0012 0800     		.short	8
 320 0014 0800     		.short	8
 321 0016 0300     		.short	3
 322 0018 1000     		.short	16
 323 001a 1000     		.short	16
 324              		.section	.bss.memp_memory,"aw",%nobits
 325              		.align	2
 326              		.set	.LANCHOR1,. + 0
 327              		.type	memp_memory, %object
 328              		.size	memp_memory, 12655
 329              	memp_memory:
 330 0000 00000000 		.space	12655
 330      00000000 
 330      00000000 
 330      00000000 
 330      00000000 
 331 316f 00       		.section	.bss.memp_tab,"aw",%nobits
 332              		.align	2
 333              		.set	.LANCHOR2,. + 0
 334              		.type	memp_tab, %object
 335              		.size	memp_tab, 56
 336              	memp_tab:
 337 0000 00000000 		.space	56
 337      00000000 
ARM GAS  /var/folders/5n/p_75w94d66l9ssrldxqdhh700000gn/T//ccszYPrJ.s 			page 7


 337      00000000 
 337      00000000 
 337      00000000 
 338              		.section	.rodata.memp_sizes,"a",%progbits
 339              		.align	2
 340              		.set	.LANCHOR3,. + 0
 341              		.type	memp_sizes, %object
 342              		.size	memp_sizes, 28
 343              	memp_sizes:
 344 0000 1C00     		.short	28
 345 0002 2000     		.short	32
 346 0004 A400     		.short	164
 347 0006 2000     		.short	32
 348 0008 1000     		.short	16
 349 000a 2000     		.short	32
 350 000c 1800     		.short	24
 351 000e 1000     		.short	16
 352 0010 2C00     		.short	44
 353 0012 1400     		.short	20
 354 0014 1400     		.short	20
 355 0016 1000     		.short	16
 356 0018 1000     		.short	16
 357 001a 6002     		.short	608
 358              		.text
 359              	.Letext0:
 360              		.file 2 "/usr/local/cross/lib/gcc/arm-none-eabi/4.7.2/../../../../arm-none-eabi/include/stdint.h"
 361              		.file 3 "../../os/various/lwip_bindings/arch/cc.h"
 362              		.file 4 "../../ext/lwip-1.4.0/src/include/lwip/memp.h"
 363              		.file 5 "../../ext/lwip-1.4.0/src/include/lwip/mem.h"
 364              		.file 6 "../../ext/lwip-1.4.0/src/include/lwip/stats.h"
 365              		.file 7 "../../os/ports/GCC/ARMCMx/chcore_v7m.h"
 366              		.section	.debug_info,"",%progbits
 367              	.Ldebug_info0:
 368 0000 00050000 		.4byte	0x500
 369 0004 0200     		.2byte	0x2
 370 0006 00000000 		.4byte	.Ldebug_abbrev0
 371 000a 04       		.byte	0x4
 372 000b 01       		.uleb128 0x1
 373 000c DB010000 		.4byte	.LASF67
 374 0010 01       		.byte	0x1
 375 0011 1B020000 		.4byte	.LASF68
 376 0015 8C000000 		.4byte	.LASF69
 377 0019 00000000 		.4byte	.Ldebug_ranges0+0
 378 001d 00000000 		.4byte	0
 379 0021 00000000 		.4byte	0
 380 0025 00000000 		.4byte	.Ldebug_line0
 381 0029 02       		.uleb128 0x2
 382 002a 04       		.byte	0x4
 383 002b 05       		.byte	0x5
 384 002c 696E7400 		.ascii	"int\000"
 385 0030 03       		.uleb128 0x3
 386 0031 04       		.byte	0x4
 387 0032 07       		.byte	0x7
 388 0033 1E030000 		.4byte	.LASF0
 389 0037 03       		.uleb128 0x3
 390 0038 01       		.byte	0x1
 391 0039 06       		.byte	0x6
ARM GAS  /var/folders/5n/p_75w94d66l9ssrldxqdhh700000gn/T//ccszYPrJ.s 			page 8


 392 003a 91010000 		.4byte	.LASF1
 393 003e 04       		.uleb128 0x4
 394 003f 04010000 		.4byte	.LASF4
 395 0043 02       		.byte	0x2
 396 0044 2A       		.byte	0x2a
 397 0045 49000000 		.4byte	0x49
 398 0049 03       		.uleb128 0x3
 399 004a 01       		.byte	0x1
 400 004b 08       		.byte	0x8
 401 004c 7A010000 		.4byte	.LASF2
 402 0050 03       		.uleb128 0x3
 403 0051 02       		.byte	0x2
 404 0052 05       		.byte	0x5
 405 0053 29000000 		.4byte	.LASF3
 406 0057 04       		.uleb128 0x4
 407 0058 C7010000 		.4byte	.LASF5
 408 005c 02       		.byte	0x2
 409 005d 36       		.byte	0x36
 410 005e 62000000 		.4byte	0x62
 411 0062 03       		.uleb128 0x3
 412 0063 02       		.byte	0x2
 413 0064 07       		.byte	0x7
 414 0065 F4010000 		.4byte	.LASF6
 415 0069 03       		.uleb128 0x3
 416 006a 04       		.byte	0x4
 417 006b 05       		.byte	0x5
 418 006c 50010000 		.4byte	.LASF7
 419 0070 04       		.uleb128 0x4
 420 0071 BE010000 		.4byte	.LASF8
 421 0075 02       		.byte	0x2
 422 0076 50       		.byte	0x50
 423 0077 7B000000 		.4byte	0x7b
 424 007b 03       		.uleb128 0x3
 425 007c 04       		.byte	0x4
 426 007d 07       		.byte	0x7
 427 007e 95020000 		.4byte	.LASF9
 428 0082 03       		.uleb128 0x3
 429 0083 08       		.byte	0x8
 430 0084 05       		.byte	0x5
 431 0085 42010000 		.4byte	.LASF10
 432 0089 03       		.uleb128 0x3
 433 008a 08       		.byte	0x8
 434 008b 07       		.byte	0x7
 435 008c A7010000 		.4byte	.LASF11
 436 0090 05       		.uleb128 0x5
 437 0091 04       		.byte	0x4
 438 0092 03       		.uleb128 0x3
 439 0093 04       		.byte	0x4
 440 0094 07       		.byte	0x7
 441 0095 53000000 		.4byte	.LASF12
 442 0099 03       		.uleb128 0x3
 443 009a 01       		.byte	0x1
 444 009b 08       		.byte	0x8
 445 009c 16020000 		.4byte	.LASF13
 446 00a0 04       		.uleb128 0x4
 447 00a1 BF020000 		.4byte	.LASF14
 448 00a5 03       		.byte	0x3
ARM GAS  /var/folders/5n/p_75w94d66l9ssrldxqdhh700000gn/T//ccszYPrJ.s 			page 9


 449 00a6 43       		.byte	0x43
 450 00a7 3E000000 		.4byte	0x3e
 451 00ab 04       		.uleb128 0x4
 452 00ac C4020000 		.4byte	.LASF15
 453 00b0 03       		.byte	0x3
 454 00b1 45       		.byte	0x45
 455 00b2 57000000 		.4byte	0x57
 456 00b6 04       		.uleb128 0x4
 457 00b7 33010000 		.4byte	.LASF16
 458 00bb 03       		.byte	0x3
 459 00bc 49       		.byte	0x49
 460 00bd 70000000 		.4byte	0x70
 461 00c1 06       		.uleb128 0x6
 462 00c2 01       		.byte	0x1
 463 00c3 04       		.byte	0x4
 464 00c4 2B       		.byte	0x2b
 465 00c5 24010000 		.4byte	0x124
 466 00c9 07       		.uleb128 0x7
 467 00ca AC020000 		.4byte	.LASF17
 468 00ce 00       		.sleb128 0
 469 00cf 07       		.uleb128 0x7
 470 00d0 11030000 		.4byte	.LASF18
 471 00d4 01       		.sleb128 1
 472 00d5 07       		.uleb128 0x7
 473 00d6 F1020000 		.4byte	.LASF19
 474 00da 02       		.sleb128 2
 475 00db 07       		.uleb128 0x7
 476 00dc 1F010000 		.4byte	.LASF20
 477 00e0 03       		.sleb128 3
 478 00e1 07       		.uleb128 0x7
 479 00e2 3A000000 		.4byte	.LASF21
 480 00e6 04       		.sleb128 4
 481 00e7 07       		.uleb128 0x7
 482 00e8 07020000 		.4byte	.LASF22
 483 00ec 05       		.sleb128 5
 484 00ed 07       		.uleb128 0x7
 485 00ee F5000000 		.4byte	.LASF23
 486 00f2 06       		.sleb128 6
 487 00f3 07       		.uleb128 0x7
 488 00f4 3E030000 		.4byte	.LASF24
 489 00f8 07       		.sleb128 7
 490 00f9 07       		.uleb128 0x7
 491 00fa E4020000 		.4byte	.LASF25
 492 00fe 08       		.sleb128 8
 493 00ff 07       		.uleb128 0x7
 494 0100 45020000 		.4byte	.LASF26
 495 0104 09       		.sleb128 9
 496 0105 07       		.uleb128 0x7
 497 0106 6D000000 		.4byte	.LASF27
 498 010a 0A       		.sleb128 10
 499 010b 07       		.uleb128 0x7
 500 010c E4000000 		.4byte	.LASF28
 501 0110 0B       		.sleb128 11
 502 0111 07       		.uleb128 0x7
 503 0112 78020000 		.4byte	.LASF29
 504 0116 0C       		.sleb128 12
 505 0117 07       		.uleb128 0x7
ARM GAS  /var/folders/5n/p_75w94d66l9ssrldxqdhh700000gn/T//ccszYPrJ.s 			page 10


 506 0118 CA020000 		.4byte	.LASF30
 507 011c 0D       		.sleb128 13
 508 011d 07       		.uleb128 0x7
 509 011e 88010000 		.4byte	.LASF31
 510 0122 0E       		.sleb128 14
 511 0123 00       		.byte	0
 512 0124 04       		.uleb128 0x4
 513 0125 33000000 		.4byte	.LASF32
 514 0129 04       		.byte	0x4
 515 012a 2F       		.byte	0x2f
 516 012b C1000000 		.4byte	0xc1
 517 012f 04       		.uleb128 0x4
 518 0130 63010000 		.4byte	.LASF33
 519 0134 05       		.byte	0x5
 520 0135 4B       		.byte	0x4b
 521 0136 AB000000 		.4byte	0xab
 522 013a 08       		.uleb128 0x8
 523 013b 47000000 		.4byte	.LASF44
 524 013f 18       		.byte	0x18
 525 0140 06       		.byte	0x6
 526 0141 3A       		.byte	0x3a
 527 0142 EE010000 		.4byte	0x1ee
 528 0146 09       		.uleb128 0x9
 529 0147 68000000 		.4byte	.LASF34
 530 014b 06       		.byte	0x6
 531 014c 3B       		.byte	0x3b
 532 014d AB000000 		.4byte	0xab
 533 0151 02       		.byte	0x2
 534 0152 23       		.byte	0x23
 535 0153 00       		.uleb128 0
 536 0154 09       		.uleb128 0x9
 537 0155 82020000 		.4byte	.LASF35
 538 0159 06       		.byte	0x6
 539 015a 3C       		.byte	0x3c
 540 015b AB000000 		.4byte	0xab
 541 015f 02       		.byte	0x2
 542 0160 23       		.byte	0x23
 543 0161 02       		.uleb128 0x2
 544 0162 0A       		.uleb128 0xa
 545 0163 667700   		.ascii	"fw\000"
 546 0166 06       		.byte	0x6
 547 0167 3D       		.byte	0x3d
 548 0168 AB000000 		.4byte	0xab
 549 016c 02       		.byte	0x2
 550 016d 23       		.byte	0x23
 551 016e 04       		.uleb128 0x4
 552 016f 09       		.uleb128 0x9
 553 0170 75010000 		.4byte	.LASF36
 554 0174 06       		.byte	0x6
 555 0175 3E       		.byte	0x3e
 556 0176 AB000000 		.4byte	0xab
 557 017a 02       		.byte	0x2
 558 017b 23       		.byte	0x23
 559 017c 06       		.uleb128 0x6
 560 017d 09       		.uleb128 0x9
 561 017e 10000000 		.4byte	.LASF37
 562 0182 06       		.byte	0x6
ARM GAS  /var/folders/5n/p_75w94d66l9ssrldxqdhh700000gn/T//ccszYPrJ.s 			page 11


 563 0183 3F       		.byte	0x3f
 564 0184 AB000000 		.4byte	0xab
 565 0188 02       		.byte	0x2
 566 0189 23       		.byte	0x23
 567 018a 08       		.uleb128 0x8
 568 018b 09       		.uleb128 0x9
 569 018c DD000000 		.4byte	.LASF38
 570 0190 06       		.byte	0x6
 571 0191 40       		.byte	0x40
 572 0192 AB000000 		.4byte	0xab
 573 0196 02       		.byte	0x2
 574 0197 23       		.byte	0x23
 575 0198 0A       		.uleb128 0xa
 576 0199 09       		.uleb128 0x9
 577 019a 6E010000 		.4byte	.LASF39
 578 019e 06       		.byte	0x6
 579 019f 41       		.byte	0x41
 580 01a0 AB000000 		.4byte	0xab
 581 01a4 02       		.byte	0x2
 582 01a5 23       		.byte	0x23
 583 01a6 0C       		.uleb128 0xc
 584 01a7 09       		.uleb128 0x9
 585 01a8 B9020000 		.4byte	.LASF40
 586 01ac 06       		.byte	0x6
 587 01ad 42       		.byte	0x42
 588 01ae AB000000 		.4byte	0xab
 589 01b2 02       		.byte	0x2
 590 01b3 23       		.byte	0x23
 591 01b4 0E       		.uleb128 0xe
 592 01b5 09       		.uleb128 0x9
 593 01b6 63020000 		.4byte	.LASF41
 594 01ba 06       		.byte	0x6
 595 01bb 43       		.byte	0x43
 596 01bc AB000000 		.4byte	0xab
 597 01c0 02       		.byte	0x2
 598 01c1 23       		.byte	0x23
 599 01c2 10       		.uleb128 0x10
 600 01c3 09       		.uleb128 0x9
 601 01c4 E7010000 		.4byte	.LASF42
 602 01c8 06       		.byte	0x6
 603 01c9 44       		.byte	0x44
 604 01ca AB000000 		.4byte	0xab
 605 01ce 02       		.byte	0x2
 606 01cf 23       		.byte	0x23
 607 01d0 12       		.uleb128 0x12
 608 01d1 0A       		.uleb128 0xa
 609 01d2 65727200 		.ascii	"err\000"
 610 01d6 06       		.byte	0x6
 611 01d7 45       		.byte	0x45
 612 01d8 AB000000 		.4byte	0xab
 613 01dc 02       		.byte	0x2
 614 01dd 23       		.byte	0x23
 615 01de 14       		.uleb128 0x14
 616 01df 09       		.uleb128 0x9
 617 01e0 0C010000 		.4byte	.LASF43
 618 01e4 06       		.byte	0x6
 619 01e5 46       		.byte	0x46
ARM GAS  /var/folders/5n/p_75w94d66l9ssrldxqdhh700000gn/T//ccszYPrJ.s 			page 12


 620 01e6 AB000000 		.4byte	0xab
 621 01ea 02       		.byte	0x2
 622 01eb 23       		.byte	0x23
 623 01ec 16       		.uleb128 0x16
 624 01ed 00       		.byte	0
 625 01ee 08       		.uleb128 0x8
 626 01ef 82000000 		.4byte	.LASF45
 627 01f3 0A       		.byte	0xa
 628 01f4 06       		.byte	0x6
 629 01f5 5A       		.byte	0x5a
 630 01f6 41020000 		.4byte	0x241
 631 01fa 09       		.uleb128 0x9
 632 01fb DE020000 		.4byte	.LASF46
 633 01ff 06       		.byte	0x6
 634 0200 5E       		.byte	0x5e
 635 0201 2F010000 		.4byte	0x12f
 636 0205 02       		.byte	0x2
 637 0206 23       		.byte	0x23
 638 0207 00       		.uleb128 0
 639 0208 09       		.uleb128 0x9
 640 0209 D9020000 		.4byte	.LASF47
 641 020d 06       		.byte	0x6
 642 020e 5F       		.byte	0x5f
 643 020f 2F010000 		.4byte	0x12f
 644 0213 02       		.byte	0x2
 645 0214 23       		.byte	0x23
 646 0215 02       		.uleb128 0x2
 647 0216 0A       		.uleb128 0xa
 648 0217 6D617800 		.ascii	"max\000"
 649 021b 06       		.byte	0x6
 650 021c 60       		.byte	0x60
 651 021d 2F010000 		.4byte	0x12f
 652 0221 02       		.byte	0x2
 653 0222 23       		.byte	0x23
 654 0223 04       		.uleb128 0x4
 655 0224 0A       		.uleb128 0xa
 656 0225 65727200 		.ascii	"err\000"
 657 0229 06       		.byte	0x6
 658 022a 61       		.byte	0x61
 659 022b AB000000 		.4byte	0xab
 660 022f 02       		.byte	0x2
 661 0230 23       		.byte	0x23
 662 0231 06       		.uleb128 0x6
 663 0232 09       		.uleb128 0x9
 664 0233 70020000 		.4byte	.LASF48
 665 0237 06       		.byte	0x6
 666 0238 62       		.byte	0x62
 667 0239 AB000000 		.4byte	0xab
 668 023d 02       		.byte	0x2
 669 023e 23       		.byte	0x23
 670 023f 08       		.uleb128 0x8
 671 0240 00       		.byte	0
 672 0241 08       		.uleb128 0x8
 673 0242 87020000 		.4byte	.LASF49
 674 0246 06       		.byte	0x6
 675 0247 06       		.byte	0x6
 676 0248 65       		.byte	0x65
ARM GAS  /var/folders/5n/p_75w94d66l9ssrldxqdhh700000gn/T//ccszYPrJ.s 			page 13


 677 0249 78020000 		.4byte	0x278
 678 024d 09       		.uleb128 0x9
 679 024e D9020000 		.4byte	.LASF47
 680 0252 06       		.byte	0x6
 681 0253 66       		.byte	0x66
 682 0254 AB000000 		.4byte	0xab
 683 0258 02       		.byte	0x2
 684 0259 23       		.byte	0x23
 685 025a 00       		.uleb128 0
 686 025b 0A       		.uleb128 0xa
 687 025c 6D617800 		.ascii	"max\000"
 688 0260 06       		.byte	0x6
 689 0261 67       		.byte	0x67
 690 0262 AB000000 		.4byte	0xab
 691 0266 02       		.byte	0x2
 692 0267 23       		.byte	0x23
 693 0268 02       		.uleb128 0x2
 694 0269 0A       		.uleb128 0xa
 695 026a 65727200 		.ascii	"err\000"
 696 026e 06       		.byte	0x6
 697 026f 68       		.byte	0x68
 698 0270 AB000000 		.4byte	0xab
 699 0274 02       		.byte	0x2
 700 0275 23       		.byte	0x23
 701 0276 04       		.uleb128 0x4
 702 0277 00       		.byte	0
 703 0278 08       		.uleb128 0x8
 704 0279 9D010000 		.4byte	.LASF50
 705 027d 12       		.byte	0x12
 706 027e 06       		.byte	0x6
 707 027f 6B       		.byte	0x6b
 708 0280 AF020000 		.4byte	0x2af
 709 0284 0A       		.uleb128 0xa
 710 0285 73656D00 		.ascii	"sem\000"
 711 0289 06       		.byte	0x6
 712 028a 6C       		.byte	0x6c
 713 028b 41020000 		.4byte	0x241
 714 028f 02       		.byte	0x2
 715 0290 23       		.byte	0x23
 716 0291 00       		.uleb128 0
 717 0292 09       		.uleb128 0x9
 718 0293 EE010000 		.4byte	.LASF51
 719 0297 06       		.byte	0x6
 720 0298 6D       		.byte	0x6d
 721 0299 41020000 		.4byte	0x241
 722 029d 02       		.byte	0x2
 723 029e 23       		.byte	0x23
 724 029f 06       		.uleb128 0x6
 725 02a0 09       		.uleb128 0x9
 726 02a1 6B020000 		.4byte	.LASF52
 727 02a5 06       		.byte	0x6
 728 02a6 6E       		.byte	0x6e
 729 02a7 41020000 		.4byte	0x241
 730 02ab 02       		.byte	0x2
 731 02ac 23       		.byte	0x23
 732 02ad 0C       		.uleb128 0xc
 733 02ae 00       		.byte	0
ARM GAS  /var/folders/5n/p_75w94d66l9ssrldxqdhh700000gn/T//ccszYPrJ.s 			page 14


 734 02af 0B       		.uleb128 0xb
 735 02b0 00000000 		.4byte	.LASF53
 736 02b4 5001     		.2byte	0x150
 737 02b6 06       		.byte	0x6
 738 02b7 71       		.byte	0x71
 739 02b8 4C030000 		.4byte	0x34c
 740 02bc 09       		.uleb128 0x9
 741 02bd 3D010000 		.4byte	.LASF54
 742 02c1 06       		.byte	0x6
 743 02c2 73       		.byte	0x73
 744 02c3 3A010000 		.4byte	0x13a
 745 02c7 02       		.byte	0x2
 746 02c8 23       		.byte	0x23
 747 02c9 00       		.uleb128 0
 748 02ca 09       		.uleb128 0x9
 749 02cb FE020000 		.4byte	.LASF55
 750 02cf 06       		.byte	0x6
 751 02d0 76       		.byte	0x76
 752 02d1 3A010000 		.4byte	0x13a
 753 02d5 02       		.byte	0x2
 754 02d6 23       		.byte	0x23
 755 02d7 18       		.uleb128 0x18
 756 02d8 09       		.uleb128 0x9
 757 02d9 21000000 		.4byte	.LASF56
 758 02dd 06       		.byte	0x6
 759 02de 79       		.byte	0x79
 760 02df 3A010000 		.4byte	0x13a
 761 02e3 02       		.byte	0x2
 762 02e4 23       		.byte	0x23
 763 02e5 30       		.uleb128 0x30
 764 02e6 0A       		.uleb128 0xa
 765 02e7 697000   		.ascii	"ip\000"
 766 02ea 06       		.byte	0x6
 767 02eb 7C       		.byte	0x7c
 768 02ec 3A010000 		.4byte	0x13a
 769 02f0 02       		.byte	0x2
 770 02f1 23       		.byte	0x23
 771 02f2 48       		.uleb128 0x48
 772 02f3 09       		.uleb128 0x9
 773 02f4 34030000 		.4byte	.LASF57
 774 02f8 06       		.byte	0x6
 775 02f9 7F       		.byte	0x7f
 776 02fa 3A010000 		.4byte	0x13a
 777 02fe 02       		.byte	0x2
 778 02ff 23       		.byte	0x23
 779 0300 60       		.uleb128 0x60
 780 0301 0A       		.uleb128 0xa
 781 0302 75647000 		.ascii	"udp\000"
 782 0306 06       		.byte	0x6
 783 0307 85       		.byte	0x85
 784 0308 3A010000 		.4byte	0x13a
 785 030c 02       		.byte	0x2
 786 030d 23       		.byte	0x23
 787 030e 78       		.uleb128 0x78
 788 030f 0A       		.uleb128 0xa
 789 0310 74637000 		.ascii	"tcp\000"
 790 0314 06       		.byte	0x6
ARM GAS  /var/folders/5n/p_75w94d66l9ssrldxqdhh700000gn/T//ccszYPrJ.s 			page 15


 791 0315 88       		.byte	0x88
 792 0316 3A010000 		.4byte	0x13a
 793 031a 03       		.byte	0x3
 794 031b 23       		.byte	0x23
 795 031c 9001     		.uleb128 0x90
 796 031e 0A       		.uleb128 0xa
 797 031f 6D656D00 		.ascii	"mem\000"
 798 0323 06       		.byte	0x6
 799 0324 8B       		.byte	0x8b
 800 0325 EE010000 		.4byte	0x1ee
 801 0329 03       		.byte	0x3
 802 032a 23       		.byte	0x23
 803 032b A801     		.uleb128 0xa8
 804 032d 09       		.uleb128 0x9
 805 032e A7020000 		.4byte	.LASF58
 806 0332 06       		.byte	0x6
 807 0333 8E       		.byte	0x8e
 808 0334 4C030000 		.4byte	0x34c
 809 0338 03       		.byte	0x3
 810 0339 23       		.byte	0x23
 811 033a B201     		.uleb128 0xb2
 812 033c 0A       		.uleb128 0xa
 813 033d 73797300 		.ascii	"sys\000"
 814 0341 06       		.byte	0x6
 815 0342 91       		.byte	0x91
 816 0343 78020000 		.4byte	0x278
 817 0347 03       		.byte	0x3
 818 0348 23       		.byte	0x23
 819 0349 BE02     		.uleb128 0x13e
 820 034b 00       		.byte	0
 821 034c 0C       		.uleb128 0xc
 822 034d EE010000 		.4byte	0x1ee
 823 0351 5C030000 		.4byte	0x35c
 824 0355 0D       		.uleb128 0xd
 825 0356 92000000 		.4byte	0x92
 826 035a 0D       		.byte	0xd
 827 035b 00       		.byte	0
 828 035c 08       		.uleb128 0x8
 829 035d A7020000 		.4byte	.LASF58
 830 0361 04       		.byte	0x4
 831 0362 01       		.byte	0x1
 832 0363 42       		.byte	0x42
 833 0364 77030000 		.4byte	0x377
 834 0368 09       		.uleb128 0x9
 835 0369 39030000 		.4byte	.LASF59
 836 036d 01       		.byte	0x1
 837 036e 43       		.byte	0x43
 838 036f 77030000 		.4byte	0x377
 839 0373 02       		.byte	0x2
 840 0374 23       		.byte	0x23
 841 0375 00       		.uleb128 0
 842 0376 00       		.byte	0
 843 0377 0E       		.uleb128 0xe
 844 0378 04       		.byte	0x4
 845 0379 5C030000 		.4byte	0x35c
 846 037d 0F       		.uleb128 0xf
 847 037e 01       		.byte	0x1
ARM GAS  /var/folders/5n/p_75w94d66l9ssrldxqdhh700000gn/T//ccszYPrJ.s 			page 16


 848 037f 59010000 		.4byte	.LASF60
 849 0383 01       		.byte	0x1
 850 0384 5101     		.2byte	0x151
 851 0386 01       		.byte	0x1
 852 0387 00000000 		.4byte	.LFB7
 853 038b A0000000 		.4byte	.LFE7
 854 038f 00000000 		.4byte	.LLST0
 855 0393 01       		.byte	0x1
 856 0394 C5030000 		.4byte	0x3c5
 857 0398 10       		.uleb128 0x10
 858 0399 A7020000 		.4byte	.LASF58
 859 039d 01       		.byte	0x1
 860 039e 5301     		.2byte	0x153
 861 03a0 77030000 		.4byte	0x377
 862 03a4 20000000 		.4byte	.LLST1
 863 03a8 11       		.uleb128 0x11
 864 03a9 6900     		.ascii	"i\000"
 865 03ab 01       		.byte	0x1
 866 03ac 5401     		.2byte	0x154
 867 03ae AB000000 		.4byte	0xab
 868 03b2 5F000000 		.4byte	.LLST2
 869 03b6 11       		.uleb128 0x11
 870 03b7 6A00     		.ascii	"j\000"
 871 03b9 01       		.byte	0x1
 872 03ba 5401     		.2byte	0x154
 873 03bc AB000000 		.4byte	0xab
 874 03c0 7F000000 		.4byte	.LLST3
 875 03c4 00       		.byte	0
 876 03c5 12       		.uleb128 0x12
 877 03c6 01       		.byte	0x1
 878 03c7 05030000 		.4byte	.LASF70
 879 03cb 01       		.byte	0x1
 880 03cc 8501     		.2byte	0x185
 881 03ce 01       		.byte	0x1
 882 03cf 90000000 		.4byte	0x90
 883 03d3 00000000 		.4byte	.LFB8
 884 03d7 70000000 		.4byte	.LFE8
 885 03db B6000000 		.4byte	.LLST4
 886 03df 01       		.byte	0x1
 887 03e0 17040000 		.4byte	0x417
 888 03e4 13       		.uleb128 0x13
 889 03e5 40020000 		.4byte	.LASF62
 890 03e9 01       		.byte	0x1
 891 03ea 8501     		.2byte	0x185
 892 03ec 24010000 		.4byte	0x124
 893 03f0 D6000000 		.4byte	.LLST5
 894 03f4 10       		.uleb128 0x10
 895 03f5 A7020000 		.4byte	.LASF58
 896 03f9 01       		.byte	0x1
 897 03fa 8A01     		.2byte	0x18a
 898 03fc 77030000 		.4byte	0x377
 899 0400 42010000 		.4byte	.LLST6
 900 0404 14       		.uleb128 0x14
 901 0405 42000000 		.4byte	.LVL15
 902 0409 F8040000 		.4byte	0x4f8
 903 040d 14       		.uleb128 0x14
 904 040e 62000000 		.4byte	.LVL19
ARM GAS  /var/folders/5n/p_75w94d66l9ssrldxqdhh700000gn/T//ccszYPrJ.s 			page 17


 905 0412 F8040000 		.4byte	0x4f8
 906 0416 00       		.byte	0
 907 0417 0F       		.uleb128 0xf
 908 0418 01       		.byte	0x1
 909 0419 17000000 		.4byte	.LASF61
 910 041d 01       		.byte	0x1
 911 041e B201     		.2byte	0x1b2
 912 0420 01       		.byte	0x1
 913 0421 00000000 		.4byte	.LFB9
 914 0425 3C000000 		.4byte	.LFE9
 915 0429 60010000 		.4byte	.LLST7
 916 042d 01       		.byte	0x1
 917 042e 6C040000 		.4byte	0x46c
 918 0432 13       		.uleb128 0x13
 919 0433 40020000 		.4byte	.LASF62
 920 0437 01       		.byte	0x1
 921 0438 B201     		.2byte	0x1b2
 922 043a 24010000 		.4byte	0x124
 923 043e 80010000 		.4byte	.LLST8
 924 0442 15       		.uleb128 0x15
 925 0443 6D656D00 		.ascii	"mem\000"
 926 0447 01       		.byte	0x1
 927 0448 B201     		.2byte	0x1b2
 928 044a 90000000 		.4byte	0x90
 929 044e BA010000 		.4byte	.LLST9
 930 0452 10       		.uleb128 0x10
 931 0453 A7020000 		.4byte	.LASF58
 932 0457 01       		.byte	0x1
 933 0458 B401     		.2byte	0x1b4
 934 045a 77030000 		.4byte	0x377
 935 045e EE010000 		.4byte	.LLST10
 936 0462 14       		.uleb128 0x14
 937 0463 32000000 		.4byte	.LVL24
 938 0467 F8040000 		.4byte	0x4f8
 939 046b 00       		.byte	0
 940 046c 0C       		.uleb128 0xc
 941 046d 77030000 		.4byte	0x377
 942 0471 7C040000 		.4byte	0x47c
 943 0475 0D       		.uleb128 0xd
 944 0476 92000000 		.4byte	0x92
 945 047a 0D       		.byte	0xd
 946 047b 00       		.byte	0
 947 047c 16       		.uleb128 0x16
 948 047d 2B030000 		.4byte	.LASF63
 949 0481 01       		.byte	0x1
 950 0482 75       		.byte	0x75
 951 0483 6C040000 		.4byte	0x46c
 952 0487 05       		.byte	0x5
 953 0488 03       		.byte	0x3
 954 0489 00000000 		.4byte	memp_tab
 955 048d 0C       		.uleb128 0xc
 956 048e AB000000 		.4byte	0xab
 957 0492 9D040000 		.4byte	0x49d
 958 0496 0D       		.uleb128 0xd
 959 0497 92000000 		.4byte	0x92
 960 049b 0D       		.byte	0xd
 961 049c 00       		.byte	0
ARM GAS  /var/folders/5n/p_75w94d66l9ssrldxqdhh700000gn/T//ccszYPrJ.s 			page 18


 962 049d 16       		.uleb128 0x16
 963 049e D0010000 		.4byte	.LASF64
 964 04a2 01       		.byte	0x1
 965 04a3 81       		.byte	0x81
 966 04a4 AE040000 		.4byte	0x4ae
 967 04a8 05       		.byte	0x5
 968 04a9 03       		.byte	0x3
 969 04aa 00000000 		.4byte	memp_sizes
 970 04ae 17       		.uleb128 0x17
 971 04af 8D040000 		.4byte	0x48d
 972 04b3 16       		.uleb128 0x16
 973 04b4 07000000 		.4byte	.LASF65
 974 04b8 01       		.byte	0x1
 975 04b9 89       		.byte	0x89
 976 04ba C4040000 		.4byte	0x4c4
 977 04be 05       		.byte	0x5
 978 04bf 03       		.byte	0x3
 979 04c0 00000000 		.4byte	memp_num
 980 04c4 17       		.uleb128 0x17
 981 04c5 8D040000 		.4byte	0x48d
 982 04c9 0C       		.uleb128 0xc
 983 04ca A0000000 		.4byte	0xa0
 984 04ce DA040000 		.4byte	0x4da
 985 04d2 18       		.uleb128 0x18
 986 04d3 92000000 		.4byte	0x92
 987 04d7 6E31     		.2byte	0x316e
 988 04d9 00       		.byte	0
 989 04da 16       		.uleb128 0x16
 990 04db 5C000000 		.4byte	.LASF66
 991 04df 01       		.byte	0x1
 992 04e0 AA       		.byte	0xaa
 993 04e1 C9040000 		.4byte	0x4c9
 994 04e5 05       		.byte	0x5
 995 04e6 03       		.byte	0x3
 996 04e7 00000000 		.4byte	memp_memory
 997 04eb 19       		.uleb128 0x19
 998 04ec 58020000 		.4byte	.LASF71
 999 04f0 06       		.byte	0x6
 1000 04f1 95       		.byte	0x95
 1001 04f2 AF020000 		.4byte	0x2af
 1002 04f6 01       		.byte	0x1
 1003 04f7 01       		.byte	0x1
 1004 04f8 1A       		.uleb128 0x1a
 1005 04f9 01       		.byte	0x1
 1006 04fa 15010000 		.4byte	.LASF72
 1007 04fe 07       		.byte	0x7
 1008 04ff F301     		.2byte	0x1f3
 1009 0501 01       		.byte	0x1
 1010 0502 01       		.byte	0x1
 1011 0503 00       		.byte	0
 1012              		.section	.debug_abbrev,"",%progbits
 1013              	.Ldebug_abbrev0:
 1014 0000 01       		.uleb128 0x1
 1015 0001 11       		.uleb128 0x11
 1016 0002 01       		.byte	0x1
 1017 0003 25       		.uleb128 0x25
 1018 0004 0E       		.uleb128 0xe
ARM GAS  /var/folders/5n/p_75w94d66l9ssrldxqdhh700000gn/T//ccszYPrJ.s 			page 19


 1019 0005 13       		.uleb128 0x13
 1020 0006 0B       		.uleb128 0xb
 1021 0007 03       		.uleb128 0x3
 1022 0008 0E       		.uleb128 0xe
 1023 0009 1B       		.uleb128 0x1b
 1024 000a 0E       		.uleb128 0xe
 1025 000b 55       		.uleb128 0x55
 1026 000c 06       		.uleb128 0x6
 1027 000d 11       		.uleb128 0x11
 1028 000e 01       		.uleb128 0x1
 1029 000f 52       		.uleb128 0x52
 1030 0010 01       		.uleb128 0x1
 1031 0011 10       		.uleb128 0x10
 1032 0012 06       		.uleb128 0x6
 1033 0013 00       		.byte	0
 1034 0014 00       		.byte	0
 1035 0015 02       		.uleb128 0x2
 1036 0016 24       		.uleb128 0x24
 1037 0017 00       		.byte	0
 1038 0018 0B       		.uleb128 0xb
 1039 0019 0B       		.uleb128 0xb
 1040 001a 3E       		.uleb128 0x3e
 1041 001b 0B       		.uleb128 0xb
 1042 001c 03       		.uleb128 0x3
 1043 001d 08       		.uleb128 0x8
 1044 001e 00       		.byte	0
 1045 001f 00       		.byte	0
 1046 0020 03       		.uleb128 0x3
 1047 0021 24       		.uleb128 0x24
 1048 0022 00       		.byte	0
 1049 0023 0B       		.uleb128 0xb
 1050 0024 0B       		.uleb128 0xb
 1051 0025 3E       		.uleb128 0x3e
 1052 0026 0B       		.uleb128 0xb
 1053 0027 03       		.uleb128 0x3
 1054 0028 0E       		.uleb128 0xe
 1055 0029 00       		.byte	0
 1056 002a 00       		.byte	0
 1057 002b 04       		.uleb128 0x4
 1058 002c 16       		.uleb128 0x16
 1059 002d 00       		.byte	0
 1060 002e 03       		.uleb128 0x3
 1061 002f 0E       		.uleb128 0xe
 1062 0030 3A       		.uleb128 0x3a
 1063 0031 0B       		.uleb128 0xb
 1064 0032 3B       		.uleb128 0x3b
 1065 0033 0B       		.uleb128 0xb
 1066 0034 49       		.uleb128 0x49
 1067 0035 13       		.uleb128 0x13
 1068 0036 00       		.byte	0
 1069 0037 00       		.byte	0
 1070 0038 05       		.uleb128 0x5
 1071 0039 0F       		.uleb128 0xf
 1072 003a 00       		.byte	0
 1073 003b 0B       		.uleb128 0xb
 1074 003c 0B       		.uleb128 0xb
 1075 003d 00       		.byte	0
ARM GAS  /var/folders/5n/p_75w94d66l9ssrldxqdhh700000gn/T//ccszYPrJ.s 			page 20


 1076 003e 00       		.byte	0
 1077 003f 06       		.uleb128 0x6
 1078 0040 04       		.uleb128 0x4
 1079 0041 01       		.byte	0x1
 1080 0042 0B       		.uleb128 0xb
 1081 0043 0B       		.uleb128 0xb
 1082 0044 3A       		.uleb128 0x3a
 1083 0045 0B       		.uleb128 0xb
 1084 0046 3B       		.uleb128 0x3b
 1085 0047 0B       		.uleb128 0xb
 1086 0048 01       		.uleb128 0x1
 1087 0049 13       		.uleb128 0x13
 1088 004a 00       		.byte	0
 1089 004b 00       		.byte	0
 1090 004c 07       		.uleb128 0x7
 1091 004d 28       		.uleb128 0x28
 1092 004e 00       		.byte	0
 1093 004f 03       		.uleb128 0x3
 1094 0050 0E       		.uleb128 0xe
 1095 0051 1C       		.uleb128 0x1c
 1096 0052 0D       		.uleb128 0xd
 1097 0053 00       		.byte	0
 1098 0054 00       		.byte	0
 1099 0055 08       		.uleb128 0x8
 1100 0056 13       		.uleb128 0x13
 1101 0057 01       		.byte	0x1
 1102 0058 03       		.uleb128 0x3
 1103 0059 0E       		.uleb128 0xe
 1104 005a 0B       		.uleb128 0xb
 1105 005b 0B       		.uleb128 0xb
 1106 005c 3A       		.uleb128 0x3a
 1107 005d 0B       		.uleb128 0xb
 1108 005e 3B       		.uleb128 0x3b
 1109 005f 0B       		.uleb128 0xb
 1110 0060 01       		.uleb128 0x1
 1111 0061 13       		.uleb128 0x13
 1112 0062 00       		.byte	0
 1113 0063 00       		.byte	0
 1114 0064 09       		.uleb128 0x9
 1115 0065 0D       		.uleb128 0xd
 1116 0066 00       		.byte	0
 1117 0067 03       		.uleb128 0x3
 1118 0068 0E       		.uleb128 0xe
 1119 0069 3A       		.uleb128 0x3a
 1120 006a 0B       		.uleb128 0xb
 1121 006b 3B       		.uleb128 0x3b
 1122 006c 0B       		.uleb128 0xb
 1123 006d 49       		.uleb128 0x49
 1124 006e 13       		.uleb128 0x13
 1125 006f 38       		.uleb128 0x38
 1126 0070 0A       		.uleb128 0xa
 1127 0071 00       		.byte	0
 1128 0072 00       		.byte	0
 1129 0073 0A       		.uleb128 0xa
 1130 0074 0D       		.uleb128 0xd
 1131 0075 00       		.byte	0
 1132 0076 03       		.uleb128 0x3
ARM GAS  /var/folders/5n/p_75w94d66l9ssrldxqdhh700000gn/T//ccszYPrJ.s 			page 21


 1133 0077 08       		.uleb128 0x8
 1134 0078 3A       		.uleb128 0x3a
 1135 0079 0B       		.uleb128 0xb
 1136 007a 3B       		.uleb128 0x3b
 1137 007b 0B       		.uleb128 0xb
 1138 007c 49       		.uleb128 0x49
 1139 007d 13       		.uleb128 0x13
 1140 007e 38       		.uleb128 0x38
 1141 007f 0A       		.uleb128 0xa
 1142 0080 00       		.byte	0
 1143 0081 00       		.byte	0
 1144 0082 0B       		.uleb128 0xb
 1145 0083 13       		.uleb128 0x13
 1146 0084 01       		.byte	0x1
 1147 0085 03       		.uleb128 0x3
 1148 0086 0E       		.uleb128 0xe
 1149 0087 0B       		.uleb128 0xb
 1150 0088 05       		.uleb128 0x5
 1151 0089 3A       		.uleb128 0x3a
 1152 008a 0B       		.uleb128 0xb
 1153 008b 3B       		.uleb128 0x3b
 1154 008c 0B       		.uleb128 0xb
 1155 008d 01       		.uleb128 0x1
 1156 008e 13       		.uleb128 0x13
 1157 008f 00       		.byte	0
 1158 0090 00       		.byte	0
 1159 0091 0C       		.uleb128 0xc
 1160 0092 01       		.uleb128 0x1
 1161 0093 01       		.byte	0x1
 1162 0094 49       		.uleb128 0x49
 1163 0095 13       		.uleb128 0x13
 1164 0096 01       		.uleb128 0x1
 1165 0097 13       		.uleb128 0x13
 1166 0098 00       		.byte	0
 1167 0099 00       		.byte	0
 1168 009a 0D       		.uleb128 0xd
 1169 009b 21       		.uleb128 0x21
 1170 009c 00       		.byte	0
 1171 009d 49       		.uleb128 0x49
 1172 009e 13       		.uleb128 0x13
 1173 009f 2F       		.uleb128 0x2f
 1174 00a0 0B       		.uleb128 0xb
 1175 00a1 00       		.byte	0
 1176 00a2 00       		.byte	0
 1177 00a3 0E       		.uleb128 0xe
 1178 00a4 0F       		.uleb128 0xf
 1179 00a5 00       		.byte	0
 1180 00a6 0B       		.uleb128 0xb
 1181 00a7 0B       		.uleb128 0xb
 1182 00a8 49       		.uleb128 0x49
 1183 00a9 13       		.uleb128 0x13
 1184 00aa 00       		.byte	0
 1185 00ab 00       		.byte	0
 1186 00ac 0F       		.uleb128 0xf
 1187 00ad 2E       		.uleb128 0x2e
 1188 00ae 01       		.byte	0x1
 1189 00af 3F       		.uleb128 0x3f
ARM GAS  /var/folders/5n/p_75w94d66l9ssrldxqdhh700000gn/T//ccszYPrJ.s 			page 22


 1190 00b0 0C       		.uleb128 0xc
 1191 00b1 03       		.uleb128 0x3
 1192 00b2 0E       		.uleb128 0xe
 1193 00b3 3A       		.uleb128 0x3a
 1194 00b4 0B       		.uleb128 0xb
 1195 00b5 3B       		.uleb128 0x3b
 1196 00b6 05       		.uleb128 0x5
 1197 00b7 27       		.uleb128 0x27
 1198 00b8 0C       		.uleb128 0xc
 1199 00b9 11       		.uleb128 0x11
 1200 00ba 01       		.uleb128 0x1
 1201 00bb 12       		.uleb128 0x12
 1202 00bc 01       		.uleb128 0x1
 1203 00bd 40       		.uleb128 0x40
 1204 00be 06       		.uleb128 0x6
 1205 00bf 9742     		.uleb128 0x2117
 1206 00c1 0C       		.uleb128 0xc
 1207 00c2 01       		.uleb128 0x1
 1208 00c3 13       		.uleb128 0x13
 1209 00c4 00       		.byte	0
 1210 00c5 00       		.byte	0
 1211 00c6 10       		.uleb128 0x10
 1212 00c7 34       		.uleb128 0x34
 1213 00c8 00       		.byte	0
 1214 00c9 03       		.uleb128 0x3
 1215 00ca 0E       		.uleb128 0xe
 1216 00cb 3A       		.uleb128 0x3a
 1217 00cc 0B       		.uleb128 0xb
 1218 00cd 3B       		.uleb128 0x3b
 1219 00ce 05       		.uleb128 0x5
 1220 00cf 49       		.uleb128 0x49
 1221 00d0 13       		.uleb128 0x13
 1222 00d1 02       		.uleb128 0x2
 1223 00d2 06       		.uleb128 0x6
 1224 00d3 00       		.byte	0
 1225 00d4 00       		.byte	0
 1226 00d5 11       		.uleb128 0x11
 1227 00d6 34       		.uleb128 0x34
 1228 00d7 00       		.byte	0
 1229 00d8 03       		.uleb128 0x3
 1230 00d9 08       		.uleb128 0x8
 1231 00da 3A       		.uleb128 0x3a
 1232 00db 0B       		.uleb128 0xb
 1233 00dc 3B       		.uleb128 0x3b
 1234 00dd 05       		.uleb128 0x5
 1235 00de 49       		.uleb128 0x49
 1236 00df 13       		.uleb128 0x13
 1237 00e0 02       		.uleb128 0x2
 1238 00e1 06       		.uleb128 0x6
 1239 00e2 00       		.byte	0
 1240 00e3 00       		.byte	0
 1241 00e4 12       		.uleb128 0x12
 1242 00e5 2E       		.uleb128 0x2e
 1243 00e6 01       		.byte	0x1
 1244 00e7 3F       		.uleb128 0x3f
 1245 00e8 0C       		.uleb128 0xc
 1246 00e9 03       		.uleb128 0x3
ARM GAS  /var/folders/5n/p_75w94d66l9ssrldxqdhh700000gn/T//ccszYPrJ.s 			page 23


 1247 00ea 0E       		.uleb128 0xe
 1248 00eb 3A       		.uleb128 0x3a
 1249 00ec 0B       		.uleb128 0xb
 1250 00ed 3B       		.uleb128 0x3b
 1251 00ee 05       		.uleb128 0x5
 1252 00ef 27       		.uleb128 0x27
 1253 00f0 0C       		.uleb128 0xc
 1254 00f1 49       		.uleb128 0x49
 1255 00f2 13       		.uleb128 0x13
 1256 00f3 11       		.uleb128 0x11
 1257 00f4 01       		.uleb128 0x1
 1258 00f5 12       		.uleb128 0x12
 1259 00f6 01       		.uleb128 0x1
 1260 00f7 40       		.uleb128 0x40
 1261 00f8 06       		.uleb128 0x6
 1262 00f9 9742     		.uleb128 0x2117
 1263 00fb 0C       		.uleb128 0xc
 1264 00fc 01       		.uleb128 0x1
 1265 00fd 13       		.uleb128 0x13
 1266 00fe 00       		.byte	0
 1267 00ff 00       		.byte	0
 1268 0100 13       		.uleb128 0x13
 1269 0101 05       		.uleb128 0x5
 1270 0102 00       		.byte	0
 1271 0103 03       		.uleb128 0x3
 1272 0104 0E       		.uleb128 0xe
 1273 0105 3A       		.uleb128 0x3a
 1274 0106 0B       		.uleb128 0xb
 1275 0107 3B       		.uleb128 0x3b
 1276 0108 05       		.uleb128 0x5
 1277 0109 49       		.uleb128 0x49
 1278 010a 13       		.uleb128 0x13
 1279 010b 02       		.uleb128 0x2
 1280 010c 06       		.uleb128 0x6
 1281 010d 00       		.byte	0
 1282 010e 00       		.byte	0
 1283 010f 14       		.uleb128 0x14
 1284 0110 898201   		.uleb128 0x4109
 1285 0113 00       		.byte	0
 1286 0114 11       		.uleb128 0x11
 1287 0115 01       		.uleb128 0x1
 1288 0116 31       		.uleb128 0x31
 1289 0117 13       		.uleb128 0x13
 1290 0118 00       		.byte	0
 1291 0119 00       		.byte	0
 1292 011a 15       		.uleb128 0x15
 1293 011b 05       		.uleb128 0x5
 1294 011c 00       		.byte	0
 1295 011d 03       		.uleb128 0x3
 1296 011e 08       		.uleb128 0x8
 1297 011f 3A       		.uleb128 0x3a
 1298 0120 0B       		.uleb128 0xb
 1299 0121 3B       		.uleb128 0x3b
 1300 0122 05       		.uleb128 0x5
 1301 0123 49       		.uleb128 0x49
 1302 0124 13       		.uleb128 0x13
 1303 0125 02       		.uleb128 0x2
ARM GAS  /var/folders/5n/p_75w94d66l9ssrldxqdhh700000gn/T//ccszYPrJ.s 			page 24


 1304 0126 06       		.uleb128 0x6
 1305 0127 00       		.byte	0
 1306 0128 00       		.byte	0
 1307 0129 16       		.uleb128 0x16
 1308 012a 34       		.uleb128 0x34
 1309 012b 00       		.byte	0
 1310 012c 03       		.uleb128 0x3
 1311 012d 0E       		.uleb128 0xe
 1312 012e 3A       		.uleb128 0x3a
 1313 012f 0B       		.uleb128 0xb
 1314 0130 3B       		.uleb128 0x3b
 1315 0131 0B       		.uleb128 0xb
 1316 0132 49       		.uleb128 0x49
 1317 0133 13       		.uleb128 0x13
 1318 0134 02       		.uleb128 0x2
 1319 0135 0A       		.uleb128 0xa
 1320 0136 00       		.byte	0
 1321 0137 00       		.byte	0
 1322 0138 17       		.uleb128 0x17
 1323 0139 26       		.uleb128 0x26
 1324 013a 00       		.byte	0
 1325 013b 49       		.uleb128 0x49
 1326 013c 13       		.uleb128 0x13
 1327 013d 00       		.byte	0
 1328 013e 00       		.byte	0
 1329 013f 18       		.uleb128 0x18
 1330 0140 21       		.uleb128 0x21
 1331 0141 00       		.byte	0
 1332 0142 49       		.uleb128 0x49
 1333 0143 13       		.uleb128 0x13
 1334 0144 2F       		.uleb128 0x2f
 1335 0145 05       		.uleb128 0x5
 1336 0146 00       		.byte	0
 1337 0147 00       		.byte	0
 1338 0148 19       		.uleb128 0x19
 1339 0149 34       		.uleb128 0x34
 1340 014a 00       		.byte	0
 1341 014b 03       		.uleb128 0x3
 1342 014c 0E       		.uleb128 0xe
 1343 014d 3A       		.uleb128 0x3a
 1344 014e 0B       		.uleb128 0xb
 1345 014f 3B       		.uleb128 0x3b
 1346 0150 0B       		.uleb128 0xb
 1347 0151 49       		.uleb128 0x49
 1348 0152 13       		.uleb128 0x13
 1349 0153 3F       		.uleb128 0x3f
 1350 0154 0C       		.uleb128 0xc
 1351 0155 3C       		.uleb128 0x3c
 1352 0156 0C       		.uleb128 0xc
 1353 0157 00       		.byte	0
 1354 0158 00       		.byte	0
 1355 0159 1A       		.uleb128 0x1a
 1356 015a 2E       		.uleb128 0x2e
 1357 015b 00       		.byte	0
 1358 015c 3F       		.uleb128 0x3f
 1359 015d 0C       		.uleb128 0xc
 1360 015e 03       		.uleb128 0x3
ARM GAS  /var/folders/5n/p_75w94d66l9ssrldxqdhh700000gn/T//ccszYPrJ.s 			page 25


 1361 015f 0E       		.uleb128 0xe
 1362 0160 3A       		.uleb128 0x3a
 1363 0161 0B       		.uleb128 0xb
 1364 0162 3B       		.uleb128 0x3b
 1365 0163 05       		.uleb128 0x5
 1366 0164 27       		.uleb128 0x27
 1367 0165 0C       		.uleb128 0xc
 1368 0166 3C       		.uleb128 0x3c
 1369 0167 0C       		.uleb128 0xc
 1370 0168 00       		.byte	0
 1371 0169 00       		.byte	0
 1372 016a 00       		.byte	0
 1373              		.section	.debug_loc,"",%progbits
 1374              	.Ldebug_loc0:
 1375              	.LLST0:
 1376 0000 00000000 		.4byte	.LFB7
 1377 0004 08000000 		.4byte	.LCFI0
 1378 0008 0200     		.2byte	0x2
 1379 000a 7D       		.byte	0x7d
 1380 000b 00       		.sleb128 0
 1381 000c 08000000 		.4byte	.LCFI0
 1382 0010 A0000000 		.4byte	.LFE7
 1383 0014 0200     		.2byte	0x2
 1384 0016 7D       		.byte	0x7d
 1385 0017 20       		.sleb128 32
 1386 0018 00000000 		.4byte	0
 1387 001c 00000000 		.4byte	0
 1388              	.LLST1:
 1389 0020 3A000000 		.4byte	.LVL2
 1390 0024 56000000 		.4byte	.LVL5
 1391 0028 0100     		.2byte	0x1
 1392 002a 57       		.byte	0x57
 1393 002b 56000000 		.4byte	.LVL5
 1394 002f 58000000 		.4byte	.LVL6
 1395 0033 0100     		.2byte	0x1
 1396 0035 5B       		.byte	0x5b
 1397 0036 58000000 		.4byte	.LVL6
 1398 003a 64000000 		.4byte	.LVL7
 1399 003e 0100     		.2byte	0x1
 1400 0040 53       		.byte	0x53
 1401 0041 64000000 		.4byte	.LVL7
 1402 0045 7A000000 		.4byte	.LVL10
 1403 0049 0100     		.2byte	0x1
 1404 004b 5B       		.byte	0x5b
 1405 004c 7A000000 		.4byte	.LVL10
 1406 0050 A0000000 		.4byte	.LFE7
 1407 0054 0100     		.2byte	0x1
 1408 0056 57       		.byte	0x57
 1409 0057 00000000 		.4byte	0
 1410 005b 00000000 		.4byte	0
 1411              	.LLST2:
 1412 005f 00000000 		.4byte	.LVL0
 1413 0063 0E000000 		.4byte	.LVL1
 1414 0067 0200     		.2byte	0x2
 1415 0069 30       		.byte	0x30
 1416 006a 9F       		.byte	0x9f
 1417 006b 3A000000 		.4byte	.LVL2
ARM GAS  /var/folders/5n/p_75w94d66l9ssrldxqdhh700000gn/T//ccszYPrJ.s 			page 26


 1418 006f 40000000 		.4byte	.LVL3
 1419 0073 0200     		.2byte	0x2
 1420 0075 30       		.byte	0x30
 1421 0076 9F       		.byte	0x9f
 1422 0077 00000000 		.4byte	0
 1423 007b 00000000 		.4byte	0
 1424              	.LLST3:
 1425 007f 48000000 		.4byte	.LVL4
 1426 0083 56000000 		.4byte	.LVL5
 1427 0087 0200     		.2byte	0x2
 1428 0089 30       		.byte	0x30
 1429 008a 9F       		.byte	0x9f
 1430 008b 56000000 		.4byte	.LVL5
 1431 008f 58000000 		.4byte	.LVL6
 1432 0093 0100     		.2byte	0x1
 1433 0095 52       		.byte	0x52
 1434 0096 64000000 		.4byte	.LVL7
 1435 009a 6A000000 		.4byte	.LVL8
 1436 009e 0100     		.2byte	0x1
 1437 00a0 52       		.byte	0x52
 1438 00a1 6A000000 		.4byte	.LVL8
 1439 00a5 6C000000 		.4byte	.LVL9
 1440 00a9 0300     		.2byte	0x3
 1441 00ab 72       		.byte	0x72
 1442 00ac 01       		.sleb128 1
 1443 00ad 9F       		.byte	0x9f
 1444 00ae 00000000 		.4byte	0
 1445 00b2 00000000 		.4byte	0
 1446              	.LLST4:
 1447 00b6 00000000 		.4byte	.LFB8
 1448 00ba 04000000 		.4byte	.LCFI1
 1449 00be 0200     		.2byte	0x2
 1450 00c0 7D       		.byte	0x7d
 1451 00c1 00       		.sleb128 0
 1452 00c2 04000000 		.4byte	.LCFI1
 1453 00c6 70000000 		.4byte	.LFE8
 1454 00ca 0200     		.2byte	0x2
 1455 00cc 7D       		.byte	0x7d
 1456 00cd 10       		.sleb128 16
 1457 00ce 00000000 		.4byte	0
 1458 00d2 00000000 		.4byte	0
 1459              	.LLST5:
 1460 00d6 00000000 		.4byte	.LVL11
 1461 00da 3A000000 		.4byte	.LVL13
 1462 00de 0100     		.2byte	0x1
 1463 00e0 50       		.byte	0x50
 1464 00e1 3A000000 		.4byte	.LVL13
 1465 00e5 3E000000 		.4byte	.LVL14
 1466 00e9 0400     		.2byte	0x4
 1467 00eb F3       		.byte	0xf3
 1468 00ec 01       		.uleb128 0x1
 1469 00ed 50       		.byte	0x50
 1470 00ee 9F       		.byte	0x9f
 1471 00ef 3E000000 		.4byte	.LVL14
 1472 00f3 41000000 		.4byte	.LVL15-1
 1473 00f7 0100     		.2byte	0x1
 1474 00f9 50       		.byte	0x50
ARM GAS  /var/folders/5n/p_75w94d66l9ssrldxqdhh700000gn/T//ccszYPrJ.s 			page 27


 1475 00fa 41000000 		.4byte	.LVL15-1
 1476 00fe 46000000 		.4byte	.LVL16
 1477 0102 0400     		.2byte	0x4
 1478 0104 F3       		.byte	0xf3
 1479 0105 01       		.uleb128 0x1
 1480 0106 50       		.byte	0x50
 1481 0107 9F       		.byte	0x9f
 1482 0108 46000000 		.4byte	.LVL16
 1483 010c 4C000000 		.4byte	.LVL17
 1484 0110 0100     		.2byte	0x1
 1485 0112 50       		.byte	0x50
 1486 0113 4C000000 		.4byte	.LVL17
 1487 0117 5E000000 		.4byte	.LVL18
 1488 011b 0400     		.2byte	0x4
 1489 011d F3       		.byte	0xf3
 1490 011e 01       		.uleb128 0x1
 1491 011f 50       		.byte	0x50
 1492 0120 9F       		.byte	0x9f
 1493 0121 5E000000 		.4byte	.LVL18
 1494 0125 61000000 		.4byte	.LVL19-1
 1495 0129 0100     		.2byte	0x1
 1496 012b 50       		.byte	0x50
 1497 012c 61000000 		.4byte	.LVL19-1
 1498 0130 70000000 		.4byte	.LFE8
 1499 0134 0400     		.2byte	0x4
 1500 0136 F3       		.byte	0xf3
 1501 0137 01       		.uleb128 0x1
 1502 0138 50       		.byte	0x50
 1503 0139 9F       		.byte	0x9f
 1504 013a 00000000 		.4byte	0
 1505 013e 00000000 		.4byte	0
 1506              	.LLST6:
 1507 0142 0C000000 		.4byte	.LVL12
 1508 0146 3A000000 		.4byte	.LVL13
 1509 014a 0100     		.2byte	0x1
 1510 014c 54       		.byte	0x54
 1511 014d 3E000000 		.4byte	.LVL14
 1512 0151 5E000000 		.4byte	.LVL18
 1513 0155 0100     		.2byte	0x1
 1514 0157 54       		.byte	0x54
 1515 0158 00000000 		.4byte	0
 1516 015c 00000000 		.4byte	0
 1517              	.LLST7:
 1518 0160 00000000 		.4byte	.LFB9
 1519 0164 02000000 		.4byte	.LCFI2
 1520 0168 0200     		.2byte	0x2
 1521 016a 7D       		.byte	0x7d
 1522 016b 00       		.sleb128 0
 1523 016c 02000000 		.4byte	.LCFI2
 1524 0170 3C000000 		.4byte	.LFE9
 1525 0174 0200     		.2byte	0x2
 1526 0176 7D       		.byte	0x7d
 1527 0177 10       		.sleb128 16
 1528 0178 00000000 		.4byte	0
 1529 017c 00000000 		.4byte	0
 1530              	.LLST8:
 1531 0180 00000000 		.4byte	.LVL20
ARM GAS  /var/folders/5n/p_75w94d66l9ssrldxqdhh700000gn/T//ccszYPrJ.s 			page 28


 1532 0184 0C000000 		.4byte	.LVL21
 1533 0188 0100     		.2byte	0x1
 1534 018a 50       		.byte	0x50
 1535 018b 0C000000 		.4byte	.LVL21
 1536 018f 2E000000 		.4byte	.LVL23
 1537 0193 0400     		.2byte	0x4
 1538 0195 F3       		.byte	0xf3
 1539 0196 01       		.uleb128 0x1
 1540 0197 50       		.byte	0x50
 1541 0198 9F       		.byte	0x9f
 1542 0199 2E000000 		.4byte	.LVL23
 1543 019d 31000000 		.4byte	.LVL24-1
 1544 01a1 0100     		.2byte	0x1
 1545 01a3 50       		.byte	0x50
 1546 01a4 31000000 		.4byte	.LVL24-1
 1547 01a8 3C000000 		.4byte	.LFE9
 1548 01ac 0400     		.2byte	0x4
 1549 01ae F3       		.byte	0xf3
 1550 01af 01       		.uleb128 0x1
 1551 01b0 50       		.byte	0x50
 1552 01b1 9F       		.byte	0x9f
 1553 01b2 00000000 		.4byte	0
 1554 01b6 00000000 		.4byte	0
 1555              	.LLST9:
 1556 01ba 00000000 		.4byte	.LVL20
 1557 01be 0C000000 		.4byte	.LVL21
 1558 01c2 0100     		.2byte	0x1
 1559 01c4 51       		.byte	0x51
 1560 01c5 0C000000 		.4byte	.LVL21
 1561 01c9 2E000000 		.4byte	.LVL23
 1562 01cd 0100     		.2byte	0x1
 1563 01cf 54       		.byte	0x54
 1564 01d0 2E000000 		.4byte	.LVL23
 1565 01d4 31000000 		.4byte	.LVL24-1
 1566 01d8 0100     		.2byte	0x1
 1567 01da 51       		.byte	0x51
 1568 01db 31000000 		.4byte	.LVL24-1
 1569 01df 3C000000 		.4byte	.LFE9
 1570 01e3 0100     		.2byte	0x1
 1571 01e5 54       		.byte	0x54
 1572 01e6 00000000 		.4byte	0
 1573 01ea 00000000 		.4byte	0
 1574              	.LLST10:
 1575 01ee 0C000000 		.4byte	.LVL21
 1576 01f2 2C000000 		.4byte	.LVL22
 1577 01f6 0100     		.2byte	0x1
 1578 01f8 54       		.byte	0x54
 1579 01f9 00000000 		.4byte	0
 1580 01fd 00000000 		.4byte	0
 1581              		.section	.debug_aranges,"",%progbits
 1582 0000 2C000000 		.4byte	0x2c
 1583 0004 0200     		.2byte	0x2
 1584 0006 00000000 		.4byte	.Ldebug_info0
 1585 000a 04       		.byte	0x4
 1586 000b 00       		.byte	0
 1587 000c 0000     		.2byte	0
 1588 000e 0000     		.2byte	0
ARM GAS  /var/folders/5n/p_75w94d66l9ssrldxqdhh700000gn/T//ccszYPrJ.s 			page 29


 1589 0010 00000000 		.4byte	.LFB7
 1590 0014 A0000000 		.4byte	.LFE7-.LFB7
 1591 0018 00000000 		.4byte	.LFB8
 1592 001c 70000000 		.4byte	.LFE8-.LFB8
 1593 0020 00000000 		.4byte	.LFB9
 1594 0024 3C000000 		.4byte	.LFE9-.LFB9
 1595 0028 00000000 		.4byte	0
 1596 002c 00000000 		.4byte	0
 1597              		.section	.debug_ranges,"",%progbits
 1598              	.Ldebug_ranges0:
 1599 0000 00000000 		.4byte	.LFB7
 1600 0004 A0000000 		.4byte	.LFE7
 1601 0008 00000000 		.4byte	.LFB8
 1602 000c 70000000 		.4byte	.LFE8
 1603 0010 00000000 		.4byte	.LFB9
 1604 0014 3C000000 		.4byte	.LFE9
 1605 0018 00000000 		.4byte	0
 1606 001c 00000000 		.4byte	0
 1607              		.section	.debug_line,"",%progbits
 1608              	.Ldebug_line0:
 1609 0000 FA010000 		.section	.debug_str,"MS",%progbits,1
 1609      02003001 
 1609      00000201 
 1609      FB0E0D00 
 1609      01010101 
 1610              	.LASF53:
 1611 0000 73746174 		.ascii	"stats_\000"
 1611      735F00
 1612              	.LASF65:
 1613 0007 6D656D70 		.ascii	"memp_num\000"
 1613      5F6E756D 
 1613      00
 1614              	.LASF37:
 1615 0010 63686B65 		.ascii	"chkerr\000"
 1615      727200
 1616              	.LASF61:
 1617 0017 6D656D70 		.ascii	"memp_free\000"
 1617      5F667265 
 1617      6500
 1618              	.LASF56:
 1619 0021 69705F66 		.ascii	"ip_frag\000"
 1619      72616700 
 1620              	.LASF3:
 1621 0029 73686F72 		.ascii	"short int\000"
 1621      7420696E 
 1621      7400
 1622              	.LASF32:
 1623 0033 6D656D70 		.ascii	"memp_t\000"
 1623      5F7400
 1624              	.LASF21:
 1625 003a 4D454D50 		.ascii	"MEMP_TCP_SEG\000"
 1625      5F544350 
 1625      5F534547 
 1625      00
 1626              	.LASF44:
 1627 0047 73746174 		.ascii	"stats_proto\000"
 1627      735F7072 
ARM GAS  /var/folders/5n/p_75w94d66l9ssrldxqdhh700000gn/T//ccszYPrJ.s 			page 30


 1627      6F746F00 
 1628              	.LASF12:
 1629 0053 73697A65 		.ascii	"sizetype\000"
 1629      74797065 
 1629      00
 1630              	.LASF66:
 1631 005c 6D656D70 		.ascii	"memp_memory\000"
 1631      5F6D656D 
 1631      6F727900 
 1632              	.LASF34:
 1633 0068 786D6974 		.ascii	"xmit\000"
 1633      00
 1634              	.LASF27:
 1635 006d 4D454D50 		.ascii	"MEMP_TCPIP_MSG_INPKT\000"
 1635      5F544350 
 1635      49505F4D 
 1635      53475F49 
 1635      4E504B54 
 1636              	.LASF45:
 1637 0082 73746174 		.ascii	"stats_mem\000"
 1637      735F6D65 
 1637      6D00
 1638              	.LASF69:
 1639 008c 2F557365 		.ascii	"/Users/sin/Documents/Eclipse/Workspace/ChibiOS_2.4."
 1639      72732F73 
 1639      696E2F44 
 1639      6F63756D 
 1639      656E7473 
 1640 00bf 322F6465 		.ascii	"2/demos/ARMCM4-STM32F407-LWIP\000"
 1640      6D6F732F 
 1640      41524D43 
 1640      4D342D53 
 1640      544D3332 
 1641              	.LASF38:
 1642 00dd 6C656E65 		.ascii	"lenerr\000"
 1642      727200
 1643              	.LASF28:
 1644 00e4 4D454D50 		.ascii	"MEMP_SYS_TIMEOUT\000"
 1644      5F535953 
 1644      5F54494D 
 1644      454F5554 
 1644      00
 1645              	.LASF23:
 1646 00f5 4D454D50 		.ascii	"MEMP_FRAG_PBUF\000"
 1646      5F465241 
 1646      475F5042 
 1646      554600
 1647              	.LASF4:
 1648 0104 75696E74 		.ascii	"uint8_t\000"
 1648      385F7400 
 1649              	.LASF43:
 1650 010c 63616368 		.ascii	"cachehit\000"
 1650      65686974 
 1650      00
 1651              	.LASF72:
 1652 0115 706F7274 		.ascii	"port_halt\000"
 1652      5F68616C 
ARM GAS  /var/folders/5n/p_75w94d66l9ssrldxqdhh700000gn/T//ccszYPrJ.s 			page 31


 1652      7400
 1653              	.LASF20:
 1654 011f 4D454D50 		.ascii	"MEMP_TCP_PCB_LISTEN\000"
 1654      5F544350 
 1654      5F504342 
 1654      5F4C4953 
 1654      54454E00 
 1655              	.LASF16:
 1656 0133 6D656D5F 		.ascii	"mem_ptr_t\000"
 1656      7074725F 
 1656      7400
 1657              	.LASF54:
 1658 013d 6C696E6B 		.ascii	"link\000"
 1658      00
 1659              	.LASF10:
 1660 0142 6C6F6E67 		.ascii	"long long int\000"
 1660      206C6F6E 
 1660      6720696E 
 1660      7400
 1661              	.LASF7:
 1662 0150 6C6F6E67 		.ascii	"long int\000"
 1662      20696E74 
 1662      00
 1663              	.LASF60:
 1664 0159 6D656D70 		.ascii	"memp_init\000"
 1664      5F696E69 
 1664      7400
 1665              	.LASF33:
 1666 0163 6D656D5F 		.ascii	"mem_size_t\000"
 1666      73697A65 
 1666      5F7400
 1667              	.LASF39:
 1668 016e 6D656D65 		.ascii	"memerr\000"
 1668      727200
 1669              	.LASF36:
 1670 0175 64726F70 		.ascii	"drop\000"
 1670      00
 1671              	.LASF2:
 1672 017a 756E7369 		.ascii	"unsigned char\000"
 1672      676E6564 
 1672      20636861 
 1672      7200
 1673              	.LASF31:
 1674 0188 4D454D50 		.ascii	"MEMP_MAX\000"
 1674      5F4D4158 
 1674      00
 1675              	.LASF1:
 1676 0191 7369676E 		.ascii	"signed char\000"
 1676      65642063 
 1676      68617200 
 1677              	.LASF50:
 1678 019d 73746174 		.ascii	"stats_sys\000"
 1678      735F7379 
 1678      7300
 1679              	.LASF11:
 1680 01a7 6C6F6E67 		.ascii	"long long unsigned int\000"
 1680      206C6F6E 
ARM GAS  /var/folders/5n/p_75w94d66l9ssrldxqdhh700000gn/T//ccszYPrJ.s 			page 32


 1680      6720756E 
 1680      7369676E 
 1680      65642069 
 1681              	.LASF8:
 1682 01be 75696E74 		.ascii	"uint32_t\000"
 1682      33325F74 
 1682      00
 1683              	.LASF5:
 1684 01c7 75696E74 		.ascii	"uint16_t\000"
 1684      31365F74 
 1684      00
 1685              	.LASF64:
 1686 01d0 6D656D70 		.ascii	"memp_sizes\000"
 1686      5F73697A 
 1686      657300
 1687              	.LASF67:
 1688 01db 474E5520 		.ascii	"GNU C 4.7.2\000"
 1688      4320342E 
 1688      372E3200 
 1689              	.LASF42:
 1690 01e7 6F707465 		.ascii	"opterr\000"
 1690      727200
 1691              	.LASF51:
 1692 01ee 6D757465 		.ascii	"mutex\000"
 1692      7800
 1693              	.LASF6:
 1694 01f4 73686F72 		.ascii	"short unsigned int\000"
 1694      7420756E 
 1694      7369676E 
 1694      65642069 
 1694      6E7400
 1695              	.LASF22:
 1696 0207 4D454D50 		.ascii	"MEMP_REASSDATA\000"
 1696      5F524541 
 1696      53534441 
 1696      544100
 1697              	.LASF13:
 1698 0216 63686172 		.ascii	"char\000"
 1698      00
 1699              	.LASF68:
 1700 021b 2E2E2F2E 		.ascii	"../../ext/lwip-1.4.0/src/core/memp.c\000"
 1700      2E2F6578 
 1700      742F6C77 
 1700      69702D31 
 1700      2E342E30 
 1701              	.LASF62:
 1702 0240 74797065 		.ascii	"type\000"
 1702      00
 1703              	.LASF26:
 1704 0245 4D454D50 		.ascii	"MEMP_TCPIP_MSG_API\000"
 1704      5F544350 
 1704      49505F4D 
 1704      53475F41 
 1704      504900
 1705              	.LASF71:
 1706 0258 6C776970 		.ascii	"lwip_stats\000"
 1706      5F737461 
ARM GAS  /var/folders/5n/p_75w94d66l9ssrldxqdhh700000gn/T//ccszYPrJ.s 			page 33


 1706      747300
 1707              	.LASF41:
 1708 0263 70726F74 		.ascii	"proterr\000"
 1708      65727200 
 1709              	.LASF52:
 1710 026b 6D626F78 		.ascii	"mbox\000"
 1710      00
 1711              	.LASF48:
 1712 0270 696C6C65 		.ascii	"illegal\000"
 1712      67616C00 
 1713              	.LASF29:
 1714 0278 4D454D50 		.ascii	"MEMP_PBUF\000"
 1714      5F504255 
 1714      4600
 1715              	.LASF35:
 1716 0282 72656376 		.ascii	"recv\000"
 1716      00
 1717              	.LASF49:
 1718 0287 73746174 		.ascii	"stats_syselem\000"
 1718      735F7379 
 1718      73656C65 
 1718      6D00
 1719              	.LASF9:
 1720 0295 6C6F6E67 		.ascii	"long unsigned int\000"
 1720      20756E73 
 1720      69676E65 
 1720      6420696E 
 1720      7400
 1721              	.LASF58:
 1722 02a7 6D656D70 		.ascii	"memp\000"
 1722      00
 1723              	.LASF17:
 1724 02ac 4D454D50 		.ascii	"MEMP_RAW_PCB\000"
 1724      5F524157 
 1724      5F504342 
 1724      00
 1725              	.LASF40:
 1726 02b9 72746572 		.ascii	"rterr\000"
 1726      7200
 1727              	.LASF14:
 1728 02bf 75385F74 		.ascii	"u8_t\000"
 1728      00
 1729              	.LASF15:
 1730 02c4 7531365F 		.ascii	"u16_t\000"
 1730      7400
 1731              	.LASF30:
 1732 02ca 4D454D50 		.ascii	"MEMP_PBUF_POOL\000"
 1732      5F504255 
 1732      465F504F 
 1732      4F4C00
 1733              	.LASF47:
 1734 02d9 75736564 		.ascii	"used\000"
 1734      00
 1735              	.LASF46:
 1736 02de 61766169 		.ascii	"avail\000"
 1736      6C00
 1737              	.LASF25:
ARM GAS  /var/folders/5n/p_75w94d66l9ssrldxqdhh700000gn/T//ccszYPrJ.s 			page 34


 1738 02e4 4D454D50 		.ascii	"MEMP_NETCONN\000"
 1738      5F4E4554 
 1738      434F4E4E 
 1738      00
 1739              	.LASF19:
 1740 02f1 4D454D50 		.ascii	"MEMP_TCP_PCB\000"
 1740      5F544350 
 1740      5F504342 
 1740      00
 1741              	.LASF55:
 1742 02fe 65746861 		.ascii	"etharp\000"
 1742      727000
 1743              	.LASF70:
 1744 0305 6D656D70 		.ascii	"memp_malloc\000"
 1744      5F6D616C 
 1744      6C6F6300 
 1745              	.LASF18:
 1746 0311 4D454D50 		.ascii	"MEMP_UDP_PCB\000"
 1746      5F554450 
 1746      5F504342 
 1746      00
 1747              	.LASF0:
 1748 031e 756E7369 		.ascii	"unsigned int\000"
 1748      676E6564 
 1748      20696E74 
 1748      00
 1749              	.LASF63:
 1750 032b 6D656D70 		.ascii	"memp_tab\000"
 1750      5F746162 
 1750      00
 1751              	.LASF57:
 1752 0334 69636D70 		.ascii	"icmp\000"
 1752      00
 1753              	.LASF59:
 1754 0339 6E657874 		.ascii	"next\000"
 1754      00
 1755              	.LASF24:
 1756 033e 4D454D50 		.ascii	"MEMP_NETBUF\000"
 1756      5F4E4554 
 1756      42554600 
 1757              		.ident	"GCC: (GNU) 4.7.2"
ARM GAS  /var/folders/5n/p_75w94d66l9ssrldxqdhh700000gn/T//ccszYPrJ.s 			page 35


DEFINED SYMBOLS
                            *ABS*:0000000000000000 memp.c
/var/folders/5n/p_75w94d66l9ssrldxqdhh700000gn/T//ccszYPrJ.s:19     .text.memp_init:0000000000000000 $t
/var/folders/5n/p_75w94d66l9ssrldxqdhh700000gn/T//ccszYPrJ.s:25     .text.memp_init:0000000000000000 memp_init
/var/folders/5n/p_75w94d66l9ssrldxqdhh700000gn/T//ccszYPrJ.s:135    .text.memp_init:0000000000000088 $d
/var/folders/5n/p_75w94d66l9ssrldxqdhh700000gn/T//ccszYPrJ.s:145    .text.memp_malloc:0000000000000000 $t
/var/folders/5n/p_75w94d66l9ssrldxqdhh700000gn/T//ccszYPrJ.s:151    .text.memp_malloc:0000000000000000 memp_malloc
/var/folders/5n/p_75w94d66l9ssrldxqdhh700000gn/T//ccszYPrJ.s:233    .text.memp_malloc:0000000000000068 $d
/var/folders/5n/p_75w94d66l9ssrldxqdhh700000gn/T//ccszYPrJ.s:239    .text.memp_free:0000000000000000 $t
/var/folders/5n/p_75w94d66l9ssrldxqdhh700000gn/T//ccszYPrJ.s:245    .text.memp_free:0000000000000000 memp_free
/var/folders/5n/p_75w94d66l9ssrldxqdhh700000gn/T//ccszYPrJ.s:299    .text.memp_free:0000000000000034 $d
/var/folders/5n/p_75w94d66l9ssrldxqdhh700000gn/T//ccszYPrJ.s:305    .rodata.memp_num:0000000000000000 $d
/var/folders/5n/p_75w94d66l9ssrldxqdhh700000gn/T//ccszYPrJ.s:309    .rodata.memp_num:0000000000000000 memp_num
/var/folders/5n/p_75w94d66l9ssrldxqdhh700000gn/T//ccszYPrJ.s:325    .bss.memp_memory:0000000000000000 $d
/var/folders/5n/p_75w94d66l9ssrldxqdhh700000gn/T//ccszYPrJ.s:329    .bss.memp_memory:0000000000000000 memp_memory
/var/folders/5n/p_75w94d66l9ssrldxqdhh700000gn/T//ccszYPrJ.s:332    .bss.memp_tab:0000000000000000 $d
/var/folders/5n/p_75w94d66l9ssrldxqdhh700000gn/T//ccszYPrJ.s:336    .bss.memp_tab:0000000000000000 memp_tab
/var/folders/5n/p_75w94d66l9ssrldxqdhh700000gn/T//ccszYPrJ.s:339    .rodata.memp_sizes:0000000000000000 $d
/var/folders/5n/p_75w94d66l9ssrldxqdhh700000gn/T//ccszYPrJ.s:343    .rodata.memp_sizes:0000000000000000 memp_sizes
                     .debug_frame:0000000000000010 $d
/var/folders/5n/p_75w94d66l9ssrldxqdhh700000gn/T//ccszYPrJ.s:304    .text.memp_free:000000000000003c $t

UNDEFINED SYMBOLS
lwip_stats
port_halt
