ARM GAS  /var/folders/5n/p_75w94d66l9ssrldxqdhh700000gn/T//ccszYPrJ.s 			page 1


   1              		.syntax unified
   2              		.cpu cortex-m4
   3              		.fpu softvfp
   4              		.eabi_attribute 20, 1
   5              		.eabi_attribute 21, 1
   6              		.eabi_attribute 23, 3
   7              		.eabi_attribute 24, 1
   8              		.eabi_attribute 25, 1
   9              		.eabi_attribute 26, 1
  10              		.eabi_attribute 30, 2
  11              		.eabi_attribute 34, 1
  12              		.eabi_attribute 18, 4
  13              		.thumb
  14              		.file	"memp.c"
  15              		.text
  16              	.Ltext0:
  17              		.cfi_sections	.debug_frame
  18              		.section	.text.memp_init,"ax",%progbits
  19              		.align	2
  20              		.p2align 4,,15
  21              		.global	memp_init
  22              		.thumb
  23              		.thumb_func
  24              		.type	memp_init, %function
  25              	memp_init:
  26              	.LFB7:
  27              		.file 1 "../../ext/lwip-1.4.0/src/core/memp.c"
  28              		.loc 1 338 0
  29              		.cfi_startproc
  30              		@ args = 0, pretend = 0, frame = 0
  31              		@ frame_needed = 0, uses_anonymous_args = 0
  32              		@ link register save eliminated.
  33              	.LVL0:
  34 0000 214B     		ldr	r3, .L13
  35 0002 2249     		ldr	r1, .L13+4
  36 0004 2DE9F00F 		push	{r4, r5, r6, r7, r8, r9, sl, fp}
  37              	.LCFI0:
  38              		.cfi_def_cfa_offset 32
  39              		.cfi_offset 4, -32
  40              		.cfi_offset 5, -28
  41              		.cfi_offset 6, -24
  42              		.cfi_offset 7, -20
  43              		.cfi_offset 8, -16
  44              		.cfi_offset 9, -12
  45              		.cfi_offset 10, -8
  46              		.cfi_offset 11, -4
  47              		.loc 1 343 0
  48 0008 0022     		movs	r2, #0
  49              		.loc 1 337 0
  50 000a 03F18C04 		add	r4, r3, #140
  51              	.LVL1:
  52              	.L2:
  53              		.loc 1 346 0 discriminator 2
  54 000e 31F8020F 		ldrh	r0, [r1, #2]!
  55              		.loc 1 343 0 discriminator 2
  56 0012 A3F8B420 		strh	r2, [r3, #180]	@ movhi
  57              		.loc 1 344 0 discriminator 2
ARM GAS  /var/folders/5n/p_75w94d66l9ssrldxqdhh700000gn/T//ccszYPrJ.s 			page 2


  58 0016 A3F8B620 		strh	r2, [r3, #182]	@ movhi
  59              		.loc 1 345 0 discriminator 2
  60 001a A3F8B820 		strh	r2, [r3, #184]	@ movhi
  61              		.loc 1 346 0 discriminator 2
  62 001e A3F8B200 		strh	r0, [r3, #178]	@ movhi
  63 0022 0A33     		adds	r3, r3, #10
  64              		.loc 1 342 0 discriminator 2
  65 0024 A342     		cmp	r3, r4
  66 0026 F2D1     		bne	.L2
  67 0028 194E     		ldr	r6, .L13+8
  68              		.loc 1 350 0
  69 002a 1A4F     		ldr	r7, .L13+12
  70 002c DFF86890 		ldr	r9, .L13+16
  71 0030 DFF868A0 		ldr	sl, .L13+20
  72              		.loc 1 337 0
  73 0034 0025     		movs	r5, #0
  74              		.loc 1 350 0
  75 0036 27F00307 		bic	r7, r7, #3
  76              	.LVL2:
  77              		.loc 1 337 0
  78 003a 06F13808 		add	r8, r6, #56
  79              		.loc 1 354 0
  80 003e AC46     		mov	ip, r5
  81              	.LVL3:
  82              	.L5:
  83              		.loc 1 359 0
  84 0040 39F80540 		ldrh	r4, [r9, r5]
  85              		.loc 1 354 0
  86 0044 46F804CB 		str	ip, [r6], #4
  87              	.LVL4:
  88              		.loc 1 359 0
  89 0048 BCB1     		cbz	r4, .L3
  90 004a 0021     		movs	r1, #0
  91 004c 35F80A00 		ldrh	r0, [r5, sl]
  92 0050 3B46     		mov	r3, r7
  93 0052 0A46     		mov	r2, r1
  94 0054 00E0     		b	.L4
  95              	.LVL5:
  96              	.L6:
  97              		.loc 1 362 0
  98 0056 5B46     		mov	r3, fp
  99              	.LVL6:
 100              	.L4:
 101              		.loc 1 359 0 discriminator 2
 102 0058 0132     		adds	r2, r2, #1
 103 005a 92B2     		uxth	r2, r2
 104 005c A242     		cmp	r2, r4
 105              		.loc 1 360 0 discriminator 2
 106 005e 1960     		str	r1, [r3, #0]
 107              		.loc 1 362 0 discriminator 2
 108 0060 03EB000B 		add	fp, r3, r0
 109              	.LVL7:
 110 0064 1946     		mov	r1, r3
 111              		.loc 1 359 0 discriminator 2
 112 0066 F6D1     		bne	.L6
 113              		.loc 1 337 0
 114 0068 013A     		subs	r2, r2, #1
ARM GAS  /var/folders/5n/p_75w94d66l9ssrldxqdhh700000gn/T//ccszYPrJ.s 			page 3


 115              	.LVL8:
 116 006a 92B2     		uxth	r2, r2
 117              	.LVL9:
 118 006c 00FB0273 		mla	r3, r0, r2, r7
 119 0070 02FB0000 		mla	r0, r2, r0, r0
 120 0074 46F8043C 		str	r3, [r6, #-4]
 121              		.loc 1 362 0
 122 0078 3F18     		adds	r7, r7, r0
 123              	.LVL10:
 124              	.L3:
 125 007a 0235     		adds	r5, r5, #2
 126              		.loc 1 353 0
 127 007c 4645     		cmp	r6, r8
 128 007e DFD1     		bne	.L5
 129              		.loc 1 374 0
 130 0080 BDE8F00F 		pop	{r4, r5, r6, r7, r8, r9, sl, fp}
 131 0084 7047     		bx	lr
 132              	.L14:
 133 0086 00BF     		.align	2
 134              	.L13:
 135 0088 00000000 		.word	lwip_stats
 136 008c FEFFFFFF 		.word	.LANCHOR0-2
 137 0090 00000000 		.word	.LANCHOR2
 138 0094 03000000 		.word	.LANCHOR1+3
 139 0098 00000000 		.word	.LANCHOR0
 140 009c 00000000 		.word	.LANCHOR3
 141              		.cfi_endproc
 142              	.LFE7:
 143              		.size	memp_init, .-memp_init
 144              		.section	.text.memp_malloc,"ax",%progbits
 145              		.align	2
 146              		.p2align 4,,15
 147              		.global	memp_malloc
 148              		.thumb
 149              		.thumb_func
 150              		.type	memp_malloc, %function
 151              	memp_malloc:
 152              	.LFB8:
 153              		.loc 1 393 0
 154              		.cfi_startproc
 155              		@ args = 0, pretend = 0, frame = 0
 156              		@ frame_needed = 0, uses_anonymous_args = 0
 157              	.LVL11:
 158              		.loc 1 397 0
 159 0000 0D28     		cmp	r0, #13
 160              		.loc 1 393 0
 161 0002 38B5     		push	{r3, r4, r5, lr}
 162              	.LCFI1:
 163              		.cfi_def_cfa_offset 16
 164              		.cfi_offset 3, -16
 165              		.cfi_offset 4, -12
 166              		.cfi_offset 5, -8
 167              		.cfi_offset 14, -4
 168              		.loc 1 397 0
 169 0004 2BD8     		bhi	.L23
 170              		.loc 1 404 0
 171 0006 184A     		ldr	r2, .L25
ARM GAS  /var/folders/5n/p_75w94d66l9ssrldxqdhh700000gn/T//ccszYPrJ.s 			page 4


 172 0008 52F82040 		ldr	r4, [r2, r0, lsl #2]
 173              	.LVL12:
 174              		.loc 1 406 0
 175 000c DCB1     		cbz	r4, .L18
 176              		.loc 1 413 0
 177 000e 174B     		ldr	r3, .L25+4
 178              		.loc 1 407 0
 179 0010 2168     		ldr	r1, [r4, #0]
 180              		.loc 1 413 0
 181 0012 00EB8005 		add	r5, r0, r0, lsl #2
 182 0016 03EB4503 		add	r3, r3, r5, lsl #1
 183              		.loc 1 407 0
 184 001a 42F82010 		str	r1, [r2, r0, lsl #2]
 185              		.loc 1 413 0
 186 001e B3F8B420 		ldrh	r2, [r3, #180]
 187 0022 B3F8B610 		ldrh	r1, [r3, #182]
 188 0026 0132     		adds	r2, r2, #1
 189 0028 92B2     		uxth	r2, r2
 190 002a 9142     		cmp	r1, r2
 191 002c A3F8B420 		strh	r2, [r3, #180]	@ movhi
 192 0030 38BF     		it	cc
 193 0032 A3F8B620 		strhcc	r2, [r3, #182]	@ movhi
 194              		.loc 1 414 0
 195 0036 A307     		lsls	r3, r4, #30
 196 0038 01D1     		bne	.L24
 197              	.LVL13:
 198              	.L17:
 199              		.loc 1 425 0
 200 003a 2046     		mov	r0, r4
 201 003c 38BD     		pop	{r3, r4, r5, pc}
 202              	.LVL14:
 203              	.L24:
 204              		.loc 1 414 0 discriminator 1
 205 003e FFF7FEFF 		bl	port_halt
 206              	.LVL15:
 207              		.loc 1 425 0 discriminator 1
 208 0042 2046     		mov	r0, r4
 209 0044 38BD     		pop	{r3, r4, r5, pc}
 210              	.LVL16:
 211              	.L18:
 212              		.loc 1 419 0
 213 0046 094B     		ldr	r3, .L25+4
 214 0048 00EB8000 		add	r0, r0, r0, lsl #2
 215              	.LVL17:
 216 004c 03EB4000 		add	r0, r3, r0, lsl #1
 217 0050 B0F8B830 		ldrh	r3, [r0, #184]
 218 0054 0133     		adds	r3, r3, #1
 219 0056 A0F8B830 		strh	r3, [r0, #184]	@ movhi
 220              		.loc 1 425 0
 221 005a 2046     		mov	r0, r4
 222 005c 38BD     		pop	{r3, r4, r5, pc}
 223              	.LVL18:
 224              	.L23:
 225              		.loc 1 397 0 discriminator 1
 226 005e FFF7FEFF 		bl	port_halt
 227              	.LVL19:
 228 0062 0024     		movs	r4, #0
ARM GAS  /var/folders/5n/p_75w94d66l9ssrldxqdhh700000gn/T//ccszYPrJ.s 			page 5


 229 0064 E9E7     		b	.L17
 230              	.L26:
 231 0066 00BF     		.align	2
 232              	.L25:
 233 0068 00000000 		.word	.LANCHOR2
 234 006c 00000000 		.word	lwip_stats
 235              		.cfi_endproc
 236              	.LFE8:
 237              		.size	memp_malloc, .-memp_malloc
 238              		.section	.text.memp_free,"ax",%progbits
 239              		.align	2
 240              		.p2align 4,,15
 241              		.global	memp_free
 242              		.thumb
 243              		.thumb_func
 244              		.type	memp_free, %function
 245              	memp_free:
 246              	.LFB9:
 247              		.loc 1 435 0
 248              		.cfi_startproc
 249              		@ args = 0, pretend = 0, frame = 0
 250              		@ frame_needed = 0, uses_anonymous_args = 0
 251              	.LVL20:
 252 0000 38B5     		push	{r3, r4, r5, lr}
 253              	.LCFI2:
 254              		.cfi_def_cfa_offset 16
 255              		.cfi_offset 3, -16
 256              		.cfi_offset 4, -12
 257              		.cfi_offset 5, -8
 258              		.cfi_offset 14, -4
 259              		.loc 1 439 0
 260 0002 0C46     		mov	r4, r1
 261              		.loc 1 435 0
 262 0004 0546     		mov	r5, r0
 263              		.loc 1 439 0
 264 0006 89B1     		cbz	r1, .L27
 265              		.loc 1 442 0
 266 0008 8A07     		lsls	r2, r1, #30
 267 000a 10D1     		bne	.L36
 268              	.LVL21:
 269              	.L29:
 270              		.loc 1 457 0
 271 000c 094A     		ldr	r2, .L37
 272              		.loc 1 459 0
 273 000e 0A4B     		ldr	r3, .L37+4
 274              		.loc 1 457 0
 275 0010 05EB8501 		add	r1, r5, r5, lsl #2
 276 0014 02EB4102 		add	r2, r2, r1, lsl #1
 277              		.loc 1 459 0
 278 0018 53F82510 		ldr	r1, [r3, r5, lsl #2]
 279              		.loc 1 457 0
 280 001c B2F8B400 		ldrh	r0, [r2, #180]
 281 0020 0138     		subs	r0, r0, #1
 282 0022 A2F8B400 		strh	r0, [r2, #180]	@ movhi
 283              		.loc 1 459 0
 284 0026 2160     		str	r1, [r4, #0]
 285              		.loc 1 460 0
ARM GAS  /var/folders/5n/p_75w94d66l9ssrldxqdhh700000gn/T//ccszYPrJ.s 			page 6


 286 0028 43F82540 		str	r4, [r3, r5, lsl #2]
 287              	.LVL22:
 288              	.L27:
 289 002c 38BD     		pop	{r3, r4, r5, pc}
 290              	.LVL23:
 291              	.L36:
 292              		.loc 1 442 0 discriminator 1
 293 002e FFF7FEFF 		bl	port_halt
 294              	.LVL24:
 295 0032 EBE7     		b	.L29
 296              	.L38:
 297              		.align	2
 298              	.L37:
 299 0034 00000000 		.word	lwip_stats
 300 0038 00000000 		.word	.LANCHOR2
 301              		.cfi_endproc
 302              	.LFE9:
 303              		.size	memp_free, .-memp_free
 304 003c AFF30080 		.section	.rodata.memp_num,"a",%progbits
 305              		.align	2
 306              		.set	.LANCHOR0,. + 0
 307              		.type	memp_num, %object
 308              		.size	memp_num, 28
 309              	memp_num:
 310 0000 0400     		.short	4
 311 0002 0400     		.short	4
 312 0004 0500     		.short	5
 313 0006 0800     		.short	8
 314 0008 1000     		.short	16
 315 000a 0500     		.short	5
 316 000c 0F00     		.short	15
 317 000e 0200     		.short	2
 318 0010 0400     		.short	4
 319 0012 0800     		.short	8
 320 0014 0800     		.short	8
 321 0016 0300     		.short	3
 322 0018 1000     		.short	16
 323 001a 1000     		.short	16
 324              		.section	.bss.memp_memory,"aw",%nobits
 325              		.align	2
 326              		.set	.LANCHOR1,. + 0
 327              		.type	memp_memory, %object
 328              		.size	memp_memory, 12655
 329              	memp_memory:
 330 0000 00000000 		.space	12655
 330      00000000 
 330      00000000 
 330      00000000 
 330      00000000 
 331 316f 00       		.section	.bss.memp_tab,"aw",%nobits
 332              		.align	2
 333              		.set	.LANCHOR2,. + 0
 334              		.type	memp_tab, %object
 335              		.size	memp_tab, 56
 336              	memp_tab:
 337 0000 00000000 		.space	56
 337      00000000 
ARM GAS  /var/folders/5n/p_75w94d66l9ssrldxqdhh700000gn/T//ccszYPrJ.s 			page 7


 337      00000000 
 337      00000000 
 337      00000000 
 338              		.section	.rodata.memp_sizes,"a",%progbits
 339              		.align	2
 340              		.set	.LANCHOR3,. + 0
 341              		.type	memp_sizes, %object
 342              		.size	memp_sizes, 28
 343              	memp_sizes:
 344 0000 1C00     		.short	28
 345 0002 2000     		.short	32
 346 0004 A400     		.short	164
 347 0006 2000     		.short	32
 348 0008 1000     		.short	16
 349 000a 2000     		.short	32
 350 000c 1800     		.short	24
 351 000e 1000     		.short	16
 352 0010 2C00     		.short	44
 353 0012 1400     		.short	20
 354 0014 1400     		.short	20
 355 0016 1000     		.short	16
 356 0018 1000     		.short	16
 357 001a 6002     		.short	608
 358              		.text
 359              	.Letext0:
 360              		.file 2 "/usr/local/cross/lib/gcc/arm-none-eabi/4.7.2/../../../../arm-none-eabi/include/stdint.h"
 361              		.file 3 "../../os/various/lwip_bindings/arch/cc.h"
 362              		.file 4 "../../ext/lwip-1.4.0/src/include/lwip/memp.h"
 363              		.file 5 "../../ext/lwip-1.4.0/src/include/lwip/mem.h"
 364              		.file 6 "../../ext/lwip-1.4.0/src/include/lwip/stats.h"
 365              		.file 7 "../../os/ports/GCC/ARMCMx/chcore_v7m.h"