ARM GAS  /var/folders/5n/p_75w94d66l9ssrldxqdhh700000gn/T//ccWLyGAy.s 			page 1


   1              		.syntax unified
   2              		.cpu cortex-m4
   3              		.fpu softvfp
   4              		.eabi_attribute 20, 1
   5              		.eabi_attribute 21, 1
   6              		.eabi_attribute 23, 3
   7              		.eabi_attribute 24, 1
   8              		.eabi_attribute 25, 1
   9              		.eabi_attribute 26, 1
  10              		.eabi_attribute 30, 2
  11              		.eabi_attribute 34, 1
  12              		.eabi_attribute 18, 4
  13              		.thumb
  14              		.file	"netbuf.c"
  15              		.text
  16              	.Ltext0:
  17              		.cfi_sections	.debug_frame
  18              		.section	.text.netbuf_new,"ax",%progbits
  19              		.align	2
  20              		.p2align 4,,15
  21              		.global	netbuf_new
  22              		.thumb
  23              		.thumb_func
  24              		.type	netbuf_new, %function
  25              	netbuf_new:
  26              	.LFB7:
  27              		.file 1 "../../ext/lwip-1.4.0/src/api/netbuf.c"
  28              		.loc 1 57 0
  29              		.cfi_startproc
  30              		@ args = 0, pretend = 0, frame = 0
  31              		@ frame_needed = 0, uses_anonymous_args = 0
  32 0000 08B5     		push	{r3, lr}
  33              	.LCFI0:
  34              		.cfi_def_cfa_offset 8
  35              		.cfi_offset 3, -8
  36              		.cfi_offset 14, -4
  37              		.loc 1 60 0
  38 0002 0720     		movs	r0, #7
  39 0004 FFF7FEFF 		bl	memp_malloc
  40              	.LVL0:
  41              		.loc 1 61 0
  42 0008 20B1     		cbz	r0, .L2
  43              		.loc 1 62 0
  44 000a 0023     		movs	r3, #0
  45 000c 0360     		str	r3, [r0, #0]
  46              		.loc 1 63 0
  47 000e 4360     		str	r3, [r0, #4]
  48              		.loc 1 64 0
  49 0010 8360     		str	r3, [r0, #8]
  50              		.loc 1 65 0
  51 0012 8381     		strh	r3, [r0, #12]	@ movhi
  52              	.L2:
  53              		.loc 1 79 0
  54 0014 08BD     		pop	{r3, pc}
  55              		.cfi_endproc
  56              	.LFE7:
  57              		.size	netbuf_new, .-netbuf_new
ARM GAS  /var/folders/5n/p_75w94d66l9ssrldxqdhh700000gn/T//ccWLyGAy.s 			page 2


  58 0016 00BFAFF3 		.section	.text.netbuf_delete,"ax",%progbits
  58      0080AFF3 
  58      0080
  59              		.align	2
  60              		.p2align 4,,15
  61              		.global	netbuf_delete
  62              		.thumb
  63              		.thumb_func
  64              		.type	netbuf_delete, %function
  65              	netbuf_delete:
  66              	.LFB8:
  67              		.loc 1 88 0
  68              		.cfi_startproc
  69              		@ args = 0, pretend = 0, frame = 0
  70              		@ frame_needed = 0, uses_anonymous_args = 0
  71              	.LVL1:
  72 0000 10B5     		push	{r4, lr}
  73              	.LCFI1:
  74              		.cfi_def_cfa_offset 8
  75              		.cfi_offset 4, -8
  76              		.cfi_offset 14, -4
  77              		.loc 1 89 0
  78 0002 0446     		mov	r4, r0
  79 0004 60B1     		cbz	r0, .L7
  80              		.loc 1 90 0
  81 0006 0068     		ldr	r0, [r0, #0]
  82              	.LVL2:
  83 0008 20B1     		cbz	r0, .L9
  84              		.loc 1 91 0
  85 000a FFF7FEFF 		bl	pbuf_free
  86              	.LVL3:
  87              		.loc 1 92 0
  88 000e 0023     		movs	r3, #0
  89 0010 6360     		str	r3, [r4, #4]
  90 0012 2360     		str	r3, [r4, #0]
  91              	.L9:
  92              		.loc 1 94 0
  93 0014 0720     		movs	r0, #7
  94 0016 2146     		mov	r1, r4
  95              		.loc 1 96 0
  96 0018 BDE81040 		pop	{r4, lr}
  97              		.loc 1 94 0
  98 001c FFF7FEBF 		b	memp_free
  99              	.LVL4:
 100              	.L7:
 101 0020 10BD     		pop	{r4, pc}
 102              		.cfi_endproc
 103              	.LFE8:
 104              		.size	netbuf_delete, .-netbuf_delete
 105 0022 00BFAFF3 		.section	.text.netbuf_alloc,"ax",%progbits
 105      0080AFF3 
 105      0080AFF3 
 105      0080
 106              		.align	2
 107              		.p2align 4,,15
 108              		.global	netbuf_alloc
 109              		.thumb
ARM GAS  /var/folders/5n/p_75w94d66l9ssrldxqdhh700000gn/T//ccWLyGAy.s 			page 3


 110              		.thumb_func
 111              		.type	netbuf_alloc, %function
 112              	netbuf_alloc:
 113              	.LFB9:
 114              		.loc 1 108 0
 115              		.cfi_startproc
 116              		@ args = 0, pretend = 0, frame = 0
 117              		@ frame_needed = 0, uses_anonymous_args = 0
 118              	.LVL5:
 119 0000 38B5     		push	{r3, r4, r5, lr}
 120              	.LCFI2:
 121              		.cfi_def_cfa_offset 16
 122              		.cfi_offset 3, -16
 123              		.cfi_offset 4, -12
 124              		.cfi_offset 5, -8
 125              		.cfi_offset 14, -4
 126              		.loc 1 109 0
 127 0002 0446     		mov	r4, r0
 128              		.loc 1 108 0
 129 0004 0D46     		mov	r5, r1
 130              		.loc 1 109 0
 131 0006 A0B1     		cbz	r0, .L22
 132              		.loc 1 112 0
 133 0008 0068     		ldr	r0, [r0, #0]
 134              	.LVL6:
 135 000a 08B1     		cbz	r0, .L16
 136              		.loc 1 113 0
 137 000c FFF7FEFF 		bl	pbuf_free
 138              	.LVL7:
 139              	.L16:
 140              		.loc 1 115 0
 141 0010 0020     		movs	r0, #0
 142 0012 2946     		mov	r1, r5
 143 0014 0246     		mov	r2, r0
 144 0016 FFF7FEFF 		bl	pbuf_alloc
 145              	.LVL8:
 146 001a 2060     		str	r0, [r4, #0]
 147              		.loc 1 116 0
 148 001c 20B1     		cbz	r0, .L15
 149              		.loc 1 119 0
 150 001e 4289     		ldrh	r2, [r0, #10]
 151 0020 AA42     		cmp	r2, r5
 152 0022 02D3     		bcc	.L23
 153              	.L17:
 154              		.loc 1 121 0
 155 0024 6060     		str	r0, [r4, #4]
 156              		.loc 1 122 0
 157 0026 4068     		ldr	r0, [r0, #4]
 158              	.L15:
 159              		.loc 1 123 0
 160 0028 38BD     		pop	{r3, r4, r5, pc}
 161              	.L23:
 162              		.loc 1 119 0 discriminator 1
 163 002a FFF7FEFF 		bl	port_halt
 164              	.LVL9:
 165 002e 2068     		ldr	r0, [r4, #0]
 166 0030 F8E7     		b	.L17
ARM GAS  /var/folders/5n/p_75w94d66l9ssrldxqdhh700000gn/T//ccWLyGAy.s 			page 4


 167              	.LVL10:
 168              	.L22:
 169              		.loc 1 109 0 discriminator 1
 170 0032 FFF7FEFF 		bl	port_halt
 171              	.LVL11:
 172 0036 2046     		mov	r0, r4
 173 0038 38BD     		pop	{r3, r4, r5, pc}
 174              		.cfi_endproc
 175              	.LFE9:
 176              		.size	netbuf_alloc, .-netbuf_alloc
 177 003a 00BFAFF3 		.section	.text.netbuf_free,"ax",%progbits
 177      0080
 178              		.align	2
 179              		.p2align 4,,15
 180              		.global	netbuf_free
 181              		.thumb
 182              		.thumb_func
 183              		.type	netbuf_free, %function
 184              	netbuf_free:
 185              	.LFB10:
 186              		.loc 1 132 0
 187              		.cfi_startproc
 188              		@ args = 0, pretend = 0, frame = 0
 189              		@ frame_needed = 0, uses_anonymous_args = 0
 190              	.LVL12:
 191 0000 10B5     		push	{r4, lr}
 192              	.LCFI3:
 193              		.cfi_def_cfa_offset 8
 194              		.cfi_offset 4, -8
 195              		.cfi_offset 14, -4
 196              		.loc 1 133 0
 197 0002 0446     		mov	r4, r0
 198 0004 38B1     		cbz	r0, .L30
 199              		.loc 1 134 0
 200 0006 0068     		ldr	r0, [r0, #0]
 201              	.LVL13:
 202 0008 08B1     		cbz	r0, .L26
 203              		.loc 1 135 0
 204 000a FFF7FEFF 		bl	pbuf_free
 205              	.LVL14:
 206              	.L26:
 207              		.loc 1 137 0
 208 000e 0023     		movs	r3, #0
 209 0010 6360     		str	r3, [r4, #4]
 210 0012 2360     		str	r3, [r4, #0]
 211 0014 10BD     		pop	{r4, pc}
 212              	.LVL15:
 213              	.L30:
 214              		.loc 1 138 0 discriminator 1
 215 0016 BDE81040 		pop	{r4, lr}
 216              		.loc 1 133 0 discriminator 1
 217 001a FFF7FEBF 		b	port_halt
 218              	.LVL16:
 219              		.cfi_endproc
 220              	.LFE10:
 221              		.size	netbuf_free, .-netbuf_free
 222 001e 00BF     		.section	.text.netbuf_ref,"ax",%progbits
ARM GAS  /var/folders/5n/p_75w94d66l9ssrldxqdhh700000gn/T//ccWLyGAy.s 			page 5


 223              		.align	2
 224              		.p2align 4,,15
 225              		.global	netbuf_ref
 226              		.thumb
 227              		.thumb_func
 228              		.type	netbuf_ref, %function
 229              	netbuf_ref:
 230              	.LFB11:
 231              		.loc 1 151 0
 232              		.cfi_startproc
 233              		@ args = 0, pretend = 0, frame = 0
 234              		@ frame_needed = 0, uses_anonymous_args = 0
 235              	.LVL17:
 236 0000 70B5     		push	{r4, r5, r6, lr}
 237              	.LCFI4:
 238              		.cfi_def_cfa_offset 16
 239              		.cfi_offset 4, -16
 240              		.cfi_offset 5, -12
 241              		.cfi_offset 6, -8
 242              		.cfi_offset 14, -4
 243              		.loc 1 152 0
 244 0002 0446     		mov	r4, r0
 245              		.loc 1 151 0
 246 0004 0E46     		mov	r6, r1
 247 0006 1546     		mov	r5, r2
 248              		.loc 1 152 0
 249 0008 A8B1     		cbz	r0, .L39
 250              		.loc 1 153 0
 251 000a 0068     		ldr	r0, [r0, #0]
 252              	.LVL18:
 253 000c 08B1     		cbz	r0, .L34
 254              		.loc 1 154 0
 255 000e FFF7FEFF 		bl	pbuf_free
 256              	.LVL19:
 257              	.L34:
 258              		.loc 1 156 0
 259 0012 0020     		movs	r0, #0
 260 0014 0146     		mov	r1, r0
 261 0016 0222     		movs	r2, #2
 262 0018 FFF7FEFF 		bl	pbuf_alloc
 263              	.LVL20:
 264 001c 0346     		mov	r3, r0
 265 001e 2060     		str	r0, [r4, #0]
 266              		.loc 1 157 0
 267 0020 30B1     		cbz	r0, .L40
 268              		.loc 1 161 0
 269 0022 4660     		str	r6, [r0, #4]
 270              		.loc 1 162 0
 271 0024 0581     		strh	r5, [r0, #8]	@ movhi
 272 0026 4581     		strh	r5, [r0, #10]	@ movhi
 273              		.loc 1 164 0
 274 0028 0020     		movs	r0, #0
 275              		.loc 1 163 0
 276 002a 6360     		str	r3, [r4, #4]
 277              	.L33:
 278              		.loc 1 165 0
 279 002c 40B2     		sxtb	r0, r0
ARM GAS  /var/folders/5n/p_75w94d66l9ssrldxqdhh700000gn/T//ccWLyGAy.s 			page 6


 280 002e 70BD     		pop	{r4, r5, r6, pc}
 281              	.L40:
 282              		.loc 1 158 0
 283 0030 6060     		str	r0, [r4, #4]
 284              		.loc 1 159 0
 285 0032 FF20     		movs	r0, #255
 286 0034 FAE7     		b	.L33
 287              	.LVL21:
 288              	.L39:
 289              		.loc 1 152 0 discriminator 1
 290 0036 FFF7FEFF 		bl	port_halt
 291              	.LVL22:
 292 003a F220     		movs	r0, #242
 293 003c F6E7     		b	.L33
 294              		.cfi_endproc
 295              	.LFE11:
 296              		.size	netbuf_ref, .-netbuf_ref
 297 003e 00BF     		.section	.text.netbuf_chain,"ax",%progbits
 298              		.align	2
 299              		.p2align 4,,15
 300              		.global	netbuf_chain
 301              		.thumb
 302              		.thumb_func
 303              		.type	netbuf_chain, %function
 304              	netbuf_chain:
 305              	.LFB12:
 306              		.loc 1 175 0
 307              		.cfi_startproc
 308              		@ args = 0, pretend = 0, frame = 0
 309              		@ frame_needed = 0, uses_anonymous_args = 0
 310              	.LVL23:
 311 0000 38B5     		push	{r3, r4, r5, lr}
 312              	.LCFI5:
 313              		.cfi_def_cfa_offset 16
 314              		.cfi_offset 3, -16
 315              		.cfi_offset 4, -12
 316              		.cfi_offset 5, -8
 317              		.cfi_offset 14, -4
 318              		.loc 1 176 0
 319 0002 0446     		mov	r4, r0
 320              		.loc 1 175 0
 321 0004 0D46     		mov	r5, r1
 322              		.loc 1 176 0
 323 0006 60B1     		cbz	r0, .L43
 324              		.loc 1 177 0
 325 0008 59B1     		cbz	r1, .L43
 326              		.loc 1 178 0
 327 000a 0068     		ldr	r0, [r0, #0]
 328              	.LVL24:
 329 000c 0968     		ldr	r1, [r1, #0]
 330              	.LVL25:
 331 000e FFF7FEFF 		bl	pbuf_cat
 332              	.LVL26:
 333              		.loc 1 179 0
 334 0012 2368     		ldr	r3, [r4, #0]
 335              		.loc 1 180 0
 336 0014 0720     		movs	r0, #7
ARM GAS  /var/folders/5n/p_75w94d66l9ssrldxqdhh700000gn/T//ccWLyGAy.s 			page 7


 337 0016 2946     		mov	r1, r5
 338              		.loc 1 179 0
 339 0018 6360     		str	r3, [r4, #4]
 340              		.loc 1 181 0
 341 001a BDE83840 		pop	{r3, r4, r5, lr}
 342              		.loc 1 180 0
 343 001e FFF7FEBF 		b	memp_free
 344              	.LVL27:
 345              	.L43:
 346              		.loc 1 181 0 discriminator 1
 347 0022 BDE83840 		pop	{r3, r4, r5, lr}
 348              		.loc 1 176 0 discriminator 1
 349 0026 FFF7FEBF 		b	port_halt
 350              	.LVL28:
 351              		.cfi_endproc
 352              	.LFE12:
 353              		.size	netbuf_chain, .-netbuf_chain
 354 002a 00BFAFF3 		.section	.text.netbuf_data,"ax",%progbits
 354      0080
 355              		.align	2
 356              		.p2align 4,,15
 357              		.global	netbuf_data
 358              		.thumb
 359              		.thumb_func
 360              		.type	netbuf_data, %function
 361              	netbuf_data:
 362              	.LFB13:
 363              		.loc 1 194 0
 364              		.cfi_startproc
 365              		@ args = 0, pretend = 0, frame = 0
 366              		@ frame_needed = 0, uses_anonymous_args = 0
 367              	.LVL29:
 368 0000 08B5     		push	{r3, lr}
 369              	.LCFI6:
 370              		.cfi_def_cfa_offset 8
 371              		.cfi_offset 3, -8
 372              		.cfi_offset 14, -4
 373              		.loc 1 195 0
 374 0002 58B1     		cbz	r0, .L50
 375              		.loc 1 196 0
 376 0004 51B1     		cbz	r1, .L50
 377              		.loc 1 197 0
 378 0006 4AB1     		cbz	r2, .L50
 379              		.loc 1 199 0
 380 0008 4368     		ldr	r3, [r0, #4]
 381 000a 5BB1     		cbz	r3, .L51
 382              		.loc 1 202 0
 383 000c 5B68     		ldr	r3, [r3, #4]
 384 000e 0B60     		str	r3, [r1, #0]
 385              		.loc 1 203 0
 386 0010 4368     		ldr	r3, [r0, #4]
 387 0012 5B89     		ldrh	r3, [r3, #10]
 388              		.loc 1 204 0
 389 0014 0020     		movs	r0, #0
 390              	.LVL30:
 391              		.loc 1 203 0
 392 0016 1380     		strh	r3, [r2, #0]	@ movhi
ARM GAS  /var/folders/5n/p_75w94d66l9ssrldxqdhh700000gn/T//ccWLyGAy.s 			page 8


 393              	.LVL31:
 394              	.L49:
 395              		.loc 1 205 0
 396 0018 40B2     		sxtb	r0, r0
 397 001a 08BD     		pop	{r3, pc}
 398              	.LVL32:
 399              	.L50:
 400              		.loc 1 195 0 discriminator 1
 401 001c FFF7FEFF 		bl	port_halt
 402              	.LVL33:
 403 0020 F220     		movs	r0, #242
 404 0022 F9E7     		b	.L49
 405              	.LVL34:
 406              	.L51:
 407              		.loc 1 200 0
 408 0024 FE20     		movs	r0, #254
 409              	.LVL35:
 410 0026 F7E7     		b	.L49
 411              		.cfi_endproc
 412              	.LFE13:
 413              		.size	netbuf_data, .-netbuf_data
 414 0028 AFF30080 		.section	.text.netbuf_next,"ax",%progbits
 414      AFF30080 
 415              		.align	2
 416              		.p2align 4,,15
 417              		.global	netbuf_next
 418              		.thumb
 419              		.thumb_func
 420              		.type	netbuf_next, %function
 421              	netbuf_next:
 422              	.LFB14:
 423              		.loc 1 219 0
 424              		.cfi_startproc
 425              		@ args = 0, pretend = 0, frame = 0
 426              		@ frame_needed = 0, uses_anonymous_args = 0
 427              	.LVL36:
 428 0000 08B5     		push	{r3, lr}
 429              	.LCFI7:
 430              		.cfi_def_cfa_offset 8
 431              		.cfi_offset 3, -8
 432              		.cfi_offset 14, -4
 433              		.loc 1 220 0
 434 0002 60B1     		cbz	r0, .L62
 435              		.loc 1 221 0
 436 0004 4368     		ldr	r3, [r0, #4]
 437 0006 1B68     		ldr	r3, [r3, #0]
 438 0008 3BB1     		cbz	r3, .L61
 439              		.loc 1 225 0
 440 000a 1A68     		ldr	r2, [r3, #0]
 441              		.loc 1 224 0
 442 000c 4360     		str	r3, [r0, #4]
 443              		.loc 1 220 0
 444 000e D2F10100 		rsbs	r0, r2, #1
 445              	.LVL37:
 446 0012 38BF     		it	cc
 447 0014 0020     		movcc	r0, #0
 448              	.L60:
ARM GAS  /var/folders/5n/p_75w94d66l9ssrldxqdhh700000gn/T//ccWLyGAy.s 			page 9


 449              		.loc 1 229 0
 450 0016 40B2     		sxtb	r0, r0
 451 0018 08BD     		pop	{r3, pc}
 452              	.LVL38:
 453              	.L61:
 454              		.loc 1 222 0
 455 001a FF20     		movs	r0, #255
 456              	.LVL39:
 457 001c FBE7     		b	.L60
 458              	.LVL40:
 459              	.L62:
 460              		.loc 1 220 0 discriminator 1
 461 001e FFF7FEFF 		bl	port_halt
 462              	.LVL41:
 463 0022 FF20     		movs	r0, #255
 464 0024 F7E7     		b	.L60
 465              		.cfi_endproc
 466              	.LFE14:
 467              		.size	netbuf_next, .-netbuf_next
 468 0026 00BFAFF3 		.section	.text.netbuf_first,"ax",%progbits
 468      0080AFF3 
 468      0080
 469              		.align	2
 470              		.p2align 4,,15
 471              		.global	netbuf_first
 472              		.thumb
 473              		.thumb_func
 474              		.type	netbuf_first, %function
 475              	netbuf_first:
 476              	.LFB15:
 477              		.loc 1 240 0
 478              		.cfi_startproc
 479              		@ args = 0, pretend = 0, frame = 0
 480              		@ frame_needed = 0, uses_anonymous_args = 0
 481              		@ link register save eliminated.
 482              	.LVL42:
 483              		.loc 1 241 0
 484 0000 10B1     		cbz	r0, .L65
 485              		.loc 1 242 0
 486 0002 0368     		ldr	r3, [r0, #0]
 487 0004 4360     		str	r3, [r0, #4]
 488 0006 7047     		bx	lr
 489              	.L65:
 490              		.loc 1 243 0 discriminator 1
 491              		.loc 1 241 0 discriminator 1
 492 0008 FFF7FEBF 		b	port_halt
 493              	.LVL43:
 494              		.cfi_endproc
 495              	.LFE15:
 496              		.size	netbuf_first, .-netbuf_first
 497 000c AFF30080 		.text
 498              	.Letext0:
 499              		.file 2 "/usr/local/cross/lib/gcc/arm-none-eabi/4.7.2/../../../../arm-none-eabi/include/stdint.h"
 500              		.file 3 "../../os/various/lwip_bindings/arch/cc.h"
 501              		.file 4 "../../ext/lwip-1.4.0/src/include/lwip/err.h"
 502              		.file 5 "../../ext/lwip-1.4.0/src/include/lwip/pbuf.h"
 503              		.file 6 "../../ext/lwip-1.4.0/src/include/ipv4/lwip/ip_addr.h"
ARM GAS  /var/folders/5n/p_75w94d66l9ssrldxqdhh700000gn/T//ccWLyGAy.s 			page 10


 504              		.file 7 "../../ext/lwip-1.4.0/src/include/lwip/netbuf.h"
 505              		.file 8 "../../ext/lwip-1.4.0/src/include/lwip/memp.h"
 506              		.file 9 "../../os/ports/GCC/ARMCMx/chcore_v7m.h"
 507              		.section	.debug_info,"",%progbits
 508              	.Ldebug_info0:
 509 0000 FE050000 		.4byte	0x5fe
 510 0004 0200     		.2byte	0x2
 511 0006 00000000 		.4byte	.Ldebug_abbrev0
 512 000a 04       		.byte	0x4
 513 000b 01       		.uleb128 0x1
 514 000c EF010000 		.4byte	.LASF73
 515 0010 01       		.byte	0x1
 516 0011 D9000000 		.4byte	.LASF74
 517 0015 77000000 		.4byte	.LASF75
 518 0019 00000000 		.4byte	.Ldebug_ranges0+0
 519 001d 00000000 		.4byte	0
 520 0021 00000000 		.4byte	0
 521 0025 00000000 		.4byte	.Ldebug_line0
 522 0029 02       		.uleb128 0x2
 523 002a 04       		.byte	0x4
 524 002b 05       		.byte	0x5
 525 002c 696E7400 		.ascii	"int\000"
 526 0030 03       		.uleb128 0x3
 527 0031 04       		.byte	0x4
 528 0032 07       		.byte	0x7
 529 0033 D9010000 		.4byte	.LASF0
 530 0037 04       		.uleb128 0x4
 531 0038 20000000 		.4byte	.LASF2
 532 003c 02       		.byte	0x2
 533 003d 29       		.byte	0x29
 534 003e 42000000 		.4byte	0x42
 535 0042 03       		.uleb128 0x3
 536 0043 01       		.byte	0x1
 537 0044 06       		.byte	0x6
 538 0045 A7010000 		.4byte	.LASF1
 539 0049 04       		.uleb128 0x4
 540 004a FA020000 		.4byte	.LASF3
 541 004e 02       		.byte	0x2
 542 004f 2A       		.byte	0x2a
 543 0050 54000000 		.4byte	0x54
 544 0054 03       		.uleb128 0x3
 545 0055 01       		.byte	0x1
 546 0056 08       		.byte	0x8
 547 0057 8B010000 		.4byte	.LASF4
 548 005b 03       		.uleb128 0x3
 549 005c 02       		.byte	0x2
 550 005d 05       		.byte	0x5
 551 005e 41000000 		.4byte	.LASF5
 552 0062 04       		.uleb128 0x4
 553 0063 E6010000 		.4byte	.LASF6
 554 0067 02       		.byte	0x2
 555 0068 36       		.byte	0x36
 556 0069 6D000000 		.4byte	0x6d
 557 006d 03       		.uleb128 0x3
 558 006e 02       		.byte	0x2
 559 006f 07       		.byte	0x7
 560 0070 4E020000 		.4byte	.LASF7
ARM GAS  /var/folders/5n/p_75w94d66l9ssrldxqdhh700000gn/T//ccWLyGAy.s 			page 11


 561 0074 03       		.uleb128 0x3
 562 0075 04       		.byte	0x4
 563 0076 05       		.byte	0x5
 564 0077 6A010000 		.4byte	.LASF8
 565 007b 04       		.uleb128 0x4
 566 007c D0010000 		.4byte	.LASF9
 567 0080 02       		.byte	0x2
 568 0081 50       		.byte	0x50
 569 0082 86000000 		.4byte	0x86
 570 0086 03       		.uleb128 0x3
 571 0087 04       		.byte	0x4
 572 0088 07       		.byte	0x7
 573 0089 B3020000 		.4byte	.LASF10
 574 008d 03       		.uleb128 0x3
 575 008e 08       		.byte	0x8
 576 008f 05       		.byte	0x5
 577 0090 3E010000 		.4byte	.LASF11
 578 0094 03       		.uleb128 0x3
 579 0095 08       		.byte	0x8
 580 0096 07       		.byte	0x7
 581 0097 B9010000 		.4byte	.LASF12
 582 009b 05       		.uleb128 0x5
 583 009c 04       		.byte	0x4
 584 009d 03       		.uleb128 0x3
 585 009e 04       		.byte	0x4
 586 009f 07       		.byte	0x7
 587 00a0 64000000 		.4byte	.LASF13
 588 00a4 03       		.uleb128 0x3
 589 00a5 01       		.byte	0x1
 590 00a6 08       		.byte	0x8
 591 00a7 31020000 		.4byte	.LASF14
 592 00ab 04       		.uleb128 0x4
 593 00ac EF020000 		.4byte	.LASF15
 594 00b0 03       		.byte	0x3
 595 00b1 43       		.byte	0x43
 596 00b2 49000000 		.4byte	0x49
 597 00b6 04       		.uleb128 0x4
 598 00b7 39010000 		.4byte	.LASF16
 599 00bb 03       		.byte	0x3
 600 00bc 44       		.byte	0x44
 601 00bd 37000000 		.4byte	0x37
 602 00c1 04       		.uleb128 0x4
 603 00c2 02030000 		.4byte	.LASF17
 604 00c6 03       		.byte	0x3
 605 00c7 45       		.byte	0x45
 606 00c8 62000000 		.4byte	0x62
 607 00cc 04       		.uleb128 0x4
 608 00cd F4020000 		.4byte	.LASF18
 609 00d1 03       		.byte	0x3
 610 00d2 47       		.byte	0x47
 611 00d3 7B000000 		.4byte	0x7b
 612 00d7 04       		.uleb128 0x4
 613 00d8 2B020000 		.4byte	.LASF19
 614 00dc 04       		.byte	0x4
 615 00dd 2F       		.byte	0x2f
 616 00de B6000000 		.4byte	0xb6
 617 00e2 06       		.uleb128 0x6
ARM GAS  /var/folders/5n/p_75w94d66l9ssrldxqdhh700000gn/T//ccWLyGAy.s 			page 12


 618 00e3 01       		.byte	0x1
 619 00e4 05       		.byte	0x5
 620 00e5 32       		.byte	0x32
 621 00e6 03010000 		.4byte	0x103
 622 00ea 07       		.uleb128 0x7
 623 00eb 8A020000 		.4byte	.LASF20
 624 00ef 00       		.sleb128 0
 625 00f0 07       		.uleb128 0x7
 626 00f1 99020000 		.4byte	.LASF21
 627 00f5 01       		.sleb128 1
 628 00f6 07       		.uleb128 0x7
 629 00f7 99030000 		.4byte	.LASF22
 630 00fb 02       		.sleb128 2
 631 00fc 07       		.uleb128 0x7
 632 00fd 21010000 		.4byte	.LASF23
 633 0101 03       		.sleb128 3
 634 0102 00       		.byte	0
 635 0103 04       		.uleb128 0x4
 636 0104 FB010000 		.4byte	.LASF24
 637 0108 05       		.byte	0x5
 638 0109 37       		.byte	0x37
 639 010a E2000000 		.4byte	0xe2
 640 010e 06       		.uleb128 0x6
 641 010f 01       		.byte	0x1
 642 0110 05       		.byte	0x5
 643 0111 39       		.byte	0x39
 644 0112 2F010000 		.4byte	0x12f
 645 0116 07       		.uleb128 0x7
 646 0117 04010000 		.4byte	.LASF25
 647 011b 00       		.sleb128 0
 648 011c 07       		.uleb128 0x7
 649 011d 7E030000 		.4byte	.LASF26
 650 0121 01       		.sleb128 1
 651 0122 07       		.uleb128 0x7
 652 0123 6D030000 		.4byte	.LASF27
 653 0127 02       		.sleb128 2
 654 0128 07       		.uleb128 0x7
 655 0129 06020000 		.4byte	.LASF28
 656 012d 03       		.sleb128 3
 657 012e 00       		.byte	0
 658 012f 04       		.uleb128 0x4
 659 0130 C5020000 		.4byte	.LASF29
 660 0134 05       		.byte	0x5
 661 0135 3E       		.byte	0x3e
 662 0136 0E010000 		.4byte	0x10e
 663 013a 08       		.uleb128 0x8
 664 013b 94030000 		.4byte	.LASF35
 665 013f 10       		.byte	0x10
 666 0140 05       		.byte	0x5
 667 0141 49       		.byte	0x49
 668 0142 A9010000 		.4byte	0x1a9
 669 0146 09       		.uleb128 0x9
 670 0147 8F030000 		.4byte	.LASF30
 671 014b 05       		.byte	0x5
 672 014c 4B       		.byte	0x4b
 673 014d A9010000 		.4byte	0x1a9
 674 0151 02       		.byte	0x2
ARM GAS  /var/folders/5n/p_75w94d66l9ssrldxqdhh700000gn/T//ccWLyGAy.s 			page 13


 675 0152 23       		.byte	0x23
 676 0153 00       		.uleb128 0
 677 0154 09       		.uleb128 0x9
 678 0155 87030000 		.4byte	.LASF31
 679 0159 05       		.byte	0x5
 680 015a 4E       		.byte	0x4e
 681 015b 9B000000 		.4byte	0x9b
 682 015f 02       		.byte	0x2
 683 0160 23       		.byte	0x23
 684 0161 04       		.uleb128 0x4
 685 0162 09       		.uleb128 0x9
 686 0163 3F030000 		.4byte	.LASF32
 687 0167 05       		.byte	0x5
 688 0168 57       		.byte	0x57
 689 0169 C1000000 		.4byte	0xc1
 690 016d 02       		.byte	0x2
 691 016e 23       		.byte	0x23
 692 016f 08       		.uleb128 0x8
 693 0170 0A       		.uleb128 0xa
 694 0171 6C656E00 		.ascii	"len\000"
 695 0175 05       		.byte	0x5
 696 0176 5A       		.byte	0x5a
 697 0177 C1000000 		.4byte	0xc1
 698 017b 02       		.byte	0x2
 699 017c 23       		.byte	0x23
 700 017d 0A       		.uleb128 0xa
 701 017e 09       		.uleb128 0x9
 702 017f 36020000 		.4byte	.LASF33
 703 0183 05       		.byte	0x5
 704 0184 5D       		.byte	0x5d
 705 0185 AB000000 		.4byte	0xab
 706 0189 02       		.byte	0x2
 707 018a 23       		.byte	0x23
 708 018b 0C       		.uleb128 0xc
 709 018c 09       		.uleb128 0x9
 710 018d B3010000 		.4byte	.LASF34
 711 0191 05       		.byte	0x5
 712 0192 60       		.byte	0x60
 713 0193 AB000000 		.4byte	0xab
 714 0197 02       		.byte	0x2
 715 0198 23       		.byte	0x23
 716 0199 0D       		.uleb128 0xd
 717 019a 0A       		.uleb128 0xa
 718 019b 72656600 		.ascii	"ref\000"
 719 019f 05       		.byte	0x5
 720 01a0 67       		.byte	0x67
 721 01a1 C1000000 		.4byte	0xc1
 722 01a5 02       		.byte	0x2
 723 01a6 23       		.byte	0x23
 724 01a7 0E       		.uleb128 0xe
 725 01a8 00       		.byte	0
 726 01a9 0B       		.uleb128 0xb
 727 01aa 04       		.byte	0x4
 728 01ab 3A010000 		.4byte	0x13a
 729 01af 08       		.uleb128 0x8
 730 01b0 76030000 		.4byte	.LASF36
 731 01b4 04       		.byte	0x4
ARM GAS  /var/folders/5n/p_75w94d66l9ssrldxqdhh700000gn/T//ccWLyGAy.s 			page 14


 732 01b5 06       		.byte	0x6
 733 01b6 2C       		.byte	0x2c
 734 01b7 CA010000 		.4byte	0x1ca
 735 01bb 09       		.uleb128 0x9
 736 01bc 7D010000 		.4byte	.LASF37
 737 01c0 06       		.byte	0x6
 738 01c1 2D       		.byte	0x2d
 739 01c2 CC000000 		.4byte	0xcc
 740 01c6 02       		.byte	0x2
 741 01c7 23       		.byte	0x23
 742 01c8 00       		.uleb128 0
 743 01c9 00       		.byte	0
 744 01ca 04       		.uleb128 0x4
 745 01cb 73010000 		.4byte	.LASF38
 746 01cf 06       		.byte	0x6
 747 01d0 40       		.byte	0x40
 748 01d1 AF010000 		.4byte	0x1af
 749 01d5 08       		.uleb128 0x8
 750 01d6 63010000 		.4byte	.LASF39
 751 01da 10       		.byte	0x10
 752 01db 07       		.byte	0x7
 753 01dc 30       		.byte	0x30
 754 01dd 18020000 		.4byte	0x218
 755 01e1 0A       		.uleb128 0xa
 756 01e2 7000     		.ascii	"p\000"
 757 01e4 07       		.byte	0x7
 758 01e5 31       		.byte	0x31
 759 01e6 A9010000 		.4byte	0x1a9
 760 01ea 02       		.byte	0x2
 761 01eb 23       		.byte	0x23
 762 01ec 00       		.uleb128 0
 763 01ed 0A       		.uleb128 0xa
 764 01ee 70747200 		.ascii	"ptr\000"
 765 01f2 07       		.byte	0x7
 766 01f3 31       		.byte	0x31
 767 01f4 A9010000 		.4byte	0x1a9
 768 01f8 02       		.byte	0x2
 769 01f9 23       		.byte	0x23
 770 01fa 04       		.uleb128 0x4
 771 01fb 09       		.uleb128 0x9
 772 01fc 7D010000 		.4byte	.LASF37
 773 0200 07       		.byte	0x7
 774 0201 32       		.byte	0x32
 775 0202 CA010000 		.4byte	0x1ca
 776 0206 02       		.byte	0x2
 777 0207 23       		.byte	0x23
 778 0208 08       		.uleb128 0x8
 779 0209 09       		.uleb128 0x9
 780 020a A1020000 		.4byte	.LASF40
 781 020e 07       		.byte	0x7
 782 020f 33       		.byte	0x33
 783 0210 C1000000 		.4byte	0xc1
 784 0214 02       		.byte	0x2
 785 0215 23       		.byte	0x23
 786 0216 0C       		.uleb128 0xc
 787 0217 00       		.byte	0
 788 0218 06       		.uleb128 0x6
ARM GAS  /var/folders/5n/p_75w94d66l9ssrldxqdhh700000gn/T//ccWLyGAy.s 			page 15


 789 0219 01       		.byte	0x1
 790 021a 08       		.byte	0x8
 791 021b 2B       		.byte	0x2b
 792 021c 7B020000 		.4byte	0x27b
 793 0220 07       		.uleb128 0x7
 794 0221 CF020000 		.4byte	.LASF41
 795 0225 00       		.sleb128 0
 796 0226 07       		.uleb128 0x7
 797 0227 60030000 		.4byte	.LASF42
 798 022b 01       		.sleb128 1
 799 022c 07       		.uleb128 0x7
 800 022d 47030000 		.4byte	.LASF43
 801 0231 02       		.sleb128 2
 802 0232 07       		.uleb128 0x7
 803 0233 0D010000 		.4byte	.LASF44
 804 0237 03       		.sleb128 3
 805 0238 07       		.uleb128 0x7
 806 0239 57000000 		.4byte	.LASF45
 807 023d 04       		.sleb128 4
 808 023e 07       		.uleb128 0x7
 809 023f 10020000 		.4byte	.LASF46
 810 0243 05       		.sleb128 5
 811 0244 07       		.uleb128 0x7
 812 0245 2A010000 		.4byte	.LASF47
 813 0249 06       		.sleb128 6
 814 024a 07       		.uleb128 0x7
 815 024b 4B000000 		.4byte	.LASF48
 816 024f 07       		.sleb128 7
 817 0250 07       		.uleb128 0x7
 818 0251 34000000 		.4byte	.LASF49
 819 0255 08       		.sleb128 8
 820 0256 07       		.uleb128 0x7
 821 0257 3B020000 		.4byte	.LASF50
 822 025b 09       		.sleb128 9
 823 025c 07       		.uleb128 0x7
 824 025d 22030000 		.4byte	.LASF51
 825 0261 0A       		.sleb128 10
 826 0262 07       		.uleb128 0x7
 827 0263 C8000000 		.4byte	.LASF52
 828 0267 0B       		.sleb128 11
 829 0268 07       		.uleb128 0x7
 830 0269 73020000 		.4byte	.LASF53
 831 026d 0C       		.sleb128 12
 832 026e 07       		.uleb128 0x7
 833 026f 08030000 		.4byte	.LASF54
 834 0273 0D       		.sleb128 13
 835 0274 07       		.uleb128 0x7
 836 0275 9E010000 		.4byte	.LASF55
 837 0279 0E       		.sleb128 14
 838 027a 00       		.byte	0
 839 027b 04       		.uleb128 0x4
 840 027c 6C020000 		.4byte	.LASF56
 841 0280 08       		.byte	0x8
 842 0281 2F       		.byte	0x2f
 843 0282 18020000 		.4byte	0x218
 844 0286 0C       		.uleb128 0xc
 845 0287 01       		.byte	0x1
ARM GAS  /var/folders/5n/p_75w94d66l9ssrldxqdhh700000gn/T//ccWLyGAy.s 			page 16


 846 0288 17030000 		.4byte	.LASF57
 847 028c 01       		.byte	0x1
 848 028d 38       		.byte	0x38
 849 028e 01       		.byte	0x1
 850 028f C1020000 		.4byte	0x2c1
 851 0293 00000000 		.4byte	.LFB7
 852 0297 16000000 		.4byte	.LFE7
 853 029b 00000000 		.4byte	.LLST0
 854 029f 01       		.byte	0x1
 855 02a0 C1020000 		.4byte	0x2c1
 856 02a4 0D       		.uleb128 0xd
 857 02a5 62756600 		.ascii	"buf\000"
 858 02a9 01       		.byte	0x1
 859 02aa 3A       		.byte	0x3a
 860 02ab C1020000 		.4byte	0x2c1
 861 02af 01       		.byte	0x1
 862 02b0 50       		.byte	0x50
 863 02b1 0E       		.uleb128 0xe
 864 02b2 08000000 		.4byte	.LVL0
 865 02b6 76050000 		.4byte	0x576
 866 02ba 0F       		.uleb128 0xf
 867 02bb 01       		.byte	0x1
 868 02bc 50       		.byte	0x50
 869 02bd 01       		.byte	0x1
 870 02be 37       		.byte	0x37
 871 02bf 00       		.byte	0
 872 02c0 00       		.byte	0
 873 02c1 0B       		.uleb128 0xb
 874 02c2 04       		.byte	0x4
 875 02c3 D5010000 		.4byte	0x1d5
 876 02c7 10       		.uleb128 0x10
 877 02c8 01       		.byte	0x1
 878 02c9 E1020000 		.4byte	.LASF60
 879 02cd 01       		.byte	0x1
 880 02ce 57       		.byte	0x57
 881 02cf 01       		.byte	0x1
 882 02d0 00000000 		.4byte	.LFB8
 883 02d4 22000000 		.4byte	.LFE8
 884 02d8 20000000 		.4byte	.LLST1
 885 02dc 01       		.byte	0x1
 886 02dd 10030000 		.4byte	0x310
 887 02e1 11       		.uleb128 0x11
 888 02e2 62756600 		.ascii	"buf\000"
 889 02e6 01       		.byte	0x1
 890 02e7 57       		.byte	0x57
 891 02e8 C1020000 		.4byte	0x2c1
 892 02ec 40000000 		.4byte	.LLST2
 893 02f0 12       		.uleb128 0x12
 894 02f1 0E000000 		.4byte	.LVL3
 895 02f5 8E050000 		.4byte	0x58e
 896 02f9 13       		.uleb128 0x13
 897 02fa 20000000 		.4byte	.LVL4
 898 02fe 01       		.byte	0x1
 899 02ff A6050000 		.4byte	0x5a6
 900 0303 0F       		.uleb128 0xf
 901 0304 01       		.byte	0x1
 902 0305 51       		.byte	0x51
ARM GAS  /var/folders/5n/p_75w94d66l9ssrldxqdhh700000gn/T//ccWLyGAy.s 			page 17


 903 0306 02       		.byte	0x2
 904 0307 74       		.byte	0x74
 905 0308 00       		.sleb128 0
 906 0309 0F       		.uleb128 0xf
 907 030a 01       		.byte	0x1
 908 030b 50       		.byte	0x50
 909 030c 01       		.byte	0x1
 910 030d 37       		.byte	0x37
 911 030e 00       		.byte	0
 912 030f 00       		.byte	0
 913 0310 0C       		.uleb128 0xc
 914 0311 01       		.byte	0x1
 915 0312 27000000 		.4byte	.LASF58
 916 0316 01       		.byte	0x1
 917 0317 6B       		.byte	0x6b
 918 0318 01       		.byte	0x1
 919 0319 9B000000 		.4byte	0x9b
 920 031d 00000000 		.4byte	.LFB9
 921 0321 3A000000 		.4byte	.LFE9
 922 0325 69000000 		.4byte	.LLST3
 923 0329 01       		.byte	0x1
 924 032a 86030000 		.4byte	0x386
 925 032e 11       		.uleb128 0x11
 926 032f 62756600 		.ascii	"buf\000"
 927 0333 01       		.byte	0x1
 928 0334 6B       		.byte	0x6b
 929 0335 C1020000 		.4byte	0x2c1
 930 0339 89000000 		.4byte	.LLST4
 931 033d 14       		.uleb128 0x14
 932 033e DC020000 		.4byte	.LASF59
 933 0342 01       		.byte	0x1
 934 0343 6B       		.byte	0x6b
 935 0344 C1000000 		.4byte	0xc1
 936 0348 BD000000 		.4byte	.LLST5
 937 034c 12       		.uleb128 0x12
 938 034d 10000000 		.4byte	.LVL7
 939 0351 8E050000 		.4byte	0x58e
 940 0355 15       		.uleb128 0x15
 941 0356 1A000000 		.4byte	.LVL8
 942 035a BF050000 		.4byte	0x5bf
 943 035e 73030000 		.4byte	0x373
 944 0362 0F       		.uleb128 0xf
 945 0363 01       		.byte	0x1
 946 0364 52       		.byte	0x52
 947 0365 01       		.byte	0x1
 948 0366 30       		.byte	0x30
 949 0367 0F       		.uleb128 0xf
 950 0368 01       		.byte	0x1
 951 0369 51       		.byte	0x51
 952 036a 02       		.byte	0x2
 953 036b 75       		.byte	0x75
 954 036c 00       		.sleb128 0
 955 036d 0F       		.uleb128 0xf
 956 036e 01       		.byte	0x1
 957 036f 50       		.byte	0x50
 958 0370 01       		.byte	0x1
 959 0371 30       		.byte	0x30
ARM GAS  /var/folders/5n/p_75w94d66l9ssrldxqdhh700000gn/T//ccWLyGAy.s 			page 18


 960 0372 00       		.byte	0
 961 0373 12       		.uleb128 0x12
 962 0374 2E000000 		.4byte	.LVL9
 963 0378 E1050000 		.4byte	0x5e1
 964 037c 12       		.uleb128 0x12
 965 037d 36000000 		.4byte	.LVL11
 966 0381 E1050000 		.4byte	0x5e1
 967 0385 00       		.byte	0
 968 0386 10       		.uleb128 0x10
 969 0387 01       		.byte	0x1
 970 0388 1F020000 		.4byte	.LASF61
 971 038c 01       		.byte	0x1
 972 038d 83       		.byte	0x83
 973 038e 01       		.byte	0x1
 974 038f 00000000 		.4byte	.LFB10
 975 0393 1E000000 		.4byte	.LFE10
 976 0397 F7000000 		.4byte	.LLST6
 977 039b 01       		.byte	0x1
 978 039c C3030000 		.4byte	0x3c3
 979 03a0 11       		.uleb128 0x11
 980 03a1 62756600 		.ascii	"buf\000"
 981 03a5 01       		.byte	0x1
 982 03a6 83       		.byte	0x83
 983 03a7 C1020000 		.4byte	0x2c1
 984 03ab 17010000 		.4byte	.LLST7
 985 03af 12       		.uleb128 0x12
 986 03b0 0E000000 		.4byte	.LVL14
 987 03b4 8E050000 		.4byte	0x58e
 988 03b8 16       		.uleb128 0x16
 989 03b9 1E000000 		.4byte	.LVL16
 990 03bd 01       		.byte	0x1
 991 03be E1050000 		.4byte	0x5e1
 992 03c2 00       		.byte	0
 993 03c3 0C       		.uleb128 0xc
 994 03c4 01       		.byte	0x1
 995 03c5 58010000 		.4byte	.LASF62
 996 03c9 01       		.byte	0x1
 997 03ca 96       		.byte	0x96
 998 03cb 01       		.byte	0x1
 999 03cc D7000000 		.4byte	0xd7
 1000 03d0 00000000 		.4byte	.LFB11
 1001 03d4 3E000000 		.4byte	.LFE11
 1002 03d8 4B010000 		.4byte	.LLST8
 1003 03dc 01       		.byte	0x1
 1004 03dd 3E040000 		.4byte	0x43e
 1005 03e1 11       		.uleb128 0x11
 1006 03e2 62756600 		.ascii	"buf\000"
 1007 03e6 01       		.byte	0x1
 1008 03e7 96       		.byte	0x96
 1009 03e8 C1020000 		.4byte	0x2c1
 1010 03ec 6B010000 		.4byte	.LLST9
 1011 03f0 14       		.uleb128 0x14
 1012 03f1 37030000 		.4byte	.LASF63
 1013 03f5 01       		.byte	0x1
 1014 03f6 96       		.byte	0x96
 1015 03f7 3E040000 		.4byte	0x43e
 1016 03fb 9F010000 		.4byte	.LLST10
ARM GAS  /var/folders/5n/p_75w94d66l9ssrldxqdhh700000gn/T//ccWLyGAy.s 			page 19


 1017 03ff 14       		.uleb128 0x14
 1018 0400 DC020000 		.4byte	.LASF59
 1019 0404 01       		.byte	0x1
 1020 0405 96       		.byte	0x96
 1021 0406 C1000000 		.4byte	0xc1
 1022 040a D3010000 		.4byte	.LLST11
 1023 040e 12       		.uleb128 0x12
 1024 040f 12000000 		.4byte	.LVL19
 1025 0413 8E050000 		.4byte	0x58e
 1026 0417 15       		.uleb128 0x15
 1027 0418 1C000000 		.4byte	.LVL20
 1028 041c BF050000 		.4byte	0x5bf
 1029 0420 34040000 		.4byte	0x434
 1030 0424 0F       		.uleb128 0xf
 1031 0425 01       		.byte	0x1
 1032 0426 52       		.byte	0x52
 1033 0427 01       		.byte	0x1
 1034 0428 32       		.byte	0x32
 1035 0429 0F       		.uleb128 0xf
 1036 042a 01       		.byte	0x1
 1037 042b 51       		.byte	0x51
 1038 042c 01       		.byte	0x1
 1039 042d 30       		.byte	0x30
 1040 042e 0F       		.uleb128 0xf
 1041 042f 01       		.byte	0x1
 1042 0430 50       		.byte	0x50
 1043 0431 01       		.byte	0x1
 1044 0432 30       		.byte	0x30
 1045 0433 00       		.byte	0
 1046 0434 12       		.uleb128 0x12
 1047 0435 3A000000 		.4byte	.LVL22
 1048 0439 E1050000 		.4byte	0x5e1
 1049 043d 00       		.byte	0
 1050 043e 0B       		.uleb128 0xb
 1051 043f 04       		.byte	0x4
 1052 0440 44040000 		.4byte	0x444
 1053 0444 17       		.uleb128 0x17
 1054 0445 10       		.uleb128 0x10
 1055 0446 01       		.byte	0x1
 1056 0447 7D020000 		.4byte	.LASF64
 1057 044b 01       		.byte	0x1
 1058 044c AE       		.byte	0xae
 1059 044d 01       		.byte	0x1
 1060 044e 00000000 		.4byte	.LFB12
 1061 0452 2A000000 		.4byte	.LFE12
 1062 0456 0D020000 		.4byte	.LLST12
 1063 045a 01       		.byte	0x1
 1064 045b AB040000 		.4byte	0x4ab
 1065 045f 14       		.uleb128 0x14
 1066 0460 FF000000 		.4byte	.LASF65
 1067 0464 01       		.byte	0x1
 1068 0465 AE       		.byte	0xae
 1069 0466 C1020000 		.4byte	0x2c1
 1070 046a 2D020000 		.4byte	.LLST13
 1071 046e 14       		.uleb128 0x14
 1072 046f 99010000 		.4byte	.LASF66
 1073 0473 01       		.byte	0x1
ARM GAS  /var/folders/5n/p_75w94d66l9ssrldxqdhh700000gn/T//ccWLyGAy.s 			page 20


 1074 0474 AE       		.byte	0xae
 1075 0475 C1020000 		.4byte	0x2c1
 1076 0479 61020000 		.4byte	.LLST14
 1077 047d 12       		.uleb128 0x12
 1078 047e 12000000 		.4byte	.LVL26
 1079 0482 EC050000 		.4byte	0x5ec
 1080 0486 18       		.uleb128 0x18
 1081 0487 22000000 		.4byte	.LVL27
 1082 048b 01       		.byte	0x1
 1083 048c A6050000 		.4byte	0x5a6
 1084 0490 A0040000 		.4byte	0x4a0
 1085 0494 0F       		.uleb128 0xf
 1086 0495 01       		.byte	0x1
 1087 0496 51       		.byte	0x51
 1088 0497 02       		.byte	0x2
 1089 0498 75       		.byte	0x75
 1090 0499 00       		.sleb128 0
 1091 049a 0F       		.uleb128 0xf
 1092 049b 01       		.byte	0x1
 1093 049c 50       		.byte	0x50
 1094 049d 01       		.byte	0x1
 1095 049e 37       		.byte	0x37
 1096 049f 00       		.byte	0
 1097 04a0 16       		.uleb128 0x16
 1098 04a1 2A000000 		.4byte	.LVL28
 1099 04a5 01       		.byte	0x1
 1100 04a6 E1050000 		.4byte	0x5e1
 1101 04aa 00       		.byte	0
 1102 04ab 0C       		.uleb128 0xc
 1103 04ac 01       		.byte	0x1
 1104 04ad 14000000 		.4byte	.LASF67
 1105 04b1 01       		.byte	0x1
 1106 04b2 C1       		.byte	0xc1
 1107 04b3 01       		.byte	0x1
 1108 04b4 D7000000 		.4byte	0xd7
 1109 04b8 00000000 		.4byte	.LFB13
 1110 04bc 28000000 		.4byte	.LFE13
 1111 04c0 95020000 		.4byte	.LLST15
 1112 04c4 01       		.byte	0x1
 1113 04c5 00050000 		.4byte	0x500
 1114 04c9 11       		.uleb128 0x11
 1115 04ca 62756600 		.ascii	"buf\000"
 1116 04ce 01       		.byte	0x1
 1117 04cf C1       		.byte	0xc1
 1118 04d0 C1020000 		.4byte	0x2c1
 1119 04d4 B5020000 		.4byte	.LLST16
 1120 04d8 14       		.uleb128 0x14
 1121 04d9 37030000 		.4byte	.LASF63
 1122 04dd 01       		.byte	0x1
 1123 04de C1       		.byte	0xc1
 1124 04df 00050000 		.4byte	0x500
 1125 04e3 08030000 		.4byte	.LLST17
 1126 04e7 11       		.uleb128 0x11
 1127 04e8 6C656E00 		.ascii	"len\000"
 1128 04ec 01       		.byte	0x1
 1129 04ed C1       		.byte	0xc1
 1130 04ee 06050000 		.4byte	0x506
ARM GAS  /var/folders/5n/p_75w94d66l9ssrldxqdhh700000gn/T//ccWLyGAy.s 			page 21


 1131 04f2 4D030000 		.4byte	.LLST18
 1132 04f6 12       		.uleb128 0x12
 1133 04f7 20000000 		.4byte	.LVL33
 1134 04fb E1050000 		.4byte	0x5e1
 1135 04ff 00       		.byte	0
 1136 0500 0B       		.uleb128 0xb
 1137 0501 04       		.byte	0x4
 1138 0502 9B000000 		.4byte	0x9b
 1139 0506 0B       		.uleb128 0xb
 1140 0507 04       		.byte	0x4
 1141 0508 C1000000 		.4byte	0xc1
 1142 050c 0C       		.uleb128 0xc
 1143 050d 01       		.byte	0x1
 1144 050e 4C010000 		.4byte	.LASF68
 1145 0512 01       		.byte	0x1
 1146 0513 DA       		.byte	0xda
 1147 0514 01       		.byte	0x1
 1148 0515 B6000000 		.4byte	0xb6
 1149 0519 00000000 		.4byte	.LFB14
 1150 051d 26000000 		.4byte	.LFE14
 1151 0521 92030000 		.4byte	.LLST19
 1152 0525 01       		.byte	0x1
 1153 0526 43050000 		.4byte	0x543
 1154 052a 11       		.uleb128 0x11
 1155 052b 62756600 		.ascii	"buf\000"
 1156 052f 01       		.byte	0x1
 1157 0530 DA       		.byte	0xda
 1158 0531 C1020000 		.4byte	0x2c1
 1159 0535 B2030000 		.4byte	.LLST20
 1160 0539 12       		.uleb128 0x12
 1161 053a 22000000 		.4byte	.LVL41
 1162 053e E1050000 		.4byte	0x5e1
 1163 0542 00       		.byte	0
 1164 0543 19       		.uleb128 0x19
 1165 0544 01       		.byte	0x1
 1166 0545 A6020000 		.4byte	.LASF69
 1167 0549 01       		.byte	0x1
 1168 054a EF       		.byte	0xef
 1169 054b 01       		.byte	0x1
 1170 054c 00000000 		.4byte	.LFB15
 1171 0550 0C000000 		.4byte	.LFE15
 1172 0554 02       		.byte	0x2
 1173 0555 7D       		.byte	0x7d
 1174 0556 00       		.sleb128 0
 1175 0557 01       		.byte	0x1
 1176 0558 76050000 		.4byte	0x576
 1177 055c 11       		.uleb128 0x11
 1178 055d 62756600 		.ascii	"buf\000"
 1179 0561 01       		.byte	0x1
 1180 0562 EF       		.byte	0xef
 1181 0563 C1020000 		.4byte	0x2c1
 1182 0567 05040000 		.4byte	.LLST21
 1183 056b 16       		.uleb128 0x16
 1184 056c 0C000000 		.4byte	.LVL43
 1185 0570 01       		.byte	0x1
 1186 0571 E1050000 		.4byte	0x5e1
 1187 0575 00       		.byte	0
ARM GAS  /var/folders/5n/p_75w94d66l9ssrldxqdhh700000gn/T//ccWLyGAy.s 			page 22


 1188 0576 1A       		.uleb128 0x1a
 1189 0577 01       		.byte	0x1
 1190 0578 54030000 		.4byte	.LASF70
 1191 057c 08       		.byte	0x8
 1192 057d 6A       		.byte	0x6a
 1193 057e 01       		.byte	0x1
 1194 057f 9B000000 		.4byte	0x9b
 1195 0583 01       		.byte	0x1
 1196 0584 8E050000 		.4byte	0x58e
 1197 0588 1B       		.uleb128 0x1b
 1198 0589 7B020000 		.4byte	0x27b
 1199 058d 00       		.byte	0
 1200 058e 1A       		.uleb128 0x1a
 1201 058f 01       		.byte	0x1
 1202 0590 00000000 		.4byte	.LASF71
 1203 0594 05       		.byte	0x5
 1204 0595 83       		.byte	0x83
 1205 0596 01       		.byte	0x1
 1206 0597 AB000000 		.4byte	0xab
 1207 059b 01       		.byte	0x1
 1208 059c A6050000 		.4byte	0x5a6
 1209 05a0 1B       		.uleb128 0x1b
 1210 05a1 A9010000 		.4byte	0x1a9
 1211 05a5 00       		.byte	0
 1212 05a6 1C       		.uleb128 0x1c
 1213 05a7 01       		.byte	0x1
 1214 05a8 0A000000 		.4byte	.LASF76
 1215 05ac 08       		.byte	0x8
 1216 05ad 6C       		.byte	0x6c
 1217 05ae 01       		.byte	0x1
 1218 05af 01       		.byte	0x1
 1219 05b0 BF050000 		.4byte	0x5bf
 1220 05b4 1B       		.uleb128 0x1b
 1221 05b5 7B020000 		.4byte	0x27b
 1222 05b9 1B       		.uleb128 0x1b
 1223 05ba 9B000000 		.4byte	0x9b
 1224 05be 00       		.byte	0
 1225 05bf 1A       		.uleb128 0x1a
 1226 05c0 01       		.byte	0x1
 1227 05c1 61020000 		.4byte	.LASF72
 1228 05c5 05       		.byte	0x5
 1229 05c6 7A       		.byte	0x7a
 1230 05c7 01       		.byte	0x1
 1231 05c8 A9010000 		.4byte	0x1a9
 1232 05cc 01       		.byte	0x1
 1233 05cd E1050000 		.4byte	0x5e1
 1234 05d1 1B       		.uleb128 0x1b
 1235 05d2 03010000 		.4byte	0x103
 1236 05d6 1B       		.uleb128 0x1b
 1237 05d7 C1000000 		.4byte	0xc1
 1238 05db 1B       		.uleb128 0x1b
 1239 05dc 2F010000 		.4byte	0x12f
 1240 05e0 00       		.byte	0
 1241 05e1 1D       		.uleb128 0x1d
 1242 05e2 01       		.byte	0x1
 1243 05e3 6D000000 		.4byte	.LASF77
 1244 05e7 09       		.byte	0x9
ARM GAS  /var/folders/5n/p_75w94d66l9ssrldxqdhh700000gn/T//ccWLyGAy.s 			page 23


 1245 05e8 F301     		.2byte	0x1f3
 1246 05ea 01       		.byte	0x1
 1247 05eb 01       		.byte	0x1
 1248 05ec 1E       		.uleb128 0x1e
 1249 05ed 01       		.byte	0x1
 1250 05ee 82010000 		.4byte	.LASF78
 1251 05f2 05       		.byte	0x5
 1252 05f3 85       		.byte	0x85
 1253 05f4 01       		.byte	0x1
 1254 05f5 01       		.byte	0x1
 1255 05f6 1B       		.uleb128 0x1b
 1256 05f7 A9010000 		.4byte	0x1a9
 1257 05fb 1B       		.uleb128 0x1b
 1258 05fc A9010000 		.4byte	0x1a9
 1259 0600 00       		.byte	0
 1260 0601 00       		.byte	0
 1261              		.section	.debug_abbrev,"",%progbits
 1262              	.Ldebug_abbrev0:
 1263 0000 01       		.uleb128 0x1
 1264 0001 11       		.uleb128 0x11
 1265 0002 01       		.byte	0x1
 1266 0003 25       		.uleb128 0x25
 1267 0004 0E       		.uleb128 0xe
 1268 0005 13       		.uleb128 0x13
 1269 0006 0B       		.uleb128 0xb
 1270 0007 03       		.uleb128 0x3
 1271 0008 0E       		.uleb128 0xe
 1272 0009 1B       		.uleb128 0x1b
 1273 000a 0E       		.uleb128 0xe
 1274 000b 55       		.uleb128 0x55
 1275 000c 06       		.uleb128 0x6
 1276 000d 11       		.uleb128 0x11
 1277 000e 01       		.uleb128 0x1
 1278 000f 52       		.uleb128 0x52
 1279 0010 01       		.uleb128 0x1
 1280 0011 10       		.uleb128 0x10
 1281 0012 06       		.uleb128 0x6
 1282 0013 00       		.byte	0
 1283 0014 00       		.byte	0
 1284 0015 02       		.uleb128 0x2
 1285 0016 24       		.uleb128 0x24
 1286 0017 00       		.byte	0
 1287 0018 0B       		.uleb128 0xb
 1288 0019 0B       		.uleb128 0xb
 1289 001a 3E       		.uleb128 0x3e
 1290 001b 0B       		.uleb128 0xb
 1291 001c 03       		.uleb128 0x3
 1292 001d 08       		.uleb128 0x8
 1293 001e 00       		.byte	0
 1294 001f 00       		.byte	0
 1295 0020 03       		.uleb128 0x3
 1296 0021 24       		.uleb128 0x24
 1297 0022 00       		.byte	0
 1298 0023 0B       		.uleb128 0xb
 1299 0024 0B       		.uleb128 0xb
 1300 0025 3E       		.uleb128 0x3e
 1301 0026 0B       		.uleb128 0xb
ARM GAS  /var/folders/5n/p_75w94d66l9ssrldxqdhh700000gn/T//ccWLyGAy.s 			page 24


 1302 0027 03       		.uleb128 0x3
 1303 0028 0E       		.uleb128 0xe
 1304 0029 00       		.byte	0
 1305 002a 00       		.byte	0
 1306 002b 04       		.uleb128 0x4
 1307 002c 16       		.uleb128 0x16
 1308 002d 00       		.byte	0
 1309 002e 03       		.uleb128 0x3
 1310 002f 0E       		.uleb128 0xe
 1311 0030 3A       		.uleb128 0x3a
 1312 0031 0B       		.uleb128 0xb
 1313 0032 3B       		.uleb128 0x3b
 1314 0033 0B       		.uleb128 0xb
 1315 0034 49       		.uleb128 0x49
 1316 0035 13       		.uleb128 0x13
 1317 0036 00       		.byte	0
 1318 0037 00       		.byte	0
 1319 0038 05       		.uleb128 0x5
 1320 0039 0F       		.uleb128 0xf
 1321 003a 00       		.byte	0
 1322 003b 0B       		.uleb128 0xb
 1323 003c 0B       		.uleb128 0xb
 1324 003d 00       		.byte	0
 1325 003e 00       		.byte	0
 1326 003f 06       		.uleb128 0x6
 1327 0040 04       		.uleb128 0x4
 1328 0041 01       		.byte	0x1
 1329 0042 0B       		.uleb128 0xb
 1330 0043 0B       		.uleb128 0xb
 1331 0044 3A       		.uleb128 0x3a
 1332 0045 0B       		.uleb128 0xb
 1333 0046 3B       		.uleb128 0x3b
 1334 0047 0B       		.uleb128 0xb
 1335 0048 01       		.uleb128 0x1
 1336 0049 13       		.uleb128 0x13
 1337 004a 00       		.byte	0
 1338 004b 00       		.byte	0
 1339 004c 07       		.uleb128 0x7
 1340 004d 28       		.uleb128 0x28
 1341 004e 00       		.byte	0
 1342 004f 03       		.uleb128 0x3
 1343 0050 0E       		.uleb128 0xe
 1344 0051 1C       		.uleb128 0x1c
 1345 0052 0D       		.uleb128 0xd
 1346 0053 00       		.byte	0
 1347 0054 00       		.byte	0
 1348 0055 08       		.uleb128 0x8
 1349 0056 13       		.uleb128 0x13
 1350 0057 01       		.byte	0x1
 1351 0058 03       		.uleb128 0x3
 1352 0059 0E       		.uleb128 0xe
 1353 005a 0B       		.uleb128 0xb
 1354 005b 0B       		.uleb128 0xb
 1355 005c 3A       		.uleb128 0x3a
 1356 005d 0B       		.uleb128 0xb
 1357 005e 3B       		.uleb128 0x3b
 1358 005f 0B       		.uleb128 0xb
ARM GAS  /var/folders/5n/p_75w94d66l9ssrldxqdhh700000gn/T//ccWLyGAy.s 			page 25


 1359 0060 01       		.uleb128 0x1
 1360 0061 13       		.uleb128 0x13
 1361 0062 00       		.byte	0
 1362 0063 00       		.byte	0
 1363 0064 09       		.uleb128 0x9
 1364 0065 0D       		.uleb128 0xd
 1365 0066 00       		.byte	0
 1366 0067 03       		.uleb128 0x3
 1367 0068 0E       		.uleb128 0xe
 1368 0069 3A       		.uleb128 0x3a
 1369 006a 0B       		.uleb128 0xb
 1370 006b 3B       		.uleb128 0x3b
 1371 006c 0B       		.uleb128 0xb
 1372 006d 49       		.uleb128 0x49
 1373 006e 13       		.uleb128 0x13
 1374 006f 38       		.uleb128 0x38
 1375 0070 0A       		.uleb128 0xa
 1376 0071 00       		.byte	0
 1377 0072 00       		.byte	0
 1378 0073 0A       		.uleb128 0xa
 1379 0074 0D       		.uleb128 0xd
 1380 0075 00       		.byte	0
 1381 0076 03       		.uleb128 0x3
 1382 0077 08       		.uleb128 0x8
 1383 0078 3A       		.uleb128 0x3a
 1384 0079 0B       		.uleb128 0xb
 1385 007a 3B       		.uleb128 0x3b
 1386 007b 0B       		.uleb128 0xb
 1387 007c 49       		.uleb128 0x49
 1388 007d 13       		.uleb128 0x13
 1389 007e 38       		.uleb128 0x38
 1390 007f 0A       		.uleb128 0xa
 1391 0080 00       		.byte	0
 1392 0081 00       		.byte	0
 1393 0082 0B       		.uleb128 0xb
 1394 0083 0F       		.uleb128 0xf
 1395 0084 00       		.byte	0
 1396 0085 0B       		.uleb128 0xb
 1397 0086 0B       		.uleb128 0xb
 1398 0087 49       		.uleb128 0x49
 1399 0088 13       		.uleb128 0x13
 1400 0089 00       		.byte	0
 1401 008a 00       		.byte	0
 1402 008b 0C       		.uleb128 0xc
 1403 008c 2E       		.uleb128 0x2e
 1404 008d 01       		.byte	0x1
 1405 008e 3F       		.uleb128 0x3f
 1406 008f 0C       		.uleb128 0xc
 1407 0090 03       		.uleb128 0x3
 1408 0091 0E       		.uleb128 0xe
 1409 0092 3A       		.uleb128 0x3a
 1410 0093 0B       		.uleb128 0xb
 1411 0094 3B       		.uleb128 0x3b
 1412 0095 0B       		.uleb128 0xb
 1413 0096 27       		.uleb128 0x27
 1414 0097 0C       		.uleb128 0xc
 1415 0098 49       		.uleb128 0x49
ARM GAS  /var/folders/5n/p_75w94d66l9ssrldxqdhh700000gn/T//ccWLyGAy.s 			page 26


 1416 0099 13       		.uleb128 0x13
 1417 009a 11       		.uleb128 0x11
 1418 009b 01       		.uleb128 0x1
 1419 009c 12       		.uleb128 0x12
 1420 009d 01       		.uleb128 0x1
 1421 009e 40       		.uleb128 0x40
 1422 009f 06       		.uleb128 0x6
 1423 00a0 9742     		.uleb128 0x2117
 1424 00a2 0C       		.uleb128 0xc
 1425 00a3 01       		.uleb128 0x1
 1426 00a4 13       		.uleb128 0x13
 1427 00a5 00       		.byte	0
 1428 00a6 00       		.byte	0
 1429 00a7 0D       		.uleb128 0xd
 1430 00a8 34       		.uleb128 0x34
 1431 00a9 00       		.byte	0
 1432 00aa 03       		.uleb128 0x3
 1433 00ab 08       		.uleb128 0x8
 1434 00ac 3A       		.uleb128 0x3a
 1435 00ad 0B       		.uleb128 0xb
 1436 00ae 3B       		.uleb128 0x3b
 1437 00af 0B       		.uleb128 0xb
 1438 00b0 49       		.uleb128 0x49
 1439 00b1 13       		.uleb128 0x13
 1440 00b2 02       		.uleb128 0x2
 1441 00b3 0A       		.uleb128 0xa
 1442 00b4 00       		.byte	0
 1443 00b5 00       		.byte	0
 1444 00b6 0E       		.uleb128 0xe
 1445 00b7 898201   		.uleb128 0x4109
 1446 00ba 01       		.byte	0x1
 1447 00bb 11       		.uleb128 0x11
 1448 00bc 01       		.uleb128 0x1
 1449 00bd 31       		.uleb128 0x31
 1450 00be 13       		.uleb128 0x13
 1451 00bf 00       		.byte	0
 1452 00c0 00       		.byte	0
 1453 00c1 0F       		.uleb128 0xf
 1454 00c2 8A8201   		.uleb128 0x410a
 1455 00c5 00       		.byte	0
 1456 00c6 02       		.uleb128 0x2
 1457 00c7 0A       		.uleb128 0xa
 1458 00c8 9142     		.uleb128 0x2111
 1459 00ca 0A       		.uleb128 0xa
 1460 00cb 00       		.byte	0
 1461 00cc 00       		.byte	0
 1462 00cd 10       		.uleb128 0x10
 1463 00ce 2E       		.uleb128 0x2e
 1464 00cf 01       		.byte	0x1
 1465 00d0 3F       		.uleb128 0x3f
 1466 00d1 0C       		.uleb128 0xc
 1467 00d2 03       		.uleb128 0x3
 1468 00d3 0E       		.uleb128 0xe
 1469 00d4 3A       		.uleb128 0x3a
 1470 00d5 0B       		.uleb128 0xb
 1471 00d6 3B       		.uleb128 0x3b
 1472 00d7 0B       		.uleb128 0xb
ARM GAS  /var/folders/5n/p_75w94d66l9ssrldxqdhh700000gn/T//ccWLyGAy.s 			page 27


 1473 00d8 27       		.uleb128 0x27
 1474 00d9 0C       		.uleb128 0xc
 1475 00da 11       		.uleb128 0x11
 1476 00db 01       		.uleb128 0x1
 1477 00dc 12       		.uleb128 0x12
 1478 00dd 01       		.uleb128 0x1
 1479 00de 40       		.uleb128 0x40
 1480 00df 06       		.uleb128 0x6
 1481 00e0 9742     		.uleb128 0x2117
 1482 00e2 0C       		.uleb128 0xc
 1483 00e3 01       		.uleb128 0x1
 1484 00e4 13       		.uleb128 0x13
 1485 00e5 00       		.byte	0
 1486 00e6 00       		.byte	0
 1487 00e7 11       		.uleb128 0x11
 1488 00e8 05       		.uleb128 0x5
 1489 00e9 00       		.byte	0
 1490 00ea 03       		.uleb128 0x3
 1491 00eb 08       		.uleb128 0x8
 1492 00ec 3A       		.uleb128 0x3a
 1493 00ed 0B       		.uleb128 0xb
 1494 00ee 3B       		.uleb128 0x3b
 1495 00ef 0B       		.uleb128 0xb
 1496 00f0 49       		.uleb128 0x49
 1497 00f1 13       		.uleb128 0x13
 1498 00f2 02       		.uleb128 0x2
 1499 00f3 06       		.uleb128 0x6
 1500 00f4 00       		.byte	0
 1501 00f5 00       		.byte	0
 1502 00f6 12       		.uleb128 0x12
 1503 00f7 898201   		.uleb128 0x4109
 1504 00fa 00       		.byte	0
 1505 00fb 11       		.uleb128 0x11
 1506 00fc 01       		.uleb128 0x1
 1507 00fd 31       		.uleb128 0x31
 1508 00fe 13       		.uleb128 0x13
 1509 00ff 00       		.byte	0
 1510 0100 00       		.byte	0
 1511 0101 13       		.uleb128 0x13
 1512 0102 898201   		.uleb128 0x4109
 1513 0105 01       		.byte	0x1
 1514 0106 11       		.uleb128 0x11
 1515 0107 01       		.uleb128 0x1
 1516 0108 9542     		.uleb128 0x2115
 1517 010a 0C       		.uleb128 0xc
 1518 010b 31       		.uleb128 0x31
 1519 010c 13       		.uleb128 0x13
 1520 010d 00       		.byte	0
 1521 010e 00       		.byte	0
 1522 010f 14       		.uleb128 0x14
 1523 0110 05       		.uleb128 0x5
 1524 0111 00       		.byte	0
 1525 0112 03       		.uleb128 0x3
 1526 0113 0E       		.uleb128 0xe
 1527 0114 3A       		.uleb128 0x3a
 1528 0115 0B       		.uleb128 0xb
 1529 0116 3B       		.uleb128 0x3b
ARM GAS  /var/folders/5n/p_75w94d66l9ssrldxqdhh700000gn/T//ccWLyGAy.s 			page 28


 1530 0117 0B       		.uleb128 0xb
 1531 0118 49       		.uleb128 0x49
 1532 0119 13       		.uleb128 0x13
 1533 011a 02       		.uleb128 0x2
 1534 011b 06       		.uleb128 0x6
 1535 011c 00       		.byte	0
 1536 011d 00       		.byte	0
 1537 011e 15       		.uleb128 0x15
 1538 011f 898201   		.uleb128 0x4109
 1539 0122 01       		.byte	0x1
 1540 0123 11       		.uleb128 0x11
 1541 0124 01       		.uleb128 0x1
 1542 0125 31       		.uleb128 0x31
 1543 0126 13       		.uleb128 0x13
 1544 0127 01       		.uleb128 0x1
 1545 0128 13       		.uleb128 0x13
 1546 0129 00       		.byte	0
 1547 012a 00       		.byte	0
 1548 012b 16       		.uleb128 0x16
 1549 012c 898201   		.uleb128 0x4109
 1550 012f 00       		.byte	0
 1551 0130 11       		.uleb128 0x11
 1552 0131 01       		.uleb128 0x1
 1553 0132 9542     		.uleb128 0x2115
 1554 0134 0C       		.uleb128 0xc
 1555 0135 31       		.uleb128 0x31
 1556 0136 13       		.uleb128 0x13
 1557 0137 00       		.byte	0
 1558 0138 00       		.byte	0
 1559 0139 17       		.uleb128 0x17
 1560 013a 26       		.uleb128 0x26
 1561 013b 00       		.byte	0
 1562 013c 00       		.byte	0
 1563 013d 00       		.byte	0
 1564 013e 18       		.uleb128 0x18
 1565 013f 898201   		.uleb128 0x4109
 1566 0142 01       		.byte	0x1
 1567 0143 11       		.uleb128 0x11
 1568 0144 01       		.uleb128 0x1
 1569 0145 9542     		.uleb128 0x2115
 1570 0147 0C       		.uleb128 0xc
 1571 0148 31       		.uleb128 0x31
 1572 0149 13       		.uleb128 0x13
 1573 014a 01       		.uleb128 0x1
 1574 014b 13       		.uleb128 0x13
 1575 014c 00       		.byte	0
 1576 014d 00       		.byte	0
 1577 014e 19       		.uleb128 0x19
 1578 014f 2E       		.uleb128 0x2e
 1579 0150 01       		.byte	0x1
 1580 0151 3F       		.uleb128 0x3f
 1581 0152 0C       		.uleb128 0xc
 1582 0153 03       		.uleb128 0x3
 1583 0154 0E       		.uleb128 0xe
 1584 0155 3A       		.uleb128 0x3a
 1585 0156 0B       		.uleb128 0xb
 1586 0157 3B       		.uleb128 0x3b
ARM GAS  /var/folders/5n/p_75w94d66l9ssrldxqdhh700000gn/T//ccWLyGAy.s 			page 29


 1587 0158 0B       		.uleb128 0xb
 1588 0159 27       		.uleb128 0x27
 1589 015a 0C       		.uleb128 0xc
 1590 015b 11       		.uleb128 0x11
 1591 015c 01       		.uleb128 0x1
 1592 015d 12       		.uleb128 0x12
 1593 015e 01       		.uleb128 0x1
 1594 015f 40       		.uleb128 0x40
 1595 0160 0A       		.uleb128 0xa
 1596 0161 9742     		.uleb128 0x2117
 1597 0163 0C       		.uleb128 0xc
 1598 0164 01       		.uleb128 0x1
 1599 0165 13       		.uleb128 0x13
 1600 0166 00       		.byte	0
 1601 0167 00       		.byte	0
 1602 0168 1A       		.uleb128 0x1a
 1603 0169 2E       		.uleb128 0x2e
 1604 016a 01       		.byte	0x1
 1605 016b 3F       		.uleb128 0x3f
 1606 016c 0C       		.uleb128 0xc
 1607 016d 03       		.uleb128 0x3
 1608 016e 0E       		.uleb128 0xe
 1609 016f 3A       		.uleb128 0x3a
 1610 0170 0B       		.uleb128 0xb
 1611 0171 3B       		.uleb128 0x3b
 1612 0172 0B       		.uleb128 0xb
 1613 0173 27       		.uleb128 0x27
 1614 0174 0C       		.uleb128 0xc
 1615 0175 49       		.uleb128 0x49
 1616 0176 13       		.uleb128 0x13
 1617 0177 3C       		.uleb128 0x3c
 1618 0178 0C       		.uleb128 0xc
 1619 0179 01       		.uleb128 0x1
 1620 017a 13       		.uleb128 0x13
 1621 017b 00       		.byte	0
 1622 017c 00       		.byte	0
 1623 017d 1B       		.uleb128 0x1b
 1624 017e 05       		.uleb128 0x5
 1625 017f 00       		.byte	0
 1626 0180 49       		.uleb128 0x49
 1627 0181 13       		.uleb128 0x13
 1628 0182 00       		.byte	0
 1629 0183 00       		.byte	0
 1630 0184 1C       		.uleb128 0x1c
 1631 0185 2E       		.uleb128 0x2e
 1632 0186 01       		.byte	0x1
 1633 0187 3F       		.uleb128 0x3f
 1634 0188 0C       		.uleb128 0xc
 1635 0189 03       		.uleb128 0x3
 1636 018a 0E       		.uleb128 0xe
 1637 018b 3A       		.uleb128 0x3a
 1638 018c 0B       		.uleb128 0xb
 1639 018d 3B       		.uleb128 0x3b
 1640 018e 0B       		.uleb128 0xb
 1641 018f 27       		.uleb128 0x27
 1642 0190 0C       		.uleb128 0xc
 1643 0191 3C       		.uleb128 0x3c
ARM GAS  /var/folders/5n/p_75w94d66l9ssrldxqdhh700000gn/T//ccWLyGAy.s 			page 30


 1644 0192 0C       		.uleb128 0xc
 1645 0193 01       		.uleb128 0x1
 1646 0194 13       		.uleb128 0x13
 1647 0195 00       		.byte	0
 1648 0196 00       		.byte	0
 1649 0197 1D       		.uleb128 0x1d
 1650 0198 2E       		.uleb128 0x2e
 1651 0199 00       		.byte	0
 1652 019a 3F       		.uleb128 0x3f
 1653 019b 0C       		.uleb128 0xc
 1654 019c 03       		.uleb128 0x3
 1655 019d 0E       		.uleb128 0xe
 1656 019e 3A       		.uleb128 0x3a
 1657 019f 0B       		.uleb128 0xb
 1658 01a0 3B       		.uleb128 0x3b
 1659 01a1 05       		.uleb128 0x5
 1660 01a2 27       		.uleb128 0x27
 1661 01a3 0C       		.uleb128 0xc
 1662 01a4 3C       		.uleb128 0x3c
 1663 01a5 0C       		.uleb128 0xc
 1664 01a6 00       		.byte	0
 1665 01a7 00       		.byte	0
 1666 01a8 1E       		.uleb128 0x1e
 1667 01a9 2E       		.uleb128 0x2e
 1668 01aa 01       		.byte	0x1
 1669 01ab 3F       		.uleb128 0x3f
 1670 01ac 0C       		.uleb128 0xc
 1671 01ad 03       		.uleb128 0x3
 1672 01ae 0E       		.uleb128 0xe
 1673 01af 3A       		.uleb128 0x3a
 1674 01b0 0B       		.uleb128 0xb
 1675 01b1 3B       		.uleb128 0x3b
 1676 01b2 0B       		.uleb128 0xb
 1677 01b3 27       		.uleb128 0x27
 1678 01b4 0C       		.uleb128 0xc
 1679 01b5 3C       		.uleb128 0x3c
 1680 01b6 0C       		.uleb128 0xc
 1681 01b7 00       		.byte	0
 1682 01b8 00       		.byte	0
 1683 01b9 00       		.byte	0
 1684              		.section	.debug_loc,"",%progbits
 1685              	.Ldebug_loc0:
 1686              	.LLST0:
 1687 0000 00000000 		.4byte	.LFB7
 1688 0004 02000000 		.4byte	.LCFI0
 1689 0008 0200     		.2byte	0x2
 1690 000a 7D       		.byte	0x7d
 1691 000b 00       		.sleb128 0
 1692 000c 02000000 		.4byte	.LCFI0
 1693 0010 16000000 		.4byte	.LFE7
 1694 0014 0200     		.2byte	0x2
 1695 0016 7D       		.byte	0x7d
 1696 0017 08       		.sleb128 8
 1697 0018 00000000 		.4byte	0
 1698 001c 00000000 		.4byte	0
 1699              	.LLST1:
 1700 0020 00000000 		.4byte	.LFB8
ARM GAS  /var/folders/5n/p_75w94d66l9ssrldxqdhh700000gn/T//ccWLyGAy.s 			page 31


 1701 0024 02000000 		.4byte	.LCFI1
 1702 0028 0200     		.2byte	0x2
 1703 002a 7D       		.byte	0x7d
 1704 002b 00       		.sleb128 0
 1705 002c 02000000 		.4byte	.LCFI1
 1706 0030 22000000 		.4byte	.LFE8
 1707 0034 0200     		.2byte	0x2
 1708 0036 7D       		.byte	0x7d
 1709 0037 08       		.sleb128 8
 1710 0038 00000000 		.4byte	0
 1711 003c 00000000 		.4byte	0
 1712              	.LLST2:
 1713 0040 00000000 		.4byte	.LVL1
 1714 0044 08000000 		.4byte	.LVL2
 1715 0048 0100     		.2byte	0x1
 1716 004a 50       		.byte	0x50
 1717 004b 08000000 		.4byte	.LVL2
 1718 004f 20000000 		.4byte	.LVL4
 1719 0053 0100     		.2byte	0x1
 1720 0055 54       		.byte	0x54
 1721 0056 20000000 		.4byte	.LVL4
 1722 005a 22000000 		.4byte	.LFE8
 1723 005e 0100     		.2byte	0x1
 1724 0060 50       		.byte	0x50
 1725 0061 00000000 		.4byte	0
 1726 0065 00000000 		.4byte	0
 1727              	.LLST3:
 1728 0069 00000000 		.4byte	.LFB9
 1729 006d 02000000 		.4byte	.LCFI2
 1730 0071 0200     		.2byte	0x2
 1731 0073 7D       		.byte	0x7d
 1732 0074 00       		.sleb128 0
 1733 0075 02000000 		.4byte	.LCFI2
 1734 0079 3A000000 		.4byte	.LFE9
 1735 007d 0200     		.2byte	0x2
 1736 007f 7D       		.byte	0x7d
 1737 0080 10       		.sleb128 16
 1738 0081 00000000 		.4byte	0
 1739 0085 00000000 		.4byte	0
 1740              	.LLST4:
 1741 0089 00000000 		.4byte	.LVL5
 1742 008d 0A000000 		.4byte	.LVL6
 1743 0091 0100     		.2byte	0x1
 1744 0093 50       		.byte	0x50
 1745 0094 0A000000 		.4byte	.LVL6
 1746 0098 32000000 		.4byte	.LVL10
 1747 009c 0100     		.2byte	0x1
 1748 009e 54       		.byte	0x54
 1749 009f 32000000 		.4byte	.LVL10
 1750 00a3 35000000 		.4byte	.LVL11-1
 1751 00a7 0100     		.2byte	0x1
 1752 00a9 50       		.byte	0x50
 1753 00aa 35000000 		.4byte	.LVL11-1
 1754 00ae 3A000000 		.4byte	.LFE9
 1755 00b2 0100     		.2byte	0x1
 1756 00b4 54       		.byte	0x54
 1757 00b5 00000000 		.4byte	0
ARM GAS  /var/folders/5n/p_75w94d66l9ssrldxqdhh700000gn/T//ccWLyGAy.s 			page 32


 1758 00b9 00000000 		.4byte	0
 1759              	.LLST5:
 1760 00bd 00000000 		.4byte	.LVL5
 1761 00c1 0F000000 		.4byte	.LVL7-1
 1762 00c5 0100     		.2byte	0x1
 1763 00c7 51       		.byte	0x51
 1764 00c8 0F000000 		.4byte	.LVL7-1
 1765 00cc 32000000 		.4byte	.LVL10
 1766 00d0 0400     		.2byte	0x4
 1767 00d2 F3       		.byte	0xf3
 1768 00d3 01       		.uleb128 0x1
 1769 00d4 51       		.byte	0x51
 1770 00d5 9F       		.byte	0x9f
 1771 00d6 32000000 		.4byte	.LVL10
 1772 00da 35000000 		.4byte	.LVL11-1
 1773 00de 0100     		.2byte	0x1
 1774 00e0 51       		.byte	0x51
 1775 00e1 35000000 		.4byte	.LVL11-1
 1776 00e5 3A000000 		.4byte	.LFE9
 1777 00e9 0400     		.2byte	0x4
 1778 00eb F3       		.byte	0xf3
 1779 00ec 01       		.uleb128 0x1
 1780 00ed 51       		.byte	0x51
 1781 00ee 9F       		.byte	0x9f
 1782 00ef 00000000 		.4byte	0
 1783 00f3 00000000 		.4byte	0
 1784              	.LLST6:
 1785 00f7 00000000 		.4byte	.LFB10
 1786 00fb 02000000 		.4byte	.LCFI3
 1787 00ff 0200     		.2byte	0x2
 1788 0101 7D       		.byte	0x7d
 1789 0102 00       		.sleb128 0
 1790 0103 02000000 		.4byte	.LCFI3
 1791 0107 1E000000 		.4byte	.LFE10
 1792 010b 0200     		.2byte	0x2
 1793 010d 7D       		.byte	0x7d
 1794 010e 08       		.sleb128 8
 1795 010f 00000000 		.4byte	0
 1796 0113 00000000 		.4byte	0
 1797              	.LLST7:
 1798 0117 00000000 		.4byte	.LVL12
 1799 011b 08000000 		.4byte	.LVL13
 1800 011f 0100     		.2byte	0x1
 1801 0121 50       		.byte	0x50
 1802 0122 08000000 		.4byte	.LVL13
 1803 0126 16000000 		.4byte	.LVL15
 1804 012a 0100     		.2byte	0x1
 1805 012c 54       		.byte	0x54
 1806 012d 16000000 		.4byte	.LVL15
 1807 0131 1D000000 		.4byte	.LVL16-1
 1808 0135 0100     		.2byte	0x1
 1809 0137 50       		.byte	0x50
 1810 0138 1D000000 		.4byte	.LVL16-1
 1811 013c 1E000000 		.4byte	.LFE10
 1812 0140 0100     		.2byte	0x1
 1813 0142 54       		.byte	0x54
 1814 0143 00000000 		.4byte	0
ARM GAS  /var/folders/5n/p_75w94d66l9ssrldxqdhh700000gn/T//ccWLyGAy.s 			page 33


 1815 0147 00000000 		.4byte	0
 1816              	.LLST8:
 1817 014b 00000000 		.4byte	.LFB11
 1818 014f 02000000 		.4byte	.LCFI4
 1819 0153 0200     		.2byte	0x2
 1820 0155 7D       		.byte	0x7d
 1821 0156 00       		.sleb128 0
 1822 0157 02000000 		.4byte	.LCFI4
 1823 015b 3E000000 		.4byte	.LFE11
 1824 015f 0200     		.2byte	0x2
 1825 0161 7D       		.byte	0x7d
 1826 0162 10       		.sleb128 16
 1827 0163 00000000 		.4byte	0
 1828 0167 00000000 		.4byte	0
 1829              	.LLST9:
 1830 016b 00000000 		.4byte	.LVL17
 1831 016f 0C000000 		.4byte	.LVL18
 1832 0173 0100     		.2byte	0x1
 1833 0175 50       		.byte	0x50
 1834 0176 0C000000 		.4byte	.LVL18
 1835 017a 36000000 		.4byte	.LVL21
 1836 017e 0100     		.2byte	0x1
 1837 0180 54       		.byte	0x54
 1838 0181 36000000 		.4byte	.LVL21
 1839 0185 39000000 		.4byte	.LVL22-1
 1840 0189 0100     		.2byte	0x1
 1841 018b 50       		.byte	0x50
 1842 018c 39000000 		.4byte	.LVL22-1
 1843 0190 3E000000 		.4byte	.LFE11
 1844 0194 0100     		.2byte	0x1
 1845 0196 54       		.byte	0x54
 1846 0197 00000000 		.4byte	0
 1847 019b 00000000 		.4byte	0
 1848              	.LLST10:
 1849 019f 00000000 		.4byte	.LVL17
 1850 01a3 11000000 		.4byte	.LVL19-1
 1851 01a7 0100     		.2byte	0x1
 1852 01a9 51       		.byte	0x51
 1853 01aa 11000000 		.4byte	.LVL19-1
 1854 01ae 36000000 		.4byte	.LVL21
 1855 01b2 0100     		.2byte	0x1
 1856 01b4 56       		.byte	0x56
 1857 01b5 36000000 		.4byte	.LVL21
 1858 01b9 39000000 		.4byte	.LVL22-1
 1859 01bd 0100     		.2byte	0x1
 1860 01bf 51       		.byte	0x51
 1861 01c0 39000000 		.4byte	.LVL22-1
 1862 01c4 3E000000 		.4byte	.LFE11
 1863 01c8 0100     		.2byte	0x1
 1864 01ca 56       		.byte	0x56
 1865 01cb 00000000 		.4byte	0
 1866 01cf 00000000 		.4byte	0
 1867              	.LLST11:
 1868 01d3 00000000 		.4byte	.LVL17
 1869 01d7 11000000 		.4byte	.LVL19-1
 1870 01db 0100     		.2byte	0x1
 1871 01dd 52       		.byte	0x52
ARM GAS  /var/folders/5n/p_75w94d66l9ssrldxqdhh700000gn/T//ccWLyGAy.s 			page 34


 1872 01de 11000000 		.4byte	.LVL19-1
 1873 01e2 36000000 		.4byte	.LVL21
 1874 01e6 0400     		.2byte	0x4
 1875 01e8 F3       		.byte	0xf3
 1876 01e9 01       		.uleb128 0x1
 1877 01ea 52       		.byte	0x52
 1878 01eb 9F       		.byte	0x9f
 1879 01ec 36000000 		.4byte	.LVL21
 1880 01f0 39000000 		.4byte	.LVL22-1
 1881 01f4 0100     		.2byte	0x1
 1882 01f6 52       		.byte	0x52
 1883 01f7 39000000 		.4byte	.LVL22-1
 1884 01fb 3E000000 		.4byte	.LFE11
 1885 01ff 0400     		.2byte	0x4
 1886 0201 F3       		.byte	0xf3
 1887 0202 01       		.uleb128 0x1
 1888 0203 52       		.byte	0x52
 1889 0204 9F       		.byte	0x9f
 1890 0205 00000000 		.4byte	0
 1891 0209 00000000 		.4byte	0
 1892              	.LLST12:
 1893 020d 00000000 		.4byte	.LFB12
 1894 0211 02000000 		.4byte	.LCFI5
 1895 0215 0200     		.2byte	0x2
 1896 0217 7D       		.byte	0x7d
 1897 0218 00       		.sleb128 0
 1898 0219 02000000 		.4byte	.LCFI5
 1899 021d 2A000000 		.4byte	.LFE12
 1900 0221 0200     		.2byte	0x2
 1901 0223 7D       		.byte	0x7d
 1902 0224 10       		.sleb128 16
 1903 0225 00000000 		.4byte	0
 1904 0229 00000000 		.4byte	0
 1905              	.LLST13:
 1906 022d 00000000 		.4byte	.LVL23
 1907 0231 0C000000 		.4byte	.LVL24
 1908 0235 0100     		.2byte	0x1
 1909 0237 50       		.byte	0x50
 1910 0238 0C000000 		.4byte	.LVL24
 1911 023c 22000000 		.4byte	.LVL27
 1912 0240 0100     		.2byte	0x1
 1913 0242 54       		.byte	0x54
 1914 0243 22000000 		.4byte	.LVL27
 1915 0247 29000000 		.4byte	.LVL28-1
 1916 024b 0100     		.2byte	0x1
 1917 024d 50       		.byte	0x50
 1918 024e 29000000 		.4byte	.LVL28-1
 1919 0252 2A000000 		.4byte	.LFE12
 1920 0256 0100     		.2byte	0x1
 1921 0258 54       		.byte	0x54
 1922 0259 00000000 		.4byte	0
 1923 025d 00000000 		.4byte	0
 1924              	.LLST14:
 1925 0261 00000000 		.4byte	.LVL23
 1926 0265 0E000000 		.4byte	.LVL25
 1927 0269 0100     		.2byte	0x1
 1928 026b 51       		.byte	0x51
ARM GAS  /var/folders/5n/p_75w94d66l9ssrldxqdhh700000gn/T//ccWLyGAy.s 			page 35


 1929 026c 0E000000 		.4byte	.LVL25
 1930 0270 22000000 		.4byte	.LVL27
 1931 0274 0100     		.2byte	0x1
 1932 0276 55       		.byte	0x55
 1933 0277 22000000 		.4byte	.LVL27
 1934 027b 29000000 		.4byte	.LVL28-1
 1935 027f 0100     		.2byte	0x1
 1936 0281 51       		.byte	0x51
 1937 0282 29000000 		.4byte	.LVL28-1
 1938 0286 2A000000 		.4byte	.LFE12
 1939 028a 0100     		.2byte	0x1
 1940 028c 55       		.byte	0x55
 1941 028d 00000000 		.4byte	0
 1942 0291 00000000 		.4byte	0
 1943              	.LLST15:
 1944 0295 00000000 		.4byte	.LFB13
 1945 0299 02000000 		.4byte	.LCFI6
 1946 029d 0200     		.2byte	0x2
 1947 029f 7D       		.byte	0x7d
 1948 02a0 00       		.sleb128 0
 1949 02a1 02000000 		.4byte	.LCFI6
 1950 02a5 28000000 		.4byte	.LFE13
 1951 02a9 0200     		.2byte	0x2
 1952 02ab 7D       		.byte	0x7d
 1953 02ac 08       		.sleb128 8
 1954 02ad 00000000 		.4byte	0
 1955 02b1 00000000 		.4byte	0
 1956              	.LLST16:
 1957 02b5 00000000 		.4byte	.LVL29
 1958 02b9 16000000 		.4byte	.LVL30
 1959 02bd 0100     		.2byte	0x1
 1960 02bf 50       		.byte	0x50
 1961 02c0 16000000 		.4byte	.LVL30
 1962 02c4 1C000000 		.4byte	.LVL32
 1963 02c8 0400     		.2byte	0x4
 1964 02ca F3       		.byte	0xf3
 1965 02cb 01       		.uleb128 0x1
 1966 02cc 50       		.byte	0x50
 1967 02cd 9F       		.byte	0x9f
 1968 02ce 1C000000 		.4byte	.LVL32
 1969 02d2 1F000000 		.4byte	.LVL33-1
 1970 02d6 0100     		.2byte	0x1
 1971 02d8 50       		.byte	0x50
 1972 02d9 1F000000 		.4byte	.LVL33-1
 1973 02dd 24000000 		.4byte	.LVL34
 1974 02e1 0400     		.2byte	0x4
 1975 02e3 F3       		.byte	0xf3
 1976 02e4 01       		.uleb128 0x1
 1977 02e5 50       		.byte	0x50
 1978 02e6 9F       		.byte	0x9f
 1979 02e7 24000000 		.4byte	.LVL34
 1980 02eb 26000000 		.4byte	.LVL35
 1981 02ef 0100     		.2byte	0x1
 1982 02f1 50       		.byte	0x50
 1983 02f2 26000000 		.4byte	.LVL35
 1984 02f6 28000000 		.4byte	.LFE13
 1985 02fa 0400     		.2byte	0x4
ARM GAS  /var/folders/5n/p_75w94d66l9ssrldxqdhh700000gn/T//ccWLyGAy.s 			page 36


 1986 02fc F3       		.byte	0xf3
 1987 02fd 01       		.uleb128 0x1
 1988 02fe 50       		.byte	0x50
 1989 02ff 9F       		.byte	0x9f
 1990 0300 00000000 		.4byte	0
 1991 0304 00000000 		.4byte	0
 1992              	.LLST17:
 1993 0308 00000000 		.4byte	.LVL29
 1994 030c 18000000 		.4byte	.LVL31
 1995 0310 0100     		.2byte	0x1
 1996 0312 51       		.byte	0x51
 1997 0313 18000000 		.4byte	.LVL31
 1998 0317 1C000000 		.4byte	.LVL32
 1999 031b 0400     		.2byte	0x4
 2000 031d F3       		.byte	0xf3
 2001 031e 01       		.uleb128 0x1
 2002 031f 51       		.byte	0x51
 2003 0320 9F       		.byte	0x9f
 2004 0321 1C000000 		.4byte	.LVL32
 2005 0325 1F000000 		.4byte	.LVL33-1
 2006 0329 0100     		.2byte	0x1
 2007 032b 51       		.byte	0x51
 2008 032c 1F000000 		.4byte	.LVL33-1
 2009 0330 24000000 		.4byte	.LVL34
 2010 0334 0400     		.2byte	0x4
 2011 0336 F3       		.byte	0xf3
 2012 0337 01       		.uleb128 0x1
 2013 0338 51       		.byte	0x51
 2014 0339 9F       		.byte	0x9f
 2015 033a 24000000 		.4byte	.LVL34
 2016 033e 28000000 		.4byte	.LFE13
 2017 0342 0100     		.2byte	0x1
 2018 0344 51       		.byte	0x51
 2019 0345 00000000 		.4byte	0
 2020 0349 00000000 		.4byte	0
 2021              	.LLST18:
 2022 034d 00000000 		.4byte	.LVL29
 2023 0351 18000000 		.4byte	.LVL31
 2024 0355 0100     		.2byte	0x1
 2025 0357 52       		.byte	0x52
 2026 0358 18000000 		.4byte	.LVL31
 2027 035c 1C000000 		.4byte	.LVL32
 2028 0360 0400     		.2byte	0x4
 2029 0362 F3       		.byte	0xf3
 2030 0363 01       		.uleb128 0x1
 2031 0364 52       		.byte	0x52
 2032 0365 9F       		.byte	0x9f
 2033 0366 1C000000 		.4byte	.LVL32
 2034 036a 1F000000 		.4byte	.LVL33-1
 2035 036e 0100     		.2byte	0x1
 2036 0370 52       		.byte	0x52
 2037 0371 1F000000 		.4byte	.LVL33-1
 2038 0375 24000000 		.4byte	.LVL34
 2039 0379 0400     		.2byte	0x4
 2040 037b F3       		.byte	0xf3
 2041 037c 01       		.uleb128 0x1
 2042 037d 52       		.byte	0x52
ARM GAS  /var/folders/5n/p_75w94d66l9ssrldxqdhh700000gn/T//ccWLyGAy.s 			page 37


 2043 037e 9F       		.byte	0x9f
 2044 037f 24000000 		.4byte	.LVL34
 2045 0383 28000000 		.4byte	.LFE13
 2046 0387 0100     		.2byte	0x1
 2047 0389 52       		.byte	0x52
 2048 038a 00000000 		.4byte	0
 2049 038e 00000000 		.4byte	0
 2050              	.LLST19:
 2051 0392 00000000 		.4byte	.LFB14
 2052 0396 02000000 		.4byte	.LCFI7
 2053 039a 0200     		.2byte	0x2
 2054 039c 7D       		.byte	0x7d
 2055 039d 00       		.sleb128 0
 2056 039e 02000000 		.4byte	.LCFI7
 2057 03a2 26000000 		.4byte	.LFE14
 2058 03a6 0200     		.2byte	0x2
 2059 03a8 7D       		.byte	0x7d
 2060 03a9 08       		.sleb128 8
 2061 03aa 00000000 		.4byte	0
 2062 03ae 00000000 		.4byte	0
 2063              	.LLST20:
 2064 03b2 00000000 		.4byte	.LVL36
 2065 03b6 12000000 		.4byte	.LVL37
 2066 03ba 0100     		.2byte	0x1
 2067 03bc 50       		.byte	0x50
 2068 03bd 12000000 		.4byte	.LVL37
 2069 03c1 1A000000 		.4byte	.LVL38
 2070 03c5 0400     		.2byte	0x4
 2071 03c7 F3       		.byte	0xf3
 2072 03c8 01       		.uleb128 0x1
 2073 03c9 50       		.byte	0x50
 2074 03ca 9F       		.byte	0x9f
 2075 03cb 1A000000 		.4byte	.LVL38
 2076 03cf 1C000000 		.4byte	.LVL39
 2077 03d3 0100     		.2byte	0x1
 2078 03d5 50       		.byte	0x50
 2079 03d6 1C000000 		.4byte	.LVL39
 2080 03da 1E000000 		.4byte	.LVL40
 2081 03de 0400     		.2byte	0x4
 2082 03e0 F3       		.byte	0xf3
 2083 03e1 01       		.uleb128 0x1
 2084 03e2 50       		.byte	0x50
 2085 03e3 9F       		.byte	0x9f
 2086 03e4 1E000000 		.4byte	.LVL40
 2087 03e8 21000000 		.4byte	.LVL41-1
 2088 03ec 0100     		.2byte	0x1
 2089 03ee 50       		.byte	0x50
 2090 03ef 21000000 		.4byte	.LVL41-1
 2091 03f3 26000000 		.4byte	.LFE14
 2092 03f7 0400     		.2byte	0x4
 2093 03f9 F3       		.byte	0xf3
 2094 03fa 01       		.uleb128 0x1
 2095 03fb 50       		.byte	0x50
 2096 03fc 9F       		.byte	0x9f
 2097 03fd 00000000 		.4byte	0
 2098 0401 00000000 		.4byte	0
 2099              	.LLST21:
ARM GAS  /var/folders/5n/p_75w94d66l9ssrldxqdhh700000gn/T//ccWLyGAy.s 			page 38


 2100 0405 00000000 		.4byte	.LVL42
 2101 0409 0B000000 		.4byte	.LVL43-1
 2102 040d 0100     		.2byte	0x1
 2103 040f 50       		.byte	0x50
 2104 0410 0B000000 		.4byte	.LVL43-1
 2105 0414 0C000000 		.4byte	.LFE15
 2106 0418 0400     		.2byte	0x4
 2107 041a F3       		.byte	0xf3
 2108 041b 01       		.uleb128 0x1
 2109 041c 50       		.byte	0x50
 2110 041d 9F       		.byte	0x9f
 2111 041e 00000000 		.4byte	0
 2112 0422 00000000 		.4byte	0
 2113              		.section	.debug_aranges,"",%progbits
 2114 0000 5C000000 		.4byte	0x5c
 2115 0004 0200     		.2byte	0x2
 2116 0006 00000000 		.4byte	.Ldebug_info0
 2117 000a 04       		.byte	0x4
 2118 000b 00       		.byte	0
 2119 000c 0000     		.2byte	0
 2120 000e 0000     		.2byte	0
 2121 0010 00000000 		.4byte	.LFB7
 2122 0014 16000000 		.4byte	.LFE7-.LFB7
 2123 0018 00000000 		.4byte	.LFB8
 2124 001c 22000000 		.4byte	.LFE8-.LFB8
 2125 0020 00000000 		.4byte	.LFB9
 2126 0024 3A000000 		.4byte	.LFE9-.LFB9
 2127 0028 00000000 		.4byte	.LFB10
 2128 002c 1E000000 		.4byte	.LFE10-.LFB10
 2129 0030 00000000 		.4byte	.LFB11
 2130 0034 3E000000 		.4byte	.LFE11-.LFB11
 2131 0038 00000000 		.4byte	.LFB12
 2132 003c 2A000000 		.4byte	.LFE12-.LFB12
 2133 0040 00000000 		.4byte	.LFB13
 2134 0044 28000000 		.4byte	.LFE13-.LFB13
 2135 0048 00000000 		.4byte	.LFB14
 2136 004c 26000000 		.4byte	.LFE14-.LFB14
 2137 0050 00000000 		.4byte	.LFB15
 2138 0054 0C000000 		.4byte	.LFE15-.LFB15
 2139 0058 00000000 		.4byte	0
 2140 005c 00000000 		.4byte	0
 2141              		.section	.debug_ranges,"",%progbits
 2142              	.Ldebug_ranges0:
 2143 0000 00000000 		.4byte	.LFB7
 2144 0004 16000000 		.4byte	.LFE7
 2145 0008 00000000 		.4byte	.LFB8
 2146 000c 22000000 		.4byte	.LFE8
 2147 0010 00000000 		.4byte	.LFB9
 2148 0014 3A000000 		.4byte	.LFE9
 2149 0018 00000000 		.4byte	.LFB10
 2150 001c 1E000000 		.4byte	.LFE10
 2151 0020 00000000 		.4byte	.LFB11
 2152 0024 3E000000 		.4byte	.LFE11
 2153 0028 00000000 		.4byte	.LFB12
 2154 002c 2A000000 		.4byte	.LFE12
 2155 0030 00000000 		.4byte	.LFB13
 2156 0034 28000000 		.4byte	.LFE13
ARM GAS  /var/folders/5n/p_75w94d66l9ssrldxqdhh700000gn/T//ccWLyGAy.s 			page 39


 2157 0038 00000000 		.4byte	.LFB14
 2158 003c 26000000 		.4byte	.LFE14
 2159 0040 00000000 		.4byte	.LFB15
 2160 0044 0C000000 		.4byte	.LFE15
 2161 0048 00000000 		.4byte	0
 2162 004c 00000000 		.4byte	0
 2163              		.section	.debug_line,"",%progbits
 2164              	.Ldebug_line0:
 2165 0000 96020000 		.section	.debug_str,"MS",%progbits,1
 2165      02007401 
 2165      00000201 
 2165      FB0E0D00 
 2165      01010101 
 2166              	.LASF71:
 2167 0000 70627566 		.ascii	"pbuf_free\000"
 2167      5F667265 
 2167      6500
 2168              	.LASF76:
 2169 000a 6D656D70 		.ascii	"memp_free\000"
 2169      5F667265 
 2169      6500
 2170              	.LASF67:
 2171 0014 6E657462 		.ascii	"netbuf_data\000"
 2171      75665F64 
 2171      61746100 
 2172              	.LASF2:
 2173 0020 696E7438 		.ascii	"int8_t\000"
 2173      5F7400
 2174              	.LASF58:
 2175 0027 6E657462 		.ascii	"netbuf_alloc\000"
 2175      75665F61 
 2175      6C6C6F63 
 2175      00
 2176              	.LASF49:
 2177 0034 4D454D50 		.ascii	"MEMP_NETCONN\000"
 2177      5F4E4554 
 2177      434F4E4E 
 2177      00
 2178              	.LASF5:
 2179 0041 73686F72 		.ascii	"short int\000"
 2179      7420696E 
 2179      7400
 2180              	.LASF48:
 2181 004b 4D454D50 		.ascii	"MEMP_NETBUF\000"
 2181      5F4E4554 
 2181      42554600 
 2182              	.LASF45:
 2183 0057 4D454D50 		.ascii	"MEMP_TCP_SEG\000"
 2183      5F544350 
 2183      5F534547 
 2183      00
 2184              	.LASF13:
 2185 0064 73697A65 		.ascii	"sizetype\000"
 2185      74797065 
 2185      00
 2186              	.LASF77:
 2187 006d 706F7274 		.ascii	"port_halt\000"
ARM GAS  /var/folders/5n/p_75w94d66l9ssrldxqdhh700000gn/T//ccWLyGAy.s 			page 40


 2187      5F68616C 
 2187      7400
 2188              	.LASF75:
 2189 0077 2F557365 		.ascii	"/Users/sin/Documents/Eclipse/Workspace/ChibiOS_2.4."
 2189      72732F73 
 2189      696E2F44 
 2189      6F63756D 
 2189      656E7473 
 2190 00aa 322F6465 		.ascii	"2/demos/ARMCM4-STM32F407-LWIP\000"
 2190      6D6F732F 
 2190      41524D43 
 2190      4D342D53 
 2190      544D3332 
 2191              	.LASF52:
 2192 00c8 4D454D50 		.ascii	"MEMP_SYS_TIMEOUT\000"
 2192      5F535953 
 2192      5F54494D 
 2192      454F5554 
 2192      00
 2193              	.LASF74:
 2194 00d9 2E2E2F2E 		.ascii	"../../ext/lwip-1.4.0/src/api/netbuf.c\000"
 2194      2E2F6578 
 2194      742F6C77 
 2194      69702D31 
 2194      2E342E30 
 2195              	.LASF65:
 2196 00ff 68656164 		.ascii	"head\000"
 2196      00
 2197              	.LASF25:
 2198 0104 50425546 		.ascii	"PBUF_RAM\000"
 2198      5F52414D 
 2198      00
 2199              	.LASF44:
 2200 010d 4D454D50 		.ascii	"MEMP_TCP_PCB_LISTEN\000"
 2200      5F544350 
 2200      5F504342 
 2200      5F4C4953 
 2200      54454E00 
 2201              	.LASF23:
 2202 0121 50425546 		.ascii	"PBUF_RAW\000"
 2202      5F524157 
 2202      00
 2203              	.LASF47:
 2204 012a 4D454D50 		.ascii	"MEMP_FRAG_PBUF\000"
 2204      5F465241 
 2204      475F5042 
 2204      554600
 2205              	.LASF16:
 2206 0139 73385F74 		.ascii	"s8_t\000"
 2206      00
 2207              	.LASF11:
 2208 013e 6C6F6E67 		.ascii	"long long int\000"
 2208      206C6F6E 
 2208      6720696E 
 2208      7400
 2209              	.LASF68:
 2210 014c 6E657462 		.ascii	"netbuf_next\000"
ARM GAS  /var/folders/5n/p_75w94d66l9ssrldxqdhh700000gn/T//ccWLyGAy.s 			page 41


 2210      75665F6E 
 2210      65787400 
 2211              	.LASF62:
 2212 0158 6E657462 		.ascii	"netbuf_ref\000"
 2212      75665F72 
 2212      656600
 2213              	.LASF39:
 2214 0163 6E657462 		.ascii	"netbuf\000"
 2214      756600
 2215              	.LASF8:
 2216 016a 6C6F6E67 		.ascii	"long int\000"
 2216      20696E74 
 2216      00
 2217              	.LASF38:
 2218 0173 69705F61 		.ascii	"ip_addr_t\000"
 2218      6464725F 
 2218      7400
 2219              	.LASF37:
 2220 017d 61646472 		.ascii	"addr\000"
 2220      00
 2221              	.LASF78:
 2222 0182 70627566 		.ascii	"pbuf_cat\000"
 2222      5F636174 
 2222      00
 2223              	.LASF4:
 2224 018b 756E7369 		.ascii	"unsigned char\000"
 2224      676E6564 
 2224      20636861 
 2224      7200
 2225              	.LASF66:
 2226 0199 7461696C 		.ascii	"tail\000"
 2226      00
 2227              	.LASF55:
 2228 019e 4D454D50 		.ascii	"MEMP_MAX\000"
 2228      5F4D4158 
 2228      00
 2229              	.LASF1:
 2230 01a7 7369676E 		.ascii	"signed char\000"
 2230      65642063 
 2230      68617200 
 2231              	.LASF34:
 2232 01b3 666C6167 		.ascii	"flags\000"
 2232      7300
 2233              	.LASF12:
 2234 01b9 6C6F6E67 		.ascii	"long long unsigned int\000"
 2234      206C6F6E 
 2234      6720756E 
 2234      7369676E 
 2234      65642069 
 2235              	.LASF9:
 2236 01d0 75696E74 		.ascii	"uint32_t\000"
 2236      33325F74 
 2236      00
 2237              	.LASF0:
 2238 01d9 756E7369 		.ascii	"unsigned int\000"
 2238      676E6564 
 2238      20696E74 
ARM GAS  /var/folders/5n/p_75w94d66l9ssrldxqdhh700000gn/T//ccWLyGAy.s 			page 42


 2238      00
 2239              	.LASF6:
 2240 01e6 75696E74 		.ascii	"uint16_t\000"
 2240      31365F74 
 2240      00
 2241              	.LASF73:
 2242 01ef 474E5520 		.ascii	"GNU C 4.7.2\000"
 2242      4320342E 
 2242      372E3200 
 2243              	.LASF24:
 2244 01fb 70627566 		.ascii	"pbuf_layer\000"
 2244      5F6C6179 
 2244      657200
 2245              	.LASF28:
 2246 0206 50425546 		.ascii	"PBUF_POOL\000"
 2246      5F504F4F 
 2246      4C00
 2247              	.LASF46:
 2248 0210 4D454D50 		.ascii	"MEMP_REASSDATA\000"
 2248      5F524541 
 2248      53534441 
 2248      544100
 2249              	.LASF61:
 2250 021f 6E657462 		.ascii	"netbuf_free\000"
 2250      75665F66 
 2250      72656500 
 2251              	.LASF19:
 2252 022b 6572725F 		.ascii	"err_t\000"
 2252      7400
 2253              	.LASF14:
 2254 0231 63686172 		.ascii	"char\000"
 2254      00
 2255              	.LASF33:
 2256 0236 74797065 		.ascii	"type\000"
 2256      00
 2257              	.LASF50:
 2258 023b 4D454D50 		.ascii	"MEMP_TCPIP_MSG_API\000"
 2258      5F544350 
 2258      49505F4D 
 2258      53475F41 
 2258      504900
 2259              	.LASF7:
 2260 024e 73686F72 		.ascii	"short unsigned int\000"
 2260      7420756E 
 2260      7369676E 
 2260      65642069 
 2260      6E7400
 2261              	.LASF72:
 2262 0261 70627566 		.ascii	"pbuf_alloc\000"
 2262      5F616C6C 
 2262      6F6300
 2263              	.LASF56:
 2264 026c 6D656D70 		.ascii	"memp_t\000"
 2264      5F7400
 2265              	.LASF53:
 2266 0273 4D454D50 		.ascii	"MEMP_PBUF\000"
 2266      5F504255 
ARM GAS  /var/folders/5n/p_75w94d66l9ssrldxqdhh700000gn/T//ccWLyGAy.s 			page 43


 2266      4600
 2267              	.LASF64:
 2268 027d 6E657462 		.ascii	"netbuf_chain\000"
 2268      75665F63 
 2268      6861696E 
 2268      00
 2269              	.LASF20:
 2270 028a 50425546 		.ascii	"PBUF_TRANSPORT\000"
 2270      5F545241 
 2270      4E53504F 
 2270      525400
 2271              	.LASF21:
 2272 0299 50425546 		.ascii	"PBUF_IP\000"
 2272      5F495000 
 2273              	.LASF40:
 2274 02a1 706F7274 		.ascii	"port\000"
 2274      00
 2275              	.LASF69:
 2276 02a6 6E657462 		.ascii	"netbuf_first\000"
 2276      75665F66 
 2276      69727374 
 2276      00
 2277              	.LASF10:
 2278 02b3 6C6F6E67 		.ascii	"long unsigned int\000"
 2278      20756E73 
 2278      69676E65 
 2278      6420696E 
 2278      7400
 2279              	.LASF29:
 2280 02c5 70627566 		.ascii	"pbuf_type\000"
 2280      5F747970 
 2280      6500
 2281              	.LASF41:
 2282 02cf 4D454D50 		.ascii	"MEMP_RAW_PCB\000"
 2282      5F524157 
 2282      5F504342 
 2282      00
 2283              	.LASF59:
 2284 02dc 73697A65 		.ascii	"size\000"
 2284      00
 2285              	.LASF60:
 2286 02e1 6E657462 		.ascii	"netbuf_delete\000"
 2286      75665F64 
 2286      656C6574 
 2286      6500
 2287              	.LASF15:
 2288 02ef 75385F74 		.ascii	"u8_t\000"
 2288      00
 2289              	.LASF18:
 2290 02f4 7533325F 		.ascii	"u32_t\000"
 2290      7400
 2291              	.LASF3:
 2292 02fa 75696E74 		.ascii	"uint8_t\000"
 2292      385F7400 
 2293              	.LASF17:
 2294 0302 7531365F 		.ascii	"u16_t\000"
 2294      7400
ARM GAS  /var/folders/5n/p_75w94d66l9ssrldxqdhh700000gn/T//ccWLyGAy.s 			page 44


 2295              	.LASF54:
 2296 0308 4D454D50 		.ascii	"MEMP_PBUF_POOL\000"
 2296      5F504255 
 2296      465F504F 
 2296      4F4C00
 2297              	.LASF57:
 2298 0317 6E657462 		.ascii	"netbuf_new\000"
 2298      75665F6E 
 2298      657700
 2299              	.LASF51:
 2300 0322 4D454D50 		.ascii	"MEMP_TCPIP_MSG_INPKT\000"
 2300      5F544350 
 2300      49505F4D 
 2300      53475F49 
 2300      4E504B54 
 2301              	.LASF63:
 2302 0337 64617461 		.ascii	"dataptr\000"
 2302      70747200 
 2303              	.LASF32:
 2304 033f 746F745F 		.ascii	"tot_len\000"
 2304      6C656E00 
 2305              	.LASF43:
 2306 0347 4D454D50 		.ascii	"MEMP_TCP_PCB\000"
 2306      5F544350 
 2306      5F504342 
 2306      00
 2307              	.LASF70:
 2308 0354 6D656D70 		.ascii	"memp_malloc\000"
 2308      5F6D616C 
 2308      6C6F6300 
 2309              	.LASF42:
 2310 0360 4D454D50 		.ascii	"MEMP_UDP_PCB\000"
 2310      5F554450 
 2310      5F504342 
 2310      00
 2311              	.LASF27:
 2312 036d 50425546 		.ascii	"PBUF_REF\000"
 2312      5F524546 
 2312      00
 2313              	.LASF36:
 2314 0376 69705F61 		.ascii	"ip_addr\000"
 2314      64647200 
 2315              	.LASF26:
 2316 037e 50425546 		.ascii	"PBUF_ROM\000"
 2316      5F524F4D 
 2316      00
 2317              	.LASF31:
 2318 0387 7061796C 		.ascii	"payload\000"
 2318      6F616400 
 2319              	.LASF30:
 2320 038f 6E657874 		.ascii	"next\000"
 2320      00
 2321              	.LASF35:
 2322 0394 70627566 		.ascii	"pbuf\000"
 2322      00
 2323              	.LASF22:
 2324 0399 50425546 		.ascii	"PBUF_LINK\000"
ARM GAS  /var/folders/5n/p_75w94d66l9ssrldxqdhh700000gn/T//ccWLyGAy.s 			page 45


 2324      5F4C494E 
 2324      4B00
 2325              		.ident	"GCC: (GNU) 4.7.2"
ARM GAS  /var/folders/5n/p_75w94d66l9ssrldxqdhh700000gn/T//ccWLyGAy.s 			page 46


DEFINED SYMBOLS
                            *ABS*:0000000000000000 netbuf.c
/var/folders/5n/p_75w94d66l9ssrldxqdhh700000gn/T//ccWLyGAy.s:19     .text.netbuf_new:0000000000000000 $t
/var/folders/5n/p_75w94d66l9ssrldxqdhh700000gn/T//ccWLyGAy.s:25     .text.netbuf_new:0000000000000000 netbuf_new
/var/folders/5n/p_75w94d66l9ssrldxqdhh700000gn/T//ccWLyGAy.s:59     .text.netbuf_delete:0000000000000000 $t
/var/folders/5n/p_75w94d66l9ssrldxqdhh700000gn/T//ccWLyGAy.s:65     .text.netbuf_delete:0000000000000000 netbuf_delete
/var/folders/5n/p_75w94d66l9ssrldxqdhh700000gn/T//ccWLyGAy.s:106    .text.netbuf_alloc:0000000000000000 $t
/var/folders/5n/p_75w94d66l9ssrldxqdhh700000gn/T//ccWLyGAy.s:112    .text.netbuf_alloc:0000000000000000 netbuf_alloc
/var/folders/5n/p_75w94d66l9ssrldxqdhh700000gn/T//ccWLyGAy.s:178    .text.netbuf_free:0000000000000000 $t
/var/folders/5n/p_75w94d66l9ssrldxqdhh700000gn/T//ccWLyGAy.s:184    .text.netbuf_free:0000000000000000 netbuf_free
/var/folders/5n/p_75w94d66l9ssrldxqdhh700000gn/T//ccWLyGAy.s:223    .text.netbuf_ref:0000000000000000 $t
/var/folders/5n/p_75w94d66l9ssrldxqdhh700000gn/T//ccWLyGAy.s:229    .text.netbuf_ref:0000000000000000 netbuf_ref
/var/folders/5n/p_75w94d66l9ssrldxqdhh700000gn/T//ccWLyGAy.s:298    .text.netbuf_chain:0000000000000000 $t
/var/folders/5n/p_75w94d66l9ssrldxqdhh700000gn/T//ccWLyGAy.s:304    .text.netbuf_chain:0000000000000000 netbuf_chain
/var/folders/5n/p_75w94d66l9ssrldxqdhh700000gn/T//ccWLyGAy.s:355    .text.netbuf_data:0000000000000000 $t
/var/folders/5n/p_75w94d66l9ssrldxqdhh700000gn/T//ccWLyGAy.s:361    .text.netbuf_data:0000000000000000 netbuf_data
/var/folders/5n/p_75w94d66l9ssrldxqdhh700000gn/T//ccWLyGAy.s:415    .text.netbuf_next:0000000000000000 $t
/var/folders/5n/p_75w94d66l9ssrldxqdhh700000gn/T//ccWLyGAy.s:421    .text.netbuf_next:0000000000000000 netbuf_next
/var/folders/5n/p_75w94d66l9ssrldxqdhh700000gn/T//ccWLyGAy.s:469    .text.netbuf_first:0000000000000000 $t
/var/folders/5n/p_75w94d66l9ssrldxqdhh700000gn/T//ccWLyGAy.s:475    .text.netbuf_first:0000000000000000 netbuf_first
                     .debug_frame:0000000000000010 $d

UNDEFINED SYMBOLS
memp_malloc
pbuf_free
memp_free
pbuf_alloc
port_halt
pbuf_cat
