ARM GAS  /var/folders/5n/p_75w94d66l9ssrldxqdhh700000gn/T//ccL7Lleu.s 			page 1


   1              		.syntax unified
   2              		.cpu cortex-m4
   3              		.fpu softvfp
   4              		.eabi_attribute 20, 1
   5              		.eabi_attribute 21, 1
   6              		.eabi_attribute 23, 3
   7              		.eabi_attribute 24, 1
   8              		.eabi_attribute 25, 1
   9              		.eabi_attribute 26, 1
  10              		.eabi_attribute 30, 2
  11              		.eabi_attribute 34, 1
  12              		.eabi_attribute 18, 4
  13              		.thumb
  14              		.file	"sys_arch.c"
  15              		.text
  16              	.Ltext0:
  17              		.cfi_sections	.debug_frame
  18              		.section	.text.sys_init,"ax",%progbits
  19              		.align	2
  20              		.p2align 4,,15
  21              		.global	sys_init
  22              		.thumb
  23              		.thumb_func
  24              		.type	sys_init, %function
  25              	sys_init:
  26              	.LFB7:
  27              		.file 1 "../../os/various/lwip_bindings/arch/sys_arch.c"
  28              		.loc 1 74 0
  29              		.cfi_startproc
  30              		@ args = 0, pretend = 0, frame = 0
  31              		@ frame_needed = 0, uses_anonymous_args = 0
  32              		@ link register save eliminated.
  33 0000 7047     		bx	lr
  34              		.cfi_endproc
  35              	.LFE7:
  36              		.size	sys_init, .-sys_init
  37 0002 00BFAFF3 		.section	.text.sys_sem_new,"ax",%progbits
  37      0080AFF3 
  37      0080AFF3 
  37      0080
  38              		.align	2
  39              		.p2align 4,,15
  40              		.global	sys_sem_new
  41              		.thumb
  42              		.thumb_func
  43              		.type	sys_sem_new, %function
  44              	sys_sem_new:
  45              	.LFB8:
  46              		.loc 1 78 0
  47              		.cfi_startproc
  48              		@ args = 0, pretend = 0, frame = 0
  49              		@ frame_needed = 0, uses_anonymous_args = 0
  50              	.LVL0:
  51              		.loc 1 78 0
  52 0000 38B5     		push	{r3, r4, r5, lr}
  53              	.LCFI0:
  54              		.cfi_def_cfa_offset 16
ARM GAS  /var/folders/5n/p_75w94d66l9ssrldxqdhh700000gn/T//ccL7Lleu.s 			page 2


  55              		.cfi_offset 3, -16
  56              		.cfi_offset 4, -12
  57              		.cfi_offset 5, -8
  58              		.cfi_offset 14, -4
  59              		.loc 1 78 0
  60 0002 0446     		mov	r4, r0
  61 0004 0D46     		mov	r5, r1
  62              		.loc 1 80 0
  63 0006 0020     		movs	r0, #0
  64              	.LVL1:
  65 0008 0C21     		movs	r1, #12
  66              	.LVL2:
  67 000a FFF7FEFF 		bl	chHeapAlloc
  68              	.LVL3:
  69 000e 2060     		str	r0, [r4, #0]
  70              		.loc 1 81 0
  71 0010 58B1     		cbz	r0, .L6
  72              		.loc 1 86 0
  73 0012 2946     		mov	r1, r5
  74 0014 FFF7FEFF 		bl	chSemInit
  75              	.LVL4:
  76              		.loc 1 87 0
  77 0018 084B     		ldr	r3, .L7
  78 001a B3F83E21 		ldrh	r2, [r3, #318]
  79 001e 0132     		adds	r2, r2, #1
  80 0020 A3F83E21 		strh	r2, [r3, #318]	@ movhi
  81              		.loc 1 88 0
  82 0024 0020     		movs	r0, #0
  83              	.L4:
  84              		.loc 1 90 0
  85 0026 40B2     		sxtb	r0, r0
  86 0028 38BD     		pop	{r3, r4, r5, pc}
  87              	.L6:
  88              		.loc 1 82 0
  89 002a 044B     		ldr	r3, .L7
  90 002c B3F84221 		ldrh	r2, [r3, #322]
  91 0030 0132     		adds	r2, r2, #1
  92 0032 A3F84221 		strh	r2, [r3, #322]	@ movhi
  93              		.loc 1 83 0
  94 0036 FF20     		movs	r0, #255
  95 0038 F5E7     		b	.L4
  96              	.L8:
  97 003a 00BF     		.align	2
  98              	.L7:
  99 003c 00000000 		.word	lwip_stats
 100              		.cfi_endproc
 101              	.LFE8:
 102              		.size	sys_sem_new, .-sys_sem_new
 103              		.section	.text.sys_sem_free,"ax",%progbits
 104              		.align	2
 105              		.p2align 4,,15
 106              		.global	sys_sem_free
 107              		.thumb
 108              		.thumb_func
 109              		.type	sys_sem_free, %function
 110              	sys_sem_free:
 111              	.LFB9:
ARM GAS  /var/folders/5n/p_75w94d66l9ssrldxqdhh700000gn/T//ccL7Lleu.s 			page 3


 112              		.loc 1 92 0
 113              		.cfi_startproc
 114              		@ args = 0, pretend = 0, frame = 0
 115              		@ frame_needed = 0, uses_anonymous_args = 0
 116              	.LVL5:
 117 0000 10B5     		push	{r4, lr}
 118              	.LCFI1:
 119              		.cfi_def_cfa_offset 8
 120              		.cfi_offset 4, -8
 121              		.cfi_offset 14, -4
 122              		.loc 1 92 0
 123 0002 0446     		mov	r4, r0
 124              		.loc 1 94 0
 125 0004 0068     		ldr	r0, [r0, #0]
 126              	.LVL6:
 127 0006 FFF7FEFF 		bl	chHeapFree
 128              	.LVL7:
 129              		.loc 1 96 0
 130 000a 40F20003 		movw	r3, #:lower16:lwip_stats
 131 000e C0F20003 		movt	r3, #:upper16:lwip_stats
 132              		.loc 1 95 0
 133 0012 0021     		movs	r1, #0
 134              		.loc 1 96 0
 135 0014 B3F83E21 		ldrh	r2, [r3, #318]
 136              		.loc 1 95 0
 137 0018 2160     		str	r1, [r4, #0]
 138              		.loc 1 96 0
 139 001a 013A     		subs	r2, r2, #1
 140 001c A3F83E21 		strh	r2, [r3, #318]	@ movhi
 141 0020 10BD     		pop	{r4, pc}
 142              		.cfi_endproc
 143              	.LFE9:
 144              		.size	sys_sem_free, .-sys_sem_free
 145 0022 00BFAFF3 		.section	.text.sys_sem_signal,"ax",%progbits
 145      0080AFF3 
 145      0080AFF3 
 145      0080
 146              		.align	2
 147              		.p2align 4,,15
 148              		.global	sys_sem_signal
 149              		.thumb
 150              		.thumb_func
 151              		.type	sys_sem_signal, %function
 152              	sys_sem_signal:
 153              	.LFB10:
 154              		.loc 1 99 0
 155              		.cfi_startproc
 156              		@ args = 0, pretend = 0, frame = 0
 157              		@ frame_needed = 0, uses_anonymous_args = 0
 158              		@ link register save eliminated.
 159              	.LVL8:
 160              		.loc 1 101 0
 161 0000 0068     		ldr	r0, [r0, #0]
 162              	.LVL9:
 163              		.loc 1 102 0
 164              		.loc 1 101 0
 165 0002 FFF7FEBF 		b	chSemSignal
ARM GAS  /var/folders/5n/p_75w94d66l9ssrldxqdhh700000gn/T//ccL7Lleu.s 			page 4


 166              	.LVL10:
 167              		.cfi_endproc
 168              	.LFE10:
 169              		.size	sys_sem_signal, .-sys_sem_signal
 170 0006 00BFAFF3 		.section	.text.sys_arch_sem_wait,"ax",%progbits
 170      0080AFF3 
 170      0080
 171              		.align	2
 172              		.p2align 4,,15
 173              		.global	sys_arch_sem_wait
 174              		.thumb
 175              		.thumb_func
 176              		.type	sys_arch_sem_wait, %function
 177              	sys_arch_sem_wait:
 178              	.LFB11:
 179              		.loc 1 104 0
 180              		.cfi_startproc
 181              		@ args = 0, pretend = 0, frame = 0
 182              		@ frame_needed = 0, uses_anonymous_args = 0
 183              	.LVL11:
 184 0000 38B5     		push	{r3, r4, r5, lr}
 185              	.LCFI2:
 186              		.cfi_def_cfa_offset 16
 187              		.cfi_offset 3, -16
 188              		.cfi_offset 4, -12
 189              		.cfi_offset 5, -8
 190              		.cfi_offset 14, -4
 191              	.LBB2:
 192              		.loc 1 107 0
 193 0002 2023     		movs	r3, #32
 194              	.LVL12:
 195              	@ 107 "../../os/various/lwip_bindings/arch/sys_arch.c" 1
 196 0004 83F31188 		msr     BASEPRI, r3
 197              	@ 0 "" 2
 198              	.LVL13:
 199              		.thumb
 200              	.LBE2:
 201              		.loc 1 109 0
 202 0008 094C     		ldr	r4, .L17
 203              		.loc 1 110 0
 204 000a 0068     		ldr	r0, [r0, #0]
 205              	.LVL14:
 206              		.loc 1 109 0
 207 000c E568     		ldr	r5, [r4, #12]
 208              	.LVL15:
 209              		.loc 1 110 0
 210 000e 0029     		cmp	r1, #0
 211 0010 08BF     		it	eq
 212 0012 4FF0FF31 		moveq	r1, #-1
 213              	.LVL16:
 214 0016 FFF7FEFF 		bl	chSemWaitTimeoutS
 215              	.LVL17:
 216 001a 28B1     		cbz	r0, .L16
 217              		.loc 1 111 0
 218 001c 4FF0FF30 		mov	r0, #-1
 219              	.LVL18:
 220              	.L13:
ARM GAS  /var/folders/5n/p_75w94d66l9ssrldxqdhh700000gn/T//ccL7Lleu.s 			page 5


 221              	.LBB3:
 222              		.loc 1 114 0
 223 0020 0023     		movs	r3, #0
 224              	.LVL19:
 225              	@ 114 "../../os/various/lwip_bindings/arch/sys_arch.c" 1
 226 0022 83F31188 		msr     BASEPRI, r3
 227              	@ 0 "" 2
 228              	.LVL20:
 229              		.thumb
 230              	.LBE3:
 231              		.loc 1 116 0
 232 0026 38BD     		pop	{r3, r4, r5, pc}
 233              	.LVL21:
 234              	.L16:
 235              		.loc 1 113 0
 236 0028 E068     		ldr	r0, [r4, #12]
 237 002a 401B     		subs	r0, r0, r5
 238              	.LVL22:
 239 002c F8E7     		b	.L13
 240              	.L18:
 241 002e 00BF     		.align	2
 242              	.L17:
 243 0030 00000000 		.word	vtlist
 244              		.cfi_endproc
 245              	.LFE11:
 246              		.size	sys_arch_sem_wait, .-sys_arch_sem_wait
 247 0034 AFF30080 		.section	.text.sys_sem_valid,"ax",%progbits
 247      AFF30080 
 247      AFF30080 
 248              		.align	2
 249              		.p2align 4,,15
 250              		.global	sys_sem_valid
 251              		.thumb
 252              		.thumb_func
 253              		.type	sys_sem_valid, %function
 254              	sys_sem_valid:
 255              	.LFB12:
 256              		.loc 1 118 0
 257              		.cfi_startproc
 258              		@ args = 0, pretend = 0, frame = 0
 259              		@ frame_needed = 0, uses_anonymous_args = 0
 260              		@ link register save eliminated.
 261              	.LVL23:
 262              		.loc 1 119 0
 263 0000 0068     		ldr	r0, [r0, #0]
 264              	.LVL24:
 265              		.loc 1 120 0
 266 0002 0030     		adds	r0, r0, #0
 267 0004 18BF     		it	ne
 268 0006 0120     		movne	r0, #1
 269 0008 7047     		bx	lr
 270              		.cfi_endproc
 271              	.LFE12:
 272              		.size	sys_sem_valid, .-sys_sem_valid
 273 000a 00BFAFF3 		.section	.text.sys_sem_set_invalid,"ax",%progbits
 273      0080
 274              		.align	2
ARM GAS  /var/folders/5n/p_75w94d66l9ssrldxqdhh700000gn/T//ccL7Lleu.s 			page 6


 275              		.p2align 4,,15
 276              		.global	sys_sem_set_invalid
 277              		.thumb
 278              		.thumb_func
 279              		.type	sys_sem_set_invalid, %function
 280              	sys_sem_set_invalid:
 281              	.LFB13:
 282              		.loc 1 124 0
 283              		.cfi_startproc
 284              		@ args = 0, pretend = 0, frame = 0
 285              		@ frame_needed = 0, uses_anonymous_args = 0
 286              		@ link register save eliminated.
 287              	.LVL25:
 288              		.loc 1 125 0
 289 0000 0023     		movs	r3, #0
 290 0002 0360     		str	r3, [r0, #0]
 291 0004 7047     		bx	lr
 292              		.cfi_endproc
 293              	.LFE13:
 294              		.size	sys_sem_set_invalid, .-sys_sem_set_invalid
 295 0006 00BFAFF3 		.section	.text.sys_mbox_new,"ax",%progbits
 295      0080AFF3 
 295      0080
 296              		.align	2
 297              		.p2align 4,,15
 298              		.global	sys_mbox_new
 299              		.thumb
 300              		.thumb_func
 301              		.type	sys_mbox_new, %function
 302              	sys_mbox_new:
 303              	.LFB14:
 304              		.loc 1 128 0
 305              		.cfi_startproc
 306              		@ args = 0, pretend = 0, frame = 0
 307              		@ frame_needed = 0, uses_anonymous_args = 0
 308              	.LVL26:
 309 0000 38B5     		push	{r3, r4, r5, lr}
 310              	.LCFI3:
 311              		.cfi_def_cfa_offset 16
 312              		.cfi_offset 3, -16
 313              		.cfi_offset 4, -12
 314              		.cfi_offset 5, -8
 315              		.cfi_offset 14, -4
 316              		.loc 1 128 0
 317 0002 0C46     		mov	r4, r1
 318              		.loc 1 130 0
 319 0004 01F10A01 		add	r1, r1, #10
 320              	.LVL27:
 321              		.loc 1 128 0
 322 0008 0546     		mov	r5, r0
 323              		.loc 1 130 0
 324 000a 8900     		lsls	r1, r1, #2
 325 000c 0020     		movs	r0, #0
 326              	.LVL28:
 327 000e FFF7FEFF 		bl	chHeapAlloc
 328              	.LVL29:
 329 0012 0146     		mov	r1, r0
ARM GAS  /var/folders/5n/p_75w94d66l9ssrldxqdhh700000gn/T//ccL7Lleu.s 			page 7


 330 0014 2860     		str	r0, [r5, #0]
 331              		.loc 1 131 0
 332 0016 60B1     		cbz	r0, .L24
 333              		.loc 1 136 0
 334 0018 2246     		mov	r2, r4
 335 001a 2831     		adds	r1, r1, #40
 336 001c FFF7FEFF 		bl	chMBInit
 337              	.LVL30:
 338              		.loc 1 137 0
 339 0020 084B     		ldr	r3, .L25
 340 0022 B3F84A21 		ldrh	r2, [r3, #330]
 341 0026 0132     		adds	r2, r2, #1
 342 0028 A3F84A21 		strh	r2, [r3, #330]	@ movhi
 343              		.loc 1 138 0
 344 002c 0020     		movs	r0, #0
 345              	.L23:
 346              		.loc 1 140 0
 347 002e 40B2     		sxtb	r0, r0
 348 0030 38BD     		pop	{r3, r4, r5, pc}
 349              	.L24:
 350              		.loc 1 132 0
 351 0032 044B     		ldr	r3, .L25
 352 0034 B3F84E21 		ldrh	r2, [r3, #334]
 353 0038 0132     		adds	r2, r2, #1
 354 003a A3F84E21 		strh	r2, [r3, #334]	@ movhi
 355              		.loc 1 133 0
 356 003e FF20     		movs	r0, #255
 357 0040 F5E7     		b	.L23
 358              	.L26:
 359 0042 00BF     		.align	2
 360              	.L25:
 361 0044 00000000 		.word	lwip_stats
 362              		.cfi_endproc
 363              	.LFE14:
 364              		.size	sys_mbox_new, .-sys_mbox_new
 365 0048 AFF30080 		.section	.text.sys_mbox_free,"ax",%progbits
 365      AFF30080 
 366              		.align	2
 367              		.p2align 4,,15
 368              		.global	sys_mbox_free
 369              		.thumb
 370              		.thumb_func
 371              		.type	sys_mbox_free, %function
 372              	sys_mbox_free:
 373              	.LFB15:
 374              		.loc 1 142 0
 375              		.cfi_startproc
 376              		@ args = 0, pretend = 0, frame = 0
 377              		@ frame_needed = 0, uses_anonymous_args = 0
 378              	.LVL31:
 379 0000 38B5     		push	{r3, r4, r5, lr}
 380              	.LCFI4:
 381              		.cfi_def_cfa_offset 16
 382              		.cfi_offset 3, -16
 383              		.cfi_offset 4, -12
 384              		.cfi_offset 5, -8
 385              		.cfi_offset 14, -4
ARM GAS  /var/folders/5n/p_75w94d66l9ssrldxqdhh700000gn/T//ccL7Lleu.s 			page 8


 386              		.loc 1 142 0
 387 0002 0546     		mov	r5, r0
 388              		.loc 1 144 0
 389 0004 0068     		ldr	r0, [r0, #0]
 390              	.LVL32:
 391              		.loc 1 148 0
 392 0006 0A4C     		ldr	r4, .L32
 393              		.loc 1 144 0
 394 0008 8369     		ldr	r3, [r0, #24]
 395 000a 3BB1     		cbz	r3, .L28
 396              		.loc 1 148 0
 397 000c B4F84E31 		ldrh	r3, [r4, #334]
 398 0010 0133     		adds	r3, r3, #1
 399 0012 A4F84E31 		strh	r3, [r4, #334]	@ movhi
 400              		.loc 1 149 0
 401 0016 FFF7FEFF 		bl	chMBReset
 402              	.LVL33:
 403 001a 2868     		ldr	r0, [r5, #0]
 404              	.L28:
 405              		.loc 1 151 0
 406 001c FFF7FEFF 		bl	chHeapFree
 407              	.LVL34:
 408              		.loc 1 153 0
 409 0020 B4F84A31 		ldrh	r3, [r4, #330]
 410              		.loc 1 152 0
 411 0024 0022     		movs	r2, #0
 412              		.loc 1 153 0
 413 0026 013B     		subs	r3, r3, #1
 414              		.loc 1 152 0
 415 0028 2A60     		str	r2, [r5, #0]
 416              		.loc 1 153 0
 417 002a A4F84A31 		strh	r3, [r4, #330]	@ movhi
 418 002e 38BD     		pop	{r3, r4, r5, pc}
 419              	.L33:
 420              		.align	2
 421              	.L32:
 422 0030 00000000 		.word	lwip_stats
 423              		.cfi_endproc
 424              	.LFE15:
 425              		.size	sys_mbox_free, .-sys_mbox_free
 426 0034 AFF30080 		.section	.text.sys_mbox_post,"ax",%progbits
 426      AFF30080 
 426      AFF30080 
 427              		.align	2
 428              		.p2align 4,,15
 429              		.global	sys_mbox_post
 430              		.thumb
 431              		.thumb_func
 432              		.type	sys_mbox_post, %function
 433              	sys_mbox_post:
 434              	.LFB16:
 435              		.loc 1 156 0
 436              		.cfi_startproc
 437              		@ args = 0, pretend = 0, frame = 0
 438              		@ frame_needed = 0, uses_anonymous_args = 0
 439              		@ link register save eliminated.
 440              	.LVL35:
ARM GAS  /var/folders/5n/p_75w94d66l9ssrldxqdhh700000gn/T//ccL7Lleu.s 			page 9


 441              		.loc 1 158 0
 442 0000 0068     		ldr	r0, [r0, #0]
 443              	.LVL36:
 444 0002 4FF0FF32 		mov	r2, #-1
 445              		.loc 1 159 0
 446              		.loc 1 158 0
 447 0006 FFF7FEBF 		b	chMBPost
 448              	.LVL37:
 449              		.cfi_endproc
 450              	.LFE16:
 451              		.size	sys_mbox_post, .-sys_mbox_post
 452 000a 00BFAFF3 		.section	.text.sys_mbox_trypost,"ax",%progbits
 452      0080
 453              		.align	2
 454              		.p2align 4,,15
 455              		.global	sys_mbox_trypost
 456              		.thumb
 457              		.thumb_func
 458              		.type	sys_mbox_trypost, %function
 459              	sys_mbox_trypost:
 460              	.LFB17:
 461              		.loc 1 161 0
 462              		.cfi_startproc
 463              		@ args = 0, pretend = 0, frame = 0
 464              		@ frame_needed = 0, uses_anonymous_args = 0
 465              	.LVL38:
 466              		.loc 1 163 0
 467 0000 0022     		movs	r2, #0
 468              		.loc 1 161 0
 469 0002 08B5     		push	{r3, lr}
 470              	.LCFI5:
 471              		.cfi_def_cfa_offset 8
 472              		.cfi_offset 3, -8
 473              		.cfi_offset 14, -4
 474              		.loc 1 163 0
 475 0004 0068     		ldr	r0, [r0, #0]
 476              	.LVL39:
 477 0006 FFF7FEFF 		bl	chMBPost
 478              	.LVL40:
 479 000a 0130     		adds	r0, r0, #1
 480 000c 02D0     		beq	.L38
 481              		.loc 1 167 0
 482 000e 0020     		movs	r0, #0
 483              	.L36:
 484              		.loc 1 168 0
 485 0010 40B2     		sxtb	r0, r0
 486 0012 08BD     		pop	{r3, pc}
 487              	.L38:
 488              		.loc 1 164 0
 489 0014 034B     		ldr	r3, .L39
 490 0016 B3F84E21 		ldrh	r2, [r3, #334]
 491 001a 0132     		adds	r2, r2, #1
 492 001c A3F84E21 		strh	r2, [r3, #334]	@ movhi
 493              		.loc 1 165 0
 494 0020 FF20     		movs	r0, #255
 495 0022 F5E7     		b	.L36
 496              	.L40:
ARM GAS  /var/folders/5n/p_75w94d66l9ssrldxqdhh700000gn/T//ccL7Lleu.s 			page 10


 497              		.align	2
 498              	.L39:
 499 0024 00000000 		.word	lwip_stats
 500              		.cfi_endproc
 501              	.LFE17:
 502              		.size	sys_mbox_trypost, .-sys_mbox_trypost
 503 0028 AFF30080 		.section	.text.sys_arch_mbox_fetch,"ax",%progbits
 503      AFF30080 
 504              		.align	2
 505              		.p2align 4,,15
 506              		.global	sys_arch_mbox_fetch
 507              		.thumb
 508              		.thumb_func
 509              		.type	sys_arch_mbox_fetch, %function
 510              	sys_arch_mbox_fetch:
 511              	.LFB18:
 512              		.loc 1 170 0
 513              		.cfi_startproc
 514              		@ args = 0, pretend = 0, frame = 0
 515              		@ frame_needed = 0, uses_anonymous_args = 0
 516              	.LVL41:
 517 0000 38B5     		push	{r3, r4, r5, lr}
 518              	.LCFI6:
 519              		.cfi_def_cfa_offset 16
 520              		.cfi_offset 3, -16
 521              		.cfi_offset 4, -12
 522              		.cfi_offset 5, -8
 523              		.cfi_offset 14, -4
 524              	.LBB4:
 525              		.loc 1 173 0
 526 0002 2023     		movs	r3, #32
 527              	.LVL42:
 528              	@ 173 "../../os/various/lwip_bindings/arch/sys_arch.c" 1
 529 0004 83F31188 		msr     BASEPRI, r3
 530              	@ 0 "" 2
 531              	.LVL43:
 532              		.thumb
 533              	.LBE4:
 534              		.loc 1 175 0
 535 0008 094C     		ldr	r4, .L47
 536              		.loc 1 176 0
 537 000a 0068     		ldr	r0, [r0, #0]
 538              	.LVL44:
 539              		.loc 1 175 0
 540 000c E568     		ldr	r5, [r4, #12]
 541              	.LVL45:
 542              		.loc 1 176 0
 543 000e 002A     		cmp	r2, #0
 544 0010 08BF     		it	eq
 545 0012 4FF0FF32 		moveq	r2, #-1
 546              	.LVL46:
 547 0016 FFF7FEFF 		bl	chMBFetchS
 548              	.LVL47:
 549 001a 28B1     		cbz	r0, .L46
 550              		.loc 1 177 0
 551 001c 4FF0FF30 		mov	r0, #-1
 552              	.LVL48:
ARM GAS  /var/folders/5n/p_75w94d66l9ssrldxqdhh700000gn/T//ccL7Lleu.s 			page 11


 553              	.L43:
 554              	.LBB5:
 555              		.loc 1 180 0
 556 0020 0023     		movs	r3, #0
 557              	.LVL49:
 558              	@ 180 "../../os/various/lwip_bindings/arch/sys_arch.c" 1
 559 0022 83F31188 		msr     BASEPRI, r3
 560              	@ 0 "" 2
 561              	.LVL50:
 562              		.thumb
 563              	.LBE5:
 564              		.loc 1 182 0
 565 0026 38BD     		pop	{r3, r4, r5, pc}
 566              	.LVL51:
 567              	.L46:
 568              		.loc 1 179 0
 569 0028 E068     		ldr	r0, [r4, #12]
 570 002a 401B     		subs	r0, r0, r5
 571              	.LVL52:
 572 002c F8E7     		b	.L43
 573              	.L48:
 574 002e 00BF     		.align	2
 575              	.L47:
 576 0030 00000000 		.word	vtlist
 577              		.cfi_endproc
 578              	.LFE18:
 579              		.size	sys_arch_mbox_fetch, .-sys_arch_mbox_fetch
 580 0034 AFF30080 		.section	.text.sys_arch_mbox_tryfetch,"ax",%progbits
 580      AFF30080 
 580      AFF30080 
 581              		.align	2
 582              		.p2align 4,,15
 583              		.global	sys_arch_mbox_tryfetch
 584              		.thumb
 585              		.thumb_func
 586              		.type	sys_arch_mbox_tryfetch, %function
 587              	sys_arch_mbox_tryfetch:
 588              	.LFB19:
 589              		.loc 1 184 0
 590              		.cfi_startproc
 591              		@ args = 0, pretend = 0, frame = 0
 592              		@ frame_needed = 0, uses_anonymous_args = 0
 593              	.LVL53:
 594 0000 08B5     		push	{r3, lr}
 595              	.LCFI7:
 596              		.cfi_def_cfa_offset 8
 597              		.cfi_offset 3, -8
 598              		.cfi_offset 14, -4
 599              		.loc 1 186 0
 600 0002 0022     		movs	r2, #0
 601 0004 0068     		ldr	r0, [r0, #0]
 602              	.LVL54:
 603 0006 FFF7FEFF 		bl	chMBFetch
 604              	.LVL55:
 605              		.loc 1 189 0
 606 000a B0F1FF3F 		cmp	r0, #-1
 607 000e 0CBF     		ite	eq
ARM GAS  /var/folders/5n/p_75w94d66l9ssrldxqdhh700000gn/T//ccL7Lleu.s 			page 12


 608 0010 4FF0FF30 		moveq	r0, #-1
 609 0014 0020     		movne	r0, #0
 610 0016 08BD     		pop	{r3, pc}
 611              		.cfi_endproc
 612              	.LFE19:
 613              		.size	sys_arch_mbox_tryfetch, .-sys_arch_mbox_tryfetch
 614 0018 AFF30080 		.section	.text.sys_mbox_valid,"ax",%progbits
 614      AFF30080 
 615              		.align	2
 616              		.p2align 4,,15
 617              		.global	sys_mbox_valid
 618              		.thumb
 619              		.thumb_func
 620              		.type	sys_mbox_valid, %function
 621              	sys_mbox_valid:
 622              	.LFB20:
 623              		.loc 1 191 0
 624              		.cfi_startproc
 625              		@ args = 0, pretend = 0, frame = 0
 626              		@ frame_needed = 0, uses_anonymous_args = 0
 627              		@ link register save eliminated.
 628              	.LVL56:
 629              		.loc 1 192 0
 630 0000 0068     		ldr	r0, [r0, #0]
 631              	.LVL57:
 632              		.loc 1 193 0
 633 0002 0030     		adds	r0, r0, #0
 634 0004 18BF     		it	ne
 635 0006 0120     		movne	r0, #1
 636 0008 7047     		bx	lr
 637              		.cfi_endproc
 638              	.LFE20:
 639              		.size	sys_mbox_valid, .-sys_mbox_valid
 640 000a 00BFAFF3 		.section	.text.sys_mbox_set_invalid,"ax",%progbits
 640      0080
 641              		.align	2
 642              		.p2align 4,,15
 643              		.global	sys_mbox_set_invalid
 644              		.thumb
 645              		.thumb_func
 646              		.type	sys_mbox_set_invalid, %function
 647              	sys_mbox_set_invalid:
 648              	.LFB21:
 649              		.loc 1 197 0
 650              		.cfi_startproc
 651              		@ args = 0, pretend = 0, frame = 0
 652              		@ frame_needed = 0, uses_anonymous_args = 0
 653              		@ link register save eliminated.
 654              	.LVL58:
 655              		.loc 1 198 0
 656 0000 0023     		movs	r3, #0
 657 0002 0360     		str	r3, [r0, #0]
 658 0004 7047     		bx	lr
 659              		.cfi_endproc
 660              	.LFE21:
 661              		.size	sys_mbox_set_invalid, .-sys_mbox_set_invalid
 662 0006 00BFAFF3 		.section	.text.sys_thread_new,"ax",%progbits
ARM GAS  /var/folders/5n/p_75w94d66l9ssrldxqdhh700000gn/T//ccL7Lleu.s 			page 13


 662      0080AFF3 
 662      0080
 663              		.align	2
 664              		.p2align 4,,15
 665              		.global	sys_thread_new
 666              		.thumb
 667              		.thumb_func
 668              		.type	sys_thread_new, %function
 669              	sys_thread_new:
 670              	.LFB22:
 671              		.loc 1 202 0
 672              		.cfi_startproc
 673              		@ args = 4, pretend = 0, frame = 0
 674              		@ frame_needed = 0, uses_anonymous_args = 0
 675              	.LVL59:
 676 0000 2DE9F041 		push	{r4, r5, r6, r7, r8, lr}
 677              	.LCFI8:
 678              		.cfi_def_cfa_offset 24
 679              		.cfi_offset 4, -24
 680              		.cfi_offset 5, -20
 681              		.cfi_offset 6, -16
 682              		.cfi_offset 7, -12
 683              		.cfi_offset 8, -8
 684              		.cfi_offset 14, -4
 685              		.loc 1 204 0
 686 0004 0B4C     		ldr	r4, .L56
 687              		.loc 1 202 0
 688 0006 069E     		ldr	r6, [sp, #24]
 689              		.loc 1 204 0
 690 0008 E569     		ldr	r5, [r4, #28]
 691              		.loc 1 205 0
 692 000a AB33     		adds	r3, r3, #171
 693              	.LVL60:
 694 000c 43F00704 		orr	r4, r3, #7
 695 0010 0134     		adds	r4, r4, #1
 696              	.LVL61:
 697              		.loc 1 204 0
 698 0012 A861     		str	r0, [r5, #24]
 699              		.loc 1 206 0
 700 0014 2046     		mov	r0, r4
 701              	.LVL62:
 702              		.loc 1 202 0
 703 0016 0D46     		mov	r5, r1
 704              	.LVL63:
 705 0018 1746     		mov	r7, r2
 706              		.loc 1 206 0
 707 001a FFF7FEFF 		bl	chCoreAlloc
 708              	.LVL64:
 709              		.loc 1 207 0
 710 001e 38B1     		cbz	r0, .L55
 711              		.loc 1 209 0
 712 0020 2146     		mov	r1, r4
 713 0022 3246     		mov	r2, r6
 714 0024 2B46     		mov	r3, r5
 715 0026 0697     		str	r7, [sp, #24]
 716              		.loc 1 210 0
 717 0028 BDE8F041 		pop	{r4, r5, r6, r7, r8, lr}
ARM GAS  /var/folders/5n/p_75w94d66l9ssrldxqdhh700000gn/T//ccL7Lleu.s 			page 14


 718              		.loc 1 209 0
 719 002c FFF7FEBF 		b	chThdCreateStatic
 720              	.LVL65:
 721              	.L55:
 722              		.loc 1 210 0
 723 0030 BDE8F081 		pop	{r4, r5, r6, r7, r8, pc}
 724              	.L57:
 725              		.align	2
 726              	.L56:
 727 0034 00000000 		.word	rlist
 728              		.cfi_endproc
 729              	.LFE22:
 730              		.size	sys_thread_new, .-sys_thread_new
 731 0038 AFF30080 		.section	.text.sys_arch_protect,"ax",%progbits
 731      AFF30080 
 732              		.align	2
 733              		.p2align 4,,15
 734              		.global	sys_arch_protect
 735              		.thumb
 736              		.thumb_func
 737              		.type	sys_arch_protect, %function
 738              	sys_arch_protect:
 739              	.LFB23:
 740              		.loc 1 212 0
 741              		.cfi_startproc
 742              		@ args = 0, pretend = 0, frame = 0
 743              		@ frame_needed = 0, uses_anonymous_args = 0
 744              		@ link register save eliminated.
 745              	.LBB6:
 746              		.loc 1 214 0
 747 0000 2023     		movs	r3, #32
 748              	.LVL66:
 749              	@ 214 "../../os/various/lwip_bindings/arch/sys_arch.c" 1
 750 0002 83F31188 		msr     BASEPRI, r3
 751              	@ 0 "" 2
 752              	.LVL67:
 753              		.thumb
 754              	.LBE6:
 755              		.loc 1 216 0
 756 0006 0020     		movs	r0, #0
 757 0008 7047     		bx	lr
 758              		.cfi_endproc
 759              	.LFE23:
 760              		.size	sys_arch_protect, .-sys_arch_protect
 761 000a 00BFAFF3 		.section	.text.sys_arch_unprotect,"ax",%progbits
 761      0080
 762              		.align	2
 763              		.p2align 4,,15
 764              		.global	sys_arch_unprotect
 765              		.thumb
 766              		.thumb_func
 767              		.type	sys_arch_unprotect, %function
 768              	sys_arch_unprotect:
 769              	.LFB24:
 770              		.loc 1 218 0
 771              		.cfi_startproc
 772              		@ args = 0, pretend = 0, frame = 0
ARM GAS  /var/folders/5n/p_75w94d66l9ssrldxqdhh700000gn/T//ccL7Lleu.s 			page 15


 773              		@ frame_needed = 0, uses_anonymous_args = 0
 774              		@ link register save eliminated.
 775              	.LVL68:
 776              	.LBB7:
 777              		.loc 1 221 0
 778 0000 0023     		movs	r3, #0
 779              	.LVL69:
 780              	@ 221 "../../os/various/lwip_bindings/arch/sys_arch.c" 1
 781 0002 83F31188 		msr     BASEPRI, r3
 782              	@ 0 "" 2
 783              	.LVL70:
 784              		.thumb
 785 0006 7047     		bx	lr
 786              	.LBE7:
 787              		.cfi_endproc
 788              	.LFE24:
 789              		.size	sys_arch_unprotect, .-sys_arch_unprotect
 790 0008 AFF30080 		.text
 790      AFF30080 
 791              	.Letext0:
 792              		.file 2 "/usr/local/cross/lib/gcc/arm-none-eabi/4.7.2/include/stddef.h"
 793              		.file 3 "/usr/local/cross/lib/gcc/arm-none-eabi/4.7.2/../../../../arm-none-eabi/include/stdint.h"
 794              		.file 4 "../../os/ports/GCC/ARMCMx/chtypes.h"
 795              		.file 5 "../../os/kernel/include/chlists.h"
 796              		.file 6 "../../os/kernel/include/chthreads.h"
 797              		.file 7 "../../os/ports/GCC/ARMCMx/chcore_v7m.h"
 798              		.file 8 "../../os/kernel/include/chvt.h"
 799              		.file 9 "../../os/kernel/include/chschd.h"
 800              		.file 10 "../../os/kernel/include/chsem.h"
 801              		.file 11 "../../os/kernel/include/chmtx.h"
 802              		.file 12 "../../os/kernel/include/chmboxes.h"
 803              		.file 13 "../../os/kernel/include/chmemcore.h"
 804              		.file 14 "../../os/kernel/include/chheap.h"
 805              		.file 15 "../../os/various/lwip_bindings/arch/cc.h"
 806              		.file 16 "../../ext/lwip-1.4.0/src/include/lwip/mem.h"
 807              		.file 17 "../../ext/lwip-1.4.0/src/include/lwip/err.h"
 808              		.file 18 "../../os/various/lwip_bindings/arch/sys_arch.h"
 809              		.file 19 "../../ext/lwip-1.4.0/src/include/lwip/sys.h"
 810              		.file 20 "../../ext/lwip-1.4.0/src/include/lwip/stats.h"