ARM GAS  /var/folders/5n/p_75w94d66l9ssrldxqdhh700000gn/T//ccL7Lleu.s 			page 1


   1              		.syntax unified
   2              		.cpu cortex-m4
   3              		.fpu softvfp
   4              		.eabi_attribute 20, 1
   5              		.eabi_attribute 21, 1
   6              		.eabi_attribute 23, 3
   7              		.eabi_attribute 24, 1
   8              		.eabi_attribute 25, 1
   9              		.eabi_attribute 26, 1
  10              		.eabi_attribute 30, 2
  11              		.eabi_attribute 34, 1
  12              		.eabi_attribute 18, 4
  13              		.thumb
  14              		.file	"sys_arch.c"
  15              		.text
  16              	.Ltext0:
  17              		.cfi_sections	.debug_frame
  18              		.section	.text.sys_init,"ax",%progbits
  19              		.align	2
  20              		.p2align 4,,15
  21              		.global	sys_init
  22              		.thumb
  23              		.thumb_func
  24              		.type	sys_init, %function
  25              	sys_init:
  26              	.LFB7:
  27              		.file 1 "../../os/various/lwip_bindings/arch/sys_arch.c"
  28              		.loc 1 74 0
  29              		.cfi_startproc
  30              		@ args = 0, pretend = 0, frame = 0
  31              		@ frame_needed = 0, uses_anonymous_args = 0
  32              		@ link register save eliminated.
  33 0000 7047     		bx	lr
  34              		.cfi_endproc
  35              	.LFE7:
  36              		.size	sys_init, .-sys_init
  37 0002 00BFAFF3 		.section	.text.sys_sem_new,"ax",%progbits
  37      0080AFF3 
  37      0080AFF3 
  37      0080
  38              		.align	2
  39              		.p2align 4,,15
  40              		.global	sys_sem_new
  41              		.thumb
  42              		.thumb_func
  43              		.type	sys_sem_new, %function
  44              	sys_sem_new:
  45              	.LFB8:
  46              		.loc 1 78 0
  47              		.cfi_startproc
  48              		@ args = 0, pretend = 0, frame = 0
  49              		@ frame_needed = 0, uses_anonymous_args = 0
  50              	.LVL0:
  51              		.loc 1 78 0
  52 0000 38B5     		push	{r3, r4, r5, lr}
  53              	.LCFI0:
  54              		.cfi_def_cfa_offset 16
ARM GAS  /var/folders/5n/p_75w94d66l9ssrldxqdhh700000gn/T//ccL7Lleu.s 			page 2


  55              		.cfi_offset 3, -16
  56              		.cfi_offset 4, -12
  57              		.cfi_offset 5, -8
  58              		.cfi_offset 14, -4
  59              		.loc 1 78 0
  60 0002 0446     		mov	r4, r0
  61 0004 0D46     		mov	r5, r1
  62              		.loc 1 80 0
  63 0006 0020     		movs	r0, #0
  64              	.LVL1:
  65 0008 0C21     		movs	r1, #12
  66              	.LVL2:
  67 000a FFF7FEFF 		bl	chHeapAlloc
  68              	.LVL3:
  69 000e 2060     		str	r0, [r4, #0]
  70              		.loc 1 81 0
  71 0010 58B1     		cbz	r0, .L6
  72              		.loc 1 86 0
  73 0012 2946     		mov	r1, r5
  74 0014 FFF7FEFF 		bl	chSemInit
  75              	.LVL4:
  76              		.loc 1 87 0
  77 0018 084B     		ldr	r3, .L7
  78 001a B3F83E21 		ldrh	r2, [r3, #318]
  79 001e 0132     		adds	r2, r2, #1
  80 0020 A3F83E21 		strh	r2, [r3, #318]	@ movhi
  81              		.loc 1 88 0
  82 0024 0020     		movs	r0, #0
  83              	.L4:
  84              		.loc 1 90 0
  85 0026 40B2     		sxtb	r0, r0
  86 0028 38BD     		pop	{r3, r4, r5, pc}
  87              	.L6:
  88              		.loc 1 82 0
  89 002a 044B     		ldr	r3, .L7
  90 002c B3F84221 		ldrh	r2, [r3, #322]
  91 0030 0132     		adds	r2, r2, #1
  92 0032 A3F84221 		strh	r2, [r3, #322]	@ movhi
  93              		.loc 1 83 0
  94 0036 FF20     		movs	r0, #255
  95 0038 F5E7     		b	.L4
  96              	.L8:
  97 003a 00BF     		.align	2
  98              	.L7:
  99 003c 00000000 		.word	lwip_stats
 100              		.cfi_endproc
 101              	.LFE8:
 102              		.size	sys_sem_new, .-sys_sem_new
 103              		.section	.text.sys_sem_free,"ax",%progbits
 104              		.align	2
 105              		.p2align 4,,15
 106              		.global	sys_sem_free
 107              		.thumb
 108              		.thumb_func
 109              		.type	sys_sem_free, %function
 110              	sys_sem_free:
 111              	.LFB9:
ARM GAS  /var/folders/5n/p_75w94d66l9ssrldxqdhh700000gn/T//ccL7Lleu.s 			page 3


 112              		.loc 1 92 0
 113              		.cfi_startproc
 114              		@ args = 0, pretend = 0, frame = 0
 115              		@ frame_needed = 0, uses_anonymous_args = 0
 116              	.LVL5:
 117 0000 10B5     		push	{r4, lr}
 118              	.LCFI1:
 119              		.cfi_def_cfa_offset 8
 120              		.cfi_offset 4, -8
 121              		.cfi_offset 14, -4
 122              		.loc 1 92 0
 123 0002 0446     		mov	r4, r0
 124              		.loc 1 94 0
 125 0004 0068     		ldr	r0, [r0, #0]
 126              	.LVL6:
 127 0006 FFF7FEFF 		bl	chHeapFree
 128              	.LVL7:
 129              		.loc 1 96 0
 130 000a 40F20003 		movw	r3, #:lower16:lwip_stats
 131 000e C0F20003 		movt	r3, #:upper16:lwip_stats
 132              		.loc 1 95 0
 133 0012 0021     		movs	r1, #0
 134              		.loc 1 96 0
 135 0014 B3F83E21 		ldrh	r2, [r3, #318]
 136              		.loc 1 95 0
 137 0018 2160     		str	r1, [r4, #0]
 138              		.loc 1 96 0
 139 001a 013A     		subs	r2, r2, #1
 140 001c A3F83E21 		strh	r2, [r3, #318]	@ movhi
 141 0020 10BD     		pop	{r4, pc}
 142              		.cfi_endproc
 143              	.LFE9:
 144              		.size	sys_sem_free, .-sys_sem_free
 145 0022 00BFAFF3 		.section	.text.sys_sem_signal,"ax",%progbits
 145      0080AFF3 
 145      0080AFF3 
 145      0080
 146              		.align	2
 147              		.p2align 4,,15
 148              		.global	sys_sem_signal
 149              		.thumb
 150              		.thumb_func
 151              		.type	sys_sem_signal, %function
 152              	sys_sem_signal:
 153              	.LFB10:
 154              		.loc 1 99 0
 155              		.cfi_startproc
 156              		@ args = 0, pretend = 0, frame = 0
 157              		@ frame_needed = 0, uses_anonymous_args = 0
 158              		@ link register save eliminated.
 159              	.LVL8:
 160              		.loc 1 101 0
 161 0000 0068     		ldr	r0, [r0, #0]
 162              	.LVL9:
 163              		.loc 1 102 0
 164              		.loc 1 101 0
 165 0002 FFF7FEBF 		b	chSemSignal
ARM GAS  /var/folders/5n/p_75w94d66l9ssrldxqdhh700000gn/T//ccL7Lleu.s 			page 4


 166              	.LVL10:
 167              		.cfi_endproc
 168              	.LFE10:
 169              		.size	sys_sem_signal, .-sys_sem_signal
 170 0006 00BFAFF3 		.section	.text.sys_arch_sem_wait,"ax",%progbits
 170      0080AFF3 
 170      0080
 171              		.align	2
 172              		.p2align 4,,15
 173              		.global	sys_arch_sem_wait
 174              		.thumb
 175              		.thumb_func
 176              		.type	sys_arch_sem_wait, %function
 177              	sys_arch_sem_wait:
 178              	.LFB11:
 179              		.loc 1 104 0
 180              		.cfi_startproc
 181              		@ args = 0, pretend = 0, frame = 0
 182              		@ frame_needed = 0, uses_anonymous_args = 0
 183              	.LVL11:
 184 0000 38B5     		push	{r3, r4, r5, lr}
 185              	.LCFI2:
 186              		.cfi_def_cfa_offset 16
 187              		.cfi_offset 3, -16
 188              		.cfi_offset 4, -12
 189              		.cfi_offset 5, -8
 190              		.cfi_offset 14, -4
 191              	.LBB2:
 192              		.loc 1 107 0
 193 0002 2023     		movs	r3, #32
 194              	.LVL12:
 195              	@ 107 "../../os/various/lwip_bindings/arch/sys_arch.c" 1
 196 0004 83F31188 		msr     BASEPRI, r3
 197              	@ 0 "" 2
 198              	.LVL13:
 199              		.thumb
 200              	.LBE2:
 201              		.loc 1 109 0
 202 0008 094C     		ldr	r4, .L17
 203              		.loc 1 110 0
 204 000a 0068     		ldr	r0, [r0, #0]
 205              	.LVL14:
 206              		.loc 1 109 0
 207 000c E568     		ldr	r5, [r4, #12]
 208              	.LVL15:
 209              		.loc 1 110 0
 210 000e 0029     		cmp	r1, #0
 211 0010 08BF     		it	eq
 212 0012 4FF0FF31 		moveq	r1, #-1
 213              	.LVL16:
 214 0016 FFF7FEFF 		bl	chSemWaitTimeoutS
 215              	.LVL17:
 216 001a 28B1     		cbz	r0, .L16
 217              		.loc 1 111 0
 218 001c 4FF0FF30 		mov	r0, #-1
 219              	.LVL18:
 220              	.L13:
ARM GAS  /var/folders/5n/p_75w94d66l9ssrldxqdhh700000gn/T//ccL7Lleu.s 			page 5


 221              	.LBB3:
 222              		.loc 1 114 0
 223 0020 0023     		movs	r3, #0
 224              	.LVL19:
 225              	@ 114 "../../os/various/lwip_bindings/arch/sys_arch.c" 1
 226 0022 83F31188 		msr     BASEPRI, r3
 227              	@ 0 "" 2
 228              	.LVL20:
 229              		.thumb
 230              	.LBE3:
 231              		.loc 1 116 0
 232 0026 38BD     		pop	{r3, r4, r5, pc}
 233              	.LVL21:
 234              	.L16:
 235              		.loc 1 113 0
 236 0028 E068     		ldr	r0, [r4, #12]
 237 002a 401B     		subs	r0, r0, r5
 238              	.LVL22:
 239 002c F8E7     		b	.L13
 240              	.L18:
 241 002e 00BF     		.align	2
 242              	.L17:
 243 0030 00000000 		.word	vtlist
 244              		.cfi_endproc
 245              	.LFE11:
 246              		.size	sys_arch_sem_wait, .-sys_arch_sem_wait
 247 0034 AFF30080 		.section	.text.sys_sem_valid,"ax",%progbits
 247      AFF30080 
 247      AFF30080 
 248              		.align	2
 249              		.p2align 4,,15
 250              		.global	sys_sem_valid
 251              		.thumb
 252              		.thumb_func
 253              		.type	sys_sem_valid, %function
 254              	sys_sem_valid:
 255              	.LFB12:
 256              		.loc 1 118 0
 257              		.cfi_startproc
 258              		@ args = 0, pretend = 0, frame = 0
 259              		@ frame_needed = 0, uses_anonymous_args = 0
 260              		@ link register save eliminated.
 261              	.LVL23:
 262              		.loc 1 119 0
 263 0000 0068     		ldr	r0, [r0, #0]
 264              	.LVL24:
 265              		.loc 1 120 0
 266 0002 0030     		adds	r0, r0, #0
 267 0004 18BF     		it	ne
 268 0006 0120     		movne	r0, #1
 269 0008 7047     		bx	lr
 270              		.cfi_endproc
 271              	.LFE12:
 272              		.size	sys_sem_valid, .-sys_sem_valid
 273 000a 00BFAFF3 		.section	.text.sys_sem_set_invalid,"ax",%progbits
 273      0080
 274              		.align	2
ARM GAS  /var/folders/5n/p_75w94d66l9ssrldxqdhh700000gn/T//ccL7Lleu.s 			page 6


 275              		.p2align 4,,15
 276              		.global	sys_sem_set_invalid
 277              		.thumb
 278              		.thumb_func
 279              		.type	sys_sem_set_invalid, %function
 280              	sys_sem_set_invalid:
 281              	.LFB13:
 282              		.loc 1 124 0
 283              		.cfi_startproc
 284              		@ args = 0, pretend = 0, frame = 0
 285              		@ frame_needed = 0, uses_anonymous_args = 0
 286              		@ link register save eliminated.
 287              	.LVL25:
 288              		.loc 1 125 0
 289 0000 0023     		movs	r3, #0
 290 0002 0360     		str	r3, [r0, #0]
 291 0004 7047     		bx	lr
 292              		.cfi_endproc
 293              	.LFE13:
 294              		.size	sys_sem_set_invalid, .-sys_sem_set_invalid
 295 0006 00BFAFF3 		.section	.text.sys_mbox_new,"ax",%progbits
 295      0080AFF3 
 295      0080
 296              		.align	2
 297              		.p2align 4,,15
 298              		.global	sys_mbox_new
 299              		.thumb
 300              		.thumb_func
 301              		.type	sys_mbox_new, %function
 302              	sys_mbox_new:
 303              	.LFB14:
 304              		.loc 1 128 0
 305              		.cfi_startproc
 306              		@ args = 0, pretend = 0, frame = 0
 307              		@ frame_needed = 0, uses_anonymous_args = 0
 308              	.LVL26:
 309 0000 38B5     		push	{r3, r4, r5, lr}
 310              	.LCFI3:
 311              		.cfi_def_cfa_offset 16
 312              		.cfi_offset 3, -16
 313              		.cfi_offset 4, -12
 314              		.cfi_offset 5, -8
 315              		.cfi_offset 14, -4
 316              		.loc 1 128 0
 317 0002 0C46     		mov	r4, r1
 318              		.loc 1 130 0
 319 0004 01F10A01 		add	r1, r1, #10
 320              	.LVL27:
 321              		.loc 1 128 0
 322 0008 0546     		mov	r5, r0
 323              		.loc 1 130 0
 324 000a 8900     		lsls	r1, r1, #2
 325 000c 0020     		movs	r0, #0
 326              	.LVL28:
 327 000e FFF7FEFF 		bl	chHeapAlloc
 328              	.LVL29:
 329 0012 0146     		mov	r1, r0
ARM GAS  /var/folders/5n/p_75w94d66l9ssrldxqdhh700000gn/T//ccL7Lleu.s 			page 7


 330 0014 2860     		str	r0, [r5, #0]
 331              		.loc 1 131 0
 332 0016 60B1     		cbz	r0, .L24
 333              		.loc 1 136 0
 334 0018 2246     		mov	r2, r4
 335 001a 2831     		adds	r1, r1, #40
 336 001c FFF7FEFF 		bl	chMBInit
 337              	.LVL30:
 338              		.loc 1 137 0
 339 0020 084B     		ldr	r3, .L25
 340 0022 B3F84A21 		ldrh	r2, [r3, #330]
 341 0026 0132     		adds	r2, r2, #1
 342 0028 A3F84A21 		strh	r2, [r3, #330]	@ movhi
 343              		.loc 1 138 0
 344 002c 0020     		movs	r0, #0
 345              	.L23:
 346              		.loc 1 140 0
 347 002e 40B2     		sxtb	r0, r0
 348 0030 38BD     		pop	{r3, r4, r5, pc}
 349              	.L24:
 350              		.loc 1 132 0
 351 0032 044B     		ldr	r3, .L25
 352 0034 B3F84E21 		ldrh	r2, [r3, #334]
 353 0038 0132     		adds	r2, r2, #1
 354 003a A3F84E21 		strh	r2, [r3, #334]	@ movhi
 355              		.loc 1 133 0
 356 003e FF20     		movs	r0, #255
 357 0040 F5E7     		b	.L23
 358              	.L26:
 359 0042 00BF     		.align	2
 360              	.L25:
 361 0044 00000000 		.word	lwip_stats
 362              		.cfi_endproc
 363              	.LFE14:
 364              		.size	sys_mbox_new, .-sys_mbox_new
 365 0048 AFF30080 		.section	.text.sys_mbox_free,"ax",%progbits
 365      AFF30080 
 366              		.align	2
 367              		.p2align 4,,15
 368              		.global	sys_mbox_free
 369              		.thumb
 370              		.thumb_func
 371              		.type	sys_mbox_free, %function
 372              	sys_mbox_free:
 373              	.LFB15:
 374              		.loc 1 142 0
 375              		.cfi_startproc
 376              		@ args = 0, pretend = 0, frame = 0
 377              		@ frame_needed = 0, uses_anonymous_args = 0
 378              	.LVL31:
 379 0000 38B5     		push	{r3, r4, r5, lr}
 380              	.LCFI4:
 381              		.cfi_def_cfa_offset 16
 382              		.cfi_offset 3, -16
 383              		.cfi_offset 4, -12
 384              		.cfi_offset 5, -8
 385              		.cfi_offset 14, -4
ARM GAS  /var/folders/5n/p_75w94d66l9ssrldxqdhh700000gn/T//ccL7Lleu.s 			page 8


 386              		.loc 1 142 0
 387 0002 0546     		mov	r5, r0
 388              		.loc 1 144 0
 389 0004 0068     		ldr	r0, [r0, #0]
 390              	.LVL32:
 391              		.loc 1 148 0
 392 0006 0A4C     		ldr	r4, .L32
 393              		.loc 1 144 0
 394 0008 8369     		ldr	r3, [r0, #24]
 395 000a 3BB1     		cbz	r3, .L28
 396              		.loc 1 148 0
 397 000c B4F84E31 		ldrh	r3, [r4, #334]
 398 0010 0133     		adds	r3, r3, #1
 399 0012 A4F84E31 		strh	r3, [r4, #334]	@ movhi
 400              		.loc 1 149 0
 401 0016 FFF7FEFF 		bl	chMBReset
 402              	.LVL33:
 403 001a 2868     		ldr	r0, [r5, #0]
 404              	.L28:
 405              		.loc 1 151 0
 406 001c FFF7FEFF 		bl	chHeapFree
 407              	.LVL34:
 408              		.loc 1 153 0
 409 0020 B4F84A31 		ldrh	r3, [r4, #330]
 410              		.loc 1 152 0
 411 0024 0022     		movs	r2, #0
 412              		.loc 1 153 0
 413 0026 013B     		subs	r3, r3, #1
 414              		.loc 1 152 0
 415 0028 2A60     		str	r2, [r5, #0]
 416              		.loc 1 153 0
 417 002a A4F84A31 		strh	r3, [r4, #330]	@ movhi
 418 002e 38BD     		pop	{r3, r4, r5, pc}
 419              	.L33:
 420              		.align	2
 421              	.L32:
 422 0030 00000000 		.word	lwip_stats
 423              		.cfi_endproc
 424              	.LFE15:
 425              		.size	sys_mbox_free, .-sys_mbox_free
 426 0034 AFF30080 		.section	.text.sys_mbox_post,"ax",%progbits
 426      AFF30080 
 426      AFF30080 
 427              		.align	2
 428              		.p2align 4,,15
 429              		.global	sys_mbox_post
 430              		.thumb
 431              		.thumb_func
 432              		.type	sys_mbox_post, %function
 433              	sys_mbox_post:
 434              	.LFB16:
 435              		.loc 1 156 0
 436              		.cfi_startproc
 437              		@ args = 0, pretend = 0, frame = 0
 438              		@ frame_needed = 0, uses_anonymous_args = 0
 439              		@ link register save eliminated.
 440              	.LVL35:
ARM GAS  /var/folders/5n/p_75w94d66l9ssrldxqdhh700000gn/T//ccL7Lleu.s 			page 9


 441              		.loc 1 158 0
 442 0000 0068     		ldr	r0, [r0, #0]
 443              	.LVL36:
 444 0002 4FF0FF32 		mov	r2, #-1
 445              		.loc 1 159 0
 446              		.loc 1 158 0
 447 0006 FFF7FEBF 		b	chMBPost
 448              	.LVL37:
 449              		.cfi_endproc
 450              	.LFE16:
 451              		.size	sys_mbox_post, .-sys_mbox_post
 452 000a 00BFAFF3 		.section	.text.sys_mbox_trypost,"ax",%progbits
 452      0080
 453              		.align	2
 454              		.p2align 4,,15
 455              		.global	sys_mbox_trypost
 456              		.thumb
 457              		.thumb_func
 458              		.type	sys_mbox_trypost, %function
 459              	sys_mbox_trypost:
 460              	.LFB17:
 461              		.loc 1 161 0
 462              		.cfi_startproc
 463              		@ args = 0, pretend = 0, frame = 0
 464              		@ frame_needed = 0, uses_anonymous_args = 0
 465              	.LVL38:
 466              		.loc 1 163 0
 467 0000 0022     		movs	r2, #0
 468              		.loc 1 161 0
 469 0002 08B5     		push	{r3, lr}
 470              	.LCFI5:
 471              		.cfi_def_cfa_offset 8
 472              		.cfi_offset 3, -8
 473              		.cfi_offset 14, -4
 474              		.loc 1 163 0
 475 0004 0068     		ldr	r0, [r0, #0]
 476              	.LVL39:
 477 0006 FFF7FEFF 		bl	chMBPost
 478              	.LVL40:
 479 000a 0130     		adds	r0, r0, #1
 480 000c 02D0     		beq	.L38
 481              		.loc 1 167 0
 482 000e 0020     		movs	r0, #0
 483              	.L36:
 484              		.loc 1 168 0
 485 0010 40B2     		sxtb	r0, r0
 486 0012 08BD     		pop	{r3, pc}
 487              	.L38:
 488              		.loc 1 164 0
 489 0014 034B     		ldr	r3, .L39
 490 0016 B3F84E21 		ldrh	r2, [r3, #334]
 491 001a 0132     		adds	r2, r2, #1
 492 001c A3F84E21 		strh	r2, [r3, #334]	@ movhi
 493              		.loc 1 165 0
 494 0020 FF20     		movs	r0, #255
 495 0022 F5E7     		b	.L36
 496              	.L40:
ARM GAS  /var/folders/5n/p_75w94d66l9ssrldxqdhh700000gn/T//ccL7Lleu.s 			page 10


 497              		.align	2
 498              	.L39:
 499 0024 00000000 		.word	lwip_stats
 500              		.cfi_endproc
 501              	.LFE17:
 502              		.size	sys_mbox_trypost, .-sys_mbox_trypost
 503 0028 AFF30080 		.section	.text.sys_arch_mbox_fetch,"ax",%progbits
 503      AFF30080 
 504              		.align	2
 505              		.p2align 4,,15
 506              		.global	sys_arch_mbox_fetch
 507              		.thumb
 508              		.thumb_func
 509              		.type	sys_arch_mbox_fetch, %function
 510              	sys_arch_mbox_fetch:
 511              	.LFB18:
 512              		.loc 1 170 0
 513              		.cfi_startproc
 514              		@ args = 0, pretend = 0, frame = 0
 515              		@ frame_needed = 0, uses_anonymous_args = 0
 516              	.LVL41:
 517 0000 38B5     		push	{r3, r4, r5, lr}
 518              	.LCFI6:
 519              		.cfi_def_cfa_offset 16
 520              		.cfi_offset 3, -16
 521              		.cfi_offset 4, -12
 522              		.cfi_offset 5, -8
 523              		.cfi_offset 14, -4
 524              	.LBB4:
 525              		.loc 1 173 0
 526 0002 2023     		movs	r3, #32
 527              	.LVL42:
 528              	@ 173 "../../os/various/lwip_bindings/arch/sys_arch.c" 1
 529 0004 83F31188 		msr     BASEPRI, r3
 530              	@ 0 "" 2
 531              	.LVL43:
 532              		.thumb
 533              	.LBE4:
 534              		.loc 1 175 0
 535 0008 094C     		ldr	r4, .L47
 536              		.loc 1 176 0
 537 000a 0068     		ldr	r0, [r0, #0]
 538              	.LVL44:
 539              		.loc 1 175 0
 540 000c E568     		ldr	r5, [r4, #12]
 541              	.LVL45:
 542              		.loc 1 176 0
 543 000e 002A     		cmp	r2, #0
 544 0010 08BF     		it	eq
 545 0012 4FF0FF32 		moveq	r2, #-1
 546              	.LVL46:
 547 0016 FFF7FEFF 		bl	chMBFetchS
 548              	.LVL47:
 549 001a 28B1     		cbz	r0, .L46
 550              		.loc 1 177 0
 551 001c 4FF0FF30 		mov	r0, #-1
 552              	.LVL48:
ARM GAS  /var/folders/5n/p_75w94d66l9ssrldxqdhh700000gn/T//ccL7Lleu.s 			page 11


 553              	.L43:
 554              	.LBB5:
 555              		.loc 1 180 0
 556 0020 0023     		movs	r3, #0
 557              	.LVL49:
 558              	@ 180 "../../os/various/lwip_bindings/arch/sys_arch.c" 1
 559 0022 83F31188 		msr     BASEPRI, r3
 560              	@ 0 "" 2
 561              	.LVL50:
 562              		.thumb
 563              	.LBE5:
 564              		.loc 1 182 0
 565 0026 38BD     		pop	{r3, r4, r5, pc}
 566              	.LVL51:
 567              	.L46:
 568              		.loc 1 179 0
 569 0028 E068     		ldr	r0, [r4, #12]
 570 002a 401B     		subs	r0, r0, r5
 571              	.LVL52:
 572 002c F8E7     		b	.L43
 573              	.L48:
 574 002e 00BF     		.align	2
 575              	.L47:
 576 0030 00000000 		.word	vtlist
 577              		.cfi_endproc
 578              	.LFE18:
 579              		.size	sys_arch_mbox_fetch, .-sys_arch_mbox_fetch
 580 0034 AFF30080 		.section	.text.sys_arch_mbox_tryfetch,"ax",%progbits
 580      AFF30080 
 580      AFF30080 
 581              		.align	2
 582              		.p2align 4,,15
 583              		.global	sys_arch_mbox_tryfetch
 584              		.thumb
 585              		.thumb_func
 586              		.type	sys_arch_mbox_tryfetch, %function
 587              	sys_arch_mbox_tryfetch:
 588              	.LFB19:
 589              		.loc 1 184 0
 590              		.cfi_startproc
 591              		@ args = 0, pretend = 0, frame = 0
 592              		@ frame_needed = 0, uses_anonymous_args = 0
 593              	.LVL53:
 594 0000 08B5     		push	{r3, lr}
 595              	.LCFI7:
 596              		.cfi_def_cfa_offset 8
 597              		.cfi_offset 3, -8
 598              		.cfi_offset 14, -4
 599              		.loc 1 186 0
 600 0002 0022     		movs	r2, #0
 601 0004 0068     		ldr	r0, [r0, #0]
 602              	.LVL54:
 603 0006 FFF7FEFF 		bl	chMBFetch
 604              	.LVL55:
 605              		.loc 1 189 0
 606 000a B0F1FF3F 		cmp	r0, #-1
 607 000e 0CBF     		ite	eq
ARM GAS  /var/folders/5n/p_75w94d66l9ssrldxqdhh700000gn/T//ccL7Lleu.s 			page 12


 608 0010 4FF0FF30 		moveq	r0, #-1
 609 0014 0020     		movne	r0, #0
 610 0016 08BD     		pop	{r3, pc}
 611              		.cfi_endproc
 612              	.LFE19:
 613              		.size	sys_arch_mbox_tryfetch, .-sys_arch_mbox_tryfetch
 614 0018 AFF30080 		.section	.text.sys_mbox_valid,"ax",%progbits
 614      AFF30080 
 615              		.align	2
 616              		.p2align 4,,15
 617              		.global	sys_mbox_valid
 618              		.thumb
 619              		.thumb_func
 620              		.type	sys_mbox_valid, %function
 621              	sys_mbox_valid:
 622              	.LFB20:
 623              		.loc 1 191 0
 624              		.cfi_startproc
 625              		@ args = 0, pretend = 0, frame = 0
 626              		@ frame_needed = 0, uses_anonymous_args = 0
 627              		@ link register save eliminated.
 628              	.LVL56:
 629              		.loc 1 192 0
 630 0000 0068     		ldr	r0, [r0, #0]
 631              	.LVL57:
 632              		.loc 1 193 0
 633 0002 0030     		adds	r0, r0, #0
 634 0004 18BF     		it	ne
 635 0006 0120     		movne	r0, #1
 636 0008 7047     		bx	lr
 637              		.cfi_endproc
 638              	.LFE20:
 639              		.size	sys_mbox_valid, .-sys_mbox_valid
 640 000a 00BFAFF3 		.section	.text.sys_mbox_set_invalid,"ax",%progbits
 640      0080
 641              		.align	2
 642              		.p2align 4,,15
 643              		.global	sys_mbox_set_invalid
 644              		.thumb
 645              		.thumb_func
 646              		.type	sys_mbox_set_invalid, %function
 647              	sys_mbox_set_invalid:
 648              	.LFB21:
 649              		.loc 1 197 0
 650              		.cfi_startproc
 651              		@ args = 0, pretend = 0, frame = 0
 652              		@ frame_needed = 0, uses_anonymous_args = 0
 653              		@ link register save eliminated.
 654              	.LVL58:
 655              		.loc 1 198 0
 656 0000 0023     		movs	r3, #0
 657 0002 0360     		str	r3, [r0, #0]
 658 0004 7047     		bx	lr
 659              		.cfi_endproc
 660              	.LFE21:
 661              		.size	sys_mbox_set_invalid, .-sys_mbox_set_invalid
 662 0006 00BFAFF3 		.section	.text.sys_thread_new,"ax",%progbits
ARM GAS  /var/folders/5n/p_75w94d66l9ssrldxqdhh700000gn/T//ccL7Lleu.s 			page 13


 662      0080AFF3 
 662      0080
 663              		.align	2
 664              		.p2align 4,,15
 665              		.global	sys_thread_new
 666              		.thumb
 667              		.thumb_func
 668              		.type	sys_thread_new, %function
 669              	sys_thread_new:
 670              	.LFB22:
 671              		.loc 1 202 0
 672              		.cfi_startproc
 673              		@ args = 4, pretend = 0, frame = 0
 674              		@ frame_needed = 0, uses_anonymous_args = 0
 675              	.LVL59:
 676 0000 2DE9F041 		push	{r4, r5, r6, r7, r8, lr}
 677              	.LCFI8:
 678              		.cfi_def_cfa_offset 24
 679              		.cfi_offset 4, -24
 680              		.cfi_offset 5, -20
 681              		.cfi_offset 6, -16
 682              		.cfi_offset 7, -12
 683              		.cfi_offset 8, -8
 684              		.cfi_offset 14, -4
 685              		.loc 1 204 0
 686 0004 0B4C     		ldr	r4, .L56
 687              		.loc 1 202 0
 688 0006 069E     		ldr	r6, [sp, #24]
 689              		.loc 1 204 0
 690 0008 E569     		ldr	r5, [r4, #28]
 691              		.loc 1 205 0
 692 000a AB33     		adds	r3, r3, #171
 693              	.LVL60:
 694 000c 43F00704 		orr	r4, r3, #7
 695 0010 0134     		adds	r4, r4, #1
 696              	.LVL61:
 697              		.loc 1 204 0
 698 0012 A861     		str	r0, [r5, #24]
 699              		.loc 1 206 0
 700 0014 2046     		mov	r0, r4
 701              	.LVL62:
 702              		.loc 1 202 0
 703 0016 0D46     		mov	r5, r1
 704              	.LVL63:
 705 0018 1746     		mov	r7, r2
 706              		.loc 1 206 0
 707 001a FFF7FEFF 		bl	chCoreAlloc
 708              	.LVL64:
 709              		.loc 1 207 0
 710 001e 38B1     		cbz	r0, .L55
 711              		.loc 1 209 0
 712 0020 2146     		mov	r1, r4
 713 0022 3246     		mov	r2, r6
 714 0024 2B46     		mov	r3, r5
 715 0026 0697     		str	r7, [sp, #24]
 716              		.loc 1 210 0
 717 0028 BDE8F041 		pop	{r4, r5, r6, r7, r8, lr}
ARM GAS  /var/folders/5n/p_75w94d66l9ssrldxqdhh700000gn/T//ccL7Lleu.s 			page 14


 718              		.loc 1 209 0
 719 002c FFF7FEBF 		b	chThdCreateStatic
 720              	.LVL65:
 721              	.L55:
 722              		.loc 1 210 0
 723 0030 BDE8F081 		pop	{r4, r5, r6, r7, r8, pc}
 724              	.L57:
 725              		.align	2
 726              	.L56:
 727 0034 00000000 		.word	rlist
 728              		.cfi_endproc
 729              	.LFE22:
 730              		.size	sys_thread_new, .-sys_thread_new
 731 0038 AFF30080 		.section	.text.sys_arch_protect,"ax",%progbits
 731      AFF30080 
 732              		.align	2
 733              		.p2align 4,,15
 734              		.global	sys_arch_protect
 735              		.thumb
 736              		.thumb_func
 737              		.type	sys_arch_protect, %function
 738              	sys_arch_protect:
 739              	.LFB23:
 740              		.loc 1 212 0
 741              		.cfi_startproc
 742              		@ args = 0, pretend = 0, frame = 0
 743              		@ frame_needed = 0, uses_anonymous_args = 0
 744              		@ link register save eliminated.
 745              	.LBB6:
 746              		.loc 1 214 0
 747 0000 2023     		movs	r3, #32
 748              	.LVL66:
 749              	@ 214 "../../os/various/lwip_bindings/arch/sys_arch.c" 1
 750 0002 83F31188 		msr     BASEPRI, r3
 751              	@ 0 "" 2
 752              	.LVL67:
 753              		.thumb
 754              	.LBE6:
 755              		.loc 1 216 0
 756 0006 0020     		movs	r0, #0
 757 0008 7047     		bx	lr
 758              		.cfi_endproc
 759              	.LFE23:
 760              		.size	sys_arch_protect, .-sys_arch_protect
 761 000a 00BFAFF3 		.section	.text.sys_arch_unprotect,"ax",%progbits
 761      0080
 762              		.align	2
 763              		.p2align 4,,15
 764              		.global	sys_arch_unprotect
 765              		.thumb
 766              		.thumb_func
 767              		.type	sys_arch_unprotect, %function
 768              	sys_arch_unprotect:
 769              	.LFB24:
 770              		.loc 1 218 0
 771              		.cfi_startproc
 772              		@ args = 0, pretend = 0, frame = 0
ARM GAS  /var/folders/5n/p_75w94d66l9ssrldxqdhh700000gn/T//ccL7Lleu.s 			page 15


 773              		@ frame_needed = 0, uses_anonymous_args = 0
 774              		@ link register save eliminated.
 775              	.LVL68:
 776              	.LBB7:
 777              		.loc 1 221 0
 778 0000 0023     		movs	r3, #0
 779              	.LVL69:
 780              	@ 221 "../../os/various/lwip_bindings/arch/sys_arch.c" 1
 781 0002 83F31188 		msr     BASEPRI, r3
 782              	@ 0 "" 2
 783              	.LVL70:
 784              		.thumb
 785 0006 7047     		bx	lr
 786              	.LBE7:
 787              		.cfi_endproc
 788              	.LFE24:
 789              		.size	sys_arch_unprotect, .-sys_arch_unprotect
 790 0008 AFF30080 		.text
 790      AFF30080 
 791              	.Letext0:
 792              		.file 2 "/usr/local/cross/lib/gcc/arm-none-eabi/4.7.2/include/stddef.h"
 793              		.file 3 "/usr/local/cross/lib/gcc/arm-none-eabi/4.7.2/../../../../arm-none-eabi/include/stdint.h"
 794              		.file 4 "../../os/ports/GCC/ARMCMx/chtypes.h"
 795              		.file 5 "../../os/kernel/include/chlists.h"
 796              		.file 6 "../../os/kernel/include/chthreads.h"
 797              		.file 7 "../../os/ports/GCC/ARMCMx/chcore_v7m.h"
 798              		.file 8 "../../os/kernel/include/chvt.h"
 799              		.file 9 "../../os/kernel/include/chschd.h"
 800              		.file 10 "../../os/kernel/include/chsem.h"
 801              		.file 11 "../../os/kernel/include/chmtx.h"
 802              		.file 12 "../../os/kernel/include/chmboxes.h"
 803              		.file 13 "../../os/kernel/include/chmemcore.h"
 804              		.file 14 "../../os/kernel/include/chheap.h"
 805              		.file 15 "../../os/various/lwip_bindings/arch/cc.h"
 806              		.file 16 "../../ext/lwip-1.4.0/src/include/lwip/mem.h"
 807              		.file 17 "../../ext/lwip-1.4.0/src/include/lwip/err.h"
 808              		.file 18 "../../os/various/lwip_bindings/arch/sys_arch.h"
 809              		.file 19 "../../ext/lwip-1.4.0/src/include/lwip/sys.h"
 810              		.file 20 "../../ext/lwip-1.4.0/src/include/lwip/stats.h"
 811              		.section	.debug_info,"",%progbits
 812              	.Ldebug_info0:
 813 0000 D0100000 		.4byte	0x10d0
 814 0004 0200     		.2byte	0x2
 815 0006 00000000 		.4byte	.Ldebug_abbrev0
 816 000a 04       		.byte	0x4
 817 000b 01       		.uleb128 0x1
 818 000c 47010000 		.4byte	.LASF173
 819 0010 01       		.byte	0x1
 820 0011 1B020000 		.4byte	.LASF174
 821 0015 DF030000 		.4byte	.LASF175
 822 0019 00000000 		.4byte	.Ldebug_ranges0+0
 823 001d 00000000 		.4byte	0
 824 0021 00000000 		.4byte	0
 825 0025 00000000 		.4byte	.Ldebug_line0
 826 0029 02       		.uleb128 0x2
 827 002a 04       		.byte	0x4
 828 002b 05       		.byte	0x5
ARM GAS  /var/folders/5n/p_75w94d66l9ssrldxqdhh700000gn/T//ccL7Lleu.s 			page 16


 829 002c 696E7400 		.ascii	"int\000"
 830 0030 03       		.uleb128 0x3
 831 0031 56020000 		.4byte	.LASF1
 832 0035 02       		.byte	0x2
 833 0036 D5       		.byte	0xd5
 834 0037 3B000000 		.4byte	0x3b
 835 003b 04       		.uleb128 0x4
 836 003c 04       		.byte	0x4
 837 003d 07       		.byte	0x7
 838 003e 86000000 		.4byte	.LASF0
 839 0042 03       		.uleb128 0x3
 840 0043 2D010000 		.4byte	.LASF2
 841 0047 03       		.byte	0x3
 842 0048 29       		.byte	0x29
 843 0049 4D000000 		.4byte	0x4d
 844 004d 04       		.uleb128 0x4
 845 004e 01       		.byte	0x1
 846 004f 06       		.byte	0x6
 847 0050 A8060000 		.4byte	.LASF3
 848 0054 03       		.uleb128 0x3
 849 0055 45030000 		.4byte	.LASF4
 850 0059 03       		.byte	0x3
 851 005a 2A       		.byte	0x2a
 852 005b 5F000000 		.4byte	0x5f
 853 005f 04       		.uleb128 0x4
 854 0060 01       		.byte	0x1
 855 0061 08       		.byte	0x8
 856 0062 47060000 		.4byte	.LASF5
 857 0066 04       		.uleb128 0x4
 858 0067 02       		.byte	0x2
 859 0068 05       		.byte	0x5
 860 0069 06050000 		.4byte	.LASF6
 861 006d 03       		.uleb128 0x3
 862 006e D0040000 		.4byte	.LASF7
 863 0072 03       		.byte	0x3
 864 0073 36       		.byte	0x36
 865 0074 78000000 		.4byte	0x78
 866 0078 04       		.uleb128 0x4
 867 0079 02       		.byte	0x2
 868 007a 07       		.byte	0x7
 869 007b B4060000 		.4byte	.LASF8
 870 007f 03       		.uleb128 0x3
 871 0080 18060000 		.4byte	.LASF9
 872 0084 03       		.byte	0x3
 873 0085 4F       		.byte	0x4f
 874 0086 8A000000 		.4byte	0x8a
 875 008a 04       		.uleb128 0x4
 876 008b 04       		.byte	0x4
 877 008c 05       		.byte	0x5
 878 008d 42050000 		.4byte	.LASF10
 879 0091 03       		.uleb128 0x3
 880 0092 24010000 		.4byte	.LASF11
 881 0096 03       		.byte	0x3
 882 0097 50       		.byte	0x50
 883 0098 9C000000 		.4byte	0x9c
 884 009c 04       		.uleb128 0x4
 885 009d 04       		.byte	0x4
ARM GAS  /var/folders/5n/p_75w94d66l9ssrldxqdhh700000gn/T//ccL7Lleu.s 			page 17


 886 009e 07       		.byte	0x7
 887 009f FC050000 		.4byte	.LASF12
 888 00a3 04       		.uleb128 0x4
 889 00a4 08       		.byte	0x8
 890 00a5 05       		.byte	0x5
 891 00a6 8B030000 		.4byte	.LASF13
 892 00aa 03       		.uleb128 0x3
 893 00ab 5E050000 		.4byte	.LASF14
 894 00af 03       		.byte	0x3
 895 00b0 78       		.byte	0x78
 896 00b1 B5000000 		.4byte	0xb5
 897 00b5 04       		.uleb128 0x4
 898 00b6 08       		.byte	0x8
 899 00b7 07       		.byte	0x7
 900 00b8 A7010000 		.4byte	.LASF15
 901 00bc 03       		.uleb128 0x3
 902 00bd A2040000 		.4byte	.LASF16
 903 00c1 04       		.byte	0x4
 904 00c2 2F       		.byte	0x2f
 905 00c3 54000000 		.4byte	0x54
 906 00c7 03       		.uleb128 0x3
 907 00c8 19030000 		.4byte	.LASF17
 908 00cc 04       		.byte	0x4
 909 00cd 30       		.byte	0x30
 910 00ce 54000000 		.4byte	0x54
 911 00d2 03       		.uleb128 0x3
 912 00d3 F4050000 		.4byte	.LASF18
 913 00d7 04       		.byte	0x4
 914 00d8 31       		.byte	0x31
 915 00d9 54000000 		.4byte	0x54
 916 00dd 03       		.uleb128 0x3
 917 00de 6F010000 		.4byte	.LASF19
 918 00e2 04       		.byte	0x4
 919 00e3 32       		.byte	0x32
 920 00e4 91000000 		.4byte	0x91
 921 00e8 03       		.uleb128 0x3
 922 00e9 C1030000 		.4byte	.LASF20
 923 00ed 04       		.byte	0x4
 924 00ee 33       		.byte	0x33
 925 00ef 7F000000 		.4byte	0x7f
 926 00f3 03       		.uleb128 0x3
 927 00f4 34010000 		.4byte	.LASF21
 928 00f8 04       		.byte	0x4
 929 00f9 35       		.byte	0x35
 930 00fa 91000000 		.4byte	0x91
 931 00fe 03       		.uleb128 0x3
 932 00ff 41000000 		.4byte	.LASF22
 933 0103 04       		.byte	0x4
 934 0104 36       		.byte	0x36
 935 0105 91000000 		.4byte	0x91
 936 0109 03       		.uleb128 0x3
 937 010a BE010000 		.4byte	.LASF23
 938 010e 04       		.byte	0x4
 939 010f 37       		.byte	0x37
 940 0110 7F000000 		.4byte	0x7f
 941 0114 03       		.uleb128 0x3
 942 0115 08030000 		.4byte	.LASF24
ARM GAS  /var/folders/5n/p_75w94d66l9ssrldxqdhh700000gn/T//ccL7Lleu.s 			page 18


 943 0119 05       		.byte	0x5
 944 011a 2A       		.byte	0x2a
 945 011b 1F010000 		.4byte	0x11f
 946 011f 05       		.uleb128 0x5
 947 0120 08030000 		.4byte	.LASF24
 948 0124 48       		.byte	0x48
 949 0125 06       		.byte	0x6
 950 0126 5E       		.byte	0x5e
 951 0127 36020000 		.4byte	0x236
 952 012b 06       		.uleb128 0x6
 953 012c 57050000 		.4byte	.LASF25
 954 0130 06       		.byte	0x6
 955 0131 5F       		.byte	0x5f
 956 0132 5B020000 		.4byte	0x25b
 957 0136 02       		.byte	0x2
 958 0137 23       		.byte	0x23
 959 0138 00       		.uleb128 0
 960 0139 06       		.uleb128 0x6
 961 013a E4050000 		.4byte	.LASF26
 962 013e 06       		.byte	0x6
 963 013f 61       		.byte	0x61
 964 0140 5B020000 		.4byte	0x25b
 965 0144 02       		.byte	0x2
 966 0145 23       		.byte	0x23
 967 0146 04       		.uleb128 0x4
 968 0147 06       		.uleb128 0x6
 969 0148 3A000000 		.4byte	.LASF27
 970 014c 06       		.byte	0x6
 971 014d 63       		.byte	0x63
 972 014e DD000000 		.4byte	0xdd
 973 0152 02       		.byte	0x2
 974 0153 23       		.byte	0x23
 975 0154 08       		.uleb128 0x8
 976 0155 06       		.uleb128 0x6
 977 0156 67050000 		.4byte	.LASF28
 978 015a 06       		.byte	0x6
 979 015b 64       		.byte	0x64
 980 015c 33030000 		.4byte	0x333
 981 0160 02       		.byte	0x2
 982 0161 23       		.byte	0x23
 983 0162 0C       		.uleb128 0xc
 984 0163 06       		.uleb128 0x6
 985 0164 D8010000 		.4byte	.LASF29
 986 0168 06       		.byte	0x6
 987 0169 66       		.byte	0x66
 988 016a 5B020000 		.4byte	0x25b
 989 016e 02       		.byte	0x2
 990 016f 23       		.byte	0x23
 991 0170 10       		.uleb128 0x10
 992 0171 06       		.uleb128 0x6
 993 0172 29030000 		.4byte	.LASF30
 994 0176 06       		.byte	0x6
 995 0177 67       		.byte	0x67
 996 0178 5B020000 		.4byte	0x25b
 997 017c 02       		.byte	0x2
 998 017d 23       		.byte	0x23
 999 017e 14       		.uleb128 0x14
ARM GAS  /var/folders/5n/p_75w94d66l9ssrldxqdhh700000gn/T//ccL7Lleu.s 			page 19


 1000 017f 06       		.uleb128 0x6
 1001 0180 B5020000 		.4byte	.LASF31
 1002 0184 06       		.byte	0x6
 1003 0185 6E       		.byte	0x6e
 1004 0186 96060000 		.4byte	0x696
 1005 018a 02       		.byte	0x2
 1006 018b 23       		.byte	0x23
 1007 018c 18       		.uleb128 0x18
 1008 018d 06       		.uleb128 0x6
 1009 018e 31030000 		.4byte	.LASF32
 1010 0192 06       		.byte	0x6
 1011 0193 79       		.byte	0x79
 1012 0194 C7000000 		.4byte	0xc7
 1013 0198 02       		.byte	0x2
 1014 0199 23       		.byte	0x23
 1015 019a 1C       		.uleb128 0x1c
 1016 019b 06       		.uleb128 0x6
 1017 019c 30040000 		.4byte	.LASF33
 1018 01a0 06       		.byte	0x6
 1019 01a1 7D       		.byte	0x7d
 1020 01a2 BC000000 		.4byte	0xbc
 1021 01a6 02       		.byte	0x2
 1022 01a7 23       		.byte	0x23
 1023 01a8 1D       		.uleb128 0x1d
 1024 01a9 06       		.uleb128 0x6
 1025 01aa 55060000 		.4byte	.LASF34
 1026 01ae 06       		.byte	0x6
 1027 01af 82       		.byte	0x82
 1028 01b0 D2000000 		.4byte	0xd2
 1029 01b4 02       		.byte	0x2
 1030 01b5 23       		.byte	0x23
 1031 01b6 1E       		.uleb128 0x1e
 1032 01b7 06       		.uleb128 0x6
 1033 01b8 2A000000 		.4byte	.LASF35
 1034 01bc 06       		.byte	0x6
 1035 01bd 89       		.byte	0x89
 1036 01be 1F040000 		.4byte	0x41f
 1037 01c2 02       		.byte	0x2
 1038 01c3 23       		.byte	0x23
 1039 01c4 20       		.uleb128 0x20
 1040 01c5 07       		.uleb128 0x7
 1041 01c6 705F7500 		.ascii	"p_u\000"
 1042 01ca 06       		.byte	0x6
 1043 01cb AE       		.byte	0xae
 1044 01cc 61060000 		.4byte	0x661
 1045 01d0 02       		.byte	0x2
 1046 01d1 23       		.byte	0x23
 1047 01d2 24       		.uleb128 0x24
 1048 01d3 06       		.uleb128 0x6
 1049 01d4 15000000 		.4byte	.LASF36
 1050 01d8 06       		.byte	0x6
 1051 01d9 B3       		.byte	0xb3
 1052 01da 83020000 		.4byte	0x283
 1053 01de 02       		.byte	0x2
 1054 01df 23       		.byte	0x23
 1055 01e0 28       		.uleb128 0x28
 1056 01e1 06       		.uleb128 0x6
ARM GAS  /var/folders/5n/p_75w94d66l9ssrldxqdhh700000gn/T//ccL7Lleu.s 			page 20


 1057 01e2 7B000000 		.4byte	.LASF37
 1058 01e6 06       		.byte	0x6
 1059 01e7 B9       		.byte	0xb9
 1060 01e8 61020000 		.4byte	0x261
 1061 01ec 02       		.byte	0x2
 1062 01ed 23       		.byte	0x23
 1063 01ee 2C       		.uleb128 0x2c
 1064 01ef 06       		.uleb128 0x6
 1065 01f0 9C040000 		.4byte	.LASF38
 1066 01f4 06       		.byte	0x6
 1067 01f5 BD       		.byte	0xbd
 1068 01f6 E8000000 		.4byte	0xe8
 1069 01fa 02       		.byte	0x2
 1070 01fb 23       		.byte	0x23
 1071 01fc 34       		.uleb128 0x34
 1072 01fd 06       		.uleb128 0x6
 1073 01fe 2F050000 		.4byte	.LASF39
 1074 0202 06       		.byte	0x6
 1075 0203 C3       		.byte	0xc3
 1076 0204 F3000000 		.4byte	0xf3
 1077 0208 02       		.byte	0x2
 1078 0209 23       		.byte	0x23
 1079 020a 38       		.uleb128 0x38
 1080 020b 06       		.uleb128 0x6
 1081 020c 7B030000 		.4byte	.LASF40
 1082 0210 06       		.byte	0x6
 1083 0211 CA       		.byte	0xca
 1084 0212 A8060000 		.4byte	0x6a8
 1085 0216 02       		.byte	0x2
 1086 0217 23       		.byte	0x23
 1087 0218 3C       		.uleb128 0x3c
 1088 0219 06       		.uleb128 0x6
 1089 021a F5040000 		.4byte	.LASF41
 1090 021e 06       		.byte	0x6
 1091 021f CE       		.byte	0xce
 1092 0220 DD000000 		.4byte	0xdd
 1093 0224 02       		.byte	0x2
 1094 0225 23       		.byte	0x23
 1095 0226 40       		.uleb128 0x40
 1096 0227 06       		.uleb128 0x6
 1097 0228 73030000 		.4byte	.LASF42
 1098 022c 06       		.byte	0x6
 1099 022d D4       		.byte	0xd4
 1100 022e 99020000 		.4byte	0x299
 1101 0232 02       		.byte	0x2
 1102 0233 23       		.byte	0x23
 1103 0234 44       		.uleb128 0x44
 1104 0235 00       		.byte	0
 1105 0236 08       		.uleb128 0x8
 1106 0237 08       		.byte	0x8
 1107 0238 05       		.byte	0x5
 1108 0239 61       		.byte	0x61
 1109 023a 5B020000 		.4byte	0x25b
 1110 023e 06       		.uleb128 0x6
 1111 023f 57050000 		.4byte	.LASF25
 1112 0243 05       		.byte	0x5
 1113 0244 62       		.byte	0x62
ARM GAS  /var/folders/5n/p_75w94d66l9ssrldxqdhh700000gn/T//ccL7Lleu.s 			page 21


 1114 0245 5B020000 		.4byte	0x25b
 1115 0249 02       		.byte	0x2
 1116 024a 23       		.byte	0x23
 1117 024b 00       		.uleb128 0
 1118 024c 06       		.uleb128 0x6
 1119 024d E4050000 		.4byte	.LASF26
 1120 0251 05       		.byte	0x5
 1121 0252 64       		.byte	0x64
 1122 0253 5B020000 		.4byte	0x25b
 1123 0257 02       		.byte	0x2
 1124 0258 23       		.byte	0x23
 1125 0259 04       		.uleb128 0x4
 1126 025a 00       		.byte	0
 1127 025b 09       		.uleb128 0x9
 1128 025c 04       		.byte	0x4
 1129 025d 14010000 		.4byte	0x114
 1130 0261 03       		.uleb128 0x3
 1131 0262 CC020000 		.4byte	.LASF43
 1132 0266 05       		.byte	0x5
 1133 0267 66       		.byte	0x66
 1134 0268 36020000 		.4byte	0x236
 1135 026c 08       		.uleb128 0x8
 1136 026d 04       		.byte	0x4
 1137 026e 05       		.byte	0x5
 1138 026f 6B       		.byte	0x6b
 1139 0270 83020000 		.4byte	0x283
 1140 0274 06       		.uleb128 0x6
 1141 0275 57050000 		.4byte	.LASF25
 1142 0279 05       		.byte	0x5
 1143 027a 6D       		.byte	0x6d
 1144 027b 5B020000 		.4byte	0x25b
 1145 027f 02       		.byte	0x2
 1146 0280 23       		.byte	0x23
 1147 0281 00       		.uleb128 0
 1148 0282 00       		.byte	0
 1149 0283 03       		.uleb128 0x3
 1150 0284 09000000 		.4byte	.LASF44
 1151 0288 05       		.byte	0x5
 1152 0289 70       		.byte	0x70
 1153 028a 6C020000 		.4byte	0x26c
 1154 028e 03       		.uleb128 0x3
 1155 028f 31000000 		.4byte	.LASF45
 1156 0293 07       		.byte	0x7
 1157 0294 D7       		.byte	0xd7
 1158 0295 99020000 		.4byte	0x299
 1159 0299 0A       		.uleb128 0xa
 1160 029a 04       		.byte	0x4
 1161 029b 03       		.uleb128 0x3
 1162 029c CD060000 		.4byte	.LASF46
 1163 02a0 07       		.byte	0x7
 1164 02a1 DD       		.byte	0xdd
 1165 02a2 AA000000 		.4byte	0xaa
 1166 02a6 05       		.uleb128 0x5
 1167 02a7 D9040000 		.4byte	.LASF47
 1168 02ab 24       		.byte	0x24
 1169 02ac 07       		.byte	0x7
 1170 02ad FE       		.byte	0xfe
ARM GAS  /var/folders/5n/p_75w94d66l9ssrldxqdhh700000gn/T//ccL7Lleu.s 			page 22


 1171 02ae 33030000 		.4byte	0x333
 1172 02b2 0B       		.uleb128 0xb
 1173 02b3 723400   		.ascii	"r4\000"
 1174 02b6 07       		.byte	0x7
 1175 02b7 1101     		.2byte	0x111
 1176 02b9 8E020000 		.4byte	0x28e
 1177 02bd 02       		.byte	0x2
 1178 02be 23       		.byte	0x23
 1179 02bf 00       		.uleb128 0
 1180 02c0 0B       		.uleb128 0xb
 1181 02c1 723500   		.ascii	"r5\000"
 1182 02c4 07       		.byte	0x7
 1183 02c5 1201     		.2byte	0x112
 1184 02c7 8E020000 		.4byte	0x28e
 1185 02cb 02       		.byte	0x2
 1186 02cc 23       		.byte	0x23
 1187 02cd 04       		.uleb128 0x4
 1188 02ce 0B       		.uleb128 0xb
 1189 02cf 723600   		.ascii	"r6\000"
 1190 02d2 07       		.byte	0x7
 1191 02d3 1301     		.2byte	0x113
 1192 02d5 8E020000 		.4byte	0x28e
 1193 02d9 02       		.byte	0x2
 1194 02da 23       		.byte	0x23
 1195 02db 08       		.uleb128 0x8
 1196 02dc 0B       		.uleb128 0xb
 1197 02dd 723700   		.ascii	"r7\000"
 1198 02e0 07       		.byte	0x7
 1199 02e1 1401     		.2byte	0x114
 1200 02e3 8E020000 		.4byte	0x28e
 1201 02e7 02       		.byte	0x2
 1202 02e8 23       		.byte	0x23
 1203 02e9 0C       		.uleb128 0xc
 1204 02ea 0B       		.uleb128 0xb
 1205 02eb 723800   		.ascii	"r8\000"
 1206 02ee 07       		.byte	0x7
 1207 02ef 1501     		.2byte	0x115
 1208 02f1 8E020000 		.4byte	0x28e
 1209 02f5 02       		.byte	0x2
 1210 02f6 23       		.byte	0x23
 1211 02f7 10       		.uleb128 0x10
 1212 02f8 0B       		.uleb128 0xb
 1213 02f9 723900   		.ascii	"r9\000"
 1214 02fc 07       		.byte	0x7
 1215 02fd 1601     		.2byte	0x116
 1216 02ff 8E020000 		.4byte	0x28e
 1217 0303 02       		.byte	0x2
 1218 0304 23       		.byte	0x23
 1219 0305 14       		.uleb128 0x14
 1220 0306 0B       		.uleb128 0xb
 1221 0307 72313000 		.ascii	"r10\000"
 1222 030b 07       		.byte	0x7
 1223 030c 1701     		.2byte	0x117
 1224 030e 8E020000 		.4byte	0x28e
 1225 0312 02       		.byte	0x2
 1226 0313 23       		.byte	0x23
 1227 0314 18       		.uleb128 0x18
ARM GAS  /var/folders/5n/p_75w94d66l9ssrldxqdhh700000gn/T//ccL7Lleu.s 			page 23


 1228 0315 0B       		.uleb128 0xb
 1229 0316 72313100 		.ascii	"r11\000"
 1230 031a 07       		.byte	0x7
 1231 031b 1801     		.2byte	0x118
 1232 031d 8E020000 		.4byte	0x28e
 1233 0321 02       		.byte	0x2
 1234 0322 23       		.byte	0x23
 1235 0323 1C       		.uleb128 0x1c
 1236 0324 0B       		.uleb128 0xb
 1237 0325 6C7200   		.ascii	"lr\000"
 1238 0328 07       		.byte	0x7
 1239 0329 1901     		.2byte	0x119
 1240 032b 8E020000 		.4byte	0x28e
 1241 032f 02       		.byte	0x2
 1242 0330 23       		.byte	0x23
 1243 0331 20       		.uleb128 0x20
 1244 0332 00       		.byte	0
 1245 0333 0C       		.uleb128 0xc
 1246 0334 D2030000 		.4byte	.LASF48
 1247 0338 04       		.byte	0x4
 1248 0339 07       		.byte	0x7
 1249 033a 2301     		.2byte	0x123
 1250 033c 50030000 		.4byte	0x350
 1251 0340 0B       		.uleb128 0xb
 1252 0341 72313300 		.ascii	"r13\000"
 1253 0345 07       		.byte	0x7
 1254 0346 2401     		.2byte	0x124
 1255 0348 50030000 		.4byte	0x350
 1256 034c 02       		.byte	0x2
 1257 034d 23       		.byte	0x23
 1258 034e 00       		.uleb128 0
 1259 034f 00       		.byte	0
 1260 0350 09       		.uleb128 0x9
 1261 0351 04       		.byte	0x4
 1262 0352 A6020000 		.4byte	0x2a6
 1263 0356 04       		.uleb128 0x4
 1264 0357 04       		.byte	0x4
 1265 0358 07       		.byte	0x7
 1266 0359 EB050000 		.4byte	.LASF49
 1267 035d 03       		.uleb128 0x3
 1268 035e 00000000 		.4byte	.LASF50
 1269 0362 08       		.byte	0x8
 1270 0363 53       		.byte	0x53
 1271 0364 68030000 		.4byte	0x368
 1272 0368 09       		.uleb128 0x9
 1273 0369 04       		.byte	0x4
 1274 036a 6E030000 		.4byte	0x36e
 1275 036e 0D       		.uleb128 0xd
 1276 036f 01       		.byte	0x1
 1277 0370 7A030000 		.4byte	0x37a
 1278 0374 0E       		.uleb128 0xe
 1279 0375 99020000 		.4byte	0x299
 1280 0379 00       		.byte	0
 1281 037a 03       		.uleb128 0x3
 1282 037b 84050000 		.4byte	.LASF51
 1283 037f 08       		.byte	0x8
 1284 0380 58       		.byte	0x58
ARM GAS  /var/folders/5n/p_75w94d66l9ssrldxqdhh700000gn/T//ccL7Lleu.s 			page 24


 1285 0381 85030000 		.4byte	0x385
 1286 0385 05       		.uleb128 0x5
 1287 0386 84050000 		.4byte	.LASF51
 1288 038a 14       		.byte	0x14
 1289 038b 08       		.byte	0x8
 1290 038c 5F       		.byte	0x5f
 1291 038d D8030000 		.4byte	0x3d8
 1292 0391 06       		.uleb128 0x6
 1293 0392 79060000 		.4byte	.LASF52
 1294 0396 08       		.byte	0x8
 1295 0397 60       		.byte	0x60
 1296 0398 D8030000 		.4byte	0x3d8
 1297 039c 02       		.byte	0x2
 1298 039d 23       		.byte	0x23
 1299 039e 00       		.uleb128 0
 1300 039f 06       		.uleb128 0x6
 1301 03a0 F0060000 		.4byte	.LASF53
 1302 03a4 08       		.byte	0x8
 1303 03a5 62       		.byte	0x62
 1304 03a6 D8030000 		.4byte	0x3d8
 1305 03aa 02       		.byte	0x2
 1306 03ab 23       		.byte	0x23
 1307 03ac 04       		.uleb128 0x4
 1308 03ad 06       		.uleb128 0x6
 1309 03ae 1C010000 		.4byte	.LASF54
 1310 03b2 08       		.byte	0x8
 1311 03b3 64       		.byte	0x64
 1312 03b4 FE000000 		.4byte	0xfe
 1313 03b8 02       		.byte	0x2
 1314 03b9 23       		.byte	0x23
 1315 03ba 08       		.uleb128 0x8
 1316 03bb 06       		.uleb128 0x6
 1317 03bc E8060000 		.4byte	.LASF55
 1318 03c0 08       		.byte	0x8
 1319 03c1 65       		.byte	0x65
 1320 03c2 5D030000 		.4byte	0x35d
 1321 03c6 02       		.byte	0x2
 1322 03c7 23       		.byte	0x23
 1323 03c8 0C       		.uleb128 0xc
 1324 03c9 06       		.uleb128 0x6
 1325 03ca 53010000 		.4byte	.LASF56
 1326 03ce 08       		.byte	0x8
 1327 03cf 67       		.byte	0x67
 1328 03d0 99020000 		.4byte	0x299
 1329 03d4 02       		.byte	0x2
 1330 03d5 23       		.byte	0x23
 1331 03d6 10       		.uleb128 0x10
 1332 03d7 00       		.byte	0
 1333 03d8 09       		.uleb128 0x9
 1334 03d9 04       		.byte	0x4
 1335 03da 7A030000 		.4byte	0x37a
 1336 03de 08       		.uleb128 0x8
 1337 03df 10       		.byte	0x10
 1338 03e0 08       		.byte	0x8
 1339 03e1 71       		.byte	0x71
 1340 03e2 1F040000 		.4byte	0x41f
 1341 03e6 06       		.uleb128 0x6
ARM GAS  /var/folders/5n/p_75w94d66l9ssrldxqdhh700000gn/T//ccL7Lleu.s 			page 25


 1342 03e7 79060000 		.4byte	.LASF52
 1343 03eb 08       		.byte	0x8
 1344 03ec 72       		.byte	0x72
 1345 03ed D8030000 		.4byte	0x3d8
 1346 03f1 02       		.byte	0x2
 1347 03f2 23       		.byte	0x23
 1348 03f3 00       		.uleb128 0
 1349 03f4 06       		.uleb128 0x6
 1350 03f5 F0060000 		.4byte	.LASF53
 1351 03f9 08       		.byte	0x8
 1352 03fa 74       		.byte	0x74
 1353 03fb D8030000 		.4byte	0x3d8
 1354 03ff 02       		.byte	0x2
 1355 0400 23       		.byte	0x23
 1356 0401 04       		.uleb128 0x4
 1357 0402 06       		.uleb128 0x6
 1358 0403 1C010000 		.4byte	.LASF54
 1359 0407 08       		.byte	0x8
 1360 0408 76       		.byte	0x76
 1361 0409 FE000000 		.4byte	0xfe
 1362 040d 02       		.byte	0x2
 1363 040e 23       		.byte	0x23
 1364 040f 08       		.uleb128 0x8
 1365 0410 06       		.uleb128 0x6
 1366 0411 5B000000 		.4byte	.LASF57
 1367 0415 08       		.byte	0x8
 1368 0416 77       		.byte	0x77
 1369 0417 1F040000 		.4byte	0x41f
 1370 041b 02       		.byte	0x2
 1371 041c 23       		.byte	0x23
 1372 041d 0C       		.uleb128 0xc
 1373 041e 00       		.byte	0
 1374 041f 0F       		.uleb128 0xf
 1375 0420 FE000000 		.4byte	0xfe
 1376 0424 03       		.uleb128 0x3
 1377 0425 22030000 		.4byte	.LASF58
 1378 0429 08       		.byte	0x8
 1379 042a 78       		.byte	0x78
 1380 042b DE030000 		.4byte	0x3de
 1381 042f 08       		.uleb128 0x8
 1382 0430 20       		.byte	0x20
 1383 0431 09       		.byte	0x9
 1384 0432 5E       		.byte	0x5e
 1385 0433 9A040000 		.4byte	0x49a
 1386 0437 06       		.uleb128 0x6
 1387 0438 B9030000 		.4byte	.LASF59
 1388 043c 09       		.byte	0x9
 1389 043d 5F       		.byte	0x5f
 1390 043e 61020000 		.4byte	0x261
 1391 0442 02       		.byte	0x2
 1392 0443 23       		.byte	0x23
 1393 0444 00       		.uleb128 0
 1394 0445 06       		.uleb128 0x6
 1395 0446 40010000 		.4byte	.LASF60
 1396 044a 09       		.byte	0x9
 1397 044b 60       		.byte	0x60
 1398 044c DD000000 		.4byte	0xdd
ARM GAS  /var/folders/5n/p_75w94d66l9ssrldxqdhh700000gn/T//ccL7Lleu.s 			page 26


 1399 0450 02       		.byte	0x2
 1400 0451 23       		.byte	0x23
 1401 0452 08       		.uleb128 0x8
 1402 0453 06       		.uleb128 0x6
 1403 0454 C7060000 		.4byte	.LASF61
 1404 0458 09       		.byte	0x9
 1405 0459 62       		.byte	0x62
 1406 045a 33030000 		.4byte	0x333
 1407 045e 02       		.byte	0x2
 1408 045f 23       		.byte	0x23
 1409 0460 0C       		.uleb128 0xc
 1410 0461 06       		.uleb128 0x6
 1411 0462 E9020000 		.4byte	.LASF62
 1412 0466 09       		.byte	0x9
 1413 0467 65       		.byte	0x65
 1414 0468 5B020000 		.4byte	0x25b
 1415 046c 02       		.byte	0x2
 1416 046d 23       		.byte	0x23
 1417 046e 10       		.uleb128 0x10
 1418 046f 06       		.uleb128 0x6
 1419 0470 7B040000 		.4byte	.LASF63
 1420 0474 09       		.byte	0x9
 1421 0475 66       		.byte	0x66
 1422 0476 5B020000 		.4byte	0x25b
 1423 047a 02       		.byte	0x2
 1424 047b 23       		.byte	0x23
 1425 047c 14       		.uleb128 0x14
 1426 047d 06       		.uleb128 0x6
 1427 047e 0F030000 		.4byte	.LASF64
 1428 0482 09       		.byte	0x9
 1429 0483 6A       		.byte	0x6a
 1430 0484 09010000 		.4byte	0x109
 1431 0488 02       		.byte	0x2
 1432 0489 23       		.byte	0x23
 1433 048a 18       		.uleb128 0x18
 1434 048b 06       		.uleb128 0x6
 1435 048c 25050000 		.4byte	.LASF65
 1436 0490 09       		.byte	0x9
 1437 0491 6C       		.byte	0x6c
 1438 0492 5B020000 		.4byte	0x25b
 1439 0496 02       		.byte	0x2
 1440 0497 23       		.byte	0x23
 1441 0498 1C       		.uleb128 0x1c
 1442 0499 00       		.byte	0
 1443 049a 03       		.uleb128 0x3
 1444 049b 5C060000 		.4byte	.LASF66
 1445 049f 09       		.byte	0x9
 1446 04a0 6E       		.byte	0x6e
 1447 04a1 2F040000 		.4byte	0x42f
 1448 04a5 05       		.uleb128 0x5
 1449 04a6 71040000 		.4byte	.LASF67
 1450 04aa 0C       		.byte	0xc
 1451 04ab 0A       		.byte	0xa
 1452 04ac 2C       		.byte	0x2c
 1453 04ad CE040000 		.4byte	0x4ce
 1454 04b1 06       		.uleb128 0x6
 1455 04b2 53000000 		.4byte	.LASF68
ARM GAS  /var/folders/5n/p_75w94d66l9ssrldxqdhh700000gn/T//ccL7Lleu.s 			page 27


 1456 04b6 0A       		.byte	0xa
 1457 04b7 2D       		.byte	0x2d
 1458 04b8 61020000 		.4byte	0x261
 1459 04bc 02       		.byte	0x2
 1460 04bd 23       		.byte	0x23
 1461 04be 00       		.uleb128 0
 1462 04bf 06       		.uleb128 0x6
 1463 04c0 EB000000 		.4byte	.LASF69
 1464 04c4 0A       		.byte	0xa
 1465 04c5 2F       		.byte	0x2f
 1466 04c6 09010000 		.4byte	0x109
 1467 04ca 02       		.byte	0x2
 1468 04cb 23       		.byte	0x23
 1469 04cc 08       		.uleb128 0x8
 1470 04cd 00       		.byte	0
 1471 04ce 03       		.uleb128 0x3
 1472 04cf 71040000 		.4byte	.LASF67
 1473 04d3 0A       		.byte	0xa
 1474 04d4 30       		.byte	0x30
 1475 04d5 A5040000 		.4byte	0x4a5
 1476 04d9 05       		.uleb128 0x5
 1477 04da 86020000 		.4byte	.LASF70
 1478 04de 10       		.byte	0x10
 1479 04df 0B       		.byte	0xb
 1480 04e0 2C       		.byte	0x2c
 1481 04e1 10050000 		.4byte	0x510
 1482 04e5 06       		.uleb128 0x6
 1483 04e6 3A050000 		.4byte	.LASF71
 1484 04ea 0B       		.byte	0xb
 1485 04eb 2D       		.byte	0x2d
 1486 04ec 61020000 		.4byte	0x261
 1487 04f0 02       		.byte	0x2
 1488 04f1 23       		.byte	0x23
 1489 04f2 00       		.uleb128 0
 1490 04f3 06       		.uleb128 0x6
 1491 04f4 4B000000 		.4byte	.LASF72
 1492 04f8 0B       		.byte	0xb
 1493 04f9 2F       		.byte	0x2f
 1494 04fa 5B020000 		.4byte	0x25b
 1495 04fe 02       		.byte	0x2
 1496 04ff 23       		.byte	0x23
 1497 0500 08       		.uleb128 0x8
 1498 0501 06       		.uleb128 0x6
 1499 0502 A1060000 		.4byte	.LASF73
 1500 0506 0B       		.byte	0xb
 1501 0507 31       		.byte	0x31
 1502 0508 10050000 		.4byte	0x510
 1503 050c 02       		.byte	0x2
 1504 050d 23       		.byte	0x23
 1505 050e 0C       		.uleb128 0xc
 1506 050f 00       		.byte	0
 1507 0510 09       		.uleb128 0x9
 1508 0511 04       		.byte	0x4
 1509 0512 D9040000 		.4byte	0x4d9
 1510 0516 03       		.uleb128 0x3
 1511 0517 86020000 		.4byte	.LASF70
 1512 051b 0B       		.byte	0xb
ARM GAS  /var/folders/5n/p_75w94d66l9ssrldxqdhh700000gn/T//ccL7Lleu.s 			page 28


 1513 051c 33       		.byte	0x33
 1514 051d D9040000 		.4byte	0x4d9
 1515 0521 08       		.uleb128 0x8
 1516 0522 28       		.byte	0x28
 1517 0523 0C       		.byte	0xc
 1518 0524 33       		.byte	0x33
 1519 0525 7E050000 		.4byte	0x57e
 1520 0529 06       		.uleb128 0x6
 1521 052a 0E060000 		.4byte	.LASF74
 1522 052e 0C       		.byte	0xc
 1523 052f 34       		.byte	0x34
 1524 0530 7E050000 		.4byte	0x57e
 1525 0534 02       		.byte	0x2
 1526 0535 23       		.byte	0x23
 1527 0536 00       		.uleb128 0
 1528 0537 06       		.uleb128 0x6
 1529 0538 54040000 		.4byte	.LASF75
 1530 053c 0C       		.byte	0xc
 1531 053d 36       		.byte	0x36
 1532 053e 7E050000 		.4byte	0x57e
 1533 0542 02       		.byte	0x2
 1534 0543 23       		.byte	0x23
 1535 0544 04       		.uleb128 0x4
 1536 0545 06       		.uleb128 0x6
 1537 0546 1C050000 		.4byte	.LASF76
 1538 054a 0C       		.byte	0xc
 1539 054b 38       		.byte	0x38
 1540 054c 7E050000 		.4byte	0x57e
 1541 0550 02       		.byte	0x2
 1542 0551 23       		.byte	0x23
 1543 0552 08       		.uleb128 0x8
 1544 0553 06       		.uleb128 0x6
 1545 0554 64020000 		.4byte	.LASF77
 1546 0558 0C       		.byte	0xc
 1547 0559 39       		.byte	0x39
 1548 055a 7E050000 		.4byte	0x57e
 1549 055e 02       		.byte	0x2
 1550 055f 23       		.byte	0x23
 1551 0560 0C       		.uleb128 0xc
 1552 0561 06       		.uleb128 0x6
 1553 0562 4D030000 		.4byte	.LASF78
 1554 0566 0C       		.byte	0xc
 1555 0567 3A       		.byte	0x3a
 1556 0568 CE040000 		.4byte	0x4ce
 1557 056c 02       		.byte	0x2
 1558 056d 23       		.byte	0x23
 1559 056e 10       		.uleb128 0x10
 1560 056f 06       		.uleb128 0x6
 1561 0570 8C020000 		.4byte	.LASF79
 1562 0574 0C       		.byte	0xc
 1563 0575 3C       		.byte	0x3c
 1564 0576 CE040000 		.4byte	0x4ce
 1565 057a 02       		.byte	0x2
 1566 057b 23       		.byte	0x23
 1567 057c 1C       		.uleb128 0x1c
 1568 057d 00       		.byte	0
 1569 057e 09       		.uleb128 0x9
ARM GAS  /var/folders/5n/p_75w94d66l9ssrldxqdhh700000gn/T//ccL7Lleu.s 			page 29


 1570 057f 04       		.byte	0x4
 1571 0580 E8000000 		.4byte	0xe8
 1572 0584 03       		.uleb128 0x3
 1573 0585 D8000000 		.4byte	.LASF80
 1574 0589 0C       		.byte	0xc
 1575 058a 3E       		.byte	0x3e
 1576 058b 21050000 		.4byte	0x521
 1577 058f 03       		.uleb128 0x3
 1578 0590 9A050000 		.4byte	.LASF81
 1579 0594 0D       		.byte	0xd
 1580 0595 2C       		.byte	0x2c
 1581 0596 9A050000 		.4byte	0x59a
 1582 059a 09       		.uleb128 0x9
 1583 059b 04       		.byte	0x4
 1584 059c A0050000 		.4byte	0x5a0
 1585 05a0 10       		.uleb128 0x10
 1586 05a1 01       		.byte	0x1
 1587 05a2 99020000 		.4byte	0x299
 1588 05a6 B0050000 		.4byte	0x5b0
 1589 05aa 0E       		.uleb128 0xe
 1590 05ab 30000000 		.4byte	0x30
 1591 05af 00       		.byte	0
 1592 05b0 03       		.uleb128 0x3
 1593 05b1 D8060000 		.4byte	.LASF82
 1594 05b5 0E       		.byte	0xe
 1595 05b6 34       		.byte	0x34
 1596 05b7 BB050000 		.4byte	0x5bb
 1597 05bb 05       		.uleb128 0x5
 1598 05bc 10050000 		.4byte	.LASF83
 1599 05c0 20       		.byte	0x20
 1600 05c1 0E       		.byte	0xe
 1601 05c2 47       		.byte	0x47
 1602 05c3 F2050000 		.4byte	0x5f2
 1603 05c7 06       		.uleb128 0x6
 1604 05c8 C1020000 		.4byte	.LASF84
 1605 05cc 0E       		.byte	0xe
 1606 05cd 48       		.byte	0x48
 1607 05ce 8F050000 		.4byte	0x58f
 1608 05d2 02       		.byte	0x2
 1609 05d3 23       		.byte	0x23
 1610 05d4 00       		.uleb128 0
 1611 05d5 06       		.uleb128 0x6
 1612 05d6 AD000000 		.4byte	.LASF85
 1613 05da 0E       		.byte	0xe
 1614 05db 4A       		.byte	0x4a
 1615 05dc 11060000 		.4byte	0x611
 1616 05e0 02       		.byte	0x2
 1617 05e1 23       		.byte	0x23
 1618 05e2 08       		.uleb128 0x8
 1619 05e3 06       		.uleb128 0x6
 1620 05e4 85030000 		.4byte	.LASF86
 1621 05e8 0E       		.byte	0xe
 1622 05e9 4C       		.byte	0x4c
 1623 05ea 16050000 		.4byte	0x516
 1624 05ee 02       		.byte	0x2
 1625 05ef 23       		.byte	0x23
 1626 05f0 10       		.uleb128 0x10
ARM GAS  /var/folders/5n/p_75w94d66l9ssrldxqdhh700000gn/T//ccL7Lleu.s 			page 30


 1627 05f1 00       		.byte	0
 1628 05f2 11       		.uleb128 0x11
 1629 05f3 04       		.byte	0x4
 1630 05f4 0E       		.byte	0xe
 1631 05f5 3C       		.byte	0x3c
 1632 05f6 11060000 		.4byte	0x611
 1633 05fa 12       		.uleb128 0x12
 1634 05fb 93000000 		.4byte	.LASF87
 1635 05ff 0E       		.byte	0xe
 1636 0600 3D       		.byte	0x3d
 1637 0601 32060000 		.4byte	0x632
 1638 0605 12       		.uleb128 0x12
 1639 0606 B4000000 		.4byte	.LASF88
 1640 060a 0E       		.byte	0xe
 1641 060b 3E       		.byte	0x3e
 1642 060c 38060000 		.4byte	0x638
 1643 0610 00       		.byte	0
 1644 0611 13       		.uleb128 0x13
 1645 0612 4A020000 		.4byte	.LASF176
 1646 0616 08       		.byte	0x8
 1647 0617 0E       		.byte	0xe
 1648 0618 39       		.byte	0x39
 1649 0619 32060000 		.4byte	0x632
 1650 061d 12       		.uleb128 0x12
 1651 061e F8060000 		.4byte	.LASF89
 1652 0622 0E       		.byte	0xe
 1653 0623 3A       		.byte	0x3a
 1654 0624 9B020000 		.4byte	0x29b
 1655 0628 14       		.uleb128 0x14
 1656 0629 6800     		.ascii	"h\000"
 1657 062b 0E       		.byte	0xe
 1658 062c 41       		.byte	0x41
 1659 062d 3E060000 		.4byte	0x63e
 1660 0631 00       		.byte	0
 1661 0632 09       		.uleb128 0x9
 1662 0633 04       		.byte	0x4
 1663 0634 11060000 		.4byte	0x611
 1664 0638 09       		.uleb128 0x9
 1665 0639 04       		.byte	0x4
 1666 063a B0050000 		.4byte	0x5b0
 1667 063e 08       		.uleb128 0x8
 1668 063f 08       		.byte	0x8
 1669 0640 0E       		.byte	0xe
 1670 0641 3B       		.byte	0x3b
 1671 0642 61060000 		.4byte	0x661
 1672 0646 07       		.uleb128 0x7
 1673 0647 7500     		.ascii	"u\000"
 1674 0649 0E       		.byte	0xe
 1675 064a 3F       		.byte	0x3f
 1676 064b F2050000 		.4byte	0x5f2
 1677 064f 02       		.byte	0x2
 1678 0650 23       		.byte	0x23
 1679 0651 00       		.uleb128 0
 1680 0652 06       		.uleb128 0x6
 1681 0653 4F040000 		.4byte	.LASF90
 1682 0657 0E       		.byte	0xe
 1683 0658 40       		.byte	0x40
ARM GAS  /var/folders/5n/p_75w94d66l9ssrldxqdhh700000gn/T//ccL7Lleu.s 			page 31


 1684 0659 30000000 		.4byte	0x30
 1685 065d 02       		.byte	0x2
 1686 065e 23       		.byte	0x23
 1687 065f 04       		.uleb128 0x4
 1688 0660 00       		.byte	0
 1689 0661 11       		.uleb128 0x11
 1690 0662 04       		.byte	0x4
 1691 0663 06       		.byte	0x6
 1692 0664 90       		.byte	0x90
 1693 0665 96060000 		.4byte	0x696
 1694 0669 12       		.uleb128 0x12
 1695 066a 5D020000 		.4byte	.LASF91
 1696 066e 06       		.byte	0x6
 1697 066f 97       		.byte	0x97
 1698 0670 E8000000 		.4byte	0xe8
 1699 0674 12       		.uleb128 0x12
 1700 0675 FE060000 		.4byte	.LASF92
 1701 0679 06       		.byte	0x6
 1702 067a 9E       		.byte	0x9e
 1703 067b E8000000 		.4byte	0xe8
 1704 067f 12       		.uleb128 0x12
 1705 0680 B9000000 		.4byte	.LASF93
 1706 0684 06       		.byte	0x6
 1707 0685 A5       		.byte	0xa5
 1708 0686 99020000 		.4byte	0x299
 1709 068a 12       		.uleb128 0x12
 1710 068b D1000000 		.4byte	.LASF94
 1711 068f 06       		.byte	0x6
 1712 0690 AC       		.byte	0xac
 1713 0691 F3000000 		.4byte	0xf3
 1714 0695 00       		.byte	0
 1715 0696 09       		.uleb128 0x9
 1716 0697 04       		.byte	0x4
 1717 0698 9C060000 		.4byte	0x69c
 1718 069c 15       		.uleb128 0x15
 1719 069d A1060000 		.4byte	0x6a1
 1720 06a1 04       		.uleb128 0x4
 1721 06a2 01       		.byte	0x1
 1722 06a3 08       		.byte	0x8
 1723 06a4 D9020000 		.4byte	.LASF95
 1724 06a8 09       		.uleb128 0x9
 1725 06a9 04       		.byte	0x4
 1726 06aa 16050000 		.4byte	0x516
 1727 06ae 03       		.uleb128 0x3
 1728 06af 98010000 		.4byte	.LASF96
 1729 06b3 06       		.byte	0x6
 1730 06b4 DF       		.byte	0xdf
 1731 06b5 B9060000 		.4byte	0x6b9
 1732 06b9 09       		.uleb128 0x9
 1733 06ba 04       		.byte	0x4
 1734 06bb BF060000 		.4byte	0x6bf
 1735 06bf 10       		.uleb128 0x10
 1736 06c0 01       		.byte	0x1
 1737 06c1 E8000000 		.4byte	0xe8
 1738 06c5 CF060000 		.4byte	0x6cf
 1739 06c9 0E       		.uleb128 0xe
 1740 06ca 99020000 		.4byte	0x299
ARM GAS  /var/folders/5n/p_75w94d66l9ssrldxqdhh700000gn/T//ccL7Lleu.s 			page 32


 1741 06ce 00       		.byte	0
 1742 06cf 03       		.uleb128 0x3
 1743 06d0 DA030000 		.4byte	.LASF97
 1744 06d4 0F       		.byte	0xf
 1745 06d5 43       		.byte	0x43
 1746 06d6 54000000 		.4byte	0x54
 1747 06da 03       		.uleb128 0x3
 1748 06db 77020000 		.4byte	.LASF98
 1749 06df 0F       		.byte	0xf
 1750 06e0 44       		.byte	0x44
 1751 06e1 42000000 		.4byte	0x42
 1752 06e5 03       		.uleb128 0x3
 1753 06e6 E0040000 		.4byte	.LASF99
 1754 06ea 0F       		.byte	0xf
 1755 06eb 45       		.byte	0x45
 1756 06ec 6D000000 		.4byte	0x6d
 1757 06f0 03       		.uleb128 0x3
 1758 06f1 00050000 		.4byte	.LASF100
 1759 06f5 0F       		.byte	0xf
 1760 06f6 47       		.byte	0x47
 1761 06f7 91000000 		.4byte	0x91
 1762 06fb 03       		.uleb128 0x3
 1763 06fc DE020000 		.4byte	.LASF101
 1764 0700 10       		.byte	0x10
 1765 0701 4B       		.byte	0x4b
 1766 0702 E5060000 		.4byte	0x6e5
 1767 0706 03       		.uleb128 0x3
 1768 0707 A7000000 		.4byte	.LASF102
 1769 070b 11       		.byte	0x11
 1770 070c 2F       		.byte	0x2f
 1771 070d DA060000 		.4byte	0x6da
 1772 0711 03       		.uleb128 0x3
 1773 0712 6D020000 		.4byte	.LASF103
 1774 0716 12       		.byte	0x12
 1775 0717 43       		.byte	0x43
 1776 0718 1C070000 		.4byte	0x71c
 1777 071c 09       		.uleb128 0x9
 1778 071d 04       		.byte	0x4
 1779 071e CE040000 		.4byte	0x4ce
 1780 0722 03       		.uleb128 0x3
 1781 0723 1F000000 		.4byte	.LASF104
 1782 0727 12       		.byte	0x12
 1783 0728 44       		.byte	0x44
 1784 0729 2D070000 		.4byte	0x72d
 1785 072d 09       		.uleb128 0x9
 1786 072e 04       		.byte	0x4
 1787 072f 84050000 		.4byte	0x584
 1788 0733 03       		.uleb128 0x3
 1789 0734 85010000 		.4byte	.LASF105
 1790 0738 12       		.byte	0x12
 1791 0739 45       		.byte	0x45
 1792 073a 5B020000 		.4byte	0x25b
 1793 073e 03       		.uleb128 0x3
 1794 073f FD020000 		.4byte	.LASF106
 1795 0743 12       		.byte	0x12
 1796 0744 46       		.byte	0x46
 1797 0745 29000000 		.4byte	0x29
ARM GAS  /var/folders/5n/p_75w94d66l9ssrldxqdhh700000gn/T//ccL7Lleu.s 			page 33


 1798 0749 03       		.uleb128 0x3
 1799 074a C4010000 		.4byte	.LASF107
 1800 074e 13       		.byte	0x13
 1801 074f 53       		.byte	0x53
 1802 0750 68030000 		.4byte	0x368
 1803 0754 05       		.uleb128 0x5
 1804 0755 F1020000 		.4byte	.LASF108
 1805 0759 18       		.byte	0x18
 1806 075a 14       		.byte	0x14
 1807 075b 3A       		.byte	0x3a
 1808 075c 08080000 		.4byte	0x808
 1809 0760 06       		.uleb128 0x6
 1810 0761 E3060000 		.4byte	.LASF109
 1811 0765 14       		.byte	0x14
 1812 0766 3B       		.byte	0x3b
 1813 0767 E5060000 		.4byte	0x6e5
 1814 076b 02       		.byte	0x2
 1815 076c 23       		.byte	0x23
 1816 076d 00       		.uleb128 0
 1817 076e 06       		.uleb128 0x6
 1818 076f 9C060000 		.4byte	.LASF110
 1819 0773 14       		.byte	0x14
 1820 0774 3C       		.byte	0x3c
 1821 0775 E5060000 		.4byte	0x6e5
 1822 0779 02       		.byte	0x2
 1823 077a 23       		.byte	0x23
 1824 077b 02       		.uleb128 0x2
 1825 077c 07       		.uleb128 0x7
 1826 077d 667700   		.ascii	"fw\000"
 1827 0780 14       		.byte	0x14
 1828 0781 3D       		.byte	0x3d
 1829 0782 E5060000 		.4byte	0x6e5
 1830 0786 02       		.byte	0x2
 1831 0787 23       		.byte	0x23
 1832 0788 04       		.uleb128 0x4
 1833 0789 06       		.uleb128 0x6
 1834 078a 74060000 		.4byte	.LASF111
 1835 078e 14       		.byte	0x14
 1836 078f 3E       		.byte	0x3e
 1837 0790 E5060000 		.4byte	0x6e5
 1838 0794 02       		.byte	0x2
 1839 0795 23       		.byte	0x23
 1840 0796 06       		.uleb128 0x6
 1841 0797 06       		.uleb128 0x6
 1842 0798 6A040000 		.4byte	.LASF112
 1843 079c 14       		.byte	0x14
 1844 079d 3F       		.byte	0x3f
 1845 079e E5060000 		.4byte	0x6e5
 1846 07a2 02       		.byte	0x2
 1847 07a3 23       		.byte	0x23
 1848 07a4 08       		.uleb128 0x8
 1849 07a5 06       		.uleb128 0x6
 1850 07a6 EE040000 		.4byte	.LASF113
 1851 07aa 14       		.byte	0x14
 1852 07ab 40       		.byte	0x40
 1853 07ac E5060000 		.4byte	0x6e5
 1854 07b0 02       		.byte	0x2
ARM GAS  /var/folders/5n/p_75w94d66l9ssrldxqdhh700000gn/T//ccL7Lleu.s 			page 34


 1855 07b1 23       		.byte	0x23
 1856 07b2 0A       		.uleb128 0xa
 1857 07b3 06       		.uleb128 0x6
 1858 07b4 83040000 		.4byte	.LASF114
 1859 07b8 14       		.byte	0x14
 1860 07b9 41       		.byte	0x41
 1861 07ba E5060000 		.4byte	0x6e5
 1862 07be 02       		.byte	0x2
 1863 07bf 23       		.byte	0x23
 1864 07c0 0C       		.uleb128 0xc
 1865 07c1 06       		.uleb128 0x6
 1866 07c2 4B050000 		.4byte	.LASF115
 1867 07c6 14       		.byte	0x14
 1868 07c7 42       		.byte	0x42
 1869 07c8 E5060000 		.4byte	0x6e5
 1870 07cc 02       		.byte	0x2
 1871 07cd 23       		.byte	0x23
 1872 07ce 0E       		.uleb128 0xe
 1873 07cf 06       		.uleb128 0x6
 1874 07d0 27060000 		.4byte	.LASF116
 1875 07d4 14       		.byte	0x14
 1876 07d5 43       		.byte	0x43
 1877 07d6 E5060000 		.4byte	0x6e5
 1878 07da 02       		.byte	0x2
 1879 07db 23       		.byte	0x23
 1880 07dc 10       		.uleb128 0x10
 1881 07dd 06       		.uleb128 0x6
 1882 07de 5A010000 		.4byte	.LASF117
 1883 07e2 14       		.byte	0x14
 1884 07e3 44       		.byte	0x44
 1885 07e4 E5060000 		.4byte	0x6e5
 1886 07e8 02       		.byte	0x2
 1887 07e9 23       		.byte	0x23
 1888 07ea 12       		.uleb128 0x12
 1889 07eb 07       		.uleb128 0x7
 1890 07ec 65727200 		.ascii	"err\000"
 1891 07f0 14       		.byte	0x14
 1892 07f1 45       		.byte	0x45
 1893 07f2 E5060000 		.4byte	0x6e5
 1894 07f6 02       		.byte	0x2
 1895 07f7 23       		.byte	0x23
 1896 07f8 14       		.uleb128 0x14
 1897 07f9 06       		.uleb128 0x6
 1898 07fa 91050000 		.4byte	.LASF118
 1899 07fe 14       		.byte	0x14
 1900 07ff 46       		.byte	0x46
 1901 0800 E5060000 		.4byte	0x6e5
 1902 0804 02       		.byte	0x2
 1903 0805 23       		.byte	0x23
 1904 0806 16       		.uleb128 0x16
 1905 0807 00       		.byte	0
 1906 0808 05       		.uleb128 0x5
 1907 0809 C7000000 		.4byte	.LASF119
 1908 080d 0A       		.byte	0xa
 1909 080e 14       		.byte	0x14
 1910 080f 5A       		.byte	0x5a
 1911 0810 5B080000 		.4byte	0x85b
ARM GAS  /var/folders/5n/p_75w94d66l9ssrldxqdhh700000gn/T//ccL7Lleu.s 			page 35


 1912 0814 06       		.uleb128 0x6
 1913 0815 51050000 		.4byte	.LASF120
 1914 0819 14       		.byte	0x14
 1915 081a 5E       		.byte	0x5e
 1916 081b FB060000 		.4byte	0x6fb
 1917 081f 02       		.byte	0x2
 1918 0820 23       		.byte	0x23
 1919 0821 00       		.uleb128 0
 1920 0822 06       		.uleb128 0x6
 1921 0823 EF010000 		.4byte	.LASF121
 1922 0827 14       		.byte	0x14
 1923 0828 5F       		.byte	0x5f
 1924 0829 FB060000 		.4byte	0x6fb
 1925 082d 02       		.byte	0x2
 1926 082e 23       		.byte	0x23
 1927 082f 02       		.uleb128 0x2
 1928 0830 07       		.uleb128 0x7
 1929 0831 6D617800 		.ascii	"max\000"
 1930 0835 14       		.byte	0x14
 1931 0836 60       		.byte	0x60
 1932 0837 FB060000 		.4byte	0x6fb
 1933 083b 02       		.byte	0x2
 1934 083c 23       		.byte	0x23
 1935 083d 04       		.uleb128 0x4
 1936 083e 07       		.uleb128 0x7
 1937 083f 65727200 		.ascii	"err\000"
 1938 0843 14       		.byte	0x14
 1939 0844 61       		.byte	0x61
 1940 0845 E5060000 		.4byte	0x6e5
 1941 0849 02       		.byte	0x2
 1942 084a 23       		.byte	0x23
 1943 084b 06       		.uleb128 0x6
 1944 084c 06       		.uleb128 0x6
 1945 084d 7D010000 		.4byte	.LASF122
 1946 0851 14       		.byte	0x14
 1947 0852 62       		.byte	0x62
 1948 0853 E5060000 		.4byte	0x6e5
 1949 0857 02       		.byte	0x2
 1950 0858 23       		.byte	0x23
 1951 0859 08       		.uleb128 0x8
 1952 085a 00       		.byte	0
 1953 085b 05       		.uleb128 0x5
 1954 085c F1000000 		.4byte	.LASF123
 1955 0860 06       		.byte	0x6
 1956 0861 14       		.byte	0x14
 1957 0862 65       		.byte	0x65
 1958 0863 92080000 		.4byte	0x892
 1959 0867 06       		.uleb128 0x6
 1960 0868 EF010000 		.4byte	.LASF121
 1961 086c 14       		.byte	0x14
 1962 086d 66       		.byte	0x66
 1963 086e E5060000 		.4byte	0x6e5
 1964 0872 02       		.byte	0x2
 1965 0873 23       		.byte	0x23
 1966 0874 00       		.uleb128 0
 1967 0875 07       		.uleb128 0x7
 1968 0876 6D617800 		.ascii	"max\000"
ARM GAS  /var/folders/5n/p_75w94d66l9ssrldxqdhh700000gn/T//ccL7Lleu.s 			page 36


 1969 087a 14       		.byte	0x14
 1970 087b 67       		.byte	0x67
 1971 087c E5060000 		.4byte	0x6e5
 1972 0880 02       		.byte	0x2
 1973 0881 23       		.byte	0x23
 1974 0882 02       		.uleb128 0x2
 1975 0883 07       		.uleb128 0x7
 1976 0884 65727200 		.ascii	"err\000"
 1977 0888 14       		.byte	0x14
 1978 0889 68       		.byte	0x68
 1979 088a E5060000 		.4byte	0x6e5
 1980 088e 02       		.byte	0x2
 1981 088f 23       		.byte	0x23
 1982 0890 04       		.uleb128 0x4
 1983 0891 00       		.byte	0
 1984 0892 05       		.uleb128 0x5
 1985 0893 3D060000 		.4byte	.LASF124
 1986 0897 12       		.byte	0x12
 1987 0898 14       		.byte	0x14
 1988 0899 6B       		.byte	0x6b
 1989 089a C9080000 		.4byte	0x8c9
 1990 089e 07       		.uleb128 0x7
 1991 089f 73656D00 		.ascii	"sem\000"
 1992 08a3 14       		.byte	0x14
 1993 08a4 6C       		.byte	0x6c
 1994 08a5 5B080000 		.4byte	0x85b
 1995 08a9 02       		.byte	0x2
 1996 08aa 23       		.byte	0x23
 1997 08ab 00       		.uleb128 0
 1998 08ac 06       		.uleb128 0x6
 1999 08ad 61010000 		.4byte	.LASF125
 2000 08b1 14       		.byte	0x14
 2001 08b2 6D       		.byte	0x6d
 2002 08b3 5B080000 		.4byte	0x85b
 2003 08b7 02       		.byte	0x2
 2004 08b8 23       		.byte	0x23
 2005 08b9 06       		.uleb128 0x6
 2006 08ba 06       		.uleb128 0x6
 2007 08bb 6D050000 		.4byte	.LASF126
 2008 08bf 14       		.byte	0x14
 2009 08c0 6E       		.byte	0x6e
 2010 08c1 5B080000 		.4byte	0x85b
 2011 08c5 02       		.byte	0x2
 2012 08c6 23       		.byte	0x23
 2013 08c7 0C       		.uleb128 0xc
 2014 08c8 00       		.byte	0
 2015 08c9 16       		.uleb128 0x16
 2016 08ca F4010000 		.4byte	.LASF127
 2017 08ce 5001     		.2byte	0x150
 2018 08d0 14       		.byte	0x14
 2019 08d1 71       		.byte	0x71
 2020 08d2 66090000 		.4byte	0x966
 2021 08d6 06       		.uleb128 0x6
 2022 08d7 66060000 		.4byte	.LASF128
 2023 08db 14       		.byte	0x14
 2024 08dc 73       		.byte	0x73
 2025 08dd 54070000 		.4byte	0x754
ARM GAS  /var/folders/5n/p_75w94d66l9ssrldxqdhh700000gn/T//ccL7Lleu.s 			page 37


 2026 08e1 02       		.byte	0x2
 2027 08e2 23       		.byte	0x23
 2028 08e3 00       		.uleb128 0
 2029 08e4 06       		.uleb128 0x6
 2030 08e5 A0010000 		.4byte	.LASF129
 2031 08e9 14       		.byte	0x14
 2032 08ea 76       		.byte	0x76
 2033 08eb 54070000 		.4byte	0x754
 2034 08ef 02       		.byte	0x2
 2035 08f0 23       		.byte	0x23
 2036 08f1 18       		.uleb128 0x18
 2037 08f2 06       		.uleb128 0x6
 2038 08f3 67010000 		.4byte	.LASF130
 2039 08f7 14       		.byte	0x14
 2040 08f8 79       		.byte	0x79
 2041 08f9 54070000 		.4byte	0x754
 2042 08fd 02       		.byte	0x2
 2043 08fe 23       		.byte	0x23
 2044 08ff 30       		.uleb128 0x30
 2045 0900 07       		.uleb128 0x7
 2046 0901 697000   		.ascii	"ip\000"
 2047 0904 14       		.byte	0x14
 2048 0905 7C       		.byte	0x7c
 2049 0906 54070000 		.4byte	0x754
 2050 090a 02       		.byte	0x2
 2051 090b 23       		.byte	0x23
 2052 090c 48       		.uleb128 0x48
 2053 090d 06       		.uleb128 0x6
 2054 090e 07070000 		.4byte	.LASF131
 2055 0912 14       		.byte	0x14
 2056 0913 7F       		.byte	0x7f
 2057 0914 54070000 		.4byte	0x754
 2058 0918 02       		.byte	0x2
 2059 0919 23       		.byte	0x23
 2060 091a 60       		.uleb128 0x60
 2061 091b 07       		.uleb128 0x7
 2062 091c 75647000 		.ascii	"udp\000"
 2063 0920 14       		.byte	0x14
 2064 0921 85       		.byte	0x85
 2065 0922 54070000 		.4byte	0x754
 2066 0926 02       		.byte	0x2
 2067 0927 23       		.byte	0x23
 2068 0928 78       		.uleb128 0x78
 2069 0929 07       		.uleb128 0x7
 2070 092a 74637000 		.ascii	"tcp\000"
 2071 092e 14       		.byte	0x14
 2072 092f 88       		.byte	0x88
 2073 0930 54070000 		.4byte	0x754
 2074 0934 03       		.byte	0x3
 2075 0935 23       		.byte	0x23
 2076 0936 9001     		.uleb128 0x90
 2077 0938 07       		.uleb128 0x7
 2078 0939 6D656D00 		.ascii	"mem\000"
 2079 093d 14       		.byte	0x14
 2080 093e 8B       		.byte	0x8b
 2081 093f 08080000 		.4byte	0x808
 2082 0943 03       		.byte	0x3
ARM GAS  /var/folders/5n/p_75w94d66l9ssrldxqdhh700000gn/T//ccL7Lleu.s 			page 38


 2083 0944 23       		.byte	0x23
 2084 0945 A801     		.uleb128 0xa8
 2085 0947 06       		.uleb128 0x6
 2086 0948 DF050000 		.4byte	.LASF132
 2087 094c 14       		.byte	0x14
 2088 094d 8E       		.byte	0x8e
 2089 094e 66090000 		.4byte	0x966
 2090 0952 03       		.byte	0x3
 2091 0953 23       		.byte	0x23
 2092 0954 B201     		.uleb128 0xb2
 2093 0956 07       		.uleb128 0x7
 2094 0957 73797300 		.ascii	"sys\000"
 2095 095b 14       		.byte	0x14
 2096 095c 91       		.byte	0x91
 2097 095d 92080000 		.4byte	0x892
 2098 0961 03       		.byte	0x3
 2099 0962 23       		.byte	0x23
 2100 0963 BE02     		.uleb128 0x13e
 2101 0965 00       		.byte	0
 2102 0966 17       		.uleb128 0x17
 2103 0967 08080000 		.4byte	0x808
 2104 096b 76090000 		.4byte	0x976
 2105 096f 18       		.uleb128 0x18
 2106 0970 56030000 		.4byte	0x356
 2107 0974 0D       		.byte	0xd
 2108 0975 00       		.byte	0
 2109 0976 19       		.uleb128 0x19
 2110 0977 01       		.byte	0x1
 2111 0978 AC020000 		.4byte	.LASF177
 2112 097c 01       		.byte	0x1
 2113 097d 4A       		.byte	0x4a
 2114 097e 01       		.byte	0x1
 2115 097f 00000000 		.4byte	.LFB7
 2116 0983 02000000 		.4byte	.LFE7
 2117 0987 02       		.byte	0x2
 2118 0988 7D       		.byte	0x7d
 2119 0989 00       		.sleb128 0
 2120 098a 01       		.byte	0x1
 2121 098b 1A       		.uleb128 0x1a
 2122 098c 01       		.byte	0x1
 2123 098d AD030000 		.4byte	.LASF136
 2124 0991 01       		.byte	0x1
 2125 0992 4E       		.byte	0x4e
 2126 0993 01       		.byte	0x1
 2127 0994 06070000 		.4byte	0x706
 2128 0998 00000000 		.4byte	.LFB8
 2129 099c 40000000 		.4byte	.LFE8
 2130 09a0 00000000 		.4byte	.LLST0
 2131 09a4 01       		.byte	0x1
 2132 09a5 F0090000 		.4byte	0x9f0
 2133 09a9 1B       		.uleb128 0x1b
 2134 09aa 73656D00 		.ascii	"sem\000"
 2135 09ae 01       		.byte	0x1
 2136 09af 4E       		.byte	0x4e
 2137 09b0 F0090000 		.4byte	0x9f0
 2138 09b4 20000000 		.4byte	.LLST1
 2139 09b8 1C       		.uleb128 0x1c
ARM GAS  /var/folders/5n/p_75w94d66l9ssrldxqdhh700000gn/T//ccL7Lleu.s 			page 39


 2140 09b9 77010000 		.4byte	.LASF133
 2141 09bd 01       		.byte	0x1
 2142 09be 4E       		.byte	0x4e
 2143 09bf CF060000 		.4byte	0x6cf
 2144 09c3 3E000000 		.4byte	.LLST2
 2145 09c7 1D       		.uleb128 0x1d
 2146 09c8 0E000000 		.4byte	.LVL3
 2147 09cc 7F0F0000 		.4byte	0xf7f
 2148 09d0 DF090000 		.4byte	0x9df
 2149 09d4 1E       		.uleb128 0x1e
 2150 09d5 01       		.byte	0x1
 2151 09d6 51       		.byte	0x51
 2152 09d7 01       		.byte	0x1
 2153 09d8 3C       		.byte	0x3c
 2154 09d9 1E       		.uleb128 0x1e
 2155 09da 01       		.byte	0x1
 2156 09db 50       		.byte	0x50
 2157 09dc 01       		.byte	0x1
 2158 09dd 30       		.byte	0x30
 2159 09de 00       		.byte	0
 2160 09df 1F       		.uleb128 0x1f
 2161 09e0 18000000 		.4byte	.LVL4
 2162 09e4 9C0F0000 		.4byte	0xf9c
 2163 09e8 1E       		.uleb128 0x1e
 2164 09e9 01       		.byte	0x1
 2165 09ea 51       		.byte	0x51
 2166 09eb 02       		.byte	0x2
 2167 09ec 75       		.byte	0x75
 2168 09ed 00       		.sleb128 0
 2169 09ee 00       		.byte	0
 2170 09ef 00       		.byte	0
 2171 09f0 09       		.uleb128 0x9
 2172 09f1 04       		.byte	0x4
 2173 09f2 11070000 		.4byte	0x711
 2174 09f6 20       		.uleb128 0x20
 2175 09f7 01       		.byte	0x1
 2176 09f8 D2050000 		.4byte	.LASF134
 2177 09fc 01       		.byte	0x1
 2178 09fd 5C       		.byte	0x5c
 2179 09fe 01       		.byte	0x1
 2180 09ff 00000000 		.4byte	.LFB9
 2181 0a03 22000000 		.4byte	.LFE9
 2182 0a07 5F000000 		.4byte	.LLST3
 2183 0a0b 01       		.byte	0x1
 2184 0a0c 290A0000 		.4byte	0xa29
 2185 0a10 1B       		.uleb128 0x1b
 2186 0a11 73656D00 		.ascii	"sem\000"
 2187 0a15 01       		.byte	0x1
 2188 0a16 5C       		.byte	0x5c
 2189 0a17 F0090000 		.4byte	0x9f0
 2190 0a1b 7F000000 		.4byte	.LLST4
 2191 0a1f 21       		.uleb128 0x21
 2192 0a20 0A000000 		.4byte	.LVL7
 2193 0a24 B50F0000 		.4byte	0xfb5
 2194 0a28 00       		.byte	0
 2195 0a29 22       		.uleb128 0x22
 2196 0a2a 01       		.byte	0x1
ARM GAS  /var/folders/5n/p_75w94d66l9ssrldxqdhh700000gn/T//ccL7Lleu.s 			page 40


 2197 0a2b E0010000 		.4byte	.LASF135
 2198 0a2f 01       		.byte	0x1
 2199 0a30 63       		.byte	0x63
 2200 0a31 01       		.byte	0x1
 2201 0a32 00000000 		.4byte	.LFB10
 2202 0a36 06000000 		.4byte	.LFE10
 2203 0a3a 02       		.byte	0x2
 2204 0a3b 7D       		.byte	0x7d
 2205 0a3c 00       		.sleb128 0
 2206 0a3d 01       		.byte	0x1
 2207 0a3e 5C0A0000 		.4byte	0xa5c
 2208 0a42 1B       		.uleb128 0x1b
 2209 0a43 73656D00 		.ascii	"sem\000"
 2210 0a47 01       		.byte	0x1
 2211 0a48 63       		.byte	0x63
 2212 0a49 F0090000 		.4byte	0x9f0
 2213 0a4d 9D000000 		.4byte	.LLST5
 2214 0a51 23       		.uleb128 0x23
 2215 0a52 06000000 		.4byte	.LVL10
 2216 0a56 01       		.byte	0x1
 2217 0a57 C90F0000 		.4byte	0xfc9
 2218 0a5b 00       		.byte	0
 2219 0a5c 1A       		.uleb128 0x1a
 2220 0a5d 01       		.byte	0x1
 2221 0a5e 72050000 		.4byte	.LASF137
 2222 0a62 01       		.byte	0x1
 2223 0a63 68       		.byte	0x68
 2224 0a64 01       		.byte	0x1
 2225 0a65 F0060000 		.4byte	0x6f0
 2226 0a69 00000000 		.4byte	.LFB11
 2227 0a6d 34000000 		.4byte	.LFE11
 2228 0a71 BE000000 		.4byte	.LLST6
 2229 0a75 01       		.byte	0x1
 2230 0a76 0E0B0000 		.4byte	0xb0e
 2231 0a7a 1B       		.uleb128 0x1b
 2232 0a7b 73656D00 		.ascii	"sem\000"
 2233 0a7f 01       		.byte	0x1
 2234 0a80 68       		.byte	0x68
 2235 0a81 F0090000 		.4byte	0x9f0
 2236 0a85 DE000000 		.4byte	.LLST7
 2237 0a89 1C       		.uleb128 0x1c
 2238 0a8a E6040000 		.4byte	.LASF138
 2239 0a8e 01       		.byte	0x1
 2240 0a8f 68       		.byte	0x68
 2241 0a90 F0060000 		.4byte	0x6f0
 2242 0a94 FF000000 		.4byte	.LLST8
 2243 0a98 24       		.uleb128 0x24
 2244 0a99 D3010000 		.4byte	.LASF139
 2245 0a9d 01       		.byte	0x1
 2246 0a9e 69       		.byte	0x69
 2247 0a9f FE000000 		.4byte	0xfe
 2248 0aa3 20010000 		.4byte	.LLST9
 2249 0aa7 25       		.uleb128 0x25
 2250 0aa8 746D6F00 		.ascii	"tmo\000"
 2251 0aac 01       		.byte	0x1
 2252 0aad 69       		.byte	0x69
 2253 0aae FE000000 		.4byte	0xfe
ARM GAS  /var/folders/5n/p_75w94d66l9ssrldxqdhh700000gn/T//ccL7Lleu.s 			page 41


 2254 0ab2 54010000 		.4byte	.LLST10
 2255 0ab6 26       		.uleb128 0x26
 2256 0ab7 02000000 		.4byte	.LBB2
 2257 0abb 08000000 		.4byte	.LBE2
 2258 0abf D30A0000 		.4byte	0xad3
 2259 0ac3 25       		.uleb128 0x25
 2260 0ac4 746D7000 		.ascii	"tmp\000"
 2261 0ac8 01       		.byte	0x1
 2262 0ac9 6B       		.byte	0x6b
 2263 0aca 91000000 		.4byte	0x91
 2264 0ace 99010000 		.4byte	.LLST11
 2265 0ad2 00       		.byte	0
 2266 0ad3 26       		.uleb128 0x26
 2267 0ad4 20000000 		.4byte	.LBB3
 2268 0ad8 26000000 		.4byte	.LBE3
 2269 0adc F00A0000 		.4byte	0xaf0
 2270 0ae0 25       		.uleb128 0x25
 2271 0ae1 746D7000 		.ascii	"tmp\000"
 2272 0ae5 01       		.byte	0x1
 2273 0ae6 72       		.byte	0x72
 2274 0ae7 91000000 		.4byte	0x91
 2275 0aeb AC010000 		.4byte	.LLST12
 2276 0aef 00       		.byte	0
 2277 0af0 1F       		.uleb128 0x1f
 2278 0af1 1A000000 		.4byte	.LVL17
 2279 0af5 DD0F0000 		.4byte	0xfdd
 2280 0af9 1E       		.uleb128 0x1e
 2281 0afa 01       		.byte	0x1
 2282 0afb 51       		.byte	0x51
 2283 0afc 0F       		.byte	0xf
 2284 0afd F3       		.byte	0xf3
 2285 0afe 01       		.uleb128 0x1
 2286 0aff 51       		.byte	0x51
 2287 0b00 09       		.byte	0x9
 2288 0b01 FF       		.byte	0xff
 2289 0b02 F3       		.byte	0xf3
 2290 0b03 01       		.uleb128 0x1
 2291 0b04 51       		.byte	0x51
 2292 0b05 30       		.byte	0x30
 2293 0b06 2E       		.byte	0x2e
 2294 0b07 28       		.byte	0x28
 2295 0b08 0100     		.2byte	0x1
 2296 0b0a 16       		.byte	0x16
 2297 0b0b 13       		.byte	0x13
 2298 0b0c 00       		.byte	0
 2299 0b0d 00       		.byte	0
 2300 0b0e 27       		.uleb128 0x27
 2301 0b0f 01       		.byte	0x1
 2302 0b10 81060000 		.4byte	.LASF140
 2303 0b14 01       		.byte	0x1
 2304 0b15 76       		.byte	0x76
 2305 0b16 01       		.byte	0x1
 2306 0b17 29000000 		.4byte	0x29
 2307 0b1b 00000000 		.4byte	.LFB12
 2308 0b1f 0A000000 		.4byte	.LFE12
 2309 0b23 02       		.byte	0x2
 2310 0b24 7D       		.byte	0x7d
ARM GAS  /var/folders/5n/p_75w94d66l9ssrldxqdhh700000gn/T//ccL7Lleu.s 			page 42


 2311 0b25 00       		.sleb128 0
 2312 0b26 01       		.byte	0x1
 2313 0b27 3B0B0000 		.4byte	0xb3b
 2314 0b2b 1B       		.uleb128 0x1b
 2315 0b2c 73656D00 		.ascii	"sem\000"
 2316 0b30 01       		.byte	0x1
 2317 0b31 76       		.byte	0x76
 2318 0b32 F0090000 		.4byte	0x9f0
 2319 0b36 BF010000 		.4byte	.LLST13
 2320 0b3a 00       		.byte	0
 2321 0b3b 22       		.uleb128 0x22
 2322 0b3c 01       		.byte	0x1
 2323 0b3d 98020000 		.4byte	.LASF141
 2324 0b41 01       		.byte	0x1
 2325 0b42 7C       		.byte	0x7c
 2326 0b43 01       		.byte	0x1
 2327 0b44 00000000 		.4byte	.LFB13
 2328 0b48 06000000 		.4byte	.LFE13
 2329 0b4c 02       		.byte	0x2
 2330 0b4d 7D       		.byte	0x7d
 2331 0b4e 00       		.sleb128 0
 2332 0b4f 01       		.byte	0x1
 2333 0b50 620B0000 		.4byte	0xb62
 2334 0b54 28       		.uleb128 0x28
 2335 0b55 73656D00 		.ascii	"sem\000"
 2336 0b59 01       		.byte	0x1
 2337 0b5a 7C       		.byte	0x7c
 2338 0b5b F0090000 		.4byte	0x9f0
 2339 0b5f 01       		.byte	0x1
 2340 0b60 50       		.byte	0x50
 2341 0b61 00       		.byte	0
 2342 0b62 1A       		.uleb128 0x1a
 2343 0b63 01       		.byte	0x1
 2344 0b64 8F060000 		.4byte	.LASF142
 2345 0b68 01       		.byte	0x1
 2346 0b69 80       		.byte	0x80
 2347 0b6a 01       		.byte	0x1
 2348 0b6b 06070000 		.4byte	0x706
 2349 0b6f 00000000 		.4byte	.LFB14
 2350 0b73 48000000 		.4byte	.LFE14
 2351 0b77 E0010000 		.4byte	.LLST14
 2352 0b7b 01       		.byte	0x1
 2353 0b7c CA0B0000 		.4byte	0xbca
 2354 0b80 1C       		.uleb128 0x1c
 2355 0b81 6D050000 		.4byte	.LASF126
 2356 0b85 01       		.byte	0x1
 2357 0b86 80       		.byte	0x80
 2358 0b87 CA0B0000 		.4byte	0xbca
 2359 0b8b 00020000 		.4byte	.LLST15
 2360 0b8f 1C       		.uleb128 0x1c
 2361 0b90 4F040000 		.4byte	.LASF90
 2362 0b94 01       		.byte	0x1
 2363 0b95 80       		.byte	0x80
 2364 0b96 29000000 		.4byte	0x29
 2365 0b9a 1E020000 		.4byte	.LLST16
 2366 0b9e 1D       		.uleb128 0x1d
 2367 0b9f 12000000 		.4byte	.LVL29
ARM GAS  /var/folders/5n/p_75w94d66l9ssrldxqdhh700000gn/T//ccL7Lleu.s 			page 43


 2368 0ba3 7F0F0000 		.4byte	0xf7f
 2369 0ba7 B90B0000 		.4byte	0xbb9
 2370 0bab 1E       		.uleb128 0x1e
 2371 0bac 01       		.byte	0x1
 2372 0bad 51       		.byte	0x51
 2373 0bae 04       		.byte	0x4
 2374 0baf 74       		.byte	0x74
 2375 0bb0 0A       		.sleb128 10
 2376 0bb1 32       		.byte	0x32
 2377 0bb2 24       		.byte	0x24
 2378 0bb3 1E       		.uleb128 0x1e
 2379 0bb4 01       		.byte	0x1
 2380 0bb5 50       		.byte	0x50
 2381 0bb6 01       		.byte	0x1
 2382 0bb7 30       		.byte	0x30
 2383 0bb8 00       		.byte	0
 2384 0bb9 1F       		.uleb128 0x1f
 2385 0bba 20000000 		.4byte	.LVL30
 2386 0bbe FA0F0000 		.4byte	0xffa
 2387 0bc2 1E       		.uleb128 0x1e
 2388 0bc3 01       		.byte	0x1
 2389 0bc4 52       		.byte	0x52
 2390 0bc5 02       		.byte	0x2
 2391 0bc6 74       		.byte	0x74
 2392 0bc7 00       		.sleb128 0
 2393 0bc8 00       		.byte	0
 2394 0bc9 00       		.byte	0
 2395 0bca 09       		.uleb128 0x9
 2396 0bcb 04       		.byte	0x4
 2397 0bcc 22070000 		.4byte	0x722
 2398 0bd0 20       		.uleb128 0x20
 2399 0bd1 01       		.byte	0x1
 2400 0bd2 FB010000 		.4byte	.LASF143
 2401 0bd6 01       		.byte	0x1
 2402 0bd7 8E       		.byte	0x8e
 2403 0bd8 01       		.byte	0x1
 2404 0bd9 00000000 		.4byte	.LFB15
 2405 0bdd 34000000 		.4byte	.LFE15
 2406 0be1 3C020000 		.4byte	.LLST17
 2407 0be5 01       		.byte	0x1
 2408 0be6 0C0C0000 		.4byte	0xc0c
 2409 0bea 1C       		.uleb128 0x1c
 2410 0beb 6D050000 		.4byte	.LASF126
 2411 0bef 01       		.byte	0x1
 2412 0bf0 8E       		.byte	0x8e
 2413 0bf1 CA0B0000 		.4byte	0xbca
 2414 0bf5 5C020000 		.4byte	.LLST18
 2415 0bf9 21       		.uleb128 0x21
 2416 0bfa 1A000000 		.4byte	.LVL33
 2417 0bfe 18100000 		.4byte	0x1018
 2418 0c02 21       		.uleb128 0x21
 2419 0c03 20000000 		.4byte	.LVL34
 2420 0c07 B50F0000 		.4byte	0xfb5
 2421 0c0b 00       		.byte	0
 2422 0c0c 22       		.uleb128 0x22
 2423 0c0d 01       		.byte	0x1
 2424 0c0e 2F060000 		.4byte	.LASF144
ARM GAS  /var/folders/5n/p_75w94d66l9ssrldxqdhh700000gn/T//ccL7Lleu.s 			page 44


 2425 0c12 01       		.byte	0x1
 2426 0c13 9C       		.byte	0x9c
 2427 0c14 01       		.byte	0x1
 2428 0c15 00000000 		.4byte	.LFB16
 2429 0c19 0A000000 		.4byte	.LFE16
 2430 0c1d 02       		.byte	0x2
 2431 0c1e 7D       		.byte	0x7d
 2432 0c1f 00       		.sleb128 0
 2433 0c20 01       		.byte	0x1
 2434 0c21 5C0C0000 		.4byte	0xc5c
 2435 0c25 1C       		.uleb128 0x1c
 2436 0c26 6D050000 		.4byte	.LASF126
 2437 0c2a 01       		.byte	0x1
 2438 0c2b 9C       		.byte	0x9c
 2439 0c2c CA0B0000 		.4byte	0xbca
 2440 0c30 7A020000 		.4byte	.LLST19
 2441 0c34 1B       		.uleb128 0x1b
 2442 0c35 6D736700 		.ascii	"msg\000"
 2443 0c39 01       		.byte	0x1
 2444 0c3a 9C       		.byte	0x9c
 2445 0c3b 99020000 		.4byte	0x299
 2446 0c3f 9B020000 		.4byte	.LLST20
 2447 0c43 29       		.uleb128 0x29
 2448 0c44 0A000000 		.4byte	.LVL37
 2449 0c48 01       		.byte	0x1
 2450 0c49 2C100000 		.4byte	0x102c
 2451 0c4d 1E       		.uleb128 0x1e
 2452 0c4e 01       		.byte	0x1
 2453 0c4f 52       		.byte	0x52
 2454 0c50 02       		.byte	0x2
 2455 0c51 09       		.byte	0x9
 2456 0c52 FF       		.byte	0xff
 2457 0c53 1E       		.uleb128 0x1e
 2458 0c54 01       		.byte	0x1
 2459 0c55 51       		.byte	0x51
 2460 0c56 03       		.byte	0x3
 2461 0c57 F3       		.byte	0xf3
 2462 0c58 01       		.uleb128 0x1
 2463 0c59 51       		.byte	0x51
 2464 0c5a 00       		.byte	0
 2465 0c5b 00       		.byte	0
 2466 0c5c 1A       		.uleb128 0x1a
 2467 0c5d 01       		.byte	0x1
 2468 0c5e B5040000 		.4byte	.LASF145
 2469 0c62 01       		.byte	0x1
 2470 0c63 A1       		.byte	0xa1
 2471 0c64 01       		.byte	0x1
 2472 0c65 06070000 		.4byte	0x706
 2473 0c69 00000000 		.4byte	.LFB17
 2474 0c6d 28000000 		.4byte	.LFE17
 2475 0c71 BC020000 		.4byte	.LLST21
 2476 0c75 01       		.byte	0x1
 2477 0c76 AF0C0000 		.4byte	0xcaf
 2478 0c7a 1C       		.uleb128 0x1c
 2479 0c7b 6D050000 		.4byte	.LASF126
 2480 0c7f 01       		.byte	0x1
 2481 0c80 A1       		.byte	0xa1
ARM GAS  /var/folders/5n/p_75w94d66l9ssrldxqdhh700000gn/T//ccL7Lleu.s 			page 45


 2482 0c81 CA0B0000 		.4byte	0xbca
 2483 0c85 DC020000 		.4byte	.LLST22
 2484 0c89 1B       		.uleb128 0x1b
 2485 0c8a 6D736700 		.ascii	"msg\000"
 2486 0c8e 01       		.byte	0x1
 2487 0c8f A1       		.byte	0xa1
 2488 0c90 99020000 		.4byte	0x299
 2489 0c94 FD020000 		.4byte	.LLST23
 2490 0c98 1F       		.uleb128 0x1f
 2491 0c99 0A000000 		.4byte	.LVL40
 2492 0c9d 2C100000 		.4byte	0x102c
 2493 0ca1 1E       		.uleb128 0x1e
 2494 0ca2 01       		.byte	0x1
 2495 0ca3 52       		.byte	0x52
 2496 0ca4 01       		.byte	0x1
 2497 0ca5 30       		.byte	0x30
 2498 0ca6 1E       		.uleb128 0x1e
 2499 0ca7 01       		.byte	0x1
 2500 0ca8 51       		.byte	0x51
 2501 0ca9 03       		.byte	0x3
 2502 0caa F3       		.byte	0xf3
 2503 0cab 01       		.uleb128 0x1
 2504 0cac 51       		.byte	0x51
 2505 0cad 00       		.byte	0
 2506 0cae 00       		.byte	0
 2507 0caf 1A       		.uleb128 0x1a
 2508 0cb0 01       		.byte	0x1
 2509 0cb1 99030000 		.4byte	.LASF146
 2510 0cb5 01       		.byte	0x1
 2511 0cb6 AA       		.byte	0xaa
 2512 0cb7 01       		.byte	0x1
 2513 0cb8 F0060000 		.4byte	0x6f0
 2514 0cbc 00000000 		.4byte	.LFB18
 2515 0cc0 34000000 		.4byte	.LFE18
 2516 0cc4 1E030000 		.4byte	.LLST24
 2517 0cc8 01       		.byte	0x1
 2518 0cc9 770D0000 		.4byte	0xd77
 2519 0ccd 1C       		.uleb128 0x1c
 2520 0cce 6D050000 		.4byte	.LASF126
 2521 0cd2 01       		.byte	0x1
 2522 0cd3 AA       		.byte	0xaa
 2523 0cd4 CA0B0000 		.4byte	0xbca
 2524 0cd8 3E030000 		.4byte	.LLST25
 2525 0cdc 1B       		.uleb128 0x1b
 2526 0cdd 6D736700 		.ascii	"msg\000"
 2527 0ce1 01       		.byte	0x1
 2528 0ce2 AA       		.byte	0xaa
 2529 0ce3 770D0000 		.4byte	0xd77
 2530 0ce7 5F030000 		.4byte	.LLST26
 2531 0ceb 1C       		.uleb128 0x1c
 2532 0cec E6040000 		.4byte	.LASF138
 2533 0cf0 01       		.byte	0x1
 2534 0cf1 AA       		.byte	0xaa
 2535 0cf2 F0060000 		.4byte	0x6f0
 2536 0cf6 80030000 		.4byte	.LLST27
 2537 0cfa 24       		.uleb128 0x24
 2538 0cfb D3010000 		.4byte	.LASF139
ARM GAS  /var/folders/5n/p_75w94d66l9ssrldxqdhh700000gn/T//ccL7Lleu.s 			page 46


 2539 0cff 01       		.byte	0x1
 2540 0d00 AB       		.byte	0xab
 2541 0d01 FE000000 		.4byte	0xfe
 2542 0d05 A1030000 		.4byte	.LLST28
 2543 0d09 25       		.uleb128 0x25
 2544 0d0a 746D6F00 		.ascii	"tmo\000"
 2545 0d0e 01       		.byte	0x1
 2546 0d0f AB       		.byte	0xab
 2547 0d10 FE000000 		.4byte	0xfe
 2548 0d14 D5030000 		.4byte	.LLST29
 2549 0d18 26       		.uleb128 0x26
 2550 0d19 02000000 		.4byte	.LBB4
 2551 0d1d 08000000 		.4byte	.LBE4
 2552 0d21 350D0000 		.4byte	0xd35
 2553 0d25 25       		.uleb128 0x25
 2554 0d26 746D7000 		.ascii	"tmp\000"
 2555 0d2a 01       		.byte	0x1
 2556 0d2b AD       		.byte	0xad
 2557 0d2c 91000000 		.4byte	0x91
 2558 0d30 1A040000 		.4byte	.LLST30
 2559 0d34 00       		.byte	0
 2560 0d35 26       		.uleb128 0x26
 2561 0d36 20000000 		.4byte	.LBB5
 2562 0d3a 26000000 		.4byte	.LBE5
 2563 0d3e 520D0000 		.4byte	0xd52
 2564 0d42 25       		.uleb128 0x25
 2565 0d43 746D7000 		.ascii	"tmp\000"
 2566 0d47 01       		.byte	0x1
 2567 0d48 B4       		.byte	0xb4
 2568 0d49 91000000 		.4byte	0x91
 2569 0d4d 2D040000 		.4byte	.LLST31
 2570 0d51 00       		.byte	0
 2571 0d52 1F       		.uleb128 0x1f
 2572 0d53 1A000000 		.4byte	.LVL47
 2573 0d57 4E100000 		.4byte	0x104e
 2574 0d5b 1E       		.uleb128 0x1e
 2575 0d5c 01       		.byte	0x1
 2576 0d5d 52       		.byte	0x52
 2577 0d5e 0F       		.byte	0xf
 2578 0d5f F3       		.byte	0xf3
 2579 0d60 01       		.uleb128 0x1
 2580 0d61 52       		.byte	0x52
 2581 0d62 09       		.byte	0x9
 2582 0d63 FF       		.byte	0xff
 2583 0d64 F3       		.byte	0xf3
 2584 0d65 01       		.uleb128 0x1
 2585 0d66 52       		.byte	0x52
 2586 0d67 30       		.byte	0x30
 2587 0d68 2E       		.byte	0x2e
 2588 0d69 28       		.byte	0x28
 2589 0d6a 0100     		.2byte	0x1
 2590 0d6c 16       		.byte	0x16
 2591 0d6d 13       		.byte	0x13
 2592 0d6e 1E       		.uleb128 0x1e
 2593 0d6f 01       		.byte	0x1
 2594 0d70 51       		.byte	0x51
 2595 0d71 03       		.byte	0x3
ARM GAS  /var/folders/5n/p_75w94d66l9ssrldxqdhh700000gn/T//ccL7Lleu.s 			page 47


 2596 0d72 F3       		.byte	0xf3
 2597 0d73 01       		.uleb128 0x1
 2598 0d74 51       		.byte	0x51
 2599 0d75 00       		.byte	0
 2600 0d76 00       		.byte	0
 2601 0d77 09       		.uleb128 0x9
 2602 0d78 04       		.byte	0x4
 2603 0d79 99020000 		.4byte	0x299
 2604 0d7d 1A       		.uleb128 0x1a
 2605 0d7e 01       		.byte	0x1
 2606 0d7f 38040000 		.4byte	.LASF147
 2607 0d83 01       		.byte	0x1
 2608 0d84 B8       		.byte	0xb8
 2609 0d85 01       		.byte	0x1
 2610 0d86 F0060000 		.4byte	0x6f0
 2611 0d8a 00000000 		.4byte	.LFB19
 2612 0d8e 18000000 		.4byte	.LFE19
 2613 0d92 40040000 		.4byte	.LLST32
 2614 0d96 01       		.byte	0x1
 2615 0d97 D00D0000 		.4byte	0xdd0
 2616 0d9b 1C       		.uleb128 0x1c
 2617 0d9c 6D050000 		.4byte	.LASF126
 2618 0da0 01       		.byte	0x1
 2619 0da1 B8       		.byte	0xb8
 2620 0da2 CA0B0000 		.4byte	0xbca
 2621 0da6 60040000 		.4byte	.LLST33
 2622 0daa 1B       		.uleb128 0x1b
 2623 0dab 6D736700 		.ascii	"msg\000"
 2624 0daf 01       		.byte	0x1
 2625 0db0 B8       		.byte	0xb8
 2626 0db1 770D0000 		.4byte	0xd77
 2627 0db5 81040000 		.4byte	.LLST34
 2628 0db9 1F       		.uleb128 0x1f
 2629 0dba 0A000000 		.4byte	.LVL55
 2630 0dbe 70100000 		.4byte	0x1070
 2631 0dc2 1E       		.uleb128 0x1e
 2632 0dc3 01       		.byte	0x1
 2633 0dc4 52       		.byte	0x52
 2634 0dc5 01       		.byte	0x1
 2635 0dc6 30       		.byte	0x30
 2636 0dc7 1E       		.uleb128 0x1e
 2637 0dc8 01       		.byte	0x1
 2638 0dc9 51       		.byte	0x51
 2639 0dca 03       		.byte	0x3
 2640 0dcb F3       		.byte	0xf3
 2641 0dcc 01       		.uleb128 0x1
 2642 0dcd 51       		.byte	0x51
 2643 0dce 00       		.byte	0
 2644 0dcf 00       		.byte	0
 2645 0dd0 27       		.uleb128 0x27
 2646 0dd1 01       		.byte	0x1
 2647 0dd2 5B040000 		.4byte	.LASF148
 2648 0dd6 01       		.byte	0x1
 2649 0dd7 BF       		.byte	0xbf
 2650 0dd8 01       		.byte	0x1
 2651 0dd9 29000000 		.4byte	0x29
 2652 0ddd 00000000 		.4byte	.LFB20
ARM GAS  /var/folders/5n/p_75w94d66l9ssrldxqdhh700000gn/T//ccL7Lleu.s 			page 48


 2653 0de1 0A000000 		.4byte	.LFE20
 2654 0de5 02       		.byte	0x2
 2655 0de6 7D       		.byte	0x7d
 2656 0de7 00       		.sleb128 0
 2657 0de8 01       		.byte	0x1
 2658 0de9 FD0D0000 		.4byte	0xdfd
 2659 0ded 1C       		.uleb128 0x1c
 2660 0dee 6D050000 		.4byte	.LASF126
 2661 0df2 01       		.byte	0x1
 2662 0df3 BF       		.byte	0xbf
 2663 0df4 CA0B0000 		.4byte	0xbca
 2664 0df8 A2040000 		.4byte	.LLST35
 2665 0dfc 00       		.byte	0
 2666 0dfd 22       		.uleb128 0x22
 2667 0dfe 01       		.byte	0x1
 2668 0dff 66000000 		.4byte	.LASF149
 2669 0e03 01       		.byte	0x1
 2670 0e04 C5       		.byte	0xc5
 2671 0e05 01       		.byte	0x1
 2672 0e06 00000000 		.4byte	.LFB21
 2673 0e0a 06000000 		.4byte	.LFE21
 2674 0e0e 02       		.byte	0x2
 2675 0e0f 7D       		.byte	0x7d
 2676 0e10 00       		.sleb128 0
 2677 0e11 01       		.byte	0x1
 2678 0e12 240E0000 		.4byte	0xe24
 2679 0e16 2A       		.uleb128 0x2a
 2680 0e17 6D050000 		.4byte	.LASF126
 2681 0e1b 01       		.byte	0x1
 2682 0e1c C5       		.byte	0xc5
 2683 0e1d CA0B0000 		.4byte	0xbca
 2684 0e21 01       		.byte	0x1
 2685 0e22 50       		.byte	0x50
 2686 0e23 00       		.byte	0
 2687 0e24 1A       		.uleb128 0x1a
 2688 0e25 01       		.byte	0x1
 2689 0e26 98000000 		.4byte	.LASF150
 2690 0e2a 01       		.byte	0x1
 2691 0e2b C9       		.byte	0xc9
 2692 0e2c 01       		.byte	0x1
 2693 0e2d 33070000 		.4byte	0x733
 2694 0e31 00000000 		.4byte	.LFB22
 2695 0e35 38000000 		.4byte	.LFE22
 2696 0e39 C3040000 		.4byte	.LLST36
 2697 0e3d 01       		.byte	0x1
 2698 0e3e E10E0000 		.4byte	0xee1
 2699 0e42 1C       		.uleb128 0x1c
 2700 0e43 A7050000 		.4byte	.LASF151
 2701 0e47 01       		.byte	0x1
 2702 0e48 C9       		.byte	0xc9
 2703 0e49 96060000 		.4byte	0x696
 2704 0e4d E3040000 		.4byte	.LLST37
 2705 0e51 1C       		.uleb128 0x1c
 2706 0e52 20060000 		.4byte	.LASF152
 2707 0e56 01       		.byte	0x1
 2708 0e57 C9       		.byte	0xc9
 2709 0e58 49070000 		.4byte	0x749
ARM GAS  /var/folders/5n/p_75w94d66l9ssrldxqdhh700000gn/T//ccL7Lleu.s 			page 49


 2710 0e5c 10050000 		.4byte	.LLST38
 2711 0e60 1B       		.uleb128 0x1b
 2712 0e61 61726700 		.ascii	"arg\000"
 2713 0e65 01       		.byte	0x1
 2714 0e66 CA       		.byte	0xca
 2715 0e67 99020000 		.4byte	0x299
 2716 0e6b 2E050000 		.4byte	.LLST39
 2717 0e6f 1C       		.uleb128 0x1c
 2718 0e70 5D030000 		.4byte	.LASF153
 2719 0e74 01       		.byte	0x1
 2720 0e75 CA       		.byte	0xca
 2721 0e76 29000000 		.4byte	0x29
 2722 0e7a 4C050000 		.4byte	.LLST40
 2723 0e7e 2A       		.uleb128 0x2a
 2724 0e7f BC020000 		.4byte	.LASF154
 2725 0e83 01       		.byte	0x1
 2726 0e84 CA       		.byte	0xca
 2727 0e85 29000000 		.4byte	0x29
 2728 0e89 02       		.byte	0x2
 2729 0e8a 91       		.byte	0x91
 2730 0e8b 00       		.sleb128 0
 2731 0e8c 2B       		.uleb128 0x2b
 2732 0e8d 77737A00 		.ascii	"wsz\000"
 2733 0e91 01       		.byte	0x1
 2734 0e92 CD       		.byte	0xcd
 2735 0e93 30000000 		.4byte	0x30
 2736 0e97 01       		.byte	0x1
 2737 0e98 54       		.byte	0x54
 2738 0e99 25       		.uleb128 0x25
 2739 0e9a 77737000 		.ascii	"wsp\000"
 2740 0e9e 01       		.byte	0x1
 2741 0e9f CE       		.byte	0xce
 2742 0ea0 99020000 		.4byte	0x299
 2743 0ea4 7B050000 		.4byte	.LLST41
 2744 0ea8 1D       		.uleb128 0x1d
 2745 0ea9 1E000000 		.4byte	.LVL64
 2746 0ead 92100000 		.4byte	0x1092
 2747 0eb1 BC0E0000 		.4byte	0xebc
 2748 0eb5 1E       		.uleb128 0x1e
 2749 0eb6 01       		.byte	0x1
 2750 0eb7 50       		.byte	0x50
 2751 0eb8 02       		.byte	0x2
 2752 0eb9 74       		.byte	0x74
 2753 0eba 00       		.sleb128 0
 2754 0ebb 00       		.byte	0
 2755 0ebc 29       		.uleb128 0x29
 2756 0ebd 30000000 		.4byte	.LVL65
 2757 0ec1 01       		.byte	0x1
 2758 0ec2 AA100000 		.4byte	0x10aa
 2759 0ec6 1E       		.uleb128 0x1e
 2760 0ec7 01       		.byte	0x1
 2761 0ec8 53       		.byte	0x53
 2762 0ec9 02       		.byte	0x2
 2763 0eca 75       		.byte	0x75
 2764 0ecb 00       		.sleb128 0
 2765 0ecc 1E       		.uleb128 0x1e
 2766 0ecd 01       		.byte	0x1
ARM GAS  /var/folders/5n/p_75w94d66l9ssrldxqdhh700000gn/T//ccL7Lleu.s 			page 50


 2767 0ece 52       		.byte	0x52
 2768 0ecf 02       		.byte	0x2
 2769 0ed0 76       		.byte	0x76
 2770 0ed1 00       		.sleb128 0
 2771 0ed2 1E       		.uleb128 0x1e
 2772 0ed3 01       		.byte	0x1
 2773 0ed4 51       		.byte	0x51
 2774 0ed5 02       		.byte	0x2
 2775 0ed6 74       		.byte	0x74
 2776 0ed7 00       		.sleb128 0
 2777 0ed8 1E       		.uleb128 0x1e
 2778 0ed9 02       		.byte	0x2
 2779 0eda 91       		.byte	0x91
 2780 0edb 00       		.sleb128 0
 2781 0edc 02       		.byte	0x2
 2782 0edd 77       		.byte	0x77
 2783 0ede 00       		.sleb128 0
 2784 0edf 00       		.byte	0
 2785 0ee0 00       		.byte	0
 2786 0ee1 27       		.uleb128 0x27
 2787 0ee2 01       		.byte	0x1
 2788 0ee3 C1050000 		.4byte	.LASF155
 2789 0ee7 01       		.byte	0x1
 2790 0ee8 D4       		.byte	0xd4
 2791 0ee9 01       		.byte	0x1
 2792 0eea 3E070000 		.4byte	0x73e
 2793 0eee 00000000 		.4byte	.LFB23
 2794 0ef2 0A000000 		.4byte	.LFE23
 2795 0ef6 02       		.byte	0x2
 2796 0ef7 7D       		.byte	0x7d
 2797 0ef8 00       		.sleb128 0
 2798 0ef9 01       		.byte	0x1
 2799 0efa 180F0000 		.4byte	0xf18
 2800 0efe 2C       		.uleb128 0x2c
 2801 0eff 00000000 		.4byte	.LBB6
 2802 0f03 06000000 		.4byte	.LBE6
 2803 0f07 25       		.uleb128 0x25
 2804 0f08 746D7000 		.ascii	"tmp\000"
 2805 0f0c 01       		.byte	0x1
 2806 0f0d D6       		.byte	0xd6
 2807 0f0e 91000000 		.4byte	0x91
 2808 0f12 99050000 		.4byte	.LLST42
 2809 0f16 00       		.byte	0
 2810 0f17 00       		.byte	0
 2811 0f18 22       		.uleb128 0x22
 2812 0f19 01       		.byte	0x1
 2813 0f1a FF000000 		.4byte	.LASF156
 2814 0f1e 01       		.byte	0x1
 2815 0f1f DA       		.byte	0xda
 2816 0f20 01       		.byte	0x1
 2817 0f21 00000000 		.4byte	.LFB24
 2818 0f25 08000000 		.4byte	.LFE24
 2819 0f29 02       		.byte	0x2
 2820 0f2a 7D       		.byte	0x7d
 2821 0f2b 00       		.sleb128 0
 2822 0f2c 01       		.byte	0x1
 2823 0f2d 580F0000 		.4byte	0xf58
ARM GAS  /var/folders/5n/p_75w94d66l9ssrldxqdhh700000gn/T//ccL7Lleu.s 			page 51


 2824 0f31 2A       		.uleb128 0x2a
 2825 0f32 58030000 		.4byte	.LASF157
 2826 0f36 01       		.byte	0x1
 2827 0f37 DA       		.byte	0xda
 2828 0f38 3E070000 		.4byte	0x73e
 2829 0f3c 01       		.byte	0x1
 2830 0f3d 50       		.byte	0x50
 2831 0f3e 2C       		.uleb128 0x2c
 2832 0f3f 00000000 		.4byte	.LBB7
 2833 0f43 08000000 		.4byte	.LBE7
 2834 0f47 25       		.uleb128 0x25
 2835 0f48 746D7000 		.ascii	"tmp\000"
 2836 0f4c 01       		.byte	0x1
 2837 0f4d DD       		.byte	0xdd
 2838 0f4e 91000000 		.4byte	0x91
 2839 0f52 AC050000 		.4byte	.LLST43
 2840 0f56 00       		.byte	0
 2841 0f57 00       		.byte	0
 2842 0f58 2D       		.uleb128 0x2d
 2843 0f59 C0000000 		.4byte	.LASF158
 2844 0f5d 08       		.byte	0x8
 2845 0f5e 7A       		.byte	0x7a
 2846 0f5f 24040000 		.4byte	0x424
 2847 0f63 01       		.byte	0x1
 2848 0f64 01       		.byte	0x1
 2849 0f65 2D       		.uleb128 0x2d
 2850 0f66 92010000 		.4byte	.LASF159
 2851 0f6a 09       		.byte	0x9
 2852 0f6b 72       		.byte	0x72
 2853 0f6c 9A040000 		.4byte	0x49a
 2854 0f70 01       		.byte	0x1
 2855 0f71 01       		.byte	0x1
 2856 0f72 2D       		.uleb128 0x2d
 2857 0f73 E0000000 		.4byte	.LASF160
 2858 0f77 14       		.byte	0x14
 2859 0f78 95       		.byte	0x95
 2860 0f79 C9080000 		.4byte	0x8c9
 2861 0f7d 01       		.byte	0x1
 2862 0f7e 01       		.byte	0x1
 2863 0f7f 2E       		.uleb128 0x2e
 2864 0f80 01       		.byte	0x1
 2865 0f81 67030000 		.4byte	.LASF164
 2866 0f85 0E       		.byte	0xe
 2867 0f86 59       		.byte	0x59
 2868 0f87 01       		.byte	0x1
 2869 0f88 99020000 		.4byte	0x299
 2870 0f8c 01       		.byte	0x1
 2871 0f8d 9C0F0000 		.4byte	0xf9c
 2872 0f91 0E       		.uleb128 0xe
 2873 0f92 38060000 		.4byte	0x638
 2874 0f96 0E       		.uleb128 0xe
 2875 0f97 30000000 		.4byte	0x30
 2876 0f9b 00       		.byte	0
 2877 0f9c 2F       		.uleb128 0x2f
 2878 0f9d 01       		.byte	0x1
 2879 0f9e 7C020000 		.4byte	.LASF161
 2880 0fa2 0A       		.byte	0xa
ARM GAS  /var/folders/5n/p_75w94d66l9ssrldxqdhh700000gn/T//ccL7Lleu.s 			page 52


 2881 0fa3 35       		.byte	0x35
 2882 0fa4 01       		.byte	0x1
 2883 0fa5 01       		.byte	0x1
 2884 0fa6 B50F0000 		.4byte	0xfb5
 2885 0faa 0E       		.uleb128 0xe
 2886 0fab 1C070000 		.4byte	0x71c
 2887 0faf 0E       		.uleb128 0xe
 2888 0fb0 09010000 		.4byte	0x109
 2889 0fb4 00       		.byte	0
 2890 0fb5 2F       		.uleb128 0x2f
 2891 0fb6 01       		.byte	0x1
 2892 0fb7 C7030000 		.4byte	.LASF162
 2893 0fbb 0E       		.byte	0xe
 2894 0fbc 5A       		.byte	0x5a
 2895 0fbd 01       		.byte	0x1
 2896 0fbe 01       		.byte	0x1
 2897 0fbf C90F0000 		.4byte	0xfc9
 2898 0fc3 0E       		.uleb128 0xe
 2899 0fc4 99020000 		.4byte	0x299
 2900 0fc8 00       		.byte	0
 2901 0fc9 2F       		.uleb128 0x2f
 2902 0fca 01       		.byte	0x1
 2903 0fcb B5050000 		.4byte	.LASF163
 2904 0fcf 0A       		.byte	0xa
 2905 0fd0 3C       		.byte	0x3c
 2906 0fd1 01       		.byte	0x1
 2907 0fd2 01       		.byte	0x1
 2908 0fd3 DD0F0000 		.4byte	0xfdd
 2909 0fd7 0E       		.uleb128 0xe
 2910 0fd8 1C070000 		.4byte	0x71c
 2911 0fdc 00       		.byte	0
 2912 0fdd 2E       		.uleb128 0x2e
 2913 0fde 01       		.byte	0x1
 2914 0fdf 09020000 		.4byte	.LASF165
 2915 0fe3 0A       		.byte	0xa
 2916 0fe4 3B       		.byte	0x3b
 2917 0fe5 01       		.byte	0x1
 2918 0fe6 E8000000 		.4byte	0xe8
 2919 0fea 01       		.byte	0x1
 2920 0feb FA0F0000 		.4byte	0xffa
 2921 0fef 0E       		.uleb128 0xe
 2922 0ff0 1C070000 		.4byte	0x71c
 2923 0ff4 0E       		.uleb128 0xe
 2924 0ff5 FE000000 		.4byte	0xfe
 2925 0ff9 00       		.byte	0
 2926 0ffa 2F       		.uleb128 0x2f
 2927 0ffb 01       		.byte	0x1
 2928 0ffc AC050000 		.4byte	.LASF166
 2929 1000 0C       		.byte	0xc
 2930 1001 43       		.byte	0x43
 2931 1002 01       		.byte	0x1
 2932 1003 01       		.byte	0x1
 2933 1004 18100000 		.4byte	0x1018
 2934 1008 0E       		.uleb128 0xe
 2935 1009 2D070000 		.4byte	0x72d
 2936 100d 0E       		.uleb128 0xe
 2937 100e 7E050000 		.4byte	0x57e
ARM GAS  /var/folders/5n/p_75w94d66l9ssrldxqdhh700000gn/T//ccL7Lleu.s 			page 53


 2938 1012 0E       		.uleb128 0xe
 2939 1013 09010000 		.4byte	0x109
 2940 1017 00       		.byte	0
 2941 1018 2F       		.uleb128 0x2f
 2942 1019 01       		.byte	0x1
 2943 101a 12010000 		.4byte	.LASF167
 2944 101e 0C       		.byte	0xc
 2945 101f 44       		.byte	0x44
 2946 1020 01       		.byte	0x1
 2947 1021 01       		.byte	0x1
 2948 1022 2C100000 		.4byte	0x102c
 2949 1026 0E       		.uleb128 0xe
 2950 1027 2D070000 		.4byte	0x72d
 2951 102b 00       		.byte	0
 2952 102c 2E       		.uleb128 0x2e
 2953 102d 01       		.byte	0x1
 2954 102e 6B060000 		.4byte	.LASF168
 2955 1032 0C       		.byte	0xc
 2956 1033 45       		.byte	0x45
 2957 1034 01       		.byte	0x1
 2958 1035 E8000000 		.4byte	0xe8
 2959 1039 01       		.byte	0x1
 2960 103a 4E100000 		.4byte	0x104e
 2961 103e 0E       		.uleb128 0xe
 2962 103f 2D070000 		.4byte	0x72d
 2963 1043 0E       		.uleb128 0xe
 2964 1044 E8000000 		.4byte	0xe8
 2965 1048 0E       		.uleb128 0xe
 2966 1049 FE000000 		.4byte	0xfe
 2967 104d 00       		.byte	0
 2968 104e 2E       		.uleb128 0x2e
 2969 104f 01       		.byte	0x1
 2970 1050 AA040000 		.4byte	.LASF169
 2971 1054 0C       		.byte	0xc
 2972 1055 4C       		.byte	0x4c
 2973 1056 01       		.byte	0x1
 2974 1057 E8000000 		.4byte	0xe8
 2975 105b 01       		.byte	0x1
 2976 105c 70100000 		.4byte	0x1070
 2977 1060 0E       		.uleb128 0xe
 2978 1061 2D070000 		.4byte	0x72d
 2979 1065 0E       		.uleb128 0xe
 2980 1066 7E050000 		.4byte	0x57e
 2981 106a 0E       		.uleb128 0xe
 2982 106b FE000000 		.4byte	0xfe
 2983 106f 00       		.byte	0
 2984 1070 2E       		.uleb128 0x2e
 2985 1071 01       		.byte	0x1
 2986 1072 C6040000 		.4byte	.LASF170
 2987 1076 0C       		.byte	0xc
 2988 1077 4B       		.byte	0x4b
 2989 1078 01       		.byte	0x1
 2990 1079 E8000000 		.4byte	0xe8
 2991 107d 01       		.byte	0x1
 2992 107e 92100000 		.4byte	0x1092
 2993 1082 0E       		.uleb128 0xe
 2994 1083 2D070000 		.4byte	0x72d
ARM GAS  /var/folders/5n/p_75w94d66l9ssrldxqdhh700000gn/T//ccL7Lleu.s 			page 54


 2995 1087 0E       		.uleb128 0xe
 2996 1088 7E050000 		.4byte	0x57e
 2997 108c 0E       		.uleb128 0xe
 2998 108d FE000000 		.4byte	0xfe
 2999 1091 00       		.byte	0
 3000 1092 2E       		.uleb128 0x2e
 3001 1093 01       		.byte	0x1
 3002 1094 39030000 		.4byte	.LASF171
 3003 1098 0D       		.byte	0xd
 3004 1099 52       		.byte	0x52
 3005 109a 01       		.byte	0x1
 3006 109b 99020000 		.4byte	0x299
 3007 109f 01       		.byte	0x1
 3008 10a0 AA100000 		.4byte	0x10aa
 3009 10a4 0E       		.uleb128 0xe
 3010 10a5 30000000 		.4byte	0x30
 3011 10a9 00       		.byte	0
 3012 10aa 30       		.uleb128 0x30
 3013 10ab 01       		.byte	0x1
 3014 10ac 8A040000 		.4byte	.LASF172
 3015 10b0 06       		.byte	0x6
 3016 10b1 6401     		.2byte	0x164
 3017 10b3 01       		.byte	0x1
 3018 10b4 5B020000 		.4byte	0x25b
 3019 10b8 01       		.byte	0x1
 3020 10b9 0E       		.uleb128 0xe
 3021 10ba 99020000 		.4byte	0x299
 3022 10be 0E       		.uleb128 0xe
 3023 10bf 30000000 		.4byte	0x30
 3024 10c3 0E       		.uleb128 0xe
 3025 10c4 DD000000 		.4byte	0xdd
 3026 10c8 0E       		.uleb128 0xe
 3027 10c9 AE060000 		.4byte	0x6ae
 3028 10cd 0E       		.uleb128 0xe
 3029 10ce 99020000 		.4byte	0x299
 3030 10d2 00       		.byte	0
 3031 10d3 00       		.byte	0
 3032              		.section	.debug_abbrev,"",%progbits
 3033              	.Ldebug_abbrev0:
 3034 0000 01       		.uleb128 0x1
 3035 0001 11       		.uleb128 0x11
 3036 0002 01       		.byte	0x1
 3037 0003 25       		.uleb128 0x25
 3038 0004 0E       		.uleb128 0xe
 3039 0005 13       		.uleb128 0x13
 3040 0006 0B       		.uleb128 0xb
 3041 0007 03       		.uleb128 0x3
 3042 0008 0E       		.uleb128 0xe
 3043 0009 1B       		.uleb128 0x1b
 3044 000a 0E       		.uleb128 0xe
 3045 000b 55       		.uleb128 0x55
 3046 000c 06       		.uleb128 0x6
 3047 000d 11       		.uleb128 0x11
 3048 000e 01       		.uleb128 0x1
 3049 000f 52       		.uleb128 0x52
 3050 0010 01       		.uleb128 0x1
 3051 0011 10       		.uleb128 0x10
ARM GAS  /var/folders/5n/p_75w94d66l9ssrldxqdhh700000gn/T//ccL7Lleu.s 			page 55


 3052 0012 06       		.uleb128 0x6
 3053 0013 00       		.byte	0
 3054 0014 00       		.byte	0
 3055 0015 02       		.uleb128 0x2
 3056 0016 24       		.uleb128 0x24
 3057 0017 00       		.byte	0
 3058 0018 0B       		.uleb128 0xb
 3059 0019 0B       		.uleb128 0xb
 3060 001a 3E       		.uleb128 0x3e
 3061 001b 0B       		.uleb128 0xb
 3062 001c 03       		.uleb128 0x3
 3063 001d 08       		.uleb128 0x8
 3064 001e 00       		.byte	0
 3065 001f 00       		.byte	0
 3066 0020 03       		.uleb128 0x3
 3067 0021 16       		.uleb128 0x16
 3068 0022 00       		.byte	0
 3069 0023 03       		.uleb128 0x3
 3070 0024 0E       		.uleb128 0xe
 3071 0025 3A       		.uleb128 0x3a
 3072 0026 0B       		.uleb128 0xb
 3073 0027 3B       		.uleb128 0x3b
 3074 0028 0B       		.uleb128 0xb
 3075 0029 49       		.uleb128 0x49
 3076 002a 13       		.uleb128 0x13
 3077 002b 00       		.byte	0
 3078 002c 00       		.byte	0
 3079 002d 04       		.uleb128 0x4
 3080 002e 24       		.uleb128 0x24
 3081 002f 00       		.byte	0
 3082 0030 0B       		.uleb128 0xb
 3083 0031 0B       		.uleb128 0xb
 3084 0032 3E       		.uleb128 0x3e
 3085 0033 0B       		.uleb128 0xb
 3086 0034 03       		.uleb128 0x3
 3087 0035 0E       		.uleb128 0xe
 3088 0036 00       		.byte	0
 3089 0037 00       		.byte	0
 3090 0038 05       		.uleb128 0x5
 3091 0039 13       		.uleb128 0x13
 3092 003a 01       		.byte	0x1
 3093 003b 03       		.uleb128 0x3
 3094 003c 0E       		.uleb128 0xe
 3095 003d 0B       		.uleb128 0xb
 3096 003e 0B       		.uleb128 0xb
 3097 003f 3A       		.uleb128 0x3a
 3098 0040 0B       		.uleb128 0xb
 3099 0041 3B       		.uleb128 0x3b
 3100 0042 0B       		.uleb128 0xb
 3101 0043 01       		.uleb128 0x1
 3102 0044 13       		.uleb128 0x13
 3103 0045 00       		.byte	0
 3104 0046 00       		.byte	0
 3105 0047 06       		.uleb128 0x6
 3106 0048 0D       		.uleb128 0xd
 3107 0049 00       		.byte	0
 3108 004a 03       		.uleb128 0x3
ARM GAS  /var/folders/5n/p_75w94d66l9ssrldxqdhh700000gn/T//ccL7Lleu.s 			page 56


 3109 004b 0E       		.uleb128 0xe
 3110 004c 3A       		.uleb128 0x3a
 3111 004d 0B       		.uleb128 0xb
 3112 004e 3B       		.uleb128 0x3b
 3113 004f 0B       		.uleb128 0xb
 3114 0050 49       		.uleb128 0x49
 3115 0051 13       		.uleb128 0x13
 3116 0052 38       		.uleb128 0x38
 3117 0053 0A       		.uleb128 0xa
 3118 0054 00       		.byte	0
 3119 0055 00       		.byte	0
 3120 0056 07       		.uleb128 0x7
 3121 0057 0D       		.uleb128 0xd
 3122 0058 00       		.byte	0
 3123 0059 03       		.uleb128 0x3
 3124 005a 08       		.uleb128 0x8
 3125 005b 3A       		.uleb128 0x3a
 3126 005c 0B       		.uleb128 0xb
 3127 005d 3B       		.uleb128 0x3b
 3128 005e 0B       		.uleb128 0xb
 3129 005f 49       		.uleb128 0x49
 3130 0060 13       		.uleb128 0x13
 3131 0061 38       		.uleb128 0x38
 3132 0062 0A       		.uleb128 0xa
 3133 0063 00       		.byte	0
 3134 0064 00       		.byte	0
 3135 0065 08       		.uleb128 0x8
 3136 0066 13       		.uleb128 0x13
 3137 0067 01       		.byte	0x1
 3138 0068 0B       		.uleb128 0xb
 3139 0069 0B       		.uleb128 0xb
 3140 006a 3A       		.uleb128 0x3a
 3141 006b 0B       		.uleb128 0xb
 3142 006c 3B       		.uleb128 0x3b
 3143 006d 0B       		.uleb128 0xb
 3144 006e 01       		.uleb128 0x1
 3145 006f 13       		.uleb128 0x13
 3146 0070 00       		.byte	0
 3147 0071 00       		.byte	0
 3148 0072 09       		.uleb128 0x9
 3149 0073 0F       		.uleb128 0xf
 3150 0074 00       		.byte	0
 3151 0075 0B       		.uleb128 0xb
 3152 0076 0B       		.uleb128 0xb
 3153 0077 49       		.uleb128 0x49
 3154 0078 13       		.uleb128 0x13
 3155 0079 00       		.byte	0
 3156 007a 00       		.byte	0
 3157 007b 0A       		.uleb128 0xa
 3158 007c 0F       		.uleb128 0xf
 3159 007d 00       		.byte	0
 3160 007e 0B       		.uleb128 0xb
 3161 007f 0B       		.uleb128 0xb
 3162 0080 00       		.byte	0
 3163 0081 00       		.byte	0
 3164 0082 0B       		.uleb128 0xb
 3165 0083 0D       		.uleb128 0xd
ARM GAS  /var/folders/5n/p_75w94d66l9ssrldxqdhh700000gn/T//ccL7Lleu.s 			page 57


 3166 0084 00       		.byte	0
 3167 0085 03       		.uleb128 0x3
 3168 0086 08       		.uleb128 0x8
 3169 0087 3A       		.uleb128 0x3a
 3170 0088 0B       		.uleb128 0xb
 3171 0089 3B       		.uleb128 0x3b
 3172 008a 05       		.uleb128 0x5
 3173 008b 49       		.uleb128 0x49
 3174 008c 13       		.uleb128 0x13
 3175 008d 38       		.uleb128 0x38
 3176 008e 0A       		.uleb128 0xa
 3177 008f 00       		.byte	0
 3178 0090 00       		.byte	0
 3179 0091 0C       		.uleb128 0xc
 3180 0092 13       		.uleb128 0x13
 3181 0093 01       		.byte	0x1
 3182 0094 03       		.uleb128 0x3
 3183 0095 0E       		.uleb128 0xe
 3184 0096 0B       		.uleb128 0xb
 3185 0097 0B       		.uleb128 0xb
 3186 0098 3A       		.uleb128 0x3a
 3187 0099 0B       		.uleb128 0xb
 3188 009a 3B       		.uleb128 0x3b
 3189 009b 05       		.uleb128 0x5
 3190 009c 01       		.uleb128 0x1
 3191 009d 13       		.uleb128 0x13
 3192 009e 00       		.byte	0
 3193 009f 00       		.byte	0
 3194 00a0 0D       		.uleb128 0xd
 3195 00a1 15       		.uleb128 0x15
 3196 00a2 01       		.byte	0x1
 3197 00a3 27       		.uleb128 0x27
 3198 00a4 0C       		.uleb128 0xc
 3199 00a5 01       		.uleb128 0x1
 3200 00a6 13       		.uleb128 0x13
 3201 00a7 00       		.byte	0
 3202 00a8 00       		.byte	0
 3203 00a9 0E       		.uleb128 0xe
 3204 00aa 05       		.uleb128 0x5
 3205 00ab 00       		.byte	0
 3206 00ac 49       		.uleb128 0x49
 3207 00ad 13       		.uleb128 0x13
 3208 00ae 00       		.byte	0
 3209 00af 00       		.byte	0
 3210 00b0 0F       		.uleb128 0xf
 3211 00b1 35       		.uleb128 0x35
 3212 00b2 00       		.byte	0
 3213 00b3 49       		.uleb128 0x49
 3214 00b4 13       		.uleb128 0x13
 3215 00b5 00       		.byte	0
 3216 00b6 00       		.byte	0
 3217 00b7 10       		.uleb128 0x10
 3218 00b8 15       		.uleb128 0x15
 3219 00b9 01       		.byte	0x1
 3220 00ba 27       		.uleb128 0x27
 3221 00bb 0C       		.uleb128 0xc
 3222 00bc 49       		.uleb128 0x49
ARM GAS  /var/folders/5n/p_75w94d66l9ssrldxqdhh700000gn/T//ccL7Lleu.s 			page 58


 3223 00bd 13       		.uleb128 0x13
 3224 00be 01       		.uleb128 0x1
 3225 00bf 13       		.uleb128 0x13
 3226 00c0 00       		.byte	0
 3227 00c1 00       		.byte	0
 3228 00c2 11       		.uleb128 0x11
 3229 00c3 17       		.uleb128 0x17
 3230 00c4 01       		.byte	0x1
 3231 00c5 0B       		.uleb128 0xb
 3232 00c6 0B       		.uleb128 0xb
 3233 00c7 3A       		.uleb128 0x3a
 3234 00c8 0B       		.uleb128 0xb
 3235 00c9 3B       		.uleb128 0x3b
 3236 00ca 0B       		.uleb128 0xb
 3237 00cb 01       		.uleb128 0x1
 3238 00cc 13       		.uleb128 0x13
 3239 00cd 00       		.byte	0
 3240 00ce 00       		.byte	0
 3241 00cf 12       		.uleb128 0x12
 3242 00d0 0D       		.uleb128 0xd
 3243 00d1 00       		.byte	0
 3244 00d2 03       		.uleb128 0x3
 3245 00d3 0E       		.uleb128 0xe
 3246 00d4 3A       		.uleb128 0x3a
 3247 00d5 0B       		.uleb128 0xb
 3248 00d6 3B       		.uleb128 0x3b
 3249 00d7 0B       		.uleb128 0xb
 3250 00d8 49       		.uleb128 0x49
 3251 00d9 13       		.uleb128 0x13
 3252 00da 00       		.byte	0
 3253 00db 00       		.byte	0
 3254 00dc 13       		.uleb128 0x13
 3255 00dd 17       		.uleb128 0x17
 3256 00de 01       		.byte	0x1
 3257 00df 03       		.uleb128 0x3
 3258 00e0 0E       		.uleb128 0xe
 3259 00e1 0B       		.uleb128 0xb
 3260 00e2 0B       		.uleb128 0xb
 3261 00e3 3A       		.uleb128 0x3a
 3262 00e4 0B       		.uleb128 0xb
 3263 00e5 3B       		.uleb128 0x3b
 3264 00e6 0B       		.uleb128 0xb
 3265 00e7 01       		.uleb128 0x1
 3266 00e8 13       		.uleb128 0x13
 3267 00e9 00       		.byte	0
 3268 00ea 00       		.byte	0
 3269 00eb 14       		.uleb128 0x14
 3270 00ec 0D       		.uleb128 0xd
 3271 00ed 00       		.byte	0
 3272 00ee 03       		.uleb128 0x3
 3273 00ef 08       		.uleb128 0x8
 3274 00f0 3A       		.uleb128 0x3a
 3275 00f1 0B       		.uleb128 0xb
 3276 00f2 3B       		.uleb128 0x3b
 3277 00f3 0B       		.uleb128 0xb
 3278 00f4 49       		.uleb128 0x49
 3279 00f5 13       		.uleb128 0x13
ARM GAS  /var/folders/5n/p_75w94d66l9ssrldxqdhh700000gn/T//ccL7Lleu.s 			page 59


 3280 00f6 00       		.byte	0
 3281 00f7 00       		.byte	0
 3282 00f8 15       		.uleb128 0x15
 3283 00f9 26       		.uleb128 0x26
 3284 00fa 00       		.byte	0
 3285 00fb 49       		.uleb128 0x49
 3286 00fc 13       		.uleb128 0x13
 3287 00fd 00       		.byte	0
 3288 00fe 00       		.byte	0
 3289 00ff 16       		.uleb128 0x16
 3290 0100 13       		.uleb128 0x13
 3291 0101 01       		.byte	0x1
 3292 0102 03       		.uleb128 0x3
 3293 0103 0E       		.uleb128 0xe
 3294 0104 0B       		.uleb128 0xb
 3295 0105 05       		.uleb128 0x5
 3296 0106 3A       		.uleb128 0x3a
 3297 0107 0B       		.uleb128 0xb
 3298 0108 3B       		.uleb128 0x3b
 3299 0109 0B       		.uleb128 0xb
 3300 010a 01       		.uleb128 0x1
 3301 010b 13       		.uleb128 0x13
 3302 010c 00       		.byte	0
 3303 010d 00       		.byte	0
 3304 010e 17       		.uleb128 0x17
 3305 010f 01       		.uleb128 0x1
 3306 0110 01       		.byte	0x1
 3307 0111 49       		.uleb128 0x49
 3308 0112 13       		.uleb128 0x13
 3309 0113 01       		.uleb128 0x1
 3310 0114 13       		.uleb128 0x13
 3311 0115 00       		.byte	0
 3312 0116 00       		.byte	0
 3313 0117 18       		.uleb128 0x18
 3314 0118 21       		.uleb128 0x21
 3315 0119 00       		.byte	0
 3316 011a 49       		.uleb128 0x49
 3317 011b 13       		.uleb128 0x13
 3318 011c 2F       		.uleb128 0x2f
 3319 011d 0B       		.uleb128 0xb
 3320 011e 00       		.byte	0
 3321 011f 00       		.byte	0
 3322 0120 19       		.uleb128 0x19
 3323 0121 2E       		.uleb128 0x2e
 3324 0122 00       		.byte	0
 3325 0123 3F       		.uleb128 0x3f
 3326 0124 0C       		.uleb128 0xc
 3327 0125 03       		.uleb128 0x3
 3328 0126 0E       		.uleb128 0xe
 3329 0127 3A       		.uleb128 0x3a
 3330 0128 0B       		.uleb128 0xb
 3331 0129 3B       		.uleb128 0x3b
 3332 012a 0B       		.uleb128 0xb
 3333 012b 27       		.uleb128 0x27
 3334 012c 0C       		.uleb128 0xc
 3335 012d 11       		.uleb128 0x11
 3336 012e 01       		.uleb128 0x1
ARM GAS  /var/folders/5n/p_75w94d66l9ssrldxqdhh700000gn/T//ccL7Lleu.s 			page 60


 3337 012f 12       		.uleb128 0x12
 3338 0130 01       		.uleb128 0x1
 3339 0131 40       		.uleb128 0x40
 3340 0132 0A       		.uleb128 0xa
 3341 0133 9742     		.uleb128 0x2117
 3342 0135 0C       		.uleb128 0xc
 3343 0136 00       		.byte	0
 3344 0137 00       		.byte	0
 3345 0138 1A       		.uleb128 0x1a
 3346 0139 2E       		.uleb128 0x2e
 3347 013a 01       		.byte	0x1
 3348 013b 3F       		.uleb128 0x3f
 3349 013c 0C       		.uleb128 0xc
 3350 013d 03       		.uleb128 0x3
 3351 013e 0E       		.uleb128 0xe
 3352 013f 3A       		.uleb128 0x3a
 3353 0140 0B       		.uleb128 0xb
 3354 0141 3B       		.uleb128 0x3b
 3355 0142 0B       		.uleb128 0xb
 3356 0143 27       		.uleb128 0x27
 3357 0144 0C       		.uleb128 0xc
 3358 0145 49       		.uleb128 0x49
 3359 0146 13       		.uleb128 0x13
 3360 0147 11       		.uleb128 0x11
 3361 0148 01       		.uleb128 0x1
 3362 0149 12       		.uleb128 0x12
 3363 014a 01       		.uleb128 0x1
 3364 014b 40       		.uleb128 0x40
 3365 014c 06       		.uleb128 0x6
 3366 014d 9742     		.uleb128 0x2117
 3367 014f 0C       		.uleb128 0xc
 3368 0150 01       		.uleb128 0x1
 3369 0151 13       		.uleb128 0x13
 3370 0152 00       		.byte	0
 3371 0153 00       		.byte	0
 3372 0154 1B       		.uleb128 0x1b
 3373 0155 05       		.uleb128 0x5
 3374 0156 00       		.byte	0
 3375 0157 03       		.uleb128 0x3
 3376 0158 08       		.uleb128 0x8
 3377 0159 3A       		.uleb128 0x3a
 3378 015a 0B       		.uleb128 0xb
 3379 015b 3B       		.uleb128 0x3b
 3380 015c 0B       		.uleb128 0xb
 3381 015d 49       		.uleb128 0x49
 3382 015e 13       		.uleb128 0x13
 3383 015f 02       		.uleb128 0x2
 3384 0160 06       		.uleb128 0x6
 3385 0161 00       		.byte	0
 3386 0162 00       		.byte	0
 3387 0163 1C       		.uleb128 0x1c
 3388 0164 05       		.uleb128 0x5
 3389 0165 00       		.byte	0
 3390 0166 03       		.uleb128 0x3
 3391 0167 0E       		.uleb128 0xe
 3392 0168 3A       		.uleb128 0x3a
 3393 0169 0B       		.uleb128 0xb
ARM GAS  /var/folders/5n/p_75w94d66l9ssrldxqdhh700000gn/T//ccL7Lleu.s 			page 61


 3394 016a 3B       		.uleb128 0x3b
 3395 016b 0B       		.uleb128 0xb
 3396 016c 49       		.uleb128 0x49
 3397 016d 13       		.uleb128 0x13
 3398 016e 02       		.uleb128 0x2
 3399 016f 06       		.uleb128 0x6
 3400 0170 00       		.byte	0
 3401 0171 00       		.byte	0
 3402 0172 1D       		.uleb128 0x1d
 3403 0173 898201   		.uleb128 0x4109
 3404 0176 01       		.byte	0x1
 3405 0177 11       		.uleb128 0x11
 3406 0178 01       		.uleb128 0x1
 3407 0179 31       		.uleb128 0x31
 3408 017a 13       		.uleb128 0x13
 3409 017b 01       		.uleb128 0x1
 3410 017c 13       		.uleb128 0x13
 3411 017d 00       		.byte	0
 3412 017e 00       		.byte	0
 3413 017f 1E       		.uleb128 0x1e
 3414 0180 8A8201   		.uleb128 0x410a
 3415 0183 00       		.byte	0
 3416 0184 02       		.uleb128 0x2
 3417 0185 0A       		.uleb128 0xa
 3418 0186 9142     		.uleb128 0x2111
 3419 0188 0A       		.uleb128 0xa
 3420 0189 00       		.byte	0
 3421 018a 00       		.byte	0
 3422 018b 1F       		.uleb128 0x1f
 3423 018c 898201   		.uleb128 0x4109
 3424 018f 01       		.byte	0x1
 3425 0190 11       		.uleb128 0x11
 3426 0191 01       		.uleb128 0x1
 3427 0192 31       		.uleb128 0x31
 3428 0193 13       		.uleb128 0x13
 3429 0194 00       		.byte	0
 3430 0195 00       		.byte	0
 3431 0196 20       		.uleb128 0x20
 3432 0197 2E       		.uleb128 0x2e
 3433 0198 01       		.byte	0x1
 3434 0199 3F       		.uleb128 0x3f
 3435 019a 0C       		.uleb128 0xc
 3436 019b 03       		.uleb128 0x3
 3437 019c 0E       		.uleb128 0xe
 3438 019d 3A       		.uleb128 0x3a
 3439 019e 0B       		.uleb128 0xb
 3440 019f 3B       		.uleb128 0x3b
 3441 01a0 0B       		.uleb128 0xb
 3442 01a1 27       		.uleb128 0x27
 3443 01a2 0C       		.uleb128 0xc
 3444 01a3 11       		.uleb128 0x11
 3445 01a4 01       		.uleb128 0x1
 3446 01a5 12       		.uleb128 0x12
 3447 01a6 01       		.uleb128 0x1
 3448 01a7 40       		.uleb128 0x40
 3449 01a8 06       		.uleb128 0x6
 3450 01a9 9742     		.uleb128 0x2117
ARM GAS  /var/folders/5n/p_75w94d66l9ssrldxqdhh700000gn/T//ccL7Lleu.s 			page 62


 3451 01ab 0C       		.uleb128 0xc
 3452 01ac 01       		.uleb128 0x1
 3453 01ad 13       		.uleb128 0x13
 3454 01ae 00       		.byte	0
 3455 01af 00       		.byte	0
 3456 01b0 21       		.uleb128 0x21
 3457 01b1 898201   		.uleb128 0x4109
 3458 01b4 00       		.byte	0
 3459 01b5 11       		.uleb128 0x11
 3460 01b6 01       		.uleb128 0x1
 3461 01b7 31       		.uleb128 0x31
 3462 01b8 13       		.uleb128 0x13
 3463 01b9 00       		.byte	0
 3464 01ba 00       		.byte	0
 3465 01bb 22       		.uleb128 0x22
 3466 01bc 2E       		.uleb128 0x2e
 3467 01bd 01       		.byte	0x1
 3468 01be 3F       		.uleb128 0x3f
 3469 01bf 0C       		.uleb128 0xc
 3470 01c0 03       		.uleb128 0x3
 3471 01c1 0E       		.uleb128 0xe
 3472 01c2 3A       		.uleb128 0x3a
 3473 01c3 0B       		.uleb128 0xb
 3474 01c4 3B       		.uleb128 0x3b
 3475 01c5 0B       		.uleb128 0xb
 3476 01c6 27       		.uleb128 0x27
 3477 01c7 0C       		.uleb128 0xc
 3478 01c8 11       		.uleb128 0x11
 3479 01c9 01       		.uleb128 0x1
 3480 01ca 12       		.uleb128 0x12
 3481 01cb 01       		.uleb128 0x1
 3482 01cc 40       		.uleb128 0x40
 3483 01cd 0A       		.uleb128 0xa
 3484 01ce 9742     		.uleb128 0x2117
 3485 01d0 0C       		.uleb128 0xc
 3486 01d1 01       		.uleb128 0x1
 3487 01d2 13       		.uleb128 0x13
 3488 01d3 00       		.byte	0
 3489 01d4 00       		.byte	0
 3490 01d5 23       		.uleb128 0x23
 3491 01d6 898201   		.uleb128 0x4109
 3492 01d9 00       		.byte	0
 3493 01da 11       		.uleb128 0x11
 3494 01db 01       		.uleb128 0x1
 3495 01dc 9542     		.uleb128 0x2115
 3496 01de 0C       		.uleb128 0xc
 3497 01df 31       		.uleb128 0x31
 3498 01e0 13       		.uleb128 0x13
 3499 01e1 00       		.byte	0
 3500 01e2 00       		.byte	0
 3501 01e3 24       		.uleb128 0x24
 3502 01e4 34       		.uleb128 0x34
 3503 01e5 00       		.byte	0
 3504 01e6 03       		.uleb128 0x3
 3505 01e7 0E       		.uleb128 0xe
 3506 01e8 3A       		.uleb128 0x3a
 3507 01e9 0B       		.uleb128 0xb
ARM GAS  /var/folders/5n/p_75w94d66l9ssrldxqdhh700000gn/T//ccL7Lleu.s 			page 63


 3508 01ea 3B       		.uleb128 0x3b
 3509 01eb 0B       		.uleb128 0xb
 3510 01ec 49       		.uleb128 0x49
 3511 01ed 13       		.uleb128 0x13
 3512 01ee 02       		.uleb128 0x2
 3513 01ef 06       		.uleb128 0x6
 3514 01f0 00       		.byte	0
 3515 01f1 00       		.byte	0
 3516 01f2 25       		.uleb128 0x25
 3517 01f3 34       		.uleb128 0x34
 3518 01f4 00       		.byte	0
 3519 01f5 03       		.uleb128 0x3
 3520 01f6 08       		.uleb128 0x8
 3521 01f7 3A       		.uleb128 0x3a
 3522 01f8 0B       		.uleb128 0xb
 3523 01f9 3B       		.uleb128 0x3b
 3524 01fa 0B       		.uleb128 0xb
 3525 01fb 49       		.uleb128 0x49
 3526 01fc 13       		.uleb128 0x13
 3527 01fd 02       		.uleb128 0x2
 3528 01fe 06       		.uleb128 0x6
 3529 01ff 00       		.byte	0
 3530 0200 00       		.byte	0
 3531 0201 26       		.uleb128 0x26
 3532 0202 0B       		.uleb128 0xb
 3533 0203 01       		.byte	0x1
 3534 0204 11       		.uleb128 0x11
 3535 0205 01       		.uleb128 0x1
 3536 0206 12       		.uleb128 0x12
 3537 0207 01       		.uleb128 0x1
 3538 0208 01       		.uleb128 0x1
 3539 0209 13       		.uleb128 0x13
 3540 020a 00       		.byte	0
 3541 020b 00       		.byte	0
 3542 020c 27       		.uleb128 0x27
 3543 020d 2E       		.uleb128 0x2e
 3544 020e 01       		.byte	0x1
 3545 020f 3F       		.uleb128 0x3f
 3546 0210 0C       		.uleb128 0xc
 3547 0211 03       		.uleb128 0x3
 3548 0212 0E       		.uleb128 0xe
 3549 0213 3A       		.uleb128 0x3a
 3550 0214 0B       		.uleb128 0xb
 3551 0215 3B       		.uleb128 0x3b
 3552 0216 0B       		.uleb128 0xb
 3553 0217 27       		.uleb128 0x27
 3554 0218 0C       		.uleb128 0xc
 3555 0219 49       		.uleb128 0x49
 3556 021a 13       		.uleb128 0x13
 3557 021b 11       		.uleb128 0x11
 3558 021c 01       		.uleb128 0x1
 3559 021d 12       		.uleb128 0x12
 3560 021e 01       		.uleb128 0x1
 3561 021f 40       		.uleb128 0x40
 3562 0220 0A       		.uleb128 0xa
 3563 0221 9742     		.uleb128 0x2117
 3564 0223 0C       		.uleb128 0xc
ARM GAS  /var/folders/5n/p_75w94d66l9ssrldxqdhh700000gn/T//ccL7Lleu.s 			page 64


 3565 0224 01       		.uleb128 0x1
 3566 0225 13       		.uleb128 0x13
 3567 0226 00       		.byte	0
 3568 0227 00       		.byte	0
 3569 0228 28       		.uleb128 0x28
 3570 0229 05       		.uleb128 0x5
 3571 022a 00       		.byte	0
 3572 022b 03       		.uleb128 0x3
 3573 022c 08       		.uleb128 0x8
 3574 022d 3A       		.uleb128 0x3a
 3575 022e 0B       		.uleb128 0xb
 3576 022f 3B       		.uleb128 0x3b
 3577 0230 0B       		.uleb128 0xb
 3578 0231 49       		.uleb128 0x49
 3579 0232 13       		.uleb128 0x13
 3580 0233 02       		.uleb128 0x2
 3581 0234 0A       		.uleb128 0xa
 3582 0235 00       		.byte	0
 3583 0236 00       		.byte	0
 3584 0237 29       		.uleb128 0x29
 3585 0238 898201   		.uleb128 0x4109
 3586 023b 01       		.byte	0x1
 3587 023c 11       		.uleb128 0x11
 3588 023d 01       		.uleb128 0x1
 3589 023e 9542     		.uleb128 0x2115
 3590 0240 0C       		.uleb128 0xc
 3591 0241 31       		.uleb128 0x31
 3592 0242 13       		.uleb128 0x13
 3593 0243 00       		.byte	0
 3594 0244 00       		.byte	0
 3595 0245 2A       		.uleb128 0x2a
 3596 0246 05       		.uleb128 0x5
 3597 0247 00       		.byte	0
 3598 0248 03       		.uleb128 0x3
 3599 0249 0E       		.uleb128 0xe
 3600 024a 3A       		.uleb128 0x3a
 3601 024b 0B       		.uleb128 0xb
 3602 024c 3B       		.uleb128 0x3b
 3603 024d 0B       		.uleb128 0xb
 3604 024e 49       		.uleb128 0x49
 3605 024f 13       		.uleb128 0x13
 3606 0250 02       		.uleb128 0x2
 3607 0251 0A       		.uleb128 0xa
 3608 0252 00       		.byte	0
 3609 0253 00       		.byte	0
 3610 0254 2B       		.uleb128 0x2b
 3611 0255 34       		.uleb128 0x34
 3612 0256 00       		.byte	0
 3613 0257 03       		.uleb128 0x3
 3614 0258 08       		.uleb128 0x8
 3615 0259 3A       		.uleb128 0x3a
 3616 025a 0B       		.uleb128 0xb
 3617 025b 3B       		.uleb128 0x3b
 3618 025c 0B       		.uleb128 0xb
 3619 025d 49       		.uleb128 0x49
 3620 025e 13       		.uleb128 0x13
 3621 025f 02       		.uleb128 0x2
ARM GAS  /var/folders/5n/p_75w94d66l9ssrldxqdhh700000gn/T//ccL7Lleu.s 			page 65


 3622 0260 0A       		.uleb128 0xa
 3623 0261 00       		.byte	0
 3624 0262 00       		.byte	0
 3625 0263 2C       		.uleb128 0x2c
 3626 0264 0B       		.uleb128 0xb
 3627 0265 01       		.byte	0x1
 3628 0266 11       		.uleb128 0x11
 3629 0267 01       		.uleb128 0x1
 3630 0268 12       		.uleb128 0x12
 3631 0269 01       		.uleb128 0x1
 3632 026a 00       		.byte	0
 3633 026b 00       		.byte	0
 3634 026c 2D       		.uleb128 0x2d
 3635 026d 34       		.uleb128 0x34
 3636 026e 00       		.byte	0
 3637 026f 03       		.uleb128 0x3
 3638 0270 0E       		.uleb128 0xe
 3639 0271 3A       		.uleb128 0x3a
 3640 0272 0B       		.uleb128 0xb
 3641 0273 3B       		.uleb128 0x3b
 3642 0274 0B       		.uleb128 0xb
 3643 0275 49       		.uleb128 0x49
 3644 0276 13       		.uleb128 0x13
 3645 0277 3F       		.uleb128 0x3f
 3646 0278 0C       		.uleb128 0xc
 3647 0279 3C       		.uleb128 0x3c
 3648 027a 0C       		.uleb128 0xc
 3649 027b 00       		.byte	0
 3650 027c 00       		.byte	0
 3651 027d 2E       		.uleb128 0x2e
 3652 027e 2E       		.uleb128 0x2e
 3653 027f 01       		.byte	0x1
 3654 0280 3F       		.uleb128 0x3f
 3655 0281 0C       		.uleb128 0xc
 3656 0282 03       		.uleb128 0x3
 3657 0283 0E       		.uleb128 0xe
 3658 0284 3A       		.uleb128 0x3a
 3659 0285 0B       		.uleb128 0xb
 3660 0286 3B       		.uleb128 0x3b
 3661 0287 0B       		.uleb128 0xb
 3662 0288 27       		.uleb128 0x27
 3663 0289 0C       		.uleb128 0xc
 3664 028a 49       		.uleb128 0x49
 3665 028b 13       		.uleb128 0x13
 3666 028c 3C       		.uleb128 0x3c
 3667 028d 0C       		.uleb128 0xc
 3668 028e 01       		.uleb128 0x1
 3669 028f 13       		.uleb128 0x13
 3670 0290 00       		.byte	0
 3671 0291 00       		.byte	0
 3672 0292 2F       		.uleb128 0x2f
 3673 0293 2E       		.uleb128 0x2e
 3674 0294 01       		.byte	0x1
 3675 0295 3F       		.uleb128 0x3f
 3676 0296 0C       		.uleb128 0xc
 3677 0297 03       		.uleb128 0x3
 3678 0298 0E       		.uleb128 0xe
ARM GAS  /var/folders/5n/p_75w94d66l9ssrldxqdhh700000gn/T//ccL7Lleu.s 			page 66


 3679 0299 3A       		.uleb128 0x3a
 3680 029a 0B       		.uleb128 0xb
 3681 029b 3B       		.uleb128 0x3b
 3682 029c 0B       		.uleb128 0xb
 3683 029d 27       		.uleb128 0x27
 3684 029e 0C       		.uleb128 0xc
 3685 029f 3C       		.uleb128 0x3c
 3686 02a0 0C       		.uleb128 0xc
 3687 02a1 01       		.uleb128 0x1
 3688 02a2 13       		.uleb128 0x13
 3689 02a3 00       		.byte	0
 3690 02a4 00       		.byte	0
 3691 02a5 30       		.uleb128 0x30
 3692 02a6 2E       		.uleb128 0x2e
 3693 02a7 01       		.byte	0x1
 3694 02a8 3F       		.uleb128 0x3f
 3695 02a9 0C       		.uleb128 0xc
 3696 02aa 03       		.uleb128 0x3
 3697 02ab 0E       		.uleb128 0xe
 3698 02ac 3A       		.uleb128 0x3a
 3699 02ad 0B       		.uleb128 0xb
 3700 02ae 3B       		.uleb128 0x3b
 3701 02af 05       		.uleb128 0x5
 3702 02b0 27       		.uleb128 0x27
 3703 02b1 0C       		.uleb128 0xc
 3704 02b2 49       		.uleb128 0x49
 3705 02b3 13       		.uleb128 0x13
 3706 02b4 3C       		.uleb128 0x3c
 3707 02b5 0C       		.uleb128 0xc
 3708 02b6 00       		.byte	0
 3709 02b7 00       		.byte	0
 3710 02b8 00       		.byte	0
 3711              		.section	.debug_loc,"",%progbits
 3712              	.Ldebug_loc0:
 3713              	.LLST0:
 3714 0000 00000000 		.4byte	.LFB8
 3715 0004 02000000 		.4byte	.LCFI0
 3716 0008 0200     		.2byte	0x2
 3717 000a 7D       		.byte	0x7d
 3718 000b 00       		.sleb128 0
 3719 000c 02000000 		.4byte	.LCFI0
 3720 0010 40000000 		.4byte	.LFE8
 3721 0014 0200     		.2byte	0x2
 3722 0016 7D       		.byte	0x7d
 3723 0017 10       		.sleb128 16
 3724 0018 00000000 		.4byte	0
 3725 001c 00000000 		.4byte	0
 3726              	.LLST1:
 3727 0020 00000000 		.4byte	.LVL0
 3728 0024 08000000 		.4byte	.LVL1
 3729 0028 0100     		.2byte	0x1
 3730 002a 50       		.byte	0x50
 3731 002b 08000000 		.4byte	.LVL1
 3732 002f 40000000 		.4byte	.LFE8
 3733 0033 0100     		.2byte	0x1
 3734 0035 54       		.byte	0x54
 3735 0036 00000000 		.4byte	0
ARM GAS  /var/folders/5n/p_75w94d66l9ssrldxqdhh700000gn/T//ccL7Lleu.s 			page 67


 3736 003a 00000000 		.4byte	0
 3737              	.LLST2:
 3738 003e 00000000 		.4byte	.LVL0
 3739 0042 0A000000 		.4byte	.LVL2
 3740 0046 0100     		.2byte	0x1
 3741 0048 51       		.byte	0x51
 3742 0049 0A000000 		.4byte	.LVL2
 3743 004d 40000000 		.4byte	.LFE8
 3744 0051 0400     		.2byte	0x4
 3745 0053 F3       		.byte	0xf3
 3746 0054 01       		.uleb128 0x1
 3747 0055 51       		.byte	0x51
 3748 0056 9F       		.byte	0x9f
 3749 0057 00000000 		.4byte	0
 3750 005b 00000000 		.4byte	0
 3751              	.LLST3:
 3752 005f 00000000 		.4byte	.LFB9
 3753 0063 02000000 		.4byte	.LCFI1
 3754 0067 0200     		.2byte	0x2
 3755 0069 7D       		.byte	0x7d
 3756 006a 00       		.sleb128 0
 3757 006b 02000000 		.4byte	.LCFI1
 3758 006f 22000000 		.4byte	.LFE9
 3759 0073 0200     		.2byte	0x2
 3760 0075 7D       		.byte	0x7d
 3761 0076 08       		.sleb128 8
 3762 0077 00000000 		.4byte	0
 3763 007b 00000000 		.4byte	0
 3764              	.LLST4:
 3765 007f 00000000 		.4byte	.LVL5
 3766 0083 06000000 		.4byte	.LVL6
 3767 0087 0100     		.2byte	0x1
 3768 0089 50       		.byte	0x50
 3769 008a 06000000 		.4byte	.LVL6
 3770 008e 22000000 		.4byte	.LFE9
 3771 0092 0100     		.2byte	0x1
 3772 0094 54       		.byte	0x54
 3773 0095 00000000 		.4byte	0
 3774 0099 00000000 		.4byte	0
 3775              	.LLST5:
 3776 009d 00000000 		.4byte	.LVL8
 3777 00a1 02000000 		.4byte	.LVL9
 3778 00a5 0100     		.2byte	0x1
 3779 00a7 50       		.byte	0x50
 3780 00a8 02000000 		.4byte	.LVL9
 3781 00ac 06000000 		.4byte	.LFE10
 3782 00b0 0400     		.2byte	0x4
 3783 00b2 F3       		.byte	0xf3
 3784 00b3 01       		.uleb128 0x1
 3785 00b4 50       		.byte	0x50
 3786 00b5 9F       		.byte	0x9f
 3787 00b6 00000000 		.4byte	0
 3788 00ba 00000000 		.4byte	0
 3789              	.LLST6:
 3790 00be 00000000 		.4byte	.LFB11
 3791 00c2 02000000 		.4byte	.LCFI2
 3792 00c6 0200     		.2byte	0x2
ARM GAS  /var/folders/5n/p_75w94d66l9ssrldxqdhh700000gn/T//ccL7Lleu.s 			page 68


 3793 00c8 7D       		.byte	0x7d
 3794 00c9 00       		.sleb128 0
 3795 00ca 02000000 		.4byte	.LCFI2
 3796 00ce 34000000 		.4byte	.LFE11
 3797 00d2 0200     		.2byte	0x2
 3798 00d4 7D       		.byte	0x7d
 3799 00d5 10       		.sleb128 16
 3800 00d6 00000000 		.4byte	0
 3801 00da 00000000 		.4byte	0
 3802              	.LLST7:
 3803 00de 00000000 		.4byte	.LVL11
 3804 00e2 0C000000 		.4byte	.LVL14
 3805 00e6 0100     		.2byte	0x1
 3806 00e8 50       		.byte	0x50
 3807 00e9 0C000000 		.4byte	.LVL14
 3808 00ed 34000000 		.4byte	.LFE11
 3809 00f1 0400     		.2byte	0x4
 3810 00f3 F3       		.byte	0xf3
 3811 00f4 01       		.uleb128 0x1
 3812 00f5 50       		.byte	0x50
 3813 00f6 9F       		.byte	0x9f
 3814 00f7 00000000 		.4byte	0
 3815 00fb 00000000 		.4byte	0
 3816              	.LLST8:
 3817 00ff 00000000 		.4byte	.LVL11
 3818 0103 16000000 		.4byte	.LVL16
 3819 0107 0100     		.2byte	0x1
 3820 0109 51       		.byte	0x51
 3821 010a 16000000 		.4byte	.LVL16
 3822 010e 34000000 		.4byte	.LFE11
 3823 0112 0400     		.2byte	0x4
 3824 0114 F3       		.byte	0xf3
 3825 0115 01       		.uleb128 0x1
 3826 0116 51       		.byte	0x51
 3827 0117 9F       		.byte	0x9f
 3828 0118 00000000 		.4byte	0
 3829 011c 00000000 		.4byte	0
 3830              	.LLST9:
 3831 0120 0E000000 		.4byte	.LVL15
 3832 0124 20000000 		.4byte	.LVL18
 3833 0128 0100     		.2byte	0x1
 3834 012a 55       		.byte	0x55
 3835 012b 20000000 		.4byte	.LVL18
 3836 012f 28000000 		.4byte	.LVL21
 3837 0133 0100     		.2byte	0x1
 3838 0135 50       		.byte	0x50
 3839 0136 28000000 		.4byte	.LVL21
 3840 013a 2C000000 		.4byte	.LVL22
 3841 013e 0100     		.2byte	0x1
 3842 0140 55       		.byte	0x55
 3843 0141 2C000000 		.4byte	.LVL22
 3844 0145 34000000 		.4byte	.LFE11
 3845 0149 0100     		.2byte	0x1
 3846 014b 50       		.byte	0x50
 3847 014c 00000000 		.4byte	0
 3848 0150 00000000 		.4byte	0
 3849              	.LLST10:
ARM GAS  /var/folders/5n/p_75w94d66l9ssrldxqdhh700000gn/T//ccL7Lleu.s 			page 69


 3850 0154 08000000 		.4byte	.LVL13
 3851 0158 16000000 		.4byte	.LVL16
 3852 015c 0E00     		.2byte	0xe
 3853 015e 71       		.byte	0x71
 3854 015f 00       		.sleb128 0
 3855 0160 09       		.byte	0x9
 3856 0161 FF       		.byte	0xff
 3857 0162 71       		.byte	0x71
 3858 0163 00       		.sleb128 0
 3859 0164 30       		.byte	0x30
 3860 0165 2E       		.byte	0x2e
 3861 0166 28       		.byte	0x28
 3862 0167 0100     		.2byte	0x1
 3863 0169 16       		.byte	0x16
 3864 016a 13       		.byte	0x13
 3865 016b 9F       		.byte	0x9f
 3866 016c 16000000 		.4byte	.LVL16
 3867 0170 19000000 		.4byte	.LVL17-1
 3868 0174 0100     		.2byte	0x1
 3869 0176 51       		.byte	0x51
 3870 0177 19000000 		.4byte	.LVL17-1
 3871 017b 34000000 		.4byte	.LFE11
 3872 017f 1000     		.2byte	0x10
 3873 0181 F3       		.byte	0xf3
 3874 0182 01       		.uleb128 0x1
 3875 0183 51       		.byte	0x51
 3876 0184 09       		.byte	0x9
 3877 0185 FF       		.byte	0xff
 3878 0186 F3       		.byte	0xf3
 3879 0187 01       		.uleb128 0x1
 3880 0188 51       		.byte	0x51
 3881 0189 30       		.byte	0x30
 3882 018a 2E       		.byte	0x2e
 3883 018b 28       		.byte	0x28
 3884 018c 0100     		.2byte	0x1
 3885 018e 16       		.byte	0x16
 3886 018f 13       		.byte	0x13
 3887 0190 9F       		.byte	0x9f
 3888 0191 00000000 		.4byte	0
 3889 0195 00000000 		.4byte	0
 3890              	.LLST11:
 3891 0199 08000000 		.4byte	.LVL13
 3892 019d 19000000 		.4byte	.LVL17-1
 3893 01a1 0100     		.2byte	0x1
 3894 01a3 53       		.byte	0x53
 3895 01a4 00000000 		.4byte	0
 3896 01a8 00000000 		.4byte	0
 3897              	.LLST12:
 3898 01ac 26000000 		.4byte	.LVL20
 3899 01b0 28000000 		.4byte	.LVL21
 3900 01b4 0100     		.2byte	0x1
 3901 01b6 53       		.byte	0x53
 3902 01b7 00000000 		.4byte	0
 3903 01bb 00000000 		.4byte	0
 3904              	.LLST13:
 3905 01bf 00000000 		.4byte	.LVL23
 3906 01c3 02000000 		.4byte	.LVL24
ARM GAS  /var/folders/5n/p_75w94d66l9ssrldxqdhh700000gn/T//ccL7Lleu.s 			page 70


 3907 01c7 0100     		.2byte	0x1
 3908 01c9 50       		.byte	0x50
 3909 01ca 02000000 		.4byte	.LVL24
 3910 01ce 0A000000 		.4byte	.LFE12
 3911 01d2 0400     		.2byte	0x4
 3912 01d4 F3       		.byte	0xf3
 3913 01d5 01       		.uleb128 0x1
 3914 01d6 50       		.byte	0x50
 3915 01d7 9F       		.byte	0x9f
 3916 01d8 00000000 		.4byte	0
 3917 01dc 00000000 		.4byte	0
 3918              	.LLST14:
 3919 01e0 00000000 		.4byte	.LFB14
 3920 01e4 02000000 		.4byte	.LCFI3
 3921 01e8 0200     		.2byte	0x2
 3922 01ea 7D       		.byte	0x7d
 3923 01eb 00       		.sleb128 0
 3924 01ec 02000000 		.4byte	.LCFI3
 3925 01f0 48000000 		.4byte	.LFE14
 3926 01f4 0200     		.2byte	0x2
 3927 01f6 7D       		.byte	0x7d
 3928 01f7 10       		.sleb128 16
 3929 01f8 00000000 		.4byte	0
 3930 01fc 00000000 		.4byte	0
 3931              	.LLST15:
 3932 0200 00000000 		.4byte	.LVL26
 3933 0204 0E000000 		.4byte	.LVL28
 3934 0208 0100     		.2byte	0x1
 3935 020a 50       		.byte	0x50
 3936 020b 0E000000 		.4byte	.LVL28
 3937 020f 48000000 		.4byte	.LFE14
 3938 0213 0100     		.2byte	0x1
 3939 0215 55       		.byte	0x55
 3940 0216 00000000 		.4byte	0
 3941 021a 00000000 		.4byte	0
 3942              	.LLST16:
 3943 021e 00000000 		.4byte	.LVL26
 3944 0222 08000000 		.4byte	.LVL27
 3945 0226 0100     		.2byte	0x1
 3946 0228 51       		.byte	0x51
 3947 0229 08000000 		.4byte	.LVL27
 3948 022d 48000000 		.4byte	.LFE14
 3949 0231 0100     		.2byte	0x1
 3950 0233 54       		.byte	0x54
 3951 0234 00000000 		.4byte	0
 3952 0238 00000000 		.4byte	0
 3953              	.LLST17:
 3954 023c 00000000 		.4byte	.LFB15
 3955 0240 02000000 		.4byte	.LCFI4
 3956 0244 0200     		.2byte	0x2
 3957 0246 7D       		.byte	0x7d
 3958 0247 00       		.sleb128 0
 3959 0248 02000000 		.4byte	.LCFI4
 3960 024c 34000000 		.4byte	.LFE15
 3961 0250 0200     		.2byte	0x2
 3962 0252 7D       		.byte	0x7d
 3963 0253 10       		.sleb128 16
ARM GAS  /var/folders/5n/p_75w94d66l9ssrldxqdhh700000gn/T//ccL7Lleu.s 			page 71


 3964 0254 00000000 		.4byte	0
 3965 0258 00000000 		.4byte	0
 3966              	.LLST18:
 3967 025c 00000000 		.4byte	.LVL31
 3968 0260 06000000 		.4byte	.LVL32
 3969 0264 0100     		.2byte	0x1
 3970 0266 50       		.byte	0x50
 3971 0267 06000000 		.4byte	.LVL32
 3972 026b 34000000 		.4byte	.LFE15
 3973 026f 0100     		.2byte	0x1
 3974 0271 55       		.byte	0x55
 3975 0272 00000000 		.4byte	0
 3976 0276 00000000 		.4byte	0
 3977              	.LLST19:
 3978 027a 00000000 		.4byte	.LVL35
 3979 027e 02000000 		.4byte	.LVL36
 3980 0282 0100     		.2byte	0x1
 3981 0284 50       		.byte	0x50
 3982 0285 02000000 		.4byte	.LVL36
 3983 0289 0A000000 		.4byte	.LFE16
 3984 028d 0400     		.2byte	0x4
 3985 028f F3       		.byte	0xf3
 3986 0290 01       		.uleb128 0x1
 3987 0291 50       		.byte	0x50
 3988 0292 9F       		.byte	0x9f
 3989 0293 00000000 		.4byte	0
 3990 0297 00000000 		.4byte	0
 3991              	.LLST20:
 3992 029b 00000000 		.4byte	.LVL35
 3993 029f 09000000 		.4byte	.LVL37-1
 3994 02a3 0100     		.2byte	0x1
 3995 02a5 51       		.byte	0x51
 3996 02a6 09000000 		.4byte	.LVL37-1
 3997 02aa 0A000000 		.4byte	.LFE16
 3998 02ae 0400     		.2byte	0x4
 3999 02b0 F3       		.byte	0xf3
 4000 02b1 01       		.uleb128 0x1
 4001 02b2 51       		.byte	0x51
 4002 02b3 9F       		.byte	0x9f
 4003 02b4 00000000 		.4byte	0
 4004 02b8 00000000 		.4byte	0
 4005              	.LLST21:
 4006 02bc 00000000 		.4byte	.LFB17
 4007 02c0 04000000 		.4byte	.LCFI5
 4008 02c4 0200     		.2byte	0x2
 4009 02c6 7D       		.byte	0x7d
 4010 02c7 00       		.sleb128 0
 4011 02c8 04000000 		.4byte	.LCFI5
 4012 02cc 28000000 		.4byte	.LFE17
 4013 02d0 0200     		.2byte	0x2
 4014 02d2 7D       		.byte	0x7d
 4015 02d3 08       		.sleb128 8
 4016 02d4 00000000 		.4byte	0
 4017 02d8 00000000 		.4byte	0
 4018              	.LLST22:
 4019 02dc 00000000 		.4byte	.LVL38
 4020 02e0 06000000 		.4byte	.LVL39
ARM GAS  /var/folders/5n/p_75w94d66l9ssrldxqdhh700000gn/T//ccL7Lleu.s 			page 72


 4021 02e4 0100     		.2byte	0x1
 4022 02e6 50       		.byte	0x50
 4023 02e7 06000000 		.4byte	.LVL39
 4024 02eb 28000000 		.4byte	.LFE17
 4025 02ef 0400     		.2byte	0x4
 4026 02f1 F3       		.byte	0xf3
 4027 02f2 01       		.uleb128 0x1
 4028 02f3 50       		.byte	0x50
 4029 02f4 9F       		.byte	0x9f
 4030 02f5 00000000 		.4byte	0
 4031 02f9 00000000 		.4byte	0
 4032              	.LLST23:
 4033 02fd 00000000 		.4byte	.LVL38
 4034 0301 09000000 		.4byte	.LVL40-1
 4035 0305 0100     		.2byte	0x1
 4036 0307 51       		.byte	0x51
 4037 0308 09000000 		.4byte	.LVL40-1
 4038 030c 28000000 		.4byte	.LFE17
 4039 0310 0400     		.2byte	0x4
 4040 0312 F3       		.byte	0xf3
 4041 0313 01       		.uleb128 0x1
 4042 0314 51       		.byte	0x51
 4043 0315 9F       		.byte	0x9f
 4044 0316 00000000 		.4byte	0
 4045 031a 00000000 		.4byte	0
 4046              	.LLST24:
 4047 031e 00000000 		.4byte	.LFB18
 4048 0322 02000000 		.4byte	.LCFI6
 4049 0326 0200     		.2byte	0x2
 4050 0328 7D       		.byte	0x7d
 4051 0329 00       		.sleb128 0
 4052 032a 02000000 		.4byte	.LCFI6
 4053 032e 34000000 		.4byte	.LFE18
 4054 0332 0200     		.2byte	0x2
 4055 0334 7D       		.byte	0x7d
 4056 0335 10       		.sleb128 16
 4057 0336 00000000 		.4byte	0
 4058 033a 00000000 		.4byte	0
 4059              	.LLST25:
 4060 033e 00000000 		.4byte	.LVL41
 4061 0342 0C000000 		.4byte	.LVL44
 4062 0346 0100     		.2byte	0x1
 4063 0348 50       		.byte	0x50
 4064 0349 0C000000 		.4byte	.LVL44
 4065 034d 34000000 		.4byte	.LFE18
 4066 0351 0400     		.2byte	0x4
 4067 0353 F3       		.byte	0xf3
 4068 0354 01       		.uleb128 0x1
 4069 0355 50       		.byte	0x50
 4070 0356 9F       		.byte	0x9f
 4071 0357 00000000 		.4byte	0
 4072 035b 00000000 		.4byte	0
 4073              	.LLST26:
 4074 035f 00000000 		.4byte	.LVL41
 4075 0363 19000000 		.4byte	.LVL47-1
 4076 0367 0100     		.2byte	0x1
 4077 0369 51       		.byte	0x51
ARM GAS  /var/folders/5n/p_75w94d66l9ssrldxqdhh700000gn/T//ccL7Lleu.s 			page 73


 4078 036a 19000000 		.4byte	.LVL47-1
 4079 036e 34000000 		.4byte	.LFE18
 4080 0372 0400     		.2byte	0x4
 4081 0374 F3       		.byte	0xf3
 4082 0375 01       		.uleb128 0x1
 4083 0376 51       		.byte	0x51
 4084 0377 9F       		.byte	0x9f
 4085 0378 00000000 		.4byte	0
 4086 037c 00000000 		.4byte	0
 4087              	.LLST27:
 4088 0380 00000000 		.4byte	.LVL41
 4089 0384 16000000 		.4byte	.LVL46
 4090 0388 0100     		.2byte	0x1
 4091 038a 52       		.byte	0x52
 4092 038b 16000000 		.4byte	.LVL46
 4093 038f 34000000 		.4byte	.LFE18
 4094 0393 0400     		.2byte	0x4
 4095 0395 F3       		.byte	0xf3
 4096 0396 01       		.uleb128 0x1
 4097 0397 52       		.byte	0x52
 4098 0398 9F       		.byte	0x9f
 4099 0399 00000000 		.4byte	0
 4100 039d 00000000 		.4byte	0
 4101              	.LLST28:
 4102 03a1 0E000000 		.4byte	.LVL45
 4103 03a5 20000000 		.4byte	.LVL48
 4104 03a9 0100     		.2byte	0x1
 4105 03ab 55       		.byte	0x55
 4106 03ac 20000000 		.4byte	.LVL48
 4107 03b0 28000000 		.4byte	.LVL51
 4108 03b4 0100     		.2byte	0x1
 4109 03b6 50       		.byte	0x50
 4110 03b7 28000000 		.4byte	.LVL51
 4111 03bb 2C000000 		.4byte	.LVL52
 4112 03bf 0100     		.2byte	0x1
 4113 03c1 55       		.byte	0x55
 4114 03c2 2C000000 		.4byte	.LVL52
 4115 03c6 34000000 		.4byte	.LFE18
 4116 03ca 0100     		.2byte	0x1
 4117 03cc 50       		.byte	0x50
 4118 03cd 00000000 		.4byte	0
 4119 03d1 00000000 		.4byte	0
 4120              	.LLST29:
 4121 03d5 08000000 		.4byte	.LVL43
 4122 03d9 16000000 		.4byte	.LVL46
 4123 03dd 0E00     		.2byte	0xe
 4124 03df 72       		.byte	0x72
 4125 03e0 00       		.sleb128 0
 4126 03e1 09       		.byte	0x9
 4127 03e2 FF       		.byte	0xff
 4128 03e3 72       		.byte	0x72
 4129 03e4 00       		.sleb128 0
 4130 03e5 30       		.byte	0x30
 4131 03e6 2E       		.byte	0x2e
 4132 03e7 28       		.byte	0x28
 4133 03e8 0100     		.2byte	0x1
 4134 03ea 16       		.byte	0x16
ARM GAS  /var/folders/5n/p_75w94d66l9ssrldxqdhh700000gn/T//ccL7Lleu.s 			page 74


 4135 03eb 13       		.byte	0x13
 4136 03ec 9F       		.byte	0x9f
 4137 03ed 16000000 		.4byte	.LVL46
 4138 03f1 19000000 		.4byte	.LVL47-1
 4139 03f5 0100     		.2byte	0x1
 4140 03f7 52       		.byte	0x52
 4141 03f8 19000000 		.4byte	.LVL47-1
 4142 03fc 34000000 		.4byte	.LFE18
 4143 0400 1000     		.2byte	0x10
 4144 0402 F3       		.byte	0xf3
 4145 0403 01       		.uleb128 0x1
 4146 0404 52       		.byte	0x52
 4147 0405 09       		.byte	0x9
 4148 0406 FF       		.byte	0xff
 4149 0407 F3       		.byte	0xf3
 4150 0408 01       		.uleb128 0x1
 4151 0409 52       		.byte	0x52
 4152 040a 30       		.byte	0x30
 4153 040b 2E       		.byte	0x2e
 4154 040c 28       		.byte	0x28
 4155 040d 0100     		.2byte	0x1
 4156 040f 16       		.byte	0x16
 4157 0410 13       		.byte	0x13
 4158 0411 9F       		.byte	0x9f
 4159 0412 00000000 		.4byte	0
 4160 0416 00000000 		.4byte	0
 4161              	.LLST30:
 4162 041a 08000000 		.4byte	.LVL43
 4163 041e 19000000 		.4byte	.LVL47-1
 4164 0422 0100     		.2byte	0x1
 4165 0424 53       		.byte	0x53
 4166 0425 00000000 		.4byte	0
 4167 0429 00000000 		.4byte	0
 4168              	.LLST31:
 4169 042d 26000000 		.4byte	.LVL50
 4170 0431 28000000 		.4byte	.LVL51
 4171 0435 0100     		.2byte	0x1
 4172 0437 53       		.byte	0x53
 4173 0438 00000000 		.4byte	0
 4174 043c 00000000 		.4byte	0
 4175              	.LLST32:
 4176 0440 00000000 		.4byte	.LFB19
 4177 0444 02000000 		.4byte	.LCFI7
 4178 0448 0200     		.2byte	0x2
 4179 044a 7D       		.byte	0x7d
 4180 044b 00       		.sleb128 0
 4181 044c 02000000 		.4byte	.LCFI7
 4182 0450 18000000 		.4byte	.LFE19
 4183 0454 0200     		.2byte	0x2
 4184 0456 7D       		.byte	0x7d
 4185 0457 08       		.sleb128 8
 4186 0458 00000000 		.4byte	0
 4187 045c 00000000 		.4byte	0
 4188              	.LLST33:
 4189 0460 00000000 		.4byte	.LVL53
 4190 0464 06000000 		.4byte	.LVL54
 4191 0468 0100     		.2byte	0x1
ARM GAS  /var/folders/5n/p_75w94d66l9ssrldxqdhh700000gn/T//ccL7Lleu.s 			page 75


 4192 046a 50       		.byte	0x50
 4193 046b 06000000 		.4byte	.LVL54
 4194 046f 18000000 		.4byte	.LFE19
 4195 0473 0400     		.2byte	0x4
 4196 0475 F3       		.byte	0xf3
 4197 0476 01       		.uleb128 0x1
 4198 0477 50       		.byte	0x50
 4199 0478 9F       		.byte	0x9f
 4200 0479 00000000 		.4byte	0
 4201 047d 00000000 		.4byte	0
 4202              	.LLST34:
 4203 0481 00000000 		.4byte	.LVL53
 4204 0485 09000000 		.4byte	.LVL55-1
 4205 0489 0100     		.2byte	0x1
 4206 048b 51       		.byte	0x51
 4207 048c 09000000 		.4byte	.LVL55-1
 4208 0490 18000000 		.4byte	.LFE19
 4209 0494 0400     		.2byte	0x4
 4210 0496 F3       		.byte	0xf3
 4211 0497 01       		.uleb128 0x1
 4212 0498 51       		.byte	0x51
 4213 0499 9F       		.byte	0x9f
 4214 049a 00000000 		.4byte	0
 4215 049e 00000000 		.4byte	0
 4216              	.LLST35:
 4217 04a2 00000000 		.4byte	.LVL56
 4218 04a6 02000000 		.4byte	.LVL57
 4219 04aa 0100     		.2byte	0x1
 4220 04ac 50       		.byte	0x50
 4221 04ad 02000000 		.4byte	.LVL57
 4222 04b1 0A000000 		.4byte	.LFE20
 4223 04b5 0400     		.2byte	0x4
 4224 04b7 F3       		.byte	0xf3
 4225 04b8 01       		.uleb128 0x1
 4226 04b9 50       		.byte	0x50
 4227 04ba 9F       		.byte	0x9f
 4228 04bb 00000000 		.4byte	0
 4229 04bf 00000000 		.4byte	0
 4230              	.LLST36:
 4231 04c3 00000000 		.4byte	.LFB22
 4232 04c7 04000000 		.4byte	.LCFI8
 4233 04cb 0200     		.2byte	0x2
 4234 04cd 7D       		.byte	0x7d
 4235 04ce 00       		.sleb128 0
 4236 04cf 04000000 		.4byte	.LCFI8
 4237 04d3 38000000 		.4byte	.LFE22
 4238 04d7 0200     		.2byte	0x2
 4239 04d9 7D       		.byte	0x7d
 4240 04da 18       		.sleb128 24
 4241 04db 00000000 		.4byte	0
 4242 04df 00000000 		.4byte	0
 4243              	.LLST37:
 4244 04e3 00000000 		.4byte	.LVL59
 4245 04e7 16000000 		.4byte	.LVL62
 4246 04eb 0100     		.2byte	0x1
 4247 04ed 50       		.byte	0x50
 4248 04ee 16000000 		.4byte	.LVL62
ARM GAS  /var/folders/5n/p_75w94d66l9ssrldxqdhh700000gn/T//ccL7Lleu.s 			page 76


 4249 04f2 18000000 		.4byte	.LVL63
 4250 04f6 0200     		.2byte	0x2
 4251 04f8 75       		.byte	0x75
 4252 04f9 18       		.sleb128 24
 4253 04fa 1D000000 		.4byte	.LVL64-1
 4254 04fe 38000000 		.4byte	.LFE22
 4255 0502 0400     		.2byte	0x4
 4256 0504 F3       		.byte	0xf3
 4257 0505 01       		.uleb128 0x1
 4258 0506 50       		.byte	0x50
 4259 0507 9F       		.byte	0x9f
 4260 0508 00000000 		.4byte	0
 4261 050c 00000000 		.4byte	0
 4262              	.LLST38:
 4263 0510 00000000 		.4byte	.LVL59
 4264 0514 1D000000 		.4byte	.LVL64-1
 4265 0518 0100     		.2byte	0x1
 4266 051a 51       		.byte	0x51
 4267 051b 1D000000 		.4byte	.LVL64-1
 4268 051f 38000000 		.4byte	.LFE22
 4269 0523 0100     		.2byte	0x1
 4270 0525 55       		.byte	0x55
 4271 0526 00000000 		.4byte	0
 4272 052a 00000000 		.4byte	0
 4273              	.LLST39:
 4274 052e 00000000 		.4byte	.LVL59
 4275 0532 1D000000 		.4byte	.LVL64-1
 4276 0536 0100     		.2byte	0x1
 4277 0538 52       		.byte	0x52
 4278 0539 1D000000 		.4byte	.LVL64-1
 4279 053d 38000000 		.4byte	.LFE22
 4280 0541 0100     		.2byte	0x1
 4281 0543 57       		.byte	0x57
 4282 0544 00000000 		.4byte	0
 4283 0548 00000000 		.4byte	0
 4284              	.LLST40:
 4285 054c 00000000 		.4byte	.LVL59
 4286 0550 0C000000 		.4byte	.LVL60
 4287 0554 0100     		.2byte	0x1
 4288 0556 53       		.byte	0x53
 4289 0557 0C000000 		.4byte	.LVL60
 4290 055b 1D000000 		.4byte	.LVL64-1
 4291 055f 0400     		.2byte	0x4
 4292 0561 73       		.byte	0x73
 4293 0562 D57E     		.sleb128 -171
 4294 0564 9F       		.byte	0x9f
 4295 0565 1D000000 		.4byte	.LVL64-1
 4296 0569 38000000 		.4byte	.LFE22
 4297 056d 0400     		.2byte	0x4
 4298 056f F3       		.byte	0xf3
 4299 0570 01       		.uleb128 0x1
 4300 0571 53       		.byte	0x53
 4301 0572 9F       		.byte	0x9f
 4302 0573 00000000 		.4byte	0
 4303 0577 00000000 		.4byte	0
 4304              	.LLST41:
 4305 057b 1E000000 		.4byte	.LVL64
ARM GAS  /var/folders/5n/p_75w94d66l9ssrldxqdhh700000gn/T//ccL7Lleu.s 			page 77


 4306 057f 2F000000 		.4byte	.LVL65-1
 4307 0583 0100     		.2byte	0x1
 4308 0585 50       		.byte	0x50
 4309 0586 30000000 		.4byte	.LVL65
 4310 058a 38000000 		.4byte	.LFE22
 4311 058e 0100     		.2byte	0x1
 4312 0590 50       		.byte	0x50
 4313 0591 00000000 		.4byte	0
 4314 0595 00000000 		.4byte	0
 4315              	.LLST42:
 4316 0599 06000000 		.4byte	.LVL67
 4317 059d 0A000000 		.4byte	.LFE23
 4318 05a1 0100     		.2byte	0x1
 4319 05a3 53       		.byte	0x53
 4320 05a4 00000000 		.4byte	0
 4321 05a8 00000000 		.4byte	0
 4322              	.LLST43:
 4323 05ac 06000000 		.4byte	.LVL70
 4324 05b0 08000000 		.4byte	.LFE24
 4325 05b4 0100     		.2byte	0x1
 4326 05b6 53       		.byte	0x53
 4327 05b7 00000000 		.4byte	0
 4328 05bb 00000000 		.4byte	0
 4329              		.section	.debug_aranges,"",%progbits
 4330 0000 A4000000 		.4byte	0xa4
 4331 0004 0200     		.2byte	0x2
 4332 0006 00000000 		.4byte	.Ldebug_info0
 4333 000a 04       		.byte	0x4
 4334 000b 00       		.byte	0
 4335 000c 0000     		.2byte	0
 4336 000e 0000     		.2byte	0
 4337 0010 00000000 		.4byte	.LFB7
 4338 0014 02000000 		.4byte	.LFE7-.LFB7
 4339 0018 00000000 		.4byte	.LFB8
 4340 001c 40000000 		.4byte	.LFE8-.LFB8
 4341 0020 00000000 		.4byte	.LFB9
 4342 0024 22000000 		.4byte	.LFE9-.LFB9
 4343 0028 00000000 		.4byte	.LFB10
 4344 002c 06000000 		.4byte	.LFE10-.LFB10
 4345 0030 00000000 		.4byte	.LFB11
 4346 0034 34000000 		.4byte	.LFE11-.LFB11
 4347 0038 00000000 		.4byte	.LFB12
 4348 003c 0A000000 		.4byte	.LFE12-.LFB12
 4349 0040 00000000 		.4byte	.LFB13
 4350 0044 06000000 		.4byte	.LFE13-.LFB13
 4351 0048 00000000 		.4byte	.LFB14
 4352 004c 48000000 		.4byte	.LFE14-.LFB14
 4353 0050 00000000 		.4byte	.LFB15
 4354 0054 34000000 		.4byte	.LFE15-.LFB15
 4355 0058 00000000 		.4byte	.LFB16
 4356 005c 0A000000 		.4byte	.LFE16-.LFB16
 4357 0060 00000000 		.4byte	.LFB17
 4358 0064 28000000 		.4byte	.LFE17-.LFB17
 4359 0068 00000000 		.4byte	.LFB18
 4360 006c 34000000 		.4byte	.LFE18-.LFB18
 4361 0070 00000000 		.4byte	.LFB19
 4362 0074 18000000 		.4byte	.LFE19-.LFB19
ARM GAS  /var/folders/5n/p_75w94d66l9ssrldxqdhh700000gn/T//ccL7Lleu.s 			page 78


 4363 0078 00000000 		.4byte	.LFB20
 4364 007c 0A000000 		.4byte	.LFE20-.LFB20
 4365 0080 00000000 		.4byte	.LFB21
 4366 0084 06000000 		.4byte	.LFE21-.LFB21
 4367 0088 00000000 		.4byte	.LFB22
 4368 008c 38000000 		.4byte	.LFE22-.LFB22
 4369 0090 00000000 		.4byte	.LFB23
 4370 0094 0A000000 		.4byte	.LFE23-.LFB23
 4371 0098 00000000 		.4byte	.LFB24
 4372 009c 08000000 		.4byte	.LFE24-.LFB24
 4373 00a0 00000000 		.4byte	0
 4374 00a4 00000000 		.4byte	0
 4375              		.section	.debug_ranges,"",%progbits
 4376              	.Ldebug_ranges0:
 4377 0000 00000000 		.4byte	.LFB7
 4378 0004 02000000 		.4byte	.LFE7
 4379 0008 00000000 		.4byte	.LFB8
 4380 000c 40000000 		.4byte	.LFE8
 4381 0010 00000000 		.4byte	.LFB9
 4382 0014 22000000 		.4byte	.LFE9
 4383 0018 00000000 		.4byte	.LFB10
 4384 001c 06000000 		.4byte	.LFE10
 4385 0020 00000000 		.4byte	.LFB11
 4386 0024 34000000 		.4byte	.LFE11
 4387 0028 00000000 		.4byte	.LFB12
 4388 002c 0A000000 		.4byte	.LFE12
 4389 0030 00000000 		.4byte	.LFB13
 4390 0034 06000000 		.4byte	.LFE13
 4391 0038 00000000 		.4byte	.LFB14
 4392 003c 48000000 		.4byte	.LFE14
 4393 0040 00000000 		.4byte	.LFB15
 4394 0044 34000000 		.4byte	.LFE15
 4395 0048 00000000 		.4byte	.LFB16
 4396 004c 0A000000 		.4byte	.LFE16
 4397 0050 00000000 		.4byte	.LFB17
 4398 0054 28000000 		.4byte	.LFE17
 4399 0058 00000000 		.4byte	.LFB18
 4400 005c 34000000 		.4byte	.LFE18
 4401 0060 00000000 		.4byte	.LFB19
 4402 0064 18000000 		.4byte	.LFE19
 4403 0068 00000000 		.4byte	.LFB20
 4404 006c 0A000000 		.4byte	.LFE20
 4405 0070 00000000 		.4byte	.LFB21
 4406 0074 06000000 		.4byte	.LFE21
 4407 0078 00000000 		.4byte	.LFB22
 4408 007c 38000000 		.4byte	.LFE22
 4409 0080 00000000 		.4byte	.LFB23
 4410 0084 0A000000 		.4byte	.LFE23
 4411 0088 00000000 		.4byte	.LFB24
 4412 008c 08000000 		.4byte	.LFE24
 4413 0090 00000000 		.4byte	0
 4414 0094 00000000 		.4byte	0
 4415              		.section	.debug_line,"",%progbits
 4416              	.Ldebug_line0:
 4417 0000 8C030000 		.section	.debug_str,"MS",%progbits,1
 4417      02000302 
 4417      00000201 
ARM GAS  /var/folders/5n/p_75w94d66l9ssrldxqdhh700000gn/T//ccL7Lleu.s 			page 79


 4417      FB0E0D00 
 4417      01010101 
 4418              	.LASF50:
 4419 0000 76746675 		.ascii	"vtfunc_t\000"
 4419      6E635F74 
 4419      00
 4420              	.LASF44:
 4421 0009 54687265 		.ascii	"ThreadsList\000"
 4421      6164734C 
 4421      69737400 
 4422              	.LASF36:
 4423 0015 705F7761 		.ascii	"p_waiting\000"
 4423      6974696E 
 4423      6700
 4424              	.LASF104:
 4425 001f 7379735F 		.ascii	"sys_mbox_t\000"
 4425      6D626F78 
 4425      5F7400
 4426              	.LASF35:
 4427 002a 705F7469 		.ascii	"p_time\000"
 4427      6D6500
 4428              	.LASF45:
 4429 0031 72656761 		.ascii	"regarm_t\000"
 4429      726D5F74 
 4429      00
 4430              	.LASF27:
 4431 003a 705F7072 		.ascii	"p_prio\000"
 4431      696F00
 4432              	.LASF22:
 4433 0041 73797374 		.ascii	"systime_t\000"
 4433      696D655F 
 4433      7400
 4434              	.LASF72:
 4435 004b 6D5F6F77 		.ascii	"m_owner\000"
 4435      6E657200 
 4436              	.LASF68:
 4437 0053 735F7175 		.ascii	"s_queue\000"
 4437      65756500 
 4438              	.LASF57:
 4439 005b 76745F73 		.ascii	"vt_systime\000"
 4439      79737469 
 4439      6D6500
 4440              	.LASF149:
 4441 0066 7379735F 		.ascii	"sys_mbox_set_invalid\000"
 4441      6D626F78 
 4441      5F736574 
 4441      5F696E76 
 4441      616C6964 
 4442              	.LASF37:
 4443 007b 705F6D73 		.ascii	"p_msgqueue\000"
 4443      67717565 
 4443      756500
 4444              	.LASF0:
 4445 0086 756E7369 		.ascii	"unsigned int\000"
 4445      676E6564 
 4445      20696E74 
 4445      00
ARM GAS  /var/folders/5n/p_75w94d66l9ssrldxqdhh700000gn/T//ccL7Lleu.s 			page 80


 4446              	.LASF87:
 4447 0093 6E657874 		.ascii	"next\000"
 4447      00
 4448              	.LASF150:
 4449 0098 7379735F 		.ascii	"sys_thread_new\000"
 4449      74687265 
 4449      61645F6E 
 4449      657700
 4450              	.LASF102:
 4451 00a7 6572725F 		.ascii	"err_t\000"
 4451      7400
 4452              	.LASF85:
 4453 00ad 685F6672 		.ascii	"h_free\000"
 4453      656500
 4454              	.LASF88:
 4455 00b4 68656170 		.ascii	"heap\000"
 4455      00
 4456              	.LASF93:
 4457 00b9 77746F62 		.ascii	"wtobjp\000"
 4457      6A7000
 4458              	.LASF158:
 4459 00c0 76746C69 		.ascii	"vtlist\000"
 4459      737400
 4460              	.LASF119:
 4461 00c7 73746174 		.ascii	"stats_mem\000"
 4461      735F6D65 
 4461      6D00
 4462              	.LASF94:
 4463 00d1 65776D61 		.ascii	"ewmask\000"
 4463      736B00
 4464              	.LASF80:
 4465 00d8 4D61696C 		.ascii	"Mailbox\000"
 4465      626F7800 
 4466              	.LASF160:
 4467 00e0 6C776970 		.ascii	"lwip_stats\000"
 4467      5F737461 
 4467      747300
 4468              	.LASF69:
 4469 00eb 735F636E 		.ascii	"s_cnt\000"
 4469      7400
 4470              	.LASF123:
 4471 00f1 73746174 		.ascii	"stats_syselem\000"
 4471      735F7379 
 4471      73656C65 
 4471      6D00
 4472              	.LASF156:
 4473 00ff 7379735F 		.ascii	"sys_arch_unprotect\000"
 4473      61726368 
 4473      5F756E70 
 4473      726F7465 
 4473      637400
 4474              	.LASF167:
 4475 0112 63684D42 		.ascii	"chMBReset\000"
 4475      52657365 
 4475      7400
 4476              	.LASF54:
 4477 011c 76745F74 		.ascii	"vt_time\000"
ARM GAS  /var/folders/5n/p_75w94d66l9ssrldxqdhh700000gn/T//ccL7Lleu.s 			page 81


 4477      696D6500 
 4478              	.LASF11:
 4479 0124 75696E74 		.ascii	"uint32_t\000"
 4479      33325F74 
 4479      00
 4480              	.LASF2:
 4481 012d 696E7438 		.ascii	"int8_t\000"
 4481      5F7400
 4482              	.LASF21:
 4483 0134 6576656E 		.ascii	"eventmask_t\000"
 4483      746D6173 
 4483      6B5F7400 
 4484              	.LASF60:
 4485 0140 725F7072 		.ascii	"r_prio\000"
 4485      696F00
 4486              	.LASF173:
 4487 0147 474E5520 		.ascii	"GNU C 4.7.2\000"
 4487      4320342E 
 4487      372E3200 
 4488              	.LASF56:
 4489 0153 76745F70 		.ascii	"vt_par\000"
 4489      617200
 4490              	.LASF117:
 4491 015a 6F707465 		.ascii	"opterr\000"
 4491      727200
 4492              	.LASF125:
 4493 0161 6D757465 		.ascii	"mutex\000"
 4493      7800
 4494              	.LASF130:
 4495 0167 69705F66 		.ascii	"ip_frag\000"
 4495      72616700 
 4496              	.LASF19:
 4497 016f 74707269 		.ascii	"tprio_t\000"
 4497      6F5F7400 
 4498              	.LASF133:
 4499 0177 636F756E 		.ascii	"count\000"
 4499      7400
 4500              	.LASF122:
 4501 017d 696C6C65 		.ascii	"illegal\000"
 4501      67616C00 
 4502              	.LASF105:
 4503 0185 7379735F 		.ascii	"sys_thread_t\000"
 4503      74687265 
 4503      61645F74 
 4503      00
 4504              	.LASF159:
 4505 0192 726C6973 		.ascii	"rlist\000"
 4505      7400
 4506              	.LASF96:
 4507 0198 7466756E 		.ascii	"tfunc_t\000"
 4507      635F7400 
 4508              	.LASF129:
 4509 01a0 65746861 		.ascii	"etharp\000"
 4509      727000
 4510              	.LASF15:
 4511 01a7 6C6F6E67 		.ascii	"long long unsigned int\000"
 4511      206C6F6E 
ARM GAS  /var/folders/5n/p_75w94d66l9ssrldxqdhh700000gn/T//ccL7Lleu.s 			page 82


 4511      6720756E 
 4511      7369676E 
 4511      65642069 
 4512              	.LASF23:
 4513 01be 636E745F 		.ascii	"cnt_t\000"
 4513      7400
 4514              	.LASF107:
 4515 01c4 6C776970 		.ascii	"lwip_thread_fn\000"
 4515      5F746872 
 4515      6561645F 
 4515      666E00
 4516              	.LASF139:
 4517 01d3 74696D65 		.ascii	"time\000"
 4517      00
 4518              	.LASF29:
 4519 01d8 705F6E65 		.ascii	"p_newer\000"
 4519      77657200 
 4520              	.LASF135:
 4521 01e0 7379735F 		.ascii	"sys_sem_signal\000"
 4521      73656D5F 
 4521      7369676E 
 4521      616C00
 4522              	.LASF121:
 4523 01ef 75736564 		.ascii	"used\000"
 4523      00
 4524              	.LASF127:
 4525 01f4 73746174 		.ascii	"stats_\000"
 4525      735F00
 4526              	.LASF143:
 4527 01fb 7379735F 		.ascii	"sys_mbox_free\000"
 4527      6D626F78 
 4527      5F667265 
 4527      6500
 4528              	.LASF165:
 4529 0209 63685365 		.ascii	"chSemWaitTimeoutS\000"
 4529      6D576169 
 4529      7454696D 
 4529      656F7574 
 4529      5300
 4530              	.LASF174:
 4531 021b 2E2E2F2E 		.ascii	"../../os/various/lwip_bindings/arch/sys_arch.c\000"
 4531      2E2F6F73 
 4531      2F766172 
 4531      696F7573 
 4531      2F6C7769 
 4532              	.LASF176:
 4533 024a 68656170 		.ascii	"heap_header\000"
 4533      5F686561 
 4533      64657200 
 4534              	.LASF1:
 4535 0256 73697A65 		.ascii	"size_t\000"
 4535      5F7400
 4536              	.LASF91:
 4537 025d 7264796D 		.ascii	"rdymsg\000"
 4537      736700
 4538              	.LASF77:
 4539 0264 6D625F72 		.ascii	"mb_rdptr\000"
ARM GAS  /var/folders/5n/p_75w94d66l9ssrldxqdhh700000gn/T//ccL7Lleu.s 			page 83


 4539      64707472 
 4539      00
 4540              	.LASF103:
 4541 026d 7379735F 		.ascii	"sys_sem_t\000"
 4541      73656D5F 
 4541      7400
 4542              	.LASF98:
 4543 0277 73385F74 		.ascii	"s8_t\000"
 4543      00
 4544              	.LASF161:
 4545 027c 63685365 		.ascii	"chSemInit\000"
 4545      6D496E69 
 4545      7400
 4546              	.LASF70:
 4547 0286 4D757465 		.ascii	"Mutex\000"
 4547      7800
 4548              	.LASF79:
 4549 028c 6D625F65 		.ascii	"mb_emptysem\000"
 4549      6D707479 
 4549      73656D00 
 4550              	.LASF141:
 4551 0298 7379735F 		.ascii	"sys_sem_set_invalid\000"
 4551      73656D5F 
 4551      7365745F 
 4551      696E7661 
 4551      6C696400 
 4552              	.LASF177:
 4553 02ac 7379735F 		.ascii	"sys_init\000"
 4553      696E6974 
 4553      00
 4554              	.LASF31:
 4555 02b5 705F6E61 		.ascii	"p_name\000"
 4555      6D6500
 4556              	.LASF154:
 4557 02bc 7072696F 		.ascii	"prio\000"
 4557      00
 4558              	.LASF84:
 4559 02c1 685F7072 		.ascii	"h_provider\000"
 4559      6F766964 
 4559      657200
 4560              	.LASF43:
 4561 02cc 54687265 		.ascii	"ThreadsQueue\000"
 4561      61647351 
 4561      75657565 
 4561      00
 4562              	.LASF95:
 4563 02d9 63686172 		.ascii	"char\000"
 4563      00
 4564              	.LASF101:
 4565 02de 6D656D5F 		.ascii	"mem_size_t\000"
 4565      73697A65 
 4565      5F7400
 4566              	.LASF62:
 4567 02e9 725F6E65 		.ascii	"r_newer\000"
 4567      77657200 
 4568              	.LASF108:
 4569 02f1 73746174 		.ascii	"stats_proto\000"
ARM GAS  /var/folders/5n/p_75w94d66l9ssrldxqdhh700000gn/T//ccL7Lleu.s 			page 84


 4569      735F7072 
 4569      6F746F00 
 4570              	.LASF106:
 4571 02fd 7379735F 		.ascii	"sys_prot_t\000"
 4571      70726F74 
 4571      5F7400
 4572              	.LASF24:
 4573 0308 54687265 		.ascii	"Thread\000"
 4573      616400
 4574              	.LASF64:
 4575 030f 725F7072 		.ascii	"r_preempt\000"
 4575      65656D70 
 4575      7400
 4576              	.LASF17:
 4577 0319 74737461 		.ascii	"tstate_t\000"
 4577      74655F74 
 4577      00
 4578              	.LASF58:
 4579 0322 56544C69 		.ascii	"VTList\000"
 4579      737400
 4580              	.LASF30:
 4581 0329 705F6F6C 		.ascii	"p_older\000"
 4581      64657200 
 4582              	.LASF32:
 4583 0331 705F7374 		.ascii	"p_state\000"
 4583      61746500 
 4584              	.LASF171:
 4585 0339 6368436F 		.ascii	"chCoreAlloc\000"
 4585      7265416C 
 4585      6C6F6300 
 4586              	.LASF4:
 4587 0345 75696E74 		.ascii	"uint8_t\000"
 4587      385F7400 
 4588              	.LASF78:
 4589 034d 6D625F66 		.ascii	"mb_fullsem\000"
 4589      756C6C73 
 4589      656D00
 4590              	.LASF157:
 4591 0358 7076616C 		.ascii	"pval\000"
 4591      00
 4592              	.LASF153:
 4593 035d 73746163 		.ascii	"stacksize\000"
 4593      6B73697A 
 4593      6500
 4594              	.LASF164:
 4595 0367 63684865 		.ascii	"chHeapAlloc\000"
 4595      6170416C 
 4595      6C6F6300 
 4596              	.LASF42:
 4597 0373 705F6D70 		.ascii	"p_mpool\000"
 4597      6F6F6C00 
 4598              	.LASF40:
 4599 037b 705F6D74 		.ascii	"p_mtxlist\000"
 4599      786C6973 
 4599      7400
 4600              	.LASF86:
 4601 0385 685F6D74 		.ascii	"h_mtx\000"
ARM GAS  /var/folders/5n/p_75w94d66l9ssrldxqdhh700000gn/T//ccL7Lleu.s 			page 85


 4601      7800
 4602              	.LASF13:
 4603 038b 6C6F6E67 		.ascii	"long long int\000"
 4603      206C6F6E 
 4603      6720696E 
 4603      7400
 4604              	.LASF146:
 4605 0399 7379735F 		.ascii	"sys_arch_mbox_fetch\000"
 4605      61726368 
 4605      5F6D626F 
 4605      785F6665 
 4605      74636800 
 4606              	.LASF136:
 4607 03ad 7379735F 		.ascii	"sys_sem_new\000"
 4607      73656D5F 
 4607      6E657700 
 4608              	.LASF59:
 4609 03b9 725F7175 		.ascii	"r_queue\000"
 4609      65756500 
 4610              	.LASF20:
 4611 03c1 6D73675F 		.ascii	"msg_t\000"
 4611      7400
 4612              	.LASF162:
 4613 03c7 63684865 		.ascii	"chHeapFree\000"
 4613      61704672 
 4613      656500
 4614              	.LASF48:
 4615 03d2 636F6E74 		.ascii	"context\000"
 4615      65787400 
 4616              	.LASF97:
 4617 03da 75385F74 		.ascii	"u8_t\000"
 4617      00
 4618              	.LASF175:
 4619 03df 2F557365 		.ascii	"/Users/sin/Documents/Eclipse/Workspace/ChibiOS_2.4."
 4619      72732F73 
 4619      696E2F44 
 4619      6F63756D 
 4619      656E7473 
 4620 0412 322F6465 		.ascii	"2/demos/ARMCM4-STM32F407-LWIP\000"
 4620      6D6F732F 
 4620      41524D43 
 4620      4D342D53 
 4620      544D3332 
 4621              	.LASF33:
 4622 0430 705F666C 		.ascii	"p_flags\000"
 4622      61677300 
 4623              	.LASF147:
 4624 0438 7379735F 		.ascii	"sys_arch_mbox_tryfetch\000"
 4624      61726368 
 4624      5F6D626F 
 4624      785F7472 
 4624      79666574 
 4625              	.LASF90:
 4626 044f 73697A65 		.ascii	"size\000"
 4626      00
 4627              	.LASF75:
 4628 0454 6D625F74 		.ascii	"mb_top\000"
ARM GAS  /var/folders/5n/p_75w94d66l9ssrldxqdhh700000gn/T//ccL7Lleu.s 			page 86


 4628      6F7000
 4629              	.LASF148:
 4630 045b 7379735F 		.ascii	"sys_mbox_valid\000"
 4630      6D626F78 
 4630      5F76616C 
 4630      696400
 4631              	.LASF112:
 4632 046a 63686B65 		.ascii	"chkerr\000"
 4632      727200
 4633              	.LASF67:
 4634 0471 53656D61 		.ascii	"Semaphore\000"
 4634      70686F72 
 4634      6500
 4635              	.LASF63:
 4636 047b 725F6F6C 		.ascii	"r_older\000"
 4636      64657200 
 4637              	.LASF114:
 4638 0483 6D656D65 		.ascii	"memerr\000"
 4638      727200
 4639              	.LASF172:
 4640 048a 63685468 		.ascii	"chThdCreateStatic\000"
 4640      64437265 
 4640      61746553 
 4640      74617469 
 4640      6300
 4641              	.LASF38:
 4642 049c 705F6D73 		.ascii	"p_msg\000"
 4642      6700
 4643              	.LASF16:
 4644 04a2 746D6F64 		.ascii	"tmode_t\000"
 4644      655F7400 
 4645              	.LASF169:
 4646 04aa 63684D42 		.ascii	"chMBFetchS\000"
 4646      46657463 
 4646      685300
 4647              	.LASF145:
 4648 04b5 7379735F 		.ascii	"sys_mbox_trypost\000"
 4648      6D626F78 
 4648      5F747279 
 4648      706F7374 
 4648      00
 4649              	.LASF170:
 4650 04c6 63684D42 		.ascii	"chMBFetch\000"
 4650      46657463 
 4650      6800
 4651              	.LASF7:
 4652 04d0 75696E74 		.ascii	"uint16_t\000"
 4652      31365F74 
 4652      00
 4653              	.LASF47:
 4654 04d9 696E7463 		.ascii	"intctx\000"
 4654      747800
 4655              	.LASF99:
 4656 04e0 7531365F 		.ascii	"u16_t\000"
 4656      7400
 4657              	.LASF138:
 4658 04e6 74696D65 		.ascii	"timeout\000"
ARM GAS  /var/folders/5n/p_75w94d66l9ssrldxqdhh700000gn/T//ccL7Lleu.s 			page 87


 4658      6F757400 
 4659              	.LASF113:
 4660 04ee 6C656E65 		.ascii	"lenerr\000"
 4660      727200
 4661              	.LASF41:
 4662 04f5 705F7265 		.ascii	"p_realprio\000"
 4662      616C7072 
 4662      696F00
 4663              	.LASF100:
 4664 0500 7533325F 		.ascii	"u32_t\000"
 4664      7400
 4665              	.LASF6:
 4666 0506 73686F72 		.ascii	"short int\000"
 4666      7420696E 
 4666      7400
 4667              	.LASF83:
 4668 0510 6D656D6F 		.ascii	"memory_heap\000"
 4668      72795F68 
 4668      65617000 
 4669              	.LASF76:
 4670 051c 6D625F77 		.ascii	"mb_wrptr\000"
 4670      72707472 
 4670      00
 4671              	.LASF65:
 4672 0525 725F6375 		.ascii	"r_current\000"
 4672      7272656E 
 4672      7400
 4673              	.LASF39:
 4674 052f 705F6570 		.ascii	"p_epending\000"
 4674      656E6469 
 4674      6E6700
 4675              	.LASF71:
 4676 053a 6D5F7175 		.ascii	"m_queue\000"
 4676      65756500 
 4677              	.LASF10:
 4678 0542 6C6F6E67 		.ascii	"long int\000"
 4678      20696E74 
 4678      00
 4679              	.LASF115:
 4680 054b 72746572 		.ascii	"rterr\000"
 4680      7200
 4681              	.LASF120:
 4682 0551 61766169 		.ascii	"avail\000"
 4682      6C00
 4683              	.LASF25:
 4684 0557 705F6E65 		.ascii	"p_next\000"
 4684      787400
 4685              	.LASF14:
 4686 055e 75696E74 		.ascii	"uint64_t\000"
 4686      36345F74 
 4686      00
 4687              	.LASF28:
 4688 0567 705F6374 		.ascii	"p_ctx\000"
 4688      7800
 4689              	.LASF126:
 4690 056d 6D626F78 		.ascii	"mbox\000"
 4690      00
ARM GAS  /var/folders/5n/p_75w94d66l9ssrldxqdhh700000gn/T//ccL7Lleu.s 			page 88


 4691              	.LASF137:
 4692 0572 7379735F 		.ascii	"sys_arch_sem_wait\000"
 4692      61726368 
 4692      5F73656D 
 4692      5F776169 
 4692      7400
 4693              	.LASF51:
 4694 0584 56697274 		.ascii	"VirtualTimer\000"
 4694      75616C54 
 4694      696D6572 
 4694      00
 4695              	.LASF118:
 4696 0591 63616368 		.ascii	"cachehit\000"
 4696      65686974 
 4696      00
 4697              	.LASF81:
 4698 059a 6D656D67 		.ascii	"memgetfunc_t\000"
 4698      65746675 
 4698      6E635F74 
 4698      00
 4699              	.LASF151:
 4700 05a7 6E616D65 		.ascii	"name\000"
 4700      00
 4701              	.LASF166:
 4702 05ac 63684D42 		.ascii	"chMBInit\000"
 4702      496E6974 
 4702      00
 4703              	.LASF163:
 4704 05b5 63685365 		.ascii	"chSemSignal\000"
 4704      6D536967 
 4704      6E616C00 
 4705              	.LASF155:
 4706 05c1 7379735F 		.ascii	"sys_arch_protect\000"
 4706      61726368 
 4706      5F70726F 
 4706      74656374 
 4706      00
 4707              	.LASF134:
 4708 05d2 7379735F 		.ascii	"sys_sem_free\000"
 4708      73656D5F 
 4708      66726565 
 4708      00
 4709              	.LASF132:
 4710 05df 6D656D70 		.ascii	"memp\000"
 4710      00
 4711              	.LASF26:
 4712 05e4 705F7072 		.ascii	"p_prev\000"
 4712      657600
 4713              	.LASF49:
 4714 05eb 73697A65 		.ascii	"sizetype\000"
 4714      74797065 
 4714      00
 4715              	.LASF18:
 4716 05f4 74726566 		.ascii	"trefs_t\000"
 4716      735F7400 
 4717              	.LASF12:
 4718 05fc 6C6F6E67 		.ascii	"long unsigned int\000"
ARM GAS  /var/folders/5n/p_75w94d66l9ssrldxqdhh700000gn/T//ccL7Lleu.s 			page 89


 4718      20756E73 
 4718      69676E65 
 4718      6420696E 
 4718      7400
 4719              	.LASF74:
 4720 060e 6D625F62 		.ascii	"mb_buffer\000"
 4720      75666665 
 4720      7200
 4721              	.LASF9:
 4722 0618 696E7433 		.ascii	"int32_t\000"
 4722      325F7400 
 4723              	.LASF152:
 4724 0620 74687265 		.ascii	"thread\000"
 4724      616400
 4725              	.LASF116:
 4726 0627 70726F74 		.ascii	"proterr\000"
 4726      65727200 
 4727              	.LASF144:
 4728 062f 7379735F 		.ascii	"sys_mbox_post\000"
 4728      6D626F78 
 4728      5F706F73 
 4728      7400
 4729              	.LASF124:
 4730 063d 73746174 		.ascii	"stats_sys\000"
 4730      735F7379 
 4730      7300
 4731              	.LASF5:
 4732 0647 756E7369 		.ascii	"unsigned char\000"
 4732      676E6564 
 4732      20636861 
 4732      7200
 4733              	.LASF34:
 4734 0655 705F7265 		.ascii	"p_refs\000"
 4734      667300
 4735              	.LASF66:
 4736 065c 52656164 		.ascii	"ReadyList\000"
 4736      794C6973 
 4736      7400
 4737              	.LASF128:
 4738 0666 6C696E6B 		.ascii	"link\000"
 4738      00
 4739              	.LASF168:
 4740 066b 63684D42 		.ascii	"chMBPost\000"
 4740      506F7374 
 4740      00
 4741              	.LASF111:
 4742 0674 64726F70 		.ascii	"drop\000"
 4742      00
 4743              	.LASF52:
 4744 0679 76745F6E 		.ascii	"vt_next\000"
 4744      65787400 
 4745              	.LASF140:
 4746 0681 7379735F 		.ascii	"sys_sem_valid\000"
 4746      73656D5F 
 4746      76616C69 
 4746      6400
 4747              	.LASF142:
ARM GAS  /var/folders/5n/p_75w94d66l9ssrldxqdhh700000gn/T//ccL7Lleu.s 			page 90


 4748 068f 7379735F 		.ascii	"sys_mbox_new\000"
 4748      6D626F78 
 4748      5F6E6577 
 4748      00
 4749              	.LASF110:
 4750 069c 72656376 		.ascii	"recv\000"
 4750      00
 4751              	.LASF73:
 4752 06a1 6D5F6E65 		.ascii	"m_next\000"
 4752      787400
 4753              	.LASF3:
 4754 06a8 7369676E 		.ascii	"signed char\000"
 4754      65642063 
 4754      68617200 
 4755              	.LASF8:
 4756 06b4 73686F72 		.ascii	"short unsigned int\000"
 4756      7420756E 
 4756      7369676E 
 4756      65642069 
 4756      6E7400
 4757              	.LASF61:
 4758 06c7 725F6374 		.ascii	"r_ctx\000"
 4758      7800
 4759              	.LASF46:
 4760 06cd 73746B61 		.ascii	"stkalign_t\000"
 4760      6C69676E 
 4760      5F7400
 4761              	.LASF82:
 4762 06d8 4D656D6F 		.ascii	"MemoryHeap\000"
 4762      72794865 
 4762      617000
 4763              	.LASF109:
 4764 06e3 786D6974 		.ascii	"xmit\000"
 4764      00
 4765              	.LASF55:
 4766 06e8 76745F66 		.ascii	"vt_func\000"
 4766      756E6300 
 4767              	.LASF53:
 4768 06f0 76745F70 		.ascii	"vt_prev\000"
 4768      72657600 
 4769              	.LASF89:
 4770 06f8 616C6967 		.ascii	"align\000"
 4770      6E00
 4771              	.LASF92:
 4772 06fe 65786974 		.ascii	"exitcode\000"
 4772      636F6465 
 4772      00
 4773              	.LASF131:
 4774 0707 69636D70 		.ascii	"icmp\000"
 4774      00
 4775              		.ident	"GCC: (GNU) 4.7.2"
ARM GAS  /var/folders/5n/p_75w94d66l9ssrldxqdhh700000gn/T//ccL7Lleu.s 			page 91


DEFINED SYMBOLS
                            *ABS*:0000000000000000 sys_arch.c
/var/folders/5n/p_75w94d66l9ssrldxqdhh700000gn/T//ccL7Lleu.s:19     .text.sys_init:0000000000000000 $t
/var/folders/5n/p_75w94d66l9ssrldxqdhh700000gn/T//ccL7Lleu.s:25     .text.sys_init:0000000000000000 sys_init
/var/folders/5n/p_75w94d66l9ssrldxqdhh700000gn/T//ccL7Lleu.s:38     .text.sys_sem_new:0000000000000000 $t
/var/folders/5n/p_75w94d66l9ssrldxqdhh700000gn/T//ccL7Lleu.s:44     .text.sys_sem_new:0000000000000000 sys_sem_new
/var/folders/5n/p_75w94d66l9ssrldxqdhh700000gn/T//ccL7Lleu.s:99     .text.sys_sem_new:000000000000003c $d
/var/folders/5n/p_75w94d66l9ssrldxqdhh700000gn/T//ccL7Lleu.s:104    .text.sys_sem_free:0000000000000000 $t
/var/folders/5n/p_75w94d66l9ssrldxqdhh700000gn/T//ccL7Lleu.s:110    .text.sys_sem_free:0000000000000000 sys_sem_free
/var/folders/5n/p_75w94d66l9ssrldxqdhh700000gn/T//ccL7Lleu.s:146    .text.sys_sem_signal:0000000000000000 $t
/var/folders/5n/p_75w94d66l9ssrldxqdhh700000gn/T//ccL7Lleu.s:152    .text.sys_sem_signal:0000000000000000 sys_sem_signal
/var/folders/5n/p_75w94d66l9ssrldxqdhh700000gn/T//ccL7Lleu.s:171    .text.sys_arch_sem_wait:0000000000000000 $t
/var/folders/5n/p_75w94d66l9ssrldxqdhh700000gn/T//ccL7Lleu.s:177    .text.sys_arch_sem_wait:0000000000000000 sys_arch_sem_wait
/var/folders/5n/p_75w94d66l9ssrldxqdhh700000gn/T//ccL7Lleu.s:243    .text.sys_arch_sem_wait:0000000000000030 $d
/var/folders/5n/p_75w94d66l9ssrldxqdhh700000gn/T//ccL7Lleu.s:248    .text.sys_sem_valid:0000000000000000 $t
/var/folders/5n/p_75w94d66l9ssrldxqdhh700000gn/T//ccL7Lleu.s:254    .text.sys_sem_valid:0000000000000000 sys_sem_valid
/var/folders/5n/p_75w94d66l9ssrldxqdhh700000gn/T//ccL7Lleu.s:274    .text.sys_sem_set_invalid:0000000000000000 $t
/var/folders/5n/p_75w94d66l9ssrldxqdhh700000gn/T//ccL7Lleu.s:280    .text.sys_sem_set_invalid:0000000000000000 sys_sem_set_invalid
/var/folders/5n/p_75w94d66l9ssrldxqdhh700000gn/T//ccL7Lleu.s:296    .text.sys_mbox_new:0000000000000000 $t
/var/folders/5n/p_75w94d66l9ssrldxqdhh700000gn/T//ccL7Lleu.s:302    .text.sys_mbox_new:0000000000000000 sys_mbox_new
/var/folders/5n/p_75w94d66l9ssrldxqdhh700000gn/T//ccL7Lleu.s:361    .text.sys_mbox_new:0000000000000044 $d
/var/folders/5n/p_75w94d66l9ssrldxqdhh700000gn/T//ccL7Lleu.s:366    .text.sys_mbox_free:0000000000000000 $t
/var/folders/5n/p_75w94d66l9ssrldxqdhh700000gn/T//ccL7Lleu.s:372    .text.sys_mbox_free:0000000000000000 sys_mbox_free
/var/folders/5n/p_75w94d66l9ssrldxqdhh700000gn/T//ccL7Lleu.s:422    .text.sys_mbox_free:0000000000000030 $d
/var/folders/5n/p_75w94d66l9ssrldxqdhh700000gn/T//ccL7Lleu.s:427    .text.sys_mbox_post:0000000000000000 $t
/var/folders/5n/p_75w94d66l9ssrldxqdhh700000gn/T//ccL7Lleu.s:433    .text.sys_mbox_post:0000000000000000 sys_mbox_post
/var/folders/5n/p_75w94d66l9ssrldxqdhh700000gn/T//ccL7Lleu.s:453    .text.sys_mbox_trypost:0000000000000000 $t
/var/folders/5n/p_75w94d66l9ssrldxqdhh700000gn/T//ccL7Lleu.s:459    .text.sys_mbox_trypost:0000000000000000 sys_mbox_trypost
/var/folders/5n/p_75w94d66l9ssrldxqdhh700000gn/T//ccL7Lleu.s:499    .text.sys_mbox_trypost:0000000000000024 $d
/var/folders/5n/p_75w94d66l9ssrldxqdhh700000gn/T//ccL7Lleu.s:504    .text.sys_arch_mbox_fetch:0000000000000000 $t
/var/folders/5n/p_75w94d66l9ssrldxqdhh700000gn/T//ccL7Lleu.s:510    .text.sys_arch_mbox_fetch:0000000000000000 sys_arch_mbox_fetch
/var/folders/5n/p_75w94d66l9ssrldxqdhh700000gn/T//ccL7Lleu.s:576    .text.sys_arch_mbox_fetch:0000000000000030 $d
/var/folders/5n/p_75w94d66l9ssrldxqdhh700000gn/T//ccL7Lleu.s:581    .text.sys_arch_mbox_tryfetch:0000000000000000 $t
/var/folders/5n/p_75w94d66l9ssrldxqdhh700000gn/T//ccL7Lleu.s:587    .text.sys_arch_mbox_tryfetch:0000000000000000 sys_arch_mbox_tryfetch
/var/folders/5n/p_75w94d66l9ssrldxqdhh700000gn/T//ccL7Lleu.s:615    .text.sys_mbox_valid:0000000000000000 $t
/var/folders/5n/p_75w94d66l9ssrldxqdhh700000gn/T//ccL7Lleu.s:621    .text.sys_mbox_valid:0000000000000000 sys_mbox_valid
/var/folders/5n/p_75w94d66l9ssrldxqdhh700000gn/T//ccL7Lleu.s:641    .text.sys_mbox_set_invalid:0000000000000000 $t
/var/folders/5n/p_75w94d66l9ssrldxqdhh700000gn/T//ccL7Lleu.s:647    .text.sys_mbox_set_invalid:0000000000000000 sys_mbox_set_invalid
/var/folders/5n/p_75w94d66l9ssrldxqdhh700000gn/T//ccL7Lleu.s:663    .text.sys_thread_new:0000000000000000 $t
/var/folders/5n/p_75w94d66l9ssrldxqdhh700000gn/T//ccL7Lleu.s:669    .text.sys_thread_new:0000000000000000 sys_thread_new
/var/folders/5n/p_75w94d66l9ssrldxqdhh700000gn/T//ccL7Lleu.s:727    .text.sys_thread_new:0000000000000034 $d
/var/folders/5n/p_75w94d66l9ssrldxqdhh700000gn/T//ccL7Lleu.s:732    .text.sys_arch_protect:0000000000000000 $t
/var/folders/5n/p_75w94d66l9ssrldxqdhh700000gn/T//ccL7Lleu.s:738    .text.sys_arch_protect:0000000000000000 sys_arch_protect
/var/folders/5n/p_75w94d66l9ssrldxqdhh700000gn/T//ccL7Lleu.s:762    .text.sys_arch_unprotect:0000000000000000 $t
/var/folders/5n/p_75w94d66l9ssrldxqdhh700000gn/T//ccL7Lleu.s:768    .text.sys_arch_unprotect:0000000000000000 sys_arch_unprotect
                     .debug_frame:0000000000000010 $d
/var/folders/5n/p_75w94d66l9ssrldxqdhh700000gn/T//ccL7Lleu.s:247    .text.sys_arch_sem_wait:0000000000000034 $t
/var/folders/5n/p_75w94d66l9ssrldxqdhh700000gn/T//ccL7Lleu.s:365    .text.sys_mbox_new:0000000000000048 $t
/var/folders/5n/p_75w94d66l9ssrldxqdhh700000gn/T//ccL7Lleu.s:426    .text.sys_mbox_free:0000000000000034 $t
/var/folders/5n/p_75w94d66l9ssrldxqdhh700000gn/T//ccL7Lleu.s:503    .text.sys_mbox_trypost:0000000000000028 $t
/var/folders/5n/p_75w94d66l9ssrldxqdhh700000gn/T//ccL7Lleu.s:580    .text.sys_arch_mbox_fetch:0000000000000034 $t
/var/folders/5n/p_75w94d66l9ssrldxqdhh700000gn/T//ccL7Lleu.s:731    .text.sys_thread_new:0000000000000038 $t

UNDEFINED SYMBOLS
chHeapAlloc
chSemInit
lwip_stats
ARM GAS  /var/folders/5n/p_75w94d66l9ssrldxqdhh700000gn/T//ccL7Lleu.s 			page 92


chHeapFree
chSemSignal
chSemWaitTimeoutS
vtlist
chMBInit
chMBReset
chMBPost
chMBFetchS
chMBFetch
chCoreAlloc
chThdCreateStatic
rlist
