ARM GAS  /var/folders/5n/p_75w94d66l9ssrldxqdhh700000gn/T//ccyVBgQE.s 			page 1


   1              		.syntax unified
   2              		.cpu cortex-m4
   3              		.fpu softvfp
   4              		.eabi_attribute 20, 1
   5              		.eabi_attribute 21, 1
   6              		.eabi_attribute 23, 3
   7              		.eabi_attribute 24, 1
   8              		.eabi_attribute 25, 1
   9              		.eabi_attribute 26, 1
  10              		.eabi_attribute 30, 2
  11              		.eabi_attribute 34, 1
  12              		.eabi_attribute 18, 4
  13              		.thumb
  14              		.file	"tcp_in.c"
  15              		.text
  16              	.Ltext0:
  17              		.cfi_sections	.debug_frame
  18              		.section	.text.tcp_parseopt,"ax",%progbits
  19              		.align	2
  20              		.p2align 4,,15
  21              		.thumb
  22              		.thumb_func
  23              		.type	tcp_parseopt, %function
  24              	tcp_parseopt:
  25              	.LFB13:
  26              		.file 1 "../../ext/lwip-1.4.0/src/core/tcp_in.c"
  27              		.loc 1 1491 0
  28              		.cfi_startproc
  29              		@ args = 0, pretend = 0, frame = 0
  30              		@ frame_needed = 0, uses_anonymous_args = 0
  31              	.LVL0:
  32 0000 F8B5     		push	{r3, r4, r5, r6, r7, lr}
  33              	.LCFI0:
  34              		.cfi_def_cfa_offset 24
  35              		.cfi_offset 3, -24
  36              		.cfi_offset 4, -20
  37              		.cfi_offset 5, -16
  38              		.cfi_offset 6, -12
  39              		.cfi_offset 7, -8
  40              		.cfi_offset 14, -4
  41              		.loc 1 1499 0
  42 0002 214C     		ldr	r4, .L24
  43 0004 2568     		ldr	r5, [r4, #0]
  44              	.LVL1:
  45              		.loc 1 1491 0
  46 0006 0646     		mov	r6, r0
  47              		.loc 1 1502 0
  48 0008 A889     		ldrh	r0, [r5, #12]	@ unaligned
  49              	.LVL2:
  50 000a FFF7FEFF 		bl	lwip_ntohs
  51              	.LVL3:
  52 000e C0F30F30 		ubfx	r0, r0, #12, #16
  53 0012 0528     		cmp	r0, #5
  54 0014 00D8     		bhi	.L21
  55              	.LVL4:
  56              	.L1:
  57 0016 F8BD     		pop	{r3, r4, r5, r6, r7, pc}
ARM GAS  /var/folders/5n/p_75w94d66l9ssrldxqdhh700000gn/T//ccyVBgQE.s 			page 2


  58              	.LVL5:
  59              	.L21:
  60              		.loc 1 1503 0
  61 0018 2368     		ldr	r3, [r4, #0]
  62 001a 9889     		ldrh	r0, [r3, #12]	@ unaligned
  63 001c FFF7FEFF 		bl	lwip_ntohs
  64              	.LVL6:
  65 0020 000B     		lsrs	r0, r0, #12
  66 0022 441F     		subs	r4, r0, #5
  67 0024 A400     		lsls	r4, r4, #2
  68 0026 A4B2     		uxth	r4, r4
  69              	.LVL7:
  70              		.loc 1 1504 0
  71 0028 002C     		cmp	r4, #0
  72 002a F4D0     		beq	.L1
  73              		.loc 1 1499 0
  74 002c 05F11401 		add	r1, r5, #20
  75              		.loc 1 1504 0
  76 0030 0023     		movs	r3, #0
  77              		.loc 1 1526 0
  78 0032 40F21725 		movw	r5, #535
  79              	.LVL8:
  80              		.loc 1 1506 0
  81 0036 CA5C     		ldrb	r2, [r1, r3]	@ zero_extendqisi2
  82 0038 012A     		cmp	r2, #1
  83 003a 0DD0     		beq	.L6
  84              	.LVL9:
  85              	.L23:
  86 003c EBD3     		bcc	.L1
  87 003e 022A     		cmp	r2, #2
  88 0040 0DD0     		beq	.L22
  89              		.loc 1 1553 0
  90 0042 CA18     		adds	r2, r1, r3
  91 0044 5278     		ldrb	r2, [r2, #1]	@ zero_extendqisi2
  92 0046 002A     		cmp	r2, #0
  93 0048 E5D0     		beq	.L1
  94              		.loc 1 1561 0
  95 004a D318     		adds	r3, r2, r3
  96 004c 9BB2     		uxth	r3, r3
  97              	.LVL10:
  98              	.L8:
  99              		.loc 1 1504 0 discriminator 1
 100 004e 9C42     		cmp	r4, r3
 101 0050 E1D9     		bls	.L1
 102              	.LVL11:
 103              		.loc 1 1506 0
 104 0052 CA5C     		ldrb	r2, [r1, r3]	@ zero_extendqisi2
 105 0054 012A     		cmp	r2, #1
 106 0056 F1D1     		bne	.L23
 107              	.LVL12:
 108              	.L6:
 109              		.loc 1 1513 0
 110 0058 0133     		adds	r3, r3, #1
 111 005a 9BB2     		uxth	r3, r3
 112              	.LVL13:
 113              		.loc 1 1515 0
 114 005c F7E7     		b	.L8
ARM GAS  /var/folders/5n/p_75w94d66l9ssrldxqdhh700000gn/T//ccyVBgQE.s 			page 3


 115              	.LVL14:
 116              	.L22:
 117              		.loc 1 1518 0
 118 005e C818     		adds	r0, r1, r3
 119 0060 4278     		ldrb	r2, [r0, #1]	@ zero_extendqisi2
 120 0062 042A     		cmp	r2, #4
 121 0064 D7D1     		bne	.L1
 122              		.loc 1 1518 0 is_stmt 0 discriminator 1
 123 0066 DA1C     		adds	r2, r3, #3
 124 0068 A242     		cmp	r2, r4
 125 006a D4DA     		bge	.L1
 126              		.loc 1 1524 0 is_stmt 1
 127 006c 8778     		ldrb	r7, [r0, #2]	@ zero_extendqisi2
 128 006e C278     		ldrb	r2, [r0, #3]	@ zero_extendqisi2
 129 0070 42EA0722 		orr	r2, r2, r7, lsl #8
 130              	.LVL15:
 131              		.loc 1 1526 0
 132 0074 501E     		subs	r0, r2, #1
 133 0076 80B2     		uxth	r0, r0
 134 0078 A842     		cmp	r0, r5
 135 007a 88BF     		it	hi
 136 007c 4FF40672 		movhi	r2, #536
 137              	.LVL16:
 138              		.loc 1 1528 0
 139 0080 0433     		adds	r3, r3, #4
 140              	.LVL17:
 141              		.loc 1 1526 0
 142 0082 3287     		strh	r2, [r6, #56]	@ movhi
 143              		.loc 1 1528 0
 144 0084 9BB2     		uxth	r3, r3
 145              	.LVL18:
 146              		.loc 1 1529 0
 147 0086 E2E7     		b	.L8
 148              	.L25:
 149              		.align	2
 150              	.L24:
 151 0088 00000000 		.word	.LANCHOR0
 152              		.cfi_endproc
 153              	.LFE13:
 154              		.size	tcp_parseopt, .-tcp_parseopt
 155 008c AFF30080 		.section	.text.tcp_oos_insert_segment,"ax",%progbits
 156              		.align	2
 157              		.p2align 4,,15
 158              		.thumb
 159              		.thumb_func
 160              		.type	tcp_oos_insert_segment, %function
 161              	tcp_oos_insert_segment:
 162              	.LFB11:
 163              		.loc 1 798 0
 164              		.cfi_startproc
 165              		@ args = 0, pretend = 0, frame = 0
 166              		@ frame_needed = 0, uses_anonymous_args = 0
 167              	.LVL19:
 168 0000 2DE9F041 		push	{r4, r5, r6, r7, r8, lr}
 169              	.LCFI1:
 170              		.cfi_def_cfa_offset 24
 171              		.cfi_offset 4, -24
ARM GAS  /var/folders/5n/p_75w94d66l9ssrldxqdhh700000gn/T//ccyVBgQE.s 			page 4


 172              		.cfi_offset 5, -20
 173              		.cfi_offset 6, -16
 174              		.cfi_offset 7, -12
 175              		.cfi_offset 8, -8
 176              		.cfi_offset 14, -4
 177              		.loc 1 801 0
 178 0004 C368     		ldr	r3, [r0, #12]
 179              		.loc 1 798 0
 180 0006 0746     		mov	r7, r0
 181              		.loc 1 801 0
 182 0008 9889     		ldrh	r0, [r3, #12]	@ unaligned
 183              	.LVL20:
 184              		.loc 1 798 0
 185 000a 0D46     		mov	r5, r1
 186              		.loc 1 801 0
 187 000c FFF7FEFF 		bl	lwip_ntohs
 188              	.LVL21:
 189 0010 C207     		lsls	r2, r0, #31
 190 0012 43D4     		bmi	.L27
 191              		.loc 1 809 0 discriminator 1
 192 0014 002D     		cmp	r5, #0
 193 0016 32D0     		beq	.L45
 194              		.loc 1 810 0
 195 0018 EB68     		ldr	r3, [r5, #12]
 196 001a DFF88880 		ldr	r8, .L47
 197 001e 5A68     		ldr	r2, [r3, #4]	@ unaligned
 198 0020 3E89     		ldrh	r6, [r7, #8]
 199 0022 D8F80010 		ldr	r1, [r8, #0]
 200 0026 2889     		ldrh	r0, [r5, #8]
 201 0028 B61A     		subs	r6, r6, r2
 202 002a 7618     		adds	r6, r6, r1
 203 002c 301A     		subs	r0, r6, r0
 204              		.loc 1 809 0
 205 002e 0028     		cmp	r0, #0
 206 0030 B8BF     		it	lt
 207 0032 2C46     		movlt	r4, r5
 208 0034 11DA     		bge	.L43
 209 0036 26E0     		b	.L31
 210              	.L32:
 211              	.LVL22:
 212              		.loc 1 817 0
 213 0038 2C68     		ldr	r4, [r5, #0]
 214              	.LVL23:
 215              		.loc 1 818 0
 216 003a 2846     		mov	r0, r5
 217 003c FFF7FEFF 		bl	tcp_seg_free
 218              	.LVL24:
 219              		.loc 1 809 0
 220 0040 ECB1     		cbz	r4, .L45
 221              	.L46:
 222              		.loc 1 810 0 discriminator 2
 223 0042 E368     		ldr	r3, [r4, #12]
 224 0044 3E89     		ldrh	r6, [r7, #8]
 225 0046 5A68     		ldr	r2, [r3, #4]	@ unaligned
 226 0048 D8F80010 		ldr	r1, [r8, #0]
 227 004c 2089     		ldrh	r0, [r4, #8]
 228 004e B61A     		subs	r6, r6, r2
ARM GAS  /var/folders/5n/p_75w94d66l9ssrldxqdhh700000gn/T//ccyVBgQE.s 			page 5


 229 0050 7618     		adds	r6, r6, r1
 230 0052 301A     		subs	r0, r6, r0
 231              		.loc 1 809 0 discriminator 2
 232 0054 0028     		cmp	r0, #0
 233 0056 16DB     		blt	.L31
 234              		.loc 1 809 0 is_stmt 0
 235 0058 2546     		mov	r5, r4
 236              	.LVL25:
 237              	.L43:
 238              		.loc 1 813 0 is_stmt 1
 239 005a 9889     		ldrh	r0, [r3, #12]	@ unaligned
 240 005c FFF7FEFF 		bl	lwip_ntohs
 241              	.LVL26:
 242 0060 C307     		lsls	r3, r0, #31
 243 0062 E9D5     		bpl	.L32
 244              		.loc 1 814 0
 245 0064 FC68     		ldr	r4, [r7, #12]
 246 0066 0120     		movs	r0, #1
 247 0068 A689     		ldrh	r6, [r4, #12]	@ unaligned
 248 006a FFF7FEFF 		bl	lwip_htons
 249              	.LVL27:
 250 006e 3043     		orrs	r0, r0, r6
 251 0070 A081     		strh	r0, [r4, #12]	@ unaligned
 252              	.LVL28:
 253              		.loc 1 817 0
 254 0072 2C68     		ldr	r4, [r5, #0]
 255              	.LVL29:
 256              		.loc 1 818 0
 257 0074 2846     		mov	r0, r5
 258 0076 FFF7FEFF 		bl	tcp_seg_free
 259              	.LVL30:
 260              		.loc 1 809 0
 261 007a 002C     		cmp	r4, #0
 262 007c E1D1     		bne	.L46
 263              	.LVL31:
 264              	.L45:
 265              		.loc 1 804 0
 266 007e 0024     		movs	r4, #0
 267              	.LVL32:
 268              	.L29:
 269              		.loc 1 827 0
 270 0080 3C60     		str	r4, [r7, #0]
 271 0082 BDE8F081 		pop	{r4, r5, r6, r7, r8, pc}
 272              	.LVL33:
 273              	.L31:
 274              		.loc 1 820 0
 275 0086 002E     		cmp	r6, #0
 276 0088 FADD     		ble	.L29
 277              		.loc 1 823 0
 278 008a 511A     		subs	r1, r2, r1
 279 008c 89B2     		uxth	r1, r1
 280 008e 3981     		strh	r1, [r7, #8]	@ movhi
 281              		.loc 1 824 0
 282 0090 7868     		ldr	r0, [r7, #4]
 283 0092 FFF7FEFF 		bl	pbuf_realloc
 284              	.LVL34:
 285              		.loc 1 827 0
ARM GAS  /var/folders/5n/p_75w94d66l9ssrldxqdhh700000gn/T//ccyVBgQE.s 			page 6


 286 0096 3C60     		str	r4, [r7, #0]
 287 0098 BDE8F081 		pop	{r4, r5, r6, r7, r8, pc}
 288              	.LVL35:
 289              	.L27:
 290              		.loc 1 803 0
 291 009c 2846     		mov	r0, r5
 292 009e FFF7FEFF 		bl	tcp_segs_free
 293              	.LVL36:
 294 00a2 ECE7     		b	.L45
 295              	.L48:
 296              		.align	2
 297              	.L47:
 298 00a4 00000000 		.word	.LANCHOR1
 299              		.cfi_endproc
 300              	.LFE11:
 301              		.size	tcp_oos_insert_segment, .-tcp_oos_insert_segment
 302 00a8 AFF30080 		.section	.text.tcp_receive,"ax",%progbits
 302      AFF30080 
 303              		.align	2
 304              		.p2align 4,,15
 305              		.thumb
 306              		.thumb_func
 307              		.type	tcp_receive, %function
 308              	tcp_receive:
 309              	.LFB12:
 310              		.loc 1 845 0
 311              		.cfi_startproc
 312              		@ args = 0, pretend = 0, frame = 0
 313              		@ frame_needed = 0, uses_anonymous_args = 0
 314              	.LVL37:
 315 0000 2DE9F84F 		push	{r3, r4, r5, r6, r7, r8, r9, sl, fp, lr}
 316              	.LCFI2:
 317              		.cfi_def_cfa_offset 40
 318              		.cfi_offset 3, -40
 319              		.cfi_offset 4, -36
 320              		.cfi_offset 5, -32
 321              		.cfi_offset 6, -28
 322              		.cfi_offset 7, -24
 323              		.cfi_offset 8, -20
 324              		.cfi_offset 9, -16
 325              		.cfi_offset 10, -12
 326              		.cfi_offset 11, -8
 327              		.cfi_offset 14, -4
 328              		.loc 1 857 0
 329 0004 824B     		ldr	r3, .L288
 330              		.loc 1 861 0
 331 0006 DFF81882 		ldr	r8, .L288+16
 332              		.loc 1 857 0
 333 000a 1B78     		ldrb	r3, [r3, #0]	@ zero_extendqisi2
 334 000c 03F01003 		and	r3, r3, #16
 335 0010 DBB2     		uxtb	r3, r3
 336              		.loc 1 845 0
 337 0012 0446     		mov	r4, r0
 338              		.loc 1 857 0
 339 0014 1BBB     		cbnz	r3, .L236
 340 0016 DFF80C92 		ldr	r9, .L288+20
 341              	.LVL38:
ARM GAS  /var/folders/5n/p_75w94d66l9ssrldxqdhh700000gn/T//ccyVBgQE.s 			page 7


 342              	.L50:
 343              		.loc 1 1091 0
 344 001a B9F80010 		ldrh	r1, [r9, #0]
 345 001e 0029     		cmp	r1, #0
 346 0020 00F0B180 		beq	.L83
 347              		.loc 1 1122 0
 348 0024 D8F80030 		ldr	r3, [r8, #0]
 349 0028 626A     		ldr	r2, [r4, #36]
 350 002a D843     		mvns	r0, r3
 351 002c D042     		cmn	r0, r2
 352 002e 05D4     		bmi	.L84
 353              		.loc 1 1122 0 is_stmt 0 discriminator 1
 354 0030 501C     		adds	r0, r2, #1
 355 0032 C01A     		subs	r0, r0, r3
 356 0034 411A     		subs	r1, r0, r1
 357 0036 0029     		cmp	r1, #0
 358 0038 40F3CC81 		ble	.L256
 359              	.L84:
 360              		.loc 1 1173 0 is_stmt 1
 361 003c 991A     		subs	r1, r3, r2
 362 003e 0029     		cmp	r1, #0
 363 0040 C0F2B981 		blt	.L257
 364              	.L93:
 365              		.loc 1 1185 0 discriminator 1
 366 0044 218D     		ldrh	r1, [r4, #40]
 367 0046 C1F10101 		rsb	r1, r1, #1
 368 004a C918     		adds	r1, r1, r3
 369 004c 891A     		subs	r1, r1, r2
 370 004e 0029     		cmp	r1, #0
 371 0050 40F36781 		ble	.L258
 372              	.L94:
 373              		.loc 1 1468 0
 374 0054 2046     		mov	r0, r4
 375              		.loc 1 1479 0
 376 0056 BDE8F84F 		pop	{r3, r4, r5, r6, r7, r8, r9, sl, fp, lr}
 377              		.loc 1 1468 0
 378 005a FFF7FEBF 		b	tcp_send_empty_ack
 379              	.LVL39:
 380              	.L236:
 381              		.loc 1 861 0
 382 005e 036E     		ldr	r3, [r0, #96]
 383 0060 D8F80020 		ldr	r2, [r8, #0]
 384              		.loc 1 858 0
 385 0064 B0F85C50 		ldrh	r5, [r0, #92]
 386 0068 416E     		ldr	r1, [r0, #100]
 387              	.LVL40:
 388 006a 6A4E     		ldr	r6, .L288+4
 389              		.loc 1 861 0
 390 006c 981A     		subs	r0, r3, r2
 391              	.LVL41:
 392 006e 0028     		cmp	r0, #0
 393 0070 C0F2B980 		blt	.L259
 394              		.loc 1 861 0 is_stmt 0 discriminator 1
 395 0074 9342     		cmp	r3, r2
 396              		.loc 1 862 0 is_stmt 1 discriminator 1
 397 0076 3368     		ldr	r3, [r6, #0]
 398              		.loc 1 861 0 discriminator 1
ARM GAS  /var/folders/5n/p_75w94d66l9ssrldxqdhh700000gn/T//ccyVBgQE.s 			page 8


 399 0078 00F0A481 		beq	.L53
 400              	.L54:
 401              		.loc 1 862 0 discriminator 1
 402 007c 9942     		cmp	r1, r3
 403 007e 00F0E681 		beq	.L260
 404              	.L55:
 405              		.loc 1 903 0
 406 0082 E26C     		ldr	r2, [r4, #76]
 407 0084 981A     		subs	r0, r3, r2
 408 0086 0028     		cmp	r0, #0
 409 0088 40F38181 		ble	.L261
 410              		.loc 1 935 0
 411 008c D243     		mvns	r2, r2
 412 008e D342     		cmn	r3, r2
 413 0090 04D4     		bmi	.L61
 414              		.loc 1 935 0 is_stmt 0 discriminator 1
 415 0092 A26D     		ldr	r2, [r4, #88]
 416 0094 9A1A     		subs	r2, r3, r2
 417 0096 002A     		cmp	r2, #0
 418 0098 40F3C680 		ble	.L262
 419              	.L61:
 420              		.loc 1 1024 0 is_stmt 1
 421 009c 0023     		movs	r3, #0
 422 009e A4F86C30 		strh	r3, [r4, #108]	@ movhi
 423 00a2 DFF88091 		ldr	r9, .L288+20
 424 00a6 636F     		ldr	r3, [r4, #116]
 425              	.LVL42:
 426              	.L74:
 427              		.loc 1 1034 0 discriminator 1
 428 00a8 5A4F     		ldr	r7, .L288+4
 429              		.loc 1 1033 0 discriminator 1
 430 00aa 002B     		cmp	r3, #0
 431 00ac 3FD0     		beq	.L80
 432              	.L204:
 433              		.loc 1 1034 0 discriminator 2
 434 00ae DB68     		ldr	r3, [r3, #12]
 435 00b0 3568     		ldr	r5, [r6, #0]
 436 00b2 5868     		ldr	r0, [r3, #4]	@ unaligned
 437 00b4 FFF7FEFF 		bl	lwip_ntohl
 438              	.LVL43:
 439 00b8 626F     		ldr	r2, [r4, #116]
 440 00ba D368     		ldr	r3, [r2, #12]
 441 00bc B2F808B0 		ldrh	fp, [r2, #8]
 442 00c0 8246     		mov	sl, r0
 443 00c2 9889     		ldrh	r0, [r3, #12]	@ unaligned
 444 00c4 FFF7FEFF 		bl	lwip_ntohs
 445              	.LVL44:
 446 00c8 10F00300 		ands	r0, r0, #3
 447 00cc 18BF     		it	ne
 448 00ce 0120     		movne	r0, #1
 449 00d0 0BEB0003 		add	r3, fp, r0
 450 00d4 CAEB0505 		rsb	r5, sl, r5
 451 00d8 EB1A     		subs	r3, r5, r3
 452              		.loc 1 1033 0 discriminator 2
 453 00da 002B     		cmp	r3, #0
 454 00dc 27DB     		blt	.L80
 455              		.loc 1 1034 0
ARM GAS  /var/folders/5n/p_75w94d66l9ssrldxqdhh700000gn/T//ccyVBgQE.s 			page 9


 456 00de 3A68     		ldr	r2, [r7, #0]
 457 00e0 A36D     		ldr	r3, [r4, #88]
 458 00e2 D31A     		subs	r3, r2, r3
 459 00e4 002B     		cmp	r3, #0
 460 00e6 22DC     		bgt	.L80
 461              		.loc 1 1040 0
 462 00e8 656F     		ldr	r5, [r4, #116]
 463              	.LVL45:
 464              		.loc 1 1043 0
 465 00ea B4F870A0 		ldrh	sl, [r4, #112]
 466              		.loc 1 1041 0
 467 00ee 2B68     		ldr	r3, [r5, #0]
 468              		.loc 1 1043 0
 469 00f0 6868     		ldr	r0, [r5, #4]
 470              		.loc 1 1041 0
 471 00f2 6367     		str	r3, [r4, #116]
 472              		.loc 1 1043 0
 473 00f4 FFF7FEFF 		bl	pbuf_clen
 474              	.LVL46:
 475 00f8 8245     		cmp	sl, r0
 476 00fa 64D3     		bcc	.L263
 477              	.L75:
 478              		.loc 1 1045 0
 479 00fc B4F86C30 		ldrh	r3, [r4, #108]
 480 0100 002B     		cmp	r3, #0
 481 0102 54D1     		bne	.L264
 482              	.L76:
 483              		.loc 1 1048 0
 484 0104 6868     		ldr	r0, [r5, #4]
 485 0106 B4F870A0 		ldrh	sl, [r4, #112]
 486 010a FFF7FEFF 		bl	pbuf_clen
 487              	.LVL47:
 488 010e C0EB0A00 		rsb	r0, r0, sl
 489 0112 A4F87000 		strh	r0, [r4, #112]	@ movhi
 490              		.loc 1 1049 0
 491 0116 2846     		mov	r0, r5
 492 0118 FFF7FEFF 		bl	tcp_seg_free
 493              	.LVL48:
 494              		.loc 1 1051 0
 495 011c B4F87030 		ldrh	r3, [r4, #112]
 496 0120 13B1     		cbz	r3, .L247
 497              		.loc 1 1052 0
 498 0122 A36F     		ldr	r3, [r4, #120]
 499 0124 002B     		cmp	r3, #0
 500 0126 57D0     		beq	.L79
 501              	.L247:
 502 0128 636F     		ldr	r3, [r4, #116]
 503              		.loc 1 1033 0 discriminator 2
 504 012a 002B     		cmp	r3, #0
 505 012c BFD1     		bne	.L204
 506              	.LVL49:
 507              	.L80:
 508              		.loc 1 1064 0
 509 012e E36B     		ldr	r3, [r4, #60]
 510 0130 002B     		cmp	r3, #0
 511 0132 3FF472AF 		beq	.L50
 512              		.loc 1 1064 0 is_stmt 0 discriminator 1
ARM GAS  /var/folders/5n/p_75w94d66l9ssrldxqdhh700000gn/T//ccyVBgQE.s 			page 10


 513 0136 226C     		ldr	r2, [r4, #64]
 514 0138 3168     		ldr	r1, [r6, #0]
 515 013a 521A     		subs	r2, r2, r1
 516 013c 002A     		cmp	r2, #0
 517 013e BFF66CAF 		bge	.L50
 518              	.LVL50:
 519              		.loc 1 1067 0 is_stmt 1
 520 0142 354A     		ldr	r2, .L288+8
 521              	.LVL51:
 522              		.loc 1 1073 0
 523 0144 B4F84410 		ldrh	r1, [r4, #68]
 524              		.loc 1 1067 0
 525 0148 1068     		ldr	r0, [r2, #0]
 526              		.loc 1 1073 0
 527 014a 41F3CC02 		sbfx	r2, r1, #3, #13
 528              	.LVL52:
 529              		.loc 1 1067 0
 530 014e C31A     		subs	r3, r0, r3
 531              	.LVL53:
 532              		.loc 1 1073 0
 533 0150 9A1A     		subs	r2, r3, r2
 534 0152 92B2     		uxth	r2, r2
 535              		.loc 1 1074 0
 536 0154 5118     		adds	r1, r2, r1
 537              		.loc 1 1073 0
 538 0156 93B2     		uxth	r3, r2
 539              	.LVL54:
 540              		.loc 1 1074 0
 541 0158 89B2     		uxth	r1, r1
 542              		.loc 1 1075 0
 543 015a 1804     		lsls	r0, r3, #16
 544              		.loc 1 1074 0
 545 015c A4F84410 		strh	r1, [r4, #68]	@ movhi
 546              		.loc 1 1075 0
 547 0160 00F1A981 		bmi	.L265
 548              	.LVL55:
 549              	.L82:
 550              		.loc 1 1078 0
 551 0164 B4F84620 		ldrh	r2, [r4, #70]
 552              	.LVL56:
 553 0168 42F38D00 		sbfx	r0, r2, #2, #14
 554 016c 121A     		subs	r2, r2, r0
 555              	.LVL57:
 556              		.loc 1 1079 0
 557 016e D318     		adds	r3, r2, r3
 558              	.LVL58:
 559 0170 9BB2     		uxth	r3, r3
 560              		.loc 1 1080 0
 561 0172 41F3CC02 		sbfx	r2, r1, #3, #13
 562 0176 9A18     		adds	r2, r3, r2
 563              		.loc 1 1079 0
 564 0178 A4F84630 		strh	r3, [r4, #70]	@ movhi
 565              		.loc 1 1085 0
 566 017c 0023     		movs	r3, #0
 567              		.loc 1 1080 0
 568 017e A4F84820 		strh	r2, [r4, #72]	@ movhi
 569              		.loc 1 1085 0
ARM GAS  /var/folders/5n/p_75w94d66l9ssrldxqdhh700000gn/T//ccyVBgQE.s 			page 11


 570 0182 E363     		str	r3, [r4, #60]
 571 0184 49E7     		b	.L50
 572              	.L83:
 573              		.loc 1 1475 0
 574 0186 D8F80020 		ldr	r2, [r8, #0]
 575 018a 636A     		ldr	r3, [r4, #36]
 576 018c D11A     		subs	r1, r2, r3
 577 018e 0029     		cmp	r1, #0
 578 0190 05DB     		blt	.L134
 579              		.loc 1 1475 0 is_stmt 0 discriminator 1
 580 0192 0132     		adds	r2, r2, #1
 581 0194 218D     		ldrh	r1, [r4, #40]
 582 0196 D31A     		subs	r3, r2, r3
 583 0198 5B1A     		subs	r3, r3, r1
 584 019a 002B     		cmp	r3, #0
 585 019c 1ADD     		ble	.L49
 586              	.L134:
 587              		.loc 1 1476 0 is_stmt 1
 588 019e 94F82030 		ldrb	r3, [r4, #32]	@ zero_extendqisi2
 589 01a2 43F00203 		orr	r3, r3, #2
 590 01a6 84F82030 		strb	r3, [r4, #32]
 591 01aa BDE8F88F 		pop	{r3, r4, r5, r6, r7, r8, r9, sl, fp, pc}
 592              	.LVL59:
 593              	.L264:
 594              		.loc 1 1045 0 discriminator 1
 595 01ae EB68     		ldr	r3, [r5, #12]
 596 01b0 9889     		ldrh	r0, [r3, #12]	@ unaligned
 597 01b2 FFF7FEFF 		bl	lwip_ntohs
 598              	.LVL60:
 599 01b6 C307     		lsls	r3, r0, #31
 600 01b8 A4D5     		bpl	.L76
 601              		.loc 1 1046 0
 602 01ba B4F86C30 		ldrh	r3, [r4, #108]
 603 01be 013B     		subs	r3, r3, #1
 604 01c0 A4F86C30 		strh	r3, [r4, #108]	@ movhi
 605 01c4 9EE7     		b	.L76
 606              	.L263:
 607              		.loc 1 1043 0 discriminator 1
 608 01c6 FFF7FEFF 		bl	port_halt
 609              	.LVL61:
 610 01ca 97E7     		b	.L75
 611              	.LVL62:
 612              	.L275:
 613              		.loc 1 1426 0 discriminator 1
 614 01cc CB1A     		subs	r3, r1, r3
 615              		.loc 1 1425 0 discriminator 1
 616 01ce 002B     		cmp	r3, #0
 617 01d0 00F37481 		bgt	.L266
 618              	.LVL63:
 619              	.L49:
 620 01d4 BDE8F88F 		pop	{r3, r4, r5, r6, r7, r8, r9, sl, fp, pc}
 621              	.LVL64:
 622              	.L79:
 623              		.loc 1 1052 0 discriminator 1
 624 01d8 636F     		ldr	r3, [r4, #116]
 625 01da 002B     		cmp	r3, #0
 626 01dc 7FF467AF 		bne	.L204
ARM GAS  /var/folders/5n/p_75w94d66l9ssrldxqdhh700000gn/T//ccyVBgQE.s 			page 12


 627              		.loc 1 1052 0 is_stmt 0 discriminator 2
 628 01e0 FFF7FEFF 		bl	port_halt
 629              	.LVL65:
 630 01e4 A0E7     		b	.L247
 631              	.LVL66:
 632              	.L259:
 633 01e6 0D4B     		ldr	r3, .L288+12
 634 01e8 1868     		ldr	r0, [r3, #0]
 635 01ea 3368     		ldr	r3, [r6, #0]
 636 01ec C089     		ldrh	r0, [r0, #14]	@ unaligned
 637              	.L52:
 638              		.loc 1 864 0 is_stmt 1
 639 01ee A4F85C00 		strh	r0, [r4, #92]	@ movhi
 640              		.loc 1 865 0
 641 01f2 2266     		str	r2, [r4, #96]
 642              		.loc 1 866 0
 643 01f4 6366     		str	r3, [r4, #100]
 644              		.loc 1 867 0
 645 01f6 0028     		cmp	r0, #0
 646 01f8 3FF443AF 		beq	.L55
 647              		.loc 1 867 0 is_stmt 0 discriminator 1
 648 01fc 94F8A020 		ldrb	r2, [r4, #160]	@ zero_extendqisi2
 649 0200 002A     		cmp	r2, #0
 650 0202 3FF43EAF 		beq	.L55
 651              		.loc 1 868 0 is_stmt 1
 652 0206 0022     		movs	r2, #0
 653 0208 84F8A020 		strb	r2, [r4, #160]
 654 020c 39E7     		b	.L55
 655              	.L289:
 656 020e 00BF     		.align	2
 657              	.L288:
 658 0210 00000000 		.word	.LANCHOR2
 659 0214 00000000 		.word	.LANCHOR3
 660 0218 00000000 		.word	tcp_ticks
 661 021c 00000000 		.word	.LANCHOR0
 662 0220 00000000 		.word	.LANCHOR1
 663 0224 00000000 		.word	.LANCHOR4
 664              	.L262:
 665              		.loc 1 941 0
 666 0228 94F82020 		ldrb	r2, [r4, #32]	@ zero_extendqisi2
 667 022c 02F00401 		and	r1, r2, #4
 668              	.LVL67:
 669 0230 C9B2     		uxtb	r1, r1
 670 0232 39B1     		cbz	r1, .L62
 671              		.loc 1 943 0
 672 0234 B4F85410 		ldrh	r1, [r4, #84]
 673              		.loc 1 942 0
 674 0238 22F00402 		bic	r2, r2, #4
 675 023c 84F82020 		strb	r2, [r4, #32]
 676              		.loc 1 943 0
 677 0240 A4F85210 		strh	r1, [r4, #82]	@ movhi
 678              	.L62:
 679              		.loc 1 955 0
 680 0244 B4F86E10 		ldrh	r1, [r4, #110]
 681              		.loc 1 950 0
 682 0248 B4F94470 		ldrsh	r7, [r4, #68]
 683 024c B4F84650 		ldrh	r5, [r4, #70]
ARM GAS  /var/folders/5n/p_75w94d66l9ssrldxqdhh700000gn/T//ccyVBgQE.s 			page 13


 684              	.LVL68:
 685              		.loc 1 963 0
 686 0250 227C     		ldrb	r2, [r4, #16]	@ zero_extendqisi2
 687              		.loc 1 959 0
 688 0252 E364     		str	r3, [r4, #76]
 689              		.loc 1 953 0
 690 0254 80B2     		uxth	r0, r0
 691              		.loc 1 947 0
 692 0256 0023     		movs	r3, #0
 693              		.loc 1 950 0
 694 0258 05EBE705 		add	r5, r5, r7, asr #3
 695              		.loc 1 955 0
 696 025c 4118     		adds	r1, r0, r1
 697              		.loc 1 963 0
 698 025e 032A     		cmp	r2, #3
 699              		.loc 1 947 0
 700 0260 84F84A30 		strb	r3, [r4, #74]
 701              		.loc 1 950 0
 702 0264 A4F84850 		strh	r5, [r4, #72]	@ movhi
 703              		.loc 1 953 0
 704 0268 A4F86C00 		strh	r0, [r4, #108]	@ movhi
 705              		.loc 1 955 0
 706 026c A4F86E10 		strh	r1, [r4, #110]	@ movhi
 707              		.loc 1 958 0
 708 0270 84F85030 		strb	r3, [r4, #80]
 709              		.loc 1 963 0
 710 0274 00F2F380 		bhi	.L267
 711              	.LVL69:
 712              	.L245:
 713 0278 A36F     		ldr	r3, [r4, #120]
 714              		.loc 1 986 0 discriminator 2
 715 027a 002B     		cmp	r3, #0
 716 027c 00F09D82 		beq	.L246
 717              	.L205:
 718              		.loc 1 987 0 discriminator 2
 719 0280 DB68     		ldr	r3, [r3, #12]
 720 0282 5868     		ldr	r0, [r3, #4]	@ unaligned
 721 0284 FFF7FEFF 		bl	lwip_ntohl
 722              	.LVL70:
 723 0288 A36F     		ldr	r3, [r4, #120]
 724 028a DA68     		ldr	r2, [r3, #12]
 725 028c 1D89     		ldrh	r5, [r3, #8]
 726 028e 0746     		mov	r7, r0
 727 0290 9089     		ldrh	r0, [r2, #12]	@ unaligned
 728 0292 FFF7FEFF 		bl	lwip_ntohs
 729              	.LVL71:
 730 0296 3268     		ldr	r2, [r6, #0]
 731 0298 10F00300 		ands	r0, r0, #3
 732 029c 18BF     		it	ne
 733 029e 0120     		movne	r0, #1
 734 02a0 BA1A     		subs	r2, r7, r2
 735 02a2 2B18     		adds	r3, r5, r0
 736 02a4 D318     		adds	r3, r2, r3
 737              		.loc 1 986 0 discriminator 2
 738 02a6 002B     		cmp	r3, #0
 739 02a8 00F38982 		bgt	.L268
 740              		.loc 1 994 0
ARM GAS  /var/folders/5n/p_75w94d66l9ssrldxqdhh700000gn/T//ccyVBgQE.s 			page 14


 741 02ac A56F     		ldr	r5, [r4, #120]
 742              	.LVL72:
 743              		.loc 1 998 0
 744 02ae B4F87070 		ldrh	r7, [r4, #112]
 745              		.loc 1 995 0
 746 02b2 2B68     		ldr	r3, [r5, #0]
 747              		.loc 1 998 0
 748 02b4 6868     		ldr	r0, [r5, #4]
 749              		.loc 1 995 0
 750 02b6 A367     		str	r3, [r4, #120]
 751              		.loc 1 998 0
 752 02b8 FFF7FEFF 		bl	pbuf_clen
 753              	.LVL73:
 754 02bc 8742     		cmp	r7, r0
 755 02be 2DD3     		bcc	.L269
 756              	.L66:
 757              		.loc 1 1000 0
 758 02c0 B4F86C30 		ldrh	r3, [r4, #108]
 759 02c4 F3B9     		cbnz	r3, .L270
 760              	.L67:
 761              		.loc 1 1004 0
 762 02c6 6868     		ldr	r0, [r5, #4]
 763 02c8 B4F87070 		ldrh	r7, [r4, #112]
 764 02cc FFF7FEFF 		bl	pbuf_clen
 765              	.LVL74:
 766 02d0 381A     		subs	r0, r7, r0
 767 02d2 A4F87000 		strh	r0, [r4, #112]	@ movhi
 768              		.loc 1 1005 0
 769 02d6 2846     		mov	r0, r5
 770 02d8 FFF7FEFF 		bl	tcp_seg_free
 771              	.LVL75:
 772              		.loc 1 1008 0
 773 02dc B4F87030 		ldrh	r3, [r4, #112]
 774 02e0 002B     		cmp	r3, #0
 775 02e2 C9D0     		beq	.L245
 776              		.loc 1 1009 0
 777 02e4 A36F     		ldr	r3, [r4, #120]
 778 02e6 002B     		cmp	r3, #0
 779 02e8 CAD1     		bne	.L205
 780              		.loc 1 1009 0 is_stmt 0 discriminator 1
 781 02ea 636F     		ldr	r3, [r4, #116]
 782 02ec 002B     		cmp	r3, #0
 783 02ee 00F03183 		beq	.L271
 784              	.LVL76:
 785              	.L70:
 786              		.loc 1 1017 0 is_stmt 1
 787 02f2 4FF6FF72 		movw	r2, #65535
 788 02f6 E286     		strh	r2, [r4, #54]	@ movhi
 789              	.L73:
 790              		.loc 1 1021 0
 791 02f8 0022     		movs	r2, #0
 792 02fa 84F83420 		strb	r2, [r4, #52]
 793 02fe DFF8D892 		ldr	r9, .L290+12
 794 0302 D1E6     		b	.L74
 795              	.LVL77:
 796              	.L270:
 797              		.loc 1 1000 0 discriminator 1
ARM GAS  /var/folders/5n/p_75w94d66l9ssrldxqdhh700000gn/T//ccyVBgQE.s 			page 15


 798 0304 EB68     		ldr	r3, [r5, #12]
 799 0306 9889     		ldrh	r0, [r3, #12]	@ unaligned
 800 0308 FFF7FEFF 		bl	lwip_ntohs
 801              	.LVL78:
 802 030c C207     		lsls	r2, r0, #31
 803 030e DAD5     		bpl	.L67
 804              		.loc 1 1001 0
 805 0310 B4F86C30 		ldrh	r3, [r4, #108]
 806 0314 013B     		subs	r3, r3, #1
 807 0316 A4F86C30 		strh	r3, [r4, #108]	@ movhi
 808 031a D4E7     		b	.L67
 809              	.L269:
 810              		.loc 1 998 0 discriminator 1
 811 031c FFF7FEFF 		bl	port_halt
 812              	.LVL79:
 813 0320 CEE7     		b	.L66
 814              	.LVL80:
 815              	.L258:
 816              		.loc 1 1187 0
 817 0322 9342     		cmp	r3, r2
 818 0324 00F02081 		beq	.L272
 819              		.loc 1 1341 0
 820 0328 2046     		mov	r0, r4
 821 032a FFF7FEFF 		bl	tcp_send_empty_ack
 822              	.LVL81:
 823              		.loc 1 1344 0
 824 032e E56F     		ldr	r5, [r4, #124]
 825 0330 002D     		cmp	r5, #0
 826 0332 00F0F082 		beq	.L273
 827 0336 D8F80010 		ldr	r1, [r8, #0]
 828 033a 0026     		movs	r6, #0
 829              		.loc 1 1403 0
 830 033c 4F1C     		adds	r7, r1, #1
 831 033e 0EE0     		b	.L131
 832              	.L128:
 833 0340 F268     		ldr	r2, [r6, #12]
 834 0342 5268     		ldr	r2, [r2, #4]	@ unaligned
 835 0344 D243     		mvns	r2, r2
 836 0346 CA42     		cmn	r2, r1
 837 0348 03D4     		bmi	.L129
 838              		.loc 1 1403 0 is_stmt 0 discriminator 1
 839 034a BCF1000F 		cmp	ip, #0
 840 034e 40F34B82 		ble	.L274
 841              	.L129:
 842              		.loc 1 1425 0 is_stmt 1
 843 0352 2A68     		ldr	r2, [r5, #0]
 844 0354 2E46     		mov	r6, r5
 845 0356 002A     		cmp	r2, #0
 846 0358 3FF438AF 		beq	.L275
 847 035c 1546     		mov	r5, r2
 848              	.L131:
 849              		.loc 1 1361 0
 850 035e E868     		ldr	r0, [r5, #12]
 851 0360 4368     		ldr	r3, [r0, #4]	@ unaligned
 852 0362 8B42     		cmp	r3, r1
 853              		.loc 1 1403 0
 854 0364 C3EB070C 		rsb	ip, r3, r7
ARM GAS  /var/folders/5n/p_75w94d66l9ssrldxqdhh700000gn/T//ccyVBgQE.s 			page 16


 855              		.loc 1 1361 0
 856 0368 00F01782 		beq	.L276
 857              		.loc 1 1387 0
 858 036c 002E     		cmp	r6, #0
 859 036e E7D1     		bne	.L128
 860              		.loc 1 1388 0
 861 0370 CA1A     		subs	r2, r1, r3
 862 0372 002A     		cmp	r2, #0
 863 0374 EDDA     		bge	.L129
 864              		.loc 1 1393 0
 865 0376 9548     		ldr	r0, .L290
 866 0378 FFF7FEFF 		bl	tcp_seg_copy
 867              	.LVL82:
 868              		.loc 1 1394 0
 869 037c 0028     		cmp	r0, #0
 870 037e 3FF429AF 		beq	.L49
 871              		.loc 1 1395 0
 872 0382 E067     		str	r0, [r4, #124]
 873              	.L251:
 874              		.loc 1 1396 0
 875 0384 2946     		mov	r1, r5
 876              		.loc 1 1479 0
 877 0386 BDE8F84F 		pop	{r3, r4, r5, r6, r7, r8, r9, sl, fp, lr}
 878              		.loc 1 1396 0
 879 038a FFF7FEBF 		b	tcp_oos_insert_segment
 880              	.LVL83:
 881              	.L261:
 882              		.loc 1 906 0
 883 038e DFF84892 		ldr	r9, .L290+12
 884 0392 B9F80000 		ldrh	r0, [r9, #0]
 885              		.loc 1 904 0
 886 0396 0027     		movs	r7, #0
 887 0398 A4F86C70 		strh	r7, [r4, #108]	@ movhi
 888              		.loc 1 906 0
 889 039c 30B9     		cbnz	r0, .L57
 890              		.loc 1 908 0
 891 039e B4F85C70 		ldrh	r7, [r4, #92]
 892 03a2 606E     		ldr	r0, [r4, #100]
 893              		.loc 1 858 0
 894 03a4 6918     		adds	r1, r5, r1
 895              	.LVL84:
 896              		.loc 1 908 0
 897 03a6 3818     		adds	r0, r7, r0
 898 03a8 8842     		cmp	r0, r1
 899 03aa 69D0     		beq	.L277
 900              	.L57:
 901              		.loc 1 933 0
 902 03ac 0023     		movs	r3, #0
 903 03ae 84F85030 		strb	r3, [r4, #80]
 904 03b2 636F     		ldr	r3, [r4, #116]
 905 03b4 78E6     		b	.L74
 906              	.LVL85:
 907              	.L257:
 908              		.loc 1 1178 0
 909 03b6 94F82030 		ldrb	r3, [r4, #32]	@ zero_extendqisi2
 910 03ba 43F00203 		orr	r3, r3, #2
 911 03be 84F82030 		strb	r3, [r4, #32]
ARM GAS  /var/folders/5n/p_75w94d66l9ssrldxqdhh700000gn/T//ccyVBgQE.s 			page 17


 912 03c2 47E6     		b	.L94
 913              	.LVL86:
 914              	.L53:
 915              		.loc 1 862 0
 916 03c4 C81A     		subs	r0, r1, r3
 917 03c6 0028     		cmp	r0, #0
 918 03c8 BFF658AE 		bge	.L54
 919 03cc 8048     		ldr	r0, .L290+4
 920 03ce 0068     		ldr	r0, [r0, #0]
 921 03d0 C089     		ldrh	r0, [r0, #14]	@ unaligned
 922 03d2 0CE7     		b	.L52
 923              	.LVL87:
 924              	.L256:
 925              		.loc 1 1144 0
 926 03d4 7D4F     		ldr	r7, .L290
 927 03d6 7D68     		ldr	r5, [r7, #4]
 928              		.loc 1 1143 0
 929 03d8 C3EB020A 		rsb	sl, r3, r2
 930 03dc 5646     		mov	r6, sl
 931              	.LVL88:
 932              		.loc 1 1145 0
 933 03de 002D     		cmp	r5, #0
 934 03e0 00F09682 		beq	.L278
 935              	.L85:
 936              		.loc 1 1146 0
 937 03e4 47F6FE73 		movw	r3, #32766
 938 03e8 9A45     		cmp	sl, r3
 939 03ea 00F3FA81 		bgt	.L279
 940              	.L86:
 941              		.loc 1 1147 0
 942 03ee 7868     		ldr	r0, [r7, #4]
 943 03f0 4389     		ldrh	r3, [r0, #10]
 944 03f2 9A45     		cmp	sl, r3
 945 03f4 40F3EA81 		ble	.L87
 946              		.loc 1 1148 0
 947 03f8 0389     		ldrh	r3, [r0, #8]
 948 03fa 9A45     		cmp	sl, r3
 949 03fc 00F31182 		bgt	.L280
 950              	.L88:
 951              		.loc 1 1150 0
 952 0400 6989     		ldrh	r1, [r5, #10]
 953              		.loc 1 1149 0
 954 0402 CAEB0303 		rsb	r3, sl, r3
 955              		.loc 1 1150 0
 956 0406 8A45     		cmp	sl, r1
 957              		.loc 1 1149 0
 958 0408 98B2     		uxth	r0, r3
 959              	.LVL89:
 960              		.loc 1 1150 0
 961 040a 07DD     		ble	.L89
 962              		.loc 1 1156 0
 963 040c 0023     		movs	r3, #0
 964              	.LVL90:
 965              	.L203:
 966 040e 6B81     		strh	r3, [r5, #10]	@ movhi
 967              		.loc 1 1155 0
 968 0410 2881     		strh	r0, [r5, #8]	@ movhi
ARM GAS  /var/folders/5n/p_75w94d66l9ssrldxqdhh700000gn/T//ccyVBgQE.s 			page 18


 969              		.loc 1 1157 0
 970 0412 2D68     		ldr	r5, [r5, #0]
 971              	.LVL91:
 972              		.loc 1 1151 0
 973 0414 761A     		subs	r6, r6, r1
 974              	.LVL92:
 975              		.loc 1 1150 0
 976 0416 6989     		ldrh	r1, [r5, #10]
 977 0418 B142     		cmp	r1, r6
 978 041a F8DB     		blt	.L203
 979              	.L89:
 980              		.loc 1 1159 0
 981 041c 7142     		negs	r1, r6
 982 041e 2846     		mov	r0, r5
 983              	.LVL93:
 984 0420 09B2     		sxth	r1, r1
 985 0422 FFF7FEFF 		bl	pbuf_header
 986              	.LVL94:
 987 0426 0028     		cmp	r0, #0
 988 0428 40F0D881 		bne	.L92
 989              	.L91:
 990              		.loc 1 1169 0
 991 042c D8F80000 		ldr	r0, [r8, #0]
 992 0430 3989     		ldrh	r1, [r7, #8]
 993 0432 636A     		ldr	r3, [r4, #36]
 994              		.loc 1 1170 0
 995 0434 FA68     		ldr	r2, [r7, #12]
 996 0436 C8F80030 		str	r3, [r8, #0]
 997              		.loc 1 1169 0
 998 043a 4118     		adds	r1, r0, r1
 999 043c C91A     		subs	r1, r1, r3
 1000 043e 3981     		strh	r1, [r7, #8]	@ movhi
 1001              		.loc 1 1170 0
 1002 0440 5360     		str	r3, [r2, #4]	@ unaligned
 1003 0442 626A     		ldr	r2, [r4, #36]
 1004              		.loc 1 1185 0
 1005 0444 991A     		subs	r1, r3, r2
 1006 0446 0029     		cmp	r1, #0
 1007 0448 BFF6FCAD 		bge	.L93
 1008 044c 02E6     		b	.L94
 1009              	.LVL95:
 1010              	.L260:
 1011              		.loc 1 863 0
 1012 044e 604B     		ldr	r3, .L290+4
 1013 0450 1B68     		ldr	r3, [r3, #0]
 1014 0452 D889     		ldrh	r0, [r3, #14]	@ unaligned
 1015 0454 8542     		cmp	r5, r0
 1016 0456 0B46     		mov	r3, r1
 1017 0458 BFF413AE 		bcs	.L55
 1018 045c C7E6     		b	.L52
 1019              	.LVL96:
 1020              	.L267:
 1021              		.loc 1 964 0
 1022 045e B4F85230 		ldrh	r3, [r4, #82]
 1023 0462 B4F85420 		ldrh	r2, [r4, #84]
 1024 0466 9A42     		cmp	r2, r3
 1025              		.loc 1 965 0
ARM GAS  /var/folders/5n/p_75w94d66l9ssrldxqdhh700000gn/T//ccyVBgQE.s 			page 19


 1026 0468 228F     		ldrh	r2, [r4, #56]
 1027              	.LBB2:
 1028              		.loc 1 970 0
 1029 046a 9CBF     		itt	ls
 1030 046c 5243     		mulls	r2, r2, r2
 1031 046e 92FBF3F2 		sdivls	r2, r2, r3
 1032 0472 9A18     		adds	r2, r3, r2
 1033 0474 92B2     		uxth	r2, r2
 1034              	.LVL97:
 1035              		.loc 1 971 0
 1036 0476 9342     		cmp	r3, r2
 1037              		.loc 1 972 0
 1038 0478 38BF     		it	cc
 1039 047a A4F85220 		strhcc	r2, [r4, #82]	@ movhi
 1040 047e FBE6     		b	.L245
 1041              	.LVL98:
 1042              	.L277:
 1043              	.LBE2:
 1044              		.loc 1 910 0
 1045 0480 B4F93610 		ldrsh	r1, [r4, #54]
 1046 0484 0029     		cmp	r1, #0
 1047 0486 91DB     		blt	.L57
 1048              		.loc 1 912 0
 1049 0488 9A42     		cmp	r2, r3
 1050 048a 8FD1     		bne	.L57
 1051              	.LVL99:
 1052              		.loc 1 915 0
 1053 048c 94F85030 		ldrb	r3, [r4, #80]	@ zero_extendqisi2
 1054 0490 0133     		adds	r3, r3, #1
 1055 0492 DBB2     		uxtb	r3, r3
 1056              		.loc 1 916 0
 1057 0494 032B     		cmp	r3, #3
 1058              		.loc 1 915 0
 1059 0496 84F85030 		strb	r3, [r4, #80]
 1060              		.loc 1 916 0
 1061 049a 40F25E82 		bls	.L58
 1062              		.loc 1 919 0
 1063 049e B4F85220 		ldrh	r2, [r4, #82]
 1064 04a2 238F     		ldrh	r3, [r4, #56]
 1065 04a4 D318     		adds	r3, r2, r3
 1066 04a6 9BB2     		uxth	r3, r3
 1067 04a8 9A42     		cmp	r2, r3
 1068 04aa 80F05A82 		bcs	.L243
 1069              		.loc 1 920 0
 1070 04ae A4F85230 		strh	r3, [r4, #82]	@ movhi
 1071 04b2 636F     		ldr	r3, [r4, #116]
 1072 04b4 F8E5     		b	.L74
 1073              	.LVL100:
 1074              	.L265:
 1075              		.loc 1 1076 0
 1076 04b6 5342     		negs	r3, r2
 1077 04b8 9BB2     		uxth	r3, r3
 1078              	.LVL101:
 1079 04ba 53E6     		b	.L82
 1080              	.LVL102:
 1081              	.L266:
 1082              		.loc 1 1427 0
ARM GAS  /var/folders/5n/p_75w94d66l9ssrldxqdhh700000gn/T//ccyVBgQE.s 			page 20


 1083 04bc 8089     		ldrh	r0, [r0, #12]	@ unaligned
 1084 04be FFF7FEFF 		bl	lwip_ntohs
 1085              	.LVL103:
 1086 04c2 C007     		lsls	r0, r0, #31
 1087 04c4 3FF586AE 		bmi	.L49
 1088              		.loc 1 1431 0
 1089 04c8 4048     		ldr	r0, .L290
 1090 04ca FFF7FEFF 		bl	tcp_seg_copy
 1091              	.LVL104:
 1092 04ce 2860     		str	r0, [r5, #0]
 1093              		.loc 1 1432 0
 1094 04d0 0028     		cmp	r0, #0
 1095 04d2 3FF47FAE 		beq	.L49
 1096              		.loc 1 1433 0
 1097 04d6 EA68     		ldr	r2, [r5, #12]
 1098 04d8 D8F80030 		ldr	r3, [r8, #0]
 1099 04dc 2989     		ldrh	r1, [r5, #8]
 1100 04de 5268     		ldr	r2, [r2, #4]	@ unaligned
 1101 04e0 C91A     		subs	r1, r1, r3
 1102 04e2 8918     		adds	r1, r1, r2
 1103 04e4 0029     		cmp	r1, #0
 1104 04e6 07DD     		ble	.L132
 1105              		.loc 1 1435 0
 1106 04e8 9B1A     		subs	r3, r3, r2
 1107 04ea 99B2     		uxth	r1, r3
 1108 04ec 2981     		strh	r1, [r5, #8]	@ movhi
 1109              		.loc 1 1436 0
 1110 04ee 6868     		ldr	r0, [r5, #4]
 1111 04f0 FFF7FEFF 		bl	pbuf_realloc
 1112              	.LVL105:
 1113 04f4 374B     		ldr	r3, .L290+8
 1114 04f6 1B68     		ldr	r3, [r3, #0]
 1115              	.L132:
 1116              		.loc 1 1439 0
 1117 04f8 B9F80000 		ldrh	r0, [r9, #0]
 1118 04fc 218D     		ldrh	r1, [r4, #40]
 1119 04fe 626A     		ldr	r2, [r4, #36]
 1120 0500 1B18     		adds	r3, r3, r0
 1121 0502 8A18     		adds	r2, r1, r2
 1122 0504 9342     		cmp	r3, r2
 1123 0506 7FF665AE 		bls	.L49
 1124              		.loc 1 1444 0
 1125 050a 2B68     		ldr	r3, [r5, #0]
 1126 050c DB68     		ldr	r3, [r3, #12]
 1127 050e 9889     		ldrh	r0, [r3, #12]	@ unaligned
 1128 0510 FFF7FEFF 		bl	lwip_ntohs
 1129              	.LVL106:
 1130 0514 C107     		lsls	r1, r0, #31
 1131 0516 00F12982 		bmi	.L281
 1132              	.L133:
 1133              		.loc 1 1450 0
 1134 051a 208D     		ldrh	r0, [r4, #40]
 1135 051c 616A     		ldr	r1, [r4, #36]
 1136 051e D8F80020 		ldr	r2, [r8, #0]
 1137 0522 2B68     		ldr	r3, [r5, #0]
 1138 0524 0918     		adds	r1, r1, r0
 1139 0526 8A1A     		subs	r2, r1, r2
ARM GAS  /var/folders/5n/p_75w94d66l9ssrldxqdhh700000gn/T//ccyVBgQE.s 			page 21


 1140 0528 91B2     		uxth	r1, r2
 1141 052a 1981     		strh	r1, [r3, #8]	@ movhi
 1142              		.loc 1 1451 0
 1143 052c 5868     		ldr	r0, [r3, #4]
 1144 052e FFF7FEFF 		bl	pbuf_realloc
 1145              	.LVL107:
 1146              		.loc 1 1452 0
 1147 0532 2B68     		ldr	r3, [r5, #0]
 1148 0534 DA68     		ldr	r2, [r3, #12]
 1149 0536 1D89     		ldrh	r5, [r3, #8]
 1150 0538 9089     		ldrh	r0, [r2, #12]	@ unaligned
 1151 053a FFF7FEFF 		bl	lwip_ntohs
 1152              	.LVL108:
 1153 053e 10F00300 		ands	r0, r0, #3
 1154 0542 18BF     		it	ne
 1155 0544 0120     		movne	r0, #1
 1156 0546 2B18     		adds	r3, r5, r0
 1157              		.loc 1 1453 0
 1158 0548 D8F80010 		ldr	r1, [r8, #0]
 1159 054c 268D     		ldrh	r6, [r4, #40]
 1160 054e 626A     		ldr	r2, [r4, #36]
 1161              		.loc 1 1452 0
 1162 0550 9BB2     		uxth	r3, r3
 1163              		.loc 1 1453 0
 1164 0552 5918     		adds	r1, r3, r1
 1165 0554 B218     		adds	r2, r6, r2
 1166 0556 9142     		cmp	r1, r2
 1167              		.loc 1 1452 0
 1168 0558 A9F80030 		strh	r3, [r9, #0]	@ movhi
 1169              		.loc 1 1453 0
 1170 055c 3FF43AAE 		beq	.L49
 1171              		.loc 1 1479 0 discriminator 1
 1172 0560 BDE8F84F 		pop	{r3, r4, r5, r6, r7, r8, r9, sl, fp, lr}
 1173              		.loc 1 1453 0 discriminator 1
 1174 0564 FFF7FEBF 		b	port_halt
 1175              	.LVL109:
 1176              	.L272:
 1177              		.loc 1 1191 0
 1178 0568 184F     		ldr	r7, .L290
 1179 056a FB68     		ldr	r3, [r7, #12]
 1180 056c 3D89     		ldrh	r5, [r7, #8]
 1181 056e 9889     		ldrh	r0, [r3, #12]	@ unaligned
 1182 0570 FFF7FEFF 		bl	lwip_ntohs
 1183              	.LVL110:
 1184 0574 10F00300 		ands	r0, r0, #3
 1185 0578 18BF     		it	ne
 1186 057a 0120     		movne	r0, #1
 1187 057c 2B18     		adds	r3, r5, r0
 1188              		.loc 1 1193 0
 1189 057e 228D     		ldrh	r2, [r4, #40]
 1190              		.loc 1 1191 0
 1191 0580 9BB2     		uxth	r3, r3
 1192              		.loc 1 1193 0
 1193 0582 9A42     		cmp	r2, r3
 1194              		.loc 1 1191 0
 1195 0584 A9F80030 		strh	r3, [r9, #0]	@ movhi
 1196              		.loc 1 1193 0
ARM GAS  /var/folders/5n/p_75w94d66l9ssrldxqdhh700000gn/T//ccyVBgQE.s 			page 22


 1197 0588 C0F05781 		bcc	.L282
 1198              	.L96:
 1199              		.loc 1 1217 0
 1200 058c E36F     		ldr	r3, [r4, #124]
 1201 058e 002B     		cmp	r3, #0
 1202 0590 69D0     		beq	.L250
 1203              		.loc 1 1218 0
 1204 0592 FB68     		ldr	r3, [r7, #12]
 1205 0594 9889     		ldrh	r0, [r3, #12]	@ unaligned
 1206 0596 FFF7FEFF 		bl	lwip_ntohs
 1207              	.LVL111:
 1208 059a C307     		lsls	r3, r0, #31
 1209 059c 60D4     		bmi	.L255
 1210              		.loc 1 1231 0
 1211 059e E66F     		ldr	r6, [r4, #124]
 1212              	.LVL112:
 1213              		.loc 1 1234 0
 1214 05a0 002E     		cmp	r6, #0
 1215 05a2 00F07B81 		beq	.L105
 1216              		.loc 1 1235 0
 1217 05a6 F268     		ldr	r2, [r6, #12]
 1218 05a8 B9F80030 		ldrh	r3, [r9, #0]
 1219 05ac D2F804E0 		ldr	lr, [r2, #4]	@ unaligned
 1220 05b0 D8F80010 		ldr	r1, [r8, #0]
 1221 05b4 3589     		ldrh	r5, [r6, #8]
 1222 05b6 CEEB0300 		rsb	r0, lr, r3
 1223 05ba 4018     		adds	r0, r0, r1
 1224 05bc 451B     		subs	r5, r0, r5
 1225              		.loc 1 1234 0
 1226 05be 002D     		cmp	r5, #0
 1227              		.loc 1 1239 0
 1228 05c0 A8BF     		it	ge
 1229 05c2 DFF808A0 		ldrge	sl, .L290
 1230              		.loc 1 1234 0
 1231 05c6 20DA     		bge	.L242
 1232 05c8 70E1     		b	.L287
 1233              	.L291:
 1234 05ca 00BF     		.align	2
 1235              	.L290:
 1236 05cc 00000000 		.word	.LANCHOR5
 1237 05d0 00000000 		.word	.LANCHOR0
 1238 05d4 00000000 		.word	.LANCHOR1
 1239 05d8 00000000 		.word	.LANCHOR4
 1240              	.L107:
 1241              	.LVL113:
 1242              		.loc 1 1244 0
 1243 05dc 3568     		ldr	r5, [r6, #0]
 1244              	.LVL114:
 1245              		.loc 1 1245 0
 1246 05de 3046     		mov	r0, r6
 1247 05e0 FFF7FEFF 		bl	tcp_seg_free
 1248              	.LVL115:
 1249              		.loc 1 1234 0
 1250 05e4 002D     		cmp	r5, #0
 1251 05e6 00F05981 		beq	.L105
 1252              		.loc 1 1235 0 discriminator 2
 1253 05ea EA68     		ldr	r2, [r5, #12]
ARM GAS  /var/folders/5n/p_75w94d66l9ssrldxqdhh700000gn/T//ccyVBgQE.s 			page 23


 1254 05ec B9F80030 		ldrh	r3, [r9, #0]
 1255 05f0 D2F804E0 		ldr	lr, [r2, #4]	@ unaligned
 1256 05f4 D8F80010 		ldr	r1, [r8, #0]
 1257 05f8 2E89     		ldrh	r6, [r5, #8]
 1258              	.LVL116:
 1259 05fa CEEB0300 		rsb	r0, lr, r3
 1260 05fe 4018     		adds	r0, r0, r1
 1261 0600 861B     		subs	r6, r0, r6
 1262              		.loc 1 1234 0 discriminator 2
 1263 0602 002E     		cmp	r6, #0
 1264 0604 C0F25381 		blt	.L106
 1265              		.loc 1 1234 0 is_stmt 0
 1266 0608 2E46     		mov	r6, r5
 1267              	.LVL117:
 1268              	.L242:
 1269              		.loc 1 1238 0 is_stmt 1
 1270 060a 9089     		ldrh	r0, [r2, #12]	@ unaligned
 1271 060c FFF7FEFF 		bl	lwip_ntohs
 1272              	.LVL118:
 1273 0610 C507     		lsls	r5, r0, #31
 1274 0612 E3D5     		bpl	.L107
 1275              		.loc 1 1239 0 discriminator 1
 1276 0614 FB68     		ldr	r3, [r7, #12]
 1277 0616 9889     		ldrh	r0, [r3, #12]	@ unaligned
 1278 0618 FFF7FEFF 		bl	lwip_ntohs
 1279              	.LVL119:
 1280              		.loc 1 1238 0 discriminator 1
 1281 061c 00F00200 		and	r0, r0, #2
 1282 0620 83B2     		uxth	r3, r0
 1283 0622 002B     		cmp	r3, #0
 1284 0624 DAD1     		bne	.L107
 1285              		.loc 1 1240 0
 1286 0626 DAF80C50 		ldr	r5, [sl, #12]
 1287 062a 0120     		movs	r0, #1
 1288 062c B5F80CB0 		ldrh	fp, [r5, #12]	@ unaligned
 1289 0630 FFF7FEFF 		bl	lwip_htons
 1290              	.LVL120:
 1291 0634 40EA0B00 		orr	r0, r0, fp
 1292 0638 A881     		strh	r0, [r5, #12]	@ unaligned
 1293              		.loc 1 1241 0
 1294 063a DAF80C30 		ldr	r3, [sl, #12]
 1295 063e BAF80850 		ldrh	r5, [sl, #8]
 1296 0642 9889     		ldrh	r0, [r3, #12]	@ unaligned
 1297 0644 FFF7FEFF 		bl	lwip_ntohs
 1298              	.LVL121:
 1299 0648 10F00300 		ands	r0, r0, #3
 1300 064c 18BF     		it	ne
 1301 064e 0120     		movne	r0, #1
 1302 0650 2818     		adds	r0, r5, r0
 1303 0652 A9F80000 		strh	r0, [r9, #0]	@ movhi
 1304 0656 C1E7     		b	.L107
 1305              	.LVL122:
 1306              	.L202:
 1307              	.LBB3:
 1308              		.loc 1 1226 0
 1309 0658 0368     		ldr	r3, [r0, #0]
 1310 065a E367     		str	r3, [r4, #124]
ARM GAS  /var/folders/5n/p_75w94d66l9ssrldxqdhh700000gn/T//ccyVBgQE.s 			page 24


 1311              		.loc 1 1227 0
 1312 065c FFF7FEFF 		bl	tcp_seg_free
 1313              	.LVL123:
 1314              	.L255:
 1315              	.LBE3:
 1316              		.loc 1 1224 0
 1317 0660 E06F     		ldr	r0, [r4, #124]
 1318 0662 0028     		cmp	r0, #0
 1319 0664 F8D1     		bne	.L202
 1320              	.L250:
 1321 0666 B9F80030 		ldrh	r3, [r9, #0]
 1322 066a D8F80010 		ldr	r1, [r8, #0]
 1323 066e 5918     		adds	r1, r3, r1
 1324              	.L101:
 1325              		.loc 1 1270 0
 1326 0670 228D     		ldrh	r2, [r4, #40]
 1327              		.loc 1 1267 0
 1328 0672 6162     		str	r1, [r4, #36]
 1329              		.loc 1 1270 0
 1330 0674 9A42     		cmp	r2, r3
 1331 0676 C0F0DA80 		bcc	.L284
 1332              	.L112:
 1333              		.loc 1 1271 0
 1334 067a D31A     		subs	r3, r2, r3
 1335 067c 2385     		strh	r3, [r4, #40]	@ movhi
 1336              		.loc 1 1273 0
 1337 067e 2046     		mov	r0, r4
 1338 0680 FFF7FEFF 		bl	tcp_update_rcv_ann_wnd
 1339              	.LVL124:
 1340              		.loc 1 1284 0
 1341 0684 7B68     		ldr	r3, [r7, #4]
 1342 0686 1A89     		ldrh	r2, [r3, #8]
 1343 0688 22B1     		cbz	r2, .L113
 1344              		.loc 1 1285 0
 1345 068a A64A     		ldr	r2, .L292
 1346 068c 1360     		str	r3, [r2, #0]
 1347              		.loc 1 1289 0
 1348 068e A64B     		ldr	r3, .L292+4
 1349 0690 0022     		movs	r2, #0
 1350 0692 5A60     		str	r2, [r3, #4]
 1351              	.L113:
 1352              		.loc 1 1291 0
 1353 0694 FB68     		ldr	r3, [r7, #12]
 1354 0696 9889     		ldrh	r0, [r3, #12]	@ unaligned
 1355 0698 FFF7FEFF 		bl	lwip_ntohs
 1356              	.LVL125:
 1357 069c C007     		lsls	r0, r0, #31
 1358              		.loc 1 1293 0
 1359 069e 48BF     		it	mi
 1360 06a0 A24B     		ldrmi	r3, .L292+8
 1361              		.loc 1 1299 0
 1362 06a2 E56F     		ldr	r5, [r4, #124]
 1363              		.loc 1 1293 0
 1364 06a4 42BF     		ittt	mi
 1365 06a6 1A78     		ldrbmi	r2, [r3, #0]	@ zero_extendqisi2
 1366 06a8 42F02002 		orrmi	r2, r2, #32
 1367 06ac 1A70     		strbmi	r2, [r3, #0]
ARM GAS  /var/folders/5n/p_75w94d66l9ssrldxqdhh700000gn/T//ccyVBgQE.s 			page 25


 1368              		.loc 1 1299 0
 1369 06ae 002D     		cmp	r5, #0
 1370 06b0 65D0     		beq	.L115
 1371              		.loc 1 1300 0
 1372 06b2 EA68     		ldr	r2, [r5, #12]
 1373              		.loc 1 1299 0
 1374 06b4 636A     		ldr	r3, [r4, #36]
 1375              		.loc 1 1300 0
 1376 06b6 5668     		ldr	r6, [r2, #4]	@ unaligned
 1377              		.loc 1 1299 0
 1378 06b8 9E42     		cmp	r6, r3
 1379 06ba 60D1     		bne	.L115
 1380              		.loc 1 1315 0
 1381 06bc DFF86492 		ldr	r9, .L292
 1382              		.loc 1 1324 0
 1383 06c0 9A4F     		ldr	r7, .L292+8
 1384              		.loc 1 1320 0
 1385 06c2 4FF0000A 		mov	sl, #0
 1386 06c6 35E0     		b	.L201
 1387              	.LVL126:
 1388              	.L116:
 1389              		.loc 1 1308 0
 1390 06c8 EB68     		ldr	r3, [r5, #12]
 1391 06ca B4F828B0 		ldrh	fp, [r4, #40]
 1392 06ce 9889     		ldrh	r0, [r3, #12]	@ unaligned
 1393 06d0 2E89     		ldrh	r6, [r5, #8]
 1394 06d2 FFF7FEFF 		bl	lwip_ntohs
 1395              	.LVL127:
 1396 06d6 10F00300 		ands	r0, r0, #3
 1397 06da 18BF     		it	ne
 1398 06dc 0120     		movne	r0, #1
 1399 06de C6EB0B06 		rsb	r6, r6, fp
 1400 06e2 301A     		subs	r0, r6, r0
 1401 06e4 2085     		strh	r0, [r4, #40]	@ movhi
 1402              		.loc 1 1310 0
 1403 06e6 2046     		mov	r0, r4
 1404 06e8 FFF7FEFF 		bl	tcp_update_rcv_ann_wnd
 1405              	.LVL128:
 1406              		.loc 1 1312 0
 1407 06ec 6968     		ldr	r1, [r5, #4]
 1408 06ee 0B89     		ldrh	r3, [r1, #8]
 1409 06f0 3BB1     		cbz	r3, .L117
 1410              		.loc 1 1315 0
 1411 06f2 D9F80000 		ldr	r0, [r9, #0]
 1412 06f6 0028     		cmp	r0, #0
 1413 06f8 3BD0     		beq	.L118
 1414              		.loc 1 1316 0
 1415 06fa FFF7FEFF 		bl	pbuf_cat
 1416              	.LVL129:
 1417              	.L119:
 1418              		.loc 1 1320 0
 1419 06fe C5F804A0 		str	sl, [r5, #4]
 1420              	.L117:
 1421              		.loc 1 1322 0
 1422 0702 EB68     		ldr	r3, [r5, #12]
 1423 0704 9889     		ldrh	r0, [r3, #12]	@ unaligned
 1424 0706 FFF7FEFF 		bl	lwip_ntohs
ARM GAS  /var/folders/5n/p_75w94d66l9ssrldxqdhh700000gn/T//ccyVBgQE.s 			page 26


 1425              	.LVL130:
 1426 070a C107     		lsls	r1, r0, #31
 1427 070c 06D5     		bpl	.L120
 1428              		.loc 1 1324 0
 1429 070e 3A78     		ldrb	r2, [r7, #0]	@ zero_extendqisi2
 1430              		.loc 1 1325 0
 1431 0710 237C     		ldrb	r3, [r4, #16]	@ zero_extendqisi2
 1432              		.loc 1 1324 0
 1433 0712 42F02002 		orr	r2, r2, #32
 1434              		.loc 1 1325 0
 1435 0716 042B     		cmp	r3, #4
 1436              		.loc 1 1324 0
 1437 0718 3A70     		strb	r2, [r7, #0]
 1438              		.loc 1 1325 0
 1439 071a 2DD0     		beq	.L285
 1440              	.L120:
 1441              		.loc 1 1330 0
 1442 071c 2B68     		ldr	r3, [r5, #0]
 1443              		.loc 1 1331 0
 1444 071e 2846     		mov	r0, r5
 1445              		.loc 1 1330 0
 1446 0720 E367     		str	r3, [r4, #124]
 1447              		.loc 1 1331 0
 1448 0722 FFF7FEFF 		bl	tcp_seg_free
 1449              	.LVL131:
 1450              		.loc 1 1299 0
 1451 0726 E56F     		ldr	r5, [r4, #124]
 1452              	.LVL132:
 1453 0728 4DB3     		cbz	r5, .L115
 1454              		.loc 1 1300 0 discriminator 2
 1455 072a EA68     		ldr	r2, [r5, #12]
 1456              		.loc 1 1299 0 discriminator 2
 1457 072c 636A     		ldr	r3, [r4, #36]
 1458              		.loc 1 1300 0 discriminator 2
 1459 072e 5668     		ldr	r6, [r2, #4]	@ unaligned
 1460              		.loc 1 1299 0 discriminator 2
 1461 0730 9E42     		cmp	r6, r3
 1462 0732 24D1     		bne	.L115
 1463              	.L201:
 1464              	.LVL133:
 1465              		.loc 1 1303 0
 1466 0734 C8F80060 		str	r6, [r8, #0]
 1467              		.loc 1 1305 0
 1468 0738 9089     		ldrh	r0, [r2, #12]	@ unaligned
 1469 073a B5F808B0 		ldrh	fp, [r5, #8]
 1470 073e FFF7FEFF 		bl	lwip_ntohs
 1471              	.LVL134:
 1472 0742 10F00300 		ands	r0, r0, #3
 1473 0746 18BF     		it	ne
 1474 0748 0120     		movne	r0, #1
 1475 074a 5844     		add	r0, fp, r0
 1476 074c 3618     		adds	r6, r6, r0
 1477              		.loc 1 1306 0
 1478 074e EB68     		ldr	r3, [r5, #12]
 1479              		.loc 1 1305 0
 1480 0750 6662     		str	r6, [r4, #36]
 1481              		.loc 1 1306 0
ARM GAS  /var/folders/5n/p_75w94d66l9ssrldxqdhh700000gn/T//ccyVBgQE.s 			page 27


 1482 0752 9889     		ldrh	r0, [r3, #12]	@ unaligned
 1483 0754 B5F808B0 		ldrh	fp, [r5, #8]
 1484 0758 268D     		ldrh	r6, [r4, #40]
 1485 075a FFF7FEFF 		bl	lwip_ntohs
 1486              	.LVL135:
 1487 075e 10F00300 		ands	r0, r0, #3
 1488 0762 18BF     		it	ne
 1489 0764 0120     		movne	r0, #1
 1490 0766 5844     		add	r0, fp, r0
 1491 0768 8642     		cmp	r6, r0
 1492 076a ADDA     		bge	.L116
 1493              		.loc 1 1306 0 is_stmt 0 discriminator 1
 1494 076c FFF7FEFF 		bl	port_halt
 1495              	.LVL136:
 1496 0770 AAE7     		b	.L116
 1497              	.L118:
 1498              		.loc 1 1318 0 is_stmt 1
 1499 0772 C9F80010 		str	r1, [r9, #0]
 1500 0776 C2E7     		b	.L119
 1501              	.L285:
 1502              		.loc 1 1326 0
 1503 0778 0723     		movs	r3, #7
 1504 077a 2374     		strb	r3, [r4, #16]
 1505 077c CEE7     		b	.L120
 1506              	.LVL137:
 1507              	.L115:
 1508              		.loc 1 1337 0
 1509 077e 94F82030 		ldrb	r3, [r4, #32]	@ zero_extendqisi2
 1510 0782 DA07     		lsls	r2, r3, #31
 1511 0784 46BF     		itte	mi
 1512 0786 23F00103 		bicmi	r3, r3, #1
 1513 078a 43F00203 		orrmi	r3, r3, #2
 1514 078e 43F00103 		orrpl	r3, r3, #1
 1515 0792 84F82030 		strb	r3, [r4, #32]
 1516 0796 BDE8F88F 		pop	{r3, r4, r5, r6, r7, r8, r9, sl, fp, pc}
 1517              	.L276:
 1518              		.loc 1 1366 0
 1519 079a 6348     		ldr	r0, .L292+4
 1520 079c 2B89     		ldrh	r3, [r5, #8]
 1521 079e 0289     		ldrh	r2, [r0, #8]
 1522 07a0 9A42     		cmp	r2, r3
 1523 07a2 7FF617AD 		bls	.L49
 1524              		.loc 1 1370 0
 1525 07a6 FFF7FEFF 		bl	tcp_seg_copy
 1526              	.LVL138:
 1527              		.loc 1 1371 0
 1528 07aa 0028     		cmp	r0, #0
 1529 07ac 3FF412AD 		beq	.L49
 1530              		.loc 1 1372 0
 1531 07b0 002E     		cmp	r6, #0
 1532 07b2 00F0D980 		beq	.L126
 1533              		.loc 1 1373 0
 1534 07b6 3060     		str	r0, [r6, #0]
 1535 07b8 E4E5     		b	.L251
 1536              	.LVL139:
 1537              	.L246:
 1538 07ba 636F     		ldr	r3, [r4, #116]
ARM GAS  /var/folders/5n/p_75w94d66l9ssrldxqdhh700000gn/T//ccyVBgQE.s 			page 28


 1539 07bc 99E5     		b	.L70
 1540              	.L268:
 1541              		.loc 1 1016 0
 1542 07be A36F     		ldr	r3, [r4, #120]
 1543 07c0 002B     		cmp	r3, #0
 1544 07c2 FAD0     		beq	.L246
 1545              		.loc 1 1019 0
 1546 07c4 0022     		movs	r2, #0
 1547 07c6 636F     		ldr	r3, [r4, #116]
 1548 07c8 E286     		strh	r2, [r4, #54]	@ movhi
 1549 07ca 95E5     		b	.L73
 1550              	.LVL140:
 1551              	.L87:
 1552              		.loc 1 1164 0
 1553 07cc CAF10001 		rsb	r1, sl, #0
 1554 07d0 09B2     		sxth	r1, r1
 1555 07d2 FFF7FEFF 		bl	pbuf_header
 1556              	.LVL141:
 1557 07d6 0028     		cmp	r0, #0
 1558 07d8 3FF428AE 		beq	.L91
 1559              	.L92:
 1560              		.loc 1 1161 0 discriminator 1
 1561 07dc FFF7FEFF 		bl	port_halt
 1562              	.LVL142:
 1563 07e0 24E6     		b	.L91
 1564              	.L279:
 1565              		.loc 1 1146 0 discriminator 1
 1566 07e2 FFF7FEFF 		bl	port_halt
 1567              	.LVL143:
 1568 07e6 02E6     		b	.L86
 1569              	.LVL144:
 1570              	.L274:
 1571              		.loc 1 1409 0
 1572 07e8 4F48     		ldr	r0, .L292+4
 1573 07ea FFF7FEFF 		bl	tcp_seg_copy
 1574              	.LVL145:
 1575              		.loc 1 1410 0
 1576 07ee 0446     		mov	r4, r0
 1577              	.LVL146:
 1578 07f0 0028     		cmp	r0, #0
 1579 07f2 3FF4EFAC 		beq	.L49
 1580              		.loc 1 1411 0
 1581 07f6 F368     		ldr	r3, [r6, #12]
 1582 07f8 D8F80020 		ldr	r2, [r8, #0]
 1583 07fc 3189     		ldrh	r1, [r6, #8]
 1584 07fe 5B68     		ldr	r3, [r3, #4]	@ unaligned
 1585 0800 891A     		subs	r1, r1, r2
 1586 0802 C918     		adds	r1, r1, r3
 1587 0804 0029     		cmp	r1, #0
 1588 0806 05DD     		ble	.L130
 1589              		.loc 1 1413 0
 1590 0808 D31A     		subs	r3, r2, r3
 1591 080a 99B2     		uxth	r1, r3
 1592 080c 3181     		strh	r1, [r6, #8]	@ movhi
 1593              		.loc 1 1414 0
 1594 080e 7068     		ldr	r0, [r6, #4]
 1595              	.LVL147:
ARM GAS  /var/folders/5n/p_75w94d66l9ssrldxqdhh700000gn/T//ccyVBgQE.s 			page 29


 1596 0810 FFF7FEFF 		bl	pbuf_realloc
 1597              	.LVL148:
 1598              	.L130:
 1599              		.loc 1 1417 0
 1600 0814 2046     		mov	r0, r4
 1601 0816 2946     		mov	r1, r5
 1602              		.loc 1 1416 0
 1603 0818 3460     		str	r4, [r6, #0]
 1604              		.loc 1 1479 0
 1605 081a BDE8F84F 		pop	{r3, r4, r5, r6, r7, r8, r9, sl, fp, lr}
 1606              		.loc 1 1417 0
 1607 081e FFF7FEBF 		b	tcp_oos_insert_segment
 1608              	.LVL149:
 1609              	.L280:
 1610              		.loc 1 1148 0 discriminator 1
 1611 0822 FFF7FEFF 		bl	port_halt
 1612              	.LVL150:
 1613 0826 404B     		ldr	r3, .L292+4
 1614 0828 5B68     		ldr	r3, [r3, #4]
 1615 082a 1B89     		ldrh	r3, [r3, #8]
 1616 082c E8E5     		b	.L88
 1617              	.LVL151:
 1618              	.L284:
 1619              		.loc 1 1270 0 discriminator 1
 1620 082e FFF7FEFF 		bl	port_halt
 1621              	.LVL152:
 1622 0832 228D     		ldrh	r2, [r4, #40]
 1623 0834 B9F80030 		ldrh	r3, [r9, #0]
 1624 0838 1FE7     		b	.L112
 1625              	.L282:
 1626              		.loc 1 1198 0
 1627 083a FB68     		ldr	r3, [r7, #12]
 1628 083c 9889     		ldrh	r0, [r3, #12]	@ unaligned
 1629 083e FFF7FEFF 		bl	lwip_ntohs
 1630              	.LVL153:
 1631 0842 C207     		lsls	r2, r0, #31
 1632 0844 78D4     		bmi	.L286
 1633              	.L97:
 1634              		.loc 1 1204 0
 1635 0846 228D     		ldrh	r2, [r4, #40]
 1636              		.loc 1 1205 0
 1637 0848 FB68     		ldr	r3, [r7, #12]
 1638              		.loc 1 1204 0
 1639 084a 3A81     		strh	r2, [r7, #8]	@ movhi
 1640              		.loc 1 1205 0
 1641 084c 9889     		ldrh	r0, [r3, #12]	@ unaligned
 1642              		.loc 1 1204 0
 1643 084e 364D     		ldr	r5, .L292+4
 1644              		.loc 1 1205 0
 1645 0850 FFF7FEFF 		bl	lwip_ntohs
 1646              	.LVL154:
 1647 0854 00F00200 		and	r0, r0, #2
 1648 0858 83B2     		uxth	r3, r0
 1649              		.loc 1 1206 0
 1650 085a 2989     		ldrh	r1, [r5, #8]
 1651              		.loc 1 1205 0
 1652 085c 13B1     		cbz	r3, .L99
ARM GAS  /var/folders/5n/p_75w94d66l9ssrldxqdhh700000gn/T//ccyVBgQE.s 			page 30


 1653              		.loc 1 1206 0
 1654 085e 0139     		subs	r1, r1, #1
 1655 0860 89B2     		uxth	r1, r1
 1656 0862 2981     		strh	r1, [r5, #8]	@ movhi
 1657              	.L99:
 1658              		.loc 1 1208 0
 1659 0864 7868     		ldr	r0, [r7, #4]
 1660 0866 FFF7FEFF 		bl	pbuf_realloc
 1661              	.LVL155:
 1662              		.loc 1 1209 0
 1663 086a FB68     		ldr	r3, [r7, #12]
 1664 086c 3D89     		ldrh	r5, [r7, #8]
 1665 086e 9889     		ldrh	r0, [r3, #12]	@ unaligned
 1666 0870 FFF7FEFF 		bl	lwip_ntohs
 1667              	.LVL156:
 1668 0874 10F00300 		ands	r0, r0, #3
 1669 0878 18BF     		it	ne
 1670 087a 0120     		movne	r0, #1
 1671 087c 2B18     		adds	r3, r5, r0
 1672              		.loc 1 1210 0
 1673 087e D8F80010 		ldr	r1, [r8, #0]
 1674 0882 268D     		ldrh	r6, [r4, #40]
 1675 0884 626A     		ldr	r2, [r4, #36]
 1676              		.loc 1 1209 0
 1677 0886 9BB2     		uxth	r3, r3
 1678              		.loc 1 1210 0
 1679 0888 5918     		adds	r1, r3, r1
 1680 088a B218     		adds	r2, r6, r2
 1681 088c 9142     		cmp	r1, r2
 1682              		.loc 1 1209 0
 1683 088e A9F80030 		strh	r3, [r9, #0]	@ movhi
 1684              		.loc 1 1210 0
 1685 0892 3FF47BAE 		beq	.L96
 1686              		.loc 1 1210 0 is_stmt 0 discriminator 1
 1687 0896 FFF7FEFF 		bl	port_halt
 1688              	.LVL157:
 1689 089a 77E6     		b	.L96
 1690              	.L105:
 1691 089c B9F80030 		ldrh	r3, [r9, #0]
 1692 08a0 D8F80010 		ldr	r1, [r8, #0]
 1693              		.loc 1 1234 0 is_stmt 1
 1694 08a4 0025     		movs	r5, #0
 1695 08a6 5918     		adds	r1, r3, r1
 1696              	.L111:
 1697              		.loc 1 1262 0
 1698 08a8 E567     		str	r5, [r4, #124]
 1699 08aa E1E6     		b	.L101
 1700              	.LVL158:
 1701              	.L287:
 1702              		.loc 1 1234 0
 1703 08ac 3546     		mov	r5, r6
 1704              	.LVL159:
 1705              	.L106:
 1706              		.loc 1 1249 0
 1707 08ae 0028     		cmp	r0, #0
 1708 08b0 2CDD     		ble	.L248
 1709              		.loc 1 1253 0
ARM GAS  /var/folders/5n/p_75w94d66l9ssrldxqdhh700000gn/T//ccyVBgQE.s 			page 31


 1710 08b2 C1EB0E01 		rsb	r1, r1, lr
 1711              		.loc 1 1254 0
 1712 08b6 FB68     		ldr	r3, [r7, #12]
 1713              		.loc 1 1253 0
 1714 08b8 3981     		strh	r1, [r7, #8]	@ movhi
 1715              		.loc 1 1254 0
 1716 08ba 9889     		ldrh	r0, [r3, #12]	@ unaligned
 1717              		.loc 1 1253 0
 1718 08bc 1A4E     		ldr	r6, .L292+4
 1719              		.loc 1 1254 0
 1720 08be FFF7FEFF 		bl	lwip_ntohs
 1721              	.LVL160:
 1722 08c2 00F00200 		and	r0, r0, #2
 1723 08c6 83B2     		uxth	r3, r0
 1724              		.loc 1 1255 0
 1725 08c8 3189     		ldrh	r1, [r6, #8]
 1726              		.loc 1 1254 0
 1727 08ca 13B1     		cbz	r3, .L110
 1728              		.loc 1 1255 0
 1729 08cc 0139     		subs	r1, r1, #1
 1730 08ce 89B2     		uxth	r1, r1
 1731 08d0 3181     		strh	r1, [r6, #8]	@ movhi
 1732              	.L110:
 1733              		.loc 1 1257 0
 1734 08d2 7868     		ldr	r0, [r7, #4]
 1735 08d4 FFF7FEFF 		bl	pbuf_realloc
 1736              	.LVL161:
 1737              		.loc 1 1258 0
 1738 08d8 FB68     		ldr	r3, [r7, #12]
 1739 08da 3E89     		ldrh	r6, [r7, #8]
 1740 08dc 9889     		ldrh	r0, [r3, #12]	@ unaligned
 1741 08de FFF7FEFF 		bl	lwip_ntohs
 1742              	.LVL162:
 1743 08e2 10F00300 		ands	r0, r0, #3
 1744 08e6 18BF     		it	ne
 1745 08e8 0120     		movne	r0, #1
 1746 08ea 3318     		adds	r3, r6, r0
 1747 08ec 9BB2     		uxth	r3, r3
 1748              		.loc 1 1259 0
 1749 08ee EA68     		ldr	r2, [r5, #12]
 1750              		.loc 1 1258 0
 1751 08f0 A9F80030 		strh	r3, [r9, #0]	@ movhi
 1752              		.loc 1 1259 0
 1753 08f4 D8F80010 		ldr	r1, [r8, #0]
 1754 08f8 5268     		ldr	r2, [r2, #4]	@ unaligned
 1755 08fa 5918     		adds	r1, r3, r1
 1756 08fc 9142     		cmp	r1, r2
 1757 08fe D3D0     		beq	.L111
 1758              		.loc 1 1259 0 is_stmt 0 discriminator 1
 1759 0900 FFF7FEFF 		bl	port_halt
 1760              	.LVL163:
 1761 0904 0A4B     		ldr	r3, .L292+12
 1762 0906 0B4A     		ldr	r2, .L292+16
 1763 0908 1B88     		ldrh	r3, [r3, #0]
 1764 090a 1168     		ldr	r1, [r2, #0]
 1765              	.L248:
 1766 090c 5918     		adds	r1, r3, r1
ARM GAS  /var/folders/5n/p_75w94d66l9ssrldxqdhh700000gn/T//ccyVBgQE.s 			page 32


 1767 090e CBE7     		b	.L111
 1768              	.LVL164:
 1769              	.L278:
 1770              		.loc 1 1145 0 is_stmt 1 discriminator 1
 1771 0910 FFF7FEFF 		bl	port_halt
 1772              	.LVL165:
 1773 0914 66E5     		b	.L85
 1774              	.LVL166:
 1775              	.L273:
 1776              		.loc 1 1345 0
 1777 0916 0448     		ldr	r0, .L292+4
 1778 0918 FFF7FEFF 		bl	tcp_seg_copy
 1779              	.LVL167:
 1780 091c E067     		str	r0, [r4, #124]
 1781 091e BDE8F88F 		pop	{r3, r4, r5, r6, r7, r8, r9, sl, fp, pc}
 1782              	.L293:
 1783 0922 00BF     		.align	2
 1784              	.L292:
 1785 0924 00000000 		.word	.LANCHOR6
 1786 0928 00000000 		.word	.LANCHOR5
 1787 092c 00000000 		.word	.LANCHOR7
 1788 0930 00000000 		.word	.LANCHOR4
 1789 0934 00000000 		.word	.LANCHOR1
 1790              	.L286:
 1791              		.loc 1 1201 0
 1792 0938 FD68     		ldr	r5, [r7, #12]
 1793 093a AE89     		ldrh	r6, [r5, #12]	@ unaligned
 1794 093c 3046     		mov	r0, r6
 1795 093e FFF7FEFF 		bl	lwip_ntohs
 1796              	.LVL168:
 1797 0942 00F03E00 		and	r0, r0, #62
 1798 0946 FFF7FEFF 		bl	lwip_htons
 1799              	.LVL169:
 1800 094a 26F47C56 		bic	r6, r6, #16128
 1801 094e 3043     		orrs	r0, r0, r6
 1802 0950 A881     		strh	r0, [r5, #12]	@ unaligned
 1803 0952 78E7     		b	.L97
 1804              	.LVL170:
 1805              	.L271:
 1806              		.loc 1 1009 0 discriminator 2
 1807 0954 FFF7FEFF 		bl	port_halt
 1808              	.LVL171:
 1809 0958 8EE4     		b	.L245
 1810              	.LVL172:
 1811              	.L58:
 1812              		.loc 1 922 0
 1813 095a 02D1     		bne	.L243
 1814              		.loc 1 924 0
 1815 095c 2046     		mov	r0, r4
 1816 095e FFF7FEFF 		bl	tcp_rexmit_fast
 1817              	.LVL173:
 1818              	.L243:
 1819 0962 636F     		ldr	r3, [r4, #116]
 1820 0964 FFF7A0BB 		b	.L74
 1821              	.LVL174:
 1822              	.L126:
 1823              		.loc 1 1375 0
ARM GAS  /var/folders/5n/p_75w94d66l9ssrldxqdhh700000gn/T//ccyVBgQE.s 			page 33


 1824 0968 E067     		str	r0, [r4, #124]
 1825 096a 0BE5     		b	.L251
 1826              	.LVL175:
 1827              	.L281:
 1828              		.loc 1 1447 0
 1829 096c 2B68     		ldr	r3, [r5, #0]
 1830 096e DE68     		ldr	r6, [r3, #12]
 1831 0970 B789     		ldrh	r7, [r6, #12]	@ unaligned
 1832 0972 3846     		mov	r0, r7
 1833 0974 FFF7FEFF 		bl	lwip_ntohs
 1834              	.LVL176:
 1835 0978 00F03E00 		and	r0, r0, #62
 1836 097c FFF7FEFF 		bl	lwip_htons
 1837              	.LVL177:
 1838 0980 27F47C57 		bic	r7, r7, #16128
 1839 0984 3843     		orrs	r0, r0, r7
 1840 0986 B081     		strh	r0, [r6, #12]	@ unaligned
 1841 0988 C7E5     		b	.L133
 1842              		.cfi_endproc
 1843              	.LFE12:
 1844              		.size	tcp_receive, .-tcp_receive
 1845 098a 00BFAFF3 		.section	.text.tcp_input,"ax",%progbits
 1845      0080
 1846              		.align	2
 1847              		.p2align 4,,15
 1848              		.global	tcp_input
 1849              		.thumb
 1850              		.thumb_func
 1851              		.type	tcp_input, %function
 1852              	tcp_input:
 1853              	.LFB7:
 1854              		.loc 1 93 0
 1855              		.cfi_startproc
 1856              		@ args = 0, pretend = 0, frame = 0
 1857              		@ frame_needed = 0, uses_anonymous_args = 0
 1858              	.LVL178:
 1859 0000 2DE9F04F 		push	{r4, r5, r6, r7, r8, r9, sl, fp, lr}
 1860              	.LCFI3:
 1861              		.cfi_def_cfa_offset 36
 1862              		.cfi_offset 4, -36
 1863              		.cfi_offset 5, -32
 1864              		.cfi_offset 6, -28
 1865              		.cfi_offset 7, -24
 1866              		.cfi_offset 8, -20
 1867              		.cfi_offset 9, -16
 1868              		.cfi_offset 10, -12
 1869              		.cfi_offset 11, -8
 1870              		.cfi_offset 14, -4
 1871              		.loc 1 105 0
 1872 0004 A64C     		ldr	r4, .L562
 1873              		.loc 1 108 0
 1874 0006 4768     		ldr	r7, [r0, #4]
 1875              		.loc 1 105 0
 1876 0008 B4F89230 		ldrh	r3, [r4, #146]
 1877              		.loc 1 108 0
 1878 000c DFF8A882 		ldr	r8, .L562+24
 1879              		.loc 1 109 0
ARM GAS  /var/folders/5n/p_75w94d66l9ssrldxqdhh700000gn/T//ccyVBgQE.s 			page 34


 1880 0010 A44E     		ldr	r6, .L562+4
 1881              		.loc 1 108 0
 1882 0012 C8F80070 		str	r7, [r8, #0]
 1883              		.loc 1 105 0
 1884 0016 0133     		adds	r3, r3, #1
 1885 0018 A4F89230 		strh	r3, [r4, #146]	@ movhi
 1886              		.loc 1 93 0
 1887 001c 83B0     		sub	sp, sp, #12
 1888              	.LCFI4:
 1889              		.cfi_def_cfa_offset 48
 1890              		.loc 1 93 0
 1891 001e 0546     		mov	r5, r0
 1892              		.loc 1 109 0
 1893 0020 3888     		ldrh	r0, [r7, #0]	@ unaligned
 1894              	.LVL179:
 1895              		.loc 1 93 0
 1896 0022 8946     		mov	r9, r1
 1897              		.loc 1 109 0
 1898 0024 FFF7FEFF 		bl	lwip_ntohs
 1899              	.LVL180:
 1900 0028 C0F30320 		ubfx	r0, r0, #8, #4
 1901 002c 07EB8007 		add	r7, r7, r0, lsl #2
 1902              		.loc 1 116 0
 1903 0030 D8F80030 		ldr	r3, [r8, #0]
 1904              		.loc 1 109 0
 1905 0034 3760     		str	r7, [r6, #0]
 1906              		.loc 1 116 0
 1907 0036 1888     		ldrh	r0, [r3, #0]	@ unaligned
 1908 0038 FFF7FEFF 		bl	lwip_ntohs
 1909              	.LVL181:
 1910 003c C0F30320 		ubfx	r0, r0, #8, #4
 1911 0040 8100     		lsls	r1, r0, #2
 1912 0042 4942     		negs	r1, r1
 1913 0044 2846     		mov	r0, r5
 1914 0046 FFF7FEFF 		bl	pbuf_header
 1915              	.LVL182:
 1916 004a 10B9     		cbnz	r0, .L534
 1917              		.loc 1 116 0 is_stmt 0 discriminator 1
 1918 004c 2B89     		ldrh	r3, [r5, #8]
 1919 004e 132B     		cmp	r3, #19
 1920 0050 0FD8     		bhi	.L296
 1921              	.L534:
 1922              		.loc 1 160 0 is_stmt 1
 1923 0052 B4F89A20 		ldrh	r2, [r4, #154]
 1924              		.loc 1 161 0
 1925 0056 B4F89630 		ldrh	r3, [r4, #150]
 1926              		.loc 1 160 0
 1927 005a 0132     		adds	r2, r2, #1
 1928              		.loc 1 161 0
 1929 005c 0133     		adds	r3, r3, #1
 1930              		.loc 1 163 0
 1931 005e 2846     		mov	r0, r5
 1932              		.loc 1 160 0
 1933 0060 A4F89A20 		strh	r2, [r4, #154]	@ movhi
 1934              		.loc 1 161 0
 1935 0064 A4F89630 		strh	r3, [r4, #150]	@ movhi
 1936              		.loc 1 427 0
ARM GAS  /var/folders/5n/p_75w94d66l9ssrldxqdhh700000gn/T//ccyVBgQE.s 			page 35


 1937 0068 03B0     		add	sp, sp, #12
 1938 006a BDE8F04F 		pop	{r4, r5, r6, r7, r8, r9, sl, fp, lr}
 1939              		.loc 1 163 0
 1940 006e FFF7FEBF 		b	pbuf_free
 1941              	.LVL183:
 1942              	.L296:
 1943              		.loc 1 127 0
 1944 0072 DFF84882 		ldr	r8, .L562+28
 1945 0076 4946     		mov	r1, r9
 1946 0078 D8F80000 		ldr	r0, [r8, #0]
 1947 007c FFF7FEFF 		bl	ip4_addr_isbroadcast
 1948              	.LVL184:
 1949 0080 0028     		cmp	r0, #0
 1950 0082 40F02381 		bne	.L297
 1951              		.loc 1 128 0 discriminator 1
 1952 0086 D8F80030 		ldr	r3, [r8, #0]
 1953 008a 03F0F003 		and	r3, r3, #240
 1954              		.loc 1 127 0 discriminator 1
 1955 008e E02B     		cmp	r3, #224
 1956 0090 00F01C81 		beq	.L297
 1957              		.loc 1 138 0
 1958 0094 2B89     		ldrh	r3, [r5, #8]
 1959 0096 8449     		ldr	r1, .L562+8
 1960 0098 0093     		str	r3, [sp, #0]
 1961 009a 2846     		mov	r0, r5
 1962 009c 4246     		mov	r2, r8
 1963 009e 0623     		movs	r3, #6
 1964 00a0 FFF7FEFF 		bl	inet_chksum_pseudo
 1965              	.LVL185:
 1966 00a4 0028     		cmp	r0, #0
 1967 00a6 40F02181 		bne	.L538
 1968              		.loc 1 156 0
 1969 00aa 3368     		ldr	r3, [r6, #0]
 1970 00ac 9889     		ldrh	r0, [r3, #12]	@ unaligned
 1971 00ae FFF7FEFF 		bl	lwip_ntohs
 1972              	.LVL186:
 1973              		.loc 1 157 0
 1974 00b2 C0F30730 		ubfx	r0, r0, #12, #8
 1975              	.LVL187:
 1976 00b6 C0EB8031 		rsb	r1, r0, r0, lsl #14
 1977 00ba 8900     		lsls	r1, r1, #2
 1978 00bc 2846     		mov	r0, r5
 1979 00be 09B2     		sxth	r1, r1
 1980 00c0 FFF7FEFF 		bl	pbuf_header
 1981              	.LVL188:
 1982 00c4 8246     		mov	sl, r0
 1983 00c6 0028     		cmp	r0, #0
 1984 00c8 C3D1     		bne	.L534
 1985              		.loc 1 168 0
 1986 00ca 3768     		ldr	r7, [r6, #0]
 1987              		.loc 1 174 0
 1988 00cc DFF8F091 		ldr	r9, .L562+32
 1989              	.LVL189:
 1990              		.loc 1 168 0
 1991 00d0 3888     		ldrh	r0, [r7, #0]	@ unaligned
 1992 00d2 FFF7FEFF 		bl	lwip_ntohs
 1993              	.LVL190:
ARM GAS  /var/folders/5n/p_75w94d66l9ssrldxqdhh700000gn/T//ccyVBgQE.s 			page 36


 1994 00d6 3880     		strh	r0, [r7, #0]	@ unaligned
 1995              		.loc 1 169 0
 1996 00d8 3768     		ldr	r7, [r6, #0]
 1997 00da 7888     		ldrh	r0, [r7, #2]	@ unaligned
 1998 00dc FFF7FEFF 		bl	lwip_ntohs
 1999              	.LVL191:
 2000 00e0 7880     		strh	r0, [r7, #2]	@ unaligned
 2001              		.loc 1 170 0
 2002 00e2 3768     		ldr	r7, [r6, #0]
 2003 00e4 7868     		ldr	r0, [r7, #4]	@ unaligned
 2004 00e6 FFF7FEFF 		bl	lwip_ntohl
 2005              	.LVL192:
 2006 00ea 40F20001 		movw	r1, #:lower16:.LANCHOR1
 2007 00ee C0F20001 		movt	r1, #:upper16:.LANCHOR1
 2008 00f2 7860     		str	r0, [r7, #4]	@ unaligned
 2009              		.loc 1 171 0
 2010 00f4 3768     		ldr	r7, [r6, #0]
 2011              		.loc 1 170 0
 2012 00f6 0860     		str	r0, [r1, #0]
 2013              		.loc 1 171 0
 2014 00f8 B868     		ldr	r0, [r7, #8]	@ unaligned
 2015 00fa FFF7FEFF 		bl	lwip_ntohl
 2016              	.LVL193:
 2017 00fe 40F20002 		movw	r2, #:lower16:.LANCHOR3
 2018 0102 B860     		str	r0, [r7, #8]	@ unaligned
 2019 0104 C0F20002 		movt	r2, #:upper16:.LANCHOR3
 2020              		.loc 1 172 0
 2021 0108 3768     		ldr	r7, [r6, #0]
 2022              		.loc 1 171 0
 2023 010a 1060     		str	r0, [r2, #0]
 2024              		.loc 1 172 0
 2025 010c F889     		ldrh	r0, [r7, #14]	@ unaligned
 2026 010e FFF7FEFF 		bl	lwip_ntohs
 2027              	.LVL194:
 2028 0112 F881     		strh	r0, [r7, #14]	@ unaligned
 2029              		.loc 1 174 0
 2030 0114 3368     		ldr	r3, [r6, #0]
 2031 0116 9889     		ldrh	r0, [r3, #12]	@ unaligned
 2032 0118 FFF7FEFF 		bl	lwip_ntohs
 2033              	.LVL195:
 2034              		.loc 1 175 0
 2035 011c 2A89     		ldrh	r2, [r5, #8]
 2036 011e 10F00303 		ands	r3, r0, #3
 2037              		.loc 1 182 0
 2038 0122 40F20001 		movw	r1, #:lower16:tcp_active_pcbs
 2039 0126 C0F20001 		movt	r1, #:upper16:tcp_active_pcbs
 2040              		.loc 1 175 0
 2041 012a 18BF     		it	ne
 2042 012c 0123     		movne	r3, #1
 2043 012e 9B18     		adds	r3, r3, r2
 2044 0130 40F20002 		movw	r2, #:lower16:.LANCHOR4
 2045 0134 C0F20002 		movt	r2, #:upper16:.LANCHOR4
 2046              		.loc 1 182 0
 2047 0138 0F68     		ldr	r7, [r1, #0]
 2048              		.loc 1 175 0
 2049 013a 1380     		strh	r3, [r2, #0]	@ movhi
 2050              	.LVL196:
ARM GAS  /var/folders/5n/p_75w94d66l9ssrldxqdhh700000gn/T//ccyVBgQE.s 			page 37


 2051              		.loc 1 174 0
 2052 013c 00F03F00 		and	r0, r0, #63
 2053 0140 89F80000 		strb	r0, [r9, #0]
 2054              		.loc 1 182 0
 2055 0144 002F     		cmp	r7, #0
 2056 0146 00F0E180 		beq	.L301
 2057              		.loc 1 188 0
 2058 014a DFF85CB1 		ldr	fp, .L562+8
 2059 014e 0EE0     		b	.L309
 2060              	.LVL197:
 2061              	.L302:
 2062              		.loc 1 184 0
 2063 0150 0A2B     		cmp	r3, #10
 2064 0152 14D0     		beq	.L539
 2065              	.L303:
 2066              		.loc 1 185 0
 2067 0154 012B     		cmp	r3, #1
 2068 0156 17D0     		beq	.L540
 2069              	.L304:
 2070              		.loc 1 186 0
 2071 0158 3368     		ldr	r3, [r6, #0]
 2072 015a F98B     		ldrh	r1, [r7, #30]
 2073 015c 1A88     		ldrh	r2, [r3, #0]	@ unaligned
 2074 015e 9142     		cmp	r1, r2
 2075 0160 19D0     		beq	.L541
 2076              	.L305:
 2077              	.LVL198:
 2078              		.loc 1 182 0
 2079 0162 FB68     		ldr	r3, [r7, #12]
 2080              	.LVL199:
 2081 0164 BA46     		mov	sl, r7
 2082 0166 002B     		cmp	r3, #0
 2083 0168 00F0D080 		beq	.L301
 2084 016c 1F46     		mov	r7, r3
 2085              	.LVL200:
 2086              	.L309:
 2087              		.loc 1 183 0
 2088 016e 3B7C     		ldrb	r3, [r7, #16]	@ zero_extendqisi2
 2089 0170 002B     		cmp	r3, #0
 2090 0172 EDD1     		bne	.L302
 2091              		.loc 1 183 0 is_stmt 0 discriminator 1
 2092 0174 FFF7FEFF 		bl	port_halt
 2093              	.LVL201:
 2094 0178 3B7C     		ldrb	r3, [r7, #16]	@ zero_extendqisi2
 2095              		.loc 1 184 0 is_stmt 1 discriminator 1
 2096 017a 0A2B     		cmp	r3, #10
 2097 017c EAD1     		bne	.L303
 2098              	.L539:
 2099 017e FFF7FEFF 		bl	port_halt
 2100              	.LVL202:
 2101 0182 3B7C     		ldrb	r3, [r7, #16]	@ zero_extendqisi2
 2102              		.loc 1 185 0 discriminator 1
 2103 0184 012B     		cmp	r3, #1
 2104 0186 E7D1     		bne	.L304
 2105              	.L540:
 2106 0188 FFF7FEFF 		bl	port_halt
 2107              	.LVL203:
ARM GAS  /var/folders/5n/p_75w94d66l9ssrldxqdhh700000gn/T//ccyVBgQE.s 			page 38


 2108              		.loc 1 186 0 discriminator 1
 2109 018c 3368     		ldr	r3, [r6, #0]
 2110 018e F98B     		ldrh	r1, [r7, #30]
 2111 0190 1A88     		ldrh	r2, [r3, #0]	@ unaligned
 2112 0192 9142     		cmp	r1, r2
 2113 0194 E5D1     		bne	.L305
 2114              	.L541:
 2115 0196 BA8B     		ldrh	r2, [r7, #28]
 2116 0198 5B88     		ldrh	r3, [r3, #2]	@ unaligned
 2117 019a 9A42     		cmp	r2, r3
 2118 019c E1D1     		bne	.L305
 2119              		.loc 1 187 0
 2120 019e 7A68     		ldr	r2, [r7, #4]
 2121 01a0 DBF80030 		ldr	r3, [fp, #0]
 2122 01a4 9A42     		cmp	r2, r3
 2123 01a6 DCD1     		bne	.L305
 2124              		.loc 1 188 0
 2125 01a8 3A68     		ldr	r2, [r7, #0]
 2126 01aa D8F80030 		ldr	r3, [r8, #0]
 2127 01ae 9A42     		cmp	r2, r3
 2128 01b0 D7D1     		bne	.L305
 2129              		.loc 1 194 0
 2130 01b2 FB68     		ldr	r3, [r7, #12]
 2131 01b4 BB42     		cmp	r3, r7
 2132 01b6 00F0F380 		beq	.L542
 2133              	.L306:
 2134              		.loc 1 195 0
 2135 01ba BAF1000F 		cmp	sl, #0
 2136 01be 08D0     		beq	.L307
 2137              		.loc 1 197 0
 2138 01c0 40F20000 		movw	r0, #:lower16:tcp_active_pcbs
 2139 01c4 C0F20000 		movt	r0, #:upper16:tcp_active_pcbs
 2140              		.loc 1 196 0
 2141 01c8 CAF80C30 		str	r3, [sl, #12]
 2142              		.loc 1 197 0
 2143 01cc 0368     		ldr	r3, [r0, #0]
 2144              		.loc 1 198 0
 2145 01ce 0760     		str	r7, [r0, #0]
 2146              		.loc 1 197 0
 2147 01d0 FB60     		str	r3, [r7, #12]
 2148              	.L307:
 2149              		.loc 1 200 0
 2150 01d2 9F42     		cmp	r7, r3
 2151 01d4 00F02184 		beq	.L543
 2152              	.L308:
 2153              		.loc 1 292 0
 2154 01d8 DFF8D8B0 		ldr	fp, .L562+20
 2155              		.loc 1 293 0
 2156 01dc 2B89     		ldrh	r3, [r5, #8]
 2157              		.loc 1 295 0
 2158 01de 3168     		ldr	r1, [r6, #0]
 2159              		.loc 1 297 0
 2160 01e0 DFF8E080 		ldr	r8, .L562+36
 2161              		.loc 1 298 0
 2162 01e4 DFF8E0A0 		ldr	sl, .L562+40
 2163              		.loc 1 301 0
 2164 01e8 D7F88020 		ldr	r2, [r7, #128]
ARM GAS  /var/folders/5n/p_75w94d66l9ssrldxqdhh700000gn/T//ccyVBgQE.s 			page 39


 2165              		.loc 1 293 0
 2166 01ec ABF80830 		strh	r3, [fp, #8]	@ movhi
 2167              		.loc 1 292 0
 2168 01f0 0023     		movs	r3, #0
 2169              		.loc 1 294 0
 2170 01f2 8BE82800 		stmia	fp, {r3, r5}
 2171              		.loc 1 295 0
 2172 01f6 CBF80C10 		str	r1, [fp, #12]
 2173              		.loc 1 297 0
 2174 01fa C8F80030 		str	r3, [r8, #0]
 2175              		.loc 1 298 0
 2176 01fe 8AF80030 		strb	r3, [sl, #0]
 2177              		.loc 1 301 0
 2178 0202 6AB1     		cbz	r2, .L326
 2179              		.loc 1 304 0
 2180 0204 D7F888C0 		ldr	ip, [r7, #136]
 2181 0208 BCF1000F 		cmp	ip, #0
 2182 020c 00F01A83 		beq	.L323
 2183              		.loc 1 304 0 is_stmt 0 discriminator 1
 2184 0210 7869     		ldr	r0, [r7, #20]
 2185 0212 3946     		mov	r1, r7
 2186 0214 E047     		blx	ip
 2187              	.LVL204:
 2188              	.L324:
 2189              		.loc 1 305 0 is_stmt 1
 2190 0216 0028     		cmp	r0, #0
 2191 0218 40F0C680 		bne	.L325
 2192              		.loc 1 306 0
 2193 021c C7F88000 		str	r0, [r7, #128]
 2194              	.LVL205:
 2195              	.L326:
 2196              	.LBB11:
 2197              	.LBB12:
 2198              		.loc 1 581 0
 2199 0220 99F80030 		ldrb	r3, [r9, #0]	@ zero_extendqisi2
 2200              	.LBE12:
 2201              	.LBE11:
 2202              		.loc 1 318 0
 2203 0224 214C     		ldr	r4, .L562+12
 2204              	.LBB28:
 2205              	.LBB15:
 2206              		.loc 1 581 0
 2207 0226 03F00402 		and	r2, r3, #4
 2208 022a D2B2     		uxtb	r2, r2
 2209              	.LBE15:
 2210              	.LBE28:
 2211              		.loc 1 318 0
 2212 022c 2760     		str	r7, [r4, #0]
 2213              	.LVL206:
 2214              	.LBB29:
 2215              	.LBB16:
 2216              		.loc 1 581 0
 2217 022e 002A     		cmp	r2, #0
 2218 0230 00F0D080 		beq	.L328
 2219              	.LVL207:
 2220              		.loc 1 583 0
 2221 0234 3A7C     		ldrb	r2, [r7, #16]	@ zero_extendqisi2
ARM GAS  /var/folders/5n/p_75w94d66l9ssrldxqdhh700000gn/T//ccyVBgQE.s 			page 40


 2222 0236 022A     		cmp	r2, #2
 2223 0238 00F00A83 		beq	.L544
 2224              		.loc 1 588 0
 2225 023c 40F20006 		movw	r6, #:lower16:.LANCHOR1
 2226 0240 C0F20006 		movt	r6, #:upper16:.LANCHOR1
 2227 0244 7B6A     		ldr	r3, [r7, #36]
 2228 0246 3168     		ldr	r1, [r6, #0]
 2229 0248 CB1A     		subs	r3, r1, r3
 2230 024a 04D4     		bmi	.L527
 2231 024c 398D     		ldrh	r1, [r7, #40]
 2232 024e 5B1A     		subs	r3, r3, r1
 2233 0250 002B     		cmp	r3, #0
 2234 0252 40F34C83 		ble	.L334
 2235              	.LVL208:
 2236              	.L527:
 2237 0256 9AF80030 		ldrb	r3, [sl, #0]	@ zero_extendqisi2
 2238              	.LVL209:
 2239              	.L333:
 2240              	.LBE16:
 2241              	.LBE29:
 2242              		.loc 1 323 0
 2243 025a 03F00802 		and	r2, r3, #8
 2244 025e D2B2     		uxtb	r2, r2
 2245 0260 002A     		cmp	r2, #0
 2246 0262 00F0C980 		beq	.L545
 2247              		.loc 1 328 0
 2248 0266 D7F89430 		ldr	r3, [r7, #148]
 2249 026a 1BB1     		cbz	r3, .L532
 2250              		.loc 1 328 0 is_stmt 0 discriminator 1
 2251 026c 7869     		ldr	r0, [r7, #20]
 2252 026e 6FF00A01 		mvn	r1, #10
 2253 0272 9847     		blx	r3
 2254              	.LVL210:
 2255              	.L532:
 2256              		.loc 1 334 0 is_stmt 1
 2257 0274 3946     		mov	r1, r7
 2258 0276 0E48     		ldr	r0, .L562+16
 2259 0278 FFF7FEFF 		bl	tcp_pcb_remove
 2260              	.LVL211:
 2261              		.loc 1 335 0
 2262 027c 0220     		movs	r0, #2
 2263 027e 3946     		mov	r1, r7
 2264 0280 FFF7FEFF 		bl	memp_free
 2265              	.LVL212:
 2266              	.L388:
 2267              		.loc 1 405 0
 2268 0284 DBF80400 		ldr	r0, [fp, #4]
 2269              		.loc 1 401 0
 2270 0288 0025     		movs	r5, #0
 2271 028a 2560     		str	r5, [r4, #0]
 2272              		.loc 1 402 0
 2273 028c C8F80050 		str	r5, [r8, #0]
 2274              		.loc 1 405 0
 2275 0290 18B1     		cbz	r0, .L294
 2276              		.loc 1 407 0
 2277 0292 FFF7FEFF 		bl	pbuf_free
 2278              	.LVL213:
ARM GAS  /var/folders/5n/p_75w94d66l9ssrldxqdhh700000gn/T//ccyVBgQE.s 			page 41


 2279              		.loc 1 408 0
 2280 0296 074B     		ldr	r3, .L562+20
 2281 0298 5D60     		str	r5, [r3, #4]
 2282              	.L294:
 2283              		.loc 1 427 0
 2284 029a 03B0     		add	sp, sp, #12
 2285 029c BDE8F08F 		pop	{r4, r5, r6, r7, r8, r9, sl, fp, pc}
 2286              	.L563:
 2287              		.align	2
 2288              	.L562:
 2289 02a0 00000000 		.word	lwip_stats
 2290 02a4 00000000 		.word	.LANCHOR0
 2291 02a8 00000000 		.word	current_iphdr_src
 2292 02ac 00000000 		.word	.LANCHOR9
 2293 02b0 00000000 		.word	tcp_active_pcbs
 2294 02b4 00000000 		.word	.LANCHOR5
 2295 02b8 00000000 		.word	.LANCHOR8
 2296 02bc 00000000 		.word	current_iphdr_dest
 2297 02c0 00000000 		.word	.LANCHOR2
 2298 02c4 00000000 		.word	.LANCHOR6
 2299 02c8 00000000 		.word	.LANCHOR7
 2300              	.LVL214:
 2301              	.L297:
 2302              		.loc 1 129 0
 2303 02cc B4F8A020 		ldrh	r2, [r4, #160]
 2304              		.loc 1 130 0
 2305 02d0 B4F89630 		ldrh	r3, [r4, #150]
 2306              		.loc 1 129 0
 2307 02d4 0132     		adds	r2, r2, #1
 2308              		.loc 1 130 0
 2309 02d6 0133     		adds	r3, r3, #1
 2310              		.loc 1 132 0
 2311 02d8 2846     		mov	r0, r5
 2312              		.loc 1 129 0
 2313 02da A4F8A020 		strh	r2, [r4, #160]	@ movhi
 2314              		.loc 1 130 0
 2315 02de A4F89630 		strh	r3, [r4, #150]	@ movhi
 2316              		.loc 1 427 0
 2317 02e2 03B0     		add	sp, sp, #12
 2318 02e4 BDE8F04F 		pop	{r4, r5, r6, r7, r8, r9, sl, fp, lr}
 2319              		.loc 1 132 0
 2320 02e8 FFF7FEBF 		b	pbuf_free
 2321              	.LVL215:
 2322              	.L538:
 2323              		.loc 1 146 0
 2324 02ec B4F89820 		ldrh	r2, [r4, #152]
 2325              		.loc 1 147 0
 2326 02f0 B4F89630 		ldrh	r3, [r4, #150]
 2327              		.loc 1 146 0
 2328 02f4 0132     		adds	r2, r2, #1
 2329              		.loc 1 147 0
 2330 02f6 0133     		adds	r3, r3, #1
 2331              		.loc 1 149 0
 2332 02f8 2846     		mov	r0, r5
 2333              		.loc 1 146 0
 2334 02fa A4F89820 		strh	r2, [r4, #152]	@ movhi
 2335              		.loc 1 147 0
ARM GAS  /var/folders/5n/p_75w94d66l9ssrldxqdhh700000gn/T//ccyVBgQE.s 			page 42


 2336 02fe A4F89630 		strh	r3, [r4, #150]	@ movhi
 2337              		.loc 1 427 0
 2338 0302 03B0     		add	sp, sp, #12
 2339 0304 BDE8F04F 		pop	{r4, r5, r6, r7, r8, r9, sl, fp, lr}
 2340              		.loc 1 149 0
 2341 0308 FFF7FEBF 		b	pbuf_free
 2342              	.LVL216:
 2343              	.L301:
 2344              		.loc 1 209 0
 2345 030c 994B     		ldr	r3, .L564
 2346              		.loc 1 213 0
 2347 030e DFF870A2 		ldr	sl, .L564+12
 2348              		.loc 1 209 0
 2349 0312 1F68     		ldr	r7, [r3, #0]
 2350              	.LVL217:
 2351 0314 27B9     		cbnz	r7, .L488
 2352 0316 01E2     		b	.L561
 2353              	.L311:
 2354 0318 FF68     		ldr	r7, [r7, #12]
 2355              	.LVL218:
 2356 031a 002F     		cmp	r7, #0
 2357 031c 00F0FF81 		beq	.L402
 2358              	.L488:
 2359              		.loc 1 210 0
 2360 0320 3B7C     		ldrb	r3, [r7, #16]	@ zero_extendqisi2
 2361 0322 0A2B     		cmp	r3, #10
 2362 0324 01D0     		beq	.L310
 2363              		.loc 1 210 0 is_stmt 0 discriminator 1
 2364 0326 FFF7FEFF 		bl	port_halt
 2365              	.LVL219:
 2366              	.L310:
 2367              		.loc 1 211 0 is_stmt 1
 2368 032a 3368     		ldr	r3, [r6, #0]
 2369 032c FA8B     		ldrh	r2, [r7, #30]
 2370 032e 1888     		ldrh	r0, [r3, #0]	@ unaligned
 2371 0330 9042     		cmp	r0, r2
 2372 0332 F1D1     		bne	.L311
 2373              		.loc 1 212 0 discriminator 1
 2374 0334 BA8B     		ldrh	r2, [r7, #28]
 2375              		.loc 1 211 0 discriminator 1
 2376 0336 B3F802C0 		ldrh	ip, [r3, #2]	@ unaligned
 2377 033a 9445     		cmp	ip, r2
 2378 033c ECD1     		bne	.L311
 2379              		.loc 1 212 0
 2380 033e 7968     		ldr	r1, [r7, #4]
 2381 0340 DAF80020 		ldr	r2, [sl, #0]
 2382 0344 9142     		cmp	r1, r2
 2383 0346 E7D1     		bne	.L311
 2384              		.loc 1 213 0
 2385 0348 3968     		ldr	r1, [r7, #0]
 2386 034a D8F80020 		ldr	r2, [r8, #0]
 2387 034e 9142     		cmp	r1, r2
 2388 0350 E2D1     		bne	.L311
 2389              	.LVL220:
 2390              	.LBB30:
 2391              	.LBB31:
 2392              		.loc 1 533 0
ARM GAS  /var/folders/5n/p_75w94d66l9ssrldxqdhh700000gn/T//ccyVBgQE.s 			page 43


 2393 0352 99F80030 		ldrb	r3, [r9, #0]	@ zero_extendqisi2
 2394 0356 03F00402 		and	r2, r3, #4
 2395 035a D2B2     		uxtb	r2, r2
 2396 035c D2B9     		cbnz	r2, .L312
 2397              		.loc 1 537 0
 2398 035e 03F00202 		and	r2, r3, #2
 2399 0362 D2B2     		uxtb	r2, r2
 2400 0364 002A     		cmp	r2, #0
 2401 0366 00F08E83 		beq	.L313
 2402              		.loc 1 540 0
 2403 036a 40F20002 		movw	r2, #:lower16:.LANCHOR1
 2404 036e C0F20002 		movt	r2, #:upper16:.LANCHOR1
 2405 0372 7B6A     		ldr	r3, [r7, #36]
 2406 0374 1168     		ldr	r1, [r2, #0]
 2407 0376 CB1A     		subs	r3, r1, r3
 2408 0378 04D4     		bmi	.L314
 2409 037a 3A8D     		ldrh	r2, [r7, #40]
 2410 037c 9B1A     		subs	r3, r3, r2
 2411 037e 002B     		cmp	r3, #0
 2412 0380 40F36E83 		ble	.L547
 2413              	.L314:
 2414              		.loc 1 552 0
 2415 0384 40F20000 		movw	r0, #:lower16:.LANCHOR4
 2416 0388 C0F20000 		movt	r0, #:upper16:.LANCHOR4
 2417 038c 0388     		ldrh	r3, [r0, #0]
 2418 038e 002B     		cmp	r3, #0
 2419 0390 40F07F83 		bne	.L548
 2420              	.LVL221:
 2421              	.L312:
 2422              	.LBE31:
 2423              	.LBE30:
 2424              		.loc 1 220 0
 2425 0394 2846     		mov	r0, r5
 2426              		.loc 1 427 0
 2427 0396 03B0     		add	sp, sp, #12
 2428 0398 BDE8F04F 		pop	{r4, r5, r6, r7, r8, r9, sl, fp, lr}
 2429              		.loc 1 220 0
 2430 039c FFF7FEBF 		b	pbuf_free
 2431              	.LVL222:
 2432              	.L542:
 2433              		.loc 1 194 0 discriminator 1
 2434 03a0 FFF7FEFF 		bl	port_halt
 2435              	.LVL223:
 2436 03a4 FB68     		ldr	r3, [r7, #12]
 2437 03a6 08E7     		b	.L306
 2438              	.LVL224:
 2439              	.L325:
 2440              		.loc 1 307 0
 2441 03a8 40B2     		sxtb	r0, r0
 2442              	.LVL225:
 2443 03aa 0A30     		adds	r0, r0, #10
 2444 03ac 07D0     		beq	.L327
 2445              		.loc 1 307 0 is_stmt 0 discriminator 1
 2446 03ae 40F20001 		movw	r1, #:lower16:.LANCHOR4
 2447 03b2 C0F20001 		movt	r1, #:upper16:.LANCHOR4
 2448 03b6 0B88     		ldrh	r3, [r1, #0]
 2449 03b8 002B     		cmp	r3, #0
ARM GAS  /var/folders/5n/p_75w94d66l9ssrldxqdhh700000gn/T//ccyVBgQE.s 			page 44


 2450 03ba 3FF431AF 		beq	.L326
 2451              	.L327:
 2452              		.loc 1 312 0 is_stmt 1
 2453 03be B4F89630 		ldrh	r3, [r4, #150]
 2454              		.loc 1 314 0
 2455 03c2 2846     		mov	r0, r5
 2456              		.loc 1 312 0
 2457 03c4 0133     		adds	r3, r3, #1
 2458 03c6 A4F89630 		strh	r3, [r4, #150]	@ movhi
 2459              		.loc 1 427 0
 2460 03ca 03B0     		add	sp, sp, #12
 2461 03cc BDE8F04F 		pop	{r4, r5, r6, r7, r8, r9, sl, fp, lr}
 2462              		.loc 1 314 0
 2463 03d0 FFF7FEBF 		b	pbuf_free
 2464              	.LVL226:
 2465              	.L328:
 2466              	.LBB33:
 2467              	.LBB17:
 2468              		.loc 1 609 0
 2469 03d4 03F00203 		and	r3, r3, #2
 2470 03d8 DBB2     		uxtb	r3, r3
 2471 03da 002B     		cmp	r3, #0
 2472 03dc 6BD0     		beq	.L335
 2473 03de 3B7C     		ldrb	r3, [r7, #16]	@ zero_extendqisi2
 2474 03e0 023B     		subs	r3, r3, #2
 2475 03e2 012B     		cmp	r3, #1
 2476 03e4 67D9     		bls	.L335
 2477              	.LVL227:
 2478              	.L352:
 2479              		.loc 1 671 0
 2480 03e6 97F82020 		ldrb	r2, [r7, #32]	@ zero_extendqisi2
 2481 03ea 9AF80030 		ldrb	r3, [sl, #0]	@ zero_extendqisi2
 2482 03ee 42F00202 		orr	r2, r2, #2
 2483 03f2 87F82020 		strb	r2, [r7, #32]
 2484 03f6 30E7     		b	.L333
 2485              	.LVL228:
 2486              	.L545:
 2487              	.LBE17:
 2488              	.LBE33:
 2489              		.loc 1 331 0
 2490 03f8 03F01003 		and	r3, r3, #16
 2491 03fc DBB2     		uxtb	r3, r3
 2492 03fe 002B     		cmp	r3, #0
 2493 0400 7FF438AF 		bne	.L532
 2494              	.LVL229:
 2495              		.loc 1 341 0
 2496 0404 B7F86C20 		ldrh	r2, [r7, #108]
 2497 0408 42B1     		cbz	r2, .L390
 2498              		.loc 1 342 0
 2499 040a D7F88430 		ldr	r3, [r7, #132]
 2500 040e 2BB1     		cbz	r3, .L390
 2501              		.loc 1 342 0 is_stmt 0 discriminator 1
 2502 0410 7869     		ldr	r0, [r7, #20]
 2503 0412 3946     		mov	r1, r7
 2504 0414 9847     		blx	r3
 2505              	.LVL230:
 2506              		.loc 1 343 0 is_stmt 1 discriminator 1
ARM GAS  /var/folders/5n/p_75w94d66l9ssrldxqdhh700000gn/T//ccyVBgQE.s 			page 45


 2507 0416 0A30     		adds	r0, r0, #10
 2508              	.LVL231:
 2509 0418 3FF434AF 		beq	.L388
 2510              	.L390:
 2511              		.loc 1 348 0
 2512 041c D8F80030 		ldr	r3, [r8, #0]
 2513 0420 63B3     		cbz	r3, .L391
 2514              		.loc 1 349 0
 2515 0422 D7F88030 		ldr	r3, [r7, #128]
 2516 0426 0BB1     		cbz	r3, .L392
 2517              		.loc 1 349 0 is_stmt 0 discriminator 1
 2518 0428 FFF7FEFF 		bl	port_halt
 2519              	.LVL232:
 2520              	.L392:
 2521              		.loc 1 350 0 is_stmt 1
 2522 042c 97F82030 		ldrb	r3, [r7, #32]	@ zero_extendqisi2
 2523 0430 03F01003 		and	r3, r3, #16
 2524 0434 DBB2     		uxtb	r3, r3
 2525 0436 002B     		cmp	r3, #0
 2526 0438 40F05E82 		bne	.L549
 2527              		.loc 1 357 0
 2528 043c 99F80030 		ldrb	r3, [r9, #0]	@ zero_extendqisi2
 2529 0440 03F00803 		and	r3, r3, #8
 2530 0444 DBB2     		uxtb	r3, r3
 2531 0446 2BB1     		cbz	r3, .L394
 2532              		.loc 1 358 0
 2533 0448 D8F80030 		ldr	r3, [r8, #0]
 2534 044c 5A7B     		ldrb	r2, [r3, #13]	@ zero_extendqisi2
 2535 044e 42F00102 		orr	r2, r2, #1
 2536 0452 5A73     		strb	r2, [r3, #13]
 2537              	.L394:
 2538              		.loc 1 362 0
 2539 0454 D7F88850 		ldr	r5, [r7, #136]
 2540 0458 002D     		cmp	r5, #0
 2541 045a 00F08782 		beq	.L395
 2542              		.loc 1 362 0 is_stmt 0 discriminator 1
 2543 045e 7869     		ldr	r0, [r7, #20]
 2544 0460 D8F80020 		ldr	r2, [r8, #0]
 2545 0464 3946     		mov	r1, r7
 2546 0466 0023     		movs	r3, #0
 2547 0468 A847     		blx	r5
 2548              	.LVL233:
 2549              	.L396:
 2550              		.loc 1 363 0 is_stmt 1
 2551 046a 43B2     		sxtb	r3, r0
 2552 046c 0A33     		adds	r3, r3, #10
 2553 046e 3FF409AF 		beq	.L388
 2554              		.loc 1 368 0
 2555 0472 18B1     		cbz	r0, .L391
 2556              		.loc 1 369 0
 2557 0474 D8F80030 		ldr	r3, [r8, #0]
 2558 0478 C7F88030 		str	r3, [r7, #128]
 2559              	.LVL234:
 2560              	.L391:
 2561              		.loc 1 376 0
 2562 047c 9AF80030 		ldrb	r3, [sl, #0]	@ zero_extendqisi2
 2563 0480 03F02003 		and	r3, r3, #32
ARM GAS  /var/folders/5n/p_75w94d66l9ssrldxqdhh700000gn/T//ccyVBgQE.s 			page 46


 2564 0484 DBB2     		uxtb	r3, r3
 2565 0486 83B1     		cbz	r3, .L397
 2566              		.loc 1 379 0
 2567 0488 3B8D     		ldrh	r3, [r7, #40]
 2568 048a B3F5066F 		cmp	r3, #2144
 2569 048e 01D0     		beq	.L398
 2570              		.loc 1 380 0
 2571 0490 0133     		adds	r3, r3, #1
 2572 0492 3B85     		strh	r3, [r7, #40]	@ movhi
 2573              	.L398:
 2574              		.loc 1 382 0
 2575 0494 D7F88850 		ldr	r5, [r7, #136]
 2576 0498 3DB1     		cbz	r5, .L397
 2577              		.loc 1 382 0 is_stmt 0 discriminator 1
 2578 049a 0022     		movs	r2, #0
 2579 049c 7869     		ldr	r0, [r7, #20]
 2580 049e 3946     		mov	r1, r7
 2581 04a0 1346     		mov	r3, r2
 2582 04a2 A847     		blx	r5
 2583              	.LVL235:
 2584              		.loc 1 383 0 is_stmt 1 discriminator 1
 2585 04a4 0A30     		adds	r0, r0, #10
 2586              	.LVL236:
 2587 04a6 3FF4EDAE 		beq	.L388
 2588              	.L397:
 2589              		.loc 1 388 0
 2590 04aa 0023     		movs	r3, #0
 2591              		.loc 1 390 0
 2592 04ac 3846     		mov	r0, r7
 2593              		.loc 1 388 0
 2594 04ae 2360     		str	r3, [r4, #0]
 2595              		.loc 1 390 0
 2596 04b0 FFF7FEFF 		bl	tcp_output
 2597              	.LVL237:
 2598 04b4 E6E6     		b	.L388
 2599              	.LVL238:
 2600              	.L335:
 2601              	.LBB34:
 2602              		.loc 1 615 0
 2603 04b6 97F82030 		ldrb	r3, [r7, #32]	@ zero_extendqisi2
 2604              	.LBB18:
 2605 04ba 03F01003 		and	r3, r3, #16
 2606 04be DBB2     		uxtb	r3, r3
 2607 04c0 13B9     		cbnz	r3, .L336
 2608              		.loc 1 617 0
 2609 04c2 2D4B     		ldr	r3, .L564+4
 2610 04c4 1B68     		ldr	r3, [r3, #0]
 2611 04c6 3B63     		str	r3, [r7, #48]
 2612              	.L336:
 2613              		.loc 1 619 0
 2614 04c8 0023     		movs	r3, #0
 2615 04ca 87F8A130 		strb	r3, [r7, #161]
 2616              		.loc 1 621 0
 2617 04ce 3846     		mov	r0, r7
 2618 04d0 FFF7FEFF 		bl	tcp_parseopt
 2619              	.LVL239:
 2620              		.loc 1 624 0
ARM GAS  /var/folders/5n/p_75w94d66l9ssrldxqdhh700000gn/T//ccyVBgQE.s 			page 47


 2621 04d4 3B7C     		ldrb	r3, [r7, #16]	@ zero_extendqisi2
 2622 04d6 023B     		subs	r3, r3, #2
 2623 04d8 072B     		cmp	r3, #7
 2624 04da 3FF6BCAE 		bhi	.L527
 2625 04de DFE813F0 		tbh	[pc, r3, lsl #1]
 2626              	.L345:
 2627 04e2 9000     		.2byte	(.L338-.L345)/2
 2628 04e4 F000     		.2byte	(.L339-.L345)/2
 2629 04e6 B900     		.2byte	(.L340-.L345)/2
 2630 04e8 CD00     		.2byte	(.L341-.L345)/2
 2631 04ea 6400     		.2byte	(.L342-.L345)/2
 2632 04ec B900     		.2byte	(.L340-.L345)/2
 2633 04ee 2200     		.2byte	(.L343-.L345)/2
 2634 04f0 0800     		.2byte	(.L344-.L345)/2
 2635              	.L344:
 2636              		.loc 1 777 0
 2637 04f2 3846     		mov	r0, r7
 2638 04f4 FFF7FEFF 		bl	tcp_receive
 2639              	.LVL240:
 2640              	.LBE18:
 2641              		.loc 1 778 0
 2642 04f8 99F80030 		ldrb	r3, [r9, #0]	@ zero_extendqisi2
 2643              	.LBB19:
 2644 04fc 03F01003 		and	r3, r3, #16
 2645 0500 DBB2     		uxtb	r3, r3
 2646 0502 002B     		cmp	r3, #0
 2647 0504 3FF4A7AE 		beq	.L527
 2648 0508 40F20000 		movw	r0, #:lower16:.LANCHOR3
 2649 050c C0F20000 		movt	r0, #:upper16:.LANCHOR3
 2650 0510 BB6D     		ldr	r3, [r7, #88]
 2651 0512 0268     		ldr	r2, [r0, #0]
 2652 0514 9342     		cmp	r3, r2
 2653              		.loc 1 781 0
 2654 0516 9AF80030 		ldrb	r3, [sl, #0]	@ zero_extendqisi2
 2655 051a 04BF     		itt	eq
 2656 051c 43F01003 		orreq	r3, r3, #16
 2657 0520 8AF80030 		strbeq	r3, [sl, #0]
 2658 0524 99E6     		b	.L333
 2659              	.L343:
 2660              		.loc 1 767 0
 2661 0526 3846     		mov	r0, r7
 2662 0528 FFF7FEFF 		bl	tcp_receive
 2663              	.LVL241:
 2664              	.LBE19:
 2665              		.loc 1 768 0
 2666 052c 99F80030 		ldrb	r3, [r9, #0]	@ zero_extendqisi2
 2667              	.LBB20:
 2668 0530 03F01003 		and	r3, r3, #16
 2669 0534 DBB2     		uxtb	r3, r3
 2670 0536 002B     		cmp	r3, #0
 2671 0538 3FF48DAE 		beq	.L527
 2672 053c 40F20005 		movw	r5, #:lower16:.LANCHOR3
 2673              	.LVL242:
 2674 0540 C0F20005 		movt	r5, #:upper16:.LANCHOR3
 2675 0544 BB6D     		ldr	r3, [r7, #88]
 2676 0546 2A68     		ldr	r2, [r5, #0]
 2677 0548 9342     		cmp	r3, r2
ARM GAS  /var/folders/5n/p_75w94d66l9ssrldxqdhh700000gn/T//ccyVBgQE.s 			page 48


 2678 054a 7FF484AE 		bne	.L527
 2679              		.loc 1 771 0
 2680 054e 40F20006 		movw	r6, #:lower16:tcp_active_pcbs
 2681 0552 C0F20006 		movt	r6, #:upper16:tcp_active_pcbs
 2682              		.loc 1 770 0
 2683 0556 3846     		mov	r0, r7
 2684 0558 FFF7FEFF 		bl	tcp_pcb_purge
 2685              	.LVL243:
 2686              		.loc 1 771 0
 2687 055c 3368     		ldr	r3, [r6, #0]
 2688 055e BB42     		cmp	r3, r7
 2689 0560 00F07A82 		beq	.L536
 2690 0564 054A     		ldr	r2, .L564+8
 2691 0566 1360     		str	r3, [r2, #0]
 2692 0568 A3B1     		cbz	r3, .L380
 2693 056a D968     		ldr	r1, [r3, #12]
 2694 056c B942     		cmp	r1, r7
 2695 056e 0DD1     		bne	.L413
 2696 0570 1BE2     		b	.L381
 2697              	.L565:
 2698 0572 00BF     		.align	2
 2699              	.L564:
 2700 0574 00000000 		.word	tcp_tw_pcbs
 2701 0578 00000000 		.word	tcp_ticks
 2702 057c 00000000 		.word	tcp_tmp_pcb
 2703 0580 00000000 		.word	current_iphdr_src
 2704              	.L384:
 2705 0584 D968     		ldr	r1, [r3, #12]
 2706 0586 B942     		cmp	r1, r7
 2707 0588 00F00E82 		beq	.L537
 2708              	.L413:
 2709 058c 0B46     		mov	r3, r1
 2710 058e 0029     		cmp	r1, #0
 2711 0590 F8D1     		bne	.L384
 2712              	.L535:
 2713 0592 1360     		str	r3, [r2, #0]
 2714              	.L380:
 2715              		.loc 1 773 0
 2716 0594 B94B     		ldr	r3, .L566
 2717 0596 1A68     		ldr	r2, [r3, #0]
 2718 0598 1F60     		str	r7, [r3, #0]
 2719              		.loc 1 772 0
 2720 059a 0A23     		movs	r3, #10
 2721 059c 3B74     		strb	r3, [r7, #16]
 2722              		.loc 1 773 0
 2723 059e FA60     		str	r2, [r7, #12]
 2724 05a0 FFF7FEFF 		bl	tcp_timer_needed
 2725              	.LVL244:
 2726 05a4 9AF80030 		ldrb	r3, [sl, #0]	@ zero_extendqisi2
 2727 05a8 57E6     		b	.L333
 2728              	.LVL245:
 2729              	.L342:
 2730              		.loc 1 756 0
 2731 05aa 3846     		mov	r0, r7
 2732 05ac FFF7FEFF 		bl	tcp_receive
 2733              	.LVL246:
 2734              		.loc 1 757 0
ARM GAS  /var/folders/5n/p_75w94d66l9ssrldxqdhh700000gn/T//ccyVBgQE.s 			page 49


 2735 05b0 9AF80030 		ldrb	r3, [sl, #0]	@ zero_extendqisi2
 2736 05b4 03F02002 		and	r2, r3, #32
 2737 05b8 D2B2     		uxtb	r2, r2
 2738 05ba 002A     		cmp	r2, #0
 2739 05bc 3FF44DAE 		beq	.L333
 2740              		.loc 1 759 0
 2741 05c0 97F82030 		ldrb	r3, [r7, #32]	@ zero_extendqisi2
 2742 05c4 43F00203 		orr	r3, r3, #2
 2743 05c8 87F82030 		strb	r3, [r7, #32]
 2744              		.loc 1 760 0
 2745 05cc 3846     		mov	r0, r7
 2746 05ce FFF7FEFF 		bl	tcp_pcb_purge
 2747              	.LVL247:
 2748              		.loc 1 761 0
 2749 05d2 40F20001 		movw	r1, #:lower16:tcp_active_pcbs
 2750 05d6 C0F20001 		movt	r1, #:upper16:tcp_active_pcbs
 2751 05da 0B68     		ldr	r3, [r1, #0]
 2752 05dc BB42     		cmp	r3, r7
 2753 05de 00F03B82 		beq	.L536
 2754 05e2 A74A     		ldr	r2, .L566+4
 2755 05e4 1360     		str	r3, [r2, #0]
 2756 05e6 002B     		cmp	r3, #0
 2757 05e8 D4D0     		beq	.L380
 2758 05ea D968     		ldr	r1, [r3, #12]
 2759 05ec B942     		cmp	r1, r7
 2760 05ee 04D1     		bne	.L412
 2761 05f0 DBE1     		b	.L381
 2762              	.L376:
 2763 05f2 D968     		ldr	r1, [r3, #12]
 2764 05f4 B942     		cmp	r1, r7
 2765 05f6 00F0D781 		beq	.L537
 2766              	.L412:
 2767 05fa 0B46     		mov	r3, r1
 2768 05fc 0029     		cmp	r1, #0
 2769 05fe F8D1     		bne	.L376
 2770 0600 C7E7     		b	.L535
 2771              	.L338:
 2772              		.loc 1 629 0
 2773 0602 99F80030 		ldrb	r3, [r9, #0]	@ zero_extendqisi2
 2774 0606 03F01202 		and	r2, r3, #18
 2775 060a 122A     		cmp	r2, #18
 2776 060c 00F0D081 		beq	.L550
 2777              	.L346:
 2778              		.loc 1 674 0
 2779 0610 03F01003 		and	r3, r3, #16
 2780 0614 DBB2     		uxtb	r3, r3
 2781 0616 002B     		cmp	r3, #0
 2782 0618 3FF41DAE 		beq	.L527
 2783              		.loc 1 677 0
 2784 061c 3368     		ldr	r3, [r6, #0]
 2785              		.loc 1 676 0
 2786 061e 40F20005 		movw	r5, #:lower16:.LANCHOR4
 2787              	.LVL248:
 2788 0622 40F20006 		movw	r6, #:lower16:.LANCHOR1
 2789 0626 5888     		ldrh	r0, [r3, #2]	@ unaligned
 2790 0628 C0F20005 		movt	r5, #:upper16:.LANCHOR4
 2791 062c C0F20006 		movt	r6, #:upper16:.LANCHOR1
ARM GAS  /var/folders/5n/p_75w94d66l9ssrldxqdhh700000gn/T//ccyVBgQE.s 			page 50


 2792 0630 2988     		ldrh	r1, [r5, #0]
 2793 0632 3268     		ldr	r2, [r6, #0]
 2794 0634 0090     		str	r0, [sp, #0]
 2795 0636 40F20005 		movw	r5, #:lower16:.LANCHOR3
 2796 063a 1B88     		ldrh	r3, [r3, #0]	@ unaligned
 2797 063c C0F20005 		movt	r5, #:upper16:.LANCHOR3
 2798 0640 8918     		adds	r1, r1, r2
 2799 0642 2868     		ldr	r0, [r5, #0]
 2800 0644 8F4A     		ldr	r2, .L566+8
 2801 0646 0193     		str	r3, [sp, #4]
 2802 0648 8F4B     		ldr	r3, .L566+12
 2803 064a FFF7FEFF 		bl	tcp_rst
 2804              	.LVL249:
 2805 064e 9AF80030 		ldrb	r3, [sl, #0]	@ zero_extendqisi2
 2806 0652 02E6     		b	.L333
 2807              	.LVL250:
 2808              	.L340:
 2809              		.loc 1 730 0
 2810 0654 3846     		mov	r0, r7
 2811 0656 FFF7FEFF 		bl	tcp_receive
 2812              	.LVL251:
 2813              		.loc 1 731 0
 2814 065a 9AF80030 		ldrb	r3, [sl, #0]	@ zero_extendqisi2
 2815 065e 03F02002 		and	r2, r3, #32
 2816 0662 D2B2     		uxtb	r2, r2
 2817 0664 002A     		cmp	r2, #0
 2818 0666 3FF4F8AD 		beq	.L333
 2819              	.LVL252:
 2820              	.L533:
 2821              		.loc 1 732 0
 2822 066a 97F82020 		ldrb	r2, [r7, #32]	@ zero_extendqisi2
 2823 066e 42F00202 		orr	r2, r2, #2
 2824 0672 87F82020 		strb	r2, [r7, #32]
 2825              		.loc 1 733 0
 2826 0676 0722     		movs	r2, #7
 2827 0678 3A74     		strb	r2, [r7, #16]
 2828 067a EEE5     		b	.L333
 2829              	.LVL253:
 2830              	.L341:
 2831              		.loc 1 737 0
 2832 067c 3846     		mov	r0, r7
 2833 067e FFF7FEFF 		bl	tcp_receive
 2834              	.LVL254:
 2835              		.loc 1 738 0
 2836 0682 9AF80030 		ldrb	r3, [sl, #0]	@ zero_extendqisi2
 2837 0686 03F02002 		and	r2, r3, #32
 2838 068a D2B2     		uxtb	r2, r2
 2839 068c 002A     		cmp	r2, #0
 2840 068e 00F05981 		beq	.L365
 2841              	.LBE20:
 2842              		.loc 1 739 0
 2843 0692 99F80020 		ldrb	r2, [r9, #0]	@ zero_extendqisi2
 2844              	.LBB21:
 2845 0696 02F01002 		and	r2, r2, #16
 2846 069a D2B2     		uxtb	r2, r2
 2847 069c 42B1     		cbz	r2, .L366
 2848 069e 40F20005 		movw	r5, #:lower16:.LANCHOR3
ARM GAS  /var/folders/5n/p_75w94d66l9ssrldxqdhh700000gn/T//ccyVBgQE.s 			page 51


 2849              	.LVL255:
 2850 06a2 C0F20005 		movt	r5, #:upper16:.LANCHOR3
 2851 06a6 BA6D     		ldr	r2, [r7, #88]
 2852 06a8 2968     		ldr	r1, [r5, #0]
 2853 06aa 8A42     		cmp	r2, r1
 2854 06ac 00F0B981 		beq	.L551
 2855              	.L366:
 2856              		.loc 1 748 0
 2857 06b0 97F82020 		ldrb	r2, [r7, #32]	@ zero_extendqisi2
 2858 06b4 42F00202 		orr	r2, r2, #2
 2859 06b8 87F82020 		strb	r2, [r7, #32]
 2860              		.loc 1 749 0
 2861 06bc 0822     		movs	r2, #8
 2862 06be 3A74     		strb	r2, [r7, #16]
 2863 06c0 CBE5     		b	.L333
 2864              	.LVL256:
 2865              	.L339:
 2866              		.loc 1 681 0
 2867 06c2 99F80030 		ldrb	r3, [r9, #0]	@ zero_extendqisi2
 2868 06c6 03F01002 		and	r2, r3, #16
 2869 06ca D2B2     		uxtb	r2, r2
 2870 06cc 002A     		cmp	r2, #0
 2871 06ce 00F05581 		beq	.L355
 2872              		.loc 1 683 0
 2873 06d2 40F20001 		movw	r1, #:lower16:.LANCHOR3
 2874 06d6 C0F20001 		movt	r1, #:upper16:.LANCHOR3
 2875 06da FB6C     		ldr	r3, [r7, #76]
 2876 06dc 0868     		ldr	r0, [r1, #0]
 2877 06de DB43     		mvns	r3, r3
 2878 06e0 C342     		cmn	r3, r0
 2879 06e2 04D4     		bmi	.L356
 2880 06e4 BB6D     		ldr	r3, [r7, #88]
 2881 06e6 C31A     		subs	r3, r0, r3
 2882 06e8 002B     		cmp	r3, #0
 2883 06ea 40F37281 		ble	.L552
 2884              	.L356:
 2885              		.loc 1 719 0
 2886 06ee 40F20002 		movw	r2, #:lower16:.LANCHOR4
 2887              		.loc 1 720 0
 2888 06f2 3368     		ldr	r3, [r6, #0]
 2889              		.loc 1 719 0
 2890 06f4 C0F20002 		movt	r2, #:upper16:.LANCHOR4
 2891 06f8 40F20006 		movw	r6, #:lower16:.LANCHOR1
 2892 06fc 1588     		ldrh	r5, [r2, #0]
 2893              	.LVL257:
 2894 06fe 5A88     		ldrh	r2, [r3, #2]	@ unaligned
 2895 0700 C0F20006 		movt	r6, #:upper16:.LANCHOR1
 2896 0704 3168     		ldr	r1, [r6, #0]
 2897 0706 0092     		str	r2, [sp, #0]
 2898 0708 1B88     		ldrh	r3, [r3, #0]	@ unaligned
 2899 070a 5E4A     		ldr	r2, .L566+8
 2900 070c 0193     		str	r3, [sp, #4]
 2901 070e 6918     		adds	r1, r5, r1
 2902 0710 5D4B     		ldr	r3, .L566+12
 2903 0712 FFF7FEFF 		bl	tcp_rst
 2904              	.LVL258:
 2905 0716 9AF80030 		ldrb	r3, [sl, #0]	@ zero_extendqisi2
ARM GAS  /var/folders/5n/p_75w94d66l9ssrldxqdhh700000gn/T//ccyVBgQE.s 			page 52


 2906 071a 9EE5     		b	.L333
 2907              	.LVL259:
 2908              	.L561:
 2909 071c 3368     		ldr	r3, [r6, #0]
 2910              	.L402:
 2911              	.LVL260:
 2912              	.LBE21:
 2913              	.LBE34:
 2914              		.loc 1 228 0
 2915 071e DFF86CB1 		ldr	fp, .L566+16
 2916 0722 DBF800A0 		ldr	sl, [fp, #0]
 2917              	.LVL261:
 2918 0726 BAF1000F 		cmp	sl, #0
 2919 072a 00F0B180 		beq	.L316
 2920 072e 5888     		ldrh	r0, [r3, #2]	@ unaligned
 2921              		.loc 1 240 0
 2922 0730 D8F800C0 		ldr	ip, [r8, #0]
 2923 0734 5746     		mov	r7, sl
 2924              	.LVL262:
 2925              		.loc 1 227 0
 2926 0736 0021     		movs	r1, #0
 2927 0738 05E0     		b	.L319
 2928              	.LVL263:
 2929              	.L317:
 2930              		.loc 1 228 0
 2931 073a FA68     		ldr	r2, [r7, #12]
 2932              	.LVL264:
 2933 073c 3946     		mov	r1, r7
 2934 073e 002A     		cmp	r2, #0
 2935 0740 00F0A680 		beq	.L316
 2936              	.LVL265:
 2937 0744 1746     		mov	r7, r2
 2938              	.LVL266:
 2939              	.L319:
 2940              		.loc 1 229 0
 2941 0746 BA8B     		ldrh	r2, [r7, #28]
 2942 0748 8242     		cmp	r2, r0
 2943 074a F6D1     		bne	.L317
 2944              		.loc 1 240 0
 2945 074c 3A68     		ldr	r2, [r7, #0]
 2946 074e 6245     		cmp	r2, ip
 2947 0750 01D0     		beq	.L318
 2948              		.loc 1 241 0 discriminator 1
 2949 0752 002A     		cmp	r2, #0
 2950 0754 F1D1     		bne	.L317
 2951              	.L318:
 2952              		.loc 1 261 0
 2953 0756 29B1     		cbz	r1, .L404
 2954              		.loc 1 262 0
 2955 0758 FA68     		ldr	r2, [r7, #12]
 2956              		.loc 1 266 0
 2957 075a CBF80070 		str	r7, [fp, #0]
 2958              		.loc 1 262 0
 2959 075e CA60     		str	r2, [r1, #12]
 2960              		.loc 1 264 0
 2961 0760 C7F80CA0 		str	sl, [r7, #12]
 2962              	.L404:
ARM GAS  /var/folders/5n/p_75w94d66l9ssrldxqdhh700000gn/T//ccyVBgQE.s 			page 53


 2963              	.LVL267:
 2964              	.LBB35:
 2965              	.LBB36:
 2966              		.loc 1 449 0
 2967 0764 99F80020 		ldrb	r2, [r9, #0]	@ zero_extendqisi2
 2968 0768 02F01009 		and	r9, r2, #16
 2969 076c 5FFA89F9 		uxtb	r9, r9
 2970 0770 B9F1000F 		cmp	r9, #0
 2971 0774 40F0C880 		bne	.L553
 2972              		.loc 1 456 0
 2973 0778 02F00203 		and	r3, r2, #2
 2974 077c DBB2     		uxtb	r3, r3
 2975 077e 002B     		cmp	r3, #0
 2976 0780 3FF408AE 		beq	.L312
 2977              		.loc 1 464 0
 2978 0784 787C     		ldrb	r0, [r7, #17]	@ zero_extendqisi2
 2979 0786 FFF7FEFF 		bl	tcp_alloc
 2980              	.LVL268:
 2981              		.loc 1 468 0
 2982 078a 8246     		mov	sl, r0
 2983 078c 0028     		cmp	r0, #0
 2984 078e 00F08A81 		beq	.L554
 2985              		.loc 1 479 0
 2986 0792 3D4B     		ldr	r3, .L566+12
 2987              		.loc 1 478 0
 2988 0794 B98B     		ldrh	r1, [r7, #28]
 2989              		.loc 1 479 0
 2990 0796 1B68     		ldr	r3, [r3, #0]
 2991              		.loc 1 477 0
 2992 0798 D8F80020 		ldr	r2, [r8, #0]
 2993              		.loc 1 478 0
 2994 079c AAF81C10 		strh	r1, [sl, #28]	@ movhi
 2995              		.loc 1 480 0
 2996 07a0 3068     		ldr	r0, [r6, #0]
 2997              	.LVL269:
 2998              		.loc 1 477 0
 2999 07a2 CAF80020 		str	r2, [sl, #0]
 3000              		.loc 1 482 0
 3001 07a6 40F20001 		movw	r1, #:lower16:.LANCHOR1
 3002              		.loc 1 479 0
 3003 07aa CAF80430 		str	r3, [sl, #4]
 3004              		.loc 1 482 0
 3005 07ae C0F20001 		movt	r1, #:upper16:.LANCHOR1
 3006              		.loc 1 480 0
 3007 07b2 90F801C0 		ldrb	ip, [r0, #1]	@ zero_extendqisi2
 3008 07b6 90F800E0 		ldrb	lr, [r0, #0]	@ zero_extendqisi2
 3009              		.loc 1 482 0
 3010 07ba 0C68     		ldr	r4, [r1, #0]
 3011              		.loc 1 489 0
 3012 07bc BA69     		ldr	r2, [r7, #24]
 3013              		.loc 1 487 0
 3014 07be 7969     		ldr	r1, [r7, #20]
 3015              		.loc 1 495 0
 3016 07c0 40F20006 		movw	r6, #:lower16:tcp_active_pcbs
 3017 07c4 C0F20006 		movt	r6, #:upper16:tcp_active_pcbs
 3018              		.loc 1 480 0
 3019 07c8 4EEA0C2E 		orr	lr, lr, ip, lsl #8
ARM GAS  /var/folders/5n/p_75w94d66l9ssrldxqdhh700000gn/T//ccyVBgQE.s 			page 54


 3020              		.loc 1 495 0
 3021 07cc 3368     		ldr	r3, [r6, #0]
 3022              		.loc 1 480 0
 3023 07ce AAF81EE0 		strh	lr, [sl, #30]	@ movhi
 3024              		.loc 1 482 0
 3025 07d2 661C     		adds	r6, r4, #1
 3026              		.loc 1 481 0
 3027 07d4 4FF0030E 		mov	lr, #3
 3028 07d8 8AF810E0 		strb	lr, [sl, #16]
 3029              		.loc 1 482 0
 3030 07dc CAF82460 		str	r6, [sl, #36]
 3031              		.loc 1 483 0
 3032 07e0 CAF82C60 		str	r6, [sl, #44]
 3033              		.loc 1 484 0
 3034 07e4 C089     		ldrh	r0, [r0, #14]	@ unaligned
 3035              		.loc 1 487 0
 3036 07e6 CAF81410 		str	r1, [sl, #20]
 3037              		.loc 1 486 0
 3038 07ea 013C     		subs	r4, r4, #1
 3039              		.loc 1 484 0
 3040 07ec AAF85C00 		strh	r0, [sl, #92]	@ movhi
 3041              		.loc 1 485 0
 3042 07f0 AAF85400 		strh	r0, [sl, #84]	@ movhi
 3043              		.loc 1 486 0
 3044 07f4 CAF86040 		str	r4, [sl, #96]
 3045              		.loc 1 489 0
 3046 07f8 CAF81820 		str	r2, [sl, #24]
 3047              		.loc 1 492 0
 3048 07fc 3A7A     		ldrb	r2, [r7, #8]	@ zero_extendqisi2
 3049              		.loc 1 495 0
 3050 07fe CAF80C30 		str	r3, [sl, #12]
 3051 0802 40F20000 		movw	r0, #:lower16:tcp_active_pcbs
 3052              		.loc 1 492 0
 3053 0806 22F07303 		bic	r3, r2, #115
 3054              		.loc 1 495 0
 3055 080a C0F20000 		movt	r0, #:upper16:tcp_active_pcbs
 3056              		.loc 1 492 0
 3057 080e 8AF80830 		strb	r3, [sl, #8]
 3058              		.loc 1 495 0
 3059 0812 C0F800A0 		str	sl, [r0, #0]
 3060 0816 FFF7FEFF 		bl	tcp_timer_needed
 3061              	.LVL270:
 3062              		.loc 1 498 0
 3063 081a 5046     		mov	r0, sl
 3064 081c FFF7FEFF 		bl	tcp_parseopt
 3065              	.LVL271:
 3066              		.loc 1 500 0
 3067 0820 0AF10401 		add	r1, sl, #4
 3068 0824 BAF83800 		ldrh	r0, [sl, #56]
 3069 0828 FFF7FEFF 		bl	tcp_eff_send_mss
 3070              	.LVL272:
 3071              		.loc 1 506 0
 3072 082c 1221     		movs	r1, #18
 3073              		.loc 1 500 0
 3074 082e AAF83800 		strh	r0, [sl, #56]	@ movhi
 3075              		.loc 1 506 0
 3076 0832 5046     		mov	r0, sl
ARM GAS  /var/folders/5n/p_75w94d66l9ssrldxqdhh700000gn/T//ccyVBgQE.s 			page 55


 3077 0834 FFF7FEFF 		bl	tcp_enqueue_flags
 3078              	.LVL273:
 3079              		.loc 1 507 0
 3080 0838 0028     		cmp	r0, #0
 3081 083a 7ED1     		bne	.L555
 3082              		.loc 1 511 0
 3083 083c 5046     		mov	r0, sl
 3084              	.LVL274:
 3085 083e FFF7FEFF 		bl	tcp_output
 3086              	.LVL275:
 3087 0842 A7E5     		b	.L312
 3088              	.LVL276:
 3089              	.L323:
 3090              	.LBE36:
 3091              	.LBE35:
 3092              		.loc 1 304 0 discriminator 2
 3093 0844 6046     		mov	r0, ip
 3094 0846 3946     		mov	r1, r7
 3095 0848 6346     		mov	r3, ip
 3096 084a FFF7FEFF 		bl	tcp_recv_null
 3097              	.LVL277:
 3098 084e E2E4     		b	.L324
 3099              	.LVL278:
 3100              	.L544:
 3101              	.LBB39:
 3102              	.LBB22:
 3103              		.loc 1 584 0
 3104 0850 40F20005 		movw	r5, #:lower16:.LANCHOR3
 3105              	.LVL279:
 3106 0854 C0F20005 		movt	r5, #:upper16:.LANCHOR3
 3107 0858 BB6D     		ldr	r3, [r7, #88]
 3108 085a 2A68     		ldr	r2, [r5, #0]
 3109 085c 9342     		cmp	r3, r2
 3110 085e 7FF4FAAC 		bne	.L527
 3111              	.LVL280:
 3112              	.L330:
 3113              		.loc 1 597 0
 3114 0862 9AF80030 		ldrb	r3, [sl, #0]	@ zero_extendqisi2
 3115              		.loc 1 598 0
 3116 0866 97F82020 		ldrb	r2, [r7, #32]	@ zero_extendqisi2
 3117              		.loc 1 597 0
 3118 086a 43F00803 		orr	r3, r3, #8
 3119              		.loc 1 598 0
 3120 086e 22F00102 		bic	r2, r2, #1
 3121              		.loc 1 597 0
 3122 0872 8AF80030 		strb	r3, [sl, #0]
 3123              		.loc 1 598 0
 3124 0876 87F82020 		strb	r2, [r7, #32]
 3125 087a EEE4     		b	.L333
 3126              	.L567:
 3127              		.align	2
 3128              	.L566:
 3129 087c 00000000 		.word	tcp_tw_pcbs
 3130 0880 00000000 		.word	tcp_tmp_pcb
 3131 0884 00000000 		.word	current_iphdr_dest
 3132 0888 00000000 		.word	current_iphdr_src
 3133 088c 00000000 		.word	tcp_listen_pcbs
ARM GAS  /var/folders/5n/p_75w94d66l9ssrldxqdhh700000gn/T//ccyVBgQE.s 			page 56


 3134              	.LVL281:
 3135              	.L316:
 3136              	.LBE22:
 3137              	.LBE39:
 3138              		.loc 1 415 0
 3139 0890 9889     		ldrh	r0, [r3, #12]	@ unaligned
 3140 0892 FFF7FEFF 		bl	lwip_ntohs
 3141              	.LVL282:
 3142 0896 00F00400 		and	r0, r0, #4
 3143 089a 83B2     		uxth	r3, r0
 3144 089c 002B     		cmp	r3, #0
 3145 089e 7FF479AD 		bne	.L312
 3146              		.loc 1 416 0
 3147 08a2 B4F8A0C0 		ldrh	ip, [r4, #160]
 3148              		.loc 1 417 0
 3149 08a6 B4F896E0 		ldrh	lr, [r4, #150]
 3150              		.loc 1 420 0
 3151 08aa 3668     		ldr	r6, [r6, #0]
 3152              		.loc 1 416 0
 3153 08ac 0CF1010C 		add	ip, ip, #1
 3154              		.loc 1 417 0
 3155 08b0 0EF1010E 		add	lr, lr, #1
 3156              		.loc 1 416 0
 3157 08b4 A4F8A0C0 		strh	ip, [r4, #160]	@ movhi
 3158              		.loc 1 417 0
 3159 08b8 A4F896E0 		strh	lr, [r4, #150]	@ movhi
 3160              		.loc 1 418 0
 3161 08bc 40F20001 		movw	r1, #:lower16:.LANCHOR3
 3162 08c0 40F20002 		movw	r2, #:lower16:.LANCHOR4
 3163 08c4 40F20003 		movw	r3, #:lower16:.LANCHOR1
 3164 08c8 7488     		ldrh	r4, [r6, #2]	@ unaligned
 3165 08ca C0F20001 		movt	r1, #:upper16:.LANCHOR3
 3166 08ce C0F20002 		movt	r2, #:upper16:.LANCHOR4
 3167 08d2 C0F20003 		movt	r3, #:upper16:.LANCHOR1
 3168 08d6 1788     		ldrh	r7, [r2, #0]
 3169 08d8 0868     		ldr	r0, [r1, #0]
 3170 08da 1968     		ldr	r1, [r3, #0]
 3171 08dc 0094     		str	r4, [sp, #0]
 3172 08de 3488     		ldrh	r4, [r6, #0]	@ unaligned
 3173 08e0 A54A     		ldr	r2, .L568
 3174 08e2 A64B     		ldr	r3, .L568+4
 3175 08e4 0194     		str	r4, [sp, #4]
 3176 08e6 7918     		adds	r1, r7, r1
 3177 08e8 FFF7FEFF 		bl	tcp_rst
 3178              	.LVL283:
 3179 08ec 52E5     		b	.L312
 3180              	.LVL284:
 3181              	.L334:
 3182              	.LBB40:
 3183              	.LBB23:
 3184              		.loc 1 596 0
 3185 08ee 002A     		cmp	r2, #0
 3186 08f0 B7D1     		bne	.L330
 3187 08f2 FFF7FEFF 		bl	port_halt
 3188              	.LVL285:
 3189 08f6 B4E7     		b	.L330
 3190              	.LVL286:
ARM GAS  /var/folders/5n/p_75w94d66l9ssrldxqdhh700000gn/T//ccyVBgQE.s 			page 57


 3191              	.L549:
 3192              	.LBE23:
 3193              	.LBE40:
 3194              		.loc 1 353 0
 3195 08f8 D8F80000 		ldr	r0, [r8, #0]
 3196 08fc FFF7FEFF 		bl	pbuf_free
 3197              	.LVL287:
 3198              	.L531:
 3199              		.loc 1 354 0
 3200 0900 3846     		mov	r0, r7
 3201 0902 FFF7FEFF 		bl	tcp_abort
 3202              	.LVL288:
 3203              		.loc 1 355 0
 3204 0906 BDE4     		b	.L388
 3205              	.LVL289:
 3206              	.L553:
 3207              	.LBB41:
 3208              	.LBB37:
 3209              		.loc 1 453 0
 3210 0908 40F20001 		movw	r1, #:lower16:.LANCHOR3
 3211 090c 40F20002 		movw	r2, #:lower16:.LANCHOR4
 3212 0910 40F20006 		movw	r6, #:lower16:.LANCHOR1
 3213 0914 C0F20001 		movt	r1, #:upper16:.LANCHOR3
 3214 0918 C0F20002 		movt	r2, #:upper16:.LANCHOR4
 3215 091c C0F20006 		movt	r6, #:upper16:.LANCHOR1
 3216 0920 0090     		str	r0, [sp, #0]
 3217 0922 1488     		ldrh	r4, [r2, #0]
 3218 0924 0868     		ldr	r0, [r1, #0]
 3219 0926 1B88     		ldrh	r3, [r3, #0]	@ unaligned
 3220 0928 3168     		ldr	r1, [r6, #0]
 3221 092a 934A     		ldr	r2, .L568
 3222 092c 0193     		str	r3, [sp, #4]
 3223 092e 0130     		adds	r0, r0, #1
 3224 0930 6118     		adds	r1, r4, r1
 3225 0932 924B     		ldr	r3, .L568+4
 3226 0934 FFF7FEFF 		bl	tcp_rst
 3227              	.LVL290:
 3228 0938 2CE5     		b	.L312
 3229              	.LVL291:
 3230              	.L555:
 3231              		.loc 1 508 0
 3232 093a 5046     		mov	r0, sl
 3233              	.LVL292:
 3234 093c 4946     		mov	r1, r9
 3235 093e FFF7FEFF 		bl	tcp_abandon
 3236              	.LVL293:
 3237 0942 27E5     		b	.L312
 3238              	.LVL294:
 3239              	.L365:
 3240              	.LBE37:
 3241              	.LBE41:
 3242              	.LBB42:
 3243              		.loc 1 751 0
 3244 0944 99F80020 		ldrb	r2, [r9, #0]	@ zero_extendqisi2
 3245              	.LBB24:
 3246 0948 02F01002 		and	r2, r2, #16
 3247 094c D2B2     		uxtb	r2, r2
ARM GAS  /var/folders/5n/p_75w94d66l9ssrldxqdhh700000gn/T//ccyVBgQE.s 			page 58


 3248 094e 002A     		cmp	r2, #0
 3249 0950 3FF483AC 		beq	.L333
 3250 0954 40F20000 		movw	r0, #:lower16:.LANCHOR3
 3251 0958 C0F20000 		movt	r0, #:upper16:.LANCHOR3
 3252 095c BA6D     		ldr	r2, [r7, #88]
 3253 095e 0168     		ldr	r1, [r0, #0]
 3254 0960 8A42     		cmp	r2, r1
 3255 0962 7FF47AAC 		bne	.L333
 3256              		.loc 1 752 0
 3257 0966 0622     		movs	r2, #6
 3258 0968 3A74     		strb	r2, [r7, #16]
 3259 096a 76E4     		b	.L333
 3260              	.LVL295:
 3261              	.L395:
 3262              	.LBE24:
 3263              	.LBE42:
 3264              		.loc 1 362 0 discriminator 2
 3265 096c 2846     		mov	r0, r5
 3266 096e 3946     		mov	r1, r7
 3267 0970 D8F80020 		ldr	r2, [r8, #0]
 3268 0974 2B46     		mov	r3, r5
 3269 0976 FFF7FEFF 		bl	tcp_recv_null
 3270              	.LVL296:
 3271 097a 76E5     		b	.L396
 3272              	.LVL297:
 3273              	.L355:
 3274              	.LBB43:
 3275              	.LBB25:
 3276              		.loc 1 722 0
 3277 097c 03F00203 		and	r3, r3, #2
 3278 0980 DBB2     		uxtb	r3, r3
 3279 0982 002B     		cmp	r3, #0
 3280 0984 3FF467AC 		beq	.L527
 3281 0988 40F20000 		movw	r0, #:lower16:.LANCHOR1
 3282 098c C0F20000 		movt	r0, #:upper16:.LANCHOR1
 3283 0990 7B6A     		ldr	r3, [r7, #36]
 3284 0992 0268     		ldr	r2, [r0, #0]
 3285 0994 013B     		subs	r3, r3, #1
 3286 0996 9342     		cmp	r3, r2
 3287 0998 7FF45DAC 		bne	.L527
 3288              		.loc 1 724 0
 3289 099c 3846     		mov	r0, r7
 3290 099e FFF7FEFF 		bl	tcp_rexmit
 3291              	.LVL298:
 3292 09a2 9AF80030 		ldrb	r3, [sl, #0]	@ zero_extendqisi2
 3293 09a6 58E4     		b	.L333
 3294              	.LVL299:
 3295              	.L537:
 3296 09a8 1360     		str	r3, [r2, #0]
 3297              	.L381:
 3298              		.loc 1 771 0
 3299 09aa FA68     		ldr	r2, [r7, #12]
 3300 09ac DA60     		str	r2, [r3, #12]
 3301 09ae F1E5     		b	.L380
 3302              	.LVL300:
 3303              	.L550:
 3304              		.loc 1 630 0
ARM GAS  /var/folders/5n/p_75w94d66l9ssrldxqdhh700000gn/T//ccyVBgQE.s 			page 59


 3305 09b0 BB6F     		ldr	r3, [r7, #120]
 3306 09b2 DB68     		ldr	r3, [r3, #12]
 3307 09b4 5868     		ldr	r0, [r3, #4]	@ unaligned
 3308 09b6 FFF7FEFF 		bl	lwip_ntohl
 3309              	.LVL301:
 3310 09ba 40F20001 		movw	r1, #:lower16:.LANCHOR3
 3311 09be C0F20001 		movt	r1, #:upper16:.LANCHOR3
 3312 09c2 0130     		adds	r0, r0, #1
 3313 09c4 0B68     		ldr	r3, [r1, #0]
 3314 09c6 9842     		cmp	r0, r3
 3315 09c8 00F08180 		beq	.L347
 3316 09cc 6C4B     		ldr	r3, .L568+8
 3317 09ce 1B78     		ldrb	r3, [r3, #0]	@ zero_extendqisi2
 3318 09d0 1EE6     		b	.L346
 3319              	.L552:
 3320              	.LBB13:
 3321              		.loc 1 688 0
 3322 09d2 BB69     		ldr	r3, [r7, #24]
 3323              		.loc 1 685 0
 3324 09d4 0422     		movs	r2, #4
 3325 09d6 3A74     		strb	r2, [r7, #16]
 3326              		.loc 1 688 0
 3327 09d8 002B     		cmp	r3, #0
 3328 09da 71D0     		beq	.L556
 3329              	.L357:
 3330              		.loc 1 691 0
 3331 09dc 7869     		ldr	r0, [r7, #20]
 3332 09de 3946     		mov	r1, r7
 3333 09e0 0022     		movs	r2, #0
 3334 09e2 9847     		blx	r3
 3335              	.LVL302:
 3336              		.loc 1 692 0
 3337 09e4 0028     		cmp	r0, #0
 3338 09e6 67D1     		bne	.L557
 3339              		.loc 1 704 0
 3340 09e8 3846     		mov	r0, r7
 3341              	.LVL303:
 3342              		.loc 1 701 0
 3343 09ea B7F85250 		ldrh	r5, [r7, #82]
 3344              	.LVL304:
 3345              		.loc 1 704 0
 3346 09ee FFF7FEFF 		bl	tcp_receive
 3347              	.LVL305:
 3348              		.loc 1 707 0
 3349 09f2 B7F86C30 		ldrh	r3, [r7, #108]
 3350 09f6 13B1     		cbz	r3, .L360
 3351              		.loc 1 708 0
 3352 09f8 013B     		subs	r3, r3, #1
 3353 09fa A7F86C30 		strh	r3, [r7, #108]	@ movhi
 3354              	.L360:
 3355              		.loc 1 711 0
 3356 09fe 012D     		cmp	r5, #1
 3357 0a00 3A8F     		ldrh	r2, [r7, #56]
 3358 0a02 56D0     		beq	.L558
 3359              	.L362:
 3360              		.loc 1 713 0
 3361 0a04 9AF80030 		ldrb	r3, [sl, #0]	@ zero_extendqisi2
ARM GAS  /var/folders/5n/p_75w94d66l9ssrldxqdhh700000gn/T//ccyVBgQE.s 			page 60


 3362              		.loc 1 711 0
 3363 0a08 A7F85220 		strh	r2, [r7, #82]	@ movhi
 3364              		.loc 1 713 0
 3365 0a0c 03F02002 		and	r2, r3, #32
 3366 0a10 D2B2     		uxtb	r2, r2
 3367 0a12 002A     		cmp	r2, #0
 3368 0a14 3FF421AC 		beq	.L333
 3369 0a18 27E6     		b	.L533
 3370              	.LVL306:
 3371              	.L543:
 3372              	.LBE13:
 3373              	.LBE25:
 3374              	.LBE43:
 3375              		.loc 1 200 0 discriminator 1
 3376 0a1a FFF7FEFF 		bl	port_halt
 3377              	.LVL307:
 3378 0a1e FFF7DBBB 		b	.L308
 3379              	.LVL308:
 3380              	.L551:
 3381              	.LBB44:
 3382              	.LBB26:
 3383              		.loc 1 742 0
 3384 0a22 97F82030 		ldrb	r3, [r7, #32]	@ zero_extendqisi2
 3385              		.loc 1 744 0
 3386 0a26 40F20006 		movw	r6, #:lower16:tcp_active_pcbs
 3387              		.loc 1 742 0
 3388 0a2a 43F00203 		orr	r3, r3, #2
 3389              		.loc 1 744 0
 3390 0a2e C0F20006 		movt	r6, #:upper16:tcp_active_pcbs
 3391              		.loc 1 742 0
 3392 0a32 87F82030 		strb	r3, [r7, #32]
 3393              		.loc 1 743 0
 3394 0a36 3846     		mov	r0, r7
 3395 0a38 FFF7FEFF 		bl	tcp_pcb_purge
 3396              	.LVL309:
 3397              		.loc 1 744 0
 3398 0a3c 3368     		ldr	r3, [r6, #0]
 3399 0a3e BB42     		cmp	r3, r7
 3400 0a40 0AD0     		beq	.L536
 3401 0a42 504A     		ldr	r2, .L568+12
 3402 0a44 1360     		str	r3, [r2, #0]
 3403              	.L369:
 3404 0a46 002B     		cmp	r3, #0
 3405 0a48 3FF4A3AD 		beq	.L535
 3406 0a4c D968     		ldr	r1, [r3, #12]
 3407 0a4e B942     		cmp	r1, r7
 3408 0a50 00F08A80 		beq	.L559
 3409 0a54 0B46     		mov	r3, r1
 3410 0a56 F6E7     		b	.L369
 3411              	.L536:
 3412              		.loc 1 771 0
 3413 0a58 FB68     		ldr	r3, [r7, #12]
 3414 0a5a 4B4A     		ldr	r2, .L568+16
 3415 0a5c 1360     		str	r3, [r2, #0]
 3416 0a5e 99E5     		b	.L380
 3417              	.LVL310:
 3418              	.L547:
ARM GAS  /var/folders/5n/p_75w94d66l9ssrldxqdhh700000gn/T//ccyVBgQE.s 			page 61


 3419              	.LBE26:
 3420              	.LBE44:
 3421              	.LBB45:
 3422              	.LBB32:
 3423              		.loc 1 542 0
 3424 0a60 40F20003 		movw	r3, #:lower16:.LANCHOR4
 3425 0a64 C0F20003 		movt	r3, #:upper16:.LANCHOR4
 3426 0a68 40F20006 		movw	r6, #:lower16:.LANCHOR3
 3427 0a6c 1C88     		ldrh	r4, [r3, #0]
 3428 0a6e CDF800C0 		str	ip, [sp, #0]
 3429 0a72 C0F20006 		movt	r6, #:upper16:.LANCHOR3
 3430 0a76 0190     		str	r0, [sp, #4]
 3431 0a78 3068     		ldr	r0, [r6, #0]
 3432 0a7a 3F4A     		ldr	r2, .L568
 3433 0a7c 3F4B     		ldr	r3, .L568+4
 3434 0a7e 6118     		adds	r1, r4, r1
 3435 0a80 FFF7FEFF 		bl	tcp_rst
 3436              	.LVL311:
 3437 0a84 86E4     		b	.L312
 3438              	.L313:
 3439              		.loc 1 546 0
 3440 0a86 D907     		lsls	r1, r3, #31
 3441              		.loc 1 549 0
 3442 0a88 42BF     		ittt	mi
 3443 0a8a 404B     		ldrmi	r3, .L568+20
 3444 0a8c 1B68     		ldrmi	r3, [r3, #0]
 3445 0a8e 3B63     		strmi	r3, [r7, #48]
 3446 0a90 78E4     		b	.L314
 3447              	.L548:
 3448              		.loc 1 554 0
 3449 0a92 97F82030 		ldrb	r3, [r7, #32]	@ zero_extendqisi2
 3450 0a96 43F00203 		orr	r3, r3, #2
 3451 0a9a 87F82030 		strb	r3, [r7, #32]
 3452              		.loc 1 555 0
 3453 0a9e 3846     		mov	r0, r7
 3454 0aa0 FFF7FEFF 		bl	tcp_output
 3455              	.LVL312:
 3456 0aa4 76E4     		b	.L312
 3457              	.LVL313:
 3458              	.L554:
 3459              	.LBE32:
 3460              	.LBE45:
 3461              	.LBB46:
 3462              	.LBB38:
 3463              		.loc 1 470 0
 3464 0aa6 B4F89C30 		ldrh	r3, [r4, #156]
 3465 0aaa 0133     		adds	r3, r3, #1
 3466 0aac A4F89C30 		strh	r3, [r4, #156]	@ movhi
 3467 0ab0 70E4     		b	.L312
 3468              	.LVL314:
 3469              	.L558:
 3470              	.LBE38:
 3471              	.LBE46:
 3472              	.LBB47:
 3473              	.LBB27:
 3474              	.LBB14:
 3475              		.loc 1 711 0
ARM GAS  /var/folders/5n/p_75w94d66l9ssrldxqdhh700000gn/T//ccyVBgQE.s 			page 62


 3476 0ab2 5200     		lsls	r2, r2, #1
 3477 0ab4 92B2     		uxth	r2, r2
 3478 0ab6 A5E7     		b	.L362
 3479              	.LVL315:
 3480              	.L557:
 3481              		.loc 1 696 0
 3482 0ab8 0A30     		adds	r0, r0, #10
 3483              	.LVL316:
 3484 0aba 3FF4E3AB 		beq	.L388
 3485 0abe 1FE7     		b	.L531
 3486              	.LVL317:
 3487              	.L556:
 3488              		.loc 1 688 0
 3489 0ac0 FFF7FEFF 		bl	port_halt
 3490              	.LVL318:
 3491              		.loc 1 691 0
 3492 0ac4 BB69     		ldr	r3, [r7, #24]
 3493 0ac6 002B     		cmp	r3, #0
 3494 0ac8 3FF41AAF 		beq	.L531
 3495 0acc 86E7     		b	.L357
 3496              	.L347:
 3497              	.LBE14:
 3498              		.loc 1 632 0
 3499 0ace 40F20002 		movw	r2, #:lower16:.LANCHOR1
 3500 0ad2 C0F20002 		movt	r2, #:upper16:.LANCHOR1
 3501              		.loc 1 631 0
 3502 0ad6 B7F86E50 		ldrh	r5, [r7, #110]
 3503              	.LVL319:
 3504              		.loc 1 632 0
 3505 0ada 1368     		ldr	r3, [r2, #0]
 3506              		.loc 1 634 0
 3507 0adc F864     		str	r0, [r7, #76]
 3508              		.loc 1 632 0
 3509 0ade 591C     		adds	r1, r3, #1
 3510              		.loc 1 635 0
 3511 0ae0 3268     		ldr	r2, [r6, #0]
 3512              		.loc 1 632 0
 3513 0ae2 7962     		str	r1, [r7, #36]
 3514              		.loc 1 631 0
 3515 0ae4 681C     		adds	r0, r5, #1
 3516 0ae6 A7F86E00 		strh	r0, [r7, #110]	@ movhi
 3517              		.loc 1 633 0
 3518 0aea F962     		str	r1, [r7, #44]
 3519              		.loc 1 635 0
 3520 0aec 917B     		ldrb	r1, [r2, #14]	@ zero_extendqisi2
 3521 0aee D27B     		ldrb	r2, [r2, #15]	@ zero_extendqisi2
 3522              		.loc 1 640 0
 3523 0af0 388F     		ldrh	r0, [r7, #56]
 3524              		.loc 1 636 0
 3525 0af2 013B     		subs	r3, r3, #1
 3526              		.loc 1 635 0
 3527 0af4 41EA0222 		orr	r2, r1, r2, lsl #8
 3528              		.loc 1 636 0
 3529 0af8 3B66     		str	r3, [r7, #96]
 3530              		.loc 1 637 0
 3531 0afa 0423     		movs	r3, #4
 3532              		.loc 1 635 0
ARM GAS  /var/folders/5n/p_75w94d66l9ssrldxqdhh700000gn/T//ccyVBgQE.s 			page 63


 3533 0afc A7F85C20 		strh	r2, [r7, #92]	@ movhi
 3534              		.loc 1 637 0
 3535 0b00 3B74     		strb	r3, [r7, #16]
 3536              		.loc 1 640 0
 3537 0b02 F918     		adds	r1, r7, r3
 3538 0b04 FFF7FEFF 		bl	tcp_eff_send_mss
 3539              	.LVL320:
 3540              		.loc 1 647 0
 3541 0b08 B7F85230 		ldrh	r3, [r7, #82]
 3542              		.loc 1 640 0
 3543 0b0c 3887     		strh	r0, [r7, #56]	@ movhi
 3544              		.loc 1 645 0
 3545 0b0e 0A22     		movs	r2, #10
 3546 0b10 02FB00F2 		mul	r2, r2, r0
 3547              		.loc 1 647 0
 3548 0b14 012B     		cmp	r3, #1
 3549              		.loc 1 645 0
 3550 0b16 A7F85420 		strh	r2, [r7, #84]	@ movhi
 3551              		.loc 1 647 0
 3552 0b1a 01D1     		bne	.L348
 3553 0b1c 4000     		lsls	r0, r0, #1
 3554 0b1e 80B2     		uxth	r0, r0
 3555              	.L348:
 3556              		.loc 1 648 0
 3557 0b20 B7F87030 		ldrh	r3, [r7, #112]
 3558              		.loc 1 647 0
 3559 0b24 A7F85200 		strh	r0, [r7, #82]	@ movhi
 3560              		.loc 1 648 0
 3561 0b28 0BB9     		cbnz	r3, .L349
 3562 0b2a FFF7FEFF 		bl	port_halt
 3563              	.LVL321:
 3564              	.L349:
 3565              		.loc 1 651 0
 3566 0b2e B86F     		ldr	r0, [r7, #120]
 3567              	.LVL322:
 3568              		.loc 1 649 0
 3569 0b30 B7F87020 		ldrh	r2, [r7, #112]
 3570              		.loc 1 652 0
 3571 0b34 0368     		ldr	r3, [r0, #0]
 3572              		.loc 1 649 0
 3573 0b36 013A     		subs	r2, r2, #1
 3574 0b38 A7F87020 		strh	r2, [r7, #112]	@ movhi
 3575              		.loc 1 652 0
 3576 0b3c BB67     		str	r3, [r7, #120]
 3577              		.loc 1 656 0
 3578 0b3e BBB1     		cbz	r3, .L560
 3579              		.loc 1 659 0
 3580 0b40 0023     		movs	r3, #0
 3581 0b42 FB86     		strh	r3, [r7, #54]	@ movhi
 3582              		.loc 1 660 0
 3583 0b44 87F84A30 		strb	r3, [r7, #74]
 3584              	.L351:
 3585              		.loc 1 663 0
 3586 0b48 FFF7FEFF 		bl	tcp_seg_free
 3587              	.LVL323:
 3588              		.loc 1 667 0
 3589 0b4c D7F88C30 		ldr	r3, [r7, #140]
ARM GAS  /var/folders/5n/p_75w94d66l9ssrldxqdhh700000gn/T//ccyVBgQE.s 			page 64


 3590 0b50 002B     		cmp	r3, #0
 3591 0b52 3FF448AC 		beq	.L352
 3592 0b56 0022     		movs	r2, #0
 3593 0b58 7869     		ldr	r0, [r7, #20]
 3594 0b5a 3946     		mov	r1, r7
 3595 0b5c 9847     		blx	r3
 3596              	.LVL324:
 3597              		.loc 1 668 0
 3598 0b5e 0A30     		adds	r0, r0, #10
 3599              	.LVL325:
 3600 0b60 7FF441AC 		bne	.L352
 3601 0b64 FFF78EBB 		b	.L388
 3602              	.LVL326:
 3603              	.L559:
 3604              		.loc 1 744 0
 3605 0b68 F968     		ldr	r1, [r7, #12]
 3606 0b6a 1360     		str	r3, [r2, #0]
 3607 0b6c D960     		str	r1, [r3, #12]
 3608 0b6e 11E5     		b	.L380
 3609              	.LVL327:
 3610              	.L560:
 3611              		.loc 1 657 0
 3612 0b70 4FF6FF73 		movw	r3, #65535
 3613 0b74 FB86     		strh	r3, [r7, #54]	@ movhi
 3614 0b76 E7E7     		b	.L351
 3615              	.L569:
 3616              		.align	2
 3617              	.L568:
 3618 0b78 00000000 		.word	current_iphdr_dest
 3619 0b7c 00000000 		.word	current_iphdr_src
 3620 0b80 00000000 		.word	.LANCHOR2
 3621 0b84 00000000 		.word	tcp_tmp_pcb
 3622 0b88 00000000 		.word	tcp_active_pcbs
 3623 0b8c 00000000 		.word	tcp_ticks
 3624              	.LBE27:
 3625              	.LBE47:
 3626              		.cfi_endproc
 3627              	.LFE7:
 3628              		.size	tcp_input, .-tcp_input
 3629              		.global	tcp_input_pcb
 3630              		.section	.bss.tcphdr,"aw",%nobits
 3631              		.align	2
 3632              		.set	.LANCHOR0,. + 0
 3633              		.type	tcphdr, %object
 3634              		.size	tcphdr, 4
 3635              	tcphdr:
 3636 0000 00000000 		.space	4
 3637              		.section	.bss.seqno,"aw",%nobits
 3638              		.align	2
 3639              		.set	.LANCHOR1,. + 0
 3640              		.type	seqno, %object
 3641              		.size	seqno, 4
 3642              	seqno:
 3643 0000 00000000 		.space	4
 3644              		.section	.bss.tcplen,"aw",%nobits
 3645              		.align	1
 3646              		.set	.LANCHOR4,. + 0
ARM GAS  /var/folders/5n/p_75w94d66l9ssrldxqdhh700000gn/T//ccyVBgQE.s 			page 65


 3647              		.type	tcplen, %object
 3648              		.size	tcplen, 2
 3649              	tcplen:
 3650 0000 0000     		.space	2
 3651              		.section	.bss.ackno,"aw",%nobits
 3652              		.align	2
 3653              		.set	.LANCHOR3,. + 0
 3654              		.type	ackno, %object
 3655              		.size	ackno, 4
 3656              	ackno:
 3657 0000 00000000 		.space	4
 3658              		.section	.bss.flags,"aw",%nobits
 3659              		.set	.LANCHOR2,. + 0
 3660              		.type	flags, %object
 3661              		.size	flags, 1
 3662              	flags:
 3663 0000 00       		.space	1
 3664              		.section	.bss.recv_flags,"aw",%nobits
 3665              		.set	.LANCHOR7,. + 0
 3666              		.type	recv_flags, %object
 3667              		.size	recv_flags, 1
 3668              	recv_flags:
 3669 0000 00       		.space	1
 3670              		.section	.bss.recv_data,"aw",%nobits
 3671              		.align	2
 3672              		.set	.LANCHOR6,. + 0
 3673              		.type	recv_data, %object
 3674              		.size	recv_data, 4
 3675              	recv_data:
 3676 0000 00000000 		.space	4
 3677              		.section	.bss.iphdr,"aw",%nobits
 3678              		.align	2
 3679              		.set	.LANCHOR8,. + 0
 3680              		.type	iphdr, %object
 3681              		.size	iphdr, 4
 3682              	iphdr:
 3683 0000 00000000 		.space	4
 3684              		.section	.bss.inseg,"aw",%nobits
 3685              		.align	2
 3686              		.set	.LANCHOR5,. + 0
 3687              		.type	inseg, %object
 3688              		.size	inseg, 16
 3689              	inseg:
 3690 0000 00000000 		.space	16
 3690      00000000 
 3690      00000000 
 3690      00000000 
 3691              		.section	.bss.tcp_input_pcb,"aw",%nobits
 3692              		.align	2
 3693              		.set	.LANCHOR9,. + 0
 3694              		.type	tcp_input_pcb, %object
 3695              		.size	tcp_input_pcb, 4
 3696              	tcp_input_pcb:
 3697 0000 00000000 		.space	4
 3698              		.text
 3699              	.Letext0:
 3700              		.file 2 "/usr/local/cross/lib/gcc/arm-none-eabi/4.7.2/../../../../arm-none-eabi/include/stdint.h"
ARM GAS  /var/folders/5n/p_75w94d66l9ssrldxqdhh700000gn/T//ccyVBgQE.s 			page 66


 3701              		.file 3 "../../os/various/lwip_bindings/arch/cc.h"
 3702              		.file 4 "../../ext/lwip-1.4.0/src/include/lwip/err.h"
 3703              		.file 5 "../../ext/lwip-1.4.0/src/include/lwip/mem.h"
 3704              		.file 6 "../../ext/lwip-1.4.0/src/include/lwip/pbuf.h"
 3705              		.file 7 "../../ext/lwip-1.4.0/src/include/ipv4/lwip/ip_addr.h"
 3706              		.file 8 "../../ext/lwip-1.4.0/src/include/lwip/netif.h"
 3707              		.file 9 "../../ext/lwip-1.4.0/src/include/ipv4/lwip/ip.h"
 3708              		.file 10 "../../ext/lwip-1.4.0/src/include/lwip/tcp.h"
 3709              		.file 11 "../../ext/lwip-1.4.0/src/include/lwip/tcp_impl.h"
 3710              		.file 12 "../../ext/lwip-1.4.0/src/include/lwip/memp.h"
 3711              		.file 13 "../../ext/lwip-1.4.0/src/include/lwip/stats.h"
 3712              		.file 14 "../../ext/lwip-1.4.0/src/include/lwip/def.h"
 3713              		.file 15 "../../os/ports/GCC/ARMCMx/chcore_v7m.h"
 3714              		.file 16 "../../ext/lwip-1.4.0/src/include/ipv4/lwip/inet_chksum.h"
 3715              		.section	.debug_info,"",%progbits
 3716              	.Ldebug_info0:
 3717 0000 AE1C0000 		.4byte	0x1cae
 3718 0004 0200     		.2byte	0x2
 3719 0006 00000000 		.4byte	.Ldebug_abbrev0
 3720 000a 04       		.byte	0x4
 3721 000b 01       		.uleb128 0x1
 3722 000c D6010000 		.4byte	.LASF234
 3723 0010 01       		.byte	0x1
 3724 0011 53070000 		.4byte	.LASF235
 3725 0015 0B050000 		.4byte	.LASF236
 3726 0019 48010000 		.4byte	.Ldebug_ranges0+0x148
 3727 001d 00000000 		.4byte	0
 3728 0021 00000000 		.4byte	0
 3729 0025 00000000 		.4byte	.Ldebug_line0
 3730 0029 02       		.uleb128 0x2
 3731 002a 04       		.byte	0x4
 3732 002b 05       		.byte	0x5
 3733 002c 696E7400 		.ascii	"int\000"
 3734 0030 03       		.uleb128 0x3
 3735 0031 04       		.byte	0x4
 3736 0032 07       		.byte	0x7
 3737 0033 84000000 		.4byte	.LASF0
 3738 0037 04       		.uleb128 0x4
 3739 0038 CA010000 		.4byte	.LASF2
 3740 003c 02       		.byte	0x2
 3741 003d 29       		.byte	0x29
 3742 003e 42000000 		.4byte	0x42
 3743 0042 03       		.uleb128 0x3
 3744 0043 01       		.byte	0x1
 3745 0044 06       		.byte	0x6
 3746 0045 1B090000 		.4byte	.LASF1
 3747 0049 04       		.uleb128 0x4
 3748 004a 23040000 		.4byte	.LASF3
 3749 004e 02       		.byte	0x2
 3750 004f 2A       		.byte	0x2a
 3751 0050 54000000 		.4byte	0x54
 3752 0054 03       		.uleb128 0x3
 3753 0055 01       		.byte	0x1
 3754 0056 08       		.byte	0x8
 3755 0057 5E080000 		.4byte	.LASF4
 3756 005b 04       		.uleb128 0x4
 3757 005c 1D020000 		.4byte	.LASF5
ARM GAS  /var/folders/5n/p_75w94d66l9ssrldxqdhh700000gn/T//ccyVBgQE.s 			page 67


 3758 0060 02       		.byte	0x2
 3759 0061 35       		.byte	0x35
 3760 0062 66000000 		.4byte	0x66
 3761 0066 03       		.uleb128 0x3
 3762 0067 02       		.byte	0x2
 3763 0068 05       		.byte	0x5
 3764 0069 67060000 		.4byte	.LASF6
 3765 006d 04       		.uleb128 0x4
 3766 006e 09060000 		.4byte	.LASF7
 3767 0072 02       		.byte	0x2
 3768 0073 36       		.byte	0x36
 3769 0074 78000000 		.4byte	0x78
 3770 0078 03       		.uleb128 0x3
 3771 0079 02       		.byte	0x2
 3772 007a 07       		.byte	0x7
 3773 007b 2F090000 		.4byte	.LASF8
 3774 007f 04       		.uleb128 0x4
 3775 0080 2A080000 		.4byte	.LASF9
 3776 0084 02       		.byte	0x2
 3777 0085 4F       		.byte	0x4f
 3778 0086 8A000000 		.4byte	0x8a
 3779 008a 03       		.uleb128 0x3
 3780 008b 04       		.byte	0x4
 3781 008c 05       		.byte	0x5
 3782 008d 76060000 		.4byte	.LASF10
 3783 0091 04       		.uleb128 0x4
 3784 0092 C1010000 		.4byte	.LASF11
 3785 0096 02       		.byte	0x2
 3786 0097 50       		.byte	0x50
 3787 0098 9C000000 		.4byte	0x9c
 3788 009c 03       		.uleb128 0x3
 3789 009d 04       		.byte	0x4
 3790 009e 07       		.byte	0x7
 3791 009f F7070000 		.4byte	.LASF12
 3792 00a3 03       		.uleb128 0x3
 3793 00a4 08       		.byte	0x8
 3794 00a5 05       		.byte	0x5
 3795 00a6 B3040000 		.4byte	.LASF13
 3796 00aa 03       		.uleb128 0x3
 3797 00ab 08       		.byte	0x8
 3798 00ac 07       		.byte	0x7
 3799 00ad 3B020000 		.4byte	.LASF14
 3800 00b1 05       		.uleb128 0x5
 3801 00b2 04       		.byte	0x4
 3802 00b3 03       		.uleb128 0x3
 3803 00b4 04       		.byte	0x4
 3804 00b5 07       		.byte	0x7
 3805 00b6 EE070000 		.4byte	.LASF15
 3806 00ba 03       		.uleb128 0x3
 3807 00bb 01       		.byte	0x1
 3808 00bc 08       		.byte	0x8
 3809 00bd BC030000 		.4byte	.LASF16
 3810 00c1 04       		.uleb128 0x4
 3811 00c2 06050000 		.4byte	.LASF17
 3812 00c6 03       		.byte	0x3
 3813 00c7 43       		.byte	0x43
 3814 00c8 49000000 		.4byte	0x49
ARM GAS  /var/folders/5n/p_75w94d66l9ssrldxqdhh700000gn/T//ccyVBgQE.s 			page 68


 3815 00cc 04       		.uleb128 0x4
 3816 00cd 3C030000 		.4byte	.LASF18
 3817 00d1 03       		.byte	0x3
 3818 00d2 44       		.byte	0x44
 3819 00d3 37000000 		.4byte	0x37
 3820 00d7 04       		.uleb128 0x4
 3821 00d8 C8000000 		.4byte	.LASF19
 3822 00dc 03       		.byte	0x3
 3823 00dd 45       		.byte	0x45
 3824 00de 6D000000 		.4byte	0x6d
 3825 00e2 04       		.uleb128 0x4
 3826 00e3 24080000 		.4byte	.LASF20
 3827 00e7 03       		.byte	0x3
 3828 00e8 46       		.byte	0x46
 3829 00e9 5B000000 		.4byte	0x5b
 3830 00ed 04       		.uleb128 0x4
 3831 00ee 61060000 		.4byte	.LASF21
 3832 00f2 03       		.byte	0x3
 3833 00f3 47       		.byte	0x47
 3834 00f4 91000000 		.4byte	0x91
 3835 00f8 04       		.uleb128 0x4
 3836 00f9 41030000 		.4byte	.LASF22
 3837 00fd 03       		.byte	0x3
 3838 00fe 48       		.byte	0x48
 3839 00ff 7F000000 		.4byte	0x7f
 3840 0103 04       		.uleb128 0x4
 3841 0104 A7000000 		.4byte	.LASF23
 3842 0108 04       		.byte	0x4
 3843 0109 2F       		.byte	0x2f
 3844 010a CC000000 		.4byte	0xcc
 3845 010e 04       		.uleb128 0x4
 3846 010f DA030000 		.4byte	.LASF24
 3847 0113 05       		.byte	0x5
 3848 0114 4B       		.byte	0x4b
 3849 0115 D7000000 		.4byte	0xd7
 3850 0119 06       		.uleb128 0x6
 3851 011a 04030000 		.4byte	.LASF30
 3852 011e 10       		.byte	0x10
 3853 011f 06       		.byte	0x6
 3854 0120 49       		.byte	0x49
 3855 0121 88010000 		.4byte	0x188
 3856 0125 07       		.uleb128 0x7
 3857 0126 A2000000 		.4byte	.LASF25
 3858 012a 06       		.byte	0x6
 3859 012b 4B       		.byte	0x4b
 3860 012c 88010000 		.4byte	0x188
 3861 0130 02       		.byte	0x2
 3862 0131 23       		.byte	0x23
 3863 0132 00       		.uleb128 0
 3864 0133 07       		.uleb128 0x7
 3865 0134 D6020000 		.4byte	.LASF26
 3866 0138 06       		.byte	0x6
 3867 0139 4E       		.byte	0x4e
 3868 013a B1000000 		.4byte	0xb1
 3869 013e 02       		.byte	0x2
 3870 013f 23       		.byte	0x23
 3871 0140 04       		.uleb128 0x4
ARM GAS  /var/folders/5n/p_75w94d66l9ssrldxqdhh700000gn/T//ccyVBgQE.s 			page 69


 3872 0141 07       		.uleb128 0x7
 3873 0142 CE020000 		.4byte	.LASF27
 3874 0146 06       		.byte	0x6
 3875 0147 57       		.byte	0x57
 3876 0148 D7000000 		.4byte	0xd7
 3877 014c 02       		.byte	0x2
 3878 014d 23       		.byte	0x23
 3879 014e 08       		.uleb128 0x8
 3880 014f 08       		.uleb128 0x8
 3881 0150 6C656E00 		.ascii	"len\000"
 3882 0154 06       		.byte	0x6
 3883 0155 5A       		.byte	0x5a
 3884 0156 D7000000 		.4byte	0xd7
 3885 015a 02       		.byte	0x2
 3886 015b 23       		.byte	0x23
 3887 015c 0A       		.uleb128 0xa
 3888 015d 07       		.uleb128 0x7
 3889 015e 4F080000 		.4byte	.LASF28
 3890 0162 06       		.byte	0x6
 3891 0163 5D       		.byte	0x5d
 3892 0164 C1000000 		.4byte	0xc1
 3893 0168 02       		.byte	0x2
 3894 0169 23       		.byte	0x23
 3895 016a 0C       		.uleb128 0xc
 3896 016b 07       		.uleb128 0x7
 3897 016c 74000000 		.4byte	.LASF29
 3898 0170 06       		.byte	0x6
 3899 0171 60       		.byte	0x60
 3900 0172 C1000000 		.4byte	0xc1
 3901 0176 02       		.byte	0x2
 3902 0177 23       		.byte	0x23
 3903 0178 0D       		.uleb128 0xd
 3904 0179 08       		.uleb128 0x8
 3905 017a 72656600 		.ascii	"ref\000"
 3906 017e 06       		.byte	0x6
 3907 017f 67       		.byte	0x67
 3908 0180 D7000000 		.4byte	0xd7
 3909 0184 02       		.byte	0x2
 3910 0185 23       		.byte	0x23
 3911 0186 0E       		.uleb128 0xe
 3912 0187 00       		.byte	0
 3913 0188 09       		.uleb128 0x9
 3914 0189 04       		.byte	0x4
 3915 018a 19010000 		.4byte	0x119
 3916 018e 06       		.uleb128 0x6
 3917 018f F9090000 		.4byte	.LASF31
 3918 0193 04       		.byte	0x4
 3919 0194 07       		.byte	0x7
 3920 0195 2C       		.byte	0x2c
 3921 0196 A9010000 		.4byte	0x1a9
 3922 019a 07       		.uleb128 0x7
 3923 019b D0080000 		.4byte	.LASF32
 3924 019f 07       		.byte	0x7
 3925 01a0 2D       		.byte	0x2d
 3926 01a1 ED000000 		.4byte	0xed
 3927 01a5 02       		.byte	0x2
 3928 01a6 23       		.byte	0x23
ARM GAS  /var/folders/5n/p_75w94d66l9ssrldxqdhh700000gn/T//ccyVBgQE.s 			page 70


 3929 01a7 00       		.uleb128 0
 3930 01a8 00       		.byte	0
 3931 01a9 06       		.uleb128 0x6
 3932 01aa FD030000 		.4byte	.LASF33
 3933 01ae 04       		.byte	0x4
 3934 01af 07       		.byte	0x7
 3935 01b0 36       		.byte	0x36
 3936 01b1 C4010000 		.4byte	0x1c4
 3937 01b5 07       		.uleb128 0x7
 3938 01b6 D0080000 		.4byte	.LASF32
 3939 01ba 07       		.byte	0x7
 3940 01bb 37       		.byte	0x37
 3941 01bc ED000000 		.4byte	0xed
 3942 01c0 02       		.byte	0x2
 3943 01c1 23       		.byte	0x23
 3944 01c2 00       		.uleb128 0
 3945 01c3 00       		.byte	0
 3946 01c4 04       		.uleb128 0x4
 3947 01c5 9D090000 		.4byte	.LASF34
 3948 01c9 07       		.byte	0x7
 3949 01ca 40       		.byte	0x40
 3950 01cb 8E010000 		.4byte	0x18e
 3951 01cf 04       		.uleb128 0x4
 3952 01d0 96080000 		.4byte	.LASF35
 3953 01d4 07       		.byte	0x7
 3954 01d5 41       		.byte	0x41
 3955 01d6 A9010000 		.4byte	0x1a9
 3956 01da 09       		.uleb128 0x9
 3957 01db 04       		.byte	0x4
 3958 01dc E0010000 		.4byte	0x1e0
 3959 01e0 06       		.uleb128 0x6
 3960 01e1 E0080000 		.4byte	.LASF36
 3961 01e5 30       		.byte	0x30
 3962 01e6 08       		.byte	0x8
 3963 01e7 88       		.byte	0x88
 3964 01e8 B0020000 		.4byte	0x2b0
 3965 01ec 07       		.uleb128 0x7
 3966 01ed A2000000 		.4byte	.LASF25
 3967 01f1 08       		.byte	0x8
 3968 01f2 8A       		.byte	0x8a
 3969 01f3 DA010000 		.4byte	0x1da
 3970 01f7 02       		.byte	0x2
 3971 01f8 23       		.byte	0x23
 3972 01f9 00       		.uleb128 0
 3973 01fa 07       		.uleb128 0x7
 3974 01fb F9090000 		.4byte	.LASF31
 3975 01ff 08       		.byte	0x8
 3976 0200 8D       		.byte	0x8d
 3977 0201 C4010000 		.4byte	0x1c4
 3978 0205 02       		.byte	0x2
 3979 0206 23       		.byte	0x23
 3980 0207 04       		.uleb128 0x4
 3981 0208 07       		.uleb128 0x7
 3982 0209 AB040000 		.4byte	.LASF37
 3983 020d 08       		.byte	0x8
 3984 020e 8E       		.byte	0x8e
 3985 020f C4010000 		.4byte	0x1c4
ARM GAS  /var/folders/5n/p_75w94d66l9ssrldxqdhh700000gn/T//ccyVBgQE.s 			page 71


 3986 0213 02       		.byte	0x2
 3987 0214 23       		.byte	0x23
 3988 0215 08       		.uleb128 0x8
 3989 0216 08       		.uleb128 0x8
 3990 0217 677700   		.ascii	"gw\000"
 3991 021a 08       		.byte	0x8
 3992 021b 8F       		.byte	0x8f
 3993 021c C4010000 		.4byte	0x1c4
 3994 0220 02       		.byte	0x2
 3995 0221 23       		.byte	0x23
 3996 0222 0C       		.uleb128 0xc
 3997 0223 07       		.uleb128 0x7
 3998 0224 39000000 		.4byte	.LASF38
 3999 0228 08       		.byte	0x8
 4000 0229 93       		.byte	0x93
 4001 022a B0020000 		.4byte	0x2b0
 4002 022e 02       		.byte	0x2
 4003 022f 23       		.byte	0x23
 4004 0230 10       		.uleb128 0x10
 4005 0231 07       		.uleb128 0x7
 4006 0232 F3020000 		.4byte	.LASF39
 4007 0236 08       		.byte	0x8
 4008 0237 97       		.byte	0x97
 4009 0238 D6020000 		.4byte	0x2d6
 4010 023c 02       		.byte	0x2
 4011 023d 23       		.byte	0x23
 4012 023e 14       		.uleb128 0x14
 4013 023f 07       		.uleb128 0x7
 4014 0240 AD000000 		.4byte	.LASF40
 4015 0244 08       		.byte	0x8
 4016 0245 9B       		.byte	0x9b
 4017 0246 07030000 		.4byte	0x307
 4018 024a 02       		.byte	0x2
 4019 024b 23       		.byte	0x23
 4020 024c 18       		.uleb128 0x18
 4021 024d 07       		.uleb128 0x7
 4022 024e DA080000 		.4byte	.LASF41
 4023 0252 08       		.byte	0x8
 4024 0253 A8       		.byte	0xa8
 4025 0254 B1000000 		.4byte	0xb1
 4026 0258 02       		.byte	0x2
 4027 0259 23       		.byte	0x23
 4028 025a 1C       		.uleb128 0x1c
 4029 025b 08       		.uleb128 0x8
 4030 025c 6D747500 		.ascii	"mtu\000"
 4031 0260 08       		.byte	0x8
 4032 0261 B6       		.byte	0xb6
 4033 0262 D7000000 		.4byte	0xd7
 4034 0266 02       		.byte	0x2
 4035 0267 23       		.byte	0x23
 4036 0268 20       		.uleb128 0x20
 4037 0269 07       		.uleb128 0x7
 4038 026a 72020000 		.4byte	.LASF42
 4039 026e 08       		.byte	0x8
 4040 026f B8       		.byte	0xb8
 4041 0270 C1000000 		.4byte	0xc1
 4042 0274 02       		.byte	0x2
ARM GAS  /var/folders/5n/p_75w94d66l9ssrldxqdhh700000gn/T//ccyVBgQE.s 			page 72


 4043 0275 23       		.byte	0x23
 4044 0276 22       		.uleb128 0x22
 4045 0277 07       		.uleb128 0x7
 4046 0278 25020000 		.4byte	.LASF43
 4047 027c 08       		.byte	0x8
 4048 027d BA       		.byte	0xba
 4049 027e 2D030000 		.4byte	0x32d
 4050 0282 02       		.byte	0x2
 4051 0283 23       		.byte	0x23
 4052 0284 23       		.uleb128 0x23
 4053 0285 07       		.uleb128 0x7
 4054 0286 74000000 		.4byte	.LASF29
 4055 028a 08       		.byte	0x8
 4056 028b BC       		.byte	0xbc
 4057 028c C1000000 		.4byte	0xc1
 4058 0290 02       		.byte	0x2
 4059 0291 23       		.byte	0x23
 4060 0292 29       		.uleb128 0x29
 4061 0293 07       		.uleb128 0x7
 4062 0294 4E070000 		.4byte	.LASF44
 4063 0298 08       		.byte	0x8
 4064 0299 BE       		.byte	0xbe
 4065 029a 3D030000 		.4byte	0x33d
 4066 029e 02       		.byte	0x2
 4067 029f 23       		.byte	0x23
 4068 02a0 2A       		.uleb128 0x2a
 4069 02a1 08       		.uleb128 0x8
 4070 02a2 6E756D00 		.ascii	"num\000"
 4071 02a6 08       		.byte	0x8
 4072 02a7 C0       		.byte	0xc0
 4073 02a8 C1000000 		.4byte	0xc1
 4074 02ac 02       		.byte	0x2
 4075 02ad 23       		.byte	0x23
 4076 02ae 2C       		.uleb128 0x2c
 4077 02af 00       		.byte	0
 4078 02b0 04       		.uleb128 0x4
 4079 02b1 A6010000 		.4byte	.LASF45
 4080 02b5 08       		.byte	0x8
 4081 02b6 6D       		.byte	0x6d
 4082 02b7 BB020000 		.4byte	0x2bb
 4083 02bb 09       		.uleb128 0x9
 4084 02bc 04       		.byte	0x4
 4085 02bd C1020000 		.4byte	0x2c1
 4086 02c1 0A       		.uleb128 0xa
 4087 02c2 01       		.byte	0x1
 4088 02c3 03010000 		.4byte	0x103
 4089 02c7 D6020000 		.4byte	0x2d6
 4090 02cb 0B       		.uleb128 0xb
 4091 02cc 88010000 		.4byte	0x188
 4092 02d0 0B       		.uleb128 0xb
 4093 02d1 DA010000 		.4byte	0x1da
 4094 02d5 00       		.byte	0
 4095 02d6 04       		.uleb128 0x4
 4096 02d7 17010000 		.4byte	.LASF46
 4097 02db 08       		.byte	0x8
 4098 02dc 76       		.byte	0x76
 4099 02dd E1020000 		.4byte	0x2e1
ARM GAS  /var/folders/5n/p_75w94d66l9ssrldxqdhh700000gn/T//ccyVBgQE.s 			page 73


 4100 02e1 09       		.uleb128 0x9
 4101 02e2 04       		.byte	0x4
 4102 02e3 E7020000 		.4byte	0x2e7
 4103 02e7 0A       		.uleb128 0xa
 4104 02e8 01       		.byte	0x1
 4105 02e9 03010000 		.4byte	0x103
 4106 02ed 01030000 		.4byte	0x301
 4107 02f1 0B       		.uleb128 0xb
 4108 02f2 DA010000 		.4byte	0x1da
 4109 02f6 0B       		.uleb128 0xb
 4110 02f7 88010000 		.4byte	0x188
 4111 02fb 0B       		.uleb128 0xb
 4112 02fc 01030000 		.4byte	0x301
 4113 0300 00       		.byte	0
 4114 0301 09       		.uleb128 0x9
 4115 0302 04       		.byte	0x4
 4116 0303 C4010000 		.4byte	0x1c4
 4117 0307 04       		.uleb128 0x4
 4118 0308 7A070000 		.4byte	.LASF47
 4119 030c 08       		.byte	0x8
 4120 030d 7E       		.byte	0x7e
 4121 030e 12030000 		.4byte	0x312
 4122 0312 09       		.uleb128 0x9
 4123 0313 04       		.byte	0x4
 4124 0314 18030000 		.4byte	0x318
 4125 0318 0A       		.uleb128 0xa
 4126 0319 01       		.byte	0x1
 4127 031a 03010000 		.4byte	0x103
 4128 031e 2D030000 		.4byte	0x32d
 4129 0322 0B       		.uleb128 0xb
 4130 0323 DA010000 		.4byte	0x1da
 4131 0327 0B       		.uleb128 0xb
 4132 0328 88010000 		.4byte	0x188
 4133 032c 00       		.byte	0
 4134 032d 0C       		.uleb128 0xc
 4135 032e C1000000 		.4byte	0xc1
 4136 0332 3D030000 		.4byte	0x33d
 4137 0336 0D       		.uleb128 0xd
 4138 0337 B3000000 		.4byte	0xb3
 4139 033b 05       		.byte	0x5
 4140 033c 00       		.byte	0
 4141 033d 0C       		.uleb128 0xc
 4142 033e BA000000 		.4byte	0xba
 4143 0342 4D030000 		.4byte	0x34d
 4144 0346 0D       		.uleb128 0xd
 4145 0347 B3000000 		.4byte	0xb3
 4146 034b 01       		.byte	0x1
 4147 034c 00       		.byte	0
 4148 034d 06       		.uleb128 0x6
 4149 034e 47070000 		.4byte	.LASF48
 4150 0352 14       		.byte	0x14
 4151 0353 09       		.byte	0x9
 4152 0354 74       		.byte	0x74
 4153 0355 D8030000 		.4byte	0x3d8
 4154 0359 07       		.uleb128 0x7
 4155 035a 34060000 		.4byte	.LASF49
 4156 035e 09       		.byte	0x9
ARM GAS  /var/folders/5n/p_75w94d66l9ssrldxqdhh700000gn/T//ccyVBgQE.s 			page 74


 4157 035f 76       		.byte	0x76
 4158 0360 D7000000 		.4byte	0xd7
 4159 0364 02       		.byte	0x2
 4160 0365 23       		.byte	0x23
 4161 0366 00       		.uleb128 0
 4162 0367 07       		.uleb128 0x7
 4163 0368 98090000 		.4byte	.LASF50
 4164 036c 09       		.byte	0x9
 4165 036d 78       		.byte	0x78
 4166 036e D7000000 		.4byte	0xd7
 4167 0372 02       		.byte	0x2
 4168 0373 23       		.byte	0x23
 4169 0374 02       		.uleb128 0x2
 4170 0375 08       		.uleb128 0x8
 4171 0376 5F696400 		.ascii	"_id\000"
 4172 037a 09       		.byte	0x9
 4173 037b 7A       		.byte	0x7a
 4174 037c D7000000 		.4byte	0xd7
 4175 0380 02       		.byte	0x2
 4176 0381 23       		.byte	0x23
 4177 0382 04       		.uleb128 0x4
 4178 0383 07       		.uleb128 0x7
 4179 0384 7D020000 		.4byte	.LASF51
 4180 0388 09       		.byte	0x9
 4181 0389 7C       		.byte	0x7c
 4182 038a D7000000 		.4byte	0xd7
 4183 038e 02       		.byte	0x2
 4184 038f 23       		.byte	0x23
 4185 0390 06       		.uleb128 0x6
 4186 0391 07       		.uleb128 0x7
 4187 0392 CE000000 		.4byte	.LASF52
 4188 0396 09       		.byte	0x9
 4189 0397 82       		.byte	0x82
 4190 0398 C1000000 		.4byte	0xc1
 4191 039c 02       		.byte	0x2
 4192 039d 23       		.byte	0x23
 4193 039e 08       		.uleb128 0x8
 4194 039f 07       		.uleb128 0x7
 4195 03a0 48040000 		.4byte	.LASF53
 4196 03a4 09       		.byte	0x9
 4197 03a5 84       		.byte	0x84
 4198 03a6 C1000000 		.4byte	0xc1
 4199 03aa 02       		.byte	0x2
 4200 03ab 23       		.byte	0x23
 4201 03ac 09       		.uleb128 0x9
 4202 03ad 07       		.uleb128 0x7
 4203 03ae 64020000 		.4byte	.LASF54
 4204 03b2 09       		.byte	0x9
 4205 03b3 86       		.byte	0x86
 4206 03b4 D7000000 		.4byte	0xd7
 4207 03b8 02       		.byte	0x2
 4208 03b9 23       		.byte	0x23
 4209 03ba 0A       		.uleb128 0xa
 4210 03bb 08       		.uleb128 0x8
 4211 03bc 73726300 		.ascii	"src\000"
 4212 03c0 09       		.byte	0x9
 4213 03c1 88       		.byte	0x88
ARM GAS  /var/folders/5n/p_75w94d66l9ssrldxqdhh700000gn/T//ccyVBgQE.s 			page 75


 4214 03c2 CF010000 		.4byte	0x1cf
 4215 03c6 02       		.byte	0x2
 4216 03c7 23       		.byte	0x23
 4217 03c8 0C       		.uleb128 0xc
 4218 03c9 07       		.uleb128 0x7
 4219 03ca EB090000 		.4byte	.LASF55
 4220 03ce 09       		.byte	0x9
 4221 03cf 89       		.byte	0x89
 4222 03d0 CF010000 		.4byte	0x1cf
 4223 03d4 02       		.byte	0x2
 4224 03d5 23       		.byte	0x23
 4225 03d6 10       		.uleb128 0x10
 4226 03d7 00       		.byte	0
 4227 03d8 04       		.uleb128 0x4
 4228 03d9 66000000 		.4byte	.LASF56
 4229 03dd 0A       		.byte	0xa
 4230 03de 3D       		.byte	0x3d
 4231 03df E3030000 		.4byte	0x3e3
 4232 03e3 09       		.uleb128 0x9
 4233 03e4 04       		.byte	0x4
 4234 03e5 E9030000 		.4byte	0x3e9
 4235 03e9 0A       		.uleb128 0xa
 4236 03ea 01       		.byte	0x1
 4237 03eb 03010000 		.4byte	0x103
 4238 03ef 03040000 		.4byte	0x403
 4239 03f3 0B       		.uleb128 0xb
 4240 03f4 B1000000 		.4byte	0xb1
 4241 03f8 0B       		.uleb128 0xb
 4242 03f9 03040000 		.4byte	0x403
 4243 03fd 0B       		.uleb128 0xb
 4244 03fe 03010000 		.4byte	0x103
 4245 0402 00       		.byte	0
 4246 0403 09       		.uleb128 0x9
 4247 0404 04       		.byte	0x4
 4248 0405 09040000 		.4byte	0x409
 4249 0409 06       		.uleb128 0x6
 4250 040a 27090000 		.4byte	.LASF57
 4251 040e A4       		.byte	0xa4
 4252 040f 0A       		.byte	0xa
 4253 0410 A9       		.byte	0xa9
 4254 0411 18070000 		.4byte	0x718
 4255 0415 07       		.uleb128 0x7
 4256 0416 03070000 		.4byte	.LASF58
 4257 041a 0A       		.byte	0xa
 4258 041b AB       		.byte	0xab
 4259 041c C4010000 		.4byte	0x1c4
 4260 0420 02       		.byte	0x2
 4261 0421 23       		.byte	0x23
 4262 0422 00       		.uleb128 0
 4263 0423 07       		.uleb128 0x7
 4264 0424 66090000 		.4byte	.LASF59
 4265 0428 0A       		.byte	0xa
 4266 0429 AB       		.byte	0xab
 4267 042a C4010000 		.4byte	0x1c4
 4268 042e 02       		.byte	0x2
 4269 042f 23       		.byte	0x23
 4270 0430 04       		.uleb128 0x4
ARM GAS  /var/folders/5n/p_75w94d66l9ssrldxqdhh700000gn/T//ccyVBgQE.s 			page 76


 4271 0431 07       		.uleb128 0x7
 4272 0432 2E000000 		.4byte	.LASF60
 4273 0436 0A       		.byte	0xa
 4274 0437 AB       		.byte	0xab
 4275 0438 C1000000 		.4byte	0xc1
 4276 043c 02       		.byte	0x2
 4277 043d 23       		.byte	0x23
 4278 043e 08       		.uleb128 0x8
 4279 043f 08       		.uleb128 0x8
 4280 0440 746F7300 		.ascii	"tos\000"
 4281 0444 0A       		.byte	0xa
 4282 0445 AB       		.byte	0xab
 4283 0446 C1000000 		.4byte	0xc1
 4284 044a 02       		.byte	0x2
 4285 044b 23       		.byte	0x23
 4286 044c 09       		.uleb128 0x9
 4287 044d 08       		.uleb128 0x8
 4288 044e 74746C00 		.ascii	"ttl\000"
 4289 0452 0A       		.byte	0xa
 4290 0453 AB       		.byte	0xab
 4291 0454 C1000000 		.4byte	0xc1
 4292 0458 02       		.byte	0x2
 4293 0459 23       		.byte	0x23
 4294 045a 0A       		.uleb128 0xa
 4295 045b 07       		.uleb128 0x7
 4296 045c A2000000 		.4byte	.LASF25
 4297 0460 0A       		.byte	0xa
 4298 0461 AD       		.byte	0xad
 4299 0462 03040000 		.4byte	0x403
 4300 0466 02       		.byte	0x2
 4301 0467 23       		.byte	0x23
 4302 0468 0C       		.uleb128 0xc
 4303 0469 07       		.uleb128 0x7
 4304 046a DA080000 		.4byte	.LASF41
 4305 046e 0A       		.byte	0xa
 4306 046f AD       		.byte	0xad
 4307 0470 C6070000 		.4byte	0x7c6
 4308 0474 02       		.byte	0x2
 4309 0475 23       		.byte	0x23
 4310 0476 10       		.uleb128 0x10
 4311 0477 07       		.uleb128 0x7
 4312 0478 A1030000 		.4byte	.LASF61
 4313 047c 0A       		.byte	0xa
 4314 047d AD       		.byte	0xad
 4315 047e C1000000 		.4byte	0xc1
 4316 0482 02       		.byte	0x2
 4317 0483 23       		.byte	0x23
 4318 0484 11       		.uleb128 0x11
 4319 0485 07       		.uleb128 0x7
 4320 0486 B2080000 		.4byte	.LASF62
 4321 048a 0A       		.byte	0xa
 4322 048b AD       		.byte	0xad
 4323 048c B1000000 		.4byte	0xb1
 4324 0490 02       		.byte	0x2
 4325 0491 23       		.byte	0x23
 4326 0492 14       		.uleb128 0x14
 4327 0493 07       		.uleb128 0x7
ARM GAS  /var/folders/5n/p_75w94d66l9ssrldxqdhh700000gn/T//ccyVBgQE.s 			page 77


 4328 0494 A6030000 		.4byte	.LASF63
 4329 0498 0A       		.byte	0xa
 4330 0499 AD       		.byte	0xad
 4331 049a D8030000 		.4byte	0x3d8
 4332 049e 02       		.byte	0x2
 4333 049f 23       		.byte	0x23
 4334 04a0 18       		.uleb128 0x18
 4335 04a1 07       		.uleb128 0x7
 4336 04a2 FC010000 		.4byte	.LASF64
 4337 04a6 0A       		.byte	0xa
 4338 04a7 AD       		.byte	0xad
 4339 04a8 D7000000 		.4byte	0xd7
 4340 04ac 02       		.byte	0x2
 4341 04ad 23       		.byte	0x23
 4342 04ae 1C       		.uleb128 0x1c
 4343 04af 07       		.uleb128 0x7
 4344 04b0 7C050000 		.4byte	.LASF65
 4345 04b4 0A       		.byte	0xa
 4346 04b5 B0       		.byte	0xb0
 4347 04b6 D7000000 		.4byte	0xd7
 4348 04ba 02       		.byte	0x2
 4349 04bb 23       		.byte	0x23
 4350 04bc 1E       		.uleb128 0x1e
 4351 04bd 07       		.uleb128 0x7
 4352 04be 74000000 		.4byte	.LASF29
 4353 04c2 0A       		.byte	0xa
 4354 04c3 B2       		.byte	0xb2
 4355 04c4 C1000000 		.4byte	0xc1
 4356 04c8 02       		.byte	0x2
 4357 04c9 23       		.byte	0x23
 4358 04ca 20       		.uleb128 0x20
 4359 04cb 07       		.uleb128 0x7
 4360 04cc 8B020000 		.4byte	.LASF66
 4361 04d0 0A       		.byte	0xa
 4362 04d1 BF       		.byte	0xbf
 4363 04d2 ED000000 		.4byte	0xed
 4364 04d6 02       		.byte	0x2
 4365 04d7 23       		.byte	0x23
 4366 04d8 24       		.uleb128 0x24
 4367 04d9 07       		.uleb128 0x7
 4368 04da AD060000 		.4byte	.LASF67
 4369 04de 0A       		.byte	0xa
 4370 04df C0       		.byte	0xc0
 4371 04e0 D7000000 		.4byte	0xd7
 4372 04e4 02       		.byte	0x2
 4373 04e5 23       		.byte	0x23
 4374 04e6 28       		.uleb128 0x28
 4375 04e7 07       		.uleb128 0x7
 4376 04e8 98050000 		.4byte	.LASF68
 4377 04ec 0A       		.byte	0xa
 4378 04ed C1       		.byte	0xc1
 4379 04ee D7000000 		.4byte	0xd7
 4380 04f2 02       		.byte	0x2
 4381 04f3 23       		.byte	0x23
 4382 04f4 2A       		.uleb128 0x2a
 4383 04f5 07       		.uleb128 0x7
 4384 04f6 E8000000 		.4byte	.LASF69
ARM GAS  /var/folders/5n/p_75w94d66l9ssrldxqdhh700000gn/T//ccyVBgQE.s 			page 78


 4385 04fa 0A       		.byte	0xa
 4386 04fb C2       		.byte	0xc2
 4387 04fc ED000000 		.4byte	0xed
 4388 0500 02       		.byte	0x2
 4389 0501 23       		.byte	0x23
 4390 0502 2C       		.uleb128 0x2c
 4391 0503 08       		.uleb128 0x8
 4392 0504 746D7200 		.ascii	"tmr\000"
 4393 0508 0A       		.byte	0xa
 4394 0509 C5       		.byte	0xc5
 4395 050a ED000000 		.4byte	0xed
 4396 050e 02       		.byte	0x2
 4397 050f 23       		.byte	0x23
 4398 0510 30       		.uleb128 0x30
 4399 0511 07       		.uleb128 0x7
 4400 0512 5E000000 		.4byte	.LASF70
 4401 0516 0A       		.byte	0xa
 4402 0517 C6       		.byte	0xc6
 4403 0518 C1000000 		.4byte	0xc1
 4404 051c 02       		.byte	0x2
 4405 051d 23       		.byte	0x23
 4406 051e 34       		.uleb128 0x34
 4407 051f 07       		.uleb128 0x7
 4408 0520 AE070000 		.4byte	.LASF71
 4409 0524 0A       		.byte	0xa
 4410 0525 C6       		.byte	0xc6
 4411 0526 C1000000 		.4byte	0xc1
 4412 052a 02       		.byte	0x2
 4413 052b 23       		.byte	0x23
 4414 052c 35       		.uleb128 0x35
 4415 052d 07       		.uleb128 0x7
 4416 052e 6C020000 		.4byte	.LASF72
 4417 0532 0A       		.byte	0xa
 4418 0533 C9       		.byte	0xc9
 4419 0534 E2000000 		.4byte	0xe2
 4420 0538 02       		.byte	0x2
 4421 0539 23       		.byte	0x23
 4422 053a 36       		.uleb128 0x36
 4423 053b 08       		.uleb128 0x8
 4424 053c 6D737300 		.ascii	"mss\000"
 4425 0540 0A       		.byte	0xa
 4426 0541 CB       		.byte	0xcb
 4427 0542 D7000000 		.4byte	0xd7
 4428 0546 02       		.byte	0x2
 4429 0547 23       		.byte	0x23
 4430 0548 38       		.uleb128 0x38
 4431 0549 07       		.uleb128 0x7
 4432 054a B5060000 		.4byte	.LASF73
 4433 054e 0A       		.byte	0xa
 4434 054f CE       		.byte	0xce
 4435 0550 ED000000 		.4byte	0xed
 4436 0554 02       		.byte	0x2
 4437 0555 23       		.byte	0x23
 4438 0556 3C       		.uleb128 0x3c
 4439 0557 07       		.uleb128 0x7
 4440 0558 78030000 		.4byte	.LASF74
 4441 055c 0A       		.byte	0xa
ARM GAS  /var/folders/5n/p_75w94d66l9ssrldxqdhh700000gn/T//ccyVBgQE.s 			page 79


 4442 055d CF       		.byte	0xcf
 4443 055e ED000000 		.4byte	0xed
 4444 0562 02       		.byte	0x2
 4445 0563 23       		.byte	0x23
 4446 0564 40       		.uleb128 0x40
 4447 0565 08       		.uleb128 0x8
 4448 0566 736100   		.ascii	"sa\000"
 4449 0569 0A       		.byte	0xa
 4450 056a D0       		.byte	0xd0
 4451 056b E2000000 		.4byte	0xe2
 4452 056f 02       		.byte	0x2
 4453 0570 23       		.byte	0x23
 4454 0571 44       		.uleb128 0x44
 4455 0572 08       		.uleb128 0x8
 4456 0573 737600   		.ascii	"sv\000"
 4457 0576 0A       		.byte	0xa
 4458 0577 D0       		.byte	0xd0
 4459 0578 E2000000 		.4byte	0xe2
 4460 057c 02       		.byte	0x2
 4461 057d 23       		.byte	0x23
 4462 057e 46       		.uleb128 0x46
 4463 057f 08       		.uleb128 0x8
 4464 0580 72746F00 		.ascii	"rto\000"
 4465 0584 0A       		.byte	0xa
 4466 0585 D2       		.byte	0xd2
 4467 0586 E2000000 		.4byte	0xe2
 4468 058a 02       		.byte	0x2
 4469 058b 23       		.byte	0x23
 4470 058c 48       		.uleb128 0x48
 4471 058d 07       		.uleb128 0x7
 4472 058e E6090000 		.4byte	.LASF75
 4473 0592 0A       		.byte	0xa
 4474 0593 D3       		.byte	0xd3
 4475 0594 C1000000 		.4byte	0xc1
 4476 0598 02       		.byte	0x2
 4477 0599 23       		.byte	0x23
 4478 059a 4A       		.uleb128 0x4a
 4479 059b 07       		.uleb128 0x7
 4480 059c 2B030000 		.4byte	.LASF76
 4481 05a0 0A       		.byte	0xa
 4482 05a1 D6       		.byte	0xd6
 4483 05a2 ED000000 		.4byte	0xed
 4484 05a6 02       		.byte	0x2
 4485 05a7 23       		.byte	0x23
 4486 05a8 4C       		.uleb128 0x4c
 4487 05a9 07       		.uleb128 0x7
 4488 05aa 8E030000 		.4byte	.LASF77
 4489 05ae 0A       		.byte	0xa
 4490 05af D7       		.byte	0xd7
 4491 05b0 C1000000 		.4byte	0xc1
 4492 05b4 02       		.byte	0x2
 4493 05b5 23       		.byte	0x23
 4494 05b6 50       		.uleb128 0x50
 4495 05b7 07       		.uleb128 0x7
 4496 05b8 D1010000 		.4byte	.LASF78
 4497 05bc 0A       		.byte	0xa
 4498 05bd DA       		.byte	0xda
ARM GAS  /var/folders/5n/p_75w94d66l9ssrldxqdhh700000gn/T//ccyVBgQE.s 			page 80


 4499 05be D7000000 		.4byte	0xd7
 4500 05c2 02       		.byte	0x2
 4501 05c3 23       		.byte	0x23
 4502 05c4 52       		.uleb128 0x52
 4503 05c5 07       		.uleb128 0x7
 4504 05c6 9D070000 		.4byte	.LASF79
 4505 05ca 0A       		.byte	0xa
 4506 05cb DB       		.byte	0xdb
 4507 05cc D7000000 		.4byte	0xd7
 4508 05d0 02       		.byte	0x2
 4509 05d1 23       		.byte	0x23
 4510 05d2 54       		.uleb128 0x54
 4511 05d3 07       		.uleb128 0x7
 4512 05d4 33070000 		.4byte	.LASF80
 4513 05d8 0A       		.byte	0xa
 4514 05d9 DE       		.byte	0xde
 4515 05da ED000000 		.4byte	0xed
 4516 05de 02       		.byte	0x2
 4517 05df 23       		.byte	0x23
 4518 05e0 58       		.uleb128 0x58
 4519 05e1 07       		.uleb128 0x7
 4520 05e2 17060000 		.4byte	.LASF81
 4521 05e6 0A       		.byte	0xa
 4522 05e7 DF       		.byte	0xdf
 4523 05e8 D7000000 		.4byte	0xd7
 4524 05ec 02       		.byte	0x2
 4525 05ed 23       		.byte	0x23
 4526 05ee 5C       		.uleb128 0x5c
 4527 05ef 07       		.uleb128 0x7
 4528 05f0 2B040000 		.4byte	.LASF82
 4529 05f4 0A       		.byte	0xa
 4530 05f5 E0       		.byte	0xe0
 4531 05f6 ED000000 		.4byte	0xed
 4532 05fa 02       		.byte	0x2
 4533 05fb 23       		.byte	0x23
 4534 05fc 60       		.uleb128 0x60
 4535 05fd 07       		.uleb128 0x7
 4536 05fe 33040000 		.4byte	.LASF83
 4537 0602 0A       		.byte	0xa
 4538 0603 E0       		.byte	0xe0
 4539 0604 ED000000 		.4byte	0xed
 4540 0608 02       		.byte	0x2
 4541 0609 23       		.byte	0x23
 4542 060a 64       		.uleb128 0x64
 4543 060b 07       		.uleb128 0x7
 4544 060c 89040000 		.4byte	.LASF84
 4545 0610 0A       		.byte	0xa
 4546 0611 E2       		.byte	0xe2
 4547 0612 ED000000 		.4byte	0xed
 4548 0616 02       		.byte	0x2
 4549 0617 23       		.byte	0x23
 4550 0618 68       		.uleb128 0x68
 4551 0619 07       		.uleb128 0x7
 4552 061a 85020000 		.4byte	.LASF85
 4553 061e 0A       		.byte	0xa
 4554 061f E4       		.byte	0xe4
 4555 0620 D7000000 		.4byte	0xd7
ARM GAS  /var/folders/5n/p_75w94d66l9ssrldxqdhh700000gn/T//ccyVBgQE.s 			page 81


 4556 0624 02       		.byte	0x2
 4557 0625 23       		.byte	0x23
 4558 0626 6C       		.uleb128 0x6c
 4559 0627 07       		.uleb128 0x7
 4560 0628 A6070000 		.4byte	.LASF86
 4561 062c 0A       		.byte	0xa
 4562 062d E6       		.byte	0xe6
 4563 062e D7000000 		.4byte	0xd7
 4564 0632 02       		.byte	0x2
 4565 0633 23       		.byte	0x23
 4566 0634 6E       		.uleb128 0x6e
 4567 0635 07       		.uleb128 0x7
 4568 0636 E6080000 		.4byte	.LASF87
 4569 063a 0A       		.byte	0xa
 4570 063b E8       		.byte	0xe8
 4571 063c D7000000 		.4byte	0xd7
 4572 0640 02       		.byte	0x2
 4573 0641 23       		.byte	0x23
 4574 0642 70       		.uleb128 0x70
 4575 0643 07       		.uleb128 0x7
 4576 0644 11070000 		.4byte	.LASF88
 4577 0648 0A       		.byte	0xa
 4578 0649 EC       		.byte	0xec
 4579 064a D7000000 		.4byte	0xd7
 4580 064e 02       		.byte	0x2
 4581 064f 23       		.byte	0x23
 4582 0650 72       		.uleb128 0x72
 4583 0651 07       		.uleb128 0x7
 4584 0652 A6060000 		.4byte	.LASF89
 4585 0656 0A       		.byte	0xa
 4586 0657 F0       		.byte	0xf0
 4587 0658 6C080000 		.4byte	0x86c
 4588 065c 02       		.byte	0x2
 4589 065d 23       		.byte	0x23
 4590 065e 74       		.uleb128 0x74
 4591 065f 07       		.uleb128 0x7
 4592 0660 AD020000 		.4byte	.LASF90
 4593 0664 0A       		.byte	0xa
 4594 0665 F1       		.byte	0xf1
 4595 0666 6C080000 		.4byte	0x86c
 4596 066a 02       		.byte	0x2
 4597 066b 23       		.byte	0x23
 4598 066c 78       		.uleb128 0x78
 4599 066d 07       		.uleb128 0x7
 4600 066e 49060000 		.4byte	.LASF91
 4601 0672 0A       		.byte	0xa
 4602 0673 F3       		.byte	0xf3
 4603 0674 6C080000 		.4byte	0x86c
 4604 0678 02       		.byte	0x2
 4605 0679 23       		.byte	0x23
 4606 067a 7C       		.uleb128 0x7c
 4607 067b 07       		.uleb128 0x7
 4608 067c 32080000 		.4byte	.LASF92
 4609 0680 0A       		.byte	0xa
 4610 0681 F6       		.byte	0xf6
 4611 0682 88010000 		.4byte	0x188
 4612 0686 03       		.byte	0x3
ARM GAS  /var/folders/5n/p_75w94d66l9ssrldxqdhh700000gn/T//ccyVBgQE.s 			page 82


 4613 0687 23       		.byte	0x23
 4614 0688 8001     		.uleb128 0x80
 4615 068a 07       		.uleb128 0x7
 4616 068b 1E040000 		.4byte	.LASF93
 4617 068f 0A       		.byte	0xa
 4618 0690 FA       		.byte	0xfa
 4619 0691 48070000 		.4byte	0x748
 4620 0695 03       		.byte	0x3
 4621 0696 23       		.byte	0x23
 4622 0697 8401     		.uleb128 0x84
 4623 0699 07       		.uleb128 0x7
 4624 069a 0F090000 		.4byte	.LASF94
 4625 069e 0A       		.byte	0xa
 4626 069f FC       		.byte	0xfc
 4627 06a0 18070000 		.4byte	0x718
 4628 06a4 03       		.byte	0x3
 4629 06a5 23       		.byte	0x23
 4630 06a6 8801     		.uleb128 0x88
 4631 06a8 07       		.uleb128 0x7
 4632 06a9 FA020000 		.4byte	.LASF95
 4633 06ad 0A       		.byte	0xa
 4634 06ae FE       		.byte	0xfe
 4635 06af BB070000 		.4byte	0x7bb
 4636 06b3 03       		.byte	0x3
 4637 06b4 23       		.byte	0x23
 4638 06b5 8C01     		.uleb128 0x8c
 4639 06b7 0E       		.uleb128 0xe
 4640 06b8 B7030000 		.4byte	.LASF96
 4641 06bc 0A       		.byte	0xa
 4642 06bd 0001     		.2byte	0x100
 4643 06bf 73070000 		.4byte	0x773
 4644 06c3 03       		.byte	0x3
 4645 06c4 23       		.byte	0x23
 4646 06c5 9001     		.uleb128 0x90
 4647 06c7 0E       		.uleb128 0xe
 4648 06c8 12060000 		.4byte	.LASF97
 4649 06cc 0A       		.byte	0xa
 4650 06cd 0201     		.2byte	0x102
 4651 06cf 99070000 		.4byte	0x799
 4652 06d3 03       		.byte	0x3
 4653 06d4 23       		.byte	0x23
 4654 06d5 9401     		.uleb128 0x94
 4655 06d7 0E       		.uleb128 0xe
 4656 06d8 A2080000 		.4byte	.LASF98
 4657 06dc 0A       		.byte	0xa
 4658 06dd 0B01     		.2byte	0x10b
 4659 06df ED000000 		.4byte	0xed
 4660 06e3 03       		.byte	0x3
 4661 06e4 23       		.byte	0x23
 4662 06e5 9801     		.uleb128 0x98
 4663 06e7 0E       		.uleb128 0xe
 4664 06e8 47090000 		.4byte	.LASF99
 4665 06ec 0A       		.byte	0xa
 4666 06ed 1201     		.2byte	0x112
 4667 06ef ED000000 		.4byte	0xed
 4668 06f3 03       		.byte	0x3
 4669 06f4 23       		.byte	0x23
ARM GAS  /var/folders/5n/p_75w94d66l9ssrldxqdhh700000gn/T//ccyVBgQE.s 			page 83


 4670 06f5 9C01     		.uleb128 0x9c
 4671 06f7 0E       		.uleb128 0xe
 4672 06f8 E4040000 		.4byte	.LASF100
 4673 06fc 0A       		.byte	0xa
 4674 06fd 1401     		.2byte	0x114
 4675 06ff C1000000 		.4byte	0xc1
 4676 0703 03       		.byte	0x3
 4677 0704 23       		.byte	0x23
 4678 0705 A001     		.uleb128 0xa0
 4679 0707 0E       		.uleb128 0xe
 4680 0708 32010000 		.4byte	.LASF101
 4681 070c 0A       		.byte	0xa
 4682 070d 1701     		.2byte	0x117
 4683 070f C1000000 		.4byte	0xc1
 4684 0713 03       		.byte	0x3
 4685 0714 23       		.byte	0x23
 4686 0715 A101     		.uleb128 0xa1
 4687 0717 00       		.byte	0
 4688 0718 04       		.uleb128 0x4
 4689 0719 BF050000 		.4byte	.LASF102
 4690 071d 0A       		.byte	0xa
 4691 071e 49       		.byte	0x49
 4692 071f 23070000 		.4byte	0x723
 4693 0723 09       		.uleb128 0x9
 4694 0724 04       		.byte	0x4
 4695 0725 29070000 		.4byte	0x729
 4696 0729 0A       		.uleb128 0xa
 4697 072a 01       		.byte	0x1
 4698 072b 03010000 		.4byte	0x103
 4699 072f 48070000 		.4byte	0x748
 4700 0733 0B       		.uleb128 0xb
 4701 0734 B1000000 		.4byte	0xb1
 4702 0738 0B       		.uleb128 0xb
 4703 0739 03040000 		.4byte	0x403
 4704 073d 0B       		.uleb128 0xb
 4705 073e 88010000 		.4byte	0x188
 4706 0742 0B       		.uleb128 0xb
 4707 0743 03010000 		.4byte	0x103
 4708 0747 00       		.byte	0
 4709 0748 04       		.uleb128 0x4
 4710 0749 71010000 		.4byte	.LASF103
 4711 074d 0A       		.byte	0xa
 4712 074e 57       		.byte	0x57
 4713 074f 53070000 		.4byte	0x753
 4714 0753 09       		.uleb128 0x9
 4715 0754 04       		.byte	0x4
 4716 0755 59070000 		.4byte	0x759
 4717 0759 0A       		.uleb128 0xa
 4718 075a 01       		.byte	0x1
 4719 075b 03010000 		.4byte	0x103
 4720 075f 73070000 		.4byte	0x773
 4721 0763 0B       		.uleb128 0xb
 4722 0764 B1000000 		.4byte	0xb1
 4723 0768 0B       		.uleb128 0xb
 4724 0769 03040000 		.4byte	0x403
 4725 076d 0B       		.uleb128 0xb
 4726 076e D7000000 		.4byte	0xd7
ARM GAS  /var/folders/5n/p_75w94d66l9ssrldxqdhh700000gn/T//ccyVBgQE.s 			page 84


 4727 0772 00       		.byte	0
 4728 0773 04       		.uleb128 0x4
 4729 0774 EC050000 		.4byte	.LASF104
 4730 0778 0A       		.byte	0xa
 4731 0779 63       		.byte	0x63
 4732 077a 7E070000 		.4byte	0x77e
 4733 077e 09       		.uleb128 0x9
 4734 077f 04       		.byte	0x4
 4735 0780 84070000 		.4byte	0x784
 4736 0784 0A       		.uleb128 0xa
 4737 0785 01       		.byte	0x1
 4738 0786 03010000 		.4byte	0x103
 4739 078a 99070000 		.4byte	0x799
 4740 078e 0B       		.uleb128 0xb
 4741 078f B1000000 		.4byte	0xb1
 4742 0793 0B       		.uleb128 0xb
 4743 0794 03040000 		.4byte	0x403
 4744 0798 00       		.byte	0
 4745 0799 04       		.uleb128 0x4
 4746 079a 4F040000 		.4byte	.LASF105
 4747 079e 0A       		.byte	0xa
 4748 079f 6F       		.byte	0x6f
 4749 07a0 A4070000 		.4byte	0x7a4
 4750 07a4 09       		.uleb128 0x9
 4751 07a5 04       		.byte	0x4
 4752 07a6 AA070000 		.4byte	0x7aa
 4753 07aa 0F       		.uleb128 0xf
 4754 07ab 01       		.byte	0x1
 4755 07ac BB070000 		.4byte	0x7bb
 4756 07b0 0B       		.uleb128 0xb
 4757 07b1 B1000000 		.4byte	0xb1
 4758 07b5 0B       		.uleb128 0xb
 4759 07b6 03010000 		.4byte	0x103
 4760 07ba 00       		.byte	0
 4761 07bb 04       		.uleb128 0x4
 4762 07bc 91000000 		.4byte	.LASF106
 4763 07c0 0A       		.byte	0xa
 4764 07c1 7D       		.byte	0x7d
 4765 07c2 E3030000 		.4byte	0x3e3
 4766 07c6 10       		.uleb128 0x10
 4767 07c7 B5090000 		.4byte	.LASF237
 4768 07cb 01       		.byte	0x1
 4769 07cc 0A       		.byte	0xa
 4770 07cd 7F       		.byte	0x7f
 4771 07ce 15080000 		.4byte	0x815
 4772 07d2 11       		.uleb128 0x11
 4773 07d3 5A060000 		.4byte	.LASF107
 4774 07d7 00       		.sleb128 0
 4775 07d8 11       		.uleb128 0x11
 4776 07d9 C9080000 		.4byte	.LASF108
 4777 07dd 01       		.sleb128 1
 4778 07de 11       		.uleb128 0x11
 4779 07df 21070000 		.4byte	.LASF109
 4780 07e3 02       		.sleb128 2
 4781 07e4 11       		.uleb128 0x11
 4782 07e5 F0090000 		.4byte	.LASF110
 4783 07e9 03       		.sleb128 3
ARM GAS  /var/folders/5n/p_75w94d66l9ssrldxqdhh700000gn/T//ccyVBgQE.s 			page 85


 4784 07ea 11       		.uleb128 0x11
 4785 07eb 3B070000 		.4byte	.LASF111
 4786 07ef 04       		.sleb128 4
 4787 07f0 11       		.uleb128 0x11
 4788 07f1 6C080000 		.4byte	.LASF112
 4789 07f5 05       		.sleb128 5
 4790 07f6 11       		.uleb128 0x11
 4791 07f7 77080000 		.4byte	.LASF113
 4792 07fb 06       		.sleb128 6
 4793 07fc 11       		.uleb128 0x11
 4794 07fd 0C040000 		.4byte	.LASF114
 4795 0801 07       		.sleb128 7
 4796 0802 11       		.uleb128 0x11
 4797 0803 23030000 		.4byte	.LASF115
 4798 0807 08       		.sleb128 8
 4799 0808 11       		.uleb128 0x11
 4800 0809 C5020000 		.4byte	.LASF116
 4801 080d 09       		.sleb128 9
 4802 080e 11       		.uleb128 0x11
 4803 080f 7A000000 		.4byte	.LASF117
 4804 0813 0A       		.sleb128 10
 4805 0814 00       		.byte	0
 4806 0815 12       		.uleb128 0x12
 4807 0816 33020000 		.4byte	.LASF118
 4808 081a 10       		.byte	0x10
 4809 081b 0B       		.byte	0xb
 4810 081c 1601     		.2byte	0x116
 4811 081e 6C080000 		.4byte	0x86c
 4812 0822 0E       		.uleb128 0xe
 4813 0823 A2000000 		.4byte	.LASF25
 4814 0827 0B       		.byte	0xb
 4815 0828 1701     		.2byte	0x117
 4816 082a 6C080000 		.4byte	0x86c
 4817 082e 02       		.byte	0x2
 4818 082f 23       		.byte	0x23
 4819 0830 00       		.uleb128 0
 4820 0831 13       		.uleb128 0x13
 4821 0832 7000     		.ascii	"p\000"
 4822 0834 0B       		.byte	0xb
 4823 0835 1801     		.2byte	0x118
 4824 0837 88010000 		.4byte	0x188
 4825 083b 02       		.byte	0x2
 4826 083c 23       		.byte	0x23
 4827 083d 04       		.uleb128 0x4
 4828 083e 13       		.uleb128 0x13
 4829 083f 6C656E00 		.ascii	"len\000"
 4830 0843 0B       		.byte	0xb
 4831 0844 1901     		.2byte	0x119
 4832 0846 D7000000 		.4byte	0xd7
 4833 084a 02       		.byte	0x2
 4834 084b 23       		.byte	0x23
 4835 084c 08       		.uleb128 0x8
 4836 084d 0E       		.uleb128 0xe
 4837 084e 74000000 		.4byte	.LASF29
 4838 0852 0B       		.byte	0xb
 4839 0853 2301     		.2byte	0x123
 4840 0855 C1000000 		.4byte	0xc1
ARM GAS  /var/folders/5n/p_75w94d66l9ssrldxqdhh700000gn/T//ccyVBgQE.s 			page 86


 4841 0859 02       		.byte	0x2
 4842 085a 23       		.byte	0x23
 4843 085b 0A       		.uleb128 0xa
 4844 085c 0E       		.uleb128 0xe
 4845 085d 1D080000 		.4byte	.LASF119
 4846 0861 0B       		.byte	0xb
 4847 0862 2801     		.2byte	0x128
 4848 0864 A8090000 		.4byte	0x9a8
 4849 0868 02       		.byte	0x2
 4850 0869 23       		.byte	0x23
 4851 086a 0C       		.uleb128 0xc
 4852 086b 00       		.byte	0
 4853 086c 09       		.uleb128 0x9
 4854 086d 04       		.byte	0x4
 4855 086e 15080000 		.4byte	0x815
 4856 0872 12       		.uleb128 0x12
 4857 0873 C1040000 		.4byte	.LASF120
 4858 0877 20       		.byte	0x20
 4859 0878 0A       		.byte	0xa
 4860 0879 1A01     		.2byte	0x11a
 4861 087b 25090000 		.4byte	0x925
 4862 087f 0E       		.uleb128 0xe
 4863 0880 03070000 		.4byte	.LASF58
 4864 0884 0A       		.byte	0xa
 4865 0885 1C01     		.2byte	0x11c
 4866 0887 C4010000 		.4byte	0x1c4
 4867 088b 02       		.byte	0x2
 4868 088c 23       		.byte	0x23
 4869 088d 00       		.uleb128 0
 4870 088e 0E       		.uleb128 0xe
 4871 088f 66090000 		.4byte	.LASF59
 4872 0893 0A       		.byte	0xa
 4873 0894 1C01     		.2byte	0x11c
 4874 0896 C4010000 		.4byte	0x1c4
 4875 089a 02       		.byte	0x2
 4876 089b 23       		.byte	0x23
 4877 089c 04       		.uleb128 0x4
 4878 089d 0E       		.uleb128 0xe
 4879 089e 2E000000 		.4byte	.LASF60
 4880 08a2 0A       		.byte	0xa
 4881 08a3 1C01     		.2byte	0x11c
 4882 08a5 C1000000 		.4byte	0xc1
 4883 08a9 02       		.byte	0x2
 4884 08aa 23       		.byte	0x23
 4885 08ab 08       		.uleb128 0x8
 4886 08ac 13       		.uleb128 0x13
 4887 08ad 746F7300 		.ascii	"tos\000"
 4888 08b1 0A       		.byte	0xa
 4889 08b2 1C01     		.2byte	0x11c
 4890 08b4 C1000000 		.4byte	0xc1
 4891 08b8 02       		.byte	0x2
 4892 08b9 23       		.byte	0x23
 4893 08ba 09       		.uleb128 0x9
 4894 08bb 13       		.uleb128 0x13
 4895 08bc 74746C00 		.ascii	"ttl\000"
 4896 08c0 0A       		.byte	0xa
 4897 08c1 1C01     		.2byte	0x11c
ARM GAS  /var/folders/5n/p_75w94d66l9ssrldxqdhh700000gn/T//ccyVBgQE.s 			page 87


 4898 08c3 C1000000 		.4byte	0xc1
 4899 08c7 02       		.byte	0x2
 4900 08c8 23       		.byte	0x23
 4901 08c9 0A       		.uleb128 0xa
 4902 08ca 0E       		.uleb128 0xe
 4903 08cb A2000000 		.4byte	.LASF25
 4904 08cf 0A       		.byte	0xa
 4905 08d0 1E01     		.2byte	0x11e
 4906 08d2 25090000 		.4byte	0x925
 4907 08d6 02       		.byte	0x2
 4908 08d7 23       		.byte	0x23
 4909 08d8 0C       		.uleb128 0xc
 4910 08d9 0E       		.uleb128 0xe
 4911 08da DA080000 		.4byte	.LASF41
 4912 08de 0A       		.byte	0xa
 4913 08df 1E01     		.2byte	0x11e
 4914 08e1 C6070000 		.4byte	0x7c6
 4915 08e5 02       		.byte	0x2
 4916 08e6 23       		.byte	0x23
 4917 08e7 10       		.uleb128 0x10
 4918 08e8 0E       		.uleb128 0xe
 4919 08e9 A1030000 		.4byte	.LASF61
 4920 08ed 0A       		.byte	0xa
 4921 08ee 1E01     		.2byte	0x11e
 4922 08f0 C1000000 		.4byte	0xc1
 4923 08f4 02       		.byte	0x2
 4924 08f5 23       		.byte	0x23
 4925 08f6 11       		.uleb128 0x11
 4926 08f7 0E       		.uleb128 0xe
 4927 08f8 B2080000 		.4byte	.LASF62
 4928 08fc 0A       		.byte	0xa
 4929 08fd 1E01     		.2byte	0x11e
 4930 08ff B1000000 		.4byte	0xb1
 4931 0903 02       		.byte	0x2
 4932 0904 23       		.byte	0x23
 4933 0905 14       		.uleb128 0x14
 4934 0906 0E       		.uleb128 0xe
 4935 0907 A6030000 		.4byte	.LASF63
 4936 090b 0A       		.byte	0xa
 4937 090c 1E01     		.2byte	0x11e
 4938 090e D8030000 		.4byte	0x3d8
 4939 0912 02       		.byte	0x2
 4940 0913 23       		.byte	0x23
 4941 0914 18       		.uleb128 0x18
 4942 0915 0E       		.uleb128 0xe
 4943 0916 FC010000 		.4byte	.LASF64
 4944 091a 0A       		.byte	0xa
 4945 091b 1E01     		.2byte	0x11e
 4946 091d D7000000 		.4byte	0xd7
 4947 0921 02       		.byte	0x2
 4948 0922 23       		.byte	0x23
 4949 0923 1C       		.uleb128 0x1c
 4950 0924 00       		.byte	0
 4951 0925 09       		.uleb128 0x9
 4952 0926 04       		.byte	0x4
 4953 0927 72080000 		.4byte	0x872
 4954 092b 06       		.uleb128 0x6
ARM GAS  /var/folders/5n/p_75w94d66l9ssrldxqdhh700000gn/T//ccyVBgQE.s 			page 88


 4955 092c 47080000 		.4byte	.LASF121
 4956 0930 14       		.byte	0x14
 4957 0931 0B       		.byte	0xb
 4958 0932 9E       		.byte	0x9e
 4959 0933 A8090000 		.4byte	0x9a8
 4960 0937 08       		.uleb128 0x8
 4961 0938 73726300 		.ascii	"src\000"
 4962 093c 0B       		.byte	0xb
 4963 093d 9F       		.byte	0x9f
 4964 093e D7000000 		.4byte	0xd7
 4965 0942 02       		.byte	0x2
 4966 0943 23       		.byte	0x23
 4967 0944 00       		.uleb128 0
 4968 0945 07       		.uleb128 0x7
 4969 0946 EB090000 		.4byte	.LASF55
 4970 094a 0B       		.byte	0xb
 4971 094b A0       		.byte	0xa0
 4972 094c D7000000 		.4byte	0xd7
 4973 0950 02       		.byte	0x2
 4974 0951 23       		.byte	0x23
 4975 0952 02       		.uleb128 0x2
 4976 0953 07       		.uleb128 0x7
 4977 0954 A0010000 		.4byte	.LASF122
 4978 0958 0B       		.byte	0xb
 4979 0959 A1       		.byte	0xa1
 4980 095a ED000000 		.4byte	0xed
 4981 095e 02       		.byte	0x2
 4982 095f 23       		.byte	0x23
 4983 0960 04       		.uleb128 0x4
 4984 0961 07       		.uleb128 0x7
 4985 0962 D0040000 		.4byte	.LASF123
 4986 0966 0B       		.byte	0xb
 4987 0967 A2       		.byte	0xa2
 4988 0968 ED000000 		.4byte	0xed
 4989 096c 02       		.byte	0x2
 4990 096d 23       		.byte	0x23
 4991 096e 08       		.uleb128 0x8
 4992 096f 07       		.uleb128 0x7
 4993 0970 C8070000 		.4byte	.LASF124
 4994 0974 0B       		.byte	0xb
 4995 0975 A3       		.byte	0xa3
 4996 0976 D7000000 		.4byte	0xd7
 4997 097a 02       		.byte	0x2
 4998 097b 23       		.byte	0x23
 4999 097c 0C       		.uleb128 0xc
 5000 097d 08       		.uleb128 0x8
 5001 097e 776E6400 		.ascii	"wnd\000"
 5002 0982 0B       		.byte	0xb
 5003 0983 A4       		.byte	0xa4
 5004 0984 D7000000 		.4byte	0xd7
 5005 0988 02       		.byte	0x2
 5006 0989 23       		.byte	0x23
 5007 098a 0E       		.uleb128 0xe
 5008 098b 07       		.uleb128 0x7
 5009 098c F3080000 		.4byte	.LASF125
 5010 0990 0B       		.byte	0xb
 5011 0991 A5       		.byte	0xa5
ARM GAS  /var/folders/5n/p_75w94d66l9ssrldxqdhh700000gn/T//ccyVBgQE.s 			page 89


 5012 0992 D7000000 		.4byte	0xd7
 5013 0996 02       		.byte	0x2
 5014 0997 23       		.byte	0x23
 5015 0998 10       		.uleb128 0x10
 5016 0999 07       		.uleb128 0x7
 5017 099a 59000000 		.4byte	.LASF126
 5018 099e 0B       		.byte	0xb
 5019 099f A6       		.byte	0xa6
 5020 09a0 D7000000 		.4byte	0xd7
 5021 09a4 02       		.byte	0x2
 5022 09a5 23       		.byte	0x23
 5023 09a6 12       		.uleb128 0x12
 5024 09a7 00       		.byte	0
 5025 09a8 09       		.uleb128 0x9
 5026 09a9 04       		.byte	0x4
 5027 09aa 2B090000 		.4byte	0x92b
 5028 09ae 14       		.uleb128 0x14
 5029 09af 6D040000 		.4byte	.LASF238
 5030 09b3 04       		.byte	0x4
 5031 09b4 0B       		.byte	0xb
 5032 09b5 3A01     		.2byte	0x13a
 5033 09b7 D4090000 		.4byte	0x9d4
 5034 09bb 15       		.uleb128 0x15
 5035 09bc 00000000 		.4byte	.LASF127
 5036 09c0 0B       		.byte	0xb
 5037 09c1 3B01     		.2byte	0x13b
 5038 09c3 25090000 		.4byte	0x925
 5039 09c7 15       		.uleb128 0x15
 5040 09c8 010A0000 		.4byte	.LASF128
 5041 09cc 0B       		.byte	0xb
 5042 09cd 3C01     		.2byte	0x13c
 5043 09cf 03040000 		.4byte	0x403
 5044 09d3 00       		.byte	0
 5045 09d4 16       		.uleb128 0x16
 5046 09d5 01       		.byte	0x1
 5047 09d6 0C       		.byte	0xc
 5048 09d7 2B       		.byte	0x2b
 5049 09d8 370A0000 		.4byte	0xa37
 5050 09dc 11       		.uleb128 0x11
 5051 09dd BB070000 		.4byte	.LASF129
 5052 09e1 00       		.sleb128 0
 5053 09e2 11       		.uleb128 0x11
 5054 09e3 F6060000 		.4byte	.LASF130
 5055 09e7 01       		.sleb128 1
 5056 09e8 11       		.uleb128 0x11
 5057 09e9 F4040000 		.4byte	.LASF131
 5058 09ed 02       		.sleb128 2
 5059 09ee 11       		.uleb128 0x11
 5060 09ef 0C000000 		.4byte	.LASF132
 5061 09f3 03       		.sleb128 3
 5062 09f4 11       		.uleb128 0x11
 5063 09f5 89080000 		.4byte	.LASF133
 5064 09f9 04       		.sleb128 4
 5065 09fa 11       		.uleb128 0x11
 5066 09fb B0050000 		.4byte	.LASF134
 5067 09ff 05       		.sleb128 5
 5068 0a00 11       		.uleb128 0x11
ARM GAS  /var/folders/5n/p_75w94d66l9ssrldxqdhh700000gn/T//ccyVBgQE.s 			page 90


 5069 0a01 8E070000 		.4byte	.LASF135
 5070 0a05 06       		.sleb128 6
 5071 0a06 11       		.uleb128 0x11
 5072 0a07 9F040000 		.4byte	.LASF136
 5073 0a0b 07       		.sleb128 7
 5074 0a0c 11       		.uleb128 0x11
 5075 0a0d 47030000 		.4byte	.LASF137
 5076 0a11 08       		.sleb128 8
 5077 0a12 11       		.uleb128 0x11
 5078 0a13 E2010000 		.4byte	.LASF138
 5079 0a17 09       		.sleb128 9
 5080 0a18 11       		.uleb128 0x11
 5081 0a19 93020000 		.4byte	.LASF139
 5082 0a1d 0A       		.sleb128 10
 5083 0a1e 11       		.uleb128 0x11
 5084 0a1f E5060000 		.4byte	.LASF140
 5085 0a23 0B       		.sleb128 11
 5086 0a24 11       		.uleb128 0x11
 5087 0a25 AD030000 		.4byte	.LASF141
 5088 0a29 0C       		.sleb128 12
 5089 0a2a 11       		.uleb128 0x11
 5090 0a2b 40010000 		.4byte	.LASF142
 5091 0a2f 0D       		.sleb128 13
 5092 0a30 11       		.uleb128 0x11
 5093 0a31 33030000 		.4byte	.LASF143
 5094 0a35 0E       		.sleb128 14
 5095 0a36 00       		.byte	0
 5096 0a37 04       		.uleb128 0x4
 5097 0a38 C8090000 		.4byte	.LASF144
 5098 0a3c 0C       		.byte	0xc
 5099 0a3d 2F       		.byte	0x2f
 5100 0a3e D4090000 		.4byte	0x9d4
 5101 0a42 06       		.uleb128 0x6
 5102 0a43 E5030000 		.4byte	.LASF145
 5103 0a47 18       		.byte	0x18
 5104 0a48 0D       		.byte	0xd
 5105 0a49 3A       		.byte	0x3a
 5106 0a4a F60A0000 		.4byte	0xaf6
 5107 0a4e 07       		.uleb128 0x7
 5108 0a4f 42090000 		.4byte	.LASF146
 5109 0a53 0D       		.byte	0xd
 5110 0a54 3B       		.byte	0x3b
 5111 0a55 D7000000 		.4byte	0xd7
 5112 0a59 02       		.byte	0x2
 5113 0a5a 23       		.byte	0x23
 5114 0a5b 00       		.uleb128 0
 5115 0a5c 07       		.uleb128 0x7
 5116 0a5d 0F090000 		.4byte	.LASF94
 5117 0a61 0D       		.byte	0xd
 5118 0a62 3C       		.byte	0x3c
 5119 0a63 D7000000 		.4byte	0xd7
 5120 0a67 02       		.byte	0x2
 5121 0a68 23       		.byte	0x23
 5122 0a69 02       		.uleb128 0x2
 5123 0a6a 08       		.uleb128 0x8
 5124 0a6b 667700   		.ascii	"fw\000"
 5125 0a6e 0D       		.byte	0xd
ARM GAS  /var/folders/5n/p_75w94d66l9ssrldxqdhh700000gn/T//ccyVBgQE.s 			page 91


 5126 0a6f 3D       		.byte	0x3d
 5127 0a70 D7000000 		.4byte	0xd7
 5128 0a74 02       		.byte	0x2
 5129 0a75 23       		.byte	0x23
 5130 0a76 04       		.uleb128 0x4
 5131 0a77 07       		.uleb128 0x7
 5132 0a78 D5080000 		.4byte	.LASF147
 5133 0a7c 0D       		.byte	0xd
 5134 0a7d 3E       		.byte	0x3e
 5135 0a7e D7000000 		.4byte	0xd7
 5136 0a82 02       		.byte	0x2
 5137 0a83 23       		.byte	0x23
 5138 0a84 06       		.uleb128 0x6
 5139 0a85 07       		.uleb128 0x7
 5140 0a86 A4050000 		.4byte	.LASF148
 5141 0a8a 0D       		.byte	0xd
 5142 0a8b 3F       		.byte	0x3f
 5143 0a8c D7000000 		.4byte	0xd7
 5144 0a90 02       		.byte	0x2
 5145 0a91 23       		.byte	0x23
 5146 0a92 08       		.uleb128 0x8
 5147 0a93 07       		.uleb128 0x7
 5148 0a94 DB070000 		.4byte	.LASF149
 5149 0a98 0D       		.byte	0xd
 5150 0a99 40       		.byte	0x40
 5151 0a9a D7000000 		.4byte	0xd7
 5152 0a9e 02       		.byte	0x2
 5153 0a9f 23       		.byte	0x23
 5154 0aa0 0A       		.uleb128 0xa
 5155 0aa1 07       		.uleb128 0x7
 5156 0aa2 82080000 		.4byte	.LASF150
 5157 0aa6 0D       		.byte	0xd
 5158 0aa7 41       		.byte	0x41
 5159 0aa8 D7000000 		.4byte	0xd7
 5160 0aac 02       		.byte	0x2
 5161 0aad 23       		.byte	0x23
 5162 0aae 0C       		.uleb128 0xc
 5163 0aaf 07       		.uleb128 0x7
 5164 0ab0 92060000 		.4byte	.LASF151
 5165 0ab4 0D       		.byte	0xd
 5166 0ab5 42       		.byte	0x42
 5167 0ab6 D7000000 		.4byte	0xd7
 5168 0aba 02       		.byte	0x2
 5169 0abb 23       		.byte	0x23
 5170 0abc 0E       		.uleb128 0xe
 5171 0abd 07       		.uleb128 0x7
 5172 0abe 3F080000 		.4byte	.LASF152
 5173 0ac2 0D       		.byte	0xd
 5174 0ac3 43       		.byte	0x43
 5175 0ac4 D7000000 		.4byte	0xd7
 5176 0ac8 02       		.byte	0x2
 5177 0ac9 23       		.byte	0x23
 5178 0aca 10       		.uleb128 0x10
 5179 0acb 07       		.uleb128 0x7
 5180 0acc F5010000 		.4byte	.LASF153
 5181 0ad0 0D       		.byte	0xd
 5182 0ad1 44       		.byte	0x44
ARM GAS  /var/folders/5n/p_75w94d66l9ssrldxqdhh700000gn/T//ccyVBgQE.s 			page 92


 5183 0ad2 D7000000 		.4byte	0xd7
 5184 0ad6 02       		.byte	0x2
 5185 0ad7 23       		.byte	0x23
 5186 0ad8 12       		.uleb128 0x12
 5187 0ad9 08       		.uleb128 0x8
 5188 0ada 65727200 		.ascii	"err\000"
 5189 0ade 0D       		.byte	0xd
 5190 0adf 45       		.byte	0x45
 5191 0ae0 D7000000 		.4byte	0xd7
 5192 0ae4 02       		.byte	0x2
 5193 0ae5 23       		.byte	0x23
 5194 0ae6 14       		.uleb128 0x14
 5195 0ae7 07       		.uleb128 0x7
 5196 0ae8 2A070000 		.4byte	.LASF154
 5197 0aec 0D       		.byte	0xd
 5198 0aed 46       		.byte	0x46
 5199 0aee D7000000 		.4byte	0xd7
 5200 0af2 02       		.byte	0x2
 5201 0af3 23       		.byte	0x23
 5202 0af4 16       		.uleb128 0x16
 5203 0af5 00       		.byte	0
 5204 0af6 06       		.uleb128 0x6
 5205 0af7 FB000000 		.4byte	.LASF155
 5206 0afb 0A       		.byte	0xa
 5207 0afc 0D       		.byte	0xd
 5208 0afd 5A       		.byte	0x5a
 5209 0afe 490B0000 		.4byte	0xb49
 5210 0b02 07       		.uleb128 0x7
 5211 0b03 98060000 		.4byte	.LASF156
 5212 0b07 0D       		.byte	0xd
 5213 0b08 5E       		.byte	0x5e
 5214 0b09 0E010000 		.4byte	0x10e
 5215 0b0d 02       		.byte	0x2
 5216 0b0e 23       		.byte	0x23
 5217 0b0f 00       		.uleb128 0
 5218 0b10 07       		.uleb128 0x7
 5219 0b11 A8020000 		.4byte	.LASF157
 5220 0b15 0D       		.byte	0xd
 5221 0b16 5F       		.byte	0x5f
 5222 0b17 0E010000 		.4byte	0x10e
 5223 0b1b 02       		.byte	0x2
 5224 0b1c 23       		.byte	0x23
 5225 0b1d 02       		.uleb128 0x2
 5226 0b1e 08       		.uleb128 0x8
 5227 0b1f 6D617800 		.ascii	"max\000"
 5228 0b23 0D       		.byte	0xd
 5229 0b24 60       		.byte	0x60
 5230 0b25 0E010000 		.4byte	0x10e
 5231 0b29 02       		.byte	0x2
 5232 0b2a 23       		.byte	0x23
 5233 0b2b 04       		.uleb128 0x4
 5234 0b2c 08       		.uleb128 0x8
 5235 0b2d 65727200 		.ascii	"err\000"
 5236 0b31 0D       		.byte	0xd
 5237 0b32 61       		.byte	0x61
 5238 0b33 D7000000 		.4byte	0xd7
 5239 0b37 02       		.byte	0x2
ARM GAS  /var/folders/5n/p_75w94d66l9ssrldxqdhh700000gn/T//ccyVBgQE.s 			page 93


 5240 0b38 23       		.byte	0x23
 5241 0b39 06       		.uleb128 0x6
 5242 0b3a 07       		.uleb128 0x7
 5243 0b3b 15020000 		.4byte	.LASF158
 5244 0b3f 0D       		.byte	0xd
 5245 0b40 62       		.byte	0x62
 5246 0b41 D7000000 		.4byte	0xd7
 5247 0b45 02       		.byte	0x2
 5248 0b46 23       		.byte	0x23
 5249 0b47 08       		.uleb128 0x8
 5250 0b48 00       		.byte	0
 5251 0b49 06       		.uleb128 0x6
 5252 0b4a 92010000 		.4byte	.LASF159
 5253 0b4e 06       		.byte	0x6
 5254 0b4f 0D       		.byte	0xd
 5255 0b50 65       		.byte	0x65
 5256 0b51 800B0000 		.4byte	0xb80
 5257 0b55 07       		.uleb128 0x7
 5258 0b56 A8020000 		.4byte	.LASF157
 5259 0b5a 0D       		.byte	0xd
 5260 0b5b 66       		.byte	0x66
 5261 0b5c D7000000 		.4byte	0xd7
 5262 0b60 02       		.byte	0x2
 5263 0b61 23       		.byte	0x23
 5264 0b62 00       		.uleb128 0
 5265 0b63 08       		.uleb128 0x8
 5266 0b64 6D617800 		.ascii	"max\000"
 5267 0b68 0D       		.byte	0xd
 5268 0b69 67       		.byte	0x67
 5269 0b6a D7000000 		.4byte	0xd7
 5270 0b6e 02       		.byte	0x2
 5271 0b6f 23       		.byte	0x23
 5272 0b70 02       		.uleb128 0x2
 5273 0b71 08       		.uleb128 0x8
 5274 0b72 65727200 		.ascii	"err\000"
 5275 0b76 0D       		.byte	0xd
 5276 0b77 68       		.byte	0x68
 5277 0b78 D7000000 		.4byte	0xd7
 5278 0b7c 02       		.byte	0x2
 5279 0b7d 23       		.byte	0x23
 5280 0b7e 04       		.uleb128 0x4
 5281 0b7f 00       		.byte	0
 5282 0b80 06       		.uleb128 0x6
 5283 0b81 54080000 		.4byte	.LASF160
 5284 0b85 12       		.byte	0x12
 5285 0b86 0D       		.byte	0xd
 5286 0b87 6B       		.byte	0x6b
 5287 0b88 B70B0000 		.4byte	0xbb7
 5288 0b8c 08       		.uleb128 0x8
 5289 0b8d 73656D00 		.ascii	"sem\000"
 5290 0b91 0D       		.byte	0xd
 5291 0b92 6C       		.byte	0x6c
 5292 0b93 490B0000 		.4byte	0xb49
 5293 0b97 02       		.byte	0x2
 5294 0b98 23       		.byte	0x23
 5295 0b99 00       		.uleb128 0
 5296 0b9a 07       		.uleb128 0x7
ARM GAS  /var/folders/5n/p_75w94d66l9ssrldxqdhh700000gn/T//ccyVBgQE.s 			page 94


 5297 0b9b 07020000 		.4byte	.LASF161
 5298 0b9f 0D       		.byte	0xd
 5299 0ba0 6D       		.byte	0x6d
 5300 0ba1 490B0000 		.4byte	0xb49
 5301 0ba5 02       		.byte	0x2
 5302 0ba6 23       		.byte	0x23
 5303 0ba7 06       		.uleb128 0x6
 5304 0ba8 07       		.uleb128 0x7
 5305 0ba9 0C070000 		.4byte	.LASF162
 5306 0bad 0D       		.byte	0xd
 5307 0bae 6E       		.byte	0x6e
 5308 0baf 490B0000 		.4byte	0xb49
 5309 0bb3 02       		.byte	0x2
 5310 0bb4 23       		.byte	0x23
 5311 0bb5 0C       		.uleb128 0xc
 5312 0bb6 00       		.byte	0
 5313 0bb7 17       		.uleb128 0x17
 5314 0bb8 B5020000 		.4byte	.LASF163
 5315 0bbc 5001     		.2byte	0x150
 5316 0bbe 0D       		.byte	0xd
 5317 0bbf 71       		.byte	0x71
 5318 0bc0 540C0000 		.4byte	0xc54
 5319 0bc4 07       		.uleb128 0x7
 5320 0bc5 73030000 		.4byte	.LASF164
 5321 0bc9 0D       		.byte	0xd
 5322 0bca 73       		.byte	0x73
 5323 0bcb 420A0000 		.4byte	0xa42
 5324 0bcf 02       		.byte	0x2
 5325 0bd0 23       		.byte	0x23
 5326 0bd1 00       		.uleb128 0
 5327 0bd2 07       		.uleb128 0x7
 5328 0bd3 2C020000 		.4byte	.LASF165
 5329 0bd7 0D       		.byte	0xd
 5330 0bd8 76       		.byte	0x76
 5331 0bd9 420A0000 		.4byte	0xa42
 5332 0bdd 02       		.byte	0x2
 5333 0bde 23       		.byte	0x23
 5334 0bdf 18       		.uleb128 0x18
 5335 0be0 07       		.uleb128 0x7
 5336 0be1 0D020000 		.4byte	.LASF166
 5337 0be5 0D       		.byte	0xd
 5338 0be6 79       		.byte	0x79
 5339 0be7 420A0000 		.4byte	0xa42
 5340 0beb 02       		.byte	0x2
 5341 0bec 23       		.byte	0x23
 5342 0bed 30       		.uleb128 0x30
 5343 0bee 08       		.uleb128 0x8
 5344 0bef 697000   		.ascii	"ip\000"
 5345 0bf2 0D       		.byte	0xd
 5346 0bf3 7C       		.byte	0x7c
 5347 0bf4 420A0000 		.4byte	0xa42
 5348 0bf8 02       		.byte	0x2
 5349 0bf9 23       		.byte	0x23
 5350 0bfa 48       		.uleb128 0x48
 5351 0bfb 07       		.uleb128 0x7
 5352 0bfc 71060000 		.4byte	.LASF167
 5353 0c00 0D       		.byte	0xd
ARM GAS  /var/folders/5n/p_75w94d66l9ssrldxqdhh700000gn/T//ccyVBgQE.s 			page 95


 5354 0c01 7F       		.byte	0x7f
 5355 0c02 420A0000 		.4byte	0xa42
 5356 0c06 02       		.byte	0x2
 5357 0c07 23       		.byte	0x23
 5358 0c08 60       		.uleb128 0x60
 5359 0c09 08       		.uleb128 0x8
 5360 0c0a 75647000 		.ascii	"udp\000"
 5361 0c0e 0D       		.byte	0xd
 5362 0c0f 85       		.byte	0x85
 5363 0c10 420A0000 		.4byte	0xa42
 5364 0c14 02       		.byte	0x2
 5365 0c15 23       		.byte	0x23
 5366 0c16 78       		.uleb128 0x78
 5367 0c17 08       		.uleb128 0x8
 5368 0c18 74637000 		.ascii	"tcp\000"
 5369 0c1c 0D       		.byte	0xd
 5370 0c1d 88       		.byte	0x88
 5371 0c1e 420A0000 		.4byte	0xa42
 5372 0c22 03       		.byte	0x3
 5373 0c23 23       		.byte	0x23
 5374 0c24 9001     		.uleb128 0x90
 5375 0c26 08       		.uleb128 0x8
 5376 0c27 6D656D00 		.ascii	"mem\000"
 5377 0c2b 0D       		.byte	0xd
 5378 0c2c 8B       		.byte	0x8b
 5379 0c2d F60A0000 		.4byte	0xaf6
 5380 0c31 03       		.byte	0x3
 5381 0c32 23       		.byte	0x23
 5382 0c33 A801     		.uleb128 0xa8
 5383 0c35 07       		.uleb128 0x7
 5384 0c36 01050000 		.4byte	.LASF168
 5385 0c3a 0D       		.byte	0xd
 5386 0c3b 8E       		.byte	0x8e
 5387 0c3c 540C0000 		.4byte	0xc54
 5388 0c40 03       		.byte	0x3
 5389 0c41 23       		.byte	0x23
 5390 0c42 B201     		.uleb128 0xb2
 5391 0c44 08       		.uleb128 0x8
 5392 0c45 73797300 		.ascii	"sys\000"
 5393 0c49 0D       		.byte	0xd
 5394 0c4a 91       		.byte	0x91
 5395 0c4b 800B0000 		.4byte	0xb80
 5396 0c4f 03       		.byte	0x3
 5397 0c50 23       		.byte	0x23
 5398 0c51 BE02     		.uleb128 0x13e
 5399 0c53 00       		.byte	0
 5400 0c54 0C       		.uleb128 0xc
 5401 0c55 F60A0000 		.4byte	0xaf6
 5402 0c59 640C0000 		.4byte	0xc64
 5403 0c5d 0D       		.uleb128 0xd
 5404 0c5e B3000000 		.4byte	0xb3
 5405 0c62 0D       		.byte	0xd
 5406 0c63 00       		.byte	0
 5407 0c64 18       		.uleb128 0x18
 5408 0c65 D9090000 		.4byte	.LASF171
 5409 0c69 01       		.byte	0x1
 5410 0c6a D205     		.2byte	0x5d2
ARM GAS  /var/folders/5n/p_75w94d66l9ssrldxqdhh700000gn/T//ccyVBgQE.s 			page 96


 5411 0c6c 01       		.byte	0x1
 5412 0c6d 00000000 		.4byte	.LFB13
 5413 0c71 8C000000 		.4byte	.LFE13
 5414 0c75 00000000 		.4byte	.LLST0
 5415 0c79 01       		.byte	0x1
 5416 0c7a ED0C0000 		.4byte	0xced
 5417 0c7e 19       		.uleb128 0x19
 5418 0c7f 70636200 		.ascii	"pcb\000"
 5419 0c83 01       		.byte	0x1
 5420 0c84 D205     		.2byte	0x5d2
 5421 0c86 03040000 		.4byte	0x403
 5422 0c8a 20000000 		.4byte	.LLST1
 5423 0c8e 1A       		.uleb128 0x1a
 5424 0c8f 6300     		.ascii	"c\000"
 5425 0c91 01       		.byte	0x1
 5426 0c92 D405     		.2byte	0x5d4
 5427 0c94 D7000000 		.4byte	0xd7
 5428 0c98 3E000000 		.4byte	.LLST2
 5429 0c9c 1B       		.uleb128 0x1b
 5430 0c9d AC080000 		.4byte	.LASF169
 5431 0ca1 01       		.byte	0x1
 5432 0ca2 D405     		.2byte	0x5d4
 5433 0ca4 D7000000 		.4byte	0xd7
 5434 0ca8 01       		.byte	0x1
 5435 0ca9 54       		.byte	0x54
 5436 0caa 1A       		.uleb128 0x1a
 5437 0cab 6D737300 		.ascii	"mss\000"
 5438 0caf 01       		.byte	0x1
 5439 0cb0 D505     		.2byte	0x5d5
 5440 0cb2 D7000000 		.4byte	0xd7
 5441 0cb6 73000000 		.4byte	.LLST3
 5442 0cba 1C       		.uleb128 0x1c
 5443 0cbb CF060000 		.4byte	.LASF170
 5444 0cbf 01       		.byte	0x1
 5445 0cc0 D605     		.2byte	0x5d6
 5446 0cc2 ED0C0000 		.4byte	0xced
 5447 0cc6 BE000000 		.4byte	.LLST4
 5448 0cca 1A       		.uleb128 0x1a
 5449 0ccb 6F707400 		.ascii	"opt\000"
 5450 0ccf 01       		.byte	0x1
 5451 0cd0 D605     		.2byte	0x5d6
 5452 0cd2 C1000000 		.4byte	0xc1
 5453 0cd6 EB000000 		.4byte	.LLST5
 5454 0cda 1D       		.uleb128 0x1d
 5455 0cdb 0E000000 		.4byte	.LVL3
 5456 0cdf AA190000 		.4byte	0x19aa
 5457 0ce3 1D       		.uleb128 0x1d
 5458 0ce4 20000000 		.4byte	.LVL6
 5459 0ce8 AA190000 		.4byte	0x19aa
 5460 0cec 00       		.byte	0
 5461 0ced 09       		.uleb128 0x9
 5462 0cee 04       		.byte	0x4
 5463 0cef C1000000 		.4byte	0xc1
 5464 0cf3 18       		.uleb128 0x18
 5465 0cf4 5A010000 		.4byte	.LASF172
 5466 0cf8 01       		.byte	0x1
 5467 0cf9 1D03     		.2byte	0x31d
ARM GAS  /var/folders/5n/p_75w94d66l9ssrldxqdhh700000gn/T//ccyVBgQE.s 			page 97


 5468 0cfb 01       		.byte	0x1
 5469 0cfc 00000000 		.4byte	.LFB11
 5470 0d00 A8000000 		.4byte	.LFE11
 5471 0d04 11010000 		.4byte	.LLST6
 5472 0d08 01       		.byte	0x1
 5473 0d09 A40D0000 		.4byte	0xda4
 5474 0d0d 1E       		.uleb128 0x1e
 5475 0d0e 20000000 		.4byte	.LASF173
 5476 0d12 01       		.byte	0x1
 5477 0d13 1D03     		.2byte	0x31d
 5478 0d15 6C080000 		.4byte	0x86c
 5479 0d19 31010000 		.4byte	.LLST7
 5480 0d1d 1E       		.uleb128 0x1e
 5481 0d1e A2000000 		.4byte	.LASF25
 5482 0d22 01       		.byte	0x1
 5483 0d23 1D03     		.2byte	0x31d
 5484 0d25 6C080000 		.4byte	0x86c
 5485 0d29 4F010000 		.4byte	.LLST8
 5486 0d2d 1C       		.uleb128 0x1c
 5487 0d2e 3F000000 		.4byte	.LASF174
 5488 0d32 01       		.byte	0x1
 5489 0d33 1F03     		.2byte	0x31f
 5490 0d35 6C080000 		.4byte	0x86c
 5491 0d39 BB010000 		.4byte	.LLST9
 5492 0d3d 1D       		.uleb128 0x1d
 5493 0d3e 10000000 		.4byte	.LVL21
 5494 0d42 AA190000 		.4byte	0x19aa
 5495 0d46 1F       		.uleb128 0x1f
 5496 0d47 40000000 		.4byte	.LVL24
 5497 0d4b C2190000 		.4byte	0x19c2
 5498 0d4f 5A0D0000 		.4byte	0xd5a
 5499 0d53 20       		.uleb128 0x20
 5500 0d54 01       		.byte	0x1
 5501 0d55 50       		.byte	0x50
 5502 0d56 02       		.byte	0x2
 5503 0d57 75       		.byte	0x75
 5504 0d58 00       		.sleb128 0
 5505 0d59 00       		.byte	0
 5506 0d5a 1D       		.uleb128 0x1d
 5507 0d5b 60000000 		.4byte	.LVL26
 5508 0d5f AA190000 		.4byte	0x19aa
 5509 0d63 1F       		.uleb128 0x1f
 5510 0d64 6E000000 		.4byte	.LVL27
 5511 0d68 D7190000 		.4byte	0x19d7
 5512 0d6c 760D0000 		.4byte	0xd76
 5513 0d70 20       		.uleb128 0x20
 5514 0d71 01       		.byte	0x1
 5515 0d72 50       		.byte	0x50
 5516 0d73 01       		.byte	0x1
 5517 0d74 31       		.byte	0x31
 5518 0d75 00       		.byte	0
 5519 0d76 1F       		.uleb128 0x1f
 5520 0d77 7A000000 		.4byte	.LVL30
 5521 0d7b C2190000 		.4byte	0x19c2
 5522 0d7f 8A0D0000 		.4byte	0xd8a
 5523 0d83 20       		.uleb128 0x20
 5524 0d84 01       		.byte	0x1
ARM GAS  /var/folders/5n/p_75w94d66l9ssrldxqdhh700000gn/T//ccyVBgQE.s 			page 98


 5525 0d85 50       		.byte	0x50
 5526 0d86 02       		.byte	0x2
 5527 0d87 75       		.byte	0x75
 5528 0d88 00       		.sleb128 0
 5529 0d89 00       		.byte	0
 5530 0d8a 1D       		.uleb128 0x1d
 5531 0d8b 96000000 		.4byte	.LVL34
 5532 0d8f EF190000 		.4byte	0x19ef
 5533 0d93 21       		.uleb128 0x21
 5534 0d94 A2000000 		.4byte	.LVL36
 5535 0d98 081A0000 		.4byte	0x1a08
 5536 0d9c 20       		.uleb128 0x20
 5537 0d9d 01       		.byte	0x1
 5538 0d9e 50       		.byte	0x50
 5539 0d9f 02       		.byte	0x2
 5540 0da0 75       		.byte	0x75
 5541 0da1 00       		.sleb128 0
 5542 0da2 00       		.byte	0
 5543 0da3 00       		.byte	0
 5544 0da4 18       		.uleb128 0x18
 5545 0da5 E2070000 		.4byte	.LASF175
 5546 0da9 01       		.byte	0x1
 5547 0daa 4C03     		.2byte	0x34c
 5548 0dac 01       		.byte	0x1
 5549 0dad 00000000 		.4byte	.LFB12
 5550 0db1 8A090000 		.4byte	.LFE12
 5551 0db5 D9010000 		.4byte	.LLST10
 5552 0db9 01       		.byte	0x1
 5553 0dba 1D120000 		.4byte	0x121d
 5554 0dbe 19       		.uleb128 0x19
 5555 0dbf 70636200 		.ascii	"pcb\000"
 5556 0dc3 01       		.byte	0x1
 5557 0dc4 4C03     		.2byte	0x34c
 5558 0dc6 03040000 		.4byte	0x403
 5559 0dca F9010000 		.4byte	.LLST11
 5560 0dce 1C       		.uleb128 0x1c
 5561 0dcf A2000000 		.4byte	.LASF25
 5562 0dd3 01       		.byte	0x1
 5563 0dd4 4E03     		.2byte	0x34e
 5564 0dd6 6C080000 		.4byte	0x86c
 5565 0dda 5F020000 		.4byte	.LLST12
 5566 0dde 1C       		.uleb128 0x1c
 5567 0ddf C3000000 		.4byte	.LASF176
 5568 0de3 01       		.byte	0x1
 5569 0de4 5003     		.2byte	0x350
 5570 0de6 6C080000 		.4byte	0x86c
 5571 0dea E0020000 		.4byte	.LLST13
 5572 0dee 1C       		.uleb128 0x1c
 5573 0def 20000000 		.4byte	.LASF173
 5574 0df3 01       		.byte	0x1
 5575 0df4 5003     		.2byte	0x350
 5576 0df6 6C080000 		.4byte	0x86c
 5577 0dfa F3020000 		.4byte	.LLST14
 5578 0dfe 1A       		.uleb128 0x1a
 5579 0dff 7000     		.ascii	"p\000"
 5580 0e01 01       		.byte	0x1
 5581 0e02 5203     		.2byte	0x352
ARM GAS  /var/folders/5n/p_75w94d66l9ssrldxqdhh700000gn/T//ccyVBgQE.s 			page 99


 5582 0e04 88010000 		.4byte	0x188
 5583 0e08 48030000 		.4byte	.LLST15
 5584 0e0c 1A       		.uleb128 0x1a
 5585 0e0d 6F666600 		.ascii	"off\000"
 5586 0e11 01       		.byte	0x1
 5587 0e12 5303     		.2byte	0x353
 5588 0e14 F8000000 		.4byte	0xf8
 5589 0e18 87030000 		.4byte	.LLST16
 5590 0e1c 1A       		.uleb128 0x1a
 5591 0e1d 6D00     		.ascii	"m\000"
 5592 0e1f 01       		.byte	0x1
 5593 0e20 5403     		.2byte	0x354
 5594 0e22 E2000000 		.4byte	0xe2
 5595 0e26 BB030000 		.4byte	.LLST17
 5596 0e2a 1C       		.uleb128 0x1c
 5597 0e2b 5C050000 		.4byte	.LASF177
 5598 0e2f 01       		.byte	0x1
 5599 0e30 5503     		.2byte	0x355
 5600 0e32 ED000000 		.4byte	0xed
 5601 0e36 28040000 		.4byte	.LLST18
 5602 0e3a 1C       		.uleb128 0x1c
 5603 0e3b B5010000 		.4byte	.LASF178
 5604 0e3f 01       		.byte	0x1
 5605 0e40 5603     		.2byte	0x356
 5606 0e42 D7000000 		.4byte	0xd7
 5607 0e46 1E050000 		.4byte	.LLST19
 5608 0e4a 1C       		.uleb128 0x1c
 5609 0e4b 47000000 		.4byte	.LASF179
 5610 0e4f 01       		.byte	0x1
 5611 0e50 5703     		.2byte	0x357
 5612 0e52 29000000 		.4byte	0x29
 5613 0e56 3C050000 		.4byte	.LLST20
 5614 0e5a 22       		.uleb128 0x22
 5615 0e5b 6A040000 		.4byte	.LBB2
 5616 0e5f 80040000 		.4byte	.LBE2
 5617 0e63 780E0000 		.4byte	0xe78
 5618 0e67 1C       		.uleb128 0x1c
 5619 0e68 BC020000 		.4byte	.LASF180
 5620 0e6c 01       		.byte	0x1
 5621 0e6d CA03     		.2byte	0x3ca
 5622 0e6f D7000000 		.4byte	0xd7
 5623 0e73 BC050000 		.4byte	.LLST21
 5624 0e77 00       		.byte	0
 5625 0e78 22       		.uleb128 0x22
 5626 0e79 58060000 		.4byte	.LBB3
 5627 0e7d 60060000 		.4byte	.LBE3
 5628 0e81 9F0E0000 		.4byte	0xe9f
 5629 0e85 1C       		.uleb128 0x1c
 5630 0e86 DE000000 		.4byte	.LASF181
 5631 0e8a 01       		.byte	0x1
 5632 0e8b C904     		.2byte	0x4c9
 5633 0e8d 6C080000 		.4byte	0x86c
 5634 0e91 CF050000 		.4byte	.LLST22
 5635 0e95 1D       		.uleb128 0x1d
 5636 0e96 60060000 		.4byte	.LVL123
 5637 0e9a C2190000 		.4byte	0x19c2
 5638 0e9e 00       		.byte	0
ARM GAS  /var/folders/5n/p_75w94d66l9ssrldxqdhh700000gn/T//ccyVBgQE.s 			page 100


 5639 0e9f 23       		.uleb128 0x23
 5640 0ea0 5E000000 		.4byte	.LVL39
 5641 0ea4 01       		.byte	0x1
 5642 0ea5 1D1A0000 		.4byte	0x1a1d
 5643 0ea9 B40E0000 		.4byte	0xeb4
 5644 0ead 20       		.uleb128 0x20
 5645 0eae 01       		.byte	0x1
 5646 0eaf 50       		.byte	0x50
 5647 0eb0 02       		.byte	0x2
 5648 0eb1 74       		.byte	0x74
 5649 0eb2 00       		.sleb128 0
 5650 0eb3 00       		.byte	0
 5651 0eb4 1D       		.uleb128 0x1d
 5652 0eb5 B8000000 		.4byte	.LVL43
 5653 0eb9 351A0000 		.4byte	0x1a35
 5654 0ebd 1D       		.uleb128 0x1d
 5655 0ebe C8000000 		.4byte	.LVL44
 5656 0ec2 AA190000 		.4byte	0x19aa
 5657 0ec6 1D       		.uleb128 0x1d
 5658 0ec7 F8000000 		.4byte	.LVL46
 5659 0ecb 4D1A0000 		.4byte	0x1a4d
 5660 0ecf 1D       		.uleb128 0x1d
 5661 0ed0 0E010000 		.4byte	.LVL47
 5662 0ed4 4D1A0000 		.4byte	0x1a4d
 5663 0ed8 1F       		.uleb128 0x1f
 5664 0ed9 1C010000 		.4byte	.LVL48
 5665 0edd C2190000 		.4byte	0x19c2
 5666 0ee1 EC0E0000 		.4byte	0xeec
 5667 0ee5 20       		.uleb128 0x20
 5668 0ee6 01       		.byte	0x1
 5669 0ee7 50       		.byte	0x50
 5670 0ee8 02       		.byte	0x2
 5671 0ee9 75       		.byte	0x75
 5672 0eea 00       		.sleb128 0
 5673 0eeb 00       		.byte	0
 5674 0eec 1D       		.uleb128 0x1d
 5675 0eed B6010000 		.4byte	.LVL60
 5676 0ef1 AA190000 		.4byte	0x19aa
 5677 0ef5 1D       		.uleb128 0x1d
 5678 0ef6 CA010000 		.4byte	.LVL61
 5679 0efa 651A0000 		.4byte	0x1a65
 5680 0efe 1D       		.uleb128 0x1d
 5681 0eff E4010000 		.4byte	.LVL65
 5682 0f03 651A0000 		.4byte	0x1a65
 5683 0f07 1D       		.uleb128 0x1d
 5684 0f08 88020000 		.4byte	.LVL70
 5685 0f0c 351A0000 		.4byte	0x1a35
 5686 0f10 1D       		.uleb128 0x1d
 5687 0f11 96020000 		.4byte	.LVL71
 5688 0f15 AA190000 		.4byte	0x19aa
 5689 0f19 1D       		.uleb128 0x1d
 5690 0f1a BC020000 		.4byte	.LVL73
 5691 0f1e 4D1A0000 		.4byte	0x1a4d
 5692 0f22 1D       		.uleb128 0x1d
 5693 0f23 D0020000 		.4byte	.LVL74
 5694 0f27 4D1A0000 		.4byte	0x1a4d
 5695 0f2b 1F       		.uleb128 0x1f
ARM GAS  /var/folders/5n/p_75w94d66l9ssrldxqdhh700000gn/T//ccyVBgQE.s 			page 101


 5696 0f2c DC020000 		.4byte	.LVL75
 5697 0f30 C2190000 		.4byte	0x19c2
 5698 0f34 3F0F0000 		.4byte	0xf3f
 5699 0f38 20       		.uleb128 0x20
 5700 0f39 01       		.byte	0x1
 5701 0f3a 50       		.byte	0x50
 5702 0f3b 02       		.byte	0x2
 5703 0f3c 75       		.byte	0x75
 5704 0f3d 00       		.sleb128 0
 5705 0f3e 00       		.byte	0
 5706 0f3f 1D       		.uleb128 0x1d
 5707 0f40 0C030000 		.4byte	.LVL78
 5708 0f44 AA190000 		.4byte	0x19aa
 5709 0f48 1D       		.uleb128 0x1d
 5710 0f49 20030000 		.4byte	.LVL79
 5711 0f4d 651A0000 		.4byte	0x1a65
 5712 0f51 1F       		.uleb128 0x1f
 5713 0f52 2E030000 		.4byte	.LVL81
 5714 0f56 1D1A0000 		.4byte	0x1a1d
 5715 0f5a 650F0000 		.4byte	0xf65
 5716 0f5e 20       		.uleb128 0x20
 5717 0f5f 01       		.byte	0x1
 5718 0f60 50       		.byte	0x50
 5719 0f61 02       		.byte	0x2
 5720 0f62 74       		.byte	0x74
 5721 0f63 00       		.sleb128 0
 5722 0f64 00       		.byte	0
 5723 0f65 1F       		.uleb128 0x1f
 5724 0f66 7C030000 		.4byte	.LVL82
 5725 0f6a 701A0000 		.4byte	0x1a70
 5726 0f6e 7C0F0000 		.4byte	0xf7c
 5727 0f72 20       		.uleb128 0x20
 5728 0f73 01       		.byte	0x1
 5729 0f74 50       		.byte	0x50
 5730 0f75 05       		.byte	0x5
 5731 0f76 03       		.byte	0x3
 5732 0f77 00000000 		.4byte	.LANCHOR5
 5733 0f7b 00       		.byte	0
 5734 0f7c 23       		.uleb128 0x23
 5735 0f7d 8E030000 		.4byte	.LVL83
 5736 0f81 01       		.byte	0x1
 5737 0f82 F30C0000 		.4byte	0xcf3
 5738 0f86 910F0000 		.4byte	0xf91
 5739 0f8a 20       		.uleb128 0x20
 5740 0f8b 01       		.byte	0x1
 5741 0f8c 51       		.byte	0x51
 5742 0f8d 02       		.byte	0x2
 5743 0f8e 75       		.byte	0x75
 5744 0f8f 00       		.sleb128 0
 5745 0f90 00       		.byte	0
 5746 0f91 1F       		.uleb128 0x1f
 5747 0f92 26040000 		.4byte	.LVL94
 5748 0f96 891A0000 		.4byte	0x1a89
 5749 0f9a AC0F0000 		.4byte	0xfac
 5750 0f9e 20       		.uleb128 0x20
 5751 0f9f 01       		.byte	0x1
 5752 0fa0 51       		.byte	0x51
ARM GAS  /var/folders/5n/p_75w94d66l9ssrldxqdhh700000gn/T//ccyVBgQE.s 			page 102


 5753 0fa1 03       		.byte	0x3
 5754 0fa2 76       		.byte	0x76
 5755 0fa3 00       		.sleb128 0
 5756 0fa4 1F       		.byte	0x1f
 5757 0fa5 20       		.uleb128 0x20
 5758 0fa6 01       		.byte	0x1
 5759 0fa7 50       		.byte	0x50
 5760 0fa8 02       		.byte	0x2
 5761 0fa9 75       		.byte	0x75
 5762 0faa 00       		.sleb128 0
 5763 0fab 00       		.byte	0
 5764 0fac 1D       		.uleb128 0x1d
 5765 0fad C2040000 		.4byte	.LVL103
 5766 0fb1 AA190000 		.4byte	0x19aa
 5767 0fb5 1F       		.uleb128 0x1f
 5768 0fb6 CE040000 		.4byte	.LVL104
 5769 0fba 701A0000 		.4byte	0x1a70
 5770 0fbe CC0F0000 		.4byte	0xfcc
 5771 0fc2 20       		.uleb128 0x20
 5772 0fc3 01       		.byte	0x1
 5773 0fc4 50       		.byte	0x50
 5774 0fc5 05       		.byte	0x5
 5775 0fc6 03       		.byte	0x3
 5776 0fc7 00000000 		.4byte	.LANCHOR5
 5777 0fcb 00       		.byte	0
 5778 0fcc 1D       		.uleb128 0x1d
 5779 0fcd F4040000 		.4byte	.LVL105
 5780 0fd1 EF190000 		.4byte	0x19ef
 5781 0fd5 1D       		.uleb128 0x1d
 5782 0fd6 14050000 		.4byte	.LVL106
 5783 0fda AA190000 		.4byte	0x19aa
 5784 0fde 1D       		.uleb128 0x1d
 5785 0fdf 32050000 		.4byte	.LVL107
 5786 0fe3 EF190000 		.4byte	0x19ef
 5787 0fe7 1D       		.uleb128 0x1d
 5788 0fe8 3E050000 		.4byte	.LVL108
 5789 0fec AA190000 		.4byte	0x19aa
 5790 0ff0 24       		.uleb128 0x24
 5791 0ff1 68050000 		.4byte	.LVL109
 5792 0ff5 01       		.byte	0x1
 5793 0ff6 651A0000 		.4byte	0x1a65
 5794 0ffa 1D       		.uleb128 0x1d
 5795 0ffb 74050000 		.4byte	.LVL110
 5796 0fff AA190000 		.4byte	0x19aa
 5797 1003 1D       		.uleb128 0x1d
 5798 1004 9A050000 		.4byte	.LVL111
 5799 1008 AA190000 		.4byte	0x19aa
 5800 100c 1F       		.uleb128 0x1f
 5801 100d E4050000 		.4byte	.LVL115
 5802 1011 C2190000 		.4byte	0x19c2
 5803 1015 20100000 		.4byte	0x1020
 5804 1019 20       		.uleb128 0x20
 5805 101a 01       		.byte	0x1
 5806 101b 50       		.byte	0x50
 5807 101c 02       		.byte	0x2
 5808 101d 76       		.byte	0x76
 5809 101e 00       		.sleb128 0
ARM GAS  /var/folders/5n/p_75w94d66l9ssrldxqdhh700000gn/T//ccyVBgQE.s 			page 103


 5810 101f 00       		.byte	0
 5811 1020 1D       		.uleb128 0x1d
 5812 1021 10060000 		.4byte	.LVL118
 5813 1025 AA190000 		.4byte	0x19aa
 5814 1029 1D       		.uleb128 0x1d
 5815 102a 1C060000 		.4byte	.LVL119
 5816 102e AA190000 		.4byte	0x19aa
 5817 1032 1F       		.uleb128 0x1f
 5818 1033 34060000 		.4byte	.LVL120
 5819 1037 D7190000 		.4byte	0x19d7
 5820 103b 45100000 		.4byte	0x1045
 5821 103f 20       		.uleb128 0x20
 5822 1040 01       		.byte	0x1
 5823 1041 50       		.byte	0x50
 5824 1042 01       		.byte	0x1
 5825 1043 31       		.byte	0x31
 5826 1044 00       		.byte	0
 5827 1045 1D       		.uleb128 0x1d
 5828 1046 48060000 		.4byte	.LVL121
 5829 104a AA190000 		.4byte	0x19aa
 5830 104e 1F       		.uleb128 0x1f
 5831 104f 84060000 		.4byte	.LVL124
 5832 1053 A61A0000 		.4byte	0x1aa6
 5833 1057 62100000 		.4byte	0x1062
 5834 105b 20       		.uleb128 0x20
 5835 105c 01       		.byte	0x1
 5836 105d 50       		.byte	0x50
 5837 105e 02       		.byte	0x2
 5838 105f 74       		.byte	0x74
 5839 1060 00       		.sleb128 0
 5840 1061 00       		.byte	0
 5841 1062 1D       		.uleb128 0x1d
 5842 1063 9C060000 		.4byte	.LVL125
 5843 1067 AA190000 		.4byte	0x19aa
 5844 106b 1D       		.uleb128 0x1d
 5845 106c D6060000 		.4byte	.LVL127
 5846 1070 AA190000 		.4byte	0x19aa
 5847 1074 1F       		.uleb128 0x1f
 5848 1075 EC060000 		.4byte	.LVL128
 5849 1079 A61A0000 		.4byte	0x1aa6
 5850 107d 88100000 		.4byte	0x1088
 5851 1081 20       		.uleb128 0x20
 5852 1082 01       		.byte	0x1
 5853 1083 50       		.byte	0x50
 5854 1084 02       		.byte	0x2
 5855 1085 74       		.byte	0x74
 5856 1086 00       		.sleb128 0
 5857 1087 00       		.byte	0
 5858 1088 1D       		.uleb128 0x1d
 5859 1089 FE060000 		.4byte	.LVL129
 5860 108d BE1A0000 		.4byte	0x1abe
 5861 1091 1D       		.uleb128 0x1d
 5862 1092 0A070000 		.4byte	.LVL130
 5863 1096 AA190000 		.4byte	0x19aa
 5864 109a 1F       		.uleb128 0x1f
 5865 109b 26070000 		.4byte	.LVL131
 5866 109f C2190000 		.4byte	0x19c2
ARM GAS  /var/folders/5n/p_75w94d66l9ssrldxqdhh700000gn/T//ccyVBgQE.s 			page 104


 5867 10a3 AE100000 		.4byte	0x10ae
 5868 10a7 20       		.uleb128 0x20
 5869 10a8 01       		.byte	0x1
 5870 10a9 50       		.byte	0x50
 5871 10aa 02       		.byte	0x2
 5872 10ab 75       		.byte	0x75
 5873 10ac 00       		.sleb128 0
 5874 10ad 00       		.byte	0
 5875 10ae 1D       		.uleb128 0x1d
 5876 10af 42070000 		.4byte	.LVL134
 5877 10b3 AA190000 		.4byte	0x19aa
 5878 10b7 1D       		.uleb128 0x1d
 5879 10b8 5E070000 		.4byte	.LVL135
 5880 10bc AA190000 		.4byte	0x19aa
 5881 10c0 1D       		.uleb128 0x1d
 5882 10c1 70070000 		.4byte	.LVL136
 5883 10c5 651A0000 		.4byte	0x1a65
 5884 10c9 1F       		.uleb128 0x1f
 5885 10ca AA070000 		.4byte	.LVL138
 5886 10ce 701A0000 		.4byte	0x1a70
 5887 10d2 E0100000 		.4byte	0x10e0
 5888 10d6 20       		.uleb128 0x20
 5889 10d7 01       		.byte	0x1
 5890 10d8 50       		.byte	0x50
 5891 10d9 05       		.byte	0x5
 5892 10da 03       		.byte	0x3
 5893 10db 00000000 		.4byte	.LANCHOR5
 5894 10df 00       		.byte	0
 5895 10e0 1F       		.uleb128 0x1f
 5896 10e1 D6070000 		.4byte	.LVL141
 5897 10e5 891A0000 		.4byte	0x1a89
 5898 10e9 F5100000 		.4byte	0x10f5
 5899 10ed 20       		.uleb128 0x20
 5900 10ee 01       		.byte	0x1
 5901 10ef 51       		.byte	0x51
 5902 10f0 03       		.byte	0x3
 5903 10f1 76       		.byte	0x76
 5904 10f2 00       		.sleb128 0
 5905 10f3 1F       		.byte	0x1f
 5906 10f4 00       		.byte	0
 5907 10f5 1D       		.uleb128 0x1d
 5908 10f6 E0070000 		.4byte	.LVL142
 5909 10fa 651A0000 		.4byte	0x1a65
 5910 10fe 1D       		.uleb128 0x1d
 5911 10ff E6070000 		.4byte	.LVL143
 5912 1103 651A0000 		.4byte	0x1a65
 5913 1107 1F       		.uleb128 0x1f
 5914 1108 EE070000 		.4byte	.LVL145
 5915 110c 701A0000 		.4byte	0x1a70
 5916 1110 1E110000 		.4byte	0x111e
 5917 1114 20       		.uleb128 0x20
 5918 1115 01       		.byte	0x1
 5919 1116 50       		.byte	0x50
 5920 1117 05       		.byte	0x5
 5921 1118 03       		.byte	0x3
 5922 1119 00000000 		.4byte	.LANCHOR5
 5923 111d 00       		.byte	0
ARM GAS  /var/folders/5n/p_75w94d66l9ssrldxqdhh700000gn/T//ccyVBgQE.s 			page 105


 5924 111e 1D       		.uleb128 0x1d
 5925 111f 14080000 		.4byte	.LVL148
 5926 1123 EF190000 		.4byte	0x19ef
 5927 1127 23       		.uleb128 0x23
 5928 1128 22080000 		.4byte	.LVL149
 5929 112c 01       		.byte	0x1
 5930 112d F30C0000 		.4byte	0xcf3
 5931 1131 42110000 		.4byte	0x1142
 5932 1135 20       		.uleb128 0x20
 5933 1136 01       		.byte	0x1
 5934 1137 51       		.byte	0x51
 5935 1138 02       		.byte	0x2
 5936 1139 75       		.byte	0x75
 5937 113a 00       		.sleb128 0
 5938 113b 20       		.uleb128 0x20
 5939 113c 01       		.byte	0x1
 5940 113d 50       		.byte	0x50
 5941 113e 02       		.byte	0x2
 5942 113f 74       		.byte	0x74
 5943 1140 00       		.sleb128 0
 5944 1141 00       		.byte	0
 5945 1142 1D       		.uleb128 0x1d
 5946 1143 26080000 		.4byte	.LVL150
 5947 1147 651A0000 		.4byte	0x1a65
 5948 114b 1D       		.uleb128 0x1d
 5949 114c 32080000 		.4byte	.LVL152
 5950 1150 651A0000 		.4byte	0x1a65
 5951 1154 1D       		.uleb128 0x1d
 5952 1155 42080000 		.4byte	.LVL153
 5953 1159 AA190000 		.4byte	0x19aa
 5954 115d 1D       		.uleb128 0x1d
 5955 115e 54080000 		.4byte	.LVL154
 5956 1162 AA190000 		.4byte	0x19aa
 5957 1166 1D       		.uleb128 0x1d
 5958 1167 6A080000 		.4byte	.LVL155
 5959 116b EF190000 		.4byte	0x19ef
 5960 116f 1D       		.uleb128 0x1d
 5961 1170 74080000 		.4byte	.LVL156
 5962 1174 AA190000 		.4byte	0x19aa
 5963 1178 1D       		.uleb128 0x1d
 5964 1179 9A080000 		.4byte	.LVL157
 5965 117d 651A0000 		.4byte	0x1a65
 5966 1181 1D       		.uleb128 0x1d
 5967 1182 C2080000 		.4byte	.LVL160
 5968 1186 AA190000 		.4byte	0x19aa
 5969 118a 1D       		.uleb128 0x1d
 5970 118b D8080000 		.4byte	.LVL161
 5971 118f EF190000 		.4byte	0x19ef
 5972 1193 1D       		.uleb128 0x1d
 5973 1194 E2080000 		.4byte	.LVL162
 5974 1198 AA190000 		.4byte	0x19aa
 5975 119c 1D       		.uleb128 0x1d
 5976 119d 04090000 		.4byte	.LVL163
 5977 11a1 651A0000 		.4byte	0x1a65
 5978 11a5 1D       		.uleb128 0x1d
 5979 11a6 14090000 		.4byte	.LVL165
 5980 11aa 651A0000 		.4byte	0x1a65
ARM GAS  /var/folders/5n/p_75w94d66l9ssrldxqdhh700000gn/T//ccyVBgQE.s 			page 106


 5981 11ae 1F       		.uleb128 0x1f
 5982 11af 1C090000 		.4byte	.LVL167
 5983 11b3 701A0000 		.4byte	0x1a70
 5984 11b7 C5110000 		.4byte	0x11c5
 5985 11bb 20       		.uleb128 0x20
 5986 11bc 01       		.byte	0x1
 5987 11bd 50       		.byte	0x50
 5988 11be 05       		.byte	0x5
 5989 11bf 03       		.byte	0x3
 5990 11c0 00000000 		.4byte	.LANCHOR5
 5991 11c4 00       		.byte	0
 5992 11c5 1F       		.uleb128 0x1f
 5993 11c6 42090000 		.4byte	.LVL168
 5994 11ca AA190000 		.4byte	0x19aa
 5995 11ce D9110000 		.4byte	0x11d9
 5996 11d2 20       		.uleb128 0x20
 5997 11d3 01       		.byte	0x1
 5998 11d4 50       		.byte	0x50
 5999 11d5 02       		.byte	0x2
 6000 11d6 76       		.byte	0x76
 6001 11d7 00       		.sleb128 0
 6002 11d8 00       		.byte	0
 6003 11d9 1D       		.uleb128 0x1d
 6004 11da 4A090000 		.4byte	.LVL169
 6005 11de D7190000 		.4byte	0x19d7
 6006 11e2 1D       		.uleb128 0x1d
 6007 11e3 58090000 		.4byte	.LVL171
 6008 11e7 651A0000 		.4byte	0x1a65
 6009 11eb 1F       		.uleb128 0x1f
 6010 11ec 62090000 		.4byte	.LVL173
 6011 11f0 D71A0000 		.4byte	0x1ad7
 6012 11f4 FF110000 		.4byte	0x11ff
 6013 11f8 20       		.uleb128 0x20
 6014 11f9 01       		.byte	0x1
 6015 11fa 50       		.byte	0x50
 6016 11fb 02       		.byte	0x2
 6017 11fc 74       		.byte	0x74
 6018 11fd 00       		.sleb128 0
 6019 11fe 00       		.byte	0
 6020 11ff 1F       		.uleb128 0x1f
 6021 1200 78090000 		.4byte	.LVL176
 6022 1204 AA190000 		.4byte	0x19aa
 6023 1208 13120000 		.4byte	0x1213
 6024 120c 20       		.uleb128 0x20
 6025 120d 01       		.byte	0x1
 6026 120e 50       		.byte	0x50
 6027 120f 02       		.byte	0x2
 6028 1210 77       		.byte	0x77
 6029 1211 00       		.sleb128 0
 6030 1212 00       		.byte	0
 6031 1213 1D       		.uleb128 0x1d
 6032 1214 80090000 		.4byte	.LVL177
 6033 1218 D7190000 		.4byte	0x19d7
 6034 121c 00       		.byte	0
 6035 121d 25       		.uleb128 0x25
 6036 121e 5A040000 		.4byte	.LASF182
 6037 1222 01       		.byte	0x1
ARM GAS  /var/folders/5n/p_75w94d66l9ssrldxqdhh700000gn/T//ccyVBgQE.s 			page 107


 6038 1223 0E02     		.2byte	0x20e
 6039 1225 01       		.byte	0x1
 6040 1226 03010000 		.4byte	0x103
 6041 122a 01       		.byte	0x1
 6042 122b 3C120000 		.4byte	0x123c
 6043 122f 26       		.uleb128 0x26
 6044 1230 70636200 		.ascii	"pcb\000"
 6045 1234 01       		.byte	0x1
 6046 1235 0E02     		.2byte	0x20e
 6047 1237 03040000 		.4byte	0x403
 6048 123b 00       		.byte	0
 6049 123c 25       		.uleb128 0x25
 6050 123d D4060000 		.4byte	.LASF183
 6051 1241 01       		.byte	0x1
 6052 1242 BA01     		.2byte	0x1ba
 6053 1244 01       		.byte	0x1
 6054 1245 03010000 		.4byte	0x103
 6055 1249 01       		.byte	0x1
 6056 124a 72120000 		.4byte	0x1272
 6057 124e 26       		.uleb128 0x26
 6058 124f 70636200 		.ascii	"pcb\000"
 6059 1253 01       		.byte	0x1
 6060 1254 BA01     		.2byte	0x1ba
 6061 1256 25090000 		.4byte	0x925
 6062 125a 27       		.uleb128 0x27
 6063 125b 54000000 		.4byte	.LASF184
 6064 125f 01       		.byte	0x1
 6065 1260 BC01     		.2byte	0x1bc
 6066 1262 03040000 		.4byte	0x403
 6067 1266 28       		.uleb128 0x28
 6068 1267 726300   		.ascii	"rc\000"
 6069 126a 01       		.byte	0x1
 6070 126b BD01     		.2byte	0x1bd
 6071 126d 03010000 		.4byte	0x103
 6072 1271 00       		.byte	0
 6073 1272 25       		.uleb128 0x25
 6074 1273 F1030000 		.4byte	.LASF185
 6075 1277 01       		.byte	0x1
 6076 1278 3C02     		.2byte	0x23c
 6077 127a 01       		.byte	0x1
 6078 127b 03010000 		.4byte	0x103
 6079 127f 01       		.byte	0x1
 6080 1280 C3120000 		.4byte	0x12c3
 6081 1284 26       		.uleb128 0x26
 6082 1285 70636200 		.ascii	"pcb\000"
 6083 1289 01       		.byte	0x1
 6084 128a 3C02     		.2byte	0x23c
 6085 128c 03040000 		.4byte	0x403
 6086 1290 27       		.uleb128 0x27
 6087 1291 AB050000 		.4byte	.LASF186
 6088 1295 01       		.byte	0x1
 6089 1296 3E02     		.2byte	0x23e
 6090 1298 6C080000 		.4byte	0x86c
 6091 129c 27       		.uleb128 0x27
 6092 129d E8020000 		.4byte	.LASF187
 6093 12a1 01       		.byte	0x1
 6094 12a2 3F02     		.2byte	0x23f
ARM GAS  /var/folders/5n/p_75w94d66l9ssrldxqdhh700000gn/T//ccyVBgQE.s 			page 108


 6095 12a4 C1000000 		.4byte	0xc1
 6096 12a8 28       		.uleb128 0x28
 6097 12a9 65727200 		.ascii	"err\000"
 6098 12ad 01       		.byte	0x1
 6099 12ae 4002     		.2byte	0x240
 6100 12b0 03010000 		.4byte	0x103
 6101 12b4 29       		.uleb128 0x29
 6102 12b5 27       		.uleb128 0x27
 6103 12b6 25000000 		.4byte	.LASF188
 6104 12ba 01       		.byte	0x1
 6105 12bb AC02     		.2byte	0x2ac
 6106 12bd D7000000 		.4byte	0xd7
 6107 12c1 00       		.byte	0
 6108 12c2 00       		.byte	0
 6109 12c3 2A       		.uleb128 0x2a
 6110 12c4 01       		.byte	0x1
 6111 12c5 DE020000 		.4byte	.LASF239
 6112 12c9 01       		.byte	0x1
 6113 12ca 5C       		.byte	0x5c
 6114 12cb 01       		.byte	0x1
 6115 12cc 00000000 		.4byte	.LFB7
 6116 12d0 900B0000 		.4byte	.LFE7
 6117 12d4 E2050000 		.4byte	.LLST23
 6118 12d8 01       		.byte	0x1
 6119 12d9 8C180000 		.4byte	0x188c
 6120 12dd 2B       		.uleb128 0x2b
 6121 12de 7000     		.ascii	"p\000"
 6122 12e0 01       		.byte	0x1
 6123 12e1 5C       		.byte	0x5c
 6124 12e2 88010000 		.4byte	0x188
 6125 12e6 0E060000 		.4byte	.LLST24
 6126 12ea 2B       		.uleb128 0x2b
 6127 12eb 696E7000 		.ascii	"inp\000"
 6128 12ef 01       		.byte	0x1
 6129 12f0 5C       		.byte	0x5c
 6130 12f1 DA010000 		.4byte	0x1da
 6131 12f5 98070000 		.4byte	.LLST25
 6132 12f9 2C       		.uleb128 0x2c
 6133 12fa 70636200 		.ascii	"pcb\000"
 6134 12fe 01       		.byte	0x1
 6135 12ff 5E       		.byte	0x5e
 6136 1300 03040000 		.4byte	0x403
 6137 1304 DD070000 		.4byte	.LLST26
 6138 1308 2D       		.uleb128 0x2d
 6139 1309 C3000000 		.4byte	.LASF176
 6140 130d 01       		.byte	0x1
 6141 130e 5E       		.byte	0x5e
 6142 130f 03040000 		.4byte	0x403
 6143 1313 54080000 		.4byte	.LLST27
 6144 1317 2D       		.uleb128 0x2d
 6145 1318 FA080000 		.4byte	.LASF189
 6146 131c 01       		.byte	0x1
 6147 131d 5F       		.byte	0x5f
 6148 131e 25090000 		.4byte	0x925
 6149 1322 B6080000 		.4byte	.LLST28
 6150 1326 2D       		.uleb128 0x2d
 6151 1327 14090000 		.4byte	.LASF190
ARM GAS  /var/folders/5n/p_75w94d66l9ssrldxqdhh700000gn/T//ccyVBgQE.s 			page 109


 6152 132b 01       		.byte	0x1
 6153 132c 64       		.byte	0x64
 6154 132d C1000000 		.4byte	0xc1
 6155 1331 00090000 		.4byte	.LLST29
 6156 1335 2C       		.uleb128 0x2c
 6157 1336 65727200 		.ascii	"err\000"
 6158 133a 01       		.byte	0x1
 6159 133b 65       		.byte	0x65
 6160 133c 03010000 		.4byte	0x103
 6161 1340 17090000 		.4byte	.LLST30
 6162 1344 2E       		.uleb128 0x2e
 6163 1345 9E060000 		.4byte	.LASF240
 6164 1349 01       		.byte	0x1
 6165 134a 9001     		.2byte	0x190
 6166 134c 84020000 		.4byte	.L388
 6167 1350 2F       		.uleb128 0x2f
 6168 1351 72120000 		.4byte	0x1272
 6169 1355 20020000 		.4byte	.LBB11
 6170 1359 00000000 		.4byte	.Ldebug_ranges0+0
 6171 135d 01       		.byte	0x1
 6172 135e 3F01     		.2byte	0x13f
 6173 1360 00150000 		.4byte	0x1500
 6174 1364 30       		.uleb128 0x30
 6175 1365 84120000 		.4byte	0x1284
 6176 1369 78090000 		.4byte	.LLST31
 6177 136d 31       		.uleb128 0x31
 6178 136e 60000000 		.4byte	.Ldebug_ranges0+0x60
 6179 1372 32       		.uleb128 0x32
 6180 1373 90120000 		.4byte	0x1290
 6181 1377 DC090000 		.4byte	.LLST32
 6182 137b 32       		.uleb128 0x32
 6183 137c 9C120000 		.4byte	0x129c
 6184 1380 FA090000 		.4byte	.LLST33
 6185 1384 32       		.uleb128 0x32
 6186 1385 A8120000 		.4byte	0x12a8
 6187 1389 6E0A0000 		.4byte	.LLST34
 6188 138d 33       		.uleb128 0x33
 6189 138e D8000000 		.4byte	.Ldebug_ranges0+0xd8
 6190 1392 D2130000 		.4byte	0x13d2
 6191 1396 32       		.uleb128 0x32
 6192 1397 B5120000 		.4byte	0x12b5
 6193 139b 1B0B0000 		.4byte	.LLST35
 6194 139f 34       		.uleb128 0x34
 6195 13a0 E4090000 		.4byte	.LVL302
 6196 13a4 B4130000 		.4byte	0x13b4
 6197 13a8 20       		.uleb128 0x20
 6198 13a9 01       		.byte	0x1
 6199 13aa 52       		.byte	0x52
 6200 13ab 01       		.byte	0x1
 6201 13ac 30       		.byte	0x30
 6202 13ad 20       		.uleb128 0x20
 6203 13ae 01       		.byte	0x1
 6204 13af 51       		.byte	0x51
 6205 13b0 02       		.byte	0x2
 6206 13b1 77       		.byte	0x77
 6207 13b2 00       		.sleb128 0
 6208 13b3 00       		.byte	0
ARM GAS  /var/folders/5n/p_75w94d66l9ssrldxqdhh700000gn/T//ccyVBgQE.s 			page 110


 6209 13b4 1F       		.uleb128 0x1f
 6210 13b5 F2090000 		.4byte	.LVL305
 6211 13b9 A40D0000 		.4byte	0xda4
 6212 13bd C8130000 		.4byte	0x13c8
 6213 13c1 20       		.uleb128 0x20
 6214 13c2 01       		.byte	0x1
 6215 13c3 50       		.byte	0x50
 6216 13c4 02       		.byte	0x2
 6217 13c5 77       		.byte	0x77
 6218 13c6 00       		.sleb128 0
 6219 13c7 00       		.byte	0
 6220 13c8 1D       		.uleb128 0x1d
 6221 13c9 C40A0000 		.4byte	.LVL318
 6222 13cd 651A0000 		.4byte	0x1a65
 6223 13d1 00       		.byte	0
 6224 13d2 1F       		.uleb128 0x1f
 6225 13d3 D4040000 		.4byte	.LVL239
 6226 13d7 640C0000 		.4byte	0xc64
 6227 13db E6130000 		.4byte	0x13e6
 6228 13df 20       		.uleb128 0x20
 6229 13e0 01       		.byte	0x1
 6230 13e1 50       		.byte	0x50
 6231 13e2 02       		.byte	0x2
 6232 13e3 77       		.byte	0x77
 6233 13e4 00       		.sleb128 0
 6234 13e5 00       		.byte	0
 6235 13e6 1F       		.uleb128 0x1f
 6236 13e7 F8040000 		.4byte	.LVL240
 6237 13eb A40D0000 		.4byte	0xda4
 6238 13ef FA130000 		.4byte	0x13fa
 6239 13f3 20       		.uleb128 0x20
 6240 13f4 01       		.byte	0x1
 6241 13f5 50       		.byte	0x50
 6242 13f6 02       		.byte	0x2
 6243 13f7 77       		.byte	0x77
 6244 13f8 00       		.sleb128 0
 6245 13f9 00       		.byte	0
 6246 13fa 1F       		.uleb128 0x1f
 6247 13fb 2C050000 		.4byte	.LVL241
 6248 13ff A40D0000 		.4byte	0xda4
 6249 1403 0E140000 		.4byte	0x140e
 6250 1407 20       		.uleb128 0x20
 6251 1408 01       		.byte	0x1
 6252 1409 50       		.byte	0x50
 6253 140a 02       		.byte	0x2
 6254 140b 77       		.byte	0x77
 6255 140c 00       		.sleb128 0
 6256 140d 00       		.byte	0
 6257 140e 1F       		.uleb128 0x1f
 6258 140f 5C050000 		.4byte	.LVL243
 6259 1413 EB1A0000 		.4byte	0x1aeb
 6260 1417 22140000 		.4byte	0x1422
 6261 141b 20       		.uleb128 0x20
 6262 141c 01       		.byte	0x1
 6263 141d 50       		.byte	0x50
 6264 141e 02       		.byte	0x2
 6265 141f 77       		.byte	0x77
ARM GAS  /var/folders/5n/p_75w94d66l9ssrldxqdhh700000gn/T//ccyVBgQE.s 			page 111


 6266 1420 00       		.sleb128 0
 6267 1421 00       		.byte	0
 6268 1422 1D       		.uleb128 0x1d
 6269 1423 A4050000 		.4byte	.LVL244
 6270 1427 001B0000 		.4byte	0x1b00
 6271 142b 1F       		.uleb128 0x1f
 6272 142c B0050000 		.4byte	.LVL246
 6273 1430 A40D0000 		.4byte	0xda4
 6274 1434 3F140000 		.4byte	0x143f
 6275 1438 20       		.uleb128 0x20
 6276 1439 01       		.byte	0x1
 6277 143a 50       		.byte	0x50
 6278 143b 02       		.byte	0x2
 6279 143c 77       		.byte	0x77
 6280 143d 00       		.sleb128 0
 6281 143e 00       		.byte	0
 6282 143f 1F       		.uleb128 0x1f
 6283 1440 D2050000 		.4byte	.LVL247
 6284 1444 EB1A0000 		.4byte	0x1aeb
 6285 1448 53140000 		.4byte	0x1453
 6286 144c 20       		.uleb128 0x20
 6287 144d 01       		.byte	0x1
 6288 144e 50       		.byte	0x50
 6289 144f 02       		.byte	0x2
 6290 1450 77       		.byte	0x77
 6291 1451 00       		.sleb128 0
 6292 1452 00       		.byte	0
 6293 1453 1D       		.uleb128 0x1d
 6294 1454 4E060000 		.4byte	.LVL249
 6295 1458 0B1B0000 		.4byte	0x1b0b
 6296 145c 1F       		.uleb128 0x1f
 6297 145d 5A060000 		.4byte	.LVL251
 6298 1461 A40D0000 		.4byte	0xda4
 6299 1465 70140000 		.4byte	0x1470
 6300 1469 20       		.uleb128 0x20
 6301 146a 01       		.byte	0x1
 6302 146b 50       		.byte	0x50
 6303 146c 02       		.byte	0x2
 6304 146d 77       		.byte	0x77
 6305 146e 00       		.sleb128 0
 6306 146f 00       		.byte	0
 6307 1470 1F       		.uleb128 0x1f
 6308 1471 82060000 		.4byte	.LVL254
 6309 1475 A40D0000 		.4byte	0xda4
 6310 1479 84140000 		.4byte	0x1484
 6311 147d 20       		.uleb128 0x20
 6312 147e 01       		.byte	0x1
 6313 147f 50       		.byte	0x50
 6314 1480 02       		.byte	0x2
 6315 1481 77       		.byte	0x77
 6316 1482 00       		.sleb128 0
 6317 1483 00       		.byte	0
 6318 1484 1D       		.uleb128 0x1d
 6319 1485 16070000 		.4byte	.LVL258
 6320 1489 0B1B0000 		.4byte	0x1b0b
 6321 148d 1D       		.uleb128 0x1d
 6322 148e F6080000 		.4byte	.LVL285
ARM GAS  /var/folders/5n/p_75w94d66l9ssrldxqdhh700000gn/T//ccyVBgQE.s 			page 112


 6323 1492 651A0000 		.4byte	0x1a65
 6324 1496 1F       		.uleb128 0x1f
 6325 1497 A2090000 		.4byte	.LVL298
 6326 149b 391B0000 		.4byte	0x1b39
 6327 149f AA140000 		.4byte	0x14aa
 6328 14a3 20       		.uleb128 0x20
 6329 14a4 01       		.byte	0x1
 6330 14a5 50       		.byte	0x50
 6331 14a6 02       		.byte	0x2
 6332 14a7 77       		.byte	0x77
 6333 14a8 00       		.sleb128 0
 6334 14a9 00       		.byte	0
 6335 14aa 1D       		.uleb128 0x1d
 6336 14ab BA090000 		.4byte	.LVL301
 6337 14af 351A0000 		.4byte	0x1a35
 6338 14b3 1F       		.uleb128 0x1f
 6339 14b4 3C0A0000 		.4byte	.LVL309
 6340 14b8 EB1A0000 		.4byte	0x1aeb
 6341 14bc C7140000 		.4byte	0x14c7
 6342 14c0 20       		.uleb128 0x20
 6343 14c1 01       		.byte	0x1
 6344 14c2 50       		.byte	0x50
 6345 14c3 02       		.byte	0x2
 6346 14c4 77       		.byte	0x77
 6347 14c5 00       		.sleb128 0
 6348 14c6 00       		.byte	0
 6349 14c7 1F       		.uleb128 0x1f
 6350 14c8 080B0000 		.4byte	.LVL320
 6351 14cc 4D1B0000 		.4byte	0x1b4d
 6352 14d0 DB140000 		.4byte	0x14db
 6353 14d4 20       		.uleb128 0x20
 6354 14d5 01       		.byte	0x1
 6355 14d6 51       		.byte	0x51
 6356 14d7 02       		.byte	0x2
 6357 14d8 77       		.byte	0x77
 6358 14d9 04       		.sleb128 4
 6359 14da 00       		.byte	0
 6360 14db 1D       		.uleb128 0x1d
 6361 14dc 2E0B0000 		.4byte	.LVL321
 6362 14e0 651A0000 		.4byte	0x1a65
 6363 14e4 1D       		.uleb128 0x1d
 6364 14e5 4C0B0000 		.4byte	.LVL323
 6365 14e9 C2190000 		.4byte	0x19c2
 6366 14ed 35       		.uleb128 0x35
 6367 14ee 5E0B0000 		.4byte	.LVL324
 6368 14f2 20       		.uleb128 0x20
 6369 14f3 01       		.byte	0x1
 6370 14f4 52       		.byte	0x52
 6371 14f5 01       		.byte	0x1
 6372 14f6 30       		.byte	0x30
 6373 14f7 20       		.uleb128 0x20
 6374 14f8 01       		.byte	0x1
 6375 14f9 51       		.byte	0x51
 6376 14fa 02       		.byte	0x2
 6377 14fb 77       		.byte	0x77
 6378 14fc 00       		.sleb128 0
 6379 14fd 00       		.byte	0
ARM GAS  /var/folders/5n/p_75w94d66l9ssrldxqdhh700000gn/T//ccyVBgQE.s 			page 113


 6380 14fe 00       		.byte	0
 6381 14ff 00       		.byte	0
 6382 1500 36       		.uleb128 0x36
 6383 1501 1D120000 		.4byte	0x121d
 6384 1505 52030000 		.4byte	.LBB30
 6385 1509 F0000000 		.4byte	.Ldebug_ranges0+0xf0
 6386 150d 01       		.byte	0x1
 6387 150e DB       		.byte	0xdb
 6388 150f 47150000 		.4byte	0x1547
 6389 1513 30       		.uleb128 0x30
 6390 1514 2F120000 		.4byte	0x122f
 6391 1518 460B0000 		.4byte	.LLST36
 6392 151c 1F       		.uleb128 0x1f
 6393 151d 840A0000 		.4byte	.LVL311
 6394 1521 0B1B0000 		.4byte	0x1b0b
 6395 1525 36150000 		.4byte	0x1536
 6396 1529 20       		.uleb128 0x20
 6397 152a 01       		.byte	0x1
 6398 152b 53       		.byte	0x53
 6399 152c 02       		.byte	0x2
 6400 152d 7A       		.byte	0x7a
 6401 152e 00       		.sleb128 0
 6402 152f 20       		.uleb128 0x20
 6403 1530 01       		.byte	0x1
 6404 1531 52       		.byte	0x52
 6405 1532 02       		.byte	0x2
 6406 1533 78       		.byte	0x78
 6407 1534 00       		.sleb128 0
 6408 1535 00       		.byte	0
 6409 1536 21       		.uleb128 0x21
 6410 1537 A40A0000 		.4byte	.LVL312
 6411 153b 6B1B0000 		.4byte	0x1b6b
 6412 153f 20       		.uleb128 0x20
 6413 1540 01       		.byte	0x1
 6414 1541 50       		.byte	0x50
 6415 1542 02       		.byte	0x2
 6416 1543 77       		.byte	0x77
 6417 1544 00       		.sleb128 0
 6418 1545 00       		.byte	0
 6419 1546 00       		.byte	0
 6420 1547 2F       		.uleb128 0x2f
 6421 1548 3C120000 		.4byte	0x123c
 6422 154c 64070000 		.4byte	.LBB35
 6423 1550 08010000 		.4byte	.Ldebug_ranges0+0x108
 6424 1554 01       		.byte	0x1
 6425 1555 0E01     		.2byte	0x10e
 6426 1557 0E160000 		.4byte	0x160e
 6427 155b 30       		.uleb128 0x30
 6428 155c 4E120000 		.4byte	0x124e
 6429 1560 640B0000 		.4byte	.LLST37
 6430 1564 31       		.uleb128 0x31
 6431 1565 28010000 		.4byte	.Ldebug_ranges0+0x128
 6432 1569 32       		.uleb128 0x32
 6433 156a 5A120000 		.4byte	0x125a
 6434 156e 8D0B0000 		.4byte	.LLST38
 6435 1572 32       		.uleb128 0x32
 6436 1573 66120000 		.4byte	0x1266
ARM GAS  /var/folders/5n/p_75w94d66l9ssrldxqdhh700000gn/T//ccyVBgQE.s 			page 114


 6437 1577 C10B0000 		.4byte	.LLST39
 6438 157b 1D       		.uleb128 0x1d
 6439 157c 8A070000 		.4byte	.LVL268
 6440 1580 841B0000 		.4byte	0x1b84
 6441 1584 1D       		.uleb128 0x1d
 6442 1585 1A080000 		.4byte	.LVL270
 6443 1589 001B0000 		.4byte	0x1b00
 6444 158d 1F       		.uleb128 0x1f
 6445 158e 20080000 		.4byte	.LVL271
 6446 1592 640C0000 		.4byte	0xc64
 6447 1596 A1150000 		.4byte	0x15a1
 6448 159a 20       		.uleb128 0x20
 6449 159b 01       		.byte	0x1
 6450 159c 50       		.byte	0x50
 6451 159d 02       		.byte	0x2
 6452 159e 7A       		.byte	0x7a
 6453 159f 00       		.sleb128 0
 6454 15a0 00       		.byte	0
 6455 15a1 1F       		.uleb128 0x1f
 6456 15a2 2C080000 		.4byte	.LVL272
 6457 15a6 4D1B0000 		.4byte	0x1b4d
 6458 15aa B5150000 		.4byte	0x15b5
 6459 15ae 20       		.uleb128 0x20
 6460 15af 01       		.byte	0x1
 6461 15b0 51       		.byte	0x51
 6462 15b1 02       		.byte	0x2
 6463 15b2 7A       		.byte	0x7a
 6464 15b3 04       		.sleb128 4
 6465 15b4 00       		.byte	0
 6466 15b5 1F       		.uleb128 0x1f
 6467 15b6 38080000 		.4byte	.LVL273
 6468 15ba 9C1B0000 		.4byte	0x1b9c
 6469 15be CE150000 		.4byte	0x15ce
 6470 15c2 20       		.uleb128 0x20
 6471 15c3 01       		.byte	0x1
 6472 15c4 51       		.byte	0x51
 6473 15c5 01       		.byte	0x1
 6474 15c6 42       		.byte	0x42
 6475 15c7 20       		.uleb128 0x20
 6476 15c8 01       		.byte	0x1
 6477 15c9 50       		.byte	0x50
 6478 15ca 02       		.byte	0x2
 6479 15cb 7A       		.byte	0x7a
 6480 15cc 00       		.sleb128 0
 6481 15cd 00       		.byte	0
 6482 15ce 1F       		.uleb128 0x1f
 6483 15cf 42080000 		.4byte	.LVL275
 6484 15d3 6B1B0000 		.4byte	0x1b6b
 6485 15d7 E2150000 		.4byte	0x15e2
 6486 15db 20       		.uleb128 0x20
 6487 15dc 01       		.byte	0x1
 6488 15dd 50       		.byte	0x50
 6489 15de 02       		.byte	0x2
 6490 15df 7A       		.byte	0x7a
 6491 15e0 00       		.sleb128 0
 6492 15e1 00       		.byte	0
 6493 15e2 1F       		.uleb128 0x1f
ARM GAS  /var/folders/5n/p_75w94d66l9ssrldxqdhh700000gn/T//ccyVBgQE.s 			page 115


 6494 15e3 38090000 		.4byte	.LVL290
 6495 15e7 0B1B0000 		.4byte	0x1b0b
 6496 15eb F6150000 		.4byte	0x15f6
 6497 15ef 20       		.uleb128 0x20
 6498 15f0 01       		.byte	0x1
 6499 15f1 52       		.byte	0x52
 6500 15f2 02       		.byte	0x2
 6501 15f3 78       		.byte	0x78
 6502 15f4 00       		.sleb128 0
 6503 15f5 00       		.byte	0
 6504 15f6 21       		.uleb128 0x21
 6505 15f7 42090000 		.4byte	.LVL293
 6506 15fb BA1B0000 		.4byte	0x1bba
 6507 15ff 20       		.uleb128 0x20
 6508 1600 01       		.byte	0x1
 6509 1601 51       		.byte	0x51
 6510 1602 02       		.byte	0x2
 6511 1603 79       		.byte	0x79
 6512 1604 00       		.sleb128 0
 6513 1605 20       		.uleb128 0x20
 6514 1606 01       		.byte	0x1
 6515 1607 50       		.byte	0x50
 6516 1608 02       		.byte	0x2
 6517 1609 7A       		.byte	0x7a
 6518 160a 00       		.sleb128 0
 6519 160b 00       		.byte	0
 6520 160c 00       		.byte	0
 6521 160d 00       		.byte	0
 6522 160e 1D       		.uleb128 0x1d
 6523 160f 28000000 		.4byte	.LVL180
 6524 1613 AA190000 		.4byte	0x19aa
 6525 1617 1D       		.uleb128 0x1d
 6526 1618 3C000000 		.4byte	.LVL181
 6527 161c AA190000 		.4byte	0x19aa
 6528 1620 1F       		.uleb128 0x1f
 6529 1621 4A000000 		.4byte	.LVL182
 6530 1625 891A0000 		.4byte	0x1a89
 6531 1629 34160000 		.4byte	0x1634
 6532 162d 20       		.uleb128 0x20
 6533 162e 01       		.byte	0x1
 6534 162f 50       		.byte	0x50
 6535 1630 02       		.byte	0x2
 6536 1631 75       		.byte	0x75
 6537 1632 00       		.sleb128 0
 6538 1633 00       		.byte	0
 6539 1634 23       		.uleb128 0x23
 6540 1635 72000000 		.4byte	.LVL183
 6541 1639 01       		.byte	0x1
 6542 163a D31B0000 		.4byte	0x1bd3
 6543 163e 49160000 		.4byte	0x1649
 6544 1642 20       		.uleb128 0x20
 6545 1643 01       		.byte	0x1
 6546 1644 50       		.byte	0x50
 6547 1645 02       		.byte	0x2
 6548 1646 75       		.byte	0x75
 6549 1647 00       		.sleb128 0
 6550 1648 00       		.byte	0
ARM GAS  /var/folders/5n/p_75w94d66l9ssrldxqdhh700000gn/T//ccyVBgQE.s 			page 116


 6551 1649 1F       		.uleb128 0x1f
 6552 164a 80000000 		.4byte	.LVL184
 6553 164e EB1B0000 		.4byte	0x1beb
 6554 1652 5D160000 		.4byte	0x165d
 6555 1656 20       		.uleb128 0x20
 6556 1657 01       		.byte	0x1
 6557 1658 51       		.byte	0x51
 6558 1659 02       		.byte	0x2
 6559 165a 79       		.byte	0x79
 6560 165b 00       		.sleb128 0
 6561 165c 00       		.byte	0
 6562 165d 1F       		.uleb128 0x1f
 6563 165e A4000000 		.4byte	.LVL185
 6564 1662 131C0000 		.4byte	0x1c13
 6565 1666 7C160000 		.4byte	0x167c
 6566 166a 20       		.uleb128 0x20
 6567 166b 01       		.byte	0x1
 6568 166c 53       		.byte	0x53
 6569 166d 01       		.byte	0x1
 6570 166e 36       		.byte	0x36
 6571 166f 20       		.uleb128 0x20
 6572 1670 01       		.byte	0x1
 6573 1671 52       		.byte	0x52
 6574 1672 02       		.byte	0x2
 6575 1673 78       		.byte	0x78
 6576 1674 00       		.sleb128 0
 6577 1675 20       		.uleb128 0x20
 6578 1676 01       		.byte	0x1
 6579 1677 50       		.byte	0x50
 6580 1678 02       		.byte	0x2
 6581 1679 75       		.byte	0x75
 6582 167a 00       		.sleb128 0
 6583 167b 00       		.byte	0
 6584 167c 1D       		.uleb128 0x1d
 6585 167d B2000000 		.4byte	.LVL186
 6586 1681 AA190000 		.4byte	0x19aa
 6587 1685 1F       		.uleb128 0x1f
 6588 1686 C4000000 		.4byte	.LVL188
 6589 168a 891A0000 		.4byte	0x1a89
 6590 168e 99160000 		.4byte	0x1699
 6591 1692 20       		.uleb128 0x20
 6592 1693 01       		.byte	0x1
 6593 1694 50       		.byte	0x50
 6594 1695 02       		.byte	0x2
 6595 1696 75       		.byte	0x75
 6596 1697 00       		.sleb128 0
 6597 1698 00       		.byte	0
 6598 1699 1D       		.uleb128 0x1d
 6599 169a D6000000 		.4byte	.LVL190
 6600 169e AA190000 		.4byte	0x19aa
 6601 16a2 1D       		.uleb128 0x1d
 6602 16a3 E0000000 		.4byte	.LVL191
 6603 16a7 AA190000 		.4byte	0x19aa
 6604 16ab 1D       		.uleb128 0x1d
 6605 16ac EA000000 		.4byte	.LVL192
 6606 16b0 351A0000 		.4byte	0x1a35
 6607 16b4 1D       		.uleb128 0x1d
ARM GAS  /var/folders/5n/p_75w94d66l9ssrldxqdhh700000gn/T//ccyVBgQE.s 			page 117


 6608 16b5 FE000000 		.4byte	.LVL193
 6609 16b9 351A0000 		.4byte	0x1a35
 6610 16bd 1D       		.uleb128 0x1d
 6611 16be 12010000 		.4byte	.LVL194
 6612 16c2 AA190000 		.4byte	0x19aa
 6613 16c6 1D       		.uleb128 0x1d
 6614 16c7 1C010000 		.4byte	.LVL195
 6615 16cb AA190000 		.4byte	0x19aa
 6616 16cf 1D       		.uleb128 0x1d
 6617 16d0 78010000 		.4byte	.LVL201
 6618 16d4 651A0000 		.4byte	0x1a65
 6619 16d8 1D       		.uleb128 0x1d
 6620 16d9 82010000 		.4byte	.LVL202
 6621 16dd 651A0000 		.4byte	0x1a65
 6622 16e1 1D       		.uleb128 0x1d
 6623 16e2 8C010000 		.4byte	.LVL203
 6624 16e6 651A0000 		.4byte	0x1a65
 6625 16ea 34       		.uleb128 0x34
 6626 16eb 16020000 		.4byte	.LVL204
 6627 16ef FF160000 		.4byte	0x16ff
 6628 16f3 20       		.uleb128 0x20
 6629 16f4 01       		.byte	0x1
 6630 16f5 53       		.byte	0x53
 6631 16f6 01       		.byte	0x1
 6632 16f7 30       		.byte	0x30
 6633 16f8 20       		.uleb128 0x20
 6634 16f9 01       		.byte	0x1
 6635 16fa 51       		.byte	0x51
 6636 16fb 02       		.byte	0x2
 6637 16fc 77       		.byte	0x77
 6638 16fd 00       		.sleb128 0
 6639 16fe 00       		.byte	0
 6640 16ff 34       		.uleb128 0x34
 6641 1700 74020000 		.4byte	.LVL210
 6642 1704 0F170000 		.4byte	0x170f
 6643 1708 20       		.uleb128 0x20
 6644 1709 01       		.byte	0x1
 6645 170a 51       		.byte	0x51
 6646 170b 02       		.byte	0x2
 6647 170c 09       		.byte	0x9
 6648 170d F5       		.byte	0xf5
 6649 170e 00       		.byte	0
 6650 170f 1F       		.uleb128 0x1f
 6651 1710 7C020000 		.4byte	.LVL211
 6652 1714 3F1C0000 		.4byte	0x1c3f
 6653 1718 23170000 		.4byte	0x1723
 6654 171c 20       		.uleb128 0x20
 6655 171d 01       		.byte	0x1
 6656 171e 51       		.byte	0x51
 6657 171f 02       		.byte	0x2
 6658 1720 77       		.byte	0x77
 6659 1721 00       		.sleb128 0
 6660 1722 00       		.byte	0
 6661 1723 1F       		.uleb128 0x1f
 6662 1724 84020000 		.4byte	.LVL212
 6663 1728 5F1C0000 		.4byte	0x1c5f
 6664 172c 3C170000 		.4byte	0x173c
ARM GAS  /var/folders/5n/p_75w94d66l9ssrldxqdhh700000gn/T//ccyVBgQE.s 			page 118


 6665 1730 20       		.uleb128 0x20
 6666 1731 01       		.byte	0x1
 6667 1732 51       		.byte	0x51
 6668 1733 02       		.byte	0x2
 6669 1734 77       		.byte	0x77
 6670 1735 00       		.sleb128 0
 6671 1736 20       		.uleb128 0x20
 6672 1737 01       		.byte	0x1
 6673 1738 50       		.byte	0x50
 6674 1739 01       		.byte	0x1
 6675 173a 32       		.byte	0x32
 6676 173b 00       		.byte	0
 6677 173c 1D       		.uleb128 0x1d
 6678 173d 96020000 		.4byte	.LVL213
 6679 1741 D31B0000 		.4byte	0x1bd3
 6680 1745 23       		.uleb128 0x23
 6681 1746 EC020000 		.4byte	.LVL215
 6682 174a 01       		.byte	0x1
 6683 174b D31B0000 		.4byte	0x1bd3
 6684 174f 5A170000 		.4byte	0x175a
 6685 1753 20       		.uleb128 0x20
 6686 1754 01       		.byte	0x1
 6687 1755 50       		.byte	0x50
 6688 1756 02       		.byte	0x2
 6689 1757 75       		.byte	0x75
 6690 1758 00       		.sleb128 0
 6691 1759 00       		.byte	0
 6692 175a 23       		.uleb128 0x23
 6693 175b 0C030000 		.4byte	.LVL216
 6694 175f 01       		.byte	0x1
 6695 1760 D31B0000 		.4byte	0x1bd3
 6696 1764 6F170000 		.4byte	0x176f
 6697 1768 20       		.uleb128 0x20
 6698 1769 01       		.byte	0x1
 6699 176a 50       		.byte	0x50
 6700 176b 02       		.byte	0x2
 6701 176c 75       		.byte	0x75
 6702 176d 00       		.sleb128 0
 6703 176e 00       		.byte	0
 6704 176f 1D       		.uleb128 0x1d
 6705 1770 2A030000 		.4byte	.LVL219
 6706 1774 651A0000 		.4byte	0x1a65
 6707 1778 23       		.uleb128 0x23
 6708 1779 A0030000 		.4byte	.LVL222
 6709 177d 01       		.byte	0x1
 6710 177e D31B0000 		.4byte	0x1bd3
 6711 1782 8D170000 		.4byte	0x178d
 6712 1786 20       		.uleb128 0x20
 6713 1787 01       		.byte	0x1
 6714 1788 50       		.byte	0x50
 6715 1789 02       		.byte	0x2
 6716 178a 75       		.byte	0x75
 6717 178b 00       		.sleb128 0
 6718 178c 00       		.byte	0
 6719 178d 1D       		.uleb128 0x1d
 6720 178e A4030000 		.4byte	.LVL223
 6721 1792 651A0000 		.4byte	0x1a65
ARM GAS  /var/folders/5n/p_75w94d66l9ssrldxqdhh700000gn/T//ccyVBgQE.s 			page 119


 6722 1796 23       		.uleb128 0x23
 6723 1797 D4030000 		.4byte	.LVL226
 6724 179b 01       		.byte	0x1
 6725 179c D31B0000 		.4byte	0x1bd3
 6726 17a0 AB170000 		.4byte	0x17ab
 6727 17a4 20       		.uleb128 0x20
 6728 17a5 01       		.byte	0x1
 6729 17a6 50       		.byte	0x50
 6730 17a7 02       		.byte	0x2
 6731 17a8 75       		.byte	0x75
 6732 17a9 00       		.sleb128 0
 6733 17aa 00       		.byte	0
 6734 17ab 34       		.uleb128 0x34
 6735 17ac 16040000 		.4byte	.LVL230
 6736 17b0 BB170000 		.4byte	0x17bb
 6737 17b4 20       		.uleb128 0x20
 6738 17b5 01       		.byte	0x1
 6739 17b6 51       		.byte	0x51
 6740 17b7 02       		.byte	0x2
 6741 17b8 77       		.byte	0x77
 6742 17b9 00       		.sleb128 0
 6743 17ba 00       		.byte	0
 6744 17bb 1D       		.uleb128 0x1d
 6745 17bc 2C040000 		.4byte	.LVL232
 6746 17c0 651A0000 		.4byte	0x1a65
 6747 17c4 37       		.uleb128 0x37
 6748 17c5 6A040000 		.4byte	.LVL233
 6749 17c9 02       		.byte	0x2
 6750 17ca 75       		.byte	0x75
 6751 17cb 00       		.sleb128 0
 6752 17cc DC170000 		.4byte	0x17dc
 6753 17d0 20       		.uleb128 0x20
 6754 17d1 01       		.byte	0x1
 6755 17d2 53       		.byte	0x53
 6756 17d3 01       		.byte	0x1
 6757 17d4 30       		.byte	0x30
 6758 17d5 20       		.uleb128 0x20
 6759 17d6 01       		.byte	0x1
 6760 17d7 51       		.byte	0x51
 6761 17d8 02       		.byte	0x2
 6762 17d9 77       		.byte	0x77
 6763 17da 00       		.sleb128 0
 6764 17db 00       		.byte	0
 6765 17dc 37       		.uleb128 0x37
 6766 17dd A4040000 		.4byte	.LVL235
 6767 17e1 02       		.byte	0x2
 6768 17e2 75       		.byte	0x75
 6769 17e3 00       		.sleb128 0
 6770 17e4 F9170000 		.4byte	0x17f9
 6771 17e8 20       		.uleb128 0x20
 6772 17e9 01       		.byte	0x1
 6773 17ea 53       		.byte	0x53
 6774 17eb 01       		.byte	0x1
 6775 17ec 30       		.byte	0x30
 6776 17ed 20       		.uleb128 0x20
 6777 17ee 01       		.byte	0x1
 6778 17ef 52       		.byte	0x52
ARM GAS  /var/folders/5n/p_75w94d66l9ssrldxqdhh700000gn/T//ccyVBgQE.s 			page 120


 6779 17f0 01       		.byte	0x1
 6780 17f1 30       		.byte	0x30
 6781 17f2 20       		.uleb128 0x20
 6782 17f3 01       		.byte	0x1
 6783 17f4 51       		.byte	0x51
 6784 17f5 02       		.byte	0x2
 6785 17f6 77       		.byte	0x77
 6786 17f7 00       		.sleb128 0
 6787 17f8 00       		.byte	0
 6788 17f9 1F       		.uleb128 0x1f
 6789 17fa B4040000 		.4byte	.LVL237
 6790 17fe 6B1B0000 		.4byte	0x1b6b
 6791 1802 0D180000 		.4byte	0x180d
 6792 1806 20       		.uleb128 0x20
 6793 1807 01       		.byte	0x1
 6794 1808 50       		.byte	0x50
 6795 1809 02       		.byte	0x2
 6796 180a 77       		.byte	0x77
 6797 180b 00       		.sleb128 0
 6798 180c 00       		.byte	0
 6799 180d 1F       		.uleb128 0x1f
 6800 180e 4E080000 		.4byte	.LVL277
 6801 1812 781C0000 		.4byte	0x1c78
 6802 1816 21180000 		.4byte	0x1821
 6803 181a 20       		.uleb128 0x20
 6804 181b 01       		.byte	0x1
 6805 181c 51       		.byte	0x51
 6806 181d 02       		.byte	0x2
 6807 181e 77       		.byte	0x77
 6808 181f 00       		.sleb128 0
 6809 1820 00       		.byte	0
 6810 1821 1D       		.uleb128 0x1d
 6811 1822 96080000 		.4byte	.LVL282
 6812 1826 AA190000 		.4byte	0x19aa
 6813 182a 1F       		.uleb128 0x1f
 6814 182b EC080000 		.4byte	.LVL283
 6815 182f 0B1B0000 		.4byte	0x1b0b
 6816 1833 45180000 		.4byte	0x1845
 6817 1837 20       		.uleb128 0x20
 6818 1838 01       		.byte	0x1
 6819 1839 52       		.byte	0x52
 6820 183a 02       		.byte	0x2
 6821 183b 78       		.byte	0x78
 6822 183c 00       		.sleb128 0
 6823 183d 20       		.uleb128 0x20
 6824 183e 02       		.byte	0x2
 6825 183f 7D       		.byte	0x7d
 6826 1840 04       		.sleb128 4
 6827 1841 02       		.byte	0x2
 6828 1842 74       		.byte	0x74
 6829 1843 00       		.sleb128 0
 6830 1844 00       		.byte	0
 6831 1845 1D       		.uleb128 0x1d
 6832 1846 00090000 		.4byte	.LVL287
 6833 184a D31B0000 		.4byte	0x1bd3
 6834 184e 1F       		.uleb128 0x1f
 6835 184f 06090000 		.4byte	.LVL288
ARM GAS  /var/folders/5n/p_75w94d66l9ssrldxqdhh700000gn/T//ccyVBgQE.s 			page 121


 6836 1853 A01C0000 		.4byte	0x1ca0
 6837 1857 62180000 		.4byte	0x1862
 6838 185b 20       		.uleb128 0x20
 6839 185c 01       		.byte	0x1
 6840 185d 50       		.byte	0x50
 6841 185e 02       		.byte	0x2
 6842 185f 77       		.byte	0x77
 6843 1860 00       		.sleb128 0
 6844 1861 00       		.byte	0
 6845 1862 1F       		.uleb128 0x1f
 6846 1863 7A090000 		.4byte	.LVL296
 6847 1867 781C0000 		.4byte	0x1c78
 6848 186b 82180000 		.4byte	0x1882
 6849 186f 20       		.uleb128 0x20
 6850 1870 01       		.byte	0x1
 6851 1871 53       		.byte	0x53
 6852 1872 02       		.byte	0x2
 6853 1873 75       		.byte	0x75
 6854 1874 00       		.sleb128 0
 6855 1875 20       		.uleb128 0x20
 6856 1876 01       		.byte	0x1
 6857 1877 51       		.byte	0x51
 6858 1878 02       		.byte	0x2
 6859 1879 77       		.byte	0x77
 6860 187a 00       		.sleb128 0
 6861 187b 20       		.uleb128 0x20
 6862 187c 01       		.byte	0x1
 6863 187d 50       		.byte	0x50
 6864 187e 02       		.byte	0x2
 6865 187f 75       		.byte	0x75
 6866 1880 00       		.sleb128 0
 6867 1881 00       		.byte	0
 6868 1882 1D       		.uleb128 0x1d
 6869 1883 1E0A0000 		.4byte	.LVL307
 6870 1887 651A0000 		.4byte	0x1a65
 6871 188b 00       		.byte	0
 6872 188c 38       		.uleb128 0x38
 6873 188d 7D010000 		.4byte	.LASF191
 6874 1891 01       		.byte	0x1
 6875 1892 3E       		.byte	0x3e
 6876 1893 15080000 		.4byte	0x815
 6877 1897 05       		.byte	0x5
 6878 1898 03       		.byte	0x3
 6879 1899 00000000 		.4byte	inseg
 6880 189d 38       		.uleb128 0x38
 6881 189e 1D080000 		.4byte	.LASF119
 6882 18a2 01       		.byte	0x1
 6883 18a3 3F       		.byte	0x3f
 6884 18a4 A8090000 		.4byte	0x9a8
 6885 18a8 05       		.byte	0x5
 6886 18a9 03       		.byte	0x3
 6887 18aa 00000000 		.4byte	tcphdr
 6888 18ae 38       		.uleb128 0x38
 6889 18af FF080000 		.4byte	.LASF192
 6890 18b3 01       		.byte	0x1
 6891 18b4 40       		.byte	0x40
 6892 18b5 BF180000 		.4byte	0x18bf
ARM GAS  /var/folders/5n/p_75w94d66l9ssrldxqdhh700000gn/T//ccyVBgQE.s 			page 122


 6893 18b9 05       		.byte	0x5
 6894 18ba 03       		.byte	0x3
 6895 18bb 00000000 		.4byte	iphdr
 6896 18bf 09       		.uleb128 0x9
 6897 18c0 04       		.byte	0x4
 6898 18c1 4D030000 		.4byte	0x34d
 6899 18c5 38       		.uleb128 0x38
 6900 18c6 A0010000 		.4byte	.LASF122
 6901 18ca 01       		.byte	0x1
 6902 18cb 41       		.byte	0x41
 6903 18cc ED000000 		.4byte	0xed
 6904 18d0 05       		.byte	0x5
 6905 18d1 03       		.byte	0x3
 6906 18d2 00000000 		.4byte	seqno
 6907 18d6 38       		.uleb128 0x38
 6908 18d7 D0040000 		.4byte	.LASF123
 6909 18db 01       		.byte	0x1
 6910 18dc 41       		.byte	0x41
 6911 18dd ED000000 		.4byte	0xed
 6912 18e1 05       		.byte	0x5
 6913 18e2 03       		.byte	0x3
 6914 18e3 00000000 		.4byte	ackno
 6915 18e7 38       		.uleb128 0x38
 6916 18e8 74000000 		.4byte	.LASF29
 6917 18ec 01       		.byte	0x1
 6918 18ed 42       		.byte	0x42
 6919 18ee C1000000 		.4byte	0xc1
 6920 18f2 05       		.byte	0x5
 6921 18f3 03       		.byte	0x3
 6922 18f4 00000000 		.4byte	flags
 6923 18f8 38       		.uleb128 0x38
 6924 18f9 17040000 		.4byte	.LASF193
 6925 18fd 01       		.byte	0x1
 6926 18fe 43       		.byte	0x43
 6927 18ff D7000000 		.4byte	0xd7
 6928 1903 05       		.byte	0x5
 6929 1904 03       		.byte	0x3
 6930 1905 00000000 		.4byte	tcplen
 6931 1909 38       		.uleb128 0x38
 6932 190a 3E060000 		.4byte	.LASF194
 6933 190e 01       		.byte	0x1
 6934 190f 45       		.byte	0x45
 6935 1910 C1000000 		.4byte	0xc1
 6936 1914 05       		.byte	0x5
 6937 1915 03       		.byte	0x3
 6938 1916 00000000 		.4byte	recv_flags
 6939 191a 38       		.uleb128 0x38
 6940 191b 13080000 		.4byte	.LASF195
 6941 191f 01       		.byte	0x1
 6942 1920 46       		.byte	0x46
 6943 1921 88010000 		.4byte	0x188
 6944 1925 05       		.byte	0x5
 6945 1926 03       		.byte	0x3
 6946 1927 00000000 		.4byte	recv_data
 6947 192b 39       		.uleb128 0x39
 6948 192c 52020000 		.4byte	.LASF196
 6949 1930 09       		.byte	0x9
ARM GAS  /var/folders/5n/p_75w94d66l9ssrldxqdhh700000gn/T//ccyVBgQE.s 			page 123


 6950 1931 A7       		.byte	0xa7
 6951 1932 C4010000 		.4byte	0x1c4
 6952 1936 01       		.byte	0x1
 6953 1937 01       		.byte	0x1
 6954 1938 39       		.uleb128 0x39
 6955 1939 53090000 		.4byte	.LASF197
 6956 193d 09       		.byte	0x9
 6957 193e A9       		.byte	0xa9
 6958 193f C4010000 		.4byte	0x1c4
 6959 1943 01       		.byte	0x1
 6960 1944 01       		.byte	0x1
 6961 1945 3A       		.uleb128 0x3a
 6962 1946 D6040000 		.4byte	.LASF198
 6963 194a 01       		.byte	0x1
 6964 194b 48       		.byte	0x48
 6965 194c 03040000 		.4byte	0x403
 6966 1950 01       		.byte	0x1
 6967 1951 05       		.byte	0x5
 6968 1952 03       		.byte	0x3
 6969 1953 00000000 		.4byte	tcp_input_pcb
 6970 1957 3B       		.uleb128 0x3b
 6971 1958 09080000 		.4byte	.LASF199
 6972 195c 0B       		.byte	0xb
 6973 195d 3701     		.2byte	0x137
 6974 195f ED000000 		.4byte	0xed
 6975 1963 01       		.byte	0x1
 6976 1964 01       		.byte	0x1
 6977 1965 3B       		.uleb128 0x3b
 6978 1966 88050000 		.4byte	.LASF200
 6979 196a 0B       		.byte	0xb
 6980 196b 3F01     		.2byte	0x13f
 6981 196d AE090000 		.4byte	0x9ae
 6982 1971 01       		.byte	0x1
 6983 1972 01       		.byte	0x1
 6984 1973 3B       		.uleb128 0x3b
 6985 1974 7E030000 		.4byte	.LASF201
 6986 1978 0B       		.byte	0xb
 6987 1979 4001     		.2byte	0x140
 6988 197b 03040000 		.4byte	0x403
 6989 197f 01       		.byte	0x1
 6990 1980 01       		.byte	0x1
 6991 1981 3B       		.uleb128 0x3b
 6992 1982 70090000 		.4byte	.LASF202
 6993 1986 0B       		.byte	0xb
 6994 1987 4301     		.2byte	0x143
 6995 1989 03040000 		.4byte	0x403
 6996 198d 01       		.byte	0x1
 6997 198e 01       		.byte	0x1
 6998 198f 3B       		.uleb128 0x3b
 6999 1990 09030000 		.4byte	.LASF203
 7000 1994 0B       		.byte	0xb
 7001 1995 4501     		.2byte	0x145
 7002 1997 03040000 		.4byte	0x403
 7003 199b 01       		.byte	0x1
 7004 199c 01       		.byte	0x1
 7005 199d 39       		.uleb128 0x39
 7006 199e 4F010000 		.4byte	.LASF204
ARM GAS  /var/folders/5n/p_75w94d66l9ssrldxqdhh700000gn/T//ccyVBgQE.s 			page 124


 7007 19a2 0D       		.byte	0xd
 7008 19a3 95       		.byte	0x95
 7009 19a4 B70B0000 		.4byte	0xbb7
 7010 19a8 01       		.byte	0x1
 7011 19a9 01       		.byte	0x1
 7012 19aa 3C       		.uleb128 0x3c
 7013 19ab 01       		.byte	0x1
 7014 19ac 4F060000 		.4byte	.LASF205
 7015 19b0 0E       		.byte	0xe
 7016 19b1 68       		.byte	0x68
 7017 19b2 01       		.byte	0x1
 7018 19b3 D7000000 		.4byte	0xd7
 7019 19b7 01       		.byte	0x1
 7020 19b8 C2190000 		.4byte	0x19c2
 7021 19bc 0B       		.uleb128 0xb
 7022 19bd D7000000 		.4byte	0xd7
 7023 19c1 00       		.byte	0
 7024 19c2 3D       		.uleb128 0x3d
 7025 19c3 01       		.byte	0x1
 7026 19c4 1F060000 		.4byte	.LASF207
 7027 19c8 0B       		.byte	0xb
 7028 19c9 9501     		.2byte	0x195
 7029 19cb 01       		.byte	0x1
 7030 19cc 01       		.byte	0x1
 7031 19cd D7190000 		.4byte	0x19d7
 7032 19d1 0B       		.uleb128 0xb
 7033 19d2 6C080000 		.4byte	0x86c
 7034 19d6 00       		.byte	0
 7035 19d7 3C       		.uleb128 0x3c
 7036 19d8 01       		.byte	0x1
 7037 19d9 27010000 		.4byte	.LASF206
 7038 19dd 0E       		.byte	0xe
 7039 19de 67       		.byte	0x67
 7040 19df 01       		.byte	0x1
 7041 19e0 D7000000 		.4byte	0xd7
 7042 19e4 01       		.byte	0x1
 7043 19e5 EF190000 		.4byte	0x19ef
 7044 19e9 0B       		.uleb128 0xb
 7045 19ea D7000000 		.4byte	0xd7
 7046 19ee 00       		.byte	0
 7047 19ef 3E       		.uleb128 0x3e
 7048 19f0 01       		.byte	0x1
 7049 19f1 CD030000 		.4byte	.LASF208
 7050 19f5 06       		.byte	0x6
 7051 19f6 80       		.byte	0x80
 7052 19f7 01       		.byte	0x1
 7053 19f8 01       		.byte	0x1
 7054 19f9 081A0000 		.4byte	0x1a08
 7055 19fd 0B       		.uleb128 0xb
 7056 19fe 88010000 		.4byte	0x188
 7057 1a02 0B       		.uleb128 0xb
 7058 1a03 D7000000 		.4byte	0xd7
 7059 1a07 00       		.byte	0
 7060 1a08 3D       		.uleb128 0x3d
 7061 1a09 01       		.byte	0x1
 7062 1a0a A7090000 		.4byte	.LASF209
 7063 1a0e 0B       		.byte	0xb
ARM GAS  /var/folders/5n/p_75w94d66l9ssrldxqdhh700000gn/T//ccyVBgQE.s 			page 125


 7064 1a0f 9401     		.2byte	0x194
 7065 1a11 01       		.byte	0x1
 7066 1a12 01       		.byte	0x1
 7067 1a13 1D1A0000 		.4byte	0x1a1d
 7068 1a17 0B       		.uleb128 0xb
 7069 1a18 6C080000 		.4byte	0x86c
 7070 1a1c 00       		.byte	0
 7071 1a1d 3C       		.uleb128 0x3c
 7072 1a1e 01       		.byte	0x1
 7073 1a1f BC060000 		.4byte	.LASF210
 7074 1a23 0B       		.byte	0xb
 7075 1a24 45       		.byte	0x45
 7076 1a25 01       		.byte	0x1
 7077 1a26 03010000 		.4byte	0x103
 7078 1a2a 01       		.byte	0x1
 7079 1a2b 351A0000 		.4byte	0x1a35
 7080 1a2f 0B       		.uleb128 0xb
 7081 1a30 03040000 		.4byte	0x403
 7082 1a34 00       		.byte	0
 7083 1a35 3C       		.uleb128 0x3c
 7084 1a36 01       		.byte	0x1
 7085 1a37 D3000000 		.4byte	.LASF211
 7086 1a3b 0E       		.byte	0xe
 7087 1a3c 6A       		.byte	0x6a
 7088 1a3d 01       		.byte	0x1
 7089 1a3e ED000000 		.4byte	0xed
 7090 1a42 01       		.byte	0x1
 7091 1a43 4D1A0000 		.4byte	0x1a4d
 7092 1a47 0B       		.uleb128 0xb
 7093 1a48 ED000000 		.4byte	0xed
 7094 1a4c 00       		.byte	0
 7095 1a4d 3C       		.uleb128 0x3c
 7096 1a4e 01       		.byte	0x1
 7097 1a4f 54030000 		.4byte	.LASF212
 7098 1a53 06       		.byte	0x6
 7099 1a54 84       		.byte	0x84
 7100 1a55 01       		.byte	0x1
 7101 1a56 C1000000 		.4byte	0xc1
 7102 1a5a 01       		.byte	0x1
 7103 1a5b 651A0000 		.4byte	0x1a65
 7104 1a5f 0B       		.uleb128 0xb
 7105 1a60 88010000 		.4byte	0x188
 7106 1a64 00       		.byte	0
 7107 1a65 3F       		.uleb128 0x3f
 7108 1a66 01       		.byte	0x1
 7109 1a67 BF080000 		.4byte	.LASF219
 7110 1a6b 0F       		.byte	0xf
 7111 1a6c F301     		.2byte	0x1f3
 7112 1a6e 01       		.byte	0x1
 7113 1a6f 01       		.byte	0x1
 7114 1a70 40       		.uleb128 0x40
 7115 1a71 01       		.byte	0x1
 7116 1a72 3B040000 		.4byte	.LASF213
 7117 1a76 0B       		.byte	0xb
 7118 1a77 9601     		.2byte	0x196
 7119 1a79 01       		.byte	0x1
 7120 1a7a 6C080000 		.4byte	0x86c
ARM GAS  /var/folders/5n/p_75w94d66l9ssrldxqdhh700000gn/T//ccyVBgQE.s 			page 126


 7121 1a7e 01       		.byte	0x1
 7122 1a7f 891A0000 		.4byte	0x1a89
 7123 1a83 0B       		.uleb128 0xb
 7124 1a84 6C080000 		.4byte	0x86c
 7125 1a88 00       		.byte	0
 7126 1a89 3C       		.uleb128 0x3c
 7127 1a8a 01       		.byte	0x1
 7128 1a8b C1030000 		.4byte	.LASF214
 7129 1a8f 06       		.byte	0x6
 7130 1a90 81       		.byte	0x81
 7131 1a91 01       		.byte	0x1
 7132 1a92 C1000000 		.4byte	0xc1
 7133 1a96 01       		.byte	0x1
 7134 1a97 A61A0000 		.4byte	0x1aa6
 7135 1a9b 0B       		.uleb128 0xb
 7136 1a9c 88010000 		.4byte	0x188
 7137 1aa0 0B       		.uleb128 0xb
 7138 1aa1 E2000000 		.4byte	0xe2
 7139 1aa5 00       		.byte	0
 7140 1aa6 3C       		.uleb128 0x3c
 7141 1aa7 01       		.byte	0x1
 7142 1aa8 D5050000 		.4byte	.LASF215
 7143 1aac 0B       		.byte	0xb
 7144 1aad 49       		.byte	0x49
 7145 1aae 01       		.byte	0x1
 7146 1aaf ED000000 		.4byte	0xed
 7147 1ab3 01       		.byte	0x1
 7148 1ab4 BE1A0000 		.4byte	0x1abe
 7149 1ab8 0B       		.uleb128 0xb
 7150 1ab9 03040000 		.4byte	0x403
 7151 1abd 00       		.byte	0
 7152 1abe 3E       		.uleb128 0x3e
 7153 1abf 01       		.byte	0x1
 7154 1ac0 BF090000 		.4byte	.LASF216
 7155 1ac4 06       		.byte	0x6
 7156 1ac5 85       		.byte	0x85
 7157 1ac6 01       		.byte	0x1
 7158 1ac7 01       		.byte	0x1
 7159 1ac8 D71A0000 		.4byte	0x1ad7
 7160 1acc 0B       		.uleb128 0xb
 7161 1acd 88010000 		.4byte	0x188
 7162 1ad1 0B       		.uleb128 0xb
 7163 1ad2 88010000 		.4byte	0x188
 7164 1ad6 00       		.byte	0
 7165 1ad7 3E       		.uleb128 0x3e
 7166 1ad8 01       		.byte	0x1
 7167 1ad9 88090000 		.4byte	.LASF217
 7168 1add 0B       		.byte	0xb
 7169 1ade 48       		.byte	0x48
 7170 1adf 01       		.byte	0x1
 7171 1ae0 01       		.byte	0x1
 7172 1ae1 EB1A0000 		.4byte	0x1aeb
 7173 1ae5 0B       		.uleb128 0xb
 7174 1ae6 03040000 		.4byte	0x403
 7175 1aea 00       		.byte	0
 7176 1aeb 3D       		.uleb128 0x3d
 7177 1aec 01       		.byte	0x1
ARM GAS  /var/folders/5n/p_75w94d66l9ssrldxqdhh700000gn/T//ccyVBgQE.s 			page 127


 7178 1aed 15030000 		.4byte	.LASF218
 7179 1af1 0B       		.byte	0xb
 7180 1af2 9101     		.2byte	0x191
 7181 1af4 01       		.byte	0x1
 7182 1af5 01       		.byte	0x1
 7183 1af6 001B0000 		.4byte	0x1b00
 7184 1afa 0B       		.uleb128 0xb
 7185 1afb 03040000 		.4byte	0x403
 7186 1aff 00       		.byte	0
 7187 1b00 3F       		.uleb128 0x3f
 7188 1b01 01       		.byte	0x1
 7189 1b02 6B050000 		.4byte	.LASF220
 7190 1b06 0B       		.byte	0xb
 7191 1b07 CE01     		.2byte	0x1ce
 7192 1b09 01       		.byte	0x1
 7193 1b0a 01       		.byte	0x1
 7194 1b0b 3D       		.uleb128 0x3d
 7195 1b0c 01       		.byte	0x1
 7196 1b0d 2C060000 		.4byte	.LASF221
 7197 1b11 0B       		.byte	0xb
 7198 1b12 AD01     		.2byte	0x1ad
 7199 1b14 01       		.byte	0x1
 7200 1b15 01       		.byte	0x1
 7201 1b16 391B0000 		.4byte	0x1b39
 7202 1b1a 0B       		.uleb128 0xb
 7203 1b1b ED000000 		.4byte	0xed
 7204 1b1f 0B       		.uleb128 0xb
 7205 1b20 ED000000 		.4byte	0xed
 7206 1b24 0B       		.uleb128 0xb
 7207 1b25 01030000 		.4byte	0x301
 7208 1b29 0B       		.uleb128 0xb
 7209 1b2a 01030000 		.4byte	0x301
 7210 1b2e 0B       		.uleb128 0xb
 7211 1b2f D7000000 		.4byte	0xd7
 7212 1b33 0B       		.uleb128 0xb
 7213 1b34 D7000000 		.4byte	0xd7
 7214 1b38 00       		.byte	0
 7215 1b39 3E       		.uleb128 0x3e
 7216 1b3a 01       		.byte	0x1
 7217 1b3b B8000000 		.4byte	.LASF222
 7218 1b3f 0B       		.byte	0xb
 7219 1b40 46       		.byte	0x46
 7220 1b41 01       		.byte	0x1
 7221 1b42 01       		.byte	0x1
 7222 1b43 4D1B0000 		.4byte	0x1b4d
 7223 1b47 0B       		.uleb128 0xb
 7224 1b48 03040000 		.4byte	0x403
 7225 1b4c 00       		.byte	0
 7226 1b4d 40       		.uleb128 0x40
 7227 1b4e 01       		.byte	0x1
 7228 1b4f F8050000 		.4byte	.LASF223
 7229 1b53 0B       		.byte	0xb
 7230 1b54 B701     		.2byte	0x1b7
 7231 1b56 01       		.byte	0x1
 7232 1b57 D7000000 		.4byte	0xd7
 7233 1b5b 01       		.byte	0x1
 7234 1b5c 6B1B0000 		.4byte	0x1b6b
ARM GAS  /var/folders/5n/p_75w94d66l9ssrldxqdhh700000gn/T//ccyVBgQE.s 			page 128


 7235 1b60 0B       		.uleb128 0xb
 7236 1b61 D7000000 		.4byte	0xd7
 7237 1b65 0B       		.uleb128 0xb
 7238 1b66 01030000 		.4byte	0x301
 7239 1b6a 00       		.byte	0
 7240 1b6b 40       		.uleb128 0x40
 7241 1b6c 01       		.byte	0x1
 7242 1b6d 96030000 		.4byte	.LASF224
 7243 1b71 0A       		.byte	0xa
 7244 1b72 6D01     		.2byte	0x16d
 7245 1b74 01       		.byte	0x1
 7246 1b75 03010000 		.4byte	0x103
 7247 1b79 01       		.byte	0x1
 7248 1b7a 841B0000 		.4byte	0x1b84
 7249 1b7e 0B       		.uleb128 0xb
 7250 1b7f 03040000 		.4byte	0x403
 7251 1b83 00       		.byte	0
 7252 1b84 3C       		.uleb128 0x3c
 7253 1b85 01       		.byte	0x1
 7254 1b86 CF090000 		.4byte	.LASF225
 7255 1b8a 0B       		.byte	0xb
 7256 1b8b 43       		.byte	0x43
 7257 1b8c 01       		.byte	0x1
 7258 1b8d 03040000 		.4byte	0x403
 7259 1b91 01       		.byte	0x1
 7260 1b92 9C1B0000 		.4byte	0x1b9c
 7261 1b96 0B       		.uleb128 0xb
 7262 1b97 C1000000 		.4byte	0xc1
 7263 1b9b 00       		.byte	0
 7264 1b9c 40       		.uleb128 0x40
 7265 1b9d 01       		.byte	0x1
 7266 1b9e 05010000 		.4byte	.LASF226
 7267 1ba2 0B       		.byte	0xb
 7268 1ba3 A901     		.2byte	0x1a9
 7269 1ba5 01       		.byte	0x1
 7270 1ba6 03010000 		.4byte	0x103
 7271 1baa 01       		.byte	0x1
 7272 1bab BA1B0000 		.4byte	0x1bba
 7273 1baf 0B       		.uleb128 0xb
 7274 1bb0 03040000 		.4byte	0x403
 7275 1bb4 0B       		.uleb128 0xb
 7276 1bb5 C1000000 		.4byte	0xc1
 7277 1bb9 00       		.byte	0
 7278 1bba 3E       		.uleb128 0x3e
 7279 1bbb 01       		.byte	0x1
 7280 1bbc 7C090000 		.4byte	.LASF227
 7281 1bc0 0B       		.byte	0xb
 7282 1bc1 44       		.byte	0x44
 7283 1bc2 01       		.byte	0x1
 7284 1bc3 01       		.byte	0x1
 7285 1bc4 D31B0000 		.4byte	0x1bd3
 7286 1bc8 0B       		.uleb128 0xb
 7287 1bc9 03040000 		.4byte	0x403
 7288 1bcd 0B       		.uleb128 0xb
 7289 1bce 29000000 		.4byte	0x29
 7290 1bd2 00       		.byte	0
 7291 1bd3 3C       		.uleb128 0x3c
ARM GAS  /var/folders/5n/p_75w94d66l9ssrldxqdhh700000gn/T//ccyVBgQE.s 			page 129


 7292 1bd4 01       		.byte	0x1
 7293 1bd5 7F040000 		.4byte	.LASF228
 7294 1bd9 06       		.byte	0x6
 7295 1bda 83       		.byte	0x83
 7296 1bdb 01       		.byte	0x1
 7297 1bdc C1000000 		.4byte	0xc1
 7298 1be0 01       		.byte	0x1
 7299 1be1 EB1B0000 		.4byte	0x1beb
 7300 1be5 0B       		.uleb128 0xb
 7301 1be6 88010000 		.4byte	0x188
 7302 1bea 00       		.byte	0
 7303 1beb 3C       		.uleb128 0x3c
 7304 1bec 01       		.byte	0x1
 7305 1bed 5E030000 		.4byte	.LASF229
 7306 1bf1 07       		.byte	0x7
 7307 1bf2 CB       		.byte	0xcb
 7308 1bf3 01       		.byte	0x1
 7309 1bf4 C1000000 		.4byte	0xc1
 7310 1bf8 01       		.byte	0x1
 7311 1bf9 081C0000 		.4byte	0x1c08
 7312 1bfd 0B       		.uleb128 0xb
 7313 1bfe ED000000 		.4byte	0xed
 7314 1c02 0B       		.uleb128 0xb
 7315 1c03 081C0000 		.4byte	0x1c08
 7316 1c07 00       		.byte	0
 7317 1c08 09       		.uleb128 0x9
 7318 1c09 04       		.byte	0x4
 7319 1c0a 0E1C0000 		.4byte	0x1c0e
 7320 1c0e 41       		.uleb128 0x41
 7321 1c0f E0010000 		.4byte	0x1e0
 7322 1c13 3C       		.uleb128 0x3c
 7323 1c14 01       		.byte	0x1
 7324 1c15 7F060000 		.4byte	.LASF230
 7325 1c19 10       		.byte	0x10
 7326 1c1a 4B       		.byte	0x4b
 7327 1c1b 01       		.byte	0x1
 7328 1c1c D7000000 		.4byte	0xd7
 7329 1c20 01       		.byte	0x1
 7330 1c21 3F1C0000 		.4byte	0x1c3f
 7331 1c25 0B       		.uleb128 0xb
 7332 1c26 88010000 		.4byte	0x188
 7333 1c2a 0B       		.uleb128 0xb
 7334 1c2b 01030000 		.4byte	0x301
 7335 1c2f 0B       		.uleb128 0xb
 7336 1c30 01030000 		.4byte	0x301
 7337 1c34 0B       		.uleb128 0xb
 7338 1c35 C1000000 		.4byte	0xc1
 7339 1c39 0B       		.uleb128 0xb
 7340 1c3a D7000000 		.4byte	0xd7
 7341 1c3e 00       		.byte	0
 7342 1c3f 3D       		.uleb128 0x3d
 7343 1c40 01       		.byte	0x1
 7344 1c41 83010000 		.4byte	.LASF231
 7345 1c45 0B       		.byte	0xb
 7346 1c46 9201     		.2byte	0x192
 7347 1c48 01       		.byte	0x1
 7348 1c49 01       		.byte	0x1
ARM GAS  /var/folders/5n/p_75w94d66l9ssrldxqdhh700000gn/T//ccyVBgQE.s 			page 130


 7349 1c4a 591C0000 		.4byte	0x1c59
 7350 1c4e 0B       		.uleb128 0xb
 7351 1c4f 591C0000 		.4byte	0x1c59
 7352 1c53 0B       		.uleb128 0xb
 7353 1c54 03040000 		.4byte	0x403
 7354 1c58 00       		.byte	0
 7355 1c59 09       		.uleb128 0x9
 7356 1c5a 04       		.byte	0x4
 7357 1c5b 03040000 		.4byte	0x403
 7358 1c5f 3E       		.uleb128 0x3e
 7359 1c60 01       		.byte	0x1
 7360 1c61 05090000 		.4byte	.LASF232
 7361 1c65 0C       		.byte	0xc
 7362 1c66 6C       		.byte	0x6c
 7363 1c67 01       		.byte	0x1
 7364 1c68 01       		.byte	0x1
 7365 1c69 781C0000 		.4byte	0x1c78
 7366 1c6d 0B       		.uleb128 0xb
 7367 1c6e 370A0000 		.4byte	0xa37
 7368 1c72 0B       		.uleb128 0xb
 7369 1c73 B1000000 		.4byte	0xb1
 7370 1c77 00       		.byte	0
 7371 1c78 40       		.uleb128 0x40
 7372 1c79 01       		.byte	0x1
 7373 1c7a 91040000 		.4byte	.LASF233
 7374 1c7e 0B       		.byte	0xb
 7375 1c7f BB01     		.2byte	0x1bb
 7376 1c81 01       		.byte	0x1
 7377 1c82 03010000 		.4byte	0x103
 7378 1c86 01       		.byte	0x1
 7379 1c87 A01C0000 		.4byte	0x1ca0
 7380 1c8b 0B       		.uleb128 0xb
 7381 1c8c B1000000 		.4byte	0xb1
 7382 1c90 0B       		.uleb128 0xb
 7383 1c91 03040000 		.4byte	0x403
 7384 1c95 0B       		.uleb128 0xb
 7385 1c96 88010000 		.4byte	0x188
 7386 1c9a 0B       		.uleb128 0xb
 7387 1c9b 03010000 		.4byte	0x103
 7388 1c9f 00       		.byte	0
 7389 1ca0 42       		.uleb128 0x42
 7390 1ca1 01       		.byte	0x1
 7391 1ca2 CB050000 		.4byte	.LASF241
 7392 1ca6 0A       		.byte	0xa
 7393 1ca7 5C01     		.2byte	0x15c
 7394 1ca9 01       		.byte	0x1
 7395 1caa 01       		.byte	0x1
 7396 1cab 0B       		.uleb128 0xb
 7397 1cac 03040000 		.4byte	0x403
 7398 1cb0 00       		.byte	0
 7399 1cb1 00       		.byte	0
 7400              		.section	.debug_abbrev,"",%progbits
 7401              	.Ldebug_abbrev0:
 7402 0000 01       		.uleb128 0x1
 7403 0001 11       		.uleb128 0x11
 7404 0002 01       		.byte	0x1
 7405 0003 25       		.uleb128 0x25
ARM GAS  /var/folders/5n/p_75w94d66l9ssrldxqdhh700000gn/T//ccyVBgQE.s 			page 131


 7406 0004 0E       		.uleb128 0xe
 7407 0005 13       		.uleb128 0x13
 7408 0006 0B       		.uleb128 0xb
 7409 0007 03       		.uleb128 0x3
 7410 0008 0E       		.uleb128 0xe
 7411 0009 1B       		.uleb128 0x1b
 7412 000a 0E       		.uleb128 0xe
 7413 000b 55       		.uleb128 0x55
 7414 000c 06       		.uleb128 0x6
 7415 000d 11       		.uleb128 0x11
 7416 000e 01       		.uleb128 0x1
 7417 000f 52       		.uleb128 0x52
 7418 0010 01       		.uleb128 0x1
 7419 0011 10       		.uleb128 0x10
 7420 0012 06       		.uleb128 0x6
 7421 0013 00       		.byte	0
 7422 0014 00       		.byte	0
 7423 0015 02       		.uleb128 0x2
 7424 0016 24       		.uleb128 0x24
 7425 0017 00       		.byte	0
 7426 0018 0B       		.uleb128 0xb
 7427 0019 0B       		.uleb128 0xb
 7428 001a 3E       		.uleb128 0x3e
 7429 001b 0B       		.uleb128 0xb
 7430 001c 03       		.uleb128 0x3
 7431 001d 08       		.uleb128 0x8
 7432 001e 00       		.byte	0
 7433 001f 00       		.byte	0
 7434 0020 03       		.uleb128 0x3
 7435 0021 24       		.uleb128 0x24
 7436 0022 00       		.byte	0
 7437 0023 0B       		.uleb128 0xb
 7438 0024 0B       		.uleb128 0xb
 7439 0025 3E       		.uleb128 0x3e
 7440 0026 0B       		.uleb128 0xb
 7441 0027 03       		.uleb128 0x3
 7442 0028 0E       		.uleb128 0xe
 7443 0029 00       		.byte	0
 7444 002a 00       		.byte	0
 7445 002b 04       		.uleb128 0x4
 7446 002c 16       		.uleb128 0x16
 7447 002d 00       		.byte	0
 7448 002e 03       		.uleb128 0x3
 7449 002f 0E       		.uleb128 0xe
 7450 0030 3A       		.uleb128 0x3a
 7451 0031 0B       		.uleb128 0xb
 7452 0032 3B       		.uleb128 0x3b
 7453 0033 0B       		.uleb128 0xb
 7454 0034 49       		.uleb128 0x49
 7455 0035 13       		.uleb128 0x13
 7456 0036 00       		.byte	0
 7457 0037 00       		.byte	0
 7458 0038 05       		.uleb128 0x5
 7459 0039 0F       		.uleb128 0xf
 7460 003a 00       		.byte	0
 7461 003b 0B       		.uleb128 0xb
 7462 003c 0B       		.uleb128 0xb
ARM GAS  /var/folders/5n/p_75w94d66l9ssrldxqdhh700000gn/T//ccyVBgQE.s 			page 132


 7463 003d 00       		.byte	0
 7464 003e 00       		.byte	0
 7465 003f 06       		.uleb128 0x6
 7466 0040 13       		.uleb128 0x13
 7467 0041 01       		.byte	0x1
 7468 0042 03       		.uleb128 0x3
 7469 0043 0E       		.uleb128 0xe
 7470 0044 0B       		.uleb128 0xb
 7471 0045 0B       		.uleb128 0xb
 7472 0046 3A       		.uleb128 0x3a
 7473 0047 0B       		.uleb128 0xb
 7474 0048 3B       		.uleb128 0x3b
 7475 0049 0B       		.uleb128 0xb
 7476 004a 01       		.uleb128 0x1
 7477 004b 13       		.uleb128 0x13
 7478 004c 00       		.byte	0
 7479 004d 00       		.byte	0
 7480 004e 07       		.uleb128 0x7
 7481 004f 0D       		.uleb128 0xd
 7482 0050 00       		.byte	0
 7483 0051 03       		.uleb128 0x3
 7484 0052 0E       		.uleb128 0xe
 7485 0053 3A       		.uleb128 0x3a
 7486 0054 0B       		.uleb128 0xb
 7487 0055 3B       		.uleb128 0x3b
 7488 0056 0B       		.uleb128 0xb
 7489 0057 49       		.uleb128 0x49
 7490 0058 13       		.uleb128 0x13
 7491 0059 38       		.uleb128 0x38
 7492 005a 0A       		.uleb128 0xa
 7493 005b 00       		.byte	0
 7494 005c 00       		.byte	0
 7495 005d 08       		.uleb128 0x8
 7496 005e 0D       		.uleb128 0xd
 7497 005f 00       		.byte	0
 7498 0060 03       		.uleb128 0x3
 7499 0061 08       		.uleb128 0x8
 7500 0062 3A       		.uleb128 0x3a
 7501 0063 0B       		.uleb128 0xb
 7502 0064 3B       		.uleb128 0x3b
 7503 0065 0B       		.uleb128 0xb
 7504 0066 49       		.uleb128 0x49
 7505 0067 13       		.uleb128 0x13
 7506 0068 38       		.uleb128 0x38
 7507 0069 0A       		.uleb128 0xa
 7508 006a 00       		.byte	0
 7509 006b 00       		.byte	0
 7510 006c 09       		.uleb128 0x9
 7511 006d 0F       		.uleb128 0xf
 7512 006e 00       		.byte	0
 7513 006f 0B       		.uleb128 0xb
 7514 0070 0B       		.uleb128 0xb
 7515 0071 49       		.uleb128 0x49
 7516 0072 13       		.uleb128 0x13
 7517 0073 00       		.byte	0
 7518 0074 00       		.byte	0
 7519 0075 0A       		.uleb128 0xa
ARM GAS  /var/folders/5n/p_75w94d66l9ssrldxqdhh700000gn/T//ccyVBgQE.s 			page 133


 7520 0076 15       		.uleb128 0x15
 7521 0077 01       		.byte	0x1
 7522 0078 27       		.uleb128 0x27
 7523 0079 0C       		.uleb128 0xc
 7524 007a 49       		.uleb128 0x49
 7525 007b 13       		.uleb128 0x13
 7526 007c 01       		.uleb128 0x1
 7527 007d 13       		.uleb128 0x13
 7528 007e 00       		.byte	0
 7529 007f 00       		.byte	0
 7530 0080 0B       		.uleb128 0xb
 7531 0081 05       		.uleb128 0x5
 7532 0082 00       		.byte	0
 7533 0083 49       		.uleb128 0x49
 7534 0084 13       		.uleb128 0x13
 7535 0085 00       		.byte	0
 7536 0086 00       		.byte	0
 7537 0087 0C       		.uleb128 0xc
 7538 0088 01       		.uleb128 0x1
 7539 0089 01       		.byte	0x1
 7540 008a 49       		.uleb128 0x49
 7541 008b 13       		.uleb128 0x13
 7542 008c 01       		.uleb128 0x1
 7543 008d 13       		.uleb128 0x13
 7544 008e 00       		.byte	0
 7545 008f 00       		.byte	0
 7546 0090 0D       		.uleb128 0xd
 7547 0091 21       		.uleb128 0x21
 7548 0092 00       		.byte	0
 7549 0093 49       		.uleb128 0x49
 7550 0094 13       		.uleb128 0x13
 7551 0095 2F       		.uleb128 0x2f
 7552 0096 0B       		.uleb128 0xb
 7553 0097 00       		.byte	0
 7554 0098 00       		.byte	0
 7555 0099 0E       		.uleb128 0xe
 7556 009a 0D       		.uleb128 0xd
 7557 009b 00       		.byte	0
 7558 009c 03       		.uleb128 0x3
 7559 009d 0E       		.uleb128 0xe
 7560 009e 3A       		.uleb128 0x3a
 7561 009f 0B       		.uleb128 0xb
 7562 00a0 3B       		.uleb128 0x3b
 7563 00a1 05       		.uleb128 0x5
 7564 00a2 49       		.uleb128 0x49
 7565 00a3 13       		.uleb128 0x13
 7566 00a4 38       		.uleb128 0x38
 7567 00a5 0A       		.uleb128 0xa
 7568 00a6 00       		.byte	0
 7569 00a7 00       		.byte	0
 7570 00a8 0F       		.uleb128 0xf
 7571 00a9 15       		.uleb128 0x15
 7572 00aa 01       		.byte	0x1
 7573 00ab 27       		.uleb128 0x27
 7574 00ac 0C       		.uleb128 0xc
 7575 00ad 01       		.uleb128 0x1
 7576 00ae 13       		.uleb128 0x13
ARM GAS  /var/folders/5n/p_75w94d66l9ssrldxqdhh700000gn/T//ccyVBgQE.s 			page 134


 7577 00af 00       		.byte	0
 7578 00b0 00       		.byte	0
 7579 00b1 10       		.uleb128 0x10
 7580 00b2 04       		.uleb128 0x4
 7581 00b3 01       		.byte	0x1
 7582 00b4 03       		.uleb128 0x3
 7583 00b5 0E       		.uleb128 0xe
 7584 00b6 0B       		.uleb128 0xb
 7585 00b7 0B       		.uleb128 0xb
 7586 00b8 3A       		.uleb128 0x3a
 7587 00b9 0B       		.uleb128 0xb
 7588 00ba 3B       		.uleb128 0x3b
 7589 00bb 0B       		.uleb128 0xb
 7590 00bc 01       		.uleb128 0x1
 7591 00bd 13       		.uleb128 0x13
 7592 00be 00       		.byte	0
 7593 00bf 00       		.byte	0
 7594 00c0 11       		.uleb128 0x11
 7595 00c1 28       		.uleb128 0x28
 7596 00c2 00       		.byte	0
 7597 00c3 03       		.uleb128 0x3
 7598 00c4 0E       		.uleb128 0xe
 7599 00c5 1C       		.uleb128 0x1c
 7600 00c6 0D       		.uleb128 0xd
 7601 00c7 00       		.byte	0
 7602 00c8 00       		.byte	0
 7603 00c9 12       		.uleb128 0x12
 7604 00ca 13       		.uleb128 0x13
 7605 00cb 01       		.byte	0x1
 7606 00cc 03       		.uleb128 0x3
 7607 00cd 0E       		.uleb128 0xe
 7608 00ce 0B       		.uleb128 0xb
 7609 00cf 0B       		.uleb128 0xb
 7610 00d0 3A       		.uleb128 0x3a
 7611 00d1 0B       		.uleb128 0xb
 7612 00d2 3B       		.uleb128 0x3b
 7613 00d3 05       		.uleb128 0x5
 7614 00d4 01       		.uleb128 0x1
 7615 00d5 13       		.uleb128 0x13
 7616 00d6 00       		.byte	0
 7617 00d7 00       		.byte	0
 7618 00d8 13       		.uleb128 0x13
 7619 00d9 0D       		.uleb128 0xd
 7620 00da 00       		.byte	0
 7621 00db 03       		.uleb128 0x3
 7622 00dc 08       		.uleb128 0x8
 7623 00dd 3A       		.uleb128 0x3a
 7624 00de 0B       		.uleb128 0xb
 7625 00df 3B       		.uleb128 0x3b
 7626 00e0 05       		.uleb128 0x5
 7627 00e1 49       		.uleb128 0x49
 7628 00e2 13       		.uleb128 0x13
 7629 00e3 38       		.uleb128 0x38
 7630 00e4 0A       		.uleb128 0xa
 7631 00e5 00       		.byte	0
 7632 00e6 00       		.byte	0
 7633 00e7 14       		.uleb128 0x14
ARM GAS  /var/folders/5n/p_75w94d66l9ssrldxqdhh700000gn/T//ccyVBgQE.s 			page 135


 7634 00e8 17       		.uleb128 0x17
 7635 00e9 01       		.byte	0x1
 7636 00ea 03       		.uleb128 0x3
 7637 00eb 0E       		.uleb128 0xe
 7638 00ec 0B       		.uleb128 0xb
 7639 00ed 0B       		.uleb128 0xb
 7640 00ee 3A       		.uleb128 0x3a
 7641 00ef 0B       		.uleb128 0xb
 7642 00f0 3B       		.uleb128 0x3b
 7643 00f1 05       		.uleb128 0x5
 7644 00f2 01       		.uleb128 0x1
 7645 00f3 13       		.uleb128 0x13
 7646 00f4 00       		.byte	0
 7647 00f5 00       		.byte	0
 7648 00f6 15       		.uleb128 0x15
 7649 00f7 0D       		.uleb128 0xd
 7650 00f8 00       		.byte	0
 7651 00f9 03       		.uleb128 0x3
 7652 00fa 0E       		.uleb128 0xe
 7653 00fb 3A       		.uleb128 0x3a
 7654 00fc 0B       		.uleb128 0xb
 7655 00fd 3B       		.uleb128 0x3b
 7656 00fe 05       		.uleb128 0x5
 7657 00ff 49       		.uleb128 0x49
 7658 0100 13       		.uleb128 0x13
 7659 0101 00       		.byte	0
 7660 0102 00       		.byte	0
 7661 0103 16       		.uleb128 0x16
 7662 0104 04       		.uleb128 0x4
 7663 0105 01       		.byte	0x1
 7664 0106 0B       		.uleb128 0xb
 7665 0107 0B       		.uleb128 0xb
 7666 0108 3A       		.uleb128 0x3a
 7667 0109 0B       		.uleb128 0xb
 7668 010a 3B       		.uleb128 0x3b
 7669 010b 0B       		.uleb128 0xb
 7670 010c 01       		.uleb128 0x1
 7671 010d 13       		.uleb128 0x13
 7672 010e 00       		.byte	0
 7673 010f 00       		.byte	0
 7674 0110 17       		.uleb128 0x17
 7675 0111 13       		.uleb128 0x13
 7676 0112 01       		.byte	0x1
 7677 0113 03       		.uleb128 0x3
 7678 0114 0E       		.uleb128 0xe
 7679 0115 0B       		.uleb128 0xb
 7680 0116 05       		.uleb128 0x5
 7681 0117 3A       		.uleb128 0x3a
 7682 0118 0B       		.uleb128 0xb
 7683 0119 3B       		.uleb128 0x3b
 7684 011a 0B       		.uleb128 0xb
 7685 011b 01       		.uleb128 0x1
 7686 011c 13       		.uleb128 0x13
 7687 011d 00       		.byte	0
 7688 011e 00       		.byte	0
 7689 011f 18       		.uleb128 0x18
 7690 0120 2E       		.uleb128 0x2e
ARM GAS  /var/folders/5n/p_75w94d66l9ssrldxqdhh700000gn/T//ccyVBgQE.s 			page 136


 7691 0121 01       		.byte	0x1
 7692 0122 03       		.uleb128 0x3
 7693 0123 0E       		.uleb128 0xe
 7694 0124 3A       		.uleb128 0x3a
 7695 0125 0B       		.uleb128 0xb
 7696 0126 3B       		.uleb128 0x3b
 7697 0127 05       		.uleb128 0x5
 7698 0128 27       		.uleb128 0x27
 7699 0129 0C       		.uleb128 0xc
 7700 012a 11       		.uleb128 0x11
 7701 012b 01       		.uleb128 0x1
 7702 012c 12       		.uleb128 0x12
 7703 012d 01       		.uleb128 0x1
 7704 012e 40       		.uleb128 0x40
 7705 012f 06       		.uleb128 0x6
 7706 0130 9742     		.uleb128 0x2117
 7707 0132 0C       		.uleb128 0xc
 7708 0133 01       		.uleb128 0x1
 7709 0134 13       		.uleb128 0x13
 7710 0135 00       		.byte	0
 7711 0136 00       		.byte	0
 7712 0137 19       		.uleb128 0x19
 7713 0138 05       		.uleb128 0x5
 7714 0139 00       		.byte	0
 7715 013a 03       		.uleb128 0x3
 7716 013b 08       		.uleb128 0x8
 7717 013c 3A       		.uleb128 0x3a
 7718 013d 0B       		.uleb128 0xb
 7719 013e 3B       		.uleb128 0x3b
 7720 013f 05       		.uleb128 0x5
 7721 0140 49       		.uleb128 0x49
 7722 0141 13       		.uleb128 0x13
 7723 0142 02       		.uleb128 0x2
 7724 0143 06       		.uleb128 0x6
 7725 0144 00       		.byte	0
 7726 0145 00       		.byte	0
 7727 0146 1A       		.uleb128 0x1a
 7728 0147 34       		.uleb128 0x34
 7729 0148 00       		.byte	0
 7730 0149 03       		.uleb128 0x3
 7731 014a 08       		.uleb128 0x8
 7732 014b 3A       		.uleb128 0x3a
 7733 014c 0B       		.uleb128 0xb
 7734 014d 3B       		.uleb128 0x3b
 7735 014e 05       		.uleb128 0x5
 7736 014f 49       		.uleb128 0x49
 7737 0150 13       		.uleb128 0x13
 7738 0151 02       		.uleb128 0x2
 7739 0152 06       		.uleb128 0x6
 7740 0153 00       		.byte	0
 7741 0154 00       		.byte	0
 7742 0155 1B       		.uleb128 0x1b
 7743 0156 34       		.uleb128 0x34
 7744 0157 00       		.byte	0
 7745 0158 03       		.uleb128 0x3
 7746 0159 0E       		.uleb128 0xe
 7747 015a 3A       		.uleb128 0x3a
ARM GAS  /var/folders/5n/p_75w94d66l9ssrldxqdhh700000gn/T//ccyVBgQE.s 			page 137


 7748 015b 0B       		.uleb128 0xb
 7749 015c 3B       		.uleb128 0x3b
 7750 015d 05       		.uleb128 0x5
 7751 015e 49       		.uleb128 0x49
 7752 015f 13       		.uleb128 0x13
 7753 0160 02       		.uleb128 0x2
 7754 0161 0A       		.uleb128 0xa
 7755 0162 00       		.byte	0
 7756 0163 00       		.byte	0
 7757 0164 1C       		.uleb128 0x1c
 7758 0165 34       		.uleb128 0x34
 7759 0166 00       		.byte	0
 7760 0167 03       		.uleb128 0x3
 7761 0168 0E       		.uleb128 0xe
 7762 0169 3A       		.uleb128 0x3a
 7763 016a 0B       		.uleb128 0xb
 7764 016b 3B       		.uleb128 0x3b
 7765 016c 05       		.uleb128 0x5
 7766 016d 49       		.uleb128 0x49
 7767 016e 13       		.uleb128 0x13
 7768 016f 02       		.uleb128 0x2
 7769 0170 06       		.uleb128 0x6
 7770 0171 00       		.byte	0
 7771 0172 00       		.byte	0
 7772 0173 1D       		.uleb128 0x1d
 7773 0174 898201   		.uleb128 0x4109
 7774 0177 00       		.byte	0
 7775 0178 11       		.uleb128 0x11
 7776 0179 01       		.uleb128 0x1
 7777 017a 31       		.uleb128 0x31
 7778 017b 13       		.uleb128 0x13
 7779 017c 00       		.byte	0
 7780 017d 00       		.byte	0
 7781 017e 1E       		.uleb128 0x1e
 7782 017f 05       		.uleb128 0x5
 7783 0180 00       		.byte	0
 7784 0181 03       		.uleb128 0x3
 7785 0182 0E       		.uleb128 0xe
 7786 0183 3A       		.uleb128 0x3a
 7787 0184 0B       		.uleb128 0xb
 7788 0185 3B       		.uleb128 0x3b
 7789 0186 05       		.uleb128 0x5
 7790 0187 49       		.uleb128 0x49
 7791 0188 13       		.uleb128 0x13
 7792 0189 02       		.uleb128 0x2
 7793 018a 06       		.uleb128 0x6
 7794 018b 00       		.byte	0
 7795 018c 00       		.byte	0
 7796 018d 1F       		.uleb128 0x1f
 7797 018e 898201   		.uleb128 0x4109
 7798 0191 01       		.byte	0x1
 7799 0192 11       		.uleb128 0x11
 7800 0193 01       		.uleb128 0x1
 7801 0194 31       		.uleb128 0x31
 7802 0195 13       		.uleb128 0x13
 7803 0196 01       		.uleb128 0x1
 7804 0197 13       		.uleb128 0x13
ARM GAS  /var/folders/5n/p_75w94d66l9ssrldxqdhh700000gn/T//ccyVBgQE.s 			page 138


 7805 0198 00       		.byte	0
 7806 0199 00       		.byte	0
 7807 019a 20       		.uleb128 0x20
 7808 019b 8A8201   		.uleb128 0x410a
 7809 019e 00       		.byte	0
 7810 019f 02       		.uleb128 0x2
 7811 01a0 0A       		.uleb128 0xa
 7812 01a1 9142     		.uleb128 0x2111
 7813 01a3 0A       		.uleb128 0xa
 7814 01a4 00       		.byte	0
 7815 01a5 00       		.byte	0
 7816 01a6 21       		.uleb128 0x21
 7817 01a7 898201   		.uleb128 0x4109
 7818 01aa 01       		.byte	0x1
 7819 01ab 11       		.uleb128 0x11
 7820 01ac 01       		.uleb128 0x1
 7821 01ad 31       		.uleb128 0x31
 7822 01ae 13       		.uleb128 0x13
 7823 01af 00       		.byte	0
 7824 01b0 00       		.byte	0
 7825 01b1 22       		.uleb128 0x22
 7826 01b2 0B       		.uleb128 0xb
 7827 01b3 01       		.byte	0x1
 7828 01b4 11       		.uleb128 0x11
 7829 01b5 01       		.uleb128 0x1
 7830 01b6 12       		.uleb128 0x12
 7831 01b7 01       		.uleb128 0x1
 7832 01b8 01       		.uleb128 0x1
 7833 01b9 13       		.uleb128 0x13
 7834 01ba 00       		.byte	0
 7835 01bb 00       		.byte	0
 7836 01bc 23       		.uleb128 0x23
 7837 01bd 898201   		.uleb128 0x4109
 7838 01c0 01       		.byte	0x1
 7839 01c1 11       		.uleb128 0x11
 7840 01c2 01       		.uleb128 0x1
 7841 01c3 9542     		.uleb128 0x2115
 7842 01c5 0C       		.uleb128 0xc
 7843 01c6 31       		.uleb128 0x31
 7844 01c7 13       		.uleb128 0x13
 7845 01c8 01       		.uleb128 0x1
 7846 01c9 13       		.uleb128 0x13
 7847 01ca 00       		.byte	0
 7848 01cb 00       		.byte	0
 7849 01cc 24       		.uleb128 0x24
 7850 01cd 898201   		.uleb128 0x4109
 7851 01d0 00       		.byte	0
 7852 01d1 11       		.uleb128 0x11
 7853 01d2 01       		.uleb128 0x1
 7854 01d3 9542     		.uleb128 0x2115
 7855 01d5 0C       		.uleb128 0xc
 7856 01d6 31       		.uleb128 0x31
 7857 01d7 13       		.uleb128 0x13
 7858 01d8 00       		.byte	0
 7859 01d9 00       		.byte	0
 7860 01da 25       		.uleb128 0x25
 7861 01db 2E       		.uleb128 0x2e
ARM GAS  /var/folders/5n/p_75w94d66l9ssrldxqdhh700000gn/T//ccyVBgQE.s 			page 139


 7862 01dc 01       		.byte	0x1
 7863 01dd 03       		.uleb128 0x3
 7864 01de 0E       		.uleb128 0xe
 7865 01df 3A       		.uleb128 0x3a
 7866 01e0 0B       		.uleb128 0xb
 7867 01e1 3B       		.uleb128 0x3b
 7868 01e2 05       		.uleb128 0x5
 7869 01e3 27       		.uleb128 0x27
 7870 01e4 0C       		.uleb128 0xc
 7871 01e5 49       		.uleb128 0x49
 7872 01e6 13       		.uleb128 0x13
 7873 01e7 20       		.uleb128 0x20
 7874 01e8 0B       		.uleb128 0xb
 7875 01e9 01       		.uleb128 0x1
 7876 01ea 13       		.uleb128 0x13
 7877 01eb 00       		.byte	0
 7878 01ec 00       		.byte	0
 7879 01ed 26       		.uleb128 0x26
 7880 01ee 05       		.uleb128 0x5
 7881 01ef 00       		.byte	0
 7882 01f0 03       		.uleb128 0x3
 7883 01f1 08       		.uleb128 0x8
 7884 01f2 3A       		.uleb128 0x3a
 7885 01f3 0B       		.uleb128 0xb
 7886 01f4 3B       		.uleb128 0x3b
 7887 01f5 05       		.uleb128 0x5
 7888 01f6 49       		.uleb128 0x49
 7889 01f7 13       		.uleb128 0x13
 7890 01f8 00       		.byte	0
 7891 01f9 00       		.byte	0
 7892 01fa 27       		.uleb128 0x27
 7893 01fb 34       		.uleb128 0x34
 7894 01fc 00       		.byte	0
 7895 01fd 03       		.uleb128 0x3
 7896 01fe 0E       		.uleb128 0xe
 7897 01ff 3A       		.uleb128 0x3a
 7898 0200 0B       		.uleb128 0xb
 7899 0201 3B       		.uleb128 0x3b
 7900 0202 05       		.uleb128 0x5
 7901 0203 49       		.uleb128 0x49
 7902 0204 13       		.uleb128 0x13
 7903 0205 00       		.byte	0
 7904 0206 00       		.byte	0
 7905 0207 28       		.uleb128 0x28
 7906 0208 34       		.uleb128 0x34
 7907 0209 00       		.byte	0
 7908 020a 03       		.uleb128 0x3
 7909 020b 08       		.uleb128 0x8
 7910 020c 3A       		.uleb128 0x3a
 7911 020d 0B       		.uleb128 0xb
 7912 020e 3B       		.uleb128 0x3b
 7913 020f 05       		.uleb128 0x5
 7914 0210 49       		.uleb128 0x49
 7915 0211 13       		.uleb128 0x13
 7916 0212 00       		.byte	0
 7917 0213 00       		.byte	0
 7918 0214 29       		.uleb128 0x29
ARM GAS  /var/folders/5n/p_75w94d66l9ssrldxqdhh700000gn/T//ccyVBgQE.s 			page 140


 7919 0215 0B       		.uleb128 0xb
 7920 0216 01       		.byte	0x1
 7921 0217 00       		.byte	0
 7922 0218 00       		.byte	0
 7923 0219 2A       		.uleb128 0x2a
 7924 021a 2E       		.uleb128 0x2e
 7925 021b 01       		.byte	0x1
 7926 021c 3F       		.uleb128 0x3f
 7927 021d 0C       		.uleb128 0xc
 7928 021e 03       		.uleb128 0x3
 7929 021f 0E       		.uleb128 0xe
 7930 0220 3A       		.uleb128 0x3a
 7931 0221 0B       		.uleb128 0xb
 7932 0222 3B       		.uleb128 0x3b
 7933 0223 0B       		.uleb128 0xb
 7934 0224 27       		.uleb128 0x27
 7935 0225 0C       		.uleb128 0xc
 7936 0226 11       		.uleb128 0x11
 7937 0227 01       		.uleb128 0x1
 7938 0228 12       		.uleb128 0x12
 7939 0229 01       		.uleb128 0x1
 7940 022a 40       		.uleb128 0x40
 7941 022b 06       		.uleb128 0x6
 7942 022c 9742     		.uleb128 0x2117
 7943 022e 0C       		.uleb128 0xc
 7944 022f 01       		.uleb128 0x1
 7945 0230 13       		.uleb128 0x13
 7946 0231 00       		.byte	0
 7947 0232 00       		.byte	0
 7948 0233 2B       		.uleb128 0x2b
 7949 0234 05       		.uleb128 0x5
 7950 0235 00       		.byte	0
 7951 0236 03       		.uleb128 0x3
 7952 0237 08       		.uleb128 0x8
 7953 0238 3A       		.uleb128 0x3a
 7954 0239 0B       		.uleb128 0xb
 7955 023a 3B       		.uleb128 0x3b
 7956 023b 0B       		.uleb128 0xb
 7957 023c 49       		.uleb128 0x49
 7958 023d 13       		.uleb128 0x13
 7959 023e 02       		.uleb128 0x2
 7960 023f 06       		.uleb128 0x6
 7961 0240 00       		.byte	0
 7962 0241 00       		.byte	0
 7963 0242 2C       		.uleb128 0x2c
 7964 0243 34       		.uleb128 0x34
 7965 0244 00       		.byte	0
 7966 0245 03       		.uleb128 0x3
 7967 0246 08       		.uleb128 0x8
 7968 0247 3A       		.uleb128 0x3a
 7969 0248 0B       		.uleb128 0xb
 7970 0249 3B       		.uleb128 0x3b
 7971 024a 0B       		.uleb128 0xb
 7972 024b 49       		.uleb128 0x49
 7973 024c 13       		.uleb128 0x13
 7974 024d 02       		.uleb128 0x2
 7975 024e 06       		.uleb128 0x6
ARM GAS  /var/folders/5n/p_75w94d66l9ssrldxqdhh700000gn/T//ccyVBgQE.s 			page 141


 7976 024f 00       		.byte	0
 7977 0250 00       		.byte	0
 7978 0251 2D       		.uleb128 0x2d
 7979 0252 34       		.uleb128 0x34
 7980 0253 00       		.byte	0
 7981 0254 03       		.uleb128 0x3
 7982 0255 0E       		.uleb128 0xe
 7983 0256 3A       		.uleb128 0x3a
 7984 0257 0B       		.uleb128 0xb
 7985 0258 3B       		.uleb128 0x3b
 7986 0259 0B       		.uleb128 0xb
 7987 025a 49       		.uleb128 0x49
 7988 025b 13       		.uleb128 0x13
 7989 025c 02       		.uleb128 0x2
 7990 025d 06       		.uleb128 0x6
 7991 025e 00       		.byte	0
 7992 025f 00       		.byte	0
 7993 0260 2E       		.uleb128 0x2e
 7994 0261 0A       		.uleb128 0xa
 7995 0262 00       		.byte	0
 7996 0263 03       		.uleb128 0x3
 7997 0264 0E       		.uleb128 0xe
 7998 0265 3A       		.uleb128 0x3a
 7999 0266 0B       		.uleb128 0xb
 8000 0267 3B       		.uleb128 0x3b
 8001 0268 05       		.uleb128 0x5
 8002 0269 11       		.uleb128 0x11
 8003 026a 01       		.uleb128 0x1
 8004 026b 00       		.byte	0
 8005 026c 00       		.byte	0
 8006 026d 2F       		.uleb128 0x2f
 8007 026e 1D       		.uleb128 0x1d
 8008 026f 01       		.byte	0x1
 8009 0270 31       		.uleb128 0x31
 8010 0271 13       		.uleb128 0x13
 8011 0272 52       		.uleb128 0x52
 8012 0273 01       		.uleb128 0x1
 8013 0274 55       		.uleb128 0x55
 8014 0275 06       		.uleb128 0x6
 8015 0276 58       		.uleb128 0x58
 8016 0277 0B       		.uleb128 0xb
 8017 0278 59       		.uleb128 0x59
 8018 0279 05       		.uleb128 0x5
 8019 027a 01       		.uleb128 0x1
 8020 027b 13       		.uleb128 0x13
 8021 027c 00       		.byte	0
 8022 027d 00       		.byte	0
 8023 027e 30       		.uleb128 0x30
 8024 027f 05       		.uleb128 0x5
 8025 0280 00       		.byte	0
 8026 0281 31       		.uleb128 0x31
 8027 0282 13       		.uleb128 0x13
 8028 0283 02       		.uleb128 0x2
 8029 0284 06       		.uleb128 0x6
 8030 0285 00       		.byte	0
 8031 0286 00       		.byte	0
 8032 0287 31       		.uleb128 0x31
ARM GAS  /var/folders/5n/p_75w94d66l9ssrldxqdhh700000gn/T//ccyVBgQE.s 			page 142


 8033 0288 0B       		.uleb128 0xb
 8034 0289 01       		.byte	0x1
 8035 028a 55       		.uleb128 0x55
 8036 028b 06       		.uleb128 0x6
 8037 028c 00       		.byte	0
 8038 028d 00       		.byte	0
 8039 028e 32       		.uleb128 0x32
 8040 028f 34       		.uleb128 0x34
 8041 0290 00       		.byte	0
 8042 0291 31       		.uleb128 0x31
 8043 0292 13       		.uleb128 0x13
 8044 0293 02       		.uleb128 0x2
 8045 0294 06       		.uleb128 0x6
 8046 0295 00       		.byte	0
 8047 0296 00       		.byte	0
 8048 0297 33       		.uleb128 0x33
 8049 0298 0B       		.uleb128 0xb
 8050 0299 01       		.byte	0x1
 8051 029a 55       		.uleb128 0x55
 8052 029b 06       		.uleb128 0x6
 8053 029c 01       		.uleb128 0x1
 8054 029d 13       		.uleb128 0x13
 8055 029e 00       		.byte	0
 8056 029f 00       		.byte	0
 8057 02a0 34       		.uleb128 0x34
 8058 02a1 898201   		.uleb128 0x4109
 8059 02a4 01       		.byte	0x1
 8060 02a5 11       		.uleb128 0x11
 8061 02a6 01       		.uleb128 0x1
 8062 02a7 01       		.uleb128 0x1
 8063 02a8 13       		.uleb128 0x13
 8064 02a9 00       		.byte	0
 8065 02aa 00       		.byte	0
 8066 02ab 35       		.uleb128 0x35
 8067 02ac 898201   		.uleb128 0x4109
 8068 02af 01       		.byte	0x1
 8069 02b0 11       		.uleb128 0x11
 8070 02b1 01       		.uleb128 0x1
 8071 02b2 00       		.byte	0
 8072 02b3 00       		.byte	0
 8073 02b4 36       		.uleb128 0x36
 8074 02b5 1D       		.uleb128 0x1d
 8075 02b6 01       		.byte	0x1
 8076 02b7 31       		.uleb128 0x31
 8077 02b8 13       		.uleb128 0x13
 8078 02b9 52       		.uleb128 0x52
 8079 02ba 01       		.uleb128 0x1
 8080 02bb 55       		.uleb128 0x55
 8081 02bc 06       		.uleb128 0x6
 8082 02bd 58       		.uleb128 0x58
 8083 02be 0B       		.uleb128 0xb
 8084 02bf 59       		.uleb128 0x59
 8085 02c0 0B       		.uleb128 0xb
 8086 02c1 01       		.uleb128 0x1
 8087 02c2 13       		.uleb128 0x13
 8088 02c3 00       		.byte	0
 8089 02c4 00       		.byte	0
ARM GAS  /var/folders/5n/p_75w94d66l9ssrldxqdhh700000gn/T//ccyVBgQE.s 			page 143


 8090 02c5 37       		.uleb128 0x37
 8091 02c6 898201   		.uleb128 0x4109
 8092 02c9 01       		.byte	0x1
 8093 02ca 11       		.uleb128 0x11
 8094 02cb 01       		.uleb128 0x1
 8095 02cc 9342     		.uleb128 0x2113
 8096 02ce 0A       		.uleb128 0xa
 8097 02cf 01       		.uleb128 0x1
 8098 02d0 13       		.uleb128 0x13
 8099 02d1 00       		.byte	0
 8100 02d2 00       		.byte	0
 8101 02d3 38       		.uleb128 0x38
 8102 02d4 34       		.uleb128 0x34
 8103 02d5 00       		.byte	0
 8104 02d6 03       		.uleb128 0x3
 8105 02d7 0E       		.uleb128 0xe
 8106 02d8 3A       		.uleb128 0x3a
 8107 02d9 0B       		.uleb128 0xb
 8108 02da 3B       		.uleb128 0x3b
 8109 02db 0B       		.uleb128 0xb
 8110 02dc 49       		.uleb128 0x49
 8111 02dd 13       		.uleb128 0x13
 8112 02de 02       		.uleb128 0x2
 8113 02df 0A       		.uleb128 0xa
 8114 02e0 00       		.byte	0
 8115 02e1 00       		.byte	0
 8116 02e2 39       		.uleb128 0x39
 8117 02e3 34       		.uleb128 0x34
 8118 02e4 00       		.byte	0
 8119 02e5 03       		.uleb128 0x3
 8120 02e6 0E       		.uleb128 0xe
 8121 02e7 3A       		.uleb128 0x3a
 8122 02e8 0B       		.uleb128 0xb
 8123 02e9 3B       		.uleb128 0x3b
 8124 02ea 0B       		.uleb128 0xb
 8125 02eb 49       		.uleb128 0x49
 8126 02ec 13       		.uleb128 0x13
 8127 02ed 3F       		.uleb128 0x3f
 8128 02ee 0C       		.uleb128 0xc
 8129 02ef 3C       		.uleb128 0x3c
 8130 02f0 0C       		.uleb128 0xc
 8131 02f1 00       		.byte	0
 8132 02f2 00       		.byte	0
 8133 02f3 3A       		.uleb128 0x3a
 8134 02f4 34       		.uleb128 0x34
 8135 02f5 00       		.byte	0
 8136 02f6 03       		.uleb128 0x3
 8137 02f7 0E       		.uleb128 0xe
 8138 02f8 3A       		.uleb128 0x3a
 8139 02f9 0B       		.uleb128 0xb
 8140 02fa 3B       		.uleb128 0x3b
 8141 02fb 0B       		.uleb128 0xb
 8142 02fc 49       		.uleb128 0x49
 8143 02fd 13       		.uleb128 0x13
 8144 02fe 3F       		.uleb128 0x3f
 8145 02ff 0C       		.uleb128 0xc
 8146 0300 02       		.uleb128 0x2
ARM GAS  /var/folders/5n/p_75w94d66l9ssrldxqdhh700000gn/T//ccyVBgQE.s 			page 144


 8147 0301 0A       		.uleb128 0xa
 8148 0302 00       		.byte	0
 8149 0303 00       		.byte	0
 8150 0304 3B       		.uleb128 0x3b
 8151 0305 34       		.uleb128 0x34
 8152 0306 00       		.byte	0
 8153 0307 03       		.uleb128 0x3
 8154 0308 0E       		.uleb128 0xe
 8155 0309 3A       		.uleb128 0x3a
 8156 030a 0B       		.uleb128 0xb
 8157 030b 3B       		.uleb128 0x3b
 8158 030c 05       		.uleb128 0x5
 8159 030d 49       		.uleb128 0x49
 8160 030e 13       		.uleb128 0x13
 8161 030f 3F       		.uleb128 0x3f
 8162 0310 0C       		.uleb128 0xc
 8163 0311 3C       		.uleb128 0x3c
 8164 0312 0C       		.uleb128 0xc
 8165 0313 00       		.byte	0
 8166 0314 00       		.byte	0
 8167 0315 3C       		.uleb128 0x3c
 8168 0316 2E       		.uleb128 0x2e
 8169 0317 01       		.byte	0x1
 8170 0318 3F       		.uleb128 0x3f
 8171 0319 0C       		.uleb128 0xc
 8172 031a 03       		.uleb128 0x3
 8173 031b 0E       		.uleb128 0xe
 8174 031c 3A       		.uleb128 0x3a
 8175 031d 0B       		.uleb128 0xb
 8176 031e 3B       		.uleb128 0x3b
 8177 031f 0B       		.uleb128 0xb
 8178 0320 27       		.uleb128 0x27
 8179 0321 0C       		.uleb128 0xc
 8180 0322 49       		.uleb128 0x49
 8181 0323 13       		.uleb128 0x13
 8182 0324 3C       		.uleb128 0x3c
 8183 0325 0C       		.uleb128 0xc
 8184 0326 01       		.uleb128 0x1
 8185 0327 13       		.uleb128 0x13
 8186 0328 00       		.byte	0
 8187 0329 00       		.byte	0
 8188 032a 3D       		.uleb128 0x3d
 8189 032b 2E       		.uleb128 0x2e
 8190 032c 01       		.byte	0x1
 8191 032d 3F       		.uleb128 0x3f
 8192 032e 0C       		.uleb128 0xc
 8193 032f 03       		.uleb128 0x3
 8194 0330 0E       		.uleb128 0xe
 8195 0331 3A       		.uleb128 0x3a
 8196 0332 0B       		.uleb128 0xb
 8197 0333 3B       		.uleb128 0x3b
 8198 0334 05       		.uleb128 0x5
 8199 0335 27       		.uleb128 0x27
 8200 0336 0C       		.uleb128 0xc
 8201 0337 3C       		.uleb128 0x3c
 8202 0338 0C       		.uleb128 0xc
 8203 0339 01       		.uleb128 0x1
ARM GAS  /var/folders/5n/p_75w94d66l9ssrldxqdhh700000gn/T//ccyVBgQE.s 			page 145


 8204 033a 13       		.uleb128 0x13
 8205 033b 00       		.byte	0
 8206 033c 00       		.byte	0
 8207 033d 3E       		.uleb128 0x3e
 8208 033e 2E       		.uleb128 0x2e
 8209 033f 01       		.byte	0x1
 8210 0340 3F       		.uleb128 0x3f
 8211 0341 0C       		.uleb128 0xc
 8212 0342 03       		.uleb128 0x3
 8213 0343 0E       		.uleb128 0xe
 8214 0344 3A       		.uleb128 0x3a
 8215 0345 0B       		.uleb128 0xb
 8216 0346 3B       		.uleb128 0x3b
 8217 0347 0B       		.uleb128 0xb
 8218 0348 27       		.uleb128 0x27
 8219 0349 0C       		.uleb128 0xc
 8220 034a 3C       		.uleb128 0x3c
 8221 034b 0C       		.uleb128 0xc
 8222 034c 01       		.uleb128 0x1
 8223 034d 13       		.uleb128 0x13
 8224 034e 00       		.byte	0
 8225 034f 00       		.byte	0
 8226 0350 3F       		.uleb128 0x3f
 8227 0351 2E       		.uleb128 0x2e
 8228 0352 00       		.byte	0
 8229 0353 3F       		.uleb128 0x3f
 8230 0354 0C       		.uleb128 0xc
 8231 0355 03       		.uleb128 0x3
 8232 0356 0E       		.uleb128 0xe
 8233 0357 3A       		.uleb128 0x3a
 8234 0358 0B       		.uleb128 0xb
 8235 0359 3B       		.uleb128 0x3b
 8236 035a 05       		.uleb128 0x5
 8237 035b 27       		.uleb128 0x27
 8238 035c 0C       		.uleb128 0xc
 8239 035d 3C       		.uleb128 0x3c
 8240 035e 0C       		.uleb128 0xc
 8241 035f 00       		.byte	0
 8242 0360 00       		.byte	0
 8243 0361 40       		.uleb128 0x40
 8244 0362 2E       		.uleb128 0x2e
 8245 0363 01       		.byte	0x1
 8246 0364 3F       		.uleb128 0x3f
 8247 0365 0C       		.uleb128 0xc
 8248 0366 03       		.uleb128 0x3
 8249 0367 0E       		.uleb128 0xe
 8250 0368 3A       		.uleb128 0x3a
 8251 0369 0B       		.uleb128 0xb
 8252 036a 3B       		.uleb128 0x3b
 8253 036b 05       		.uleb128 0x5
 8254 036c 27       		.uleb128 0x27
 8255 036d 0C       		.uleb128 0xc
 8256 036e 49       		.uleb128 0x49
 8257 036f 13       		.uleb128 0x13
 8258 0370 3C       		.uleb128 0x3c
 8259 0371 0C       		.uleb128 0xc
 8260 0372 01       		.uleb128 0x1
ARM GAS  /var/folders/5n/p_75w94d66l9ssrldxqdhh700000gn/T//ccyVBgQE.s 			page 146


 8261 0373 13       		.uleb128 0x13
 8262 0374 00       		.byte	0
 8263 0375 00       		.byte	0
 8264 0376 41       		.uleb128 0x41
 8265 0377 26       		.uleb128 0x26
 8266 0378 00       		.byte	0
 8267 0379 49       		.uleb128 0x49
 8268 037a 13       		.uleb128 0x13
 8269 037b 00       		.byte	0
 8270 037c 00       		.byte	0
 8271 037d 42       		.uleb128 0x42
 8272 037e 2E       		.uleb128 0x2e
 8273 037f 01       		.byte	0x1
 8274 0380 3F       		.uleb128 0x3f
 8275 0381 0C       		.uleb128 0xc
 8276 0382 03       		.uleb128 0x3
 8277 0383 0E       		.uleb128 0xe
 8278 0384 3A       		.uleb128 0x3a
 8279 0385 0B       		.uleb128 0xb
 8280 0386 3B       		.uleb128 0x3b
 8281 0387 05       		.uleb128 0x5
 8282 0388 27       		.uleb128 0x27
 8283 0389 0C       		.uleb128 0xc
 8284 038a 3C       		.uleb128 0x3c
 8285 038b 0C       		.uleb128 0xc
 8286 038c 00       		.byte	0
 8287 038d 00       		.byte	0
 8288 038e 00       		.byte	0
 8289              		.section	.debug_loc,"",%progbits
 8290              	.Ldebug_loc0:
 8291              	.LLST0:
 8292 0000 00000000 		.4byte	.LFB13
 8293 0004 02000000 		.4byte	.LCFI0
 8294 0008 0200     		.2byte	0x2
 8295 000a 7D       		.byte	0x7d
 8296 000b 00       		.sleb128 0
 8297 000c 02000000 		.4byte	.LCFI0
 8298 0010 8C000000 		.4byte	.LFE13
 8299 0014 0200     		.2byte	0x2
 8300 0016 7D       		.byte	0x7d
 8301 0017 18       		.sleb128 24
 8302 0018 00000000 		.4byte	0
 8303 001c 00000000 		.4byte	0
 8304              	.LLST1:
 8305 0020 00000000 		.4byte	.LVL0
 8306 0024 0A000000 		.4byte	.LVL2
 8307 0028 0100     		.2byte	0x1
 8308 002a 50       		.byte	0x50
 8309 002b 0A000000 		.4byte	.LVL2
 8310 002f 8C000000 		.4byte	.LFE13
 8311 0033 0100     		.2byte	0x1
 8312 0035 56       		.byte	0x56
 8313 0036 00000000 		.4byte	0
 8314 003a 00000000 		.4byte	0
 8315              	.LLST2:
 8316 003e 28000000 		.4byte	.LVL7
 8317 0042 3C000000 		.4byte	.LVL9
ARM GAS  /var/folders/5n/p_75w94d66l9ssrldxqdhh700000gn/T//ccyVBgQE.s 			page 147


 8318 0046 0200     		.2byte	0x2
 8319 0048 30       		.byte	0x30
 8320 0049 9F       		.byte	0x9f
 8321 004a 4E000000 		.4byte	.LVL10
 8322 004e 58000000 		.4byte	.LVL12
 8323 0052 0100     		.2byte	0x1
 8324 0054 53       		.byte	0x53
 8325 0055 5C000000 		.4byte	.LVL13
 8326 0059 5E000000 		.4byte	.LVL14
 8327 005d 0100     		.2byte	0x1
 8328 005f 53       		.byte	0x53
 8329 0060 86000000 		.4byte	.LVL18
 8330 0064 8C000000 		.4byte	.LFE13
 8331 0068 0100     		.2byte	0x1
 8332 006a 53       		.byte	0x53
 8333 006b 00000000 		.4byte	0
 8334 006f 00000000 		.4byte	0
 8335              	.LLST3:
 8336 0073 74000000 		.4byte	.LVL15
 8337 0077 80000000 		.4byte	.LVL16
 8338 007b 0100     		.2byte	0x1
 8339 007d 52       		.byte	0x52
 8340 007e 80000000 		.4byte	.LVL16
 8341 0082 82000000 		.4byte	.LVL17
 8342 0086 1200     		.2byte	0x12
 8343 0088 77       		.byte	0x77
 8344 0089 00       		.sleb128 0
 8345 008a 38       		.byte	0x38
 8346 008b 24       		.byte	0x24
 8347 008c 71       		.byte	0x71
 8348 008d 00       		.sleb128 0
 8349 008e 73       		.byte	0x73
 8350 008f 00       		.sleb128 0
 8351 0090 22       		.byte	0x22
 8352 0091 23       		.byte	0x23
 8353 0092 03       		.uleb128 0x3
 8354 0093 94       		.byte	0x94
 8355 0094 01       		.byte	0x1
 8356 0095 08       		.byte	0x8
 8357 0096 FF       		.byte	0xff
 8358 0097 1A       		.byte	0x1a
 8359 0098 21       		.byte	0x21
 8360 0099 9F       		.byte	0x9f
 8361 009a 82000000 		.4byte	.LVL17
 8362 009e 86000000 		.4byte	.LVL18
 8363 00a2 1200     		.2byte	0x12
 8364 00a4 77       		.byte	0x77
 8365 00a5 00       		.sleb128 0
 8366 00a6 38       		.byte	0x38
 8367 00a7 24       		.byte	0x24
 8368 00a8 71       		.byte	0x71
 8369 00a9 00       		.sleb128 0
 8370 00aa 73       		.byte	0x73
 8371 00ab 00       		.sleb128 0
 8372 00ac 22       		.byte	0x22
 8373 00ad 31       		.byte	0x31
 8374 00ae 1C       		.byte	0x1c
ARM GAS  /var/folders/5n/p_75w94d66l9ssrldxqdhh700000gn/T//ccyVBgQE.s 			page 148


 8375 00af 94       		.byte	0x94
 8376 00b0 01       		.byte	0x1
 8377 00b1 08       		.byte	0x8
 8378 00b2 FF       		.byte	0xff
 8379 00b3 1A       		.byte	0x1a
 8380 00b4 21       		.byte	0x21
 8381 00b5 9F       		.byte	0x9f
 8382 00b6 00000000 		.4byte	0
 8383 00ba 00000000 		.4byte	0
 8384              	.LLST4:
 8385 00be 06000000 		.4byte	.LVL1
 8386 00c2 16000000 		.4byte	.LVL4
 8387 00c6 0300     		.2byte	0x3
 8388 00c8 75       		.byte	0x75
 8389 00c9 14       		.sleb128 20
 8390 00ca 9F       		.byte	0x9f
 8391 00cb 18000000 		.4byte	.LVL5
 8392 00cf 36000000 		.4byte	.LVL8
 8393 00d3 0300     		.2byte	0x3
 8394 00d5 75       		.byte	0x75
 8395 00d6 14       		.sleb128 20
 8396 00d7 9F       		.byte	0x9f
 8397 00d8 36000000 		.4byte	.LVL8
 8398 00dc 8C000000 		.4byte	.LFE13
 8399 00e0 0100     		.2byte	0x1
 8400 00e2 51       		.byte	0x51
 8401 00e3 00000000 		.4byte	0
 8402 00e7 00000000 		.4byte	0
 8403              	.LLST5:
 8404 00eb 36000000 		.4byte	.LVL8
 8405 00ef 3C000000 		.4byte	.LVL9
 8406 00f3 0500     		.2byte	0x5
 8407 00f5 71       		.byte	0x71
 8408 00f6 00       		.sleb128 0
 8409 00f7 73       		.byte	0x73
 8410 00f8 00       		.sleb128 0
 8411 00f9 22       		.byte	0x22
 8412 00fa 52000000 		.4byte	.LVL11
 8413 00fe 58000000 		.4byte	.LVL12
 8414 0102 0500     		.2byte	0x5
 8415 0104 71       		.byte	0x71
 8416 0105 00       		.sleb128 0
 8417 0106 73       		.byte	0x73
 8418 0107 00       		.sleb128 0
 8419 0108 22       		.byte	0x22
 8420 0109 00000000 		.4byte	0
 8421 010d 00000000 		.4byte	0
 8422              	.LLST6:
 8423 0111 00000000 		.4byte	.LFB11
 8424 0115 04000000 		.4byte	.LCFI1
 8425 0119 0200     		.2byte	0x2
 8426 011b 7D       		.byte	0x7d
 8427 011c 00       		.sleb128 0
 8428 011d 04000000 		.4byte	.LCFI1
 8429 0121 A8000000 		.4byte	.LFE11
 8430 0125 0200     		.2byte	0x2
 8431 0127 7D       		.byte	0x7d
ARM GAS  /var/folders/5n/p_75w94d66l9ssrldxqdhh700000gn/T//ccyVBgQE.s 			page 149


 8432 0128 18       		.sleb128 24
 8433 0129 00000000 		.4byte	0
 8434 012d 00000000 		.4byte	0
 8435              	.LLST7:
 8436 0131 00000000 		.4byte	.LVL19
 8437 0135 0A000000 		.4byte	.LVL20
 8438 0139 0100     		.2byte	0x1
 8439 013b 50       		.byte	0x50
 8440 013c 0A000000 		.4byte	.LVL20
 8441 0140 A8000000 		.4byte	.LFE11
 8442 0144 0100     		.2byte	0x1
 8443 0146 57       		.byte	0x57
 8444 0147 00000000 		.4byte	0
 8445 014b 00000000 		.4byte	0
 8446              	.LLST8:
 8447 014f 00000000 		.4byte	.LVL19
 8448 0153 0F000000 		.4byte	.LVL21-1
 8449 0157 0100     		.2byte	0x1
 8450 0159 51       		.byte	0x51
 8451 015a 0F000000 		.4byte	.LVL21-1
 8452 015e 3A000000 		.4byte	.LVL23
 8453 0162 0100     		.2byte	0x1
 8454 0164 55       		.byte	0x55
 8455 0165 3A000000 		.4byte	.LVL23
 8456 0169 5A000000 		.4byte	.LVL25
 8457 016d 0100     		.2byte	0x1
 8458 016f 54       		.byte	0x54
 8459 0170 5A000000 		.4byte	.LVL25
 8460 0174 74000000 		.4byte	.LVL29
 8461 0178 0100     		.2byte	0x1
 8462 017a 55       		.byte	0x55
 8463 017b 74000000 		.4byte	.LVL29
 8464 017f 7E000000 		.4byte	.LVL31
 8465 0183 0100     		.2byte	0x1
 8466 0185 54       		.byte	0x54
 8467 0186 7E000000 		.4byte	.LVL31
 8468 018a 80000000 		.4byte	.LVL32
 8469 018e 0200     		.2byte	0x2
 8470 0190 30       		.byte	0x30
 8471 0191 9F       		.byte	0x9f
 8472 0192 80000000 		.4byte	.LVL32
 8473 0196 86000000 		.4byte	.LVL33
 8474 019a 0100     		.2byte	0x1
 8475 019c 54       		.byte	0x54
 8476 019d 96000000 		.4byte	.LVL34
 8477 01a1 9C000000 		.4byte	.LVL35
 8478 01a5 0100     		.2byte	0x1
 8479 01a7 54       		.byte	0x54
 8480 01a8 9C000000 		.4byte	.LVL35
 8481 01ac A8000000 		.4byte	.LFE11
 8482 01b0 0100     		.2byte	0x1
 8483 01b2 55       		.byte	0x55
 8484 01b3 00000000 		.4byte	0
 8485 01b7 00000000 		.4byte	0
 8486              	.LLST9:
 8487 01bb 38000000 		.4byte	.LVL22
 8488 01bf 5A000000 		.4byte	.LVL25
ARM GAS  /var/folders/5n/p_75w94d66l9ssrldxqdhh700000gn/T//ccyVBgQE.s 			page 150


 8489 01c3 0100     		.2byte	0x1
 8490 01c5 55       		.byte	0x55
 8491 01c6 72000000 		.4byte	.LVL28
 8492 01ca 7E000000 		.4byte	.LVL31
 8493 01ce 0100     		.2byte	0x1
 8494 01d0 55       		.byte	0x55
 8495 01d1 00000000 		.4byte	0
 8496 01d5 00000000 		.4byte	0
 8497              	.LLST10:
 8498 01d9 00000000 		.4byte	.LFB12
 8499 01dd 04000000 		.4byte	.LCFI2
 8500 01e1 0200     		.2byte	0x2
 8501 01e3 7D       		.byte	0x7d
 8502 01e4 00       		.sleb128 0
 8503 01e5 04000000 		.4byte	.LCFI2
 8504 01e9 8A090000 		.4byte	.LFE12
 8505 01ed 0200     		.2byte	0x2
 8506 01ef 7D       		.byte	0x7d
 8507 01f0 28       		.sleb128 40
 8508 01f1 00000000 		.4byte	0
 8509 01f5 00000000 		.4byte	0
 8510              	.LLST11:
 8511 01f9 00000000 		.4byte	.LVL37
 8512 01fd 1A000000 		.4byte	.LVL38
 8513 0201 0100     		.2byte	0x1
 8514 0203 50       		.byte	0x50
 8515 0204 1A000000 		.4byte	.LVL38
 8516 0208 5E000000 		.4byte	.LVL39
 8517 020c 0100     		.2byte	0x1
 8518 020e 54       		.byte	0x54
 8519 020f 5E000000 		.4byte	.LVL39
 8520 0213 6E000000 		.4byte	.LVL41
 8521 0217 0100     		.2byte	0x1
 8522 0219 50       		.byte	0x50
 8523 021a 6E000000 		.4byte	.LVL41
 8524 021e D4010000 		.4byte	.LVL63
 8525 0222 0100     		.2byte	0x1
 8526 0224 54       		.byte	0x54
 8527 0225 D4010000 		.4byte	.LVL63
 8528 0229 D8010000 		.4byte	.LVL64
 8529 022d 0400     		.2byte	0x4
 8530 022f F3       		.byte	0xf3
 8531 0230 01       		.uleb128 0x1
 8532 0231 50       		.byte	0x50
 8533 0232 9F       		.byte	0x9f
 8534 0233 D8010000 		.4byte	.LVL64
 8535 0237 F0070000 		.4byte	.LVL146
 8536 023b 0100     		.2byte	0x1
 8537 023d 54       		.byte	0x54
 8538 023e F0070000 		.4byte	.LVL146
 8539 0242 22080000 		.4byte	.LVL149
 8540 0246 0400     		.2byte	0x4
 8541 0248 F3       		.byte	0xf3
 8542 0249 01       		.uleb128 0x1
 8543 024a 50       		.byte	0x50
 8544 024b 9F       		.byte	0x9f
 8545 024c 22080000 		.4byte	.LVL149
ARM GAS  /var/folders/5n/p_75w94d66l9ssrldxqdhh700000gn/T//ccyVBgQE.s 			page 151


 8546 0250 8A090000 		.4byte	.LFE12
 8547 0254 0100     		.2byte	0x1
 8548 0256 54       		.byte	0x54
 8549 0257 00000000 		.4byte	0
 8550 025b 00000000 		.4byte	0
 8551              	.LLST12:
 8552 025f EA000000 		.4byte	.LVL45
 8553 0263 2E010000 		.4byte	.LVL49
 8554 0267 0100     		.2byte	0x1
 8555 0269 55       		.byte	0x55
 8556 026a AE010000 		.4byte	.LVL59
 8557 026e CC010000 		.4byte	.LVL62
 8558 0272 0100     		.2byte	0x1
 8559 0274 55       		.byte	0x55
 8560 0275 D8010000 		.4byte	.LVL64
 8561 0279 E6010000 		.4byte	.LVL66
 8562 027d 0100     		.2byte	0x1
 8563 027f 55       		.byte	0x55
 8564 0280 AE020000 		.4byte	.LVL72
 8565 0284 F2020000 		.4byte	.LVL76
 8566 0288 0100     		.2byte	0x1
 8567 028a 55       		.byte	0x55
 8568 028b 04030000 		.4byte	.LVL77
 8569 028f 22030000 		.4byte	.LVL80
 8570 0293 0100     		.2byte	0x1
 8571 0295 55       		.byte	0x55
 8572 0296 A0050000 		.4byte	.LVL112
 8573 029a DE050000 		.4byte	.LVL114
 8574 029e 0100     		.2byte	0x1
 8575 02a0 56       		.byte	0x56
 8576 02a1 DE050000 		.4byte	.LVL114
 8577 02a5 0A060000 		.4byte	.LVL117
 8578 02a9 0100     		.2byte	0x1
 8579 02ab 55       		.byte	0x55
 8580 02ac 0A060000 		.4byte	.LVL117
 8581 02b0 58060000 		.4byte	.LVL122
 8582 02b4 0100     		.2byte	0x1
 8583 02b6 56       		.byte	0x56
 8584 02b7 AC080000 		.4byte	.LVL158
 8585 02bb AE080000 		.4byte	.LVL159
 8586 02bf 0100     		.2byte	0x1
 8587 02c1 56       		.byte	0x56
 8588 02c2 AE080000 		.4byte	.LVL159
 8589 02c6 10090000 		.4byte	.LVL164
 8590 02ca 0100     		.2byte	0x1
 8591 02cc 55       		.byte	0x55
 8592 02cd 54090000 		.4byte	.LVL170
 8593 02d1 5A090000 		.4byte	.LVL172
 8594 02d5 0100     		.2byte	0x1
 8595 02d7 55       		.byte	0x55
 8596 02d8 00000000 		.4byte	0
 8597 02dc 00000000 		.4byte	0
 8598              	.LLST13:
 8599 02e0 DC050000 		.4byte	.LVL113
 8600 02e4 FA050000 		.4byte	.LVL116
 8601 02e8 0100     		.2byte	0x1
 8602 02ea 56       		.byte	0x56
ARM GAS  /var/folders/5n/p_75w94d66l9ssrldxqdhh700000gn/T//ccyVBgQE.s 			page 152


 8603 02eb 00000000 		.4byte	0
 8604 02ef 00000000 		.4byte	0
 8605              	.LLST14:
 8606 02f3 7C030000 		.4byte	.LVL82
 8607 02f7 8D030000 		.4byte	.LVL83-1
 8608 02fb 0100     		.2byte	0x1
 8609 02fd 50       		.byte	0x50
 8610 02fe C8060000 		.4byte	.LVL126
 8611 0302 28070000 		.4byte	.LVL132
 8612 0306 0100     		.2byte	0x1
 8613 0308 55       		.byte	0x55
 8614 0309 34070000 		.4byte	.LVL133
 8615 030d 7E070000 		.4byte	.LVL137
 8616 0311 0100     		.2byte	0x1
 8617 0313 55       		.byte	0x55
 8618 0314 AA070000 		.4byte	.LVL138
 8619 0318 BA070000 		.4byte	.LVL139
 8620 031c 0100     		.2byte	0x1
 8621 031e 50       		.byte	0x50
 8622 031f EE070000 		.4byte	.LVL145
 8623 0323 10080000 		.4byte	.LVL147
 8624 0327 0100     		.2byte	0x1
 8625 0329 50       		.byte	0x50
 8626 032a 10080000 		.4byte	.LVL147
 8627 032e 22080000 		.4byte	.LVL149
 8628 0332 0100     		.2byte	0x1
 8629 0334 54       		.byte	0x54
 8630 0335 68090000 		.4byte	.LVL174
 8631 0339 6C090000 		.4byte	.LVL175
 8632 033d 0100     		.2byte	0x1
 8633 033f 50       		.byte	0x50
 8634 0340 00000000 		.4byte	0
 8635 0344 00000000 		.4byte	0
 8636              	.LLST15:
 8637 0348 DE030000 		.4byte	.LVL88
 8638 034c 14040000 		.4byte	.LVL91
 8639 0350 0100     		.2byte	0x1
 8640 0352 55       		.byte	0x55
 8641 0353 16040000 		.4byte	.LVL92
 8642 0357 4E040000 		.4byte	.LVL95
 8643 035b 0100     		.2byte	0x1
 8644 035d 55       		.byte	0x55
 8645 035e CC070000 		.4byte	.LVL140
 8646 0362 E8070000 		.4byte	.LVL144
 8647 0366 0100     		.2byte	0x1
 8648 0368 55       		.byte	0x55
 8649 0369 22080000 		.4byte	.LVL149
 8650 036d 2E080000 		.4byte	.LVL151
 8651 0371 0100     		.2byte	0x1
 8652 0373 55       		.byte	0x55
 8653 0374 10090000 		.4byte	.LVL164
 8654 0378 16090000 		.4byte	.LVL166
 8655 037c 0100     		.2byte	0x1
 8656 037e 55       		.byte	0x55
 8657 037f 00000000 		.4byte	0
 8658 0383 00000000 		.4byte	0
 8659              	.LLST16:
ARM GAS  /var/folders/5n/p_75w94d66l9ssrldxqdhh700000gn/T//ccyVBgQE.s 			page 153


 8660 0387 DE030000 		.4byte	.LVL88
 8661 038b 4E040000 		.4byte	.LVL95
 8662 038f 0100     		.2byte	0x1
 8663 0391 56       		.byte	0x56
 8664 0392 CC070000 		.4byte	.LVL140
 8665 0396 E8070000 		.4byte	.LVL144
 8666 039a 0100     		.2byte	0x1
 8667 039c 56       		.byte	0x56
 8668 039d 22080000 		.4byte	.LVL149
 8669 03a1 2E080000 		.4byte	.LVL151
 8670 03a5 0100     		.2byte	0x1
 8671 03a7 56       		.byte	0x56
 8672 03a8 10090000 		.4byte	.LVL164
 8673 03ac 16090000 		.4byte	.LVL166
 8674 03b0 0100     		.2byte	0x1
 8675 03b2 56       		.byte	0x56
 8676 03b3 00000000 		.4byte	0
 8677 03b7 00000000 		.4byte	0
 8678              	.LLST17:
 8679 03bb 44010000 		.4byte	.LVL51
 8680 03bf 4E010000 		.4byte	.LVL52
 8681 03c3 0800     		.2byte	0x8
 8682 03c5 72       		.byte	0x72
 8683 03c6 00       		.sleb128 0
 8684 03c7 94       		.byte	0x94
 8685 03c8 02       		.byte	0x2
 8686 03c9 73       		.byte	0x73
 8687 03ca 00       		.sleb128 0
 8688 03cb 1C       		.byte	0x1c
 8689 03cc 9F       		.byte	0x9f
 8690 03cd 58010000 		.4byte	.LVL54
 8691 03d1 64010000 		.4byte	.LVL55
 8692 03d5 0100     		.2byte	0x1
 8693 03d7 52       		.byte	0x52
 8694 03d8 64010000 		.4byte	.LVL55
 8695 03dc 68010000 		.4byte	.LVL56
 8696 03e0 0100     		.2byte	0x1
 8697 03e2 53       		.byte	0x53
 8698 03e3 68010000 		.4byte	.LVL56
 8699 03e7 6E010000 		.4byte	.LVL57
 8700 03eb 0800     		.2byte	0x8
 8701 03ed 73       		.byte	0x73
 8702 03ee 00       		.sleb128 0
 8703 03ef 72       		.byte	0x72
 8704 03f0 00       		.sleb128 0
 8705 03f1 32       		.byte	0x32
 8706 03f2 26       		.byte	0x26
 8707 03f3 1C       		.byte	0x1c
 8708 03f4 9F       		.byte	0x9f
 8709 03f5 6E010000 		.4byte	.LVL57
 8710 03f9 70010000 		.4byte	.LVL58
 8711 03fd 0B00     		.2byte	0xb
 8712 03ff 73       		.byte	0x73
 8713 0400 00       		.sleb128 0
 8714 0401 74       		.byte	0x74
 8715 0402 C600     		.sleb128 70
 8716 0404 94       		.byte	0x94
ARM GAS  /var/folders/5n/p_75w94d66l9ssrldxqdhh700000gn/T//ccyVBgQE.s 			page 154


 8717 0405 02       		.byte	0x2
 8718 0406 32       		.byte	0x32
 8719 0407 26       		.byte	0x26
 8720 0408 1C       		.byte	0x1c
 8721 0409 9F       		.byte	0x9f
 8722 040a B6040000 		.4byte	.LVL100
 8723 040e BA040000 		.4byte	.LVL101
 8724 0412 0100     		.2byte	0x1
 8725 0414 52       		.byte	0x52
 8726 0415 BA040000 		.4byte	.LVL101
 8727 0419 BC040000 		.4byte	.LVL102
 8728 041d 0100     		.2byte	0x1
 8729 041f 53       		.byte	0x53
 8730 0420 00000000 		.4byte	0
 8731 0424 00000000 		.4byte	0
 8732              	.LLST18:
 8733 0428 6A000000 		.4byte	.LVL40
 8734 042c A8000000 		.4byte	.LVL42
 8735 0430 0A00     		.2byte	0xa
 8736 0432 75       		.byte	0x75
 8737 0433 00       		.sleb128 0
 8738 0434 0A       		.byte	0xa
 8739 0435 FFFF     		.2byte	0xffff
 8740 0437 1A       		.byte	0x1a
 8741 0438 71       		.byte	0x71
 8742 0439 00       		.sleb128 0
 8743 043a 22       		.byte	0x22
 8744 043b 9F       		.byte	0x9f
 8745 043c E6010000 		.4byte	.LVL66
 8746 0440 30020000 		.4byte	.LVL67
 8747 0444 0A00     		.2byte	0xa
 8748 0446 75       		.byte	0x75
 8749 0447 00       		.sleb128 0
 8750 0448 0A       		.byte	0xa
 8751 0449 FFFF     		.2byte	0xffff
 8752 044b 1A       		.byte	0x1a
 8753 044c 71       		.byte	0x71
 8754 044d 00       		.sleb128 0
 8755 044e 22       		.byte	0x22
 8756 044f 9F       		.byte	0x9f
 8757 0450 30020000 		.4byte	.LVL67
 8758 0454 50020000 		.4byte	.LVL68
 8759 0458 0C00     		.2byte	0xc
 8760 045a 75       		.byte	0x75
 8761 045b 00       		.sleb128 0
 8762 045c 0A       		.byte	0xa
 8763 045d FFFF     		.2byte	0xffff
 8764 045f 1A       		.byte	0x1a
 8765 0460 74       		.byte	0x74
 8766 0461 E400     		.sleb128 100
 8767 0463 06       		.byte	0x6
 8768 0464 22       		.byte	0x22
 8769 0465 9F       		.byte	0x9f
 8770 0466 50020000 		.4byte	.LVL68
 8771 046a 78020000 		.4byte	.LVL69
 8772 046e 0F00     		.2byte	0xf
 8773 0470 74       		.byte	0x74
ARM GAS  /var/folders/5n/p_75w94d66l9ssrldxqdhh700000gn/T//ccyVBgQE.s 			page 155


 8774 0471 DC00     		.sleb128 92
 8775 0473 94       		.byte	0x94
 8776 0474 02       		.byte	0x2
 8777 0475 0A       		.byte	0xa
 8778 0476 FFFF     		.2byte	0xffff
 8779 0478 1A       		.byte	0x1a
 8780 0479 74       		.byte	0x74
 8781 047a E400     		.sleb128 100
 8782 047c 06       		.byte	0x6
 8783 047d 22       		.byte	0x22
 8784 047e 9F       		.byte	0x9f
 8785 047f 8E030000 		.4byte	.LVL83
 8786 0483 A6030000 		.4byte	.LVL84
 8787 0487 0A00     		.2byte	0xa
 8788 0489 75       		.byte	0x75
 8789 048a 00       		.sleb128 0
 8790 048b 0A       		.byte	0xa
 8791 048c FFFF     		.2byte	0xffff
 8792 048e 1A       		.byte	0x1a
 8793 048f 71       		.byte	0x71
 8794 0490 00       		.sleb128 0
 8795 0491 22       		.byte	0x22
 8796 0492 9F       		.byte	0x9f
 8797 0493 A6030000 		.4byte	.LVL84
 8798 0497 B6030000 		.4byte	.LVL85
 8799 049b 0C00     		.2byte	0xc
 8800 049d 75       		.byte	0x75
 8801 049e 00       		.sleb128 0
 8802 049f 0A       		.byte	0xa
 8803 04a0 FFFF     		.2byte	0xffff
 8804 04a2 1A       		.byte	0x1a
 8805 04a3 74       		.byte	0x74
 8806 04a4 E400     		.sleb128 100
 8807 04a6 06       		.byte	0x6
 8808 04a7 22       		.byte	0x22
 8809 04a8 9F       		.byte	0x9f
 8810 04a9 C4030000 		.4byte	.LVL86
 8811 04ad D4030000 		.4byte	.LVL87
 8812 04b1 0A00     		.2byte	0xa
 8813 04b3 75       		.byte	0x75
 8814 04b4 00       		.sleb128 0
 8815 04b5 0A       		.byte	0xa
 8816 04b6 FFFF     		.2byte	0xffff
 8817 04b8 1A       		.byte	0x1a
 8818 04b9 71       		.byte	0x71
 8819 04ba 00       		.sleb128 0
 8820 04bb 22       		.byte	0x22
 8821 04bc 9F       		.byte	0x9f
 8822 04bd 4E040000 		.4byte	.LVL95
 8823 04c1 5E040000 		.4byte	.LVL96
 8824 04c5 0A00     		.2byte	0xa
 8825 04c7 75       		.byte	0x75
 8826 04c8 00       		.sleb128 0
 8827 04c9 0A       		.byte	0xa
 8828 04ca FFFF     		.2byte	0xffff
 8829 04cc 1A       		.byte	0x1a
 8830 04cd 71       		.byte	0x71
ARM GAS  /var/folders/5n/p_75w94d66l9ssrldxqdhh700000gn/T//ccyVBgQE.s 			page 156


 8831 04ce 00       		.sleb128 0
 8832 04cf 22       		.byte	0x22
 8833 04d0 9F       		.byte	0x9f
 8834 04d1 5E040000 		.4byte	.LVL96
 8835 04d5 80040000 		.4byte	.LVL98
 8836 04d9 0F00     		.2byte	0xf
 8837 04db 74       		.byte	0x74
 8838 04dc DC00     		.sleb128 92
 8839 04de 94       		.byte	0x94
 8840 04df 02       		.byte	0x2
 8841 04e0 0A       		.byte	0xa
 8842 04e1 FFFF     		.2byte	0xffff
 8843 04e3 1A       		.byte	0x1a
 8844 04e4 74       		.byte	0x74
 8845 04e5 E400     		.sleb128 100
 8846 04e7 06       		.byte	0x6
 8847 04e8 22       		.byte	0x22
 8848 04e9 9F       		.byte	0x9f
 8849 04ea 80040000 		.4byte	.LVL98
 8850 04ee B6040000 		.4byte	.LVL100
 8851 04f2 0C00     		.2byte	0xc
 8852 04f4 75       		.byte	0x75
 8853 04f5 00       		.sleb128 0
 8854 04f6 0A       		.byte	0xa
 8855 04f7 FFFF     		.2byte	0xffff
 8856 04f9 1A       		.byte	0x1a
 8857 04fa 74       		.byte	0x74
 8858 04fb E400     		.sleb128 100
 8859 04fd 06       		.byte	0x6
 8860 04fe 22       		.byte	0x22
 8861 04ff 9F       		.byte	0x9f
 8862 0500 5A090000 		.4byte	.LVL172
 8863 0504 61090000 		.4byte	.LVL173-1
 8864 0508 0C00     		.2byte	0xc
 8865 050a 75       		.byte	0x75
 8866 050b 00       		.sleb128 0
 8867 050c 0A       		.byte	0xa
 8868 050d FFFF     		.2byte	0xffff
 8869 050f 1A       		.byte	0x1a
 8870 0510 74       		.byte	0x74
 8871 0511 E400     		.sleb128 100
 8872 0513 06       		.byte	0x6
 8873 0514 22       		.byte	0x22
 8874 0515 9F       		.byte	0x9f
 8875 0516 00000000 		.4byte	0
 8876 051a 00000000 		.4byte	0
 8877              	.LLST19:
 8878 051e 0A040000 		.4byte	.LVL89
 8879 0522 0E040000 		.4byte	.LVL90
 8880 0526 0100     		.2byte	0x1
 8881 0528 53       		.byte	0x53
 8882 0529 0E040000 		.4byte	.LVL90
 8883 052d 20040000 		.4byte	.LVL93
 8884 0531 0100     		.2byte	0x1
 8885 0533 50       		.byte	0x50
 8886 0534 00000000 		.4byte	0
 8887 0538 00000000 		.4byte	0
ARM GAS  /var/folders/5n/p_75w94d66l9ssrldxqdhh700000gn/T//ccyVBgQE.s 			page 157


 8888              	.LLST20:
 8889 053c 00000000 		.4byte	.LVL37
 8890 0540 1A000000 		.4byte	.LVL38
 8891 0544 0200     		.2byte	0x2
 8892 0546 30       		.byte	0x30
 8893 0547 9F       		.byte	0x9f
 8894 0548 5E000000 		.4byte	.LVL39
 8895 054c A8000000 		.4byte	.LVL42
 8896 0550 0200     		.2byte	0x2
 8897 0552 30       		.byte	0x30
 8898 0553 9F       		.byte	0x9f
 8899 0554 E6010000 		.4byte	.LVL66
 8900 0558 22030000 		.4byte	.LVL80
 8901 055c 0200     		.2byte	0x2
 8902 055e 30       		.byte	0x30
 8903 055f 9F       		.byte	0x9f
 8904 0560 8E030000 		.4byte	.LVL83
 8905 0564 B6030000 		.4byte	.LVL85
 8906 0568 0200     		.2byte	0x2
 8907 056a 30       		.byte	0x30
 8908 056b 9F       		.byte	0x9f
 8909 056c C4030000 		.4byte	.LVL86
 8910 0570 D4030000 		.4byte	.LVL87
 8911 0574 0200     		.2byte	0x2
 8912 0576 30       		.byte	0x30
 8913 0577 9F       		.byte	0x9f
 8914 0578 4E040000 		.4byte	.LVL95
 8915 057c 8C040000 		.4byte	.LVL99
 8916 0580 0200     		.2byte	0x2
 8917 0582 30       		.byte	0x30
 8918 0583 9F       		.byte	0x9f
 8919 0584 8C040000 		.4byte	.LVL99
 8920 0588 B6040000 		.4byte	.LVL100
 8921 058c 0200     		.2byte	0x2
 8922 058e 31       		.byte	0x31
 8923 058f 9F       		.byte	0x9f
 8924 0590 BA070000 		.4byte	.LVL139
 8925 0594 CC070000 		.4byte	.LVL140
 8926 0598 0200     		.2byte	0x2
 8927 059a 30       		.byte	0x30
 8928 059b 9F       		.byte	0x9f
 8929 059c 54090000 		.4byte	.LVL170
 8930 05a0 5A090000 		.4byte	.LVL172
 8931 05a4 0200     		.2byte	0x2
 8932 05a6 30       		.byte	0x30
 8933 05a7 9F       		.byte	0x9f
 8934 05a8 5A090000 		.4byte	.LVL172
 8935 05ac 68090000 		.4byte	.LVL174
 8936 05b0 0200     		.2byte	0x2
 8937 05b2 31       		.byte	0x31
 8938 05b3 9F       		.byte	0x9f
 8939 05b4 00000000 		.4byte	0
 8940 05b8 00000000 		.4byte	0
 8941              	.LLST21:
 8942 05bc 76040000 		.4byte	.LVL97
 8943 05c0 80040000 		.4byte	.LVL98
 8944 05c4 0100     		.2byte	0x1
ARM GAS  /var/folders/5n/p_75w94d66l9ssrldxqdhh700000gn/T//ccyVBgQE.s 			page 158


 8945 05c6 52       		.byte	0x52
 8946 05c7 00000000 		.4byte	0
 8947 05cb 00000000 		.4byte	0
 8948              	.LLST22:
 8949 05cf 58060000 		.4byte	.LVL122
 8950 05d3 5F060000 		.4byte	.LVL123-1
 8951 05d7 0100     		.2byte	0x1
 8952 05d9 50       		.byte	0x50
 8953 05da 00000000 		.4byte	0
 8954 05de 00000000 		.4byte	0
 8955              	.LLST23:
 8956 05e2 00000000 		.4byte	.LFB7
 8957 05e6 04000000 		.4byte	.LCFI3
 8958 05ea 0200     		.2byte	0x2
 8959 05ec 7D       		.byte	0x7d
 8960 05ed 00       		.sleb128 0
 8961 05ee 04000000 		.4byte	.LCFI3
 8962 05f2 1E000000 		.4byte	.LCFI4
 8963 05f6 0200     		.2byte	0x2
 8964 05f8 7D       		.byte	0x7d
 8965 05f9 24       		.sleb128 36
 8966 05fa 1E000000 		.4byte	.LCFI4
 8967 05fe 900B0000 		.4byte	.LFE7
 8968 0602 0200     		.2byte	0x2
 8969 0604 7D       		.byte	0x7d
 8970 0605 30       		.sleb128 48
 8971 0606 00000000 		.4byte	0
 8972 060a 00000000 		.4byte	0
 8973              	.LLST24:
 8974 060e 00000000 		.4byte	.LVL178
 8975 0612 22000000 		.4byte	.LVL179
 8976 0616 0100     		.2byte	0x1
 8977 0618 50       		.byte	0x50
 8978 0619 22000000 		.4byte	.LVL179
 8979 061d 56020000 		.4byte	.LVL208
 8980 0621 0100     		.2byte	0x1
 8981 0623 55       		.byte	0x55
 8982 0624 56020000 		.4byte	.LVL208
 8983 0628 CC020000 		.4byte	.LVL214
 8984 062c 0400     		.2byte	0x4
 8985 062e F3       		.byte	0xf3
 8986 062f 01       		.uleb128 0x1
 8987 0630 50       		.byte	0x50
 8988 0631 9F       		.byte	0x9f
 8989 0632 CC020000 		.4byte	.LVL214
 8990 0636 E6030000 		.4byte	.LVL227
 8991 063a 0100     		.2byte	0x1
 8992 063c 55       		.byte	0x55
 8993 063d E6030000 		.4byte	.LVL227
 8994 0641 B6040000 		.4byte	.LVL238
 8995 0645 0400     		.2byte	0x4
 8996 0647 F3       		.byte	0xf3
 8997 0648 01       		.uleb128 0x1
 8998 0649 50       		.byte	0x50
 8999 064a 9F       		.byte	0x9f
 9000 064b B6040000 		.4byte	.LVL238
 9001 064f 40050000 		.4byte	.LVL242
ARM GAS  /var/folders/5n/p_75w94d66l9ssrldxqdhh700000gn/T//ccyVBgQE.s 			page 159


 9002 0653 0100     		.2byte	0x1
 9003 0655 55       		.byte	0x55
 9004 0656 40050000 		.4byte	.LVL242
 9005 065a AA050000 		.4byte	.LVL245
 9006 065e 0400     		.2byte	0x4
 9007 0660 F3       		.byte	0xf3
 9008 0661 01       		.uleb128 0x1
 9009 0662 50       		.byte	0x50
 9010 0663 9F       		.byte	0x9f
 9011 0664 AA050000 		.4byte	.LVL245
 9012 0668 22060000 		.4byte	.LVL248
 9013 066c 0100     		.2byte	0x1
 9014 066e 55       		.byte	0x55
 9015 066f 22060000 		.4byte	.LVL248
 9016 0673 54060000 		.4byte	.LVL250
 9017 0677 0400     		.2byte	0x4
 9018 0679 F3       		.byte	0xf3
 9019 067a 01       		.uleb128 0x1
 9020 067b 50       		.byte	0x50
 9021 067c 9F       		.byte	0x9f
 9022 067d 54060000 		.4byte	.LVL250
 9023 0681 6A060000 		.4byte	.LVL252
 9024 0685 0100     		.2byte	0x1
 9025 0687 55       		.byte	0x55
 9026 0688 6A060000 		.4byte	.LVL252
 9027 068c 7C060000 		.4byte	.LVL253
 9028 0690 0400     		.2byte	0x4
 9029 0692 F3       		.byte	0xf3
 9030 0693 01       		.uleb128 0x1
 9031 0694 50       		.byte	0x50
 9032 0695 9F       		.byte	0x9f
 9033 0696 7C060000 		.4byte	.LVL253
 9034 069a A2060000 		.4byte	.LVL255
 9035 069e 0100     		.2byte	0x1
 9036 06a0 55       		.byte	0x55
 9037 06a1 A2060000 		.4byte	.LVL255
 9038 06a5 C2060000 		.4byte	.LVL256
 9039 06a9 0400     		.2byte	0x4
 9040 06ab F3       		.byte	0xf3
 9041 06ac 01       		.uleb128 0x1
 9042 06ad 50       		.byte	0x50
 9043 06ae 9F       		.byte	0x9f
 9044 06af C2060000 		.4byte	.LVL256
 9045 06b3 FE060000 		.4byte	.LVL257
 9046 06b7 0100     		.2byte	0x1
 9047 06b9 55       		.byte	0x55
 9048 06ba FE060000 		.4byte	.LVL257
 9049 06be 1C070000 		.4byte	.LVL259
 9050 06c2 0400     		.2byte	0x4
 9051 06c4 F3       		.byte	0xf3
 9052 06c5 01       		.uleb128 0x1
 9053 06c6 50       		.byte	0x50
 9054 06c7 9F       		.byte	0x9f
 9055 06c8 1C070000 		.4byte	.LVL259
 9056 06cc 54080000 		.4byte	.LVL279
 9057 06d0 0100     		.2byte	0x1
 9058 06d2 55       		.byte	0x55
ARM GAS  /var/folders/5n/p_75w94d66l9ssrldxqdhh700000gn/T//ccyVBgQE.s 			page 160


 9059 06d3 54080000 		.4byte	.LVL279
 9060 06d7 90080000 		.4byte	.LVL281
 9061 06db 0400     		.2byte	0x4
 9062 06dd F3       		.byte	0xf3
 9063 06de 01       		.uleb128 0x1
 9064 06df 50       		.byte	0x50
 9065 06e0 9F       		.byte	0x9f
 9066 06e1 90080000 		.4byte	.LVL281
 9067 06e5 F8080000 		.4byte	.LVL286
 9068 06e9 0100     		.2byte	0x1
 9069 06eb 55       		.byte	0x55
 9070 06ec F8080000 		.4byte	.LVL286
 9071 06f0 08090000 		.4byte	.LVL289
 9072 06f4 0400     		.2byte	0x4
 9073 06f6 F3       		.byte	0xf3
 9074 06f7 01       		.uleb128 0x1
 9075 06f8 50       		.byte	0x50
 9076 06f9 9F       		.byte	0x9f
 9077 06fa 08090000 		.4byte	.LVL289
 9078 06fe 6C090000 		.4byte	.LVL295
 9079 0702 0100     		.2byte	0x1
 9080 0704 55       		.byte	0x55
 9081 0705 6C090000 		.4byte	.LVL295
 9082 0709 7C090000 		.4byte	.LVL297
 9083 070d 0400     		.2byte	0x4
 9084 070f F3       		.byte	0xf3
 9085 0710 01       		.uleb128 0x1
 9086 0711 50       		.byte	0x50
 9087 0712 9F       		.byte	0x9f
 9088 0713 7C090000 		.4byte	.LVL297
 9089 0717 A8090000 		.4byte	.LVL299
 9090 071b 0100     		.2byte	0x1
 9091 071d 55       		.byte	0x55
 9092 071e A8090000 		.4byte	.LVL299
 9093 0722 B0090000 		.4byte	.LVL300
 9094 0726 0400     		.2byte	0x4
 9095 0728 F3       		.byte	0xf3
 9096 0729 01       		.uleb128 0x1
 9097 072a 50       		.byte	0x50
 9098 072b 9F       		.byte	0x9f
 9099 072c B0090000 		.4byte	.LVL300
 9100 0730 EE090000 		.4byte	.LVL304
 9101 0734 0100     		.2byte	0x1
 9102 0736 55       		.byte	0x55
 9103 0737 EE090000 		.4byte	.LVL304
 9104 073b 1A0A0000 		.4byte	.LVL306
 9105 073f 0400     		.2byte	0x4
 9106 0741 F3       		.byte	0xf3
 9107 0742 01       		.uleb128 0x1
 9108 0743 50       		.byte	0x50
 9109 0744 9F       		.byte	0x9f
 9110 0745 1A0A0000 		.4byte	.LVL306
 9111 0749 220A0000 		.4byte	.LVL308
 9112 074d 0100     		.2byte	0x1
 9113 074f 55       		.byte	0x55
 9114 0750 220A0000 		.4byte	.LVL308
 9115 0754 600A0000 		.4byte	.LVL310
ARM GAS  /var/folders/5n/p_75w94d66l9ssrldxqdhh700000gn/T//ccyVBgQE.s 			page 161


 9116 0758 0400     		.2byte	0x4
 9117 075a F3       		.byte	0xf3
 9118 075b 01       		.uleb128 0x1
 9119 075c 50       		.byte	0x50
 9120 075d 9F       		.byte	0x9f
 9121 075e 600A0000 		.4byte	.LVL310
 9122 0762 B20A0000 		.4byte	.LVL314
 9123 0766 0100     		.2byte	0x1
 9124 0768 55       		.byte	0x55
 9125 0769 B20A0000 		.4byte	.LVL314
 9126 076d B80A0000 		.4byte	.LVL315
 9127 0771 0400     		.2byte	0x4
 9128 0773 F3       		.byte	0xf3
 9129 0774 01       		.uleb128 0x1
 9130 0775 50       		.byte	0x50
 9131 0776 9F       		.byte	0x9f
 9132 0777 B80A0000 		.4byte	.LVL315
 9133 077b DA0A0000 		.4byte	.LVL319
 9134 077f 0100     		.2byte	0x1
 9135 0781 55       		.byte	0x55
 9136 0782 DA0A0000 		.4byte	.LVL319
 9137 0786 900B0000 		.4byte	.LFE7
 9138 078a 0400     		.2byte	0x4
 9139 078c F3       		.byte	0xf3
 9140 078d 01       		.uleb128 0x1
 9141 078e 50       		.byte	0x50
 9142 078f 9F       		.byte	0x9f
 9143 0790 00000000 		.4byte	0
 9144 0794 00000000 		.4byte	0
 9145              	.LLST25:
 9146 0798 00000000 		.4byte	.LVL178
 9147 079c 27000000 		.4byte	.LVL180-1
 9148 07a0 0100     		.2byte	0x1
 9149 07a2 51       		.byte	0x51
 9150 07a3 27000000 		.4byte	.LVL180-1
 9151 07a7 D0000000 		.4byte	.LVL189
 9152 07ab 0100     		.2byte	0x1
 9153 07ad 59       		.byte	0x59
 9154 07ae D0000000 		.4byte	.LVL189
 9155 07b2 CC020000 		.4byte	.LVL214
 9156 07b6 0400     		.2byte	0x4
 9157 07b8 F3       		.byte	0xf3
 9158 07b9 01       		.uleb128 0x1
 9159 07ba 51       		.byte	0x51
 9160 07bb 9F       		.byte	0x9f
 9161 07bc CC020000 		.4byte	.LVL214
 9162 07c0 0C030000 		.4byte	.LVL216
 9163 07c4 0100     		.2byte	0x1
 9164 07c6 59       		.byte	0x59
 9165 07c7 0C030000 		.4byte	.LVL216
 9166 07cb 900B0000 		.4byte	.LFE7
 9167 07cf 0400     		.2byte	0x4
 9168 07d1 F3       		.byte	0xf3
 9169 07d2 01       		.uleb128 0x1
 9170 07d3 51       		.byte	0x51
 9171 07d4 9F       		.byte	0x9f
 9172 07d5 00000000 		.4byte	0
ARM GAS  /var/folders/5n/p_75w94d66l9ssrldxqdhh700000gn/T//ccyVBgQE.s 			page 162


 9173 07d9 00000000 		.4byte	0
 9174              	.LLST26:
 9175 07dd 3C010000 		.4byte	.LVL196
 9176 07e1 64010000 		.4byte	.LVL199
 9177 07e5 0100     		.2byte	0x1
 9178 07e7 57       		.byte	0x57
 9179 07e8 64010000 		.4byte	.LVL199
 9180 07ec 6E010000 		.4byte	.LVL200
 9181 07f0 0100     		.2byte	0x1
 9182 07f2 53       		.byte	0x53
 9183 07f3 6E010000 		.4byte	.LVL200
 9184 07f7 CC020000 		.4byte	.LVL214
 9185 07fb 0100     		.2byte	0x1
 9186 07fd 57       		.byte	0x57
 9187 07fe 14030000 		.4byte	.LVL217
 9188 0802 94030000 		.4byte	.LVL221
 9189 0806 0100     		.2byte	0x1
 9190 0808 57       		.byte	0x57
 9191 0809 A0030000 		.4byte	.LVL222
 9192 080d 36070000 		.4byte	.LVL262
 9193 0811 0100     		.2byte	0x1
 9194 0813 57       		.byte	0x57
 9195 0814 44080000 		.4byte	.LVL276
 9196 0818 90080000 		.4byte	.LVL281
 9197 081c 0100     		.2byte	0x1
 9198 081e 57       		.byte	0x57
 9199 081f 90080000 		.4byte	.LVL281
 9200 0823 EE080000 		.4byte	.LVL284
 9201 0827 0200     		.2byte	0x2
 9202 0829 30       		.byte	0x30
 9203 082a 9F       		.byte	0x9f
 9204 082b EE080000 		.4byte	.LVL284
 9205 082f 08090000 		.4byte	.LVL289
 9206 0833 0100     		.2byte	0x1
 9207 0835 57       		.byte	0x57
 9208 0836 44090000 		.4byte	.LVL294
 9209 083a A60A0000 		.4byte	.LVL313
 9210 083e 0100     		.2byte	0x1
 9211 0840 57       		.byte	0x57
 9212 0841 B20A0000 		.4byte	.LVL314
 9213 0845 900B0000 		.4byte	.LFE7
 9214 0849 0100     		.2byte	0x1
 9215 084b 57       		.byte	0x57
 9216 084c 00000000 		.4byte	0
 9217 0850 00000000 		.4byte	0
 9218              	.LLST27:
 9219 0854 3C010000 		.4byte	.LVL196
 9220 0858 50010000 		.4byte	.LVL197
 9221 085c 0200     		.2byte	0x2
 9222 085e 30       		.byte	0x30
 9223 085f 9F       		.byte	0x9f
 9224 0860 62010000 		.4byte	.LVL198
 9225 0864 6E010000 		.4byte	.LVL200
 9226 0868 0100     		.2byte	0x1
 9227 086a 57       		.byte	0x57
 9228 086b 1E070000 		.4byte	.LVL260
 9229 086f 3A070000 		.4byte	.LVL263
ARM GAS  /var/folders/5n/p_75w94d66l9ssrldxqdhh700000gn/T//ccyVBgQE.s 			page 163


 9230 0873 0200     		.2byte	0x2
 9231 0875 30       		.byte	0x30
 9232 0876 9F       		.byte	0x9f
 9233 0877 3A070000 		.4byte	.LVL263
 9234 087b 44070000 		.4byte	.LVL265
 9235 087f 0100     		.2byte	0x1
 9236 0881 57       		.byte	0x57
 9237 0882 44070000 		.4byte	.LVL265
 9238 0886 46070000 		.4byte	.LVL266
 9239 088a 0100     		.2byte	0x1
 9240 088c 51       		.byte	0x51
 9241 088d 46070000 		.4byte	.LVL266
 9242 0891 44080000 		.4byte	.LVL276
 9243 0895 0100     		.2byte	0x1
 9244 0897 57       		.byte	0x57
 9245 0898 08090000 		.4byte	.LVL289
 9246 089c 44090000 		.4byte	.LVL294
 9247 08a0 0100     		.2byte	0x1
 9248 08a2 57       		.byte	0x57
 9249 08a3 A60A0000 		.4byte	.LVL313
 9250 08a7 B20A0000 		.4byte	.LVL314
 9251 08ab 0100     		.2byte	0x1
 9252 08ad 57       		.byte	0x57
 9253 08ae 00000000 		.4byte	0
 9254 08b2 00000000 		.4byte	0
 9255              	.LLST28:
 9256 08b6 26070000 		.4byte	.LVL261
 9257 08ba 3A070000 		.4byte	.LVL263
 9258 08be 0100     		.2byte	0x1
 9259 08c0 5A       		.byte	0x5a
 9260 08c1 3A070000 		.4byte	.LVL263
 9261 08c5 3C070000 		.4byte	.LVL264
 9262 08c9 0100     		.2byte	0x1
 9263 08cb 57       		.byte	0x57
 9264 08cc 3C070000 		.4byte	.LVL264
 9265 08d0 46070000 		.4byte	.LVL266
 9266 08d4 0100     		.2byte	0x1
 9267 08d6 52       		.byte	0x52
 9268 08d7 46070000 		.4byte	.LVL266
 9269 08db 44080000 		.4byte	.LVL276
 9270 08df 0100     		.2byte	0x1
 9271 08e1 57       		.byte	0x57
 9272 08e2 08090000 		.4byte	.LVL289
 9273 08e6 44090000 		.4byte	.LVL294
 9274 08ea 0100     		.2byte	0x1
 9275 08ec 57       		.byte	0x57
 9276 08ed A60A0000 		.4byte	.LVL313
 9277 08f1 B20A0000 		.4byte	.LVL314
 9278 08f5 0100     		.2byte	0x1
 9279 08f7 57       		.byte	0x57
 9280 08f8 00000000 		.4byte	0
 9281 08fc 00000000 		.4byte	0
 9282              	.LLST29:
 9283 0900 B2000000 		.4byte	.LVL186
 9284 0904 B6000000 		.4byte	.LVL187
 9285 0908 0500     		.2byte	0x5
 9286 090a 70       		.byte	0x70
ARM GAS  /var/folders/5n/p_75w94d66l9ssrldxqdhh700000gn/T//ccyVBgQE.s 			page 164


 9287 090b 00       		.sleb128 0
 9288 090c 3C       		.byte	0x3c
 9289 090d 25       		.byte	0x25
 9290 090e 9F       		.byte	0x9f
 9291 090f 00000000 		.4byte	0
 9292 0913 00000000 		.4byte	0
 9293              	.LLST30:
 9294 0917 16020000 		.4byte	.LVL204
 9295 091b 20020000 		.4byte	.LVL205
 9296 091f 0100     		.2byte	0x1
 9297 0921 50       		.byte	0x50
 9298 0922 A8030000 		.4byte	.LVL224
 9299 0926 AA030000 		.4byte	.LVL225
 9300 092a 0100     		.2byte	0x1
 9301 092c 50       		.byte	0x50
 9302 092d 04040000 		.4byte	.LVL229
 9303 0931 16040000 		.4byte	.LVL230
 9304 0935 0200     		.2byte	0x2
 9305 0937 30       		.byte	0x30
 9306 0938 9F       		.byte	0x9f
 9307 0939 16040000 		.4byte	.LVL230
 9308 093d 18040000 		.4byte	.LVL231
 9309 0941 0100     		.2byte	0x1
 9310 0943 50       		.byte	0x50
 9311 0944 6A040000 		.4byte	.LVL233
 9312 0948 7C040000 		.4byte	.LVL234
 9313 094c 0100     		.2byte	0x1
 9314 094e 50       		.byte	0x50
 9315 094f A4040000 		.4byte	.LVL235
 9316 0953 A6040000 		.4byte	.LVL236
 9317 0957 0100     		.2byte	0x1
 9318 0959 50       		.byte	0x50
 9319 095a 4E080000 		.4byte	.LVL277
 9320 095e 50080000 		.4byte	.LVL278
 9321 0962 0100     		.2byte	0x1
 9322 0964 50       		.byte	0x50
 9323 0965 7A090000 		.4byte	.LVL296
 9324 0969 7C090000 		.4byte	.LVL297
 9325 096d 0100     		.2byte	0x1
 9326 096f 50       		.byte	0x50
 9327 0970 00000000 		.4byte	0
 9328 0974 00000000 		.4byte	0
 9329              	.LLST31:
 9330 0978 2E020000 		.4byte	.LVL206
 9331 097c 34020000 		.4byte	.LVL207
 9332 0980 0500     		.2byte	0x5
 9333 0982 03       		.byte	0x3
 9334 0983 00000000 		.4byte	tcp_input_pcb
 9335 0987 34020000 		.4byte	.LVL207
 9336 098b CC020000 		.4byte	.LVL214
 9337 098f 0100     		.2byte	0x1
 9338 0991 57       		.byte	0x57
 9339 0992 D4030000 		.4byte	.LVL226
 9340 0996 1C070000 		.4byte	.LVL259
 9341 099a 0100     		.2byte	0x1
 9342 099c 57       		.byte	0x57
 9343 099d 50080000 		.4byte	.LVL278
ARM GAS  /var/folders/5n/p_75w94d66l9ssrldxqdhh700000gn/T//ccyVBgQE.s 			page 165


 9344 09a1 90080000 		.4byte	.LVL281
 9345 09a5 0100     		.2byte	0x1
 9346 09a7 57       		.byte	0x57
 9347 09a8 EE080000 		.4byte	.LVL284
 9348 09ac 08090000 		.4byte	.LVL289
 9349 09b0 0100     		.2byte	0x1
 9350 09b2 57       		.byte	0x57
 9351 09b3 44090000 		.4byte	.LVL294
 9352 09b7 1A0A0000 		.4byte	.LVL306
 9353 09bb 0100     		.2byte	0x1
 9354 09bd 57       		.byte	0x57
 9355 09be 220A0000 		.4byte	.LVL308
 9356 09c2 600A0000 		.4byte	.LVL310
 9357 09c6 0100     		.2byte	0x1
 9358 09c8 57       		.byte	0x57
 9359 09c9 B20A0000 		.4byte	.LVL314
 9360 09cd 900B0000 		.4byte	.LFE7
 9361 09d1 0100     		.2byte	0x1
 9362 09d3 57       		.byte	0x57
 9363 09d4 00000000 		.4byte	0
 9364 09d8 00000000 		.4byte	0
 9365              	.LLST32:
 9366 09dc 300B0000 		.4byte	.LVL322
 9367 09e0 4B0B0000 		.4byte	.LVL323-1
 9368 09e4 0100     		.2byte	0x1
 9369 09e6 50       		.byte	0x50
 9370 09e7 700B0000 		.4byte	.LVL327
 9371 09eb 900B0000 		.4byte	.LFE7
 9372 09ef 0100     		.2byte	0x1
 9373 09f1 50       		.byte	0x50
 9374 09f2 00000000 		.4byte	0
 9375 09f6 00000000 		.4byte	0
 9376              	.LLST33:
 9377 09fa 2E020000 		.4byte	.LVL206
 9378 09fe 5A020000 		.4byte	.LVL209
 9379 0a02 0200     		.2byte	0x2
 9380 0a04 30       		.byte	0x30
 9381 0a05 9F       		.byte	0x9f
 9382 0a06 D4030000 		.4byte	.LVL226
 9383 0a0a F8030000 		.4byte	.LVL228
 9384 0a0e 0200     		.2byte	0x2
 9385 0a10 30       		.byte	0x30
 9386 0a11 9F       		.byte	0x9f
 9387 0a12 B6040000 		.4byte	.LVL238
 9388 0a16 1C070000 		.4byte	.LVL259
 9389 0a1a 0200     		.2byte	0x2
 9390 0a1c 30       		.byte	0x30
 9391 0a1d 9F       		.byte	0x9f
 9392 0a1e 50080000 		.4byte	.LVL278
 9393 0a22 62080000 		.4byte	.LVL280
 9394 0a26 0200     		.2byte	0x2
 9395 0a28 30       		.byte	0x30
 9396 0a29 9F       		.byte	0x9f
 9397 0a2a EE080000 		.4byte	.LVL284
 9398 0a2e F8080000 		.4byte	.LVL286
 9399 0a32 0200     		.2byte	0x2
 9400 0a34 31       		.byte	0x31
ARM GAS  /var/folders/5n/p_75w94d66l9ssrldxqdhh700000gn/T//ccyVBgQE.s 			page 166


 9401 0a35 9F       		.byte	0x9f
 9402 0a36 44090000 		.4byte	.LVL294
 9403 0a3a 6C090000 		.4byte	.LVL295
 9404 0a3e 0200     		.2byte	0x2
 9405 0a40 30       		.byte	0x30
 9406 0a41 9F       		.byte	0x9f
 9407 0a42 7C090000 		.4byte	.LVL297
 9408 0a46 1A0A0000 		.4byte	.LVL306
 9409 0a4a 0200     		.2byte	0x2
 9410 0a4c 30       		.byte	0x30
 9411 0a4d 9F       		.byte	0x9f
 9412 0a4e 220A0000 		.4byte	.LVL308
 9413 0a52 600A0000 		.4byte	.LVL310
 9414 0a56 0200     		.2byte	0x2
 9415 0a58 30       		.byte	0x30
 9416 0a59 9F       		.byte	0x9f
 9417 0a5a B20A0000 		.4byte	.LVL314
 9418 0a5e 900B0000 		.4byte	.LFE7
 9419 0a62 0200     		.2byte	0x2
 9420 0a64 30       		.byte	0x30
 9421 0a65 9F       		.byte	0x9f
 9422 0a66 00000000 		.4byte	0
 9423 0a6a 00000000 		.4byte	0
 9424              	.LLST34:
 9425 0a6e 2E020000 		.4byte	.LVL206
 9426 0a72 5A020000 		.4byte	.LVL209
 9427 0a76 0200     		.2byte	0x2
 9428 0a78 30       		.byte	0x30
 9429 0a79 9F       		.byte	0x9f
 9430 0a7a D4030000 		.4byte	.LVL226
 9431 0a7e E6030000 		.4byte	.LVL227
 9432 0a82 0200     		.2byte	0x2
 9433 0a84 30       		.byte	0x30
 9434 0a85 9F       		.byte	0x9f
 9435 0a86 B6040000 		.4byte	.LVL238
 9436 0a8a 6A060000 		.4byte	.LVL252
 9437 0a8e 0200     		.2byte	0x2
 9438 0a90 30       		.byte	0x30
 9439 0a91 9F       		.byte	0x9f
 9440 0a92 7C060000 		.4byte	.LVL253
 9441 0a96 1C070000 		.4byte	.LVL259
 9442 0a9a 0200     		.2byte	0x2
 9443 0a9c 30       		.byte	0x30
 9444 0a9d 9F       		.byte	0x9f
 9445 0a9e 50080000 		.4byte	.LVL278
 9446 0aa2 90080000 		.4byte	.LVL281
 9447 0aa6 0200     		.2byte	0x2
 9448 0aa8 30       		.byte	0x30
 9449 0aa9 9F       		.byte	0x9f
 9450 0aaa EE080000 		.4byte	.LVL284
 9451 0aae F8080000 		.4byte	.LVL286
 9452 0ab2 0200     		.2byte	0x2
 9453 0ab4 30       		.byte	0x30
 9454 0ab5 9F       		.byte	0x9f
 9455 0ab6 44090000 		.4byte	.LVL294
 9456 0aba 6C090000 		.4byte	.LVL295
 9457 0abe 0200     		.2byte	0x2
ARM GAS  /var/folders/5n/p_75w94d66l9ssrldxqdhh700000gn/T//ccyVBgQE.s 			page 167


 9458 0ac0 30       		.byte	0x30
 9459 0ac1 9F       		.byte	0x9f
 9460 0ac2 7C090000 		.4byte	.LVL297
 9461 0ac6 E4090000 		.4byte	.LVL302
 9462 0aca 0200     		.2byte	0x2
 9463 0acc 30       		.byte	0x30
 9464 0acd 9F       		.byte	0x9f
 9465 0ace E4090000 		.4byte	.LVL302
 9466 0ad2 EA090000 		.4byte	.LVL303
 9467 0ad6 0100     		.2byte	0x1
 9468 0ad8 50       		.byte	0x50
 9469 0ad9 220A0000 		.4byte	.LVL308
 9470 0add 600A0000 		.4byte	.LVL310
 9471 0ae1 0200     		.2byte	0x2
 9472 0ae3 30       		.byte	0x30
 9473 0ae4 9F       		.byte	0x9f
 9474 0ae5 B80A0000 		.4byte	.LVL315
 9475 0ae9 BA0A0000 		.4byte	.LVL316
 9476 0aed 0100     		.2byte	0x1
 9477 0aef 50       		.byte	0x50
 9478 0af0 C00A0000 		.4byte	.LVL317
 9479 0af4 5E0B0000 		.4byte	.LVL324
 9480 0af8 0200     		.2byte	0x2
 9481 0afa 30       		.byte	0x30
 9482 0afb 9F       		.byte	0x9f
 9483 0afc 5E0B0000 		.4byte	.LVL324
 9484 0b00 600B0000 		.4byte	.LVL325
 9485 0b04 0100     		.2byte	0x1
 9486 0b06 50       		.byte	0x50
 9487 0b07 680B0000 		.4byte	.LVL326
 9488 0b0b 900B0000 		.4byte	.LFE7
 9489 0b0f 0200     		.2byte	0x2
 9490 0b11 30       		.byte	0x30
 9491 0b12 9F       		.byte	0x9f
 9492 0b13 00000000 		.4byte	0
 9493 0b17 00000000 		.4byte	0
 9494              	.LLST35:
 9495 0b1b EE090000 		.4byte	.LVL304
 9496 0b1f F1090000 		.4byte	.LVL305-1
 9497 0b23 0300     		.2byte	0x3
 9498 0b25 77       		.byte	0x77
 9499 0b26 D200     		.sleb128 82
 9500 0b28 F1090000 		.4byte	.LVL305-1
 9501 0b2c 1A0A0000 		.4byte	.LVL306
 9502 0b30 0100     		.2byte	0x1
 9503 0b32 55       		.byte	0x55
 9504 0b33 B20A0000 		.4byte	.LVL314
 9505 0b37 B80A0000 		.4byte	.LVL315
 9506 0b3b 0100     		.2byte	0x1
 9507 0b3d 55       		.byte	0x55
 9508 0b3e 00000000 		.4byte	0
 9509 0b42 00000000 		.4byte	0
 9510              	.LLST36:
 9511 0b46 52030000 		.4byte	.LVL220
 9512 0b4a 94030000 		.4byte	.LVL221
 9513 0b4e 0100     		.2byte	0x1
 9514 0b50 57       		.byte	0x57
ARM GAS  /var/folders/5n/p_75w94d66l9ssrldxqdhh700000gn/T//ccyVBgQE.s 			page 168


 9515 0b51 600A0000 		.4byte	.LVL310
 9516 0b55 A60A0000 		.4byte	.LVL313
 9517 0b59 0100     		.2byte	0x1
 9518 0b5b 57       		.byte	0x57
 9519 0b5c 00000000 		.4byte	0
 9520 0b60 00000000 		.4byte	0
 9521              	.LLST37:
 9522 0b64 64070000 		.4byte	.LVL267
 9523 0b68 44080000 		.4byte	.LVL276
 9524 0b6c 0100     		.2byte	0x1
 9525 0b6e 57       		.byte	0x57
 9526 0b6f 08090000 		.4byte	.LVL289
 9527 0b73 44090000 		.4byte	.LVL294
 9528 0b77 0100     		.2byte	0x1
 9529 0b79 57       		.byte	0x57
 9530 0b7a A60A0000 		.4byte	.LVL313
 9531 0b7e B20A0000 		.4byte	.LVL314
 9532 0b82 0100     		.2byte	0x1
 9533 0b84 57       		.byte	0x57
 9534 0b85 00000000 		.4byte	0
 9535 0b89 00000000 		.4byte	0
 9536              	.LLST38:
 9537 0b8d 8A070000 		.4byte	.LVL268
 9538 0b91 A2070000 		.4byte	.LVL269
 9539 0b95 0100     		.2byte	0x1
 9540 0b97 50       		.byte	0x50
 9541 0b98 A2070000 		.4byte	.LVL269
 9542 0b9c 44080000 		.4byte	.LVL276
 9543 0ba0 0100     		.2byte	0x1
 9544 0ba2 5A       		.byte	0x5a
 9545 0ba3 3A090000 		.4byte	.LVL291
 9546 0ba7 44090000 		.4byte	.LVL294
 9547 0bab 0100     		.2byte	0x1
 9548 0bad 5A       		.byte	0x5a
 9549 0bae A60A0000 		.4byte	.LVL313
 9550 0bb2 B20A0000 		.4byte	.LVL314
 9551 0bb6 0100     		.2byte	0x1
 9552 0bb8 50       		.byte	0x50
 9553 0bb9 00000000 		.4byte	0
 9554 0bbd 00000000 		.4byte	0
 9555              	.LLST39:
 9556 0bc1 38080000 		.4byte	.LVL273
 9557 0bc5 3E080000 		.4byte	.LVL274
 9558 0bc9 0100     		.2byte	0x1
 9559 0bcb 50       		.byte	0x50
 9560 0bcc 3A090000 		.4byte	.LVL291
 9561 0bd0 3C090000 		.4byte	.LVL292
 9562 0bd4 0100     		.2byte	0x1
 9563 0bd6 50       		.byte	0x50
 9564 0bd7 00000000 		.4byte	0
 9565 0bdb 00000000 		.4byte	0
 9566              		.section	.debug_aranges,"",%progbits
 9567 0000 34000000 		.4byte	0x34
 9568 0004 0200     		.2byte	0x2
 9569 0006 00000000 		.4byte	.Ldebug_info0
 9570 000a 04       		.byte	0x4
 9571 000b 00       		.byte	0
ARM GAS  /var/folders/5n/p_75w94d66l9ssrldxqdhh700000gn/T//ccyVBgQE.s 			page 169


 9572 000c 0000     		.2byte	0
 9573 000e 0000     		.2byte	0
 9574 0010 00000000 		.4byte	.LFB13
 9575 0014 8C000000 		.4byte	.LFE13-.LFB13
 9576 0018 00000000 		.4byte	.LFB11
 9577 001c A8000000 		.4byte	.LFE11-.LFB11
 9578 0020 00000000 		.4byte	.LFB12
 9579 0024 8A090000 		.4byte	.LFE12-.LFB12
 9580 0028 00000000 		.4byte	.LFB7
 9581 002c 900B0000 		.4byte	.LFE7-.LFB7
 9582 0030 00000000 		.4byte	0
 9583 0034 00000000 		.4byte	0
 9584              		.section	.debug_ranges,"",%progbits
 9585              	.Ldebug_ranges0:
 9586 0000 20020000 		.4byte	.LBB11
 9587 0004 24020000 		.4byte	.LBE11
 9588 0008 26020000 		.4byte	.LBB28
 9589 000c 2C020000 		.4byte	.LBE28
 9590 0010 2E020000 		.4byte	.LBB29
 9591 0014 5A020000 		.4byte	.LBE29
 9592 0018 D4030000 		.4byte	.LBB33
 9593 001c F8030000 		.4byte	.LBE33
 9594 0020 B6040000 		.4byte	.LBB34
 9595 0024 1E070000 		.4byte	.LBE34
 9596 0028 50080000 		.4byte	.LBB39
 9597 002c 90080000 		.4byte	.LBE39
 9598 0030 EE080000 		.4byte	.LBB40
 9599 0034 F8080000 		.4byte	.LBE40
 9600 0038 44090000 		.4byte	.LBB42
 9601 003c 6C090000 		.4byte	.LBE42
 9602 0040 7C090000 		.4byte	.LBB43
 9603 0044 1A0A0000 		.4byte	.LBE43
 9604 0048 220A0000 		.4byte	.LBB44
 9605 004c 600A0000 		.4byte	.LBE44
 9606 0050 B20A0000 		.4byte	.LBB47
 9607 0054 900B0000 		.4byte	.LBE47
 9608 0058 00000000 		.4byte	0
 9609 005c 00000000 		.4byte	0
 9610 0060 20020000 		.4byte	.LBB12
 9611 0064 24020000 		.4byte	.LBE12
 9612 0068 26020000 		.4byte	.LBB15
 9613 006c 2C020000 		.4byte	.LBE15
 9614 0070 2E020000 		.4byte	.LBB16
 9615 0074 5A020000 		.4byte	.LBE16
 9616 0078 D4030000 		.4byte	.LBB17
 9617 007c F8030000 		.4byte	.LBE17
 9618 0080 BA040000 		.4byte	.LBB18
 9619 0084 F8040000 		.4byte	.LBE18
 9620 0088 FC040000 		.4byte	.LBB19
 9621 008c 2C050000 		.4byte	.LBE19
 9622 0090 30050000 		.4byte	.LBB20
 9623 0094 92060000 		.4byte	.LBE20
 9624 0098 96060000 		.4byte	.LBB21
 9625 009c 1E070000 		.4byte	.LBE21
 9626 00a0 50080000 		.4byte	.LBB22
 9627 00a4 90080000 		.4byte	.LBE22
 9628 00a8 EE080000 		.4byte	.LBB23
ARM GAS  /var/folders/5n/p_75w94d66l9ssrldxqdhh700000gn/T//ccyVBgQE.s 			page 170


 9629 00ac F8080000 		.4byte	.LBE23
 9630 00b0 48090000 		.4byte	.LBB24
 9631 00b4 6C090000 		.4byte	.LBE24
 9632 00b8 7C090000 		.4byte	.LBB25
 9633 00bc 1A0A0000 		.4byte	.LBE25
 9634 00c0 220A0000 		.4byte	.LBB26
 9635 00c4 600A0000 		.4byte	.LBE26
 9636 00c8 B20A0000 		.4byte	.LBB27
 9637 00cc 900B0000 		.4byte	.LBE27
 9638 00d0 00000000 		.4byte	0
 9639 00d4 00000000 		.4byte	0
 9640 00d8 D2090000 		.4byte	.LBB13
 9641 00dc 1A0A0000 		.4byte	.LBE13
 9642 00e0 B20A0000 		.4byte	.LBB14
 9643 00e4 CE0A0000 		.4byte	.LBE14
 9644 00e8 00000000 		.4byte	0
 9645 00ec 00000000 		.4byte	0
 9646 00f0 52030000 		.4byte	.LBB30
 9647 00f4 94030000 		.4byte	.LBE30
 9648 00f8 600A0000 		.4byte	.LBB45
 9649 00fc A60A0000 		.4byte	.LBE45
 9650 0100 00000000 		.4byte	0
 9651 0104 00000000 		.4byte	0
 9652 0108 64070000 		.4byte	.LBB35
 9653 010c 44080000 		.4byte	.LBE35
 9654 0110 08090000 		.4byte	.LBB41
 9655 0114 44090000 		.4byte	.LBE41
 9656 0118 A60A0000 		.4byte	.LBB46
 9657 011c B20A0000 		.4byte	.LBE46
 9658 0120 00000000 		.4byte	0
 9659 0124 00000000 		.4byte	0
 9660 0128 64070000 		.4byte	.LBB36
 9661 012c 44080000 		.4byte	.LBE36
 9662 0130 08090000 		.4byte	.LBB37
 9663 0134 44090000 		.4byte	.LBE37
 9664 0138 A60A0000 		.4byte	.LBB38
 9665 013c B20A0000 		.4byte	.LBE38
 9666 0140 00000000 		.4byte	0
 9667 0144 00000000 		.4byte	0
 9668 0148 00000000 		.4byte	.LFB13
 9669 014c 8C000000 		.4byte	.LFE13
 9670 0150 00000000 		.4byte	.LFB11
 9671 0154 A8000000 		.4byte	.LFE11
 9672 0158 00000000 		.4byte	.LFB12
 9673 015c 8A090000 		.4byte	.LFE12
 9674 0160 00000000 		.4byte	.LFB7
 9675 0164 900B0000 		.4byte	.LFE7
 9676 0168 00000000 		.4byte	0
 9677 016c 00000000 		.4byte	0
 9678              		.section	.debug_line,"",%progbits
 9679              	.Ldebug_line0:
 9680 0000 5E080000 		.section	.debug_str,"MS",%progbits,1
 9680      0200C101 
 9680      00000201 
 9680      FB0E0D00 
 9680      01010101 
 9681              	.LASF127:
ARM GAS  /var/folders/5n/p_75w94d66l9ssrldxqdhh700000gn/T//ccyVBgQE.s 			page 171


 9682 0000 6C697374 		.ascii	"listen_pcbs\000"
 9682      656E5F70 
 9682      63627300 
 9683              	.LASF132:
 9684 000c 4D454D50 		.ascii	"MEMP_TCP_PCB_LISTEN\000"
 9684      5F544350 
 9684      5F504342 
 9684      5F4C4953 
 9684      54454E00 
 9685              	.LASF173:
 9686 0020 63736567 		.ascii	"cseg\000"
 9686      00
 9687              	.LASF188:
 9688 0025 6F6C645F 		.ascii	"old_cwnd\000"
 9688      63776E64 
 9688      00
 9689              	.LASF60:
 9690 002e 736F5F6F 		.ascii	"so_options\000"
 9690      7074696F 
 9690      6E7300
 9691              	.LASF38:
 9692 0039 696E7075 		.ascii	"input\000"
 9692      7400
 9693              	.LASF174:
 9694 003f 6F6C645F 		.ascii	"old_seg\000"
 9694      73656700 
 9695              	.LASF179:
 9696 0047 666F756E 		.ascii	"found_dupack\000"
 9696      645F6475 
 9696      7061636B 
 9696      00
 9697              	.LASF184:
 9698 0054 6E706362 		.ascii	"npcb\000"
 9698      00
 9699              	.LASF126:
 9700 0059 75726770 		.ascii	"urgp\000"
 9700      00
 9701              	.LASF70:
 9702 005e 706F6C6C 		.ascii	"polltmr\000"
 9702      746D7200 
 9703              	.LASF56:
 9704 0066 7463705F 		.ascii	"tcp_accept_fn\000"
 9704      61636365 
 9704      70745F66 
 9704      6E00
 9705              	.LASF29:
 9706 0074 666C6167 		.ascii	"flags\000"
 9706      7300
 9707              	.LASF117:
 9708 007a 54494D45 		.ascii	"TIME_WAIT\000"
 9708      5F574149 
 9708      5400
 9709              	.LASF0:
 9710 0084 756E7369 		.ascii	"unsigned int\000"
 9710      676E6564 
 9710      20696E74 
 9710      00
ARM GAS  /var/folders/5n/p_75w94d66l9ssrldxqdhh700000gn/T//ccyVBgQE.s 			page 172


 9711              	.LASF106:
 9712 0091 7463705F 		.ascii	"tcp_connected_fn\000"
 9712      636F6E6E 
 9712      65637465 
 9712      645F666E 
 9712      00
 9713              	.LASF25:
 9714 00a2 6E657874 		.ascii	"next\000"
 9714      00
 9715              	.LASF23:
 9716 00a7 6572725F 		.ascii	"err_t\000"
 9716      7400
 9717              	.LASF40:
 9718 00ad 6C696E6B 		.ascii	"linkoutput\000"
 9718      6F757470 
 9718      757400
 9719              	.LASF222:
 9720 00b8 7463705F 		.ascii	"tcp_rexmit\000"
 9720      7265786D 
 9720      697400
 9721              	.LASF176:
 9722 00c3 70726576 		.ascii	"prev\000"
 9722      00
 9723              	.LASF19:
 9724 00c8 7531365F 		.ascii	"u16_t\000"
 9724      7400
 9725              	.LASF52:
 9726 00ce 5F74746C 		.ascii	"_ttl\000"
 9726      00
 9727              	.LASF211:
 9728 00d3 6C776970 		.ascii	"lwip_ntohl\000"
 9728      5F6E746F 
 9728      686C00
 9729              	.LASF181:
 9730 00de 6F6C645F 		.ascii	"old_ooseq\000"
 9730      6F6F7365 
 9730      7100
 9731              	.LASF69:
 9732 00e8 7263765F 		.ascii	"rcv_ann_right_edge\000"
 9732      616E6E5F 
 9732      72696768 
 9732      745F6564 
 9732      676500
 9733              	.LASF155:
 9734 00fb 73746174 		.ascii	"stats_mem\000"
 9734      735F6D65 
 9734      6D00
 9735              	.LASF226:
 9736 0105 7463705F 		.ascii	"tcp_enqueue_flags\000"
 9736      656E7175 
 9736      6575655F 
 9736      666C6167 
 9736      7300
 9737              	.LASF46:
 9738 0117 6E657469 		.ascii	"netif_output_fn\000"
 9738      665F6F75 
 9738      74707574 
ARM GAS  /var/folders/5n/p_75w94d66l9ssrldxqdhh700000gn/T//ccyVBgQE.s 			page 173


 9738      5F666E00 
 9739              	.LASF206:
 9740 0127 6C776970 		.ascii	"lwip_htons\000"
 9740      5F68746F 
 9740      6E7300
 9741              	.LASF101:
 9742 0132 6B656570 		.ascii	"keep_cnt_sent\000"
 9742      5F636E74 
 9742      5F73656E 
 9742      7400
 9743              	.LASF142:
 9744 0140 4D454D50 		.ascii	"MEMP_PBUF_POOL\000"
 9744      5F504255 
 9744      465F504F 
 9744      4F4C00
 9745              	.LASF204:
 9746 014f 6C776970 		.ascii	"lwip_stats\000"
 9746      5F737461 
 9746      747300
 9747              	.LASF172:
 9748 015a 7463705F 		.ascii	"tcp_oos_insert_segment\000"
 9748      6F6F735F 
 9748      696E7365 
 9748      72745F73 
 9748      65676D65 
 9749              	.LASF103:
 9750 0171 7463705F 		.ascii	"tcp_sent_fn\000"
 9750      73656E74 
 9750      5F666E00 
 9751              	.LASF191:
 9752 017d 696E7365 		.ascii	"inseg\000"
 9752      6700
 9753              	.LASF231:
 9754 0183 7463705F 		.ascii	"tcp_pcb_remove\000"
 9754      7063625F 
 9754      72656D6F 
 9754      766500
 9755              	.LASF159:
 9756 0192 73746174 		.ascii	"stats_syselem\000"
 9756      735F7379 
 9756      73656C65 
 9756      6D00
 9757              	.LASF122:
 9758 01a0 7365716E 		.ascii	"seqno\000"
 9758      6F00
 9759              	.LASF45:
 9760 01a6 6E657469 		.ascii	"netif_input_fn\000"
 9760      665F696E 
 9760      7075745F 
 9760      666E00
 9761              	.LASF178:
 9762 01b5 6E65775F 		.ascii	"new_tot_len\000"
 9762      746F745F 
 9762      6C656E00 
 9763              	.LASF11:
 9764 01c1 75696E74 		.ascii	"uint32_t\000"
 9764      33325F74 
ARM GAS  /var/folders/5n/p_75w94d66l9ssrldxqdhh700000gn/T//ccyVBgQE.s 			page 174


 9764      00
 9765              	.LASF2:
 9766 01ca 696E7438 		.ascii	"int8_t\000"
 9766      5F7400
 9767              	.LASF78:
 9768 01d1 63776E64 		.ascii	"cwnd\000"
 9768      00
 9769              	.LASF234:
 9770 01d6 474E5520 		.ascii	"GNU C 4.7.2\000"
 9770      4320342E 
 9770      372E3200 
 9771              	.LASF138:
 9772 01e2 4D454D50 		.ascii	"MEMP_TCPIP_MSG_API\000"
 9772      5F544350 
 9772      49505F4D 
 9772      53475F41 
 9772      504900
 9773              	.LASF153:
 9774 01f5 6F707465 		.ascii	"opterr\000"
 9774      727200
 9775              	.LASF64:
 9776 01fc 6C6F6361 		.ascii	"local_port\000"
 9776      6C5F706F 
 9776      727400
 9777              	.LASF161:
 9778 0207 6D757465 		.ascii	"mutex\000"
 9778      7800
 9779              	.LASF166:
 9780 020d 69705F66 		.ascii	"ip_frag\000"
 9780      72616700 
 9781              	.LASF158:
 9782 0215 696C6C65 		.ascii	"illegal\000"
 9782      67616C00 
 9783              	.LASF5:
 9784 021d 696E7431 		.ascii	"int16_t\000"
 9784      365F7400 
 9785              	.LASF43:
 9786 0225 68776164 		.ascii	"hwaddr\000"
 9786      647200
 9787              	.LASF165:
 9788 022c 65746861 		.ascii	"etharp\000"
 9788      727000
 9789              	.LASF118:
 9790 0233 7463705F 		.ascii	"tcp_seg\000"
 9790      73656700 
 9791              	.LASF14:
 9792 023b 6C6F6E67 		.ascii	"long long unsigned int\000"
 9792      206C6F6E 
 9792      6720756E 
 9792      7369676E 
 9792      65642069 
 9793              	.LASF196:
 9794 0252 63757272 		.ascii	"current_iphdr_src\000"
 9794      656E745F 
 9794      69706864 
 9794      725F7372 
 9794      6300
ARM GAS  /var/folders/5n/p_75w94d66l9ssrldxqdhh700000gn/T//ccyVBgQE.s 			page 175


 9795              	.LASF54:
 9796 0264 5F63686B 		.ascii	"_chksum\000"
 9796      73756D00 
 9797              	.LASF72:
 9798 026c 7274696D 		.ascii	"rtime\000"
 9798      6500
 9799              	.LASF42:
 9800 0272 68776164 		.ascii	"hwaddr_len\000"
 9800      64725F6C 
 9800      656E00
 9801              	.LASF51:
 9802 027d 5F6F6666 		.ascii	"_offset\000"
 9802      73657400 
 9803              	.LASF85:
 9804 0285 61636B65 		.ascii	"acked\000"
 9804      6400
 9805              	.LASF66:
 9806 028b 7263765F 		.ascii	"rcv_nxt\000"
 9806      6E787400 
 9807              	.LASF139:
 9808 0293 4D454D50 		.ascii	"MEMP_TCPIP_MSG_INPKT\000"
 9808      5F544350 
 9808      49505F4D 
 9808      53475F49 
 9808      4E504B54 
 9809              	.LASF157:
 9810 02a8 75736564 		.ascii	"used\000"
 9810      00
 9811              	.LASF90:
 9812 02ad 756E6163 		.ascii	"unacked\000"
 9812      6B656400 
 9813              	.LASF163:
 9814 02b5 73746174 		.ascii	"stats_\000"
 9814      735F00
 9815              	.LASF180:
 9816 02bc 6E65775F 		.ascii	"new_cwnd\000"
 9816      63776E64 
 9816      00
 9817              	.LASF116:
 9818 02c5 4C415354 		.ascii	"LAST_ACK\000"
 9818      5F41434B 
 9818      00
 9819              	.LASF27:
 9820 02ce 746F745F 		.ascii	"tot_len\000"
 9820      6C656E00 
 9821              	.LASF26:
 9822 02d6 7061796C 		.ascii	"payload\000"
 9822      6F616400 
 9823              	.LASF239:
 9824 02de 7463705F 		.ascii	"tcp_input\000"
 9824      696E7075 
 9824      7400
 9825              	.LASF187:
 9826 02e8 61636365 		.ascii	"acceptable\000"
 9826      70746162 
 9826      6C6500
 9827              	.LASF39:
ARM GAS  /var/folders/5n/p_75w94d66l9ssrldxqdhh700000gn/T//ccyVBgQE.s 			page 176


 9828 02f3 6F757470 		.ascii	"output\000"
 9828      757400
 9829              	.LASF95:
 9830 02fa 636F6E6E 		.ascii	"connected\000"
 9830      65637465 
 9830      6400
 9831              	.LASF30:
 9832 0304 70627566 		.ascii	"pbuf\000"
 9832      00
 9833              	.LASF203:
 9834 0309 7463705F 		.ascii	"tcp_tmp_pcb\000"
 9834      746D705F 
 9834      70636200 
 9835              	.LASF218:
 9836 0315 7463705F 		.ascii	"tcp_pcb_purge\000"
 9836      7063625F 
 9836      70757267 
 9836      6500
 9837              	.LASF115:
 9838 0323 434C4F53 		.ascii	"CLOSING\000"
 9838      494E4700 
 9839              	.LASF76:
 9840 032b 6C617374 		.ascii	"lastack\000"
 9840      61636B00 
 9841              	.LASF143:
 9842 0333 4D454D50 		.ascii	"MEMP_MAX\000"
 9842      5F4D4158 
 9842      00
 9843              	.LASF18:
 9844 033c 73385F74 		.ascii	"s8_t\000"
 9844      00
 9845              	.LASF22:
 9846 0341 7333325F 		.ascii	"s32_t\000"
 9846      7400
 9847              	.LASF137:
 9848 0347 4D454D50 		.ascii	"MEMP_NETCONN\000"
 9848      5F4E4554 
 9848      434F4E4E 
 9848      00
 9849              	.LASF212:
 9850 0354 70627566 		.ascii	"pbuf_clen\000"
 9850      5F636C65 
 9850      6E00
 9851              	.LASF229:
 9852 035e 6970345F 		.ascii	"ip4_addr_isbroadcast\000"
 9852      61646472 
 9852      5F697362 
 9852      726F6164 
 9852      63617374 
 9853              	.LASF164:
 9854 0373 6C696E6B 		.ascii	"link\000"
 9854      00
 9855              	.LASF74:
 9856 0378 72747365 		.ascii	"rtseq\000"
 9856      7100
 9857              	.LASF201:
 9858 037e 7463705F 		.ascii	"tcp_active_pcbs\000"
ARM GAS  /var/folders/5n/p_75w94d66l9ssrldxqdhh700000gn/T//ccyVBgQE.s 			page 177


 9858      61637469 
 9858      76655F70 
 9858      63627300 
 9859              	.LASF77:
 9860 038e 64757061 		.ascii	"dupacks\000"
 9860      636B7300 
 9861              	.LASF224:
 9862 0396 7463705F 		.ascii	"tcp_output\000"
 9862      6F757470 
 9862      757400
 9863              	.LASF61:
 9864 03a1 7072696F 		.ascii	"prio\000"
 9864      00
 9865              	.LASF63:
 9866 03a6 61636365 		.ascii	"accept\000"
 9866      707400
 9867              	.LASF141:
 9868 03ad 4D454D50 		.ascii	"MEMP_PBUF\000"
 9868      5F504255 
 9868      4600
 9869              	.LASF96:
 9870 03b7 706F6C6C 		.ascii	"poll\000"
 9870      00
 9871              	.LASF16:
 9872 03bc 63686172 		.ascii	"char\000"
 9872      00
 9873              	.LASF214:
 9874 03c1 70627566 		.ascii	"pbuf_header\000"
 9874      5F686561 
 9874      64657200 
 9875              	.LASF208:
 9876 03cd 70627566 		.ascii	"pbuf_realloc\000"
 9876      5F726561 
 9876      6C6C6F63 
 9876      00
 9877              	.LASF24:
 9878 03da 6D656D5F 		.ascii	"mem_size_t\000"
 9878      73697A65 
 9878      5F7400
 9879              	.LASF145:
 9880 03e5 73746174 		.ascii	"stats_proto\000"
 9880      735F7072 
 9880      6F746F00 
 9881              	.LASF185:
 9882 03f1 7463705F 		.ascii	"tcp_process\000"
 9882      70726F63 
 9882      65737300 
 9883              	.LASF33:
 9884 03fd 69705F61 		.ascii	"ip_addr_packed\000"
 9884      6464725F 
 9884      7061636B 
 9884      656400
 9885              	.LASF114:
 9886 040c 434C4F53 		.ascii	"CLOSE_WAIT\000"
 9886      455F5741 
 9886      495400
 9887              	.LASF193:
ARM GAS  /var/folders/5n/p_75w94d66l9ssrldxqdhh700000gn/T//ccyVBgQE.s 			page 178


 9888 0417 7463706C 		.ascii	"tcplen\000"
 9888      656E00
 9889              	.LASF93:
 9890 041e 73656E74 		.ascii	"sent\000"
 9890      00
 9891              	.LASF3:
 9892 0423 75696E74 		.ascii	"uint8_t\000"
 9892      385F7400 
 9893              	.LASF82:
 9894 042b 736E645F 		.ascii	"snd_wl1\000"
 9894      776C3100 
 9895              	.LASF83:
 9896 0433 736E645F 		.ascii	"snd_wl2\000"
 9896      776C3200 
 9897              	.LASF213:
 9898 043b 7463705F 		.ascii	"tcp_seg_copy\000"
 9898      7365675F 
 9898      636F7079 
 9898      00
 9899              	.LASF53:
 9900 0448 5F70726F 		.ascii	"_proto\000"
 9900      746F00
 9901              	.LASF105:
 9902 044f 7463705F 		.ascii	"tcp_err_fn\000"
 9902      6572725F 
 9902      666E00
 9903              	.LASF182:
 9904 045a 7463705F 		.ascii	"tcp_timewait_input\000"
 9904      74696D65 
 9904      77616974 
 9904      5F696E70 
 9904      757400
 9905              	.LASF238:
 9906 046d 7463705F 		.ascii	"tcp_listen_pcbs_t\000"
 9906      6C697374 
 9906      656E5F70 
 9906      6362735F 
 9906      7400
 9907              	.LASF228:
 9908 047f 70627566 		.ascii	"pbuf_free\000"
 9908      5F667265 
 9908      6500
 9909              	.LASF84:
 9910 0489 736E645F 		.ascii	"snd_lbb\000"
 9910      6C626200 
 9911              	.LASF233:
 9912 0491 7463705F 		.ascii	"tcp_recv_null\000"
 9912      72656376 
 9912      5F6E756C 
 9912      6C00
 9913              	.LASF136:
 9914 049f 4D454D50 		.ascii	"MEMP_NETBUF\000"
 9914      5F4E4554 
 9914      42554600 
 9915              	.LASF37:
 9916 04ab 6E65746D 		.ascii	"netmask\000"
 9916      61736B00 
ARM GAS  /var/folders/5n/p_75w94d66l9ssrldxqdhh700000gn/T//ccyVBgQE.s 			page 179


 9917              	.LASF13:
 9918 04b3 6C6F6E67 		.ascii	"long long int\000"
 9918      206C6F6E 
 9918      6720696E 
 9918      7400
 9919              	.LASF120:
 9920 04c1 7463705F 		.ascii	"tcp_pcb_listen\000"
 9920      7063625F 
 9920      6C697374 
 9920      656E00
 9921              	.LASF123:
 9922 04d0 61636B6E 		.ascii	"ackno\000"
 9922      6F00
 9923              	.LASF198:
 9924 04d6 7463705F 		.ascii	"tcp_input_pcb\000"
 9924      696E7075 
 9924      745F7063 
 9924      6200
 9925              	.LASF100:
 9926 04e4 70657273 		.ascii	"persist_backoff\000"
 9926      6973745F 
 9926      6261636B 
 9926      6F666600 
 9927              	.LASF131:
 9928 04f4 4D454D50 		.ascii	"MEMP_TCP_PCB\000"
 9928      5F544350 
 9928      5F504342 
 9928      00
 9929              	.LASF168:
 9930 0501 6D656D70 		.ascii	"memp\000"
 9930      00
 9931              	.LASF17:
 9932 0506 75385F74 		.ascii	"u8_t\000"
 9932      00
 9933              	.LASF236:
 9934 050b 2F557365 		.ascii	"/Users/sin/Documents/Eclipse/Workspace/ChibiOS_2.4."
 9934      72732F73 
 9934      696E2F44 
 9934      6F63756D 
 9934      656E7473 
 9935 053e 322F6465 		.ascii	"2/demos/ARMCM4-STM32F407-LWIP\000"
 9935      6D6F732F 
 9935      41524D43 
 9935      4D342D53 
 9935      544D3332 
 9936              	.LASF177:
 9937 055c 72696768 		.ascii	"right_wnd_edge\000"
 9937      745F776E 
 9937      645F6564 
 9937      676500
 9938              	.LASF220:
 9939 056b 7463705F 		.ascii	"tcp_timer_needed\000"
 9939      74696D65 
 9939      725F6E65 
 9939      65646564 
 9939      00
 9940              	.LASF65:
ARM GAS  /var/folders/5n/p_75w94d66l9ssrldxqdhh700000gn/T//ccyVBgQE.s 			page 180


 9941 057c 72656D6F 		.ascii	"remote_port\000"
 9941      74655F70 
 9941      6F727400 
 9942              	.LASF200:
 9943 0588 7463705F 		.ascii	"tcp_listen_pcbs\000"
 9943      6C697374 
 9943      656E5F70 
 9943      63627300 
 9944              	.LASF68:
 9945 0598 7263765F 		.ascii	"rcv_ann_wnd\000"
 9945      616E6E5F 
 9945      776E6400 
 9946              	.LASF148:
 9947 05a4 63686B65 		.ascii	"chkerr\000"
 9947      727200
 9948              	.LASF186:
 9949 05ab 72736567 		.ascii	"rseg\000"
 9949      00
 9950              	.LASF134:
 9951 05b0 4D454D50 		.ascii	"MEMP_REASSDATA\000"
 9951      5F524541 
 9951      53534441 
 9951      544100
 9952              	.LASF102:
 9953 05bf 7463705F 		.ascii	"tcp_recv_fn\000"
 9953      72656376 
 9953      5F666E00 
 9954              	.LASF241:
 9955 05cb 7463705F 		.ascii	"tcp_abort\000"
 9955      61626F72 
 9955      7400
 9956              	.LASF215:
 9957 05d5 7463705F 		.ascii	"tcp_update_rcv_ann_wnd\000"
 9957      75706461 
 9957      74655F72 
 9957      63765F61 
 9957      6E6E5F77 
 9958              	.LASF104:
 9959 05ec 7463705F 		.ascii	"tcp_poll_fn\000"
 9959      706F6C6C 
 9959      5F666E00 
 9960              	.LASF223:
 9961 05f8 7463705F 		.ascii	"tcp_eff_send_mss\000"
 9961      6566665F 
 9961      73656E64 
 9961      5F6D7373 
 9961      00
 9962              	.LASF7:
 9963 0609 75696E74 		.ascii	"uint16_t\000"
 9963      31365F74 
 9963      00
 9964              	.LASF97:
 9965 0612 65727266 		.ascii	"errf\000"
 9965      00
 9966              	.LASF81:
 9967 0617 736E645F 		.ascii	"snd_wnd\000"
 9967      776E6400 
ARM GAS  /var/folders/5n/p_75w94d66l9ssrldxqdhh700000gn/T//ccyVBgQE.s 			page 181


 9968              	.LASF207:
 9969 061f 7463705F 		.ascii	"tcp_seg_free\000"
 9969      7365675F 
 9969      66726565 
 9969      00
 9970              	.LASF221:
 9971 062c 7463705F 		.ascii	"tcp_rst\000"
 9971      72737400 
 9972              	.LASF49:
 9973 0634 5F765F68 		.ascii	"_v_hl_tos\000"
 9973      6C5F746F 
 9973      7300
 9974              	.LASF194:
 9975 063e 72656376 		.ascii	"recv_flags\000"
 9975      5F666C61 
 9975      677300
 9976              	.LASF91:
 9977 0649 6F6F7365 		.ascii	"ooseq\000"
 9977      7100
 9978              	.LASF205:
 9979 064f 6C776970 		.ascii	"lwip_ntohs\000"
 9979      5F6E746F 
 9979      687300
 9980              	.LASF107:
 9981 065a 434C4F53 		.ascii	"CLOSED\000"
 9981      454400
 9982              	.LASF21:
 9983 0661 7533325F 		.ascii	"u32_t\000"
 9983      7400
 9984              	.LASF6:
 9985 0667 73686F72 		.ascii	"short int\000"
 9985      7420696E 
 9985      7400
 9986              	.LASF167:
 9987 0671 69636D70 		.ascii	"icmp\000"
 9987      00
 9988              	.LASF10:
 9989 0676 6C6F6E67 		.ascii	"long int\000"
 9989      20696E74 
 9989      00
 9990              	.LASF230:
 9991 067f 696E6574 		.ascii	"inet_chksum_pseudo\000"
 9991      5F63686B 
 9991      73756D5F 
 9991      70736575 
 9991      646F00
 9992              	.LASF151:
 9993 0692 72746572 		.ascii	"rterr\000"
 9993      7200
 9994              	.LASF156:
 9995 0698 61766169 		.ascii	"avail\000"
 9995      6C00
 9996              	.LASF240:
 9997 069e 61626F72 		.ascii	"aborted\000"
 9997      74656400 
 9998              	.LASF89:
 9999 06a6 756E7365 		.ascii	"unsent\000"
ARM GAS  /var/folders/5n/p_75w94d66l9ssrldxqdhh700000gn/T//ccyVBgQE.s 			page 182


 9999      6E7400
 10000              	.LASF67:
 10001 06ad 7263765F 		.ascii	"rcv_wnd\000"
 10001      776E6400 
 10002              	.LASF73:
 10003 06b5 72747465 		.ascii	"rttest\000"
 10003      737400
 10004              	.LASF210:
 10005 06bc 7463705F 		.ascii	"tcp_send_empty_ack\000"
 10005      73656E64 
 10005      5F656D70 
 10005      74795F61 
 10005      636B00
 10006              	.LASF170:
 10007 06cf 6F707473 		.ascii	"opts\000"
 10007      00
 10008              	.LASF183:
 10009 06d4 7463705F 		.ascii	"tcp_listen_input\000"
 10009      6C697374 
 10009      656E5F69 
 10009      6E707574 
 10009      00
 10010              	.LASF140:
 10011 06e5 4D454D50 		.ascii	"MEMP_SYS_TIMEOUT\000"
 10011      5F535953 
 10011      5F54494D 
 10011      454F5554 
 10011      00
 10012              	.LASF130:
 10013 06f6 4D454D50 		.ascii	"MEMP_UDP_PCB\000"
 10013      5F554450 
 10013      5F504342 
 10013      00
 10014              	.LASF58:
 10015 0703 6C6F6361 		.ascii	"local_ip\000"
 10015      6C5F6970 
 10015      00
 10016              	.LASF162:
 10017 070c 6D626F78 		.ascii	"mbox\000"
 10017      00
 10018              	.LASF88:
 10019 0711 756E7365 		.ascii	"unsent_oversize\000"
 10019      6E745F6F 
 10019      76657273 
 10019      697A6500 
 10020              	.LASF109:
 10021 0721 53594E5F 		.ascii	"SYN_SENT\000"
 10021      53454E54 
 10021      00
 10022              	.LASF154:
 10023 072a 63616368 		.ascii	"cachehit\000"
 10023      65686974 
 10023      00
 10024              	.LASF80:
 10025 0733 736E645F 		.ascii	"snd_nxt\000"
 10025      6E787400 
 10026              	.LASF111:
ARM GAS  /var/folders/5n/p_75w94d66l9ssrldxqdhh700000gn/T//ccyVBgQE.s 			page 183


 10027 073b 45535441 		.ascii	"ESTABLISHED\000"
 10027      424C4953 
 10027      48454400 
 10028              	.LASF48:
 10029 0747 69705F68 		.ascii	"ip_hdr\000"
 10029      647200
 10030              	.LASF44:
 10031 074e 6E616D65 		.ascii	"name\000"
 10031      00
 10032              	.LASF235:
 10033 0753 2E2E2F2E 		.ascii	"../../ext/lwip-1.4.0/src/core/tcp_in.c\000"
 10033      2E2F6578 
 10033      742F6C77 
 10033      69702D31 
 10033      2E342E30 
 10034              	.LASF47:
 10035 077a 6E657469 		.ascii	"netif_linkoutput_fn\000"
 10035      665F6C69 
 10035      6E6B6F75 
 10035      74707574 
 10035      5F666E00 
 10036              	.LASF135:
 10037 078e 4D454D50 		.ascii	"MEMP_FRAG_PBUF\000"
 10037      5F465241 
 10037      475F5042 
 10037      554600
 10038              	.LASF79:
 10039 079d 73737468 		.ascii	"ssthresh\000"
 10039      72657368 
 10039      00
 10040              	.LASF86:
 10041 07a6 736E645F 		.ascii	"snd_buf\000"
 10041      62756600 
 10042              	.LASF71:
 10043 07ae 706F6C6C 		.ascii	"pollinterval\000"
 10043      696E7465 
 10043      7276616C 
 10043      00
 10044              	.LASF129:
 10045 07bb 4D454D50 		.ascii	"MEMP_RAW_PCB\000"
 10045      5F524157 
 10045      5F504342 
 10045      00
 10046              	.LASF124:
 10047 07c8 5F686472 		.ascii	"_hdrlen_rsvd_flags\000"
 10047      6C656E5F 
 10047      72737664 
 10047      5F666C61 
 10047      677300
 10048              	.LASF149:
 10049 07db 6C656E65 		.ascii	"lenerr\000"
 10049      727200
 10050              	.LASF175:
 10051 07e2 7463705F 		.ascii	"tcp_receive\000"
 10051      72656365 
 10051      69766500 
 10052              	.LASF15:
ARM GAS  /var/folders/5n/p_75w94d66l9ssrldxqdhh700000gn/T//ccyVBgQE.s 			page 184


 10053 07ee 73697A65 		.ascii	"sizetype\000"
 10053      74797065 
 10053      00
 10054              	.LASF12:
 10055 07f7 6C6F6E67 		.ascii	"long unsigned int\000"
 10055      20756E73 
 10055      69676E65 
 10055      6420696E 
 10055      7400
 10056              	.LASF199:
 10057 0809 7463705F 		.ascii	"tcp_ticks\000"
 10057      7469636B 
 10057      7300
 10058              	.LASF195:
 10059 0813 72656376 		.ascii	"recv_data\000"
 10059      5F646174 
 10059      6100
 10060              	.LASF119:
 10061 081d 74637068 		.ascii	"tcphdr\000"
 10061      647200
 10062              	.LASF20:
 10063 0824 7331365F 		.ascii	"s16_t\000"
 10063      7400
 10064              	.LASF9:
 10065 082a 696E7433 		.ascii	"int32_t\000"
 10065      325F7400 
 10066              	.LASF92:
 10067 0832 72656675 		.ascii	"refused_data\000"
 10067      7365645F 
 10067      64617461 
 10067      00
 10068              	.LASF152:
 10069 083f 70726F74 		.ascii	"proterr\000"
 10069      65727200 
 10070              	.LASF121:
 10071 0847 7463705F 		.ascii	"tcp_hdr\000"
 10071      68647200 
 10072              	.LASF28:
 10073 084f 74797065 		.ascii	"type\000"
 10073      00
 10074              	.LASF160:
 10075 0854 73746174 		.ascii	"stats_sys\000"
 10075      735F7379 
 10075      7300
 10076              	.LASF4:
 10077 085e 756E7369 		.ascii	"unsigned char\000"
 10077      676E6564 
 10077      20636861 
 10077      7200
 10078              	.LASF112:
 10079 086c 46494E5F 		.ascii	"FIN_WAIT_1\000"
 10079      57414954 
 10079      5F3100
 10080              	.LASF113:
 10081 0877 46494E5F 		.ascii	"FIN_WAIT_2\000"
 10081      57414954 
 10081      5F3200
ARM GAS  /var/folders/5n/p_75w94d66l9ssrldxqdhh700000gn/T//ccyVBgQE.s 			page 185


 10082              	.LASF150:
 10083 0882 6D656D65 		.ascii	"memerr\000"
 10083      727200
 10084              	.LASF133:
 10085 0889 4D454D50 		.ascii	"MEMP_TCP_SEG\000"
 10085      5F544350 
 10085      5F534547 
 10085      00
 10086              	.LASF35:
 10087 0896 69705F61 		.ascii	"ip_addr_p_t\000"
 10087      6464725F 
 10087      705F7400 
 10088              	.LASF98:
 10089 08a2 6B656570 		.ascii	"keep_idle\000"
 10089      5F69646C 
 10089      6500
 10090              	.LASF169:
 10091 08ac 6D61785F 		.ascii	"max_c\000"
 10091      6300
 10092              	.LASF62:
 10093 08b2 63616C6C 		.ascii	"callback_arg\000"
 10093      6261636B 
 10093      5F617267 
 10093      00
 10094              	.LASF219:
 10095 08bf 706F7274 		.ascii	"port_halt\000"
 10095      5F68616C 
 10095      7400
 10096              	.LASF108:
 10097 08c9 4C495354 		.ascii	"LISTEN\000"
 10097      454E00
 10098              	.LASF32:
 10099 08d0 61646472 		.ascii	"addr\000"
 10099      00
 10100              	.LASF147:
 10101 08d5 64726F70 		.ascii	"drop\000"
 10101      00
 10102              	.LASF41:
 10103 08da 73746174 		.ascii	"state\000"
 10103      6500
 10104              	.LASF36:
 10105 08e0 6E657469 		.ascii	"netif\000"
 10105      6600
 10106              	.LASF87:
 10107 08e6 736E645F 		.ascii	"snd_queuelen\000"
 10107      71756575 
 10107      656C656E 
 10107      00
 10108              	.LASF125:
 10109 08f3 63686B73 		.ascii	"chksum\000"
 10109      756D00
 10110              	.LASF189:
 10111 08fa 6C706362 		.ascii	"lpcb\000"
 10111      00
 10112              	.LASF192:
 10113 08ff 69706864 		.ascii	"iphdr\000"
 10113      7200
ARM GAS  /var/folders/5n/p_75w94d66l9ssrldxqdhh700000gn/T//ccyVBgQE.s 			page 186


 10114              	.LASF232:
 10115 0905 6D656D70 		.ascii	"memp_free\000"
 10115      5F667265 
 10115      6500
 10116              	.LASF94:
 10117 090f 72656376 		.ascii	"recv\000"
 10117      00
 10118              	.LASF190:
 10119 0914 6864726C 		.ascii	"hdrlen\000"
 10119      656E00
 10120              	.LASF1:
 10121 091b 7369676E 		.ascii	"signed char\000"
 10121      65642063 
 10121      68617200 
 10122              	.LASF57:
 10123 0927 7463705F 		.ascii	"tcp_pcb\000"
 10123      70636200 
 10124              	.LASF8:
 10125 092f 73686F72 		.ascii	"short unsigned int\000"
 10125      7420756E 
 10125      7369676E 
 10125      65642069 
 10125      6E7400
 10126              	.LASF146:
 10127 0942 786D6974 		.ascii	"xmit\000"
 10127      00
 10128              	.LASF99:
 10129 0947 70657273 		.ascii	"persist_cnt\000"
 10129      6973745F 
 10129      636E7400 
 10130              	.LASF197:
 10131 0953 63757272 		.ascii	"current_iphdr_dest\000"
 10131      656E745F 
 10131      69706864 
 10131      725F6465 
 10131      737400
 10132              	.LASF59:
 10133 0966 72656D6F 		.ascii	"remote_ip\000"
 10133      74655F69 
 10133      7000
 10134              	.LASF202:
 10135 0970 7463705F 		.ascii	"tcp_tw_pcbs\000"
 10135      74775F70 
 10135      63627300 
 10136              	.LASF227:
 10137 097c 7463705F 		.ascii	"tcp_abandon\000"
 10137      6162616E 
 10137      646F6E00 
 10138              	.LASF217:
 10139 0988 7463705F 		.ascii	"tcp_rexmit_fast\000"
 10139      7265786D 
 10139      69745F66 
 10139      61737400 
 10140              	.LASF50:
 10141 0998 5F6C656E 		.ascii	"_len\000"
 10141      00
 10142              	.LASF34:
ARM GAS  /var/folders/5n/p_75w94d66l9ssrldxqdhh700000gn/T//ccyVBgQE.s 			page 187


 10143 099d 69705F61 		.ascii	"ip_addr_t\000"
 10143      6464725F 
 10143      7400
 10144              	.LASF209:
 10145 09a7 7463705F 		.ascii	"tcp_segs_free\000"
 10145      73656773 
 10145      5F667265 
 10145      6500
 10146              	.LASF237:
 10147 09b5 7463705F 		.ascii	"tcp_state\000"
 10147      73746174 
 10147      6500
 10148              	.LASF216:
 10149 09bf 70627566 		.ascii	"pbuf_cat\000"
 10149      5F636174 
 10149      00
 10150              	.LASF144:
 10151 09c8 6D656D70 		.ascii	"memp_t\000"
 10151      5F7400
 10152              	.LASF225:
 10153 09cf 7463705F 		.ascii	"tcp_alloc\000"
 10153      616C6C6F 
 10153      6300
 10154              	.LASF171:
 10155 09d9 7463705F 		.ascii	"tcp_parseopt\000"
 10155      70617273 
 10155      656F7074 
 10155      00
 10156              	.LASF75:
 10157 09e6 6E727478 		.ascii	"nrtx\000"
 10157      00
 10158              	.LASF55:
 10159 09eb 64657374 		.ascii	"dest\000"
 10159      00
 10160              	.LASF110:
 10161 09f0 53594E5F 		.ascii	"SYN_RCVD\000"
 10161      52435644 
 10161      00
 10162              	.LASF31:
 10163 09f9 69705F61 		.ascii	"ip_addr\000"
 10163      64647200 
 10164              	.LASF128:
 10165 0a01 70636273 		.ascii	"pcbs\000"
 10165      00
 10166              		.ident	"GCC: (GNU) 4.7.2"
ARM GAS  /var/folders/5n/p_75w94d66l9ssrldxqdhh700000gn/T//ccyVBgQE.s 			page 188


DEFINED SYMBOLS
                            *ABS*:0000000000000000 tcp_in.c
/var/folders/5n/p_75w94d66l9ssrldxqdhh700000gn/T//ccyVBgQE.s:19     .text.tcp_parseopt:0000000000000000 $t
/var/folders/5n/p_75w94d66l9ssrldxqdhh700000gn/T//ccyVBgQE.s:24     .text.tcp_parseopt:0000000000000000 tcp_parseopt
/var/folders/5n/p_75w94d66l9ssrldxqdhh700000gn/T//ccyVBgQE.s:151    .text.tcp_parseopt:0000000000000088 $d
/var/folders/5n/p_75w94d66l9ssrldxqdhh700000gn/T//ccyVBgQE.s:156    .text.tcp_oos_insert_segment:0000000000000000 $t
/var/folders/5n/p_75w94d66l9ssrldxqdhh700000gn/T//ccyVBgQE.s:161    .text.tcp_oos_insert_segment:0000000000000000 tcp_oos_insert_segment
/var/folders/5n/p_75w94d66l9ssrldxqdhh700000gn/T//ccyVBgQE.s:298    .text.tcp_oos_insert_segment:00000000000000a4 $d
/var/folders/5n/p_75w94d66l9ssrldxqdhh700000gn/T//ccyVBgQE.s:303    .text.tcp_receive:0000000000000000 $t
/var/folders/5n/p_75w94d66l9ssrldxqdhh700000gn/T//ccyVBgQE.s:308    .text.tcp_receive:0000000000000000 tcp_receive
/var/folders/5n/p_75w94d66l9ssrldxqdhh700000gn/T//ccyVBgQE.s:658    .text.tcp_receive:0000000000000210 $d
/var/folders/5n/p_75w94d66l9ssrldxqdhh700000gn/T//ccyVBgQE.s:666    .text.tcp_receive:0000000000000228 $t
/var/folders/5n/p_75w94d66l9ssrldxqdhh700000gn/T//ccyVBgQE.s:1236   .text.tcp_receive:00000000000005cc $d
/var/folders/5n/p_75w94d66l9ssrldxqdhh700000gn/T//ccyVBgQE.s:1243   .text.tcp_receive:00000000000005dc $t
/var/folders/5n/p_75w94d66l9ssrldxqdhh700000gn/T//ccyVBgQE.s:1785   .text.tcp_receive:0000000000000924 $d
/var/folders/5n/p_75w94d66l9ssrldxqdhh700000gn/T//ccyVBgQE.s:1792   .text.tcp_receive:0000000000000938 $t
/var/folders/5n/p_75w94d66l9ssrldxqdhh700000gn/T//ccyVBgQE.s:1846   .text.tcp_input:0000000000000000 $t
/var/folders/5n/p_75w94d66l9ssrldxqdhh700000gn/T//ccyVBgQE.s:1852   .text.tcp_input:0000000000000000 tcp_input
/var/folders/5n/p_75w94d66l9ssrldxqdhh700000gn/T//ccyVBgQE.s:3639   .bss.seqno:0000000000000000 .LANCHOR1
/var/folders/5n/p_75w94d66l9ssrldxqdhh700000gn/T//ccyVBgQE.s:3653   .bss.ackno:0000000000000000 .LANCHOR3
/var/folders/5n/p_75w94d66l9ssrldxqdhh700000gn/T//ccyVBgQE.s:3646   .bss.tcplen:0000000000000000 .LANCHOR4
/var/folders/5n/p_75w94d66l9ssrldxqdhh700000gn/T//ccyVBgQE.s:2289   .text.tcp_input:00000000000002a0 $d
/var/folders/5n/p_75w94d66l9ssrldxqdhh700000gn/T//ccyVBgQE.s:2303   .text.tcp_input:00000000000002cc $t
/var/folders/5n/p_75w94d66l9ssrldxqdhh700000gn/T//ccyVBgQE.s:2627   .text.tcp_input:00000000000004e2 $d
/var/folders/5n/p_75w94d66l9ssrldxqdhh700000gn/T//ccyVBgQE.s:2637   .text.tcp_input:00000000000004f2 $t
/var/folders/5n/p_75w94d66l9ssrldxqdhh700000gn/T//ccyVBgQE.s:2700   .text.tcp_input:0000000000000574 $d
/var/folders/5n/p_75w94d66l9ssrldxqdhh700000gn/T//ccyVBgQE.s:2705   .text.tcp_input:0000000000000584 $t
/var/folders/5n/p_75w94d66l9ssrldxqdhh700000gn/T//ccyVBgQE.s:3129   .text.tcp_input:000000000000087c $d
/var/folders/5n/p_75w94d66l9ssrldxqdhh700000gn/T//ccyVBgQE.s:3139   .text.tcp_input:0000000000000890 $t
/var/folders/5n/p_75w94d66l9ssrldxqdhh700000gn/T//ccyVBgQE.s:3618   .text.tcp_input:0000000000000b78 $d
/var/folders/5n/p_75w94d66l9ssrldxqdhh700000gn/T//ccyVBgQE.s:3696   .bss.tcp_input_pcb:0000000000000000 tcp_input_pcb
/var/folders/5n/p_75w94d66l9ssrldxqdhh700000gn/T//ccyVBgQE.s:3631   .bss.tcphdr:0000000000000000 $d
/var/folders/5n/p_75w94d66l9ssrldxqdhh700000gn/T//ccyVBgQE.s:3635   .bss.tcphdr:0000000000000000 tcphdr
/var/folders/5n/p_75w94d66l9ssrldxqdhh700000gn/T//ccyVBgQE.s:3638   .bss.seqno:0000000000000000 $d
/var/folders/5n/p_75w94d66l9ssrldxqdhh700000gn/T//ccyVBgQE.s:3642   .bss.seqno:0000000000000000 seqno
/var/folders/5n/p_75w94d66l9ssrldxqdhh700000gn/T//ccyVBgQE.s:3645   .bss.tcplen:0000000000000000 $d
/var/folders/5n/p_75w94d66l9ssrldxqdhh700000gn/T//ccyVBgQE.s:3649   .bss.tcplen:0000000000000000 tcplen
/var/folders/5n/p_75w94d66l9ssrldxqdhh700000gn/T//ccyVBgQE.s:3652   .bss.ackno:0000000000000000 $d
/var/folders/5n/p_75w94d66l9ssrldxqdhh700000gn/T//ccyVBgQE.s:3656   .bss.ackno:0000000000000000 ackno
/var/folders/5n/p_75w94d66l9ssrldxqdhh700000gn/T//ccyVBgQE.s:3662   .bss.flags:0000000000000000 flags
/var/folders/5n/p_75w94d66l9ssrldxqdhh700000gn/T//ccyVBgQE.s:3663   .bss.flags:0000000000000000 $d
/var/folders/5n/p_75w94d66l9ssrldxqdhh700000gn/T//ccyVBgQE.s:3668   .bss.recv_flags:0000000000000000 recv_flags
/var/folders/5n/p_75w94d66l9ssrldxqdhh700000gn/T//ccyVBgQE.s:3669   .bss.recv_flags:0000000000000000 $d
/var/folders/5n/p_75w94d66l9ssrldxqdhh700000gn/T//ccyVBgQE.s:3671   .bss.recv_data:0000000000000000 $d
/var/folders/5n/p_75w94d66l9ssrldxqdhh700000gn/T//ccyVBgQE.s:3675   .bss.recv_data:0000000000000000 recv_data
/var/folders/5n/p_75w94d66l9ssrldxqdhh700000gn/T//ccyVBgQE.s:3678   .bss.iphdr:0000000000000000 $d
/var/folders/5n/p_75w94d66l9ssrldxqdhh700000gn/T//ccyVBgQE.s:3682   .bss.iphdr:0000000000000000 iphdr
/var/folders/5n/p_75w94d66l9ssrldxqdhh700000gn/T//ccyVBgQE.s:3685   .bss.inseg:0000000000000000 $d
/var/folders/5n/p_75w94d66l9ssrldxqdhh700000gn/T//ccyVBgQE.s:3689   .bss.inseg:0000000000000000 inseg
/var/folders/5n/p_75w94d66l9ssrldxqdhh700000gn/T//ccyVBgQE.s:3692   .bss.tcp_input_pcb:0000000000000000 $d
                     .debug_frame:0000000000000010 $d
/var/folders/5n/p_75w94d66l9ssrldxqdhh700000gn/T//ccyVBgQE.s:155    .text.tcp_parseopt:000000000000008c $t
/var/folders/5n/p_75w94d66l9ssrldxqdhh700000gn/T//ccyVBgQE.s:302    .text.tcp_oos_insert_segment:00000000000000a8 $t

UNDEFINED SYMBOLS
lwip_ntohs
tcp_seg_free
ARM GAS  /var/folders/5n/p_75w94d66l9ssrldxqdhh700000gn/T//ccyVBgQE.s 			page 189


lwip_htons
pbuf_realloc
tcp_segs_free
tcp_send_empty_ack
lwip_ntohl
pbuf_clen
port_halt
tcp_ticks
tcp_seg_copy
pbuf_header
tcp_update_rcv_ann_wnd
pbuf_cat
tcp_rexmit_fast
pbuf_free
ip4_addr_isbroadcast
inet_chksum_pseudo
tcp_active_pcbs
tcp_pcb_remove
memp_free
lwip_stats
current_iphdr_src
current_iphdr_dest
tcp_output
tcp_pcb_purge
tcp_tw_pcbs
tcp_tmp_pcb
tcp_timer_needed
tcp_rst
tcp_alloc
tcp_eff_send_mss
tcp_enqueue_flags
tcp_recv_null
tcp_listen_pcbs
tcp_abort
tcp_abandon
tcp_rexmit
