ARM GAS  /var/folders/5n/p_75w94d66l9ssrldxqdhh700000gn/T//ccyVBgQE.s 			page 1


   1              		.syntax unified
   2              		.cpu cortex-m4
   3              		.fpu softvfp
   4              		.eabi_attribute 20, 1
   5              		.eabi_attribute 21, 1
   6              		.eabi_attribute 23, 3
   7              		.eabi_attribute 24, 1
   8              		.eabi_attribute 25, 1
   9              		.eabi_attribute 26, 1
  10              		.eabi_attribute 30, 2
  11              		.eabi_attribute 34, 1
  12              		.eabi_attribute 18, 4
  13              		.thumb
  14              		.file	"tcp_in.c"
  15              		.text
  16              	.Ltext0:
  17              		.cfi_sections	.debug_frame
  18              		.section	.text.tcp_parseopt,"ax",%progbits
  19              		.align	2
  20              		.p2align 4,,15
  21              		.thumb
  22              		.thumb_func
  23              		.type	tcp_parseopt, %function
  24              	tcp_parseopt:
  25              	.LFB13:
  26              		.file 1 "../../ext/lwip-1.4.0/src/core/tcp_in.c"
  27              		.loc 1 1491 0
  28              		.cfi_startproc
  29              		@ args = 0, pretend = 0, frame = 0
  30              		@ frame_needed = 0, uses_anonymous_args = 0
  31              	.LVL0:
  32 0000 F8B5     		push	{r3, r4, r5, r6, r7, lr}
  33              	.LCFI0:
  34              		.cfi_def_cfa_offset 24
  35              		.cfi_offset 3, -24
  36              		.cfi_offset 4, -20
  37              		.cfi_offset 5, -16
  38              		.cfi_offset 6, -12
  39              		.cfi_offset 7, -8
  40              		.cfi_offset 14, -4
  41              		.loc 1 1499 0
  42 0002 214C     		ldr	r4, .L24
  43 0004 2568     		ldr	r5, [r4, #0]
  44              	.LVL1:
  45              		.loc 1 1491 0
  46 0006 0646     		mov	r6, r0
  47              		.loc 1 1502 0
  48 0008 A889     		ldrh	r0, [r5, #12]	@ unaligned
  49              	.LVL2:
  50 000a FFF7FEFF 		bl	lwip_ntohs
  51              	.LVL3:
  52 000e C0F30F30 		ubfx	r0, r0, #12, #16
  53 0012 0528     		cmp	r0, #5
  54 0014 00D8     		bhi	.L21
  55              	.LVL4:
  56              	.L1:
  57 0016 F8BD     		pop	{r3, r4, r5, r6, r7, pc}
ARM GAS  /var/folders/5n/p_75w94d66l9ssrldxqdhh700000gn/T//ccyVBgQE.s 			page 2


  58              	.LVL5:
  59              	.L21:
  60              		.loc 1 1503 0
  61 0018 2368     		ldr	r3, [r4, #0]
  62 001a 9889     		ldrh	r0, [r3, #12]	@ unaligned
  63 001c FFF7FEFF 		bl	lwip_ntohs
  64              	.LVL6:
  65 0020 000B     		lsrs	r0, r0, #12
  66 0022 441F     		subs	r4, r0, #5
  67 0024 A400     		lsls	r4, r4, #2
  68 0026 A4B2     		uxth	r4, r4
  69              	.LVL7:
  70              		.loc 1 1504 0
  71 0028 002C     		cmp	r4, #0
  72 002a F4D0     		beq	.L1
  73              		.loc 1 1499 0
  74 002c 05F11401 		add	r1, r5, #20
  75              		.loc 1 1504 0
  76 0030 0023     		movs	r3, #0
  77              		.loc 1 1526 0
  78 0032 40F21725 		movw	r5, #535
  79              	.LVL8:
  80              		.loc 1 1506 0
  81 0036 CA5C     		ldrb	r2, [r1, r3]	@ zero_extendqisi2
  82 0038 012A     		cmp	r2, #1
  83 003a 0DD0     		beq	.L6
  84              	.LVL9:
  85              	.L23:
  86 003c EBD3     		bcc	.L1
  87 003e 022A     		cmp	r2, #2
  88 0040 0DD0     		beq	.L22
  89              		.loc 1 1553 0
  90 0042 CA18     		adds	r2, r1, r3
  91 0044 5278     		ldrb	r2, [r2, #1]	@ zero_extendqisi2
  92 0046 002A     		cmp	r2, #0
  93 0048 E5D0     		beq	.L1
  94              		.loc 1 1561 0
  95 004a D318     		adds	r3, r2, r3
  96 004c 9BB2     		uxth	r3, r3
  97              	.LVL10:
  98              	.L8:
  99              		.loc 1 1504 0 discriminator 1
 100 004e 9C42     		cmp	r4, r3
 101 0050 E1D9     		bls	.L1
 102              	.LVL11:
 103              		.loc 1 1506 0
 104 0052 CA5C     		ldrb	r2, [r1, r3]	@ zero_extendqisi2
 105 0054 012A     		cmp	r2, #1
 106 0056 F1D1     		bne	.L23
 107              	.LVL12:
 108              	.L6:
 109              		.loc 1 1513 0
 110 0058 0133     		adds	r3, r3, #1
 111 005a 9BB2     		uxth	r3, r3
 112              	.LVL13:
 113              		.loc 1 1515 0
 114 005c F7E7     		b	.L8
ARM GAS  /var/folders/5n/p_75w94d66l9ssrldxqdhh700000gn/T//ccyVBgQE.s 			page 3


 115              	.LVL14:
 116              	.L22:
 117              		.loc 1 1518 0
 118 005e C818     		adds	r0, r1, r3
 119 0060 4278     		ldrb	r2, [r0, #1]	@ zero_extendqisi2
 120 0062 042A     		cmp	r2, #4
 121 0064 D7D1     		bne	.L1
 122              		.loc 1 1518 0 is_stmt 0 discriminator 1
 123 0066 DA1C     		adds	r2, r3, #3
 124 0068 A242     		cmp	r2, r4
 125 006a D4DA     		bge	.L1
 126              		.loc 1 1524 0 is_stmt 1
 127 006c 8778     		ldrb	r7, [r0, #2]	@ zero_extendqisi2
 128 006e C278     		ldrb	r2, [r0, #3]	@ zero_extendqisi2
 129 0070 42EA0722 		orr	r2, r2, r7, lsl #8
 130              	.LVL15:
 131              		.loc 1 1526 0
 132 0074 501E     		subs	r0, r2, #1
 133 0076 80B2     		uxth	r0, r0
 134 0078 A842     		cmp	r0, r5
 135 007a 88BF     		it	hi
 136 007c 4FF40672 		movhi	r2, #536
 137              	.LVL16:
 138              		.loc 1 1528 0
 139 0080 0433     		adds	r3, r3, #4
 140              	.LVL17:
 141              		.loc 1 1526 0
 142 0082 3287     		strh	r2, [r6, #56]	@ movhi
 143              		.loc 1 1528 0
 144 0084 9BB2     		uxth	r3, r3
 145              	.LVL18:
 146              		.loc 1 1529 0
 147 0086 E2E7     		b	.L8
 148              	.L25:
 149              		.align	2
 150              	.L24:
 151 0088 00000000 		.word	.LANCHOR0
 152              		.cfi_endproc
 153              	.LFE13:
 154              		.size	tcp_parseopt, .-tcp_parseopt
 155 008c AFF30080 		.section	.text.tcp_oos_insert_segment,"ax",%progbits
 156              		.align	2
 157              		.p2align 4,,15
 158              		.thumb
 159              		.thumb_func
 160              		.type	tcp_oos_insert_segment, %function
 161              	tcp_oos_insert_segment:
 162              	.LFB11:
 163              		.loc 1 798 0
 164              		.cfi_startproc
 165              		@ args = 0, pretend = 0, frame = 0
 166              		@ frame_needed = 0, uses_anonymous_args = 0
 167              	.LVL19:
 168 0000 2DE9F041 		push	{r4, r5, r6, r7, r8, lr}
 169              	.LCFI1:
 170              		.cfi_def_cfa_offset 24
 171              		.cfi_offset 4, -24
ARM GAS  /var/folders/5n/p_75w94d66l9ssrldxqdhh700000gn/T//ccyVBgQE.s 			page 4


 172              		.cfi_offset 5, -20
 173              		.cfi_offset 6, -16
 174              		.cfi_offset 7, -12
 175              		.cfi_offset 8, -8
 176              		.cfi_offset 14, -4
 177              		.loc 1 801 0
 178 0004 C368     		ldr	r3, [r0, #12]
 179              		.loc 1 798 0
 180 0006 0746     		mov	r7, r0
 181              		.loc 1 801 0
 182 0008 9889     		ldrh	r0, [r3, #12]	@ unaligned
 183              	.LVL20:
 184              		.loc 1 798 0
 185 000a 0D46     		mov	r5, r1
 186              		.loc 1 801 0
 187 000c FFF7FEFF 		bl	lwip_ntohs
 188              	.LVL21:
 189 0010 C207     		lsls	r2, r0, #31
 190 0012 43D4     		bmi	.L27
 191              		.loc 1 809 0 discriminator 1
 192 0014 002D     		cmp	r5, #0
 193 0016 32D0     		beq	.L45
 194              		.loc 1 810 0
 195 0018 EB68     		ldr	r3, [r5, #12]
 196 001a DFF88880 		ldr	r8, .L47
 197 001e 5A68     		ldr	r2, [r3, #4]	@ unaligned
 198 0020 3E89     		ldrh	r6, [r7, #8]
 199 0022 D8F80010 		ldr	r1, [r8, #0]
 200 0026 2889     		ldrh	r0, [r5, #8]
 201 0028 B61A     		subs	r6, r6, r2
 202 002a 7618     		adds	r6, r6, r1
 203 002c 301A     		subs	r0, r6, r0
 204              		.loc 1 809 0
 205 002e 0028     		cmp	r0, #0
 206 0030 B8BF     		it	lt
 207 0032 2C46     		movlt	r4, r5
 208 0034 11DA     		bge	.L43
 209 0036 26E0     		b	.L31
 210              	.L32:
 211              	.LVL22:
 212              		.loc 1 817 0
 213 0038 2C68     		ldr	r4, [r5, #0]
 214              	.LVL23:
 215              		.loc 1 818 0
 216 003a 2846     		mov	r0, r5
 217 003c FFF7FEFF 		bl	tcp_seg_free
 218              	.LVL24:
 219              		.loc 1 809 0
 220 0040 ECB1     		cbz	r4, .L45
 221              	.L46:
 222              		.loc 1 810 0 discriminator 2
 223 0042 E368     		ldr	r3, [r4, #12]
 224 0044 3E89     		ldrh	r6, [r7, #8]
 225 0046 5A68     		ldr	r2, [r3, #4]	@ unaligned
 226 0048 D8F80010 		ldr	r1, [r8, #0]
 227 004c 2089     		ldrh	r0, [r4, #8]
 228 004e B61A     		subs	r6, r6, r2
ARM GAS  /var/folders/5n/p_75w94d66l9ssrldxqdhh700000gn/T//ccyVBgQE.s 			page 5


 229 0050 7618     		adds	r6, r6, r1
 230 0052 301A     		subs	r0, r6, r0
 231              		.loc 1 809 0 discriminator 2
 232 0054 0028     		cmp	r0, #0
 233 0056 16DB     		blt	.L31
 234              		.loc 1 809 0 is_stmt 0
 235 0058 2546     		mov	r5, r4
 236              	.LVL25:
 237              	.L43:
 238              		.loc 1 813 0 is_stmt 1
 239 005a 9889     		ldrh	r0, [r3, #12]	@ unaligned
 240 005c FFF7FEFF 		bl	lwip_ntohs
 241              	.LVL26:
 242 0060 C307     		lsls	r3, r0, #31
 243 0062 E9D5     		bpl	.L32
 244              		.loc 1 814 0
 245 0064 FC68     		ldr	r4, [r7, #12]
 246 0066 0120     		movs	r0, #1
 247 0068 A689     		ldrh	r6, [r4, #12]	@ unaligned
 248 006a FFF7FEFF 		bl	lwip_htons
 249              	.LVL27:
 250 006e 3043     		orrs	r0, r0, r6
 251 0070 A081     		strh	r0, [r4, #12]	@ unaligned
 252              	.LVL28:
 253              		.loc 1 817 0
 254 0072 2C68     		ldr	r4, [r5, #0]
 255              	.LVL29:
 256              		.loc 1 818 0
 257 0074 2846     		mov	r0, r5
 258 0076 FFF7FEFF 		bl	tcp_seg_free
 259              	.LVL30:
 260              		.loc 1 809 0
 261 007a 002C     		cmp	r4, #0
 262 007c E1D1     		bne	.L46
 263              	.LVL31:
 264              	.L45:
 265              		.loc 1 804 0
 266 007e 0024     		movs	r4, #0
 267              	.LVL32:
 268              	.L29:
 269              		.loc 1 827 0
 270 0080 3C60     		str	r4, [r7, #0]
 271 0082 BDE8F081 		pop	{r4, r5, r6, r7, r8, pc}
 272              	.LVL33:
 273              	.L31:
 274              		.loc 1 820 0
 275 0086 002E     		cmp	r6, #0
 276 0088 FADD     		ble	.L29
 277              		.loc 1 823 0
 278 008a 511A     		subs	r1, r2, r1
 279 008c 89B2     		uxth	r1, r1
 280 008e 3981     		strh	r1, [r7, #8]	@ movhi
 281              		.loc 1 824 0
 282 0090 7868     		ldr	r0, [r7, #4]
 283 0092 FFF7FEFF 		bl	pbuf_realloc
 284              	.LVL34:
 285              		.loc 1 827 0
ARM GAS  /var/folders/5n/p_75w94d66l9ssrldxqdhh700000gn/T//ccyVBgQE.s 			page 6


 286 0096 3C60     		str	r4, [r7, #0]
 287 0098 BDE8F081 		pop	{r4, r5, r6, r7, r8, pc}
 288              	.LVL35:
 289              	.L27:
 290              		.loc 1 803 0
 291 009c 2846     		mov	r0, r5
 292 009e FFF7FEFF 		bl	tcp_segs_free
 293              	.LVL36:
 294 00a2 ECE7     		b	.L45
 295              	.L48:
 296              		.align	2
 297              	.L47:
 298 00a4 00000000 		.word	.LANCHOR1
 299              		.cfi_endproc
 300              	.LFE11:
 301              		.size	tcp_oos_insert_segment, .-tcp_oos_insert_segment
 302 00a8 AFF30080 		.section	.text.tcp_receive,"ax",%progbits
 302      AFF30080 
 303              		.align	2
 304              		.p2align 4,,15
 305              		.thumb
 306              		.thumb_func
 307              		.type	tcp_receive, %function
 308              	tcp_receive:
 309              	.LFB12:
 310              		.loc 1 845 0
 311              		.cfi_startproc
 312              		@ args = 0, pretend = 0, frame = 0
 313              		@ frame_needed = 0, uses_anonymous_args = 0
 314              	.LVL37:
 315 0000 2DE9F84F 		push	{r3, r4, r5, r6, r7, r8, r9, sl, fp, lr}
 316              	.LCFI2:
 317              		.cfi_def_cfa_offset 40
 318              		.cfi_offset 3, -40
 319              		.cfi_offset 4, -36
 320              		.cfi_offset 5, -32
 321              		.cfi_offset 6, -28
 322              		.cfi_offset 7, -24
 323              		.cfi_offset 8, -20
 324              		.cfi_offset 9, -16
 325              		.cfi_offset 10, -12
 326              		.cfi_offset 11, -8
 327              		.cfi_offset 14, -4
 328              		.loc 1 857 0
 329 0004 824B     		ldr	r3, .L288
 330              		.loc 1 861 0
 331 0006 DFF81882 		ldr	r8, .L288+16
 332              		.loc 1 857 0
 333 000a 1B78     		ldrb	r3, [r3, #0]	@ zero_extendqisi2
 334 000c 03F01003 		and	r3, r3, #16
 335 0010 DBB2     		uxtb	r3, r3
 336              		.loc 1 845 0
 337 0012 0446     		mov	r4, r0
 338              		.loc 1 857 0
 339 0014 1BBB     		cbnz	r3, .L236
 340 0016 DFF80C92 		ldr	r9, .L288+20
 341              	.LVL38:
ARM GAS  /var/folders/5n/p_75w94d66l9ssrldxqdhh700000gn/T//ccyVBgQE.s 			page 7


 342              	.L50:
 343              		.loc 1 1091 0
 344 001a B9F80010 		ldrh	r1, [r9, #0]
 345 001e 0029     		cmp	r1, #0
 346 0020 00F0B180 		beq	.L83
 347              		.loc 1 1122 0
 348 0024 D8F80030 		ldr	r3, [r8, #0]
 349 0028 626A     		ldr	r2, [r4, #36]
 350 002a D843     		mvns	r0, r3
 351 002c D042     		cmn	r0, r2
 352 002e 05D4     		bmi	.L84
 353              		.loc 1 1122 0 is_stmt 0 discriminator 1
 354 0030 501C     		adds	r0, r2, #1
 355 0032 C01A     		subs	r0, r0, r3
 356 0034 411A     		subs	r1, r0, r1
 357 0036 0029     		cmp	r1, #0
 358 0038 40F3CC81 		ble	.L256
 359              	.L84:
 360              		.loc 1 1173 0 is_stmt 1
 361 003c 991A     		subs	r1, r3, r2
 362 003e 0029     		cmp	r1, #0
 363 0040 C0F2B981 		blt	.L257
 364              	.L93:
 365              		.loc 1 1185 0 discriminator 1
 366 0044 218D     		ldrh	r1, [r4, #40]
 367 0046 C1F10101 		rsb	r1, r1, #1
 368 004a C918     		adds	r1, r1, r3
 369 004c 891A     		subs	r1, r1, r2
 370 004e 0029     		cmp	r1, #0
 371 0050 40F36781 		ble	.L258
 372              	.L94:
 373              		.loc 1 1468 0
 374 0054 2046     		mov	r0, r4
 375              		.loc 1 1479 0
 376 0056 BDE8F84F 		pop	{r3, r4, r5, r6, r7, r8, r9, sl, fp, lr}
 377              		.loc 1 1468 0
 378 005a FFF7FEBF 		b	tcp_send_empty_ack
 379              	.LVL39:
 380              	.L236:
 381              		.loc 1 861 0
 382 005e 036E     		ldr	r3, [r0, #96]
 383 0060 D8F80020 		ldr	r2, [r8, #0]
 384              		.loc 1 858 0
 385 0064 B0F85C50 		ldrh	r5, [r0, #92]
 386 0068 416E     		ldr	r1, [r0, #100]
 387              	.LVL40:
 388 006a 6A4E     		ldr	r6, .L288+4
 389              		.loc 1 861 0
 390 006c 981A     		subs	r0, r3, r2
 391              	.LVL41:
 392 006e 0028     		cmp	r0, #0
 393 0070 C0F2B980 		blt	.L259
 394              		.loc 1 861 0 is_stmt 0 discriminator 1
 395 0074 9342     		cmp	r3, r2
 396              		.loc 1 862 0 is_stmt 1 discriminator 1
 397 0076 3368     		ldr	r3, [r6, #0]
 398              		.loc 1 861 0 discriminator 1
ARM GAS  /var/folders/5n/p_75w94d66l9ssrldxqdhh700000gn/T//ccyVBgQE.s 			page 8


 399 0078 00F0A481 		beq	.L53
 400              	.L54:
 401              		.loc 1 862 0 discriminator 1
 402 007c 9942     		cmp	r1, r3
 403 007e 00F0E681 		beq	.L260
 404              	.L55:
 405              		.loc 1 903 0
 406 0082 E26C     		ldr	r2, [r4, #76]
 407 0084 981A     		subs	r0, r3, r2
 408 0086 0028     		cmp	r0, #0
 409 0088 40F38181 		ble	.L261
 410              		.loc 1 935 0
 411 008c D243     		mvns	r2, r2
 412 008e D342     		cmn	r3, r2
 413 0090 04D4     		bmi	.L61
 414              		.loc 1 935 0 is_stmt 0 discriminator 1
 415 0092 A26D     		ldr	r2, [r4, #88]
 416 0094 9A1A     		subs	r2, r3, r2
 417 0096 002A     		cmp	r2, #0
 418 0098 40F3C680 		ble	.L262
 419              	.L61:
 420              		.loc 1 1024 0 is_stmt 1
 421 009c 0023     		movs	r3, #0
 422 009e A4F86C30 		strh	r3, [r4, #108]	@ movhi
 423 00a2 DFF88091 		ldr	r9, .L288+20
 424 00a6 636F     		ldr	r3, [r4, #116]
 425              	.LVL42:
 426              	.L74:
 427              		.loc 1 1034 0 discriminator 1
 428 00a8 5A4F     		ldr	r7, .L288+4
 429              		.loc 1 1033 0 discriminator 1
 430 00aa 002B     		cmp	r3, #0
 431 00ac 3FD0     		beq	.L80
 432              	.L204:
 433              		.loc 1 1034 0 discriminator 2
 434 00ae DB68     		ldr	r3, [r3, #12]
 435 00b0 3568     		ldr	r5, [r6, #0]
 436 00b2 5868     		ldr	r0, [r3, #4]	@ unaligned
 437 00b4 FFF7FEFF 		bl	lwip_ntohl
 438              	.LVL43:
 439 00b8 626F     		ldr	r2, [r4, #116]
 440 00ba D368     		ldr	r3, [r2, #12]
 441 00bc B2F808B0 		ldrh	fp, [r2, #8]
 442 00c0 8246     		mov	sl, r0
 443 00c2 9889     		ldrh	r0, [r3, #12]	@ unaligned
 444 00c4 FFF7FEFF 		bl	lwip_ntohs
 445              	.LVL44:
 446 00c8 10F00300 		ands	r0, r0, #3
 447 00cc 18BF     		it	ne
 448 00ce 0120     		movne	r0, #1
 449 00d0 0BEB0003 		add	r3, fp, r0
 450 00d4 CAEB0505 		rsb	r5, sl, r5
 451 00d8 EB1A     		subs	r3, r5, r3
 452              		.loc 1 1033 0 discriminator 2
 453 00da 002B     		cmp	r3, #0
 454 00dc 27DB     		blt	.L80
 455              		.loc 1 1034 0
ARM GAS  /var/folders/5n/p_75w94d66l9ssrldxqdhh700000gn/T//ccyVBgQE.s 			page 9


 456 00de 3A68     		ldr	r2, [r7, #0]
 457 00e0 A36D     		ldr	r3, [r4, #88]
 458 00e2 D31A     		subs	r3, r2, r3
 459 00e4 002B     		cmp	r3, #0
 460 00e6 22DC     		bgt	.L80
 461              		.loc 1 1040 0
 462 00e8 656F     		ldr	r5, [r4, #116]
 463              	.LVL45:
 464              		.loc 1 1043 0
 465 00ea B4F870A0 		ldrh	sl, [r4, #112]
 466              		.loc 1 1041 0
 467 00ee 2B68     		ldr	r3, [r5, #0]
 468              		.loc 1 1043 0
 469 00f0 6868     		ldr	r0, [r5, #4]
 470              		.loc 1 1041 0
 471 00f2 6367     		str	r3, [r4, #116]
 472              		.loc 1 1043 0
 473 00f4 FFF7FEFF 		bl	pbuf_clen
 474              	.LVL46:
 475 00f8 8245     		cmp	sl, r0
 476 00fa 64D3     		bcc	.L263
 477              	.L75:
 478              		.loc 1 1045 0
 479 00fc B4F86C30 		ldrh	r3, [r4, #108]
 480 0100 002B     		cmp	r3, #0
 481 0102 54D1     		bne	.L264
 482              	.L76:
 483              		.loc 1 1048 0
 484 0104 6868     		ldr	r0, [r5, #4]
 485 0106 B4F870A0 		ldrh	sl, [r4, #112]
 486 010a FFF7FEFF 		bl	pbuf_clen
 487              	.LVL47:
 488 010e C0EB0A00 		rsb	r0, r0, sl
 489 0112 A4F87000 		strh	r0, [r4, #112]	@ movhi
 490              		.loc 1 1049 0
 491 0116 2846     		mov	r0, r5
 492 0118 FFF7FEFF 		bl	tcp_seg_free
 493              	.LVL48:
 494              		.loc 1 1051 0
 495 011c B4F87030 		ldrh	r3, [r4, #112]
 496 0120 13B1     		cbz	r3, .L247
 497              		.loc 1 1052 0
 498 0122 A36F     		ldr	r3, [r4, #120]
 499 0124 002B     		cmp	r3, #0
 500 0126 57D0     		beq	.L79
 501              	.L247:
 502 0128 636F     		ldr	r3, [r4, #116]
 503              		.loc 1 1033 0 discriminator 2
 504 012a 002B     		cmp	r3, #0
 505 012c BFD1     		bne	.L204
 506              	.LVL49:
 507              	.L80:
 508              		.loc 1 1064 0
 509 012e E36B     		ldr	r3, [r4, #60]
 510 0130 002B     		cmp	r3, #0
 511 0132 3FF472AF 		beq	.L50
 512              		.loc 1 1064 0 is_stmt 0 discriminator 1
ARM GAS  /var/folders/5n/p_75w94d66l9ssrldxqdhh700000gn/T//ccyVBgQE.s 			page 10


 513 0136 226C     		ldr	r2, [r4, #64]
 514 0138 3168     		ldr	r1, [r6, #0]
 515 013a 521A     		subs	r2, r2, r1
 516 013c 002A     		cmp	r2, #0
 517 013e BFF66CAF 		bge	.L50
 518              	.LVL50:
 519              		.loc 1 1067 0 is_stmt 1
 520 0142 354A     		ldr	r2, .L288+8
 521              	.LVL51:
 522              		.loc 1 1073 0
 523 0144 B4F84410 		ldrh	r1, [r4, #68]
 524              		.loc 1 1067 0
 525 0148 1068     		ldr	r0, [r2, #0]
 526              		.loc 1 1073 0
 527 014a 41F3CC02 		sbfx	r2, r1, #3, #13
 528              	.LVL52:
 529              		.loc 1 1067 0
 530 014e C31A     		subs	r3, r0, r3
 531              	.LVL53:
 532              		.loc 1 1073 0
 533 0150 9A1A     		subs	r2, r3, r2
 534 0152 92B2     		uxth	r2, r2
 535              		.loc 1 1074 0
 536 0154 5118     		adds	r1, r2, r1
 537              		.loc 1 1073 0
 538 0156 93B2     		uxth	r3, r2
 539              	.LVL54:
 540              		.loc 1 1074 0
 541 0158 89B2     		uxth	r1, r1
 542              		.loc 1 1075 0
 543 015a 1804     		lsls	r0, r3, #16
 544              		.loc 1 1074 0
 545 015c A4F84410 		strh	r1, [r4, #68]	@ movhi
 546              		.loc 1 1075 0
 547 0160 00F1A981 		bmi	.L265
 548              	.LVL55:
 549              	.L82:
 550              		.loc 1 1078 0
 551 0164 B4F84620 		ldrh	r2, [r4, #70]
 552              	.LVL56:
 553 0168 42F38D00 		sbfx	r0, r2, #2, #14
 554 016c 121A     		subs	r2, r2, r0
 555              	.LVL57:
 556              		.loc 1 1079 0
 557 016e D318     		adds	r3, r2, r3
 558              	.LVL58:
 559 0170 9BB2     		uxth	r3, r3
 560              		.loc 1 1080 0
 561 0172 41F3CC02 		sbfx	r2, r1, #3, #13
 562 0176 9A18     		adds	r2, r3, r2
 563              		.loc 1 1079 0
 564 0178 A4F84630 		strh	r3, [r4, #70]	@ movhi
 565              		.loc 1 1085 0
 566 017c 0023     		movs	r3, #0
 567              		.loc 1 1080 0
 568 017e A4F84820 		strh	r2, [r4, #72]	@ movhi
 569              		.loc 1 1085 0
ARM GAS  /var/folders/5n/p_75w94d66l9ssrldxqdhh700000gn/T//ccyVBgQE.s 			page 11


 570 0182 E363     		str	r3, [r4, #60]
 571 0184 49E7     		b	.L50
 572              	.L83:
 573              		.loc 1 1475 0
 574 0186 D8F80020 		ldr	r2, [r8, #0]
 575 018a 636A     		ldr	r3, [r4, #36]
 576 018c D11A     		subs	r1, r2, r3
 577 018e 0029     		cmp	r1, #0
 578 0190 05DB     		blt	.L134
 579              		.loc 1 1475 0 is_stmt 0 discriminator 1
 580 0192 0132     		adds	r2, r2, #1
 581 0194 218D     		ldrh	r1, [r4, #40]
 582 0196 D31A     		subs	r3, r2, r3
 583 0198 5B1A     		subs	r3, r3, r1
 584 019a 002B     		cmp	r3, #0
 585 019c 1ADD     		ble	.L49
 586              	.L134:
 587              		.loc 1 1476 0 is_stmt 1
 588 019e 94F82030 		ldrb	r3, [r4, #32]	@ zero_extendqisi2
 589 01a2 43F00203 		orr	r3, r3, #2
 590 01a6 84F82030 		strb	r3, [r4, #32]
 591 01aa BDE8F88F 		pop	{r3, r4, r5, r6, r7, r8, r9, sl, fp, pc}
 592              	.LVL59:
 593              	.L264:
 594              		.loc 1 1045 0 discriminator 1
 595 01ae EB68     		ldr	r3, [r5, #12]
 596 01b0 9889     		ldrh	r0, [r3, #12]	@ unaligned
 597 01b2 FFF7FEFF 		bl	lwip_ntohs
 598              	.LVL60:
 599 01b6 C307     		lsls	r3, r0, #31
 600 01b8 A4D5     		bpl	.L76
 601              		.loc 1 1046 0
 602 01ba B4F86C30 		ldrh	r3, [r4, #108]
 603 01be 013B     		subs	r3, r3, #1
 604 01c0 A4F86C30 		strh	r3, [r4, #108]	@ movhi
 605 01c4 9EE7     		b	.L76
 606              	.L263:
 607              		.loc 1 1043 0 discriminator 1
 608 01c6 FFF7FEFF 		bl	port_halt
 609              	.LVL61:
 610 01ca 97E7     		b	.L75
 611              	.LVL62:
 612              	.L275:
 613              		.loc 1 1426 0 discriminator 1
 614 01cc CB1A     		subs	r3, r1, r3
 615              		.loc 1 1425 0 discriminator 1
 616 01ce 002B     		cmp	r3, #0
 617 01d0 00F37481 		bgt	.L266
 618              	.LVL63:
 619              	.L49:
 620 01d4 BDE8F88F 		pop	{r3, r4, r5, r6, r7, r8, r9, sl, fp, pc}
 621              	.LVL64:
 622              	.L79:
 623              		.loc 1 1052 0 discriminator 1
 624 01d8 636F     		ldr	r3, [r4, #116]
 625 01da 002B     		cmp	r3, #0
 626 01dc 7FF467AF 		bne	.L204
ARM GAS  /var/folders/5n/p_75w94d66l9ssrldxqdhh700000gn/T//ccyVBgQE.s 			page 12


 627              		.loc 1 1052 0 is_stmt 0 discriminator 2
 628 01e0 FFF7FEFF 		bl	port_halt
 629              	.LVL65:
 630 01e4 A0E7     		b	.L247
 631              	.LVL66:
 632              	.L259:
 633 01e6 0D4B     		ldr	r3, .L288+12
 634 01e8 1868     		ldr	r0, [r3, #0]
 635 01ea 3368     		ldr	r3, [r6, #0]
 636 01ec C089     		ldrh	r0, [r0, #14]	@ unaligned
 637              	.L52:
 638              		.loc 1 864 0 is_stmt 1
 639 01ee A4F85C00 		strh	r0, [r4, #92]	@ movhi
 640              		.loc 1 865 0
 641 01f2 2266     		str	r2, [r4, #96]
 642              		.loc 1 866 0
 643 01f4 6366     		str	r3, [r4, #100]
 644              		.loc 1 867 0
 645 01f6 0028     		cmp	r0, #0
 646 01f8 3FF443AF 		beq	.L55
 647              		.loc 1 867 0 is_stmt 0 discriminator 1
 648 01fc 94F8A020 		ldrb	r2, [r4, #160]	@ zero_extendqisi2
 649 0200 002A     		cmp	r2, #0
 650 0202 3FF43EAF 		beq	.L55
 651              		.loc 1 868 0 is_stmt 1
 652 0206 0022     		movs	r2, #0
 653 0208 84F8A020 		strb	r2, [r4, #160]
 654 020c 39E7     		b	.L55
 655              	.L289:
 656 020e 00BF     		.align	2
 657              	.L288:
 658 0210 00000000 		.word	.LANCHOR2
 659 0214 00000000 		.word	.LANCHOR3
 660 0218 00000000 		.word	tcp_ticks
 661 021c 00000000 		.word	.LANCHOR0
 662 0220 00000000 		.word	.LANCHOR1
 663 0224 00000000 		.word	.LANCHOR4
 664              	.L262:
 665              		.loc 1 941 0
 666 0228 94F82020 		ldrb	r2, [r4, #32]	@ zero_extendqisi2
 667 022c 02F00401 		and	r1, r2, #4
 668              	.LVL67:
 669 0230 C9B2     		uxtb	r1, r1
 670 0232 39B1     		cbz	r1, .L62
 671              		.loc 1 943 0
 672 0234 B4F85410 		ldrh	r1, [r4, #84]
 673              		.loc 1 942 0
 674 0238 22F00402 		bic	r2, r2, #4
 675 023c 84F82020 		strb	r2, [r4, #32]
 676              		.loc 1 943 0
 677 0240 A4F85210 		strh	r1, [r4, #82]	@ movhi
 678              	.L62:
 679              		.loc 1 955 0
 680 0244 B4F86E10 		ldrh	r1, [r4, #110]
 681              		.loc 1 950 0
 682 0248 B4F94470 		ldrsh	r7, [r4, #68]
 683 024c B4F84650 		ldrh	r5, [r4, #70]
ARM GAS  /var/folders/5n/p_75w94d66l9ssrldxqdhh700000gn/T//ccyVBgQE.s 			page 13


 684              	.LVL68:
 685              		.loc 1 963 0
 686 0250 227C     		ldrb	r2, [r4, #16]	@ zero_extendqisi2
 687              		.loc 1 959 0
 688 0252 E364     		str	r3, [r4, #76]
 689              		.loc 1 953 0
 690 0254 80B2     		uxth	r0, r0
 691              		.loc 1 947 0
 692 0256 0023     		movs	r3, #0
 693              		.loc 1 950 0
 694 0258 05EBE705 		add	r5, r5, r7, asr #3
 695              		.loc 1 955 0
 696 025c 4118     		adds	r1, r0, r1
 697              		.loc 1 963 0
 698 025e 032A     		cmp	r2, #3
 699              		.loc 1 947 0
 700 0260 84F84A30 		strb	r3, [r4, #74]
 701              		.loc 1 950 0
 702 0264 A4F84850 		strh	r5, [r4, #72]	@ movhi
 703              		.loc 1 953 0
 704 0268 A4F86C00 		strh	r0, [r4, #108]	@ movhi
 705              		.loc 1 955 0
 706 026c A4F86E10 		strh	r1, [r4, #110]	@ movhi
 707              		.loc 1 958 0
 708 0270 84F85030 		strb	r3, [r4, #80]
 709              		.loc 1 963 0
 710 0274 00F2F380 		bhi	.L267
 711              	.LVL69:
 712              	.L245:
 713 0278 A36F     		ldr	r3, [r4, #120]
 714              		.loc 1 986 0 discriminator 2
 715 027a 002B     		cmp	r3, #0
 716 027c 00F09D82 		beq	.L246
 717              	.L205:
 718              		.loc 1 987 0 discriminator 2
 719 0280 DB68     		ldr	r3, [r3, #12]
 720 0282 5868     		ldr	r0, [r3, #4]	@ unaligned
 721 0284 FFF7FEFF 		bl	lwip_ntohl
 722              	.LVL70:
 723 0288 A36F     		ldr	r3, [r4, #120]
 724 028a DA68     		ldr	r2, [r3, #12]
 725 028c 1D89     		ldrh	r5, [r3, #8]
 726 028e 0746     		mov	r7, r0
 727 0290 9089     		ldrh	r0, [r2, #12]	@ unaligned
 728 0292 FFF7FEFF 		bl	lwip_ntohs
 729              	.LVL71:
 730 0296 3268     		ldr	r2, [r6, #0]
 731 0298 10F00300 		ands	r0, r0, #3
 732 029c 18BF     		it	ne
 733 029e 0120     		movne	r0, #1
 734 02a0 BA1A     		subs	r2, r7, r2
 735 02a2 2B18     		adds	r3, r5, r0
 736 02a4 D318     		adds	r3, r2, r3
 737              		.loc 1 986 0 discriminator 2
 738 02a6 002B     		cmp	r3, #0
 739 02a8 00F38982 		bgt	.L268
 740              		.loc 1 994 0
ARM GAS  /var/folders/5n/p_75w94d66l9ssrldxqdhh700000gn/T//ccyVBgQE.s 			page 14


 741 02ac A56F     		ldr	r5, [r4, #120]
 742              	.LVL72:
 743              		.loc 1 998 0
 744 02ae B4F87070 		ldrh	r7, [r4, #112]
 745              		.loc 1 995 0
 746 02b2 2B68     		ldr	r3, [r5, #0]
 747              		.loc 1 998 0
 748 02b4 6868     		ldr	r0, [r5, #4]
 749              		.loc 1 995 0
 750 02b6 A367     		str	r3, [r4, #120]
 751              		.loc 1 998 0
 752 02b8 FFF7FEFF 		bl	pbuf_clen
 753              	.LVL73:
 754 02bc 8742     		cmp	r7, r0
 755 02be 2DD3     		bcc	.L269
 756              	.L66:
 757              		.loc 1 1000 0
 758 02c0 B4F86C30 		ldrh	r3, [r4, #108]
 759 02c4 F3B9     		cbnz	r3, .L270
 760              	.L67:
 761              		.loc 1 1004 0
 762 02c6 6868     		ldr	r0, [r5, #4]
 763 02c8 B4F87070 		ldrh	r7, [r4, #112]
 764 02cc FFF7FEFF 		bl	pbuf_clen
 765              	.LVL74:
 766 02d0 381A     		subs	r0, r7, r0
 767 02d2 A4F87000 		strh	r0, [r4, #112]	@ movhi
 768              		.loc 1 1005 0
 769 02d6 2846     		mov	r0, r5
 770 02d8 FFF7FEFF 		bl	tcp_seg_free
 771              	.LVL75:
 772              		.loc 1 1008 0
 773 02dc B4F87030 		ldrh	r3, [r4, #112]
 774 02e0 002B     		cmp	r3, #0
 775 02e2 C9D0     		beq	.L245
 776              		.loc 1 1009 0
 777 02e4 A36F     		ldr	r3, [r4, #120]
 778 02e6 002B     		cmp	r3, #0
 779 02e8 CAD1     		bne	.L205
 780              		.loc 1 1009 0 is_stmt 0 discriminator 1
 781 02ea 636F     		ldr	r3, [r4, #116]
 782 02ec 002B     		cmp	r3, #0
 783 02ee 00F03183 		beq	.L271
 784              	.LVL76:
 785              	.L70:
 786              		.loc 1 1017 0 is_stmt 1
 787 02f2 4FF6FF72 		movw	r2, #65535
 788 02f6 E286     		strh	r2, [r4, #54]	@ movhi
 789              	.L73:
 790              		.loc 1 1021 0
 791 02f8 0022     		movs	r2, #0
 792 02fa 84F83420 		strb	r2, [r4, #52]
 793 02fe DFF8D892 		ldr	r9, .L290+12
 794 0302 D1E6     		b	.L74
 795              	.LVL77:
 796              	.L270:
 797              		.loc 1 1000 0 discriminator 1
ARM GAS  /var/folders/5n/p_75w94d66l9ssrldxqdhh700000gn/T//ccyVBgQE.s 			page 15


 798 0304 EB68     		ldr	r3, [r5, #12]
 799 0306 9889     		ldrh	r0, [r3, #12]	@ unaligned
 800 0308 FFF7FEFF 		bl	lwip_ntohs
 801              	.LVL78:
 802 030c C207     		lsls	r2, r0, #31
 803 030e DAD5     		bpl	.L67
 804              		.loc 1 1001 0
 805 0310 B4F86C30 		ldrh	r3, [r4, #108]
 806 0314 013B     		subs	r3, r3, #1
 807 0316 A4F86C30 		strh	r3, [r4, #108]	@ movhi
 808 031a D4E7     		b	.L67
 809              	.L269:
 810              		.loc 1 998 0 discriminator 1
 811 031c FFF7FEFF 		bl	port_halt
 812              	.LVL79:
 813 0320 CEE7     		b	.L66
 814              	.LVL80:
 815              	.L258:
 816              		.loc 1 1187 0
 817 0322 9342     		cmp	r3, r2
 818 0324 00F02081 		beq	.L272
 819              		.loc 1 1341 0
 820 0328 2046     		mov	r0, r4
 821 032a FFF7FEFF 		bl	tcp_send_empty_ack
 822              	.LVL81:
 823              		.loc 1 1344 0
 824 032e E56F     		ldr	r5, [r4, #124]
 825 0330 002D     		cmp	r5, #0
 826 0332 00F0F082 		beq	.L273
 827 0336 D8F80010 		ldr	r1, [r8, #0]
 828 033a 0026     		movs	r6, #0
 829              		.loc 1 1403 0
 830 033c 4F1C     		adds	r7, r1, #1
 831 033e 0EE0     		b	.L131
 832              	.L128:
 833 0340 F268     		ldr	r2, [r6, #12]
 834 0342 5268     		ldr	r2, [r2, #4]	@ unaligned
 835 0344 D243     		mvns	r2, r2
 836 0346 CA42     		cmn	r2, r1
 837 0348 03D4     		bmi	.L129
 838              		.loc 1 1403 0 is_stmt 0 discriminator 1
 839 034a BCF1000F 		cmp	ip, #0
 840 034e 40F34B82 		ble	.L274
 841              	.L129:
 842              		.loc 1 1425 0 is_stmt 1
 843 0352 2A68     		ldr	r2, [r5, #0]
 844 0354 2E46     		mov	r6, r5
 845 0356 002A     		cmp	r2, #0
 846 0358 3FF438AF 		beq	.L275
 847 035c 1546     		mov	r5, r2
 848              	.L131:
 849              		.loc 1 1361 0
 850 035e E868     		ldr	r0, [r5, #12]
 851 0360 4368     		ldr	r3, [r0, #4]	@ unaligned
 852 0362 8B42     		cmp	r3, r1
 853              		.loc 1 1403 0
 854 0364 C3EB070C 		rsb	ip, r3, r7
ARM GAS  /var/folders/5n/p_75w94d66l9ssrldxqdhh700000gn/T//ccyVBgQE.s 			page 16


 855              		.loc 1 1361 0
 856 0368 00F01782 		beq	.L276
 857              		.loc 1 1387 0
 858 036c 002E     		cmp	r6, #0
 859 036e E7D1     		bne	.L128
 860              		.loc 1 1388 0
 861 0370 CA1A     		subs	r2, r1, r3
 862 0372 002A     		cmp	r2, #0
 863 0374 EDDA     		bge	.L129
 864              		.loc 1 1393 0
 865 0376 9548     		ldr	r0, .L290
 866 0378 FFF7FEFF 		bl	tcp_seg_copy
 867              	.LVL82:
 868              		.loc 1 1394 0
 869 037c 0028     		cmp	r0, #0
 870 037e 3FF429AF 		beq	.L49
 871              		.loc 1 1395 0
 872 0382 E067     		str	r0, [r4, #124]
 873              	.L251:
 874              		.loc 1 1396 0
 875 0384 2946     		mov	r1, r5
 876              		.loc 1 1479 0
 877 0386 BDE8F84F 		pop	{r3, r4, r5, r6, r7, r8, r9, sl, fp, lr}
 878              		.loc 1 1396 0
 879 038a FFF7FEBF 		b	tcp_oos_insert_segment
 880              	.LVL83:
 881              	.L261:
 882              		.loc 1 906 0
 883 038e DFF84892 		ldr	r9, .L290+12
 884 0392 B9F80000 		ldrh	r0, [r9, #0]
 885              		.loc 1 904 0
 886 0396 0027     		movs	r7, #0
 887 0398 A4F86C70 		strh	r7, [r4, #108]	@ movhi
 888              		.loc 1 906 0
 889 039c 30B9     		cbnz	r0, .L57
 890              		.loc 1 908 0
 891 039e B4F85C70 		ldrh	r7, [r4, #92]
 892 03a2 606E     		ldr	r0, [r4, #100]
 893              		.loc 1 858 0
 894 03a4 6918     		adds	r1, r5, r1
 895              	.LVL84:
 896              		.loc 1 908 0
 897 03a6 3818     		adds	r0, r7, r0
 898 03a8 8842     		cmp	r0, r1
 899 03aa 69D0     		beq	.L277
 900              	.L57:
 901              		.loc 1 933 0
 902 03ac 0023     		movs	r3, #0
 903 03ae 84F85030 		strb	r3, [r4, #80]
 904 03b2 636F     		ldr	r3, [r4, #116]
 905 03b4 78E6     		b	.L74
 906              	.LVL85:
 907              	.L257:
 908              		.loc 1 1178 0
 909 03b6 94F82030 		ldrb	r3, [r4, #32]	@ zero_extendqisi2
 910 03ba 43F00203 		orr	r3, r3, #2
 911 03be 84F82030 		strb	r3, [r4, #32]
ARM GAS  /var/folders/5n/p_75w94d66l9ssrldxqdhh700000gn/T//ccyVBgQE.s 			page 17


 912 03c2 47E6     		b	.L94
 913              	.LVL86:
 914              	.L53:
 915              		.loc 1 862 0
 916 03c4 C81A     		subs	r0, r1, r3
 917 03c6 0028     		cmp	r0, #0
 918 03c8 BFF658AE 		bge	.L54
 919 03cc 8048     		ldr	r0, .L290+4
 920 03ce 0068     		ldr	r0, [r0, #0]
 921 03d0 C089     		ldrh	r0, [r0, #14]	@ unaligned
 922 03d2 0CE7     		b	.L52
 923              	.LVL87:
 924              	.L256:
 925              		.loc 1 1144 0
 926 03d4 7D4F     		ldr	r7, .L290
 927 03d6 7D68     		ldr	r5, [r7, #4]
 928              		.loc 1 1143 0
 929 03d8 C3EB020A 		rsb	sl, r3, r2
 930 03dc 5646     		mov	r6, sl
 931              	.LVL88:
 932              		.loc 1 1145 0
 933 03de 002D     		cmp	r5, #0
 934 03e0 00F09682 		beq	.L278
 935              	.L85:
 936              		.loc 1 1146 0
 937 03e4 47F6FE73 		movw	r3, #32766
 938 03e8 9A45     		cmp	sl, r3
 939 03ea 00F3FA81 		bgt	.L279
 940              	.L86:
 941              		.loc 1 1147 0
 942 03ee 7868     		ldr	r0, [r7, #4]
 943 03f0 4389     		ldrh	r3, [r0, #10]
 944 03f2 9A45     		cmp	sl, r3
 945 03f4 40F3EA81 		ble	.L87
 946              		.loc 1 1148 0
 947 03f8 0389     		ldrh	r3, [r0, #8]
 948 03fa 9A45     		cmp	sl, r3
 949 03fc 00F31182 		bgt	.L280
 950              	.L88:
 951              		.loc 1 1150 0
 952 0400 6989     		ldrh	r1, [r5, #10]
 953              		.loc 1 1149 0
 954 0402 CAEB0303 		rsb	r3, sl, r3
 955              		.loc 1 1150 0
 956 0406 8A45     		cmp	sl, r1
 957              		.loc 1 1149 0
 958 0408 98B2     		uxth	r0, r3
 959              	.LVL89:
 960              		.loc 1 1150 0
 961 040a 07DD     		ble	.L89
 962              		.loc 1 1156 0
 963 040c 0023     		movs	r3, #0
 964              	.LVL90:
 965              	.L203:
 966 040e 6B81     		strh	r3, [r5, #10]	@ movhi
 967              		.loc 1 1155 0
 968 0410 2881     		strh	r0, [r5, #8]	@ movhi
ARM GAS  /var/folders/5n/p_75w94d66l9ssrldxqdhh700000gn/T//ccyVBgQE.s 			page 18


 969              		.loc 1 1157 0
 970 0412 2D68     		ldr	r5, [r5, #0]
 971              	.LVL91:
 972              		.loc 1 1151 0
 973 0414 761A     		subs	r6, r6, r1
 974              	.LVL92:
 975              		.loc 1 1150 0
 976 0416 6989     		ldrh	r1, [r5, #10]
 977 0418 B142     		cmp	r1, r6
 978 041a F8DB     		blt	.L203
 979              	.L89:
 980              		.loc 1 1159 0
 981 041c 7142     		negs	r1, r6
 982 041e 2846     		mov	r0, r5
 983              	.LVL93:
 984 0420 09B2     		sxth	r1, r1
 985 0422 FFF7FEFF 		bl	pbuf_header
 986              	.LVL94:
 987 0426 0028     		cmp	r0, #0
 988 0428 40F0D881 		bne	.L92
 989              	.L91:
 990              		.loc 1 1169 0
 991 042c D8F80000 		ldr	r0, [r8, #0]
 992 0430 3989     		ldrh	r1, [r7, #8]
 993 0432 636A     		ldr	r3, [r4, #36]
 994              		.loc 1 1170 0
 995 0434 FA68     		ldr	r2, [r7, #12]
 996 0436 C8F80030 		str	r3, [r8, #0]
 997              		.loc 1 1169 0
 998 043a 4118     		adds	r1, r0, r1
 999 043c C91A     		subs	r1, r1, r3
 1000 043e 3981     		strh	r1, [r7, #8]	@ movhi
 1001              		.loc 1 1170 0
 1002 0440 5360     		str	r3, [r2, #4]	@ unaligned
 1003 0442 626A     		ldr	r2, [r4, #36]
 1004              		.loc 1 1185 0
 1005 0444 991A     		subs	r1, r3, r2
 1006 0446 0029     		cmp	r1, #0
 1007 0448 BFF6FCAD 		bge	.L93
 1008 044c 02E6     		b	.L94
 1009              	.LVL95:
 1010              	.L260:
 1011              		.loc 1 863 0
 1012 044e 604B     		ldr	r3, .L290+4
 1013 0450 1B68     		ldr	r3, [r3, #0]
 1014 0452 D889     		ldrh	r0, [r3, #14]	@ unaligned
 1015 0454 8542     		cmp	r5, r0
 1016 0456 0B46     		mov	r3, r1
 1017 0458 BFF413AE 		bcs	.L55
 1018 045c C7E6     		b	.L52
 1019              	.LVL96:
 1020              	.L267:
 1021              		.loc 1 964 0
 1022 045e B4F85230 		ldrh	r3, [r4, #82]
 1023 0462 B4F85420 		ldrh	r2, [r4, #84]
 1024 0466 9A42     		cmp	r2, r3
 1025              		.loc 1 965 0
ARM GAS  /var/folders/5n/p_75w94d66l9ssrldxqdhh700000gn/T//ccyVBgQE.s 			page 19


 1026 0468 228F     		ldrh	r2, [r4, #56]
 1027              	.LBB2:
 1028              		.loc 1 970 0
 1029 046a 9CBF     		itt	ls
 1030 046c 5243     		mulls	r2, r2, r2
 1031 046e 92FBF3F2 		sdivls	r2, r2, r3
 1032 0472 9A18     		adds	r2, r3, r2
 1033 0474 92B2     		uxth	r2, r2
 1034              	.LVL97:
 1035              		.loc 1 971 0
 1036 0476 9342     		cmp	r3, r2
 1037              		.loc 1 972 0
 1038 0478 38BF     		it	cc
 1039 047a A4F85220 		strhcc	r2, [r4, #82]	@ movhi
 1040 047e FBE6     		b	.L245
 1041              	.LVL98:
 1042              	.L277:
 1043              	.LBE2:
 1044              		.loc 1 910 0
 1045 0480 B4F93610 		ldrsh	r1, [r4, #54]
 1046 0484 0029     		cmp	r1, #0
 1047 0486 91DB     		blt	.L57
 1048              		.loc 1 912 0
 1049 0488 9A42     		cmp	r2, r3
 1050 048a 8FD1     		bne	.L57
 1051              	.LVL99:
 1052              		.loc 1 915 0
 1053 048c 94F85030 		ldrb	r3, [r4, #80]	@ zero_extendqisi2
 1054 0490 0133     		adds	r3, r3, #1
 1055 0492 DBB2     		uxtb	r3, r3
 1056              		.loc 1 916 0
 1057 0494 032B     		cmp	r3, #3
 1058              		.loc 1 915 0
 1059 0496 84F85030 		strb	r3, [r4, #80]
 1060              		.loc 1 916 0
 1061 049a 40F25E82 		bls	.L58
 1062              		.loc 1 919 0
 1063 049e B4F85220 		ldrh	r2, [r4, #82]
 1064 04a2 238F     		ldrh	r3, [r4, #56]
 1065 04a4 D318     		adds	r3, r2, r3
 1066 04a6 9BB2     		uxth	r3, r3
 1067 04a8 9A42     		cmp	r2, r3
 1068 04aa 80F05A82 		bcs	.L243
 1069              		.loc 1 920 0
 1070 04ae A4F85230 		strh	r3, [r4, #82]	@ movhi
 1071 04b2 636F     		ldr	r3, [r4, #116]
 1072 04b4 F8E5     		b	.L74
 1073              	.LVL100:
 1074              	.L265:
 1075              		.loc 1 1076 0
 1076 04b6 5342     		negs	r3, r2
 1077 04b8 9BB2     		uxth	r3, r3
 1078              	.LVL101:
 1079 04ba 53E6     		b	.L82
 1080              	.LVL102:
 1081              	.L266:
 1082              		.loc 1 1427 0
ARM GAS  /var/folders/5n/p_75w94d66l9ssrldxqdhh700000gn/T//ccyVBgQE.s 			page 20


 1083 04bc 8089     		ldrh	r0, [r0, #12]	@ unaligned
 1084 04be FFF7FEFF 		bl	lwip_ntohs
 1085              	.LVL103:
 1086 04c2 C007     		lsls	r0, r0, #31
 1087 04c4 3FF586AE 		bmi	.L49
 1088              		.loc 1 1431 0
 1089 04c8 4048     		ldr	r0, .L290
 1090 04ca FFF7FEFF 		bl	tcp_seg_copy
 1091              	.LVL104:
 1092 04ce 2860     		str	r0, [r5, #0]
 1093              		.loc 1 1432 0
 1094 04d0 0028     		cmp	r0, #0
 1095 04d2 3FF47FAE 		beq	.L49
 1096              		.loc 1 1433 0
 1097 04d6 EA68     		ldr	r2, [r5, #12]
 1098 04d8 D8F80030 		ldr	r3, [r8, #0]
 1099 04dc 2989     		ldrh	r1, [r5, #8]
 1100 04de 5268     		ldr	r2, [r2, #4]	@ unaligned
 1101 04e0 C91A     		subs	r1, r1, r3
 1102 04e2 8918     		adds	r1, r1, r2
 1103 04e4 0029     		cmp	r1, #0
 1104 04e6 07DD     		ble	.L132
 1105              		.loc 1 1435 0
 1106 04e8 9B1A     		subs	r3, r3, r2
 1107 04ea 99B2     		uxth	r1, r3
 1108 04ec 2981     		strh	r1, [r5, #8]	@ movhi
 1109              		.loc 1 1436 0
 1110 04ee 6868     		ldr	r0, [r5, #4]
 1111 04f0 FFF7FEFF 		bl	pbuf_realloc
 1112              	.LVL105:
 1113 04f4 374B     		ldr	r3, .L290+8
 1114 04f6 1B68     		ldr	r3, [r3, #0]
 1115              	.L132:
 1116              		.loc 1 1439 0
 1117 04f8 B9F80000 		ldrh	r0, [r9, #0]
 1118 04fc 218D     		ldrh	r1, [r4, #40]
 1119 04fe 626A     		ldr	r2, [r4, #36]
 1120 0500 1B18     		adds	r3, r3, r0
 1121 0502 8A18     		adds	r2, r1, r2
 1122 0504 9342     		cmp	r3, r2
 1123 0506 7FF665AE 		bls	.L49
 1124              		.loc 1 1444 0
 1125 050a 2B68     		ldr	r3, [r5, #0]
 1126 050c DB68     		ldr	r3, [r3, #12]
 1127 050e 9889     		ldrh	r0, [r3, #12]	@ unaligned
 1128 0510 FFF7FEFF 		bl	lwip_ntohs
 1129              	.LVL106:
 1130 0514 C107     		lsls	r1, r0, #31
 1131 0516 00F12982 		bmi	.L281
 1132              	.L133:
 1133              		.loc 1 1450 0
 1134 051a 208D     		ldrh	r0, [r4, #40]
 1135 051c 616A     		ldr	r1, [r4, #36]
 1136 051e D8F80020 		ldr	r2, [r8, #0]
 1137 0522 2B68     		ldr	r3, [r5, #0]
 1138 0524 0918     		adds	r1, r1, r0
 1139 0526 8A1A     		subs	r2, r1, r2
ARM GAS  /var/folders/5n/p_75w94d66l9ssrldxqdhh700000gn/T//ccyVBgQE.s 			page 21


 1140 0528 91B2     		uxth	r1, r2
 1141 052a 1981     		strh	r1, [r3, #8]	@ movhi
 1142              		.loc 1 1451 0
 1143 052c 5868     		ldr	r0, [r3, #4]
 1144 052e FFF7FEFF 		bl	pbuf_realloc
 1145              	.LVL107:
 1146              		.loc 1 1452 0
 1147 0532 2B68     		ldr	r3, [r5, #0]
 1148 0534 DA68     		ldr	r2, [r3, #12]
 1149 0536 1D89     		ldrh	r5, [r3, #8]
 1150 0538 9089     		ldrh	r0, [r2, #12]	@ unaligned
 1151 053a FFF7FEFF 		bl	lwip_ntohs
 1152              	.LVL108:
 1153 053e 10F00300 		ands	r0, r0, #3
 1154 0542 18BF     		it	ne
 1155 0544 0120     		movne	r0, #1
 1156 0546 2B18     		adds	r3, r5, r0
 1157              		.loc 1 1453 0
 1158 0548 D8F80010 		ldr	r1, [r8, #0]
 1159 054c 268D     		ldrh	r6, [r4, #40]
 1160 054e 626A     		ldr	r2, [r4, #36]
 1161              		.loc 1 1452 0
 1162 0550 9BB2     		uxth	r3, r3
 1163              		.loc 1 1453 0
 1164 0552 5918     		adds	r1, r3, r1
 1165 0554 B218     		adds	r2, r6, r2
 1166 0556 9142     		cmp	r1, r2
 1167              		.loc 1 1452 0
 1168 0558 A9F80030 		strh	r3, [r9, #0]	@ movhi
 1169              		.loc 1 1453 0
 1170 055c 3FF43AAE 		beq	.L49
 1171              		.loc 1 1479 0 discriminator 1
 1172 0560 BDE8F84F 		pop	{r3, r4, r5, r6, r7, r8, r9, sl, fp, lr}
 1173              		.loc 1 1453 0 discriminator 1
 1174 0564 FFF7FEBF 		b	port_halt
 1175              	.LVL109:
 1176              	.L272:
 1177              		.loc 1 1191 0
 1178 0568 184F     		ldr	r7, .L290
 1179 056a FB68     		ldr	r3, [r7, #12]
 1180 056c 3D89     		ldrh	r5, [r7, #8]
 1181 056e 9889     		ldrh	r0, [r3, #12]	@ unaligned
 1182 0570 FFF7FEFF 		bl	lwip_ntohs
 1183              	.LVL110:
 1184 0574 10F00300 		ands	r0, r0, #3
 1185 0578 18BF     		it	ne
 1186 057a 0120     		movne	r0, #1
 1187 057c 2B18     		adds	r3, r5, r0
 1188              		.loc 1 1193 0
 1189 057e 228D     		ldrh	r2, [r4, #40]
 1190              		.loc 1 1191 0
 1191 0580 9BB2     		uxth	r3, r3
 1192              		.loc 1 1193 0
 1193 0582 9A42     		cmp	r2, r3
 1194              		.loc 1 1191 0
 1195 0584 A9F80030 		strh	r3, [r9, #0]	@ movhi
 1196              		.loc 1 1193 0
ARM GAS  /var/folders/5n/p_75w94d66l9ssrldxqdhh700000gn/T//ccyVBgQE.s 			page 22


 1197 0588 C0F05781 		bcc	.L282
 1198              	.L96:
 1199              		.loc 1 1217 0
 1200 058c E36F     		ldr	r3, [r4, #124]
 1201 058e 002B     		cmp	r3, #0
 1202 0590 69D0     		beq	.L250
 1203              		.loc 1 1218 0
 1204 0592 FB68     		ldr	r3, [r7, #12]
 1205 0594 9889     		ldrh	r0, [r3, #12]	@ unaligned
 1206 0596 FFF7FEFF 		bl	lwip_ntohs
 1207              	.LVL111:
 1208 059a C307     		lsls	r3, r0, #31
 1209 059c 60D4     		bmi	.L255
 1210              		.loc 1 1231 0
 1211 059e E66F     		ldr	r6, [r4, #124]
 1212              	.LVL112:
 1213              		.loc 1 1234 0
 1214 05a0 002E     		cmp	r6, #0
 1215 05a2 00F07B81 		beq	.L105
 1216              		.loc 1 1235 0
 1217 05a6 F268     		ldr	r2, [r6, #12]
 1218 05a8 B9F80030 		ldrh	r3, [r9, #0]
 1219 05ac D2F804E0 		ldr	lr, [r2, #4]	@ unaligned
 1220 05b0 D8F80010 		ldr	r1, [r8, #0]
 1221 05b4 3589     		ldrh	r5, [r6, #8]
 1222 05b6 CEEB0300 		rsb	r0, lr, r3
 1223 05ba 4018     		adds	r0, r0, r1
 1224 05bc 451B     		subs	r5, r0, r5
 1225              		.loc 1 1234 0
 1226 05be 002D     		cmp	r5, #0
 1227              		.loc 1 1239 0
 1228 05c0 A8BF     		it	ge
 1229 05c2 DFF808A0 		ldrge	sl, .L290
 1230              		.loc 1 1234 0
 1231 05c6 20DA     		bge	.L242
 1232 05c8 70E1     		b	.L287
 1233              	.L291:
 1234 05ca 00BF     		.align	2
 1235              	.L290:
 1236 05cc 00000000 		.word	.LANCHOR5
 1237 05d0 00000000 		.word	.LANCHOR0
 1238 05d4 00000000 		.word	.LANCHOR1
 1239 05d8 00000000 		.word	.LANCHOR4
 1240              	.L107:
 1241              	.LVL113:
 1242              		.loc 1 1244 0
 1243 05dc 3568     		ldr	r5, [r6, #0]
 1244              	.LVL114:
 1245              		.loc 1 1245 0
 1246 05de 3046     		mov	r0, r6
 1247 05e0 FFF7FEFF 		bl	tcp_seg_free
 1248              	.LVL115:
 1249              		.loc 1 1234 0
 1250 05e4 002D     		cmp	r5, #0
 1251 05e6 00F05981 		beq	.L105
 1252              		.loc 1 1235 0 discriminator 2
 1253 05ea EA68     		ldr	r2, [r5, #12]
ARM GAS  /var/folders/5n/p_75w94d66l9ssrldxqdhh700000gn/T//ccyVBgQE.s 			page 23


 1254 05ec B9F80030 		ldrh	r3, [r9, #0]
 1255 05f0 D2F804E0 		ldr	lr, [r2, #4]	@ unaligned
 1256 05f4 D8F80010 		ldr	r1, [r8, #0]
 1257 05f8 2E89     		ldrh	r6, [r5, #8]
 1258              	.LVL116:
 1259 05fa CEEB0300 		rsb	r0, lr, r3
 1260 05fe 4018     		adds	r0, r0, r1
 1261 0600 861B     		subs	r6, r0, r6
 1262              		.loc 1 1234 0 discriminator 2
 1263 0602 002E     		cmp	r6, #0
 1264 0604 C0F25381 		blt	.L106
 1265              		.loc 1 1234 0 is_stmt 0
 1266 0608 2E46     		mov	r6, r5
 1267              	.LVL117:
 1268              	.L242:
 1269              		.loc 1 1238 0 is_stmt 1
 1270 060a 9089     		ldrh	r0, [r2, #12]	@ unaligned
 1271 060c FFF7FEFF 		bl	lwip_ntohs
 1272              	.LVL118:
 1273 0610 C507     		lsls	r5, r0, #31
 1274 0612 E3D5     		bpl	.L107
 1275              		.loc 1 1239 0 discriminator 1
 1276 0614 FB68     		ldr	r3, [r7, #12]
 1277 0616 9889     		ldrh	r0, [r3, #12]	@ unaligned
 1278 0618 FFF7FEFF 		bl	lwip_ntohs
 1279              	.LVL119:
 1280              		.loc 1 1238 0 discriminator 1
 1281 061c 00F00200 		and	r0, r0, #2
 1282 0620 83B2     		uxth	r3, r0
 1283 0622 002B     		cmp	r3, #0
 1284 0624 DAD1     		bne	.L107
 1285              		.loc 1 1240 0
 1286 0626 DAF80C50 		ldr	r5, [sl, #12]
 1287 062a 0120     		movs	r0, #1
 1288 062c B5F80CB0 		ldrh	fp, [r5, #12]	@ unaligned
 1289 0630 FFF7FEFF 		bl	lwip_htons
 1290              	.LVL120:
 1291 0634 40EA0B00 		orr	r0, r0, fp
 1292 0638 A881     		strh	r0, [r5, #12]	@ unaligned
 1293              		.loc 1 1241 0
 1294 063a DAF80C30 		ldr	r3, [sl, #12]
 1295 063e BAF80850 		ldrh	r5, [sl, #8]
 1296 0642 9889     		ldrh	r0, [r3, #12]	@ unaligned
 1297 0644 FFF7FEFF 		bl	lwip_ntohs
 1298              	.LVL121:
 1299 0648 10F00300 		ands	r0, r0, #3
 1300 064c 18BF     		it	ne
 1301 064e 0120     		movne	r0, #1
 1302 0650 2818     		adds	r0, r5, r0
 1303 0652 A9F80000 		strh	r0, [r9, #0]	@ movhi
 1304 0656 C1E7     		b	.L107
 1305              	.LVL122:
 1306              	.L202:
 1307              	.LBB3:
 1308              		.loc 1 1226 0
 1309 0658 0368     		ldr	r3, [r0, #0]
 1310 065a E367     		str	r3, [r4, #124]
ARM GAS  /var/folders/5n/p_75w94d66l9ssrldxqdhh700000gn/T//ccyVBgQE.s 			page 24


 1311              		.loc 1 1227 0
 1312 065c FFF7FEFF 		bl	tcp_seg_free
 1313              	.LVL123:
 1314              	.L255:
 1315              	.LBE3:
 1316              		.loc 1 1224 0
 1317 0660 E06F     		ldr	r0, [r4, #124]
 1318 0662 0028     		cmp	r0, #0
 1319 0664 F8D1     		bne	.L202
 1320              	.L250:
 1321 0666 B9F80030 		ldrh	r3, [r9, #0]
 1322 066a D8F80010 		ldr	r1, [r8, #0]
 1323 066e 5918     		adds	r1, r3, r1
 1324              	.L101:
 1325              		.loc 1 1270 0
 1326 0670 228D     		ldrh	r2, [r4, #40]
 1327              		.loc 1 1267 0
 1328 0672 6162     		str	r1, [r4, #36]
 1329              		.loc 1 1270 0
 1330 0674 9A42     		cmp	r2, r3
 1331 0676 C0F0DA80 		bcc	.L284
 1332              	.L112:
 1333              		.loc 1 1271 0
 1334 067a D31A     		subs	r3, r2, r3
 1335 067c 2385     		strh	r3, [r4, #40]	@ movhi
 1336              		.loc 1 1273 0
 1337 067e 2046     		mov	r0, r4
 1338 0680 FFF7FEFF 		bl	tcp_update_rcv_ann_wnd
 1339              	.LVL124:
 1340              		.loc 1 1284 0
 1341 0684 7B68     		ldr	r3, [r7, #4]
 1342 0686 1A89     		ldrh	r2, [r3, #8]
 1343 0688 22B1     		cbz	r2, .L113
 1344              		.loc 1 1285 0
 1345 068a A64A     		ldr	r2, .L292
 1346 068c 1360     		str	r3, [r2, #0]
 1347              		.loc 1 1289 0
 1348 068e A64B     		ldr	r3, .L292+4
 1349 0690 0022     		movs	r2, #0
 1350 0692 5A60     		str	r2, [r3, #4]
 1351              	.L113:
 1352              		.loc 1 1291 0
 1353 0694 FB68     		ldr	r3, [r7, #12]
 1354 0696 9889     		ldrh	r0, [r3, #12]	@ unaligned
 1355 0698 FFF7FEFF 		bl	lwip_ntohs
 1356              	.LVL125:
 1357 069c C007     		lsls	r0, r0, #31
 1358              		.loc 1 1293 0
 1359 069e 48BF     		it	mi
 1360 06a0 A24B     		ldrmi	r3, .L292+8
 1361              		.loc 1 1299 0
 1362 06a2 E56F     		ldr	r5, [r4, #124]
 1363              		.loc 1 1293 0
 1364 06a4 42BF     		ittt	mi
 1365 06a6 1A78     		ldrbmi	r2, [r3, #0]	@ zero_extendqisi2
 1366 06a8 42F02002 		orrmi	r2, r2, #32
 1367 06ac 1A70     		strbmi	r2, [r3, #0]
ARM GAS  /var/folders/5n/p_75w94d66l9ssrldxqdhh700000gn/T//ccyVBgQE.s 			page 25


 1368              		.loc 1 1299 0
 1369 06ae 002D     		cmp	r5, #0
 1370 06b0 65D0     		beq	.L115
 1371              		.loc 1 1300 0
 1372 06b2 EA68     		ldr	r2, [r5, #12]
 1373              		.loc 1 1299 0
 1374 06b4 636A     		ldr	r3, [r4, #36]
 1375              		.loc 1 1300 0
 1376 06b6 5668     		ldr	r6, [r2, #4]	@ unaligned
 1377              		.loc 1 1299 0
 1378 06b8 9E42     		cmp	r6, r3
 1379 06ba 60D1     		bne	.L115
 1380              		.loc 1 1315 0
 1381 06bc DFF86492 		ldr	r9, .L292
 1382              		.loc 1 1324 0
 1383 06c0 9A4F     		ldr	r7, .L292+8
 1384              		.loc 1 1320 0
 1385 06c2 4FF0000A 		mov	sl, #0
 1386 06c6 35E0     		b	.L201
 1387              	.LVL126:
 1388              	.L116:
 1389              		.loc 1 1308 0
 1390 06c8 EB68     		ldr	r3, [r5, #12]
 1391 06ca B4F828B0 		ldrh	fp, [r4, #40]
 1392 06ce 9889     		ldrh	r0, [r3, #12]	@ unaligned
 1393 06d0 2E89     		ldrh	r6, [r5, #8]
 1394 06d2 FFF7FEFF 		bl	lwip_ntohs
 1395              	.LVL127:
 1396 06d6 10F00300 		ands	r0, r0, #3
 1397 06da 18BF     		it	ne
 1398 06dc 0120     		movne	r0, #1
 1399 06de C6EB0B06 		rsb	r6, r6, fp
 1400 06e2 301A     		subs	r0, r6, r0
 1401 06e4 2085     		strh	r0, [r4, #40]	@ movhi
 1402              		.loc 1 1310 0
 1403 06e6 2046     		mov	r0, r4
 1404 06e8 FFF7FEFF 		bl	tcp_update_rcv_ann_wnd
 1405              	.LVL128:
 1406              		.loc 1 1312 0
 1407 06ec 6968     		ldr	r1, [r5, #4]
 1408 06ee 0B89     		ldrh	r3, [r1, #8]
 1409 06f0 3BB1     		cbz	r3, .L117
 1410              		.loc 1 1315 0
 1411 06f2 D9F80000 		ldr	r0, [r9, #0]
 1412 06f6 0028     		cmp	r0, #0
 1413 06f8 3BD0     		beq	.L118
 1414              		.loc 1 1316 0
 1415 06fa FFF7FEFF 		bl	pbuf_cat
 1416              	.LVL129:
 1417              	.L119:
 1418              		.loc 1 1320 0
 1419 06fe C5F804A0 		str	sl, [r5, #4]
 1420              	.L117:
 1421              		.loc 1 1322 0
 1422 0702 EB68     		ldr	r3, [r5, #12]
 1423 0704 9889     		ldrh	r0, [r3, #12]	@ unaligned
 1424 0706 FFF7FEFF 		bl	lwip_ntohs
ARM GAS  /var/folders/5n/p_75w94d66l9ssrldxqdhh700000gn/T//ccyVBgQE.s 			page 26


 1425              	.LVL130:
 1426 070a C107     		lsls	r1, r0, #31
 1427 070c 06D5     		bpl	.L120
 1428              		.loc 1 1324 0
 1429 070e 3A78     		ldrb	r2, [r7, #0]	@ zero_extendqisi2
 1430              		.loc 1 1325 0
 1431 0710 237C     		ldrb	r3, [r4, #16]	@ zero_extendqisi2
 1432              		.loc 1 1324 0
 1433 0712 42F02002 		orr	r2, r2, #32
 1434              		.loc 1 1325 0
 1435 0716 042B     		cmp	r3, #4
 1436              		.loc 1 1324 0
 1437 0718 3A70     		strb	r2, [r7, #0]
 1438              		.loc 1 1325 0
 1439 071a 2DD0     		beq	.L285
 1440              	.L120:
 1441              		.loc 1 1330 0
 1442 071c 2B68     		ldr	r3, [r5, #0]
 1443              		.loc 1 1331 0
 1444 071e 2846     		mov	r0, r5
 1445              		.loc 1 1330 0
 1446 0720 E367     		str	r3, [r4, #124]
 1447              		.loc 1 1331 0
 1448 0722 FFF7FEFF 		bl	tcp_seg_free
 1449              	.LVL131:
 1450              		.loc 1 1299 0
 1451 0726 E56F     		ldr	r5, [r4, #124]
 1452              	.LVL132:
 1453 0728 4DB3     		cbz	r5, .L115
 1454              		.loc 1 1300 0 discriminator 2
 1455 072a EA68     		ldr	r2, [r5, #12]
 1456              		.loc 1 1299 0 discriminator 2
 1457 072c 636A     		ldr	r3, [r4, #36]
 1458              		.loc 1 1300 0 discriminator 2
 1459 072e 5668     		ldr	r6, [r2, #4]	@ unaligned
 1460              		.loc 1 1299 0 discriminator 2
 1461 0730 9E42     		cmp	r6, r3
 1462 0732 24D1     		bne	.L115
 1463              	.L201:
 1464              	.LVL133:
 1465              		.loc 1 1303 0
 1466 0734 C8F80060 		str	r6, [r8, #0]
 1467              		.loc 1 1305 0
 1468 0738 9089     		ldrh	r0, [r2, #12]	@ unaligned
 1469 073a B5F808B0 		ldrh	fp, [r5, #8]
 1470 073e FFF7FEFF 		bl	lwip_ntohs
 1471              	.LVL134:
 1472 0742 10F00300 		ands	r0, r0, #3
 1473 0746 18BF     		it	ne
 1474 0748 0120     		movne	r0, #1
 1475 074a 5844     		add	r0, fp, r0
 1476 074c 3618     		adds	r6, r6, r0
 1477              		.loc 1 1306 0
 1478 074e EB68     		ldr	r3, [r5, #12]
 1479              		.loc 1 1305 0
 1480 0750 6662     		str	r6, [r4, #36]
 1481              		.loc 1 1306 0
ARM GAS  /var/folders/5n/p_75w94d66l9ssrldxqdhh700000gn/T//ccyVBgQE.s 			page 27


 1482 0752 9889     		ldrh	r0, [r3, #12]	@ unaligned
 1483 0754 B5F808B0 		ldrh	fp, [r5, #8]
 1484 0758 268D     		ldrh	r6, [r4, #40]
 1485 075a FFF7FEFF 		bl	lwip_ntohs
 1486              	.LVL135:
 1487 075e 10F00300 		ands	r0, r0, #3
 1488 0762 18BF     		it	ne
 1489 0764 0120     		movne	r0, #1
 1490 0766 5844     		add	r0, fp, r0
 1491 0768 8642     		cmp	r6, r0
 1492 076a ADDA     		bge	.L116
 1493              		.loc 1 1306 0 is_stmt 0 discriminator 1
 1494 076c FFF7FEFF 		bl	port_halt
 1495              	.LVL136:
 1496 0770 AAE7     		b	.L116
 1497              	.L118:
 1498              		.loc 1 1318 0 is_stmt 1
 1499 0772 C9F80010 		str	r1, [r9, #0]
 1500 0776 C2E7     		b	.L119
 1501              	.L285:
 1502              		.loc 1 1326 0
 1503 0778 0723     		movs	r3, #7
 1504 077a 2374     		strb	r3, [r4, #16]
 1505 077c CEE7     		b	.L120
 1506              	.LVL137:
 1507              	.L115:
 1508              		.loc 1 1337 0
 1509 077e 94F82030 		ldrb	r3, [r4, #32]	@ zero_extendqisi2
 1510 0782 DA07     		lsls	r2, r3, #31
 1511 0784 46BF     		itte	mi
 1512 0786 23F00103 		bicmi	r3, r3, #1
 1513 078a 43F00203 		orrmi	r3, r3, #2
 1514 078e 43F00103 		orrpl	r3, r3, #1
 1515 0792 84F82030 		strb	r3, [r4, #32]
 1516 0796 BDE8F88F 		pop	{r3, r4, r5, r6, r7, r8, r9, sl, fp, pc}
 1517              	.L276:
 1518              		.loc 1 1366 0
 1519 079a 6348     		ldr	r0, .L292+4
 1520 079c 2B89     		ldrh	r3, [r5, #8]
 1521 079e 0289     		ldrh	r2, [r0, #8]
 1522 07a0 9A42     		cmp	r2, r3
 1523 07a2 7FF617AD 		bls	.L49
 1524              		.loc 1 1370 0
 1525 07a6 FFF7FEFF 		bl	tcp_seg_copy
 1526              	.LVL138:
 1527              		.loc 1 1371 0
 1528 07aa 0028     		cmp	r0, #0
 1529 07ac 3FF412AD 		beq	.L49
 1530              		.loc 1 1372 0
 1531 07b0 002E     		cmp	r6, #0
 1532 07b2 00F0D980 		beq	.L126
 1533              		.loc 1 1373 0
 1534 07b6 3060     		str	r0, [r6, #0]
 1535 07b8 E4E5     		b	.L251
 1536              	.LVL139:
 1537              	.L246:
 1538 07ba 636F     		ldr	r3, [r4, #116]
ARM GAS  /var/folders/5n/p_75w94d66l9ssrldxqdhh700000gn/T//ccyVBgQE.s 			page 28


 1539 07bc 99E5     		b	.L70
 1540              	.L268:
 1541              		.loc 1 1016 0
 1542 07be A36F     		ldr	r3, [r4, #120]
 1543 07c0 002B     		cmp	r3, #0
 1544 07c2 FAD0     		beq	.L246
 1545              		.loc 1 1019 0
 1546 07c4 0022     		movs	r2, #0
 1547 07c6 636F     		ldr	r3, [r4, #116]
 1548 07c8 E286     		strh	r2, [r4, #54]	@ movhi
 1549 07ca 95E5     		b	.L73
 1550              	.LVL140:
 1551              	.L87:
 1552              		.loc 1 1164 0
 1553 07cc CAF10001 		rsb	r1, sl, #0
 1554 07d0 09B2     		sxth	r1, r1
 1555 07d2 FFF7FEFF 		bl	pbuf_header
 1556              	.LVL141:
 1557 07d6 0028     		cmp	r0, #0
 1558 07d8 3FF428AE 		beq	.L91
 1559              	.L92:
 1560              		.loc 1 1161 0 discriminator 1
 1561 07dc FFF7FEFF 		bl	port_halt
 1562              	.LVL142:
 1563 07e0 24E6     		b	.L91
 1564              	.L279:
 1565              		.loc 1 1146 0 discriminator 1
 1566 07e2 FFF7FEFF 		bl	port_halt
 1567              	.LVL143:
 1568 07e6 02E6     		b	.L86
 1569              	.LVL144:
 1570              	.L274:
 1571              		.loc 1 1409 0
 1572 07e8 4F48     		ldr	r0, .L292+4
 1573 07ea FFF7FEFF 		bl	tcp_seg_copy
 1574              	.LVL145:
 1575              		.loc 1 1410 0
 1576 07ee 0446     		mov	r4, r0
 1577              	.LVL146:
 1578 07f0 0028     		cmp	r0, #0
 1579 07f2 3FF4EFAC 		beq	.L49
 1580              		.loc 1 1411 0
 1581 07f6 F368     		ldr	r3, [r6, #12]
 1582 07f8 D8F80020 		ldr	r2, [r8, #0]
 1583 07fc 3189     		ldrh	r1, [r6, #8]
 1584 07fe 5B68     		ldr	r3, [r3, #4]	@ unaligned
 1585 0800 891A     		subs	r1, r1, r2
 1586 0802 C918     		adds	r1, r1, r3
 1587 0804 0029     		cmp	r1, #0
 1588 0806 05DD     		ble	.L130
 1589              		.loc 1 1413 0
 1590 0808 D31A     		subs	r3, r2, r3
 1591 080a 99B2     		uxth	r1, r3
 1592 080c 3181     		strh	r1, [r6, #8]	@ movhi
 1593              		.loc 1 1414 0
 1594 080e 7068     		ldr	r0, [r6, #4]
 1595              	.LVL147:
ARM GAS  /var/folders/5n/p_75w94d66l9ssrldxqdhh700000gn/T//ccyVBgQE.s 			page 29


 1596 0810 FFF7FEFF 		bl	pbuf_realloc
 1597              	.LVL148:
 1598              	.L130:
 1599              		.loc 1 1417 0
 1600 0814 2046     		mov	r0, r4
 1601 0816 2946     		mov	r1, r5
 1602              		.loc 1 1416 0
 1603 0818 3460     		str	r4, [r6, #0]
 1604              		.loc 1 1479 0
 1605 081a BDE8F84F 		pop	{r3, r4, r5, r6, r7, r8, r9, sl, fp, lr}
 1606              		.loc 1 1417 0
 1607 081e FFF7FEBF 		b	tcp_oos_insert_segment
 1608              	.LVL149:
 1609              	.L280:
 1610              		.loc 1 1148 0 discriminator 1
 1611 0822 FFF7FEFF 		bl	port_halt
 1612              	.LVL150:
 1613 0826 404B     		ldr	r3, .L292+4
 1614 0828 5B68     		ldr	r3, [r3, #4]
 1615 082a 1B89     		ldrh	r3, [r3, #8]
 1616 082c E8E5     		b	.L88
 1617              	.LVL151:
 1618              	.L284:
 1619              		.loc 1 1270 0 discriminator 1
 1620 082e FFF7FEFF 		bl	port_halt
 1621              	.LVL152:
 1622 0832 228D     		ldrh	r2, [r4, #40]
 1623 0834 B9F80030 		ldrh	r3, [r9, #0]
 1624 0838 1FE7     		b	.L112
 1625              	.L282:
 1626              		.loc 1 1198 0
 1627 083a FB68     		ldr	r3, [r7, #12]
 1628 083c 9889     		ldrh	r0, [r3, #12]	@ unaligned
 1629 083e FFF7FEFF 		bl	lwip_ntohs
 1630              	.LVL153:
 1631 0842 C207     		lsls	r2, r0, #31
 1632 0844 78D4     		bmi	.L286
 1633              	.L97:
 1634              		.loc 1 1204 0
 1635 0846 228D     		ldrh	r2, [r4, #40]
 1636              		.loc 1 1205 0
 1637 0848 FB68     		ldr	r3, [r7, #12]
 1638              		.loc 1 1204 0
 1639 084a 3A81     		strh	r2, [r7, #8]	@ movhi
 1640              		.loc 1 1205 0
 1641 084c 9889     		ldrh	r0, [r3, #12]	@ unaligned
 1642              		.loc 1 1204 0
 1643 084e 364D     		ldr	r5, .L292+4
 1644              		.loc 1 1205 0
 1645 0850 FFF7FEFF 		bl	lwip_ntohs
 1646              	.LVL154:
 1647 0854 00F00200 		and	r0, r0, #2
 1648 0858 83B2     		uxth	r3, r0
 1649              		.loc 1 1206 0
 1650 085a 2989     		ldrh	r1, [r5, #8]
 1651              		.loc 1 1205 0
 1652 085c 13B1     		cbz	r3, .L99
ARM GAS  /var/folders/5n/p_75w94d66l9ssrldxqdhh700000gn/T//ccyVBgQE.s 			page 30


 1653              		.loc 1 1206 0
 1654 085e 0139     		subs	r1, r1, #1
 1655 0860 89B2     		uxth	r1, r1
 1656 0862 2981     		strh	r1, [r5, #8]	@ movhi
 1657              	.L99:
 1658              		.loc 1 1208 0
 1659 0864 7868     		ldr	r0, [r7, #4]
 1660 0866 FFF7FEFF 		bl	pbuf_realloc
 1661              	.LVL155:
 1662              		.loc 1 1209 0
 1663 086a FB68     		ldr	r3, [r7, #12]
 1664 086c 3D89     		ldrh	r5, [r7, #8]
 1665 086e 9889     		ldrh	r0, [r3, #12]	@ unaligned
 1666 0870 FFF7FEFF 		bl	lwip_ntohs
 1667              	.LVL156:
 1668 0874 10F00300 		ands	r0, r0, #3
 1669 0878 18BF     		it	ne
 1670 087a 0120     		movne	r0, #1
 1671 087c 2B18     		adds	r3, r5, r0
 1672              		.loc 1 1210 0
 1673 087e D8F80010 		ldr	r1, [r8, #0]
 1674 0882 268D     		ldrh	r6, [r4, #40]
 1675 0884 626A     		ldr	r2, [r4, #36]
 1676              		.loc 1 1209 0
 1677 0886 9BB2     		uxth	r3, r3
 1678              		.loc 1 1210 0
 1679 0888 5918     		adds	r1, r3, r1
 1680 088a B218     		adds	r2, r6, r2
 1681 088c 9142     		cmp	r1, r2
 1682              		.loc 1 1209 0
 1683 088e A9F80030 		strh	r3, [r9, #0]	@ movhi
 1684              		.loc 1 1210 0
 1685 0892 3FF47BAE 		beq	.L96
 1686              		.loc 1 1210 0 is_stmt 0 discriminator 1
 1687 0896 FFF7FEFF 		bl	port_halt
 1688              	.LVL157:
 1689 089a 77E6     		b	.L96
 1690              	.L105:
 1691 089c B9F80030 		ldrh	r3, [r9, #0]
 1692 08a0 D8F80010 		ldr	r1, [r8, #0]
 1693              		.loc 1 1234 0 is_stmt 1
 1694 08a4 0025     		movs	r5, #0
 1695 08a6 5918     		adds	r1, r3, r1
 1696              	.L111:
 1697              		.loc 1 1262 0
 1698 08a8 E567     		str	r5, [r4, #124]
 1699 08aa E1E6     		b	.L101
 1700              	.LVL158:
 1701              	.L287:
 1702              		.loc 1 1234 0
 1703 08ac 3546     		mov	r5, r6
 1704              	.LVL159:
 1705              	.L106:
 1706              		.loc 1 1249 0
 1707 08ae 0028     		cmp	r0, #0
 1708 08b0 2CDD     		ble	.L248
 1709              		.loc 1 1253 0
ARM GAS  /var/folders/5n/p_75w94d66l9ssrldxqdhh700000gn/T//ccyVBgQE.s 			page 31


 1710 08b2 C1EB0E01 		rsb	r1, r1, lr
 1711              		.loc 1 1254 0
 1712 08b6 FB68     		ldr	r3, [r7, #12]
 1713              		.loc 1 1253 0
 1714 08b8 3981     		strh	r1, [r7, #8]	@ movhi
 1715              		.loc 1 1254 0
 1716 08ba 9889     		ldrh	r0, [r3, #12]	@ unaligned
 1717              		.loc 1 1253 0
 1718 08bc 1A4E     		ldr	r6, .L292+4
 1719              		.loc 1 1254 0
 1720 08be FFF7FEFF 		bl	lwip_ntohs
 1721              	.LVL160:
 1722 08c2 00F00200 		and	r0, r0, #2
 1723 08c6 83B2     		uxth	r3, r0
 1724              		.loc 1 1255 0
 1725 08c8 3189     		ldrh	r1, [r6, #8]
 1726              		.loc 1 1254 0
 1727 08ca 13B1     		cbz	r3, .L110
 1728              		.loc 1 1255 0
 1729 08cc 0139     		subs	r1, r1, #1
 1730 08ce 89B2     		uxth	r1, r1
 1731 08d0 3181     		strh	r1, [r6, #8]	@ movhi
 1732              	.L110:
 1733              		.loc 1 1257 0
 1734 08d2 7868     		ldr	r0, [r7, #4]
 1735 08d4 FFF7FEFF 		bl	pbuf_realloc
 1736              	.LVL161:
 1737              		.loc 1 1258 0
 1738 08d8 FB68     		ldr	r3, [r7, #12]
 1739 08da 3E89     		ldrh	r6, [r7, #8]
 1740 08dc 9889     		ldrh	r0, [r3, #12]	@ unaligned
 1741 08de FFF7FEFF 		bl	lwip_ntohs
 1742              	.LVL162:
 1743 08e2 10F00300 		ands	r0, r0, #3
 1744 08e6 18BF     		it	ne
 1745 08e8 0120     		movne	r0, #1
 1746 08ea 3318     		adds	r3, r6, r0
 1747 08ec 9BB2     		uxth	r3, r3
 1748              		.loc 1 1259 0
 1749 08ee EA68     		ldr	r2, [r5, #12]
 1750              		.loc 1 1258 0
 1751 08f0 A9F80030 		strh	r3, [r9, #0]	@ movhi
 1752              		.loc 1 1259 0
 1753 08f4 D8F80010 		ldr	r1, [r8, #0]
 1754 08f8 5268     		ldr	r2, [r2, #4]	@ unaligned
 1755 08fa 5918     		adds	r1, r3, r1
 1756 08fc 9142     		cmp	r1, r2
 1757 08fe D3D0     		beq	.L111
 1758              		.loc 1 1259 0 is_stmt 0 discriminator 1
 1759 0900 FFF7FEFF 		bl	port_halt
 1760              	.LVL163:
 1761 0904 0A4B     		ldr	r3, .L292+12
 1762 0906 0B4A     		ldr	r2, .L292+16
 1763 0908 1B88     		ldrh	r3, [r3, #0]
 1764 090a 1168     		ldr	r1, [r2, #0]
 1765              	.L248:
 1766 090c 5918     		adds	r1, r3, r1
ARM GAS  /var/folders/5n/p_75w94d66l9ssrldxqdhh700000gn/T//ccyVBgQE.s 			page 32


 1767 090e CBE7     		b	.L111
 1768              	.LVL164:
 1769              	.L278:
 1770              		.loc 1 1145 0 is_stmt 1 discriminator 1
 1771 0910 FFF7FEFF 		bl	port_halt
 1772              	.LVL165:
 1773 0914 66E5     		b	.L85
 1774              	.LVL166:
 1775              	.L273:
 1776              		.loc 1 1345 0
 1777 0916 0448     		ldr	r0, .L292+4
 1778 0918 FFF7FEFF 		bl	tcp_seg_copy
 1779              	.LVL167:
 1780 091c E067     		str	r0, [r4, #124]
 1781 091e BDE8F88F 		pop	{r3, r4, r5, r6, r7, r8, r9, sl, fp, pc}
 1782              	.L293:
 1783 0922 00BF     		.align	2
 1784              	.L292:
 1785 0924 00000000 		.word	.LANCHOR6
 1786 0928 00000000 		.word	.LANCHOR5
 1787 092c 00000000 		.word	.LANCHOR7
 1788 0930 00000000 		.word	.LANCHOR4
 1789 0934 00000000 		.word	.LANCHOR1
 1790              	.L286:
 1791              		.loc 1 1201 0
 1792 0938 FD68     		ldr	r5, [r7, #12]
 1793 093a AE89     		ldrh	r6, [r5, #12]	@ unaligned
 1794 093c 3046     		mov	r0, r6
 1795 093e FFF7FEFF 		bl	lwip_ntohs
 1796              	.LVL168:
 1797 0942 00F03E00 		and	r0, r0, #62
 1798 0946 FFF7FEFF 		bl	lwip_htons
 1799              	.LVL169:
 1800 094a 26F47C56 		bic	r6, r6, #16128
 1801 094e 3043     		orrs	r0, r0, r6
 1802 0950 A881     		strh	r0, [r5, #12]	@ unaligned
 1803 0952 78E7     		b	.L97
 1804              	.LVL170:
 1805              	.L271:
 1806              		.loc 1 1009 0 discriminator 2
 1807 0954 FFF7FEFF 		bl	port_halt
 1808              	.LVL171:
 1809 0958 8EE4     		b	.L245
 1810              	.LVL172:
 1811              	.L58:
 1812              		.loc 1 922 0
 1813 095a 02D1     		bne	.L243
 1814              		.loc 1 924 0
 1815 095c 2046     		mov	r0, r4
 1816 095e FFF7FEFF 		bl	tcp_rexmit_fast
 1817              	.LVL173:
 1818              	.L243:
 1819 0962 636F     		ldr	r3, [r4, #116]
 1820 0964 FFF7A0BB 		b	.L74
 1821              	.LVL174:
 1822              	.L126:
 1823              		.loc 1 1375 0
ARM GAS  /var/folders/5n/p_75w94d66l9ssrldxqdhh700000gn/T//ccyVBgQE.s 			page 33


 1824 0968 E067     		str	r0, [r4, #124]
 1825 096a 0BE5     		b	.L251
 1826              	.LVL175:
 1827              	.L281:
 1828              		.loc 1 1447 0
 1829 096c 2B68     		ldr	r3, [r5, #0]
 1830 096e DE68     		ldr	r6, [r3, #12]
 1831 0970 B789     		ldrh	r7, [r6, #12]	@ unaligned
 1832 0972 3846     		mov	r0, r7
 1833 0974 FFF7FEFF 		bl	lwip_ntohs
 1834              	.LVL176:
 1835 0978 00F03E00 		and	r0, r0, #62
 1836 097c FFF7FEFF 		bl	lwip_htons
 1837              	.LVL177:
 1838 0980 27F47C57 		bic	r7, r7, #16128
 1839 0984 3843     		orrs	r0, r0, r7
 1840 0986 B081     		strh	r0, [r6, #12]	@ unaligned
 1841 0988 C7E5     		b	.L133
 1842              		.cfi_endproc
 1843              	.LFE12:
 1844              		.size	tcp_receive, .-tcp_receive
 1845 098a 00BFAFF3 		.section	.text.tcp_input,"ax",%progbits
 1845      0080
 1846              		.align	2
 1847              		.p2align 4,,15
 1848              		.global	tcp_input
 1849              		.thumb
 1850              		.thumb_func
 1851              		.type	tcp_input, %function
 1852              	tcp_input:
 1853              	.LFB7:
 1854              		.loc 1 93 0
 1855              		.cfi_startproc
 1856              		@ args = 0, pretend = 0, frame = 0
 1857              		@ frame_needed = 0, uses_anonymous_args = 0
 1858              	.LVL178:
 1859 0000 2DE9F04F 		push	{r4, r5, r6, r7, r8, r9, sl, fp, lr}
 1860              	.LCFI3:
 1861              		.cfi_def_cfa_offset 36
 1862              		.cfi_offset 4, -36
 1863              		.cfi_offset 5, -32
 1864              		.cfi_offset 6, -28
 1865              		.cfi_offset 7, -24
 1866              		.cfi_offset 8, -20
 1867              		.cfi_offset 9, -16
 1868              		.cfi_offset 10, -12
 1869              		.cfi_offset 11, -8
 1870              		.cfi_offset 14, -4
 1871              		.loc 1 105 0
 1872 0004 A64C     		ldr	r4, .L562
 1873              		.loc 1 108 0
 1874 0006 4768     		ldr	r7, [r0, #4]
 1875              		.loc 1 105 0
 1876 0008 B4F89230 		ldrh	r3, [r4, #146]
 1877              		.loc 1 108 0
 1878 000c DFF8A882 		ldr	r8, .L562+24
 1879              		.loc 1 109 0
ARM GAS  /var/folders/5n/p_75w94d66l9ssrldxqdhh700000gn/T//ccyVBgQE.s 			page 34


 1880 0010 A44E     		ldr	r6, .L562+4
 1881              		.loc 1 108 0
 1882 0012 C8F80070 		str	r7, [r8, #0]
 1883              		.loc 1 105 0
 1884 0016 0133     		adds	r3, r3, #1
 1885 0018 A4F89230 		strh	r3, [r4, #146]	@ movhi
 1886              		.loc 1 93 0
 1887 001c 83B0     		sub	sp, sp, #12
 1888              	.LCFI4:
 1889              		.cfi_def_cfa_offset 48
 1890              		.loc 1 93 0
 1891 001e 0546     		mov	r5, r0
 1892              		.loc 1 109 0
 1893 0020 3888     		ldrh	r0, [r7, #0]	@ unaligned
 1894              	.LVL179:
 1895              		.loc 1 93 0
 1896 0022 8946     		mov	r9, r1
 1897              		.loc 1 109 0
 1898 0024 FFF7FEFF 		bl	lwip_ntohs
 1899              	.LVL180:
 1900 0028 C0F30320 		ubfx	r0, r0, #8, #4
 1901 002c 07EB8007 		add	r7, r7, r0, lsl #2
 1902              		.loc 1 116 0
 1903 0030 D8F80030 		ldr	r3, [r8, #0]
 1904              		.loc 1 109 0
 1905 0034 3760     		str	r7, [r6, #0]
 1906              		.loc 1 116 0
 1907 0036 1888     		ldrh	r0, [r3, #0]	@ unaligned
 1908 0038 FFF7FEFF 		bl	lwip_ntohs
 1909              	.LVL181:
 1910 003c C0F30320 		ubfx	r0, r0, #8, #4
 1911 0040 8100     		lsls	r1, r0, #2
 1912 0042 4942     		negs	r1, r1
 1913 0044 2846     		mov	r0, r5
 1914 0046 FFF7FEFF 		bl	pbuf_header
 1915              	.LVL182:
 1916 004a 10B9     		cbnz	r0, .L534
 1917              		.loc 1 116 0 is_stmt 0 discriminator 1
 1918 004c 2B89     		ldrh	r3, [r5, #8]
 1919 004e 132B     		cmp	r3, #19
 1920 0050 0FD8     		bhi	.L296
 1921              	.L534:
 1922              		.loc 1 160 0 is_stmt 1
 1923 0052 B4F89A20 		ldrh	r2, [r4, #154]
 1924              		.loc 1 161 0
 1925 0056 B4F89630 		ldrh	r3, [r4, #150]
 1926              		.loc 1 160 0
 1927 005a 0132     		adds	r2, r2, #1
 1928              		.loc 1 161 0
 1929 005c 0133     		adds	r3, r3, #1
 1930              		.loc 1 163 0
 1931 005e 2846     		mov	r0, r5
 1932              		.loc 1 160 0
 1933 0060 A4F89A20 		strh	r2, [r4, #154]	@ movhi
 1934              		.loc 1 161 0
 1935 0064 A4F89630 		strh	r3, [r4, #150]	@ movhi
 1936              		.loc 1 427 0
ARM GAS  /var/folders/5n/p_75w94d66l9ssrldxqdhh700000gn/T//ccyVBgQE.s 			page 35


 1937 0068 03B0     		add	sp, sp, #12
 1938 006a BDE8F04F 		pop	{r4, r5, r6, r7, r8, r9, sl, fp, lr}
 1939              		.loc 1 163 0
 1940 006e FFF7FEBF 		b	pbuf_free
 1941              	.LVL183:
 1942              	.L296:
 1943              		.loc 1 127 0
 1944 0072 DFF84882 		ldr	r8, .L562+28
 1945 0076 4946     		mov	r1, r9
 1946 0078 D8F80000 		ldr	r0, [r8, #0]
 1947 007c FFF7FEFF 		bl	ip4_addr_isbroadcast
 1948              	.LVL184:
 1949 0080 0028     		cmp	r0, #0
 1950 0082 40F02381 		bne	.L297
 1951              		.loc 1 128 0 discriminator 1
 1952 0086 D8F80030 		ldr	r3, [r8, #0]
 1953 008a 03F0F003 		and	r3, r3, #240
 1954              		.loc 1 127 0 discriminator 1
 1955 008e E02B     		cmp	r3, #224
 1956 0090 00F01C81 		beq	.L297
 1957              		.loc 1 138 0
 1958 0094 2B89     		ldrh	r3, [r5, #8]
 1959 0096 8449     		ldr	r1, .L562+8
 1960 0098 0093     		str	r3, [sp, #0]
 1961 009a 2846     		mov	r0, r5
 1962 009c 4246     		mov	r2, r8
 1963 009e 0623     		movs	r3, #6
 1964 00a0 FFF7FEFF 		bl	inet_chksum_pseudo
 1965              	.LVL185:
 1966 00a4 0028     		cmp	r0, #0
 1967 00a6 40F02181 		bne	.L538
 1968              		.loc 1 156 0
 1969 00aa 3368     		ldr	r3, [r6, #0]
 1970 00ac 9889     		ldrh	r0, [r3, #12]	@ unaligned
 1971 00ae FFF7FEFF 		bl	lwip_ntohs
 1972              	.LVL186:
 1973              		.loc 1 157 0
 1974 00b2 C0F30730 		ubfx	r0, r0, #12, #8
 1975              	.LVL187:
 1976 00b6 C0EB8031 		rsb	r1, r0, r0, lsl #14
 1977 00ba 8900     		lsls	r1, r1, #2
 1978 00bc 2846     		mov	r0, r5
 1979 00be 09B2     		sxth	r1, r1
 1980 00c0 FFF7FEFF 		bl	pbuf_header
 1981              	.LVL188:
 1982 00c4 8246     		mov	sl, r0
 1983 00c6 0028     		cmp	r0, #0
 1984 00c8 C3D1     		bne	.L534
 1985              		.loc 1 168 0
 1986 00ca 3768     		ldr	r7, [r6, #0]
 1987              		.loc 1 174 0
 1988 00cc DFF8F091 		ldr	r9, .L562+32
 1989              	.LVL189:
 1990              		.loc 1 168 0
 1991 00d0 3888     		ldrh	r0, [r7, #0]	@ unaligned
 1992 00d2 FFF7FEFF 		bl	lwip_ntohs
 1993              	.LVL190:
ARM GAS  /var/folders/5n/p_75w94d66l9ssrldxqdhh700000gn/T//ccyVBgQE.s 			page 36


 1994 00d6 3880     		strh	r0, [r7, #0]	@ unaligned
 1995              		.loc 1 169 0
 1996 00d8 3768     		ldr	r7, [r6, #0]
 1997 00da 7888     		ldrh	r0, [r7, #2]	@ unaligned
 1998 00dc FFF7FEFF 		bl	lwip_ntohs
 1999              	.LVL191:
 2000 00e0 7880     		strh	r0, [r7, #2]	@ unaligned
 2001              		.loc 1 170 0
 2002 00e2 3768     		ldr	r7, [r6, #0]
 2003 00e4 7868     		ldr	r0, [r7, #4]	@ unaligned
 2004 00e6 FFF7FEFF 		bl	lwip_ntohl
 2005              	.LVL192:
 2006 00ea 40F20001 		movw	r1, #:lower16:.LANCHOR1
 2007 00ee C0F20001 		movt	r1, #:upper16:.LANCHOR1
 2008 00f2 7860     		str	r0, [r7, #4]	@ unaligned
 2009              		.loc 1 171 0
 2010 00f4 3768     		ldr	r7, [r6, #0]
 2011              		.loc 1 170 0
 2012 00f6 0860     		str	r0, [r1, #0]
 2013              		.loc 1 171 0
 2014 00f8 B868     		ldr	r0, [r7, #8]	@ unaligned
 2015 00fa FFF7FEFF 		bl	lwip_ntohl
 2016              	.LVL193:
 2017 00fe 40F20002 		movw	r2, #:lower16:.LANCHOR3
 2018 0102 B860     		str	r0, [r7, #8]	@ unaligned
 2019 0104 C0F20002 		movt	r2, #:upper16:.LANCHOR3
 2020              		.loc 1 172 0
 2021 0108 3768     		ldr	r7, [r6, #0]
 2022              		.loc 1 171 0
 2023 010a 1060     		str	r0, [r2, #0]
 2024              		.loc 1 172 0
 2025 010c F889     		ldrh	r0, [r7, #14]	@ unaligned
 2026 010e FFF7FEFF 		bl	lwip_ntohs
 2027              	.LVL194:
 2028 0112 F881     		strh	r0, [r7, #14]	@ unaligned
 2029              		.loc 1 174 0
 2030 0114 3368     		ldr	r3, [r6, #0]
 2031 0116 9889     		ldrh	r0, [r3, #12]	@ unaligned
 2032 0118 FFF7FEFF 		bl	lwip_ntohs
 2033              	.LVL195:
 2034              		.loc 1 175 0
 2035 011c 2A89     		ldrh	r2, [r5, #8]
 2036 011e 10F00303 		ands	r3, r0, #3
 2037              		.loc 1 182 0
 2038 0122 40F20001 		movw	r1, #:lower16:tcp_active_pcbs
 2039 0126 C0F20001 		movt	r1, #:upper16:tcp_active_pcbs
 2040              		.loc 1 175 0
 2041 012a 18BF     		it	ne
 2042 012c 0123     		movne	r3, #1
 2043 012e 9B18     		adds	r3, r3, r2
 2044 0130 40F20002 		movw	r2, #:lower16:.LANCHOR4
 2045 0134 C0F20002 		movt	r2, #:upper16:.LANCHOR4
 2046              		.loc 1 182 0
 2047 0138 0F68     		ldr	r7, [r1, #0]
 2048              		.loc 1 175 0
 2049 013a 1380     		strh	r3, [r2, #0]	@ movhi
 2050              	.LVL196:
ARM GAS  /var/folders/5n/p_75w94d66l9ssrldxqdhh700000gn/T//ccyVBgQE.s 			page 37


 2051              		.loc 1 174 0
 2052 013c 00F03F00 		and	r0, r0, #63
 2053 0140 89F80000 		strb	r0, [r9, #0]
 2054              		.loc 1 182 0
 2055 0144 002F     		cmp	r7, #0
 2056 0146 00F0E180 		beq	.L301
 2057              		.loc 1 188 0
 2058 014a DFF85CB1 		ldr	fp, .L562+8
 2059 014e 0EE0     		b	.L309
 2060              	.LVL197:
 2061              	.L302:
 2062              		.loc 1 184 0
 2063 0150 0A2B     		cmp	r3, #10
 2064 0152 14D0     		beq	.L539
 2065              	.L303:
 2066              		.loc 1 185 0
 2067 0154 012B     		cmp	r3, #1
 2068 0156 17D0     		beq	.L540
 2069              	.L304:
 2070              		.loc 1 186 0
 2071 0158 3368     		ldr	r3, [r6, #0]
 2072 015a F98B     		ldrh	r1, [r7, #30]
 2073 015c 1A88     		ldrh	r2, [r3, #0]	@ unaligned
 2074 015e 9142     		cmp	r1, r2
 2075 0160 19D0     		beq	.L541
 2076              	.L305:
 2077              	.LVL198:
 2078              		.loc 1 182 0
 2079 0162 FB68     		ldr	r3, [r7, #12]
 2080              	.LVL199:
 2081 0164 BA46     		mov	sl, r7
 2082 0166 002B     		cmp	r3, #0
 2083 0168 00F0D080 		beq	.L301
 2084 016c 1F46     		mov	r7, r3
 2085              	.LVL200:
 2086              	.L309:
 2087              		.loc 1 183 0
 2088 016e 3B7C     		ldrb	r3, [r7, #16]	@ zero_extendqisi2
 2089 0170 002B     		cmp	r3, #0
 2090 0172 EDD1     		bne	.L302
 2091              		.loc 1 183 0 is_stmt 0 discriminator 1
 2092 0174 FFF7FEFF 		bl	port_halt
 2093              	.LVL201:
 2094 0178 3B7C     		ldrb	r3, [r7, #16]	@ zero_extendqisi2
 2095              		.loc 1 184 0 is_stmt 1 discriminator 1
 2096 017a 0A2B     		cmp	r3, #10
 2097 017c EAD1     		bne	.L303
 2098              	.L539:
 2099 017e FFF7FEFF 		bl	port_halt
 2100              	.LVL202:
 2101 0182 3B7C     		ldrb	r3, [r7, #16]	@ zero_extendqisi2
 2102              		.loc 1 185 0 discriminator 1
 2103 0184 012B     		cmp	r3, #1
 2104 0186 E7D1     		bne	.L304
 2105              	.L540:
 2106 0188 FFF7FEFF 		bl	port_halt
 2107              	.LVL203:
ARM GAS  /var/folders/5n/p_75w94d66l9ssrldxqdhh700000gn/T//ccyVBgQE.s 			page 38


 2108              		.loc 1 186 0 discriminator 1
 2109 018c 3368     		ldr	r3, [r6, #0]
 2110 018e F98B     		ldrh	r1, [r7, #30]
 2111 0190 1A88     		ldrh	r2, [r3, #0]	@ unaligned
 2112 0192 9142     		cmp	r1, r2
 2113 0194 E5D1     		bne	.L305
 2114              	.L541:
 2115 0196 BA8B     		ldrh	r2, [r7, #28]
 2116 0198 5B88     		ldrh	r3, [r3, #2]	@ unaligned
 2117 019a 9A42     		cmp	r2, r3
 2118 019c E1D1     		bne	.L305
 2119              		.loc 1 187 0
 2120 019e 7A68     		ldr	r2, [r7, #4]
 2121 01a0 DBF80030 		ldr	r3, [fp, #0]
 2122 01a4 9A42     		cmp	r2, r3
 2123 01a6 DCD1     		bne	.L305
 2124              		.loc 1 188 0
 2125 01a8 3A68     		ldr	r2, [r7, #0]
 2126 01aa D8F80030 		ldr	r3, [r8, #0]
 2127 01ae 9A42     		cmp	r2, r3
 2128 01b0 D7D1     		bne	.L305
 2129              		.loc 1 194 0
 2130 01b2 FB68     		ldr	r3, [r7, #12]
 2131 01b4 BB42     		cmp	r3, r7
 2132 01b6 00F0F380 		beq	.L542
 2133              	.L306:
 2134              		.loc 1 195 0
 2135 01ba BAF1000F 		cmp	sl, #0
 2136 01be 08D0     		beq	.L307
 2137              		.loc 1 197 0
 2138 01c0 40F20000 		movw	r0, #:lower16:tcp_active_pcbs
 2139 01c4 C0F20000 		movt	r0, #:upper16:tcp_active_pcbs
 2140              		.loc 1 196 0
 2141 01c8 CAF80C30 		str	r3, [sl, #12]
 2142              		.loc 1 197 0
 2143 01cc 0368     		ldr	r3, [r0, #0]
 2144              		.loc 1 198 0
 2145 01ce 0760     		str	r7, [r0, #0]
 2146              		.loc 1 197 0
 2147 01d0 FB60     		str	r3, [r7, #12]
 2148              	.L307:
 2149              		.loc 1 200 0
 2150 01d2 9F42     		cmp	r7, r3
 2151 01d4 00F02184 		beq	.L543
 2152              	.L308:
 2153              		.loc 1 292 0
 2154 01d8 DFF8D8B0 		ldr	fp, .L562+20
 2155              		.loc 1 293 0
 2156 01dc 2B89     		ldrh	r3, [r5, #8]
 2157              		.loc 1 295 0
 2158 01de 3168     		ldr	r1, [r6, #0]
 2159              		.loc 1 297 0
 2160 01e0 DFF8E080 		ldr	r8, .L562+36
 2161              		.loc 1 298 0
 2162 01e4 DFF8E0A0 		ldr	sl, .L562+40
 2163              		.loc 1 301 0
 2164 01e8 D7F88020 		ldr	r2, [r7, #128]
ARM GAS  /var/folders/5n/p_75w94d66l9ssrldxqdhh700000gn/T//ccyVBgQE.s 			page 39


 2165              		.loc 1 293 0
 2166 01ec ABF80830 		strh	r3, [fp, #8]	@ movhi
 2167              		.loc 1 292 0
 2168 01f0 0023     		movs	r3, #0
 2169              		.loc 1 294 0
 2170 01f2 8BE82800 		stmia	fp, {r3, r5}
 2171              		.loc 1 295 0
 2172 01f6 CBF80C10 		str	r1, [fp, #12]
 2173              		.loc 1 297 0
 2174 01fa C8F80030 		str	r3, [r8, #0]
 2175              		.loc 1 298 0
 2176 01fe 8AF80030 		strb	r3, [sl, #0]
 2177              		.loc 1 301 0
 2178 0202 6AB1     		cbz	r2, .L326
 2179              		.loc 1 304 0
 2180 0204 D7F888C0 		ldr	ip, [r7, #136]
 2181 0208 BCF1000F 		cmp	ip, #0
 2182 020c 00F01A83 		beq	.L323
 2183              		.loc 1 304 0 is_stmt 0 discriminator 1
 2184 0210 7869     		ldr	r0, [r7, #20]
 2185 0212 3946     		mov	r1, r7
 2186 0214 E047     		blx	ip
 2187              	.LVL204:
 2188              	.L324:
 2189              		.loc 1 305 0 is_stmt 1
 2190 0216 0028     		cmp	r0, #0
 2191 0218 40F0C680 		bne	.L325
 2192              		.loc 1 306 0
 2193 021c C7F88000 		str	r0, [r7, #128]
 2194              	.LVL205:
 2195              	.L326:
 2196              	.LBB11:
 2197              	.LBB12:
 2198              		.loc 1 581 0
 2199 0220 99F80030 		ldrb	r3, [r9, #0]	@ zero_extendqisi2
 2200              	.LBE12:
 2201              	.LBE11:
 2202              		.loc 1 318 0
 2203 0224 214C     		ldr	r4, .L562+12
 2204              	.LBB28:
 2205              	.LBB15:
 2206              		.loc 1 581 0
 2207 0226 03F00402 		and	r2, r3, #4
 2208 022a D2B2     		uxtb	r2, r2
 2209              	.LBE15:
 2210              	.LBE28:
 2211              		.loc 1 318 0
 2212 022c 2760     		str	r7, [r4, #0]
 2213              	.LVL206:
 2214              	.LBB29:
 2215              	.LBB16:
 2216              		.loc 1 581 0
 2217 022e 002A     		cmp	r2, #0
 2218 0230 00F0D080 		beq	.L328
 2219              	.LVL207:
 2220              		.loc 1 583 0
 2221 0234 3A7C     		ldrb	r2, [r7, #16]	@ zero_extendqisi2
ARM GAS  /var/folders/5n/p_75w94d66l9ssrldxqdhh700000gn/T//ccyVBgQE.s 			page 40


 2222 0236 022A     		cmp	r2, #2
 2223 0238 00F00A83 		beq	.L544
 2224              		.loc 1 588 0
 2225 023c 40F20006 		movw	r6, #:lower16:.LANCHOR1
 2226 0240 C0F20006 		movt	r6, #:upper16:.LANCHOR1
 2227 0244 7B6A     		ldr	r3, [r7, #36]
 2228 0246 3168     		ldr	r1, [r6, #0]
 2229 0248 CB1A     		subs	r3, r1, r3
 2230 024a 04D4     		bmi	.L527
 2231 024c 398D     		ldrh	r1, [r7, #40]
 2232 024e 5B1A     		subs	r3, r3, r1
 2233 0250 002B     		cmp	r3, #0
 2234 0252 40F34C83 		ble	.L334
 2235              	.LVL208:
 2236              	.L527:
 2237 0256 9AF80030 		ldrb	r3, [sl, #0]	@ zero_extendqisi2
 2238              	.LVL209:
 2239              	.L333:
 2240              	.LBE16:
 2241              	.LBE29:
 2242              		.loc 1 323 0
 2243 025a 03F00802 		and	r2, r3, #8
 2244 025e D2B2     		uxtb	r2, r2
 2245 0260 002A     		cmp	r2, #0
 2246 0262 00F0C980 		beq	.L545
 2247              		.loc 1 328 0
 2248 0266 D7F89430 		ldr	r3, [r7, #148]
 2249 026a 1BB1     		cbz	r3, .L532
 2250              		.loc 1 328 0 is_stmt 0 discriminator 1
 2251 026c 7869     		ldr	r0, [r7, #20]
 2252 026e 6FF00A01 		mvn	r1, #10
 2253 0272 9847     		blx	r3
 2254              	.LVL210:
 2255              	.L532:
 2256              		.loc 1 334 0 is_stmt 1
 2257 0274 3946     		mov	r1, r7
 2258 0276 0E48     		ldr	r0, .L562+16
 2259 0278 FFF7FEFF 		bl	tcp_pcb_remove
 2260              	.LVL211:
 2261              		.loc 1 335 0
 2262 027c 0220     		movs	r0, #2
 2263 027e 3946     		mov	r1, r7
 2264 0280 FFF7FEFF 		bl	memp_free
 2265              	.LVL212:
 2266              	.L388:
 2267              		.loc 1 405 0
 2268 0284 DBF80400 		ldr	r0, [fp, #4]
 2269              		.loc 1 401 0
 2270 0288 0025     		movs	r5, #0
 2271 028a 2560     		str	r5, [r4, #0]
 2272              		.loc 1 402 0
 2273 028c C8F80050 		str	r5, [r8, #0]
 2274              		.loc 1 405 0
 2275 0290 18B1     		cbz	r0, .L294
 2276              		.loc 1 407 0
 2277 0292 FFF7FEFF 		bl	pbuf_free
 2278              	.LVL213:
ARM GAS  /var/folders/5n/p_75w94d66l9ssrldxqdhh700000gn/T//ccyVBgQE.s 			page 41


 2279              		.loc 1 408 0
 2280 0296 074B     		ldr	r3, .L562+20
 2281 0298 5D60     		str	r5, [r3, #4]
 2282              	.L294:
 2283              		.loc 1 427 0
 2284 029a 03B0     		add	sp, sp, #12
 2285 029c BDE8F08F 		pop	{r4, r5, r6, r7, r8, r9, sl, fp, pc}
 2286              	.L563:
 2287              		.align	2
 2288              	.L562:
 2289 02a0 00000000 		.word	lwip_stats
 2290 02a4 00000000 		.word	.LANCHOR0
 2291 02a8 00000000 		.word	current_iphdr_src
 2292 02ac 00000000 		.word	.LANCHOR9
 2293 02b0 00000000 		.word	tcp_active_pcbs
 2294 02b4 00000000 		.word	.LANCHOR5
 2295 02b8 00000000 		.word	.LANCHOR8
 2296 02bc 00000000 		.word	current_iphdr_dest
 2297 02c0 00000000 		.word	.LANCHOR2
 2298 02c4 00000000 		.word	.LANCHOR6
 2299 02c8 00000000 		.word	.LANCHOR7
 2300              	.LVL214:
 2301              	.L297:
 2302              		.loc 1 129 0
 2303 02cc B4F8A020 		ldrh	r2, [r4, #160]
 2304              		.loc 1 130 0
 2305 02d0 B4F89630 		ldrh	r3, [r4, #150]
 2306              		.loc 1 129 0
 2307 02d4 0132     		adds	r2, r2, #1
 2308              		.loc 1 130 0
 2309 02d6 0133     		adds	r3, r3, #1
 2310              		.loc 1 132 0
 2311 02d8 2846     		mov	r0, r5
 2312              		.loc 1 129 0
 2313 02da A4F8A020 		strh	r2, [r4, #160]	@ movhi
 2314              		.loc 1 130 0
 2315 02de A4F89630 		strh	r3, [r4, #150]	@ movhi
 2316              		.loc 1 427 0
 2317 02e2 03B0     		add	sp, sp, #12
 2318 02e4 BDE8F04F 		pop	{r4, r5, r6, r7, r8, r9, sl, fp, lr}
 2319              		.loc 1 132 0
 2320 02e8 FFF7FEBF 		b	pbuf_free
 2321              	.LVL215:
 2322              	.L538:
 2323              		.loc 1 146 0
 2324 02ec B4F89820 		ldrh	r2, [r4, #152]
 2325              		.loc 1 147 0
 2326 02f0 B4F89630 		ldrh	r3, [r4, #150]
 2327              		.loc 1 146 0
 2328 02f4 0132     		adds	r2, r2, #1
 2329              		.loc 1 147 0
 2330 02f6 0133     		adds	r3, r3, #1
 2331              		.loc 1 149 0
 2332 02f8 2846     		mov	r0, r5
 2333              		.loc 1 146 0
 2334 02fa A4F89820 		strh	r2, [r4, #152]	@ movhi
 2335              		.loc 1 147 0
ARM GAS  /var/folders/5n/p_75w94d66l9ssrldxqdhh700000gn/T//ccyVBgQE.s 			page 42


 2336 02fe A4F89630 		strh	r3, [r4, #150]	@ movhi
 2337              		.loc 1 427 0
 2338 0302 03B0     		add	sp, sp, #12
 2339 0304 BDE8F04F 		pop	{r4, r5, r6, r7, r8, r9, sl, fp, lr}
 2340              		.loc 1 149 0
 2341 0308 FFF7FEBF 		b	pbuf_free
 2342              	.LVL216:
 2343              	.L301:
 2344              		.loc 1 209 0
 2345 030c 994B     		ldr	r3, .L564
 2346              		.loc 1 213 0
 2347 030e DFF870A2 		ldr	sl, .L564+12
 2348              		.loc 1 209 0
 2349 0312 1F68     		ldr	r7, [r3, #0]
 2350              	.LVL217:
 2351 0314 27B9     		cbnz	r7, .L488
 2352 0316 01E2     		b	.L561
 2353              	.L311:
 2354 0318 FF68     		ldr	r7, [r7, #12]
 2355              	.LVL218:
 2356 031a 002F     		cmp	r7, #0
 2357 031c 00F0FF81 		beq	.L402
 2358              	.L488:
 2359              		.loc 1 210 0
 2360 0320 3B7C     		ldrb	r3, [r7, #16]	@ zero_extendqisi2
 2361 0322 0A2B     		cmp	r3, #10
 2362 0324 01D0     		beq	.L310
 2363              		.loc 1 210 0 is_stmt 0 discriminator 1
 2364 0326 FFF7FEFF 		bl	port_halt
 2365              	.LVL219:
 2366              	.L310:
 2367              		.loc 1 211 0 is_stmt 1
 2368 032a 3368     		ldr	r3, [r6, #0]
 2369 032c FA8B     		ldrh	r2, [r7, #30]
 2370 032e 1888     		ldrh	r0, [r3, #0]	@ unaligned
 2371 0330 9042     		cmp	r0, r2
 2372 0332 F1D1     		bne	.L311
 2373              		.loc 1 212 0 discriminator 1
 2374 0334 BA8B     		ldrh	r2, [r7, #28]
 2375              		.loc 1 211 0 discriminator 1
 2376 0336 B3F802C0 		ldrh	ip, [r3, #2]	@ unaligned
 2377 033a 9445     		cmp	ip, r2
 2378 033c ECD1     		bne	.L311
 2379              		.loc 1 212 0
 2380 033e 7968     		ldr	r1, [r7, #4]
 2381 0340 DAF80020 		ldr	r2, [sl, #0]
 2382 0344 9142     		cmp	r1, r2
 2383 0346 E7D1     		bne	.L311
 2384              		.loc 1 213 0
 2385 0348 3968     		ldr	r1, [r7, #0]
 2386 034a D8F80020 		ldr	r2, [r8, #0]
 2387 034e 9142     		cmp	r1, r2
 2388 0350 E2D1     		bne	.L311
 2389              	.LVL220:
 2390              	.LBB30:
 2391              	.LBB31:
 2392              		.loc 1 533 0
ARM GAS  /var/folders/5n/p_75w94d66l9ssrldxqdhh700000gn/T//ccyVBgQE.s 			page 43


 2393 0352 99F80030 		ldrb	r3, [r9, #0]	@ zero_extendqisi2
 2394 0356 03F00402 		and	r2, r3, #4
 2395 035a D2B2     		uxtb	r2, r2
 2396 035c D2B9     		cbnz	r2, .L312
 2397              		.loc 1 537 0
 2398 035e 03F00202 		and	r2, r3, #2
 2399 0362 D2B2     		uxtb	r2, r2
 2400 0364 002A     		cmp	r2, #0
 2401 0366 00F08E83 		beq	.L313
 2402              		.loc 1 540 0
 2403 036a 40F20002 		movw	r2, #:lower16:.LANCHOR1
 2404 036e C0F20002 		movt	r2, #:upper16:.LANCHOR1
 2405 0372 7B6A     		ldr	r3, [r7, #36]
 2406 0374 1168     		ldr	r1, [r2, #0]
 2407 0376 CB1A     		subs	r3, r1, r3
 2408 0378 04D4     		bmi	.L314
 2409 037a 3A8D     		ldrh	r2, [r7, #40]
 2410 037c 9B1A     		subs	r3, r3, r2
 2411 037e 002B     		cmp	r3, #0
 2412 0380 40F36E83 		ble	.L547
 2413              	.L314:
 2414              		.loc 1 552 0
 2415 0384 40F20000 		movw	r0, #:lower16:.LANCHOR4
 2416 0388 C0F20000 		movt	r0, #:upper16:.LANCHOR4
 2417 038c 0388     		ldrh	r3, [r0, #0]
 2418 038e 002B     		cmp	r3, #0
 2419 0390 40F07F83 		bne	.L548
 2420              	.LVL221:
 2421              	.L312:
 2422              	.LBE31:
 2423              	.LBE30:
 2424              		.loc 1 220 0
 2425 0394 2846     		mov	r0, r5
 2426              		.loc 1 427 0
 2427 0396 03B0     		add	sp, sp, #12
 2428 0398 BDE8F04F 		pop	{r4, r5, r6, r7, r8, r9, sl, fp, lr}
 2429              		.loc 1 220 0
 2430 039c FFF7FEBF 		b	pbuf_free
 2431              	.LVL222:
 2432              	.L542:
 2433              		.loc 1 194 0 discriminator 1
 2434 03a0 FFF7FEFF 		bl	port_halt
 2435              	.LVL223:
 2436 03a4 FB68     		ldr	r3, [r7, #12]
 2437 03a6 08E7     		b	.L306
 2438              	.LVL224:
 2439              	.L325:
 2440              		.loc 1 307 0
 2441 03a8 40B2     		sxtb	r0, r0
 2442              	.LVL225:
 2443 03aa 0A30     		adds	r0, r0, #10
 2444 03ac 07D0     		beq	.L327
 2445              		.loc 1 307 0 is_stmt 0 discriminator 1
 2446 03ae 40F20001 		movw	r1, #:lower16:.LANCHOR4
 2447 03b2 C0F20001 		movt	r1, #:upper16:.LANCHOR4
 2448 03b6 0B88     		ldrh	r3, [r1, #0]
 2449 03b8 002B     		cmp	r3, #0
ARM GAS  /var/folders/5n/p_75w94d66l9ssrldxqdhh700000gn/T//ccyVBgQE.s 			page 44


 2450 03ba 3FF431AF 		beq	.L326
 2451              	.L327:
 2452              		.loc 1 312 0 is_stmt 1
 2453 03be B4F89630 		ldrh	r3, [r4, #150]
 2454              		.loc 1 314 0
 2455 03c2 2846     		mov	r0, r5
 2456              		.loc 1 312 0
 2457 03c4 0133     		adds	r3, r3, #1
 2458 03c6 A4F89630 		strh	r3, [r4, #150]	@ movhi
 2459              		.loc 1 427 0
 2460 03ca 03B0     		add	sp, sp, #12
 2461 03cc BDE8F04F 		pop	{r4, r5, r6, r7, r8, r9, sl, fp, lr}
 2462              		.loc 1 314 0
 2463 03d0 FFF7FEBF 		b	pbuf_free
 2464              	.LVL226:
 2465              	.L328:
 2466              	.LBB33:
 2467              	.LBB17:
 2468              		.loc 1 609 0
 2469 03d4 03F00203 		and	r3, r3, #2
 2470 03d8 DBB2     		uxtb	r3, r3
 2471 03da 002B     		cmp	r3, #0
 2472 03dc 6BD0     		beq	.L335
 2473 03de 3B7C     		ldrb	r3, [r7, #16]	@ zero_extendqisi2
 2474 03e0 023B     		subs	r3, r3, #2
 2475 03e2 012B     		cmp	r3, #1
 2476 03e4 67D9     		bls	.L335
 2477              	.LVL227:
 2478              	.L352:
 2479              		.loc 1 671 0
 2480 03e6 97F82020 		ldrb	r2, [r7, #32]	@ zero_extendqisi2
 2481 03ea 9AF80030 		ldrb	r3, [sl, #0]	@ zero_extendqisi2
 2482 03ee 42F00202 		orr	r2, r2, #2
 2483 03f2 87F82020 		strb	r2, [r7, #32]
 2484 03f6 30E7     		b	.L333
 2485              	.LVL228:
 2486              	.L545:
 2487              	.LBE17:
 2488              	.LBE33:
 2489              		.loc 1 331 0
 2490 03f8 03F01003 		and	r3, r3, #16
 2491 03fc DBB2     		uxtb	r3, r3
 2492 03fe 002B     		cmp	r3, #0
 2493 0400 7FF438AF 		bne	.L532
 2494              	.LVL229:
 2495              		.loc 1 341 0
 2496 0404 B7F86C20 		ldrh	r2, [r7, #108]
 2497 0408 42B1     		cbz	r2, .L390
 2498              		.loc 1 342 0
 2499 040a D7F88430 		ldr	r3, [r7, #132]
 2500 040e 2BB1     		cbz	r3, .L390
 2501              		.loc 1 342 0 is_stmt 0 discriminator 1
 2502 0410 7869     		ldr	r0, [r7, #20]
 2503 0412 3946     		mov	r1, r7
 2504 0414 9847     		blx	r3
 2505              	.LVL230:
 2506              		.loc 1 343 0 is_stmt 1 discriminator 1
ARM GAS  /var/folders/5n/p_75w94d66l9ssrldxqdhh700000gn/T//ccyVBgQE.s 			page 45


 2507 0416 0A30     		adds	r0, r0, #10
 2508              	.LVL231:
 2509 0418 3FF434AF 		beq	.L388
 2510              	.L390:
 2511              		.loc 1 348 0
 2512 041c D8F80030 		ldr	r3, [r8, #0]
 2513 0420 63B3     		cbz	r3, .L391
 2514              		.loc 1 349 0
 2515 0422 D7F88030 		ldr	r3, [r7, #128]
 2516 0426 0BB1     		cbz	r3, .L392
 2517              		.loc 1 349 0 is_stmt 0 discriminator 1
 2518 0428 FFF7FEFF 		bl	port_halt
 2519              	.LVL232:
 2520              	.L392:
 2521              		.loc 1 350 0 is_stmt 1
 2522 042c 97F82030 		ldrb	r3, [r7, #32]	@ zero_extendqisi2
 2523 0430 03F01003 		and	r3, r3, #16
 2524 0434 DBB2     		uxtb	r3, r3
 2525 0436 002B     		cmp	r3, #0
 2526 0438 40F05E82 		bne	.L549
 2527              		.loc 1 357 0
 2528 043c 99F80030 		ldrb	r3, [r9, #0]	@ zero_extendqisi2
 2529 0440 03F00803 		and	r3, r3, #8
 2530 0444 DBB2     		uxtb	r3, r3
 2531 0446 2BB1     		cbz	r3, .L394
 2532              		.loc 1 358 0
 2533 0448 D8F80030 		ldr	r3, [r8, #0]
 2534 044c 5A7B     		ldrb	r2, [r3, #13]	@ zero_extendqisi2
 2535 044e 42F00102 		orr	r2, r2, #1
 2536 0452 5A73     		strb	r2, [r3, #13]
 2537              	.L394:
 2538              		.loc 1 362 0
 2539 0454 D7F88850 		ldr	r5, [r7, #136]
 2540 0458 002D     		cmp	r5, #0
 2541 045a 00F08782 		beq	.L395
 2542              		.loc 1 362 0 is_stmt 0 discriminator 1
 2543 045e 7869     		ldr	r0, [r7, #20]
 2544 0460 D8F80020 		ldr	r2, [r8, #0]
 2545 0464 3946     		mov	r1, r7
 2546 0466 0023     		movs	r3, #0
 2547 0468 A847     		blx	r5
 2548              	.LVL233:
 2549              	.L396:
 2550              		.loc 1 363 0 is_stmt 1
 2551 046a 43B2     		sxtb	r3, r0
 2552 046c 0A33     		adds	r3, r3, #10
 2553 046e 3FF409AF 		beq	.L388
 2554              		.loc 1 368 0
 2555 0472 18B1     		cbz	r0, .L391
 2556              		.loc 1 369 0
 2557 0474 D8F80030 		ldr	r3, [r8, #0]
 2558 0478 C7F88030 		str	r3, [r7, #128]
 2559              	.LVL234:
 2560              	.L391:
 2561              		.loc 1 376 0
 2562 047c 9AF80030 		ldrb	r3, [sl, #0]	@ zero_extendqisi2
 2563 0480 03F02003 		and	r3, r3, #32
ARM GAS  /var/folders/5n/p_75w94d66l9ssrldxqdhh700000gn/T//ccyVBgQE.s 			page 46


 2564 0484 DBB2     		uxtb	r3, r3
 2565 0486 83B1     		cbz	r3, .L397
 2566              		.loc 1 379 0
 2567 0488 3B8D     		ldrh	r3, [r7, #40]
 2568 048a B3F5066F 		cmp	r3, #2144
 2569 048e 01D0     		beq	.L398
 2570              		.loc 1 380 0
 2571 0490 0133     		adds	r3, r3, #1
 2572 0492 3B85     		strh	r3, [r7, #40]	@ movhi
 2573              	.L398:
 2574              		.loc 1 382 0
 2575 0494 D7F88850 		ldr	r5, [r7, #136]
 2576 0498 3DB1     		cbz	r5, .L397
 2577              		.loc 1 382 0 is_stmt 0 discriminator 1
 2578 049a 0022     		movs	r2, #0
 2579 049c 7869     		ldr	r0, [r7, #20]
 2580 049e 3946     		mov	r1, r7
 2581 04a0 1346     		mov	r3, r2
 2582 04a2 A847     		blx	r5
 2583              	.LVL235:
 2584              		.loc 1 383 0 is_stmt 1 discriminator 1
 2585 04a4 0A30     		adds	r0, r0, #10
 2586              	.LVL236:
 2587 04a6 3FF4EDAE 		beq	.L388
 2588              	.L397:
 2589              		.loc 1 388 0
 2590 04aa 0023     		movs	r3, #0
 2591              		.loc 1 390 0
 2592 04ac 3846     		mov	r0, r7
 2593              		.loc 1 388 0
 2594 04ae 2360     		str	r3, [r4, #0]
 2595              		.loc 1 390 0
 2596 04b0 FFF7FEFF 		bl	tcp_output
 2597              	.LVL237:
 2598 04b4 E6E6     		b	.L388
 2599              	.LVL238:
 2600              	.L335:
 2601              	.LBB34:
 2602              		.loc 1 615 0
 2603 04b6 97F82030 		ldrb	r3, [r7, #32]	@ zero_extendqisi2
 2604              	.LBB18:
 2605 04ba 03F01003 		and	r3, r3, #16
 2606 04be DBB2     		uxtb	r3, r3
 2607 04c0 13B9     		cbnz	r3, .L336
 2608              		.loc 1 617 0
 2609 04c2 2D4B     		ldr	r3, .L564+4
 2610 04c4 1B68     		ldr	r3, [r3, #0]
 2611 04c6 3B63     		str	r3, [r7, #48]
 2612              	.L336:
 2613              		.loc 1 619 0
 2614 04c8 0023     		movs	r3, #0
 2615 04ca 87F8A130 		strb	r3, [r7, #161]
 2616              		.loc 1 621 0
 2617 04ce 3846     		mov	r0, r7
 2618 04d0 FFF7FEFF 		bl	tcp_parseopt
 2619              	.LVL239:
 2620              		.loc 1 624 0
ARM GAS  /var/folders/5n/p_75w94d66l9ssrldxqdhh700000gn/T//ccyVBgQE.s 			page 47


 2621 04d4 3B7C     		ldrb	r3, [r7, #16]	@ zero_extendqisi2
 2622 04d6 023B     		subs	r3, r3, #2
 2623 04d8 072B     		cmp	r3, #7
 2624 04da 3FF6BCAE 		bhi	.L527
 2625 04de DFE813F0 		tbh	[pc, r3, lsl #1]
 2626              	.L345:
 2627 04e2 9000     		.2byte	(.L338-.L345)/2
 2628 04e4 F000     		.2byte	(.L339-.L345)/2
 2629 04e6 B900     		.2byte	(.L340-.L345)/2
 2630 04e8 CD00     		.2byte	(.L341-.L345)/2
 2631 04ea 6400     		.2byte	(.L342-.L345)/2
 2632 04ec B900     		.2byte	(.L340-.L345)/2
 2633 04ee 2200     		.2byte	(.L343-.L345)/2
 2634 04f0 0800     		.2byte	(.L344-.L345)/2
 2635              	.L344:
 2636              		.loc 1 777 0
 2637 04f2 3846     		mov	r0, r7
 2638 04f4 FFF7FEFF 		bl	tcp_receive
 2639              	.LVL240:
 2640              	.LBE18:
 2641              		.loc 1 778 0
 2642 04f8 99F80030 		ldrb	r3, [r9, #0]	@ zero_extendqisi2
 2643              	.LBB19:
 2644 04fc 03F01003 		and	r3, r3, #16
 2645 0500 DBB2     		uxtb	r3, r3
 2646 0502 002B     		cmp	r3, #0
 2647 0504 3FF4A7AE 		beq	.L527
 2648 0508 40F20000 		movw	r0, #:lower16:.LANCHOR3
 2649 050c C0F20000 		movt	r0, #:upper16:.LANCHOR3
 2650 0510 BB6D     		ldr	r3, [r7, #88]
 2651 0512 0268     		ldr	r2, [r0, #0]
 2652 0514 9342     		cmp	r3, r2
 2653              		.loc 1 781 0
 2654 0516 9AF80030 		ldrb	r3, [sl, #0]	@ zero_extendqisi2
 2655 051a 04BF     		itt	eq
 2656 051c 43F01003 		orreq	r3, r3, #16
 2657 0520 8AF80030 		strbeq	r3, [sl, #0]
 2658 0524 99E6     		b	.L333
 2659              	.L343:
 2660              		.loc 1 767 0
 2661 0526 3846     		mov	r0, r7
 2662 0528 FFF7FEFF 		bl	tcp_receive
 2663              	.LVL241:
 2664              	.LBE19:
 2665              		.loc 1 768 0
 2666 052c 99F80030 		ldrb	r3, [r9, #0]	@ zero_extendqisi2
 2667              	.LBB20:
 2668 0530 03F01003 		and	r3, r3, #16
 2669 0534 DBB2     		uxtb	r3, r3
 2670 0536 002B     		cmp	r3, #0
 2671 0538 3FF48DAE 		beq	.L527
 2672 053c 40F20005 		movw	r5, #:lower16:.LANCHOR3
 2673              	.LVL242:
 2674 0540 C0F20005 		movt	r5, #:upper16:.LANCHOR3
 2675 0544 BB6D     		ldr	r3, [r7, #88]
 2676 0546 2A68     		ldr	r2, [r5, #0]
 2677 0548 9342     		cmp	r3, r2
ARM GAS  /var/folders/5n/p_75w94d66l9ssrldxqdhh700000gn/T//ccyVBgQE.s 			page 48


 2678 054a 7FF484AE 		bne	.L527
 2679              		.loc 1 771 0
 2680 054e 40F20006 		movw	r6, #:lower16:tcp_active_pcbs
 2681 0552 C0F20006 		movt	r6, #:upper16:tcp_active_pcbs
 2682              		.loc 1 770 0
 2683 0556 3846     		mov	r0, r7
 2684 0558 FFF7FEFF 		bl	tcp_pcb_purge
 2685              	.LVL243:
 2686              		.loc 1 771 0
 2687 055c 3368     		ldr	r3, [r6, #0]
 2688 055e BB42     		cmp	r3, r7
 2689 0560 00F07A82 		beq	.L536
 2690 0564 054A     		ldr	r2, .L564+8
 2691 0566 1360     		str	r3, [r2, #0]
 2692 0568 A3B1     		cbz	r3, .L380
 2693 056a D968     		ldr	r1, [r3, #12]
 2694 056c B942     		cmp	r1, r7
 2695 056e 0DD1     		bne	.L413
 2696 0570 1BE2     		b	.L381
 2697              	.L565:
 2698 0572 00BF     		.align	2
 2699              	.L564:
 2700 0574 00000000 		.word	tcp_tw_pcbs
 2701 0578 00000000 		.word	tcp_ticks
 2702 057c 00000000 		.word	tcp_tmp_pcb
 2703 0580 00000000 		.word	current_iphdr_src
 2704              	.L384:
 2705 0584 D968     		ldr	r1, [r3, #12]
 2706 0586 B942     		cmp	r1, r7
 2707 0588 00F00E82 		beq	.L537
 2708              	.L413:
 2709 058c 0B46     		mov	r3, r1
 2710 058e 0029     		cmp	r1, #0
 2711 0590 F8D1     		bne	.L384
 2712              	.L535:
 2713 0592 1360     		str	r3, [r2, #0]
 2714              	.L380:
 2715              		.loc 1 773 0
 2716 0594 B94B     		ldr	r3, .L566
 2717 0596 1A68     		ldr	r2, [r3, #0]
 2718 0598 1F60     		str	r7, [r3, #0]
 2719              		.loc 1 772 0
 2720 059a 0A23     		movs	r3, #10
 2721 059c 3B74     		strb	r3, [r7, #16]
 2722              		.loc 1 773 0
 2723 059e FA60     		str	r2, [r7, #12]
 2724 05a0 FFF7FEFF 		bl	tcp_timer_needed
 2725              	.LVL244:
 2726 05a4 9AF80030 		ldrb	r3, [sl, #0]	@ zero_extendqisi2
 2727 05a8 57E6     		b	.L333
 2728              	.LVL245:
 2729              	.L342:
 2730              		.loc 1 756 0
 2731 05aa 3846     		mov	r0, r7
 2732 05ac FFF7FEFF 		bl	tcp_receive
 2733              	.LVL246:
 2734              		.loc 1 757 0
ARM GAS  /var/folders/5n/p_75w94d66l9ssrldxqdhh700000gn/T//ccyVBgQE.s 			page 49


 2735 05b0 9AF80030 		ldrb	r3, [sl, #0]	@ zero_extendqisi2
 2736 05b4 03F02002 		and	r2, r3, #32
 2737 05b8 D2B2     		uxtb	r2, r2
 2738 05ba 002A     		cmp	r2, #0
 2739 05bc 3FF44DAE 		beq	.L333
 2740              		.loc 1 759 0
 2741 05c0 97F82030 		ldrb	r3, [r7, #32]	@ zero_extendqisi2
 2742 05c4 43F00203 		orr	r3, r3, #2
 2743 05c8 87F82030 		strb	r3, [r7, #32]
 2744              		.loc 1 760 0
 2745 05cc 3846     		mov	r0, r7
 2746 05ce FFF7FEFF 		bl	tcp_pcb_purge
 2747              	.LVL247:
 2748              		.loc 1 761 0
 2749 05d2 40F20001 		movw	r1, #:lower16:tcp_active_pcbs
 2750 05d6 C0F20001 		movt	r1, #:upper16:tcp_active_pcbs
 2751 05da 0B68     		ldr	r3, [r1, #0]
 2752 05dc BB42     		cmp	r3, r7
 2753 05de 00F03B82 		beq	.L536
 2754 05e2 A74A     		ldr	r2, .L566+4
 2755 05e4 1360     		str	r3, [r2, #0]
 2756 05e6 002B     		cmp	r3, #0
 2757 05e8 D4D0     		beq	.L380
 2758 05ea D968     		ldr	r1, [r3, #12]
 2759 05ec B942     		cmp	r1, r7
 2760 05ee 04D1     		bne	.L412
 2761 05f0 DBE1     		b	.L381
 2762              	.L376:
 2763 05f2 D968     		ldr	r1, [r3, #12]
 2764 05f4 B942     		cmp	r1, r7
 2765 05f6 00F0D781 		beq	.L537
 2766              	.L412:
 2767 05fa 0B46     		mov	r3, r1
 2768 05fc 0029     		cmp	r1, #0
 2769 05fe F8D1     		bne	.L376
 2770 0600 C7E7     		b	.L535
 2771              	.L338:
 2772              		.loc 1 629 0
 2773 0602 99F80030 		ldrb	r3, [r9, #0]	@ zero_extendqisi2
 2774 0606 03F01202 		and	r2, r3, #18
 2775 060a 122A     		cmp	r2, #18
 2776 060c 00F0D081 		beq	.L550
 2777              	.L346:
 2778              		.loc 1 674 0
 2779 0610 03F01003 		and	r3, r3, #16
 2780 0614 DBB2     		uxtb	r3, r3
 2781 0616 002B     		cmp	r3, #0
 2782 0618 3FF41DAE 		beq	.L527
 2783              		.loc 1 677 0
 2784 061c 3368     		ldr	r3, [r6, #0]
 2785              		.loc 1 676 0
 2786 061e 40F20005 		movw	r5, #:lower16:.LANCHOR4
 2787              	.LVL248:
 2788 0622 40F20006 		movw	r6, #:lower16:.LANCHOR1
 2789 0626 5888     		ldrh	r0, [r3, #2]	@ unaligned
 2790 0628 C0F20005 		movt	r5, #:upper16:.LANCHOR4
 2791 062c C0F20006 		movt	r6, #:upper16:.LANCHOR1
ARM GAS  /var/folders/5n/p_75w94d66l9ssrldxqdhh700000gn/T//ccyVBgQE.s 			page 50


 2792 0630 2988     		ldrh	r1, [r5, #0]
 2793 0632 3268     		ldr	r2, [r6, #0]
 2794 0634 0090     		str	r0, [sp, #0]
 2795 0636 40F20005 		movw	r5, #:lower16:.LANCHOR3
 2796 063a 1B88     		ldrh	r3, [r3, #0]	@ unaligned
 2797 063c C0F20005 		movt	r5, #:upper16:.LANCHOR3
 2798 0640 8918     		adds	r1, r1, r2
 2799 0642 2868     		ldr	r0, [r5, #0]
 2800 0644 8F4A     		ldr	r2, .L566+8
 2801 0646 0193     		str	r3, [sp, #4]
 2802 0648 8F4B     		ldr	r3, .L566+12
 2803 064a FFF7FEFF 		bl	tcp_rst
 2804              	.LVL249:
 2805 064e 9AF80030 		ldrb	r3, [sl, #0]	@ zero_extendqisi2
 2806 0652 02E6     		b	.L333
 2807              	.LVL250:
 2808              	.L340:
 2809              		.loc 1 730 0
 2810 0654 3846     		mov	r0, r7
 2811 0656 FFF7FEFF 		bl	tcp_receive
 2812              	.LVL251:
 2813              		.loc 1 731 0
 2814 065a 9AF80030 		ldrb	r3, [sl, #0]	@ zero_extendqisi2
 2815 065e 03F02002 		and	r2, r3, #32
 2816 0662 D2B2     		uxtb	r2, r2
 2817 0664 002A     		cmp	r2, #0
 2818 0666 3FF4F8AD 		beq	.L333
 2819              	.LVL252:
 2820              	.L533:
 2821              		.loc 1 732 0
 2822 066a 97F82020 		ldrb	r2, [r7, #32]	@ zero_extendqisi2
 2823 066e 42F00202 		orr	r2, r2, #2
 2824 0672 87F82020 		strb	r2, [r7, #32]
 2825              		.loc 1 733 0
 2826 0676 0722     		movs	r2, #7
 2827 0678 3A74     		strb	r2, [r7, #16]
 2828 067a EEE5     		b	.L333
 2829              	.LVL253:
 2830              	.L341:
 2831              		.loc 1 737 0
 2832 067c 3846     		mov	r0, r7
 2833 067e FFF7FEFF 		bl	tcp_receive
 2834              	.LVL254:
 2835              		.loc 1 738 0
 2836 0682 9AF80030 		ldrb	r3, [sl, #0]	@ zero_extendqisi2
 2837 0686 03F02002 		and	r2, r3, #32
 2838 068a D2B2     		uxtb	r2, r2
 2839 068c 002A     		cmp	r2, #0
 2840 068e 00F05981 		beq	.L365
 2841              	.LBE20:
 2842              		.loc 1 739 0
 2843 0692 99F80020 		ldrb	r2, [r9, #0]	@ zero_extendqisi2
 2844              	.LBB21:
 2845 0696 02F01002 		and	r2, r2, #16
 2846 069a D2B2     		uxtb	r2, r2
 2847 069c 42B1     		cbz	r2, .L366
 2848 069e 40F20005 		movw	r5, #:lower16:.LANCHOR3
ARM GAS  /var/folders/5n/p_75w94d66l9ssrldxqdhh700000gn/T//ccyVBgQE.s 			page 51


 2849              	.LVL255:
 2850 06a2 C0F20005 		movt	r5, #:upper16:.LANCHOR3
 2851 06a6 BA6D     		ldr	r2, [r7, #88]
 2852 06a8 2968     		ldr	r1, [r5, #0]
 2853 06aa 8A42     		cmp	r2, r1
 2854 06ac 00F0B981 		beq	.L551
 2855              	.L366:
 2856              		.loc 1 748 0
 2857 06b0 97F82020 		ldrb	r2, [r7, #32]	@ zero_extendqisi2
 2858 06b4 42F00202 		orr	r2, r2, #2
 2859 06b8 87F82020 		strb	r2, [r7, #32]
 2860              		.loc 1 749 0
 2861 06bc 0822     		movs	r2, #8
 2862 06be 3A74     		strb	r2, [r7, #16]
 2863 06c0 CBE5     		b	.L333
 2864              	.LVL256:
 2865              	.L339:
 2866              		.loc 1 681 0
 2867 06c2 99F80030 		ldrb	r3, [r9, #0]	@ zero_extendqisi2
 2868 06c6 03F01002 		and	r2, r3, #16
 2869 06ca D2B2     		uxtb	r2, r2
 2870 06cc 002A     		cmp	r2, #0
 2871 06ce 00F05581 		beq	.L355
 2872              		.loc 1 683 0
 2873 06d2 40F20001 		movw	r1, #:lower16:.LANCHOR3
 2874 06d6 C0F20001 		movt	r1, #:upper16:.LANCHOR3
 2875 06da FB6C     		ldr	r3, [r7, #76]
 2876 06dc 0868     		ldr	r0, [r1, #0]
 2877 06de DB43     		mvns	r3, r3
 2878 06e0 C342     		cmn	r3, r0
 2879 06e2 04D4     		bmi	.L356
 2880 06e4 BB6D     		ldr	r3, [r7, #88]
 2881 06e6 C31A     		subs	r3, r0, r3
 2882 06e8 002B     		cmp	r3, #0
 2883 06ea 40F37281 		ble	.L552
 2884              	.L356:
 2885              		.loc 1 719 0
 2886 06ee 40F20002 		movw	r2, #:lower16:.LANCHOR4
 2887              		.loc 1 720 0
 2888 06f2 3368     		ldr	r3, [r6, #0]
 2889              		.loc 1 719 0
 2890 06f4 C0F20002 		movt	r2, #:upper16:.LANCHOR4
 2891 06f8 40F20006 		movw	r6, #:lower16:.LANCHOR1
 2892 06fc 1588     		ldrh	r5, [r2, #0]
 2893              	.LVL257:
 2894 06fe 5A88     		ldrh	r2, [r3, #2]	@ unaligned
 2895 0700 C0F20006 		movt	r6, #:upper16:.LANCHOR1
 2896 0704 3168     		ldr	r1, [r6, #0]
 2897 0706 0092     		str	r2, [sp, #0]
 2898 0708 1B88     		ldrh	r3, [r3, #0]	@ unaligned
 2899 070a 5E4A     		ldr	r2, .L566+8
 2900 070c 0193     		str	r3, [sp, #4]
 2901 070e 6918     		adds	r1, r5, r1
 2902 0710 5D4B     		ldr	r3, .L566+12
 2903 0712 FFF7FEFF 		bl	tcp_rst
 2904              	.LVL258:
 2905 0716 9AF80030 		ldrb	r3, [sl, #0]	@ zero_extendqisi2
ARM GAS  /var/folders/5n/p_75w94d66l9ssrldxqdhh700000gn/T//ccyVBgQE.s 			page 52


 2906 071a 9EE5     		b	.L333
 2907              	.LVL259:
 2908              	.L561:
 2909 071c 3368     		ldr	r3, [r6, #0]
 2910              	.L402:
 2911              	.LVL260:
 2912              	.LBE21:
 2913              	.LBE34:
 2914              		.loc 1 228 0
 2915 071e DFF86CB1 		ldr	fp, .L566+16
 2916 0722 DBF800A0 		ldr	sl, [fp, #0]
 2917              	.LVL261:
 2918 0726 BAF1000F 		cmp	sl, #0
 2919 072a 00F0B180 		beq	.L316
 2920 072e 5888     		ldrh	r0, [r3, #2]	@ unaligned
 2921              		.loc 1 240 0
 2922 0730 D8F800C0 		ldr	ip, [r8, #0]
 2923 0734 5746     		mov	r7, sl
 2924              	.LVL262:
 2925              		.loc 1 227 0
 2926 0736 0021     		movs	r1, #0
 2927 0738 05E0     		b	.L319
 2928              	.LVL263:
 2929              	.L317:
 2930              		.loc 1 228 0
 2931 073a FA68     		ldr	r2, [r7, #12]
 2932              	.LVL264:
 2933 073c 3946     		mov	r1, r7
 2934 073e 002A     		cmp	r2, #0
 2935 0740 00F0A680 		beq	.L316
 2936              	.LVL265:
 2937 0744 1746     		mov	r7, r2
 2938              	.LVL266:
 2939              	.L319:
 2940              		.loc 1 229 0
 2941 0746 BA8B     		ldrh	r2, [r7, #28]
 2942 0748 8242     		cmp	r2, r0
 2943 074a F6D1     		bne	.L317
 2944              		.loc 1 240 0
 2945 074c 3A68     		ldr	r2, [r7, #0]
 2946 074e 6245     		cmp	r2, ip
 2947 0750 01D0     		beq	.L318
 2948              		.loc 1 241 0 discriminator 1
 2949 0752 002A     		cmp	r2, #0
 2950 0754 F1D1     		bne	.L317
 2951              	.L318:
 2952              		.loc 1 261 0
 2953 0756 29B1     		cbz	r1, .L404
 2954              		.loc 1 262 0
 2955 0758 FA68     		ldr	r2, [r7, #12]
 2956              		.loc 1 266 0
 2957 075a CBF80070 		str	r7, [fp, #0]
 2958              		.loc 1 262 0
 2959 075e CA60     		str	r2, [r1, #12]
 2960              		.loc 1 264 0
 2961 0760 C7F80CA0 		str	sl, [r7, #12]
 2962              	.L404:
ARM GAS  /var/folders/5n/p_75w94d66l9ssrldxqdhh700000gn/T//ccyVBgQE.s 			page 53


 2963              	.LVL267:
 2964              	.LBB35:
 2965              	.LBB36:
 2966              		.loc 1 449 0
 2967 0764 99F80020 		ldrb	r2, [r9, #0]	@ zero_extendqisi2
 2968 0768 02F01009 		and	r9, r2, #16
 2969 076c 5FFA89F9 		uxtb	r9, r9
 2970 0770 B9F1000F 		cmp	r9, #0
 2971 0774 40F0C880 		bne	.L553
 2972              		.loc 1 456 0
 2973 0778 02F00203 		and	r3, r2, #2
 2974 077c DBB2     		uxtb	r3, r3
 2975 077e 002B     		cmp	r3, #0
 2976 0780 3FF408AE 		beq	.L312
 2977              		.loc 1 464 0
 2978 0784 787C     		ldrb	r0, [r7, #17]	@ zero_extendqisi2
 2979 0786 FFF7FEFF 		bl	tcp_alloc
 2980              	.LVL268:
 2981              		.loc 1 468 0
 2982 078a 8246     		mov	sl, r0
 2983 078c 0028     		cmp	r0, #0
 2984 078e 00F08A81 		beq	.L554
 2985              		.loc 1 479 0
 2986 0792 3D4B     		ldr	r3, .L566+12
 2987              		.loc 1 478 0
 2988 0794 B98B     		ldrh	r1, [r7, #28]
 2989              		.loc 1 479 0
 2990 0796 1B68     		ldr	r3, [r3, #0]
 2991              		.loc 1 477 0
 2992 0798 D8F80020 		ldr	r2, [r8, #0]
 2993              		.loc 1 478 0
 2994 079c AAF81C10 		strh	r1, [sl, #28]	@ movhi
 2995              		.loc 1 480 0
 2996 07a0 3068     		ldr	r0, [r6, #0]
 2997              	.LVL269:
 2998              		.loc 1 477 0
 2999 07a2 CAF80020 		str	r2, [sl, #0]
 3000              		.loc 1 482 0
 3001 07a6 40F20001 		movw	r1, #:lower16:.LANCHOR1
 3002              		.loc 1 479 0
 3003 07aa CAF80430 		str	r3, [sl, #4]
 3004              		.loc 1 482 0
 3005 07ae C0F20001 		movt	r1, #:upper16:.LANCHOR1
 3006              		.loc 1 480 0
 3007 07b2 90F801C0 		ldrb	ip, [r0, #1]	@ zero_extendqisi2
 3008 07b6 90F800E0 		ldrb	lr, [r0, #0]	@ zero_extendqisi2
 3009              		.loc 1 482 0
 3010 07ba 0C68     		ldr	r4, [r1, #0]
 3011              		.loc 1 489 0
 3012 07bc BA69     		ldr	r2, [r7, #24]
 3013              		.loc 1 487 0
 3014 07be 7969     		ldr	r1, [r7, #20]
 3015              		.loc 1 495 0
 3016 07c0 40F20006 		movw	r6, #:lower16:tcp_active_pcbs
 3017 07c4 C0F20006 		movt	r6, #:upper16:tcp_active_pcbs
 3018              		.loc 1 480 0
 3019 07c8 4EEA0C2E 		orr	lr, lr, ip, lsl #8
ARM GAS  /var/folders/5n/p_75w94d66l9ssrldxqdhh700000gn/T//ccyVBgQE.s 			page 54


 3020              		.loc 1 495 0
 3021 07cc 3368     		ldr	r3, [r6, #0]
 3022              		.loc 1 480 0
 3023 07ce AAF81EE0 		strh	lr, [sl, #30]	@ movhi
 3024              		.loc 1 482 0
 3025 07d2 661C     		adds	r6, r4, #1
 3026              		.loc 1 481 0
 3027 07d4 4FF0030E 		mov	lr, #3
 3028 07d8 8AF810E0 		strb	lr, [sl, #16]
 3029              		.loc 1 482 0
 3030 07dc CAF82460 		str	r6, [sl, #36]
 3031              		.loc 1 483 0
 3032 07e0 CAF82C60 		str	r6, [sl, #44]
 3033              		.loc 1 484 0
 3034 07e4 C089     		ldrh	r0, [r0, #14]	@ unaligned
 3035              		.loc 1 487 0
 3036 07e6 CAF81410 		str	r1, [sl, #20]
 3037              		.loc 1 486 0
 3038 07ea 013C     		subs	r4, r4, #1
 3039              		.loc 1 484 0
 3040 07ec AAF85C00 		strh	r0, [sl, #92]	@ movhi
 3041              		.loc 1 485 0
 3042 07f0 AAF85400 		strh	r0, [sl, #84]	@ movhi
 3043              		.loc 1 486 0
 3044 07f4 CAF86040 		str	r4, [sl, #96]
 3045              		.loc 1 489 0
 3046 07f8 CAF81820 		str	r2, [sl, #24]
 3047              		.loc 1 492 0
 3048 07fc 3A7A     		ldrb	r2, [r7, #8]	@ zero_extendqisi2
 3049              		.loc 1 495 0
 3050 07fe CAF80C30 		str	r3, [sl, #12]
 3051 0802 40F20000 		movw	r0, #:lower16:tcp_active_pcbs
 3052              		.loc 1 492 0
 3053 0806 22F07303 		bic	r3, r2, #115
 3054              		.loc 1 495 0
 3055 080a C0F20000 		movt	r0, #:upper16:tcp_active_pcbs
 3056              		.loc 1 492 0
 3057 080e 8AF80830 		strb	r3, [sl, #8]
 3058              		.loc 1 495 0
 3059 0812 C0F800A0 		str	sl, [r0, #0]
 3060 0816 FFF7FEFF 		bl	tcp_timer_needed
 3061              	.LVL270:
 3062              		.loc 1 498 0
 3063 081a 5046     		mov	r0, sl
 3064 081c FFF7FEFF 		bl	tcp_parseopt
 3065              	.LVL271:
 3066              		.loc 1 500 0
 3067 0820 0AF10401 		add	r1, sl, #4
 3068 0824 BAF83800 		ldrh	r0, [sl, #56]
 3069 0828 FFF7FEFF 		bl	tcp_eff_send_mss
 3070              	.LVL272:
 3071              		.loc 1 506 0
 3072 082c 1221     		movs	r1, #18
 3073              		.loc 1 500 0
 3074 082e AAF83800 		strh	r0, [sl, #56]	@ movhi
 3075              		.loc 1 506 0
 3076 0832 5046     		mov	r0, sl
ARM GAS  /var/folders/5n/p_75w94d66l9ssrldxqdhh700000gn/T//ccyVBgQE.s 			page 55


 3077 0834 FFF7FEFF 		bl	tcp_enqueue_flags
 3078              	.LVL273:
 3079              		.loc 1 507 0
 3080 0838 0028     		cmp	r0, #0
 3081 083a 7ED1     		bne	.L555
 3082              		.loc 1 511 0
 3083 083c 5046     		mov	r0, sl
 3084              	.LVL274:
 3085 083e FFF7FEFF 		bl	tcp_output
 3086              	.LVL275:
 3087 0842 A7E5     		b	.L312
 3088              	.LVL276:
 3089              	.L323:
 3090              	.LBE36:
 3091              	.LBE35:
 3092              		.loc 1 304 0 discriminator 2
 3093 0844 6046     		mov	r0, ip
 3094 0846 3946     		mov	r1, r7
 3095 0848 6346     		mov	r3, ip
 3096 084a FFF7FEFF 		bl	tcp_recv_null
 3097              	.LVL277:
 3098 084e E2E4     		b	.L324
 3099              	.LVL278:
 3100              	.L544:
 3101              	.LBB39:
 3102              	.LBB22:
 3103              		.loc 1 584 0
 3104 0850 40F20005 		movw	r5, #:lower16:.LANCHOR3
 3105              	.LVL279:
 3106 0854 C0F20005 		movt	r5, #:upper16:.LANCHOR3
 3107 0858 BB6D     		ldr	r3, [r7, #88]
 3108 085a 2A68     		ldr	r2, [r5, #0]
 3109 085c 9342     		cmp	r3, r2
 3110 085e 7FF4FAAC 		bne	.L527
 3111              	.LVL280:
 3112              	.L330:
 3113              		.loc 1 597 0
 3114 0862 9AF80030 		ldrb	r3, [sl, #0]	@ zero_extendqisi2
 3115              		.loc 1 598 0
 3116 0866 97F82020 		ldrb	r2, [r7, #32]	@ zero_extendqisi2
 3117              		.loc 1 597 0
 3118 086a 43F00803 		orr	r3, r3, #8
 3119              		.loc 1 598 0
 3120 086e 22F00102 		bic	r2, r2, #1
 3121              		.loc 1 597 0
 3122 0872 8AF80030 		strb	r3, [sl, #0]
 3123              		.loc 1 598 0
 3124 0876 87F82020 		strb	r2, [r7, #32]
 3125 087a EEE4     		b	.L333
 3126              	.L567:
 3127              		.align	2
 3128              	.L566:
 3129 087c 00000000 		.word	tcp_tw_pcbs
 3130 0880 00000000 		.word	tcp_tmp_pcb
 3131 0884 00000000 		.word	current_iphdr_dest
 3132 0888 00000000 		.word	current_iphdr_src
 3133 088c 00000000 		.word	tcp_listen_pcbs
ARM GAS  /var/folders/5n/p_75w94d66l9ssrldxqdhh700000gn/T//ccyVBgQE.s 			page 56


 3134              	.LVL281:
 3135              	.L316:
 3136              	.LBE22:
 3137              	.LBE39:
 3138              		.loc 1 415 0
 3139 0890 9889     		ldrh	r0, [r3, #12]	@ unaligned
 3140 0892 FFF7FEFF 		bl	lwip_ntohs
 3141              	.LVL282:
 3142 0896 00F00400 		and	r0, r0, #4
 3143 089a 83B2     		uxth	r3, r0
 3144 089c 002B     		cmp	r3, #0
 3145 089e 7FF479AD 		bne	.L312
 3146              		.loc 1 416 0
 3147 08a2 B4F8A0C0 		ldrh	ip, [r4, #160]
 3148              		.loc 1 417 0
 3149 08a6 B4F896E0 		ldrh	lr, [r4, #150]
 3150              		.loc 1 420 0
 3151 08aa 3668     		ldr	r6, [r6, #0]
 3152              		.loc 1 416 0
 3153 08ac 0CF1010C 		add	ip, ip, #1
 3154              		.loc 1 417 0
 3155 08b0 0EF1010E 		add	lr, lr, #1
 3156              		.loc 1 416 0
 3157 08b4 A4F8A0C0 		strh	ip, [r4, #160]	@ movhi
 3158              		.loc 1 417 0
 3159 08b8 A4F896E0 		strh	lr, [r4, #150]	@ movhi
 3160              		.loc 1 418 0
 3161 08bc 40F20001 		movw	r1, #:lower16:.LANCHOR3
 3162 08c0 40F20002 		movw	r2, #:lower16:.LANCHOR4
 3163 08c4 40F20003 		movw	r3, #:lower16:.LANCHOR1
 3164 08c8 7488     		ldrh	r4, [r6, #2]	@ unaligned
 3165 08ca C0F20001 		movt	r1, #:upper16:.LANCHOR3
 3166 08ce C0F20002 		movt	r2, #:upper16:.LANCHOR4
 3167 08d2 C0F20003 		movt	r3, #:upper16:.LANCHOR1
 3168 08d6 1788     		ldrh	r7, [r2, #0]
 3169 08d8 0868     		ldr	r0, [r1, #0]
 3170 08da 1968     		ldr	r1, [r3, #0]
 3171 08dc 0094     		str	r4, [sp, #0]
 3172 08de 3488     		ldrh	r4, [r6, #0]	@ unaligned
 3173 08e0 A54A     		ldr	r2, .L568
 3174 08e2 A64B     		ldr	r3, .L568+4
 3175 08e4 0194     		str	r4, [sp, #4]
 3176 08e6 7918     		adds	r1, r7, r1
 3177 08e8 FFF7FEFF 		bl	tcp_rst
 3178              	.LVL283:
 3179 08ec 52E5     		b	.L312
 3180              	.LVL284:
 3181              	.L334:
 3182              	.LBB40:
 3183              	.LBB23:
 3184              		.loc 1 596 0
 3185 08ee 002A     		cmp	r2, #0
 3186 08f0 B7D1     		bne	.L330
 3187 08f2 FFF7FEFF 		bl	port_halt
 3188              	.LVL285:
 3189 08f6 B4E7     		b	.L330
 3190              	.LVL286:
ARM GAS  /var/folders/5n/p_75w94d66l9ssrldxqdhh700000gn/T//ccyVBgQE.s 			page 57


 3191              	.L549:
 3192              	.LBE23:
 3193              	.LBE40:
 3194              		.loc 1 353 0
 3195 08f8 D8F80000 		ldr	r0, [r8, #0]
 3196 08fc FFF7FEFF 		bl	pbuf_free
 3197              	.LVL287:
 3198              	.L531:
 3199              		.loc 1 354 0
 3200 0900 3846     		mov	r0, r7
 3201 0902 FFF7FEFF 		bl	tcp_abort
 3202              	.LVL288:
 3203              		.loc 1 355 0
 3204 0906 BDE4     		b	.L388
 3205              	.LVL289:
 3206              	.L553:
 3207              	.LBB41:
 3208              	.LBB37:
 3209              		.loc 1 453 0
 3210 0908 40F20001 		movw	r1, #:lower16:.LANCHOR3
 3211 090c 40F20002 		movw	r2, #:lower16:.LANCHOR4
 3212 0910 40F20006 		movw	r6, #:lower16:.LANCHOR1
 3213 0914 C0F20001 		movt	r1, #:upper16:.LANCHOR3
 3214 0918 C0F20002 		movt	r2, #:upper16:.LANCHOR4
 3215 091c C0F20006 		movt	r6, #:upper16:.LANCHOR1
 3216 0920 0090     		str	r0, [sp, #0]
 3217 0922 1488     		ldrh	r4, [r2, #0]
 3218 0924 0868     		ldr	r0, [r1, #0]
 3219 0926 1B88     		ldrh	r3, [r3, #0]	@ unaligned
 3220 0928 3168     		ldr	r1, [r6, #0]
 3221 092a 934A     		ldr	r2, .L568
 3222 092c 0193     		str	r3, [sp, #4]
 3223 092e 0130     		adds	r0, r0, #1
 3224 0930 6118     		adds	r1, r4, r1
 3225 0932 924B     		ldr	r3, .L568+4
 3226 0934 FFF7FEFF 		bl	tcp_rst
 3227              	.LVL290:
 3228 0938 2CE5     		b	.L312
 3229              	.LVL291:
 3230              	.L555:
 3231              		.loc 1 508 0
 3232 093a 5046     		mov	r0, sl
 3233              	.LVL292:
 3234 093c 4946     		mov	r1, r9
 3235 093e FFF7FEFF 		bl	tcp_abandon
 3236              	.LVL293:
 3237 0942 27E5     		b	.L312
 3238              	.LVL294:
 3239              	.L365:
 3240              	.LBE37:
 3241              	.LBE41:
 3242              	.LBB42:
 3243              		.loc 1 751 0
 3244 0944 99F80020 		ldrb	r2, [r9, #0]	@ zero_extendqisi2
 3245              	.LBB24:
 3246 0948 02F01002 		and	r2, r2, #16
 3247 094c D2B2     		uxtb	r2, r2
ARM GAS  /var/folders/5n/p_75w94d66l9ssrldxqdhh700000gn/T//ccyVBgQE.s 			page 58


 3248 094e 002A     		cmp	r2, #0
 3249 0950 3FF483AC 		beq	.L333
 3250 0954 40F20000 		movw	r0, #:lower16:.LANCHOR3
 3251 0958 C0F20000 		movt	r0, #:upper16:.LANCHOR3
 3252 095c BA6D     		ldr	r2, [r7, #88]
 3253 095e 0168     		ldr	r1, [r0, #0]
 3254 0960 8A42     		cmp	r2, r1
 3255 0962 7FF47AAC 		bne	.L333
 3256              		.loc 1 752 0
 3257 0966 0622     		movs	r2, #6
 3258 0968 3A74     		strb	r2, [r7, #16]
 3259 096a 76E4     		b	.L333
 3260              	.LVL295:
 3261              	.L395:
 3262              	.LBE24:
 3263              	.LBE42:
 3264              		.loc 1 362 0 discriminator 2
 3265 096c 2846     		mov	r0, r5
 3266 096e 3946     		mov	r1, r7
 3267 0970 D8F80020 		ldr	r2, [r8, #0]
 3268 0974 2B46     		mov	r3, r5
 3269 0976 FFF7FEFF 		bl	tcp_recv_null
 3270              	.LVL296:
 3271 097a 76E5     		b	.L396
 3272              	.LVL297:
 3273              	.L355:
 3274              	.LBB43:
 3275              	.LBB25:
 3276              		.loc 1 722 0
 3277 097c 03F00203 		and	r3, r3, #2
 3278 0980 DBB2     		uxtb	r3, r3
 3279 0982 002B     		cmp	r3, #0
 3280 0984 3FF467AC 		beq	.L527
 3281 0988 40F20000 		movw	r0, #:lower16:.LANCHOR1
 3282 098c C0F20000 		movt	r0, #:upper16:.LANCHOR1
 3283 0990 7B6A     		ldr	r3, [r7, #36]
 3284 0992 0268     		ldr	r2, [r0, #0]
 3285 0994 013B     		subs	r3, r3, #1
 3286 0996 9342     		cmp	r3, r2
 3287 0998 7FF45DAC 		bne	.L527
 3288              		.loc 1 724 0
 3289 099c 3846     		mov	r0, r7
 3290 099e FFF7FEFF 		bl	tcp_rexmit
 3291              	.LVL298:
 3292 09a2 9AF80030 		ldrb	r3, [sl, #0]	@ zero_extendqisi2
 3293 09a6 58E4     		b	.L333
 3294              	.LVL299:
 3295              	.L537:
 3296 09a8 1360     		str	r3, [r2, #0]
 3297              	.L381:
 3298              		.loc 1 771 0
 3299 09aa FA68     		ldr	r2, [r7, #12]
 3300 09ac DA60     		str	r2, [r3, #12]
 3301 09ae F1E5     		b	.L380
 3302              	.LVL300:
 3303              	.L550:
 3304              		.loc 1 630 0
ARM GAS  /var/folders/5n/p_75w94d66l9ssrldxqdhh700000gn/T//ccyVBgQE.s 			page 59


 3305 09b0 BB6F     		ldr	r3, [r7, #120]
 3306 09b2 DB68     		ldr	r3, [r3, #12]
 3307 09b4 5868     		ldr	r0, [r3, #4]	@ unaligned
 3308 09b6 FFF7FEFF 		bl	lwip_ntohl
 3309              	.LVL301:
 3310 09ba 40F20001 		movw	r1, #:lower16:.LANCHOR3
 3311 09be C0F20001 		movt	r1, #:upper16:.LANCHOR3
 3312 09c2 0130     		adds	r0, r0, #1
 3313 09c4 0B68     		ldr	r3, [r1, #0]
 3314 09c6 9842     		cmp	r0, r3
 3315 09c8 00F08180 		beq	.L347
 3316 09cc 6C4B     		ldr	r3, .L568+8
 3317 09ce 1B78     		ldrb	r3, [r3, #0]	@ zero_extendqisi2
 3318 09d0 1EE6     		b	.L346
 3319              	.L552:
 3320              	.LBB13:
 3321              		.loc 1 688 0
 3322 09d2 BB69     		ldr	r3, [r7, #24]
 3323              		.loc 1 685 0
 3324 09d4 0422     		movs	r2, #4
 3325 09d6 3A74     		strb	r2, [r7, #16]
 3326              		.loc 1 688 0
 3327 09d8 002B     		cmp	r3, #0
 3328 09da 71D0     		beq	.L556
 3329              	.L357:
 3330              		.loc 1 691 0
 3331 09dc 7869     		ldr	r0, [r7, #20]
 3332 09de 3946     		mov	r1, r7
 3333 09e0 0022     		movs	r2, #0
 3334 09e2 9847     		blx	r3
 3335              	.LVL302:
 3336              		.loc 1 692 0
 3337 09e4 0028     		cmp	r0, #0
 3338 09e6 67D1     		bne	.L557
 3339              		.loc 1 704 0
 3340 09e8 3846     		mov	r0, r7
 3341              	.LVL303:
 3342              		.loc 1 701 0
 3343 09ea B7F85250 		ldrh	r5, [r7, #82]
 3344              	.LVL304:
 3345              		.loc 1 704 0
 3346 09ee FFF7FEFF 		bl	tcp_receive
 3347              	.LVL305:
 3348              		.loc 1 707 0
 3349 09f2 B7F86C30 		ldrh	r3, [r7, #108]
 3350 09f6 13B1     		cbz	r3, .L360
 3351              		.loc 1 708 0
 3352 09f8 013B     		subs	r3, r3, #1
 3353 09fa A7F86C30 		strh	r3, [r7, #108]	@ movhi
 3354              	.L360:
 3355              		.loc 1 711 0
 3356 09fe 012D     		cmp	r5, #1
 3357 0a00 3A8F     		ldrh	r2, [r7, #56]
 3358 0a02 56D0     		beq	.L558
 3359              	.L362:
 3360              		.loc 1 713 0
 3361 0a04 9AF80030 		ldrb	r3, [sl, #0]	@ zero_extendqisi2
ARM GAS  /var/folders/5n/p_75w94d66l9ssrldxqdhh700000gn/T//ccyVBgQE.s 			page 60


 3362              		.loc 1 711 0
 3363 0a08 A7F85220 		strh	r2, [r7, #82]	@ movhi
 3364              		.loc 1 713 0
 3365 0a0c 03F02002 		and	r2, r3, #32
 3366 0a10 D2B2     		uxtb	r2, r2
 3367 0a12 002A     		cmp	r2, #0
 3368 0a14 3FF421AC 		beq	.L333
 3369 0a18 27E6     		b	.L533
 3370              	.LVL306:
 3371              	.L543:
 3372              	.LBE13:
 3373              	.LBE25:
 3374              	.LBE43:
 3375              		.loc 1 200 0 discriminator 1
 3376 0a1a FFF7FEFF 		bl	port_halt
 3377              	.LVL307:
 3378 0a1e FFF7DBBB 		b	.L308
 3379              	.LVL308:
 3380              	.L551:
 3381              	.LBB44:
 3382              	.LBB26:
 3383              		.loc 1 742 0
 3384 0a22 97F82030 		ldrb	r3, [r7, #32]	@ zero_extendqisi2
 3385              		.loc 1 744 0
 3386 0a26 40F20006 		movw	r6, #:lower16:tcp_active_pcbs
 3387              		.loc 1 742 0
 3388 0a2a 43F00203 		orr	r3, r3, #2
 3389              		.loc 1 744 0
 3390 0a2e C0F20006 		movt	r6, #:upper16:tcp_active_pcbs
 3391              		.loc 1 742 0
 3392 0a32 87F82030 		strb	r3, [r7, #32]
 3393              		.loc 1 743 0
 3394 0a36 3846     		mov	r0, r7
 3395 0a38 FFF7FEFF 		bl	tcp_pcb_purge
 3396              	.LVL309:
 3397              		.loc 1 744 0
 3398 0a3c 3368     		ldr	r3, [r6, #0]
 3399 0a3e BB42     		cmp	r3, r7
 3400 0a40 0AD0     		beq	.L536
 3401 0a42 504A     		ldr	r2, .L568+12
 3402 0a44 1360     		str	r3, [r2, #0]
 3403              	.L369:
 3404 0a46 002B     		cmp	r3, #0
 3405 0a48 3FF4A3AD 		beq	.L535
 3406 0a4c D968     		ldr	r1, [r3, #12]
 3407 0a4e B942     		cmp	r1, r7
 3408 0a50 00F08A80 		beq	.L559
 3409 0a54 0B46     		mov	r3, r1
 3410 0a56 F6E7     		b	.L369
 3411              	.L536:
 3412              		.loc 1 771 0
 3413 0a58 FB68     		ldr	r3, [r7, #12]
 3414 0a5a 4B4A     		ldr	r2, .L568+16
 3415 0a5c 1360     		str	r3, [r2, #0]
 3416 0a5e 99E5     		b	.L380
 3417              	.LVL310:
 3418              	.L547:
ARM GAS  /var/folders/5n/p_75w94d66l9ssrldxqdhh700000gn/T//ccyVBgQE.s 			page 61


 3419              	.LBE26:
 3420              	.LBE44:
 3421              	.LBB45:
 3422              	.LBB32:
 3423              		.loc 1 542 0
 3424 0a60 40F20003 		movw	r3, #:lower16:.LANCHOR4
 3425 0a64 C0F20003 		movt	r3, #:upper16:.LANCHOR4
 3426 0a68 40F20006 		movw	r6, #:lower16:.LANCHOR3
 3427 0a6c 1C88     		ldrh	r4, [r3, #0]
 3428 0a6e CDF800C0 		str	ip, [sp, #0]
 3429 0a72 C0F20006 		movt	r6, #:upper16:.LANCHOR3
 3430 0a76 0190     		str	r0, [sp, #4]
 3431 0a78 3068     		ldr	r0, [r6, #0]
 3432 0a7a 3F4A     		ldr	r2, .L568
 3433 0a7c 3F4B     		ldr	r3, .L568+4
 3434 0a7e 6118     		adds	r1, r4, r1
 3435 0a80 FFF7FEFF 		bl	tcp_rst
 3436              	.LVL311:
 3437 0a84 86E4     		b	.L312
 3438              	.L313:
 3439              		.loc 1 546 0
 3440 0a86 D907     		lsls	r1, r3, #31
 3441              		.loc 1 549 0
 3442 0a88 42BF     		ittt	mi
 3443 0a8a 404B     		ldrmi	r3, .L568+20
 3444 0a8c 1B68     		ldrmi	r3, [r3, #0]
 3445 0a8e 3B63     		strmi	r3, [r7, #48]
 3446 0a90 78E4     		b	.L314
 3447              	.L548:
 3448              		.loc 1 554 0
 3449 0a92 97F82030 		ldrb	r3, [r7, #32]	@ zero_extendqisi2
 3450 0a96 43F00203 		orr	r3, r3, #2
 3451 0a9a 87F82030 		strb	r3, [r7, #32]
 3452              		.loc 1 555 0
 3453 0a9e 3846     		mov	r0, r7
 3454 0aa0 FFF7FEFF 		bl	tcp_output
 3455              	.LVL312:
 3456 0aa4 76E4     		b	.L312
 3457              	.LVL313:
 3458              	.L554:
 3459              	.LBE32:
 3460              	.LBE45:
 3461              	.LBB46:
 3462              	.LBB38:
 3463              		.loc 1 470 0
 3464 0aa6 B4F89C30 		ldrh	r3, [r4, #156]
 3465 0aaa 0133     		adds	r3, r3, #1
 3466 0aac A4F89C30 		strh	r3, [r4, #156]	@ movhi
 3467 0ab0 70E4     		b	.L312
 3468              	.LVL314:
 3469              	.L558:
 3470              	.LBE38:
 3471              	.LBE46:
 3472              	.LBB47:
 3473              	.LBB27:
 3474              	.LBB14:
 3475              		.loc 1 711 0
ARM GAS  /var/folders/5n/p_75w94d66l9ssrldxqdhh700000gn/T//ccyVBgQE.s 			page 62


 3476 0ab2 5200     		lsls	r2, r2, #1
 3477 0ab4 92B2     		uxth	r2, r2
 3478 0ab6 A5E7     		b	.L362
 3479              	.LVL315:
 3480              	.L557:
 3481              		.loc 1 696 0
 3482 0ab8 0A30     		adds	r0, r0, #10
 3483              	.LVL316:
 3484 0aba 3FF4E3AB 		beq	.L388
 3485 0abe 1FE7     		b	.L531
 3486              	.LVL317:
 3487              	.L556:
 3488              		.loc 1 688 0
 3489 0ac0 FFF7FEFF 		bl	port_halt
 3490              	.LVL318:
 3491              		.loc 1 691 0
 3492 0ac4 BB69     		ldr	r3, [r7, #24]
 3493 0ac6 002B     		cmp	r3, #0
 3494 0ac8 3FF41AAF 		beq	.L531
 3495 0acc 86E7     		b	.L357
 3496              	.L347:
 3497              	.LBE14:
 3498              		.loc 1 632 0
 3499 0ace 40F20002 		movw	r2, #:lower16:.LANCHOR1
 3500 0ad2 C0F20002 		movt	r2, #:upper16:.LANCHOR1
 3501              		.loc 1 631 0
 3502 0ad6 B7F86E50 		ldrh	r5, [r7, #110]
 3503              	.LVL319:
 3504              		.loc 1 632 0
 3505 0ada 1368     		ldr	r3, [r2, #0]
 3506              		.loc 1 634 0
 3507 0adc F864     		str	r0, [r7, #76]
 3508              		.loc 1 632 0
 3509 0ade 591C     		adds	r1, r3, #1
 3510              		.loc 1 635 0
 3511 0ae0 3268     		ldr	r2, [r6, #0]
 3512              		.loc 1 632 0
 3513 0ae2 7962     		str	r1, [r7, #36]
 3514              		.loc 1 631 0
 3515 0ae4 681C     		adds	r0, r5, #1
 3516 0ae6 A7F86E00 		strh	r0, [r7, #110]	@ movhi
 3517              		.loc 1 633 0
 3518 0aea F962     		str	r1, [r7, #44]
 3519              		.loc 1 635 0
 3520 0aec 917B     		ldrb	r1, [r2, #14]	@ zero_extendqisi2
 3521 0aee D27B     		ldrb	r2, [r2, #15]	@ zero_extendqisi2
 3522              		.loc 1 640 0
 3523 0af0 388F     		ldrh	r0, [r7, #56]
 3524              		.loc 1 636 0
 3525 0af2 013B     		subs	r3, r3, #1
 3526              		.loc 1 635 0
 3527 0af4 41EA0222 		orr	r2, r1, r2, lsl #8
 3528              		.loc 1 636 0
 3529 0af8 3B66     		str	r3, [r7, #96]
 3530              		.loc 1 637 0
 3531 0afa 0423     		movs	r3, #4
 3532              		.loc 1 635 0
ARM GAS  /var/folders/5n/p_75w94d66l9ssrldxqdhh700000gn/T//ccyVBgQE.s 			page 63


 3533 0afc A7F85C20 		strh	r2, [r7, #92]	@ movhi
 3534              		.loc 1 637 0
 3535 0b00 3B74     		strb	r3, [r7, #16]
 3536              		.loc 1 640 0
 3537 0b02 F918     		adds	r1, r7, r3
 3538 0b04 FFF7FEFF 		bl	tcp_eff_send_mss
 3539              	.LVL320:
 3540              		.loc 1 647 0
 3541 0b08 B7F85230 		ldrh	r3, [r7, #82]
 3542              		.loc 1 640 0
 3543 0b0c 3887     		strh	r0, [r7, #56]	@ movhi
 3544              		.loc 1 645 0
 3545 0b0e 0A22     		movs	r2, #10
 3546 0b10 02FB00F2 		mul	r2, r2, r0
 3547              		.loc 1 647 0
 3548 0b14 012B     		cmp	r3, #1
 3549              		.loc 1 645 0
 3550 0b16 A7F85420 		strh	r2, [r7, #84]	@ movhi
 3551              		.loc 1 647 0
 3552 0b1a 01D1     		bne	.L348
 3553 0b1c 4000     		lsls	r0, r0, #1
 3554 0b1e 80B2     		uxth	r0, r0
 3555              	.L348:
 3556              		.loc 1 648 0
 3557 0b20 B7F87030 		ldrh	r3, [r7, #112]
 3558              		.loc 1 647 0
 3559 0b24 A7F85200 		strh	r0, [r7, #82]	@ movhi
 3560              		.loc 1 648 0
 3561 0b28 0BB9     		cbnz	r3, .L349
 3562 0b2a FFF7FEFF 		bl	port_halt
 3563              	.LVL321:
 3564              	.L349:
 3565              		.loc 1 651 0
 3566 0b2e B86F     		ldr	r0, [r7, #120]
 3567              	.LVL322:
 3568              		.loc 1 649 0
 3569 0b30 B7F87020 		ldrh	r2, [r7, #112]
 3570              		.loc 1 652 0
 3571 0b34 0368     		ldr	r3, [r0, #0]
 3572              		.loc 1 649 0
 3573 0b36 013A     		subs	r2, r2, #1
 3574 0b38 A7F87020 		strh	r2, [r7, #112]	@ movhi
 3575              		.loc 1 652 0
 3576 0b3c BB67     		str	r3, [r7, #120]
 3577              		.loc 1 656 0
 3578 0b3e BBB1     		cbz	r3, .L560
 3579              		.loc 1 659 0
 3580 0b40 0023     		movs	r3, #0
 3581 0b42 FB86     		strh	r3, [r7, #54]	@ movhi
 3582              		.loc 1 660 0
 3583 0b44 87F84A30 		strb	r3, [r7, #74]
 3584              	.L351:
 3585              		.loc 1 663 0
 3586 0b48 FFF7FEFF 		bl	tcp_seg_free
 3587              	.LVL323:
 3588              		.loc 1 667 0
 3589 0b4c D7F88C30 		ldr	r3, [r7, #140]
ARM GAS  /var/folders/5n/p_75w94d66l9ssrldxqdhh700000gn/T//ccyVBgQE.s 			page 64


 3590 0b50 002B     		cmp	r3, #0
 3591 0b52 3FF448AC 		beq	.L352
 3592 0b56 0022     		movs	r2, #0
 3593 0b58 7869     		ldr	r0, [r7, #20]
 3594 0b5a 3946     		mov	r1, r7
 3595 0b5c 9847     		blx	r3
 3596              	.LVL324:
 3597              		.loc 1 668 0
 3598 0b5e 0A30     		adds	r0, r0, #10
 3599              	.LVL325:
 3600 0b60 7FF441AC 		bne	.L352
 3601 0b64 FFF78EBB 		b	.L388
 3602              	.LVL326:
 3603              	.L559:
 3604              		.loc 1 744 0
 3605 0b68 F968     		ldr	r1, [r7, #12]
 3606 0b6a 1360     		str	r3, [r2, #0]
 3607 0b6c D960     		str	r1, [r3, #12]
 3608 0b6e 11E5     		b	.L380
 3609              	.LVL327:
 3610              	.L560:
 3611              		.loc 1 657 0
 3612 0b70 4FF6FF73 		movw	r3, #65535
 3613 0b74 FB86     		strh	r3, [r7, #54]	@ movhi
 3614 0b76 E7E7     		b	.L351
 3615              	.L569:
 3616              		.align	2
 3617              	.L568:
 3618 0b78 00000000 		.word	current_iphdr_dest
 3619 0b7c 00000000 		.word	current_iphdr_src
 3620 0b80 00000000 		.word	.LANCHOR2
 3621 0b84 00000000 		.word	tcp_tmp_pcb
 3622 0b88 00000000 		.word	tcp_active_pcbs
 3623 0b8c 00000000 		.word	tcp_ticks
 3624              	.LBE27:
 3625              	.LBE47:
 3626              		.cfi_endproc
 3627              	.LFE7:
 3628              		.size	tcp_input, .-tcp_input
 3629              		.global	tcp_input_pcb
 3630              		.section	.bss.tcphdr,"aw",%nobits
 3631              		.align	2
 3632              		.set	.LANCHOR0,. + 0
 3633              		.type	tcphdr, %object
 3634              		.size	tcphdr, 4
 3635              	tcphdr:
 3636 0000 00000000 		.space	4
 3637              		.section	.bss.seqno,"aw",%nobits
 3638              		.align	2
 3639              		.set	.LANCHOR1,. + 0
 3640              		.type	seqno, %object
 3641              		.size	seqno, 4
 3642              	seqno:
 3643 0000 00000000 		.space	4
 3644              		.section	.bss.tcplen,"aw",%nobits
 3645              		.align	1
 3646              		.set	.LANCHOR4,. + 0
ARM GAS  /var/folders/5n/p_75w94d66l9ssrldxqdhh700000gn/T//ccyVBgQE.s 			page 65


 3647              		.type	tcplen, %object
 3648              		.size	tcplen, 2
 3649              	tcplen:
 3650 0000 0000     		.space	2
 3651              		.section	.bss.ackno,"aw",%nobits
 3652              		.align	2
 3653              		.set	.LANCHOR3,. + 0
 3654              		.type	ackno, %object
 3655              		.size	ackno, 4
 3656              	ackno:
 3657 0000 00000000 		.space	4
 3658              		.section	.bss.flags,"aw",%nobits
 3659              		.set	.LANCHOR2,. + 0
 3660              		.type	flags, %object
 3661              		.size	flags, 1
 3662              	flags:
 3663 0000 00       		.space	1
 3664              		.section	.bss.recv_flags,"aw",%nobits
 3665              		.set	.LANCHOR7,. + 0
 3666              		.type	recv_flags, %object
 3667              		.size	recv_flags, 1
 3668              	recv_flags:
 3669 0000 00       		.space	1
 3670              		.section	.bss.recv_data,"aw",%nobits
 3671              		.align	2
 3672              		.set	.LANCHOR6,. + 0
 3673              		.type	recv_data, %object
 3674              		.size	recv_data, 4
 3675              	recv_data:
 3676 0000 00000000 		.space	4
 3677              		.section	.bss.iphdr,"aw",%nobits
 3678              		.align	2
 3679              		.set	.LANCHOR8,. + 0
 3680              		.type	iphdr, %object
 3681              		.size	iphdr, 4
 3682              	iphdr:
 3683 0000 00000000 		.space	4
 3684              		.section	.bss.inseg,"aw",%nobits
 3685              		.align	2
 3686              		.set	.LANCHOR5,. + 0
 3687              		.type	inseg, %object
 3688              		.size	inseg, 16
 3689              	inseg:
 3690 0000 00000000 		.space	16
 3690      00000000 
 3690      00000000 
 3690      00000000 
 3691              		.section	.bss.tcp_input_pcb,"aw",%nobits
 3692              		.align	2
 3693              		.set	.LANCHOR9,. + 0
 3694              		.type	tcp_input_pcb, %object
 3695              		.size	tcp_input_pcb, 4
 3696              	tcp_input_pcb:
 3697 0000 00000000 		.space	4
 3698              		.text
 3699              	.Letext0:
 3700              		.file 2 "/usr/local/cross/lib/gcc/arm-none-eabi/4.7.2/../../../../arm-none-eabi/include/stdint.h"
ARM GAS  /var/folders/5n/p_75w94d66l9ssrldxqdhh700000gn/T//ccyVBgQE.s 			page 66


 3701              		.file 3 "../../os/various/lwip_bindings/arch/cc.h"
 3702              		.file 4 "../../ext/lwip-1.4.0/src/include/lwip/err.h"
 3703              		.file 5 "../../ext/lwip-1.4.0/src/include/lwip/mem.h"
 3704              		.file 6 "../../ext/lwip-1.4.0/src/include/lwip/pbuf.h"
 3705              		.file 7 "../../ext/lwip-1.4.0/src/include/ipv4/lwip/ip_addr.h"
 3706              		.file 8 "../../ext/lwip-1.4.0/src/include/lwip/netif.h"
 3707              		.file 9 "../../ext/lwip-1.4.0/src/include/ipv4/lwip/ip.h"
 3708              		.file 10 "../../ext/lwip-1.4.0/src/include/lwip/tcp.h"
 3709              		.file 11 "../../ext/lwip-1.4.0/src/include/lwip/tcp_impl.h"
 3710              		.file 12 "../../ext/lwip-1.4.0/src/include/lwip/memp.h"
 3711              		.file 13 "../../ext/lwip-1.4.0/src/include/lwip/stats.h"
 3712              		.file 14 "../../ext/lwip-1.4.0/src/include/lwip/def.h"
 3713              		.file 15 "../../os/ports/GCC/ARMCMx/chcore_v7m.h"
 3714              		.file 16 "../../ext/lwip-1.4.0/src/include/ipv4/lwip/inet_chksum.h"