ARM GAS  /var/folders/5n/p_75w94d66l9ssrldxqdhh700000gn/T//ccHvVlNA.s 			page 1


   1              		.syntax unified
   2              		.cpu cortex-m4
   3              		.fpu softvfp
   4              		.eabi_attribute 20, 1
   5              		.eabi_attribute 21, 1
   6              		.eabi_attribute 23, 3
   7              		.eabi_attribute 24, 1
   8              		.eabi_attribute 25, 1
   9              		.eabi_attribute 26, 1
  10              		.eabi_attribute 30, 2
  11              		.eabi_attribute 34, 1
  12              		.eabi_attribute 18, 4
  13              		.thumb
  14              		.file	"tcpip.c"
  15              		.text
  16              	.Ltext0:
  17              		.cfi_sections	.debug_frame
  18              		.section	.text.pbuf_free_int,"ax",%progbits
  19              		.align	2
  20              		.p2align 4,,15
  21              		.thumb
  22              		.thumb_func
  23              		.type	pbuf_free_int, %function
  24              	pbuf_free_int:
  25              	.LFB14:
  26              		.file 1 "../../ext/lwip-1.4.0/src/api/tcpip.c"
  27              		.loc 1 430 0
  28              		.cfi_startproc
  29              		@ args = 0, pretend = 0, frame = 0
  30              		@ frame_needed = 0, uses_anonymous_args = 0
  31              		@ link register save eliminated.
  32              	.LVL0:
  33              		.loc 1 433 0
  34              		.loc 1 432 0
  35 0000 FFF7FEBF 		b	pbuf_free
  36              	.LVL1:
  37              		.cfi_endproc
  38              	.LFE14:
  39              		.size	pbuf_free_int, .-pbuf_free_int
  40 0004 AFF30080 		.section	.text.tcpip_thread,"ax",%progbits
  40      AFF30080 
  40      AFF30080 
  41              		.align	2
  42              		.p2align 4,,15
  43              		.thumb
  44              		.thumb_func
  45              		.type	tcpip_thread, %function
  46              	tcpip_thread:
  47              	.LFB7:
  48              		.loc 1 75 0
  49              		.cfi_startproc
  50              		@ args = 0, pretend = 0, frame = 8
  51              		@ frame_needed = 0, uses_anonymous_args = 0
  52              	.LVL2:
  53 0000 10B5     		push	{r4, lr}
  54              	.LCFI0:
  55              		.cfi_def_cfa_offset 8
ARM GAS  /var/folders/5n/p_75w94d66l9ssrldxqdhh700000gn/T//ccHvVlNA.s 			page 2


  56              		.cfi_offset 4, -8
  57              		.cfi_offset 14, -4
  58              		.loc 1 79 0
  59 0002 254B     		ldr	r3, .L19
  60 0004 1B68     		ldr	r3, [r3, #0]
  61              		.loc 1 75 0
  62 0006 82B0     		sub	sp, sp, #8
  63              	.LCFI1:
  64              		.cfi_def_cfa_offset 16
  65              		.loc 1 79 0
  66 0008 13B1     		cbz	r3, .L17
  67              		.loc 1 80 0
  68 000a 244A     		ldr	r2, .L19+4
  69 000c 1068     		ldr	r0, [r2, #0]
  70              	.LVL3:
  71 000e 9847     		blx	r3
  72              	.LVL4:
  73              	.L17:
  74 0010 01AC     		add	r4, sp, #4
  75              	.LVL5:
  76              	.L16:
  77              		.loc 1 88 0
  78 0012 2146     		mov	r1, r4
  79 0014 2248     		ldr	r0, .L19+8
  80 0016 FFF7FEFF 		bl	sys_timeouts_mbox_fetch
  81              	.LVL6:
  82              		.loc 1 90 0
  83 001a 019B     		ldr	r3, [sp, #4]
  84 001c 1A78     		ldrb	r2, [r3, #0]	@ zero_extendqisi2
  85 001e 042A     		cmp	r2, #4
  86 0020 33D8     		bhi	.L6
  87 0022 DFE802F0 		tbb	[pc, r2]
  88              	.L12:
  89 0026 2D       		.byte	(.L7-.L12)/2
  90 0027 1E       		.byte	(.L8-.L12)/2
  91 0028 14       		.byte	(.L9-.L12)/2
  92 0029 0B       		.byte	(.L10-.L12)/2
  93 002a 03       		.byte	(.L11-.L12)/2
  94 002b 00       		.align	1
  95              	.L11:
  96              		.loc 1 122 0
  97 002c D868     		ldr	r0, [r3, #12]
  98 002e 9B68     		ldr	r3, [r3, #8]
  99 0030 9847     		blx	r3
 100              	.LVL7:
 101              		.loc 1 123 0
 102 0032 0920     		movs	r0, #9
 103 0034 0199     		ldr	r1, [sp, #4]
 104 0036 FFF7FEFF 		bl	memp_free
 105              	.LVL8:
 106              		.loc 1 124 0
 107 003a EAE7     		b	.L16
 108              	.L10:
 109              		.loc 1 134 0
 110 003c D868     		ldr	r0, [r3, #12]
 111 003e 1969     		ldr	r1, [r3, #16]
 112 0040 FFF7FEFF 		bl	sys_untimeout
ARM GAS  /var/folders/5n/p_75w94d66l9ssrldxqdhh700000gn/T//ccHvVlNA.s 			page 3


 113              	.LVL9:
 114              		.loc 1 135 0
 115 0044 0920     		movs	r0, #9
 116 0046 0199     		ldr	r1, [sp, #4]
 117 0048 FFF7FEFF 		bl	memp_free
 118              	.LVL10:
 119              		.loc 1 136 0
 120 004c E1E7     		b	.L16
 121              	.L9:
 122              		.loc 1 129 0
 123 004e 03F10800 		add	r0, r3, #8
 124 0052 07C8     		ldmia	r0, {r0, r1, r2}
 125 0054 FFF7FEFF 		bl	sys_timeout
 126              	.LVL11:
 127              		.loc 1 130 0
 128 0058 0920     		movs	r0, #9
 129 005a 0199     		ldr	r1, [sp, #4]
 130 005c FFF7FEFF 		bl	memp_free
 131              	.LVL12:
 132              		.loc 1 131 0
 133 0060 D7E7     		b	.L16
 134              	.L8:
 135              		.loc 1 102 0
 136 0062 DA68     		ldr	r2, [r3, #12]
 137              		.loc 1 103 0
 138 0064 9868     		ldr	r0, [r3, #8]
 139              		.loc 1 102 0
 140 0066 92F82910 		ldrb	r1, [r2, #41]	@ zero_extendqisi2
 141 006a 11F0600F 		tst	r1, #96
 142              		.loc 1 107 0
 143 006e 1146     		mov	r1, r2
 144              		.loc 1 102 0
 145 0070 0ED0     		beq	.L14
 146              		.loc 1 103 0
 147 0072 FFF7FEFF 		bl	ethernet_input
 148              	.LVL13:
 149              	.L15:
 150              		.loc 1 109 0
 151 0076 0A20     		movs	r0, #10
 152 0078 0199     		ldr	r1, [sp, #4]
 153 007a FFF7FEFF 		bl	memp_free
 154              	.LVL14:
 155              		.loc 1 110 0
 156 007e C8E7     		b	.L16
 157              	.L7:
 158              		.loc 1 94 0
 159 0080 9868     		ldr	r0, [r3, #8]
 160 0082 0368     		ldr	r3, [r0, #0]
 161 0084 0430     		adds	r0, r0, #4
 162 0086 9847     		blx	r3
 163              	.LVL15:
 164              		.loc 1 95 0
 165 0088 C3E7     		b	.L16
 166              	.L6:
 167              		.loc 1 141 0 discriminator 1
 168 008a FFF7FEFF 		bl	port_halt
 169              	.LVL16:
ARM GAS  /var/folders/5n/p_75w94d66l9ssrldxqdhh700000gn/T//ccHvVlNA.s 			page 4


 170              		.loc 1 142 0 discriminator 1
 171 008e C0E7     		b	.L16
 172              	.L14:
 173              		.loc 1 107 0
 174 0090 FFF7FEFF 		bl	ip_input
 175              	.LVL17:
 176 0094 EFE7     		b	.L15
 177              	.L20:
 178 0096 00BF     		.align	2
 179              	.L19:
 180 0098 00000000 		.word	.LANCHOR0
 181 009c 00000000 		.word	.LANCHOR1
 182 00a0 00000000 		.word	.LANCHOR2
 183              		.cfi_endproc
 184              	.LFE7:
 185              		.size	tcpip_thread, .-tcpip_thread
 186 00a4 AFF30080 		.section	.text.tcpip_input,"ax",%progbits
 186      AFF30080 
 186      AFF30080 
 187              		.align	2
 188              		.p2align 4,,15
 189              		.global	tcpip_input
 190              		.thumb
 191              		.thumb_func
 192              		.type	tcpip_input, %function
 193              	tcpip_input:
 194              	.LFB8:
 195              		.loc 1 157 0
 196              		.cfi_startproc
 197              		@ args = 0, pretend = 0, frame = 0
 198              		@ frame_needed = 0, uses_anonymous_args = 0
 199              	.LVL18:
 200 0000 70B5     		push	{r4, r5, r6, lr}
 201              	.LCFI2:
 202              		.cfi_def_cfa_offset 16
 203              		.cfi_offset 4, -16
 204              		.cfi_offset 5, -12
 205              		.cfi_offset 6, -8
 206              		.cfi_offset 14, -4
 207              		.loc 1 157 0
 208 0002 0646     		mov	r6, r0
 209              		.loc 1 175 0
 210 0004 0F48     		ldr	r0, .L27
 211              	.LVL19:
 212              		.loc 1 157 0
 213 0006 0D46     		mov	r5, r1
 214              		.loc 1 175 0
 215 0008 FFF7FEFF 		bl	sys_mbox_valid
 216              	.LVL20:
 217 000c 78B1     		cbz	r0, .L23
 218              		.loc 1 176 0
 219 000e 0A20     		movs	r0, #10
 220 0010 FFF7FEFF 		bl	memp_malloc
 221              	.LVL21:
 222              		.loc 1 177 0
 223 0014 0446     		mov	r4, r0
 224 0016 60B1     		cbz	r0, .L24
ARM GAS  /var/folders/5n/p_75w94d66l9ssrldxqdhh700000gn/T//ccHvVlNA.s 			page 5


 225              		.loc 1 181 0
 226 0018 0123     		movs	r3, #1
 227 001a 0370     		strb	r3, [r0, #0]
 228              		.loc 1 182 0
 229 001c 8660     		str	r6, [r0, #8]
 230              		.loc 1 183 0
 231 001e C560     		str	r5, [r0, #12]
 232              		.loc 1 184 0
 233 0020 2146     		mov	r1, r4
 234 0022 0848     		ldr	r0, .L27
 235              	.LVL22:
 236 0024 FFF7FEFF 		bl	sys_mbox_trypost
 237              	.LVL23:
 238 0028 28B9     		cbnz	r0, .L26
 239              	.LVL24:
 240              	.L22:
 241              		.loc 1 192 0
 242 002a 40B2     		sxtb	r0, r0
 243 002c 70BD     		pop	{r4, r5, r6, pc}
 244              	.L23:
 245              		.loc 1 190 0
 246 002e FA20     		movs	r0, #250
 247 0030 FBE7     		b	.L22
 248              	.LVL25:
 249              	.L24:
 250              		.loc 1 178 0
 251 0032 FF20     		movs	r0, #255
 252              	.LVL26:
 253 0034 F9E7     		b	.L22
 254              	.L26:
 255              		.loc 1 185 0
 256 0036 0A20     		movs	r0, #10
 257 0038 2146     		mov	r1, r4
 258 003a FFF7FEFF 		bl	memp_free
 259              	.LVL27:
 260              		.loc 1 186 0
 261 003e FF20     		movs	r0, #255
 262 0040 F3E7     		b	.L22
 263              	.L28:
 264 0042 00BF     		.align	2
 265              	.L27:
 266 0044 00000000 		.word	.LANCHOR2
 267              		.cfi_endproc
 268              	.LFE8:
 269              		.size	tcpip_input, .-tcpip_input
 270 0048 AFF30080 		.section	.text.tcpip_callback_with_block,"ax",%progbits
 270      AFF30080 
 271              		.align	2
 272              		.p2align 4,,15
 273              		.global	tcpip_callback_with_block
 274              		.thumb
 275              		.thumb_func
 276              		.type	tcpip_callback_with_block, %function
 277              	tcpip_callback_with_block:
 278              	.LFB9:
 279              		.loc 1 207 0
 280              		.cfi_startproc
ARM GAS  /var/folders/5n/p_75w94d66l9ssrldxqdhh700000gn/T//ccHvVlNA.s 			page 6


 281              		@ args = 0, pretend = 0, frame = 0
 282              		@ frame_needed = 0, uses_anonymous_args = 0
 283              	.LVL28:
 284 0000 F8B5     		push	{r3, r4, r5, r6, r7, lr}
 285              	.LCFI3:
 286              		.cfi_def_cfa_offset 24
 287              		.cfi_offset 3, -24
 288              		.cfi_offset 4, -20
 289              		.cfi_offset 5, -16
 290              		.cfi_offset 6, -12
 291              		.cfi_offset 7, -8
 292              		.cfi_offset 14, -4
 293              		.loc 1 207 0
 294 0002 0746     		mov	r7, r0
 295              		.loc 1 210 0
 296 0004 1248     		ldr	r0, .L37
 297              	.LVL29:
 298              		.loc 1 207 0
 299 0006 0E46     		mov	r6, r1
 300 0008 1546     		mov	r5, r2
 301              		.loc 1 210 0
 302 000a FFF7FEFF 		bl	sys_mbox_valid
 303              	.LVL30:
 304 000e A8B1     		cbz	r0, .L32
 305              		.loc 1 211 0
 306 0010 0920     		movs	r0, #9
 307 0012 FFF7FEFF 		bl	memp_malloc
 308              	.LVL31:
 309              		.loc 1 212 0
 310 0016 0446     		mov	r4, r0
 311 0018 C0B1     		cbz	r0, .L33
 312              		.loc 1 216 0
 313 001a 0423     		movs	r3, #4
 314 001c 0370     		strb	r3, [r0, #0]
 315              		.loc 1 217 0
 316 001e 8760     		str	r7, [r0, #8]
 317              		.loc 1 218 0
 318 0020 C660     		str	r6, [r0, #12]
 319              		.loc 1 220 0
 320 0022 2146     		mov	r1, r4
 321 0024 0A48     		ldr	r0, .L37
 322              	.LVL32:
 323              		.loc 1 219 0
 324 0026 25B9     		cbnz	r5, .L35
 325              		.loc 1 222 0
 326 0028 FFF7FEFF 		bl	sys_mbox_trypost
 327              	.LVL33:
 328 002c 40B9     		cbnz	r0, .L36
 329              	.LVL34:
 330              	.L30:
 331              		.loc 1 230 0
 332 002e 40B2     		sxtb	r0, r0
 333 0030 F8BD     		pop	{r3, r4, r5, r6, r7, pc}
 334              	.LVL35:
 335              	.L35:
 336              		.loc 1 220 0
 337 0032 FFF7FEFF 		bl	sys_mbox_post
ARM GAS  /var/folders/5n/p_75w94d66l9ssrldxqdhh700000gn/T//ccHvVlNA.s 			page 7


 338              	.LVL36:
 339              		.loc 1 227 0
 340 0036 0020     		movs	r0, #0
 341              		.loc 1 230 0
 342 0038 40B2     		sxtb	r0, r0
 343 003a F8BD     		pop	{r3, r4, r5, r6, r7, pc}
 344              	.LVL37:
 345              	.L32:
 346              		.loc 1 229 0
 347 003c FA20     		movs	r0, #250
 348 003e F6E7     		b	.L30
 349              	.LVL38:
 350              	.L36:
 351              		.loc 1 223 0
 352 0040 0920     		movs	r0, #9
 353 0042 2146     		mov	r1, r4
 354 0044 FFF7FEFF 		bl	memp_free
 355              	.LVL39:
 356              		.loc 1 224 0
 357 0048 FF20     		movs	r0, #255
 358 004a F0E7     		b	.L30
 359              	.LVL40:
 360              	.L33:
 361              		.loc 1 213 0
 362 004c FF20     		movs	r0, #255
 363              	.LVL41:
 364 004e EEE7     		b	.L30
 365              	.L38:
 366              		.align	2
 367              	.L37:
 368 0050 00000000 		.word	.LANCHOR2
 369              		.cfi_endproc
 370              	.LFE9:
 371              		.size	tcpip_callback_with_block, .-tcpip_callback_with_block
 372 0054 AFF30080 		.section	.text.tcpip_timeout,"ax",%progbits
 372      AFF30080 
 372      AFF30080 
 373              		.align	2
 374              		.p2align 4,,15
 375              		.global	tcpip_timeout
 376              		.thumb
 377              		.thumb_func
 378              		.type	tcpip_timeout, %function
 379              	tcpip_timeout:
 380              	.LFB10:
 381              		.loc 1 243 0
 382              		.cfi_startproc
 383              		@ args = 0, pretend = 0, frame = 0
 384              		@ frame_needed = 0, uses_anonymous_args = 0
 385              	.LVL42:
 386 0000 70B5     		push	{r4, r5, r6, lr}
 387              	.LCFI4:
 388              		.cfi_def_cfa_offset 16
 389              		.cfi_offset 4, -16
 390              		.cfi_offset 5, -12
 391              		.cfi_offset 6, -8
 392              		.cfi_offset 14, -4
ARM GAS  /var/folders/5n/p_75w94d66l9ssrldxqdhh700000gn/T//ccHvVlNA.s 			page 8


 393              		.loc 1 243 0
 394 0002 0646     		mov	r6, r0
 395              		.loc 1 246 0
 396 0004 0C48     		ldr	r0, .L43
 397              	.LVL43:
 398              		.loc 1 243 0
 399 0006 0D46     		mov	r5, r1
 400 0008 1446     		mov	r4, r2
 401              		.loc 1 246 0
 402 000a FFF7FEFF 		bl	sys_mbox_valid
 403              	.LVL44:
 404 000e 78B1     		cbz	r0, .L41
 405              		.loc 1 247 0
 406 0010 0920     		movs	r0, #9
 407 0012 FFF7FEFF 		bl	memp_malloc
 408              	.LVL45:
 409              		.loc 1 248 0
 410 0016 0146     		mov	r1, r0
 411 0018 60B1     		cbz	r0, .L42
 412              		.loc 1 252 0
 413 001a 0222     		movs	r2, #2
 414 001c 0270     		strb	r2, [r0, #0]
 415              		.loc 1 253 0
 416 001e 8660     		str	r6, [r0, #8]
 417              		.loc 1 254 0
 418 0020 C560     		str	r5, [r0, #12]
 419              		.loc 1 255 0
 420 0022 0461     		str	r4, [r0, #16]
 421              		.loc 1 256 0
 422 0024 0448     		ldr	r0, .L43
 423              	.LVL46:
 424 0026 FFF7FEFF 		bl	sys_mbox_post
 425              	.LVL47:
 426              		.loc 1 257 0
 427 002a 0020     		movs	r0, #0
 428              	.L40:
 429              		.loc 1 260 0
 430 002c 40B2     		sxtb	r0, r0
 431 002e 70BD     		pop	{r4, r5, r6, pc}
 432              	.L41:
 433              		.loc 1 259 0
 434 0030 FA20     		movs	r0, #250
 435 0032 FBE7     		b	.L40
 436              	.LVL48:
 437              	.L42:
 438              		.loc 1 249 0
 439 0034 FF20     		movs	r0, #255
 440              	.LVL49:
 441 0036 F9E7     		b	.L40
 442              	.L44:
 443              		.align	2
 444              	.L43:
 445 0038 00000000 		.word	.LANCHOR2
 446              		.cfi_endproc
 447              	.LFE10:
 448              		.size	tcpip_timeout, .-tcpip_timeout
 449 003c AFF30080 		.section	.text.tcpip_untimeout,"ax",%progbits
ARM GAS  /var/folders/5n/p_75w94d66l9ssrldxqdhh700000gn/T//ccHvVlNA.s 			page 9


 450              		.align	2
 451              		.p2align 4,,15
 452              		.global	tcpip_untimeout
 453              		.thumb
 454              		.thumb_func
 455              		.type	tcpip_untimeout, %function
 456              	tcpip_untimeout:
 457              	.LFB11:
 458              		.loc 1 272 0
 459              		.cfi_startproc
 460              		@ args = 0, pretend = 0, frame = 0
 461              		@ frame_needed = 0, uses_anonymous_args = 0
 462              	.LVL50:
 463 0000 38B5     		push	{r3, r4, r5, lr}
 464              	.LCFI5:
 465              		.cfi_def_cfa_offset 16
 466              		.cfi_offset 3, -16
 467              		.cfi_offset 4, -12
 468              		.cfi_offset 5, -8
 469              		.cfi_offset 14, -4
 470              		.loc 1 272 0
 471 0002 0546     		mov	r5, r0
 472              		.loc 1 275 0
 473 0004 0B48     		ldr	r0, .L49
 474              	.LVL51:
 475              		.loc 1 272 0
 476 0006 0C46     		mov	r4, r1
 477              		.loc 1 275 0
 478 0008 FFF7FEFF 		bl	sys_mbox_valid
 479              	.LVL52:
 480 000c 70B1     		cbz	r0, .L47
 481              		.loc 1 276 0
 482 000e 0920     		movs	r0, #9
 483 0010 FFF7FEFF 		bl	memp_malloc
 484              	.LVL53:
 485              		.loc 1 277 0
 486 0014 0146     		mov	r1, r0
 487 0016 58B1     		cbz	r0, .L48
 488              		.loc 1 281 0
 489 0018 0322     		movs	r2, #3
 490 001a 0270     		strb	r2, [r0, #0]
 491              		.loc 1 282 0
 492 001c C560     		str	r5, [r0, #12]
 493              		.loc 1 283 0
 494 001e 0461     		str	r4, [r0, #16]
 495              		.loc 1 284 0
 496 0020 0448     		ldr	r0, .L49
 497              	.LVL54:
 498 0022 FFF7FEFF 		bl	sys_mbox_post
 499              	.LVL55:
 500              		.loc 1 285 0
 501 0026 0020     		movs	r0, #0
 502              	.L46:
 503              		.loc 1 288 0
 504 0028 40B2     		sxtb	r0, r0
 505 002a 38BD     		pop	{r3, r4, r5, pc}
 506              	.L47:
ARM GAS  /var/folders/5n/p_75w94d66l9ssrldxqdhh700000gn/T//ccHvVlNA.s 			page 10


 507              		.loc 1 287 0
 508 002c FA20     		movs	r0, #250
 509 002e FBE7     		b	.L46
 510              	.LVL56:
 511              	.L48:
 512              		.loc 1 278 0
 513 0030 FF20     		movs	r0, #255
 514              	.LVL57:
 515 0032 F9E7     		b	.L46
 516              	.L50:
 517              		.align	2
 518              	.L49:
 519 0034 00000000 		.word	.LANCHOR2
 520              		.cfi_endproc
 521              	.LFE11:
 522              		.size	tcpip_untimeout, .-tcpip_untimeout
 523 0038 AFF30080 		.section	.text.tcpip_apimsg,"ax",%progbits
 523      AFF30080 
 524              		.align	2
 525              		.p2align 4,,15
 526              		.global	tcpip_apimsg
 527              		.thumb
 528              		.thumb_func
 529              		.type	tcpip_apimsg, %function
 530              	tcpip_apimsg:
 531              	.LFB12:
 532              		.loc 1 302 0
 533              		.cfi_startproc
 534              		@ args = 0, pretend = 0, frame = 24
 535              		@ frame_needed = 0, uses_anonymous_args = 0
 536              	.LVL58:
 537 0000 30B5     		push	{r4, r5, lr}
 538              	.LCFI6:
 539              		.cfi_def_cfa_offset 12
 540              		.cfi_offset 4, -12
 541              		.cfi_offset 5, -8
 542              		.cfi_offset 14, -4
 543 0002 0446     		mov	r4, r0
 544 0004 87B0     		sub	sp, sp, #28
 545              	.LCFI7:
 546              		.cfi_def_cfa_offset 40
 547              		.loc 1 309 0
 548 0006 0B48     		ldr	r0, .L54
 549              	.LVL59:
 550 0008 FFF7FEFF 		bl	sys_mbox_valid
 551              	.LVL60:
 552 000c 80B1     		cbz	r0, .L53
 553              		.loc 1 310 0
 554 000e 0025     		movs	r5, #0
 555              		.loc 1 312 0
 556 0010 0848     		ldr	r0, .L54
 557              		.loc 1 310 0
 558 0012 8DF80450 		strb	r5, [sp, #4]
 559              		.loc 1 312 0
 560 0016 01A9     		add	r1, sp, #4
 561              		.loc 1 311 0
 562 0018 0394     		str	r4, [sp, #12]
ARM GAS  /var/folders/5n/p_75w94d66l9ssrldxqdhh700000gn/T//ccHvVlNA.s 			page 11


 563              		.loc 1 312 0
 564 001a FFF7FEFF 		bl	sys_mbox_post
 565              	.LVL61:
 566              		.loc 1 313 0
 567 001e 6068     		ldr	r0, [r4, #4]
 568 0020 2946     		mov	r1, r5
 569 0022 0C30     		adds	r0, r0, #12
 570 0024 FFF7FEFF 		bl	sys_arch_sem_wait
 571              	.LVL62:
 572              		.loc 1 314 0
 573 0028 207A     		ldrb	r0, [r4, #8]	@ zero_extendqisi2
 574              	.L52:
 575              		.loc 1 317 0
 576 002a 40B2     		sxtb	r0, r0
 577 002c 07B0     		add	sp, sp, #28
 578 002e 30BD     		pop	{r4, r5, pc}
 579              	.L53:
 580              		.loc 1 316 0
 581 0030 FA20     		movs	r0, #250
 582 0032 FAE7     		b	.L52
 583              	.L55:
 584              		.align	2
 585              	.L54:
 586 0034 00000000 		.word	.LANCHOR2
 587              		.cfi_endproc
 588              	.LFE12:
 589              		.size	tcpip_apimsg, .-tcpip_apimsg
 590 0038 AFF30080 		.section	.text.tcpip_init,"ax",%progbits
 590      AFF30080 
 591              		.align	2
 592              		.p2align 4,,15
 593              		.global	tcpip_init
 594              		.thumb
 595              		.thumb_func
 596              		.type	tcpip_init, %function
 597              	tcpip_init:
 598              	.LFB13:
 599              		.loc 1 405 0
 600              		.cfi_startproc
 601              		@ args = 0, pretend = 0, frame = 0
 602              		@ frame_needed = 0, uses_anonymous_args = 0
 603              	.LVL63:
 604 0000 30B5     		push	{r4, r5, lr}
 605              	.LCFI8:
 606              		.cfi_def_cfa_offset 12
 607              		.cfi_offset 4, -12
 608              		.cfi_offset 5, -8
 609              		.cfi_offset 14, -4
 610 0002 83B0     		sub	sp, sp, #12
 611              	.LCFI9:
 612              		.cfi_def_cfa_offset 24
 613              		.loc 1 405 0
 614 0004 0546     		mov	r5, r0
 615 0006 0C46     		mov	r4, r1
 616              		.loc 1 406 0
 617 0008 FFF7FEFF 		bl	lwip_init
 618              	.LVL64:
ARM GAS  /var/folders/5n/p_75w94d66l9ssrldxqdhh700000gn/T//ccHvVlNA.s 			page 12


 619              		.loc 1 408 0
 620 000c 0A4B     		ldr	r3, .L61
 621              		.loc 1 410 0
 622 000e 0B48     		ldr	r0, .L61+4
 623              		.loc 1 408 0
 624 0010 1D60     		str	r5, [r3, #0]
 625              		.loc 1 409 0
 626 0012 0B4B     		ldr	r3, .L61+8
 627              		.loc 1 410 0
 628 0014 0421     		movs	r1, #4
 629              		.loc 1 409 0
 630 0016 1C60     		str	r4, [r3, #0]
 631              		.loc 1 410 0
 632 0018 FFF7FEFF 		bl	sys_mbox_new
 633              	.LVL65:
 634 001c 08B1     		cbz	r0, .L57
 635              		.loc 1 411 0 discriminator 1
 636 001e FFF7FEFF 		bl	port_halt
 637              	.LVL66:
 638              	.L57:
 639              		.loc 1 419 0
 640 0022 0323     		movs	r3, #3
 641 0024 0093     		str	r3, [sp, #0]
 642 0026 0749     		ldr	r1, .L61+12
 643 0028 0748     		ldr	r0, .L61+16
 644 002a 0022     		movs	r2, #0
 645 002c 4FF48063 		mov	r3, #1024
 646 0030 FFF7FEFF 		bl	sys_thread_new
 647              	.LVL67:
 648              		.loc 1 420 0
 649 0034 03B0     		add	sp, sp, #12
 650 0036 30BD     		pop	{r4, r5, pc}
 651              	.L62:
 652              		.align	2
 653              	.L61:
 654 0038 00000000 		.word	.LANCHOR0
 655 003c 00000000 		.word	.LANCHOR2
 656 0040 00000000 		.word	.LANCHOR1
 657 0044 00000000 		.word	tcpip_thread
 658 0048 00000000 		.word	.LC0
 659              		.cfi_endproc
 660              	.LFE13:
 661              		.size	tcpip_init, .-tcpip_init
 662 004c AFF30080 		.section	.text.pbuf_free_callback,"ax",%progbits
 663              		.align	2
 664              		.p2align 4,,15
 665              		.global	pbuf_free_callback
 666              		.thumb
 667              		.thumb_func
 668              		.type	pbuf_free_callback, %function
 669              	pbuf_free_callback:
 670              	.LFB15:
 671              		.loc 1 443 0
 672              		.cfi_startproc
 673              		@ args = 0, pretend = 0, frame = 0
 674              		@ frame_needed = 0, uses_anonymous_args = 0
 675              		@ link register save eliminated.
ARM GAS  /var/folders/5n/p_75w94d66l9ssrldxqdhh700000gn/T//ccHvVlNA.s 			page 13


 676              	.LVL68:
 677              		.loc 1 443 0
 678 0000 0146     		mov	r1, r0
 679              		.loc 1 444 0
 680 0002 40F20000 		movw	r0, #:lower16:pbuf_free_int
 681              	.LVL69:
 682 0006 C0F20000 		movt	r0, #:upper16:pbuf_free_int
 683 000a 0022     		movs	r2, #0
 684              		.loc 1 445 0
 685              		.loc 1 444 0
 686 000c FFF7FEBF 		b	tcpip_callback_with_block
 687              	.LVL70:
 688              		.cfi_endproc
 689              	.LFE15:
 690              		.size	pbuf_free_callback, .-pbuf_free_callback
 691              		.section	.text.mem_free_callback,"ax",%progbits
 692              		.align	2
 693              		.p2align 4,,15
 694              		.global	mem_free_callback
 695              		.thumb
 696              		.thumb_func
 697              		.type	mem_free_callback, %function
 698              	mem_free_callback:
 699              	.LFB16:
 700              		.loc 1 456 0
 701              		.cfi_startproc
 702              		@ args = 0, pretend = 0, frame = 0
 703              		@ frame_needed = 0, uses_anonymous_args = 0
 704              		@ link register save eliminated.
 705              	.LVL71:
 706              		.loc 1 456 0
 707 0000 0146     		mov	r1, r0
 708              		.loc 1 457 0
 709 0002 40F20000 		movw	r0, #:lower16:mem_free
 710              	.LVL72:
 711 0006 C0F20000 		movt	r0, #:upper16:mem_free
 712 000a 0022     		movs	r2, #0
 713              		.loc 1 458 0
 714              		.loc 1 457 0
 715 000c FFF7FEBF 		b	tcpip_callback_with_block
 716              	.LVL73:
 717              		.cfi_endproc
 718              	.LFE16:
 719              		.size	mem_free_callback, .-mem_free_callback
 720              		.section	.rodata.str1.4,"aMS",%progbits,1
 721              		.align	2
 722              	.LC0:
 723 0000 74637069 		.ascii	"tcpip_thread\000"
 723      705F7468 
 723      72656164 
 723      00
 724 000d 000000   		.section	.bss.mbox,"aw",%nobits
 725              		.align	2
 726              		.set	.LANCHOR2,. + 0
 727              		.type	mbox, %object
 728              		.size	mbox, 4
 729              	mbox:
ARM GAS  /var/folders/5n/p_75w94d66l9ssrldxqdhh700000gn/T//ccHvVlNA.s 			page 14


 730 0000 00000000 		.space	4
 731              		.section	.bss.tcpip_init_done_arg,"aw",%nobits
 732              		.align	2
 733              		.set	.LANCHOR1,. + 0
 734              		.type	tcpip_init_done_arg, %object
 735              		.size	tcpip_init_done_arg, 4
 736              	tcpip_init_done_arg:
 737 0000 00000000 		.space	4
 738              		.section	.bss.tcpip_init_done,"aw",%nobits
 739              		.align	2
 740              		.set	.LANCHOR0,. + 0
 741              		.type	tcpip_init_done, %object
 742              		.size	tcpip_init_done, 4
 743              	tcpip_init_done:
 744 0000 00000000 		.space	4
 745              		.text
 746              	.Letext0:
 747              		.file 2 "/usr/local/cross/lib/gcc/arm-none-eabi/4.7.2/include/stddef.h"
 748              		.file 3 "/usr/local/cross/lib/gcc/arm-none-eabi/4.7.2/../../../../arm-none-eabi/include/stdint.h"
 749              		.file 4 "../../os/ports/GCC/ARMCMx/chtypes.h"
 750              		.file 5 "../../os/kernel/include/chlists.h"
 751              		.file 6 "../../os/kernel/include/chthreads.h"
 752              		.file 7 "../../os/ports/GCC/ARMCMx/chcore_v7m.h"
 753              		.file 8 "../../os/kernel/include/chsem.h"
 754              		.file 9 "../../os/kernel/include/chmtx.h"
 755              		.file 10 "../../os/kernel/include/chmboxes.h"
 756              		.file 11 "../../os/various/lwip_bindings/arch/cc.h"
 757              		.file 12 "../../ext/lwip-1.4.0/src/include/lwip/err.h"
 758              		.file 13 "../../os/various/lwip_bindings/arch/sys_arch.h"
 759              		.file 14 "../../ext/lwip-1.4.0/src/include/lwip/sys.h"
 760              		.file 15 "../../ext/lwip-1.4.0/src/include/lwip/memp.h"
 761              		.file 16 "../../ext/lwip-1.4.0/src/include/lwip/pbuf.h"
 762              		.file 17 "../../ext/lwip-1.4.0/src/include/ipv4/lwip/ip_addr.h"
 763              		.file 18 "../../ext/lwip-1.4.0/src/include/lwip/netif.h"
 764              		.file 19 "../../ext/lwip-1.4.0/src/include/lwip/netbuf.h"
 765              		.file 20 "../../ext/lwip-1.4.0/src/include/lwip/api.h"
 766              		.file 21 "../../ext/lwip-1.4.0/src/include/ipv4/lwip/ip.h"
 767              		.file 22 "../../ext/lwip-1.4.0/src/include/lwip/api_msg.h"
 768              		.file 23 "../../ext/lwip-1.4.0/src/include/lwip/timers.h"
 769              		.file 24 "../../ext/lwip-1.4.0/src/include/lwip/tcpip.h"
 770              		.file 25 "../../ext/lwip-1.4.0/src/include/netif/etharp.h"
 771              		.file 26 "../../ext/lwip-1.4.0/src/include/lwip/init.h"