ARM GAS  /var/folders/5n/p_75w94d66l9ssrldxqdhh700000gn/T//ccHvVlNA.s 			page 1


   1              		.syntax unified
   2              		.cpu cortex-m4
   3              		.fpu softvfp
   4              		.eabi_attribute 20, 1
   5              		.eabi_attribute 21, 1
   6              		.eabi_attribute 23, 3
   7              		.eabi_attribute 24, 1
   8              		.eabi_attribute 25, 1
   9              		.eabi_attribute 26, 1
  10              		.eabi_attribute 30, 2
  11              		.eabi_attribute 34, 1
  12              		.eabi_attribute 18, 4
  13              		.thumb
  14              		.file	"tcpip.c"
  15              		.text
  16              	.Ltext0:
  17              		.cfi_sections	.debug_frame
  18              		.section	.text.pbuf_free_int,"ax",%progbits
  19              		.align	2
  20              		.p2align 4,,15
  21              		.thumb
  22              		.thumb_func
  23              		.type	pbuf_free_int, %function
  24              	pbuf_free_int:
  25              	.LFB14:
  26              		.file 1 "../../ext/lwip-1.4.0/src/api/tcpip.c"
  27              		.loc 1 430 0
  28              		.cfi_startproc
  29              		@ args = 0, pretend = 0, frame = 0
  30              		@ frame_needed = 0, uses_anonymous_args = 0
  31              		@ link register save eliminated.
  32              	.LVL0:
  33              		.loc 1 433 0
  34              		.loc 1 432 0
  35 0000 FFF7FEBF 		b	pbuf_free
  36              	.LVL1:
  37              		.cfi_endproc
  38              	.LFE14:
  39              		.size	pbuf_free_int, .-pbuf_free_int
  40 0004 AFF30080 		.section	.text.tcpip_thread,"ax",%progbits
  40      AFF30080 
  40      AFF30080 
  41              		.align	2
  42              		.p2align 4,,15
  43              		.thumb
  44              		.thumb_func
  45              		.type	tcpip_thread, %function
  46              	tcpip_thread:
  47              	.LFB7:
  48              		.loc 1 75 0
  49              		.cfi_startproc
  50              		@ args = 0, pretend = 0, frame = 8
  51              		@ frame_needed = 0, uses_anonymous_args = 0
  52              	.LVL2:
  53 0000 10B5     		push	{r4, lr}
  54              	.LCFI0:
  55              		.cfi_def_cfa_offset 8
ARM GAS  /var/folders/5n/p_75w94d66l9ssrldxqdhh700000gn/T//ccHvVlNA.s 			page 2


  56              		.cfi_offset 4, -8
  57              		.cfi_offset 14, -4
  58              		.loc 1 79 0
  59 0002 254B     		ldr	r3, .L19
  60 0004 1B68     		ldr	r3, [r3, #0]
  61              		.loc 1 75 0
  62 0006 82B0     		sub	sp, sp, #8
  63              	.LCFI1:
  64              		.cfi_def_cfa_offset 16
  65              		.loc 1 79 0
  66 0008 13B1     		cbz	r3, .L17
  67              		.loc 1 80 0
  68 000a 244A     		ldr	r2, .L19+4
  69 000c 1068     		ldr	r0, [r2, #0]
  70              	.LVL3:
  71 000e 9847     		blx	r3
  72              	.LVL4:
  73              	.L17:
  74 0010 01AC     		add	r4, sp, #4
  75              	.LVL5:
  76              	.L16:
  77              		.loc 1 88 0
  78 0012 2146     		mov	r1, r4
  79 0014 2248     		ldr	r0, .L19+8
  80 0016 FFF7FEFF 		bl	sys_timeouts_mbox_fetch
  81              	.LVL6:
  82              		.loc 1 90 0
  83 001a 019B     		ldr	r3, [sp, #4]
  84 001c 1A78     		ldrb	r2, [r3, #0]	@ zero_extendqisi2
  85 001e 042A     		cmp	r2, #4
  86 0020 33D8     		bhi	.L6
  87 0022 DFE802F0 		tbb	[pc, r2]
  88              	.L12:
  89 0026 2D       		.byte	(.L7-.L12)/2
  90 0027 1E       		.byte	(.L8-.L12)/2
  91 0028 14       		.byte	(.L9-.L12)/2
  92 0029 0B       		.byte	(.L10-.L12)/2
  93 002a 03       		.byte	(.L11-.L12)/2
  94 002b 00       		.align	1
  95              	.L11:
  96              		.loc 1 122 0
  97 002c D868     		ldr	r0, [r3, #12]
  98 002e 9B68     		ldr	r3, [r3, #8]
  99 0030 9847     		blx	r3
 100              	.LVL7:
 101              		.loc 1 123 0
 102 0032 0920     		movs	r0, #9
 103 0034 0199     		ldr	r1, [sp, #4]
 104 0036 FFF7FEFF 		bl	memp_free
 105              	.LVL8:
 106              		.loc 1 124 0
 107 003a EAE7     		b	.L16
 108              	.L10:
 109              		.loc 1 134 0
 110 003c D868     		ldr	r0, [r3, #12]
 111 003e 1969     		ldr	r1, [r3, #16]
 112 0040 FFF7FEFF 		bl	sys_untimeout
ARM GAS  /var/folders/5n/p_75w94d66l9ssrldxqdhh700000gn/T//ccHvVlNA.s 			page 3


 113              	.LVL9:
 114              		.loc 1 135 0
 115 0044 0920     		movs	r0, #9
 116 0046 0199     		ldr	r1, [sp, #4]
 117 0048 FFF7FEFF 		bl	memp_free
 118              	.LVL10:
 119              		.loc 1 136 0
 120 004c E1E7     		b	.L16
 121              	.L9:
 122              		.loc 1 129 0
 123 004e 03F10800 		add	r0, r3, #8
 124 0052 07C8     		ldmia	r0, {r0, r1, r2}
 125 0054 FFF7FEFF 		bl	sys_timeout
 126              	.LVL11:
 127              		.loc 1 130 0
 128 0058 0920     		movs	r0, #9
 129 005a 0199     		ldr	r1, [sp, #4]
 130 005c FFF7FEFF 		bl	memp_free
 131              	.LVL12:
 132              		.loc 1 131 0
 133 0060 D7E7     		b	.L16
 134              	.L8:
 135              		.loc 1 102 0
 136 0062 DA68     		ldr	r2, [r3, #12]
 137              		.loc 1 103 0
 138 0064 9868     		ldr	r0, [r3, #8]
 139              		.loc 1 102 0
 140 0066 92F82910 		ldrb	r1, [r2, #41]	@ zero_extendqisi2
 141 006a 11F0600F 		tst	r1, #96
 142              		.loc 1 107 0
 143 006e 1146     		mov	r1, r2
 144              		.loc 1 102 0
 145 0070 0ED0     		beq	.L14
 146              		.loc 1 103 0
 147 0072 FFF7FEFF 		bl	ethernet_input
 148              	.LVL13:
 149              	.L15:
 150              		.loc 1 109 0
 151 0076 0A20     		movs	r0, #10
 152 0078 0199     		ldr	r1, [sp, #4]
 153 007a FFF7FEFF 		bl	memp_free
 154              	.LVL14:
 155              		.loc 1 110 0
 156 007e C8E7     		b	.L16
 157              	.L7:
 158              		.loc 1 94 0
 159 0080 9868     		ldr	r0, [r3, #8]
 160 0082 0368     		ldr	r3, [r0, #0]
 161 0084 0430     		adds	r0, r0, #4
 162 0086 9847     		blx	r3
 163              	.LVL15:
 164              		.loc 1 95 0
 165 0088 C3E7     		b	.L16
 166              	.L6:
 167              		.loc 1 141 0 discriminator 1
 168 008a FFF7FEFF 		bl	port_halt
 169              	.LVL16:
ARM GAS  /var/folders/5n/p_75w94d66l9ssrldxqdhh700000gn/T//ccHvVlNA.s 			page 4


 170              		.loc 1 142 0 discriminator 1
 171 008e C0E7     		b	.L16
 172              	.L14:
 173              		.loc 1 107 0
 174 0090 FFF7FEFF 		bl	ip_input
 175              	.LVL17:
 176 0094 EFE7     		b	.L15
 177              	.L20:
 178 0096 00BF     		.align	2
 179              	.L19:
 180 0098 00000000 		.word	.LANCHOR0
 181 009c 00000000 		.word	.LANCHOR1
 182 00a0 00000000 		.word	.LANCHOR2
 183              		.cfi_endproc
 184              	.LFE7:
 185              		.size	tcpip_thread, .-tcpip_thread
 186 00a4 AFF30080 		.section	.text.tcpip_input,"ax",%progbits
 186      AFF30080 
 186      AFF30080 
 187              		.align	2
 188              		.p2align 4,,15
 189              		.global	tcpip_input
 190              		.thumb
 191              		.thumb_func
 192              		.type	tcpip_input, %function
 193              	tcpip_input:
 194              	.LFB8:
 195              		.loc 1 157 0
 196              		.cfi_startproc
 197              		@ args = 0, pretend = 0, frame = 0
 198              		@ frame_needed = 0, uses_anonymous_args = 0
 199              	.LVL18:
 200 0000 70B5     		push	{r4, r5, r6, lr}
 201              	.LCFI2:
 202              		.cfi_def_cfa_offset 16
 203              		.cfi_offset 4, -16
 204              		.cfi_offset 5, -12
 205              		.cfi_offset 6, -8
 206              		.cfi_offset 14, -4
 207              		.loc 1 157 0
 208 0002 0646     		mov	r6, r0
 209              		.loc 1 175 0
 210 0004 0F48     		ldr	r0, .L27
 211              	.LVL19:
 212              		.loc 1 157 0
 213 0006 0D46     		mov	r5, r1
 214              		.loc 1 175 0
 215 0008 FFF7FEFF 		bl	sys_mbox_valid
 216              	.LVL20:
 217 000c 78B1     		cbz	r0, .L23
 218              		.loc 1 176 0
 219 000e 0A20     		movs	r0, #10
 220 0010 FFF7FEFF 		bl	memp_malloc
 221              	.LVL21:
 222              		.loc 1 177 0
 223 0014 0446     		mov	r4, r0
 224 0016 60B1     		cbz	r0, .L24
ARM GAS  /var/folders/5n/p_75w94d66l9ssrldxqdhh700000gn/T//ccHvVlNA.s 			page 5


 225              		.loc 1 181 0
 226 0018 0123     		movs	r3, #1
 227 001a 0370     		strb	r3, [r0, #0]
 228              		.loc 1 182 0
 229 001c 8660     		str	r6, [r0, #8]
 230              		.loc 1 183 0
 231 001e C560     		str	r5, [r0, #12]
 232              		.loc 1 184 0
 233 0020 2146     		mov	r1, r4
 234 0022 0848     		ldr	r0, .L27
 235              	.LVL22:
 236 0024 FFF7FEFF 		bl	sys_mbox_trypost
 237              	.LVL23:
 238 0028 28B9     		cbnz	r0, .L26
 239              	.LVL24:
 240              	.L22:
 241              		.loc 1 192 0
 242 002a 40B2     		sxtb	r0, r0
 243 002c 70BD     		pop	{r4, r5, r6, pc}
 244              	.L23:
 245              		.loc 1 190 0
 246 002e FA20     		movs	r0, #250
 247 0030 FBE7     		b	.L22
 248              	.LVL25:
 249              	.L24:
 250              		.loc 1 178 0
 251 0032 FF20     		movs	r0, #255
 252              	.LVL26:
 253 0034 F9E7     		b	.L22
 254              	.L26:
 255              		.loc 1 185 0
 256 0036 0A20     		movs	r0, #10
 257 0038 2146     		mov	r1, r4
 258 003a FFF7FEFF 		bl	memp_free
 259              	.LVL27:
 260              		.loc 1 186 0
 261 003e FF20     		movs	r0, #255
 262 0040 F3E7     		b	.L22
 263              	.L28:
 264 0042 00BF     		.align	2
 265              	.L27:
 266 0044 00000000 		.word	.LANCHOR2
 267              		.cfi_endproc
 268              	.LFE8:
 269              		.size	tcpip_input, .-tcpip_input
 270 0048 AFF30080 		.section	.text.tcpip_callback_with_block,"ax",%progbits
 270      AFF30080 
 271              		.align	2
 272              		.p2align 4,,15
 273              		.global	tcpip_callback_with_block
 274              		.thumb
 275              		.thumb_func
 276              		.type	tcpip_callback_with_block, %function
 277              	tcpip_callback_with_block:
 278              	.LFB9:
 279              		.loc 1 207 0
 280              		.cfi_startproc
ARM GAS  /var/folders/5n/p_75w94d66l9ssrldxqdhh700000gn/T//ccHvVlNA.s 			page 6


 281              		@ args = 0, pretend = 0, frame = 0
 282              		@ frame_needed = 0, uses_anonymous_args = 0
 283              	.LVL28:
 284 0000 F8B5     		push	{r3, r4, r5, r6, r7, lr}
 285              	.LCFI3:
 286              		.cfi_def_cfa_offset 24
 287              		.cfi_offset 3, -24
 288              		.cfi_offset 4, -20
 289              		.cfi_offset 5, -16
 290              		.cfi_offset 6, -12
 291              		.cfi_offset 7, -8
 292              		.cfi_offset 14, -4
 293              		.loc 1 207 0
 294 0002 0746     		mov	r7, r0
 295              		.loc 1 210 0
 296 0004 1248     		ldr	r0, .L37
 297              	.LVL29:
 298              		.loc 1 207 0
 299 0006 0E46     		mov	r6, r1
 300 0008 1546     		mov	r5, r2
 301              		.loc 1 210 0
 302 000a FFF7FEFF 		bl	sys_mbox_valid
 303              	.LVL30:
 304 000e A8B1     		cbz	r0, .L32
 305              		.loc 1 211 0
 306 0010 0920     		movs	r0, #9
 307 0012 FFF7FEFF 		bl	memp_malloc
 308              	.LVL31:
 309              		.loc 1 212 0
 310 0016 0446     		mov	r4, r0
 311 0018 C0B1     		cbz	r0, .L33
 312              		.loc 1 216 0
 313 001a 0423     		movs	r3, #4
 314 001c 0370     		strb	r3, [r0, #0]
 315              		.loc 1 217 0
 316 001e 8760     		str	r7, [r0, #8]
 317              		.loc 1 218 0
 318 0020 C660     		str	r6, [r0, #12]
 319              		.loc 1 220 0
 320 0022 2146     		mov	r1, r4
 321 0024 0A48     		ldr	r0, .L37
 322              	.LVL32:
 323              		.loc 1 219 0
 324 0026 25B9     		cbnz	r5, .L35
 325              		.loc 1 222 0
 326 0028 FFF7FEFF 		bl	sys_mbox_trypost
 327              	.LVL33:
 328 002c 40B9     		cbnz	r0, .L36
 329              	.LVL34:
 330              	.L30:
 331              		.loc 1 230 0
 332 002e 40B2     		sxtb	r0, r0
 333 0030 F8BD     		pop	{r3, r4, r5, r6, r7, pc}
 334              	.LVL35:
 335              	.L35:
 336              		.loc 1 220 0
 337 0032 FFF7FEFF 		bl	sys_mbox_post
ARM GAS  /var/folders/5n/p_75w94d66l9ssrldxqdhh700000gn/T//ccHvVlNA.s 			page 7


 338              	.LVL36:
 339              		.loc 1 227 0
 340 0036 0020     		movs	r0, #0
 341              		.loc 1 230 0
 342 0038 40B2     		sxtb	r0, r0
 343 003a F8BD     		pop	{r3, r4, r5, r6, r7, pc}
 344              	.LVL37:
 345              	.L32:
 346              		.loc 1 229 0
 347 003c FA20     		movs	r0, #250
 348 003e F6E7     		b	.L30
 349              	.LVL38:
 350              	.L36:
 351              		.loc 1 223 0
 352 0040 0920     		movs	r0, #9
 353 0042 2146     		mov	r1, r4
 354 0044 FFF7FEFF 		bl	memp_free
 355              	.LVL39:
 356              		.loc 1 224 0
 357 0048 FF20     		movs	r0, #255
 358 004a F0E7     		b	.L30
 359              	.LVL40:
 360              	.L33:
 361              		.loc 1 213 0
 362 004c FF20     		movs	r0, #255
 363              	.LVL41:
 364 004e EEE7     		b	.L30
 365              	.L38:
 366              		.align	2
 367              	.L37:
 368 0050 00000000 		.word	.LANCHOR2
 369              		.cfi_endproc
 370              	.LFE9:
 371              		.size	tcpip_callback_with_block, .-tcpip_callback_with_block
 372 0054 AFF30080 		.section	.text.tcpip_timeout,"ax",%progbits
 372      AFF30080 
 372      AFF30080 
 373              		.align	2
 374              		.p2align 4,,15
 375              		.global	tcpip_timeout
 376              		.thumb
 377              		.thumb_func
 378              		.type	tcpip_timeout, %function
 379              	tcpip_timeout:
 380              	.LFB10:
 381              		.loc 1 243 0
 382              		.cfi_startproc
 383              		@ args = 0, pretend = 0, frame = 0
 384              		@ frame_needed = 0, uses_anonymous_args = 0
 385              	.LVL42:
 386 0000 70B5     		push	{r4, r5, r6, lr}
 387              	.LCFI4:
 388              		.cfi_def_cfa_offset 16
 389              		.cfi_offset 4, -16
 390              		.cfi_offset 5, -12
 391              		.cfi_offset 6, -8
 392              		.cfi_offset 14, -4
ARM GAS  /var/folders/5n/p_75w94d66l9ssrldxqdhh700000gn/T//ccHvVlNA.s 			page 8


 393              		.loc 1 243 0
 394 0002 0646     		mov	r6, r0
 395              		.loc 1 246 0
 396 0004 0C48     		ldr	r0, .L43
 397              	.LVL43:
 398              		.loc 1 243 0
 399 0006 0D46     		mov	r5, r1
 400 0008 1446     		mov	r4, r2
 401              		.loc 1 246 0
 402 000a FFF7FEFF 		bl	sys_mbox_valid
 403              	.LVL44:
 404 000e 78B1     		cbz	r0, .L41
 405              		.loc 1 247 0
 406 0010 0920     		movs	r0, #9
 407 0012 FFF7FEFF 		bl	memp_malloc
 408              	.LVL45:
 409              		.loc 1 248 0
 410 0016 0146     		mov	r1, r0
 411 0018 60B1     		cbz	r0, .L42
 412              		.loc 1 252 0
 413 001a 0222     		movs	r2, #2
 414 001c 0270     		strb	r2, [r0, #0]
 415              		.loc 1 253 0
 416 001e 8660     		str	r6, [r0, #8]
 417              		.loc 1 254 0
 418 0020 C560     		str	r5, [r0, #12]
 419              		.loc 1 255 0
 420 0022 0461     		str	r4, [r0, #16]
 421              		.loc 1 256 0
 422 0024 0448     		ldr	r0, .L43
 423              	.LVL46:
 424 0026 FFF7FEFF 		bl	sys_mbox_post
 425              	.LVL47:
 426              		.loc 1 257 0
 427 002a 0020     		movs	r0, #0
 428              	.L40:
 429              		.loc 1 260 0
 430 002c 40B2     		sxtb	r0, r0
 431 002e 70BD     		pop	{r4, r5, r6, pc}
 432              	.L41:
 433              		.loc 1 259 0
 434 0030 FA20     		movs	r0, #250
 435 0032 FBE7     		b	.L40
 436              	.LVL48:
 437              	.L42:
 438              		.loc 1 249 0
 439 0034 FF20     		movs	r0, #255
 440              	.LVL49:
 441 0036 F9E7     		b	.L40
 442              	.L44:
 443              		.align	2
 444              	.L43:
 445 0038 00000000 		.word	.LANCHOR2
 446              		.cfi_endproc
 447              	.LFE10:
 448              		.size	tcpip_timeout, .-tcpip_timeout
 449 003c AFF30080 		.section	.text.tcpip_untimeout,"ax",%progbits
ARM GAS  /var/folders/5n/p_75w94d66l9ssrldxqdhh700000gn/T//ccHvVlNA.s 			page 9


 450              		.align	2
 451              		.p2align 4,,15
 452              		.global	tcpip_untimeout
 453              		.thumb
 454              		.thumb_func
 455              		.type	tcpip_untimeout, %function
 456              	tcpip_untimeout:
 457              	.LFB11:
 458              		.loc 1 272 0
 459              		.cfi_startproc
 460              		@ args = 0, pretend = 0, frame = 0
 461              		@ frame_needed = 0, uses_anonymous_args = 0
 462              	.LVL50:
 463 0000 38B5     		push	{r3, r4, r5, lr}
 464              	.LCFI5:
 465              		.cfi_def_cfa_offset 16
 466              		.cfi_offset 3, -16
 467              		.cfi_offset 4, -12
 468              		.cfi_offset 5, -8
 469              		.cfi_offset 14, -4
 470              		.loc 1 272 0
 471 0002 0546     		mov	r5, r0
 472              		.loc 1 275 0
 473 0004 0B48     		ldr	r0, .L49
 474              	.LVL51:
 475              		.loc 1 272 0
 476 0006 0C46     		mov	r4, r1
 477              		.loc 1 275 0
 478 0008 FFF7FEFF 		bl	sys_mbox_valid
 479              	.LVL52:
 480 000c 70B1     		cbz	r0, .L47
 481              		.loc 1 276 0
 482 000e 0920     		movs	r0, #9
 483 0010 FFF7FEFF 		bl	memp_malloc
 484              	.LVL53:
 485              		.loc 1 277 0
 486 0014 0146     		mov	r1, r0
 487 0016 58B1     		cbz	r0, .L48
 488              		.loc 1 281 0
 489 0018 0322     		movs	r2, #3
 490 001a 0270     		strb	r2, [r0, #0]
 491              		.loc 1 282 0
 492 001c C560     		str	r5, [r0, #12]
 493              		.loc 1 283 0
 494 001e 0461     		str	r4, [r0, #16]
 495              		.loc 1 284 0
 496 0020 0448     		ldr	r0, .L49
 497              	.LVL54:
 498 0022 FFF7FEFF 		bl	sys_mbox_post
 499              	.LVL55:
 500              		.loc 1 285 0
 501 0026 0020     		movs	r0, #0
 502              	.L46:
 503              		.loc 1 288 0
 504 0028 40B2     		sxtb	r0, r0
 505 002a 38BD     		pop	{r3, r4, r5, pc}
 506              	.L47:
ARM GAS  /var/folders/5n/p_75w94d66l9ssrldxqdhh700000gn/T//ccHvVlNA.s 			page 10


 507              		.loc 1 287 0
 508 002c FA20     		movs	r0, #250
 509 002e FBE7     		b	.L46
 510              	.LVL56:
 511              	.L48:
 512              		.loc 1 278 0
 513 0030 FF20     		movs	r0, #255
 514              	.LVL57:
 515 0032 F9E7     		b	.L46
 516              	.L50:
 517              		.align	2
 518              	.L49:
 519 0034 00000000 		.word	.LANCHOR2
 520              		.cfi_endproc
 521              	.LFE11:
 522              		.size	tcpip_untimeout, .-tcpip_untimeout
 523 0038 AFF30080 		.section	.text.tcpip_apimsg,"ax",%progbits
 523      AFF30080 
 524              		.align	2
 525              		.p2align 4,,15
 526              		.global	tcpip_apimsg
 527              		.thumb
 528              		.thumb_func
 529              		.type	tcpip_apimsg, %function
 530              	tcpip_apimsg:
 531              	.LFB12:
 532              		.loc 1 302 0
 533              		.cfi_startproc
 534              		@ args = 0, pretend = 0, frame = 24
 535              		@ frame_needed = 0, uses_anonymous_args = 0
 536              	.LVL58:
 537 0000 30B5     		push	{r4, r5, lr}
 538              	.LCFI6:
 539              		.cfi_def_cfa_offset 12
 540              		.cfi_offset 4, -12
 541              		.cfi_offset 5, -8
 542              		.cfi_offset 14, -4
 543 0002 0446     		mov	r4, r0
 544 0004 87B0     		sub	sp, sp, #28
 545              	.LCFI7:
 546              		.cfi_def_cfa_offset 40
 547              		.loc 1 309 0
 548 0006 0B48     		ldr	r0, .L54
 549              	.LVL59:
 550 0008 FFF7FEFF 		bl	sys_mbox_valid
 551              	.LVL60:
 552 000c 80B1     		cbz	r0, .L53
 553              		.loc 1 310 0
 554 000e 0025     		movs	r5, #0
 555              		.loc 1 312 0
 556 0010 0848     		ldr	r0, .L54
 557              		.loc 1 310 0
 558 0012 8DF80450 		strb	r5, [sp, #4]
 559              		.loc 1 312 0
 560 0016 01A9     		add	r1, sp, #4
 561              		.loc 1 311 0
 562 0018 0394     		str	r4, [sp, #12]
ARM GAS  /var/folders/5n/p_75w94d66l9ssrldxqdhh700000gn/T//ccHvVlNA.s 			page 11


 563              		.loc 1 312 0
 564 001a FFF7FEFF 		bl	sys_mbox_post
 565              	.LVL61:
 566              		.loc 1 313 0
 567 001e 6068     		ldr	r0, [r4, #4]
 568 0020 2946     		mov	r1, r5
 569 0022 0C30     		adds	r0, r0, #12
 570 0024 FFF7FEFF 		bl	sys_arch_sem_wait
 571              	.LVL62:
 572              		.loc 1 314 0
 573 0028 207A     		ldrb	r0, [r4, #8]	@ zero_extendqisi2
 574              	.L52:
 575              		.loc 1 317 0
 576 002a 40B2     		sxtb	r0, r0
 577 002c 07B0     		add	sp, sp, #28
 578 002e 30BD     		pop	{r4, r5, pc}
 579              	.L53:
 580              		.loc 1 316 0
 581 0030 FA20     		movs	r0, #250
 582 0032 FAE7     		b	.L52
 583              	.L55:
 584              		.align	2
 585              	.L54:
 586 0034 00000000 		.word	.LANCHOR2
 587              		.cfi_endproc
 588              	.LFE12:
 589              		.size	tcpip_apimsg, .-tcpip_apimsg
 590 0038 AFF30080 		.section	.text.tcpip_init,"ax",%progbits
 590      AFF30080 
 591              		.align	2
 592              		.p2align 4,,15
 593              		.global	tcpip_init
 594              		.thumb
 595              		.thumb_func
 596              		.type	tcpip_init, %function
 597              	tcpip_init:
 598              	.LFB13:
 599              		.loc 1 405 0
 600              		.cfi_startproc
 601              		@ args = 0, pretend = 0, frame = 0
 602              		@ frame_needed = 0, uses_anonymous_args = 0
 603              	.LVL63:
 604 0000 30B5     		push	{r4, r5, lr}
 605              	.LCFI8:
 606              		.cfi_def_cfa_offset 12
 607              		.cfi_offset 4, -12
 608              		.cfi_offset 5, -8
 609              		.cfi_offset 14, -4
 610 0002 83B0     		sub	sp, sp, #12
 611              	.LCFI9:
 612              		.cfi_def_cfa_offset 24
 613              		.loc 1 405 0
 614 0004 0546     		mov	r5, r0
 615 0006 0C46     		mov	r4, r1
 616              		.loc 1 406 0
 617 0008 FFF7FEFF 		bl	lwip_init
 618              	.LVL64:
ARM GAS  /var/folders/5n/p_75w94d66l9ssrldxqdhh700000gn/T//ccHvVlNA.s 			page 12


 619              		.loc 1 408 0
 620 000c 0A4B     		ldr	r3, .L61
 621              		.loc 1 410 0
 622 000e 0B48     		ldr	r0, .L61+4
 623              		.loc 1 408 0
 624 0010 1D60     		str	r5, [r3, #0]
 625              		.loc 1 409 0
 626 0012 0B4B     		ldr	r3, .L61+8
 627              		.loc 1 410 0
 628 0014 0421     		movs	r1, #4
 629              		.loc 1 409 0
 630 0016 1C60     		str	r4, [r3, #0]
 631              		.loc 1 410 0
 632 0018 FFF7FEFF 		bl	sys_mbox_new
 633              	.LVL65:
 634 001c 08B1     		cbz	r0, .L57
 635              		.loc 1 411 0 discriminator 1
 636 001e FFF7FEFF 		bl	port_halt
 637              	.LVL66:
 638              	.L57:
 639              		.loc 1 419 0
 640 0022 0323     		movs	r3, #3
 641 0024 0093     		str	r3, [sp, #0]
 642 0026 0749     		ldr	r1, .L61+12
 643 0028 0748     		ldr	r0, .L61+16
 644 002a 0022     		movs	r2, #0
 645 002c 4FF48063 		mov	r3, #1024
 646 0030 FFF7FEFF 		bl	sys_thread_new
 647              	.LVL67:
 648              		.loc 1 420 0
 649 0034 03B0     		add	sp, sp, #12
 650 0036 30BD     		pop	{r4, r5, pc}
 651              	.L62:
 652              		.align	2
 653              	.L61:
 654 0038 00000000 		.word	.LANCHOR0
 655 003c 00000000 		.word	.LANCHOR2
 656 0040 00000000 		.word	.LANCHOR1
 657 0044 00000000 		.word	tcpip_thread
 658 0048 00000000 		.word	.LC0
 659              		.cfi_endproc
 660              	.LFE13:
 661              		.size	tcpip_init, .-tcpip_init
 662 004c AFF30080 		.section	.text.pbuf_free_callback,"ax",%progbits
 663              		.align	2
 664              		.p2align 4,,15
 665              		.global	pbuf_free_callback
 666              		.thumb
 667              		.thumb_func
 668              		.type	pbuf_free_callback, %function
 669              	pbuf_free_callback:
 670              	.LFB15:
 671              		.loc 1 443 0
 672              		.cfi_startproc
 673              		@ args = 0, pretend = 0, frame = 0
 674              		@ frame_needed = 0, uses_anonymous_args = 0
 675              		@ link register save eliminated.
ARM GAS  /var/folders/5n/p_75w94d66l9ssrldxqdhh700000gn/T//ccHvVlNA.s 			page 13


 676              	.LVL68:
 677              		.loc 1 443 0
 678 0000 0146     		mov	r1, r0
 679              		.loc 1 444 0
 680 0002 40F20000 		movw	r0, #:lower16:pbuf_free_int
 681              	.LVL69:
 682 0006 C0F20000 		movt	r0, #:upper16:pbuf_free_int
 683 000a 0022     		movs	r2, #0
 684              		.loc 1 445 0
 685              		.loc 1 444 0
 686 000c FFF7FEBF 		b	tcpip_callback_with_block
 687              	.LVL70:
 688              		.cfi_endproc
 689              	.LFE15:
 690              		.size	pbuf_free_callback, .-pbuf_free_callback
 691              		.section	.text.mem_free_callback,"ax",%progbits
 692              		.align	2
 693              		.p2align 4,,15
 694              		.global	mem_free_callback
 695              		.thumb
 696              		.thumb_func
 697              		.type	mem_free_callback, %function
 698              	mem_free_callback:
 699              	.LFB16:
 700              		.loc 1 456 0
 701              		.cfi_startproc
 702              		@ args = 0, pretend = 0, frame = 0
 703              		@ frame_needed = 0, uses_anonymous_args = 0
 704              		@ link register save eliminated.
 705              	.LVL71:
 706              		.loc 1 456 0
 707 0000 0146     		mov	r1, r0
 708              		.loc 1 457 0
 709 0002 40F20000 		movw	r0, #:lower16:mem_free
 710              	.LVL72:
 711 0006 C0F20000 		movt	r0, #:upper16:mem_free
 712 000a 0022     		movs	r2, #0
 713              		.loc 1 458 0
 714              		.loc 1 457 0
 715 000c FFF7FEBF 		b	tcpip_callback_with_block
 716              	.LVL73:
 717              		.cfi_endproc
 718              	.LFE16:
 719              		.size	mem_free_callback, .-mem_free_callback
 720              		.section	.rodata.str1.4,"aMS",%progbits,1
 721              		.align	2
 722              	.LC0:
 723 0000 74637069 		.ascii	"tcpip_thread\000"
 723      705F7468 
 723      72656164 
 723      00
 724 000d 000000   		.section	.bss.mbox,"aw",%nobits
 725              		.align	2
 726              		.set	.LANCHOR2,. + 0
 727              		.type	mbox, %object
 728              		.size	mbox, 4
 729              	mbox:
ARM GAS  /var/folders/5n/p_75w94d66l9ssrldxqdhh700000gn/T//ccHvVlNA.s 			page 14


 730 0000 00000000 		.space	4
 731              		.section	.bss.tcpip_init_done_arg,"aw",%nobits
 732              		.align	2
 733              		.set	.LANCHOR1,. + 0
 734              		.type	tcpip_init_done_arg, %object
 735              		.size	tcpip_init_done_arg, 4
 736              	tcpip_init_done_arg:
 737 0000 00000000 		.space	4
 738              		.section	.bss.tcpip_init_done,"aw",%nobits
 739              		.align	2
 740              		.set	.LANCHOR0,. + 0
 741              		.type	tcpip_init_done, %object
 742              		.size	tcpip_init_done, 4
 743              	tcpip_init_done:
 744 0000 00000000 		.space	4
 745              		.text
 746              	.Letext0:
 747              		.file 2 "/usr/local/cross/lib/gcc/arm-none-eabi/4.7.2/include/stddef.h"
 748              		.file 3 "/usr/local/cross/lib/gcc/arm-none-eabi/4.7.2/../../../../arm-none-eabi/include/stdint.h"
 749              		.file 4 "../../os/ports/GCC/ARMCMx/chtypes.h"
 750              		.file 5 "../../os/kernel/include/chlists.h"
 751              		.file 6 "../../os/kernel/include/chthreads.h"
 752              		.file 7 "../../os/ports/GCC/ARMCMx/chcore_v7m.h"
 753              		.file 8 "../../os/kernel/include/chsem.h"
 754              		.file 9 "../../os/kernel/include/chmtx.h"
 755              		.file 10 "../../os/kernel/include/chmboxes.h"
 756              		.file 11 "../../os/various/lwip_bindings/arch/cc.h"
 757              		.file 12 "../../ext/lwip-1.4.0/src/include/lwip/err.h"
 758              		.file 13 "../../os/various/lwip_bindings/arch/sys_arch.h"
 759              		.file 14 "../../ext/lwip-1.4.0/src/include/lwip/sys.h"
 760              		.file 15 "../../ext/lwip-1.4.0/src/include/lwip/memp.h"
 761              		.file 16 "../../ext/lwip-1.4.0/src/include/lwip/pbuf.h"
 762              		.file 17 "../../ext/lwip-1.4.0/src/include/ipv4/lwip/ip_addr.h"
 763              		.file 18 "../../ext/lwip-1.4.0/src/include/lwip/netif.h"
 764              		.file 19 "../../ext/lwip-1.4.0/src/include/lwip/netbuf.h"
 765              		.file 20 "../../ext/lwip-1.4.0/src/include/lwip/api.h"
 766              		.file 21 "../../ext/lwip-1.4.0/src/include/ipv4/lwip/ip.h"
 767              		.file 22 "../../ext/lwip-1.4.0/src/include/lwip/api_msg.h"
 768              		.file 23 "../../ext/lwip-1.4.0/src/include/lwip/timers.h"
 769              		.file 24 "../../ext/lwip-1.4.0/src/include/lwip/tcpip.h"
 770              		.file 25 "../../ext/lwip-1.4.0/src/include/netif/etharp.h"
 771              		.file 26 "../../ext/lwip-1.4.0/src/include/lwip/init.h"
 772              		.section	.debug_info,"",%progbits
 773              	.Ldebug_info0:
 774 0000 DE130000 		.4byte	0x13de
 775 0004 0200     		.2byte	0x2
 776 0006 00000000 		.4byte	.Ldebug_abbrev0
 777 000a 04       		.byte	0x4
 778 000b 01       		.uleb128 0x1
 779 000c 97010000 		.4byte	.LASF203
 780 0010 01       		.byte	0x1
 781 0011 0B080000 		.4byte	.LASF204
 782 0015 C0040000 		.4byte	.LASF205
 783 0019 00000000 		.4byte	.Ldebug_ranges0+0
 784 001d 00000000 		.4byte	0
 785 0021 00000000 		.4byte	0
 786 0025 00000000 		.4byte	.Ldebug_line0
ARM GAS  /var/folders/5n/p_75w94d66l9ssrldxqdhh700000gn/T//ccHvVlNA.s 			page 15


 787 0029 02       		.uleb128 0x2
 788 002a 04       		.byte	0x4
 789 002b 05       		.byte	0x5
 790 002c 696E7400 		.ascii	"int\000"
 791 0030 03       		.uleb128 0x3
 792 0031 D0020000 		.4byte	.LASF1
 793 0035 02       		.byte	0x2
 794 0036 D5       		.byte	0xd5
 795 0037 3B000000 		.4byte	0x3b
 796 003b 04       		.uleb128 0x4
 797 003c 04       		.byte	0x4
 798 003d 07       		.byte	0x7
 799 003e AF000000 		.4byte	.LASF0
 800 0042 03       		.uleb128 0x3
 801 0043 84010000 		.4byte	.LASF2
 802 0047 03       		.byte	0x3
 803 0048 29       		.byte	0x29
 804 0049 4D000000 		.4byte	0x4d
 805 004d 04       		.uleb128 0x4
 806 004e 01       		.byte	0x1
 807 004f 06       		.byte	0x6
 808 0050 A1080000 		.4byte	.LASF3
 809 0054 03       		.uleb128 0x3
 810 0055 0F040000 		.4byte	.LASF4
 811 0059 03       		.byte	0x3
 812 005a 2A       		.byte	0x2a
 813 005b 5F000000 		.4byte	0x5f
 814 005f 04       		.uleb128 0x4
 815 0060 01       		.byte	0x1
 816 0061 08       		.byte	0x8
 817 0062 AF070000 		.4byte	.LASF5
 818 0066 04       		.uleb128 0x4
 819 0067 02       		.byte	0x2
 820 0068 05       		.byte	0x5
 821 0069 19060000 		.4byte	.LASF6
 822 006d 03       		.uleb128 0x3
 823 006e B2050000 		.4byte	.LASF7
 824 0072 03       		.byte	0x3
 825 0073 36       		.byte	0x36
 826 0074 78000000 		.4byte	0x78
 827 0078 04       		.uleb128 0x4
 828 0079 02       		.byte	0x2
 829 007a 07       		.byte	0x7
 830 007b B5080000 		.4byte	.LASF8
 831 007f 03       		.uleb128 0x3
 832 0080 6C070000 		.4byte	.LASF9
 833 0084 03       		.byte	0x3
 834 0085 4F       		.byte	0x4f
 835 0086 8A000000 		.4byte	0x8a
 836 008a 04       		.uleb128 0x4
 837 008b 04       		.byte	0x4
 838 008c 05       		.byte	0x5
 839 008d 48060000 		.4byte	.LASF10
 840 0091 03       		.uleb128 0x3
 841 0092 7B010000 		.4byte	.LASF11
 842 0096 03       		.byte	0x3
 843 0097 50       		.byte	0x50
ARM GAS  /var/folders/5n/p_75w94d66l9ssrldxqdhh700000gn/T//ccHvVlNA.s 			page 16


 844 0098 9C000000 		.4byte	0x9c
 845 009c 04       		.uleb128 0x4
 846 009d 04       		.byte	0x4
 847 009e 07       		.byte	0x7
 848 009f 44070000 		.4byte	.LASF12
 849 00a3 04       		.uleb128 0x4
 850 00a4 08       		.byte	0x8
 851 00a5 05       		.byte	0x5
 852 00a6 93040000 		.4byte	.LASF13
 853 00aa 04       		.uleb128 0x4
 854 00ab 08       		.byte	0x8
 855 00ac 07       		.byte	0x7
 856 00ad 01020000 		.4byte	.LASF14
 857 00b1 03       		.uleb128 0x3
 858 00b2 8B050000 		.4byte	.LASF15
 859 00b6 04       		.byte	0x4
 860 00b7 2F       		.byte	0x2f
 861 00b8 54000000 		.4byte	0x54
 862 00bc 03       		.uleb128 0x3
 863 00bd F6030000 		.4byte	.LASF16
 864 00c1 04       		.byte	0x4
 865 00c2 30       		.byte	0x30
 866 00c3 54000000 		.4byte	0x54
 867 00c7 03       		.uleb128 0x3
 868 00c8 3C070000 		.4byte	.LASF17
 869 00cc 04       		.byte	0x4
 870 00cd 31       		.byte	0x31
 871 00ce 54000000 		.4byte	0x54
 872 00d2 03       		.uleb128 0x3
 873 00d3 D8010000 		.4byte	.LASF18
 874 00d7 04       		.byte	0x4
 875 00d8 32       		.byte	0x32
 876 00d9 91000000 		.4byte	0x91
 877 00dd 03       		.uleb128 0x3
 878 00de AD040000 		.4byte	.LASF19
 879 00e2 04       		.byte	0x4
 880 00e3 33       		.byte	0x33
 881 00e4 7F000000 		.4byte	0x7f
 882 00e8 03       		.uleb128 0x3
 883 00e9 8B010000 		.4byte	.LASF20
 884 00ed 04       		.byte	0x4
 885 00ee 35       		.byte	0x35
 886 00ef 91000000 		.4byte	0x91
 887 00f3 03       		.uleb128 0x3
 888 00f4 79000000 		.4byte	.LASF21
 889 00f8 04       		.byte	0x4
 890 00f9 36       		.byte	0x36
 891 00fa 91000000 		.4byte	0x91
 892 00fe 03       		.uleb128 0x3
 893 00ff 28020000 		.4byte	.LASF22
 894 0103 04       		.byte	0x4
 895 0104 37       		.byte	0x37
 896 0105 7F000000 		.4byte	0x7f
 897 0109 03       		.uleb128 0x3
 898 010a E9030000 		.4byte	.LASF23
 899 010e 05       		.byte	0x5
 900 010f 2A       		.byte	0x2a
ARM GAS  /var/folders/5n/p_75w94d66l9ssrldxqdhh700000gn/T//ccHvVlNA.s 			page 17


 901 0110 14010000 		.4byte	0x114
 902 0114 05       		.uleb128 0x5
 903 0115 E9030000 		.4byte	.LASF23
 904 0119 48       		.byte	0x48
 905 011a 06       		.byte	0x6
 906 011b 5E       		.byte	0x5e
 907 011c 2B020000 		.4byte	0x22b
 908 0120 06       		.uleb128 0x6
 909 0121 95060000 		.4byte	.LASF24
 910 0125 06       		.byte	0x6
 911 0126 5F       		.byte	0x5f
 912 0127 50020000 		.4byte	0x250
 913 012b 02       		.byte	0x2
 914 012c 23       		.byte	0x23
 915 012d 00       		.uleb128 0
 916 012e 06       		.uleb128 0x6
 917 012f 2C070000 		.4byte	.LASF25
 918 0133 06       		.byte	0x6
 919 0134 61       		.byte	0x61
 920 0135 50020000 		.4byte	0x250
 921 0139 02       		.byte	0x2
 922 013a 23       		.byte	0x23
 923 013b 04       		.uleb128 0x4
 924 013c 06       		.uleb128 0x6
 925 013d 58000000 		.4byte	.LASF26
 926 0141 06       		.byte	0x6
 927 0142 63       		.byte	0x63
 928 0143 D2000000 		.4byte	0xd2
 929 0147 02       		.byte	0x2
 930 0148 23       		.byte	0x23
 931 0149 08       		.uleb128 0x8
 932 014a 06       		.uleb128 0x6
 933 014b B2060000 		.4byte	.LASF27
 934 014f 06       		.byte	0x6
 935 0150 64       		.byte	0x64
 936 0151 1D030000 		.4byte	0x31d
 937 0155 02       		.byte	0x2
 938 0156 23       		.byte	0x23
 939 0157 0C       		.uleb128 0xc
 940 0158 06       		.uleb128 0x6
 941 0159 48020000 		.4byte	.LASF28
 942 015d 06       		.byte	0x6
 943 015e 66       		.byte	0x66
 944 015f 50020000 		.4byte	0x250
 945 0163 02       		.byte	0x2
 946 0164 23       		.byte	0x23
 947 0165 10       		.uleb128 0x10
 948 0166 06       		.uleb128 0x6
 949 0167 FF030000 		.4byte	.LASF29
 950 016b 06       		.byte	0x6
 951 016c 67       		.byte	0x67
 952 016d 50020000 		.4byte	0x250
 953 0171 02       		.byte	0x2
 954 0172 23       		.byte	0x23
 955 0173 14       		.uleb128 0x14
 956 0174 06       		.uleb128 0x6
 957 0175 82030000 		.4byte	.LASF30
ARM GAS  /var/folders/5n/p_75w94d66l9ssrldxqdhh700000gn/T//ccHvVlNA.s 			page 18


 958 0179 06       		.byte	0x6
 959 017a 6E       		.byte	0x6e
 960 017b 7D040000 		.4byte	0x47d
 961 017f 02       		.byte	0x2
 962 0180 23       		.byte	0x23
 963 0181 18       		.uleb128 0x18
 964 0182 06       		.uleb128 0x6
 965 0183 07040000 		.4byte	.LASF31
 966 0187 06       		.byte	0x6
 967 0188 79       		.byte	0x79
 968 0189 BC000000 		.4byte	0xbc
 969 018d 02       		.byte	0x2
 970 018e 23       		.byte	0x23
 971 018f 1C       		.uleb128 0x1c
 972 0190 06       		.uleb128 0x6
 973 0191 11050000 		.4byte	.LASF32
 974 0195 06       		.byte	0x6
 975 0196 7D       		.byte	0x7d
 976 0197 B1000000 		.4byte	0xb1
 977 019b 02       		.byte	0x2
 978 019c 23       		.byte	0x23
 979 019d 1D       		.uleb128 0x1d
 980 019e 06       		.uleb128 0x6
 981 019f C6070000 		.4byte	.LASF33
 982 01a3 06       		.byte	0x6
 983 01a4 82       		.byte	0x82
 984 01a5 C7000000 		.4byte	0xc7
 985 01a9 02       		.byte	0x2
 986 01aa 23       		.byte	0x23
 987 01ab 1E       		.uleb128 0x1e
 988 01ac 06       		.uleb128 0x6
 989 01ad 3D000000 		.4byte	.LASF34
 990 01b1 06       		.byte	0x6
 991 01b2 89       		.byte	0x89
 992 01b3 59030000 		.4byte	0x359
 993 01b7 02       		.byte	0x2
 994 01b8 23       		.byte	0x23
 995 01b9 20       		.uleb128 0x20
 996 01ba 07       		.uleb128 0x7
 997 01bb 705F7500 		.ascii	"p_u\000"
 998 01bf 06       		.byte	0x6
 999 01c0 AE       		.byte	0xae
 1000 01c1 48040000 		.4byte	0x448
 1001 01c5 02       		.byte	0x2
 1002 01c6 23       		.byte	0x23
 1003 01c7 24       		.uleb128 0x24
 1004 01c8 06       		.uleb128 0x6
 1005 01c9 0C000000 		.4byte	.LASF35
 1006 01cd 06       		.byte	0x6
 1007 01ce B3       		.byte	0xb3
 1008 01cf 78020000 		.4byte	0x278
 1009 01d3 02       		.byte	0x2
 1010 01d4 23       		.byte	0x23
 1011 01d5 28       		.uleb128 0x28
 1012 01d6 06       		.uleb128 0x6
 1013 01d7 A4000000 		.4byte	.LASF36
 1014 01db 06       		.byte	0x6
ARM GAS  /var/folders/5n/p_75w94d66l9ssrldxqdhh700000gn/T//ccHvVlNA.s 			page 19


 1015 01dc B9       		.byte	0xb9
 1016 01dd 56020000 		.4byte	0x256
 1017 01e1 02       		.byte	0x2
 1018 01e2 23       		.byte	0x23
 1019 01e3 2C       		.uleb128 0x2c
 1020 01e4 06       		.uleb128 0x6
 1021 01e5 7D050000 		.4byte	.LASF37
 1022 01e9 06       		.byte	0x6
 1023 01ea BD       		.byte	0xbd
 1024 01eb DD000000 		.4byte	0xdd
 1025 01ef 02       		.byte	0x2
 1026 01f0 23       		.byte	0x23
 1027 01f1 34       		.uleb128 0x34
 1028 01f2 06       		.uleb128 0x6
 1029 01f3 35060000 		.4byte	.LASF38
 1030 01f7 06       		.byte	0x6
 1031 01f8 C3       		.byte	0xc3
 1032 01f9 E8000000 		.4byte	0xe8
 1033 01fd 02       		.byte	0x2
 1034 01fe 23       		.byte	0x23
 1035 01ff 38       		.uleb128 0x38
 1036 0200 06       		.uleb128 0x6
 1037 0201 2A040000 		.4byte	.LASF39
 1038 0205 06       		.byte	0x6
 1039 0206 CA       		.byte	0xca
 1040 0207 8F040000 		.4byte	0x48f
 1041 020b 02       		.byte	0x2
 1042 020c 23       		.byte	0x23
 1043 020d 3C       		.uleb128 0x3c
 1044 020e 06       		.uleb128 0x6
 1045 020f 08060000 		.4byte	.LASF40
 1046 0213 06       		.byte	0x6
 1047 0214 CE       		.byte	0xce
 1048 0215 D2000000 		.4byte	0xd2
 1049 0219 02       		.byte	0x2
 1050 021a 23       		.byte	0x23
 1051 021b 40       		.uleb128 0x40
 1052 021c 06       		.uleb128 0x6
 1053 021d 22040000 		.4byte	.LASF41
 1054 0221 06       		.byte	0x6
 1055 0222 D4       		.byte	0xd4
 1056 0223 8E020000 		.4byte	0x28e
 1057 0227 02       		.byte	0x2
 1058 0228 23       		.byte	0x23
 1059 0229 44       		.uleb128 0x44
 1060 022a 00       		.byte	0
 1061 022b 08       		.uleb128 0x8
 1062 022c 08       		.byte	0x8
 1063 022d 05       		.byte	0x5
 1064 022e 61       		.byte	0x61
 1065 022f 50020000 		.4byte	0x250
 1066 0233 06       		.uleb128 0x6
 1067 0234 95060000 		.4byte	.LASF24
 1068 0238 05       		.byte	0x5
 1069 0239 62       		.byte	0x62
 1070 023a 50020000 		.4byte	0x250
 1071 023e 02       		.byte	0x2
ARM GAS  /var/folders/5n/p_75w94d66l9ssrldxqdhh700000gn/T//ccHvVlNA.s 			page 20


 1072 023f 23       		.byte	0x23
 1073 0240 00       		.uleb128 0
 1074 0241 06       		.uleb128 0x6
 1075 0242 2C070000 		.4byte	.LASF25
 1076 0246 05       		.byte	0x5
 1077 0247 64       		.byte	0x64
 1078 0248 50020000 		.4byte	0x250
 1079 024c 02       		.byte	0x2
 1080 024d 23       		.byte	0x23
 1081 024e 04       		.uleb128 0x4
 1082 024f 00       		.byte	0
 1083 0250 09       		.uleb128 0x9
 1084 0251 04       		.byte	0x4
 1085 0252 09010000 		.4byte	0x109
 1086 0256 03       		.uleb128 0x3
 1087 0257 93030000 		.4byte	.LASF42
 1088 025b 05       		.byte	0x5
 1089 025c 66       		.byte	0x66
 1090 025d 2B020000 		.4byte	0x22b
 1091 0261 08       		.uleb128 0x8
 1092 0262 04       		.byte	0x4
 1093 0263 05       		.byte	0x5
 1094 0264 6B       		.byte	0x6b
 1095 0265 78020000 		.4byte	0x278
 1096 0269 06       		.uleb128 0x6
 1097 026a 95060000 		.4byte	.LASF24
 1098 026e 05       		.byte	0x5
 1099 026f 6D       		.byte	0x6d
 1100 0270 50020000 		.4byte	0x250
 1101 0274 02       		.byte	0x2
 1102 0275 23       		.byte	0x23
 1103 0276 00       		.uleb128 0
 1104 0277 00       		.byte	0
 1105 0278 03       		.uleb128 0x3
 1106 0279 00000000 		.4byte	.LASF43
 1107 027d 05       		.byte	0x5
 1108 027e 70       		.byte	0x70
 1109 027f 61020000 		.4byte	0x261
 1110 0283 03       		.uleb128 0x3
 1111 0284 4F000000 		.4byte	.LASF44
 1112 0288 07       		.byte	0x7
 1113 0289 D7       		.byte	0xd7
 1114 028a 8E020000 		.4byte	0x28e
 1115 028e 0A       		.uleb128 0xa
 1116 028f 04       		.byte	0x4
 1117 0290 05       		.uleb128 0x5
 1118 0291 C8050000 		.4byte	.LASF45
 1119 0295 24       		.byte	0x24
 1120 0296 07       		.byte	0x7
 1121 0297 FE       		.byte	0xfe
 1122 0298 1D030000 		.4byte	0x31d
 1123 029c 0B       		.uleb128 0xb
 1124 029d 723400   		.ascii	"r4\000"
 1125 02a0 07       		.byte	0x7
 1126 02a1 1101     		.2byte	0x111
 1127 02a3 83020000 		.4byte	0x283
 1128 02a7 02       		.byte	0x2
ARM GAS  /var/folders/5n/p_75w94d66l9ssrldxqdhh700000gn/T//ccHvVlNA.s 			page 21


 1129 02a8 23       		.byte	0x23
 1130 02a9 00       		.uleb128 0
 1131 02aa 0B       		.uleb128 0xb
 1132 02ab 723500   		.ascii	"r5\000"
 1133 02ae 07       		.byte	0x7
 1134 02af 1201     		.2byte	0x112
 1135 02b1 83020000 		.4byte	0x283
 1136 02b5 02       		.byte	0x2
 1137 02b6 23       		.byte	0x23
 1138 02b7 04       		.uleb128 0x4
 1139 02b8 0B       		.uleb128 0xb
 1140 02b9 723600   		.ascii	"r6\000"
 1141 02bc 07       		.byte	0x7
 1142 02bd 1301     		.2byte	0x113
 1143 02bf 83020000 		.4byte	0x283
 1144 02c3 02       		.byte	0x2
 1145 02c4 23       		.byte	0x23
 1146 02c5 08       		.uleb128 0x8
 1147 02c6 0B       		.uleb128 0xb
 1148 02c7 723700   		.ascii	"r7\000"
 1149 02ca 07       		.byte	0x7
 1150 02cb 1401     		.2byte	0x114
 1151 02cd 83020000 		.4byte	0x283
 1152 02d1 02       		.byte	0x2
 1153 02d2 23       		.byte	0x23
 1154 02d3 0C       		.uleb128 0xc
 1155 02d4 0B       		.uleb128 0xb
 1156 02d5 723800   		.ascii	"r8\000"
 1157 02d8 07       		.byte	0x7
 1158 02d9 1501     		.2byte	0x115
 1159 02db 83020000 		.4byte	0x283
 1160 02df 02       		.byte	0x2
 1161 02e0 23       		.byte	0x23
 1162 02e1 10       		.uleb128 0x10
 1163 02e2 0B       		.uleb128 0xb
 1164 02e3 723900   		.ascii	"r9\000"
 1165 02e6 07       		.byte	0x7
 1166 02e7 1601     		.2byte	0x116
 1167 02e9 83020000 		.4byte	0x283
 1168 02ed 02       		.byte	0x2
 1169 02ee 23       		.byte	0x23
 1170 02ef 14       		.uleb128 0x14
 1171 02f0 0B       		.uleb128 0xb
 1172 02f1 72313000 		.ascii	"r10\000"
 1173 02f5 07       		.byte	0x7
 1174 02f6 1701     		.2byte	0x117
 1175 02f8 83020000 		.4byte	0x283
 1176 02fc 02       		.byte	0x2
 1177 02fd 23       		.byte	0x23
 1178 02fe 18       		.uleb128 0x18
 1179 02ff 0B       		.uleb128 0xb
 1180 0300 72313100 		.ascii	"r11\000"
 1181 0304 07       		.byte	0x7
 1182 0305 1801     		.2byte	0x118
 1183 0307 83020000 		.4byte	0x283
 1184 030b 02       		.byte	0x2
 1185 030c 23       		.byte	0x23
ARM GAS  /var/folders/5n/p_75w94d66l9ssrldxqdhh700000gn/T//ccHvVlNA.s 			page 22


 1186 030d 1C       		.uleb128 0x1c
 1187 030e 0B       		.uleb128 0xb
 1188 030f 6C7200   		.ascii	"lr\000"
 1189 0312 07       		.byte	0x7
 1190 0313 1901     		.2byte	0x119
 1191 0315 83020000 		.4byte	0x283
 1192 0319 02       		.byte	0x2
 1193 031a 23       		.byte	0x23
 1194 031b 20       		.uleb128 0x20
 1195 031c 00       		.byte	0
 1196 031d 0C       		.uleb128 0xc
 1197 031e B3040000 		.4byte	.LASF46
 1198 0322 04       		.byte	0x4
 1199 0323 07       		.byte	0x7
 1200 0324 2301     		.2byte	0x123
 1201 0326 3A030000 		.4byte	0x33a
 1202 032a 0B       		.uleb128 0xb
 1203 032b 72313300 		.ascii	"r13\000"
 1204 032f 07       		.byte	0x7
 1205 0330 2401     		.2byte	0x124
 1206 0332 3A030000 		.4byte	0x33a
 1207 0336 02       		.byte	0x2
 1208 0337 23       		.byte	0x23
 1209 0338 00       		.uleb128 0
 1210 0339 00       		.byte	0
 1211 033a 09       		.uleb128 0x9
 1212 033b 04       		.byte	0x4
 1213 033c 90020000 		.4byte	0x290
 1214 0340 04       		.uleb128 0x4
 1215 0341 04       		.byte	0x4
 1216 0342 07       		.byte	0x7
 1217 0343 33070000 		.4byte	.LASF47
 1218 0347 09       		.uleb128 0x9
 1219 0348 04       		.byte	0x4
 1220 0349 4D030000 		.4byte	0x34d
 1221 034d 0D       		.uleb128 0xd
 1222 034e 01       		.byte	0x1
 1223 034f 59030000 		.4byte	0x359
 1224 0353 0E       		.uleb128 0xe
 1225 0354 8E020000 		.4byte	0x28e
 1226 0358 00       		.byte	0
 1227 0359 0F       		.uleb128 0xf
 1228 035a F3000000 		.4byte	0xf3
 1229 035e 05       		.uleb128 0x5
 1230 035f 32050000 		.4byte	.LASF48
 1231 0363 0C       		.byte	0xc
 1232 0364 08       		.byte	0x8
 1233 0365 2C       		.byte	0x2c
 1234 0366 87030000 		.4byte	0x387
 1235 036a 06       		.uleb128 0x6
 1236 036b 8B000000 		.4byte	.LASF49
 1237 036f 08       		.byte	0x8
 1238 0370 2D       		.byte	0x2d
 1239 0371 56020000 		.4byte	0x256
 1240 0375 02       		.byte	0x2
 1241 0376 23       		.byte	0x23
 1242 0377 00       		.uleb128 0
ARM GAS  /var/folders/5n/p_75w94d66l9ssrldxqdhh700000gn/T//ccHvVlNA.s 			page 23


 1243 0378 06       		.uleb128 0x6
 1244 0379 4B010000 		.4byte	.LASF50
 1245 037d 08       		.byte	0x8
 1246 037e 2F       		.byte	0x2f
 1247 037f FE000000 		.4byte	0xfe
 1248 0383 02       		.byte	0x2
 1249 0384 23       		.byte	0x23
 1250 0385 08       		.uleb128 0x8
 1251 0386 00       		.byte	0
 1252 0387 03       		.uleb128 0x3
 1253 0388 32050000 		.4byte	.LASF48
 1254 038c 08       		.byte	0x8
 1255 038d 30       		.byte	0x30
 1256 038e 5E030000 		.4byte	0x35e
 1257 0392 05       		.uleb128 0x5
 1258 0393 42030000 		.4byte	.LASF51
 1259 0397 10       		.byte	0x10
 1260 0398 09       		.byte	0x9
 1261 0399 2C       		.byte	0x2c
 1262 039a C9030000 		.4byte	0x3c9
 1263 039e 06       		.uleb128 0x6
 1264 039f 40060000 		.4byte	.LASF52
 1265 03a3 09       		.byte	0x9
 1266 03a4 2D       		.byte	0x2d
 1267 03a5 56020000 		.4byte	0x256
 1268 03a9 02       		.byte	0x2
 1269 03aa 23       		.byte	0x23
 1270 03ab 00       		.uleb128 0
 1271 03ac 06       		.uleb128 0x6
 1272 03ad 83000000 		.4byte	.LASF53
 1273 03b1 09       		.byte	0x9
 1274 03b2 2F       		.byte	0x2f
 1275 03b3 50020000 		.4byte	0x250
 1276 03b7 02       		.byte	0x2
 1277 03b8 23       		.byte	0x23
 1278 03b9 08       		.uleb128 0x8
 1279 03ba 06       		.uleb128 0x6
 1280 03bb 9A080000 		.4byte	.LASF54
 1281 03bf 09       		.byte	0x9
 1282 03c0 31       		.byte	0x31
 1283 03c1 C9030000 		.4byte	0x3c9
 1284 03c5 02       		.byte	0x2
 1285 03c6 23       		.byte	0x23
 1286 03c7 0C       		.uleb128 0xc
 1287 03c8 00       		.byte	0
 1288 03c9 09       		.uleb128 0x9
 1289 03ca 04       		.byte	0x4
 1290 03cb 92030000 		.4byte	0x392
 1291 03cf 03       		.uleb128 0x3
 1292 03d0 42030000 		.4byte	.LASF51
 1293 03d4 09       		.byte	0x9
 1294 03d5 33       		.byte	0x33
 1295 03d6 92030000 		.4byte	0x392
 1296 03da 08       		.uleb128 0x8
 1297 03db 28       		.byte	0x28
 1298 03dc 0A       		.byte	0xa
 1299 03dd 33       		.byte	0x33
ARM GAS  /var/folders/5n/p_75w94d66l9ssrldxqdhh700000gn/T//ccHvVlNA.s 			page 24


 1300 03de 37040000 		.4byte	0x437
 1301 03e2 06       		.uleb128 0x6
 1302 03e3 56070000 		.4byte	.LASF55
 1303 03e7 0A       		.byte	0xa
 1304 03e8 34       		.byte	0x34
 1305 03e9 37040000 		.4byte	0x437
 1306 03ed 02       		.byte	0x2
 1307 03ee 23       		.byte	0x23
 1308 03ef 00       		.uleb128 0
 1309 03f0 06       		.uleb128 0x6
 1310 03f1 19050000 		.4byte	.LASF56
 1311 03f5 0A       		.byte	0xa
 1312 03f6 36       		.byte	0x36
 1313 03f7 37040000 		.4byte	0x437
 1314 03fb 02       		.byte	0x2
 1315 03fc 23       		.byte	0x23
 1316 03fd 04       		.uleb128 0x4
 1317 03fe 06       		.uleb128 0x6
 1318 03ff 23060000 		.4byte	.LASF57
 1319 0403 0A       		.byte	0xa
 1320 0404 38       		.byte	0x38
 1321 0405 37040000 		.4byte	0x437
 1322 0409 02       		.byte	0x2
 1323 040a 23       		.byte	0x23
 1324 040b 08       		.uleb128 0x8
 1325 040c 06       		.uleb128 0x6
 1326 040d F2020000 		.4byte	.LASF58
 1327 0411 0A       		.byte	0xa
 1328 0412 39       		.byte	0x39
 1329 0413 37040000 		.4byte	0x437
 1330 0417 02       		.byte	0x2
 1331 0418 23       		.byte	0x23
 1332 0419 0C       		.uleb128 0xc
 1333 041a 06       		.uleb128 0x6
 1334 041b 17040000 		.4byte	.LASF59
 1335 041f 0A       		.byte	0xa
 1336 0420 3A       		.byte	0x3a
 1337 0421 87030000 		.4byte	0x387
 1338 0425 02       		.byte	0x2
 1339 0426 23       		.byte	0x23
 1340 0427 10       		.uleb128 0x10
 1341 0428 06       		.uleb128 0x6
 1342 0429 48030000 		.4byte	.LASF60
 1343 042d 0A       		.byte	0xa
 1344 042e 3C       		.byte	0x3c
 1345 042f 87030000 		.4byte	0x387
 1346 0433 02       		.byte	0x2
 1347 0434 23       		.byte	0x23
 1348 0435 1C       		.uleb128 0x1c
 1349 0436 00       		.byte	0
 1350 0437 09       		.uleb128 0x9
 1351 0438 04       		.byte	0x4
 1352 0439 DD000000 		.4byte	0xdd
 1353 043d 03       		.uleb128 0x3
 1354 043e 35010000 		.4byte	.LASF61
 1355 0442 0A       		.byte	0xa
 1356 0443 3E       		.byte	0x3e
ARM GAS  /var/folders/5n/p_75w94d66l9ssrldxqdhh700000gn/T//ccHvVlNA.s 			page 25


 1357 0444 DA030000 		.4byte	0x3da
 1358 0448 10       		.uleb128 0x10
 1359 0449 04       		.byte	0x4
 1360 044a 06       		.byte	0x6
 1361 044b 90       		.byte	0x90
 1362 044c 7D040000 		.4byte	0x47d
 1363 0450 11       		.uleb128 0x11
 1364 0451 D7020000 		.4byte	.LASF62
 1365 0455 06       		.byte	0x6
 1366 0456 97       		.byte	0x97
 1367 0457 DD000000 		.4byte	0xdd
 1368 045b 11       		.uleb128 0x11
 1369 045c 47090000 		.4byte	.LASF63
 1370 0460 06       		.byte	0x6
 1371 0461 9E       		.byte	0x9e
 1372 0462 DD000000 		.4byte	0xdd
 1373 0466 11       		.uleb128 0x11
 1374 0467 17010000 		.4byte	.LASF64
 1375 046b 06       		.byte	0x6
 1376 046c A5       		.byte	0xa5
 1377 046d 8E020000 		.4byte	0x28e
 1378 0471 11       		.uleb128 0x11
 1379 0472 1E010000 		.4byte	.LASF65
 1380 0476 06       		.byte	0x6
 1381 0477 AC       		.byte	0xac
 1382 0478 E8000000 		.4byte	0xe8
 1383 047c 00       		.byte	0
 1384 047d 09       		.uleb128 0x9
 1385 047e 04       		.byte	0x4
 1386 047f 83040000 		.4byte	0x483
 1387 0483 12       		.uleb128 0x12
 1388 0484 88040000 		.4byte	0x488
 1389 0488 04       		.uleb128 0x4
 1390 0489 01       		.byte	0x1
 1391 048a 08       		.byte	0x8
 1392 048b A0030000 		.4byte	.LASF66
 1393 048f 09       		.uleb128 0x9
 1394 0490 04       		.byte	0x4
 1395 0491 CF030000 		.4byte	0x3cf
 1396 0495 03       		.uleb128 0x3
 1397 0496 BB040000 		.4byte	.LASF67
 1398 049a 0B       		.byte	0xb
 1399 049b 43       		.byte	0x43
 1400 049c 54000000 		.4byte	0x54
 1401 04a0 03       		.uleb128 0x3
 1402 04a1 3D030000 		.4byte	.LASF68
 1403 04a5 0B       		.byte	0xb
 1404 04a6 44       		.byte	0x44
 1405 04a7 42000000 		.4byte	0x42
 1406 04ab 03       		.uleb128 0x3
 1407 04ac 08010000 		.4byte	.LASF69
 1408 04b0 0B       		.byte	0xb
 1409 04b1 45       		.byte	0x45
 1410 04b2 6D000000 		.4byte	0x6d
 1411 04b6 03       		.uleb128 0x3
 1412 04b7 13060000 		.4byte	.LASF70
 1413 04bb 0B       		.byte	0xb
ARM GAS  /var/folders/5n/p_75w94d66l9ssrldxqdhh700000gn/T//ccHvVlNA.s 			page 26


 1414 04bc 47       		.byte	0x47
 1415 04bd 91000000 		.4byte	0x91
 1416 04c1 03       		.uleb128 0x3
 1417 04c2 F1000000 		.4byte	.LASF71
 1418 04c6 0C       		.byte	0xc
 1419 04c7 2F       		.byte	0x2f
 1420 04c8 A0040000 		.4byte	0x4a0
 1421 04cc 03       		.uleb128 0x3
 1422 04cd 0D030000 		.4byte	.LASF72
 1423 04d1 0D       		.byte	0xd
 1424 04d2 43       		.byte	0x43
 1425 04d3 D7040000 		.4byte	0x4d7
 1426 04d7 09       		.uleb128 0x9
 1427 04d8 04       		.byte	0x4
 1428 04d9 87030000 		.4byte	0x387
 1429 04dd 03       		.uleb128 0x3
 1430 04de 1E000000 		.4byte	.LASF73
 1431 04e2 0D       		.byte	0xd
 1432 04e3 44       		.byte	0x44
 1433 04e4 E8040000 		.4byte	0x4e8
 1434 04e8 09       		.uleb128 0x9
 1435 04e9 04       		.byte	0x4
 1436 04ea 3D040000 		.4byte	0x43d
 1437 04ee 03       		.uleb128 0x3
 1438 04ef ED010000 		.4byte	.LASF74
 1439 04f3 0D       		.byte	0xd
 1440 04f4 45       		.byte	0x45
 1441 04f5 50020000 		.4byte	0x250
 1442 04f9 03       		.uleb128 0x3
 1443 04fa 39020000 		.4byte	.LASF75
 1444 04fe 0E       		.byte	0xe
 1445 04ff 53       		.byte	0x53
 1446 0500 47030000 		.4byte	0x347
 1447 0504 13       		.uleb128 0x13
 1448 0505 01       		.byte	0x1
 1449 0506 0F       		.byte	0xf
 1450 0507 2B       		.byte	0x2b
 1451 0508 67050000 		.4byte	0x567
 1452 050c 14       		.uleb128 0x14
 1453 050d 1F070000 		.4byte	.LASF76
 1454 0511 00       		.sleb128 0
 1455 0512 14       		.uleb128 0x14
 1456 0513 9C060000 		.4byte	.LASF77
 1457 0517 01       		.sleb128 1
 1458 0518 14       		.uleb128 0x14
 1459 0519 FB050000 		.4byte	.LASF78
 1460 051d 02       		.sleb128 2
 1461 051e 14       		.uleb128 0x14
 1462 051f 29000000 		.4byte	.LASF79
 1463 0523 03       		.sleb128 3
 1464 0524 14       		.uleb128 0x14
 1465 0525 CD070000 		.4byte	.LASF80
 1466 0529 04       		.sleb128 4
 1467 052a 14       		.uleb128 0x14
 1468 052b 3C050000 		.4byte	.LASF81
 1469 052f 05       		.sleb128 5
 1470 0530 14       		.uleb128 0x14
ARM GAS  /var/folders/5n/p_75w94d66l9ssrldxqdhh700000gn/T//ccHvVlNA.s 			page 27


 1471 0531 10070000 		.4byte	.LASF82
 1472 0535 06       		.sleb128 6
 1473 0536 14       		.uleb128 0x14
 1474 0537 7F040000 		.4byte	.LASF83
 1475 053b 07       		.sleb128 7
 1476 053c 14       		.uleb128 0x14
 1477 053d 54030000 		.4byte	.LASF84
 1478 0541 08       		.sleb128 8
 1479 0542 14       		.uleb128 0x14
 1480 0543 A3010000 		.4byte	.LASF85
 1481 0547 09       		.sleb128 9
 1482 0548 14       		.uleb128 0x14
 1483 0549 5B020000 		.4byte	.LASF86
 1484 054d 0A       		.sleb128 10
 1485 054e 14       		.uleb128 0x14
 1486 054f 58060000 		.4byte	.LASF87
 1487 0553 0B       		.sleb128 11
 1488 0554 14       		.uleb128 0x14
 1489 0555 89030000 		.4byte	.LASF88
 1490 0559 0C       		.sleb128 12
 1491 055a 14       		.uleb128 0x14
 1492 055b 4B050000 		.4byte	.LASF89
 1493 055f 0D       		.sleb128 13
 1494 0560 14       		.uleb128 0x14
 1495 0561 20030000 		.4byte	.LASF90
 1496 0565 0E       		.sleb128 14
 1497 0566 00       		.byte	0
 1498 0567 03       		.uleb128 0x3
 1499 0568 0D090000 		.4byte	.LASF91
 1500 056c 0F       		.byte	0xf
 1501 056d 2F       		.byte	0x2f
 1502 056e 04050000 		.4byte	0x504
 1503 0572 05       		.uleb128 0x5
 1504 0573 ED020000 		.4byte	.LASF92
 1505 0577 10       		.byte	0x10
 1506 0578 10       		.byte	0x10
 1507 0579 49       		.byte	0x49
 1508 057a E1050000 		.4byte	0x5e1
 1509 057e 06       		.uleb128 0x6
 1510 057f CA000000 		.4byte	.LASF93
 1511 0583 10       		.byte	0x10
 1512 0584 4B       		.byte	0x4b
 1513 0585 E1050000 		.4byte	0x5e1
 1514 0589 02       		.byte	0x2
 1515 058a 23       		.byte	0x23
 1516 058b 00       		.uleb128 0
 1517 058c 06       		.uleb128 0x6
 1518 058d DE020000 		.4byte	.LASF94
 1519 0591 10       		.byte	0x10
 1520 0592 4E       		.byte	0x4e
 1521 0593 8E020000 		.4byte	0x28e
 1522 0597 02       		.byte	0x2
 1523 0598 23       		.byte	0x23
 1524 0599 04       		.uleb128 0x4
 1525 059a 06       		.uleb128 0x6
 1526 059b C1020000 		.4byte	.LASF95
 1527 059f 10       		.byte	0x10
ARM GAS  /var/folders/5n/p_75w94d66l9ssrldxqdhh700000gn/T//ccHvVlNA.s 			page 28


 1528 05a0 57       		.byte	0x57
 1529 05a1 AB040000 		.4byte	0x4ab
 1530 05a5 02       		.byte	0x2
 1531 05a6 23       		.byte	0x23
 1532 05a7 08       		.uleb128 0x8
 1533 05a8 07       		.uleb128 0x7
 1534 05a9 6C656E00 		.ascii	"len\000"
 1535 05ad 10       		.byte	0x10
 1536 05ae 5A       		.byte	0x5a
 1537 05af AB040000 		.4byte	0x4ab
 1538 05b3 02       		.byte	0x2
 1539 05b4 23       		.byte	0x23
 1540 05b5 0A       		.uleb128 0xa
 1541 05b6 06       		.uleb128 0x6
 1542 05b7 AA070000 		.4byte	.LASF96
 1543 05bb 10       		.byte	0x10
 1544 05bc 5D       		.byte	0x5d
 1545 05bd 95040000 		.4byte	0x495
 1546 05c1 02       		.byte	0x2
 1547 05c2 23       		.byte	0x23
 1548 05c3 0C       		.uleb128 0xc
 1549 05c4 06       		.uleb128 0x6
 1550 05c5 73000000 		.4byte	.LASF97
 1551 05c9 10       		.byte	0x10
 1552 05ca 60       		.byte	0x60
 1553 05cb 95040000 		.4byte	0x495
 1554 05cf 02       		.byte	0x2
 1555 05d0 23       		.byte	0x23
 1556 05d1 0D       		.uleb128 0xd
 1557 05d2 07       		.uleb128 0x7
 1558 05d3 72656600 		.ascii	"ref\000"
 1559 05d7 10       		.byte	0x10
 1560 05d8 67       		.byte	0x67
 1561 05d9 AB040000 		.4byte	0x4ab
 1562 05dd 02       		.byte	0x2
 1563 05de 23       		.byte	0x23
 1564 05df 0E       		.uleb128 0xe
 1565 05e0 00       		.byte	0
 1566 05e1 09       		.uleb128 0x9
 1567 05e2 04       		.byte	0x4
 1568 05e3 72050000 		.4byte	0x572
 1569 05e7 05       		.uleb128 0x5
 1570 05e8 50090000 		.4byte	.LASF98
 1571 05ec 04       		.byte	0x4
 1572 05ed 11       		.byte	0x11
 1573 05ee 2C       		.byte	0x2c
 1574 05ef 02060000 		.4byte	0x602
 1575 05f3 06       		.uleb128 0x6
 1576 05f4 3D080000 		.4byte	.LASF99
 1577 05f8 11       		.byte	0x11
 1578 05f9 2D       		.byte	0x2d
 1579 05fa B6040000 		.4byte	0x4b6
 1580 05fe 02       		.byte	0x2
 1581 05ff 23       		.byte	0x23
 1582 0600 00       		.uleb128 0
 1583 0601 00       		.byte	0
 1584 0602 03       		.uleb128 0x3
ARM GAS  /var/folders/5n/p_75w94d66l9ssrldxqdhh700000gn/T//ccHvVlNA.s 			page 29


 1585 0603 FB080000 		.4byte	.LASF100
 1586 0607 11       		.byte	0x11
 1587 0608 40       		.byte	0x40
 1588 0609 E7050000 		.4byte	0x5e7
 1589 060d 09       		.uleb128 0x9
 1590 060e 04       		.byte	0x4
 1591 060f 13060000 		.4byte	0x613
 1592 0613 05       		.uleb128 0x5
 1593 0614 5B080000 		.4byte	.LASF101
 1594 0618 30       		.byte	0x30
 1595 0619 12       		.byte	0x12
 1596 061a 88       		.byte	0x88
 1597 061b E3060000 		.4byte	0x6e3
 1598 061f 06       		.uleb128 0x6
 1599 0620 CA000000 		.4byte	.LASF93
 1600 0624 12       		.byte	0x12
 1601 0625 8A       		.byte	0x8a
 1602 0626 0D060000 		.4byte	0x60d
 1603 062a 02       		.byte	0x2
 1604 062b 23       		.byte	0x23
 1605 062c 00       		.uleb128 0
 1606 062d 06       		.uleb128 0x6
 1607 062e 50090000 		.4byte	.LASF98
 1608 0632 12       		.byte	0x12
 1609 0633 8D       		.byte	0x8d
 1610 0634 02060000 		.4byte	0x602
 1611 0638 02       		.byte	0x2
 1612 0639 23       		.byte	0x23
 1613 063a 04       		.uleb128 0x4
 1614 063b 06       		.uleb128 0x6
 1615 063c 8B040000 		.4byte	.LASF102
 1616 0640 12       		.byte	0x12
 1617 0641 8E       		.byte	0x8e
 1618 0642 02060000 		.4byte	0x602
 1619 0646 02       		.byte	0x2
 1620 0647 23       		.byte	0x23
 1621 0648 08       		.uleb128 0x8
 1622 0649 07       		.uleb128 0x7
 1623 064a 677700   		.ascii	"gw\000"
 1624 064d 12       		.byte	0x12
 1625 064e 8F       		.byte	0x8f
 1626 064f 02060000 		.4byte	0x602
 1627 0653 02       		.byte	0x2
 1628 0654 23       		.byte	0x23
 1629 0655 0C       		.uleb128 0xc
 1630 0656 06       		.uleb128 0x6
 1631 0657 79070000 		.4byte	.LASF103
 1632 065b 12       		.byte	0x12
 1633 065c 93       		.byte	0x93
 1634 065d E3060000 		.4byte	0x6e3
 1635 0661 02       		.byte	0x2
 1636 0662 23       		.byte	0x23
 1637 0663 10       		.uleb128 0x10
 1638 0664 06       		.uleb128 0x6
 1639 0665 E6020000 		.4byte	.LASF104
 1640 0669 12       		.byte	0x12
 1641 066a 97       		.byte	0x97
ARM GAS  /var/folders/5n/p_75w94d66l9ssrldxqdhh700000gn/T//ccHvVlNA.s 			page 30


 1642 066b 09070000 		.4byte	0x709
 1643 066f 02       		.byte	0x2
 1644 0670 23       		.byte	0x23
 1645 0671 14       		.uleb128 0x14
 1646 0672 06       		.uleb128 0x6
 1647 0673 FD000000 		.4byte	.LASF105
 1648 0677 12       		.byte	0x12
 1649 0678 9B       		.byte	0x9b
 1650 0679 3A070000 		.4byte	0x73a
 1651 067d 02       		.byte	0x2
 1652 067e 23       		.byte	0x23
 1653 067f 18       		.uleb128 0x18
 1654 0680 06       		.uleb128 0x6
 1655 0681 4C080000 		.4byte	.LASF106
 1656 0685 12       		.byte	0x12
 1657 0686 A8       		.byte	0xa8
 1658 0687 8E020000 		.4byte	0x28e
 1659 068b 02       		.byte	0x2
 1660 068c 23       		.byte	0x23
 1661 068d 1C       		.uleb128 0x1c
 1662 068e 07       		.uleb128 0x7
 1663 068f 6D747500 		.ascii	"mtu\000"
 1664 0693 12       		.byte	0x12
 1665 0694 B6       		.byte	0xb6
 1666 0695 AB040000 		.4byte	0x4ab
 1667 0699 02       		.byte	0x2
 1668 069a 23       		.byte	0x23
 1669 069b 20       		.uleb128 0x20
 1670 069c 06       		.uleb128 0x6
 1671 069d 2E020000 		.4byte	.LASF107
 1672 06a1 12       		.byte	0x12
 1673 06a2 B8       		.byte	0xb8
 1674 06a3 95040000 		.4byte	0x495
 1675 06a7 02       		.byte	0x2
 1676 06a8 23       		.byte	0x23
 1677 06a9 22       		.uleb128 0x22
 1678 06aa 06       		.uleb128 0x6
 1679 06ab FA010000 		.4byte	.LASF108
 1680 06af 12       		.byte	0x12
 1681 06b0 BA       		.byte	0xba
 1682 06b1 60070000 		.4byte	0x760
 1683 06b5 02       		.byte	0x2
 1684 06b6 23       		.byte	0x23
 1685 06b7 23       		.uleb128 0x23
 1686 06b8 06       		.uleb128 0x6
 1687 06b9 73000000 		.4byte	.LASF97
 1688 06bd 12       		.byte	0x12
 1689 06be BC       		.byte	0xbc
 1690 06bf 95040000 		.4byte	0x495
 1691 06c3 02       		.byte	0x2
 1692 06c4 23       		.byte	0x23
 1693 06c5 29       		.uleb128 0x29
 1694 06c6 06       		.uleb128 0x6
 1695 06c7 F0060000 		.4byte	.LASF109
 1696 06cb 12       		.byte	0x12
 1697 06cc BE       		.byte	0xbe
 1698 06cd 70070000 		.4byte	0x770
ARM GAS  /var/folders/5n/p_75w94d66l9ssrldxqdhh700000gn/T//ccHvVlNA.s 			page 31


 1699 06d1 02       		.byte	0x2
 1700 06d2 23       		.byte	0x23
 1701 06d3 2A       		.uleb128 0x2a
 1702 06d4 07       		.uleb128 0x7
 1703 06d5 6E756D00 		.ascii	"num\000"
 1704 06d9 12       		.byte	0x12
 1705 06da C0       		.byte	0xc0
 1706 06db 95040000 		.4byte	0x495
 1707 06df 02       		.byte	0x2
 1708 06e0 23       		.byte	0x23
 1709 06e1 2C       		.uleb128 0x2c
 1710 06e2 00       		.byte	0
 1711 06e3 03       		.uleb128 0x3
 1712 06e4 6C010000 		.4byte	.LASF110
 1713 06e8 12       		.byte	0x12
 1714 06e9 6D       		.byte	0x6d
 1715 06ea EE060000 		.4byte	0x6ee
 1716 06ee 09       		.uleb128 0x9
 1717 06ef 04       		.byte	0x4
 1718 06f0 F4060000 		.4byte	0x6f4
 1719 06f4 15       		.uleb128 0x15
 1720 06f5 01       		.byte	0x1
 1721 06f6 C1040000 		.4byte	0x4c1
 1722 06fa 09070000 		.4byte	0x709
 1723 06fe 0E       		.uleb128 0xe
 1724 06ff E1050000 		.4byte	0x5e1
 1725 0703 0E       		.uleb128 0xe
 1726 0704 0D060000 		.4byte	0x60d
 1727 0708 00       		.byte	0
 1728 0709 03       		.uleb128 0x3
 1729 070a 25010000 		.4byte	.LASF111
 1730 070e 12       		.byte	0x12
 1731 070f 76       		.byte	0x76
 1732 0710 14070000 		.4byte	0x714
 1733 0714 09       		.uleb128 0x9
 1734 0715 04       		.byte	0x4
 1735 0716 1A070000 		.4byte	0x71a
 1736 071a 15       		.uleb128 0x15
 1737 071b 01       		.byte	0x1
 1738 071c C1040000 		.4byte	0x4c1
 1739 0720 34070000 		.4byte	0x734
 1740 0724 0E       		.uleb128 0xe
 1741 0725 0D060000 		.4byte	0x60d
 1742 0729 0E       		.uleb128 0xe
 1743 072a E1050000 		.4byte	0x5e1
 1744 072e 0E       		.uleb128 0xe
 1745 072f 34070000 		.4byte	0x734
 1746 0733 00       		.byte	0
 1747 0734 09       		.uleb128 0x9
 1748 0735 04       		.byte	0x4
 1749 0736 02060000 		.4byte	0x602
 1750 073a 03       		.uleb128 0x3
 1751 073b FC060000 		.4byte	.LASF112
 1752 073f 12       		.byte	0x12
 1753 0740 7E       		.byte	0x7e
 1754 0741 45070000 		.4byte	0x745
 1755 0745 09       		.uleb128 0x9
ARM GAS  /var/folders/5n/p_75w94d66l9ssrldxqdhh700000gn/T//ccHvVlNA.s 			page 32


 1756 0746 04       		.byte	0x4
 1757 0747 4B070000 		.4byte	0x74b
 1758 074b 15       		.uleb128 0x15
 1759 074c 01       		.byte	0x1
 1760 074d C1040000 		.4byte	0x4c1
 1761 0751 60070000 		.4byte	0x760
 1762 0755 0E       		.uleb128 0xe
 1763 0756 0D060000 		.4byte	0x60d
 1764 075a 0E       		.uleb128 0xe
 1765 075b E1050000 		.4byte	0x5e1
 1766 075f 00       		.byte	0
 1767 0760 16       		.uleb128 0x16
 1768 0761 95040000 		.4byte	0x495
 1769 0765 70070000 		.4byte	0x770
 1770 0769 17       		.uleb128 0x17
 1771 076a 40030000 		.4byte	0x340
 1772 076e 05       		.byte	0x5
 1773 076f 00       		.byte	0
 1774 0770 16       		.uleb128 0x16
 1775 0771 88040000 		.4byte	0x488
 1776 0775 80070000 		.4byte	0x780
 1777 0779 17       		.uleb128 0x17
 1778 077a 40030000 		.4byte	0x340
 1779 077e 01       		.byte	0x1
 1780 077f 00       		.byte	0
 1781 0780 05       		.uleb128 0x5
 1782 0781 F5060000 		.4byte	.LASF113
 1783 0785 10       		.byte	0x10
 1784 0786 13       		.byte	0x13
 1785 0787 30       		.byte	0x30
 1786 0788 C3070000 		.4byte	0x7c3
 1787 078c 07       		.uleb128 0x7
 1788 078d 7000     		.ascii	"p\000"
 1789 078f 13       		.byte	0x13
 1790 0790 31       		.byte	0x31
 1791 0791 E1050000 		.4byte	0x5e1
 1792 0795 02       		.byte	0x2
 1793 0796 23       		.byte	0x23
 1794 0797 00       		.uleb128 0
 1795 0798 07       		.uleb128 0x7
 1796 0799 70747200 		.ascii	"ptr\000"
 1797 079d 13       		.byte	0x13
 1798 079e 31       		.byte	0x31
 1799 079f E1050000 		.4byte	0x5e1
 1800 07a3 02       		.byte	0x2
 1801 07a4 23       		.byte	0x23
 1802 07a5 04       		.uleb128 0x4
 1803 07a6 06       		.uleb128 0x6
 1804 07a7 3D080000 		.4byte	.LASF99
 1805 07ab 13       		.byte	0x13
 1806 07ac 32       		.byte	0x32
 1807 07ad 02060000 		.4byte	0x602
 1808 07b1 02       		.byte	0x2
 1809 07b2 23       		.byte	0x23
 1810 07b3 08       		.uleb128 0x8
 1811 07b4 06       		.uleb128 0x6
 1812 07b5 74070000 		.4byte	.LASF114
ARM GAS  /var/folders/5n/p_75w94d66l9ssrldxqdhh700000gn/T//ccHvVlNA.s 			page 33


 1813 07b9 13       		.byte	0x13
 1814 07ba 33       		.byte	0x33
 1815 07bb AB040000 		.4byte	0x4ab
 1816 07bf 02       		.byte	0x2
 1817 07c0 23       		.byte	0x23
 1818 07c1 0C       		.uleb128 0xc
 1819 07c2 00       		.byte	0
 1820 07c3 18       		.uleb128 0x18
 1821 07c4 DE050000 		.4byte	.LASF121
 1822 07c8 01       		.byte	0x1
 1823 07c9 14       		.byte	0x14
 1824 07ca 53       		.byte	0x53
 1825 07cb F5070000 		.4byte	0x7f5
 1826 07cf 14       		.uleb128 0x14
 1827 07d0 18020000 		.4byte	.LASF115
 1828 07d4 00       		.sleb128 0
 1829 07d5 14       		.uleb128 0x14
 1830 07d6 E1070000 		.4byte	.LASF116
 1831 07da 10       		.sleb128 16
 1832 07db 14       		.uleb128 0x14
 1833 07dc 8E020000 		.4byte	.LASF117
 1834 07e0 20       		.sleb128 32
 1835 07e1 14       		.uleb128 0x14
 1836 07e2 D4080000 		.4byte	.LASF118
 1837 07e6 21       		.sleb128 33
 1838 07e7 14       		.uleb128 0x14
 1839 07e8 DD000000 		.4byte	.LASF119
 1840 07ec 22       		.sleb128 34
 1841 07ed 14       		.uleb128 0x14
 1842 07ee C8080000 		.4byte	.LASF120
 1843 07f2 C000     		.sleb128 64
 1844 07f4 00       		.byte	0
 1845 07f5 18       		.uleb128 0x18
 1846 07f6 3D010000 		.4byte	.LASF122
 1847 07fa 01       		.byte	0x1
 1848 07fb 14       		.byte	0x14
 1849 07fc 61       		.byte	0x61
 1850 07fd 20080000 		.4byte	0x820
 1851 0801 14       		.uleb128 0x14
 1852 0802 BB050000 		.4byte	.LASF123
 1853 0806 00       		.sleb128 0
 1854 0807 14       		.uleb128 0x14
 1855 0808 BC000000 		.4byte	.LASF124
 1856 080c 01       		.sleb128 1
 1857 080d 14       		.uleb128 0x14
 1858 080e F2070000 		.4byte	.LASF125
 1859 0812 02       		.sleb128 2
 1860 0813 14       		.uleb128 0x14
 1861 0814 EB050000 		.4byte	.LASF126
 1862 0818 03       		.sleb128 3
 1863 0819 14       		.uleb128 0x14
 1864 081a 8C080000 		.4byte	.LASF127
 1865 081e 04       		.sleb128 4
 1866 081f 00       		.byte	0
 1867 0820 18       		.uleb128 0x18
 1868 0821 7F070000 		.4byte	.LASF128
 1869 0825 01       		.byte	0x1
ARM GAS  /var/folders/5n/p_75w94d66l9ssrldxqdhh700000gn/T//ccHvVlNA.s 			page 34


 1870 0826 14       		.byte	0x14
 1871 0827 6A       		.byte	0x6a
 1872 0828 4B080000 		.4byte	0x84b
 1873 082c 14       		.uleb128 0x14
 1874 082d 7A020000 		.4byte	.LASF129
 1875 0831 00       		.sleb128 0
 1876 0832 14       		.uleb128 0x14
 1877 0833 6D030000 		.4byte	.LASF130
 1878 0837 01       		.sleb128 1
 1879 0838 14       		.uleb128 0x14
 1880 0839 57010000 		.4byte	.LASF131
 1881 083d 02       		.sleb128 2
 1882 083e 14       		.uleb128 0x14
 1883 083f B7030000 		.4byte	.LASF132
 1884 0843 03       		.sleb128 3
 1885 0844 14       		.uleb128 0x14
 1886 0845 B6010000 		.4byte	.LASF133
 1887 0849 04       		.sleb128 4
 1888 084a 00       		.byte	0
 1889 084b 03       		.uleb128 0x3
 1890 084c 8B070000 		.4byte	.LASF134
 1891 0850 14       		.byte	0x14
 1892 0851 83       		.byte	0x83
 1893 0852 56080000 		.4byte	0x856
 1894 0856 09       		.uleb128 0x9
 1895 0857 04       		.byte	0x4
 1896 0858 5C080000 		.4byte	0x85c
 1897 085c 0D       		.uleb128 0xd
 1898 085d 01       		.byte	0x1
 1899 085e 72080000 		.4byte	0x872
 1900 0862 0E       		.uleb128 0xe
 1901 0863 72080000 		.4byte	0x872
 1902 0867 0E       		.uleb128 0xe
 1903 0868 20080000 		.4byte	0x820
 1904 086c 0E       		.uleb128 0xe
 1905 086d AB040000 		.4byte	0x4ab
 1906 0871 00       		.byte	0
 1907 0872 09       		.uleb128 0x9
 1908 0873 04       		.byte	0x4
 1909 0874 78080000 		.4byte	0x878
 1910 0878 05       		.uleb128 0x5
 1911 0879 05090000 		.4byte	.LASF135
 1912 087d 2C       		.byte	0x2c
 1913 087e 14       		.byte	0x14
 1914 087f 86       		.byte	0x86
 1915 0880 2D090000 		.4byte	0x92d
 1916 0884 06       		.uleb128 0x6
 1917 0885 AA070000 		.4byte	.LASF96
 1918 0889 14       		.byte	0x14
 1919 088a 88       		.byte	0x88
 1920 088b C3070000 		.4byte	0x7c3
 1921 088f 02       		.byte	0x2
 1922 0890 23       		.byte	0x23
 1923 0891 00       		.uleb128 0
 1924 0892 06       		.uleb128 0x6
 1925 0893 4C080000 		.4byte	.LASF106
 1926 0897 14       		.byte	0x14
ARM GAS  /var/folders/5n/p_75w94d66l9ssrldxqdhh700000gn/T//ccHvVlNA.s 			page 35


 1927 0898 8A       		.byte	0x8a
 1928 0899 F5070000 		.4byte	0x7f5
 1929 089d 02       		.byte	0x2
 1930 089e 23       		.byte	0x23
 1931 089f 01       		.uleb128 0x1
 1932 08a0 07       		.uleb128 0x7
 1933 08a1 70636200 		.ascii	"pcb\000"
 1934 08a5 14       		.byte	0x14
 1935 08a6 91       		.byte	0x91
 1936 08a7 2D090000 		.4byte	0x92d
 1937 08ab 02       		.byte	0x2
 1938 08ac 23       		.byte	0x23
 1939 08ad 04       		.uleb128 0x4
 1940 08ae 06       		.uleb128 0x6
 1941 08af 17030000 		.4byte	.LASF136
 1942 08b3 14       		.byte	0x14
 1943 08b4 93       		.byte	0x93
 1944 08b5 C1040000 		.4byte	0x4c1
 1945 08b9 02       		.byte	0x2
 1946 08ba 23       		.byte	0x23
 1947 08bb 08       		.uleb128 0x8
 1948 08bc 06       		.uleb128 0x6
 1949 08bd EE080000 		.4byte	.LASF137
 1950 08c1 14       		.byte	0x14
 1951 08c2 95       		.byte	0x95
 1952 08c3 CC040000 		.4byte	0x4cc
 1953 08c7 02       		.byte	0x2
 1954 08c8 23       		.byte	0x23
 1955 08c9 0C       		.uleb128 0xc
 1956 08ca 06       		.uleb128 0x6
 1957 08cb 93000000 		.4byte	.LASF138
 1958 08cf 14       		.byte	0x14
 1959 08d0 98       		.byte	0x98
 1960 08d1 DD040000 		.4byte	0x4dd
 1961 08d5 02       		.byte	0x2
 1962 08d6 23       		.byte	0x23
 1963 08d7 10       		.uleb128 0x10
 1964 08d8 06       		.uleb128 0x6
 1965 08d9 34040000 		.4byte	.LASF139
 1966 08dd 14       		.byte	0x14
 1967 08de 9C       		.byte	0x9c
 1968 08df DD040000 		.4byte	0x4dd
 1969 08e3 02       		.byte	0x2
 1970 08e4 23       		.byte	0x23
 1971 08e5 14       		.uleb128 0x14
 1972 08e6 06       		.uleb128 0x6
 1973 08e7 CF060000 		.4byte	.LASF140
 1974 08eb 14       		.byte	0x14
 1975 08ec A0       		.byte	0xa0
 1976 08ed 29000000 		.4byte	0x29
 1977 08f1 02       		.byte	0x2
 1978 08f2 23       		.byte	0x23
 1979 08f3 18       		.uleb128 0x18
 1980 08f4 06       		.uleb128 0x6
 1981 08f5 73000000 		.4byte	.LASF97
 1982 08f9 14       		.byte	0x14
 1983 08fa B1       		.byte	0xb1
ARM GAS  /var/folders/5n/p_75w94d66l9ssrldxqdhh700000gn/T//ccHvVlNA.s 			page 36


 1984 08fb 95040000 		.4byte	0x495
 1985 08ff 02       		.byte	0x2
 1986 0900 23       		.byte	0x23
 1987 0901 1C       		.uleb128 0x1c
 1988 0902 06       		.uleb128 0x6
 1989 0903 30080000 		.4byte	.LASF141
 1990 0907 14       		.byte	0x14
 1991 0908 B5       		.byte	0xb5
 1992 0909 30000000 		.4byte	0x30
 1993 090d 02       		.byte	0x2
 1994 090e 23       		.byte	0x23
 1995 090f 20       		.uleb128 0x20
 1996 0910 06       		.uleb128 0x6
 1997 0911 7B060000 		.4byte	.LASF142
 1998 0915 14       		.byte	0x14
 1999 0916 B9       		.byte	0xb9
 2000 0917 150A0000 		.4byte	0xa15
 2001 091b 02       		.byte	0x2
 2002 091c 23       		.byte	0x23
 2003 091d 24       		.uleb128 0x24
 2004 091e 06       		.uleb128 0x6
 2005 091f 52080000 		.4byte	.LASF143
 2006 0923 14       		.byte	0x14
 2007 0924 BC       		.byte	0xbc
 2008 0925 4B080000 		.4byte	0x84b
 2009 0929 02       		.byte	0x2
 2010 092a 23       		.byte	0x23
 2011 092b 28       		.uleb128 0x28
 2012 092c 00       		.byte	0
 2013 092d 10       		.uleb128 0x10
 2014 092e 04       		.byte	0x4
 2015 092f 14       		.byte	0x14
 2016 0930 8C       		.byte	0x8c
 2017 0931 61090000 		.4byte	0x961
 2018 0935 19       		.uleb128 0x19
 2019 0936 697000   		.ascii	"ip\000"
 2020 0939 14       		.byte	0x14
 2021 093a 8D       		.byte	0x8d
 2022 093b B4090000 		.4byte	0x9b4
 2023 093f 19       		.uleb128 0x19
 2024 0940 74637000 		.ascii	"tcp\000"
 2025 0944 14       		.byte	0x14
 2026 0945 8E       		.byte	0x8e
 2027 0946 C0090000 		.4byte	0x9c0
 2028 094a 19       		.uleb128 0x19
 2029 094b 75647000 		.ascii	"udp\000"
 2030 094f 14       		.byte	0x14
 2031 0950 8F       		.byte	0x8f
 2032 0951 CC090000 		.4byte	0x9cc
 2033 0955 19       		.uleb128 0x19
 2034 0956 72617700 		.ascii	"raw\000"
 2035 095a 14       		.byte	0x14
 2036 095b 90       		.byte	0x90
 2037 095c D8090000 		.4byte	0x9d8
 2038 0960 00       		.byte	0
 2039 0961 05       		.uleb128 0x5
 2040 0962 DA070000 		.4byte	.LASF144
ARM GAS  /var/folders/5n/p_75w94d66l9ssrldxqdhh700000gn/T//ccHvVlNA.s 			page 37


 2041 0966 0C       		.byte	0xc
 2042 0967 15       		.byte	0x15
 2043 0968 59       		.byte	0x59
 2044 0969 B4090000 		.4byte	0x9b4
 2045 096d 06       		.uleb128 0x6
 2046 096e A9060000 		.4byte	.LASF145
 2047 0972 15       		.byte	0x15
 2048 0973 5B       		.byte	0x5b
 2049 0974 02060000 		.4byte	0x602
 2050 0978 02       		.byte	0x2
 2051 0979 23       		.byte	0x23
 2052 097a 00       		.uleb128 0
 2053 097b 06       		.uleb128 0x6
 2054 097c E4080000 		.4byte	.LASF146
 2055 0980 15       		.byte	0x15
 2056 0981 5B       		.byte	0x5b
 2057 0982 02060000 		.4byte	0x602
 2058 0986 02       		.byte	0x2
 2059 0987 23       		.byte	0x23
 2060 0988 04       		.uleb128 0x4
 2061 0989 06       		.uleb128 0x6
 2062 098a 44000000 		.4byte	.LASF147
 2063 098e 15       		.byte	0x15
 2064 098f 5B       		.byte	0x5b
 2065 0990 95040000 		.4byte	0x495
 2066 0994 02       		.byte	0x2
 2067 0995 23       		.byte	0x23
 2068 0996 08       		.uleb128 0x8
 2069 0997 07       		.uleb128 0x7
 2070 0998 746F7300 		.ascii	"tos\000"
 2071 099c 15       		.byte	0x15
 2072 099d 5B       		.byte	0x5b
 2073 099e 95040000 		.4byte	0x495
 2074 09a2 02       		.byte	0x2
 2075 09a3 23       		.byte	0x23
 2076 09a4 09       		.uleb128 0x9
 2077 09a5 07       		.uleb128 0x7
 2078 09a6 74746C00 		.ascii	"ttl\000"
 2079 09aa 15       		.byte	0x15
 2080 09ab 5B       		.byte	0x5b
 2081 09ac 95040000 		.4byte	0x495
 2082 09b0 02       		.byte	0x2
 2083 09b1 23       		.byte	0x23
 2084 09b2 0A       		.uleb128 0xa
 2085 09b3 00       		.byte	0
 2086 09b4 09       		.uleb128 0x9
 2087 09b5 04       		.byte	0x4
 2088 09b6 61090000 		.4byte	0x961
 2089 09ba 1A       		.uleb128 0x1a
 2090 09bb AD080000 		.4byte	.LASF148
 2091 09bf 01       		.byte	0x1
 2092 09c0 09       		.uleb128 0x9
 2093 09c1 04       		.byte	0x4
 2094 09c2 BA090000 		.4byte	0x9ba
 2095 09c6 1A       		.uleb128 0x1a
 2096 09c7 16000000 		.4byte	.LASF149
 2097 09cb 01       		.byte	0x1
ARM GAS  /var/folders/5n/p_75w94d66l9ssrldxqdhh700000gn/T//ccHvVlNA.s 			page 38


 2098 09cc 09       		.uleb128 0x9
 2099 09cd 04       		.byte	0x4
 2100 09ce C6090000 		.4byte	0x9c6
 2101 09d2 1A       		.uleb128 0x1a
 2102 09d3 9C000000 		.4byte	.LASF150
 2103 09d7 01       		.byte	0x1
 2104 09d8 09       		.uleb128 0x9
 2105 09d9 04       		.byte	0x4
 2106 09da D2090000 		.4byte	0x9d2
 2107 09de 05       		.uleb128 0x5
 2108 09df 61030000 		.4byte	.LASF151
 2109 09e3 14       		.byte	0x14
 2110 09e4 16       		.byte	0x16
 2111 09e5 3E       		.byte	0x3e
 2112 09e6 150A0000 		.4byte	0xa15
 2113 09ea 06       		.uleb128 0x6
 2114 09eb FB020000 		.4byte	.LASF152
 2115 09ef 16       		.byte	0x16
 2116 09f0 41       		.byte	0x41
 2117 09f1 72080000 		.4byte	0x872
 2118 09f5 02       		.byte	0x2
 2119 09f6 23       		.byte	0x23
 2120 09f7 00       		.uleb128 0
 2121 09f8 07       		.uleb128 0x7
 2122 09f9 65727200 		.ascii	"err\000"
 2123 09fd 16       		.byte	0x16
 2124 09fe 43       		.byte	0x43
 2125 09ff C1040000 		.4byte	0x4c1
 2126 0a03 02       		.byte	0x2
 2127 0a04 23       		.byte	0x23
 2128 0a05 04       		.uleb128 0x4
 2129 0a06 07       		.uleb128 0x7
 2130 0a07 6D736700 		.ascii	"msg\000"
 2131 0a0b 16       		.byte	0x16
 2132 0a0c 72       		.byte	0x72
 2133 0a0d F80A0000 		.4byte	0xaf8
 2134 0a11 02       		.byte	0x2
 2135 0a12 23       		.byte	0x23
 2136 0a13 08       		.uleb128 0x8
 2137 0a14 00       		.byte	0
 2138 0a15 09       		.uleb128 0x9
 2139 0a16 04       		.byte	0x4
 2140 0a17 DE090000 		.4byte	0x9de
 2141 0a1b 08       		.uleb128 0x8
 2142 0a1c 01       		.byte	0x1
 2143 0a1d 16       		.byte	0x16
 2144 0a1e 49       		.byte	0x49
 2145 0a1f 320A0000 		.4byte	0xa32
 2146 0a23 06       		.uleb128 0x6
 2147 0a24 F0030000 		.4byte	.LASF153
 2148 0a28 16       		.byte	0x16
 2149 0a29 4A       		.byte	0x4a
 2150 0a2a 95040000 		.4byte	0x495
 2151 0a2e 02       		.byte	0x2
 2152 0a2f 23       		.byte	0x23
 2153 0a30 00       		.uleb128 0
 2154 0a31 00       		.byte	0
ARM GAS  /var/folders/5n/p_75w94d66l9ssrldxqdhh700000gn/T//ccHvVlNA.s 			page 39


 2155 0a32 08       		.uleb128 0x8
 2156 0a33 08       		.byte	0x8
 2157 0a34 16       		.byte	0x16
 2158 0a35 4D       		.byte	0x4d
 2159 0a36 570A0000 		.4byte	0xa57
 2160 0a3a 06       		.uleb128 0x6
 2161 0a3b C9020000 		.4byte	.LASF154
 2162 0a3f 16       		.byte	0x16
 2163 0a40 4E       		.byte	0x4e
 2164 0a41 34070000 		.4byte	0x734
 2165 0a45 02       		.byte	0x2
 2166 0a46 23       		.byte	0x23
 2167 0a47 00       		.uleb128 0
 2168 0a48 06       		.uleb128 0x6
 2169 0a49 74070000 		.4byte	.LASF114
 2170 0a4d 16       		.byte	0x16
 2171 0a4e 4F       		.byte	0x4f
 2172 0a4f AB040000 		.4byte	0x4ab
 2173 0a53 02       		.byte	0x2
 2174 0a54 23       		.byte	0x23
 2175 0a55 04       		.uleb128 0x4
 2176 0a56 00       		.byte	0
 2177 0a57 08       		.uleb128 0x8
 2178 0a58 0C       		.byte	0xc
 2179 0a59 16       		.byte	0x16
 2180 0a5a 52       		.byte	0x52
 2181 0a5b 8A0A0000 		.4byte	0xa8a
 2182 0a5f 06       		.uleb128 0x6
 2183 0a60 C9020000 		.4byte	.LASF154
 2184 0a64 16       		.byte	0x16
 2185 0a65 53       		.byte	0x53
 2186 0a66 34070000 		.4byte	0x734
 2187 0a6a 02       		.byte	0x2
 2188 0a6b 23       		.byte	0x23
 2189 0a6c 00       		.uleb128 0
 2190 0a6d 06       		.uleb128 0x6
 2191 0a6e 74070000 		.4byte	.LASF114
 2192 0a72 16       		.byte	0x16
 2193 0a73 54       		.byte	0x54
 2194 0a74 8A0A0000 		.4byte	0xa8a
 2195 0a78 02       		.byte	0x2
 2196 0a79 23       		.byte	0x23
 2197 0a7a 04       		.uleb128 0x4
 2198 0a7b 06       		.uleb128 0x6
 2199 0a7c F7000000 		.4byte	.LASF155
 2200 0a80 16       		.byte	0x16
 2201 0a81 55       		.byte	0x55
 2202 0a82 95040000 		.4byte	0x495
 2203 0a86 02       		.byte	0x2
 2204 0a87 23       		.byte	0x23
 2205 0a88 08       		.uleb128 0x8
 2206 0a89 00       		.byte	0
 2207 0a8a 09       		.uleb128 0x9
 2208 0a8b 04       		.byte	0x4
 2209 0a8c AB040000 		.4byte	0x4ab
 2210 0a90 08       		.uleb128 0x8
 2211 0a91 0C       		.byte	0xc
ARM GAS  /var/folders/5n/p_75w94d66l9ssrldxqdhh700000gn/T//ccHvVlNA.s 			page 40


 2212 0a92 16       		.byte	0x16
 2213 0a93 58       		.byte	0x58
 2214 0a94 C30A0000 		.4byte	0xac3
 2215 0a98 06       		.uleb128 0x6
 2216 0a99 83050000 		.4byte	.LASF156
 2217 0a9d 16       		.byte	0x16
 2218 0a9e 59       		.byte	0x59
 2219 0a9f C30A0000 		.4byte	0xac3
 2220 0aa3 02       		.byte	0x2
 2221 0aa4 23       		.byte	0x23
 2222 0aa5 00       		.uleb128 0
 2223 0aa6 07       		.uleb128 0x7
 2224 0aa7 6C656E00 		.ascii	"len\000"
 2225 0aab 16       		.byte	0x16
 2226 0aac 5A       		.byte	0x5a
 2227 0aad 30000000 		.4byte	0x30
 2228 0ab1 02       		.byte	0x2
 2229 0ab2 23       		.byte	0x23
 2230 0ab3 04       		.uleb128 0x4
 2231 0ab4 06       		.uleb128 0x6
 2232 0ab5 2C060000 		.4byte	.LASF157
 2233 0ab9 16       		.byte	0x16
 2234 0aba 5B       		.byte	0x5b
 2235 0abb 95040000 		.4byte	0x495
 2236 0abf 02       		.byte	0x2
 2237 0ac0 23       		.byte	0x23
 2238 0ac1 08       		.uleb128 0x8
 2239 0ac2 00       		.byte	0
 2240 0ac3 09       		.uleb128 0x9
 2241 0ac4 04       		.byte	0x4
 2242 0ac5 C90A0000 		.4byte	0xac9
 2243 0ac9 1B       		.uleb128 0x1b
 2244 0aca 08       		.uleb128 0x8
 2245 0acb 04       		.byte	0x4
 2246 0acc 16       		.byte	0x16
 2247 0acd 5E       		.byte	0x5e
 2248 0ace E10A0000 		.4byte	0xae1
 2249 0ad2 07       		.uleb128 0x7
 2250 0ad3 6C656E00 		.ascii	"len\000"
 2251 0ad7 16       		.byte	0x16
 2252 0ad8 5F       		.byte	0x5f
 2253 0ad9 B6040000 		.4byte	0x4b6
 2254 0add 02       		.byte	0x2
 2255 0ade 23       		.byte	0x23
 2256 0adf 00       		.uleb128 0
 2257 0ae0 00       		.byte	0
 2258 0ae1 08       		.uleb128 0x8
 2259 0ae2 01       		.byte	0x1
 2260 0ae3 16       		.byte	0x16
 2261 0ae4 62       		.byte	0x62
 2262 0ae5 F80A0000 		.4byte	0xaf8
 2263 0ae9 06       		.uleb128 0x6
 2264 0aea ED070000 		.4byte	.LASF158
 2265 0aee 16       		.byte	0x16
 2266 0aef 63       		.byte	0x63
 2267 0af0 95040000 		.4byte	0x495
 2268 0af4 02       		.byte	0x2
ARM GAS  /var/folders/5n/p_75w94d66l9ssrldxqdhh700000gn/T//ccHvVlNA.s 			page 41


 2269 0af5 23       		.byte	0x23
 2270 0af6 00       		.uleb128 0
 2271 0af7 00       		.byte	0
 2272 0af8 10       		.uleb128 0x10
 2273 0af9 0C       		.byte	0xc
 2274 0afa 16       		.byte	0x16
 2275 0afb 45       		.byte	0x45
 2276 0afc 430B0000 		.4byte	0xb43
 2277 0b00 19       		.uleb128 0x19
 2278 0b01 6200     		.ascii	"b\000"
 2279 0b03 16       		.byte	0x16
 2280 0b04 47       		.byte	0x47
 2281 0b05 430B0000 		.4byte	0xb43
 2282 0b09 19       		.uleb128 0x19
 2283 0b0a 6E00     		.ascii	"n\000"
 2284 0b0c 16       		.byte	0x16
 2285 0b0d 4B       		.byte	0x4b
 2286 0b0e 1B0A0000 		.4byte	0xa1b
 2287 0b12 19       		.uleb128 0x19
 2288 0b13 626300   		.ascii	"bc\000"
 2289 0b16 16       		.byte	0x16
 2290 0b17 50       		.byte	0x50
 2291 0b18 320A0000 		.4byte	0xa32
 2292 0b1c 19       		.uleb128 0x19
 2293 0b1d 616400   		.ascii	"ad\000"
 2294 0b20 16       		.byte	0x16
 2295 0b21 56       		.byte	0x56
 2296 0b22 570A0000 		.4byte	0xa57
 2297 0b26 19       		.uleb128 0x19
 2298 0b27 7700     		.ascii	"w\000"
 2299 0b29 16       		.byte	0x16
 2300 0b2a 5C       		.byte	0x5c
 2301 0b2b 900A0000 		.4byte	0xa90
 2302 0b2f 19       		.uleb128 0x19
 2303 0b30 7200     		.ascii	"r\000"
 2304 0b32 16       		.byte	0x16
 2305 0b33 60       		.byte	0x60
 2306 0b34 CA0A0000 		.4byte	0xaca
 2307 0b38 19       		.uleb128 0x19
 2308 0b39 736400   		.ascii	"sd\000"
 2309 0b3c 16       		.byte	0x16
 2310 0b3d 64       		.byte	0x64
 2311 0b3e E10A0000 		.4byte	0xae1
 2312 0b42 00       		.byte	0
 2313 0b43 09       		.uleb128 0x9
 2314 0b44 04       		.byte	0x4
 2315 0b45 80070000 		.4byte	0x780
 2316 0b49 05       		.uleb128 0x5
 2317 0b4a 5C040000 		.4byte	.LASF159
 2318 0b4e 18       		.byte	0x18
 2319 0b4f 16       		.byte	0x16
 2320 0b50 78       		.byte	0x78
 2321 0b51 720B0000 		.4byte	0xb72
 2322 0b55 06       		.uleb128 0x6
 2323 0b56 BD070000 		.4byte	.LASF160
 2324 0b5a 16       		.byte	0x16
 2325 0b5b 7A       		.byte	0x7a
ARM GAS  /var/folders/5n/p_75w94d66l9ssrldxqdhh700000gn/T//ccHvVlNA.s 			page 42


 2326 0b5c 7E0B0000 		.4byte	0xb7e
 2327 0b60 02       		.byte	0x2
 2328 0b61 23       		.byte	0x23
 2329 0b62 00       		.uleb128 0
 2330 0b63 07       		.uleb128 0x7
 2331 0b64 6D736700 		.ascii	"msg\000"
 2332 0b68 16       		.byte	0x16
 2333 0b69 7C       		.byte	0x7c
 2334 0b6a DE090000 		.4byte	0x9de
 2335 0b6e 02       		.byte	0x2
 2336 0b6f 23       		.byte	0x23
 2337 0b70 04       		.uleb128 0x4
 2338 0b71 00       		.byte	0
 2339 0b72 0D       		.uleb128 0xd
 2340 0b73 01       		.byte	0x1
 2341 0b74 7E0B0000 		.4byte	0xb7e
 2342 0b78 0E       		.uleb128 0xe
 2343 0b79 150A0000 		.4byte	0xa15
 2344 0b7d 00       		.byte	0
 2345 0b7e 09       		.uleb128 0x9
 2346 0b7f 04       		.byte	0x4
 2347 0b80 720B0000 		.4byte	0xb72
 2348 0b84 03       		.uleb128 0x3
 2349 0b85 5F000000 		.4byte	.LASF161
 2350 0b89 17       		.byte	0x17
 2351 0b8a 3F       		.byte	0x3f
 2352 0b8b 47030000 		.4byte	0x347
 2353 0b8f 03       		.uleb128 0x3
 2354 0b90 5A050000 		.4byte	.LASF162
 2355 0b94 18       		.byte	0x18
 2356 0b95 4C       		.byte	0x4c
 2357 0b96 47030000 		.4byte	0x347
 2358 0b9a 03       		.uleb128 0x3
 2359 0b9b 69060000 		.4byte	.LASF163
 2360 0b9f 18       		.byte	0x18
 2361 0ba0 4E       		.byte	0x4e
 2362 0ba1 47030000 		.4byte	0x347
 2363 0ba5 18       		.uleb128 0x18
 2364 0ba6 70040000 		.4byte	.LASF164
 2365 0baa 01       		.byte	0x1
 2366 0bab 18       		.byte	0x18
 2367 0bac 6E       		.byte	0x6e
 2368 0bad D00B0000 		.4byte	0xbd0
 2369 0bb1 14       		.uleb128 0x14
 2370 0bb2 87060000 		.4byte	.LASF165
 2371 0bb6 00       		.sleb128 0
 2372 0bb7 14       		.uleb128 0x14
 2373 0bb8 C8010000 		.4byte	.LASF166
 2374 0bbc 01       		.sleb128 1
 2375 0bbd 14       		.uleb128 0x14
 2376 0bbe 20050000 		.4byte	.LASF167
 2377 0bc2 02       		.sleb128 2
 2378 0bc3 14       		.uleb128 0x14
 2379 0bc4 14090000 		.4byte	.LASF168
 2380 0bc8 03       		.sleb128 3
 2381 0bc9 14       		.uleb128 0x14
 2382 0bca 49040000 		.4byte	.LASF169
ARM GAS  /var/folders/5n/p_75w94d66l9ssrldxqdhh700000gn/T//ccHvVlNA.s 			page 43


 2383 0bce 04       		.sleb128 4
 2384 0bcf 00       		.byte	0
 2385 0bd0 08       		.uleb128 0x8
 2386 0bd1 08       		.byte	0x8
 2387 0bd2 18       		.byte	0x18
 2388 0bd3 87       		.byte	0x87
 2389 0bd4 F30B0000 		.4byte	0xbf3
 2390 0bd8 07       		.uleb128 0x7
 2391 0bd9 7000     		.ascii	"p\000"
 2392 0bdb 18       		.byte	0x18
 2393 0bdc 88       		.byte	0x88
 2394 0bdd E1050000 		.4byte	0x5e1
 2395 0be1 02       		.byte	0x2
 2396 0be2 23       		.byte	0x23
 2397 0be3 00       		.uleb128 0
 2398 0be4 06       		.uleb128 0x6
 2399 0be5 5B080000 		.4byte	.LASF101
 2400 0be9 18       		.byte	0x18
 2401 0bea 89       		.byte	0x89
 2402 0beb 0D060000 		.4byte	0x60d
 2403 0bef 02       		.byte	0x2
 2404 0bf0 23       		.byte	0x23
 2405 0bf1 04       		.uleb128 0x4
 2406 0bf2 00       		.byte	0
 2407 0bf3 08       		.uleb128 0x8
 2408 0bf4 08       		.byte	0x8
 2409 0bf5 18       		.byte	0x18
 2410 0bf6 8B       		.byte	0x8b
 2411 0bf7 180C0000 		.4byte	0xc18
 2412 0bfb 06       		.uleb128 0x6
 2413 0bfc BD070000 		.4byte	.LASF160
 2414 0c00 18       		.byte	0x18
 2415 0c01 8C       		.byte	0x8c
 2416 0c02 9A0B0000 		.4byte	0xb9a
 2417 0c06 02       		.byte	0x2
 2418 0c07 23       		.byte	0x23
 2419 0c08 00       		.uleb128 0
 2420 0c09 07       		.uleb128 0x7
 2421 0c0a 63747800 		.ascii	"ctx\000"
 2422 0c0e 18       		.byte	0x18
 2423 0c0f 8D       		.byte	0x8d
 2424 0c10 8E020000 		.4byte	0x28e
 2425 0c14 02       		.byte	0x2
 2426 0c15 23       		.byte	0x23
 2427 0c16 04       		.uleb128 0x4
 2428 0c17 00       		.byte	0
 2429 0c18 08       		.uleb128 0x8
 2430 0c19 0C       		.byte	0xc
 2431 0c1a 18       		.byte	0x18
 2432 0c1b 90       		.byte	0x90
 2433 0c1c 490C0000 		.4byte	0xc49
 2434 0c20 06       		.uleb128 0x6
 2435 0c21 41090000 		.4byte	.LASF170
 2436 0c25 18       		.byte	0x18
 2437 0c26 91       		.byte	0x91
 2438 0c27 B6040000 		.4byte	0x4b6
 2439 0c2b 02       		.byte	0x2
ARM GAS  /var/folders/5n/p_75w94d66l9ssrldxqdhh700000gn/T//ccHvVlNA.s 			page 44


 2440 0c2c 23       		.byte	0x23
 2441 0c2d 00       		.uleb128 0
 2442 0c2e 07       		.uleb128 0x7
 2443 0c2f 6800     		.ascii	"h\000"
 2444 0c31 18       		.byte	0x18
 2445 0c32 92       		.byte	0x92
 2446 0c33 840B0000 		.4byte	0xb84
 2447 0c37 02       		.byte	0x2
 2448 0c38 23       		.byte	0x23
 2449 0c39 04       		.uleb128 0x4
 2450 0c3a 07       		.uleb128 0x7
 2451 0c3b 61726700 		.ascii	"arg\000"
 2452 0c3f 18       		.byte	0x18
 2453 0c40 93       		.byte	0x93
 2454 0c41 8E020000 		.4byte	0x28e
 2455 0c45 02       		.byte	0x2
 2456 0c46 23       		.byte	0x23
 2457 0c47 08       		.uleb128 0x8
 2458 0c48 00       		.byte	0
 2459 0c49 10       		.uleb128 0x10
 2460 0c4a 0C       		.byte	0xc
 2461 0c4b 18       		.byte	0x18
 2462 0c4c 80       		.byte	0x80
 2463 0c4d 7D0C0000 		.4byte	0xc7d
 2464 0c51 11       		.uleb128 0x11
 2465 0c52 51060000 		.4byte	.LASF171
 2466 0c56 18       		.byte	0x18
 2467 0c57 82       		.byte	0x82
 2468 0c58 7D0C0000 		.4byte	0xc7d
 2469 0c5c 19       		.uleb128 0x19
 2470 0c5d 696E7000 		.ascii	"inp\000"
 2471 0c61 18       		.byte	0x18
 2472 0c62 8A       		.byte	0x8a
 2473 0c63 D00B0000 		.4byte	0xbd0
 2474 0c67 19       		.uleb128 0x19
 2475 0c68 636200   		.ascii	"cb\000"
 2476 0c6b 18       		.byte	0x18
 2477 0c6c 8E       		.byte	0x8e
 2478 0c6d F30B0000 		.4byte	0xbf3
 2479 0c71 19       		.uleb128 0x19
 2480 0c72 746D6F00 		.ascii	"tmo\000"
 2481 0c76 18       		.byte	0x18
 2482 0c77 94       		.byte	0x94
 2483 0c78 180C0000 		.4byte	0xc18
 2484 0c7c 00       		.byte	0
 2485 0c7d 09       		.uleb128 0x9
 2486 0c7e 04       		.byte	0x4
 2487 0c7f 490B0000 		.4byte	0xb49
 2488 0c83 05       		.uleb128 0x5
 2489 0c84 28090000 		.4byte	.LASF172
 2490 0c88 14       		.byte	0x14
 2491 0c89 18       		.byte	0x18
 2492 0c8a 7D       		.byte	0x7d
 2493 0c8b BA0C0000 		.4byte	0xcba
 2494 0c8f 06       		.uleb128 0x6
 2495 0c90 AA070000 		.4byte	.LASF96
 2496 0c94 18       		.byte	0x18
ARM GAS  /var/folders/5n/p_75w94d66l9ssrldxqdhh700000gn/T//ccHvVlNA.s 			page 45


 2497 0c95 7E       		.byte	0x7e
 2498 0c96 A50B0000 		.4byte	0xba5
 2499 0c9a 02       		.byte	0x2
 2500 0c9b 23       		.byte	0x23
 2501 0c9c 00       		.uleb128 0
 2502 0c9d 07       		.uleb128 0x7
 2503 0c9e 73656D00 		.ascii	"sem\000"
 2504 0ca2 18       		.byte	0x18
 2505 0ca3 7F       		.byte	0x7f
 2506 0ca4 BA0C0000 		.4byte	0xcba
 2507 0ca8 02       		.byte	0x2
 2508 0ca9 23       		.byte	0x23
 2509 0caa 04       		.uleb128 0x4
 2510 0cab 07       		.uleb128 0x7
 2511 0cac 6D736700 		.ascii	"msg\000"
 2512 0cb0 18       		.byte	0x18
 2513 0cb1 96       		.byte	0x96
 2514 0cb2 490C0000 		.4byte	0xc49
 2515 0cb6 02       		.byte	0x2
 2516 0cb7 23       		.byte	0x23
 2517 0cb8 08       		.uleb128 0x8
 2518 0cb9 00       		.byte	0
 2519 0cba 09       		.uleb128 0x9
 2520 0cbb 04       		.byte	0x4
 2521 0cbc CC040000 		.4byte	0x4cc
 2522 0cc0 1C       		.uleb128 0x1c
 2523 0cc1 93050000 		.4byte	.LASF173
 2524 0cc5 01       		.byte	0x1
 2525 0cc6 AD01     		.2byte	0x1ad
 2526 0cc8 01       		.byte	0x1
 2527 0cc9 00000000 		.4byte	.LFB14
 2528 0ccd 04000000 		.4byte	.LFE14
 2529 0cd1 02       		.byte	0x2
 2530 0cd2 7D       		.byte	0x7d
 2531 0cd3 00       		.sleb128 0
 2532 0cd4 01       		.byte	0x1
 2533 0cd5 040D0000 		.4byte	0xd04
 2534 0cd9 1D       		.uleb128 0x1d
 2535 0cda 7000     		.ascii	"p\000"
 2536 0cdc 01       		.byte	0x1
 2537 0cdd AD01     		.2byte	0x1ad
 2538 0cdf 8E020000 		.4byte	0x28e
 2539 0ce3 00000000 		.4byte	.LLST0
 2540 0ce7 1E       		.uleb128 0x1e
 2541 0ce8 7100     		.ascii	"q\000"
 2542 0cea 01       		.byte	0x1
 2543 0ceb AF01     		.2byte	0x1af
 2544 0ced E1050000 		.4byte	0x5e1
 2545 0cf1 1F       		.uleb128 0x1f
 2546 0cf2 04000000 		.4byte	.LVL1
 2547 0cf6 01       		.byte	0x1
 2548 0cf7 3D120000 		.4byte	0x123d
 2549 0cfb 20       		.uleb128 0x20
 2550 0cfc 01       		.byte	0x1
 2551 0cfd 50       		.byte	0x50
 2552 0cfe 03       		.byte	0x3
 2553 0cff F3       		.byte	0xf3
ARM GAS  /var/folders/5n/p_75w94d66l9ssrldxqdhh700000gn/T//ccHvVlNA.s 			page 46


 2554 0d00 01       		.uleb128 0x1
 2555 0d01 50       		.byte	0x50
 2556 0d02 00       		.byte	0
 2557 0d03 00       		.byte	0
 2558 0d04 21       		.uleb128 0x21
 2559 0d05 00030000 		.4byte	.LASF174
 2560 0d09 01       		.byte	0x1
 2561 0d0a 4A       		.byte	0x4a
 2562 0d0b 01       		.byte	0x1
 2563 0d0c 00000000 		.4byte	.LFB7
 2564 0d10 A4000000 		.4byte	.LFE7
 2565 0d14 21000000 		.4byte	.LLST1
 2566 0d18 01       		.byte	0x1
 2567 0d19 D10D0000 		.4byte	0xdd1
 2568 0d1d 22       		.uleb128 0x22
 2569 0d1e 61726700 		.ascii	"arg\000"
 2570 0d22 01       		.byte	0x1
 2571 0d23 4A       		.byte	0x4a
 2572 0d24 8E020000 		.4byte	0x28e
 2573 0d28 4D000000 		.4byte	.LLST2
 2574 0d2c 23       		.uleb128 0x23
 2575 0d2d 6D736700 		.ascii	"msg\000"
 2576 0d31 01       		.byte	0x1
 2577 0d32 4C       		.byte	0x4c
 2578 0d33 D10D0000 		.4byte	0xdd1
 2579 0d37 02       		.byte	0x2
 2580 0d38 91       		.byte	0x91
 2581 0d39 74       		.sleb128 -12
 2582 0d3a 24       		.uleb128 0x24
 2583 0d3b 1A000000 		.4byte	.LVL6
 2584 0d3f 55120000 		.4byte	0x1255
 2585 0d43 570D0000 		.4byte	0xd57
 2586 0d47 20       		.uleb128 0x20
 2587 0d48 01       		.byte	0x1
 2588 0d49 51       		.byte	0x51
 2589 0d4a 02       		.byte	0x2
 2590 0d4b 74       		.byte	0x74
 2591 0d4c 00       		.sleb128 0
 2592 0d4d 20       		.uleb128 0x20
 2593 0d4e 01       		.byte	0x1
 2594 0d4f 50       		.byte	0x50
 2595 0d50 05       		.byte	0x5
 2596 0d51 03       		.byte	0x3
 2597 0d52 00000000 		.4byte	.LANCHOR2
 2598 0d56 00       		.byte	0
 2599 0d57 24       		.uleb128 0x24
 2600 0d58 3A000000 		.4byte	.LVL8
 2601 0d5c 7A120000 		.4byte	0x127a
 2602 0d60 6A0D0000 		.4byte	0xd6a
 2603 0d64 20       		.uleb128 0x20
 2604 0d65 01       		.byte	0x1
 2605 0d66 50       		.byte	0x50
 2606 0d67 01       		.byte	0x1
 2607 0d68 39       		.byte	0x39
 2608 0d69 00       		.byte	0
 2609 0d6a 25       		.uleb128 0x25
 2610 0d6b 44000000 		.4byte	.LVL9
ARM GAS  /var/folders/5n/p_75w94d66l9ssrldxqdhh700000gn/T//ccHvVlNA.s 			page 47


 2611 0d6f 93120000 		.4byte	0x1293
 2612 0d73 24       		.uleb128 0x24
 2613 0d74 4C000000 		.4byte	.LVL10
 2614 0d78 7A120000 		.4byte	0x127a
 2615 0d7c 860D0000 		.4byte	0xd86
 2616 0d80 20       		.uleb128 0x20
 2617 0d81 01       		.byte	0x1
 2618 0d82 50       		.byte	0x50
 2619 0d83 01       		.byte	0x1
 2620 0d84 39       		.byte	0x39
 2621 0d85 00       		.byte	0
 2622 0d86 25       		.uleb128 0x25
 2623 0d87 58000000 		.4byte	.LVL11
 2624 0d8b AC120000 		.4byte	0x12ac
 2625 0d8f 24       		.uleb128 0x24
 2626 0d90 60000000 		.4byte	.LVL12
 2627 0d94 7A120000 		.4byte	0x127a
 2628 0d98 A20D0000 		.4byte	0xda2
 2629 0d9c 20       		.uleb128 0x20
 2630 0d9d 01       		.byte	0x1
 2631 0d9e 50       		.byte	0x50
 2632 0d9f 01       		.byte	0x1
 2633 0da0 39       		.byte	0x39
 2634 0da1 00       		.byte	0
 2635 0da2 25       		.uleb128 0x25
 2636 0da3 76000000 		.4byte	.LVL13
 2637 0da7 CA120000 		.4byte	0x12ca
 2638 0dab 24       		.uleb128 0x24
 2639 0dac 7E000000 		.4byte	.LVL14
 2640 0db0 7A120000 		.4byte	0x127a
 2641 0db4 BE0D0000 		.4byte	0xdbe
 2642 0db8 20       		.uleb128 0x20
 2643 0db9 01       		.byte	0x1
 2644 0dba 50       		.byte	0x50
 2645 0dbb 01       		.byte	0x1
 2646 0dbc 3A       		.byte	0x3a
 2647 0dbd 00       		.byte	0
 2648 0dbe 25       		.uleb128 0x25
 2649 0dbf 8E000000 		.4byte	.LVL16
 2650 0dc3 E7120000 		.4byte	0x12e7
 2651 0dc7 25       		.uleb128 0x25
 2652 0dc8 94000000 		.4byte	.LVL17
 2653 0dcc F2120000 		.4byte	0x12f2
 2654 0dd0 00       		.byte	0
 2655 0dd1 09       		.uleb128 0x9
 2656 0dd2 04       		.byte	0x4
 2657 0dd3 830C0000 		.4byte	0xc83
 2658 0dd7 26       		.uleb128 0x26
 2659 0dd8 01       		.byte	0x1
 2660 0dd9 A1040000 		.4byte	.LASF175
 2661 0ddd 01       		.byte	0x1
 2662 0dde 9C       		.byte	0x9c
 2663 0ddf 01       		.byte	0x1
 2664 0de0 C1040000 		.4byte	0x4c1
 2665 0de4 00000000 		.4byte	.LFB8
 2666 0de8 48000000 		.4byte	.LFE8
 2667 0dec 6E000000 		.4byte	.LLST3
ARM GAS  /var/folders/5n/p_75w94d66l9ssrldxqdhh700000gn/T//ccHvVlNA.s 			page 48


 2668 0df0 01       		.byte	0x1
 2669 0df1 7D0E0000 		.4byte	0xe7d
 2670 0df5 22       		.uleb128 0x22
 2671 0df6 7000     		.ascii	"p\000"
 2672 0df8 01       		.byte	0x1
 2673 0df9 9C       		.byte	0x9c
 2674 0dfa E1050000 		.4byte	0x5e1
 2675 0dfe 8E000000 		.4byte	.LLST4
 2676 0e02 22       		.uleb128 0x22
 2677 0e03 696E7000 		.ascii	"inp\000"
 2678 0e07 01       		.byte	0x1
 2679 0e08 9C       		.byte	0x9c
 2680 0e09 0D060000 		.4byte	0x60d
 2681 0e0d AC000000 		.4byte	.LLST5
 2682 0e11 27       		.uleb128 0x27
 2683 0e12 6D736700 		.ascii	"msg\000"
 2684 0e16 01       		.byte	0x1
 2685 0e17 AD       		.byte	0xad
 2686 0e18 D10D0000 		.4byte	0xdd1
 2687 0e1c CA000000 		.4byte	.LLST6
 2688 0e20 24       		.uleb128 0x24
 2689 0e21 0C000000 		.4byte	.LVL20
 2690 0e25 0F130000 		.4byte	0x130f
 2691 0e29 370E0000 		.4byte	0xe37
 2692 0e2d 20       		.uleb128 0x20
 2693 0e2e 01       		.byte	0x1
 2694 0e2f 50       		.byte	0x50
 2695 0e30 05       		.byte	0x5
 2696 0e31 03       		.byte	0x3
 2697 0e32 00000000 		.4byte	.LANCHOR2
 2698 0e36 00       		.byte	0
 2699 0e37 24       		.uleb128 0x24
 2700 0e38 14000000 		.4byte	.LVL21
 2701 0e3c 27130000 		.4byte	0x1327
 2702 0e40 4A0E0000 		.4byte	0xe4a
 2703 0e44 20       		.uleb128 0x20
 2704 0e45 01       		.byte	0x1
 2705 0e46 50       		.byte	0x50
 2706 0e47 01       		.byte	0x1
 2707 0e48 3A       		.byte	0x3a
 2708 0e49 00       		.byte	0
 2709 0e4a 24       		.uleb128 0x24
 2710 0e4b 28000000 		.4byte	.LVL23
 2711 0e4f 3F130000 		.4byte	0x133f
 2712 0e53 670E0000 		.4byte	0xe67
 2713 0e57 20       		.uleb128 0x20
 2714 0e58 01       		.byte	0x1
 2715 0e59 51       		.byte	0x51
 2716 0e5a 02       		.byte	0x2
 2717 0e5b 74       		.byte	0x74
 2718 0e5c 00       		.sleb128 0
 2719 0e5d 20       		.uleb128 0x20
 2720 0e5e 01       		.byte	0x1
 2721 0e5f 50       		.byte	0x50
 2722 0e60 05       		.byte	0x5
 2723 0e61 03       		.byte	0x3
 2724 0e62 00000000 		.4byte	.LANCHOR2
ARM GAS  /var/folders/5n/p_75w94d66l9ssrldxqdhh700000gn/T//ccHvVlNA.s 			page 49


 2725 0e66 00       		.byte	0
 2726 0e67 28       		.uleb128 0x28
 2727 0e68 3E000000 		.4byte	.LVL27
 2728 0e6c 7A120000 		.4byte	0x127a
 2729 0e70 20       		.uleb128 0x20
 2730 0e71 01       		.byte	0x1
 2731 0e72 51       		.byte	0x51
 2732 0e73 02       		.byte	0x2
 2733 0e74 74       		.byte	0x74
 2734 0e75 00       		.sleb128 0
 2735 0e76 20       		.uleb128 0x20
 2736 0e77 01       		.byte	0x1
 2737 0e78 50       		.byte	0x50
 2738 0e79 01       		.byte	0x1
 2739 0e7a 3A       		.byte	0x3a
 2740 0e7b 00       		.byte	0
 2741 0e7c 00       		.byte	0
 2742 0e7d 26       		.uleb128 0x26
 2743 0e7e 01       		.byte	0x1
 2744 0e7f D6060000 		.4byte	.LASF176
 2745 0e83 01       		.byte	0x1
 2746 0e84 CE       		.byte	0xce
 2747 0e85 01       		.byte	0x1
 2748 0e86 C1040000 		.4byte	0x4c1
 2749 0e8a 00000000 		.4byte	.LFB9
 2750 0e8e 54000000 		.4byte	.LFE9
 2751 0e92 09010000 		.4byte	.LLST7
 2752 0e96 01       		.byte	0x1
 2753 0e97 3D0F0000 		.4byte	0xf3d
 2754 0e9b 29       		.uleb128 0x29
 2755 0e9c BD070000 		.4byte	.LASF160
 2756 0ea0 01       		.byte	0x1
 2757 0ea1 CE       		.byte	0xce
 2758 0ea2 9A0B0000 		.4byte	0xb9a
 2759 0ea6 29010000 		.4byte	.LLST8
 2760 0eaa 22       		.uleb128 0x22
 2761 0eab 63747800 		.ascii	"ctx\000"
 2762 0eaf 01       		.byte	0x1
 2763 0eb0 CE       		.byte	0xce
 2764 0eb1 8E020000 		.4byte	0x28e
 2765 0eb5 47010000 		.4byte	.LLST9
 2766 0eb9 29       		.uleb128 0x29
 2767 0eba 51010000 		.4byte	.LASF177
 2768 0ebe 01       		.byte	0x1
 2769 0ebf CE       		.byte	0xce
 2770 0ec0 95040000 		.4byte	0x495
 2771 0ec4 65010000 		.4byte	.LLST10
 2772 0ec8 27       		.uleb128 0x27
 2773 0ec9 6D736700 		.ascii	"msg\000"
 2774 0ecd 01       		.byte	0x1
 2775 0ece D0       		.byte	0xd0
 2776 0ecf D10D0000 		.4byte	0xdd1
 2777 0ed3 86010000 		.4byte	.LLST11
 2778 0ed7 24       		.uleb128 0x24
 2779 0ed8 0E000000 		.4byte	.LVL30
 2780 0edc 0F130000 		.4byte	0x130f
 2781 0ee0 EE0E0000 		.4byte	0xeee
ARM GAS  /var/folders/5n/p_75w94d66l9ssrldxqdhh700000gn/T//ccHvVlNA.s 			page 50


 2782 0ee4 20       		.uleb128 0x20
 2783 0ee5 01       		.byte	0x1
 2784 0ee6 50       		.byte	0x50
 2785 0ee7 05       		.byte	0x5
 2786 0ee8 03       		.byte	0x3
 2787 0ee9 00000000 		.4byte	.LANCHOR2
 2788 0eed 00       		.byte	0
 2789 0eee 24       		.uleb128 0x24
 2790 0eef 16000000 		.4byte	.LVL31
 2791 0ef3 27130000 		.4byte	0x1327
 2792 0ef7 010F0000 		.4byte	0xf01
 2793 0efb 20       		.uleb128 0x20
 2794 0efc 01       		.byte	0x1
 2795 0efd 50       		.byte	0x50
 2796 0efe 01       		.byte	0x1
 2797 0eff 39       		.byte	0x39
 2798 0f00 00       		.byte	0
 2799 0f01 24       		.uleb128 0x24
 2800 0f02 2C000000 		.4byte	.LVL33
 2801 0f06 3F130000 		.4byte	0x133f
 2802 0f0a 1E0F0000 		.4byte	0xf1e
 2803 0f0e 20       		.uleb128 0x20
 2804 0f0f 01       		.byte	0x1
 2805 0f10 51       		.byte	0x51
 2806 0f11 02       		.byte	0x2
 2807 0f12 74       		.byte	0x74
 2808 0f13 00       		.sleb128 0
 2809 0f14 20       		.uleb128 0x20
 2810 0f15 01       		.byte	0x1
 2811 0f16 50       		.byte	0x50
 2812 0f17 05       		.byte	0x5
 2813 0f18 03       		.byte	0x3
 2814 0f19 00000000 		.4byte	.LANCHOR2
 2815 0f1d 00       		.byte	0
 2816 0f1e 25       		.uleb128 0x25
 2817 0f1f 36000000 		.4byte	.LVL36
 2818 0f23 5C130000 		.4byte	0x135c
 2819 0f27 28       		.uleb128 0x28
 2820 0f28 48000000 		.4byte	.LVL39
 2821 0f2c 7A120000 		.4byte	0x127a
 2822 0f30 20       		.uleb128 0x20
 2823 0f31 01       		.byte	0x1
 2824 0f32 51       		.byte	0x51
 2825 0f33 02       		.byte	0x2
 2826 0f34 74       		.byte	0x74
 2827 0f35 00       		.sleb128 0
 2828 0f36 20       		.uleb128 0x20
 2829 0f37 01       		.byte	0x1
 2830 0f38 50       		.byte	0x50
 2831 0f39 01       		.byte	0x1
 2832 0f3a 39       		.byte	0x39
 2833 0f3b 00       		.byte	0
 2834 0f3c 00       		.byte	0
 2835 0f3d 26       		.uleb128 0x26
 2836 0f3e 01       		.byte	0x1
 2837 0f3f 7E080000 		.4byte	.LASF178
 2838 0f43 01       		.byte	0x1
ARM GAS  /var/folders/5n/p_75w94d66l9ssrldxqdhh700000gn/T//ccHvVlNA.s 			page 51


 2839 0f44 F2       		.byte	0xf2
 2840 0f45 01       		.byte	0x1
 2841 0f46 C1040000 		.4byte	0x4c1
 2842 0f4a 00000000 		.4byte	.LFB10
 2843 0f4e 3C000000 		.4byte	.LFE10
 2844 0f52 E6010000 		.4byte	.LLST12
 2845 0f56 01       		.byte	0x1
 2846 0f57 D30F0000 		.4byte	0xfd3
 2847 0f5b 29       		.uleb128 0x29
 2848 0f5c 41090000 		.4byte	.LASF170
 2849 0f60 01       		.byte	0x1
 2850 0f61 F2       		.byte	0xf2
 2851 0f62 B6040000 		.4byte	0x4b6
 2852 0f66 06020000 		.4byte	.LLST13
 2853 0f6a 22       		.uleb128 0x22
 2854 0f6b 6800     		.ascii	"h\000"
 2855 0f6d 01       		.byte	0x1
 2856 0f6e F2       		.byte	0xf2
 2857 0f6f 840B0000 		.4byte	0xb84
 2858 0f73 24020000 		.4byte	.LLST14
 2859 0f77 22       		.uleb128 0x22
 2860 0f78 61726700 		.ascii	"arg\000"
 2861 0f7c 01       		.byte	0x1
 2862 0f7d F2       		.byte	0xf2
 2863 0f7e 8E020000 		.4byte	0x28e
 2864 0f82 42020000 		.4byte	.LLST15
 2865 0f86 27       		.uleb128 0x27
 2866 0f87 6D736700 		.ascii	"msg\000"
 2867 0f8b 01       		.byte	0x1
 2868 0f8c F4       		.byte	0xf4
 2869 0f8d D10D0000 		.4byte	0xdd1
 2870 0f91 60020000 		.4byte	.LLST16
 2871 0f95 24       		.uleb128 0x24
 2872 0f96 0E000000 		.4byte	.LVL44
 2873 0f9a 0F130000 		.4byte	0x130f
 2874 0f9e AC0F0000 		.4byte	0xfac
 2875 0fa2 20       		.uleb128 0x20
 2876 0fa3 01       		.byte	0x1
 2877 0fa4 50       		.byte	0x50
 2878 0fa5 05       		.byte	0x5
 2879 0fa6 03       		.byte	0x3
 2880 0fa7 00000000 		.4byte	.LANCHOR2
 2881 0fab 00       		.byte	0
 2882 0fac 24       		.uleb128 0x24
 2883 0fad 16000000 		.4byte	.LVL45
 2884 0fb1 27130000 		.4byte	0x1327
 2885 0fb5 BF0F0000 		.4byte	0xfbf
 2886 0fb9 20       		.uleb128 0x20
 2887 0fba 01       		.byte	0x1
 2888 0fbb 50       		.byte	0x50
 2889 0fbc 01       		.byte	0x1
 2890 0fbd 39       		.byte	0x39
 2891 0fbe 00       		.byte	0
 2892 0fbf 28       		.uleb128 0x28
 2893 0fc0 2A000000 		.4byte	.LVL47
 2894 0fc4 5C130000 		.4byte	0x135c
 2895 0fc8 20       		.uleb128 0x20
ARM GAS  /var/folders/5n/p_75w94d66l9ssrldxqdhh700000gn/T//ccHvVlNA.s 			page 52


 2896 0fc9 01       		.byte	0x1
 2897 0fca 50       		.byte	0x50
 2898 0fcb 05       		.byte	0x5
 2899 0fcc 03       		.byte	0x3
 2900 0fcd 00000000 		.4byte	.LANCHOR2
 2901 0fd1 00       		.byte	0
 2902 0fd2 00       		.byte	0
 2903 0fd3 2A       		.uleb128 0x2a
 2904 0fd4 01       		.byte	0x1
 2905 0fd5 6D050000 		.4byte	.LASF179
 2906 0fd9 01       		.byte	0x1
 2907 0fda 0F01     		.2byte	0x10f
 2908 0fdc 01       		.byte	0x1
 2909 0fdd C1040000 		.4byte	0x4c1
 2910 0fe1 00000000 		.4byte	.LFB11
 2911 0fe5 38000000 		.4byte	.LFE11
 2912 0fe9 94020000 		.4byte	.LLST17
 2913 0fed 01       		.byte	0x1
 2914 0fee 5E100000 		.4byte	0x105e
 2915 0ff2 1D       		.uleb128 0x1d
 2916 0ff3 6800     		.ascii	"h\000"
 2917 0ff5 01       		.byte	0x1
 2918 0ff6 0F01     		.2byte	0x10f
 2919 0ff8 840B0000 		.4byte	0xb84
 2920 0ffc B4020000 		.4byte	.LLST18
 2921 1000 1D       		.uleb128 0x1d
 2922 1001 61726700 		.ascii	"arg\000"
 2923 1005 01       		.byte	0x1
 2924 1006 0F01     		.2byte	0x10f
 2925 1008 8E020000 		.4byte	0x28e
 2926 100c D2020000 		.4byte	.LLST19
 2927 1010 2B       		.uleb128 0x2b
 2928 1011 6D736700 		.ascii	"msg\000"
 2929 1015 01       		.byte	0x1
 2930 1016 1101     		.2byte	0x111
 2931 1018 D10D0000 		.4byte	0xdd1
 2932 101c F0020000 		.4byte	.LLST20
 2933 1020 24       		.uleb128 0x24
 2934 1021 0C000000 		.4byte	.LVL52
 2935 1025 0F130000 		.4byte	0x130f
 2936 1029 37100000 		.4byte	0x1037
 2937 102d 20       		.uleb128 0x20
 2938 102e 01       		.byte	0x1
 2939 102f 50       		.byte	0x50
 2940 1030 05       		.byte	0x5
 2941 1031 03       		.byte	0x3
 2942 1032 00000000 		.4byte	.LANCHOR2
 2943 1036 00       		.byte	0
 2944 1037 24       		.uleb128 0x24
 2945 1038 14000000 		.4byte	.LVL53
 2946 103c 27130000 		.4byte	0x1327
 2947 1040 4A100000 		.4byte	0x104a
 2948 1044 20       		.uleb128 0x20
 2949 1045 01       		.byte	0x1
 2950 1046 50       		.byte	0x50
 2951 1047 01       		.byte	0x1
 2952 1048 39       		.byte	0x39
ARM GAS  /var/folders/5n/p_75w94d66l9ssrldxqdhh700000gn/T//ccHvVlNA.s 			page 53


 2953 1049 00       		.byte	0
 2954 104a 28       		.uleb128 0x28
 2955 104b 26000000 		.4byte	.LVL55
 2956 104f 5C130000 		.4byte	0x135c
 2957 1053 20       		.uleb128 0x20
 2958 1054 01       		.byte	0x1
 2959 1055 50       		.byte	0x50
 2960 1056 05       		.byte	0x5
 2961 1057 03       		.byte	0x3
 2962 1058 00000000 		.4byte	.LANCHOR2
 2963 105c 00       		.byte	0
 2964 105d 00       		.byte	0
 2965 105e 2A       		.uleb128 0x2a
 2966 105f 01       		.byte	0x1
 2967 1060 E0010000 		.4byte	.LASF180
 2968 1064 01       		.byte	0x1
 2969 1065 2D01     		.2byte	0x12d
 2970 1067 01       		.byte	0x1
 2971 1068 C1040000 		.4byte	0x4c1
 2972 106c 00000000 		.4byte	.LFB12
 2973 1070 38000000 		.4byte	.LFE12
 2974 1074 24030000 		.4byte	.LLST21
 2975 1078 01       		.byte	0x1
 2976 1079 E1100000 		.4byte	0x10e1
 2977 107d 2C       		.uleb128 0x2c
 2978 107e 51060000 		.4byte	.LASF171
 2979 1082 01       		.byte	0x1
 2980 1083 2D01     		.2byte	0x12d
 2981 1085 7D0C0000 		.4byte	0xc7d
 2982 1089 50030000 		.4byte	.LLST22
 2983 108d 2D       		.uleb128 0x2d
 2984 108e 6D736700 		.ascii	"msg\000"
 2985 1092 01       		.byte	0x1
 2986 1093 2F01     		.2byte	0x12f
 2987 1095 830C0000 		.4byte	0xc83
 2988 1099 02       		.byte	0x2
 2989 109a 91       		.byte	0x91
 2990 109b 5C       		.sleb128 -36
 2991 109c 24       		.uleb128 0x24
 2992 109d 0C000000 		.4byte	.LVL60
 2993 10a1 0F130000 		.4byte	0x130f
 2994 10a5 B3100000 		.4byte	0x10b3
 2995 10a9 20       		.uleb128 0x20
 2996 10aa 01       		.byte	0x1
 2997 10ab 50       		.byte	0x50
 2998 10ac 05       		.byte	0x5
 2999 10ad 03       		.byte	0x3
 3000 10ae 00000000 		.4byte	.LANCHOR2
 3001 10b2 00       		.byte	0
 3002 10b3 24       		.uleb128 0x24
 3003 10b4 1E000000 		.4byte	.LVL61
 3004 10b8 5C130000 		.4byte	0x135c
 3005 10bc D0100000 		.4byte	0x10d0
 3006 10c0 20       		.uleb128 0x20
 3007 10c1 01       		.byte	0x1
 3008 10c2 51       		.byte	0x51
 3009 10c3 02       		.byte	0x2
ARM GAS  /var/folders/5n/p_75w94d66l9ssrldxqdhh700000gn/T//ccHvVlNA.s 			page 54


 3010 10c4 91       		.byte	0x91
 3011 10c5 5C       		.sleb128 -36
 3012 10c6 20       		.uleb128 0x20
 3013 10c7 01       		.byte	0x1
 3014 10c8 50       		.byte	0x50
 3015 10c9 05       		.byte	0x5
 3016 10ca 03       		.byte	0x3
 3017 10cb 00000000 		.4byte	.LANCHOR2
 3018 10cf 00       		.byte	0
 3019 10d0 28       		.uleb128 0x28
 3020 10d1 28000000 		.4byte	.LVL62
 3021 10d5 75130000 		.4byte	0x1375
 3022 10d9 20       		.uleb128 0x20
 3023 10da 01       		.byte	0x1
 3024 10db 51       		.byte	0x51
 3025 10dc 02       		.byte	0x2
 3026 10dd 75       		.byte	0x75
 3027 10de 00       		.sleb128 0
 3028 10df 00       		.byte	0
 3029 10e0 00       		.byte	0
 3030 10e1 2E       		.uleb128 0x2e
 3031 10e2 01       		.byte	0x1
 3032 10e3 50020000 		.4byte	.LASF206
 3033 10e7 01       		.byte	0x1
 3034 10e8 9401     		.2byte	0x194
 3035 10ea 01       		.byte	0x1
 3036 10eb 00000000 		.4byte	.LFB13
 3037 10ef 4C000000 		.4byte	.LFE13
 3038 10f3 6E030000 		.4byte	.LLST23
 3039 10f7 01       		.byte	0x1
 3040 10f8 79110000 		.4byte	0x1179
 3041 10fc 2C       		.uleb128 0x2c
 3042 10fd 0E010000 		.4byte	.LASF181
 3043 1101 01       		.byte	0x1
 3044 1102 9401     		.2byte	0x194
 3045 1104 8F0B0000 		.4byte	0xb8f
 3046 1108 9A030000 		.4byte	.LLST24
 3047 110c 1D       		.uleb128 0x1d
 3048 110d 61726700 		.ascii	"arg\000"
 3049 1111 01       		.byte	0x1
 3050 1112 9401     		.2byte	0x194
 3051 1114 8E020000 		.4byte	0x28e
 3052 1118 B8030000 		.4byte	.LLST25
 3053 111c 25       		.uleb128 0x25
 3054 111d 0C000000 		.4byte	.LVL64
 3055 1121 92130000 		.4byte	0x1392
 3056 1125 24       		.uleb128 0x24
 3057 1126 1C000000 		.4byte	.LVL65
 3058 112a 9C130000 		.4byte	0x139c
 3059 112e 41110000 		.4byte	0x1141
 3060 1132 20       		.uleb128 0x20
 3061 1133 01       		.byte	0x1
 3062 1134 51       		.byte	0x51
 3063 1135 01       		.byte	0x1
 3064 1136 34       		.byte	0x34
 3065 1137 20       		.uleb128 0x20
 3066 1138 01       		.byte	0x1
ARM GAS  /var/folders/5n/p_75w94d66l9ssrldxqdhh700000gn/T//ccHvVlNA.s 			page 55


 3067 1139 50       		.byte	0x50
 3068 113a 05       		.byte	0x5
 3069 113b 03       		.byte	0x3
 3070 113c 00000000 		.4byte	.LANCHOR2
 3071 1140 00       		.byte	0
 3072 1141 25       		.uleb128 0x25
 3073 1142 22000000 		.4byte	.LVL66
 3074 1146 E7120000 		.4byte	0x12e7
 3075 114a 28       		.uleb128 0x28
 3076 114b 34000000 		.4byte	.LVL67
 3077 114f B9130000 		.4byte	0x13b9
 3078 1153 20       		.uleb128 0x20
 3079 1154 01       		.byte	0x1
 3080 1155 53       		.byte	0x53
 3081 1156 03       		.byte	0x3
 3082 1157 0A       		.byte	0xa
 3083 1158 0004     		.2byte	0x400
 3084 115a 20       		.uleb128 0x20
 3085 115b 01       		.byte	0x1
 3086 115c 52       		.byte	0x52
 3087 115d 01       		.byte	0x1
 3088 115e 30       		.byte	0x30
 3089 115f 20       		.uleb128 0x20
 3090 1160 01       		.byte	0x1
 3091 1161 51       		.byte	0x51
 3092 1162 05       		.byte	0x5
 3093 1163 03       		.byte	0x3
 3094 1164 00000000 		.4byte	tcpip_thread
 3095 1168 20       		.uleb128 0x20
 3096 1169 01       		.byte	0x1
 3097 116a 50       		.byte	0x50
 3098 116b 05       		.byte	0x5
 3099 116c 03       		.byte	0x3
 3100 116d 00000000 		.4byte	.LC0
 3101 1171 20       		.uleb128 0x20
 3102 1172 02       		.byte	0x2
 3103 1173 7D       		.byte	0x7d
 3104 1174 00       		.sleb128 0
 3105 1175 01       		.byte	0x1
 3106 1176 33       		.byte	0x33
 3107 1177 00       		.byte	0
 3108 1178 00       		.byte	0
 3109 1179 2F       		.uleb128 0x2f
 3110 117a 01       		.byte	0x1
 3111 117b D6030000 		.4byte	.LASF182
 3112 117f 01       		.byte	0x1
 3113 1180 BA01     		.2byte	0x1ba
 3114 1182 01       		.byte	0x1
 3115 1183 C1040000 		.4byte	0x4c1
 3116 1187 00000000 		.4byte	.LFB15
 3117 118b 10000000 		.4byte	.LFE15
 3118 118f 02       		.byte	0x2
 3119 1190 7D       		.byte	0x7d
 3120 1191 00       		.sleb128 0
 3121 1192 01       		.byte	0x1
 3122 1193 C6110000 		.4byte	0x11c6
 3123 1197 1D       		.uleb128 0x1d
ARM GAS  /var/folders/5n/p_75w94d66l9ssrldxqdhh700000gn/T//ccHvVlNA.s 			page 56


 3124 1198 7000     		.ascii	"p\000"
 3125 119a 01       		.byte	0x1
 3126 119b BA01     		.2byte	0x1ba
 3127 119d E1050000 		.4byte	0x5e1
 3128 11a1 D6030000 		.4byte	.LLST26
 3129 11a5 1F       		.uleb128 0x1f
 3130 11a6 10000000 		.4byte	.LVL70
 3131 11aa 01       		.byte	0x1
 3132 11ab 7D0E0000 		.4byte	0xe7d
 3133 11af 20       		.uleb128 0x20
 3134 11b0 01       		.byte	0x1
 3135 11b1 52       		.byte	0x52
 3136 11b2 01       		.byte	0x1
 3137 11b3 30       		.byte	0x30
 3138 11b4 20       		.uleb128 0x20
 3139 11b5 01       		.byte	0x1
 3140 11b6 51       		.byte	0x51
 3141 11b7 03       		.byte	0x3
 3142 11b8 F3       		.byte	0xf3
 3143 11b9 01       		.uleb128 0x1
 3144 11ba 50       		.byte	0x50
 3145 11bb 20       		.uleb128 0x20
 3146 11bc 01       		.byte	0x1
 3147 11bd 50       		.byte	0x50
 3148 11be 05       		.byte	0x5
 3149 11bf 03       		.byte	0x3
 3150 11c0 00000000 		.4byte	pbuf_free_int
 3151 11c4 00       		.byte	0
 3152 11c5 00       		.byte	0
 3153 11c6 2F       		.uleb128 0x2f
 3154 11c7 01       		.byte	0x1
 3155 11c8 A5030000 		.4byte	.LASF183
 3156 11cc 01       		.byte	0x1
 3157 11cd C701     		.2byte	0x1c7
 3158 11cf 01       		.byte	0x1
 3159 11d0 C1040000 		.4byte	0x4c1
 3160 11d4 00000000 		.4byte	.LFB16
 3161 11d8 10000000 		.4byte	.LFE16
 3162 11dc 02       		.byte	0x2
 3163 11dd 7D       		.byte	0x7d
 3164 11de 00       		.sleb128 0
 3165 11df 01       		.byte	0x1
 3166 11e0 0A120000 		.4byte	0x120a
 3167 11e4 1D       		.uleb128 0x1d
 3168 11e5 6D00     		.ascii	"m\000"
 3169 11e7 01       		.byte	0x1
 3170 11e8 C701     		.2byte	0x1c7
 3171 11ea 8E020000 		.4byte	0x28e
 3172 11ee 02040000 		.4byte	.LLST27
 3173 11f2 1F       		.uleb128 0x1f
 3174 11f3 10000000 		.4byte	.LVL73
 3175 11f7 01       		.byte	0x1
 3176 11f8 7D0E0000 		.4byte	0xe7d
 3177 11fc 20       		.uleb128 0x20
 3178 11fd 01       		.byte	0x1
 3179 11fe 52       		.byte	0x52
 3180 11ff 01       		.byte	0x1
ARM GAS  /var/folders/5n/p_75w94d66l9ssrldxqdhh700000gn/T//ccHvVlNA.s 			page 57


 3181 1200 30       		.byte	0x30
 3182 1201 20       		.uleb128 0x20
 3183 1202 01       		.byte	0x1
 3184 1203 51       		.byte	0x51
 3185 1204 03       		.byte	0x3
 3186 1205 F3       		.byte	0xf3
 3187 1206 01       		.uleb128 0x1
 3188 1207 50       		.byte	0x50
 3189 1208 00       		.byte	0
 3190 1209 00       		.byte	0
 3191 120a 30       		.uleb128 0x30
 3192 120b 61080000 		.4byte	.LASF184
 3193 120f 01       		.byte	0x1
 3194 1210 35       		.byte	0x35
 3195 1211 8F0B0000 		.4byte	0xb8f
 3196 1215 05       		.byte	0x5
 3197 1216 03       		.byte	0x3
 3198 1217 00000000 		.4byte	tcpip_init_done
 3199 121b 30       		.uleb128 0x30
 3200 121c 29030000 		.4byte	.LASF185
 3201 1220 01       		.byte	0x1
 3202 1221 36       		.byte	0x36
 3203 1222 8E020000 		.4byte	0x28e
 3204 1226 05       		.byte	0x5
 3205 1227 03       		.byte	0x3
 3206 1228 00000000 		.4byte	tcpip_init_done_arg
 3207 122c 30       		.uleb128 0x30
 3208 122d B8060000 		.4byte	.LASF186
 3209 1231 01       		.byte	0x1
 3210 1232 37       		.byte	0x37
 3211 1233 DD040000 		.4byte	0x4dd
 3212 1237 05       		.byte	0x5
 3213 1238 03       		.byte	0x3
 3214 1239 00000000 		.4byte	mbox
 3215 123d 31       		.uleb128 0x31
 3216 123e 01       		.byte	0x1
 3217 123f 3F040000 		.4byte	.LASF191
 3218 1243 10       		.byte	0x10
 3219 1244 83       		.byte	0x83
 3220 1245 01       		.byte	0x1
 3221 1246 95040000 		.4byte	0x495
 3222 124a 01       		.byte	0x1
 3223 124b 55120000 		.4byte	0x1255
 3224 124f 0E       		.uleb128 0xe
 3225 1250 E1050000 		.4byte	0x5e1
 3226 1254 00       		.byte	0
 3227 1255 32       		.uleb128 0x32
 3228 1256 01       		.byte	0x1
 3229 1257 A9020000 		.4byte	.LASF187
 3230 125b 17       		.byte	0x17
 3231 125c 59       		.byte	0x59
 3232 125d 01       		.byte	0x1
 3233 125e 01       		.byte	0x1
 3234 125f 6E120000 		.4byte	0x126e
 3235 1263 0E       		.uleb128 0xe
 3236 1264 6E120000 		.4byte	0x126e
 3237 1268 0E       		.uleb128 0xe
ARM GAS  /var/folders/5n/p_75w94d66l9ssrldxqdhh700000gn/T//ccHvVlNA.s 			page 58


 3238 1269 74120000 		.4byte	0x1274
 3239 126d 00       		.byte	0
 3240 126e 09       		.uleb128 0x9
 3241 126f 04       		.byte	0x4
 3242 1270 DD040000 		.4byte	0x4dd
 3243 1274 09       		.uleb128 0x9
 3244 1275 04       		.byte	0x4
 3245 1276 8E020000 		.4byte	0x28e
 3246 127a 32       		.uleb128 0x32
 3247 127b 01       		.byte	0x1
 3248 127c 70020000 		.4byte	.LASF188
 3249 1280 0F       		.byte	0xf
 3250 1281 6C       		.byte	0x6c
 3251 1282 01       		.byte	0x1
 3252 1283 01       		.byte	0x1
 3253 1284 93120000 		.4byte	0x1293
 3254 1288 0E       		.uleb128 0xe
 3255 1289 67050000 		.4byte	0x567
 3256 128d 0E       		.uleb128 0xe
 3257 128e 8E020000 		.4byte	0x28e
 3258 1292 00       		.byte	0
 3259 1293 32       		.uleb128 0x32
 3260 1294 01       		.byte	0x1
 3261 1295 CF000000 		.4byte	.LASF189
 3262 1299 17       		.byte	0x17
 3263 129a 54       		.byte	0x54
 3264 129b 01       		.byte	0x1
 3265 129c 01       		.byte	0x1
 3266 129d AC120000 		.4byte	0x12ac
 3267 12a1 0E       		.uleb128 0xe
 3268 12a2 840B0000 		.4byte	0xb84
 3269 12a6 0E       		.uleb128 0xe
 3270 12a7 8E020000 		.4byte	0x28e
 3271 12ab 00       		.byte	0
 3272 12ac 32       		.uleb128 0x32
 3273 12ad 01       		.byte	0x1
 3274 12ae 60070000 		.4byte	.LASF190
 3275 12b2 17       		.byte	0x17
 3276 12b3 51       		.byte	0x51
 3277 12b4 01       		.byte	0x1
 3278 12b5 01       		.byte	0x1
 3279 12b6 CA120000 		.4byte	0x12ca
 3280 12ba 0E       		.uleb128 0xe
 3281 12bb B6040000 		.4byte	0x4b6
 3282 12bf 0E       		.uleb128 0xe
 3283 12c0 840B0000 		.4byte	0xb84
 3284 12c4 0E       		.uleb128 0xe
 3285 12c5 8E020000 		.4byte	0x28e
 3286 12c9 00       		.byte	0
 3287 12ca 31       		.uleb128 0x31
 3288 12cb 01       		.byte	0x1
 3289 12cc 32090000 		.4byte	.LASF192
 3290 12d0 19       		.byte	0x19
 3291 12d1 D1       		.byte	0xd1
 3292 12d2 01       		.byte	0x1
 3293 12d3 C1040000 		.4byte	0x4c1
 3294 12d7 01       		.byte	0x1
ARM GAS  /var/folders/5n/p_75w94d66l9ssrldxqdhh700000gn/T//ccHvVlNA.s 			page 59


 3295 12d8 E7120000 		.4byte	0x12e7
 3296 12dc 0E       		.uleb128 0xe
 3297 12dd E1050000 		.4byte	0x5e1
 3298 12e1 0E       		.uleb128 0xe
 3299 12e2 0D060000 		.4byte	0x60d
 3300 12e6 00       		.byte	0
 3301 12e7 33       		.uleb128 0x33
 3302 12e8 01       		.byte	0x1
 3303 12e9 01080000 		.4byte	.LASF199
 3304 12ed 07       		.byte	0x7
 3305 12ee F301     		.2byte	0x1f3
 3306 12f0 01       		.byte	0x1
 3307 12f1 01       		.byte	0x1
 3308 12f2 31       		.uleb128 0x31
 3309 12f3 01       		.byte	0x1
 3310 12f4 CD030000 		.4byte	.LASF193
 3311 12f8 15       		.byte	0x15
 3312 12f9 AD       		.byte	0xad
 3313 12fa 01       		.byte	0x1
 3314 12fb C1040000 		.4byte	0x4c1
 3315 12ff 01       		.byte	0x1
 3316 1300 0F130000 		.4byte	0x130f
 3317 1304 0E       		.uleb128 0xe
 3318 1305 E1050000 		.4byte	0x5e1
 3319 1309 0E       		.uleb128 0xe
 3320 130a 0D060000 		.4byte	0x60d
 3321 130e 00       		.byte	0
 3322 130f 31       		.uleb128 0x31
 3323 1310 01       		.byte	0x1
 3324 1311 9A020000 		.4byte	.LASF194
 3325 1315 0E       		.byte	0xe
 3326 1316 CC       		.byte	0xcc
 3327 1317 01       		.byte	0x1
 3328 1318 29000000 		.4byte	0x29
 3329 131c 01       		.byte	0x1
 3330 131d 27130000 		.4byte	0x1327
 3331 1321 0E       		.uleb128 0xe
 3332 1322 6E120000 		.4byte	0x126e
 3333 1326 00       		.byte	0
 3334 1327 31       		.uleb128 0x31
 3335 1328 01       		.byte	0x1
 3336 1329 64040000 		.4byte	.LASF195
 3337 132d 0F       		.byte	0xf
 3338 132e 6A       		.byte	0x6a
 3339 132f 01       		.byte	0x1
 3340 1330 8E020000 		.4byte	0x28e
 3341 1334 01       		.byte	0x1
 3342 1335 3F130000 		.4byte	0x133f
 3343 1339 0E       		.uleb128 0xe
 3344 133a 67050000 		.4byte	0x567
 3345 133e 00       		.byte	0
 3346 133f 31       		.uleb128 0x31
 3347 1340 01       		.byte	0x1
 3348 1341 A1050000 		.4byte	.LASF196
 3349 1345 0E       		.byte	0xe
 3350 1346 B1       		.byte	0xb1
 3351 1347 01       		.byte	0x1
ARM GAS  /var/folders/5n/p_75w94d66l9ssrldxqdhh700000gn/T//ccHvVlNA.s 			page 60


 3352 1348 C1040000 		.4byte	0x4c1
 3353 134c 01       		.byte	0x1
 3354 134d 5C130000 		.4byte	0x135c
 3355 1351 0E       		.uleb128 0xe
 3356 1352 6E120000 		.4byte	0x126e
 3357 1356 0E       		.uleb128 0xe
 3358 1357 8E020000 		.4byte	0x28e
 3359 135b 00       		.byte	0
 3360 135c 32       		.uleb128 0x32
 3361 135d 01       		.byte	0x1
 3362 135e 9C070000 		.4byte	.LASF197
 3363 1362 0E       		.byte	0xe
 3364 1363 AD       		.byte	0xad
 3365 1364 01       		.byte	0x1
 3366 1365 01       		.byte	0x1
 3367 1366 75130000 		.4byte	0x1375
 3368 136a 0E       		.uleb128 0xe
 3369 136b 6E120000 		.4byte	0x126e
 3370 136f 0E       		.uleb128 0xe
 3371 1370 8E020000 		.4byte	0x28e
 3372 1374 00       		.byte	0
 3373 1375 31       		.uleb128 0x31
 3374 1376 01       		.byte	0x1
 3375 1377 BD060000 		.4byte	.LASF198
 3376 137b 0E       		.byte	0xe
 3377 137c 8E       		.byte	0x8e
 3378 137d 01       		.byte	0x1
 3379 137e B6040000 		.4byte	0x4b6
 3380 1382 01       		.byte	0x1
 3381 1383 92130000 		.4byte	0x1392
 3382 1387 0E       		.uleb128 0xe
 3383 1388 BA0C0000 		.4byte	0xcba
 3384 138c 0E       		.uleb128 0xe
 3385 138d B6040000 		.4byte	0x4b6
 3386 1391 00       		.byte	0
 3387 1392 34       		.uleb128 0x34
 3388 1393 01       		.byte	0x1
 3389 1394 42080000 		.4byte	.LASF200
 3390 1398 1A       		.byte	0x1a
 3391 1399 42       		.byte	0x42
 3392 139a 01       		.byte	0x1
 3393 139b 01       		.byte	0x1
 3394 139c 31       		.uleb128 0x31
 3395 139d 01       		.byte	0x1
 3396 139e 71080000 		.4byte	.LASF201
 3397 13a2 0E       		.byte	0xe
 3398 13a3 A8       		.byte	0xa8
 3399 13a4 01       		.byte	0x1
 3400 13a5 C1040000 		.4byte	0x4c1
 3401 13a9 01       		.byte	0x1
 3402 13aa B9130000 		.4byte	0x13b9
 3403 13ae 0E       		.uleb128 0xe
 3404 13af 6E120000 		.4byte	0x126e
 3405 13b3 0E       		.uleb128 0xe
 3406 13b4 29000000 		.4byte	0x29
 3407 13b8 00       		.byte	0
 3408 13b9 35       		.uleb128 0x35
ARM GAS  /var/folders/5n/p_75w94d66l9ssrldxqdhh700000gn/T//ccHvVlNA.s 			page 61


 3409 13ba 01       		.byte	0x1
 3410 13bb CF050000 		.4byte	.LASF202
 3411 13bf 0E       		.byte	0xe
 3412 13c0 DA       		.byte	0xda
 3413 13c1 01       		.byte	0x1
 3414 13c2 EE040000 		.4byte	0x4ee
 3415 13c6 01       		.byte	0x1
 3416 13c7 0E       		.uleb128 0xe
 3417 13c8 7D040000 		.4byte	0x47d
 3418 13cc 0E       		.uleb128 0xe
 3419 13cd F9040000 		.4byte	0x4f9
 3420 13d1 0E       		.uleb128 0xe
 3421 13d2 8E020000 		.4byte	0x28e
 3422 13d6 0E       		.uleb128 0xe
 3423 13d7 29000000 		.4byte	0x29
 3424 13db 0E       		.uleb128 0xe
 3425 13dc 29000000 		.4byte	0x29
 3426 13e0 00       		.byte	0
 3427 13e1 00       		.byte	0
 3428              		.section	.debug_abbrev,"",%progbits
 3429              	.Ldebug_abbrev0:
 3430 0000 01       		.uleb128 0x1
 3431 0001 11       		.uleb128 0x11
 3432 0002 01       		.byte	0x1
 3433 0003 25       		.uleb128 0x25
 3434 0004 0E       		.uleb128 0xe
 3435 0005 13       		.uleb128 0x13
 3436 0006 0B       		.uleb128 0xb
 3437 0007 03       		.uleb128 0x3
 3438 0008 0E       		.uleb128 0xe
 3439 0009 1B       		.uleb128 0x1b
 3440 000a 0E       		.uleb128 0xe
 3441 000b 55       		.uleb128 0x55
 3442 000c 06       		.uleb128 0x6
 3443 000d 11       		.uleb128 0x11
 3444 000e 01       		.uleb128 0x1
 3445 000f 52       		.uleb128 0x52
 3446 0010 01       		.uleb128 0x1
 3447 0011 10       		.uleb128 0x10
 3448 0012 06       		.uleb128 0x6
 3449 0013 00       		.byte	0
 3450 0014 00       		.byte	0
 3451 0015 02       		.uleb128 0x2
 3452 0016 24       		.uleb128 0x24
 3453 0017 00       		.byte	0
 3454 0018 0B       		.uleb128 0xb
 3455 0019 0B       		.uleb128 0xb
 3456 001a 3E       		.uleb128 0x3e
 3457 001b 0B       		.uleb128 0xb
 3458 001c 03       		.uleb128 0x3
 3459 001d 08       		.uleb128 0x8
 3460 001e 00       		.byte	0
 3461 001f 00       		.byte	0
 3462 0020 03       		.uleb128 0x3
 3463 0021 16       		.uleb128 0x16
 3464 0022 00       		.byte	0
 3465 0023 03       		.uleb128 0x3
ARM GAS  /var/folders/5n/p_75w94d66l9ssrldxqdhh700000gn/T//ccHvVlNA.s 			page 62


 3466 0024 0E       		.uleb128 0xe
 3467 0025 3A       		.uleb128 0x3a
 3468 0026 0B       		.uleb128 0xb
 3469 0027 3B       		.uleb128 0x3b
 3470 0028 0B       		.uleb128 0xb
 3471 0029 49       		.uleb128 0x49
 3472 002a 13       		.uleb128 0x13
 3473 002b 00       		.byte	0
 3474 002c 00       		.byte	0
 3475 002d 04       		.uleb128 0x4
 3476 002e 24       		.uleb128 0x24
 3477 002f 00       		.byte	0
 3478 0030 0B       		.uleb128 0xb
 3479 0031 0B       		.uleb128 0xb
 3480 0032 3E       		.uleb128 0x3e
 3481 0033 0B       		.uleb128 0xb
 3482 0034 03       		.uleb128 0x3
 3483 0035 0E       		.uleb128 0xe
 3484 0036 00       		.byte	0
 3485 0037 00       		.byte	0
 3486 0038 05       		.uleb128 0x5
 3487 0039 13       		.uleb128 0x13
 3488 003a 01       		.byte	0x1
 3489 003b 03       		.uleb128 0x3
 3490 003c 0E       		.uleb128 0xe
 3491 003d 0B       		.uleb128 0xb
 3492 003e 0B       		.uleb128 0xb
 3493 003f 3A       		.uleb128 0x3a
 3494 0040 0B       		.uleb128 0xb
 3495 0041 3B       		.uleb128 0x3b
 3496 0042 0B       		.uleb128 0xb
 3497 0043 01       		.uleb128 0x1
 3498 0044 13       		.uleb128 0x13
 3499 0045 00       		.byte	0
 3500 0046 00       		.byte	0
 3501 0047 06       		.uleb128 0x6
 3502 0048 0D       		.uleb128 0xd
 3503 0049 00       		.byte	0
 3504 004a 03       		.uleb128 0x3
 3505 004b 0E       		.uleb128 0xe
 3506 004c 3A       		.uleb128 0x3a
 3507 004d 0B       		.uleb128 0xb
 3508 004e 3B       		.uleb128 0x3b
 3509 004f 0B       		.uleb128 0xb
 3510 0050 49       		.uleb128 0x49
 3511 0051 13       		.uleb128 0x13
 3512 0052 38       		.uleb128 0x38
 3513 0053 0A       		.uleb128 0xa
 3514 0054 00       		.byte	0
 3515 0055 00       		.byte	0
 3516 0056 07       		.uleb128 0x7
 3517 0057 0D       		.uleb128 0xd
 3518 0058 00       		.byte	0
 3519 0059 03       		.uleb128 0x3
 3520 005a 08       		.uleb128 0x8
 3521 005b 3A       		.uleb128 0x3a
 3522 005c 0B       		.uleb128 0xb
ARM GAS  /var/folders/5n/p_75w94d66l9ssrldxqdhh700000gn/T//ccHvVlNA.s 			page 63


 3523 005d 3B       		.uleb128 0x3b
 3524 005e 0B       		.uleb128 0xb
 3525 005f 49       		.uleb128 0x49
 3526 0060 13       		.uleb128 0x13
 3527 0061 38       		.uleb128 0x38
 3528 0062 0A       		.uleb128 0xa
 3529 0063 00       		.byte	0
 3530 0064 00       		.byte	0
 3531 0065 08       		.uleb128 0x8
 3532 0066 13       		.uleb128 0x13
 3533 0067 01       		.byte	0x1
 3534 0068 0B       		.uleb128 0xb
 3535 0069 0B       		.uleb128 0xb
 3536 006a 3A       		.uleb128 0x3a
 3537 006b 0B       		.uleb128 0xb
 3538 006c 3B       		.uleb128 0x3b
 3539 006d 0B       		.uleb128 0xb
 3540 006e 01       		.uleb128 0x1
 3541 006f 13       		.uleb128 0x13
 3542 0070 00       		.byte	0
 3543 0071 00       		.byte	0
 3544 0072 09       		.uleb128 0x9
 3545 0073 0F       		.uleb128 0xf
 3546 0074 00       		.byte	0
 3547 0075 0B       		.uleb128 0xb
 3548 0076 0B       		.uleb128 0xb
 3549 0077 49       		.uleb128 0x49
 3550 0078 13       		.uleb128 0x13
 3551 0079 00       		.byte	0
 3552 007a 00       		.byte	0
 3553 007b 0A       		.uleb128 0xa
 3554 007c 0F       		.uleb128 0xf
 3555 007d 00       		.byte	0
 3556 007e 0B       		.uleb128 0xb
 3557 007f 0B       		.uleb128 0xb
 3558 0080 00       		.byte	0
 3559 0081 00       		.byte	0
 3560 0082 0B       		.uleb128 0xb
 3561 0083 0D       		.uleb128 0xd
 3562 0084 00       		.byte	0
 3563 0085 03       		.uleb128 0x3
 3564 0086 08       		.uleb128 0x8
 3565 0087 3A       		.uleb128 0x3a
 3566 0088 0B       		.uleb128 0xb
 3567 0089 3B       		.uleb128 0x3b
 3568 008a 05       		.uleb128 0x5
 3569 008b 49       		.uleb128 0x49
 3570 008c 13       		.uleb128 0x13
 3571 008d 38       		.uleb128 0x38
 3572 008e 0A       		.uleb128 0xa
 3573 008f 00       		.byte	0
 3574 0090 00       		.byte	0
 3575 0091 0C       		.uleb128 0xc
 3576 0092 13       		.uleb128 0x13
 3577 0093 01       		.byte	0x1
 3578 0094 03       		.uleb128 0x3
 3579 0095 0E       		.uleb128 0xe
ARM GAS  /var/folders/5n/p_75w94d66l9ssrldxqdhh700000gn/T//ccHvVlNA.s 			page 64


 3580 0096 0B       		.uleb128 0xb
 3581 0097 0B       		.uleb128 0xb
 3582 0098 3A       		.uleb128 0x3a
 3583 0099 0B       		.uleb128 0xb
 3584 009a 3B       		.uleb128 0x3b
 3585 009b 05       		.uleb128 0x5
 3586 009c 01       		.uleb128 0x1
 3587 009d 13       		.uleb128 0x13
 3588 009e 00       		.byte	0
 3589 009f 00       		.byte	0
 3590 00a0 0D       		.uleb128 0xd
 3591 00a1 15       		.uleb128 0x15
 3592 00a2 01       		.byte	0x1
 3593 00a3 27       		.uleb128 0x27
 3594 00a4 0C       		.uleb128 0xc
 3595 00a5 01       		.uleb128 0x1
 3596 00a6 13       		.uleb128 0x13
 3597 00a7 00       		.byte	0
 3598 00a8 00       		.byte	0
 3599 00a9 0E       		.uleb128 0xe
 3600 00aa 05       		.uleb128 0x5
 3601 00ab 00       		.byte	0
 3602 00ac 49       		.uleb128 0x49
 3603 00ad 13       		.uleb128 0x13
 3604 00ae 00       		.byte	0
 3605 00af 00       		.byte	0
 3606 00b0 0F       		.uleb128 0xf
 3607 00b1 35       		.uleb128 0x35
 3608 00b2 00       		.byte	0
 3609 00b3 49       		.uleb128 0x49
 3610 00b4 13       		.uleb128 0x13
 3611 00b5 00       		.byte	0
 3612 00b6 00       		.byte	0
 3613 00b7 10       		.uleb128 0x10
 3614 00b8 17       		.uleb128 0x17
 3615 00b9 01       		.byte	0x1
 3616 00ba 0B       		.uleb128 0xb
 3617 00bb 0B       		.uleb128 0xb
 3618 00bc 3A       		.uleb128 0x3a
 3619 00bd 0B       		.uleb128 0xb
 3620 00be 3B       		.uleb128 0x3b
 3621 00bf 0B       		.uleb128 0xb
 3622 00c0 01       		.uleb128 0x1
 3623 00c1 13       		.uleb128 0x13
 3624 00c2 00       		.byte	0
 3625 00c3 00       		.byte	0
 3626 00c4 11       		.uleb128 0x11
 3627 00c5 0D       		.uleb128 0xd
 3628 00c6 00       		.byte	0
 3629 00c7 03       		.uleb128 0x3
 3630 00c8 0E       		.uleb128 0xe
 3631 00c9 3A       		.uleb128 0x3a
 3632 00ca 0B       		.uleb128 0xb
 3633 00cb 3B       		.uleb128 0x3b
 3634 00cc 0B       		.uleb128 0xb
 3635 00cd 49       		.uleb128 0x49
 3636 00ce 13       		.uleb128 0x13
ARM GAS  /var/folders/5n/p_75w94d66l9ssrldxqdhh700000gn/T//ccHvVlNA.s 			page 65


 3637 00cf 00       		.byte	0
 3638 00d0 00       		.byte	0
 3639 00d1 12       		.uleb128 0x12
 3640 00d2 26       		.uleb128 0x26
 3641 00d3 00       		.byte	0
 3642 00d4 49       		.uleb128 0x49
 3643 00d5 13       		.uleb128 0x13
 3644 00d6 00       		.byte	0
 3645 00d7 00       		.byte	0
 3646 00d8 13       		.uleb128 0x13
 3647 00d9 04       		.uleb128 0x4
 3648 00da 01       		.byte	0x1
 3649 00db 0B       		.uleb128 0xb
 3650 00dc 0B       		.uleb128 0xb
 3651 00dd 3A       		.uleb128 0x3a
 3652 00de 0B       		.uleb128 0xb
 3653 00df 3B       		.uleb128 0x3b
 3654 00e0 0B       		.uleb128 0xb
 3655 00e1 01       		.uleb128 0x1
 3656 00e2 13       		.uleb128 0x13
 3657 00e3 00       		.byte	0
 3658 00e4 00       		.byte	0
 3659 00e5 14       		.uleb128 0x14
 3660 00e6 28       		.uleb128 0x28
 3661 00e7 00       		.byte	0
 3662 00e8 03       		.uleb128 0x3
 3663 00e9 0E       		.uleb128 0xe
 3664 00ea 1C       		.uleb128 0x1c
 3665 00eb 0D       		.uleb128 0xd
 3666 00ec 00       		.byte	0
 3667 00ed 00       		.byte	0
 3668 00ee 15       		.uleb128 0x15
 3669 00ef 15       		.uleb128 0x15
 3670 00f0 01       		.byte	0x1
 3671 00f1 27       		.uleb128 0x27
 3672 00f2 0C       		.uleb128 0xc
 3673 00f3 49       		.uleb128 0x49
 3674 00f4 13       		.uleb128 0x13
 3675 00f5 01       		.uleb128 0x1
 3676 00f6 13       		.uleb128 0x13
 3677 00f7 00       		.byte	0
 3678 00f8 00       		.byte	0
 3679 00f9 16       		.uleb128 0x16
 3680 00fa 01       		.uleb128 0x1
 3681 00fb 01       		.byte	0x1
 3682 00fc 49       		.uleb128 0x49
 3683 00fd 13       		.uleb128 0x13
 3684 00fe 01       		.uleb128 0x1
 3685 00ff 13       		.uleb128 0x13
 3686 0100 00       		.byte	0
 3687 0101 00       		.byte	0
 3688 0102 17       		.uleb128 0x17
 3689 0103 21       		.uleb128 0x21
 3690 0104 00       		.byte	0
 3691 0105 49       		.uleb128 0x49
 3692 0106 13       		.uleb128 0x13
 3693 0107 2F       		.uleb128 0x2f
ARM GAS  /var/folders/5n/p_75w94d66l9ssrldxqdhh700000gn/T//ccHvVlNA.s 			page 66


 3694 0108 0B       		.uleb128 0xb
 3695 0109 00       		.byte	0
 3696 010a 00       		.byte	0
 3697 010b 18       		.uleb128 0x18
 3698 010c 04       		.uleb128 0x4
 3699 010d 01       		.byte	0x1
 3700 010e 03       		.uleb128 0x3
 3701 010f 0E       		.uleb128 0xe
 3702 0110 0B       		.uleb128 0xb
 3703 0111 0B       		.uleb128 0xb
 3704 0112 3A       		.uleb128 0x3a
 3705 0113 0B       		.uleb128 0xb
 3706 0114 3B       		.uleb128 0x3b
 3707 0115 0B       		.uleb128 0xb
 3708 0116 01       		.uleb128 0x1
 3709 0117 13       		.uleb128 0x13
 3710 0118 00       		.byte	0
 3711 0119 00       		.byte	0
 3712 011a 19       		.uleb128 0x19
 3713 011b 0D       		.uleb128 0xd
 3714 011c 00       		.byte	0
 3715 011d 03       		.uleb128 0x3
 3716 011e 08       		.uleb128 0x8
 3717 011f 3A       		.uleb128 0x3a
 3718 0120 0B       		.uleb128 0xb
 3719 0121 3B       		.uleb128 0x3b
 3720 0122 0B       		.uleb128 0xb
 3721 0123 49       		.uleb128 0x49
 3722 0124 13       		.uleb128 0x13
 3723 0125 00       		.byte	0
 3724 0126 00       		.byte	0
 3725 0127 1A       		.uleb128 0x1a
 3726 0128 13       		.uleb128 0x13
 3727 0129 00       		.byte	0
 3728 012a 03       		.uleb128 0x3
 3729 012b 0E       		.uleb128 0xe
 3730 012c 3C       		.uleb128 0x3c
 3731 012d 0C       		.uleb128 0xc
 3732 012e 00       		.byte	0
 3733 012f 00       		.byte	0
 3734 0130 1B       		.uleb128 0x1b
 3735 0131 26       		.uleb128 0x26
 3736 0132 00       		.byte	0
 3737 0133 00       		.byte	0
 3738 0134 00       		.byte	0
 3739 0135 1C       		.uleb128 0x1c
 3740 0136 2E       		.uleb128 0x2e
 3741 0137 01       		.byte	0x1
 3742 0138 03       		.uleb128 0x3
 3743 0139 0E       		.uleb128 0xe
 3744 013a 3A       		.uleb128 0x3a
 3745 013b 0B       		.uleb128 0xb
 3746 013c 3B       		.uleb128 0x3b
 3747 013d 05       		.uleb128 0x5
 3748 013e 27       		.uleb128 0x27
 3749 013f 0C       		.uleb128 0xc
 3750 0140 11       		.uleb128 0x11
ARM GAS  /var/folders/5n/p_75w94d66l9ssrldxqdhh700000gn/T//ccHvVlNA.s 			page 67


 3751 0141 01       		.uleb128 0x1
 3752 0142 12       		.uleb128 0x12
 3753 0143 01       		.uleb128 0x1
 3754 0144 40       		.uleb128 0x40
 3755 0145 0A       		.uleb128 0xa
 3756 0146 9742     		.uleb128 0x2117
 3757 0148 0C       		.uleb128 0xc
 3758 0149 01       		.uleb128 0x1
 3759 014a 13       		.uleb128 0x13
 3760 014b 00       		.byte	0
 3761 014c 00       		.byte	0
 3762 014d 1D       		.uleb128 0x1d
 3763 014e 05       		.uleb128 0x5
 3764 014f 00       		.byte	0
 3765 0150 03       		.uleb128 0x3
 3766 0151 08       		.uleb128 0x8
 3767 0152 3A       		.uleb128 0x3a
 3768 0153 0B       		.uleb128 0xb
 3769 0154 3B       		.uleb128 0x3b
 3770 0155 05       		.uleb128 0x5
 3771 0156 49       		.uleb128 0x49
 3772 0157 13       		.uleb128 0x13
 3773 0158 02       		.uleb128 0x2
 3774 0159 06       		.uleb128 0x6
 3775 015a 00       		.byte	0
 3776 015b 00       		.byte	0
 3777 015c 1E       		.uleb128 0x1e
 3778 015d 34       		.uleb128 0x34
 3779 015e 00       		.byte	0
 3780 015f 03       		.uleb128 0x3
 3781 0160 08       		.uleb128 0x8
 3782 0161 3A       		.uleb128 0x3a
 3783 0162 0B       		.uleb128 0xb
 3784 0163 3B       		.uleb128 0x3b
 3785 0164 05       		.uleb128 0x5
 3786 0165 49       		.uleb128 0x49
 3787 0166 13       		.uleb128 0x13
 3788 0167 00       		.byte	0
 3789 0168 00       		.byte	0
 3790 0169 1F       		.uleb128 0x1f
 3791 016a 898201   		.uleb128 0x4109
 3792 016d 01       		.byte	0x1
 3793 016e 11       		.uleb128 0x11
 3794 016f 01       		.uleb128 0x1
 3795 0170 9542     		.uleb128 0x2115
 3796 0172 0C       		.uleb128 0xc
 3797 0173 31       		.uleb128 0x31
 3798 0174 13       		.uleb128 0x13
 3799 0175 00       		.byte	0
 3800 0176 00       		.byte	0
 3801 0177 20       		.uleb128 0x20
 3802 0178 8A8201   		.uleb128 0x410a
 3803 017b 00       		.byte	0
 3804 017c 02       		.uleb128 0x2
 3805 017d 0A       		.uleb128 0xa
 3806 017e 9142     		.uleb128 0x2111
 3807 0180 0A       		.uleb128 0xa
ARM GAS  /var/folders/5n/p_75w94d66l9ssrldxqdhh700000gn/T//ccHvVlNA.s 			page 68


 3808 0181 00       		.byte	0
 3809 0182 00       		.byte	0
 3810 0183 21       		.uleb128 0x21
 3811 0184 2E       		.uleb128 0x2e
 3812 0185 01       		.byte	0x1
 3813 0186 03       		.uleb128 0x3
 3814 0187 0E       		.uleb128 0xe
 3815 0188 3A       		.uleb128 0x3a
 3816 0189 0B       		.uleb128 0xb
 3817 018a 3B       		.uleb128 0x3b
 3818 018b 0B       		.uleb128 0xb
 3819 018c 27       		.uleb128 0x27
 3820 018d 0C       		.uleb128 0xc
 3821 018e 11       		.uleb128 0x11
 3822 018f 01       		.uleb128 0x1
 3823 0190 12       		.uleb128 0x12
 3824 0191 01       		.uleb128 0x1
 3825 0192 40       		.uleb128 0x40
 3826 0193 06       		.uleb128 0x6
 3827 0194 9642     		.uleb128 0x2116
 3828 0196 0C       		.uleb128 0xc
 3829 0197 01       		.uleb128 0x1
 3830 0198 13       		.uleb128 0x13
 3831 0199 00       		.byte	0
 3832 019a 00       		.byte	0
 3833 019b 22       		.uleb128 0x22
 3834 019c 05       		.uleb128 0x5
 3835 019d 00       		.byte	0
 3836 019e 03       		.uleb128 0x3
 3837 019f 08       		.uleb128 0x8
 3838 01a0 3A       		.uleb128 0x3a
 3839 01a1 0B       		.uleb128 0xb
 3840 01a2 3B       		.uleb128 0x3b
 3841 01a3 0B       		.uleb128 0xb
 3842 01a4 49       		.uleb128 0x49
 3843 01a5 13       		.uleb128 0x13
 3844 01a6 02       		.uleb128 0x2
 3845 01a7 06       		.uleb128 0x6
 3846 01a8 00       		.byte	0
 3847 01a9 00       		.byte	0
 3848 01aa 23       		.uleb128 0x23
 3849 01ab 34       		.uleb128 0x34
 3850 01ac 00       		.byte	0
 3851 01ad 03       		.uleb128 0x3
 3852 01ae 08       		.uleb128 0x8
 3853 01af 3A       		.uleb128 0x3a
 3854 01b0 0B       		.uleb128 0xb
 3855 01b1 3B       		.uleb128 0x3b
 3856 01b2 0B       		.uleb128 0xb
 3857 01b3 49       		.uleb128 0x49
 3858 01b4 13       		.uleb128 0x13
 3859 01b5 02       		.uleb128 0x2
 3860 01b6 0A       		.uleb128 0xa
 3861 01b7 00       		.byte	0
 3862 01b8 00       		.byte	0
 3863 01b9 24       		.uleb128 0x24
 3864 01ba 898201   		.uleb128 0x4109
ARM GAS  /var/folders/5n/p_75w94d66l9ssrldxqdhh700000gn/T//ccHvVlNA.s 			page 69


 3865 01bd 01       		.byte	0x1
 3866 01be 11       		.uleb128 0x11
 3867 01bf 01       		.uleb128 0x1
 3868 01c0 31       		.uleb128 0x31
 3869 01c1 13       		.uleb128 0x13
 3870 01c2 01       		.uleb128 0x1
 3871 01c3 13       		.uleb128 0x13
 3872 01c4 00       		.byte	0
 3873 01c5 00       		.byte	0
 3874 01c6 25       		.uleb128 0x25
 3875 01c7 898201   		.uleb128 0x4109
 3876 01ca 00       		.byte	0
 3877 01cb 11       		.uleb128 0x11
 3878 01cc 01       		.uleb128 0x1
 3879 01cd 31       		.uleb128 0x31
 3880 01ce 13       		.uleb128 0x13
 3881 01cf 00       		.byte	0
 3882 01d0 00       		.byte	0
 3883 01d1 26       		.uleb128 0x26
 3884 01d2 2E       		.uleb128 0x2e
 3885 01d3 01       		.byte	0x1
 3886 01d4 3F       		.uleb128 0x3f
 3887 01d5 0C       		.uleb128 0xc
 3888 01d6 03       		.uleb128 0x3
 3889 01d7 0E       		.uleb128 0xe
 3890 01d8 3A       		.uleb128 0x3a
 3891 01d9 0B       		.uleb128 0xb
 3892 01da 3B       		.uleb128 0x3b
 3893 01db 0B       		.uleb128 0xb
 3894 01dc 27       		.uleb128 0x27
 3895 01dd 0C       		.uleb128 0xc
 3896 01de 49       		.uleb128 0x49
 3897 01df 13       		.uleb128 0x13
 3898 01e0 11       		.uleb128 0x11
 3899 01e1 01       		.uleb128 0x1
 3900 01e2 12       		.uleb128 0x12
 3901 01e3 01       		.uleb128 0x1
 3902 01e4 40       		.uleb128 0x40
 3903 01e5 06       		.uleb128 0x6
 3904 01e6 9742     		.uleb128 0x2117
 3905 01e8 0C       		.uleb128 0xc
 3906 01e9 01       		.uleb128 0x1
 3907 01ea 13       		.uleb128 0x13
 3908 01eb 00       		.byte	0
 3909 01ec 00       		.byte	0
 3910 01ed 27       		.uleb128 0x27
 3911 01ee 34       		.uleb128 0x34
 3912 01ef 00       		.byte	0
 3913 01f0 03       		.uleb128 0x3
 3914 01f1 08       		.uleb128 0x8
 3915 01f2 3A       		.uleb128 0x3a
 3916 01f3 0B       		.uleb128 0xb
 3917 01f4 3B       		.uleb128 0x3b
 3918 01f5 0B       		.uleb128 0xb
 3919 01f6 49       		.uleb128 0x49
 3920 01f7 13       		.uleb128 0x13
 3921 01f8 02       		.uleb128 0x2
ARM GAS  /var/folders/5n/p_75w94d66l9ssrldxqdhh700000gn/T//ccHvVlNA.s 			page 70


 3922 01f9 06       		.uleb128 0x6
 3923 01fa 00       		.byte	0
 3924 01fb 00       		.byte	0
 3925 01fc 28       		.uleb128 0x28
 3926 01fd 898201   		.uleb128 0x4109
 3927 0200 01       		.byte	0x1
 3928 0201 11       		.uleb128 0x11
 3929 0202 01       		.uleb128 0x1
 3930 0203 31       		.uleb128 0x31
 3931 0204 13       		.uleb128 0x13
 3932 0205 00       		.byte	0
 3933 0206 00       		.byte	0
 3934 0207 29       		.uleb128 0x29
 3935 0208 05       		.uleb128 0x5
 3936 0209 00       		.byte	0
 3937 020a 03       		.uleb128 0x3
 3938 020b 0E       		.uleb128 0xe
 3939 020c 3A       		.uleb128 0x3a
 3940 020d 0B       		.uleb128 0xb
 3941 020e 3B       		.uleb128 0x3b
 3942 020f 0B       		.uleb128 0xb
 3943 0210 49       		.uleb128 0x49
 3944 0211 13       		.uleb128 0x13
 3945 0212 02       		.uleb128 0x2
 3946 0213 06       		.uleb128 0x6
 3947 0214 00       		.byte	0
 3948 0215 00       		.byte	0
 3949 0216 2A       		.uleb128 0x2a
 3950 0217 2E       		.uleb128 0x2e
 3951 0218 01       		.byte	0x1
 3952 0219 3F       		.uleb128 0x3f
 3953 021a 0C       		.uleb128 0xc
 3954 021b 03       		.uleb128 0x3
 3955 021c 0E       		.uleb128 0xe
 3956 021d 3A       		.uleb128 0x3a
 3957 021e 0B       		.uleb128 0xb
 3958 021f 3B       		.uleb128 0x3b
 3959 0220 05       		.uleb128 0x5
 3960 0221 27       		.uleb128 0x27
 3961 0222 0C       		.uleb128 0xc
 3962 0223 49       		.uleb128 0x49
 3963 0224 13       		.uleb128 0x13
 3964 0225 11       		.uleb128 0x11
 3965 0226 01       		.uleb128 0x1
 3966 0227 12       		.uleb128 0x12
 3967 0228 01       		.uleb128 0x1
 3968 0229 40       		.uleb128 0x40
 3969 022a 06       		.uleb128 0x6
 3970 022b 9742     		.uleb128 0x2117
 3971 022d 0C       		.uleb128 0xc
 3972 022e 01       		.uleb128 0x1
 3973 022f 13       		.uleb128 0x13
 3974 0230 00       		.byte	0
 3975 0231 00       		.byte	0
 3976 0232 2B       		.uleb128 0x2b
 3977 0233 34       		.uleb128 0x34
 3978 0234 00       		.byte	0
ARM GAS  /var/folders/5n/p_75w94d66l9ssrldxqdhh700000gn/T//ccHvVlNA.s 			page 71


 3979 0235 03       		.uleb128 0x3
 3980 0236 08       		.uleb128 0x8
 3981 0237 3A       		.uleb128 0x3a
 3982 0238 0B       		.uleb128 0xb
 3983 0239 3B       		.uleb128 0x3b
 3984 023a 05       		.uleb128 0x5
 3985 023b 49       		.uleb128 0x49
 3986 023c 13       		.uleb128 0x13
 3987 023d 02       		.uleb128 0x2
 3988 023e 06       		.uleb128 0x6
 3989 023f 00       		.byte	0
 3990 0240 00       		.byte	0
 3991 0241 2C       		.uleb128 0x2c
 3992 0242 05       		.uleb128 0x5
 3993 0243 00       		.byte	0
 3994 0244 03       		.uleb128 0x3
 3995 0245 0E       		.uleb128 0xe
 3996 0246 3A       		.uleb128 0x3a
 3997 0247 0B       		.uleb128 0xb
 3998 0248 3B       		.uleb128 0x3b
 3999 0249 05       		.uleb128 0x5
 4000 024a 49       		.uleb128 0x49
 4001 024b 13       		.uleb128 0x13
 4002 024c 02       		.uleb128 0x2
 4003 024d 06       		.uleb128 0x6
 4004 024e 00       		.byte	0
 4005 024f 00       		.byte	0
 4006 0250 2D       		.uleb128 0x2d
 4007 0251 34       		.uleb128 0x34
 4008 0252 00       		.byte	0
 4009 0253 03       		.uleb128 0x3
 4010 0254 08       		.uleb128 0x8
 4011 0255 3A       		.uleb128 0x3a
 4012 0256 0B       		.uleb128 0xb
 4013 0257 3B       		.uleb128 0x3b
 4014 0258 05       		.uleb128 0x5
 4015 0259 49       		.uleb128 0x49
 4016 025a 13       		.uleb128 0x13
 4017 025b 02       		.uleb128 0x2
 4018 025c 0A       		.uleb128 0xa
 4019 025d 00       		.byte	0
 4020 025e 00       		.byte	0
 4021 025f 2E       		.uleb128 0x2e
 4022 0260 2E       		.uleb128 0x2e
 4023 0261 01       		.byte	0x1
 4024 0262 3F       		.uleb128 0x3f
 4025 0263 0C       		.uleb128 0xc
 4026 0264 03       		.uleb128 0x3
 4027 0265 0E       		.uleb128 0xe
 4028 0266 3A       		.uleb128 0x3a
 4029 0267 0B       		.uleb128 0xb
 4030 0268 3B       		.uleb128 0x3b
 4031 0269 05       		.uleb128 0x5
 4032 026a 27       		.uleb128 0x27
 4033 026b 0C       		.uleb128 0xc
 4034 026c 11       		.uleb128 0x11
 4035 026d 01       		.uleb128 0x1
ARM GAS  /var/folders/5n/p_75w94d66l9ssrldxqdhh700000gn/T//ccHvVlNA.s 			page 72


 4036 026e 12       		.uleb128 0x12
 4037 026f 01       		.uleb128 0x1
 4038 0270 40       		.uleb128 0x40
 4039 0271 06       		.uleb128 0x6
 4040 0272 9742     		.uleb128 0x2117
 4041 0274 0C       		.uleb128 0xc
 4042 0275 01       		.uleb128 0x1
 4043 0276 13       		.uleb128 0x13
 4044 0277 00       		.byte	0
 4045 0278 00       		.byte	0
 4046 0279 2F       		.uleb128 0x2f
 4047 027a 2E       		.uleb128 0x2e
 4048 027b 01       		.byte	0x1
 4049 027c 3F       		.uleb128 0x3f
 4050 027d 0C       		.uleb128 0xc
 4051 027e 03       		.uleb128 0x3
 4052 027f 0E       		.uleb128 0xe
 4053 0280 3A       		.uleb128 0x3a
 4054 0281 0B       		.uleb128 0xb
 4055 0282 3B       		.uleb128 0x3b
 4056 0283 05       		.uleb128 0x5
 4057 0284 27       		.uleb128 0x27
 4058 0285 0C       		.uleb128 0xc
 4059 0286 49       		.uleb128 0x49
 4060 0287 13       		.uleb128 0x13
 4061 0288 11       		.uleb128 0x11
 4062 0289 01       		.uleb128 0x1
 4063 028a 12       		.uleb128 0x12
 4064 028b 01       		.uleb128 0x1
 4065 028c 40       		.uleb128 0x40
 4066 028d 0A       		.uleb128 0xa
 4067 028e 9742     		.uleb128 0x2117
 4068 0290 0C       		.uleb128 0xc
 4069 0291 01       		.uleb128 0x1
 4070 0292 13       		.uleb128 0x13
 4071 0293 00       		.byte	0
 4072 0294 00       		.byte	0
 4073 0295 30       		.uleb128 0x30
 4074 0296 34       		.uleb128 0x34
 4075 0297 00       		.byte	0
 4076 0298 03       		.uleb128 0x3
 4077 0299 0E       		.uleb128 0xe
 4078 029a 3A       		.uleb128 0x3a
 4079 029b 0B       		.uleb128 0xb
 4080 029c 3B       		.uleb128 0x3b
 4081 029d 0B       		.uleb128 0xb
 4082 029e 49       		.uleb128 0x49
 4083 029f 13       		.uleb128 0x13
 4084 02a0 02       		.uleb128 0x2
 4085 02a1 0A       		.uleb128 0xa
 4086 02a2 00       		.byte	0
 4087 02a3 00       		.byte	0
 4088 02a4 31       		.uleb128 0x31
 4089 02a5 2E       		.uleb128 0x2e
 4090 02a6 01       		.byte	0x1
 4091 02a7 3F       		.uleb128 0x3f
 4092 02a8 0C       		.uleb128 0xc
ARM GAS  /var/folders/5n/p_75w94d66l9ssrldxqdhh700000gn/T//ccHvVlNA.s 			page 73


 4093 02a9 03       		.uleb128 0x3
 4094 02aa 0E       		.uleb128 0xe
 4095 02ab 3A       		.uleb128 0x3a
 4096 02ac 0B       		.uleb128 0xb
 4097 02ad 3B       		.uleb128 0x3b
 4098 02ae 0B       		.uleb128 0xb
 4099 02af 27       		.uleb128 0x27
 4100 02b0 0C       		.uleb128 0xc
 4101 02b1 49       		.uleb128 0x49
 4102 02b2 13       		.uleb128 0x13
 4103 02b3 3C       		.uleb128 0x3c
 4104 02b4 0C       		.uleb128 0xc
 4105 02b5 01       		.uleb128 0x1
 4106 02b6 13       		.uleb128 0x13
 4107 02b7 00       		.byte	0
 4108 02b8 00       		.byte	0
 4109 02b9 32       		.uleb128 0x32
 4110 02ba 2E       		.uleb128 0x2e
 4111 02bb 01       		.byte	0x1
 4112 02bc 3F       		.uleb128 0x3f
 4113 02bd 0C       		.uleb128 0xc
 4114 02be 03       		.uleb128 0x3
 4115 02bf 0E       		.uleb128 0xe
 4116 02c0 3A       		.uleb128 0x3a
 4117 02c1 0B       		.uleb128 0xb
 4118 02c2 3B       		.uleb128 0x3b
 4119 02c3 0B       		.uleb128 0xb
 4120 02c4 27       		.uleb128 0x27
 4121 02c5 0C       		.uleb128 0xc
 4122 02c6 3C       		.uleb128 0x3c
 4123 02c7 0C       		.uleb128 0xc
 4124 02c8 01       		.uleb128 0x1
 4125 02c9 13       		.uleb128 0x13
 4126 02ca 00       		.byte	0
 4127 02cb 00       		.byte	0
 4128 02cc 33       		.uleb128 0x33
 4129 02cd 2E       		.uleb128 0x2e
 4130 02ce 00       		.byte	0
 4131 02cf 3F       		.uleb128 0x3f
 4132 02d0 0C       		.uleb128 0xc
 4133 02d1 03       		.uleb128 0x3
 4134 02d2 0E       		.uleb128 0xe
 4135 02d3 3A       		.uleb128 0x3a
 4136 02d4 0B       		.uleb128 0xb
 4137 02d5 3B       		.uleb128 0x3b
 4138 02d6 05       		.uleb128 0x5
 4139 02d7 27       		.uleb128 0x27
 4140 02d8 0C       		.uleb128 0xc
 4141 02d9 3C       		.uleb128 0x3c
 4142 02da 0C       		.uleb128 0xc
 4143 02db 00       		.byte	0
 4144 02dc 00       		.byte	0
 4145 02dd 34       		.uleb128 0x34
 4146 02de 2E       		.uleb128 0x2e
 4147 02df 00       		.byte	0
 4148 02e0 3F       		.uleb128 0x3f
 4149 02e1 0C       		.uleb128 0xc
ARM GAS  /var/folders/5n/p_75w94d66l9ssrldxqdhh700000gn/T//ccHvVlNA.s 			page 74


 4150 02e2 03       		.uleb128 0x3
 4151 02e3 0E       		.uleb128 0xe
 4152 02e4 3A       		.uleb128 0x3a
 4153 02e5 0B       		.uleb128 0xb
 4154 02e6 3B       		.uleb128 0x3b
 4155 02e7 0B       		.uleb128 0xb
 4156 02e8 27       		.uleb128 0x27
 4157 02e9 0C       		.uleb128 0xc
 4158 02ea 3C       		.uleb128 0x3c
 4159 02eb 0C       		.uleb128 0xc
 4160 02ec 00       		.byte	0
 4161 02ed 00       		.byte	0
 4162 02ee 35       		.uleb128 0x35
 4163 02ef 2E       		.uleb128 0x2e
 4164 02f0 01       		.byte	0x1
 4165 02f1 3F       		.uleb128 0x3f
 4166 02f2 0C       		.uleb128 0xc
 4167 02f3 03       		.uleb128 0x3
 4168 02f4 0E       		.uleb128 0xe
 4169 02f5 3A       		.uleb128 0x3a
 4170 02f6 0B       		.uleb128 0xb
 4171 02f7 3B       		.uleb128 0x3b
 4172 02f8 0B       		.uleb128 0xb
 4173 02f9 27       		.uleb128 0x27
 4174 02fa 0C       		.uleb128 0xc
 4175 02fb 49       		.uleb128 0x49
 4176 02fc 13       		.uleb128 0x13
 4177 02fd 3C       		.uleb128 0x3c
 4178 02fe 0C       		.uleb128 0xc
 4179 02ff 00       		.byte	0
 4180 0300 00       		.byte	0
 4181 0301 00       		.byte	0
 4182              		.section	.debug_loc,"",%progbits
 4183              	.Ldebug_loc0:
 4184              	.LLST0:
 4185 0000 00000000 		.4byte	.LVL0
 4186 0004 03000000 		.4byte	.LVL1-1
 4187 0008 0100     		.2byte	0x1
 4188 000a 50       		.byte	0x50
 4189 000b 03000000 		.4byte	.LVL1-1
 4190 000f 04000000 		.4byte	.LFE14
 4191 0013 0400     		.2byte	0x4
 4192 0015 F3       		.byte	0xf3
 4193 0016 01       		.uleb128 0x1
 4194 0017 50       		.byte	0x50
 4195 0018 9F       		.byte	0x9f
 4196 0019 00000000 		.4byte	0
 4197 001d 00000000 		.4byte	0
 4198              	.LLST1:
 4199 0021 00000000 		.4byte	.LFB7
 4200 0025 02000000 		.4byte	.LCFI0
 4201 0029 0200     		.2byte	0x2
 4202 002b 7D       		.byte	0x7d
 4203 002c 00       		.sleb128 0
 4204 002d 02000000 		.4byte	.LCFI0
 4205 0031 08000000 		.4byte	.LCFI1
 4206 0035 0200     		.2byte	0x2
ARM GAS  /var/folders/5n/p_75w94d66l9ssrldxqdhh700000gn/T//ccHvVlNA.s 			page 75


 4207 0037 7D       		.byte	0x7d
 4208 0038 08       		.sleb128 8
 4209 0039 08000000 		.4byte	.LCFI1
 4210 003d A4000000 		.4byte	.LFE7
 4211 0041 0200     		.2byte	0x2
 4212 0043 7D       		.byte	0x7d
 4213 0044 10       		.sleb128 16
 4214 0045 00000000 		.4byte	0
 4215 0049 00000000 		.4byte	0
 4216              	.LLST2:
 4217 004d 00000000 		.4byte	.LVL2
 4218 0051 0E000000 		.4byte	.LVL3
 4219 0055 0100     		.2byte	0x1
 4220 0057 50       		.byte	0x50
 4221 0058 0E000000 		.4byte	.LVL3
 4222 005c A4000000 		.4byte	.LFE7
 4223 0060 0400     		.2byte	0x4
 4224 0062 F3       		.byte	0xf3
 4225 0063 01       		.uleb128 0x1
 4226 0064 50       		.byte	0x50
 4227 0065 9F       		.byte	0x9f
 4228 0066 00000000 		.4byte	0
 4229 006a 00000000 		.4byte	0
 4230              	.LLST3:
 4231 006e 00000000 		.4byte	.LFB8
 4232 0072 02000000 		.4byte	.LCFI2
 4233 0076 0200     		.2byte	0x2
 4234 0078 7D       		.byte	0x7d
 4235 0079 00       		.sleb128 0
 4236 007a 02000000 		.4byte	.LCFI2
 4237 007e 48000000 		.4byte	.LFE8
 4238 0082 0200     		.2byte	0x2
 4239 0084 7D       		.byte	0x7d
 4240 0085 10       		.sleb128 16
 4241 0086 00000000 		.4byte	0
 4242 008a 00000000 		.4byte	0
 4243              	.LLST4:
 4244 008e 00000000 		.4byte	.LVL18
 4245 0092 06000000 		.4byte	.LVL19
 4246 0096 0100     		.2byte	0x1
 4247 0098 50       		.byte	0x50
 4248 0099 06000000 		.4byte	.LVL19
 4249 009d 48000000 		.4byte	.LFE8
 4250 00a1 0100     		.2byte	0x1
 4251 00a3 56       		.byte	0x56
 4252 00a4 00000000 		.4byte	0
 4253 00a8 00000000 		.4byte	0
 4254              	.LLST5:
 4255 00ac 00000000 		.4byte	.LVL18
 4256 00b0 0B000000 		.4byte	.LVL20-1
 4257 00b4 0100     		.2byte	0x1
 4258 00b6 51       		.byte	0x51
 4259 00b7 0B000000 		.4byte	.LVL20-1
 4260 00bb 48000000 		.4byte	.LFE8
 4261 00bf 0100     		.2byte	0x1
 4262 00c1 55       		.byte	0x55
 4263 00c2 00000000 		.4byte	0
ARM GAS  /var/folders/5n/p_75w94d66l9ssrldxqdhh700000gn/T//ccHvVlNA.s 			page 76


 4264 00c6 00000000 		.4byte	0
 4265              	.LLST6:
 4266 00ca 14000000 		.4byte	.LVL21
 4267 00ce 24000000 		.4byte	.LVL22
 4268 00d2 0100     		.2byte	0x1
 4269 00d4 50       		.byte	0x50
 4270 00d5 24000000 		.4byte	.LVL22
 4271 00d9 27000000 		.4byte	.LVL23-1
 4272 00dd 0100     		.2byte	0x1
 4273 00df 51       		.byte	0x51
 4274 00e0 27000000 		.4byte	.LVL23-1
 4275 00e4 2A000000 		.4byte	.LVL24
 4276 00e8 0100     		.2byte	0x1
 4277 00ea 54       		.byte	0x54
 4278 00eb 32000000 		.4byte	.LVL25
 4279 00ef 34000000 		.4byte	.LVL26
 4280 00f3 0100     		.2byte	0x1
 4281 00f5 50       		.byte	0x50
 4282 00f6 34000000 		.4byte	.LVL26
 4283 00fa 48000000 		.4byte	.LFE8
 4284 00fe 0100     		.2byte	0x1
 4285 0100 54       		.byte	0x54
 4286 0101 00000000 		.4byte	0
 4287 0105 00000000 		.4byte	0
 4288              	.LLST7:
 4289 0109 00000000 		.4byte	.LFB9
 4290 010d 02000000 		.4byte	.LCFI3
 4291 0111 0200     		.2byte	0x2
 4292 0113 7D       		.byte	0x7d
 4293 0114 00       		.sleb128 0
 4294 0115 02000000 		.4byte	.LCFI3
 4295 0119 54000000 		.4byte	.LFE9
 4296 011d 0200     		.2byte	0x2
 4297 011f 7D       		.byte	0x7d
 4298 0120 18       		.sleb128 24
 4299 0121 00000000 		.4byte	0
 4300 0125 00000000 		.4byte	0
 4301              	.LLST8:
 4302 0129 00000000 		.4byte	.LVL28
 4303 012d 06000000 		.4byte	.LVL29
 4304 0131 0100     		.2byte	0x1
 4305 0133 50       		.byte	0x50
 4306 0134 06000000 		.4byte	.LVL29
 4307 0138 54000000 		.4byte	.LFE9
 4308 013c 0100     		.2byte	0x1
 4309 013e 57       		.byte	0x57
 4310 013f 00000000 		.4byte	0
 4311 0143 00000000 		.4byte	0
 4312              	.LLST9:
 4313 0147 00000000 		.4byte	.LVL28
 4314 014b 0D000000 		.4byte	.LVL30-1
 4315 014f 0100     		.2byte	0x1
 4316 0151 51       		.byte	0x51
 4317 0152 0D000000 		.4byte	.LVL30-1
 4318 0156 54000000 		.4byte	.LFE9
 4319 015a 0100     		.2byte	0x1
 4320 015c 56       		.byte	0x56
ARM GAS  /var/folders/5n/p_75w94d66l9ssrldxqdhh700000gn/T//ccHvVlNA.s 			page 77


 4321 015d 00000000 		.4byte	0
 4322 0161 00000000 		.4byte	0
 4323              	.LLST10:
 4324 0165 00000000 		.4byte	.LVL28
 4325 0169 0D000000 		.4byte	.LVL30-1
 4326 016d 0100     		.2byte	0x1
 4327 016f 52       		.byte	0x52
 4328 0170 0D000000 		.4byte	.LVL30-1
 4329 0174 54000000 		.4byte	.LFE9
 4330 0178 0400     		.2byte	0x4
 4331 017a F3       		.byte	0xf3
 4332 017b 01       		.uleb128 0x1
 4333 017c 52       		.byte	0x52
 4334 017d 9F       		.byte	0x9f
 4335 017e 00000000 		.4byte	0
 4336 0182 00000000 		.4byte	0
 4337              	.LLST11:
 4338 0186 16000000 		.4byte	.LVL31
 4339 018a 26000000 		.4byte	.LVL32
 4340 018e 0100     		.2byte	0x1
 4341 0190 50       		.byte	0x50
 4342 0191 26000000 		.4byte	.LVL32
 4343 0195 2B000000 		.4byte	.LVL33-1
 4344 0199 0100     		.2byte	0x1
 4345 019b 51       		.byte	0x51
 4346 019c 2B000000 		.4byte	.LVL33-1
 4347 01a0 2E000000 		.4byte	.LVL34
 4348 01a4 0100     		.2byte	0x1
 4349 01a6 54       		.byte	0x54
 4350 01a7 32000000 		.4byte	.LVL35
 4351 01ab 35000000 		.4byte	.LVL36-1
 4352 01af 0100     		.2byte	0x1
 4353 01b1 51       		.byte	0x51
 4354 01b2 35000000 		.4byte	.LVL36-1
 4355 01b6 3C000000 		.4byte	.LVL37
 4356 01ba 0100     		.2byte	0x1
 4357 01bc 54       		.byte	0x54
 4358 01bd 40000000 		.4byte	.LVL38
 4359 01c1 4C000000 		.4byte	.LVL40
 4360 01c5 0100     		.2byte	0x1
 4361 01c7 54       		.byte	0x54
 4362 01c8 4C000000 		.4byte	.LVL40
 4363 01cc 4E000000 		.4byte	.LVL41
 4364 01d0 0100     		.2byte	0x1
 4365 01d2 50       		.byte	0x50
 4366 01d3 4E000000 		.4byte	.LVL41
 4367 01d7 54000000 		.4byte	.LFE9
 4368 01db 0100     		.2byte	0x1
 4369 01dd 54       		.byte	0x54
 4370 01de 00000000 		.4byte	0
 4371 01e2 00000000 		.4byte	0
 4372              	.LLST12:
 4373 01e6 00000000 		.4byte	.LFB10
 4374 01ea 02000000 		.4byte	.LCFI4
 4375 01ee 0200     		.2byte	0x2
 4376 01f0 7D       		.byte	0x7d
 4377 01f1 00       		.sleb128 0
ARM GAS  /var/folders/5n/p_75w94d66l9ssrldxqdhh700000gn/T//ccHvVlNA.s 			page 78


 4378 01f2 02000000 		.4byte	.LCFI4
 4379 01f6 3C000000 		.4byte	.LFE10
 4380 01fa 0200     		.2byte	0x2
 4381 01fc 7D       		.byte	0x7d
 4382 01fd 10       		.sleb128 16
 4383 01fe 00000000 		.4byte	0
 4384 0202 00000000 		.4byte	0
 4385              	.LLST13:
 4386 0206 00000000 		.4byte	.LVL42
 4387 020a 06000000 		.4byte	.LVL43
 4388 020e 0100     		.2byte	0x1
 4389 0210 50       		.byte	0x50
 4390 0211 06000000 		.4byte	.LVL43
 4391 0215 3C000000 		.4byte	.LFE10
 4392 0219 0100     		.2byte	0x1
 4393 021b 56       		.byte	0x56
 4394 021c 00000000 		.4byte	0
 4395 0220 00000000 		.4byte	0
 4396              	.LLST14:
 4397 0224 00000000 		.4byte	.LVL42
 4398 0228 0D000000 		.4byte	.LVL44-1
 4399 022c 0100     		.2byte	0x1
 4400 022e 51       		.byte	0x51
 4401 022f 0D000000 		.4byte	.LVL44-1
 4402 0233 3C000000 		.4byte	.LFE10
 4403 0237 0100     		.2byte	0x1
 4404 0239 55       		.byte	0x55
 4405 023a 00000000 		.4byte	0
 4406 023e 00000000 		.4byte	0
 4407              	.LLST15:
 4408 0242 00000000 		.4byte	.LVL42
 4409 0246 0D000000 		.4byte	.LVL44-1
 4410 024a 0100     		.2byte	0x1
 4411 024c 52       		.byte	0x52
 4412 024d 0D000000 		.4byte	.LVL44-1
 4413 0251 3C000000 		.4byte	.LFE10
 4414 0255 0100     		.2byte	0x1
 4415 0257 54       		.byte	0x54
 4416 0258 00000000 		.4byte	0
 4417 025c 00000000 		.4byte	0
 4418              	.LLST16:
 4419 0260 16000000 		.4byte	.LVL45
 4420 0264 26000000 		.4byte	.LVL46
 4421 0268 0100     		.2byte	0x1
 4422 026a 50       		.byte	0x50
 4423 026b 26000000 		.4byte	.LVL46
 4424 026f 29000000 		.4byte	.LVL47-1
 4425 0273 0100     		.2byte	0x1
 4426 0275 51       		.byte	0x51
 4427 0276 34000000 		.4byte	.LVL48
 4428 027a 36000000 		.4byte	.LVL49
 4429 027e 0100     		.2byte	0x1
 4430 0280 50       		.byte	0x50
 4431 0281 36000000 		.4byte	.LVL49
 4432 0285 3C000000 		.4byte	.LFE10
 4433 0289 0100     		.2byte	0x1
 4434 028b 51       		.byte	0x51
ARM GAS  /var/folders/5n/p_75w94d66l9ssrldxqdhh700000gn/T//ccHvVlNA.s 			page 79


 4435 028c 00000000 		.4byte	0
 4436 0290 00000000 		.4byte	0
 4437              	.LLST17:
 4438 0294 00000000 		.4byte	.LFB11
 4439 0298 02000000 		.4byte	.LCFI5
 4440 029c 0200     		.2byte	0x2
 4441 029e 7D       		.byte	0x7d
 4442 029f 00       		.sleb128 0
 4443 02a0 02000000 		.4byte	.LCFI5
 4444 02a4 38000000 		.4byte	.LFE11
 4445 02a8 0200     		.2byte	0x2
 4446 02aa 7D       		.byte	0x7d
 4447 02ab 10       		.sleb128 16
 4448 02ac 00000000 		.4byte	0
 4449 02b0 00000000 		.4byte	0
 4450              	.LLST18:
 4451 02b4 00000000 		.4byte	.LVL50
 4452 02b8 06000000 		.4byte	.LVL51
 4453 02bc 0100     		.2byte	0x1
 4454 02be 50       		.byte	0x50
 4455 02bf 06000000 		.4byte	.LVL51
 4456 02c3 38000000 		.4byte	.LFE11
 4457 02c7 0100     		.2byte	0x1
 4458 02c9 55       		.byte	0x55
 4459 02ca 00000000 		.4byte	0
 4460 02ce 00000000 		.4byte	0
 4461              	.LLST19:
 4462 02d2 00000000 		.4byte	.LVL50
 4463 02d6 0B000000 		.4byte	.LVL52-1
 4464 02da 0100     		.2byte	0x1
 4465 02dc 51       		.byte	0x51
 4466 02dd 0B000000 		.4byte	.LVL52-1
 4467 02e1 38000000 		.4byte	.LFE11
 4468 02e5 0100     		.2byte	0x1
 4469 02e7 54       		.byte	0x54
 4470 02e8 00000000 		.4byte	0
 4471 02ec 00000000 		.4byte	0
 4472              	.LLST20:
 4473 02f0 14000000 		.4byte	.LVL53
 4474 02f4 22000000 		.4byte	.LVL54
 4475 02f8 0100     		.2byte	0x1
 4476 02fa 50       		.byte	0x50
 4477 02fb 22000000 		.4byte	.LVL54
 4478 02ff 25000000 		.4byte	.LVL55-1
 4479 0303 0100     		.2byte	0x1
 4480 0305 51       		.byte	0x51
 4481 0306 30000000 		.4byte	.LVL56
 4482 030a 32000000 		.4byte	.LVL57
 4483 030e 0100     		.2byte	0x1
 4484 0310 50       		.byte	0x50
 4485 0311 32000000 		.4byte	.LVL57
 4486 0315 38000000 		.4byte	.LFE11
 4487 0319 0100     		.2byte	0x1
 4488 031b 51       		.byte	0x51
 4489 031c 00000000 		.4byte	0
 4490 0320 00000000 		.4byte	0
 4491              	.LLST21:
ARM GAS  /var/folders/5n/p_75w94d66l9ssrldxqdhh700000gn/T//ccHvVlNA.s 			page 80


 4492 0324 00000000 		.4byte	.LFB12
 4493 0328 02000000 		.4byte	.LCFI6
 4494 032c 0200     		.2byte	0x2
 4495 032e 7D       		.byte	0x7d
 4496 032f 00       		.sleb128 0
 4497 0330 02000000 		.4byte	.LCFI6
 4498 0334 06000000 		.4byte	.LCFI7
 4499 0338 0200     		.2byte	0x2
 4500 033a 7D       		.byte	0x7d
 4501 033b 0C       		.sleb128 12
 4502 033c 06000000 		.4byte	.LCFI7
 4503 0340 38000000 		.4byte	.LFE12
 4504 0344 0200     		.2byte	0x2
 4505 0346 7D       		.byte	0x7d
 4506 0347 28       		.sleb128 40
 4507 0348 00000000 		.4byte	0
 4508 034c 00000000 		.4byte	0
 4509              	.LLST22:
 4510 0350 00000000 		.4byte	.LVL58
 4511 0354 08000000 		.4byte	.LVL59
 4512 0358 0100     		.2byte	0x1
 4513 035a 50       		.byte	0x50
 4514 035b 08000000 		.4byte	.LVL59
 4515 035f 38000000 		.4byte	.LFE12
 4516 0363 0100     		.2byte	0x1
 4517 0365 54       		.byte	0x54
 4518 0366 00000000 		.4byte	0
 4519 036a 00000000 		.4byte	0
 4520              	.LLST23:
 4521 036e 00000000 		.4byte	.LFB13
 4522 0372 02000000 		.4byte	.LCFI8
 4523 0376 0200     		.2byte	0x2
 4524 0378 7D       		.byte	0x7d
 4525 0379 00       		.sleb128 0
 4526 037a 02000000 		.4byte	.LCFI8
 4527 037e 04000000 		.4byte	.LCFI9
 4528 0382 0200     		.2byte	0x2
 4529 0384 7D       		.byte	0x7d
 4530 0385 0C       		.sleb128 12
 4531 0386 04000000 		.4byte	.LCFI9
 4532 038a 4C000000 		.4byte	.LFE13
 4533 038e 0200     		.2byte	0x2
 4534 0390 7D       		.byte	0x7d
 4535 0391 18       		.sleb128 24
 4536 0392 00000000 		.4byte	0
 4537 0396 00000000 		.4byte	0
 4538              	.LLST24:
 4539 039a 00000000 		.4byte	.LVL63
 4540 039e 0B000000 		.4byte	.LVL64-1
 4541 03a2 0100     		.2byte	0x1
 4542 03a4 50       		.byte	0x50
 4543 03a5 0B000000 		.4byte	.LVL64-1
 4544 03a9 4C000000 		.4byte	.LFE13
 4545 03ad 0100     		.2byte	0x1
 4546 03af 55       		.byte	0x55
 4547 03b0 00000000 		.4byte	0
 4548 03b4 00000000 		.4byte	0
ARM GAS  /var/folders/5n/p_75w94d66l9ssrldxqdhh700000gn/T//ccHvVlNA.s 			page 81


 4549              	.LLST25:
 4550 03b8 00000000 		.4byte	.LVL63
 4551 03bc 0B000000 		.4byte	.LVL64-1
 4552 03c0 0100     		.2byte	0x1
 4553 03c2 51       		.byte	0x51
 4554 03c3 0B000000 		.4byte	.LVL64-1
 4555 03c7 4C000000 		.4byte	.LFE13
 4556 03cb 0100     		.2byte	0x1
 4557 03cd 54       		.byte	0x54
 4558 03ce 00000000 		.4byte	0
 4559 03d2 00000000 		.4byte	0
 4560              	.LLST26:
 4561 03d6 00000000 		.4byte	.LVL68
 4562 03da 06000000 		.4byte	.LVL69
 4563 03de 0100     		.2byte	0x1
 4564 03e0 50       		.byte	0x50
 4565 03e1 06000000 		.4byte	.LVL69
 4566 03e5 0F000000 		.4byte	.LVL70-1
 4567 03e9 0100     		.2byte	0x1
 4568 03eb 51       		.byte	0x51
 4569 03ec 0F000000 		.4byte	.LVL70-1
 4570 03f0 10000000 		.4byte	.LFE15
 4571 03f4 0400     		.2byte	0x4
 4572 03f6 F3       		.byte	0xf3
 4573 03f7 01       		.uleb128 0x1
 4574 03f8 50       		.byte	0x50
 4575 03f9 9F       		.byte	0x9f
 4576 03fa 00000000 		.4byte	0
 4577 03fe 00000000 		.4byte	0
 4578              	.LLST27:
 4579 0402 00000000 		.4byte	.LVL71
 4580 0406 06000000 		.4byte	.LVL72
 4581 040a 0100     		.2byte	0x1
 4582 040c 50       		.byte	0x50
 4583 040d 06000000 		.4byte	.LVL72
 4584 0411 0F000000 		.4byte	.LVL73-1
 4585 0415 0100     		.2byte	0x1
 4586 0417 51       		.byte	0x51
 4587 0418 0F000000 		.4byte	.LVL73-1
 4588 041c 10000000 		.4byte	.LFE16
 4589 0420 0400     		.2byte	0x4
 4590 0422 F3       		.byte	0xf3
 4591 0423 01       		.uleb128 0x1
 4592 0424 50       		.byte	0x50
 4593 0425 9F       		.byte	0x9f
 4594 0426 00000000 		.4byte	0
 4595 042a 00000000 		.4byte	0
 4596              		.section	.debug_aranges,"",%progbits
 4597 0000 64000000 		.4byte	0x64
 4598 0004 0200     		.2byte	0x2
 4599 0006 00000000 		.4byte	.Ldebug_info0
 4600 000a 04       		.byte	0x4
 4601 000b 00       		.byte	0
 4602 000c 0000     		.2byte	0
 4603 000e 0000     		.2byte	0
 4604 0010 00000000 		.4byte	.LFB14
 4605 0014 04000000 		.4byte	.LFE14-.LFB14
ARM GAS  /var/folders/5n/p_75w94d66l9ssrldxqdhh700000gn/T//ccHvVlNA.s 			page 82


 4606 0018 00000000 		.4byte	.LFB7
 4607 001c A4000000 		.4byte	.LFE7-.LFB7
 4608 0020 00000000 		.4byte	.LFB8
 4609 0024 48000000 		.4byte	.LFE8-.LFB8
 4610 0028 00000000 		.4byte	.LFB9
 4611 002c 54000000 		.4byte	.LFE9-.LFB9
 4612 0030 00000000 		.4byte	.LFB10
 4613 0034 3C000000 		.4byte	.LFE10-.LFB10
 4614 0038 00000000 		.4byte	.LFB11
 4615 003c 38000000 		.4byte	.LFE11-.LFB11
 4616 0040 00000000 		.4byte	.LFB12
 4617 0044 38000000 		.4byte	.LFE12-.LFB12
 4618 0048 00000000 		.4byte	.LFB13
 4619 004c 4C000000 		.4byte	.LFE13-.LFB13
 4620 0050 00000000 		.4byte	.LFB15
 4621 0054 10000000 		.4byte	.LFE15-.LFB15
 4622 0058 00000000 		.4byte	.LFB16
 4623 005c 10000000 		.4byte	.LFE16-.LFB16
 4624 0060 00000000 		.4byte	0
 4625 0064 00000000 		.4byte	0
 4626              		.section	.debug_ranges,"",%progbits
 4627              	.Ldebug_ranges0:
 4628 0000 00000000 		.4byte	.LFB14
 4629 0004 04000000 		.4byte	.LFE14
 4630 0008 00000000 		.4byte	.LFB7
 4631 000c A4000000 		.4byte	.LFE7
 4632 0010 00000000 		.4byte	.LFB8
 4633 0014 48000000 		.4byte	.LFE8
 4634 0018 00000000 		.4byte	.LFB9
 4635 001c 54000000 		.4byte	.LFE9
 4636 0020 00000000 		.4byte	.LFB10
 4637 0024 3C000000 		.4byte	.LFE10
 4638 0028 00000000 		.4byte	.LFB11
 4639 002c 38000000 		.4byte	.LFE11
 4640 0030 00000000 		.4byte	.LFB12
 4641 0034 38000000 		.4byte	.LFE12
 4642 0038 00000000 		.4byte	.LFB13
 4643 003c 4C000000 		.4byte	.LFE13
 4644 0040 00000000 		.4byte	.LFB15
 4645 0044 10000000 		.4byte	.LFE15
 4646 0048 00000000 		.4byte	.LFB16
 4647 004c 10000000 		.4byte	.LFE16
 4648 0050 00000000 		.4byte	0
 4649 0054 00000000 		.4byte	0
 4650              		.section	.debug_line,"",%progbits
 4651              	.Ldebug_line0:
 4652 0000 FC030000 		.section	.debug_str,"MS",%progbits,1
 4652      0200AD02 
 4652      00000201 
 4652      FB0E0D00 
 4652      01010101 
 4653              	.LASF43:
 4654 0000 54687265 		.ascii	"ThreadsList\000"
 4654      6164734C 
 4654      69737400 
 4655              	.LASF35:
 4656 000c 705F7761 		.ascii	"p_waiting\000"
ARM GAS  /var/folders/5n/p_75w94d66l9ssrldxqdhh700000gn/T//ccHvVlNA.s 			page 83


 4656      6974696E 
 4656      6700
 4657              	.LASF149:
 4658 0016 7564705F 		.ascii	"udp_pcb\000"
 4658      70636200 
 4659              	.LASF73:
 4660 001e 7379735F 		.ascii	"sys_mbox_t\000"
 4660      6D626F78 
 4660      5F7400
 4661              	.LASF79:
 4662 0029 4D454D50 		.ascii	"MEMP_TCP_PCB_LISTEN\000"
 4662      5F544350 
 4662      5F504342 
 4662      5F4C4953 
 4662      54454E00 
 4663              	.LASF34:
 4664 003d 705F7469 		.ascii	"p_time\000"
 4664      6D6500
 4665              	.LASF147:
 4666 0044 736F5F6F 		.ascii	"so_options\000"
 4666      7074696F 
 4666      6E7300
 4667              	.LASF44:
 4668 004f 72656761 		.ascii	"regarm_t\000"
 4668      726D5F74 
 4668      00
 4669              	.LASF26:
 4670 0058 705F7072 		.ascii	"p_prio\000"
 4670      696F00
 4671              	.LASF161:
 4672 005f 7379735F 		.ascii	"sys_timeout_handler\000"
 4672      74696D65 
 4672      6F75745F 
 4672      68616E64 
 4672      6C657200 
 4673              	.LASF97:
 4674 0073 666C6167 		.ascii	"flags\000"
 4674      7300
 4675              	.LASF21:
 4676 0079 73797374 		.ascii	"systime_t\000"
 4676      696D655F 
 4676      7400
 4677              	.LASF53:
 4678 0083 6D5F6F77 		.ascii	"m_owner\000"
 4678      6E657200 
 4679              	.LASF49:
 4680 008b 735F7175 		.ascii	"s_queue\000"
 4680      65756500 
 4681              	.LASF138:
 4682 0093 72656376 		.ascii	"recvmbox\000"
 4682      6D626F78 
 4682      00
 4683              	.LASF150:
 4684 009c 7261775F 		.ascii	"raw_pcb\000"
 4684      70636200 
 4685              	.LASF36:
 4686 00a4 705F6D73 		.ascii	"p_msgqueue\000"
ARM GAS  /var/folders/5n/p_75w94d66l9ssrldxqdhh700000gn/T//ccHvVlNA.s 			page 84


 4686      67717565 
 4686      756500
 4687              	.LASF0:
 4688 00af 756E7369 		.ascii	"unsigned int\000"
 4688      676E6564 
 4688      20696E74 
 4688      00
 4689              	.LASF124:
 4690 00bc 4E455443 		.ascii	"NETCONN_WRITE\000"
 4690      4F4E4E5F 
 4690      57524954 
 4690      4500
 4691              	.LASF93:
 4692 00ca 6E657874 		.ascii	"next\000"
 4692      00
 4693              	.LASF189:
 4694 00cf 7379735F 		.ascii	"sys_untimeout\000"
 4694      756E7469 
 4694      6D656F75 
 4694      7400
 4695              	.LASF119:
 4696 00dd 4E455443 		.ascii	"NETCONN_UDPNOCHKSUM\000"
 4696      4F4E4E5F 
 4696      5544504E 
 4696      4F43484B 
 4696      53554D00 
 4697              	.LASF71:
 4698 00f1 6572725F 		.ascii	"err_t\000"
 4698      7400
 4699              	.LASF155:
 4700 00f7 6C6F6361 		.ascii	"local\000"
 4700      6C00
 4701              	.LASF105:
 4702 00fd 6C696E6B 		.ascii	"linkoutput\000"
 4702      6F757470 
 4702      757400
 4703              	.LASF69:
 4704 0108 7531365F 		.ascii	"u16_t\000"
 4704      7400
 4705              	.LASF181:
 4706 010e 696E6974 		.ascii	"initfunc\000"
 4706      66756E63 
 4706      00
 4707              	.LASF64:
 4708 0117 77746F62 		.ascii	"wtobjp\000"
 4708      6A7000
 4709              	.LASF65:
 4710 011e 65776D61 		.ascii	"ewmask\000"
 4710      736B00
 4711              	.LASF111:
 4712 0125 6E657469 		.ascii	"netif_output_fn\000"
 4712      665F6F75 
 4712      74707574 
 4712      5F666E00 
 4713              	.LASF61:
 4714 0135 4D61696C 		.ascii	"Mailbox\000"
 4714      626F7800 
ARM GAS  /var/folders/5n/p_75w94d66l9ssrldxqdhh700000gn/T//ccHvVlNA.s 			page 85


 4715              	.LASF122:
 4716 013d 6E657463 		.ascii	"netconn_state\000"
 4716      6F6E6E5F 
 4716      73746174 
 4716      6500
 4717              	.LASF50:
 4718 014b 735F636E 		.ascii	"s_cnt\000"
 4718      7400
 4719              	.LASF177:
 4720 0151 626C6F63 		.ascii	"block\000"
 4720      6B00
 4721              	.LASF131:
 4722 0157 4E455443 		.ascii	"NETCONN_EVT_SENDPLUS\000"
 4722      4F4E4E5F 
 4722      4556545F 
 4722      53454E44 
 4722      504C5553 
 4723              	.LASF110:
 4724 016c 6E657469 		.ascii	"netif_input_fn\000"
 4724      665F696E 
 4724      7075745F 
 4724      666E00
 4725              	.LASF11:
 4726 017b 75696E74 		.ascii	"uint32_t\000"
 4726      33325F74 
 4726      00
 4727              	.LASF2:
 4728 0184 696E7438 		.ascii	"int8_t\000"
 4728      5F7400
 4729              	.LASF20:
 4730 018b 6576656E 		.ascii	"eventmask_t\000"
 4730      746D6173 
 4730      6B5F7400 
 4731              	.LASF203:
 4732 0197 474E5520 		.ascii	"GNU C 4.7.2\000"
 4732      4320342E 
 4732      372E3200 
 4733              	.LASF85:
 4734 01a3 4D454D50 		.ascii	"MEMP_TCPIP_MSG_API\000"
 4734      5F544350 
 4734      49505F4D 
 4734      53475F41 
 4734      504900
 4735              	.LASF133:
 4736 01b6 4E455443 		.ascii	"NETCONN_EVT_ERROR\000"
 4736      4F4E4E5F 
 4736      4556545F 
 4736      4552524F 
 4736      5200
 4737              	.LASF166:
 4738 01c8 54435049 		.ascii	"TCPIP_MSG_INPKT\000"
 4738      505F4D53 
 4738      475F494E 
 4738      504B5400 
 4739              	.LASF18:
 4740 01d8 74707269 		.ascii	"tprio_t\000"
 4740      6F5F7400 
ARM GAS  /var/folders/5n/p_75w94d66l9ssrldxqdhh700000gn/T//ccHvVlNA.s 			page 86


 4741              	.LASF180:
 4742 01e0 74637069 		.ascii	"tcpip_apimsg\000"
 4742      705F6170 
 4742      696D7367 
 4742      00
 4743              	.LASF74:
 4744 01ed 7379735F 		.ascii	"sys_thread_t\000"
 4744      74687265 
 4744      61645F74 
 4744      00
 4745              	.LASF108:
 4746 01fa 68776164 		.ascii	"hwaddr\000"
 4746      647200
 4747              	.LASF14:
 4748 0201 6C6F6E67 		.ascii	"long long unsigned int\000"
 4748      206C6F6E 
 4748      6720756E 
 4748      7369676E 
 4748      65642069 
 4749              	.LASF115:
 4750 0218 4E455443 		.ascii	"NETCONN_INVALID\000"
 4750      4F4E4E5F 
 4750      494E5641 
 4750      4C494400 
 4751              	.LASF22:
 4752 0228 636E745F 		.ascii	"cnt_t\000"
 4752      7400
 4753              	.LASF107:
 4754 022e 68776164 		.ascii	"hwaddr_len\000"
 4754      64725F6C 
 4754      656E00
 4755              	.LASF75:
 4756 0239 6C776970 		.ascii	"lwip_thread_fn\000"
 4756      5F746872 
 4756      6561645F 
 4756      666E00
 4757              	.LASF28:
 4758 0248 705F6E65 		.ascii	"p_newer\000"
 4758      77657200 
 4759              	.LASF206:
 4760 0250 74637069 		.ascii	"tcpip_init\000"
 4760      705F696E 
 4760      697400
 4761              	.LASF86:
 4762 025b 4D454D50 		.ascii	"MEMP_TCPIP_MSG_INPKT\000"
 4762      5F544350 
 4762      49505F4D 
 4762      53475F49 
 4762      4E504B54 
 4763              	.LASF188:
 4764 0270 6D656D70 		.ascii	"memp_free\000"
 4764      5F667265 
 4764      6500
 4765              	.LASF129:
 4766 027a 4E455443 		.ascii	"NETCONN_EVT_RCVPLUS\000"
 4766      4F4E4E5F 
 4766      4556545F 
ARM GAS  /var/folders/5n/p_75w94d66l9ssrldxqdhh700000gn/T//ccHvVlNA.s 			page 87


 4766      52435650 
 4766      4C555300 
 4767              	.LASF117:
 4768 028e 4E455443 		.ascii	"NETCONN_UDP\000"
 4768      4F4E4E5F 
 4768      55445000 
 4769              	.LASF194:
 4770 029a 7379735F 		.ascii	"sys_mbox_valid\000"
 4770      6D626F78 
 4770      5F76616C 
 4770      696400
 4771              	.LASF187:
 4772 02a9 7379735F 		.ascii	"sys_timeouts_mbox_fetch\000"
 4772      74696D65 
 4772      6F757473 
 4772      5F6D626F 
 4772      785F6665 
 4773              	.LASF95:
 4774 02c1 746F745F 		.ascii	"tot_len\000"
 4774      6C656E00 
 4775              	.LASF154:
 4776 02c9 69706164 		.ascii	"ipaddr\000"
 4776      647200
 4777              	.LASF1:
 4778 02d0 73697A65 		.ascii	"size_t\000"
 4778      5F7400
 4779              	.LASF62:
 4780 02d7 7264796D 		.ascii	"rdymsg\000"
 4780      736700
 4781              	.LASF94:
 4782 02de 7061796C 		.ascii	"payload\000"
 4782      6F616400 
 4783              	.LASF104:
 4784 02e6 6F757470 		.ascii	"output\000"
 4784      757400
 4785              	.LASF92:
 4786 02ed 70627566 		.ascii	"pbuf\000"
 4786      00
 4787              	.LASF58:
 4788 02f2 6D625F72 		.ascii	"mb_rdptr\000"
 4788      64707472 
 4788      00
 4789              	.LASF152:
 4790 02fb 636F6E6E 		.ascii	"conn\000"
 4790      00
 4791              	.LASF174:
 4792 0300 74637069 		.ascii	"tcpip_thread\000"
 4792      705F7468 
 4792      72656164 
 4792      00
 4793              	.LASF72:
 4794 030d 7379735F 		.ascii	"sys_sem_t\000"
 4794      73656D5F 
 4794      7400
 4795              	.LASF136:
 4796 0317 6C617374 		.ascii	"last_err\000"
 4796      5F657272 
ARM GAS  /var/folders/5n/p_75w94d66l9ssrldxqdhh700000gn/T//ccHvVlNA.s 			page 88


 4796      00
 4797              	.LASF90:
 4798 0320 4D454D50 		.ascii	"MEMP_MAX\000"
 4798      5F4D4158 
 4798      00
 4799              	.LASF185:
 4800 0329 74637069 		.ascii	"tcpip_init_done_arg\000"
 4800      705F696E 
 4800      69745F64 
 4800      6F6E655F 
 4800      61726700 
 4801              	.LASF68:
 4802 033d 73385F74 		.ascii	"s8_t\000"
 4802      00
 4803              	.LASF51:
 4804 0342 4D757465 		.ascii	"Mutex\000"
 4804      7800
 4805              	.LASF60:
 4806 0348 6D625F65 		.ascii	"mb_emptysem\000"
 4806      6D707479 
 4806      73656D00 
 4807              	.LASF84:
 4808 0354 4D454D50 		.ascii	"MEMP_NETCONN\000"
 4808      5F4E4554 
 4808      434F4E4E 
 4808      00
 4809              	.LASF151:
 4810 0361 6170695F 		.ascii	"api_msg_msg\000"
 4810      6D73675F 
 4810      6D736700 
 4811              	.LASF130:
 4812 036d 4E455443 		.ascii	"NETCONN_EVT_RCVMINUS\000"
 4812      4F4E4E5F 
 4812      4556545F 
 4812      5243564D 
 4812      494E5553 
 4813              	.LASF30:
 4814 0382 705F6E61 		.ascii	"p_name\000"
 4814      6D6500
 4815              	.LASF88:
 4816 0389 4D454D50 		.ascii	"MEMP_PBUF\000"
 4816      5F504255 
 4816      4600
 4817              	.LASF42:
 4818 0393 54687265 		.ascii	"ThreadsQueue\000"
 4818      61647351 
 4818      75657565 
 4818      00
 4819              	.LASF66:
 4820 03a0 63686172 		.ascii	"char\000"
 4820      00
 4821              	.LASF183:
 4822 03a5 6D656D5F 		.ascii	"mem_free_callback\000"
 4822      66726565 
 4822      5F63616C 
 4822      6C626163 
 4822      6B00
ARM GAS  /var/folders/5n/p_75w94d66l9ssrldxqdhh700000gn/T//ccHvVlNA.s 			page 89


 4823              	.LASF132:
 4824 03b7 4E455443 		.ascii	"NETCONN_EVT_SENDMINUS\000"
 4824      4F4E4E5F 
 4824      4556545F 
 4824      53454E44 
 4824      4D494E55 
 4825              	.LASF193:
 4826 03cd 69705F69 		.ascii	"ip_input\000"
 4826      6E707574 
 4826      00
 4827              	.LASF182:
 4828 03d6 70627566 		.ascii	"pbuf_free_callback\000"
 4828      5F667265 
 4828      655F6361 
 4828      6C6C6261 
 4828      636B00
 4829              	.LASF23:
 4830 03e9 54687265 		.ascii	"Thread\000"
 4830      616400
 4831              	.LASF153:
 4832 03f0 70726F74 		.ascii	"proto\000"
 4832      6F00
 4833              	.LASF16:
 4834 03f6 74737461 		.ascii	"tstate_t\000"
 4834      74655F74 
 4834      00
 4835              	.LASF29:
 4836 03ff 705F6F6C 		.ascii	"p_older\000"
 4836      64657200 
 4837              	.LASF31:
 4838 0407 705F7374 		.ascii	"p_state\000"
 4838      61746500 
 4839              	.LASF4:
 4840 040f 75696E74 		.ascii	"uint8_t\000"
 4840      385F7400 
 4841              	.LASF59:
 4842 0417 6D625F66 		.ascii	"mb_fullsem\000"
 4842      756C6C73 
 4842      656D00
 4843              	.LASF41:
 4844 0422 705F6D70 		.ascii	"p_mpool\000"
 4844      6F6F6C00 
 4845              	.LASF39:
 4846 042a 705F6D74 		.ascii	"p_mtxlist\000"
 4846      786C6973 
 4846      7400
 4847              	.LASF139:
 4848 0434 61636365 		.ascii	"acceptmbox\000"
 4848      70746D62 
 4848      6F7800
 4849              	.LASF191:
 4850 043f 70627566 		.ascii	"pbuf_free\000"
 4850      5F667265 
 4850      6500
 4851              	.LASF169:
 4852 0449 54435049 		.ascii	"TCPIP_MSG_CALLBACK\000"
 4852      505F4D53 
ARM GAS  /var/folders/5n/p_75w94d66l9ssrldxqdhh700000gn/T//ccHvVlNA.s 			page 90


 4852      475F4341 
 4852      4C4C4241 
 4852      434B00
 4853              	.LASF159:
 4854 045c 6170695F 		.ascii	"api_msg\000"
 4854      6D736700 
 4855              	.LASF195:
 4856 0464 6D656D70 		.ascii	"memp_malloc\000"
 4856      5F6D616C 
 4856      6C6F6300 
 4857              	.LASF164:
 4858 0470 74637069 		.ascii	"tcpip_msg_type\000"
 4858      705F6D73 
 4858      675F7479 
 4858      706500
 4859              	.LASF83:
 4860 047f 4D454D50 		.ascii	"MEMP_NETBUF\000"
 4860      5F4E4554 
 4860      42554600 
 4861              	.LASF102:
 4862 048b 6E65746D 		.ascii	"netmask\000"
 4862      61736B00 
 4863              	.LASF13:
 4864 0493 6C6F6E67 		.ascii	"long long int\000"
 4864      206C6F6E 
 4864      6720696E 
 4864      7400
 4865              	.LASF175:
 4866 04a1 74637069 		.ascii	"tcpip_input\000"
 4866      705F696E 
 4866      70757400 
 4867              	.LASF19:
 4868 04ad 6D73675F 		.ascii	"msg_t\000"
 4868      7400
 4869              	.LASF46:
 4870 04b3 636F6E74 		.ascii	"context\000"
 4870      65787400 
 4871              	.LASF67:
 4872 04bb 75385F74 		.ascii	"u8_t\000"
 4872      00
 4873              	.LASF205:
 4874 04c0 2F557365 		.ascii	"/Users/sin/Documents/Eclipse/Workspace/ChibiOS_2.4."
 4874      72732F73 
 4874      696E2F44 
 4874      6F63756D 
 4874      656E7473 
 4875 04f3 322F6465 		.ascii	"2/demos/ARMCM4-STM32F407-LWIP\000"
 4875      6D6F732F 
 4875      41524D43 
 4875      4D342D53 
 4875      544D3332 
 4876              	.LASF32:
 4877 0511 705F666C 		.ascii	"p_flags\000"
 4877      61677300 
 4878              	.LASF56:
 4879 0519 6D625F74 		.ascii	"mb_top\000"
 4879      6F7000
ARM GAS  /var/folders/5n/p_75w94d66l9ssrldxqdhh700000gn/T//ccHvVlNA.s 			page 91


 4880              	.LASF167:
 4881 0520 54435049 		.ascii	"TCPIP_MSG_TIMEOUT\000"
 4881      505F4D53 
 4881      475F5449 
 4881      4D454F55 
 4881      5400
 4882              	.LASF48:
 4883 0532 53656D61 		.ascii	"Semaphore\000"
 4883      70686F72 
 4883      6500
 4884              	.LASF81:
 4885 053c 4D454D50 		.ascii	"MEMP_REASSDATA\000"
 4885      5F524541 
 4885      53534441 
 4885      544100
 4886              	.LASF89:
 4887 054b 4D454D50 		.ascii	"MEMP_PBUF_POOL\000"
 4887      5F504255 
 4887      465F504F 
 4887      4F4C00
 4888              	.LASF162:
 4889 055a 74637069 		.ascii	"tcpip_init_done_fn\000"
 4889      705F696E 
 4889      69745F64 
 4889      6F6E655F 
 4889      666E00
 4890              	.LASF179:
 4891 056d 74637069 		.ascii	"tcpip_untimeout\000"
 4891      705F756E 
 4891      74696D65 
 4891      6F757400 
 4892              	.LASF37:
 4893 057d 705F6D73 		.ascii	"p_msg\000"
 4893      6700
 4894              	.LASF156:
 4895 0583 64617461 		.ascii	"dataptr\000"
 4895      70747200 
 4896              	.LASF15:
 4897 058b 746D6F64 		.ascii	"tmode_t\000"
 4897      655F7400 
 4898              	.LASF173:
 4899 0593 70627566 		.ascii	"pbuf_free_int\000"
 4899      5F667265 
 4899      655F696E 
 4899      7400
 4900              	.LASF196:
 4901 05a1 7379735F 		.ascii	"sys_mbox_trypost\000"
 4901      6D626F78 
 4901      5F747279 
 4901      706F7374 
 4901      00
 4902              	.LASF7:
 4903 05b2 75696E74 		.ascii	"uint16_t\000"
 4903      31365F74 
 4903      00
 4904              	.LASF123:
 4905 05bb 4E455443 		.ascii	"NETCONN_NONE\000"
ARM GAS  /var/folders/5n/p_75w94d66l9ssrldxqdhh700000gn/T//ccHvVlNA.s 			page 92


 4905      4F4E4E5F 
 4905      4E4F4E45 
 4905      00
 4906              	.LASF45:
 4907 05c8 696E7463 		.ascii	"intctx\000"
 4907      747800
 4908              	.LASF202:
 4909 05cf 7379735F 		.ascii	"sys_thread_new\000"
 4909      74687265 
 4909      61645F6E 
 4909      657700
 4910              	.LASF121:
 4911 05de 6E657463 		.ascii	"netconn_type\000"
 4911      6F6E6E5F 
 4911      74797065 
 4911      00
 4912              	.LASF126:
 4913 05eb 4E455443 		.ascii	"NETCONN_CONNECT\000"
 4913      4F4E4E5F 
 4913      434F4E4E 
 4913      45435400 
 4914              	.LASF78:
 4915 05fb 4D454D50 		.ascii	"MEMP_TCP_PCB\000"
 4915      5F544350 
 4915      5F504342 
 4915      00
 4916              	.LASF40:
 4917 0608 705F7265 		.ascii	"p_realprio\000"
 4917      616C7072 
 4917      696F00
 4918              	.LASF70:
 4919 0613 7533325F 		.ascii	"u32_t\000"
 4919      7400
 4920              	.LASF6:
 4921 0619 73686F72 		.ascii	"short int\000"
 4921      7420696E 
 4921      7400
 4922              	.LASF57:
 4923 0623 6D625F77 		.ascii	"mb_wrptr\000"
 4923      72707472 
 4923      00
 4924              	.LASF157:
 4925 062c 61706966 		.ascii	"apiflags\000"
 4925      6C616773 
 4925      00
 4926              	.LASF38:
 4927 0635 705F6570 		.ascii	"p_epending\000"
 4927      656E6469 
 4927      6E6700
 4928              	.LASF52:
 4929 0640 6D5F7175 		.ascii	"m_queue\000"
 4929      65756500 
 4930              	.LASF10:
 4931 0648 6C6F6E67 		.ascii	"long int\000"
 4931      20696E74 
 4931      00
 4932              	.LASF171:
ARM GAS  /var/folders/5n/p_75w94d66l9ssrldxqdhh700000gn/T//ccHvVlNA.s 			page 93


 4933 0651 6170696D 		.ascii	"apimsg\000"
 4933      736700
 4934              	.LASF87:
 4935 0658 4D454D50 		.ascii	"MEMP_SYS_TIMEOUT\000"
 4935      5F535953 
 4935      5F54494D 
 4935      454F5554 
 4935      00
 4936              	.LASF163:
 4937 0669 74637069 		.ascii	"tcpip_callback_fn\000"
 4937      705F6361 
 4937      6C6C6261 
 4937      636B5F66 
 4937      6E00
 4938              	.LASF142:
 4939 067b 63757272 		.ascii	"current_msg\000"
 4939      656E745F 
 4939      6D736700 
 4940              	.LASF165:
 4941 0687 54435049 		.ascii	"TCPIP_MSG_API\000"
 4941      505F4D53 
 4941      475F4150 
 4941      4900
 4942              	.LASF24:
 4943 0695 705F6E65 		.ascii	"p_next\000"
 4943      787400
 4944              	.LASF77:
 4945 069c 4D454D50 		.ascii	"MEMP_UDP_PCB\000"
 4945      5F554450 
 4945      5F504342 
 4945      00
 4946              	.LASF145:
 4947 06a9 6C6F6361 		.ascii	"local_ip\000"
 4947      6C5F6970 
 4947      00
 4948              	.LASF27:
 4949 06b2 705F6374 		.ascii	"p_ctx\000"
 4949      7800
 4950              	.LASF186:
 4951 06b8 6D626F78 		.ascii	"mbox\000"
 4951      00
 4952              	.LASF198:
 4953 06bd 7379735F 		.ascii	"sys_arch_sem_wait\000"
 4953      61726368 
 4953      5F73656D 
 4953      5F776169 
 4953      7400
 4954              	.LASF140:
 4955 06cf 736F636B 		.ascii	"socket\000"
 4955      657400
 4956              	.LASF176:
 4957 06d6 74637069 		.ascii	"tcpip_callback_with_block\000"
 4957      705F6361 
 4957      6C6C6261 
 4957      636B5F77 
 4957      6974685F 
 4958              	.LASF109:
ARM GAS  /var/folders/5n/p_75w94d66l9ssrldxqdhh700000gn/T//ccHvVlNA.s 			page 94


 4959 06f0 6E616D65 		.ascii	"name\000"
 4959      00
 4960              	.LASF113:
 4961 06f5 6E657462 		.ascii	"netbuf\000"
 4961      756600
 4962              	.LASF112:
 4963 06fc 6E657469 		.ascii	"netif_linkoutput_fn\000"
 4963      665F6C69 
 4963      6E6B6F75 
 4963      74707574 
 4963      5F666E00 
 4964              	.LASF82:
 4965 0710 4D454D50 		.ascii	"MEMP_FRAG_PBUF\000"
 4965      5F465241 
 4965      475F5042 
 4965      554600
 4966              	.LASF76:
 4967 071f 4D454D50 		.ascii	"MEMP_RAW_PCB\000"
 4967      5F524157 
 4967      5F504342 
 4967      00
 4968              	.LASF25:
 4969 072c 705F7072 		.ascii	"p_prev\000"
 4969      657600
 4970              	.LASF47:
 4971 0733 73697A65 		.ascii	"sizetype\000"
 4971      74797065 
 4971      00
 4972              	.LASF17:
 4973 073c 74726566 		.ascii	"trefs_t\000"
 4973      735F7400 
 4974              	.LASF12:
 4975 0744 6C6F6E67 		.ascii	"long unsigned int\000"
 4975      20756E73 
 4975      69676E65 
 4975      6420696E 
 4975      7400
 4976              	.LASF55:
 4977 0756 6D625F62 		.ascii	"mb_buffer\000"
 4977      75666665 
 4977      7200
 4978              	.LASF190:
 4979 0760 7379735F 		.ascii	"sys_timeout\000"
 4979      74696D65 
 4979      6F757400 
 4980              	.LASF9:
 4981 076c 696E7433 		.ascii	"int32_t\000"
 4981      325F7400 
 4982              	.LASF114:
 4983 0774 706F7274 		.ascii	"port\000"
 4983      00
 4984              	.LASF103:
 4985 0779 696E7075 		.ascii	"input\000"
 4985      7400
 4986              	.LASF128:
 4987 077f 6E657463 		.ascii	"netconn_evt\000"
 4987      6F6E6E5F 
ARM GAS  /var/folders/5n/p_75w94d66l9ssrldxqdhh700000gn/T//ccHvVlNA.s 			page 95


 4987      65767400 
 4988              	.LASF134:
 4989 078b 6E657463 		.ascii	"netconn_callback\000"
 4989      6F6E6E5F 
 4989      63616C6C 
 4989      6261636B 
 4989      00
 4990              	.LASF197:
 4991 079c 7379735F 		.ascii	"sys_mbox_post\000"
 4991      6D626F78 
 4991      5F706F73 
 4991      7400
 4992              	.LASF96:
 4993 07aa 74797065 		.ascii	"type\000"
 4993      00
 4994              	.LASF5:
 4995 07af 756E7369 		.ascii	"unsigned char\000"
 4995      676E6564 
 4995      20636861 
 4995      7200
 4996              	.LASF160:
 4997 07bd 66756E63 		.ascii	"function\000"
 4997      74696F6E 
 4997      00
 4998              	.LASF33:
 4999 07c6 705F7265 		.ascii	"p_refs\000"
 4999      667300
 5000              	.LASF80:
 5001 07cd 4D454D50 		.ascii	"MEMP_TCP_SEG\000"
 5001      5F544350 
 5001      5F534547 
 5001      00
 5002              	.LASF144:
 5003 07da 69705F70 		.ascii	"ip_pcb\000"
 5003      636200
 5004              	.LASF116:
 5005 07e1 4E455443 		.ascii	"NETCONN_TCP\000"
 5005      4F4E4E5F 
 5005      54435000 
 5006              	.LASF158:
 5007 07ed 73687574 		.ascii	"shut\000"
 5007      00
 5008              	.LASF125:
 5009 07f2 4E455443 		.ascii	"NETCONN_LISTEN\000"
 5009      4F4E4E5F 
 5009      4C495354 
 5009      454E00
 5010              	.LASF199:
 5011 0801 706F7274 		.ascii	"port_halt\000"
 5011      5F68616C 
 5011      7400
 5012              	.LASF204:
 5013 080b 2E2E2F2E 		.ascii	"../../ext/lwip-1.4.0/src/api/tcpip.c\000"
 5013      2E2F6578 
 5013      742F6C77 
 5013      69702D31 
 5013      2E342E30 
ARM GAS  /var/folders/5n/p_75w94d66l9ssrldxqdhh700000gn/T//ccHvVlNA.s 			page 96


 5014              	.LASF141:
 5015 0830 77726974 		.ascii	"write_offset\000"
 5015      655F6F66 
 5015      66736574 
 5015      00
 5016              	.LASF99:
 5017 083d 61646472 		.ascii	"addr\000"
 5017      00
 5018              	.LASF200:
 5019 0842 6C776970 		.ascii	"lwip_init\000"
 5019      5F696E69 
 5019      7400
 5020              	.LASF106:
 5021 084c 73746174 		.ascii	"state\000"
 5021      6500
 5022              	.LASF143:
 5023 0852 63616C6C 		.ascii	"callback\000"
 5023      6261636B 
 5023      00
 5024              	.LASF101:
 5025 085b 6E657469 		.ascii	"netif\000"
 5025      6600
 5026              	.LASF184:
 5027 0861 74637069 		.ascii	"tcpip_init_done\000"
 5027      705F696E 
 5027      69745F64 
 5027      6F6E6500 
 5028              	.LASF201:
 5029 0871 7379735F 		.ascii	"sys_mbox_new\000"
 5029      6D626F78 
 5029      5F6E6577 
 5029      00
 5030              	.LASF178:
 5031 087e 74637069 		.ascii	"tcpip_timeout\000"
 5031      705F7469 
 5031      6D656F75 
 5031      7400
 5032              	.LASF127:
 5033 088c 4E455443 		.ascii	"NETCONN_CLOSE\000"
 5033      4F4E4E5F 
 5033      434C4F53 
 5033      4500
 5034              	.LASF54:
 5035 089a 6D5F6E65 		.ascii	"m_next\000"
 5035      787400
 5036              	.LASF3:
 5037 08a1 7369676E 		.ascii	"signed char\000"
 5037      65642063 
 5037      68617200 
 5038              	.LASF148:
 5039 08ad 7463705F 		.ascii	"tcp_pcb\000"
 5039      70636200 
 5040              	.LASF8:
 5041 08b5 73686F72 		.ascii	"short unsigned int\000"
 5041      7420756E 
 5041      7369676E 
 5041      65642069 
ARM GAS  /var/folders/5n/p_75w94d66l9ssrldxqdhh700000gn/T//ccHvVlNA.s 			page 97


 5041      6E7400
 5042              	.LASF120:
 5043 08c8 4E455443 		.ascii	"NETCONN_RAW\000"
 5043      4F4E4E5F 
 5043      52415700 
 5044              	.LASF118:
 5045 08d4 4E455443 		.ascii	"NETCONN_UDPLITE\000"
 5045      4F4E4E5F 
 5045      5544504C 
 5045      49544500 
 5046              	.LASF146:
 5047 08e4 72656D6F 		.ascii	"remote_ip\000"
 5047      74655F69 
 5047      7000
 5048              	.LASF137:
 5049 08ee 6F705F63 		.ascii	"op_completed\000"
 5049      6F6D706C 
 5049      65746564 
 5049      00
 5050              	.LASF100:
 5051 08fb 69705F61 		.ascii	"ip_addr_t\000"
 5051      6464725F 
 5051      7400
 5052              	.LASF135:
 5053 0905 6E657463 		.ascii	"netconn\000"
 5053      6F6E6E00 
 5054              	.LASF91:
 5055 090d 6D656D70 		.ascii	"memp_t\000"
 5055      5F7400
 5056              	.LASF168:
 5057 0914 54435049 		.ascii	"TCPIP_MSG_UNTIMEOUT\000"
 5057      505F4D53 
 5057      475F554E 
 5057      54494D45 
 5057      4F555400 
 5058              	.LASF172:
 5059 0928 74637069 		.ascii	"tcpip_msg\000"
 5059      705F6D73 
 5059      6700
 5060              	.LASF192:
 5061 0932 65746865 		.ascii	"ethernet_input\000"
 5061      726E6574 
 5061      5F696E70 
 5061      757400
 5062              	.LASF170:
 5063 0941 6D736563 		.ascii	"msecs\000"
 5063      7300
 5064              	.LASF63:
 5065 0947 65786974 		.ascii	"exitcode\000"
 5065      636F6465 
 5065      00
 5066              	.LASF98:
 5067 0950 69705F61 		.ascii	"ip_addr\000"
 5067      64647200 
 5068              		.ident	"GCC: (GNU) 4.7.2"
ARM GAS  /var/folders/5n/p_75w94d66l9ssrldxqdhh700000gn/T//ccHvVlNA.s 			page 98


DEFINED SYMBOLS
                            *ABS*:0000000000000000 tcpip.c
/var/folders/5n/p_75w94d66l9ssrldxqdhh700000gn/T//ccHvVlNA.s:19     .text.pbuf_free_int:0000000000000000 $t
/var/folders/5n/p_75w94d66l9ssrldxqdhh700000gn/T//ccHvVlNA.s:24     .text.pbuf_free_int:0000000000000000 pbuf_free_int
/var/folders/5n/p_75w94d66l9ssrldxqdhh700000gn/T//ccHvVlNA.s:41     .text.tcpip_thread:0000000000000000 $t
/var/folders/5n/p_75w94d66l9ssrldxqdhh700000gn/T//ccHvVlNA.s:46     .text.tcpip_thread:0000000000000000 tcpip_thread
/var/folders/5n/p_75w94d66l9ssrldxqdhh700000gn/T//ccHvVlNA.s:89     .text.tcpip_thread:0000000000000026 $d
/var/folders/5n/p_75w94d66l9ssrldxqdhh700000gn/T//ccHvVlNA.s:180    .text.tcpip_thread:0000000000000098 $d
/var/folders/5n/p_75w94d66l9ssrldxqdhh700000gn/T//ccHvVlNA.s:187    .text.tcpip_input:0000000000000000 $t
/var/folders/5n/p_75w94d66l9ssrldxqdhh700000gn/T//ccHvVlNA.s:193    .text.tcpip_input:0000000000000000 tcpip_input
/var/folders/5n/p_75w94d66l9ssrldxqdhh700000gn/T//ccHvVlNA.s:266    .text.tcpip_input:0000000000000044 $d
/var/folders/5n/p_75w94d66l9ssrldxqdhh700000gn/T//ccHvVlNA.s:271    .text.tcpip_callback_with_block:0000000000000000 $t
/var/folders/5n/p_75w94d66l9ssrldxqdhh700000gn/T//ccHvVlNA.s:277    .text.tcpip_callback_with_block:0000000000000000 tcpip_callback_with_block
/var/folders/5n/p_75w94d66l9ssrldxqdhh700000gn/T//ccHvVlNA.s:368    .text.tcpip_callback_with_block:0000000000000050 $d
/var/folders/5n/p_75w94d66l9ssrldxqdhh700000gn/T//ccHvVlNA.s:373    .text.tcpip_timeout:0000000000000000 $t
/var/folders/5n/p_75w94d66l9ssrldxqdhh700000gn/T//ccHvVlNA.s:379    .text.tcpip_timeout:0000000000000000 tcpip_timeout
/var/folders/5n/p_75w94d66l9ssrldxqdhh700000gn/T//ccHvVlNA.s:445    .text.tcpip_timeout:0000000000000038 $d
/var/folders/5n/p_75w94d66l9ssrldxqdhh700000gn/T//ccHvVlNA.s:450    .text.tcpip_untimeout:0000000000000000 $t
/var/folders/5n/p_75w94d66l9ssrldxqdhh700000gn/T//ccHvVlNA.s:456    .text.tcpip_untimeout:0000000000000000 tcpip_untimeout
/var/folders/5n/p_75w94d66l9ssrldxqdhh700000gn/T//ccHvVlNA.s:519    .text.tcpip_untimeout:0000000000000034 $d
/var/folders/5n/p_75w94d66l9ssrldxqdhh700000gn/T//ccHvVlNA.s:524    .text.tcpip_apimsg:0000000000000000 $t
/var/folders/5n/p_75w94d66l9ssrldxqdhh700000gn/T//ccHvVlNA.s:530    .text.tcpip_apimsg:0000000000000000 tcpip_apimsg
/var/folders/5n/p_75w94d66l9ssrldxqdhh700000gn/T//ccHvVlNA.s:586    .text.tcpip_apimsg:0000000000000034 $d
/var/folders/5n/p_75w94d66l9ssrldxqdhh700000gn/T//ccHvVlNA.s:591    .text.tcpip_init:0000000000000000 $t
/var/folders/5n/p_75w94d66l9ssrldxqdhh700000gn/T//ccHvVlNA.s:597    .text.tcpip_init:0000000000000000 tcpip_init
/var/folders/5n/p_75w94d66l9ssrldxqdhh700000gn/T//ccHvVlNA.s:654    .text.tcpip_init:0000000000000038 $d
/var/folders/5n/p_75w94d66l9ssrldxqdhh700000gn/T//ccHvVlNA.s:663    .text.pbuf_free_callback:0000000000000000 $t
/var/folders/5n/p_75w94d66l9ssrldxqdhh700000gn/T//ccHvVlNA.s:669    .text.pbuf_free_callback:0000000000000000 pbuf_free_callback
/var/folders/5n/p_75w94d66l9ssrldxqdhh700000gn/T//ccHvVlNA.s:692    .text.mem_free_callback:0000000000000000 $t
/var/folders/5n/p_75w94d66l9ssrldxqdhh700000gn/T//ccHvVlNA.s:698    .text.mem_free_callback:0000000000000000 mem_free_callback
/var/folders/5n/p_75w94d66l9ssrldxqdhh700000gn/T//ccHvVlNA.s:721    .rodata.str1.4:0000000000000000 $d
/var/folders/5n/p_75w94d66l9ssrldxqdhh700000gn/T//ccHvVlNA.s:725    .bss.mbox:0000000000000000 $d
/var/folders/5n/p_75w94d66l9ssrldxqdhh700000gn/T//ccHvVlNA.s:729    .bss.mbox:0000000000000000 mbox
/var/folders/5n/p_75w94d66l9ssrldxqdhh700000gn/T//ccHvVlNA.s:732    .bss.tcpip_init_done_arg:0000000000000000 $d
/var/folders/5n/p_75w94d66l9ssrldxqdhh700000gn/T//ccHvVlNA.s:736    .bss.tcpip_init_done_arg:0000000000000000 tcpip_init_done_arg
/var/folders/5n/p_75w94d66l9ssrldxqdhh700000gn/T//ccHvVlNA.s:739    .bss.tcpip_init_done:0000000000000000 $d
/var/folders/5n/p_75w94d66l9ssrldxqdhh700000gn/T//ccHvVlNA.s:743    .bss.tcpip_init_done:0000000000000000 tcpip_init_done
                     .debug_frame:0000000000000010 $d
/var/folders/5n/p_75w94d66l9ssrldxqdhh700000gn/T//ccHvVlNA.s:186    .text.tcpip_thread:00000000000000a4 $t
/var/folders/5n/p_75w94d66l9ssrldxqdhh700000gn/T//ccHvVlNA.s:270    .text.tcpip_input:0000000000000048 $t
/var/folders/5n/p_75w94d66l9ssrldxqdhh700000gn/T//ccHvVlNA.s:372    .text.tcpip_callback_with_block:0000000000000054 $t
/var/folders/5n/p_75w94d66l9ssrldxqdhh700000gn/T//ccHvVlNA.s:449    .text.tcpip_timeout:000000000000003c $t
/var/folders/5n/p_75w94d66l9ssrldxqdhh700000gn/T//ccHvVlNA.s:523    .text.tcpip_untimeout:0000000000000038 $t
/var/folders/5n/p_75w94d66l9ssrldxqdhh700000gn/T//ccHvVlNA.s:590    .text.tcpip_apimsg:0000000000000038 $t
/var/folders/5n/p_75w94d66l9ssrldxqdhh700000gn/T//ccHvVlNA.s:662    .text.tcpip_init:000000000000004c $t
/var/folders/5n/p_75w94d66l9ssrldxqdhh700000gn/T//ccHvVlNA.s:94     .text.tcpip_thread:000000000000002b $d
/var/folders/5n/p_75w94d66l9ssrldxqdhh700000gn/T//ccHvVlNA.s:94     .text.tcpip_thread:000000000000002c $t

UNDEFINED SYMBOLS
pbuf_free
sys_timeouts_mbox_fetch
memp_free
sys_untimeout
sys_timeout
ethernet_input
port_halt
ip_input
ARM GAS  /var/folders/5n/p_75w94d66l9ssrldxqdhh700000gn/T//ccHvVlNA.s 			page 99


sys_mbox_valid
memp_malloc
sys_mbox_trypost
sys_mbox_post
sys_arch_sem_wait
lwip_init
sys_mbox_new
sys_thread_new
mem_free
