ARM GAS  /var/folders/5n/p_75w94d66l9ssrldxqdhh700000gn/T//cc5ZkR9h.s 			page 1


   1              		.syntax unified
   2              		.cpu cortex-m4
   3              		.fpu softvfp
   4              		.eabi_attribute 20, 1
   5              		.eabi_attribute 21, 1
   6              		.eabi_attribute 23, 3
   7              		.eabi_attribute 24, 1
   8              		.eabi_attribute 25, 1
   9              		.eabi_attribute 26, 1
  10              		.eabi_attribute 30, 2
  11              		.eabi_attribute 34, 1
  12              		.eabi_attribute 18, 4
  13              		.thumb
  14              		.file	"testthd.c"
  15              		.text
  16              	.Ltext0:
  17              		.cfi_sections	.debug_frame
  18              		.section	.text.thd3_execute,"ax",%progbits
  19              		.align	2
  20              		.p2align 4,,15
  21              		.thumb
  22              		.thumb_func
  23              		.type	thd3_execute, %function
  24              	thd3_execute:
  25              	.LFB10:
  26              		.file 1 "../../test/testthd.c"
  27              		.loc 1 137 0
  28              		.cfi_startproc
  29              		@ args = 0, pretend = 0, frame = 0
  30              		@ frame_needed = 0, uses_anonymous_args = 0
  31 0000 F8B5     		push	{r3, r4, r5, r6, r7, lr}
  32              	.LCFI0:
  33              		.cfi_def_cfa_offset 24
  34              		.cfi_offset 3, -24
  35              		.cfi_offset 4, -20
  36              		.cfi_offset 5, -16
  37              		.cfi_offset 6, -12
  38              		.cfi_offset 7, -8
  39              		.cfi_offset 14, -4
  40              		.loc 1 140 0
  41 0002 4D4E     		ldr	r6, .L7
  42 0004 F369     		ldr	r3, [r6, #28]
  43 0006 9C68     		ldr	r4, [r3, #8]
  44              	.LVL0:
  45              		.loc 1 141 0
  46 0008 651C     		adds	r5, r4, #1
  47 000a 2846     		mov	r0, r5
  48 000c FFF7FEFF 		bl	chThdSetPriority
  49              	.LVL1:
  50              		.loc 1 142 0
  51 0010 021B     		subs	r2, r0, r4
  52 0012 5142     		rsbs	r1, r2, #0
  53 0014 5141     		adcs	r1, r1, r2
  54              		.loc 1 141 0
  55 0016 0746     		mov	r7, r0
  56              	.LVL2:
  57              		.loc 1 142 0
ARM GAS  /var/folders/5n/p_75w94d66l9ssrldxqdhh700000gn/T//cc5ZkR9h.s 			page 2


  58 0018 0120     		movs	r0, #1
  59              	.LVL3:
  60 001a FFF7FEFF 		bl	_test_assert
  61              	.LVL4:
  62 001e 00B1     		cbz	r0, .L6
  63              	.LVL5:
  64              	.L1:
  65 0020 F8BD     		pop	{r3, r4, r5, r6, r7, pc}
  66              	.LVL6:
  67              	.L6:
  68              		.loc 1 144 0
  69 0022 F369     		ldr	r3, [r6, #28]
  70 0024 9968     		ldr	r1, [r3, #8]
  71 0026 0220     		movs	r0, #2
  72 0028 6B1A     		subs	r3, r5, r1
  73 002a 5942     		rsbs	r1, r3, #0
  74 002c 5941     		adcs	r1, r1, r3
  75 002e FFF7FEFF 		bl	_test_assert
  76              	.LVL7:
  77 0032 0028     		cmp	r0, #0
  78 0034 F4D1     		bne	.L1
  79              		.loc 1 146 0
  80 0036 3846     		mov	r0, r7
  81 0038 FFF7FEFF 		bl	chThdSetPriority
  82              	.LVL8:
  83              		.loc 1 147 0
  84 003c B5EB000C 		subs	ip, r5, r0
  85 0040 DCF10001 		rsbs	r1, ip, #0
  86 0044 51EB0C01 		adcs	r1, r1, ip
  87 0048 0320     		movs	r0, #3
  88              	.LVL9:
  89 004a FFF7FEFF 		bl	_test_assert
  90              	.LVL10:
  91 004e 0028     		cmp	r0, #0
  92 0050 E6D1     		bne	.L1
  93              		.loc 1 149 0
  94 0052 F369     		ldr	r3, [r6, #28]
  95 0054 9968     		ldr	r1, [r3, #8]
  96 0056 0420     		movs	r0, #4
  97 0058 B1EB040E 		subs	lr, r1, r4
  98 005c DEF10001 		rsbs	r1, lr, #0
  99 0060 51EB0E01 		adcs	r1, r1, lr
 100 0064 FFF7FEFF 		bl	_test_assert
 101              	.LVL11:
 102 0068 0028     		cmp	r0, #0
 103 006a D9D1     		bne	.L1
 104              	.LBB2:
 105              		.loc 1 154 0
 106 006c 2023     		movs	r3, #32
 107              	.LVL12:
 108              	@ 154 "../../test/testthd.c" 1
 109 006e 83F31188 		msr     BASEPRI, r3
 110              	@ 0 "" 2
 111              	.LVL13:
 112              		.thumb
 113              	.LBE2:
 114              		.loc 1 155 0
ARM GAS  /var/folders/5n/p_75w94d66l9ssrldxqdhh700000gn/T//cc5ZkR9h.s 			page 3


 115 0072 F369     		ldr	r3, [r6, #28]
 116              	.LVL14:
 117 0074 9A68     		ldr	r2, [r3, #8]
 118 0076 0232     		adds	r2, r2, #2
 119 0078 9A60     		str	r2, [r3, #8]
 120              	.LBB3:
 121              		.loc 1 156 0
 122 007a 0346     		mov	r3, r0
 123              	.LVL15:
 124              	@ 156 "../../test/testthd.c" 1
 125 007c 83F31188 		msr     BASEPRI, r3
 126              	@ 0 "" 2
 127              	.LVL16:
 128              		.thumb
 129              	.LBE3:
 130              		.loc 1 157 0
 131 0080 F369     		ldr	r3, [r6, #28]
 132              	.LVL17:
 133 0082 9968     		ldr	r1, [r3, #8]
 134 0084 A71C     		adds	r7, r4, #2
 135 0086 0520     		movs	r0, #5
 136 0088 CA1B     		subs	r2, r1, r7
 137 008a 5142     		rsbs	r1, r2, #0
 138 008c 5141     		adcs	r1, r1, r2
 139 008e FFF7FEFF 		bl	_test_assert
 140              	.LVL18:
 141 0092 0028     		cmp	r0, #0
 142 0094 C4D1     		bne	.L1
 143              		.loc 1 161 0
 144 0096 2846     		mov	r0, r5
 145 0098 FFF7FEFF 		bl	chThdSetPriority
 146              	.LVL19:
 147              		.loc 1 162 0
 148 009c 031B     		subs	r3, r0, r4
 149 009e 5942     		rsbs	r1, r3, #0
 150 00a0 5941     		adcs	r1, r1, r3
 151 00a2 0620     		movs	r0, #6
 152              	.LVL20:
 153 00a4 FFF7FEFF 		bl	_test_assert
 154              	.LVL21:
 155 00a8 0028     		cmp	r0, #0
 156 00aa B9D1     		bne	.L1
 157              		.loc 1 164 0
 158 00ac F369     		ldr	r3, [r6, #28]
 159 00ae 9968     		ldr	r1, [r3, #8]
 160 00b0 0720     		movs	r0, #7
 161 00b2 B7EB010C 		subs	ip, r7, r1
 162 00b6 DCF10001 		rsbs	r1, ip, #0
 163 00ba 51EB0C01 		adcs	r1, r1, ip
 164 00be FFF7FEFF 		bl	_test_assert
 165              	.LVL22:
 166 00c2 0028     		cmp	r0, #0
 167 00c4 ACD1     		bne	.L1
 168              		.loc 1 166 0
 169 00c6 F369     		ldr	r3, [r6, #28]
 170 00c8 196C     		ldr	r1, [r3, #64]
 171 00ca 0820     		movs	r0, #8
ARM GAS  /var/folders/5n/p_75w94d66l9ssrldxqdhh700000gn/T//cc5ZkR9h.s 			page 4


 172 00cc B5EB010E 		subs	lr, r5, r1
 173 00d0 DEF10001 		rsbs	r1, lr, #0
 174 00d4 51EB0E01 		adcs	r1, r1, lr
 175 00d8 FFF7FEFF 		bl	_test_assert
 176              	.LVL23:
 177 00dc 0028     		cmp	r0, #0
 178 00de 9FD1     		bne	.L1
 179              		.loc 1 170 0
 180 00e0 E71C     		adds	r7, r4, #3
 181 00e2 3846     		mov	r0, r7
 182 00e4 FFF7FEFF 		bl	chThdSetPriority
 183              	.LVL24:
 184              		.loc 1 171 0
 185 00e8 281A     		subs	r0, r5, r0
 186              	.LVL25:
 187 00ea 4142     		rsbs	r1, r0, #0
 188 00ec 4141     		adcs	r1, r1, r0
 189 00ee 0920     		movs	r0, #9
 190 00f0 FFF7FEFF 		bl	_test_assert
 191              	.LVL26:
 192 00f4 0028     		cmp	r0, #0
 193 00f6 93D1     		bne	.L1
 194              		.loc 1 173 0
 195 00f8 F369     		ldr	r3, [r6, #28]
 196 00fa 9968     		ldr	r1, [r3, #8]
 197 00fc 0A20     		movs	r0, #10
 198 00fe 7A1A     		subs	r2, r7, r1
 199 0100 5142     		rsbs	r1, r2, #0
 200 0102 5141     		adcs	r1, r1, r2
 201 0104 FFF7FEFF 		bl	_test_assert
 202              	.LVL27:
 203 0108 0028     		cmp	r0, #0
 204 010a 89D1     		bne	.L1
 205              		.loc 1 175 0
 206 010c F369     		ldr	r3, [r6, #28]
 207 010e 196C     		ldr	r1, [r3, #64]
 208 0110 0B20     		movs	r0, #11
 209 0112 7B1A     		subs	r3, r7, r1
 210 0114 5942     		rsbs	r1, r3, #0
 211 0116 5941     		adcs	r1, r1, r3
 212 0118 FFF7FEFF 		bl	_test_assert
 213              	.LVL28:
 214 011c 0028     		cmp	r0, #0
 215 011e 7FF47FAF 		bne	.L1
 216              	.LBB4:
 217              		.loc 1 178 0
 218 0122 2023     		movs	r3, #32
 219              	.LVL29:
 220              	@ 178 "../../test/testthd.c" 1
 221 0124 83F31188 		msr     BASEPRI, r3
 222              	@ 0 "" 2
 223              	.LVL30:
 224              		.thumb
 225              	.LBE4:
 226              		.loc 1 179 0
 227 0128 F269     		ldr	r2, [r6, #28]
 228              	.LBB5:
ARM GAS  /var/folders/5n/p_75w94d66l9ssrldxqdhh700000gn/T//cc5ZkR9h.s 			page 5


 229              		.loc 1 181 0
 230 012a 0346     		mov	r3, r0
 231              	.LVL31:
 232              	.LBE5:
 233              		.loc 1 179 0
 234 012c 9460     		str	r4, [r2, #8]
 235              		.loc 1 180 0
 236 012e 1464     		str	r4, [r2, #64]
 237              	.LBB6:
 238              		.loc 1 181 0
 239              	@ 181 "../../test/testthd.c" 1
 240 0130 83F31188 		msr     BASEPRI, r3
 241              	@ 0 "" 2
 242              	.LVL32:
 243              		.thumb
 244 0134 74E7     		b	.L1
 245              	.L8:
 246 0136 00BF     		.align	2
 247              	.L7:
 248 0138 00000000 		.word	rlist
 249              	.LBE6:
 250              		.cfi_endproc
 251              	.LFE10:
 252              		.size	thd3_execute, .-thd3_execute
 253 013c AFF30080 		.section	.text.thd2_execute,"ax",%progbits
 254              		.align	2
 255              		.p2align 4,,15
 256              		.thumb
 257              		.thumb_func
 258              		.type	thd2_execute, %function
 259              	thd2_execute:
 260              	.LFB9:
 261              		.loc 1 105 0
 262              		.cfi_startproc
 263              		@ args = 0, pretend = 0, frame = 0
 264              		@ frame_needed = 0, uses_anonymous_args = 0
 265 0000 F0B5     		push	{r4, r5, r6, r7, lr}
 266              	.LCFI1:
 267              		.cfi_def_cfa_offset 20
 268              		.cfi_offset 4, -20
 269              		.cfi_offset 5, -16
 270              		.cfi_offset 6, -12
 271              		.cfi_offset 7, -8
 272              		.cfi_offset 14, -4
 273              		.loc 1 107 0
 274 0002 40F20007 		movw	r7, #:lower16:rlist
 275 0006 C0F20007 		movt	r7, #:upper16:rlist
 276 000a 40F20006 		movw	r6, #:lower16:wa
 277 000e FB69     		ldr	r3, [r7, #28]
 278              		.loc 1 105 0
 279 0010 83B0     		sub	sp, sp, #12
 280              	.LCFI2:
 281              		.cfi_def_cfa_offset 32
 282              		.loc 1 107 0
 283 0012 C0F20006 		movt	r6, #:upper16:wa
 284 0016 9A68     		ldr	r2, [r3, #8]
 285 0018 7068     		ldr	r0, [r6, #4]
ARM GAS  /var/folders/5n/p_75w94d66l9ssrldxqdhh700000gn/T//cc5ZkR9h.s 			page 6


 286 001a 40F20005 		movw	r5, #:lower16:thread
 287 001e 40F20001 		movw	r1, #:lower16:.LC0
 288 0022 C0F20005 		movt	r5, #:upper16:thread
 289 0026 C0F20001 		movt	r1, #:upper16:.LC0
 290 002a 043A     		subs	r2, r2, #4
 291 002c 2B46     		mov	r3, r5
 292 002e 0091     		str	r1, [sp, #0]
 293 0030 4FF49871 		mov	r1, #304
 294 0034 FFF7FEFF 		bl	chThdCreateStatic
 295              	.LVL33:
 296 0038 40F20004 		movw	r4, #:lower16:threads
 297              		.loc 1 108 0
 298 003c FB69     		ldr	r3, [r7, #28]
 299 003e 3168     		ldr	r1, [r6, #0]
 300 0040 9A68     		ldr	r2, [r3, #8]
 301              		.loc 1 107 0
 302 0042 C0F20004 		movt	r4, #:upper16:threads
 303              		.loc 1 108 0
 304 0046 053A     		subs	r2, r2, #5
 305              		.loc 1 107 0
 306 0048 6060     		str	r0, [r4, #4]
 307              		.loc 1 108 0
 308 004a 40F20000 		movw	r0, #:lower16:.LC1
 309 004e C0F20000 		movt	r0, #:upper16:.LC1
 310 0052 2B46     		mov	r3, r5
 311 0054 0090     		str	r0, [sp, #0]
 312 0056 0846     		mov	r0, r1
 313 0058 4FF49871 		mov	r1, #304
 314 005c FFF7FEFF 		bl	chThdCreateStatic
 315              	.LVL34:
 316              		.loc 1 109 0
 317 0060 FB69     		ldr	r3, [r7, #28]
 318 0062 3169     		ldr	r1, [r6, #16]
 319 0064 9A68     		ldr	r2, [r3, #8]
 320              		.loc 1 108 0
 321 0066 2060     		str	r0, [r4, #0]
 322              		.loc 1 109 0
 323 0068 40F20000 		movw	r0, #:lower16:.LC2
 324 006c C0F20000 		movt	r0, #:upper16:.LC2
 325 0070 013A     		subs	r2, r2, #1
 326 0072 2B46     		mov	r3, r5
 327 0074 0090     		str	r0, [sp, #0]
 328 0076 0846     		mov	r0, r1
 329 0078 4FF49871 		mov	r1, #304
 330 007c FFF7FEFF 		bl	chThdCreateStatic
 331              	.LVL35:
 332              		.loc 1 110 0
 333 0080 FB69     		ldr	r3, [r7, #28]
 334 0082 F168     		ldr	r1, [r6, #12]
 335 0084 9A68     		ldr	r2, [r3, #8]
 336              		.loc 1 109 0
 337 0086 2061     		str	r0, [r4, #16]
 338              		.loc 1 110 0
 339 0088 40F20000 		movw	r0, #:lower16:.LC3
 340 008c C0F20000 		movt	r0, #:upper16:.LC3
 341 0090 2B46     		mov	r3, r5
 342 0092 0090     		str	r0, [sp, #0]
ARM GAS  /var/folders/5n/p_75w94d66l9ssrldxqdhh700000gn/T//cc5ZkR9h.s 			page 7


 343 0094 023A     		subs	r2, r2, #2
 344 0096 0846     		mov	r0, r1
 345 0098 4FF49871 		mov	r1, #304
 346 009c FFF7FEFF 		bl	chThdCreateStatic
 347              	.LVL36:
 348              	.LBB7:
 349              		.loc 1 112 0
 350 00a0 2023     		movs	r3, #32
 351              	.LVL37:
 352              	.LBE7:
 353              		.loc 1 110 0
 354 00a2 E060     		str	r0, [r4, #12]
 355              	.LBB8:
 356              		.loc 1 112 0
 357              	@ 112 "../../test/testthd.c" 1
 358 00a4 83F31188 		msr     BASEPRI, r3
 359              	@ 0 "" 2
 360              	.LVL38:
 361              		.thumb
 362              	.LBE8:
 363              		.loc 1 113 0
 364 00a8 FB69     		ldr	r3, [r7, #28]
 365              	.LVL39:
 366 00aa B068     		ldr	r0, [r6, #8]
 367 00ac 9A68     		ldr	r2, [r3, #8]
 368 00ae 40F20001 		movw	r1, #:lower16:.LC4
 369 00b2 C0F20001 		movt	r1, #:upper16:.LC4
 370 00b6 2B46     		mov	r3, r5
 371 00b8 0091     		str	r1, [sp, #0]
 372 00ba 033A     		subs	r2, r2, #3
 373 00bc 4FF49871 		mov	r1, #304
 374 00c0 FFF7FEFF 		bl	chThdCreateI
 375              	.LVL40:
 376 00c4 A060     		str	r0, [r4, #8]
 377              	.LBB9:
 378              		.loc 1 114 0
 379 00c6 0023     		movs	r3, #0
 380              	.LVL41:
 381              	@ 114 "../../test/testthd.c" 1
 382 00c8 83F31188 		msr     BASEPRI, r3
 383              	@ 0 "" 2
 384              	.LVL42:
 385              		.thumb
 386              	.LBE9:
 387              		.loc 1 115 0
 388 00cc A068     		ldr	r0, [r4, #8]
 389 00ce FFF7FEFF 		bl	chThdResume
 390              	.LVL43:
 391              		.loc 1 116 0
 392 00d2 FFF7FEFF 		bl	test_wait_threads
 393              	.LVL44:
 394              		.loc 1 117 0
 395 00d6 40F20001 		movw	r1, #:lower16:.LC5
 396 00da 0120     		movs	r0, #1
 397 00dc C0F20001 		movt	r1, #:upper16:.LC5
 398              		.loc 1 118 0
 399 00e0 03B0     		add	sp, sp, #12
ARM GAS  /var/folders/5n/p_75w94d66l9ssrldxqdhh700000gn/T//cc5ZkR9h.s 			page 8


 400 00e2 BDE8F040 		pop	{r4, r5, r6, r7, lr}
 401              		.loc 1 117 0
 402 00e6 FFF7FEBF 		b	_test_assert_sequence
 403              	.LVL45:
 404              		.cfi_endproc
 405              	.LFE9:
 406              		.size	thd2_execute, .-thd2_execute
 407 00ea 00BFAFF3 		.section	.text.thd1_execute,"ax",%progbits
 407      0080
 408              		.align	2
 409              		.p2align 4,,15
 410              		.thumb
 411              		.thumb_func
 412              		.type	thd1_execute, %function
 413              	thd1_execute:
 414              	.LFB8:
 415              		.loc 1 77 0
 416              		.cfi_startproc
 417              		@ args = 0, pretend = 0, frame = 0
 418              		@ frame_needed = 0, uses_anonymous_args = 0
 419 0000 2DE9F041 		push	{r4, r5, r6, r7, r8, lr}
 420              	.LCFI3:
 421              		.cfi_def_cfa_offset 24
 422              		.cfi_offset 4, -24
 423              		.cfi_offset 5, -20
 424              		.cfi_offset 6, -16
 425              		.cfi_offset 7, -12
 426              		.cfi_offset 8, -8
 427              		.cfi_offset 14, -4
 428              		.loc 1 79 0
 429 0004 40F20008 		movw	r8, #:lower16:rlist
 430 0008 C0F20008 		movt	r8, #:upper16:rlist
 431 000c 40F20006 		movw	r6, #:lower16:wa
 432 0010 D8F81C30 		ldr	r3, [r8, #28]
 433              		.loc 1 77 0
 434 0014 82B0     		sub	sp, sp, #8
 435              	.LCFI4:
 436              		.cfi_def_cfa_offset 32
 437              		.loc 1 79 0
 438 0016 C0F20006 		movt	r6, #:upper16:wa
 439 001a 9A68     		ldr	r2, [r3, #8]
 440 001c 3068     		ldr	r0, [r6, #0]
 441 001e 40F20005 		movw	r5, #:lower16:thread
 442 0022 40F20004 		movw	r4, #:lower16:.LC1
 443 0026 C0F20005 		movt	r5, #:upper16:thread
 444 002a C0F20004 		movt	r4, #:upper16:.LC1
 445 002e 053A     		subs	r2, r2, #5
 446 0030 2B46     		mov	r3, r5
 447 0032 0094     		str	r4, [sp, #0]
 448 0034 4FF49871 		mov	r1, #304
 449 0038 FFF7FEFF 		bl	chThdCreateStatic
 450              	.LVL46:
 451 003c 40F20004 		movw	r4, #:lower16:threads
 452 0040 C0F20004 		movt	r4, #:upper16:threads
 453              		.loc 1 80 0
 454 0044 D8F81C30 		ldr	r3, [r8, #28]
 455 0048 7768     		ldr	r7, [r6, #4]
ARM GAS  /var/folders/5n/p_75w94d66l9ssrldxqdhh700000gn/T//cc5ZkR9h.s 			page 9


 456 004a 9A68     		ldr	r2, [r3, #8]
 457              		.loc 1 79 0
 458 004c 2060     		str	r0, [r4, #0]
 459              		.loc 1 80 0
 460 004e 40F20000 		movw	r0, #:lower16:.LC0
 461 0052 C0F20000 		movt	r0, #:upper16:.LC0
 462 0056 043A     		subs	r2, r2, #4
 463 0058 2B46     		mov	r3, r5
 464 005a 0090     		str	r0, [sp, #0]
 465 005c 4FF49871 		mov	r1, #304
 466 0060 3846     		mov	r0, r7
 467 0062 FFF7FEFF 		bl	chThdCreateStatic
 468              	.LVL47:
 469              		.loc 1 81 0
 470 0066 D8F81C30 		ldr	r3, [r8, #28]
 471 006a B768     		ldr	r7, [r6, #8]
 472 006c 9A68     		ldr	r2, [r3, #8]
 473              		.loc 1 80 0
 474 006e 6060     		str	r0, [r4, #4]
 475              		.loc 1 81 0
 476 0070 40F20000 		movw	r0, #:lower16:.LC4
 477 0074 C0F20000 		movt	r0, #:upper16:.LC4
 478 0078 033A     		subs	r2, r2, #3
 479 007a 2B46     		mov	r3, r5
 480 007c 0090     		str	r0, [sp, #0]
 481 007e 4FF49871 		mov	r1, #304
 482 0082 3846     		mov	r0, r7
 483 0084 FFF7FEFF 		bl	chThdCreateStatic
 484              	.LVL48:
 485              		.loc 1 82 0
 486 0088 D8F81C30 		ldr	r3, [r8, #28]
 487 008c F768     		ldr	r7, [r6, #12]
 488 008e 9A68     		ldr	r2, [r3, #8]
 489              		.loc 1 81 0
 490 0090 A060     		str	r0, [r4, #8]
 491              		.loc 1 82 0
 492 0092 40F20000 		movw	r0, #:lower16:.LC3
 493 0096 C0F20000 		movt	r0, #:upper16:.LC3
 494 009a 023A     		subs	r2, r2, #2
 495 009c 2B46     		mov	r3, r5
 496 009e 0090     		str	r0, [sp, #0]
 497 00a0 4FF49871 		mov	r1, #304
 498 00a4 3846     		mov	r0, r7
 499 00a6 FFF7FEFF 		bl	chThdCreateStatic
 500              	.LVL49:
 501              		.loc 1 83 0
 502 00aa D8F81C30 		ldr	r3, [r8, #28]
 503 00ae 3669     		ldr	r6, [r6, #16]
 504 00b0 9A68     		ldr	r2, [r3, #8]
 505              		.loc 1 82 0
 506 00b2 E060     		str	r0, [r4, #12]
 507              		.loc 1 83 0
 508 00b4 40F20000 		movw	r0, #:lower16:.LC2
 509 00b8 C0F20000 		movt	r0, #:upper16:.LC2
 510 00bc 4FF49871 		mov	r1, #304
 511 00c0 013A     		subs	r2, r2, #1
 512 00c2 2B46     		mov	r3, r5
ARM GAS  /var/folders/5n/p_75w94d66l9ssrldxqdhh700000gn/T//cc5ZkR9h.s 			page 10


 513 00c4 0090     		str	r0, [sp, #0]
 514 00c6 3046     		mov	r0, r6
 515 00c8 FFF7FEFF 		bl	chThdCreateStatic
 516              	.LVL50:
 517 00cc 2061     		str	r0, [r4, #16]
 518              		.loc 1 84 0
 519 00ce FFF7FEFF 		bl	test_wait_threads
 520              	.LVL51:
 521              		.loc 1 85 0
 522 00d2 40F20001 		movw	r1, #:lower16:.LC5
 523 00d6 0120     		movs	r0, #1
 524 00d8 C0F20001 		movt	r1, #:upper16:.LC5
 525              		.loc 1 86 0
 526 00dc 02B0     		add	sp, sp, #8
 527 00de BDE8F041 		pop	{r4, r5, r6, r7, r8, lr}
 528              		.loc 1 85 0
 529 00e2 FFF7FEBF 		b	_test_assert_sequence
 530              	.LVL52:
 531              		.cfi_endproc
 532              	.LFE8:
 533              		.size	thd1_execute, .-thd1_execute
 534 00e6 00BFAFF3 		.section	.text.thread,"ax",%progbits
 534      0080AFF3 
 534      0080
 535              		.align	2
 536              		.p2align 4,,15
 537              		.thumb
 538              		.thumb_func
 539              		.type	thread, %function
 540              	thread:
 541              	.LFB7:
 542              		.loc 1 71 0
 543              		.cfi_startproc
 544              		@ args = 0, pretend = 0, frame = 0
 545              		@ frame_needed = 0, uses_anonymous_args = 0
 546              	.LVL53:
 547 0000 08B5     		push	{r3, lr}
 548              	.LCFI5:
 549              		.cfi_def_cfa_offset 8
 550              		.cfi_offset 3, -8
 551              		.cfi_offset 14, -4
 552              		.loc 1 73 0
 553 0002 0078     		ldrb	r0, [r0, #0]	@ zero_extendqisi2
 554              	.LVL54:
 555 0004 FFF7FEFF 		bl	test_emit_token
 556              	.LVL55:
 557              		.loc 1 75 0
 558 0008 0020     		movs	r0, #0
 559 000a 08BD     		pop	{r3, pc}
 560              		.cfi_endproc
 561              	.LFE7:
 562              		.size	thread, .-thread
 563 000c AFF30080 		.section	.text.thd4_execute,"ax",%progbits
 564              		.align	2
 565              		.p2align 4,,15
 566              		.thumb
 567              		.thumb_func
ARM GAS  /var/folders/5n/p_75w94d66l9ssrldxqdhh700000gn/T//cc5ZkR9h.s 			page 11


 568              		.type	thd4_execute, %function
 569              	thd4_execute:
 570              	.LFB11:
 571              		.loc 1 200 0
 572              		.cfi_startproc
 573              		@ args = 0, pretend = 0, frame = 0
 574              		@ frame_needed = 0, uses_anonymous_args = 0
 575 0000 38B5     		push	{r3, r4, r5, lr}
 576              	.LCFI6:
 577              		.cfi_def_cfa_offset 16
 578              		.cfi_offset 3, -16
 579              		.cfi_offset 4, -12
 580              		.cfi_offset 5, -8
 581              		.cfi_offset 14, -4
 582              		.loc 1 206 0
 583 0002 1C4D     		ldr	r5, .L17
 584              		.loc 1 203 0
 585 0004 FFF7FEFF 		bl	test_wait_tick
 586              	.LVL56:
 587              		.loc 1 206 0
 588 0008 EC68     		ldr	r4, [r5, #12]
 589              	.LVL57:
 590              		.loc 1 207 0
 591 000a 6420     		movs	r0, #100
 592 000c FFF7FEFF 		bl	chThdSleep
 593              	.LVL58:
 594              		.loc 1 208 0
 595 0010 0120     		movs	r0, #1
 596 0012 04F16401 		add	r1, r4, #100
 597 0016 04F16502 		add	r2, r4, #101
 598 001a FFF7FEFF 		bl	_test_assert_time_window
 599              	.LVL59:
 600 001e 00B1     		cbz	r0, .L16
 601              	.LVL60:
 602              	.L12:
 603 0020 38BD     		pop	{r3, r4, r5, pc}
 604              	.LVL61:
 605              	.L16:
 606              		.loc 1 211 0
 607 0022 EC68     		ldr	r4, [r5, #12]
 608              	.LVL62:
 609              		.loc 1 212 0
 610 0024 6420     		movs	r0, #100
 611 0026 FFF7FEFF 		bl	chThdSleep
 612              	.LVL63:
 613              		.loc 1 213 0
 614 002a 0220     		movs	r0, #2
 615 002c 04F16401 		add	r1, r4, #100
 616 0030 04F16502 		add	r2, r4, #101
 617 0034 FFF7FEFF 		bl	_test_assert_time_window
 618              	.LVL64:
 619 0038 0028     		cmp	r0, #0
 620 003a F1D1     		bne	.L12
 621              	.LBB12:
 622              	.LBB13:
 623              		.loc 1 216 0
 624 003c EC68     		ldr	r4, [r5, #12]
ARM GAS  /var/folders/5n/p_75w94d66l9ssrldxqdhh700000gn/T//cc5ZkR9h.s 			page 12


 625              	.LVL65:
 626              		.loc 1 217 0
 627 003e 4FF47A70 		mov	r0, #1000
 628 0042 FFF7FEFF 		bl	chThdSleep
 629              	.LVL66:
 630              		.loc 1 218 0
 631 0046 0320     		movs	r0, #3
 632 0048 04F57A71 		add	r1, r4, #1000
 633 004c 04F2E932 		addw	r2, r4, #1001
 634 0050 FFF7FEFF 		bl	_test_assert_time_window
 635              	.LVL67:
 636 0054 0028     		cmp	r0, #0
 637 0056 E3D1     		bne	.L12
 638              		.loc 1 221 0
 639 0058 EC68     		ldr	r4, [r5, #12]
 640              	.LVL68:
 641 005a 04F16405 		add	r5, r4, #100
 642              	.LVL69:
 643              		.loc 1 222 0
 644 005e 2846     		mov	r0, r5
 645 0060 FFF7FEFF 		bl	chThdSleepUntil
 646              	.LVL70:
 647              		.loc 1 223 0
 648 0064 0420     		movs	r0, #4
 649 0066 2946     		mov	r1, r5
 650 0068 04F16502 		add	r2, r4, #101
 651              	.LBE13:
 652              	.LBE12:
 653              		.loc 1 224 0
 654 006c BDE83840 		pop	{r3, r4, r5, lr}
 655              	.LBB15:
 656              	.LBB14:
 657              		.loc 1 223 0
 658 0070 FFF7FEBF 		b	_test_assert_time_window
 659              	.LVL71:
 660              	.L18:
 661              		.align	2
 662              	.L17:
 663 0074 00000000 		.word	vtlist
 664              	.LBE14:
 665              	.LBE15:
 666              		.cfi_endproc
 667              	.LFE11:
 668              		.size	thd4_execute, .-thd4_execute
 669              		.global	patternthd
 670              		.global	testthd4
 671              		.global	testthd3
 672              		.global	testthd2
 673              		.global	testthd1
 674 0078 AFF30080 		.section	.rodata.testthd1,"a",%progbits
 674      AFF30080 
 675              		.align	2
 676              		.type	testthd1, %object
 677              		.size	testthd1, 16
 678              	testthd1:
 679 0000 64000000 		.word	.LC9
 680 0004 00000000 		.word	0
ARM GAS  /var/folders/5n/p_75w94d66l9ssrldxqdhh700000gn/T//cc5ZkR9h.s 			page 13


 681 0008 00000000 		.word	0
 682 000c 00000000 		.word	thd1_execute
 683              		.section	.rodata.testthd2,"a",%progbits
 684              		.align	2
 685              		.type	testthd2, %object
 686              		.size	testthd2, 16
 687              	testthd2:
 688 0000 48000000 		.word	.LC8
 689 0004 00000000 		.word	0
 690 0008 00000000 		.word	0
 691 000c 00000000 		.word	thd2_execute
 692              		.section	.rodata.testthd3,"a",%progbits
 693              		.align	2
 694              		.type	testthd3, %object
 695              		.size	testthd3, 16
 696              	testthd3:
 697 0000 2C000000 		.word	.LC7
 698 0004 00000000 		.word	0
 699 0008 00000000 		.word	0
 700 000c 00000000 		.word	thd3_execute
 701              		.section	.rodata.testthd4,"a",%progbits
 702              		.align	2
 703              		.type	testthd4, %object
 704              		.size	testthd4, 16
 705              	testthd4:
 706 0000 1C000000 		.word	.LC6
 707 0004 00000000 		.word	0
 708 0008 00000000 		.word	0
 709 000c 00000000 		.word	thd4_execute
 710              		.section	.rodata.patternthd,"a",%progbits
 711              		.align	2
 712              		.type	patternthd, %object
 713              		.size	patternthd, 20
 714              	patternthd:
 715 0000 00000000 		.word	testthd1
 716 0004 00000000 		.word	testthd2
 717 0008 00000000 		.word	testthd3
 718 000c 00000000 		.word	testthd4
 719 0010 00000000 		.word	0
 720              		.section	.rodata.str1.4,"aMS",%progbits,1
 721              		.align	2
 722              	.LC0:
 723 0000 4400     		.ascii	"D\000"
 724 0002 0000     		.space	2
 725              	.LC1:
 726 0004 4500     		.ascii	"E\000"
 727 0006 0000     		.space	2
 728              	.LC2:
 729 0008 4100     		.ascii	"A\000"
 730 000a 0000     		.space	2
 731              	.LC3:
 732 000c 4200     		.ascii	"B\000"
 733 000e 0000     		.space	2
 734              	.LC4:
 735 0010 4300     		.ascii	"C\000"
 736 0012 0000     		.space	2
 737              	.LC5:
ARM GAS  /var/folders/5n/p_75w94d66l9ssrldxqdhh700000gn/T//cc5ZkR9h.s 			page 14


 738 0014 41424344 		.ascii	"ABCDE\000"
 738      4500
 739 001a 0000     		.space	2
 740              	.LC6:
 741 001c 54687265 		.ascii	"Threads, delays\000"
 741      6164732C 
 741      2064656C 
 741      61797300 
 742              	.LC7:
 743 002c 54687265 		.ascii	"Threads, priority change\000"
 743      6164732C 
 743      20707269 
 743      6F726974 
 743      79206368 
 744 0045 000000   		.space	3
 745              	.LC8:
 746 0048 54687265 		.ascii	"Threads, enqueuing test #2\000"
 746      6164732C 
 746      20656E71 
 746      75657569 
 746      6E672074 
 747 0063 00       		.space	1
 748              	.LC9:
 749 0064 54687265 		.ascii	"Threads, enqueuing test #1\000"
 749      6164732C 
 749      20656E71 
 749      75657569 
 749      6E672074 
 750 007f 00       		.text
 751              	.Letext0:
 752              		.file 2 "/usr/local/cross/lib/gcc/arm-none-eabi/4.7.2/include/stddef.h"
 753              		.file 3 "/usr/local/cross/lib/gcc/arm-none-eabi/4.7.2/../../../../arm-none-eabi/include/stdint.h"
 754              		.file 4 "../../os/ports/GCC/ARMCMx/chtypes.h"
 755              		.file 5 "../../os/kernel/include/chlists.h"
 756              		.file 6 "../../os/kernel/include/chthreads.h"
 757              		.file 7 "../../os/ports/GCC/ARMCMx/chcore_v7m.h"
 758              		.file 8 "../../os/kernel/include/chvt.h"
 759              		.file 9 "../../os/kernel/include/chschd.h"
 760              		.file 10 "../../os/kernel/include/chmtx.h"
 761              		.file 11 "../../test/test.h"