ARM GAS  /var/folders/5n/p_75w94d66l9ssrldxqdhh700000gn/T//cc5ZkR9h.s 			page 1


   1              		.syntax unified
   2              		.cpu cortex-m4
   3              		.fpu softvfp
   4              		.eabi_attribute 20, 1
   5              		.eabi_attribute 21, 1
   6              		.eabi_attribute 23, 3
   7              		.eabi_attribute 24, 1
   8              		.eabi_attribute 25, 1
   9              		.eabi_attribute 26, 1
  10              		.eabi_attribute 30, 2
  11              		.eabi_attribute 34, 1
  12              		.eabi_attribute 18, 4
  13              		.thumb
  14              		.file	"testthd.c"
  15              		.text
  16              	.Ltext0:
  17              		.cfi_sections	.debug_frame
  18              		.section	.text.thd3_execute,"ax",%progbits
  19              		.align	2
  20              		.p2align 4,,15
  21              		.thumb
  22              		.thumb_func
  23              		.type	thd3_execute, %function
  24              	thd3_execute:
  25              	.LFB10:
  26              		.file 1 "../../test/testthd.c"
  27              		.loc 1 137 0
  28              		.cfi_startproc
  29              		@ args = 0, pretend = 0, frame = 0
  30              		@ frame_needed = 0, uses_anonymous_args = 0
  31 0000 F8B5     		push	{r3, r4, r5, r6, r7, lr}
  32              	.LCFI0:
  33              		.cfi_def_cfa_offset 24
  34              		.cfi_offset 3, -24
  35              		.cfi_offset 4, -20
  36              		.cfi_offset 5, -16
  37              		.cfi_offset 6, -12
  38              		.cfi_offset 7, -8
  39              		.cfi_offset 14, -4
  40              		.loc 1 140 0
  41 0002 4D4E     		ldr	r6, .L7
  42 0004 F369     		ldr	r3, [r6, #28]
  43 0006 9C68     		ldr	r4, [r3, #8]
  44              	.LVL0:
  45              		.loc 1 141 0
  46 0008 651C     		adds	r5, r4, #1
  47 000a 2846     		mov	r0, r5
  48 000c FFF7FEFF 		bl	chThdSetPriority
  49              	.LVL1:
  50              		.loc 1 142 0
  51 0010 021B     		subs	r2, r0, r4
  52 0012 5142     		rsbs	r1, r2, #0
  53 0014 5141     		adcs	r1, r1, r2
  54              		.loc 1 141 0
  55 0016 0746     		mov	r7, r0
  56              	.LVL2:
  57              		.loc 1 142 0
ARM GAS  /var/folders/5n/p_75w94d66l9ssrldxqdhh700000gn/T//cc5ZkR9h.s 			page 2


  58 0018 0120     		movs	r0, #1
  59              	.LVL3:
  60 001a FFF7FEFF 		bl	_test_assert
  61              	.LVL4:
  62 001e 00B1     		cbz	r0, .L6
  63              	.LVL5:
  64              	.L1:
  65 0020 F8BD     		pop	{r3, r4, r5, r6, r7, pc}
  66              	.LVL6:
  67              	.L6:
  68              		.loc 1 144 0
  69 0022 F369     		ldr	r3, [r6, #28]
  70 0024 9968     		ldr	r1, [r3, #8]
  71 0026 0220     		movs	r0, #2
  72 0028 6B1A     		subs	r3, r5, r1
  73 002a 5942     		rsbs	r1, r3, #0
  74 002c 5941     		adcs	r1, r1, r3
  75 002e FFF7FEFF 		bl	_test_assert
  76              	.LVL7:
  77 0032 0028     		cmp	r0, #0
  78 0034 F4D1     		bne	.L1
  79              		.loc 1 146 0
  80 0036 3846     		mov	r0, r7
  81 0038 FFF7FEFF 		bl	chThdSetPriority
  82              	.LVL8:
  83              		.loc 1 147 0
  84 003c B5EB000C 		subs	ip, r5, r0
  85 0040 DCF10001 		rsbs	r1, ip, #0
  86 0044 51EB0C01 		adcs	r1, r1, ip
  87 0048 0320     		movs	r0, #3
  88              	.LVL9:
  89 004a FFF7FEFF 		bl	_test_assert
  90              	.LVL10:
  91 004e 0028     		cmp	r0, #0
  92 0050 E6D1     		bne	.L1
  93              		.loc 1 149 0
  94 0052 F369     		ldr	r3, [r6, #28]
  95 0054 9968     		ldr	r1, [r3, #8]
  96 0056 0420     		movs	r0, #4
  97 0058 B1EB040E 		subs	lr, r1, r4
  98 005c DEF10001 		rsbs	r1, lr, #0
  99 0060 51EB0E01 		adcs	r1, r1, lr
 100 0064 FFF7FEFF 		bl	_test_assert
 101              	.LVL11:
 102 0068 0028     		cmp	r0, #0
 103 006a D9D1     		bne	.L1
 104              	.LBB2:
 105              		.loc 1 154 0
 106 006c 2023     		movs	r3, #32
 107              	.LVL12:
 108              	@ 154 "../../test/testthd.c" 1
 109 006e 83F31188 		msr     BASEPRI, r3
 110              	@ 0 "" 2
 111              	.LVL13:
 112              		.thumb
 113              	.LBE2:
 114              		.loc 1 155 0
ARM GAS  /var/folders/5n/p_75w94d66l9ssrldxqdhh700000gn/T//cc5ZkR9h.s 			page 3


 115 0072 F369     		ldr	r3, [r6, #28]
 116              	.LVL14:
 117 0074 9A68     		ldr	r2, [r3, #8]
 118 0076 0232     		adds	r2, r2, #2
 119 0078 9A60     		str	r2, [r3, #8]
 120              	.LBB3:
 121              		.loc 1 156 0
 122 007a 0346     		mov	r3, r0
 123              	.LVL15:
 124              	@ 156 "../../test/testthd.c" 1
 125 007c 83F31188 		msr     BASEPRI, r3
 126              	@ 0 "" 2
 127              	.LVL16:
 128              		.thumb
 129              	.LBE3:
 130              		.loc 1 157 0
 131 0080 F369     		ldr	r3, [r6, #28]
 132              	.LVL17:
 133 0082 9968     		ldr	r1, [r3, #8]
 134 0084 A71C     		adds	r7, r4, #2
 135 0086 0520     		movs	r0, #5
 136 0088 CA1B     		subs	r2, r1, r7
 137 008a 5142     		rsbs	r1, r2, #0
 138 008c 5141     		adcs	r1, r1, r2
 139 008e FFF7FEFF 		bl	_test_assert
 140              	.LVL18:
 141 0092 0028     		cmp	r0, #0
 142 0094 C4D1     		bne	.L1
 143              		.loc 1 161 0
 144 0096 2846     		mov	r0, r5
 145 0098 FFF7FEFF 		bl	chThdSetPriority
 146              	.LVL19:
 147              		.loc 1 162 0
 148 009c 031B     		subs	r3, r0, r4
 149 009e 5942     		rsbs	r1, r3, #0
 150 00a0 5941     		adcs	r1, r1, r3
 151 00a2 0620     		movs	r0, #6
 152              	.LVL20:
 153 00a4 FFF7FEFF 		bl	_test_assert
 154              	.LVL21:
 155 00a8 0028     		cmp	r0, #0
 156 00aa B9D1     		bne	.L1
 157              		.loc 1 164 0
 158 00ac F369     		ldr	r3, [r6, #28]
 159 00ae 9968     		ldr	r1, [r3, #8]
 160 00b0 0720     		movs	r0, #7
 161 00b2 B7EB010C 		subs	ip, r7, r1
 162 00b6 DCF10001 		rsbs	r1, ip, #0
 163 00ba 51EB0C01 		adcs	r1, r1, ip
 164 00be FFF7FEFF 		bl	_test_assert
 165              	.LVL22:
 166 00c2 0028     		cmp	r0, #0
 167 00c4 ACD1     		bne	.L1
 168              		.loc 1 166 0
 169 00c6 F369     		ldr	r3, [r6, #28]
 170 00c8 196C     		ldr	r1, [r3, #64]
 171 00ca 0820     		movs	r0, #8
ARM GAS  /var/folders/5n/p_75w94d66l9ssrldxqdhh700000gn/T//cc5ZkR9h.s 			page 4


 172 00cc B5EB010E 		subs	lr, r5, r1
 173 00d0 DEF10001 		rsbs	r1, lr, #0
 174 00d4 51EB0E01 		adcs	r1, r1, lr
 175 00d8 FFF7FEFF 		bl	_test_assert
 176              	.LVL23:
 177 00dc 0028     		cmp	r0, #0
 178 00de 9FD1     		bne	.L1
 179              		.loc 1 170 0
 180 00e0 E71C     		adds	r7, r4, #3
 181 00e2 3846     		mov	r0, r7
 182 00e4 FFF7FEFF 		bl	chThdSetPriority
 183              	.LVL24:
 184              		.loc 1 171 0
 185 00e8 281A     		subs	r0, r5, r0
 186              	.LVL25:
 187 00ea 4142     		rsbs	r1, r0, #0
 188 00ec 4141     		adcs	r1, r1, r0
 189 00ee 0920     		movs	r0, #9
 190 00f0 FFF7FEFF 		bl	_test_assert
 191              	.LVL26:
 192 00f4 0028     		cmp	r0, #0
 193 00f6 93D1     		bne	.L1
 194              		.loc 1 173 0
 195 00f8 F369     		ldr	r3, [r6, #28]
 196 00fa 9968     		ldr	r1, [r3, #8]
 197 00fc 0A20     		movs	r0, #10
 198 00fe 7A1A     		subs	r2, r7, r1
 199 0100 5142     		rsbs	r1, r2, #0
 200 0102 5141     		adcs	r1, r1, r2
 201 0104 FFF7FEFF 		bl	_test_assert
 202              	.LVL27:
 203 0108 0028     		cmp	r0, #0
 204 010a 89D1     		bne	.L1
 205              		.loc 1 175 0
 206 010c F369     		ldr	r3, [r6, #28]
 207 010e 196C     		ldr	r1, [r3, #64]
 208 0110 0B20     		movs	r0, #11
 209 0112 7B1A     		subs	r3, r7, r1
 210 0114 5942     		rsbs	r1, r3, #0
 211 0116 5941     		adcs	r1, r1, r3
 212 0118 FFF7FEFF 		bl	_test_assert
 213              	.LVL28:
 214 011c 0028     		cmp	r0, #0
 215 011e 7FF47FAF 		bne	.L1
 216              	.LBB4:
 217              		.loc 1 178 0
 218 0122 2023     		movs	r3, #32
 219              	.LVL29:
 220              	@ 178 "../../test/testthd.c" 1
 221 0124 83F31188 		msr     BASEPRI, r3
 222              	@ 0 "" 2
 223              	.LVL30:
 224              		.thumb
 225              	.LBE4:
 226              		.loc 1 179 0
 227 0128 F269     		ldr	r2, [r6, #28]
 228              	.LBB5:
ARM GAS  /var/folders/5n/p_75w94d66l9ssrldxqdhh700000gn/T//cc5ZkR9h.s 			page 5


 229              		.loc 1 181 0
 230 012a 0346     		mov	r3, r0
 231              	.LVL31:
 232              	.LBE5:
 233              		.loc 1 179 0
 234 012c 9460     		str	r4, [r2, #8]
 235              		.loc 1 180 0
 236 012e 1464     		str	r4, [r2, #64]
 237              	.LBB6:
 238              		.loc 1 181 0
 239              	@ 181 "../../test/testthd.c" 1
 240 0130 83F31188 		msr     BASEPRI, r3
 241              	@ 0 "" 2
 242              	.LVL32:
 243              		.thumb
 244 0134 74E7     		b	.L1
 245              	.L8:
 246 0136 00BF     		.align	2
 247              	.L7:
 248 0138 00000000 		.word	rlist
 249              	.LBE6:
 250              		.cfi_endproc
 251              	.LFE10:
 252              		.size	thd3_execute, .-thd3_execute
 253 013c AFF30080 		.section	.text.thd2_execute,"ax",%progbits
 254              		.align	2
 255              		.p2align 4,,15
 256              		.thumb
 257              		.thumb_func
 258              		.type	thd2_execute, %function
 259              	thd2_execute:
 260              	.LFB9:
 261              		.loc 1 105 0
 262              		.cfi_startproc
 263              		@ args = 0, pretend = 0, frame = 0
 264              		@ frame_needed = 0, uses_anonymous_args = 0
 265 0000 F0B5     		push	{r4, r5, r6, r7, lr}
 266              	.LCFI1:
 267              		.cfi_def_cfa_offset 20
 268              		.cfi_offset 4, -20
 269              		.cfi_offset 5, -16
 270              		.cfi_offset 6, -12
 271              		.cfi_offset 7, -8
 272              		.cfi_offset 14, -4
 273              		.loc 1 107 0
 274 0002 40F20007 		movw	r7, #:lower16:rlist
 275 0006 C0F20007 		movt	r7, #:upper16:rlist
 276 000a 40F20006 		movw	r6, #:lower16:wa
 277 000e FB69     		ldr	r3, [r7, #28]
 278              		.loc 1 105 0
 279 0010 83B0     		sub	sp, sp, #12
 280              	.LCFI2:
 281              		.cfi_def_cfa_offset 32
 282              		.loc 1 107 0
 283 0012 C0F20006 		movt	r6, #:upper16:wa
 284 0016 9A68     		ldr	r2, [r3, #8]
 285 0018 7068     		ldr	r0, [r6, #4]
ARM GAS  /var/folders/5n/p_75w94d66l9ssrldxqdhh700000gn/T//cc5ZkR9h.s 			page 6


 286 001a 40F20005 		movw	r5, #:lower16:thread
 287 001e 40F20001 		movw	r1, #:lower16:.LC0
 288 0022 C0F20005 		movt	r5, #:upper16:thread
 289 0026 C0F20001 		movt	r1, #:upper16:.LC0
 290 002a 043A     		subs	r2, r2, #4
 291 002c 2B46     		mov	r3, r5
 292 002e 0091     		str	r1, [sp, #0]
 293 0030 4FF49871 		mov	r1, #304
 294 0034 FFF7FEFF 		bl	chThdCreateStatic
 295              	.LVL33:
 296 0038 40F20004 		movw	r4, #:lower16:threads
 297              		.loc 1 108 0
 298 003c FB69     		ldr	r3, [r7, #28]
 299 003e 3168     		ldr	r1, [r6, #0]
 300 0040 9A68     		ldr	r2, [r3, #8]
 301              		.loc 1 107 0
 302 0042 C0F20004 		movt	r4, #:upper16:threads
 303              		.loc 1 108 0
 304 0046 053A     		subs	r2, r2, #5
 305              		.loc 1 107 0
 306 0048 6060     		str	r0, [r4, #4]
 307              		.loc 1 108 0
 308 004a 40F20000 		movw	r0, #:lower16:.LC1
 309 004e C0F20000 		movt	r0, #:upper16:.LC1
 310 0052 2B46     		mov	r3, r5
 311 0054 0090     		str	r0, [sp, #0]
 312 0056 0846     		mov	r0, r1
 313 0058 4FF49871 		mov	r1, #304
 314 005c FFF7FEFF 		bl	chThdCreateStatic
 315              	.LVL34:
 316              		.loc 1 109 0
 317 0060 FB69     		ldr	r3, [r7, #28]
 318 0062 3169     		ldr	r1, [r6, #16]
 319 0064 9A68     		ldr	r2, [r3, #8]
 320              		.loc 1 108 0
 321 0066 2060     		str	r0, [r4, #0]
 322              		.loc 1 109 0
 323 0068 40F20000 		movw	r0, #:lower16:.LC2
 324 006c C0F20000 		movt	r0, #:upper16:.LC2
 325 0070 013A     		subs	r2, r2, #1
 326 0072 2B46     		mov	r3, r5
 327 0074 0090     		str	r0, [sp, #0]
 328 0076 0846     		mov	r0, r1
 329 0078 4FF49871 		mov	r1, #304
 330 007c FFF7FEFF 		bl	chThdCreateStatic
 331              	.LVL35:
 332              		.loc 1 110 0
 333 0080 FB69     		ldr	r3, [r7, #28]
 334 0082 F168     		ldr	r1, [r6, #12]
 335 0084 9A68     		ldr	r2, [r3, #8]
 336              		.loc 1 109 0
 337 0086 2061     		str	r0, [r4, #16]
 338              		.loc 1 110 0
 339 0088 40F20000 		movw	r0, #:lower16:.LC3
 340 008c C0F20000 		movt	r0, #:upper16:.LC3
 341 0090 2B46     		mov	r3, r5
 342 0092 0090     		str	r0, [sp, #0]
ARM GAS  /var/folders/5n/p_75w94d66l9ssrldxqdhh700000gn/T//cc5ZkR9h.s 			page 7


 343 0094 023A     		subs	r2, r2, #2
 344 0096 0846     		mov	r0, r1
 345 0098 4FF49871 		mov	r1, #304
 346 009c FFF7FEFF 		bl	chThdCreateStatic
 347              	.LVL36:
 348              	.LBB7:
 349              		.loc 1 112 0
 350 00a0 2023     		movs	r3, #32
 351              	.LVL37:
 352              	.LBE7:
 353              		.loc 1 110 0
 354 00a2 E060     		str	r0, [r4, #12]
 355              	.LBB8:
 356              		.loc 1 112 0
 357              	@ 112 "../../test/testthd.c" 1
 358 00a4 83F31188 		msr     BASEPRI, r3
 359              	@ 0 "" 2
 360              	.LVL38:
 361              		.thumb
 362              	.LBE8:
 363              		.loc 1 113 0
 364 00a8 FB69     		ldr	r3, [r7, #28]
 365              	.LVL39:
 366 00aa B068     		ldr	r0, [r6, #8]
 367 00ac 9A68     		ldr	r2, [r3, #8]
 368 00ae 40F20001 		movw	r1, #:lower16:.LC4
 369 00b2 C0F20001 		movt	r1, #:upper16:.LC4
 370 00b6 2B46     		mov	r3, r5
 371 00b8 0091     		str	r1, [sp, #0]
 372 00ba 033A     		subs	r2, r2, #3
 373 00bc 4FF49871 		mov	r1, #304
 374 00c0 FFF7FEFF 		bl	chThdCreateI
 375              	.LVL40:
 376 00c4 A060     		str	r0, [r4, #8]
 377              	.LBB9:
 378              		.loc 1 114 0
 379 00c6 0023     		movs	r3, #0
 380              	.LVL41:
 381              	@ 114 "../../test/testthd.c" 1
 382 00c8 83F31188 		msr     BASEPRI, r3
 383              	@ 0 "" 2
 384              	.LVL42:
 385              		.thumb
 386              	.LBE9:
 387              		.loc 1 115 0
 388 00cc A068     		ldr	r0, [r4, #8]
 389 00ce FFF7FEFF 		bl	chThdResume
 390              	.LVL43:
 391              		.loc 1 116 0
 392 00d2 FFF7FEFF 		bl	test_wait_threads
 393              	.LVL44:
 394              		.loc 1 117 0
 395 00d6 40F20001 		movw	r1, #:lower16:.LC5
 396 00da 0120     		movs	r0, #1
 397 00dc C0F20001 		movt	r1, #:upper16:.LC5
 398              		.loc 1 118 0
 399 00e0 03B0     		add	sp, sp, #12
ARM GAS  /var/folders/5n/p_75w94d66l9ssrldxqdhh700000gn/T//cc5ZkR9h.s 			page 8


 400 00e2 BDE8F040 		pop	{r4, r5, r6, r7, lr}
 401              		.loc 1 117 0
 402 00e6 FFF7FEBF 		b	_test_assert_sequence
 403              	.LVL45:
 404              		.cfi_endproc
 405              	.LFE9:
 406              		.size	thd2_execute, .-thd2_execute
 407 00ea 00BFAFF3 		.section	.text.thd1_execute,"ax",%progbits
 407      0080
 408              		.align	2
 409              		.p2align 4,,15
 410              		.thumb
 411              		.thumb_func
 412              		.type	thd1_execute, %function
 413              	thd1_execute:
 414              	.LFB8:
 415              		.loc 1 77 0
 416              		.cfi_startproc
 417              		@ args = 0, pretend = 0, frame = 0
 418              		@ frame_needed = 0, uses_anonymous_args = 0
 419 0000 2DE9F041 		push	{r4, r5, r6, r7, r8, lr}
 420              	.LCFI3:
 421              		.cfi_def_cfa_offset 24
 422              		.cfi_offset 4, -24
 423              		.cfi_offset 5, -20
 424              		.cfi_offset 6, -16
 425              		.cfi_offset 7, -12
 426              		.cfi_offset 8, -8
 427              		.cfi_offset 14, -4
 428              		.loc 1 79 0
 429 0004 40F20008 		movw	r8, #:lower16:rlist
 430 0008 C0F20008 		movt	r8, #:upper16:rlist
 431 000c 40F20006 		movw	r6, #:lower16:wa
 432 0010 D8F81C30 		ldr	r3, [r8, #28]
 433              		.loc 1 77 0
 434 0014 82B0     		sub	sp, sp, #8
 435              	.LCFI4:
 436              		.cfi_def_cfa_offset 32
 437              		.loc 1 79 0
 438 0016 C0F20006 		movt	r6, #:upper16:wa
 439 001a 9A68     		ldr	r2, [r3, #8]
 440 001c 3068     		ldr	r0, [r6, #0]
 441 001e 40F20005 		movw	r5, #:lower16:thread
 442 0022 40F20004 		movw	r4, #:lower16:.LC1
 443 0026 C0F20005 		movt	r5, #:upper16:thread
 444 002a C0F20004 		movt	r4, #:upper16:.LC1
 445 002e 053A     		subs	r2, r2, #5
 446 0030 2B46     		mov	r3, r5
 447 0032 0094     		str	r4, [sp, #0]
 448 0034 4FF49871 		mov	r1, #304
 449 0038 FFF7FEFF 		bl	chThdCreateStatic
 450              	.LVL46:
 451 003c 40F20004 		movw	r4, #:lower16:threads
 452 0040 C0F20004 		movt	r4, #:upper16:threads
 453              		.loc 1 80 0
 454 0044 D8F81C30 		ldr	r3, [r8, #28]
 455 0048 7768     		ldr	r7, [r6, #4]
ARM GAS  /var/folders/5n/p_75w94d66l9ssrldxqdhh700000gn/T//cc5ZkR9h.s 			page 9


 456 004a 9A68     		ldr	r2, [r3, #8]
 457              		.loc 1 79 0
 458 004c 2060     		str	r0, [r4, #0]
 459              		.loc 1 80 0
 460 004e 40F20000 		movw	r0, #:lower16:.LC0
 461 0052 C0F20000 		movt	r0, #:upper16:.LC0
 462 0056 043A     		subs	r2, r2, #4
 463 0058 2B46     		mov	r3, r5
 464 005a 0090     		str	r0, [sp, #0]
 465 005c 4FF49871 		mov	r1, #304
 466 0060 3846     		mov	r0, r7
 467 0062 FFF7FEFF 		bl	chThdCreateStatic
 468              	.LVL47:
 469              		.loc 1 81 0
 470 0066 D8F81C30 		ldr	r3, [r8, #28]
 471 006a B768     		ldr	r7, [r6, #8]
 472 006c 9A68     		ldr	r2, [r3, #8]
 473              		.loc 1 80 0
 474 006e 6060     		str	r0, [r4, #4]
 475              		.loc 1 81 0
 476 0070 40F20000 		movw	r0, #:lower16:.LC4
 477 0074 C0F20000 		movt	r0, #:upper16:.LC4
 478 0078 033A     		subs	r2, r2, #3
 479 007a 2B46     		mov	r3, r5
 480 007c 0090     		str	r0, [sp, #0]
 481 007e 4FF49871 		mov	r1, #304
 482 0082 3846     		mov	r0, r7
 483 0084 FFF7FEFF 		bl	chThdCreateStatic
 484              	.LVL48:
 485              		.loc 1 82 0
 486 0088 D8F81C30 		ldr	r3, [r8, #28]
 487 008c F768     		ldr	r7, [r6, #12]
 488 008e 9A68     		ldr	r2, [r3, #8]
 489              		.loc 1 81 0
 490 0090 A060     		str	r0, [r4, #8]
 491              		.loc 1 82 0
 492 0092 40F20000 		movw	r0, #:lower16:.LC3
 493 0096 C0F20000 		movt	r0, #:upper16:.LC3
 494 009a 023A     		subs	r2, r2, #2
 495 009c 2B46     		mov	r3, r5
 496 009e 0090     		str	r0, [sp, #0]
 497 00a0 4FF49871 		mov	r1, #304
 498 00a4 3846     		mov	r0, r7
 499 00a6 FFF7FEFF 		bl	chThdCreateStatic
 500              	.LVL49:
 501              		.loc 1 83 0
 502 00aa D8F81C30 		ldr	r3, [r8, #28]
 503 00ae 3669     		ldr	r6, [r6, #16]
 504 00b0 9A68     		ldr	r2, [r3, #8]
 505              		.loc 1 82 0
 506 00b2 E060     		str	r0, [r4, #12]
 507              		.loc 1 83 0
 508 00b4 40F20000 		movw	r0, #:lower16:.LC2
 509 00b8 C0F20000 		movt	r0, #:upper16:.LC2
 510 00bc 4FF49871 		mov	r1, #304
 511 00c0 013A     		subs	r2, r2, #1
 512 00c2 2B46     		mov	r3, r5
ARM GAS  /var/folders/5n/p_75w94d66l9ssrldxqdhh700000gn/T//cc5ZkR9h.s 			page 10


 513 00c4 0090     		str	r0, [sp, #0]
 514 00c6 3046     		mov	r0, r6
 515 00c8 FFF7FEFF 		bl	chThdCreateStatic
 516              	.LVL50:
 517 00cc 2061     		str	r0, [r4, #16]
 518              		.loc 1 84 0
 519 00ce FFF7FEFF 		bl	test_wait_threads
 520              	.LVL51:
 521              		.loc 1 85 0
 522 00d2 40F20001 		movw	r1, #:lower16:.LC5
 523 00d6 0120     		movs	r0, #1
 524 00d8 C0F20001 		movt	r1, #:upper16:.LC5
 525              		.loc 1 86 0
 526 00dc 02B0     		add	sp, sp, #8
 527 00de BDE8F041 		pop	{r4, r5, r6, r7, r8, lr}
 528              		.loc 1 85 0
 529 00e2 FFF7FEBF 		b	_test_assert_sequence
 530              	.LVL52:
 531              		.cfi_endproc
 532              	.LFE8:
 533              		.size	thd1_execute, .-thd1_execute
 534 00e6 00BFAFF3 		.section	.text.thread,"ax",%progbits
 534      0080AFF3 
 534      0080
 535              		.align	2
 536              		.p2align 4,,15
 537              		.thumb
 538              		.thumb_func
 539              		.type	thread, %function
 540              	thread:
 541              	.LFB7:
 542              		.loc 1 71 0
 543              		.cfi_startproc
 544              		@ args = 0, pretend = 0, frame = 0
 545              		@ frame_needed = 0, uses_anonymous_args = 0
 546              	.LVL53:
 547 0000 08B5     		push	{r3, lr}
 548              	.LCFI5:
 549              		.cfi_def_cfa_offset 8
 550              		.cfi_offset 3, -8
 551              		.cfi_offset 14, -4
 552              		.loc 1 73 0
 553 0002 0078     		ldrb	r0, [r0, #0]	@ zero_extendqisi2
 554              	.LVL54:
 555 0004 FFF7FEFF 		bl	test_emit_token
 556              	.LVL55:
 557              		.loc 1 75 0
 558 0008 0020     		movs	r0, #0
 559 000a 08BD     		pop	{r3, pc}
 560              		.cfi_endproc
 561              	.LFE7:
 562              		.size	thread, .-thread
 563 000c AFF30080 		.section	.text.thd4_execute,"ax",%progbits
 564              		.align	2
 565              		.p2align 4,,15
 566              		.thumb
 567              		.thumb_func
ARM GAS  /var/folders/5n/p_75w94d66l9ssrldxqdhh700000gn/T//cc5ZkR9h.s 			page 11


 568              		.type	thd4_execute, %function
 569              	thd4_execute:
 570              	.LFB11:
 571              		.loc 1 200 0
 572              		.cfi_startproc
 573              		@ args = 0, pretend = 0, frame = 0
 574              		@ frame_needed = 0, uses_anonymous_args = 0
 575 0000 38B5     		push	{r3, r4, r5, lr}
 576              	.LCFI6:
 577              		.cfi_def_cfa_offset 16
 578              		.cfi_offset 3, -16
 579              		.cfi_offset 4, -12
 580              		.cfi_offset 5, -8
 581              		.cfi_offset 14, -4
 582              		.loc 1 206 0
 583 0002 1C4D     		ldr	r5, .L17
 584              		.loc 1 203 0
 585 0004 FFF7FEFF 		bl	test_wait_tick
 586              	.LVL56:
 587              		.loc 1 206 0
 588 0008 EC68     		ldr	r4, [r5, #12]
 589              	.LVL57:
 590              		.loc 1 207 0
 591 000a 6420     		movs	r0, #100
 592 000c FFF7FEFF 		bl	chThdSleep
 593              	.LVL58:
 594              		.loc 1 208 0
 595 0010 0120     		movs	r0, #1
 596 0012 04F16401 		add	r1, r4, #100
 597 0016 04F16502 		add	r2, r4, #101
 598 001a FFF7FEFF 		bl	_test_assert_time_window
 599              	.LVL59:
 600 001e 00B1     		cbz	r0, .L16
 601              	.LVL60:
 602              	.L12:
 603 0020 38BD     		pop	{r3, r4, r5, pc}
 604              	.LVL61:
 605              	.L16:
 606              		.loc 1 211 0
 607 0022 EC68     		ldr	r4, [r5, #12]
 608              	.LVL62:
 609              		.loc 1 212 0
 610 0024 6420     		movs	r0, #100
 611 0026 FFF7FEFF 		bl	chThdSleep
 612              	.LVL63:
 613              		.loc 1 213 0
 614 002a 0220     		movs	r0, #2
 615 002c 04F16401 		add	r1, r4, #100
 616 0030 04F16502 		add	r2, r4, #101
 617 0034 FFF7FEFF 		bl	_test_assert_time_window
 618              	.LVL64:
 619 0038 0028     		cmp	r0, #0
 620 003a F1D1     		bne	.L12
 621              	.LBB12:
 622              	.LBB13:
 623              		.loc 1 216 0
 624 003c EC68     		ldr	r4, [r5, #12]
ARM GAS  /var/folders/5n/p_75w94d66l9ssrldxqdhh700000gn/T//cc5ZkR9h.s 			page 12


 625              	.LVL65:
 626              		.loc 1 217 0
 627 003e 4FF47A70 		mov	r0, #1000
 628 0042 FFF7FEFF 		bl	chThdSleep
 629              	.LVL66:
 630              		.loc 1 218 0
 631 0046 0320     		movs	r0, #3
 632 0048 04F57A71 		add	r1, r4, #1000
 633 004c 04F2E932 		addw	r2, r4, #1001
 634 0050 FFF7FEFF 		bl	_test_assert_time_window
 635              	.LVL67:
 636 0054 0028     		cmp	r0, #0
 637 0056 E3D1     		bne	.L12
 638              		.loc 1 221 0
 639 0058 EC68     		ldr	r4, [r5, #12]
 640              	.LVL68:
 641 005a 04F16405 		add	r5, r4, #100
 642              	.LVL69:
 643              		.loc 1 222 0
 644 005e 2846     		mov	r0, r5
 645 0060 FFF7FEFF 		bl	chThdSleepUntil
 646              	.LVL70:
 647              		.loc 1 223 0
 648 0064 0420     		movs	r0, #4
 649 0066 2946     		mov	r1, r5
 650 0068 04F16502 		add	r2, r4, #101
 651              	.LBE13:
 652              	.LBE12:
 653              		.loc 1 224 0
 654 006c BDE83840 		pop	{r3, r4, r5, lr}
 655              	.LBB15:
 656              	.LBB14:
 657              		.loc 1 223 0
 658 0070 FFF7FEBF 		b	_test_assert_time_window
 659              	.LVL71:
 660              	.L18:
 661              		.align	2
 662              	.L17:
 663 0074 00000000 		.word	vtlist
 664              	.LBE14:
 665              	.LBE15:
 666              		.cfi_endproc
 667              	.LFE11:
 668              		.size	thd4_execute, .-thd4_execute
 669              		.global	patternthd
 670              		.global	testthd4
 671              		.global	testthd3
 672              		.global	testthd2
 673              		.global	testthd1
 674 0078 AFF30080 		.section	.rodata.testthd1,"a",%progbits
 674      AFF30080 
 675              		.align	2
 676              		.type	testthd1, %object
 677              		.size	testthd1, 16
 678              	testthd1:
 679 0000 64000000 		.word	.LC9
 680 0004 00000000 		.word	0
ARM GAS  /var/folders/5n/p_75w94d66l9ssrldxqdhh700000gn/T//cc5ZkR9h.s 			page 13


 681 0008 00000000 		.word	0
 682 000c 00000000 		.word	thd1_execute
 683              		.section	.rodata.testthd2,"a",%progbits
 684              		.align	2
 685              		.type	testthd2, %object
 686              		.size	testthd2, 16
 687              	testthd2:
 688 0000 48000000 		.word	.LC8
 689 0004 00000000 		.word	0
 690 0008 00000000 		.word	0
 691 000c 00000000 		.word	thd2_execute
 692              		.section	.rodata.testthd3,"a",%progbits
 693              		.align	2
 694              		.type	testthd3, %object
 695              		.size	testthd3, 16
 696              	testthd3:
 697 0000 2C000000 		.word	.LC7
 698 0004 00000000 		.word	0
 699 0008 00000000 		.word	0
 700 000c 00000000 		.word	thd3_execute
 701              		.section	.rodata.testthd4,"a",%progbits
 702              		.align	2
 703              		.type	testthd4, %object
 704              		.size	testthd4, 16
 705              	testthd4:
 706 0000 1C000000 		.word	.LC6
 707 0004 00000000 		.word	0
 708 0008 00000000 		.word	0
 709 000c 00000000 		.word	thd4_execute
 710              		.section	.rodata.patternthd,"a",%progbits
 711              		.align	2
 712              		.type	patternthd, %object
 713              		.size	patternthd, 20
 714              	patternthd:
 715 0000 00000000 		.word	testthd1
 716 0004 00000000 		.word	testthd2
 717 0008 00000000 		.word	testthd3
 718 000c 00000000 		.word	testthd4
 719 0010 00000000 		.word	0
 720              		.section	.rodata.str1.4,"aMS",%progbits,1
 721              		.align	2
 722              	.LC0:
 723 0000 4400     		.ascii	"D\000"
 724 0002 0000     		.space	2
 725              	.LC1:
 726 0004 4500     		.ascii	"E\000"
 727 0006 0000     		.space	2
 728              	.LC2:
 729 0008 4100     		.ascii	"A\000"
 730 000a 0000     		.space	2
 731              	.LC3:
 732 000c 4200     		.ascii	"B\000"
 733 000e 0000     		.space	2
 734              	.LC4:
 735 0010 4300     		.ascii	"C\000"
 736 0012 0000     		.space	2
 737              	.LC5:
ARM GAS  /var/folders/5n/p_75w94d66l9ssrldxqdhh700000gn/T//cc5ZkR9h.s 			page 14


 738 0014 41424344 		.ascii	"ABCDE\000"
 738      4500
 739 001a 0000     		.space	2
 740              	.LC6:
 741 001c 54687265 		.ascii	"Threads, delays\000"
 741      6164732C 
 741      2064656C 
 741      61797300 
 742              	.LC7:
 743 002c 54687265 		.ascii	"Threads, priority change\000"
 743      6164732C 
 743      20707269 
 743      6F726974 
 743      79206368 
 744 0045 000000   		.space	3
 745              	.LC8:
 746 0048 54687265 		.ascii	"Threads, enqueuing test #2\000"
 746      6164732C 
 746      20656E71 
 746      75657569 
 746      6E672074 
 747 0063 00       		.space	1
 748              	.LC9:
 749 0064 54687265 		.ascii	"Threads, enqueuing test #1\000"
 749      6164732C 
 749      20656E71 
 749      75657569 
 749      6E672074 
 750 007f 00       		.text
 751              	.Letext0:
 752              		.file 2 "/usr/local/cross/lib/gcc/arm-none-eabi/4.7.2/include/stddef.h"
 753              		.file 3 "/usr/local/cross/lib/gcc/arm-none-eabi/4.7.2/../../../../arm-none-eabi/include/stdint.h"
 754              		.file 4 "../../os/ports/GCC/ARMCMx/chtypes.h"
 755              		.file 5 "../../os/kernel/include/chlists.h"
 756              		.file 6 "../../os/kernel/include/chthreads.h"
 757              		.file 7 "../../os/ports/GCC/ARMCMx/chcore_v7m.h"
 758              		.file 8 "../../os/kernel/include/chvt.h"
 759              		.file 9 "../../os/kernel/include/chschd.h"
 760              		.file 10 "../../os/kernel/include/chmtx.h"
 761              		.file 11 "../../test/test.h"
 762              		.section	.debug_info,"",%progbits
 763              	.Ldebug_info0:
 764 0000 300D0000 		.4byte	0xd30
 765 0004 0200     		.2byte	0x2
 766 0006 00000000 		.4byte	.Ldebug_abbrev0
 767 000a 04       		.byte	0x4
 768 000b 01       		.uleb128 0x1
 769 000c 90020000 		.4byte	.LASF101
 770 0010 01       		.byte	0x1
 771 0011 BE020000 		.4byte	.LASF102
 772 0015 34010000 		.4byte	.LASF103
 773 0019 60000000 		.4byte	.Ldebug_ranges0+0x60
 774 001d 00000000 		.4byte	0
 775 0021 00000000 		.4byte	0
 776 0025 00000000 		.4byte	.Ldebug_line0
 777 0029 02       		.uleb128 0x2
 778 002a 04       		.byte	0x4
ARM GAS  /var/folders/5n/p_75w94d66l9ssrldxqdhh700000gn/T//cc5ZkR9h.s 			page 15


 779 002b 05       		.byte	0x5
 780 002c 696E7400 		.ascii	"int\000"
 781 0030 03       		.uleb128 0x3
 782 0031 0E000000 		.4byte	.LASF2
 783 0035 02       		.byte	0x2
 784 0036 D5       		.byte	0xd5
 785 0037 3B000000 		.4byte	0x3b
 786 003b 04       		.uleb128 0x4
 787 003c 04       		.byte	0x4
 788 003d 07       		.byte	0x7
 789 003e 1F010000 		.4byte	.LASF0
 790 0042 04       		.uleb128 0x4
 791 0043 01       		.byte	0x1
 792 0044 06       		.byte	0x6
 793 0045 5D000000 		.4byte	.LASF1
 794 0049 03       		.uleb128 0x3
 795 004a 29040000 		.4byte	.LASF3
 796 004e 03       		.byte	0x3
 797 004f 2A       		.byte	0x2a
 798 0050 54000000 		.4byte	0x54
 799 0054 04       		.uleb128 0x4
 800 0055 01       		.byte	0x1
 801 0056 08       		.byte	0x8
 802 0057 0E030000 		.4byte	.LASF4
 803 005b 04       		.uleb128 0x4
 804 005c 02       		.byte	0x2
 805 005d 05       		.byte	0x5
 806 005e 35030000 		.4byte	.LASF5
 807 0062 04       		.uleb128 0x4
 808 0063 02       		.byte	0x2
 809 0064 07       		.byte	0x7
 810 0065 9B010000 		.4byte	.LASF6
 811 0069 03       		.uleb128 0x3
 812 006a 06030000 		.4byte	.LASF7
 813 006e 03       		.byte	0x3
 814 006f 4F       		.byte	0x4f
 815 0070 74000000 		.4byte	0x74
 816 0074 04       		.uleb128 0x4
 817 0075 04       		.byte	0x4
 818 0076 05       		.byte	0x5
 819 0077 AF000000 		.4byte	.LASF8
 820 007b 03       		.uleb128 0x3
 821 007c 87030000 		.4byte	.LASF9
 822 0080 03       		.byte	0x3
 823 0081 50       		.byte	0x50
 824 0082 86000000 		.4byte	0x86
 825 0086 04       		.uleb128 0x4
 826 0087 04       		.byte	0x4
 827 0088 07       		.byte	0x7
 828 0089 69000000 		.4byte	.LASF10
 829 008d 04       		.uleb128 0x4
 830 008e 08       		.byte	0x8
 831 008f 05       		.byte	0x5
 832 0090 4F000000 		.4byte	.LASF11
 833 0094 04       		.uleb128 0x4
 834 0095 08       		.byte	0x8
 835 0096 07       		.byte	0x7
ARM GAS  /var/folders/5n/p_75w94d66l9ssrldxqdhh700000gn/T//cc5ZkR9h.s 			page 16


 836 0097 28000000 		.4byte	.LASF12
 837 009b 03       		.uleb128 0x3
 838 009c 83000000 		.4byte	.LASF13
 839 00a0 04       		.byte	0x4
 840 00a1 2E       		.byte	0x2e
 841 00a2 69000000 		.4byte	0x69
 842 00a6 03       		.uleb128 0x3
 843 00a7 B4010000 		.4byte	.LASF14
 844 00ab 04       		.byte	0x4
 845 00ac 2F       		.byte	0x2f
 846 00ad 49000000 		.4byte	0x49
 847 00b1 03       		.uleb128 0x3
 848 00b2 B8000000 		.4byte	.LASF15
 849 00b6 04       		.byte	0x4
 850 00b7 30       		.byte	0x30
 851 00b8 49000000 		.4byte	0x49
 852 00bc 03       		.uleb128 0x3
 853 00bd D3020000 		.4byte	.LASF16
 854 00c1 04       		.byte	0x4
 855 00c2 31       		.byte	0x31
 856 00c3 49000000 		.4byte	0x49
 857 00c7 03       		.uleb128 0x3
 858 00c8 F7020000 		.4byte	.LASF17
 859 00cc 04       		.byte	0x4
 860 00cd 32       		.byte	0x32
 861 00ce 7B000000 		.4byte	0x7b
 862 00d2 03       		.uleb128 0x3
 863 00d3 AE010000 		.4byte	.LASF18
 864 00d7 04       		.byte	0x4
 865 00d8 33       		.byte	0x33
 866 00d9 69000000 		.4byte	0x69
 867 00dd 03       		.uleb128 0x3
 868 00de C8010000 		.4byte	.LASF19
 869 00e2 04       		.byte	0x4
 870 00e3 35       		.byte	0x35
 871 00e4 7B000000 		.4byte	0x7b
 872 00e8 03       		.uleb128 0x3
 873 00e9 C9030000 		.4byte	.LASF20
 874 00ed 04       		.byte	0x4
 875 00ee 36       		.byte	0x36
 876 00ef 7B000000 		.4byte	0x7b
 877 00f3 03       		.uleb128 0x3
 878 00f4 19010000 		.4byte	.LASF21
 879 00f8 04       		.byte	0x4
 880 00f9 37       		.byte	0x37
 881 00fa 69000000 		.4byte	0x69
 882 00fe 03       		.uleb128 0x3
 883 00ff 6C030000 		.4byte	.LASF22
 884 0103 05       		.byte	0x5
 885 0104 2A       		.byte	0x2a
 886 0105 09010000 		.4byte	0x109
 887 0109 05       		.uleb128 0x5
 888 010a 6C030000 		.4byte	.LASF22
 889 010e 48       		.byte	0x48
 890 010f 06       		.byte	0x6
 891 0110 5E       		.byte	0x5e
 892 0111 20020000 		.4byte	0x220
ARM GAS  /var/folders/5n/p_75w94d66l9ssrldxqdhh700000gn/T//cc5ZkR9h.s 			page 17


 893 0115 06       		.uleb128 0x6
 894 0116 5D030000 		.4byte	.LASF23
 895 011a 06       		.byte	0x6
 896 011b 5F       		.byte	0x5f
 897 011c 45020000 		.4byte	0x245
 898 0120 02       		.byte	0x2
 899 0121 23       		.byte	0x23
 900 0122 00       		.uleb128 0
 901 0123 06       		.uleb128 0x6
 902 0124 E8020000 		.4byte	.LASF24
 903 0128 06       		.byte	0x6
 904 0129 61       		.byte	0x61
 905 012a 45020000 		.4byte	0x245
 906 012e 02       		.byte	0x2
 907 012f 23       		.byte	0x23
 908 0130 04       		.uleb128 0x4
 909 0131 06       		.uleb128 0x6
 910 0132 48000000 		.4byte	.LASF25
 911 0136 06       		.byte	0x6
 912 0137 63       		.byte	0x63
 913 0138 C7000000 		.4byte	0xc7
 914 013c 02       		.byte	0x2
 915 013d 23       		.byte	0x23
 916 013e 08       		.uleb128 0x8
 917 013f 06       		.uleb128 0x6
 918 0140 70040000 		.4byte	.LASF26
 919 0144 06       		.byte	0x6
 920 0145 64       		.byte	0x64
 921 0146 12030000 		.4byte	0x312
 922 014a 02       		.byte	0x2
 923 014b 23       		.byte	0x23
 924 014c 0C       		.uleb128 0xc
 925 014d 06       		.uleb128 0x6
 926 014e DA000000 		.4byte	.LASF27
 927 0152 06       		.byte	0x6
 928 0153 66       		.byte	0x66
 929 0154 45020000 		.4byte	0x245
 930 0158 02       		.byte	0x2
 931 0159 23       		.byte	0x23
 932 015a 10       		.uleb128 0x10
 933 015b 06       		.uleb128 0x6
 934 015c 54020000 		.4byte	.LASF28
 935 0160 06       		.byte	0x6
 936 0161 67       		.byte	0x67
 937 0162 45020000 		.4byte	0x245
 938 0166 02       		.byte	0x2
 939 0167 23       		.byte	0x23
 940 0168 14       		.uleb128 0x14
 941 0169 06       		.uleb128 0x6
 942 016a 38040000 		.4byte	.LASF29
 943 016e 06       		.byte	0x6
 944 016f 6E       		.byte	0x6e
 945 0170 01050000 		.4byte	0x501
 946 0174 02       		.byte	0x2
 947 0175 23       		.byte	0x23
 948 0176 18       		.uleb128 0x18
 949 0177 06       		.uleb128 0x6
ARM GAS  /var/folders/5n/p_75w94d66l9ssrldxqdhh700000gn/T//cc5ZkR9h.s 			page 18


 950 0178 3F030000 		.4byte	.LASF30
 951 017c 06       		.byte	0x6
 952 017d 79       		.byte	0x79
 953 017e B1000000 		.4byte	0xb1
 954 0182 02       		.byte	0x2
 955 0183 23       		.byte	0x23
 956 0184 1C       		.uleb128 0x1c
 957 0185 06       		.uleb128 0x6
 958 0186 64030000 		.4byte	.LASF31
 959 018a 06       		.byte	0x6
 960 018b 7D       		.byte	0x7d
 961 018c A6000000 		.4byte	0xa6
 962 0190 02       		.byte	0x2
 963 0191 23       		.byte	0x23
 964 0192 1D       		.uleb128 0x1d
 965 0193 06       		.uleb128 0x6
 966 0194 12040000 		.4byte	.LASF32
 967 0198 06       		.byte	0x6
 968 0199 82       		.byte	0x82
 969 019a BC000000 		.4byte	0xbc
 970 019e 02       		.byte	0x2
 971 019f 23       		.byte	0x23
 972 01a0 1E       		.uleb128 0x1e
 973 01a1 06       		.uleb128 0x6
 974 01a2 E7030000 		.4byte	.LASF33
 975 01a6 06       		.byte	0x6
 976 01a7 89       		.byte	0x89
 977 01a8 FE030000 		.4byte	0x3fe
 978 01ac 02       		.byte	0x2
 979 01ad 23       		.byte	0x23
 980 01ae 20       		.uleb128 0x20
 981 01af 07       		.uleb128 0x7
 982 01b0 705F7500 		.ascii	"p_u\000"
 983 01b4 06       		.byte	0x6
 984 01b5 AE       		.byte	0xae
 985 01b6 CC040000 		.4byte	0x4cc
 986 01ba 02       		.byte	0x2
 987 01bb 23       		.byte	0x23
 988 01bc 24       		.uleb128 0x24
 989 01bd 06       		.uleb128 0x6
 990 01be 76040000 		.4byte	.LASF34
 991 01c2 06       		.byte	0x6
 992 01c3 B3       		.byte	0xb3
 993 01c4 6D020000 		.4byte	0x26d
 994 01c8 02       		.byte	0x2
 995 01c9 23       		.byte	0x23
 996 01ca 28       		.uleb128 0x28
 997 01cb 06       		.uleb128 0x6
 998 01cc F5030000 		.4byte	.LASF35
 999 01d0 06       		.byte	0x6
 1000 01d1 B9       		.byte	0xb9
 1001 01d2 4B020000 		.4byte	0x24b
 1002 01d6 02       		.byte	0x2
 1003 01d7 23       		.byte	0x23
 1004 01d8 2C       		.uleb128 0x2c
 1005 01d9 06       		.uleb128 0x6
 1006 01da 08000000 		.4byte	.LASF36
ARM GAS  /var/folders/5n/p_75w94d66l9ssrldxqdhh700000gn/T//cc5ZkR9h.s 			page 19


 1007 01de 06       		.byte	0x6
 1008 01df BD       		.byte	0xbd
 1009 01e0 D2000000 		.4byte	0xd2
 1010 01e4 02       		.byte	0x2
 1011 01e5 23       		.byte	0x23
 1012 01e6 34       		.uleb128 0x34
 1013 01e7 06       		.uleb128 0x6
 1014 01e8 7C030000 		.4byte	.LASF37
 1015 01ec 06       		.byte	0x6
 1016 01ed C3       		.byte	0xc3
 1017 01ee DD000000 		.4byte	0xdd
 1018 01f2 02       		.byte	0x2
 1019 01f3 23       		.byte	0x23
 1020 01f4 38       		.uleb128 0x38
 1021 01f5 06       		.uleb128 0x6
 1022 01f6 2B030000 		.4byte	.LASF38
 1023 01fa 06       		.byte	0x6
 1024 01fb CA       		.byte	0xca
 1025 01fc 13050000 		.4byte	0x513
 1026 0200 02       		.byte	0x2
 1027 0201 23       		.byte	0x23
 1028 0202 3C       		.uleb128 0x3c
 1029 0203 06       		.uleb128 0x6
 1030 0204 D3030000 		.4byte	.LASF39
 1031 0208 06       		.byte	0x6
 1032 0209 CE       		.byte	0xce
 1033 020a C7000000 		.4byte	0xc7
 1034 020e 02       		.byte	0x2
 1035 020f 23       		.byte	0x23
 1036 0210 40       		.uleb128 0x40
 1037 0211 06       		.uleb128 0x6
 1038 0212 7B000000 		.4byte	.LASF40
 1039 0216 06       		.byte	0x6
 1040 0217 D4       		.byte	0xd4
 1041 0218 83020000 		.4byte	0x283
 1042 021c 02       		.byte	0x2
 1043 021d 23       		.byte	0x23
 1044 021e 44       		.uleb128 0x44
 1045 021f 00       		.byte	0
 1046 0220 08       		.uleb128 0x8
 1047 0221 08       		.byte	0x8
 1048 0222 05       		.byte	0x5
 1049 0223 61       		.byte	0x61
 1050 0224 45020000 		.4byte	0x245
 1051 0228 06       		.uleb128 0x6
 1052 0229 5D030000 		.4byte	.LASF23
 1053 022d 05       		.byte	0x5
 1054 022e 62       		.byte	0x62
 1055 022f 45020000 		.4byte	0x245
 1056 0233 02       		.byte	0x2
 1057 0234 23       		.byte	0x23
 1058 0235 00       		.uleb128 0
 1059 0236 06       		.uleb128 0x6
 1060 0237 E8020000 		.4byte	.LASF24
 1061 023b 05       		.byte	0x5
 1062 023c 64       		.byte	0x64
 1063 023d 45020000 		.4byte	0x245
ARM GAS  /var/folders/5n/p_75w94d66l9ssrldxqdhh700000gn/T//cc5ZkR9h.s 			page 20


 1064 0241 02       		.byte	0x2
 1065 0242 23       		.byte	0x23
 1066 0243 04       		.uleb128 0x4
 1067 0244 00       		.byte	0
 1068 0245 09       		.uleb128 0x9
 1069 0246 04       		.byte	0x4
 1070 0247 FE000000 		.4byte	0xfe
 1071 024b 03       		.uleb128 0x3
 1072 024c 62020000 		.4byte	.LASF41
 1073 0250 05       		.byte	0x5
 1074 0251 66       		.byte	0x66
 1075 0252 20020000 		.4byte	0x220
 1076 0256 08       		.uleb128 0x8
 1077 0257 04       		.byte	0x4
 1078 0258 05       		.byte	0x5
 1079 0259 6B       		.byte	0x6b
 1080 025a 6D020000 		.4byte	0x26d
 1081 025e 06       		.uleb128 0x6
 1082 025f 5D030000 		.4byte	.LASF23
 1083 0263 05       		.byte	0x5
 1084 0264 6D       		.byte	0x6d
 1085 0265 45020000 		.4byte	0x245
 1086 0269 02       		.byte	0x2
 1087 026a 23       		.byte	0x23
 1088 026b 00       		.uleb128 0
 1089 026c 00       		.byte	0
 1090 026d 03       		.uleb128 0x3
 1091 026e BC010000 		.4byte	.LASF42
 1092 0272 05       		.byte	0x5
 1093 0273 70       		.byte	0x70
 1094 0274 56020000 		.4byte	0x256
 1095 0278 03       		.uleb128 0x3
 1096 0279 FB000000 		.4byte	.LASF43
 1097 027d 07       		.byte	0x7
 1098 027e D7       		.byte	0xd7
 1099 027f 83020000 		.4byte	0x283
 1100 0283 0A       		.uleb128 0xa
 1101 0284 04       		.byte	0x4
 1102 0285 05       		.uleb128 0x5
 1103 0286 EE030000 		.4byte	.LASF44
 1104 028a 24       		.byte	0x24
 1105 028b 07       		.byte	0x7
 1106 028c FE       		.byte	0xfe
 1107 028d 12030000 		.4byte	0x312
 1108 0291 0B       		.uleb128 0xb
 1109 0292 723400   		.ascii	"r4\000"
 1110 0295 07       		.byte	0x7
 1111 0296 1101     		.2byte	0x111
 1112 0298 78020000 		.4byte	0x278
 1113 029c 02       		.byte	0x2
 1114 029d 23       		.byte	0x23
 1115 029e 00       		.uleb128 0
 1116 029f 0B       		.uleb128 0xb
 1117 02a0 723500   		.ascii	"r5\000"
 1118 02a3 07       		.byte	0x7
 1119 02a4 1201     		.2byte	0x112
 1120 02a6 78020000 		.4byte	0x278
ARM GAS  /var/folders/5n/p_75w94d66l9ssrldxqdhh700000gn/T//cc5ZkR9h.s 			page 21


 1121 02aa 02       		.byte	0x2
 1122 02ab 23       		.byte	0x23
 1123 02ac 04       		.uleb128 0x4
 1124 02ad 0B       		.uleb128 0xb
 1125 02ae 723600   		.ascii	"r6\000"
 1126 02b1 07       		.byte	0x7
 1127 02b2 1301     		.2byte	0x113
 1128 02b4 78020000 		.4byte	0x278
 1129 02b8 02       		.byte	0x2
 1130 02b9 23       		.byte	0x23
 1131 02ba 08       		.uleb128 0x8
 1132 02bb 0B       		.uleb128 0xb
 1133 02bc 723700   		.ascii	"r7\000"
 1134 02bf 07       		.byte	0x7
 1135 02c0 1401     		.2byte	0x114
 1136 02c2 78020000 		.4byte	0x278
 1137 02c6 02       		.byte	0x2
 1138 02c7 23       		.byte	0x23
 1139 02c8 0C       		.uleb128 0xc
 1140 02c9 0B       		.uleb128 0xb
 1141 02ca 723800   		.ascii	"r8\000"
 1142 02cd 07       		.byte	0x7
 1143 02ce 1501     		.2byte	0x115
 1144 02d0 78020000 		.4byte	0x278
 1145 02d4 02       		.byte	0x2
 1146 02d5 23       		.byte	0x23
 1147 02d6 10       		.uleb128 0x10
 1148 02d7 0B       		.uleb128 0xb
 1149 02d8 723900   		.ascii	"r9\000"
 1150 02db 07       		.byte	0x7
 1151 02dc 1601     		.2byte	0x116
 1152 02de 78020000 		.4byte	0x278
 1153 02e2 02       		.byte	0x2
 1154 02e3 23       		.byte	0x23
 1155 02e4 14       		.uleb128 0x14
 1156 02e5 0B       		.uleb128 0xb
 1157 02e6 72313000 		.ascii	"r10\000"
 1158 02ea 07       		.byte	0x7
 1159 02eb 1701     		.2byte	0x117
 1160 02ed 78020000 		.4byte	0x278
 1161 02f1 02       		.byte	0x2
 1162 02f2 23       		.byte	0x23
 1163 02f3 18       		.uleb128 0x18
 1164 02f4 0B       		.uleb128 0xb
 1165 02f5 72313100 		.ascii	"r11\000"
 1166 02f9 07       		.byte	0x7
 1167 02fa 1801     		.2byte	0x118
 1168 02fc 78020000 		.4byte	0x278
 1169 0300 02       		.byte	0x2
 1170 0301 23       		.byte	0x23
 1171 0302 1C       		.uleb128 0x1c
 1172 0303 0B       		.uleb128 0xb
 1173 0304 6C7200   		.ascii	"lr\000"
 1174 0307 07       		.byte	0x7
 1175 0308 1901     		.2byte	0x119
 1176 030a 78020000 		.4byte	0x278
 1177 030e 02       		.byte	0x2
ARM GAS  /var/folders/5n/p_75w94d66l9ssrldxqdhh700000gn/T//cc5ZkR9h.s 			page 22


 1178 030f 23       		.byte	0x23
 1179 0310 20       		.uleb128 0x20
 1180 0311 00       		.byte	0
 1181 0312 0C       		.uleb128 0xc
 1182 0313 93010000 		.4byte	.LASF45
 1183 0317 04       		.byte	0x4
 1184 0318 07       		.byte	0x7
 1185 0319 2301     		.2byte	0x123
 1186 031b 2F030000 		.4byte	0x32f
 1187 031f 0B       		.uleb128 0xb
 1188 0320 72313300 		.ascii	"r13\000"
 1189 0324 07       		.byte	0x7
 1190 0325 2401     		.2byte	0x124
 1191 0327 2F030000 		.4byte	0x32f
 1192 032b 02       		.byte	0x2
 1193 032c 23       		.byte	0x23
 1194 032d 00       		.uleb128 0
 1195 032e 00       		.byte	0
 1196 032f 09       		.uleb128 0x9
 1197 0330 04       		.byte	0x4
 1198 0331 85020000 		.4byte	0x285
 1199 0335 04       		.uleb128 0x4
 1200 0336 04       		.byte	0x4
 1201 0337 07       		.byte	0x7
 1202 0338 01020000 		.4byte	.LASF46
 1203 033c 03       		.uleb128 0x3
 1204 033d DE030000 		.4byte	.LASF47
 1205 0341 08       		.byte	0x8
 1206 0342 53       		.byte	0x53
 1207 0343 47030000 		.4byte	0x347
 1208 0347 09       		.uleb128 0x9
 1209 0348 04       		.byte	0x4
 1210 0349 4D030000 		.4byte	0x34d
 1211 034d 0D       		.uleb128 0xd
 1212 034e 01       		.byte	0x1
 1213 034f 59030000 		.4byte	0x359
 1214 0353 0E       		.uleb128 0xe
 1215 0354 83020000 		.4byte	0x283
 1216 0358 00       		.byte	0
 1217 0359 03       		.uleb128 0x3
 1218 035a 98030000 		.4byte	.LASF48
 1219 035e 08       		.byte	0x8
 1220 035f 58       		.byte	0x58
 1221 0360 64030000 		.4byte	0x364
 1222 0364 05       		.uleb128 0x5
 1223 0365 98030000 		.4byte	.LASF48
 1224 0369 14       		.byte	0x14
 1225 036a 08       		.byte	0x8
 1226 036b 5F       		.byte	0x5f
 1227 036c B7030000 		.4byte	0x3b7
 1228 0370 06       		.uleb128 0x6
 1229 0371 2C010000 		.4byte	.LASF49
 1230 0375 08       		.byte	0x8
 1231 0376 60       		.byte	0x60
 1232 0377 B7030000 		.4byte	0x3b7
 1233 037b 02       		.byte	0x2
 1234 037c 23       		.byte	0x23
ARM GAS  /var/folders/5n/p_75w94d66l9ssrldxqdhh700000gn/T//cc5ZkR9h.s 			page 23


 1235 037d 00       		.uleb128 0
 1236 037e 06       		.uleb128 0x6
 1237 037f 04010000 		.4byte	.LASF50
 1238 0383 08       		.byte	0x8
 1239 0384 62       		.byte	0x62
 1240 0385 B7030000 		.4byte	0x3b7
 1241 0389 02       		.byte	0x2
 1242 038a 23       		.byte	0x23
 1243 038b 04       		.uleb128 0x4
 1244 038c 06       		.uleb128 0x6
 1245 038d F9010000 		.4byte	.LASF51
 1246 0391 08       		.byte	0x8
 1247 0392 64       		.byte	0x64
 1248 0393 E8000000 		.4byte	0xe8
 1249 0397 02       		.byte	0x2
 1250 0398 23       		.byte	0x23
 1251 0399 08       		.uleb128 0x8
 1252 039a 06       		.uleb128 0x6
 1253 039b 2E020000 		.4byte	.LASF52
 1254 039f 08       		.byte	0x8
 1255 03a0 65       		.byte	0x65
 1256 03a1 3C030000 		.4byte	0x33c
 1257 03a5 02       		.byte	0x2
 1258 03a6 23       		.byte	0x23
 1259 03a7 0C       		.uleb128 0xc
 1260 03a8 06       		.uleb128 0x6
 1261 03a9 00040000 		.4byte	.LASF53
 1262 03ad 08       		.byte	0x8
 1263 03ae 67       		.byte	0x67
 1264 03af 83020000 		.4byte	0x283
 1265 03b3 02       		.byte	0x2
 1266 03b4 23       		.byte	0x23
 1267 03b5 10       		.uleb128 0x10
 1268 03b6 00       		.byte	0
 1269 03b7 09       		.uleb128 0x9
 1270 03b8 04       		.byte	0x4
 1271 03b9 59030000 		.4byte	0x359
 1272 03bd 08       		.uleb128 0x8
 1273 03be 10       		.byte	0x10
 1274 03bf 08       		.byte	0x8
 1275 03c0 71       		.byte	0x71
 1276 03c1 FE030000 		.4byte	0x3fe
 1277 03c5 06       		.uleb128 0x6
 1278 03c6 2C010000 		.4byte	.LASF49
 1279 03ca 08       		.byte	0x8
 1280 03cb 72       		.byte	0x72
 1281 03cc B7030000 		.4byte	0x3b7
 1282 03d0 02       		.byte	0x2
 1283 03d1 23       		.byte	0x23
 1284 03d2 00       		.uleb128 0
 1285 03d3 06       		.uleb128 0x6
 1286 03d4 04010000 		.4byte	.LASF50
 1287 03d8 08       		.byte	0x8
 1288 03d9 74       		.byte	0x74
 1289 03da B7030000 		.4byte	0x3b7
 1290 03de 02       		.byte	0x2
 1291 03df 23       		.byte	0x23
ARM GAS  /var/folders/5n/p_75w94d66l9ssrldxqdhh700000gn/T//cc5ZkR9h.s 			page 24


 1292 03e0 04       		.uleb128 0x4
 1293 03e1 06       		.uleb128 0x6
 1294 03e2 F9010000 		.4byte	.LASF51
 1295 03e6 08       		.byte	0x8
 1296 03e7 76       		.byte	0x76
 1297 03e8 E8000000 		.4byte	0xe8
 1298 03ec 02       		.byte	0x2
 1299 03ed 23       		.byte	0x23
 1300 03ee 08       		.uleb128 0x8
 1301 03ef 06       		.uleb128 0x6
 1302 03f0 4C040000 		.4byte	.LASF54
 1303 03f4 08       		.byte	0x8
 1304 03f5 77       		.byte	0x77
 1305 03f6 FE030000 		.4byte	0x3fe
 1306 03fa 02       		.byte	0x2
 1307 03fb 23       		.byte	0x23
 1308 03fc 0C       		.uleb128 0xc
 1309 03fd 00       		.byte	0
 1310 03fe 0F       		.uleb128 0xf
 1311 03ff E8000000 		.4byte	0xe8
 1312 0403 03       		.uleb128 0x3
 1313 0404 57040000 		.4byte	.LASF55
 1314 0408 08       		.byte	0x8
 1315 0409 78       		.byte	0x78
 1316 040a BD030000 		.4byte	0x3bd
 1317 040e 08       		.uleb128 0x8
 1318 040f 20       		.byte	0x20
 1319 0410 09       		.byte	0x9
 1320 0411 5E       		.byte	0x5e
 1321 0412 79040000 		.4byte	0x479
 1322 0416 06       		.uleb128 0x6
 1323 0417 90030000 		.4byte	.LASF56
 1324 041b 09       		.byte	0x9
 1325 041c 5F       		.byte	0x5f
 1326 041d 4B020000 		.4byte	0x24b
 1327 0421 02       		.byte	0x2
 1328 0422 23       		.byte	0x23
 1329 0423 00       		.uleb128 0
 1330 0424 06       		.uleb128 0x6
 1331 0425 4F030000 		.4byte	.LASF57
 1332 0429 09       		.byte	0x9
 1333 042a 60       		.byte	0x60
 1334 042b C7000000 		.4byte	0xc7
 1335 042f 02       		.byte	0x2
 1336 0430 23       		.byte	0x23
 1337 0431 08       		.uleb128 0x8
 1338 0432 06       		.uleb128 0x6
 1339 0433 5C020000 		.4byte	.LASF58
 1340 0437 09       		.byte	0x9
 1341 0438 62       		.byte	0x62
 1342 0439 12030000 		.4byte	0x312
 1343 043d 02       		.byte	0x2
 1344 043e 23       		.byte	0x23
 1345 043f 0C       		.uleb128 0xc
 1346 0440 06       		.uleb128 0x6
 1347 0441 F3000000 		.4byte	.LASF59
 1348 0445 09       		.byte	0x9
ARM GAS  /var/folders/5n/p_75w94d66l9ssrldxqdhh700000gn/T//cc5ZkR9h.s 			page 25


 1349 0446 65       		.byte	0x65
 1350 0447 45020000 		.4byte	0x245
 1351 044b 02       		.byte	0x2
 1352 044c 23       		.byte	0x23
 1353 044d 10       		.uleb128 0x10
 1354 044e 06       		.uleb128 0x6
 1355 044f A6020000 		.4byte	.LASF60
 1356 0453 09       		.byte	0x9
 1357 0454 66       		.byte	0x66
 1358 0455 45020000 		.4byte	0x245
 1359 0459 02       		.byte	0x2
 1360 045a 23       		.byte	0x23
 1361 045b 14       		.uleb128 0x14
 1362 045c 06       		.uleb128 0x6
 1363 045d 5E040000 		.4byte	.LASF61
 1364 0461 09       		.byte	0x9
 1365 0462 6A       		.byte	0x6a
 1366 0463 F3000000 		.4byte	0xf3
 1367 0467 02       		.byte	0x2
 1368 0468 23       		.byte	0x23
 1369 0469 18       		.uleb128 0x18
 1370 046a 06       		.uleb128 0x6
 1371 046b 9C020000 		.4byte	.LASF62
 1372 046f 09       		.byte	0x9
 1373 0470 6C       		.byte	0x6c
 1374 0471 45020000 		.4byte	0x245
 1375 0475 02       		.byte	0x2
 1376 0476 23       		.byte	0x23
 1377 0477 1C       		.uleb128 0x1c
 1378 0478 00       		.byte	0
 1379 0479 03       		.uleb128 0x3
 1380 047a 19040000 		.4byte	.LASF63
 1381 047e 09       		.byte	0x9
 1382 047f 6E       		.byte	0x6e
 1383 0480 0E040000 		.4byte	0x40e
 1384 0484 05       		.uleb128 0x5
 1385 0485 D4010000 		.4byte	.LASF64
 1386 0489 10       		.byte	0x10
 1387 048a 0A       		.byte	0xa
 1388 048b 2C       		.byte	0x2c
 1389 048c BB040000 		.4byte	0x4bb
 1390 0490 06       		.uleb128 0x6
 1391 0491 8A000000 		.4byte	.LASF65
 1392 0495 0A       		.byte	0xa
 1393 0496 2D       		.byte	0x2d
 1394 0497 4B020000 		.4byte	0x24b
 1395 049b 02       		.byte	0x2
 1396 049c 23       		.byte	0x23
 1397 049d 00       		.uleb128 0
 1398 049e 06       		.uleb128 0x6
 1399 049f 68040000 		.4byte	.LASF66
 1400 04a3 0A       		.byte	0xa
 1401 04a4 2F       		.byte	0x2f
 1402 04a5 45020000 		.4byte	0x245
 1403 04a9 02       		.byte	0x2
 1404 04aa 23       		.byte	0x23
 1405 04ab 08       		.uleb128 0x8
ARM GAS  /var/folders/5n/p_75w94d66l9ssrldxqdhh700000gn/T//cc5ZkR9h.s 			page 26


 1406 04ac 06       		.uleb128 0x6
 1407 04ad C2030000 		.4byte	.LASF67
 1408 04b1 0A       		.byte	0xa
 1409 04b2 31       		.byte	0x31
 1410 04b3 BB040000 		.4byte	0x4bb
 1411 04b7 02       		.byte	0x2
 1412 04b8 23       		.byte	0x23
 1413 04b9 0C       		.uleb128 0xc
 1414 04ba 00       		.byte	0
 1415 04bb 09       		.uleb128 0x9
 1416 04bc 04       		.byte	0x4
 1417 04bd 84040000 		.4byte	0x484
 1418 04c1 03       		.uleb128 0x3
 1419 04c2 D4010000 		.4byte	.LASF64
 1420 04c6 0A       		.byte	0xa
 1421 04c7 33       		.byte	0x33
 1422 04c8 84040000 		.4byte	0x484
 1423 04cc 10       		.uleb128 0x10
 1424 04cd 04       		.byte	0x4
 1425 04ce 06       		.byte	0x6
 1426 04cf 90       		.byte	0x90
 1427 04d0 01050000 		.4byte	0x501
 1428 04d4 11       		.uleb128 0x11
 1429 04d5 1A000000 		.4byte	.LASF68
 1430 04d9 06       		.byte	0x6
 1431 04da 97       		.byte	0x97
 1432 04db D2000000 		.4byte	0xd2
 1433 04df 11       		.uleb128 0x11
 1434 04e0 3F000000 		.4byte	.LASF69
 1435 04e4 06       		.byte	0x6
 1436 04e5 9E       		.byte	0x9e
 1437 04e6 D2000000 		.4byte	0xd2
 1438 04ea 11       		.uleb128 0x11
 1439 04eb 31040000 		.4byte	.LASF70
 1440 04ef 06       		.byte	0x6
 1441 04f0 A5       		.byte	0xa5
 1442 04f1 83020000 		.4byte	0x283
 1443 04f5 11       		.uleb128 0x11
 1444 04f6 56030000 		.4byte	.LASF71
 1445 04fa 06       		.byte	0x6
 1446 04fb AC       		.byte	0xac
 1447 04fc DD000000 		.4byte	0xdd
 1448 0500 00       		.byte	0
 1449 0501 09       		.uleb128 0x9
 1450 0502 04       		.byte	0x4
 1451 0503 07050000 		.4byte	0x507
 1452 0507 12       		.uleb128 0x12
 1453 0508 0C050000 		.4byte	0x50c
 1454 050c 04       		.uleb128 0x4
 1455 050d 01       		.byte	0x1
 1456 050e 08       		.byte	0x8
 1457 050f A5030000 		.4byte	.LASF72
 1458 0513 09       		.uleb128 0x9
 1459 0514 04       		.byte	0x4
 1460 0515 C1040000 		.4byte	0x4c1
 1461 0519 03       		.uleb128 0x3
 1462 051a 00000000 		.4byte	.LASF73
ARM GAS  /var/folders/5n/p_75w94d66l9ssrldxqdhh700000gn/T//cc5ZkR9h.s 			page 27


 1463 051e 06       		.byte	0x6
 1464 051f DF       		.byte	0xdf
 1465 0520 24050000 		.4byte	0x524
 1466 0524 09       		.uleb128 0x9
 1467 0525 04       		.byte	0x4
 1468 0526 2A050000 		.4byte	0x52a
 1469 052a 13       		.uleb128 0x13
 1470 052b 01       		.byte	0x1
 1471 052c D2000000 		.4byte	0xd2
 1472 0530 3A050000 		.4byte	0x53a
 1473 0534 0E       		.uleb128 0xe
 1474 0535 83020000 		.4byte	0x283
 1475 0539 00       		.byte	0
 1476 053a 05       		.uleb128 0x5
 1477 053b 73030000 		.4byte	.LASF74
 1478 053f 10       		.byte	0x10
 1479 0540 0B       		.byte	0xb
 1480 0541 46       		.byte	0x46
 1481 0542 7F050000 		.4byte	0x57f
 1482 0546 06       		.uleb128 0x6
 1483 0547 8E010000 		.4byte	.LASF75
 1484 054b 0B       		.byte	0xb
 1485 054c 47       		.byte	0x47
 1486 054d 01050000 		.4byte	0x501
 1487 0551 02       		.byte	0x2
 1488 0552 23       		.byte	0x23
 1489 0553 00       		.uleb128 0
 1490 0554 06       		.uleb128 0x6
 1491 0555 6F020000 		.4byte	.LASF76
 1492 0559 0B       		.byte	0xb
 1493 055a 48       		.byte	0x48
 1494 055b 81050000 		.4byte	0x581
 1495 055f 02       		.byte	0x2
 1496 0560 23       		.byte	0x23
 1497 0561 04       		.uleb128 0x4
 1498 0562 06       		.uleb128 0x6
 1499 0563 85010000 		.4byte	.LASF77
 1500 0567 0B       		.byte	0xb
 1501 0568 49       		.byte	0x49
 1502 0569 81050000 		.4byte	0x581
 1503 056d 02       		.byte	0x2
 1504 056e 23       		.byte	0x23
 1505 056f 08       		.uleb128 0x8
 1506 0570 06       		.uleb128 0x6
 1507 0571 EF020000 		.4byte	.LASF78
 1508 0575 0B       		.byte	0xb
 1509 0576 4A       		.byte	0x4a
 1510 0577 81050000 		.4byte	0x581
 1511 057b 02       		.byte	0x2
 1512 057c 23       		.byte	0x23
 1513 057d 0C       		.uleb128 0xc
 1514 057e 00       		.byte	0
 1515 057f 14       		.uleb128 0x14
 1516 0580 01       		.byte	0x1
 1517 0581 09       		.uleb128 0x9
 1518 0582 04       		.byte	0x4
 1519 0583 7F050000 		.4byte	0x57f
ARM GAS  /var/folders/5n/p_75w94d66l9ssrldxqdhh700000gn/T//cc5ZkR9h.s 			page 28


 1520 0587 15       		.uleb128 0x15
 1521 0588 AA030000 		.4byte	.LASF104
 1522 058c 01       		.byte	0x1
 1523 058d C8       		.byte	0xc8
 1524 058e 01       		.byte	0x1
 1525 058f 01       		.byte	0x1
 1526 0590 A0050000 		.4byte	0x5a0
 1527 0594 16       		.uleb128 0x16
 1528 0595 8B020000 		.4byte	.LASF105
 1529 0599 01       		.byte	0x1
 1530 059a C9       		.byte	0xc9
 1531 059b E8000000 		.4byte	0xe8
 1532 059f 00       		.byte	0
 1533 05a0 17       		.uleb128 0x17
 1534 05a1 DB020000 		.4byte	.LASF80
 1535 05a5 01       		.byte	0x1
 1536 05a6 89       		.byte	0x89
 1537 05a7 01       		.byte	0x1
 1538 05a8 00000000 		.4byte	.LFB10
 1539 05ac 3C010000 		.4byte	.LFE10
 1540 05b0 00000000 		.4byte	.LLST0
 1541 05b4 01       		.byte	0x1
 1542 05b5 6D070000 		.4byte	0x76d
 1543 05b9 18       		.uleb128 0x18
 1544 05ba 15000000 		.4byte	.LASF79
 1545 05be 01       		.byte	0x1
 1546 05bf 8A       		.byte	0x8a
 1547 05c0 C7000000 		.4byte	0xc7
 1548 05c4 01       		.byte	0x1
 1549 05c5 54       		.byte	0x54
 1550 05c6 19       		.uleb128 0x19
 1551 05c7 703100   		.ascii	"p1\000"
 1552 05ca 01       		.byte	0x1
 1553 05cb 8A       		.byte	0x8a
 1554 05cc C7000000 		.4byte	0xc7
 1555 05d0 20000000 		.4byte	.LLST1
 1556 05d4 1A       		.uleb128 0x1a
 1557 05d5 6C000000 		.4byte	.LBB2
 1558 05d9 72000000 		.4byte	.LBE2
 1559 05dd F1050000 		.4byte	0x5f1
 1560 05e1 19       		.uleb128 0x19
 1561 05e2 746D7000 		.ascii	"tmp\000"
 1562 05e6 01       		.byte	0x1
 1563 05e7 9A       		.byte	0x9a
 1564 05e8 7B000000 		.4byte	0x7b
 1565 05ec 6A000000 		.4byte	.LLST2
 1566 05f0 00       		.byte	0
 1567 05f1 1A       		.uleb128 0x1a
 1568 05f2 7A000000 		.4byte	.LBB3
 1569 05f6 80000000 		.4byte	.LBE3
 1570 05fa 0E060000 		.4byte	0x60e
 1571 05fe 19       		.uleb128 0x19
 1572 05ff 746D7000 		.ascii	"tmp\000"
 1573 0603 01       		.byte	0x1
 1574 0604 9C       		.byte	0x9c
 1575 0605 7B000000 		.4byte	0x7b
 1576 0609 7D000000 		.4byte	.LLST3
ARM GAS  /var/folders/5n/p_75w94d66l9ssrldxqdhh700000gn/T//cc5ZkR9h.s 			page 29


 1577 060d 00       		.byte	0
 1578 060e 1A       		.uleb128 0x1a
 1579 060f 22010000 		.4byte	.LBB4
 1580 0613 28010000 		.4byte	.LBE4
 1581 0617 2B060000 		.4byte	0x62b
 1582 061b 19       		.uleb128 0x19
 1583 061c 746D7000 		.ascii	"tmp\000"
 1584 0620 01       		.byte	0x1
 1585 0621 B2       		.byte	0xb2
 1586 0622 7B000000 		.4byte	0x7b
 1587 0626 90000000 		.4byte	.LLST4
 1588 062a 00       		.byte	0
 1589 062b 1B       		.uleb128 0x1b
 1590 062c 00000000 		.4byte	.Ldebug_ranges0+0
 1591 0630 44060000 		.4byte	0x644
 1592 0634 19       		.uleb128 0x19
 1593 0635 746D7000 		.ascii	"tmp\000"
 1594 0639 01       		.byte	0x1
 1595 063a B5       		.byte	0xb5
 1596 063b 7B000000 		.4byte	0x7b
 1597 063f A3000000 		.4byte	.LLST5
 1598 0643 00       		.byte	0
 1599 0644 1C       		.uleb128 0x1c
 1600 0645 10000000 		.4byte	.LVL1
 1601 0649 EF0B0000 		.4byte	0xbef
 1602 064d 58060000 		.4byte	0x658
 1603 0651 1D       		.uleb128 0x1d
 1604 0652 01       		.byte	0x1
 1605 0653 50       		.byte	0x50
 1606 0654 02       		.byte	0x2
 1607 0655 75       		.byte	0x75
 1608 0656 00       		.sleb128 0
 1609 0657 00       		.byte	0
 1610 0658 1C       		.uleb128 0x1c
 1611 0659 1E000000 		.4byte	.LVL4
 1612 065d 080C0000 		.4byte	0xc08
 1613 0661 76060000 		.4byte	0x676
 1614 0665 1D       		.uleb128 0x1d
 1615 0666 01       		.byte	0x1
 1616 0667 51       		.byte	0x51
 1617 0668 07       		.byte	0x7
 1618 0669 77       		.byte	0x77
 1619 066a 00       		.sleb128 0
 1620 066b 74       		.byte	0x74
 1621 066c 00       		.sleb128 0
 1622 066d 1C       		.byte	0x1c
 1623 066e 30       		.byte	0x30
 1624 066f 29       		.byte	0x29
 1625 0670 1D       		.uleb128 0x1d
 1626 0671 01       		.byte	0x1
 1627 0672 50       		.byte	0x50
 1628 0673 01       		.byte	0x1
 1629 0674 31       		.byte	0x31
 1630 0675 00       		.byte	0
 1631 0676 1C       		.uleb128 0x1c
 1632 0677 32000000 		.4byte	.LVL7
 1633 067b 080C0000 		.4byte	0xc08
ARM GAS  /var/folders/5n/p_75w94d66l9ssrldxqdhh700000gn/T//cc5ZkR9h.s 			page 30


 1634 067f 89060000 		.4byte	0x689
 1635 0683 1D       		.uleb128 0x1d
 1636 0684 01       		.byte	0x1
 1637 0685 50       		.byte	0x50
 1638 0686 01       		.byte	0x1
 1639 0687 32       		.byte	0x32
 1640 0688 00       		.byte	0
 1641 0689 1C       		.uleb128 0x1c
 1642 068a 3C000000 		.4byte	.LVL8
 1643 068e EF0B0000 		.4byte	0xbef
 1644 0692 9D060000 		.4byte	0x69d
 1645 0696 1D       		.uleb128 0x1d
 1646 0697 01       		.byte	0x1
 1647 0698 50       		.byte	0x50
 1648 0699 02       		.byte	0x2
 1649 069a 77       		.byte	0x77
 1650 069b 00       		.sleb128 0
 1651 069c 00       		.byte	0
 1652 069d 1C       		.uleb128 0x1c
 1653 069e 4E000000 		.4byte	.LVL10
 1654 06a2 080C0000 		.4byte	0xc08
 1655 06a6 B0060000 		.4byte	0x6b0
 1656 06aa 1D       		.uleb128 0x1d
 1657 06ab 01       		.byte	0x1
 1658 06ac 50       		.byte	0x50
 1659 06ad 01       		.byte	0x1
 1660 06ae 33       		.byte	0x33
 1661 06af 00       		.byte	0
 1662 06b0 1C       		.uleb128 0x1c
 1663 06b1 68000000 		.4byte	.LVL11
 1664 06b5 080C0000 		.4byte	0xc08
 1665 06b9 C3060000 		.4byte	0x6c3
 1666 06bd 1D       		.uleb128 0x1d
 1667 06be 01       		.byte	0x1
 1668 06bf 50       		.byte	0x50
 1669 06c0 01       		.byte	0x1
 1670 06c1 34       		.byte	0x34
 1671 06c2 00       		.byte	0
 1672 06c3 1C       		.uleb128 0x1c
 1673 06c4 92000000 		.4byte	.LVL18
 1674 06c8 080C0000 		.4byte	0xc08
 1675 06cc D6060000 		.4byte	0x6d6
 1676 06d0 1D       		.uleb128 0x1d
 1677 06d1 01       		.byte	0x1
 1678 06d2 50       		.byte	0x50
 1679 06d3 01       		.byte	0x1
 1680 06d4 35       		.byte	0x35
 1681 06d5 00       		.byte	0
 1682 06d6 1C       		.uleb128 0x1c
 1683 06d7 9C000000 		.4byte	.LVL19
 1684 06db EF0B0000 		.4byte	0xbef
 1685 06df EA060000 		.4byte	0x6ea
 1686 06e3 1D       		.uleb128 0x1d
 1687 06e4 01       		.byte	0x1
 1688 06e5 50       		.byte	0x50
 1689 06e6 02       		.byte	0x2
 1690 06e7 75       		.byte	0x75
ARM GAS  /var/folders/5n/p_75w94d66l9ssrldxqdhh700000gn/T//cc5ZkR9h.s 			page 31


 1691 06e8 00       		.sleb128 0
 1692 06e9 00       		.byte	0
 1693 06ea 1C       		.uleb128 0x1c
 1694 06eb A8000000 		.4byte	.LVL21
 1695 06ef 080C0000 		.4byte	0xc08
 1696 06f3 FD060000 		.4byte	0x6fd
 1697 06f7 1D       		.uleb128 0x1d
 1698 06f8 01       		.byte	0x1
 1699 06f9 50       		.byte	0x50
 1700 06fa 01       		.byte	0x1
 1701 06fb 36       		.byte	0x36
 1702 06fc 00       		.byte	0
 1703 06fd 1C       		.uleb128 0x1c
 1704 06fe C2000000 		.4byte	.LVL22
 1705 0702 080C0000 		.4byte	0xc08
 1706 0706 10070000 		.4byte	0x710
 1707 070a 1D       		.uleb128 0x1d
 1708 070b 01       		.byte	0x1
 1709 070c 50       		.byte	0x50
 1710 070d 01       		.byte	0x1
 1711 070e 37       		.byte	0x37
 1712 070f 00       		.byte	0
 1713 0710 1C       		.uleb128 0x1c
 1714 0711 DC000000 		.4byte	.LVL23
 1715 0715 080C0000 		.4byte	0xc08
 1716 0719 23070000 		.4byte	0x723
 1717 071d 1D       		.uleb128 0x1d
 1718 071e 01       		.byte	0x1
 1719 071f 50       		.byte	0x50
 1720 0720 01       		.byte	0x1
 1721 0721 38       		.byte	0x38
 1722 0722 00       		.byte	0
 1723 0723 1C       		.uleb128 0x1c
 1724 0724 E8000000 		.4byte	.LVL24
 1725 0728 EF0B0000 		.4byte	0xbef
 1726 072c 37070000 		.4byte	0x737
 1727 0730 1D       		.uleb128 0x1d
 1728 0731 01       		.byte	0x1
 1729 0732 50       		.byte	0x50
 1730 0733 02       		.byte	0x2
 1731 0734 77       		.byte	0x77
 1732 0735 00       		.sleb128 0
 1733 0736 00       		.byte	0
 1734 0737 1C       		.uleb128 0x1c
 1735 0738 F4000000 		.4byte	.LVL26
 1736 073c 080C0000 		.4byte	0xc08
 1737 0740 4A070000 		.4byte	0x74a
 1738 0744 1D       		.uleb128 0x1d
 1739 0745 01       		.byte	0x1
 1740 0746 50       		.byte	0x50
 1741 0747 01       		.byte	0x1
 1742 0748 39       		.byte	0x39
 1743 0749 00       		.byte	0
 1744 074a 1C       		.uleb128 0x1c
 1745 074b 08010000 		.4byte	.LVL27
 1746 074f 080C0000 		.4byte	0xc08
 1747 0753 5D070000 		.4byte	0x75d
ARM GAS  /var/folders/5n/p_75w94d66l9ssrldxqdhh700000gn/T//cc5ZkR9h.s 			page 32


 1748 0757 1D       		.uleb128 0x1d
 1749 0758 01       		.byte	0x1
 1750 0759 50       		.byte	0x50
 1751 075a 01       		.byte	0x1
 1752 075b 3A       		.byte	0x3a
 1753 075c 00       		.byte	0
 1754 075d 1E       		.uleb128 0x1e
 1755 075e 1C010000 		.4byte	.LVL28
 1756 0762 080C0000 		.4byte	0xc08
 1757 0766 1D       		.uleb128 0x1d
 1758 0767 01       		.byte	0x1
 1759 0768 50       		.byte	0x50
 1760 0769 01       		.byte	0x1
 1761 076a 3B       		.byte	0x3b
 1762 076b 00       		.byte	0
 1763 076c 00       		.byte	0
 1764 076d 17       		.uleb128 0x17
 1765 076e DA010000 		.4byte	.LASF81
 1766 0772 01       		.byte	0x1
 1767 0773 69       		.byte	0x69
 1768 0774 01       		.byte	0x1
 1769 0775 00000000 		.4byte	.LFB9
 1770 0779 EA000000 		.4byte	.LFE9
 1771 077d C1000000 		.4byte	.LLST6
 1772 0781 01       		.byte	0x1
 1773 0782 C4080000 		.4byte	0x8c4
 1774 0786 1B       		.uleb128 0x1b
 1775 0787 18000000 		.4byte	.Ldebug_ranges0+0x18
 1776 078b 9F070000 		.4byte	0x79f
 1777 078f 19       		.uleb128 0x19
 1778 0790 746D7000 		.ascii	"tmp\000"
 1779 0794 01       		.byte	0x1
 1780 0795 70       		.byte	0x70
 1781 0796 7B000000 		.4byte	0x7b
 1782 079a ED000000 		.4byte	.LLST7
 1783 079e 00       		.byte	0
 1784 079f 1A       		.uleb128 0x1a
 1785 07a0 C6000000 		.4byte	.LBB9
 1786 07a4 CC000000 		.4byte	.LBE9
 1787 07a8 BC070000 		.4byte	0x7bc
 1788 07ac 19       		.uleb128 0x19
 1789 07ad 746D7000 		.ascii	"tmp\000"
 1790 07b1 01       		.byte	0x1
 1791 07b2 72       		.byte	0x72
 1792 07b3 7B000000 		.4byte	0x7b
 1793 07b7 00010000 		.4byte	.LLST8
 1794 07bb 00       		.byte	0
 1795 07bc 1C       		.uleb128 0x1c
 1796 07bd 38000000 		.4byte	.LVL33
 1797 07c1 250C0000 		.4byte	0xc25
 1798 07c5 E8070000 		.4byte	0x7e8
 1799 07c9 1D       		.uleb128 0x1d
 1800 07ca 01       		.byte	0x1
 1801 07cb 53       		.byte	0x53
 1802 07cc 02       		.byte	0x2
 1803 07cd 75       		.byte	0x75
 1804 07ce 00       		.sleb128 0
ARM GAS  /var/folders/5n/p_75w94d66l9ssrldxqdhh700000gn/T//cc5ZkR9h.s 			page 33


 1805 07cf 1D       		.uleb128 0x1d
 1806 07d0 01       		.byte	0x1
 1807 07d1 51       		.byte	0x51
 1808 07d2 03       		.byte	0x3
 1809 07d3 0A       		.byte	0xa
 1810 07d4 3001     		.2byte	0x130
 1811 07d6 1D       		.uleb128 0x1d
 1812 07d7 01       		.byte	0x1
 1813 07d8 50       		.byte	0x50
 1814 07d9 03       		.byte	0x3
 1815 07da 76       		.byte	0x76
 1816 07db 04       		.sleb128 4
 1817 07dc 06       		.byte	0x6
 1818 07dd 1D       		.uleb128 0x1d
 1819 07de 02       		.byte	0x2
 1820 07df 7D       		.byte	0x7d
 1821 07e0 00       		.sleb128 0
 1822 07e1 05       		.byte	0x5
 1823 07e2 03       		.byte	0x3
 1824 07e3 00000000 		.4byte	.LC0
 1825 07e7 00       		.byte	0
 1826 07e8 1C       		.uleb128 0x1c
 1827 07e9 60000000 		.4byte	.LVL34
 1828 07ed 250C0000 		.4byte	0xc25
 1829 07f1 14080000 		.4byte	0x814
 1830 07f5 1D       		.uleb128 0x1d
 1831 07f6 01       		.byte	0x1
 1832 07f7 53       		.byte	0x53
 1833 07f8 02       		.byte	0x2
 1834 07f9 75       		.byte	0x75
 1835 07fa 00       		.sleb128 0
 1836 07fb 1D       		.uleb128 0x1d
 1837 07fc 01       		.byte	0x1
 1838 07fd 51       		.byte	0x51
 1839 07fe 03       		.byte	0x3
 1840 07ff 0A       		.byte	0xa
 1841 0800 3001     		.2byte	0x130
 1842 0802 1D       		.uleb128 0x1d
 1843 0803 01       		.byte	0x1
 1844 0804 50       		.byte	0x50
 1845 0805 03       		.byte	0x3
 1846 0806 76       		.byte	0x76
 1847 0807 00       		.sleb128 0
 1848 0808 06       		.byte	0x6
 1849 0809 1D       		.uleb128 0x1d
 1850 080a 02       		.byte	0x2
 1851 080b 7D       		.byte	0x7d
 1852 080c 00       		.sleb128 0
 1853 080d 05       		.byte	0x5
 1854 080e 03       		.byte	0x3
 1855 080f 04000000 		.4byte	.LC1
 1856 0813 00       		.byte	0
 1857 0814 1C       		.uleb128 0x1c
 1858 0815 80000000 		.4byte	.LVL35
 1859 0819 250C0000 		.4byte	0xc25
 1860 081d 40080000 		.4byte	0x840
 1861 0821 1D       		.uleb128 0x1d
ARM GAS  /var/folders/5n/p_75w94d66l9ssrldxqdhh700000gn/T//cc5ZkR9h.s 			page 34


 1862 0822 01       		.byte	0x1
 1863 0823 53       		.byte	0x53
 1864 0824 02       		.byte	0x2
 1865 0825 75       		.byte	0x75
 1866 0826 00       		.sleb128 0
 1867 0827 1D       		.uleb128 0x1d
 1868 0828 01       		.byte	0x1
 1869 0829 51       		.byte	0x51
 1870 082a 03       		.byte	0x3
 1871 082b 0A       		.byte	0xa
 1872 082c 3001     		.2byte	0x130
 1873 082e 1D       		.uleb128 0x1d
 1874 082f 01       		.byte	0x1
 1875 0830 50       		.byte	0x50
 1876 0831 03       		.byte	0x3
 1877 0832 76       		.byte	0x76
 1878 0833 10       		.sleb128 16
 1879 0834 06       		.byte	0x6
 1880 0835 1D       		.uleb128 0x1d
 1881 0836 02       		.byte	0x2
 1882 0837 7D       		.byte	0x7d
 1883 0838 00       		.sleb128 0
 1884 0839 05       		.byte	0x5
 1885 083a 03       		.byte	0x3
 1886 083b 08000000 		.4byte	.LC2
 1887 083f 00       		.byte	0
 1888 0840 1C       		.uleb128 0x1c
 1889 0841 A0000000 		.4byte	.LVL36
 1890 0845 250C0000 		.4byte	0xc25
 1891 0849 6C080000 		.4byte	0x86c
 1892 084d 1D       		.uleb128 0x1d
 1893 084e 01       		.byte	0x1
 1894 084f 53       		.byte	0x53
 1895 0850 02       		.byte	0x2
 1896 0851 75       		.byte	0x75
 1897 0852 00       		.sleb128 0
 1898 0853 1D       		.uleb128 0x1d
 1899 0854 01       		.byte	0x1
 1900 0855 51       		.byte	0x51
 1901 0856 03       		.byte	0x3
 1902 0857 0A       		.byte	0xa
 1903 0858 3001     		.2byte	0x130
 1904 085a 1D       		.uleb128 0x1d
 1905 085b 01       		.byte	0x1
 1906 085c 50       		.byte	0x50
 1907 085d 03       		.byte	0x3
 1908 085e 76       		.byte	0x76
 1909 085f 0C       		.sleb128 12
 1910 0860 06       		.byte	0x6
 1911 0861 1D       		.uleb128 0x1d
 1912 0862 02       		.byte	0x2
 1913 0863 7D       		.byte	0x7d
 1914 0864 00       		.sleb128 0
 1915 0865 05       		.byte	0x5
 1916 0866 03       		.byte	0x3
 1917 0867 0C000000 		.4byte	.LC3
 1918 086b 00       		.byte	0
ARM GAS  /var/folders/5n/p_75w94d66l9ssrldxqdhh700000gn/T//cc5ZkR9h.s 			page 35


 1919 086c 1C       		.uleb128 0x1c
 1920 086d C4000000 		.4byte	.LVL40
 1921 0871 520C0000 		.4byte	0xc52
 1922 0875 98080000 		.4byte	0x898
 1923 0879 1D       		.uleb128 0x1d
 1924 087a 01       		.byte	0x1
 1925 087b 53       		.byte	0x53
 1926 087c 02       		.byte	0x2
 1927 087d 75       		.byte	0x75
 1928 087e 00       		.sleb128 0
 1929 087f 1D       		.uleb128 0x1d
 1930 0880 01       		.byte	0x1
 1931 0881 51       		.byte	0x51
 1932 0882 03       		.byte	0x3
 1933 0883 0A       		.byte	0xa
 1934 0884 3001     		.2byte	0x130
 1935 0886 1D       		.uleb128 0x1d
 1936 0887 01       		.byte	0x1
 1937 0888 50       		.byte	0x50
 1938 0889 03       		.byte	0x3
 1939 088a 76       		.byte	0x76
 1940 088b 08       		.sleb128 8
 1941 088c 06       		.byte	0x6
 1942 088d 1D       		.uleb128 0x1d
 1943 088e 02       		.byte	0x2
 1944 088f 7D       		.byte	0x7d
 1945 0890 00       		.sleb128 0
 1946 0891 05       		.byte	0x5
 1947 0892 03       		.byte	0x3
 1948 0893 10000000 		.4byte	.LC4
 1949 0897 00       		.byte	0
 1950 0898 1F       		.uleb128 0x1f
 1951 0899 D2000000 		.4byte	.LVL43
 1952 089d 7F0C0000 		.4byte	0xc7f
 1953 08a1 1F       		.uleb128 0x1f
 1954 08a2 D6000000 		.4byte	.LVL44
 1955 08a6 980C0000 		.4byte	0xc98
 1956 08aa 20       		.uleb128 0x20
 1957 08ab EA000000 		.4byte	.LVL45
 1958 08af 01       		.byte	0x1
 1959 08b0 A20C0000 		.4byte	0xca2
 1960 08b4 1D       		.uleb128 0x1d
 1961 08b5 01       		.byte	0x1
 1962 08b6 51       		.byte	0x51
 1963 08b7 05       		.byte	0x5
 1964 08b8 03       		.byte	0x3
 1965 08b9 14000000 		.4byte	.LC5
 1966 08bd 1D       		.uleb128 0x1d
 1967 08be 01       		.byte	0x1
 1968 08bf 50       		.byte	0x50
 1969 08c0 01       		.byte	0x1
 1970 08c1 31       		.byte	0x31
 1971 08c2 00       		.byte	0
 1972 08c3 00       		.byte	0
 1973 08c4 17       		.uleb128 0x17
 1974 08c5 0C010000 		.4byte	.LASF82
 1975 08c9 01       		.byte	0x1
ARM GAS  /var/folders/5n/p_75w94d66l9ssrldxqdhh700000gn/T//cc5ZkR9h.s 			page 36


 1976 08ca 4D       		.byte	0x4d
 1977 08cb 01       		.byte	0x1
 1978 08cc 00000000 		.4byte	.LFB8
 1979 08d0 E6000000 		.4byte	.LFE8
 1980 08d4 13010000 		.4byte	.LLST9
 1981 08d8 01       		.byte	0x1
 1982 08d9 D5090000 		.4byte	0x9d5
 1983 08dd 1C       		.uleb128 0x1c
 1984 08de 3C000000 		.4byte	.LVL46
 1985 08e2 250C0000 		.4byte	0xc25
 1986 08e6 06090000 		.4byte	0x906
 1987 08ea 1D       		.uleb128 0x1d
 1988 08eb 01       		.byte	0x1
 1989 08ec 53       		.byte	0x53
 1990 08ed 02       		.byte	0x2
 1991 08ee 75       		.byte	0x75
 1992 08ef 00       		.sleb128 0
 1993 08f0 1D       		.uleb128 0x1d
 1994 08f1 01       		.byte	0x1
 1995 08f2 51       		.byte	0x51
 1996 08f3 03       		.byte	0x3
 1997 08f4 0A       		.byte	0xa
 1998 08f5 3001     		.2byte	0x130
 1999 08f7 1D       		.uleb128 0x1d
 2000 08f8 01       		.byte	0x1
 2001 08f9 50       		.byte	0x50
 2002 08fa 03       		.byte	0x3
 2003 08fb 76       		.byte	0x76
 2004 08fc 00       		.sleb128 0
 2005 08fd 06       		.byte	0x6
 2006 08fe 1D       		.uleb128 0x1d
 2007 08ff 02       		.byte	0x2
 2008 0900 7D       		.byte	0x7d
 2009 0901 00       		.sleb128 0
 2010 0902 02       		.byte	0x2
 2011 0903 74       		.byte	0x74
 2012 0904 00       		.sleb128 0
 2013 0905 00       		.byte	0
 2014 0906 1C       		.uleb128 0x1c
 2015 0907 66000000 		.4byte	.LVL47
 2016 090b 250C0000 		.4byte	0xc25
 2017 090f 31090000 		.4byte	0x931
 2018 0913 1D       		.uleb128 0x1d
 2019 0914 01       		.byte	0x1
 2020 0915 53       		.byte	0x53
 2021 0916 02       		.byte	0x2
 2022 0917 75       		.byte	0x75
 2023 0918 00       		.sleb128 0
 2024 0919 1D       		.uleb128 0x1d
 2025 091a 01       		.byte	0x1
 2026 091b 51       		.byte	0x51
 2027 091c 03       		.byte	0x3
 2028 091d 0A       		.byte	0xa
 2029 091e 3001     		.2byte	0x130
 2030 0920 1D       		.uleb128 0x1d
 2031 0921 01       		.byte	0x1
 2032 0922 50       		.byte	0x50
ARM GAS  /var/folders/5n/p_75w94d66l9ssrldxqdhh700000gn/T//cc5ZkR9h.s 			page 37


 2033 0923 02       		.byte	0x2
 2034 0924 77       		.byte	0x77
 2035 0925 00       		.sleb128 0
 2036 0926 1D       		.uleb128 0x1d
 2037 0927 02       		.byte	0x2
 2038 0928 7D       		.byte	0x7d
 2039 0929 00       		.sleb128 0
 2040 092a 05       		.byte	0x5
 2041 092b 03       		.byte	0x3
 2042 092c 00000000 		.4byte	.LC0
 2043 0930 00       		.byte	0
 2044 0931 1C       		.uleb128 0x1c
 2045 0932 88000000 		.4byte	.LVL48
 2046 0936 250C0000 		.4byte	0xc25
 2047 093a 5C090000 		.4byte	0x95c
 2048 093e 1D       		.uleb128 0x1d
 2049 093f 01       		.byte	0x1
 2050 0940 53       		.byte	0x53
 2051 0941 02       		.byte	0x2
 2052 0942 75       		.byte	0x75
 2053 0943 00       		.sleb128 0
 2054 0944 1D       		.uleb128 0x1d
 2055 0945 01       		.byte	0x1
 2056 0946 51       		.byte	0x51
 2057 0947 03       		.byte	0x3
 2058 0948 0A       		.byte	0xa
 2059 0949 3001     		.2byte	0x130
 2060 094b 1D       		.uleb128 0x1d
 2061 094c 01       		.byte	0x1
 2062 094d 50       		.byte	0x50
 2063 094e 02       		.byte	0x2
 2064 094f 77       		.byte	0x77
 2065 0950 00       		.sleb128 0
 2066 0951 1D       		.uleb128 0x1d
 2067 0952 02       		.byte	0x2
 2068 0953 7D       		.byte	0x7d
 2069 0954 00       		.sleb128 0
 2070 0955 05       		.byte	0x5
 2071 0956 03       		.byte	0x3
 2072 0957 10000000 		.4byte	.LC4
 2073 095b 00       		.byte	0
 2074 095c 1C       		.uleb128 0x1c
 2075 095d AA000000 		.4byte	.LVL49
 2076 0961 250C0000 		.4byte	0xc25
 2077 0965 87090000 		.4byte	0x987
 2078 0969 1D       		.uleb128 0x1d
 2079 096a 01       		.byte	0x1
 2080 096b 53       		.byte	0x53
 2081 096c 02       		.byte	0x2
 2082 096d 75       		.byte	0x75
 2083 096e 00       		.sleb128 0
 2084 096f 1D       		.uleb128 0x1d
 2085 0970 01       		.byte	0x1
 2086 0971 51       		.byte	0x51
 2087 0972 03       		.byte	0x3
 2088 0973 0A       		.byte	0xa
 2089 0974 3001     		.2byte	0x130
ARM GAS  /var/folders/5n/p_75w94d66l9ssrldxqdhh700000gn/T//cc5ZkR9h.s 			page 38


 2090 0976 1D       		.uleb128 0x1d
 2091 0977 01       		.byte	0x1
 2092 0978 50       		.byte	0x50
 2093 0979 02       		.byte	0x2
 2094 097a 77       		.byte	0x77
 2095 097b 00       		.sleb128 0
 2096 097c 1D       		.uleb128 0x1d
 2097 097d 02       		.byte	0x2
 2098 097e 7D       		.byte	0x7d
 2099 097f 00       		.sleb128 0
 2100 0980 05       		.byte	0x5
 2101 0981 03       		.byte	0x3
 2102 0982 0C000000 		.4byte	.LC3
 2103 0986 00       		.byte	0
 2104 0987 1C       		.uleb128 0x1c
 2105 0988 CC000000 		.4byte	.LVL50
 2106 098c 250C0000 		.4byte	0xc25
 2107 0990 B2090000 		.4byte	0x9b2
 2108 0994 1D       		.uleb128 0x1d
 2109 0995 01       		.byte	0x1
 2110 0996 53       		.byte	0x53
 2111 0997 02       		.byte	0x2
 2112 0998 75       		.byte	0x75
 2113 0999 00       		.sleb128 0
 2114 099a 1D       		.uleb128 0x1d
 2115 099b 01       		.byte	0x1
 2116 099c 51       		.byte	0x51
 2117 099d 03       		.byte	0x3
 2118 099e 0A       		.byte	0xa
 2119 099f 3001     		.2byte	0x130
 2120 09a1 1D       		.uleb128 0x1d
 2121 09a2 01       		.byte	0x1
 2122 09a3 50       		.byte	0x50
 2123 09a4 02       		.byte	0x2
 2124 09a5 76       		.byte	0x76
 2125 09a6 00       		.sleb128 0
 2126 09a7 1D       		.uleb128 0x1d
 2127 09a8 02       		.byte	0x2
 2128 09a9 7D       		.byte	0x7d
 2129 09aa 00       		.sleb128 0
 2130 09ab 05       		.byte	0x5
 2131 09ac 03       		.byte	0x3
 2132 09ad 08000000 		.4byte	.LC2
 2133 09b1 00       		.byte	0
 2134 09b2 1F       		.uleb128 0x1f
 2135 09b3 D2000000 		.4byte	.LVL51
 2136 09b7 980C0000 		.4byte	0xc98
 2137 09bb 20       		.uleb128 0x20
 2138 09bc E6000000 		.4byte	.LVL52
 2139 09c0 01       		.byte	0x1
 2140 09c1 A20C0000 		.4byte	0xca2
 2141 09c5 1D       		.uleb128 0x1d
 2142 09c6 01       		.byte	0x1
 2143 09c7 51       		.byte	0x51
 2144 09c8 05       		.byte	0x5
 2145 09c9 03       		.byte	0x3
 2146 09ca 14000000 		.4byte	.LC5
ARM GAS  /var/folders/5n/p_75w94d66l9ssrldxqdhh700000gn/T//cc5ZkR9h.s 			page 39


 2147 09ce 1D       		.uleb128 0x1d
 2148 09cf 01       		.byte	0x1
 2149 09d0 50       		.byte	0x50
 2150 09d1 01       		.byte	0x1
 2151 09d2 31       		.byte	0x31
 2152 09d3 00       		.byte	0
 2153 09d4 00       		.byte	0
 2154 09d5 21       		.uleb128 0x21
 2155 09d6 FF020000 		.4byte	.LASF106
 2156 09da 01       		.byte	0x1
 2157 09db 47       		.byte	0x47
 2158 09dc 01       		.byte	0x1
 2159 09dd D2000000 		.4byte	0xd2
 2160 09e1 00000000 		.4byte	.LFB7
 2161 09e5 0C000000 		.4byte	.LFE7
 2162 09e9 3F010000 		.4byte	.LLST10
 2163 09ed 01       		.byte	0x1
 2164 09ee 090A0000 		.4byte	0xa09
 2165 09f2 22       		.uleb128 0x22
 2166 09f3 7000     		.ascii	"p\000"
 2167 09f5 01       		.byte	0x1
 2168 09f6 47       		.byte	0x47
 2169 09f7 83020000 		.4byte	0x283
 2170 09fb 5F010000 		.4byte	.LLST11
 2171 09ff 1F       		.uleb128 0x1f
 2172 0a00 08000000 		.4byte	.LVL55
 2173 0a04 C50C0000 		.4byte	0xcc5
 2174 0a08 00       		.byte	0
 2175 0a09 23       		.uleb128 0x23
 2176 0a0a 87050000 		.4byte	0x587
 2177 0a0e 00000000 		.4byte	.LFB11
 2178 0a12 78000000 		.4byte	.LFE11
 2179 0a16 80010000 		.4byte	.LLST12
 2180 0a1a 01       		.byte	0x1
 2181 0a1b 220B0000 		.4byte	0xb22
 2182 0a1f 24       		.uleb128 0x24
 2183 0a20 94050000 		.4byte	0x594
 2184 0a24 A0010000 		.4byte	.LLST13
 2185 0a28 25       		.uleb128 0x25
 2186 0a29 87050000 		.4byte	0x587
 2187 0a2d 3C000000 		.4byte	.LBB12
 2188 0a31 30000000 		.4byte	.Ldebug_ranges0+0x30
 2189 0a35 01       		.byte	0x1
 2190 0a36 C8       		.byte	0xc8
 2191 0a37 B20A0000 		.4byte	0xab2
 2192 0a3b 26       		.uleb128 0x26
 2193 0a3c 48000000 		.4byte	.Ldebug_ranges0+0x48
 2194 0a40 24       		.uleb128 0x24
 2195 0a41 94050000 		.4byte	0x594
 2196 0a45 BE010000 		.4byte	.LLST14
 2197 0a49 1C       		.uleb128 0x1c
 2198 0a4a 46000000 		.4byte	.LVL66
 2199 0a4e D90C0000 		.4byte	0xcd9
 2200 0a52 5E0A0000 		.4byte	0xa5e
 2201 0a56 1D       		.uleb128 0x1d
 2202 0a57 01       		.byte	0x1
 2203 0a58 50       		.byte	0x50
ARM GAS  /var/folders/5n/p_75w94d66l9ssrldxqdhh700000gn/T//cc5ZkR9h.s 			page 40


 2204 0a59 03       		.byte	0x3
 2205 0a5a 0A       		.byte	0xa
 2206 0a5b E803     		.2byte	0x3e8
 2207 0a5d 00       		.byte	0
 2208 0a5e 1C       		.uleb128 0x1c
 2209 0a5f 54000000 		.4byte	.LVL67
 2210 0a63 EE0C0000 		.4byte	0xcee
 2211 0a67 7F0A0000 		.4byte	0xa7f
 2212 0a6b 1D       		.uleb128 0x1d
 2213 0a6c 01       		.byte	0x1
 2214 0a6d 52       		.byte	0x52
 2215 0a6e 03       		.byte	0x3
 2216 0a6f 74       		.byte	0x74
 2217 0a70 E907     		.sleb128 1001
 2218 0a72 1D       		.uleb128 0x1d
 2219 0a73 01       		.byte	0x1
 2220 0a74 51       		.byte	0x51
 2221 0a75 03       		.byte	0x3
 2222 0a76 74       		.byte	0x74
 2223 0a77 E807     		.sleb128 1000
 2224 0a79 1D       		.uleb128 0x1d
 2225 0a7a 01       		.byte	0x1
 2226 0a7b 50       		.byte	0x50
 2227 0a7c 01       		.byte	0x1
 2228 0a7d 33       		.byte	0x33
 2229 0a7e 00       		.byte	0
 2230 0a7f 1C       		.uleb128 0x1c
 2231 0a80 64000000 		.4byte	.LVL70
 2232 0a84 100D0000 		.4byte	0xd10
 2233 0a88 930A0000 		.4byte	0xa93
 2234 0a8c 1D       		.uleb128 0x1d
 2235 0a8d 01       		.byte	0x1
 2236 0a8e 50       		.byte	0x50
 2237 0a8f 02       		.byte	0x2
 2238 0a90 75       		.byte	0x75
 2239 0a91 00       		.sleb128 0
 2240 0a92 00       		.byte	0
 2241 0a93 20       		.uleb128 0x20
 2242 0a94 74000000 		.4byte	.LVL71
 2243 0a98 01       		.byte	0x1
 2244 0a99 EE0C0000 		.4byte	0xcee
 2245 0a9d 1D       		.uleb128 0x1d
 2246 0a9e 01       		.byte	0x1
 2247 0a9f 52       		.byte	0x52
 2248 0aa0 03       		.byte	0x3
 2249 0aa1 74       		.byte	0x74
 2250 0aa2 E500     		.sleb128 101
 2251 0aa4 1D       		.uleb128 0x1d
 2252 0aa5 01       		.byte	0x1
 2253 0aa6 51       		.byte	0x51
 2254 0aa7 02       		.byte	0x2
 2255 0aa8 75       		.byte	0x75
 2256 0aa9 00       		.sleb128 0
 2257 0aaa 1D       		.uleb128 0x1d
 2258 0aab 01       		.byte	0x1
 2259 0aac 50       		.byte	0x50
 2260 0aad 01       		.byte	0x1
ARM GAS  /var/folders/5n/p_75w94d66l9ssrldxqdhh700000gn/T//cc5ZkR9h.s 			page 41


 2261 0aae 34       		.byte	0x34
 2262 0aaf 00       		.byte	0
 2263 0ab0 00       		.byte	0
 2264 0ab1 00       		.byte	0
 2265 0ab2 1F       		.uleb128 0x1f
 2266 0ab3 08000000 		.4byte	.LVL56
 2267 0ab7 250D0000 		.4byte	0xd25
 2268 0abb 1C       		.uleb128 0x1c
 2269 0abc 10000000 		.4byte	.LVL58
 2270 0ac0 D90C0000 		.4byte	0xcd9
 2271 0ac4 CF0A0000 		.4byte	0xacf
 2272 0ac8 1D       		.uleb128 0x1d
 2273 0ac9 01       		.byte	0x1
 2274 0aca 50       		.byte	0x50
 2275 0acb 02       		.byte	0x2
 2276 0acc 08       		.byte	0x8
 2277 0acd 64       		.byte	0x64
 2278 0ace 00       		.byte	0
 2279 0acf 1C       		.uleb128 0x1c
 2280 0ad0 1E000000 		.4byte	.LVL59
 2281 0ad4 EE0C0000 		.4byte	0xcee
 2282 0ad8 F00A0000 		.4byte	0xaf0
 2283 0adc 1D       		.uleb128 0x1d
 2284 0add 01       		.byte	0x1
 2285 0ade 52       		.byte	0x52
 2286 0adf 03       		.byte	0x3
 2287 0ae0 74       		.byte	0x74
 2288 0ae1 E500     		.sleb128 101
 2289 0ae3 1D       		.uleb128 0x1d
 2290 0ae4 01       		.byte	0x1
 2291 0ae5 51       		.byte	0x51
 2292 0ae6 03       		.byte	0x3
 2293 0ae7 74       		.byte	0x74
 2294 0ae8 E400     		.sleb128 100
 2295 0aea 1D       		.uleb128 0x1d
 2296 0aeb 01       		.byte	0x1
 2297 0aec 50       		.byte	0x50
 2298 0aed 01       		.byte	0x1
 2299 0aee 31       		.byte	0x31
 2300 0aef 00       		.byte	0
 2301 0af0 1C       		.uleb128 0x1c
 2302 0af1 2A000000 		.4byte	.LVL63
 2303 0af5 D90C0000 		.4byte	0xcd9
 2304 0af9 040B0000 		.4byte	0xb04
 2305 0afd 1D       		.uleb128 0x1d
 2306 0afe 01       		.byte	0x1
 2307 0aff 50       		.byte	0x50
 2308 0b00 02       		.byte	0x2
 2309 0b01 08       		.byte	0x8
 2310 0b02 64       		.byte	0x64
 2311 0b03 00       		.byte	0
 2312 0b04 1E       		.uleb128 0x1e
 2313 0b05 38000000 		.4byte	.LVL64
 2314 0b09 EE0C0000 		.4byte	0xcee
 2315 0b0d 1D       		.uleb128 0x1d
 2316 0b0e 01       		.byte	0x1
 2317 0b0f 52       		.byte	0x52
ARM GAS  /var/folders/5n/p_75w94d66l9ssrldxqdhh700000gn/T//cc5ZkR9h.s 			page 42


 2318 0b10 03       		.byte	0x3
 2319 0b11 74       		.byte	0x74
 2320 0b12 E500     		.sleb128 101
 2321 0b14 1D       		.uleb128 0x1d
 2322 0b15 01       		.byte	0x1
 2323 0b16 51       		.byte	0x51
 2324 0b17 03       		.byte	0x3
 2325 0b18 74       		.byte	0x74
 2326 0b19 E400     		.sleb128 100
 2327 0b1b 1D       		.uleb128 0x1d
 2328 0b1c 01       		.byte	0x1
 2329 0b1d 50       		.byte	0x50
 2330 0b1e 01       		.byte	0x1
 2331 0b1f 32       		.byte	0x32
 2332 0b20 00       		.byte	0
 2333 0b21 00       		.byte	0
 2334 0b22 27       		.uleb128 0x27
 2335 0b23 21000000 		.4byte	.LASF83
 2336 0b27 08       		.byte	0x8
 2337 0b28 7A       		.byte	0x7a
 2338 0b29 03040000 		.4byte	0x403
 2339 0b2d 01       		.byte	0x1
 2340 0b2e 01       		.byte	0x1
 2341 0b2f 27       		.uleb128 0x27
 2342 0b30 23040000 		.4byte	.LASF84
 2343 0b34 09       		.byte	0x9
 2344 0b35 72       		.byte	0x72
 2345 0b36 79040000 		.4byte	0x479
 2346 0b3a 01       		.byte	0x1
 2347 0b3b 01       		.byte	0x1
 2348 0b3c 28       		.uleb128 0x28
 2349 0b3d 45020000 		.4byte	0x245
 2350 0b41 4C0B0000 		.4byte	0xb4c
 2351 0b45 29       		.uleb128 0x29
 2352 0b46 35030000 		.4byte	0x335
 2353 0b4a 04       		.byte	0x4
 2354 0b4b 00       		.byte	0
 2355 0b4c 27       		.uleb128 0x27
 2356 0b4d 47030000 		.4byte	.LASF85
 2357 0b51 0B       		.byte	0xb
 2358 0b52 B0       		.byte	0xb0
 2359 0b53 3C0B0000 		.4byte	0xb3c
 2360 0b57 01       		.byte	0x1
 2361 0b58 01       		.byte	0x1
 2362 0b59 28       		.uleb128 0x28
 2363 0b5a 83020000 		.4byte	0x283
 2364 0b5e 640B0000 		.4byte	0xb64
 2365 0b62 2A       		.uleb128 0x2a
 2366 0b63 00       		.byte	0
 2367 0b64 2B       		.uleb128 0x2b
 2368 0b65 776100   		.ascii	"wa\000"
 2369 0b68 0B       		.byte	0xb
 2370 0b69 B2       		.byte	0xb2
 2371 0b6a 700B0000 		.4byte	0xb70
 2372 0b6e 01       		.byte	0x1
 2373 0b6f 01       		.byte	0x1
 2374 0b70 12       		.uleb128 0x12
ARM GAS  /var/folders/5n/p_75w94d66l9ssrldxqdhh700000gn/T//cc5ZkR9h.s 			page 43


 2375 0b71 590B0000 		.4byte	0xb59
 2376 0b75 2C       		.uleb128 0x2c
 2377 0b76 0A020000 		.4byte	.LASF86
 2378 0b7a 01       		.byte	0x1
 2379 0b7b 58       		.byte	0x58
 2380 0b7c 870B0000 		.4byte	0xb87
 2381 0b80 01       		.byte	0x1
 2382 0b81 05       		.byte	0x5
 2383 0b82 03       		.byte	0x3
 2384 0b83 00000000 		.4byte	testthd1
 2385 0b87 12       		.uleb128 0x12
 2386 0b88 3A050000 		.4byte	0x53a
 2387 0b8c 2C       		.uleb128 0x2c
 2388 0b8d 13020000 		.4byte	.LASF87
 2389 0b91 01       		.byte	0x1
 2390 0b92 78       		.byte	0x78
 2391 0b93 870B0000 		.4byte	0xb87
 2392 0b97 01       		.byte	0x1
 2393 0b98 05       		.byte	0x5
 2394 0b99 03       		.byte	0x3
 2395 0b9a 00000000 		.4byte	testthd2
 2396 0b9e 2C       		.uleb128 0x2c
 2397 0b9f 1C020000 		.4byte	.LASF88
 2398 0ba3 01       		.byte	0x1
 2399 0ba4 B9       		.byte	0xb9
 2400 0ba5 870B0000 		.4byte	0xb87
 2401 0ba9 01       		.byte	0x1
 2402 0baa 05       		.byte	0x5
 2403 0bab 03       		.byte	0x3
 2404 0bac 00000000 		.4byte	testthd3
 2405 0bb0 2C       		.uleb128 0x2c
 2406 0bb1 25020000 		.4byte	.LASF89
 2407 0bb5 01       		.byte	0x1
 2408 0bb6 E2       		.byte	0xe2
 2409 0bb7 870B0000 		.4byte	0xb87
 2410 0bbb 01       		.byte	0x1
 2411 0bbc 05       		.byte	0x5
 2412 0bbd 03       		.byte	0x3
 2413 0bbe 00000000 		.4byte	testthd4
 2414 0bc2 28       		.uleb128 0x28
 2415 0bc3 D20B0000 		.4byte	0xbd2
 2416 0bc7 D20B0000 		.4byte	0xbd2
 2417 0bcb 29       		.uleb128 0x29
 2418 0bcc 35030000 		.4byte	0x335
 2419 0bd0 04       		.byte	0x4
 2420 0bd1 00       		.byte	0
 2421 0bd2 09       		.uleb128 0x9
 2422 0bd3 04       		.byte	0x4
 2423 0bd4 870B0000 		.4byte	0xb87
 2424 0bd8 2C       		.uleb128 0x2c
 2425 0bd9 B7030000 		.4byte	.LASF90
 2426 0bdd 01       		.byte	0x1
 2427 0bde EC       		.byte	0xec
 2428 0bdf EA0B0000 		.4byte	0xbea
 2429 0be3 01       		.byte	0x1
 2430 0be4 05       		.byte	0x5
 2431 0be5 03       		.byte	0x3
ARM GAS  /var/folders/5n/p_75w94d66l9ssrldxqdhh700000gn/T//cc5ZkR9h.s 			page 44


 2432 0be6 00000000 		.4byte	patternthd
 2433 0bea 12       		.uleb128 0x12
 2434 0beb C20B0000 		.4byte	0xbc2
 2435 0bef 2D       		.uleb128 0x2d
 2436 0bf0 01       		.byte	0x1
 2437 0bf1 E2000000 		.4byte	.LASF91
 2438 0bf5 06       		.byte	0x6
 2439 0bf6 6601     		.2byte	0x166
 2440 0bf8 01       		.byte	0x1
 2441 0bf9 C7000000 		.4byte	0xc7
 2442 0bfd 01       		.byte	0x1
 2443 0bfe 080C0000 		.4byte	0xc08
 2444 0c02 0E       		.uleb128 0xe
 2445 0c03 C7000000 		.4byte	0xc7
 2446 0c07 00       		.byte	0
 2447 0c08 2E       		.uleb128 0x2e
 2448 0c09 01       		.byte	0x1
 2449 0c0a 3F040000 		.4byte	.LASF92
 2450 0c0e 0B       		.byte	0xb
 2451 0c0f 63       		.byte	0x63
 2452 0c10 01       		.byte	0x1
 2453 0c11 9B000000 		.4byte	0x9b
 2454 0c15 01       		.byte	0x1
 2455 0c16 250C0000 		.4byte	0xc25
 2456 0c1a 0E       		.uleb128 0xe
 2457 0c1b 3B000000 		.4byte	0x3b
 2458 0c1f 0E       		.uleb128 0xe
 2459 0c20 9B000000 		.4byte	0x9b
 2460 0c24 00       		.byte	0
 2461 0c25 2D       		.uleb128 0x2d
 2462 0c26 01       		.byte	0x1
 2463 0c27 E7010000 		.4byte	.LASF93
 2464 0c2b 06       		.byte	0x6
 2465 0c2c 6401     		.2byte	0x164
 2466 0c2e 01       		.byte	0x1
 2467 0c2f 45020000 		.4byte	0x245
 2468 0c33 01       		.byte	0x1
 2469 0c34 520C0000 		.4byte	0xc52
 2470 0c38 0E       		.uleb128 0xe
 2471 0c39 83020000 		.4byte	0x283
 2472 0c3d 0E       		.uleb128 0xe
 2473 0c3e 30000000 		.4byte	0x30
 2474 0c42 0E       		.uleb128 0xe
 2475 0c43 C7000000 		.4byte	0xc7
 2476 0c47 0E       		.uleb128 0xe
 2477 0c48 19050000 		.4byte	0x519
 2478 0c4c 0E       		.uleb128 0xe
 2479 0c4d 83020000 		.4byte	0x283
 2480 0c51 00       		.byte	0
 2481 0c52 2D       		.uleb128 0x2d
 2482 0c53 01       		.byte	0x1
 2483 0c54 A2000000 		.4byte	.LASF94
 2484 0c58 06       		.byte	0x6
 2485 0c59 6201     		.2byte	0x162
 2486 0c5b 01       		.byte	0x1
 2487 0c5c 45020000 		.4byte	0x245
 2488 0c60 01       		.byte	0x1
ARM GAS  /var/folders/5n/p_75w94d66l9ssrldxqdhh700000gn/T//cc5ZkR9h.s 			page 45


 2489 0c61 7F0C0000 		.4byte	0xc7f
 2490 0c65 0E       		.uleb128 0xe
 2491 0c66 83020000 		.4byte	0x283
 2492 0c6a 0E       		.uleb128 0xe
 2493 0c6b 30000000 		.4byte	0x30
 2494 0c6f 0E       		.uleb128 0xe
 2495 0c70 C7000000 		.4byte	0xc7
 2496 0c74 0E       		.uleb128 0xe
 2497 0c75 19050000 		.4byte	0x519
 2498 0c79 0E       		.uleb128 0xe
 2499 0c7a 83020000 		.4byte	0x283
 2500 0c7e 00       		.byte	0
 2501 0c7f 2D       		.uleb128 0x2d
 2502 0c80 01       		.byte	0x1
 2503 0c81 36020000 		.4byte	.LASF95
 2504 0c85 06       		.byte	0x6
 2505 0c86 6701     		.2byte	0x167
 2506 0c88 01       		.byte	0x1
 2507 0c89 45020000 		.4byte	0x245
 2508 0c8d 01       		.byte	0x1
 2509 0c8e 980C0000 		.4byte	0xc98
 2510 0c92 0E       		.uleb128 0xe
 2511 0c93 45020000 		.4byte	0x245
 2512 0c97 00       		.byte	0
 2513 0c98 2F       		.uleb128 0x2f
 2514 0c99 01       		.byte	0x1
 2515 0c9a 42020000 		.4byte	.LASF107
 2516 0c9e 0B       		.byte	0xb
 2517 0c9f 67       		.byte	0x67
 2518 0ca0 01       		.byte	0x1
 2519 0ca1 01       		.byte	0x1
 2520 0ca2 2E       		.uleb128 0x2e
 2521 0ca3 01       		.byte	0x1
 2522 0ca4 75020000 		.4byte	.LASF96
 2523 0ca8 0B       		.byte	0xb
 2524 0ca9 64       		.byte	0x64
 2525 0caa 01       		.byte	0x1
 2526 0cab 9B000000 		.4byte	0x9b
 2527 0caf 01       		.byte	0x1
 2528 0cb0 BF0C0000 		.4byte	0xcbf
 2529 0cb4 0E       		.uleb128 0xe
 2530 0cb5 3B000000 		.4byte	0x3b
 2531 0cb9 0E       		.uleb128 0xe
 2532 0cba BF0C0000 		.4byte	0xcbf
 2533 0cbe 00       		.byte	0
 2534 0cbf 09       		.uleb128 0x9
 2535 0cc0 04       		.byte	0x4
 2536 0cc1 0C050000 		.4byte	0x50c
 2537 0cc5 30       		.uleb128 0x30
 2538 0cc6 01       		.byte	0x1
 2539 0cc7 92000000 		.4byte	.LASF97
 2540 0ccb 0B       		.byte	0xb
 2541 0ccc 61       		.byte	0x61
 2542 0ccd 01       		.byte	0x1
 2543 0cce 01       		.byte	0x1
 2544 0ccf D90C0000 		.4byte	0xcd9
 2545 0cd3 0E       		.uleb128 0xe
ARM GAS  /var/folders/5n/p_75w94d66l9ssrldxqdhh700000gn/T//cc5ZkR9h.s 			page 46


 2546 0cd4 0C050000 		.4byte	0x50c
 2547 0cd8 00       		.byte	0
 2548 0cd9 31       		.uleb128 0x31
 2549 0cda 01       		.byte	0x1
 2550 0cdb 07040000 		.4byte	.LASF98
 2551 0cdf 06       		.byte	0x6
 2552 0ce0 6901     		.2byte	0x169
 2553 0ce2 01       		.byte	0x1
 2554 0ce3 01       		.byte	0x1
 2555 0ce4 EE0C0000 		.4byte	0xcee
 2556 0ce8 0E       		.uleb128 0xe
 2557 0ce9 E8000000 		.4byte	0xe8
 2558 0ced 00       		.byte	0
 2559 0cee 2E       		.uleb128 0x2e
 2560 0cef 01       		.byte	0x1
 2561 0cf0 C1000000 		.4byte	.LASF99
 2562 0cf4 0B       		.byte	0xb
 2563 0cf5 65       		.byte	0x65
 2564 0cf6 01       		.byte	0x1
 2565 0cf7 9B000000 		.4byte	0x9b
 2566 0cfb 01       		.byte	0x1
 2567 0cfc 100D0000 		.4byte	0xd10
 2568 0d00 0E       		.uleb128 0xe
 2569 0d01 3B000000 		.4byte	0x3b
 2570 0d05 0E       		.uleb128 0xe
 2571 0d06 E8000000 		.4byte	0xe8
 2572 0d0a 0E       		.uleb128 0xe
 2573 0d0b E8000000 		.4byte	0xe8
 2574 0d0f 00       		.byte	0
 2575 0d10 31       		.uleb128 0x31
 2576 0d11 01       		.byte	0x1
 2577 0d12 AE020000 		.4byte	.LASF100
 2578 0d16 06       		.byte	0x6
 2579 0d17 6A01     		.2byte	0x16a
 2580 0d19 01       		.byte	0x1
 2581 0d1a 01       		.byte	0x1
 2582 0d1b 250D0000 		.4byte	0xd25
 2583 0d1f 0E       		.uleb128 0xe
 2584 0d20 E8000000 		.4byte	0xe8
 2585 0d24 00       		.byte	0
 2586 0d25 32       		.uleb128 0x32
 2587 0d26 01       		.byte	0x1
 2588 0d27 1C030000 		.4byte	.LASF108
 2589 0d2b 0B       		.byte	0xb
 2590 0d2c 68       		.byte	0x68
 2591 0d2d 01       		.byte	0x1
 2592 0d2e E8000000 		.4byte	0xe8
 2593 0d32 01       		.byte	0x1
 2594 0d33 00       		.byte	0
 2595              		.section	.debug_abbrev,"",%progbits
 2596              	.Ldebug_abbrev0:
 2597 0000 01       		.uleb128 0x1
 2598 0001 11       		.uleb128 0x11
 2599 0002 01       		.byte	0x1
 2600 0003 25       		.uleb128 0x25
 2601 0004 0E       		.uleb128 0xe
 2602 0005 13       		.uleb128 0x13
ARM GAS  /var/folders/5n/p_75w94d66l9ssrldxqdhh700000gn/T//cc5ZkR9h.s 			page 47


 2603 0006 0B       		.uleb128 0xb
 2604 0007 03       		.uleb128 0x3
 2605 0008 0E       		.uleb128 0xe
 2606 0009 1B       		.uleb128 0x1b
 2607 000a 0E       		.uleb128 0xe
 2608 000b 55       		.uleb128 0x55
 2609 000c 06       		.uleb128 0x6
 2610 000d 11       		.uleb128 0x11
 2611 000e 01       		.uleb128 0x1
 2612 000f 52       		.uleb128 0x52
 2613 0010 01       		.uleb128 0x1
 2614 0011 10       		.uleb128 0x10
 2615 0012 06       		.uleb128 0x6
 2616 0013 00       		.byte	0
 2617 0014 00       		.byte	0
 2618 0015 02       		.uleb128 0x2
 2619 0016 24       		.uleb128 0x24
 2620 0017 00       		.byte	0
 2621 0018 0B       		.uleb128 0xb
 2622 0019 0B       		.uleb128 0xb
 2623 001a 3E       		.uleb128 0x3e
 2624 001b 0B       		.uleb128 0xb
 2625 001c 03       		.uleb128 0x3
 2626 001d 08       		.uleb128 0x8
 2627 001e 00       		.byte	0
 2628 001f 00       		.byte	0
 2629 0020 03       		.uleb128 0x3
 2630 0021 16       		.uleb128 0x16
 2631 0022 00       		.byte	0
 2632 0023 03       		.uleb128 0x3
 2633 0024 0E       		.uleb128 0xe
 2634 0025 3A       		.uleb128 0x3a
 2635 0026 0B       		.uleb128 0xb
 2636 0027 3B       		.uleb128 0x3b
 2637 0028 0B       		.uleb128 0xb
 2638 0029 49       		.uleb128 0x49
 2639 002a 13       		.uleb128 0x13
 2640 002b 00       		.byte	0
 2641 002c 00       		.byte	0
 2642 002d 04       		.uleb128 0x4
 2643 002e 24       		.uleb128 0x24
 2644 002f 00       		.byte	0
 2645 0030 0B       		.uleb128 0xb
 2646 0031 0B       		.uleb128 0xb
 2647 0032 3E       		.uleb128 0x3e
 2648 0033 0B       		.uleb128 0xb
 2649 0034 03       		.uleb128 0x3
 2650 0035 0E       		.uleb128 0xe
 2651 0036 00       		.byte	0
 2652 0037 00       		.byte	0
 2653 0038 05       		.uleb128 0x5
 2654 0039 13       		.uleb128 0x13
 2655 003a 01       		.byte	0x1
 2656 003b 03       		.uleb128 0x3
 2657 003c 0E       		.uleb128 0xe
 2658 003d 0B       		.uleb128 0xb
 2659 003e 0B       		.uleb128 0xb
ARM GAS  /var/folders/5n/p_75w94d66l9ssrldxqdhh700000gn/T//cc5ZkR9h.s 			page 48


 2660 003f 3A       		.uleb128 0x3a
 2661 0040 0B       		.uleb128 0xb
 2662 0041 3B       		.uleb128 0x3b
 2663 0042 0B       		.uleb128 0xb
 2664 0043 01       		.uleb128 0x1
 2665 0044 13       		.uleb128 0x13
 2666 0045 00       		.byte	0
 2667 0046 00       		.byte	0
 2668 0047 06       		.uleb128 0x6
 2669 0048 0D       		.uleb128 0xd
 2670 0049 00       		.byte	0
 2671 004a 03       		.uleb128 0x3
 2672 004b 0E       		.uleb128 0xe
 2673 004c 3A       		.uleb128 0x3a
 2674 004d 0B       		.uleb128 0xb
 2675 004e 3B       		.uleb128 0x3b
 2676 004f 0B       		.uleb128 0xb
 2677 0050 49       		.uleb128 0x49
 2678 0051 13       		.uleb128 0x13
 2679 0052 38       		.uleb128 0x38
 2680 0053 0A       		.uleb128 0xa
 2681 0054 00       		.byte	0
 2682 0055 00       		.byte	0
 2683 0056 07       		.uleb128 0x7
 2684 0057 0D       		.uleb128 0xd
 2685 0058 00       		.byte	0
 2686 0059 03       		.uleb128 0x3
 2687 005a 08       		.uleb128 0x8
 2688 005b 3A       		.uleb128 0x3a
 2689 005c 0B       		.uleb128 0xb
 2690 005d 3B       		.uleb128 0x3b
 2691 005e 0B       		.uleb128 0xb
 2692 005f 49       		.uleb128 0x49
 2693 0060 13       		.uleb128 0x13
 2694 0061 38       		.uleb128 0x38
 2695 0062 0A       		.uleb128 0xa
 2696 0063 00       		.byte	0
 2697 0064 00       		.byte	0
 2698 0065 08       		.uleb128 0x8
 2699 0066 13       		.uleb128 0x13
 2700 0067 01       		.byte	0x1
 2701 0068 0B       		.uleb128 0xb
 2702 0069 0B       		.uleb128 0xb
 2703 006a 3A       		.uleb128 0x3a
 2704 006b 0B       		.uleb128 0xb
 2705 006c 3B       		.uleb128 0x3b
 2706 006d 0B       		.uleb128 0xb
 2707 006e 01       		.uleb128 0x1
 2708 006f 13       		.uleb128 0x13
 2709 0070 00       		.byte	0
 2710 0071 00       		.byte	0
 2711 0072 09       		.uleb128 0x9
 2712 0073 0F       		.uleb128 0xf
 2713 0074 00       		.byte	0
 2714 0075 0B       		.uleb128 0xb
 2715 0076 0B       		.uleb128 0xb
 2716 0077 49       		.uleb128 0x49
ARM GAS  /var/folders/5n/p_75w94d66l9ssrldxqdhh700000gn/T//cc5ZkR9h.s 			page 49


 2717 0078 13       		.uleb128 0x13
 2718 0079 00       		.byte	0
 2719 007a 00       		.byte	0
 2720 007b 0A       		.uleb128 0xa
 2721 007c 0F       		.uleb128 0xf
 2722 007d 00       		.byte	0
 2723 007e 0B       		.uleb128 0xb
 2724 007f 0B       		.uleb128 0xb
 2725 0080 00       		.byte	0
 2726 0081 00       		.byte	0
 2727 0082 0B       		.uleb128 0xb
 2728 0083 0D       		.uleb128 0xd
 2729 0084 00       		.byte	0
 2730 0085 03       		.uleb128 0x3
 2731 0086 08       		.uleb128 0x8
 2732 0087 3A       		.uleb128 0x3a
 2733 0088 0B       		.uleb128 0xb
 2734 0089 3B       		.uleb128 0x3b
 2735 008a 05       		.uleb128 0x5
 2736 008b 49       		.uleb128 0x49
 2737 008c 13       		.uleb128 0x13
 2738 008d 38       		.uleb128 0x38
 2739 008e 0A       		.uleb128 0xa
 2740 008f 00       		.byte	0
 2741 0090 00       		.byte	0
 2742 0091 0C       		.uleb128 0xc
 2743 0092 13       		.uleb128 0x13
 2744 0093 01       		.byte	0x1
 2745 0094 03       		.uleb128 0x3
 2746 0095 0E       		.uleb128 0xe
 2747 0096 0B       		.uleb128 0xb
 2748 0097 0B       		.uleb128 0xb
 2749 0098 3A       		.uleb128 0x3a
 2750 0099 0B       		.uleb128 0xb
 2751 009a 3B       		.uleb128 0x3b
 2752 009b 05       		.uleb128 0x5
 2753 009c 01       		.uleb128 0x1
 2754 009d 13       		.uleb128 0x13
 2755 009e 00       		.byte	0
 2756 009f 00       		.byte	0
 2757 00a0 0D       		.uleb128 0xd
 2758 00a1 15       		.uleb128 0x15
 2759 00a2 01       		.byte	0x1
 2760 00a3 27       		.uleb128 0x27
 2761 00a4 0C       		.uleb128 0xc
 2762 00a5 01       		.uleb128 0x1
 2763 00a6 13       		.uleb128 0x13
 2764 00a7 00       		.byte	0
 2765 00a8 00       		.byte	0
 2766 00a9 0E       		.uleb128 0xe
 2767 00aa 05       		.uleb128 0x5
 2768 00ab 00       		.byte	0
 2769 00ac 49       		.uleb128 0x49
 2770 00ad 13       		.uleb128 0x13
 2771 00ae 00       		.byte	0
 2772 00af 00       		.byte	0
 2773 00b0 0F       		.uleb128 0xf
ARM GAS  /var/folders/5n/p_75w94d66l9ssrldxqdhh700000gn/T//cc5ZkR9h.s 			page 50


 2774 00b1 35       		.uleb128 0x35
 2775 00b2 00       		.byte	0
 2776 00b3 49       		.uleb128 0x49
 2777 00b4 13       		.uleb128 0x13
 2778 00b5 00       		.byte	0
 2779 00b6 00       		.byte	0
 2780 00b7 10       		.uleb128 0x10
 2781 00b8 17       		.uleb128 0x17
 2782 00b9 01       		.byte	0x1
 2783 00ba 0B       		.uleb128 0xb
 2784 00bb 0B       		.uleb128 0xb
 2785 00bc 3A       		.uleb128 0x3a
 2786 00bd 0B       		.uleb128 0xb
 2787 00be 3B       		.uleb128 0x3b
 2788 00bf 0B       		.uleb128 0xb
 2789 00c0 01       		.uleb128 0x1
 2790 00c1 13       		.uleb128 0x13
 2791 00c2 00       		.byte	0
 2792 00c3 00       		.byte	0
 2793 00c4 11       		.uleb128 0x11
 2794 00c5 0D       		.uleb128 0xd
 2795 00c6 00       		.byte	0
 2796 00c7 03       		.uleb128 0x3
 2797 00c8 0E       		.uleb128 0xe
 2798 00c9 3A       		.uleb128 0x3a
 2799 00ca 0B       		.uleb128 0xb
 2800 00cb 3B       		.uleb128 0x3b
 2801 00cc 0B       		.uleb128 0xb
 2802 00cd 49       		.uleb128 0x49
 2803 00ce 13       		.uleb128 0x13
 2804 00cf 00       		.byte	0
 2805 00d0 00       		.byte	0
 2806 00d1 12       		.uleb128 0x12
 2807 00d2 26       		.uleb128 0x26
 2808 00d3 00       		.byte	0
 2809 00d4 49       		.uleb128 0x49
 2810 00d5 13       		.uleb128 0x13
 2811 00d6 00       		.byte	0
 2812 00d7 00       		.byte	0
 2813 00d8 13       		.uleb128 0x13
 2814 00d9 15       		.uleb128 0x15
 2815 00da 01       		.byte	0x1
 2816 00db 27       		.uleb128 0x27
 2817 00dc 0C       		.uleb128 0xc
 2818 00dd 49       		.uleb128 0x49
 2819 00de 13       		.uleb128 0x13
 2820 00df 01       		.uleb128 0x1
 2821 00e0 13       		.uleb128 0x13
 2822 00e1 00       		.byte	0
 2823 00e2 00       		.byte	0
 2824 00e3 14       		.uleb128 0x14
 2825 00e4 15       		.uleb128 0x15
 2826 00e5 00       		.byte	0
 2827 00e6 27       		.uleb128 0x27
 2828 00e7 0C       		.uleb128 0xc
 2829 00e8 00       		.byte	0
 2830 00e9 00       		.byte	0
ARM GAS  /var/folders/5n/p_75w94d66l9ssrldxqdhh700000gn/T//cc5ZkR9h.s 			page 51


 2831 00ea 15       		.uleb128 0x15
 2832 00eb 2E       		.uleb128 0x2e
 2833 00ec 01       		.byte	0x1
 2834 00ed 03       		.uleb128 0x3
 2835 00ee 0E       		.uleb128 0xe
 2836 00ef 3A       		.uleb128 0x3a
 2837 00f0 0B       		.uleb128 0xb
 2838 00f1 3B       		.uleb128 0x3b
 2839 00f2 0B       		.uleb128 0xb
 2840 00f3 27       		.uleb128 0x27
 2841 00f4 0C       		.uleb128 0xc
 2842 00f5 20       		.uleb128 0x20
 2843 00f6 0B       		.uleb128 0xb
 2844 00f7 01       		.uleb128 0x1
 2845 00f8 13       		.uleb128 0x13
 2846 00f9 00       		.byte	0
 2847 00fa 00       		.byte	0
 2848 00fb 16       		.uleb128 0x16
 2849 00fc 34       		.uleb128 0x34
 2850 00fd 00       		.byte	0
 2851 00fe 03       		.uleb128 0x3
 2852 00ff 0E       		.uleb128 0xe
 2853 0100 3A       		.uleb128 0x3a
 2854 0101 0B       		.uleb128 0xb
 2855 0102 3B       		.uleb128 0x3b
 2856 0103 0B       		.uleb128 0xb
 2857 0104 49       		.uleb128 0x49
 2858 0105 13       		.uleb128 0x13
 2859 0106 00       		.byte	0
 2860 0107 00       		.byte	0
 2861 0108 17       		.uleb128 0x17
 2862 0109 2E       		.uleb128 0x2e
 2863 010a 01       		.byte	0x1
 2864 010b 03       		.uleb128 0x3
 2865 010c 0E       		.uleb128 0xe
 2866 010d 3A       		.uleb128 0x3a
 2867 010e 0B       		.uleb128 0xb
 2868 010f 3B       		.uleb128 0x3b
 2869 0110 0B       		.uleb128 0xb
 2870 0111 27       		.uleb128 0x27
 2871 0112 0C       		.uleb128 0xc
 2872 0113 11       		.uleb128 0x11
 2873 0114 01       		.uleb128 0x1
 2874 0115 12       		.uleb128 0x12
 2875 0116 01       		.uleb128 0x1
 2876 0117 40       		.uleb128 0x40
 2877 0118 06       		.uleb128 0x6
 2878 0119 9742     		.uleb128 0x2117
 2879 011b 0C       		.uleb128 0xc
 2880 011c 01       		.uleb128 0x1
 2881 011d 13       		.uleb128 0x13
 2882 011e 00       		.byte	0
 2883 011f 00       		.byte	0
 2884 0120 18       		.uleb128 0x18
 2885 0121 34       		.uleb128 0x34
 2886 0122 00       		.byte	0
 2887 0123 03       		.uleb128 0x3
ARM GAS  /var/folders/5n/p_75w94d66l9ssrldxqdhh700000gn/T//cc5ZkR9h.s 			page 52


 2888 0124 0E       		.uleb128 0xe
 2889 0125 3A       		.uleb128 0x3a
 2890 0126 0B       		.uleb128 0xb
 2891 0127 3B       		.uleb128 0x3b
 2892 0128 0B       		.uleb128 0xb
 2893 0129 49       		.uleb128 0x49
 2894 012a 13       		.uleb128 0x13
 2895 012b 02       		.uleb128 0x2
 2896 012c 0A       		.uleb128 0xa
 2897 012d 00       		.byte	0
 2898 012e 00       		.byte	0
 2899 012f 19       		.uleb128 0x19
 2900 0130 34       		.uleb128 0x34
 2901 0131 00       		.byte	0
 2902 0132 03       		.uleb128 0x3
 2903 0133 08       		.uleb128 0x8
 2904 0134 3A       		.uleb128 0x3a
 2905 0135 0B       		.uleb128 0xb
 2906 0136 3B       		.uleb128 0x3b
 2907 0137 0B       		.uleb128 0xb
 2908 0138 49       		.uleb128 0x49
 2909 0139 13       		.uleb128 0x13
 2910 013a 02       		.uleb128 0x2
 2911 013b 06       		.uleb128 0x6
 2912 013c 00       		.byte	0
 2913 013d 00       		.byte	0
 2914 013e 1A       		.uleb128 0x1a
 2915 013f 0B       		.uleb128 0xb
 2916 0140 01       		.byte	0x1
 2917 0141 11       		.uleb128 0x11
 2918 0142 01       		.uleb128 0x1
 2919 0143 12       		.uleb128 0x12
 2920 0144 01       		.uleb128 0x1
 2921 0145 01       		.uleb128 0x1
 2922 0146 13       		.uleb128 0x13
 2923 0147 00       		.byte	0
 2924 0148 00       		.byte	0
 2925 0149 1B       		.uleb128 0x1b
 2926 014a 0B       		.uleb128 0xb
 2927 014b 01       		.byte	0x1
 2928 014c 55       		.uleb128 0x55
 2929 014d 06       		.uleb128 0x6
 2930 014e 01       		.uleb128 0x1
 2931 014f 13       		.uleb128 0x13
 2932 0150 00       		.byte	0
 2933 0151 00       		.byte	0
 2934 0152 1C       		.uleb128 0x1c
 2935 0153 898201   		.uleb128 0x4109
 2936 0156 01       		.byte	0x1
 2937 0157 11       		.uleb128 0x11
 2938 0158 01       		.uleb128 0x1
 2939 0159 31       		.uleb128 0x31
 2940 015a 13       		.uleb128 0x13
 2941 015b 01       		.uleb128 0x1
 2942 015c 13       		.uleb128 0x13
 2943 015d 00       		.byte	0
 2944 015e 00       		.byte	0
ARM GAS  /var/folders/5n/p_75w94d66l9ssrldxqdhh700000gn/T//cc5ZkR9h.s 			page 53


 2945 015f 1D       		.uleb128 0x1d
 2946 0160 8A8201   		.uleb128 0x410a
 2947 0163 00       		.byte	0
 2948 0164 02       		.uleb128 0x2
 2949 0165 0A       		.uleb128 0xa
 2950 0166 9142     		.uleb128 0x2111
 2951 0168 0A       		.uleb128 0xa
 2952 0169 00       		.byte	0
 2953 016a 00       		.byte	0
 2954 016b 1E       		.uleb128 0x1e
 2955 016c 898201   		.uleb128 0x4109
 2956 016f 01       		.byte	0x1
 2957 0170 11       		.uleb128 0x11
 2958 0171 01       		.uleb128 0x1
 2959 0172 31       		.uleb128 0x31
 2960 0173 13       		.uleb128 0x13
 2961 0174 00       		.byte	0
 2962 0175 00       		.byte	0
 2963 0176 1F       		.uleb128 0x1f
 2964 0177 898201   		.uleb128 0x4109
 2965 017a 00       		.byte	0
 2966 017b 11       		.uleb128 0x11
 2967 017c 01       		.uleb128 0x1
 2968 017d 31       		.uleb128 0x31
 2969 017e 13       		.uleb128 0x13
 2970 017f 00       		.byte	0
 2971 0180 00       		.byte	0
 2972 0181 20       		.uleb128 0x20
 2973 0182 898201   		.uleb128 0x4109
 2974 0185 01       		.byte	0x1
 2975 0186 11       		.uleb128 0x11
 2976 0187 01       		.uleb128 0x1
 2977 0188 9542     		.uleb128 0x2115
 2978 018a 0C       		.uleb128 0xc
 2979 018b 31       		.uleb128 0x31
 2980 018c 13       		.uleb128 0x13
 2981 018d 00       		.byte	0
 2982 018e 00       		.byte	0
 2983 018f 21       		.uleb128 0x21
 2984 0190 2E       		.uleb128 0x2e
 2985 0191 01       		.byte	0x1
 2986 0192 03       		.uleb128 0x3
 2987 0193 0E       		.uleb128 0xe
 2988 0194 3A       		.uleb128 0x3a
 2989 0195 0B       		.uleb128 0xb
 2990 0196 3B       		.uleb128 0x3b
 2991 0197 0B       		.uleb128 0xb
 2992 0198 27       		.uleb128 0x27
 2993 0199 0C       		.uleb128 0xc
 2994 019a 49       		.uleb128 0x49
 2995 019b 13       		.uleb128 0x13
 2996 019c 11       		.uleb128 0x11
 2997 019d 01       		.uleb128 0x1
 2998 019e 12       		.uleb128 0x12
 2999 019f 01       		.uleb128 0x1
 3000 01a0 40       		.uleb128 0x40
 3001 01a1 06       		.uleb128 0x6
ARM GAS  /var/folders/5n/p_75w94d66l9ssrldxqdhh700000gn/T//cc5ZkR9h.s 			page 54


 3002 01a2 9742     		.uleb128 0x2117
 3003 01a4 0C       		.uleb128 0xc
 3004 01a5 01       		.uleb128 0x1
 3005 01a6 13       		.uleb128 0x13
 3006 01a7 00       		.byte	0
 3007 01a8 00       		.byte	0
 3008 01a9 22       		.uleb128 0x22
 3009 01aa 05       		.uleb128 0x5
 3010 01ab 00       		.byte	0
 3011 01ac 03       		.uleb128 0x3
 3012 01ad 08       		.uleb128 0x8
 3013 01ae 3A       		.uleb128 0x3a
 3014 01af 0B       		.uleb128 0xb
 3015 01b0 3B       		.uleb128 0x3b
 3016 01b1 0B       		.uleb128 0xb
 3017 01b2 49       		.uleb128 0x49
 3018 01b3 13       		.uleb128 0x13
 3019 01b4 02       		.uleb128 0x2
 3020 01b5 06       		.uleb128 0x6
 3021 01b6 00       		.byte	0
 3022 01b7 00       		.byte	0
 3023 01b8 23       		.uleb128 0x23
 3024 01b9 2E       		.uleb128 0x2e
 3025 01ba 01       		.byte	0x1
 3026 01bb 31       		.uleb128 0x31
 3027 01bc 13       		.uleb128 0x13
 3028 01bd 11       		.uleb128 0x11
 3029 01be 01       		.uleb128 0x1
 3030 01bf 12       		.uleb128 0x12
 3031 01c0 01       		.uleb128 0x1
 3032 01c1 40       		.uleb128 0x40
 3033 01c2 06       		.uleb128 0x6
 3034 01c3 9742     		.uleb128 0x2117
 3035 01c5 0C       		.uleb128 0xc
 3036 01c6 01       		.uleb128 0x1
 3037 01c7 13       		.uleb128 0x13
 3038 01c8 00       		.byte	0
 3039 01c9 00       		.byte	0
 3040 01ca 24       		.uleb128 0x24
 3041 01cb 34       		.uleb128 0x34
 3042 01cc 00       		.byte	0
 3043 01cd 31       		.uleb128 0x31
 3044 01ce 13       		.uleb128 0x13
 3045 01cf 02       		.uleb128 0x2
 3046 01d0 06       		.uleb128 0x6
 3047 01d1 00       		.byte	0
 3048 01d2 00       		.byte	0
 3049 01d3 25       		.uleb128 0x25
 3050 01d4 1D       		.uleb128 0x1d
 3051 01d5 01       		.byte	0x1
 3052 01d6 31       		.uleb128 0x31
 3053 01d7 13       		.uleb128 0x13
 3054 01d8 52       		.uleb128 0x52
 3055 01d9 01       		.uleb128 0x1
 3056 01da 55       		.uleb128 0x55
 3057 01db 06       		.uleb128 0x6
 3058 01dc 58       		.uleb128 0x58
ARM GAS  /var/folders/5n/p_75w94d66l9ssrldxqdhh700000gn/T//cc5ZkR9h.s 			page 55


 3059 01dd 0B       		.uleb128 0xb
 3060 01de 59       		.uleb128 0x59
 3061 01df 0B       		.uleb128 0xb
 3062 01e0 01       		.uleb128 0x1
 3063 01e1 13       		.uleb128 0x13
 3064 01e2 00       		.byte	0
 3065 01e3 00       		.byte	0
 3066 01e4 26       		.uleb128 0x26
 3067 01e5 0B       		.uleb128 0xb
 3068 01e6 01       		.byte	0x1
 3069 01e7 55       		.uleb128 0x55
 3070 01e8 06       		.uleb128 0x6
 3071 01e9 00       		.byte	0
 3072 01ea 00       		.byte	0
 3073 01eb 27       		.uleb128 0x27
 3074 01ec 34       		.uleb128 0x34
 3075 01ed 00       		.byte	0
 3076 01ee 03       		.uleb128 0x3
 3077 01ef 0E       		.uleb128 0xe
 3078 01f0 3A       		.uleb128 0x3a
 3079 01f1 0B       		.uleb128 0xb
 3080 01f2 3B       		.uleb128 0x3b
 3081 01f3 0B       		.uleb128 0xb
 3082 01f4 49       		.uleb128 0x49
 3083 01f5 13       		.uleb128 0x13
 3084 01f6 3F       		.uleb128 0x3f
 3085 01f7 0C       		.uleb128 0xc
 3086 01f8 3C       		.uleb128 0x3c
 3087 01f9 0C       		.uleb128 0xc
 3088 01fa 00       		.byte	0
 3089 01fb 00       		.byte	0
 3090 01fc 28       		.uleb128 0x28
 3091 01fd 01       		.uleb128 0x1
 3092 01fe 01       		.byte	0x1
 3093 01ff 49       		.uleb128 0x49
 3094 0200 13       		.uleb128 0x13
 3095 0201 01       		.uleb128 0x1
 3096 0202 13       		.uleb128 0x13
 3097 0203 00       		.byte	0
 3098 0204 00       		.byte	0
 3099 0205 29       		.uleb128 0x29
 3100 0206 21       		.uleb128 0x21
 3101 0207 00       		.byte	0
 3102 0208 49       		.uleb128 0x49
 3103 0209 13       		.uleb128 0x13
 3104 020a 2F       		.uleb128 0x2f
 3105 020b 0B       		.uleb128 0xb
 3106 020c 00       		.byte	0
 3107 020d 00       		.byte	0
 3108 020e 2A       		.uleb128 0x2a
 3109 020f 21       		.uleb128 0x21
 3110 0210 00       		.byte	0
 3111 0211 00       		.byte	0
 3112 0212 00       		.byte	0
 3113 0213 2B       		.uleb128 0x2b
 3114 0214 34       		.uleb128 0x34
 3115 0215 00       		.byte	0
ARM GAS  /var/folders/5n/p_75w94d66l9ssrldxqdhh700000gn/T//cc5ZkR9h.s 			page 56


 3116 0216 03       		.uleb128 0x3
 3117 0217 08       		.uleb128 0x8
 3118 0218 3A       		.uleb128 0x3a
 3119 0219 0B       		.uleb128 0xb
 3120 021a 3B       		.uleb128 0x3b
 3121 021b 0B       		.uleb128 0xb
 3122 021c 49       		.uleb128 0x49
 3123 021d 13       		.uleb128 0x13
 3124 021e 3F       		.uleb128 0x3f
 3125 021f 0C       		.uleb128 0xc
 3126 0220 3C       		.uleb128 0x3c
 3127 0221 0C       		.uleb128 0xc
 3128 0222 00       		.byte	0
 3129 0223 00       		.byte	0
 3130 0224 2C       		.uleb128 0x2c
 3131 0225 34       		.uleb128 0x34
 3132 0226 00       		.byte	0
 3133 0227 03       		.uleb128 0x3
 3134 0228 0E       		.uleb128 0xe
 3135 0229 3A       		.uleb128 0x3a
 3136 022a 0B       		.uleb128 0xb
 3137 022b 3B       		.uleb128 0x3b
 3138 022c 0B       		.uleb128 0xb
 3139 022d 49       		.uleb128 0x49
 3140 022e 13       		.uleb128 0x13
 3141 022f 3F       		.uleb128 0x3f
 3142 0230 0C       		.uleb128 0xc
 3143 0231 02       		.uleb128 0x2
 3144 0232 0A       		.uleb128 0xa
 3145 0233 00       		.byte	0
 3146 0234 00       		.byte	0
 3147 0235 2D       		.uleb128 0x2d
 3148 0236 2E       		.uleb128 0x2e
 3149 0237 01       		.byte	0x1
 3150 0238 3F       		.uleb128 0x3f
 3151 0239 0C       		.uleb128 0xc
 3152 023a 03       		.uleb128 0x3
 3153 023b 0E       		.uleb128 0xe
 3154 023c 3A       		.uleb128 0x3a
 3155 023d 0B       		.uleb128 0xb
 3156 023e 3B       		.uleb128 0x3b
 3157 023f 05       		.uleb128 0x5
 3158 0240 27       		.uleb128 0x27
 3159 0241 0C       		.uleb128 0xc
 3160 0242 49       		.uleb128 0x49
 3161 0243 13       		.uleb128 0x13
 3162 0244 3C       		.uleb128 0x3c
 3163 0245 0C       		.uleb128 0xc
 3164 0246 01       		.uleb128 0x1
 3165 0247 13       		.uleb128 0x13
 3166 0248 00       		.byte	0
 3167 0249 00       		.byte	0
 3168 024a 2E       		.uleb128 0x2e
 3169 024b 2E       		.uleb128 0x2e
 3170 024c 01       		.byte	0x1
 3171 024d 3F       		.uleb128 0x3f
 3172 024e 0C       		.uleb128 0xc
ARM GAS  /var/folders/5n/p_75w94d66l9ssrldxqdhh700000gn/T//cc5ZkR9h.s 			page 57


 3173 024f 03       		.uleb128 0x3
 3174 0250 0E       		.uleb128 0xe
 3175 0251 3A       		.uleb128 0x3a
 3176 0252 0B       		.uleb128 0xb
 3177 0253 3B       		.uleb128 0x3b
 3178 0254 0B       		.uleb128 0xb
 3179 0255 27       		.uleb128 0x27
 3180 0256 0C       		.uleb128 0xc
 3181 0257 49       		.uleb128 0x49
 3182 0258 13       		.uleb128 0x13
 3183 0259 3C       		.uleb128 0x3c
 3184 025a 0C       		.uleb128 0xc
 3185 025b 01       		.uleb128 0x1
 3186 025c 13       		.uleb128 0x13
 3187 025d 00       		.byte	0
 3188 025e 00       		.byte	0
 3189 025f 2F       		.uleb128 0x2f
 3190 0260 2E       		.uleb128 0x2e
 3191 0261 00       		.byte	0
 3192 0262 3F       		.uleb128 0x3f
 3193 0263 0C       		.uleb128 0xc
 3194 0264 03       		.uleb128 0x3
 3195 0265 0E       		.uleb128 0xe
 3196 0266 3A       		.uleb128 0x3a
 3197 0267 0B       		.uleb128 0xb
 3198 0268 3B       		.uleb128 0x3b
 3199 0269 0B       		.uleb128 0xb
 3200 026a 27       		.uleb128 0x27
 3201 026b 0C       		.uleb128 0xc
 3202 026c 3C       		.uleb128 0x3c
 3203 026d 0C       		.uleb128 0xc
 3204 026e 00       		.byte	0
 3205 026f 00       		.byte	0
 3206 0270 30       		.uleb128 0x30
 3207 0271 2E       		.uleb128 0x2e
 3208 0272 01       		.byte	0x1
 3209 0273 3F       		.uleb128 0x3f
 3210 0274 0C       		.uleb128 0xc
 3211 0275 03       		.uleb128 0x3
 3212 0276 0E       		.uleb128 0xe
 3213 0277 3A       		.uleb128 0x3a
 3214 0278 0B       		.uleb128 0xb
 3215 0279 3B       		.uleb128 0x3b
 3216 027a 0B       		.uleb128 0xb
 3217 027b 27       		.uleb128 0x27
 3218 027c 0C       		.uleb128 0xc
 3219 027d 3C       		.uleb128 0x3c
 3220 027e 0C       		.uleb128 0xc
 3221 027f 01       		.uleb128 0x1
 3222 0280 13       		.uleb128 0x13
 3223 0281 00       		.byte	0
 3224 0282 00       		.byte	0
 3225 0283 31       		.uleb128 0x31
 3226 0284 2E       		.uleb128 0x2e
 3227 0285 01       		.byte	0x1
 3228 0286 3F       		.uleb128 0x3f
 3229 0287 0C       		.uleb128 0xc
ARM GAS  /var/folders/5n/p_75w94d66l9ssrldxqdhh700000gn/T//cc5ZkR9h.s 			page 58


 3230 0288 03       		.uleb128 0x3
 3231 0289 0E       		.uleb128 0xe
 3232 028a 3A       		.uleb128 0x3a
 3233 028b 0B       		.uleb128 0xb
 3234 028c 3B       		.uleb128 0x3b
 3235 028d 05       		.uleb128 0x5
 3236 028e 27       		.uleb128 0x27
 3237 028f 0C       		.uleb128 0xc
 3238 0290 3C       		.uleb128 0x3c
 3239 0291 0C       		.uleb128 0xc
 3240 0292 01       		.uleb128 0x1
 3241 0293 13       		.uleb128 0x13
 3242 0294 00       		.byte	0
 3243 0295 00       		.byte	0
 3244 0296 32       		.uleb128 0x32
 3245 0297 2E       		.uleb128 0x2e
 3246 0298 00       		.byte	0
 3247 0299 3F       		.uleb128 0x3f
 3248 029a 0C       		.uleb128 0xc
 3249 029b 03       		.uleb128 0x3
 3250 029c 0E       		.uleb128 0xe
 3251 029d 3A       		.uleb128 0x3a
 3252 029e 0B       		.uleb128 0xb
 3253 029f 3B       		.uleb128 0x3b
 3254 02a0 0B       		.uleb128 0xb
 3255 02a1 27       		.uleb128 0x27
 3256 02a2 0C       		.uleb128 0xc
 3257 02a3 49       		.uleb128 0x49
 3258 02a4 13       		.uleb128 0x13
 3259 02a5 3C       		.uleb128 0x3c
 3260 02a6 0C       		.uleb128 0xc
 3261 02a7 00       		.byte	0
 3262 02a8 00       		.byte	0
 3263 02a9 00       		.byte	0
 3264              		.section	.debug_loc,"",%progbits
 3265              	.Ldebug_loc0:
 3266              	.LLST0:
 3267 0000 00000000 		.4byte	.LFB10
 3268 0004 02000000 		.4byte	.LCFI0
 3269 0008 0200     		.2byte	0x2
 3270 000a 7D       		.byte	0x7d
 3271 000b 00       		.sleb128 0
 3272 000c 02000000 		.4byte	.LCFI0
 3273 0010 3C010000 		.4byte	.LFE10
 3274 0014 0200     		.2byte	0x2
 3275 0016 7D       		.byte	0x7d
 3276 0017 18       		.sleb128 24
 3277 0018 00000000 		.4byte	0
 3278 001c 00000000 		.4byte	0
 3279              	.LLST1:
 3280 0020 18000000 		.4byte	.LVL2
 3281 0024 1A000000 		.4byte	.LVL3
 3282 0028 0100     		.2byte	0x1
 3283 002a 50       		.byte	0x50
 3284 002b 1A000000 		.4byte	.LVL3
 3285 002f 20000000 		.4byte	.LVL5
 3286 0033 0100     		.2byte	0x1
ARM GAS  /var/folders/5n/p_75w94d66l9ssrldxqdhh700000gn/T//cc5ZkR9h.s 			page 59


 3287 0035 57       		.byte	0x57
 3288 0036 22000000 		.4byte	.LVL6
 3289 003a 3C000000 		.4byte	.LVL8
 3290 003e 0100     		.2byte	0x1
 3291 0040 57       		.byte	0x57
 3292 0041 3C000000 		.4byte	.LVL8
 3293 0045 4A000000 		.4byte	.LVL9
 3294 0049 0100     		.2byte	0x1
 3295 004b 50       		.byte	0x50
 3296 004c 9C000000 		.4byte	.LVL19
 3297 0050 A4000000 		.4byte	.LVL20
 3298 0054 0100     		.2byte	0x1
 3299 0056 50       		.byte	0x50
 3300 0057 E8000000 		.4byte	.LVL24
 3301 005b EA000000 		.4byte	.LVL25
 3302 005f 0100     		.2byte	0x1
 3303 0061 50       		.byte	0x50
 3304 0062 00000000 		.4byte	0
 3305 0066 00000000 		.4byte	0
 3306              	.LLST2:
 3307 006a 72000000 		.4byte	.LVL13
 3308 006e 74000000 		.4byte	.LVL14
 3309 0072 0100     		.2byte	0x1
 3310 0074 53       		.byte	0x53
 3311 0075 00000000 		.4byte	0
 3312 0079 00000000 		.4byte	0
 3313              	.LLST3:
 3314 007d 80000000 		.4byte	.LVL16
 3315 0081 82000000 		.4byte	.LVL17
 3316 0085 0100     		.2byte	0x1
 3317 0087 53       		.byte	0x53
 3318 0088 00000000 		.4byte	0
 3319 008c 00000000 		.4byte	0
 3320              	.LLST4:
 3321 0090 28010000 		.4byte	.LVL30
 3322 0094 2C010000 		.4byte	.LVL31
 3323 0098 0100     		.2byte	0x1
 3324 009a 53       		.byte	0x53
 3325 009b 00000000 		.4byte	0
 3326 009f 00000000 		.4byte	0
 3327              	.LLST5:
 3328 00a3 20000000 		.4byte	.LVL5
 3329 00a7 22000000 		.4byte	.LVL6
 3330 00ab 0100     		.2byte	0x1
 3331 00ad 53       		.byte	0x53
 3332 00ae 34010000 		.4byte	.LVL32
 3333 00b2 3C010000 		.4byte	.LFE10
 3334 00b6 0100     		.2byte	0x1
 3335 00b8 53       		.byte	0x53
 3336 00b9 00000000 		.4byte	0
 3337 00bd 00000000 		.4byte	0
 3338              	.LLST6:
 3339 00c1 00000000 		.4byte	.LFB9
 3340 00c5 02000000 		.4byte	.LCFI1
 3341 00c9 0200     		.2byte	0x2
 3342 00cb 7D       		.byte	0x7d
 3343 00cc 00       		.sleb128 0
ARM GAS  /var/folders/5n/p_75w94d66l9ssrldxqdhh700000gn/T//cc5ZkR9h.s 			page 60


 3344 00cd 02000000 		.4byte	.LCFI1
 3345 00d1 12000000 		.4byte	.LCFI2
 3346 00d5 0200     		.2byte	0x2
 3347 00d7 7D       		.byte	0x7d
 3348 00d8 14       		.sleb128 20
 3349 00d9 12000000 		.4byte	.LCFI2
 3350 00dd EA000000 		.4byte	.LFE9
 3351 00e1 0200     		.2byte	0x2
 3352 00e3 7D       		.byte	0x7d
 3353 00e4 20       		.sleb128 32
 3354 00e5 00000000 		.4byte	0
 3355 00e9 00000000 		.4byte	0
 3356              	.LLST7:
 3357 00ed A8000000 		.4byte	.LVL38
 3358 00f1 AA000000 		.4byte	.LVL39
 3359 00f5 0100     		.2byte	0x1
 3360 00f7 53       		.byte	0x53
 3361 00f8 00000000 		.4byte	0
 3362 00fc 00000000 		.4byte	0
 3363              	.LLST8:
 3364 0100 CC000000 		.4byte	.LVL42
 3365 0104 D1000000 		.4byte	.LVL43-1
 3366 0108 0100     		.2byte	0x1
 3367 010a 53       		.byte	0x53
 3368 010b 00000000 		.4byte	0
 3369 010f 00000000 		.4byte	0
 3370              	.LLST9:
 3371 0113 00000000 		.4byte	.LFB8
 3372 0117 04000000 		.4byte	.LCFI3
 3373 011b 0200     		.2byte	0x2
 3374 011d 7D       		.byte	0x7d
 3375 011e 00       		.sleb128 0
 3376 011f 04000000 		.4byte	.LCFI3
 3377 0123 16000000 		.4byte	.LCFI4
 3378 0127 0200     		.2byte	0x2
 3379 0129 7D       		.byte	0x7d
 3380 012a 18       		.sleb128 24
 3381 012b 16000000 		.4byte	.LCFI4
 3382 012f E6000000 		.4byte	.LFE8
 3383 0133 0200     		.2byte	0x2
 3384 0135 7D       		.byte	0x7d
 3385 0136 20       		.sleb128 32
 3386 0137 00000000 		.4byte	0
 3387 013b 00000000 		.4byte	0
 3388              	.LLST10:
 3389 013f 00000000 		.4byte	.LFB7
 3390 0143 02000000 		.4byte	.LCFI5
 3391 0147 0200     		.2byte	0x2
 3392 0149 7D       		.byte	0x7d
 3393 014a 00       		.sleb128 0
 3394 014b 02000000 		.4byte	.LCFI5
 3395 014f 0C000000 		.4byte	.LFE7
 3396 0153 0200     		.2byte	0x2
 3397 0155 7D       		.byte	0x7d
 3398 0156 08       		.sleb128 8
 3399 0157 00000000 		.4byte	0
 3400 015b 00000000 		.4byte	0
ARM GAS  /var/folders/5n/p_75w94d66l9ssrldxqdhh700000gn/T//cc5ZkR9h.s 			page 61


 3401              	.LLST11:
 3402 015f 00000000 		.4byte	.LVL53
 3403 0163 04000000 		.4byte	.LVL54
 3404 0167 0100     		.2byte	0x1
 3405 0169 50       		.byte	0x50
 3406 016a 04000000 		.4byte	.LVL54
 3407 016e 0C000000 		.4byte	.LFE7
 3408 0172 0400     		.2byte	0x4
 3409 0174 F3       		.byte	0xf3
 3410 0175 01       		.uleb128 0x1
 3411 0176 50       		.byte	0x50
 3412 0177 9F       		.byte	0x9f
 3413 0178 00000000 		.4byte	0
 3414 017c 00000000 		.4byte	0
 3415              	.LLST12:
 3416 0180 00000000 		.4byte	.LFB11
 3417 0184 02000000 		.4byte	.LCFI6
 3418 0188 0200     		.2byte	0x2
 3419 018a 7D       		.byte	0x7d
 3420 018b 00       		.sleb128 0
 3421 018c 02000000 		.4byte	.LCFI6
 3422 0190 78000000 		.4byte	.LFE11
 3423 0194 0200     		.2byte	0x2
 3424 0196 7D       		.byte	0x7d
 3425 0197 10       		.sleb128 16
 3426 0198 00000000 		.4byte	0
 3427 019c 00000000 		.4byte	0
 3428              	.LLST13:
 3429 01a0 0A000000 		.4byte	.LVL57
 3430 01a4 20000000 		.4byte	.LVL60
 3431 01a8 0100     		.2byte	0x1
 3432 01aa 54       		.byte	0x54
 3433 01ab 22000000 		.4byte	.LVL61
 3434 01af 3E000000 		.4byte	.LVL65
 3435 01b3 0100     		.2byte	0x1
 3436 01b5 54       		.byte	0x54
 3437 01b6 00000000 		.4byte	0
 3438 01ba 00000000 		.4byte	0
 3439              	.LLST14:
 3440 01be 3E000000 		.4byte	.LVL65
 3441 01c2 5A000000 		.4byte	.LVL68
 3442 01c6 0100     		.2byte	0x1
 3443 01c8 54       		.byte	0x54
 3444 01c9 5E000000 		.4byte	.LVL69
 3445 01cd 78000000 		.4byte	.LFE11
 3446 01d1 0100     		.2byte	0x1
 3447 01d3 55       		.byte	0x55
 3448 01d4 00000000 		.4byte	0
 3449 01d8 00000000 		.4byte	0
 3450              		.section	.debug_aranges,"",%progbits
 3451 0000 3C000000 		.4byte	0x3c
 3452 0004 0200     		.2byte	0x2
 3453 0006 00000000 		.4byte	.Ldebug_info0
 3454 000a 04       		.byte	0x4
 3455 000b 00       		.byte	0
 3456 000c 0000     		.2byte	0
 3457 000e 0000     		.2byte	0
ARM GAS  /var/folders/5n/p_75w94d66l9ssrldxqdhh700000gn/T//cc5ZkR9h.s 			page 62


 3458 0010 00000000 		.4byte	.LFB10
 3459 0014 3C010000 		.4byte	.LFE10-.LFB10
 3460 0018 00000000 		.4byte	.LFB9
 3461 001c EA000000 		.4byte	.LFE9-.LFB9
 3462 0020 00000000 		.4byte	.LFB8
 3463 0024 E6000000 		.4byte	.LFE8-.LFB8
 3464 0028 00000000 		.4byte	.LFB7
 3465 002c 0C000000 		.4byte	.LFE7-.LFB7
 3466 0030 00000000 		.4byte	.LFB11
 3467 0034 78000000 		.4byte	.LFE11-.LFB11
 3468 0038 00000000 		.4byte	0
 3469 003c 00000000 		.4byte	0
 3470              		.section	.debug_ranges,"",%progbits
 3471              	.Ldebug_ranges0:
 3472 0000 2A010000 		.4byte	.LBB5
 3473 0004 2C010000 		.4byte	.LBE5
 3474 0008 30010000 		.4byte	.LBB6
 3475 000c 3C010000 		.4byte	.LBE6
 3476 0010 00000000 		.4byte	0
 3477 0014 00000000 		.4byte	0
 3478 0018 A0000000 		.4byte	.LBB7
 3479 001c A2000000 		.4byte	.LBE7
 3480 0020 A4000000 		.4byte	.LBB8
 3481 0024 A8000000 		.4byte	.LBE8
 3482 0028 00000000 		.4byte	0
 3483 002c 00000000 		.4byte	0
 3484 0030 3C000000 		.4byte	.LBB12
 3485 0034 6C000000 		.4byte	.LBE12
 3486 0038 70000000 		.4byte	.LBB15
 3487 003c 78000000 		.4byte	.LBE15
 3488 0040 00000000 		.4byte	0
 3489 0044 00000000 		.4byte	0
 3490 0048 3C000000 		.4byte	.LBB13
 3491 004c 6C000000 		.4byte	.LBE13
 3492 0050 70000000 		.4byte	.LBB14
 3493 0054 78000000 		.4byte	.LBE14
 3494 0058 00000000 		.4byte	0
 3495 005c 00000000 		.4byte	0
 3496 0060 00000000 		.4byte	.LFB10
 3497 0064 3C010000 		.4byte	.LFE10
 3498 0068 00000000 		.4byte	.LFB9
 3499 006c EA000000 		.4byte	.LFE9
 3500 0070 00000000 		.4byte	.LFB8
 3501 0074 E6000000 		.4byte	.LFE8
 3502 0078 00000000 		.4byte	.LFB7
 3503 007c 0C000000 		.4byte	.LFE7
 3504 0080 00000000 		.4byte	.LFB11
 3505 0084 78000000 		.4byte	.LFE11
 3506 0088 00000000 		.4byte	0
 3507 008c 00000000 		.4byte	0
 3508              		.section	.debug_line,"",%progbits
 3509              	.Ldebug_line0:
 3510 0000 0D020000 		.section	.debug_str,"MS",%progbits,1
 3510      02005D01 
 3510      00000201 
 3510      FB0E0D00 
 3510      01010101 
ARM GAS  /var/folders/5n/p_75w94d66l9ssrldxqdhh700000gn/T//cc5ZkR9h.s 			page 63


 3511              	.LASF73:
 3512 0000 7466756E 		.ascii	"tfunc_t\000"
 3512      635F7400 
 3513              	.LASF36:
 3514 0008 705F6D73 		.ascii	"p_msg\000"
 3514      6700
 3515              	.LASF2:
 3516 000e 73697A65 		.ascii	"size_t\000"
 3516      5F7400
 3517              	.LASF79:
 3518 0015 7072696F 		.ascii	"prio\000"
 3518      00
 3519              	.LASF68:
 3520 001a 7264796D 		.ascii	"rdymsg\000"
 3520      736700
 3521              	.LASF83:
 3522 0021 76746C69 		.ascii	"vtlist\000"
 3522      737400
 3523              	.LASF12:
 3524 0028 6C6F6E67 		.ascii	"long long unsigned int\000"
 3524      206C6F6E 
 3524      6720756E 
 3524      7369676E 
 3524      65642069 
 3525              	.LASF69:
 3526 003f 65786974 		.ascii	"exitcode\000"
 3526      636F6465 
 3526      00
 3527              	.LASF25:
 3528 0048 705F7072 		.ascii	"p_prio\000"
 3528      696F00
 3529              	.LASF11:
 3530 004f 6C6F6E67 		.ascii	"long long int\000"
 3530      206C6F6E 
 3530      6720696E 
 3530      7400
 3531              	.LASF1:
 3532 005d 7369676E 		.ascii	"signed char\000"
 3532      65642063 
 3532      68617200 
 3533              	.LASF10:
 3534 0069 6C6F6E67 		.ascii	"long unsigned int\000"
 3534      20756E73 
 3534      69676E65 
 3534      6420696E 
 3534      7400
 3535              	.LASF40:
 3536 007b 705F6D70 		.ascii	"p_mpool\000"
 3536      6F6F6C00 
 3537              	.LASF13:
 3538 0083 626F6F6C 		.ascii	"bool_t\000"
 3538      5F7400
 3539              	.LASF65:
 3540 008a 6D5F7175 		.ascii	"m_queue\000"
 3540      65756500 
 3541              	.LASF97:
 3542 0092 74657374 		.ascii	"test_emit_token\000"
ARM GAS  /var/folders/5n/p_75w94d66l9ssrldxqdhh700000gn/T//cc5ZkR9h.s 			page 64


 3542      5F656D69 
 3542      745F746F 
 3542      6B656E00 
 3543              	.LASF94:
 3544 00a2 63685468 		.ascii	"chThdCreateI\000"
 3544      64437265 
 3544      61746549 
 3544      00
 3545              	.LASF8:
 3546 00af 6C6F6E67 		.ascii	"long int\000"
 3546      20696E74 
 3546      00
 3547              	.LASF15:
 3548 00b8 74737461 		.ascii	"tstate_t\000"
 3548      74655F74 
 3548      00
 3549              	.LASF99:
 3550 00c1 5F746573 		.ascii	"_test_assert_time_window\000"
 3550      745F6173 
 3550      73657274 
 3550      5F74696D 
 3550      655F7769 
 3551              	.LASF27:
 3552 00da 705F6E65 		.ascii	"p_newer\000"
 3552      77657200 
 3553              	.LASF91:
 3554 00e2 63685468 		.ascii	"chThdSetPriority\000"
 3554      64536574 
 3554      5072696F 
 3554      72697479 
 3554      00
 3555              	.LASF59:
 3556 00f3 725F6E65 		.ascii	"r_newer\000"
 3556      77657200 
 3557              	.LASF43:
 3558 00fb 72656761 		.ascii	"regarm_t\000"
 3558      726D5F74 
 3558      00
 3559              	.LASF50:
 3560 0104 76745F70 		.ascii	"vt_prev\000"
 3560      72657600 
 3561              	.LASF82:
 3562 010c 74686431 		.ascii	"thd1_execute\000"
 3562      5F657865 
 3562      63757465 
 3562      00
 3563              	.LASF21:
 3564 0119 636E745F 		.ascii	"cnt_t\000"
 3564      7400
 3565              	.LASF0:
 3566 011f 756E7369 		.ascii	"unsigned int\000"
 3566      676E6564 
 3566      20696E74 
 3566      00
 3567              	.LASF49:
 3568 012c 76745F6E 		.ascii	"vt_next\000"
 3568      65787400 
ARM GAS  /var/folders/5n/p_75w94d66l9ssrldxqdhh700000gn/T//cc5ZkR9h.s 			page 65


 3569              	.LASF103:
 3570 0134 2F557365 		.ascii	"/Users/sin/Documents/Eclipse/Workspace/ChibiOS_2.4."
 3570      72732F73 
 3570      696E2F44 
 3570      6F63756D 
 3570      656E7473 
 3571 0167 322F6465 		.ascii	"2/demos/ARMCM4-STM32F407-LWIP\000"
 3571      6D6F732F 
 3571      41524D43 
 3571      4D342D53 
 3571      544D3332 
 3572              	.LASF77:
 3573 0185 74656172 		.ascii	"teardown\000"
 3573      646F776E 
 3573      00
 3574              	.LASF75:
 3575 018e 6E616D65 		.ascii	"name\000"
 3575      00
 3576              	.LASF45:
 3577 0193 636F6E74 		.ascii	"context\000"
 3577      65787400 
 3578              	.LASF6:
 3579 019b 73686F72 		.ascii	"short unsigned int\000"
 3579      7420756E 
 3579      7369676E 
 3579      65642069 
 3579      6E7400
 3580              	.LASF18:
 3581 01ae 6D73675F 		.ascii	"msg_t\000"
 3581      7400
 3582              	.LASF14:
 3583 01b4 746D6F64 		.ascii	"tmode_t\000"
 3583      655F7400 
 3584              	.LASF42:
 3585 01bc 54687265 		.ascii	"ThreadsList\000"
 3585      6164734C 
 3585      69737400 
 3586              	.LASF19:
 3587 01c8 6576656E 		.ascii	"eventmask_t\000"
 3587      746D6173 
 3587      6B5F7400 
 3588              	.LASF64:
 3589 01d4 4D757465 		.ascii	"Mutex\000"
 3589      7800
 3590              	.LASF81:
 3591 01da 74686432 		.ascii	"thd2_execute\000"
 3591      5F657865 
 3591      63757465 
 3591      00
 3592              	.LASF93:
 3593 01e7 63685468 		.ascii	"chThdCreateStatic\000"
 3593      64437265 
 3593      61746553 
 3593      74617469 
 3593      6300
 3594              	.LASF51:
 3595 01f9 76745F74 		.ascii	"vt_time\000"
ARM GAS  /var/folders/5n/p_75w94d66l9ssrldxqdhh700000gn/T//cc5ZkR9h.s 			page 66


 3595      696D6500 
 3596              	.LASF46:
 3597 0201 73697A65 		.ascii	"sizetype\000"
 3597      74797065 
 3597      00
 3598              	.LASF86:
 3599 020a 74657374 		.ascii	"testthd1\000"
 3599      74686431 
 3599      00
 3600              	.LASF87:
 3601 0213 74657374 		.ascii	"testthd2\000"
 3601      74686432 
 3601      00
 3602              	.LASF88:
 3603 021c 74657374 		.ascii	"testthd3\000"
 3603      74686433 
 3603      00
 3604              	.LASF89:
 3605 0225 74657374 		.ascii	"testthd4\000"
 3605      74686434 
 3605      00
 3606              	.LASF52:
 3607 022e 76745F66 		.ascii	"vt_func\000"
 3607      756E6300 
 3608              	.LASF95:
 3609 0236 63685468 		.ascii	"chThdResume\000"
 3609      64526573 
 3609      756D6500 
 3610              	.LASF107:
 3611 0242 74657374 		.ascii	"test_wait_threads\000"
 3611      5F776169 
 3611      745F7468 
 3611      72656164 
 3611      7300
 3612              	.LASF28:
 3613 0254 705F6F6C 		.ascii	"p_older\000"
 3613      64657200 
 3614              	.LASF58:
 3615 025c 725F6374 		.ascii	"r_ctx\000"
 3615      7800
 3616              	.LASF41:
 3617 0262 54687265 		.ascii	"ThreadsQueue\000"
 3617      61647351 
 3617      75657565 
 3617      00
 3618              	.LASF76:
 3619 026f 73657475 		.ascii	"setup\000"
 3619      7000
 3620              	.LASF96:
 3621 0275 5F746573 		.ascii	"_test_assert_sequence\000"
 3621      745F6173 
 3621      73657274 
 3621      5F736571 
 3621      75656E63 
 3622              	.LASF105:
 3623 028b 74696D65 		.ascii	"time\000"
 3623      00
ARM GAS  /var/folders/5n/p_75w94d66l9ssrldxqdhh700000gn/T//cc5ZkR9h.s 			page 67


 3624              	.LASF101:
 3625 0290 474E5520 		.ascii	"GNU C 4.7.2\000"
 3625      4320342E 
 3625      372E3200 
 3626              	.LASF62:
 3627 029c 725F6375 		.ascii	"r_current\000"
 3627      7272656E 
 3627      7400
 3628              	.LASF60:
 3629 02a6 725F6F6C 		.ascii	"r_older\000"
 3629      64657200 
 3630              	.LASF100:
 3631 02ae 63685468 		.ascii	"chThdSleepUntil\000"
 3631      64536C65 
 3631      6570556E 
 3631      74696C00 
 3632              	.LASF102:
 3633 02be 2E2E2F2E 		.ascii	"../../test/testthd.c\000"
 3633      2E2F7465 
 3633      73742F74 
 3633      65737474 
 3633      68642E63 
 3634              	.LASF16:
 3635 02d3 74726566 		.ascii	"trefs_t\000"
 3635      735F7400 
 3636              	.LASF80:
 3637 02db 74686433 		.ascii	"thd3_execute\000"
 3637      5F657865 
 3637      63757465 
 3637      00
 3638              	.LASF24:
 3639 02e8 705F7072 		.ascii	"p_prev\000"
 3639      657600
 3640              	.LASF78:
 3641 02ef 65786563 		.ascii	"execute\000"
 3641      75746500 
 3642              	.LASF17:
 3643 02f7 74707269 		.ascii	"tprio_t\000"
 3643      6F5F7400 
 3644              	.LASF106:
 3645 02ff 74687265 		.ascii	"thread\000"
 3645      616400
 3646              	.LASF7:
 3647 0306 696E7433 		.ascii	"int32_t\000"
 3647      325F7400 
 3648              	.LASF4:
 3649 030e 756E7369 		.ascii	"unsigned char\000"
 3649      676E6564 
 3649      20636861 
 3649      7200
 3650              	.LASF108:
 3651 031c 74657374 		.ascii	"test_wait_tick\000"
 3651      5F776169 
 3651      745F7469 
 3651      636B00
 3652              	.LASF38:
 3653 032b 705F6D74 		.ascii	"p_mtxlist\000"
ARM GAS  /var/folders/5n/p_75w94d66l9ssrldxqdhh700000gn/T//cc5ZkR9h.s 			page 68


 3653      786C6973 
 3653      7400
 3654              	.LASF5:
 3655 0335 73686F72 		.ascii	"short int\000"
 3655      7420696E 
 3655      7400
 3656              	.LASF30:
 3657 033f 705F7374 		.ascii	"p_state\000"
 3657      61746500 
 3658              	.LASF85:
 3659 0347 74687265 		.ascii	"threads\000"
 3659      61647300 
 3660              	.LASF57:
 3661 034f 725F7072 		.ascii	"r_prio\000"
 3661      696F00
 3662              	.LASF71:
 3663 0356 65776D61 		.ascii	"ewmask\000"
 3663      736B00
 3664              	.LASF23:
 3665 035d 705F6E65 		.ascii	"p_next\000"
 3665      787400
 3666              	.LASF31:
 3667 0364 705F666C 		.ascii	"p_flags\000"
 3667      61677300 
 3668              	.LASF22:
 3669 036c 54687265 		.ascii	"Thread\000"
 3669      616400
 3670              	.LASF74:
 3671 0373 74657374 		.ascii	"testcase\000"
 3671      63617365 
 3671      00
 3672              	.LASF37:
 3673 037c 705F6570 		.ascii	"p_epending\000"
 3673      656E6469 
 3673      6E6700
 3674              	.LASF9:
 3675 0387 75696E74 		.ascii	"uint32_t\000"
 3675      33325F74 
 3675      00
 3676              	.LASF56:
 3677 0390 725F7175 		.ascii	"r_queue\000"
 3677      65756500 
 3678              	.LASF48:
 3679 0398 56697274 		.ascii	"VirtualTimer\000"
 3679      75616C54 
 3679      696D6572 
 3679      00
 3680              	.LASF72:
 3681 03a5 63686172 		.ascii	"char\000"
 3681      00
 3682              	.LASF104:
 3683 03aa 74686434 		.ascii	"thd4_execute\000"
 3683      5F657865 
 3683      63757465 
 3683      00
 3684              	.LASF90:
 3685 03b7 70617474 		.ascii	"patternthd\000"
ARM GAS  /var/folders/5n/p_75w94d66l9ssrldxqdhh700000gn/T//cc5ZkR9h.s 			page 69


 3685      65726E74 
 3685      686400
 3686              	.LASF67:
 3687 03c2 6D5F6E65 		.ascii	"m_next\000"
 3687      787400
 3688              	.LASF20:
 3689 03c9 73797374 		.ascii	"systime_t\000"
 3689      696D655F 
 3689      7400
 3690              	.LASF39:
 3691 03d3 705F7265 		.ascii	"p_realprio\000"
 3691      616C7072 
 3691      696F00
 3692              	.LASF47:
 3693 03de 76746675 		.ascii	"vtfunc_t\000"
 3693      6E635F74 
 3693      00
 3694              	.LASF33:
 3695 03e7 705F7469 		.ascii	"p_time\000"
 3695      6D6500
 3696              	.LASF44:
 3697 03ee 696E7463 		.ascii	"intctx\000"
 3697      747800
 3698              	.LASF35:
 3699 03f5 705F6D73 		.ascii	"p_msgqueue\000"
 3699      67717565 
 3699      756500
 3700              	.LASF53:
 3701 0400 76745F70 		.ascii	"vt_par\000"
 3701      617200
 3702              	.LASF98:
 3703 0407 63685468 		.ascii	"chThdSleep\000"
 3703      64536C65 
 3703      657000
 3704              	.LASF32:
 3705 0412 705F7265 		.ascii	"p_refs\000"
 3705      667300
 3706              	.LASF63:
 3707 0419 52656164 		.ascii	"ReadyList\000"
 3707      794C6973 
 3707      7400
 3708              	.LASF84:
 3709 0423 726C6973 		.ascii	"rlist\000"
 3709      7400
 3710              	.LASF3:
 3711 0429 75696E74 		.ascii	"uint8_t\000"
 3711      385F7400 
 3712              	.LASF70:
 3713 0431 77746F62 		.ascii	"wtobjp\000"
 3713      6A7000
 3714              	.LASF29:
 3715 0438 705F6E61 		.ascii	"p_name\000"
 3715      6D6500
 3716              	.LASF92:
 3717 043f 5F746573 		.ascii	"_test_assert\000"
 3717      745F6173 
 3717      73657274 
ARM GAS  /var/folders/5n/p_75w94d66l9ssrldxqdhh700000gn/T//cc5ZkR9h.s 			page 70


 3717      00
 3718              	.LASF54:
 3719 044c 76745F73 		.ascii	"vt_systime\000"
 3719      79737469 
 3719      6D6500
 3720              	.LASF55:
 3721 0457 56544C69 		.ascii	"VTList\000"
 3721      737400
 3722              	.LASF61:
 3723 045e 725F7072 		.ascii	"r_preempt\000"
 3723      65656D70 
 3723      7400
 3724              	.LASF66:
 3725 0468 6D5F6F77 		.ascii	"m_owner\000"
 3725      6E657200 
 3726              	.LASF26:
 3727 0470 705F6374 		.ascii	"p_ctx\000"
 3727      7800
 3728              	.LASF34:
 3729 0476 705F7761 		.ascii	"p_waiting\000"
 3729      6974696E 
 3729      6700
 3730              		.ident	"GCC: (GNU) 4.7.2"
ARM GAS  /var/folders/5n/p_75w94d66l9ssrldxqdhh700000gn/T//cc5ZkR9h.s 			page 71


DEFINED SYMBOLS
                            *ABS*:0000000000000000 testthd.c
/var/folders/5n/p_75w94d66l9ssrldxqdhh700000gn/T//cc5ZkR9h.s:19     .text.thd3_execute:0000000000000000 $t
/var/folders/5n/p_75w94d66l9ssrldxqdhh700000gn/T//cc5ZkR9h.s:24     .text.thd3_execute:0000000000000000 thd3_execute
/var/folders/5n/p_75w94d66l9ssrldxqdhh700000gn/T//cc5ZkR9h.s:248    .text.thd3_execute:0000000000000138 $d
/var/folders/5n/p_75w94d66l9ssrldxqdhh700000gn/T//cc5ZkR9h.s:254    .text.thd2_execute:0000000000000000 $t
/var/folders/5n/p_75w94d66l9ssrldxqdhh700000gn/T//cc5ZkR9h.s:259    .text.thd2_execute:0000000000000000 thd2_execute
/var/folders/5n/p_75w94d66l9ssrldxqdhh700000gn/T//cc5ZkR9h.s:540    .text.thread:0000000000000000 thread
/var/folders/5n/p_75w94d66l9ssrldxqdhh700000gn/T//cc5ZkR9h.s:722    .rodata.str1.4:0000000000000000 .LC0
/var/folders/5n/p_75w94d66l9ssrldxqdhh700000gn/T//cc5ZkR9h.s:725    .rodata.str1.4:0000000000000004 .LC1
/var/folders/5n/p_75w94d66l9ssrldxqdhh700000gn/T//cc5ZkR9h.s:728    .rodata.str1.4:0000000000000008 .LC2
/var/folders/5n/p_75w94d66l9ssrldxqdhh700000gn/T//cc5ZkR9h.s:731    .rodata.str1.4:000000000000000c .LC3
/var/folders/5n/p_75w94d66l9ssrldxqdhh700000gn/T//cc5ZkR9h.s:734    .rodata.str1.4:0000000000000010 .LC4
/var/folders/5n/p_75w94d66l9ssrldxqdhh700000gn/T//cc5ZkR9h.s:737    .rodata.str1.4:0000000000000014 .LC5
/var/folders/5n/p_75w94d66l9ssrldxqdhh700000gn/T//cc5ZkR9h.s:408    .text.thd1_execute:0000000000000000 $t
/var/folders/5n/p_75w94d66l9ssrldxqdhh700000gn/T//cc5ZkR9h.s:413    .text.thd1_execute:0000000000000000 thd1_execute
/var/folders/5n/p_75w94d66l9ssrldxqdhh700000gn/T//cc5ZkR9h.s:535    .text.thread:0000000000000000 $t
/var/folders/5n/p_75w94d66l9ssrldxqdhh700000gn/T//cc5ZkR9h.s:564    .text.thd4_execute:0000000000000000 $t
/var/folders/5n/p_75w94d66l9ssrldxqdhh700000gn/T//cc5ZkR9h.s:569    .text.thd4_execute:0000000000000000 thd4_execute
/var/folders/5n/p_75w94d66l9ssrldxqdhh700000gn/T//cc5ZkR9h.s:663    .text.thd4_execute:0000000000000074 $d
/var/folders/5n/p_75w94d66l9ssrldxqdhh700000gn/T//cc5ZkR9h.s:714    .rodata.patternthd:0000000000000000 patternthd
/var/folders/5n/p_75w94d66l9ssrldxqdhh700000gn/T//cc5ZkR9h.s:705    .rodata.testthd4:0000000000000000 testthd4
/var/folders/5n/p_75w94d66l9ssrldxqdhh700000gn/T//cc5ZkR9h.s:696    .rodata.testthd3:0000000000000000 testthd3
/var/folders/5n/p_75w94d66l9ssrldxqdhh700000gn/T//cc5ZkR9h.s:687    .rodata.testthd2:0000000000000000 testthd2
/var/folders/5n/p_75w94d66l9ssrldxqdhh700000gn/T//cc5ZkR9h.s:678    .rodata.testthd1:0000000000000000 testthd1
/var/folders/5n/p_75w94d66l9ssrldxqdhh700000gn/T//cc5ZkR9h.s:675    .rodata.testthd1:0000000000000000 $d
/var/folders/5n/p_75w94d66l9ssrldxqdhh700000gn/T//cc5ZkR9h.s:684    .rodata.testthd2:0000000000000000 $d
/var/folders/5n/p_75w94d66l9ssrldxqdhh700000gn/T//cc5ZkR9h.s:693    .rodata.testthd3:0000000000000000 $d
/var/folders/5n/p_75w94d66l9ssrldxqdhh700000gn/T//cc5ZkR9h.s:702    .rodata.testthd4:0000000000000000 $d
/var/folders/5n/p_75w94d66l9ssrldxqdhh700000gn/T//cc5ZkR9h.s:711    .rodata.patternthd:0000000000000000 $d
/var/folders/5n/p_75w94d66l9ssrldxqdhh700000gn/T//cc5ZkR9h.s:721    .rodata.str1.4:0000000000000000 $d
                     .debug_frame:0000000000000010 $d
/var/folders/5n/p_75w94d66l9ssrldxqdhh700000gn/T//cc5ZkR9h.s:253    .text.thd3_execute:000000000000013c $t
/var/folders/5n/p_75w94d66l9ssrldxqdhh700000gn/T//cc5ZkR9h.s:674    .text.thd4_execute:0000000000000078 $t

UNDEFINED SYMBOLS
chThdSetPriority
_test_assert
rlist
wa
chThdCreateStatic
threads
chThdCreateI
chThdResume
test_wait_threads
_test_assert_sequence
test_emit_token
test_wait_tick
chThdSleep
_test_assert_time_window
chThdSleepUntil
vtlist
