ARM GAS  /var/folders/5n/p_75w94d66l9ssrldxqdhh700000gn/T//cc4U8Rle.s 			page 1


   1              		.syntax unified
   2              		.cpu cortex-m4
   3              		.fpu softvfp
   4              		.eabi_attribute 20, 1
   5              		.eabi_attribute 21, 1
   6              		.eabi_attribute 23, 3
   7              		.eabi_attribute 24, 1
   8              		.eabi_attribute 25, 1
   9              		.eabi_attribute 26, 1
  10              		.eabi_attribute 30, 2
  11              		.eabi_attribute 34, 1
  12              		.eabi_attribute 18, 4
  13              		.thumb
  14              		.file	"timers.c"
  15              		.text
  16              	.Ltext0:
  17              		.cfi_sections	.debug_frame
  18              		.section	.text.sys_timeout,"ax",%progbits
  19              		.align	2
  20              		.p2align 4,,15
  21              		.global	sys_timeout
  22              		.thumb
  23              		.thumb_func
  24              		.type	sys_timeout, %function
  25              	sys_timeout:
  26              	.LFB12:
  27              		.file 1 "../../ext/lwip-1.4.0/src/core/timers.c"
  28              		.loc 1 266 0
  29              		.cfi_startproc
  30              		@ args = 0, pretend = 0, frame = 0
  31              		@ frame_needed = 0, uses_anonymous_args = 0
  32              	.LVL0:
  33 0000 70B5     		push	{r4, r5, r6, lr}
  34              	.LCFI0:
  35              		.cfi_def_cfa_offset 16
  36              		.cfi_offset 4, -16
  37              		.cfi_offset 5, -12
  38              		.cfi_offset 6, -8
  39              		.cfi_offset 14, -4
  40              		.loc 1 266 0
  41 0002 0446     		mov	r4, r0
  42              		.loc 1 269 0
  43 0004 0B20     		movs	r0, #11
  44              	.LVL1:
  45              		.loc 1 266 0
  46 0006 0E46     		mov	r6, r1
  47 0008 1546     		mov	r5, r2
  48              		.loc 1 269 0
  49 000a FFF7FEFF 		bl	memp_malloc
  50              	.LVL2:
  51              		.loc 1 270 0
  52 000e E0B1     		cbz	r0, .L17
  53              		.loc 1 284 0
  54 0010 104B     		ldr	r3, .L19
  55              		.loc 1 275 0
  56 0012 8660     		str	r6, [r0, #8]
  57              		.loc 1 284 0
ARM GAS  /var/folders/5n/p_75w94d66l9ssrldxqdhh700000gn/T//cc4U8Rle.s 			page 2


  58 0014 1968     		ldr	r1, [r3, #0]
  59              		.loc 1 276 0
  60 0016 C560     		str	r5, [r0, #12]
  61              		.loc 1 274 0
  62 0018 0022     		movs	r2, #0
  63              		.loc 1 277 0
  64 001a 80E81400 		stmia	r0, {r2, r4}
  65              		.loc 1 284 0
  66 001e 29B1     		cbz	r1, .L15
  67              		.loc 1 289 0
  68 0020 4A68     		ldr	r2, [r1, #4]
  69 0022 9442     		cmp	r4, r2
  70 0024 05D2     		bcs	.L12
  71              		.loc 1 290 0
  72 0026 141B     		subs	r4, r2, r4
  73              	.LVL3:
  74 0028 4C60     		str	r4, [r1, #4]
  75              		.loc 1 291 0
  76 002a 0160     		str	r1, [r0, #0]
  77              	.L15:
  78              		.loc 1 292 0
  79 002c 1860     		str	r0, [r3, #0]
  80 002e 70BD     		pop	{r4, r5, r6, pc}
  81              	.LVL4:
  82              	.L18:
  83              		.loc 1 296 0
  84 0030 1946     		mov	r1, r3
  85              	.LVL5:
  86              	.L12:
  87              		.loc 1 296 0 is_stmt 0 discriminator 1
  88 0032 0B68     		ldr	r3, [r1, #0]
  89              		.loc 1 295 0 is_stmt 1 discriminator 1
  90 0034 A41A     		subs	r4, r4, r2
  91 0036 4460     		str	r4, [r0, #4]
  92              		.loc 1 296 0 discriminator 1
  93 0038 23B1     		cbz	r3, .L8
  94 003a 5A68     		ldr	r2, [r3, #4]
  95 003c 9442     		cmp	r4, r2
  96 003e F7D2     		bcs	.L18
  97              		.loc 1 298 0
  98 0040 141B     		subs	r4, r2, r4
  99 0042 5C60     		str	r4, [r3, #4]
 100              	.L8:
 101              		.loc 1 300 0
 102 0044 0360     		str	r3, [r0, #0]
 103              		.loc 1 301 0
 104 0046 0860     		str	r0, [r1, #0]
 105              		.loc 1 302 0
 106 0048 70BD     		pop	{r4, r5, r6, pc}
 107              	.LVL6:
 108              	.L17:
 109              		.loc 1 306 0 discriminator 1
 110 004a BDE87040 		pop	{r4, r5, r6, lr}
 111              		.loc 1 271 0 discriminator 1
 112 004e FFF7FEBF 		b	port_halt
 113              	.LVL7:
 114              	.L20:
ARM GAS  /var/folders/5n/p_75w94d66l9ssrldxqdhh700000gn/T//cc4U8Rle.s 			page 3


 115 0052 00BF     		.align	2
 116              	.L19:
 117 0054 00000000 		.word	.LANCHOR0
 118              		.cfi_endproc
 119              	.LFE12:
 120              		.size	sys_timeout, .-sys_timeout
 121 0058 AFF30080 		.section	.text.sys_timeouts_init,"ax",%progbits
 121      AFF30080 
 122              		.align	2
 123              		.p2align 4,,15
 124              		.global	sys_timeouts_init
 125              		.thumb
 126              		.thumb_func
 127              		.type	sys_timeouts_init, %function
 128              	sys_timeouts_init:
 129              	.LFB11:
 130              		.loc 1 222 0
 131              		.cfi_startproc
 132              		@ args = 0, pretend = 0, frame = 0
 133              		@ frame_needed = 0, uses_anonymous_args = 0
 134 0000 08B5     		push	{r3, lr}
 135              	.LCFI1:
 136              		.cfi_def_cfa_offset 8
 137              		.cfi_offset 3, -8
 138              		.cfi_offset 14, -4
 139              		.loc 1 224 0
 140 0002 40F20001 		movw	r1, #:lower16:ip_reass_timer
 141 0006 0022     		movs	r2, #0
 142 0008 4FF47A70 		mov	r0, #1000
 143 000c C0F20001 		movt	r1, #:upper16:ip_reass_timer
 144 0010 FFF7FEFF 		bl	sys_timeout
 145              	.LVL8:
 146              		.loc 1 227 0
 147 0014 40F20001 		movw	r1, #:lower16:arp_timer
 148 0018 41F28830 		movw	r0, #5000
 149 001c C0F20001 		movt	r1, #:upper16:arp_timer
 150 0020 0022     		movs	r2, #0
 151              		.loc 1 247 0
 152 0022 BDE80840 		pop	{r3, lr}
 153              		.loc 1 227 0
 154 0026 FFF7FEBF 		b	sys_timeout
 155              	.LVL9:
 156              		.cfi_endproc
 157              	.LFE11:
 158              		.size	sys_timeouts_init, .-sys_timeouts_init
 159              		.section	.text.arp_timer,"ax",%progbits
 160              		.align	2
 161              		.p2align 4,,15
 162              		.thumb
 163              		.thumb_func
 164              		.type	arp_timer, %function
 165              	arp_timer:
 166              	.LFB10:
 167              		.loc 1 134 0
 168              		.cfi_startproc
 169              		@ args = 0, pretend = 0, frame = 0
 170              		@ frame_needed = 0, uses_anonymous_args = 0
ARM GAS  /var/folders/5n/p_75w94d66l9ssrldxqdhh700000gn/T//cc4U8Rle.s 			page 4


 171              	.LVL10:
 172 0000 08B5     		push	{r3, lr}
 173              	.LCFI2:
 174              		.cfi_def_cfa_offset 8
 175              		.cfi_offset 3, -8
 176              		.cfi_offset 14, -4
 177              		.loc 1 137 0
 178 0002 FFF7FEFF 		bl	etharp_tmr
 179              	.LVL11:
 180              		.loc 1 138 0
 181 0006 40F20001 		movw	r1, #:lower16:arp_timer
 182 000a 41F28830 		movw	r0, #5000
 183 000e C0F20001 		movt	r1, #:upper16:arp_timer
 184 0012 0022     		movs	r2, #0
 185              		.loc 1 139 0
 186 0014 BDE80840 		pop	{r3, lr}
 187              		.loc 1 138 0
 188 0018 FFF7FEBF 		b	sys_timeout
 189              	.LVL12:
 190              		.cfi_endproc
 191              	.LFE10:
 192              		.size	arp_timer, .-arp_timer
 193 001c AFF30080 		.section	.text.ip_reass_timer,"ax",%progbits
 194              		.align	2
 195              		.p2align 4,,15
 196              		.thumb
 197              		.thumb_func
 198              		.type	ip_reass_timer, %function
 199              	ip_reass_timer:
 200              	.LFB9:
 201              		.loc 1 118 0
 202              		.cfi_startproc
 203              		@ args = 0, pretend = 0, frame = 0
 204              		@ frame_needed = 0, uses_anonymous_args = 0
 205              	.LVL13:
 206 0000 08B5     		push	{r3, lr}
 207              	.LCFI3:
 208              		.cfi_def_cfa_offset 8
 209              		.cfi_offset 3, -8
 210              		.cfi_offset 14, -4
 211              		.loc 1 121 0
 212 0002 FFF7FEFF 		bl	ip_reass_tmr
 213              	.LVL14:
 214              		.loc 1 122 0
 215 0006 40F20001 		movw	r1, #:lower16:ip_reass_timer
 216 000a 4FF47A70 		mov	r0, #1000
 217 000e C0F20001 		movt	r1, #:upper16:ip_reass_timer
 218 0012 0022     		movs	r2, #0
 219              		.loc 1 123 0
 220 0014 BDE80840 		pop	{r3, lr}
 221              		.loc 1 122 0
 222 0018 FFF7FEBF 		b	sys_timeout
 223              	.LVL15:
 224              		.cfi_endproc
 225              	.LFE9:
 226              		.size	ip_reass_timer, .-ip_reass_timer
 227 001c AFF30080 		.section	.text.tcp_timer_needed,"ax",%progbits
ARM GAS  /var/folders/5n/p_75w94d66l9ssrldxqdhh700000gn/T//cc4U8Rle.s 			page 5


 228              		.align	2
 229              		.p2align 4,,15
 230              		.global	tcp_timer_needed
 231              		.thumb
 232              		.thumb_func
 233              		.type	tcp_timer_needed, %function
 234              	tcp_timer_needed:
 235              	.LFB8:
 236              		.loc 1 100 0
 237              		.cfi_startproc
 238              		@ args = 0, pretend = 0, frame = 0
 239              		@ frame_needed = 0, uses_anonymous_args = 0
 240              		@ link register save eliminated.
 241              		.loc 1 102 0
 242 0000 084B     		ldr	r3, .L31
 243 0002 1A68     		ldr	r2, [r3, #0]
 244 0004 6AB9     		cbnz	r2, .L24
 245              		.loc 1 102 0 is_stmt 0 discriminator 1
 246 0006 084A     		ldr	r2, .L31+4
 247 0008 1268     		ldr	r2, [r2, #0]
 248 000a 32B1     		cbz	r2, .L30
 249              	.L26:
 250              		.loc 1 104 0 is_stmt 1
 251 000c 0122     		movs	r2, #1
 252              		.loc 1 105 0
 253 000e 0749     		ldr	r1, .L31+8
 254              		.loc 1 104 0
 255 0010 1A60     		str	r2, [r3, #0]
 256              		.loc 1 105 0
 257 0012 FA20     		movs	r0, #250
 258 0014 0022     		movs	r2, #0
 259              		.loc 1 107 0
 260              		.loc 1 105 0
 261 0016 FFF7FEBF 		b	sys_timeout
 262              	.LVL16:
 263              	.L30:
 264              		.loc 1 102 0 discriminator 1
 265 001a 054A     		ldr	r2, .L31+12
 266 001c 1268     		ldr	r2, [r2, #0]
 267 001e 002A     		cmp	r2, #0
 268 0020 F4D1     		bne	.L26
 269              	.L24:
 270 0022 7047     		bx	lr
 271              	.L32:
 272              		.align	2
 273              	.L31:
 274 0024 00000000 		.word	.LANCHOR1
 275 0028 00000000 		.word	tcp_active_pcbs
 276 002c 00000000 		.word	tcpip_tcp_timer
 277 0030 00000000 		.word	tcp_tw_pcbs
 278              		.cfi_endproc
 279              	.LFE8:
 280              		.size	tcp_timer_needed, .-tcp_timer_needed
 281 0034 AFF30080 		.section	.text.tcpip_tcp_timer,"ax",%progbits
 281      AFF30080 
 281      AFF30080 
 282              		.align	2
ARM GAS  /var/folders/5n/p_75w94d66l9ssrldxqdhh700000gn/T//cc4U8Rle.s 			page 6


 283              		.p2align 4,,15
 284              		.thumb
 285              		.thumb_func
 286              		.type	tcpip_tcp_timer, %function
 287              	tcpip_tcp_timer:
 288              	.LFB7:
 289              		.loc 1 78 0
 290              		.cfi_startproc
 291              		@ args = 0, pretend = 0, frame = 0
 292              		@ frame_needed = 0, uses_anonymous_args = 0
 293              	.LVL17:
 294 0000 08B5     		push	{r3, lr}
 295              	.LCFI4:
 296              		.cfi_def_cfa_offset 8
 297              		.cfi_offset 3, -8
 298              		.cfi_offset 14, -4
 299              		.loc 1 82 0
 300 0002 FFF7FEFF 		bl	tcp_tmr
 301              	.LVL18:
 302              		.loc 1 84 0
 303 0006 084B     		ldr	r3, .L37
 304 0008 1B68     		ldr	r3, [r3, #0]
 305 000a 33B1     		cbz	r3, .L36
 306              	.L34:
 307              		.loc 1 86 0
 308 000c 0749     		ldr	r1, .L37+4
 309 000e FA20     		movs	r0, #250
 310 0010 0022     		movs	r2, #0
 311              		.loc 1 91 0
 312 0012 BDE80840 		pop	{r3, lr}
 313              		.loc 1 86 0
 314 0016 FFF7FEBF 		b	sys_timeout
 315              	.LVL19:
 316              	.L36:
 317              		.loc 1 84 0 discriminator 1
 318 001a 054B     		ldr	r3, .L37+8
 319 001c 1B68     		ldr	r3, [r3, #0]
 320 001e 002B     		cmp	r3, #0
 321 0020 F4D1     		bne	.L34
 322              		.loc 1 89 0
 323 0022 044A     		ldr	r2, .L37+12
 324 0024 1360     		str	r3, [r2, #0]
 325 0026 08BD     		pop	{r3, pc}
 326              	.L38:
 327              		.align	2
 328              	.L37:
 329 0028 00000000 		.word	tcp_active_pcbs
 330 002c 00000000 		.word	tcpip_tcp_timer
 331 0030 00000000 		.word	tcp_tw_pcbs
 332 0034 00000000 		.word	.LANCHOR1
 333              		.cfi_endproc
 334              	.LFE7:
 335              		.size	tcpip_tcp_timer, .-tcpip_tcp_timer
 336 0038 AFF30080 		.section	.text.sys_untimeout,"ax",%progbits
 336      AFF30080 
 337              		.align	2
 338              		.p2align 4,,15
ARM GAS  /var/folders/5n/p_75w94d66l9ssrldxqdhh700000gn/T//cc4U8Rle.s 			page 7


 339              		.global	sys_untimeout
 340              		.thumb
 341              		.thumb_func
 342              		.type	sys_untimeout, %function
 343              	sys_untimeout:
 344              	.LFB13:
 345              		.loc 1 320 0
 346              		.cfi_startproc
 347              		@ args = 0, pretend = 0, frame = 0
 348              		@ frame_needed = 0, uses_anonymous_args = 0
 349              		@ link register save eliminated.
 350              	.LVL20:
 351 0000 30B4     		push	{r4, r5}
 352              	.LCFI5:
 353              		.cfi_def_cfa_offset 8
 354              		.cfi_offset 4, -8
 355              		.cfi_offset 5, -4
 356              		.loc 1 323 0
 357 0002 104D     		ldr	r5, .L54
 358 0004 2B68     		ldr	r3, [r5, #0]
 359 0006 CBB1     		cbz	r3, .L39
 360 0008 0024     		movs	r4, #0
 361 000a 03E0     		b	.L45
 362              	.LVL21:
 363              	.L41:
 364              		.loc 1 327 0
 365 000c 1A68     		ldr	r2, [r3, #0]
 366              	.LVL22:
 367 000e 1C46     		mov	r4, r3
 368 0010 A2B1     		cbz	r2, .L39
 369 0012 1346     		mov	r3, r2
 370              	.LVL23:
 371              	.L45:
 372              		.loc 1 328 0
 373 0014 9A68     		ldr	r2, [r3, #8]
 374 0016 8242     		cmp	r2, r0
 375 0018 F8D1     		bne	.L41
 376              		.loc 1 328 0 is_stmt 0 discriminator 1
 377 001a DA68     		ldr	r2, [r3, #12]
 378 001c 8A42     		cmp	r2, r1
 379 001e F5D1     		bne	.L41
 380              		.loc 1 332 0 is_stmt 1
 381 0020 1A68     		ldr	r2, [r3, #0]
 382              		.loc 1 331 0
 383 0022 6CB1     		cbz	r4, .L53
 384              		.loc 1 334 0
 385 0024 2260     		str	r2, [r4, #0]
 386 0026 1A68     		ldr	r2, [r3, #0]
 387              	.L43:
 388              		.loc 1 337 0
 389 0028 1AB1     		cbz	r2, .L44
 390              		.loc 1 338 0
 391 002a 5068     		ldr	r0, [r2, #4]
 392              	.LVL24:
 393 002c 5968     		ldr	r1, [r3, #4]
 394              	.LVL25:
 395 002e 4118     		adds	r1, r0, r1
ARM GAS  /var/folders/5n/p_75w94d66l9ssrldxqdhh700000gn/T//cc4U8Rle.s 			page 8


 396 0030 5160     		str	r1, [r2, #4]
 397              	.L44:
 398              		.loc 1 340 0
 399 0032 0B20     		movs	r0, #11
 400 0034 1946     		mov	r1, r3
 401              		.loc 1 345 0
 402 0036 30BC     		pop	{r4, r5}
 403              		.loc 1 340 0
 404 0038 FFF7FEBF 		b	memp_free
 405              	.LVL26:
 406              	.L39:
 407              		.loc 1 345 0
 408 003c 30BC     		pop	{r4, r5}
 409 003e 7047     		bx	lr
 410              	.LVL27:
 411              	.L53:
 412              		.loc 1 332 0
 413 0040 2A60     		str	r2, [r5, #0]
 414 0042 F1E7     		b	.L43
 415              	.L55:
 416              		.align	2
 417              	.L54:
 418 0044 00000000 		.word	.LANCHOR0
 419              		.cfi_endproc
 420              	.LFE13:
 421              		.size	sys_untimeout, .-sys_untimeout
 422 0048 AFF30080 		.section	.text.sys_timeouts_mbox_fetch,"ax",%progbits
 422      AFF30080 
 423              		.align	2
 424              		.p2align 4,,15
 425              		.global	sys_timeouts_mbox_fetch
 426              		.thumb
 427              		.thumb_func
 428              		.type	sys_timeouts_mbox_fetch, %function
 429              	sys_timeouts_mbox_fetch:
 430              	.LFB14:
 431              		.loc 1 419 0
 432              		.cfi_startproc
 433              		@ args = 0, pretend = 0, frame = 0
 434              		@ frame_needed = 0, uses_anonymous_args = 0
 435              	.LVL28:
 436 0000 2DE9F843 		push	{r3, r4, r5, r6, r7, r8, r9, lr}
 437              	.LCFI6:
 438              		.cfi_def_cfa_offset 32
 439              		.cfi_offset 3, -32
 440              		.cfi_offset 4, -28
 441              		.cfi_offset 5, -24
 442              		.cfi_offset 6, -20
 443              		.cfi_offset 7, -16
 444              		.cfi_offset 8, -12
 445              		.cfi_offset 9, -8
 446              		.cfi_offset 14, -4
 447 0004 194C     		ldr	r4, .L75
 448              		.loc 1 419 0
 449 0006 0746     		mov	r7, r0
 450 0008 0E46     		mov	r6, r1
 451              		.loc 1 426 0
ARM GAS  /var/folders/5n/p_75w94d66l9ssrldxqdhh700000gn/T//cc4U8Rle.s 			page 9


 452 000a A046     		mov	r8, r4
 453 000c 09E0     		b	.L72
 454              	.LVL29:
 455              	.L58:
 456              		.loc 1 441 0
 457 000e 9D68     		ldr	r5, [r3, #8]
 458              	.LVL30:
 459              		.loc 1 440 0
 460 0010 1A68     		ldr	r2, [r3, #0]
 461              		.loc 1 442 0
 462 0012 D3F80C90 		ldr	r9, [r3, #12]
 463              	.LVL31:
 464              		.loc 1 440 0
 465 0016 2260     		str	r2, [r4, #0]
 466              		.loc 1 449 0
 467 0018 0B20     		movs	r0, #11
 468 001a 1946     		mov	r1, r3
 469 001c FFF7FEFF 		bl	memp_free
 470              	.LVL32:
 471              		.loc 1 450 0
 472 0020 6DB9     		cbnz	r5, .L73
 473              	.LVL33:
 474              	.L72:
 475              		.loc 1 426 0
 476 0022 2368     		ldr	r3, [r4, #0]
 477 0024 83B1     		cbz	r3, .L74
 478              	.L57:
 479              		.loc 1 429 0
 480 0026 5A68     		ldr	r2, [r3, #4]
 481 0028 002A     		cmp	r2, #0
 482 002a F0D0     		beq	.L58
 483              		.loc 1 430 0
 484 002c 3146     		mov	r1, r6
 485 002e 3846     		mov	r0, r7
 486 0030 FFF7FEFF 		bl	sys_arch_mbox_fetch
 487              	.LVL34:
 488              		.loc 1 435 0
 489 0034 431C     		adds	r3, r0, #1
 490 0036 0ED1     		bne	.L59
 491 0038 D8F80030 		ldr	r3, [r8, #0]
 492 003c E7E7     		b	.L58
 493              	.LVL35:
 494              	.L73:
 495              		.loc 1 454 0
 496 003e 4846     		mov	r0, r9
 497 0040 A847     		blx	r5
 498              	.LVL36:
 499              		.loc 1 426 0
 500 0042 2368     		ldr	r3, [r4, #0]
 501 0044 002B     		cmp	r3, #0
 502 0046 EED1     		bne	.L57
 503              	.LVL37:
 504              	.L74:
 505              		.loc 1 427 0
 506 0048 3846     		mov	r0, r7
 507 004a 3146     		mov	r1, r6
 508 004c 1A46     		mov	r2, r3
ARM GAS  /var/folders/5n/p_75w94d66l9ssrldxqdhh700000gn/T//cc4U8Rle.s 			page 10


 509              		.loc 1 472 0
 510 004e BDE8F843 		pop	{r3, r4, r5, r6, r7, r8, r9, lr}
 511              		.loc 1 427 0
 512 0052 FFF7FEBF 		b	sys_arch_mbox_fetch
 513              	.LVL38:
 514              	.L59:
 515              		.loc 1 465 0
 516 0056 054B     		ldr	r3, .L75
 517 0058 1B68     		ldr	r3, [r3, #0]
 518 005a 5A68     		ldr	r2, [r3, #4]
 519 005c 9042     		cmp	r0, r2
 520              		.loc 1 466 0
 521 005e 34BF     		ite	cc
 522 0060 C0EB0202 		rsbcc	r2, r0, r2
 523              		.loc 1 468 0
 524 0064 0022     		movcs	r2, #0
 525 0066 5A60     		str	r2, [r3, #4]
 526 0068 BDE8F883 		pop	{r3, r4, r5, r6, r7, r8, r9, pc}
 527              	.L76:
 528              		.align	2
 529              	.L75:
 530 006c 00000000 		.word	.LANCHOR0
 531              		.cfi_endproc
 532              	.LFE14:
 533              		.size	sys_timeouts_mbox_fetch, .-sys_timeouts_mbox_fetch
 534              		.section	.bss.tcpip_tcp_timer_active,"aw",%nobits
 535              		.align	2
 536              		.set	.LANCHOR1,. + 0
 537              		.type	tcpip_tcp_timer_active, %object
 538              		.size	tcpip_tcp_timer_active, 4
 539              	tcpip_tcp_timer_active:
 540 0000 00000000 		.space	4
 541              		.section	.bss.next_timeout,"aw",%nobits
 542              		.align	2
 543              		.set	.LANCHOR0,. + 0
 544              		.type	next_timeout, %object
 545              		.size	next_timeout, 4
 546              	next_timeout:
 547 0000 00000000 		.space	4
 548              		.text
 549              	.Letext0:
 550              		.file 2 "/usr/local/cross/lib/gcc/arm-none-eabi/4.7.2/../../../../arm-none-eabi/include/stdint.h"
 551              		.file 3 "../../os/ports/GCC/ARMCMx/chtypes.h"
 552              		.file 4 "../../os/kernel/include/chlists.h"
 553              		.file 5 "../../os/kernel/include/chthreads.h"
 554              		.file 6 "../../os/ports/GCC/ARMCMx/chcore_v7m.h"
 555              		.file 7 "../../os/kernel/include/chsem.h"
 556              		.file 8 "../../os/kernel/include/chmtx.h"
 557              		.file 9 "../../os/kernel/include/chmboxes.h"
 558              		.file 10 "../../os/various/lwip_bindings/arch/cc.h"
 559              		.file 11 "../../ext/lwip-1.4.0/src/include/lwip/err.h"
 560              		.file 12 "../../os/various/lwip_bindings/arch/sys_arch.h"
 561              		.file 13 "../../ext/lwip-1.4.0/src/include/lwip/timers.h"
 562              		.file 14 "../../ext/lwip-1.4.0/src/include/lwip/pbuf.h"
 563              		.file 15 "../../ext/lwip-1.4.0/src/include/ipv4/lwip/ip_addr.h"
 564              		.file 16 "../../ext/lwip-1.4.0/src/include/lwip/tcp.h"
 565              		.file 17 "../../ext/lwip-1.4.0/src/include/lwip/tcp_impl.h"
ARM GAS  /var/folders/5n/p_75w94d66l9ssrldxqdhh700000gn/T//cc4U8Rle.s 			page 11


 566              		.file 18 "../../ext/lwip-1.4.0/src/include/lwip/memp.h"
 567              		.file 19 "../../ext/lwip-1.4.0/src/include/netif/etharp.h"
 568              		.file 20 "../../ext/lwip-1.4.0/src/include/ipv4/lwip/ip_frag.h"
 569              		.file 21 "../../ext/lwip-1.4.0/src/include/lwip/sys.h"
 570              		.section	.debug_info,"",%progbits
 571              	.Ldebug_info0:
 572 0000 760F0000 		.4byte	0xf76
 573 0004 0200     		.2byte	0x2
 574 0006 00000000 		.4byte	.Ldebug_abbrev0
 575 000a 04       		.byte	0x4
 576 000b 01       		.uleb128 0x1
 577 000c A9010000 		.4byte	.LASF199
 578 0010 01       		.byte	0x1
 579 0011 4A020000 		.4byte	.LASF200
 580 0015 59040000 		.4byte	.LASF201
 581 0019 00000000 		.4byte	.Ldebug_ranges0+0
 582 001d 00000000 		.4byte	0
 583 0021 00000000 		.4byte	0
 584 0025 00000000 		.4byte	.Ldebug_line0
 585 0029 02       		.uleb128 0x2
 586 002a 04       		.byte	0x4
 587 002b 05       		.byte	0x5
 588 002c 696E7400 		.ascii	"int\000"
 589 0030 03       		.uleb128 0x3
 590 0031 04       		.byte	0x4
 591 0032 07       		.byte	0x7
 592 0033 C9000000 		.4byte	.LASF0
 593 0037 04       		.uleb128 0x4
 594 0038 91010000 		.4byte	.LASF2
 595 003c 02       		.byte	0x2
 596 003d 29       		.byte	0x29
 597 003e 42000000 		.4byte	0x42
 598 0042 03       		.uleb128 0x3
 599 0043 01       		.byte	0x1
 600 0044 06       		.byte	0x6
 601 0045 9E070000 		.4byte	.LASF1
 602 0049 04       		.uleb128 0x4
 603 004a A4030000 		.4byte	.LASF3
 604 004e 02       		.byte	0x2
 605 004f 2A       		.byte	0x2a
 606 0050 54000000 		.4byte	0x54
 607 0054 03       		.uleb128 0x3
 608 0055 01       		.byte	0x1
 609 0056 08       		.byte	0x8
 610 0057 EB060000 		.4byte	.LASF4
 611 005b 04       		.uleb128 0x4
 612 005c DB010000 		.4byte	.LASF5
 613 0060 02       		.byte	0x2
 614 0061 35       		.byte	0x35
 615 0062 66000000 		.4byte	0x66
 616 0066 03       		.uleb128 0x3
 617 0067 02       		.byte	0x2
 618 0068 05       		.byte	0x5
 619 0069 73050000 		.4byte	.LASF6
 620 006d 04       		.uleb128 0x4
 621 006e 30050000 		.4byte	.LASF7
 622 0072 02       		.byte	0x2
ARM GAS  /var/folders/5n/p_75w94d66l9ssrldxqdhh700000gn/T//cc4U8Rle.s 			page 12


 623 0073 36       		.byte	0x36
 624 0074 78000000 		.4byte	0x78
 625 0078 03       		.uleb128 0x3
 626 0079 02       		.byte	0x2
 627 007a 07       		.byte	0x7
 628 007b B2070000 		.4byte	.LASF8
 629 007f 04       		.uleb128 0x4
 630 0080 C9060000 		.4byte	.LASF9
 631 0084 02       		.byte	0x2
 632 0085 4F       		.byte	0x4f
 633 0086 8A000000 		.4byte	0x8a
 634 008a 03       		.uleb128 0x3
 635 008b 04       		.byte	0x4
 636 008c 05       		.byte	0x5
 637 008d 99050000 		.4byte	.LASF10
 638 0091 04       		.uleb128 0x4
 639 0092 88010000 		.4byte	.LASF11
 640 0096 02       		.byte	0x2
 641 0097 50       		.byte	0x50
 642 0098 9C000000 		.4byte	0x9c
 643 009c 03       		.uleb128 0x3
 644 009d 04       		.byte	0x4
 645 009e 07       		.byte	0x7
 646 009f 93060000 		.4byte	.LASF12
 647 00a3 03       		.uleb128 0x3
 648 00a4 08       		.byte	0x8
 649 00a5 05       		.byte	0x5
 650 00a6 04040000 		.4byte	.LASF13
 651 00aa 03       		.uleb128 0x3
 652 00ab 08       		.byte	0x8
 653 00ac 07       		.byte	0x7
 654 00ad EB010000 		.4byte	.LASF14
 655 00b1 04       		.uleb128 0x4
 656 00b2 1C050000 		.4byte	.LASF15
 657 00b6 03       		.byte	0x3
 658 00b7 2F       		.byte	0x2f
 659 00b8 49000000 		.4byte	0x49
 660 00bc 04       		.uleb128 0x4
 661 00bd 86030000 		.4byte	.LASF16
 662 00c1 03       		.byte	0x3
 663 00c2 30       		.byte	0x30
 664 00c3 49000000 		.4byte	0x49
 665 00c7 04       		.uleb128 0x4
 666 00c8 8B060000 		.4byte	.LASF17
 667 00cc 03       		.byte	0x3
 668 00cd 31       		.byte	0x31
 669 00ce 49000000 		.4byte	0x49
 670 00d2 04       		.uleb128 0x4
 671 00d3 D3010000 		.4byte	.LASF18
 672 00d7 03       		.byte	0x3
 673 00d8 32       		.byte	0x32
 674 00d9 91000000 		.4byte	0x91
 675 00dd 04       		.uleb128 0x4
 676 00de 3C040000 		.4byte	.LASF19
 677 00e2 03       		.byte	0x3
 678 00e3 33       		.byte	0x33
 679 00e4 7F000000 		.4byte	0x7f
ARM GAS  /var/folders/5n/p_75w94d66l9ssrldxqdhh700000gn/T//cc4U8Rle.s 			page 13


 680 00e8 04       		.uleb128 0x4
 681 00e9 9D010000 		.4byte	.LASF20
 682 00ed 03       		.byte	0x3
 683 00ee 35       		.byte	0x35
 684 00ef 91000000 		.4byte	0x91
 685 00f3 04       		.uleb128 0x4
 686 00f4 A4000000 		.4byte	.LASF21
 687 00f8 03       		.byte	0x3
 688 00f9 36       		.byte	0x36
 689 00fa 91000000 		.4byte	0x91
 690 00fe 04       		.uleb128 0x4
 691 00ff 02020000 		.4byte	.LASF22
 692 0103 03       		.byte	0x3
 693 0104 37       		.byte	0x37
 694 0105 7F000000 		.4byte	0x7f
 695 0109 04       		.uleb128 0x4
 696 010a 7F030000 		.4byte	.LASF23
 697 010e 04       		.byte	0x4
 698 010f 2A       		.byte	0x2a
 699 0110 14010000 		.4byte	0x114
 700 0114 05       		.uleb128 0x5
 701 0115 7F030000 		.4byte	.LASF23
 702 0119 48       		.byte	0x48
 703 011a 05       		.byte	0x5
 704 011b 5E       		.byte	0x5e
 705 011c 2B020000 		.4byte	0x22b
 706 0120 06       		.uleb128 0x6
 707 0121 D3050000 		.4byte	.LASF24
 708 0125 05       		.byte	0x5
 709 0126 5F       		.byte	0x5f
 710 0127 50020000 		.4byte	0x250
 711 012b 02       		.byte	0x2
 712 012c 23       		.byte	0x23
 713 012d 00       		.uleb128 0
 714 012e 06       		.uleb128 0x6
 715 012f 7B060000 		.4byte	.LASF25
 716 0133 05       		.byte	0x5
 717 0134 61       		.byte	0x61
 718 0135 50020000 		.4byte	0x250
 719 0139 02       		.byte	0x2
 720 013a 23       		.byte	0x23
 721 013b 04       		.uleb128 0x4
 722 013c 06       		.uleb128 0x6
 723 013d 62000000 		.4byte	.LASF26
 724 0141 05       		.byte	0x5
 725 0142 63       		.byte	0x63
 726 0143 D2000000 		.4byte	0xd2
 727 0147 02       		.byte	0x2
 728 0148 23       		.byte	0x23
 729 0149 08       		.uleb128 0x8
 730 014a 06       		.uleb128 0x6
 731 014b F0050000 		.4byte	.LASF27
 732 014f 05       		.byte	0x5
 733 0150 64       		.byte	0x64
 734 0151 1D030000 		.4byte	0x31d
 735 0155 02       		.byte	0x2
 736 0156 23       		.byte	0x23
ARM GAS  /var/folders/5n/p_75w94d66l9ssrldxqdhh700000gn/T//cc4U8Rle.s 			page 14


 737 0157 0C       		.uleb128 0xc
 738 0158 06       		.uleb128 0x6
 739 0159 13020000 		.4byte	.LASF28
 740 015d 05       		.byte	0x5
 741 015e 66       		.byte	0x66
 742 015f 50020000 		.4byte	0x250
 743 0163 02       		.byte	0x2
 744 0164 23       		.byte	0x23
 745 0165 10       		.uleb128 0x10
 746 0166 06       		.uleb128 0x6
 747 0167 8F030000 		.4byte	.LASF29
 748 016b 05       		.byte	0x5
 749 016c 67       		.byte	0x67
 750 016d 50020000 		.4byte	0x250
 751 0171 02       		.byte	0x2
 752 0172 23       		.byte	0x23
 753 0173 14       		.uleb128 0x14
 754 0174 06       		.uleb128 0x6
 755 0175 26030000 		.4byte	.LASF30
 756 0179 05       		.byte	0x5
 757 017a 6E       		.byte	0x6e
 758 017b 7D040000 		.4byte	0x47d
 759 017f 02       		.byte	0x2
 760 0180 23       		.byte	0x23
 761 0181 18       		.uleb128 0x18
 762 0182 06       		.uleb128 0x6
 763 0183 97030000 		.4byte	.LASF31
 764 0187 05       		.byte	0x5
 765 0188 79       		.byte	0x79
 766 0189 BC000000 		.4byte	0xbc
 767 018d 02       		.byte	0x2
 768 018e 23       		.byte	0x23
 769 018f 1C       		.uleb128 0x1c
 770 0190 06       		.uleb128 0x6
 771 0191 AA040000 		.4byte	.LASF32
 772 0195 05       		.byte	0x5
 773 0196 7D       		.byte	0x7d
 774 0197 B1000000 		.4byte	0xb1
 775 019b 02       		.byte	0x2
 776 019c 23       		.byte	0x23
 777 019d 1D       		.uleb128 0x1d
 778 019e 06       		.uleb128 0x6
 779 019f 0F070000 		.4byte	.LASF33
 780 01a3 05       		.byte	0x5
 781 01a4 82       		.byte	0x82
 782 01a5 C7000000 		.4byte	0xc7
 783 01a9 02       		.byte	0x2
 784 01aa 23       		.byte	0x23
 785 01ab 1E       		.uleb128 0x1e
 786 01ac 06       		.uleb128 0x6
 787 01ad 47000000 		.4byte	.LASF34
 788 01b1 05       		.byte	0x5
 789 01b2 89       		.byte	0x89
 790 01b3 59030000 		.4byte	0x359
 791 01b7 02       		.byte	0x2
 792 01b8 23       		.byte	0x23
 793 01b9 20       		.uleb128 0x20
ARM GAS  /var/folders/5n/p_75w94d66l9ssrldxqdhh700000gn/T//cc4U8Rle.s 			page 15


 794 01ba 07       		.uleb128 0x7
 795 01bb 705F7500 		.ascii	"p_u\000"
 796 01bf 05       		.byte	0x5
 797 01c0 AE       		.byte	0xae
 798 01c1 48040000 		.4byte	0x448
 799 01c5 02       		.byte	0x2
 800 01c6 23       		.byte	0x23
 801 01c7 24       		.uleb128 0x24
 802 01c8 06       		.uleb128 0x6
 803 01c9 1E000000 		.4byte	.LASF35
 804 01cd 05       		.byte	0x5
 805 01ce B3       		.byte	0xb3
 806 01cf 78020000 		.4byte	0x278
 807 01d3 02       		.byte	0x2
 808 01d4 23       		.byte	0x23
 809 01d5 28       		.uleb128 0x28
 810 01d6 06       		.uleb128 0x6
 811 01d7 BE000000 		.4byte	.LASF36
 812 01db 05       		.byte	0x5
 813 01dc B9       		.byte	0xb9
 814 01dd 56020000 		.4byte	0x256
 815 01e1 02       		.byte	0x2
 816 01e2 23       		.byte	0x23
 817 01e3 2C       		.uleb128 0x2c
 818 01e4 06       		.uleb128 0x6
 819 01e5 16050000 		.4byte	.LASF37
 820 01e9 05       		.byte	0x5
 821 01ea BD       		.byte	0xbd
 822 01eb DD000000 		.4byte	0xdd
 823 01ef 02       		.byte	0x2
 824 01f0 23       		.byte	0x23
 825 01f1 34       		.uleb128 0x34
 826 01f2 06       		.uleb128 0x6
 827 01f3 86050000 		.4byte	.LASF38
 828 01f7 05       		.byte	0x5
 829 01f8 C3       		.byte	0xc3
 830 01f9 E8000000 		.4byte	0xe8
 831 01fd 02       		.byte	0x2
 832 01fe 23       		.byte	0x23
 833 01ff 38       		.uleb128 0x38
 834 0200 06       		.uleb128 0x6
 835 0201 CF030000 		.4byte	.LASF39
 836 0205 05       		.byte	0x5
 837 0206 CA       		.byte	0xca
 838 0207 8F040000 		.4byte	0x48f
 839 020b 02       		.byte	0x2
 840 020c 23       		.byte	0x23
 841 020d 3C       		.uleb128 0x3c
 842 020e 06       		.uleb128 0x6
 843 020f 5B050000 		.4byte	.LASF40
 844 0213 05       		.byte	0x5
 845 0214 CE       		.byte	0xce
 846 0215 D2000000 		.4byte	0xd2
 847 0219 02       		.byte	0x2
 848 021a 23       		.byte	0x23
 849 021b 40       		.uleb128 0x40
 850 021c 06       		.uleb128 0x6
ARM GAS  /var/folders/5n/p_75w94d66l9ssrldxqdhh700000gn/T//cc4U8Rle.s 			page 16


 851 021d C7030000 		.4byte	.LASF41
 852 0221 05       		.byte	0x5
 853 0222 D4       		.byte	0xd4
 854 0223 8E020000 		.4byte	0x28e
 855 0227 02       		.byte	0x2
 856 0228 23       		.byte	0x23
 857 0229 44       		.uleb128 0x44
 858 022a 00       		.byte	0
 859 022b 08       		.uleb128 0x8
 860 022c 08       		.byte	0x8
 861 022d 04       		.byte	0x4
 862 022e 61       		.byte	0x61
 863 022f 50020000 		.4byte	0x250
 864 0233 06       		.uleb128 0x6
 865 0234 D3050000 		.4byte	.LASF24
 866 0238 04       		.byte	0x4
 867 0239 62       		.byte	0x62
 868 023a 50020000 		.4byte	0x250
 869 023e 02       		.byte	0x2
 870 023f 23       		.byte	0x23
 871 0240 00       		.uleb128 0
 872 0241 06       		.uleb128 0x6
 873 0242 7B060000 		.4byte	.LASF25
 874 0246 04       		.byte	0x4
 875 0247 64       		.byte	0x64
 876 0248 50020000 		.4byte	0x250
 877 024c 02       		.byte	0x2
 878 024d 23       		.byte	0x23
 879 024e 04       		.uleb128 0x4
 880 024f 00       		.byte	0
 881 0250 09       		.uleb128 0x9
 882 0251 04       		.byte	0x4
 883 0252 09010000 		.4byte	0x109
 884 0256 04       		.uleb128 0x4
 885 0257 50030000 		.4byte	.LASF42
 886 025b 04       		.byte	0x4
 887 025c 66       		.byte	0x66
 888 025d 2B020000 		.4byte	0x22b
 889 0261 08       		.uleb128 0x8
 890 0262 04       		.byte	0x4
 891 0263 04       		.byte	0x4
 892 0264 6B       		.byte	0x6b
 893 0265 78020000 		.4byte	0x278
 894 0269 06       		.uleb128 0x6
 895 026a D3050000 		.4byte	.LASF24
 896 026e 04       		.byte	0x4
 897 026f 6D       		.byte	0x6d
 898 0270 50020000 		.4byte	0x250
 899 0274 02       		.byte	0x2
 900 0275 23       		.byte	0x23
 901 0276 00       		.uleb128 0
 902 0277 00       		.byte	0
 903 0278 04       		.uleb128 0x4
 904 0279 12000000 		.4byte	.LASF43
 905 027d 04       		.byte	0x4
 906 027e 70       		.byte	0x70
 907 027f 61020000 		.4byte	0x261
ARM GAS  /var/folders/5n/p_75w94d66l9ssrldxqdhh700000gn/T//cc4U8Rle.s 			page 17


 908 0283 04       		.uleb128 0x4
 909 0284 59000000 		.4byte	.LASF44
 910 0288 06       		.byte	0x6
 911 0289 D7       		.byte	0xd7
 912 028a 8E020000 		.4byte	0x28e
 913 028e 0A       		.uleb128 0xa
 914 028f 04       		.byte	0x4
 915 0290 05       		.uleb128 0x5
 916 0291 3E050000 		.4byte	.LASF45
 917 0295 24       		.byte	0x24
 918 0296 06       		.byte	0x6
 919 0297 FE       		.byte	0xfe
 920 0298 1D030000 		.4byte	0x31d
 921 029c 0B       		.uleb128 0xb
 922 029d 723400   		.ascii	"r4\000"
 923 02a0 06       		.byte	0x6
 924 02a1 1101     		.2byte	0x111
 925 02a3 83020000 		.4byte	0x283
 926 02a7 02       		.byte	0x2
 927 02a8 23       		.byte	0x23
 928 02a9 00       		.uleb128 0
 929 02aa 0B       		.uleb128 0xb
 930 02ab 723500   		.ascii	"r5\000"
 931 02ae 06       		.byte	0x6
 932 02af 1201     		.2byte	0x112
 933 02b1 83020000 		.4byte	0x283
 934 02b5 02       		.byte	0x2
 935 02b6 23       		.byte	0x23
 936 02b7 04       		.uleb128 0x4
 937 02b8 0B       		.uleb128 0xb
 938 02b9 723600   		.ascii	"r6\000"
 939 02bc 06       		.byte	0x6
 940 02bd 1301     		.2byte	0x113
 941 02bf 83020000 		.4byte	0x283
 942 02c3 02       		.byte	0x2
 943 02c4 23       		.byte	0x23
 944 02c5 08       		.uleb128 0x8
 945 02c6 0B       		.uleb128 0xb
 946 02c7 723700   		.ascii	"r7\000"
 947 02ca 06       		.byte	0x6
 948 02cb 1401     		.2byte	0x114
 949 02cd 83020000 		.4byte	0x283
 950 02d1 02       		.byte	0x2
 951 02d2 23       		.byte	0x23
 952 02d3 0C       		.uleb128 0xc
 953 02d4 0B       		.uleb128 0xb
 954 02d5 723800   		.ascii	"r8\000"
 955 02d8 06       		.byte	0x6
 956 02d9 1501     		.2byte	0x115
 957 02db 83020000 		.4byte	0x283
 958 02df 02       		.byte	0x2
 959 02e0 23       		.byte	0x23
 960 02e1 10       		.uleb128 0x10
 961 02e2 0B       		.uleb128 0xb
 962 02e3 723900   		.ascii	"r9\000"
 963 02e6 06       		.byte	0x6
 964 02e7 1601     		.2byte	0x116
ARM GAS  /var/folders/5n/p_75w94d66l9ssrldxqdhh700000gn/T//cc4U8Rle.s 			page 18


 965 02e9 83020000 		.4byte	0x283
 966 02ed 02       		.byte	0x2
 967 02ee 23       		.byte	0x23
 968 02ef 14       		.uleb128 0x14
 969 02f0 0B       		.uleb128 0xb
 970 02f1 72313000 		.ascii	"r10\000"
 971 02f5 06       		.byte	0x6
 972 02f6 1701     		.2byte	0x117
 973 02f8 83020000 		.4byte	0x283
 974 02fc 02       		.byte	0x2
 975 02fd 23       		.byte	0x23
 976 02fe 18       		.uleb128 0x18
 977 02ff 0B       		.uleb128 0xb
 978 0300 72313100 		.ascii	"r11\000"
 979 0304 06       		.byte	0x6
 980 0305 1801     		.2byte	0x118
 981 0307 83020000 		.4byte	0x283
 982 030b 02       		.byte	0x2
 983 030c 23       		.byte	0x23
 984 030d 1C       		.uleb128 0x1c
 985 030e 0B       		.uleb128 0xb
 986 030f 6C7200   		.ascii	"lr\000"
 987 0312 06       		.byte	0x6
 988 0313 1901     		.2byte	0x119
 989 0315 83020000 		.4byte	0x283
 990 0319 02       		.byte	0x2
 991 031a 23       		.byte	0x23
 992 031b 20       		.uleb128 0x20
 993 031c 00       		.byte	0
 994 031d 0C       		.uleb128 0xc
 995 031e 4C040000 		.4byte	.LASF46
 996 0322 04       		.byte	0x4
 997 0323 06       		.byte	0x6
 998 0324 2301     		.2byte	0x123
 999 0326 3A030000 		.4byte	0x33a
 1000 032a 0B       		.uleb128 0xb
 1001 032b 72313300 		.ascii	"r13\000"
 1002 032f 06       		.byte	0x6
 1003 0330 2401     		.2byte	0x124
 1004 0332 3A030000 		.4byte	0x33a
 1005 0336 02       		.byte	0x2
 1006 0337 23       		.byte	0x23
 1007 0338 00       		.uleb128 0
 1008 0339 00       		.byte	0
 1009 033a 09       		.uleb128 0x9
 1010 033b 04       		.byte	0x4
 1011 033c 90020000 		.4byte	0x290
 1012 0340 03       		.uleb128 0x3
 1013 0341 04       		.byte	0x4
 1014 0342 07       		.byte	0x7
 1015 0343 82060000 		.4byte	.LASF47
 1016 0347 09       		.uleb128 0x9
 1017 0348 04       		.byte	0x4
 1018 0349 4D030000 		.4byte	0x34d
 1019 034d 0D       		.uleb128 0xd
 1020 034e 01       		.byte	0x1
 1021 034f 59030000 		.4byte	0x359
ARM GAS  /var/folders/5n/p_75w94d66l9ssrldxqdhh700000gn/T//cc4U8Rle.s 			page 19


 1022 0353 0E       		.uleb128 0xe
 1023 0354 8E020000 		.4byte	0x28e
 1024 0358 00       		.byte	0
 1025 0359 0F       		.uleb128 0xf
 1026 035a F3000000 		.4byte	0xf3
 1027 035e 05       		.uleb128 0x5
 1028 035f E2040000 		.4byte	.LASF48
 1029 0363 0C       		.byte	0xc
 1030 0364 07       		.byte	0x7
 1031 0365 2C       		.byte	0x2c
 1032 0366 87030000 		.4byte	0x387
 1033 036a 06       		.uleb128 0x6
 1034 036b B6000000 		.4byte	.LASF49
 1035 036f 07       		.byte	0x7
 1036 0370 2D       		.byte	0x2d
 1037 0371 56020000 		.4byte	0x256
 1038 0375 02       		.byte	0x2
 1039 0376 23       		.byte	0x23
 1040 0377 00       		.uleb128 0
 1041 0378 06       		.uleb128 0x6
 1042 0379 74010000 		.4byte	.LASF50
 1043 037d 07       		.byte	0x7
 1044 037e 2F       		.byte	0x2f
 1045 037f FE000000 		.4byte	0xfe
 1046 0383 02       		.byte	0x2
 1047 0384 23       		.byte	0x23
 1048 0385 08       		.uleb128 0x8
 1049 0386 00       		.byte	0
 1050 0387 04       		.uleb128 0x4
 1051 0388 E2040000 		.4byte	.LASF48
 1052 038c 07       		.byte	0x7
 1053 038d 30       		.byte	0x30
 1054 038e 5E030000 		.4byte	0x35e
 1055 0392 05       		.uleb128 0x5
 1056 0393 01030000 		.4byte	.LASF51
 1057 0397 10       		.byte	0x10
 1058 0398 08       		.byte	0x8
 1059 0399 2C       		.byte	0x2c
 1060 039a C9030000 		.4byte	0x3c9
 1061 039e 06       		.uleb128 0x6
 1062 039f 91050000 		.4byte	.LASF52
 1063 03a3 08       		.byte	0x8
 1064 03a4 2D       		.byte	0x2d
 1065 03a5 56020000 		.4byte	0x256
 1066 03a9 02       		.byte	0x2
 1067 03aa 23       		.byte	0x23
 1068 03ab 00       		.uleb128 0
 1069 03ac 06       		.uleb128 0x6
 1070 03ad AE000000 		.4byte	.LASF53
 1071 03b1 08       		.byte	0x8
 1072 03b2 2F       		.byte	0x2f
 1073 03b3 50020000 		.4byte	0x250
 1074 03b7 02       		.byte	0x2
 1075 03b8 23       		.byte	0x23
 1076 03b9 08       		.uleb128 0x8
 1077 03ba 06       		.uleb128 0x6
 1078 03bb 97070000 		.4byte	.LASF54
ARM GAS  /var/folders/5n/p_75w94d66l9ssrldxqdhh700000gn/T//cc4U8Rle.s 			page 20


 1079 03bf 08       		.byte	0x8
 1080 03c0 31       		.byte	0x31
 1081 03c1 C9030000 		.4byte	0x3c9
 1082 03c5 02       		.byte	0x2
 1083 03c6 23       		.byte	0x23
 1084 03c7 0C       		.uleb128 0xc
 1085 03c8 00       		.byte	0
 1086 03c9 09       		.uleb128 0x9
 1087 03ca 04       		.byte	0x4
 1088 03cb 92030000 		.4byte	0x392
 1089 03cf 04       		.uleb128 0x4
 1090 03d0 01030000 		.4byte	.LASF51
 1091 03d4 08       		.byte	0x8
 1092 03d5 33       		.byte	0x33
 1093 03d6 92030000 		.4byte	0x392
 1094 03da 08       		.uleb128 0x8
 1095 03db 28       		.byte	0x28
 1096 03dc 09       		.byte	0x9
 1097 03dd 33       		.byte	0x33
 1098 03de 37040000 		.4byte	0x437
 1099 03e2 06       		.uleb128 0x6
 1100 03e3 A5060000 		.4byte	.LASF55
 1101 03e7 09       		.byte	0x9
 1102 03e8 34       		.byte	0x34
 1103 03e9 37040000 		.4byte	0x437
 1104 03ed 02       		.byte	0x2
 1105 03ee 23       		.byte	0x23
 1106 03ef 00       		.uleb128 0
 1107 03f0 06       		.uleb128 0x6
 1108 03f1 CF040000 		.4byte	.LASF56
 1109 03f5 09       		.byte	0x9
 1110 03f6 36       		.byte	0x36
 1111 03f7 37040000 		.4byte	0x437
 1112 03fb 02       		.byte	0x2
 1113 03fc 23       		.byte	0x23
 1114 03fd 04       		.uleb128 0x4
 1115 03fe 06       		.uleb128 0x6
 1116 03ff 7D050000 		.4byte	.LASF57
 1117 0403 09       		.byte	0x9
 1118 0404 38       		.byte	0x38
 1119 0405 37040000 		.4byte	0x437
 1120 0409 02       		.byte	0x2
 1121 040a 23       		.byte	0x23
 1122 040b 08       		.uleb128 0x8
 1123 040c 06       		.uleb128 0x6
 1124 040d CF020000 		.4byte	.LASF58
 1125 0411 09       		.byte	0x9
 1126 0412 39       		.byte	0x39
 1127 0413 37040000 		.4byte	0x437
 1128 0417 02       		.byte	0x2
 1129 0418 23       		.byte	0x23
 1130 0419 0C       		.uleb128 0xc
 1131 041a 06       		.uleb128 0x6
 1132 041b AC030000 		.4byte	.LASF59
 1133 041f 09       		.byte	0x9
 1134 0420 3A       		.byte	0x3a
 1135 0421 87030000 		.4byte	0x387
ARM GAS  /var/folders/5n/p_75w94d66l9ssrldxqdhh700000gn/T//cc4U8Rle.s 			page 21


 1136 0425 02       		.byte	0x2
 1137 0426 23       		.byte	0x23
 1138 0427 10       		.uleb128 0x10
 1139 0428 06       		.uleb128 0x6
 1140 0429 07030000 		.4byte	.LASF60
 1141 042d 09       		.byte	0x9
 1142 042e 3C       		.byte	0x3c
 1143 042f 87030000 		.4byte	0x387
 1144 0433 02       		.byte	0x2
 1145 0434 23       		.byte	0x23
 1146 0435 1C       		.uleb128 0x1c
 1147 0436 00       		.byte	0
 1148 0437 09       		.uleb128 0x9
 1149 0438 04       		.byte	0x4
 1150 0439 DD000000 		.4byte	0xdd
 1151 043d 04       		.uleb128 0x4
 1152 043e 60010000 		.4byte	.LASF61
 1153 0442 09       		.byte	0x9
 1154 0443 3E       		.byte	0x3e
 1155 0444 DA030000 		.4byte	0x3da
 1156 0448 10       		.uleb128 0x10
 1157 0449 04       		.byte	0x4
 1158 044a 05       		.byte	0x5
 1159 044b 90       		.byte	0x90
 1160 044c 7D040000 		.4byte	0x47d
 1161 0450 11       		.uleb128 0x11
 1162 0451 9A020000 		.4byte	.LASF62
 1163 0455 05       		.byte	0x5
 1164 0456 97       		.byte	0x97
 1165 0457 DD000000 		.4byte	0xdd
 1166 045b 11       		.uleb128 0x11
 1167 045c 22080000 		.4byte	.LASF63
 1168 0460 05       		.byte	0x5
 1169 0461 9E       		.byte	0x9e
 1170 0462 DD000000 		.4byte	0xdd
 1171 0466 11       		.uleb128 0x11
 1172 0467 29010000 		.4byte	.LASF64
 1173 046b 05       		.byte	0x5
 1174 046c A5       		.byte	0xa5
 1175 046d 8E020000 		.4byte	0x28e
 1176 0471 11       		.uleb128 0x11
 1177 0472 4B010000 		.4byte	.LASF65
 1178 0476 05       		.byte	0x5
 1179 0477 AC       		.byte	0xac
 1180 0478 E8000000 		.4byte	0xe8
 1181 047c 00       		.byte	0
 1182 047d 09       		.uleb128 0x9
 1183 047e 04       		.byte	0x4
 1184 047f 83040000 		.4byte	0x483
 1185 0483 12       		.uleb128 0x12
 1186 0484 88040000 		.4byte	0x488
 1187 0488 03       		.uleb128 0x3
 1188 0489 01       		.byte	0x1
 1189 048a 08       		.byte	0x8
 1190 048b 5D030000 		.4byte	.LASF66
 1191 048f 09       		.uleb128 0x9
 1192 0490 04       		.byte	0x4
ARM GAS  /var/folders/5n/p_75w94d66l9ssrldxqdhh700000gn/T//cc4U8Rle.s 			page 22


 1193 0491 CF030000 		.4byte	0x3cf
 1194 0495 04       		.uleb128 0x4
 1195 0496 54040000 		.4byte	.LASF67
 1196 049a 0A       		.byte	0xa
 1197 049b 43       		.byte	0x43
 1198 049c 49000000 		.4byte	0x49
 1199 04a0 04       		.uleb128 0x4
 1200 04a1 F1020000 		.4byte	.LASF68
 1201 04a5 0A       		.byte	0xa
 1202 04a6 44       		.byte	0x44
 1203 04a7 37000000 		.4byte	0x37
 1204 04ab 04       		.uleb128 0x4
 1205 04ac 17010000 		.4byte	.LASF69
 1206 04b0 0A       		.byte	0xa
 1207 04b1 45       		.byte	0x45
 1208 04b2 6D000000 		.4byte	0x6d
 1209 04b6 04       		.uleb128 0x4
 1210 04b7 C3060000 		.4byte	.LASF70
 1211 04bb 0A       		.byte	0xa
 1212 04bc 46       		.byte	0x46
 1213 04bd 5B000000 		.4byte	0x5b
 1214 04c1 04       		.uleb128 0x4
 1215 04c2 6D050000 		.4byte	.LASF71
 1216 04c6 0A       		.byte	0xa
 1217 04c7 47       		.byte	0x47
 1218 04c8 91000000 		.4byte	0x91
 1219 04cc 04       		.uleb128 0x4
 1220 04cd FA000000 		.4byte	.LASF72
 1221 04d1 0B       		.byte	0xb
 1222 04d2 2F       		.byte	0x2f
 1223 04d3 A0040000 		.4byte	0x4a0
 1224 04d7 04       		.uleb128 0x4
 1225 04d8 28000000 		.4byte	.LASF73
 1226 04dc 0C       		.byte	0xc
 1227 04dd 44       		.byte	0x44
 1228 04de E2040000 		.4byte	0x4e2
 1229 04e2 09       		.uleb128 0x9
 1230 04e3 04       		.byte	0x4
 1231 04e4 3D040000 		.4byte	0x43d
 1232 04e8 04       		.uleb128 0x4
 1233 04e9 6F000000 		.4byte	.LASF74
 1234 04ed 0D       		.byte	0xd
 1235 04ee 3F       		.byte	0x3f
 1236 04ef 47030000 		.4byte	0x347
 1237 04f3 05       		.uleb128 0x5
 1238 04f4 B8050000 		.4byte	.LASF75
 1239 04f8 10       		.byte	0x10
 1240 04f9 0D       		.byte	0xd
 1241 04fa 41       		.byte	0x41
 1242 04fb 36050000 		.4byte	0x536
 1243 04ff 06       		.uleb128 0x6
 1244 0500 E7000000 		.4byte	.LASF76
 1245 0504 0D       		.byte	0xd
 1246 0505 42       		.byte	0x42
 1247 0506 36050000 		.4byte	0x536
 1248 050a 02       		.byte	0x2
 1249 050b 23       		.byte	0x23
ARM GAS  /var/folders/5n/p_75w94d66l9ssrldxqdhh700000gn/T//cc4U8Rle.s 			page 23


 1250 050c 00       		.uleb128 0
 1251 050d 06       		.uleb128 0x6
 1252 050e 0E020000 		.4byte	.LASF77
 1253 0512 0D       		.byte	0xd
 1254 0513 43       		.byte	0x43
 1255 0514 C1040000 		.4byte	0x4c1
 1256 0518 02       		.byte	0x2
 1257 0519 23       		.byte	0x23
 1258 051a 04       		.uleb128 0x4
 1259 051b 07       		.uleb128 0x7
 1260 051c 6800     		.ascii	"h\000"
 1261 051e 0D       		.byte	0xd
 1262 051f 44       		.byte	0x44
 1263 0520 E8040000 		.4byte	0x4e8
 1264 0524 02       		.byte	0x2
 1265 0525 23       		.byte	0x23
 1266 0526 08       		.uleb128 0x8
 1267 0527 07       		.uleb128 0x7
 1268 0528 61726700 		.ascii	"arg\000"
 1269 052c 0D       		.byte	0xd
 1270 052d 45       		.byte	0x45
 1271 052e 8E020000 		.4byte	0x28e
 1272 0532 02       		.byte	0x2
 1273 0533 23       		.byte	0x23
 1274 0534 0C       		.uleb128 0xc
 1275 0535 00       		.byte	0
 1276 0536 09       		.uleb128 0x9
 1277 0537 04       		.byte	0x4
 1278 0538 F3040000 		.4byte	0x4f3
 1279 053c 05       		.uleb128 0x5
 1280 053d CA020000 		.4byte	.LASF78
 1281 0541 10       		.byte	0x10
 1282 0542 0E       		.byte	0xe
 1283 0543 49       		.byte	0x49
 1284 0544 AB050000 		.4byte	0x5ab
 1285 0548 06       		.uleb128 0x6
 1286 0549 E7000000 		.4byte	.LASF76
 1287 054d 0E       		.byte	0xe
 1288 054e 4B       		.byte	0x4b
 1289 054f AB050000 		.4byte	0x5ab
 1290 0553 02       		.byte	0x2
 1291 0554 23       		.byte	0x23
 1292 0555 00       		.uleb128 0
 1293 0556 06       		.uleb128 0x6
 1294 0557 A1020000 		.4byte	.LASF79
 1295 055b 0E       		.byte	0xe
 1296 055c 4E       		.byte	0x4e
 1297 055d 8E020000 		.4byte	0x28e
 1298 0561 02       		.byte	0x2
 1299 0562 23       		.byte	0x23
 1300 0563 04       		.uleb128 0x4
 1301 0564 06       		.uleb128 0x6
 1302 0565 92020000 		.4byte	.LASF80
 1303 0569 0E       		.byte	0xe
 1304 056a 57       		.byte	0x57
 1305 056b AB040000 		.4byte	0x4ab
 1306 056f 02       		.byte	0x2
ARM GAS  /var/folders/5n/p_75w94d66l9ssrldxqdhh700000gn/T//cc4U8Rle.s 			page 24


 1307 0570 23       		.byte	0x23
 1308 0571 08       		.uleb128 0x8
 1309 0572 07       		.uleb128 0x7
 1310 0573 6C656E00 		.ascii	"len\000"
 1311 0577 0E       		.byte	0xe
 1312 0578 5A       		.byte	0x5a
 1313 0579 AB040000 		.4byte	0x4ab
 1314 057d 02       		.byte	0x2
 1315 057e 23       		.byte	0x23
 1316 057f 0A       		.uleb128 0xa
 1317 0580 06       		.uleb128 0x6
 1318 0581 E6060000 		.4byte	.LASF81
 1319 0585 0E       		.byte	0xe
 1320 0586 5D       		.byte	0x5d
 1321 0587 95040000 		.4byte	0x495
 1322 058b 02       		.byte	0x2
 1323 058c 23       		.byte	0x23
 1324 058d 0C       		.uleb128 0xc
 1325 058e 06       		.uleb128 0x6
 1326 058f 9E000000 		.4byte	.LASF82
 1327 0593 0E       		.byte	0xe
 1328 0594 60       		.byte	0x60
 1329 0595 95040000 		.4byte	0x495
 1330 0599 02       		.byte	0x2
 1331 059a 23       		.byte	0x23
 1332 059b 0D       		.uleb128 0xd
 1333 059c 07       		.uleb128 0x7
 1334 059d 72656600 		.ascii	"ref\000"
 1335 05a1 0E       		.byte	0xe
 1336 05a2 67       		.byte	0x67
 1337 05a3 AB040000 		.4byte	0x4ab
 1338 05a7 02       		.byte	0x2
 1339 05a8 23       		.byte	0x23
 1340 05a9 0E       		.uleb128 0xe
 1341 05aa 00       		.byte	0
 1342 05ab 09       		.uleb128 0x9
 1343 05ac 04       		.byte	0x4
 1344 05ad 3C050000 		.4byte	0x53c
 1345 05b1 05       		.uleb128 0x5
 1346 05b2 34080000 		.4byte	.LASF83
 1347 05b6 04       		.byte	0x4
 1348 05b7 0F       		.byte	0xf
 1349 05b8 2C       		.byte	0x2c
 1350 05b9 CC050000 		.4byte	0x5cc
 1351 05bd 06       		.uleb128 0x6
 1352 05be 54070000 		.4byte	.LASF84
 1353 05c2 0F       		.byte	0xf
 1354 05c3 2D       		.byte	0x2d
 1355 05c4 C1040000 		.4byte	0x4c1
 1356 05c8 02       		.byte	0x2
 1357 05c9 23       		.byte	0x23
 1358 05ca 00       		.uleb128 0
 1359 05cb 00       		.byte	0
 1360 05cc 04       		.uleb128 0x4
 1361 05cd E7070000 		.4byte	.LASF85
 1362 05d1 0F       		.byte	0xf
 1363 05d2 40       		.byte	0x40
ARM GAS  /var/folders/5n/p_75w94d66l9ssrldxqdhh700000gn/T//cc4U8Rle.s 			page 25


 1364 05d3 B1050000 		.4byte	0x5b1
 1365 05d7 04       		.uleb128 0x4
 1366 05d8 90000000 		.4byte	.LASF86
 1367 05dc 10       		.byte	0x10
 1368 05dd 3D       		.byte	0x3d
 1369 05de E2050000 		.4byte	0x5e2
 1370 05e2 09       		.uleb128 0x9
 1371 05e3 04       		.byte	0x4
 1372 05e4 E8050000 		.4byte	0x5e8
 1373 05e8 13       		.uleb128 0x13
 1374 05e9 01       		.byte	0x1
 1375 05ea CC040000 		.4byte	0x4cc
 1376 05ee 02060000 		.4byte	0x602
 1377 05f2 0E       		.uleb128 0xe
 1378 05f3 8E020000 		.4byte	0x28e
 1379 05f7 0E       		.uleb128 0xe
 1380 05f8 02060000 		.4byte	0x602
 1381 05fc 0E       		.uleb128 0xe
 1382 05fd CC040000 		.4byte	0x4cc
 1383 0601 00       		.byte	0
 1384 0602 09       		.uleb128 0x9
 1385 0603 04       		.byte	0x4
 1386 0604 08060000 		.4byte	0x608
 1387 0608 05       		.uleb128 0x5
 1388 0609 AA070000 		.4byte	.LASF87
 1389 060d A4       		.byte	0xa4
 1390 060e 10       		.byte	0x10
 1391 060f A9       		.byte	0xa9
 1392 0610 17090000 		.4byte	0x917
 1393 0614 06       		.uleb128 0x6
 1394 0615 E7050000 		.4byte	.LASF88
 1395 0619 10       		.byte	0x10
 1396 061a AB       		.byte	0xab
 1397 061b CC050000 		.4byte	0x5cc
 1398 061f 02       		.byte	0x2
 1399 0620 23       		.byte	0x23
 1400 0621 00       		.uleb128 0
 1401 0622 06       		.uleb128 0x6
 1402 0623 D1070000 		.4byte	.LASF89
 1403 0627 10       		.byte	0x10
 1404 0628 AB       		.byte	0xab
 1405 0629 CC050000 		.4byte	0x5cc
 1406 062d 02       		.byte	0x2
 1407 062e 23       		.byte	0x23
 1408 062f 04       		.uleb128 0x4
 1409 0630 06       		.uleb128 0x6
 1410 0631 4E000000 		.4byte	.LASF90
 1411 0635 10       		.byte	0x10
 1412 0636 AB       		.byte	0xab
 1413 0637 95040000 		.4byte	0x495
 1414 063b 02       		.byte	0x2
 1415 063c 23       		.byte	0x23
 1416 063d 08       		.uleb128 0x8
 1417 063e 07       		.uleb128 0x7
 1418 063f 746F7300 		.ascii	"tos\000"
 1419 0643 10       		.byte	0x10
 1420 0644 AB       		.byte	0xab
ARM GAS  /var/folders/5n/p_75w94d66l9ssrldxqdhh700000gn/T//cc4U8Rle.s 			page 26


 1421 0645 95040000 		.4byte	0x495
 1422 0649 02       		.byte	0x2
 1423 064a 23       		.byte	0x23
 1424 064b 09       		.uleb128 0x9
 1425 064c 07       		.uleb128 0x7
 1426 064d 74746C00 		.ascii	"ttl\000"
 1427 0651 10       		.byte	0x10
 1428 0652 AB       		.byte	0xab
 1429 0653 95040000 		.4byte	0x495
 1430 0657 02       		.byte	0x2
 1431 0658 23       		.byte	0x23
 1432 0659 0A       		.uleb128 0xa
 1433 065a 06       		.uleb128 0x6
 1434 065b E7000000 		.4byte	.LASF76
 1435 065f 10       		.byte	0x10
 1436 0660 AD       		.byte	0xad
 1437 0661 02060000 		.4byte	0x602
 1438 0665 02       		.byte	0x2
 1439 0666 23       		.byte	0x23
 1440 0667 0C       		.uleb128 0xc
 1441 0668 06       		.uleb128 0x6
 1442 0669 6B070000 		.4byte	.LASF91
 1443 066d 10       		.byte	0x10
 1444 066e AD       		.byte	0xad
 1445 066f C5090000 		.4byte	0x9c5
 1446 0673 02       		.byte	0x2
 1447 0674 23       		.byte	0x23
 1448 0675 10       		.uleb128 0x10
 1449 0676 06       		.uleb128 0x6
 1450 0677 35030000 		.4byte	.LASF92
 1451 067b 10       		.byte	0x10
 1452 067c AD       		.byte	0xad
 1453 067d 95040000 		.4byte	0x495
 1454 0681 02       		.byte	0x2
 1455 0682 23       		.byte	0x23
 1456 0683 11       		.uleb128 0x11
 1457 0684 06       		.uleb128 0x6
 1458 0685 36070000 		.4byte	.LASF93
 1459 0689 10       		.byte	0x10
 1460 068a AD       		.byte	0xad
 1461 068b 8E020000 		.4byte	0x28e
 1462 068f 02       		.byte	0x2
 1463 0690 23       		.byte	0x23
 1464 0691 14       		.uleb128 0x14
 1465 0692 06       		.uleb128 0x6
 1466 0693 3A030000 		.4byte	.LASF94
 1467 0697 10       		.byte	0x10
 1468 0698 AD       		.byte	0xad
 1469 0699 D7050000 		.4byte	0x5d7
 1470 069d 02       		.byte	0x2
 1471 069e 23       		.byte	0x23
 1472 069f 18       		.uleb128 0x18
 1473 06a0 06       		.uleb128 0x6
 1474 06a1 C8010000 		.4byte	.LASF95
 1475 06a5 10       		.byte	0x10
 1476 06a6 AD       		.byte	0xad
 1477 06a7 AB040000 		.4byte	0x4ab
ARM GAS  /var/folders/5n/p_75w94d66l9ssrldxqdhh700000gn/T//cc4U8Rle.s 			page 27


 1478 06ab 02       		.byte	0x2
 1479 06ac 23       		.byte	0x23
 1480 06ad 1C       		.uleb128 0x1c
 1481 06ae 06       		.uleb128 0x6
 1482 06af C3040000 		.4byte	.LASF96
 1483 06b3 10       		.byte	0x10
 1484 06b4 B0       		.byte	0xb0
 1485 06b5 AB040000 		.4byte	0x4ab
 1486 06b9 02       		.byte	0x2
 1487 06ba 23       		.byte	0x23
 1488 06bb 1E       		.uleb128 0x1e
 1489 06bc 06       		.uleb128 0x6
 1490 06bd 9E000000 		.4byte	.LASF82
 1491 06c1 10       		.byte	0x10
 1492 06c2 B2       		.byte	0xb2
 1493 06c3 95040000 		.4byte	0x495
 1494 06c7 02       		.byte	0x2
 1495 06c8 23       		.byte	0x23
 1496 06c9 20       		.uleb128 0x20
 1497 06ca 06       		.uleb128 0x6
 1498 06cb 1B020000 		.4byte	.LASF97
 1499 06cf 10       		.byte	0x10
 1500 06d0 BF       		.byte	0xbf
 1501 06d1 C1040000 		.4byte	0x4c1
 1502 06d5 02       		.byte	0x2
 1503 06d6 23       		.byte	0x23
 1504 06d7 24       		.uleb128 0x24
 1505 06d8 06       		.uleb128 0x6
 1506 06d9 A9050000 		.4byte	.LASF98
 1507 06dd 10       		.byte	0x10
 1508 06de C0       		.byte	0xc0
 1509 06df AB040000 		.4byte	0x4ab
 1510 06e3 02       		.byte	0x2
 1511 06e4 23       		.byte	0x23
 1512 06e5 28       		.uleb128 0x28
 1513 06e6 06       		.uleb128 0x6
 1514 06e7 D6040000 		.4byte	.LASF99
 1515 06eb 10       		.byte	0x10
 1516 06ec C1       		.byte	0xc1
 1517 06ed AB040000 		.4byte	0x4ab
 1518 06f1 02       		.byte	0x2
 1519 06f2 23       		.byte	0x23
 1520 06f3 2A       		.uleb128 0x2a
 1521 06f4 06       		.uleb128 0x6
 1522 06f5 38010000 		.4byte	.LASF100
 1523 06f9 10       		.byte	0x10
 1524 06fa C2       		.byte	0xc2
 1525 06fb C1040000 		.4byte	0x4c1
 1526 06ff 02       		.byte	0x2
 1527 0700 23       		.byte	0x23
 1528 0701 2C       		.uleb128 0x2c
 1529 0702 07       		.uleb128 0x7
 1530 0703 746D7200 		.ascii	"tmr\000"
 1531 0707 10       		.byte	0x10
 1532 0708 C5       		.byte	0xc5
 1533 0709 C1040000 		.4byte	0x4c1
 1534 070d 02       		.byte	0x2
ARM GAS  /var/folders/5n/p_75w94d66l9ssrldxqdhh700000gn/T//cc4U8Rle.s 			page 28


 1535 070e 23       		.byte	0x23
 1536 070f 30       		.uleb128 0x30
 1537 0710 06       		.uleb128 0x6
 1538 0711 88000000 		.4byte	.LASF101
 1539 0715 10       		.byte	0x10
 1540 0716 C6       		.byte	0xc6
 1541 0717 95040000 		.4byte	0x495
 1542 071b 02       		.byte	0x2
 1543 071c 23       		.byte	0x23
 1544 071d 34       		.uleb128 0x34
 1545 071e 06       		.uleb128 0x6
 1546 071f 4E060000 		.4byte	.LASF102
 1547 0723 10       		.byte	0x10
 1548 0724 C6       		.byte	0xc6
 1549 0725 95040000 		.4byte	0x495
 1550 0729 02       		.byte	0x2
 1551 072a 23       		.byte	0x23
 1552 072b 35       		.uleb128 0x35
 1553 072c 06       		.uleb128 0x6
 1554 072d 08020000 		.4byte	.LASF103
 1555 0731 10       		.byte	0x10
 1556 0732 C9       		.byte	0xc9
 1557 0733 B6040000 		.4byte	0x4b6
 1558 0737 02       		.byte	0x2
 1559 0738 23       		.byte	0x23
 1560 0739 36       		.uleb128 0x36
 1561 073a 07       		.uleb128 0x7
 1562 073b 6D737300 		.ascii	"mss\000"
 1563 073f 10       		.byte	0x10
 1564 0740 CB       		.byte	0xcb
 1565 0741 AB040000 		.4byte	0x4ab
 1566 0745 02       		.byte	0x2
 1567 0746 23       		.byte	0x23
 1568 0747 38       		.uleb128 0x38
 1569 0748 06       		.uleb128 0x6
 1570 0749 B1050000 		.4byte	.LASF104
 1571 074d 10       		.byte	0x10
 1572 074e CE       		.byte	0xce
 1573 074f C1040000 		.4byte	0x4c1
 1574 0753 02       		.byte	0x2
 1575 0754 23       		.byte	0x23
 1576 0755 3C       		.uleb128 0x3c
 1577 0756 06       		.uleb128 0x6
 1578 0757 20030000 		.4byte	.LASF105
 1579 075b 10       		.byte	0x10
 1580 075c CF       		.byte	0xcf
 1581 075d C1040000 		.4byte	0x4c1
 1582 0761 02       		.byte	0x2
 1583 0762 23       		.byte	0x23
 1584 0763 40       		.uleb128 0x40
 1585 0764 07       		.uleb128 0x7
 1586 0765 736100   		.ascii	"sa\000"
 1587 0768 10       		.byte	0x10
 1588 0769 D0       		.byte	0xd0
 1589 076a B6040000 		.4byte	0x4b6
 1590 076e 02       		.byte	0x2
 1591 076f 23       		.byte	0x23
ARM GAS  /var/folders/5n/p_75w94d66l9ssrldxqdhh700000gn/T//cc4U8Rle.s 			page 29


 1592 0770 44       		.uleb128 0x44
 1593 0771 07       		.uleb128 0x7
 1594 0772 737600   		.ascii	"sv\000"
 1595 0775 10       		.byte	0x10
 1596 0776 D0       		.byte	0xd0
 1597 0777 B6040000 		.4byte	0x4b6
 1598 077b 02       		.byte	0x2
 1599 077c 23       		.byte	0x23
 1600 077d 46       		.uleb128 0x46
 1601 077e 07       		.uleb128 0x7
 1602 077f 72746F00 		.ascii	"rto\000"
 1603 0783 10       		.byte	0x10
 1604 0784 D2       		.byte	0xd2
 1605 0785 B6040000 		.4byte	0x4b6
 1606 0789 02       		.byte	0x2
 1607 078a 23       		.byte	0x23
 1608 078b 48       		.uleb128 0x48
 1609 078c 06       		.uleb128 0x6
 1610 078d 12080000 		.4byte	.LASF106
 1611 0791 10       		.byte	0x10
 1612 0792 D3       		.byte	0xd3
 1613 0793 95040000 		.4byte	0x495
 1614 0797 02       		.byte	0x2
 1615 0798 23       		.byte	0x23
 1616 0799 4A       		.uleb128 0x4a
 1617 079a 06       		.uleb128 0x6
 1618 079b E0020000 		.4byte	.LASF107
 1619 079f 10       		.byte	0x10
 1620 07a0 D6       		.byte	0xd6
 1621 07a1 C1040000 		.4byte	0x4c1
 1622 07a5 02       		.byte	0x2
 1623 07a6 23       		.byte	0x23
 1624 07a7 4C       		.uleb128 0x4c
 1625 07a8 06       		.uleb128 0x6
 1626 07a9 2D030000 		.4byte	.LASF108
 1627 07ad 10       		.byte	0x10
 1628 07ae D7       		.byte	0xd7
 1629 07af 95040000 		.4byte	0x495
 1630 07b3 02       		.byte	0x2
 1631 07b4 23       		.byte	0x23
 1632 07b5 50       		.uleb128 0x50
 1633 07b6 06       		.uleb128 0x6
 1634 07b7 98010000 		.4byte	.LASF109
 1635 07bb 10       		.byte	0x10
 1636 07bc DA       		.byte	0xda
 1637 07bd AB040000 		.4byte	0x4ab
 1638 07c1 02       		.byte	0x2
 1639 07c2 23       		.byte	0x23
 1640 07c3 52       		.uleb128 0x52
 1641 07c4 06       		.uleb128 0x6
 1642 07c5 3D060000 		.4byte	.LASF110
 1643 07c9 10       		.byte	0x10
 1644 07ca DB       		.byte	0xdb
 1645 07cb AB040000 		.4byte	0x4ab
 1646 07cf 02       		.byte	0x2
 1647 07d0 23       		.byte	0x23
 1648 07d1 54       		.uleb128 0x54
ARM GAS  /var/folders/5n/p_75w94d66l9ssrldxqdhh700000gn/T//cc4U8Rle.s 			page 30


 1649 07d2 06       		.uleb128 0x6
 1650 07d3 1A060000 		.4byte	.LASF111
 1651 07d7 10       		.byte	0x10
 1652 07d8 DE       		.byte	0xde
 1653 07d9 C1040000 		.4byte	0x4c1
 1654 07dd 02       		.byte	0x2
 1655 07de 23       		.byte	0x23
 1656 07df 58       		.uleb128 0x58
 1657 07e0 06       		.uleb128 0x6
 1658 07e1 45050000 		.4byte	.LASF112
 1659 07e5 10       		.byte	0x10
 1660 07e6 DF       		.byte	0xdf
 1661 07e7 AB040000 		.4byte	0x4ab
 1662 07eb 02       		.byte	0x2
 1663 07ec 23       		.byte	0x23
 1664 07ed 5C       		.uleb128 0x5c
 1665 07ee 06       		.uleb128 0x6
 1666 07ef B7030000 		.4byte	.LASF113
 1667 07f3 10       		.byte	0x10
 1668 07f4 E0       		.byte	0xe0
 1669 07f5 C1040000 		.4byte	0x4c1
 1670 07f9 02       		.byte	0x2
 1671 07fa 23       		.byte	0x23
 1672 07fb 60       		.uleb128 0x60
 1673 07fc 06       		.uleb128 0x6
 1674 07fd BF030000 		.4byte	.LASF114
 1675 0801 10       		.byte	0x10
 1676 0802 E0       		.byte	0xe0
 1677 0803 C1040000 		.4byte	0x4c1
 1678 0807 02       		.byte	0x2
 1679 0808 23       		.byte	0x23
 1680 0809 64       		.uleb128 0x64
 1681 080a 06       		.uleb128 0x6
 1682 080b E4030000 		.4byte	.LASF115
 1683 080f 10       		.byte	0x10
 1684 0810 E2       		.byte	0xe2
 1685 0811 C1040000 		.4byte	0x4c1
 1686 0815 02       		.byte	0x2
 1687 0816 23       		.byte	0x23
 1688 0817 68       		.uleb128 0x68
 1689 0818 06       		.uleb128 0x6
 1690 0819 6E030000 		.4byte	.LASF116
 1691 081d 10       		.byte	0x10
 1692 081e E4       		.byte	0xe4
 1693 081f AB040000 		.4byte	0x4ab
 1694 0823 02       		.byte	0x2
 1695 0824 23       		.byte	0x23
 1696 0825 6C       		.uleb128 0x6c
 1697 0826 06       		.uleb128 0x6
 1698 0827 46060000 		.4byte	.LASF117
 1699 082b 10       		.byte	0x10
 1700 082c E6       		.byte	0xe6
 1701 082d AB040000 		.4byte	0x4ab
 1702 0831 02       		.byte	0x2
 1703 0832 23       		.byte	0x23
 1704 0833 6E       		.uleb128 0x6e
 1705 0834 06       		.uleb128 0x6
ARM GAS  /var/folders/5n/p_75w94d66l9ssrldxqdhh700000gn/T//cc4U8Rle.s 			page 31


 1706 0835 7E070000 		.4byte	.LASF118
 1707 0839 10       		.byte	0x10
 1708 083a E8       		.byte	0xe8
 1709 083b AB040000 		.4byte	0x4ab
 1710 083f 02       		.byte	0x2
 1711 0840 23       		.byte	0x23
 1712 0841 70       		.uleb128 0x70
 1713 0842 06       		.uleb128 0x6
 1714 0843 FB050000 		.4byte	.LASF119
 1715 0847 10       		.byte	0x10
 1716 0848 EC       		.byte	0xec
 1717 0849 AB040000 		.4byte	0x4ab
 1718 084d 02       		.byte	0x2
 1719 084e 23       		.byte	0x23
 1720 084f 72       		.uleb128 0x72
 1721 0850 06       		.uleb128 0x6
 1722 0851 A2050000 		.4byte	.LASF120
 1723 0855 10       		.byte	0x10
 1724 0856 F0       		.byte	0xf0
 1725 0857 6B0A0000 		.4byte	0xa6b
 1726 085b 02       		.byte	0x2
 1727 085c 23       		.byte	0x23
 1728 085d 74       		.uleb128 0x74
 1729 085e 06       		.uleb128 0x6
 1730 085f 42020000 		.4byte	.LASF121
 1731 0863 10       		.byte	0x10
 1732 0864 F1       		.byte	0xf1
 1733 0865 6B0A0000 		.4byte	0xa6b
 1734 0869 02       		.byte	0x2
 1735 086a 23       		.byte	0x23
 1736 086b 78       		.uleb128 0x78
 1737 086c 06       		.uleb128 0x6
 1738 086d 55050000 		.4byte	.LASF122
 1739 0871 10       		.byte	0x10
 1740 0872 F3       		.byte	0xf3
 1741 0873 6B0A0000 		.4byte	0xa6b
 1742 0877 02       		.byte	0x2
 1743 0878 23       		.byte	0x23
 1744 0879 7C       		.uleb128 0x7c
 1745 087a 06       		.uleb128 0x6
 1746 087b D1060000 		.4byte	.LASF123
 1747 087f 10       		.byte	0x10
 1748 0880 F6       		.byte	0xf6
 1749 0881 AB050000 		.4byte	0x5ab
 1750 0885 03       		.byte	0x3
 1751 0886 23       		.byte	0x23
 1752 0887 8001     		.uleb128 0x80
 1753 0889 06       		.uleb128 0x6
 1754 088a 9F030000 		.4byte	.LASF124
 1755 088e 10       		.byte	0x10
 1756 088f FA       		.byte	0xfa
 1757 0890 47090000 		.4byte	0x947
 1758 0894 03       		.byte	0x3
 1759 0895 23       		.byte	0x23
 1760 0896 8401     		.uleb128 0x84
 1761 0898 06       		.uleb128 0x6
 1762 0899 92070000 		.4byte	.LASF125
ARM GAS  /var/folders/5n/p_75w94d66l9ssrldxqdhh700000gn/T//cc4U8Rle.s 			page 32


 1763 089d 10       		.byte	0x10
 1764 089e FC       		.byte	0xfc
 1765 089f 17090000 		.4byte	0x917
 1766 08a3 03       		.byte	0x3
 1767 08a4 23       		.byte	0x23
 1768 08a5 8801     		.uleb128 0x88
 1769 08a7 06       		.uleb128 0x6
 1770 08a8 C0020000 		.4byte	.LASF126
 1771 08ac 10       		.byte	0x10
 1772 08ad FE       		.byte	0xfe
 1773 08ae BA090000 		.4byte	0x9ba
 1774 08b2 03       		.byte	0x3
 1775 08b3 23       		.byte	0x23
 1776 08b4 8C01     		.uleb128 0x8c
 1777 08b6 14       		.uleb128 0x14
 1778 08b7 4B030000 		.4byte	.LASF127
 1779 08bb 10       		.byte	0x10
 1780 08bc 0001     		.2byte	0x100
 1781 08be 72090000 		.4byte	0x972
 1782 08c2 03       		.byte	0x3
 1783 08c3 23       		.byte	0x23
 1784 08c4 9001     		.uleb128 0x90
 1785 08c6 14       		.uleb128 0x14
 1786 08c7 39050000 		.4byte	.LASF128
 1787 08cb 10       		.byte	0x10
 1788 08cc 0201     		.2byte	0x102
 1789 08ce 98090000 		.4byte	0x998
 1790 08d2 03       		.byte	0x3
 1791 08d3 23       		.byte	0x23
 1792 08d4 9401     		.uleb128 0x94
 1793 08d6 14       		.uleb128 0x14
 1794 08d7 2C070000 		.4byte	.LASF129
 1795 08db 10       		.byte	0x10
 1796 08dc 0B01     		.2byte	0x10b
 1797 08de C1040000 		.4byte	0x4c1
 1798 08e2 03       		.byte	0x3
 1799 08e3 23       		.byte	0x23
 1800 08e4 9801     		.uleb128 0x98
 1801 08e6 14       		.uleb128 0x14
 1802 08e7 C5070000 		.4byte	.LASF130
 1803 08eb 10       		.byte	0x10
 1804 08ec 1201     		.2byte	0x112
 1805 08ee C1040000 		.4byte	0x4c1
 1806 08f2 03       		.byte	0x3
 1807 08f3 23       		.byte	0x23
 1808 08f4 9C01     		.uleb128 0x9c
 1809 08f6 14       		.uleb128 0x14
 1810 08f7 2C040000 		.4byte	.LASF131
 1811 08fb 10       		.byte	0x10
 1812 08fc 1401     		.2byte	0x114
 1813 08fe 95040000 		.4byte	0x495
 1814 0902 03       		.byte	0x3
 1815 0903 23       		.byte	0x23
 1816 0904 A001     		.uleb128 0xa0
 1817 0906 14       		.uleb128 0x14
 1818 0907 52010000 		.4byte	.LASF132
 1819 090b 10       		.byte	0x10
ARM GAS  /var/folders/5n/p_75w94d66l9ssrldxqdhh700000gn/T//cc4U8Rle.s 			page 33


 1820 090c 1701     		.2byte	0x117
 1821 090e 95040000 		.4byte	0x495
 1822 0912 03       		.byte	0x3
 1823 0913 23       		.byte	0x23
 1824 0914 A101     		.uleb128 0xa1
 1825 0916 00       		.byte	0
 1826 0917 04       		.uleb128 0x4
 1827 0918 0A050000 		.4byte	.LASF133
 1828 091c 10       		.byte	0x10
 1829 091d 49       		.byte	0x49
 1830 091e 22090000 		.4byte	0x922
 1831 0922 09       		.uleb128 0x9
 1832 0923 04       		.byte	0x4
 1833 0924 28090000 		.4byte	0x928
 1834 0928 13       		.uleb128 0x13
 1835 0929 01       		.byte	0x1
 1836 092a CC040000 		.4byte	0x4cc
 1837 092e 47090000 		.4byte	0x947
 1838 0932 0E       		.uleb128 0xe
 1839 0933 8E020000 		.4byte	0x28e
 1840 0937 0E       		.uleb128 0xe
 1841 0938 02060000 		.4byte	0x602
 1842 093c 0E       		.uleb128 0xe
 1843 093d AB050000 		.4byte	0x5ab
 1844 0941 0E       		.uleb128 0xe
 1845 0942 CC040000 		.4byte	0x4cc
 1846 0946 00       		.byte	0
 1847 0947 04       		.uleb128 0x4
 1848 0948 68010000 		.4byte	.LASF134
 1849 094c 10       		.byte	0x10
 1850 094d 57       		.byte	0x57
 1851 094e 52090000 		.4byte	0x952
 1852 0952 09       		.uleb128 0x9
 1853 0953 04       		.byte	0x4
 1854 0954 58090000 		.4byte	0x958
 1855 0958 13       		.uleb128 0x13
 1856 0959 01       		.byte	0x1
 1857 095a CC040000 		.4byte	0x4cc
 1858 095e 72090000 		.4byte	0x972
 1859 0962 0E       		.uleb128 0xe
 1860 0963 8E020000 		.4byte	0x28e
 1861 0967 0E       		.uleb128 0xe
 1862 0968 02060000 		.4byte	0x602
 1863 096c 0E       		.uleb128 0xe
 1864 096d AB040000 		.4byte	0x4ab
 1865 0971 00       		.byte	0
 1866 0972 04       		.uleb128 0x4
 1867 0973 24050000 		.4byte	.LASF135
 1868 0977 10       		.byte	0x10
 1869 0978 63       		.byte	0x63
 1870 0979 7D090000 		.4byte	0x97d
 1871 097d 09       		.uleb128 0x9
 1872 097e 04       		.byte	0x4
 1873 097f 83090000 		.4byte	0x983
 1874 0983 13       		.uleb128 0x13
 1875 0984 01       		.byte	0x1
 1876 0985 CC040000 		.4byte	0x4cc
ARM GAS  /var/folders/5n/p_75w94d66l9ssrldxqdhh700000gn/T//cc4U8Rle.s 			page 34


 1877 0989 98090000 		.4byte	0x998
 1878 098d 0E       		.uleb128 0xe
 1879 098e 8E020000 		.4byte	0x28e
 1880 0992 0E       		.uleb128 0xe
 1881 0993 02060000 		.4byte	0x602
 1882 0997 00       		.byte	0
 1883 0998 04       		.uleb128 0x4
 1884 0999 D9030000 		.4byte	.LASF136
 1885 099d 10       		.byte	0x10
 1886 099e 6F       		.byte	0x6f
 1887 099f A3090000 		.4byte	0x9a3
 1888 09a3 09       		.uleb128 0x9
 1889 09a4 04       		.byte	0x4
 1890 09a5 A9090000 		.4byte	0x9a9
 1891 09a9 0D       		.uleb128 0xd
 1892 09aa 01       		.byte	0x1
 1893 09ab BA090000 		.4byte	0x9ba
 1894 09af 0E       		.uleb128 0xe
 1895 09b0 8E020000 		.4byte	0x28e
 1896 09b4 0E       		.uleb128 0xe
 1897 09b5 CC040000 		.4byte	0x4cc
 1898 09b9 00       		.byte	0
 1899 09ba 04       		.uleb128 0x4
 1900 09bb D6000000 		.4byte	.LASF137
 1901 09bf 10       		.byte	0x10
 1902 09c0 7D       		.byte	0x7d
 1903 09c1 E2050000 		.4byte	0x5e2
 1904 09c5 15       		.uleb128 0x15
 1905 09c6 F1070000 		.4byte	.LASF202
 1906 09ca 01       		.byte	0x1
 1907 09cb 10       		.byte	0x10
 1908 09cc 7F       		.byte	0x7f
 1909 09cd 140A0000 		.4byte	0xa14
 1910 09d1 16       		.uleb128 0x16
 1911 09d2 66050000 		.4byte	.LASF138
 1912 09d6 00       		.sleb128 0
 1913 09d7 16       		.uleb128 0x16
 1914 09d8 4D070000 		.4byte	.LASF139
 1915 09dc 01       		.sleb128 1
 1916 09dd 16       		.uleb128 0x16
 1917 09de 23070000 		.4byte	.LASF140
 1918 09e2 02       		.sleb128 2
 1919 09e3 16       		.uleb128 0x16
 1920 09e4 2B080000 		.4byte	.LASF141
 1921 09e8 03       		.sleb128 3
 1922 09e9 16       		.uleb128 0x16
 1923 09ea 22060000 		.4byte	.LASF142
 1924 09ee 04       		.sleb128 4
 1925 09ef 16       		.uleb128 0x16
 1926 09f0 F9060000 		.4byte	.LASF143
 1927 09f4 05       		.sleb128 5
 1928 09f5 16       		.uleb128 0x16
 1929 09f6 04070000 		.4byte	.LASF144
 1930 09fa 06       		.sleb128 6
 1931 09fb 16       		.uleb128 0x16
 1932 09fc 74030000 		.4byte	.LASF145
 1933 0a00 07       		.sleb128 7
ARM GAS  /var/folders/5n/p_75w94d66l9ssrldxqdhh700000gn/T//cc4U8Rle.s 			page 35


 1934 0a01 16       		.uleb128 0x16
 1935 0a02 D8020000 		.4byte	.LASF146
 1936 0a06 08       		.sleb128 8
 1937 0a07 16       		.uleb128 0x16
 1938 0a08 89020000 		.4byte	.LASF147
 1939 0a0c 09       		.sleb128 9
 1940 0a0d 16       		.uleb128 0x16
 1941 0a0e 42040000 		.4byte	.LASF148
 1942 0a12 0A       		.sleb128 10
 1943 0a13 00       		.byte	0
 1944 0a14 0C       		.uleb128 0xc
 1945 0a15 E3010000 		.4byte	.LASF149
 1946 0a19 10       		.byte	0x10
 1947 0a1a 11       		.byte	0x11
 1948 0a1b 1601     		.2byte	0x116
 1949 0a1d 6B0A0000 		.4byte	0xa6b
 1950 0a21 14       		.uleb128 0x14
 1951 0a22 E7000000 		.4byte	.LASF76
 1952 0a26 11       		.byte	0x11
 1953 0a27 1701     		.2byte	0x117
 1954 0a29 6B0A0000 		.4byte	0xa6b
 1955 0a2d 02       		.byte	0x2
 1956 0a2e 23       		.byte	0x23
 1957 0a2f 00       		.uleb128 0
 1958 0a30 0B       		.uleb128 0xb
 1959 0a31 7000     		.ascii	"p\000"
 1960 0a33 11       		.byte	0x11
 1961 0a34 1801     		.2byte	0x118
 1962 0a36 AB050000 		.4byte	0x5ab
 1963 0a3a 02       		.byte	0x2
 1964 0a3b 23       		.byte	0x23
 1965 0a3c 04       		.uleb128 0x4
 1966 0a3d 0B       		.uleb128 0xb
 1967 0a3e 6C656E00 		.ascii	"len\000"
 1968 0a42 11       		.byte	0x11
 1969 0a43 1901     		.2byte	0x119
 1970 0a45 AB040000 		.4byte	0x4ab
 1971 0a49 02       		.byte	0x2
 1972 0a4a 23       		.byte	0x23
 1973 0a4b 08       		.uleb128 0x8
 1974 0a4c 14       		.uleb128 0x14
 1975 0a4d 9E000000 		.4byte	.LASF82
 1976 0a51 11       		.byte	0x11
 1977 0a52 2301     		.2byte	0x123
 1978 0a54 95040000 		.4byte	0x495
 1979 0a58 02       		.byte	0x2
 1980 0a59 23       		.byte	0x23
 1981 0a5a 0A       		.uleb128 0xa
 1982 0a5b 14       		.uleb128 0x14
 1983 0a5c BC060000 		.4byte	.LASF150
 1984 0a60 11       		.byte	0x11
 1985 0a61 2801     		.2byte	0x128
 1986 0a63 EE0A0000 		.4byte	0xaee
 1987 0a67 02       		.byte	0x2
 1988 0a68 23       		.byte	0x23
 1989 0a69 0C       		.uleb128 0xc
 1990 0a6a 00       		.byte	0
ARM GAS  /var/folders/5n/p_75w94d66l9ssrldxqdhh700000gn/T//cc4U8Rle.s 			page 36


 1991 0a6b 09       		.uleb128 0x9
 1992 0a6c 04       		.byte	0x4
 1993 0a6d 140A0000 		.4byte	0xa14
 1994 0a71 05       		.uleb128 0x5
 1995 0a72 DE060000 		.4byte	.LASF151
 1996 0a76 14       		.byte	0x14
 1997 0a77 11       		.byte	0x11
 1998 0a78 9E       		.byte	0x9e
 1999 0a79 EE0A0000 		.4byte	0xaee
 2000 0a7d 07       		.uleb128 0x7
 2001 0a7e 73726300 		.ascii	"src\000"
 2002 0a82 11       		.byte	0x11
 2003 0a83 9F       		.byte	0x9f
 2004 0a84 AB040000 		.4byte	0x4ab
 2005 0a88 02       		.byte	0x2
 2006 0a89 23       		.byte	0x23
 2007 0a8a 00       		.uleb128 0
 2008 0a8b 06       		.uleb128 0x6
 2009 0a8c 1D080000 		.4byte	.LASF152
 2010 0a90 11       		.byte	0x11
 2011 0a91 A0       		.byte	0xa0
 2012 0a92 AB040000 		.4byte	0x4ab
 2013 0a96 02       		.byte	0x2
 2014 0a97 23       		.byte	0x23
 2015 0a98 02       		.uleb128 0x2
 2016 0a99 06       		.uleb128 0x6
 2017 0a9a 82010000 		.4byte	.LASF153
 2018 0a9e 11       		.byte	0x11
 2019 0a9f A1       		.byte	0xa1
 2020 0aa0 C1040000 		.4byte	0x4c1
 2021 0aa4 02       		.byte	0x2
 2022 0aa5 23       		.byte	0x23
 2023 0aa6 04       		.uleb128 0x4
 2024 0aa7 06       		.uleb128 0x6
 2025 0aa8 26040000 		.4byte	.LASF154
 2026 0aac 11       		.byte	0x11
 2027 0aad A2       		.byte	0xa2
 2028 0aae C1040000 		.4byte	0x4c1
 2029 0ab2 02       		.byte	0x2
 2030 0ab3 23       		.byte	0x23
 2031 0ab4 08       		.uleb128 0x8
 2032 0ab5 06       		.uleb128 0x6
 2033 0ab6 68060000 		.4byte	.LASF155
 2034 0aba 11       		.byte	0x11
 2035 0abb A3       		.byte	0xa3
 2036 0abc AB040000 		.4byte	0x4ab
 2037 0ac0 02       		.byte	0x2
 2038 0ac1 23       		.byte	0x23
 2039 0ac2 0C       		.uleb128 0xc
 2040 0ac3 07       		.uleb128 0x7
 2041 0ac4 776E6400 		.ascii	"wnd\000"
 2042 0ac8 11       		.byte	0x11
 2043 0ac9 A4       		.byte	0xa4
 2044 0aca AB040000 		.4byte	0x4ab
 2045 0ace 02       		.byte	0x2
 2046 0acf 23       		.byte	0x23
 2047 0ad0 0E       		.uleb128 0xe
ARM GAS  /var/folders/5n/p_75w94d66l9ssrldxqdhh700000gn/T//cc4U8Rle.s 			page 37


 2048 0ad1 06       		.uleb128 0x6
 2049 0ad2 8B070000 		.4byte	.LASF156
 2050 0ad6 11       		.byte	0x11
 2051 0ad7 A5       		.byte	0xa5
 2052 0ad8 AB040000 		.4byte	0x4ab
 2053 0adc 02       		.byte	0x2
 2054 0add 23       		.byte	0x23
 2055 0ade 10       		.uleb128 0x10
 2056 0adf 06       		.uleb128 0x6
 2057 0ae0 83000000 		.4byte	.LASF157
 2058 0ae4 11       		.byte	0x11
 2059 0ae5 A6       		.byte	0xa6
 2060 0ae6 AB040000 		.4byte	0x4ab
 2061 0aea 02       		.byte	0x2
 2062 0aeb 23       		.byte	0x23
 2063 0aec 12       		.uleb128 0x12
 2064 0aed 00       		.byte	0
 2065 0aee 09       		.uleb128 0x9
 2066 0aef 04       		.byte	0x4
 2067 0af0 710A0000 		.4byte	0xa71
 2068 0af4 17       		.uleb128 0x17
 2069 0af5 01       		.byte	0x1
 2070 0af6 12       		.byte	0x12
 2071 0af7 2B       		.byte	0x2b
 2072 0af8 570B0000 		.4byte	0xb57
 2073 0afc 16       		.uleb128 0x16
 2074 0afd 5B060000 		.4byte	.LASF158
 2075 0b01 00       		.sleb128 0
 2076 0b02 16       		.uleb128 0x16
 2077 0b03 DA050000 		.4byte	.LASF159
 2078 0b07 01       		.sleb128 1
 2079 0b08 16       		.uleb128 0x16
 2080 0b09 AF060000 		.4byte	.LASF160
 2081 0b0d 02       		.sleb128 2
 2082 0b0e 16       		.uleb128 0x16
 2083 0b0f 33000000 		.4byte	.LASF161
 2084 0b13 03       		.sleb128 3
 2085 0b14 16       		.uleb128 0x16
 2086 0b15 16070000 		.4byte	.LASF162
 2087 0b19 04       		.sleb128 4
 2088 0b1a 16       		.uleb128 0x16
 2089 0b1b EC040000 		.4byte	.LASF163
 2090 0b1f 05       		.sleb128 5
 2091 0b20 16       		.uleb128 0x16
 2092 0b21 2E060000 		.4byte	.LASF164
 2093 0b25 06       		.sleb128 6
 2094 0b26 16       		.uleb128 0x16
 2095 0b27 F8030000 		.4byte	.LASF165
 2096 0b2b 07       		.sleb128 7
 2097 0b2c 16       		.uleb128 0x16
 2098 0b2d 13030000 		.4byte	.LASF166
 2099 0b31 08       		.sleb128 8
 2100 0b32 16       		.uleb128 0x16
 2101 0b33 B5010000 		.4byte	.LASF167
 2102 0b37 09       		.sleb128 9
 2103 0b38 16       		.uleb128 0x16
 2104 0b39 23020000 		.4byte	.LASF168
ARM GAS  /var/folders/5n/p_75w94d66l9ssrldxqdhh700000gn/T//cc4U8Rle.s 			page 38


 2105 0b3d 0A       		.sleb128 10
 2106 0b3e 16       		.uleb128 0x16
 2107 0b3f C2050000 		.4byte	.LASF169
 2108 0b43 0B       		.sleb128 11
 2109 0b44 16       		.uleb128 0x16
 2110 0b45 41030000 		.4byte	.LASF170
 2111 0b49 0C       		.sleb128 12
 2112 0b4a 16       		.uleb128 0x16
 2113 0b4b FB040000 		.4byte	.LASF171
 2114 0b4f 0D       		.sleb128 13
 2115 0b50 16       		.uleb128 0x16
 2116 0b51 E8020000 		.4byte	.LASF172
 2117 0b55 0E       		.sleb128 14
 2118 0b56 00       		.byte	0
 2119 0b57 04       		.uleb128 0x4
 2120 0b58 FB070000 		.4byte	.LASF173
 2121 0b5c 12       		.byte	0x12
 2122 0b5d 2F       		.byte	0x2f
 2123 0b5e F40A0000 		.4byte	0xaf4
 2124 0b62 18       		.uleb128 0x18
 2125 0b63 01       		.byte	0x1
 2126 0b64 62030000 		.4byte	.LASF177
 2127 0b68 01       		.byte	0x1
 2128 0b69 0801     		.2byte	0x108
 2129 0b6b 01       		.byte	0x1
 2130 0b6c 00000000 		.4byte	.LFB12
 2131 0b70 58000000 		.4byte	.LFE12
 2132 0b74 00000000 		.4byte	.LLST0
 2133 0b78 01       		.byte	0x1
 2134 0b79 E90B0000 		.4byte	0xbe9
 2135 0b7d 19       		.uleb128 0x19
 2136 0b7e 17080000 		.4byte	.LASF174
 2137 0b82 01       		.byte	0x1
 2138 0b83 0801     		.2byte	0x108
 2139 0b85 C1040000 		.4byte	0x4c1
 2140 0b89 20000000 		.4byte	.LLST1
 2141 0b8d 19       		.uleb128 0x19
 2142 0b8e 30010000 		.4byte	.LASF175
 2143 0b92 01       		.byte	0x1
 2144 0b93 0801     		.2byte	0x108
 2145 0b95 E8040000 		.4byte	0x4e8
 2146 0b99 55000000 		.4byte	.LLST2
 2147 0b9d 1A       		.uleb128 0x1a
 2148 0b9e 61726700 		.ascii	"arg\000"
 2149 0ba2 01       		.byte	0x1
 2150 0ba3 0801     		.2byte	0x108
 2151 0ba5 8E020000 		.4byte	0x28e
 2152 0ba9 73000000 		.4byte	.LLST3
 2153 0bad 1B       		.uleb128 0x1b
 2154 0bae 4D050000 		.4byte	.LASF176
 2155 0bb2 01       		.byte	0x1
 2156 0bb3 0B01     		.2byte	0x10b
 2157 0bb5 36050000 		.4byte	0x536
 2158 0bb9 91000000 		.4byte	.LLST4
 2159 0bbd 1C       		.uleb128 0x1c
 2160 0bbe 7400     		.ascii	"t\000"
 2161 0bc0 01       		.byte	0x1
ARM GAS  /var/folders/5n/p_75w94d66l9ssrldxqdhh700000gn/T//cc4U8Rle.s 			page 39


 2162 0bc1 0B01     		.2byte	0x10b
 2163 0bc3 36050000 		.4byte	0x536
 2164 0bc7 A4000000 		.4byte	.LLST5
 2165 0bcb 1D       		.uleb128 0x1d
 2166 0bcc 0E000000 		.4byte	.LVL2
 2167 0bd0 010F0000 		.4byte	0xf01
 2168 0bd4 DE0B0000 		.4byte	0xbde
 2169 0bd8 1E       		.uleb128 0x1e
 2170 0bd9 01       		.byte	0x1
 2171 0bda 50       		.byte	0x50
 2172 0bdb 01       		.byte	0x1
 2173 0bdc 3B       		.byte	0x3b
 2174 0bdd 00       		.byte	0
 2175 0bde 1F       		.uleb128 0x1f
 2176 0bdf 52000000 		.4byte	.LVL7
 2177 0be3 01       		.byte	0x1
 2178 0be4 190F0000 		.4byte	0xf19
 2179 0be8 00       		.byte	0
 2180 0be9 20       		.uleb128 0x20
 2181 0bea 01       		.byte	0x1
 2182 0beb 59070000 		.4byte	.LASF178
 2183 0bef 01       		.byte	0x1
 2184 0bf0 DD       		.byte	0xdd
 2185 0bf1 01       		.byte	0x1
 2186 0bf2 00000000 		.4byte	.LFB11
 2187 0bf6 2A000000 		.4byte	.LFE11
 2188 0bfa B7000000 		.4byte	.LLST6
 2189 0bfe 01       		.byte	0x1
 2190 0bff 470C0000 		.4byte	0xc47
 2191 0c03 1D       		.uleb128 0x1d
 2192 0c04 14000000 		.4byte	.LVL8
 2193 0c08 620B0000 		.4byte	0xb62
 2194 0c0c 260C0000 		.4byte	0xc26
 2195 0c10 1E       		.uleb128 0x1e
 2196 0c11 01       		.byte	0x1
 2197 0c12 52       		.byte	0x52
 2198 0c13 01       		.byte	0x1
 2199 0c14 30       		.byte	0x30
 2200 0c15 1E       		.uleb128 0x1e
 2201 0c16 01       		.byte	0x1
 2202 0c17 51       		.byte	0x51
 2203 0c18 05       		.byte	0x5
 2204 0c19 03       		.byte	0x3
 2205 0c1a 00000000 		.4byte	ip_reass_timer
 2206 0c1e 1E       		.uleb128 0x1e
 2207 0c1f 01       		.byte	0x1
 2208 0c20 50       		.byte	0x50
 2209 0c21 03       		.byte	0x3
 2210 0c22 0A       		.byte	0xa
 2211 0c23 E803     		.2byte	0x3e8
 2212 0c25 00       		.byte	0
 2213 0c26 21       		.uleb128 0x21
 2214 0c27 2A000000 		.4byte	.LVL9
 2215 0c2b 01       		.byte	0x1
 2216 0c2c 620B0000 		.4byte	0xb62
 2217 0c30 1E       		.uleb128 0x1e
 2218 0c31 01       		.byte	0x1
ARM GAS  /var/folders/5n/p_75w94d66l9ssrldxqdhh700000gn/T//cc4U8Rle.s 			page 40


 2219 0c32 52       		.byte	0x52
 2220 0c33 01       		.byte	0x1
 2221 0c34 30       		.byte	0x30
 2222 0c35 1E       		.uleb128 0x1e
 2223 0c36 01       		.byte	0x1
 2224 0c37 51       		.byte	0x51
 2225 0c38 05       		.byte	0x5
 2226 0c39 03       		.byte	0x3
 2227 0c3a 00000000 		.4byte	arp_timer
 2228 0c3e 1E       		.uleb128 0x1e
 2229 0c3f 01       		.byte	0x1
 2230 0c40 50       		.byte	0x50
 2231 0c41 03       		.byte	0x3
 2232 0c42 0A       		.byte	0xa
 2233 0c43 8813     		.2byte	0x1388
 2234 0c45 00       		.byte	0
 2235 0c46 00       		.byte	0
 2236 0c47 22       		.uleb128 0x22
 2237 0c48 A9020000 		.4byte	.LASF179
 2238 0c4c 01       		.byte	0x1
 2239 0c4d 85       		.byte	0x85
 2240 0c4e 01       		.byte	0x1
 2241 0c4f 00000000 		.4byte	.LFB10
 2242 0c53 1C000000 		.4byte	.LFE10
 2243 0c57 D7000000 		.4byte	.LLST7
 2244 0c5b 01       		.byte	0x1
 2245 0c5c 990C0000 		.4byte	0xc99
 2246 0c60 23       		.uleb128 0x23
 2247 0c61 61726700 		.ascii	"arg\000"
 2248 0c65 01       		.byte	0x1
 2249 0c66 85       		.byte	0x85
 2250 0c67 8E020000 		.4byte	0x28e
 2251 0c6b F7000000 		.4byte	.LLST8
 2252 0c6f 24       		.uleb128 0x24
 2253 0c70 06000000 		.4byte	.LVL11
 2254 0c74 240F0000 		.4byte	0xf24
 2255 0c78 21       		.uleb128 0x21
 2256 0c79 1C000000 		.4byte	.LVL12
 2257 0c7d 01       		.byte	0x1
 2258 0c7e 620B0000 		.4byte	0xb62
 2259 0c82 1E       		.uleb128 0x1e
 2260 0c83 01       		.byte	0x1
 2261 0c84 52       		.byte	0x52
 2262 0c85 01       		.byte	0x1
 2263 0c86 30       		.byte	0x30
 2264 0c87 1E       		.uleb128 0x1e
 2265 0c88 01       		.byte	0x1
 2266 0c89 51       		.byte	0x51
 2267 0c8a 05       		.byte	0x5
 2268 0c8b 03       		.byte	0x3
 2269 0c8c 00000000 		.4byte	arp_timer
 2270 0c90 1E       		.uleb128 0x1e
 2271 0c91 01       		.byte	0x1
 2272 0c92 50       		.byte	0x50
 2273 0c93 03       		.byte	0x3
 2274 0c94 0A       		.byte	0xa
 2275 0c95 8813     		.2byte	0x1388
ARM GAS  /var/folders/5n/p_75w94d66l9ssrldxqdhh700000gn/T//cc4U8Rle.s 			page 41


 2276 0c97 00       		.byte	0
 2277 0c98 00       		.byte	0
 2278 0c99 22       		.uleb128 0x22
 2279 0c9a 0B060000 		.4byte	.LASF180
 2280 0c9e 01       		.byte	0x1
 2281 0c9f 75       		.byte	0x75
 2282 0ca0 01       		.byte	0x1
 2283 0ca1 00000000 		.4byte	.LFB9
 2284 0ca5 1C000000 		.4byte	.LFE9
 2285 0ca9 18010000 		.4byte	.LLST9
 2286 0cad 01       		.byte	0x1
 2287 0cae EB0C0000 		.4byte	0xceb
 2288 0cb2 23       		.uleb128 0x23
 2289 0cb3 61726700 		.ascii	"arg\000"
 2290 0cb7 01       		.byte	0x1
 2291 0cb8 75       		.byte	0x75
 2292 0cb9 8E020000 		.4byte	0x28e
 2293 0cbd 38010000 		.4byte	.LLST10
 2294 0cc1 24       		.uleb128 0x24
 2295 0cc2 06000000 		.4byte	.LVL14
 2296 0cc6 2E0F0000 		.4byte	0xf2e
 2297 0cca 21       		.uleb128 0x21
 2298 0ccb 1C000000 		.4byte	.LVL15
 2299 0ccf 01       		.byte	0x1
 2300 0cd0 620B0000 		.4byte	0xb62
 2301 0cd4 1E       		.uleb128 0x1e
 2302 0cd5 01       		.byte	0x1
 2303 0cd6 52       		.byte	0x52
 2304 0cd7 01       		.byte	0x1
 2305 0cd8 30       		.byte	0x30
 2306 0cd9 1E       		.uleb128 0x1e
 2307 0cda 01       		.byte	0x1
 2308 0cdb 51       		.byte	0x51
 2309 0cdc 05       		.byte	0x5
 2310 0cdd 03       		.byte	0x3
 2311 0cde 00000000 		.4byte	ip_reass_timer
 2312 0ce2 1E       		.uleb128 0x1e
 2313 0ce3 01       		.byte	0x1
 2314 0ce4 50       		.byte	0x50
 2315 0ce5 03       		.byte	0x3
 2316 0ce6 0A       		.byte	0xa
 2317 0ce7 E803     		.2byte	0x3e8
 2318 0ce9 00       		.byte	0
 2319 0cea 00       		.byte	0
 2320 0ceb 25       		.uleb128 0x25
 2321 0cec 01       		.byte	0x1
 2322 0ced B2040000 		.4byte	.LASF181
 2323 0cf1 01       		.byte	0x1
 2324 0cf2 63       		.byte	0x63
 2325 0cf3 01       		.byte	0x1
 2326 0cf4 00000000 		.4byte	.LFB8
 2327 0cf8 34000000 		.4byte	.LFE8
 2328 0cfc 02       		.byte	0x2
 2329 0cfd 7D       		.byte	0x7d
 2330 0cfe 00       		.sleb128 0
 2331 0cff 01       		.byte	0x1
 2332 0d00 240D0000 		.4byte	0xd24
ARM GAS  /var/folders/5n/p_75w94d66l9ssrldxqdhh700000gn/T//cc4U8Rle.s 			page 42


 2333 0d04 21       		.uleb128 0x21
 2334 0d05 1A000000 		.4byte	.LVL16
 2335 0d09 01       		.byte	0x1
 2336 0d0a 620B0000 		.4byte	0xb62
 2337 0d0e 1E       		.uleb128 0x1e
 2338 0d0f 01       		.byte	0x1
 2339 0d10 52       		.byte	0x52
 2340 0d11 01       		.byte	0x1
 2341 0d12 30       		.byte	0x30
 2342 0d13 1E       		.uleb128 0x1e
 2343 0d14 01       		.byte	0x1
 2344 0d15 51       		.byte	0x51
 2345 0d16 05       		.byte	0x5
 2346 0d17 03       		.byte	0x3
 2347 0d18 00000000 		.4byte	tcpip_tcp_timer
 2348 0d1c 1E       		.uleb128 0x1e
 2349 0d1d 01       		.byte	0x1
 2350 0d1e 50       		.byte	0x50
 2351 0d1f 02       		.byte	0x2
 2352 0d20 08       		.byte	0x8
 2353 0d21 FA       		.byte	0xfa
 2354 0d22 00       		.byte	0
 2355 0d23 00       		.byte	0
 2356 0d24 22       		.uleb128 0x22
 2357 0d25 3C080000 		.4byte	.LASF182
 2358 0d29 01       		.byte	0x1
 2359 0d2a 4D       		.byte	0x4d
 2360 0d2b 01       		.byte	0x1
 2361 0d2c 00000000 		.4byte	.LFB7
 2362 0d30 38000000 		.4byte	.LFE7
 2363 0d34 59010000 		.4byte	.LLST11
 2364 0d38 01       		.byte	0x1
 2365 0d39 750D0000 		.4byte	0xd75
 2366 0d3d 23       		.uleb128 0x23
 2367 0d3e 61726700 		.ascii	"arg\000"
 2368 0d42 01       		.byte	0x1
 2369 0d43 4D       		.byte	0x4d
 2370 0d44 8E020000 		.4byte	0x28e
 2371 0d48 79010000 		.4byte	.LLST12
 2372 0d4c 24       		.uleb128 0x24
 2373 0d4d 06000000 		.4byte	.LVL18
 2374 0d51 380F0000 		.4byte	0xf38
 2375 0d55 21       		.uleb128 0x21
 2376 0d56 1A000000 		.4byte	.LVL19
 2377 0d5a 01       		.byte	0x1
 2378 0d5b 620B0000 		.4byte	0xb62
 2379 0d5f 1E       		.uleb128 0x1e
 2380 0d60 01       		.byte	0x1
 2381 0d61 52       		.byte	0x52
 2382 0d62 01       		.byte	0x1
 2383 0d63 30       		.byte	0x30
 2384 0d64 1E       		.uleb128 0x1e
 2385 0d65 01       		.byte	0x1
 2386 0d66 51       		.byte	0x51
 2387 0d67 05       		.byte	0x5
 2388 0d68 03       		.byte	0x3
 2389 0d69 00000000 		.4byte	tcpip_tcp_timer
ARM GAS  /var/folders/5n/p_75w94d66l9ssrldxqdhh700000gn/T//cc4U8Rle.s 			page 43


 2390 0d6d 1E       		.uleb128 0x1e
 2391 0d6e 01       		.byte	0x1
 2392 0d6f 50       		.byte	0x50
 2393 0d70 02       		.byte	0x2
 2394 0d71 08       		.byte	0x8
 2395 0d72 FA       		.byte	0xfa
 2396 0d73 00       		.byte	0
 2397 0d74 00       		.byte	0
 2398 0d75 18       		.uleb128 0x18
 2399 0d76 01       		.byte	0x1
 2400 0d77 EC000000 		.4byte	.LASF183
 2401 0d7b 01       		.byte	0x1
 2402 0d7c 3F01     		.2byte	0x13f
 2403 0d7e 01       		.byte	0x1
 2404 0d7f 00000000 		.4byte	.LFB13
 2405 0d83 48000000 		.4byte	.LFE13
 2406 0d87 9A010000 		.4byte	.LLST13
 2407 0d8b 01       		.byte	0x1
 2408 0d8c DF0D0000 		.4byte	0xddf
 2409 0d90 19       		.uleb128 0x19
 2410 0d91 30010000 		.4byte	.LASF175
 2411 0d95 01       		.byte	0x1
 2412 0d96 3F01     		.2byte	0x13f
 2413 0d98 E8040000 		.4byte	0x4e8
 2414 0d9c BA010000 		.4byte	.LLST14
 2415 0da0 1A       		.uleb128 0x1a
 2416 0da1 61726700 		.ascii	"arg\000"
 2417 0da5 01       		.byte	0x1
 2418 0da6 3F01     		.2byte	0x13f
 2419 0da8 8E020000 		.4byte	0x28e
 2420 0dac E6010000 		.4byte	.LLST15
 2421 0db0 1B       		.uleb128 0x1b
 2422 0db1 00000000 		.4byte	.LASF184
 2423 0db5 01       		.byte	0x1
 2424 0db6 4101     		.2byte	0x141
 2425 0db8 36050000 		.4byte	0x536
 2426 0dbc 12020000 		.4byte	.LLST16
 2427 0dc0 1C       		.uleb128 0x1c
 2428 0dc1 7400     		.ascii	"t\000"
 2429 0dc3 01       		.byte	0x1
 2430 0dc4 4101     		.2byte	0x141
 2431 0dc6 36050000 		.4byte	0x536
 2432 0dca 30020000 		.4byte	.LLST17
 2433 0dce 21       		.uleb128 0x21
 2434 0dcf 3C000000 		.4byte	.LVL26
 2435 0dd3 01       		.byte	0x1
 2436 0dd4 420F0000 		.4byte	0xf42
 2437 0dd8 1E       		.uleb128 0x1e
 2438 0dd9 01       		.byte	0x1
 2439 0dda 50       		.byte	0x50
 2440 0ddb 01       		.byte	0x1
 2441 0ddc 3B       		.byte	0x3b
 2442 0ddd 00       		.byte	0
 2443 0dde 00       		.byte	0
 2444 0ddf 18       		.uleb128 0x18
 2445 0de0 01       		.byte	0x1
 2446 0de1 71020000 		.4byte	.LASF185
ARM GAS  /var/folders/5n/p_75w94d66l9ssrldxqdhh700000gn/T//cc4U8Rle.s 			page 44


 2447 0de5 01       		.byte	0x1
 2448 0de6 A201     		.2byte	0x1a2
 2449 0de8 01       		.byte	0x1
 2450 0de9 00000000 		.4byte	.LFB14
 2451 0ded 70000000 		.4byte	.LFE14
 2452 0df1 43020000 		.4byte	.LLST18
 2453 0df5 01       		.byte	0x1
 2454 0df6 B70E0000 		.4byte	0xeb7
 2455 0dfa 19       		.uleb128 0x19
 2456 0dfb F6050000 		.4byte	.LASF186
 2457 0dff 01       		.byte	0x1
 2458 0e00 A201     		.2byte	0x1a2
 2459 0e02 B70E0000 		.4byte	0xeb7
 2460 0e06 63020000 		.4byte	.LLST19
 2461 0e0a 1A       		.uleb128 0x1a
 2462 0e0b 6D736700 		.ascii	"msg\000"
 2463 0e0f 01       		.byte	0x1
 2464 0e10 A201     		.2byte	0x1a2
 2465 0e12 BD0E0000 		.4byte	0xebd
 2466 0e16 81020000 		.4byte	.LLST20
 2467 0e1a 1B       		.uleb128 0x1b
 2468 0e1b 1D010000 		.4byte	.LASF187
 2469 0e1f 01       		.byte	0x1
 2470 0e20 A401     		.2byte	0x1a4
 2471 0e22 C1040000 		.4byte	0x4c1
 2472 0e26 9F020000 		.4byte	.LLST21
 2473 0e2a 1B       		.uleb128 0x1b
 2474 0e2b 07000000 		.4byte	.LASF188
 2475 0e2f 01       		.byte	0x1
 2476 0e30 A501     		.2byte	0x1a5
 2477 0e32 36050000 		.4byte	0x536
 2478 0e36 BD020000 		.4byte	.LLST22
 2479 0e3a 1B       		.uleb128 0x1b
 2480 0e3b 30010000 		.4byte	.LASF175
 2481 0e3f 01       		.byte	0x1
 2482 0e40 A601     		.2byte	0x1a6
 2483 0e42 E8040000 		.4byte	0x4e8
 2484 0e46 D0020000 		.4byte	.LLST23
 2485 0e4a 1C       		.uleb128 0x1c
 2486 0e4b 61726700 		.ascii	"arg\000"
 2487 0e4f 01       		.byte	0x1
 2488 0e50 A701     		.2byte	0x1a7
 2489 0e52 8E020000 		.4byte	0x28e
 2490 0e56 EE020000 		.4byte	.LLST24
 2491 0e5a 26       		.uleb128 0x26
 2492 0e5b 69000000 		.4byte	.LASF203
 2493 0e5f 01       		.byte	0x1
 2494 0e60 A901     		.2byte	0x1a9
 2495 0e62 1D       		.uleb128 0x1d
 2496 0e63 20000000 		.4byte	.LVL32
 2497 0e67 420F0000 		.4byte	0xf42
 2498 0e6b 750E0000 		.4byte	0xe75
 2499 0e6f 1E       		.uleb128 0x1e
 2500 0e70 01       		.byte	0x1
 2501 0e71 50       		.byte	0x50
 2502 0e72 01       		.byte	0x1
 2503 0e73 3B       		.byte	0x3b
ARM GAS  /var/folders/5n/p_75w94d66l9ssrldxqdhh700000gn/T//cc4U8Rle.s 			page 45


 2504 0e74 00       		.byte	0
 2505 0e75 1D       		.uleb128 0x1d
 2506 0e76 34000000 		.4byte	.LVL34
 2507 0e7a 5B0F0000 		.4byte	0xf5b
 2508 0e7e 8F0E0000 		.4byte	0xe8f
 2509 0e82 1E       		.uleb128 0x1e
 2510 0e83 01       		.byte	0x1
 2511 0e84 51       		.byte	0x51
 2512 0e85 02       		.byte	0x2
 2513 0e86 76       		.byte	0x76
 2514 0e87 00       		.sleb128 0
 2515 0e88 1E       		.uleb128 0x1e
 2516 0e89 01       		.byte	0x1
 2517 0e8a 50       		.byte	0x50
 2518 0e8b 02       		.byte	0x2
 2519 0e8c 77       		.byte	0x77
 2520 0e8d 00       		.sleb128 0
 2521 0e8e 00       		.byte	0
 2522 0e8f 27       		.uleb128 0x27
 2523 0e90 42000000 		.4byte	.LVL36
 2524 0e94 9F0E0000 		.4byte	0xe9f
 2525 0e98 1E       		.uleb128 0x1e
 2526 0e99 01       		.byte	0x1
 2527 0e9a 50       		.byte	0x50
 2528 0e9b 02       		.byte	0x2
 2529 0e9c 79       		.byte	0x79
 2530 0e9d 00       		.sleb128 0
 2531 0e9e 00       		.byte	0
 2532 0e9f 21       		.uleb128 0x21
 2533 0ea0 56000000 		.4byte	.LVL38
 2534 0ea4 01       		.byte	0x1
 2535 0ea5 5B0F0000 		.4byte	0xf5b
 2536 0ea9 1E       		.uleb128 0x1e
 2537 0eaa 01       		.byte	0x1
 2538 0eab 51       		.byte	0x51
 2539 0eac 02       		.byte	0x2
 2540 0ead 76       		.byte	0x76
 2541 0eae 00       		.sleb128 0
 2542 0eaf 1E       		.uleb128 0x1e
 2543 0eb0 01       		.byte	0x1
 2544 0eb1 50       		.byte	0x50
 2545 0eb2 02       		.byte	0x2
 2546 0eb3 77       		.byte	0x77
 2547 0eb4 00       		.sleb128 0
 2548 0eb5 00       		.byte	0
 2549 0eb6 00       		.byte	0
 2550 0eb7 09       		.uleb128 0x9
 2551 0eb8 04       		.byte	0x4
 2552 0eb9 D7040000 		.4byte	0x4d7
 2553 0ebd 09       		.uleb128 0x9
 2554 0ebe 04       		.byte	0x4
 2555 0ebf 8E020000 		.4byte	0x28e
 2556 0ec3 28       		.uleb128 0x28
 2557 0ec4 71070000 		.4byte	.LASF189
 2558 0ec8 01       		.byte	0x1
 2559 0ec9 3E       		.byte	0x3e
 2560 0eca 36050000 		.4byte	0x536
ARM GAS  /var/folders/5n/p_75w94d66l9ssrldxqdhh700000gn/T//cc4U8Rle.s 			page 46


 2561 0ece 05       		.byte	0x5
 2562 0ecf 03       		.byte	0x3
 2563 0ed0 00000000 		.4byte	next_timeout
 2564 0ed4 28       		.uleb128 0x28
 2565 0ed5 00010000 		.4byte	.LASF190
 2566 0ed9 01       		.byte	0x1
 2567 0eda 45       		.byte	0x45
 2568 0edb 29000000 		.4byte	0x29
 2569 0edf 05       		.byte	0x5
 2570 0ee0 03       		.byte	0x3
 2571 0ee1 00000000 		.4byte	tcpip_tcp_timer_active
 2572 0ee5 29       		.uleb128 0x29
 2573 0ee6 02080000 		.4byte	.LASF191
 2574 0eea 11       		.byte	0x11
 2575 0eeb 4001     		.2byte	0x140
 2576 0eed 02060000 		.4byte	0x602
 2577 0ef1 01       		.byte	0x1
 2578 0ef2 01       		.byte	0x1
 2579 0ef3 29       		.uleb128 0x29
 2580 0ef4 DB070000 		.4byte	.LASF192
 2581 0ef8 11       		.byte	0x11
 2582 0ef9 4301     		.2byte	0x143
 2583 0efb 02060000 		.4byte	0x602
 2584 0eff 01       		.byte	0x1
 2585 0f00 01       		.byte	0x1
 2586 0f01 2A       		.uleb128 0x2a
 2587 0f02 01       		.byte	0x1
 2588 0f03 EC030000 		.4byte	.LASF204
 2589 0f07 12       		.byte	0x12
 2590 0f08 6A       		.byte	0x6a
 2591 0f09 01       		.byte	0x1
 2592 0f0a 8E020000 		.4byte	0x28e
 2593 0f0e 01       		.byte	0x1
 2594 0f0f 190F0000 		.4byte	0xf19
 2595 0f13 0E       		.uleb128 0xe
 2596 0f14 570B0000 		.4byte	0xb57
 2597 0f18 00       		.byte	0
 2598 0f19 2B       		.uleb128 0x2b
 2599 0f1a 01       		.byte	0x1
 2600 0f1b 43070000 		.4byte	.LASF193
 2601 0f1f 06       		.byte	0x6
 2602 0f20 F301     		.2byte	0x1f3
 2603 0f22 01       		.byte	0x1
 2604 0f23 01       		.byte	0x1
 2605 0f24 2C       		.uleb128 0x2c
 2606 0f25 01       		.byte	0x1
 2607 0f26 F6020000 		.4byte	.LASF194
 2608 0f2a 13       		.byte	0x13
 2609 0f2b B6       		.byte	0xb6
 2610 0f2c 01       		.byte	0x1
 2611 0f2d 01       		.byte	0x1
 2612 0f2e 2C       		.uleb128 0x2c
 2613 0f2f 01       		.byte	0x1
 2614 0f30 B3020000 		.4byte	.LASF195
 2615 0f34 14       		.byte	0x14
 2616 0f35 40       		.byte	0x40
 2617 0f36 01       		.byte	0x1
ARM GAS  /var/folders/5n/p_75w94d66l9ssrldxqdhh700000gn/T//cc4U8Rle.s 			page 47


 2618 0f37 01       		.byte	0x1
 2619 0f38 2C       		.uleb128 0x2c
 2620 0f39 01       		.byte	0x1
 2621 0f3a 7A010000 		.4byte	.LASF196
 2622 0f3e 11       		.byte	0x11
 2623 0f3f 37       		.byte	0x37
 2624 0f40 01       		.byte	0x1
 2625 0f41 01       		.byte	0x1
 2626 0f42 2D       		.uleb128 0x2d
 2627 0f43 01       		.byte	0x1
 2628 0f44 38020000 		.4byte	.LASF197
 2629 0f48 12       		.byte	0x12
 2630 0f49 6C       		.byte	0x6c
 2631 0f4a 01       		.byte	0x1
 2632 0f4b 01       		.byte	0x1
 2633 0f4c 5B0F0000 		.4byte	0xf5b
 2634 0f50 0E       		.uleb128 0xe
 2635 0f51 570B0000 		.4byte	0xb57
 2636 0f55 0E       		.uleb128 0xe
 2637 0f56 8E020000 		.4byte	0x28e
 2638 0f5a 00       		.byte	0
 2639 0f5b 2E       		.uleb128 0x2e
 2640 0f5c 01       		.byte	0x1
 2641 0f5d 12040000 		.4byte	.LASF198
 2642 0f61 15       		.byte	0x15
 2643 0f62 B9       		.byte	0xb9
 2644 0f63 01       		.byte	0x1
 2645 0f64 C1040000 		.4byte	0x4c1
 2646 0f68 01       		.byte	0x1
 2647 0f69 0E       		.uleb128 0xe
 2648 0f6a B70E0000 		.4byte	0xeb7
 2649 0f6e 0E       		.uleb128 0xe
 2650 0f6f BD0E0000 		.4byte	0xebd
 2651 0f73 0E       		.uleb128 0xe
 2652 0f74 C1040000 		.4byte	0x4c1
 2653 0f78 00       		.byte	0
 2654 0f79 00       		.byte	0
 2655              		.section	.debug_abbrev,"",%progbits
 2656              	.Ldebug_abbrev0:
 2657 0000 01       		.uleb128 0x1
 2658 0001 11       		.uleb128 0x11
 2659 0002 01       		.byte	0x1
 2660 0003 25       		.uleb128 0x25
 2661 0004 0E       		.uleb128 0xe
 2662 0005 13       		.uleb128 0x13
 2663 0006 0B       		.uleb128 0xb
 2664 0007 03       		.uleb128 0x3
 2665 0008 0E       		.uleb128 0xe
 2666 0009 1B       		.uleb128 0x1b
 2667 000a 0E       		.uleb128 0xe
 2668 000b 55       		.uleb128 0x55
 2669 000c 06       		.uleb128 0x6
 2670 000d 11       		.uleb128 0x11
 2671 000e 01       		.uleb128 0x1
 2672 000f 52       		.uleb128 0x52
 2673 0010 01       		.uleb128 0x1
 2674 0011 10       		.uleb128 0x10
ARM GAS  /var/folders/5n/p_75w94d66l9ssrldxqdhh700000gn/T//cc4U8Rle.s 			page 48


 2675 0012 06       		.uleb128 0x6
 2676 0013 00       		.byte	0
 2677 0014 00       		.byte	0
 2678 0015 02       		.uleb128 0x2
 2679 0016 24       		.uleb128 0x24
 2680 0017 00       		.byte	0
 2681 0018 0B       		.uleb128 0xb
 2682 0019 0B       		.uleb128 0xb
 2683 001a 3E       		.uleb128 0x3e
 2684 001b 0B       		.uleb128 0xb
 2685 001c 03       		.uleb128 0x3
 2686 001d 08       		.uleb128 0x8
 2687 001e 00       		.byte	0
 2688 001f 00       		.byte	0
 2689 0020 03       		.uleb128 0x3
 2690 0021 24       		.uleb128 0x24
 2691 0022 00       		.byte	0
 2692 0023 0B       		.uleb128 0xb
 2693 0024 0B       		.uleb128 0xb
 2694 0025 3E       		.uleb128 0x3e
 2695 0026 0B       		.uleb128 0xb
 2696 0027 03       		.uleb128 0x3
 2697 0028 0E       		.uleb128 0xe
 2698 0029 00       		.byte	0
 2699 002a 00       		.byte	0
 2700 002b 04       		.uleb128 0x4
 2701 002c 16       		.uleb128 0x16
 2702 002d 00       		.byte	0
 2703 002e 03       		.uleb128 0x3
 2704 002f 0E       		.uleb128 0xe
 2705 0030 3A       		.uleb128 0x3a
 2706 0031 0B       		.uleb128 0xb
 2707 0032 3B       		.uleb128 0x3b
 2708 0033 0B       		.uleb128 0xb
 2709 0034 49       		.uleb128 0x49
 2710 0035 13       		.uleb128 0x13
 2711 0036 00       		.byte	0
 2712 0037 00       		.byte	0
 2713 0038 05       		.uleb128 0x5
 2714 0039 13       		.uleb128 0x13
 2715 003a 01       		.byte	0x1
 2716 003b 03       		.uleb128 0x3
 2717 003c 0E       		.uleb128 0xe
 2718 003d 0B       		.uleb128 0xb
 2719 003e 0B       		.uleb128 0xb
 2720 003f 3A       		.uleb128 0x3a
 2721 0040 0B       		.uleb128 0xb
 2722 0041 3B       		.uleb128 0x3b
 2723 0042 0B       		.uleb128 0xb
 2724 0043 01       		.uleb128 0x1
 2725 0044 13       		.uleb128 0x13
 2726 0045 00       		.byte	0
 2727 0046 00       		.byte	0
 2728 0047 06       		.uleb128 0x6
 2729 0048 0D       		.uleb128 0xd
 2730 0049 00       		.byte	0
 2731 004a 03       		.uleb128 0x3
ARM GAS  /var/folders/5n/p_75w94d66l9ssrldxqdhh700000gn/T//cc4U8Rle.s 			page 49


 2732 004b 0E       		.uleb128 0xe
 2733 004c 3A       		.uleb128 0x3a
 2734 004d 0B       		.uleb128 0xb
 2735 004e 3B       		.uleb128 0x3b
 2736 004f 0B       		.uleb128 0xb
 2737 0050 49       		.uleb128 0x49
 2738 0051 13       		.uleb128 0x13
 2739 0052 38       		.uleb128 0x38
 2740 0053 0A       		.uleb128 0xa
 2741 0054 00       		.byte	0
 2742 0055 00       		.byte	0
 2743 0056 07       		.uleb128 0x7
 2744 0057 0D       		.uleb128 0xd
 2745 0058 00       		.byte	0
 2746 0059 03       		.uleb128 0x3
 2747 005a 08       		.uleb128 0x8
 2748 005b 3A       		.uleb128 0x3a
 2749 005c 0B       		.uleb128 0xb
 2750 005d 3B       		.uleb128 0x3b
 2751 005e 0B       		.uleb128 0xb
 2752 005f 49       		.uleb128 0x49
 2753 0060 13       		.uleb128 0x13
 2754 0061 38       		.uleb128 0x38
 2755 0062 0A       		.uleb128 0xa
 2756 0063 00       		.byte	0
 2757 0064 00       		.byte	0
 2758 0065 08       		.uleb128 0x8
 2759 0066 13       		.uleb128 0x13
 2760 0067 01       		.byte	0x1
 2761 0068 0B       		.uleb128 0xb
 2762 0069 0B       		.uleb128 0xb
 2763 006a 3A       		.uleb128 0x3a
 2764 006b 0B       		.uleb128 0xb
 2765 006c 3B       		.uleb128 0x3b
 2766 006d 0B       		.uleb128 0xb
 2767 006e 01       		.uleb128 0x1
 2768 006f 13       		.uleb128 0x13
 2769 0070 00       		.byte	0
 2770 0071 00       		.byte	0
 2771 0072 09       		.uleb128 0x9
 2772 0073 0F       		.uleb128 0xf
 2773 0074 00       		.byte	0
 2774 0075 0B       		.uleb128 0xb
 2775 0076 0B       		.uleb128 0xb
 2776 0077 49       		.uleb128 0x49
 2777 0078 13       		.uleb128 0x13
 2778 0079 00       		.byte	0
 2779 007a 00       		.byte	0
 2780 007b 0A       		.uleb128 0xa
 2781 007c 0F       		.uleb128 0xf
 2782 007d 00       		.byte	0
 2783 007e 0B       		.uleb128 0xb
 2784 007f 0B       		.uleb128 0xb
 2785 0080 00       		.byte	0
 2786 0081 00       		.byte	0
 2787 0082 0B       		.uleb128 0xb
 2788 0083 0D       		.uleb128 0xd
ARM GAS  /var/folders/5n/p_75w94d66l9ssrldxqdhh700000gn/T//cc4U8Rle.s 			page 50


 2789 0084 00       		.byte	0
 2790 0085 03       		.uleb128 0x3
 2791 0086 08       		.uleb128 0x8
 2792 0087 3A       		.uleb128 0x3a
 2793 0088 0B       		.uleb128 0xb
 2794 0089 3B       		.uleb128 0x3b
 2795 008a 05       		.uleb128 0x5
 2796 008b 49       		.uleb128 0x49
 2797 008c 13       		.uleb128 0x13
 2798 008d 38       		.uleb128 0x38
 2799 008e 0A       		.uleb128 0xa
 2800 008f 00       		.byte	0
 2801 0090 00       		.byte	0
 2802 0091 0C       		.uleb128 0xc
 2803 0092 13       		.uleb128 0x13
 2804 0093 01       		.byte	0x1
 2805 0094 03       		.uleb128 0x3
 2806 0095 0E       		.uleb128 0xe
 2807 0096 0B       		.uleb128 0xb
 2808 0097 0B       		.uleb128 0xb
 2809 0098 3A       		.uleb128 0x3a
 2810 0099 0B       		.uleb128 0xb
 2811 009a 3B       		.uleb128 0x3b
 2812 009b 05       		.uleb128 0x5
 2813 009c 01       		.uleb128 0x1
 2814 009d 13       		.uleb128 0x13
 2815 009e 00       		.byte	0
 2816 009f 00       		.byte	0
 2817 00a0 0D       		.uleb128 0xd
 2818 00a1 15       		.uleb128 0x15
 2819 00a2 01       		.byte	0x1
 2820 00a3 27       		.uleb128 0x27
 2821 00a4 0C       		.uleb128 0xc
 2822 00a5 01       		.uleb128 0x1
 2823 00a6 13       		.uleb128 0x13
 2824 00a7 00       		.byte	0
 2825 00a8 00       		.byte	0
 2826 00a9 0E       		.uleb128 0xe
 2827 00aa 05       		.uleb128 0x5
 2828 00ab 00       		.byte	0
 2829 00ac 49       		.uleb128 0x49
 2830 00ad 13       		.uleb128 0x13
 2831 00ae 00       		.byte	0
 2832 00af 00       		.byte	0
 2833 00b0 0F       		.uleb128 0xf
 2834 00b1 35       		.uleb128 0x35
 2835 00b2 00       		.byte	0
 2836 00b3 49       		.uleb128 0x49
 2837 00b4 13       		.uleb128 0x13
 2838 00b5 00       		.byte	0
 2839 00b6 00       		.byte	0
 2840 00b7 10       		.uleb128 0x10
 2841 00b8 17       		.uleb128 0x17
 2842 00b9 01       		.byte	0x1
 2843 00ba 0B       		.uleb128 0xb
 2844 00bb 0B       		.uleb128 0xb
 2845 00bc 3A       		.uleb128 0x3a
ARM GAS  /var/folders/5n/p_75w94d66l9ssrldxqdhh700000gn/T//cc4U8Rle.s 			page 51


 2846 00bd 0B       		.uleb128 0xb
 2847 00be 3B       		.uleb128 0x3b
 2848 00bf 0B       		.uleb128 0xb
 2849 00c0 01       		.uleb128 0x1
 2850 00c1 13       		.uleb128 0x13
 2851 00c2 00       		.byte	0
 2852 00c3 00       		.byte	0
 2853 00c4 11       		.uleb128 0x11
 2854 00c5 0D       		.uleb128 0xd
 2855 00c6 00       		.byte	0
 2856 00c7 03       		.uleb128 0x3
 2857 00c8 0E       		.uleb128 0xe
 2858 00c9 3A       		.uleb128 0x3a
 2859 00ca 0B       		.uleb128 0xb
 2860 00cb 3B       		.uleb128 0x3b
 2861 00cc 0B       		.uleb128 0xb
 2862 00cd 49       		.uleb128 0x49
 2863 00ce 13       		.uleb128 0x13
 2864 00cf 00       		.byte	0
 2865 00d0 00       		.byte	0
 2866 00d1 12       		.uleb128 0x12
 2867 00d2 26       		.uleb128 0x26
 2868 00d3 00       		.byte	0
 2869 00d4 49       		.uleb128 0x49
 2870 00d5 13       		.uleb128 0x13
 2871 00d6 00       		.byte	0
 2872 00d7 00       		.byte	0
 2873 00d8 13       		.uleb128 0x13
 2874 00d9 15       		.uleb128 0x15
 2875 00da 01       		.byte	0x1
 2876 00db 27       		.uleb128 0x27
 2877 00dc 0C       		.uleb128 0xc
 2878 00dd 49       		.uleb128 0x49
 2879 00de 13       		.uleb128 0x13
 2880 00df 01       		.uleb128 0x1
 2881 00e0 13       		.uleb128 0x13
 2882 00e1 00       		.byte	0
 2883 00e2 00       		.byte	0
 2884 00e3 14       		.uleb128 0x14
 2885 00e4 0D       		.uleb128 0xd
 2886 00e5 00       		.byte	0
 2887 00e6 03       		.uleb128 0x3
 2888 00e7 0E       		.uleb128 0xe
 2889 00e8 3A       		.uleb128 0x3a
 2890 00e9 0B       		.uleb128 0xb
 2891 00ea 3B       		.uleb128 0x3b
 2892 00eb 05       		.uleb128 0x5
 2893 00ec 49       		.uleb128 0x49
 2894 00ed 13       		.uleb128 0x13
 2895 00ee 38       		.uleb128 0x38
 2896 00ef 0A       		.uleb128 0xa
 2897 00f0 00       		.byte	0
 2898 00f1 00       		.byte	0
 2899 00f2 15       		.uleb128 0x15
 2900 00f3 04       		.uleb128 0x4
 2901 00f4 01       		.byte	0x1
 2902 00f5 03       		.uleb128 0x3
ARM GAS  /var/folders/5n/p_75w94d66l9ssrldxqdhh700000gn/T//cc4U8Rle.s 			page 52


 2903 00f6 0E       		.uleb128 0xe
 2904 00f7 0B       		.uleb128 0xb
 2905 00f8 0B       		.uleb128 0xb
 2906 00f9 3A       		.uleb128 0x3a
 2907 00fa 0B       		.uleb128 0xb
 2908 00fb 3B       		.uleb128 0x3b
 2909 00fc 0B       		.uleb128 0xb
 2910 00fd 01       		.uleb128 0x1
 2911 00fe 13       		.uleb128 0x13
 2912 00ff 00       		.byte	0
 2913 0100 00       		.byte	0
 2914 0101 16       		.uleb128 0x16
 2915 0102 28       		.uleb128 0x28
 2916 0103 00       		.byte	0
 2917 0104 03       		.uleb128 0x3
 2918 0105 0E       		.uleb128 0xe
 2919 0106 1C       		.uleb128 0x1c
 2920 0107 0D       		.uleb128 0xd
 2921 0108 00       		.byte	0
 2922 0109 00       		.byte	0
 2923 010a 17       		.uleb128 0x17
 2924 010b 04       		.uleb128 0x4
 2925 010c 01       		.byte	0x1
 2926 010d 0B       		.uleb128 0xb
 2927 010e 0B       		.uleb128 0xb
 2928 010f 3A       		.uleb128 0x3a
 2929 0110 0B       		.uleb128 0xb
 2930 0111 3B       		.uleb128 0x3b
 2931 0112 0B       		.uleb128 0xb
 2932 0113 01       		.uleb128 0x1
 2933 0114 13       		.uleb128 0x13
 2934 0115 00       		.byte	0
 2935 0116 00       		.byte	0
 2936 0117 18       		.uleb128 0x18
 2937 0118 2E       		.uleb128 0x2e
 2938 0119 01       		.byte	0x1
 2939 011a 3F       		.uleb128 0x3f
 2940 011b 0C       		.uleb128 0xc
 2941 011c 03       		.uleb128 0x3
 2942 011d 0E       		.uleb128 0xe
 2943 011e 3A       		.uleb128 0x3a
 2944 011f 0B       		.uleb128 0xb
 2945 0120 3B       		.uleb128 0x3b
 2946 0121 05       		.uleb128 0x5
 2947 0122 27       		.uleb128 0x27
 2948 0123 0C       		.uleb128 0xc
 2949 0124 11       		.uleb128 0x11
 2950 0125 01       		.uleb128 0x1
 2951 0126 12       		.uleb128 0x12
 2952 0127 01       		.uleb128 0x1
 2953 0128 40       		.uleb128 0x40
 2954 0129 06       		.uleb128 0x6
 2955 012a 9742     		.uleb128 0x2117
 2956 012c 0C       		.uleb128 0xc
 2957 012d 01       		.uleb128 0x1
 2958 012e 13       		.uleb128 0x13
 2959 012f 00       		.byte	0
ARM GAS  /var/folders/5n/p_75w94d66l9ssrldxqdhh700000gn/T//cc4U8Rle.s 			page 53


 2960 0130 00       		.byte	0
 2961 0131 19       		.uleb128 0x19
 2962 0132 05       		.uleb128 0x5
 2963 0133 00       		.byte	0
 2964 0134 03       		.uleb128 0x3
 2965 0135 0E       		.uleb128 0xe
 2966 0136 3A       		.uleb128 0x3a
 2967 0137 0B       		.uleb128 0xb
 2968 0138 3B       		.uleb128 0x3b
 2969 0139 05       		.uleb128 0x5
 2970 013a 49       		.uleb128 0x49
 2971 013b 13       		.uleb128 0x13
 2972 013c 02       		.uleb128 0x2
 2973 013d 06       		.uleb128 0x6
 2974 013e 00       		.byte	0
 2975 013f 00       		.byte	0
 2976 0140 1A       		.uleb128 0x1a
 2977 0141 05       		.uleb128 0x5
 2978 0142 00       		.byte	0
 2979 0143 03       		.uleb128 0x3
 2980 0144 08       		.uleb128 0x8
 2981 0145 3A       		.uleb128 0x3a
 2982 0146 0B       		.uleb128 0xb
 2983 0147 3B       		.uleb128 0x3b
 2984 0148 05       		.uleb128 0x5
 2985 0149 49       		.uleb128 0x49
 2986 014a 13       		.uleb128 0x13
 2987 014b 02       		.uleb128 0x2
 2988 014c 06       		.uleb128 0x6
 2989 014d 00       		.byte	0
 2990 014e 00       		.byte	0
 2991 014f 1B       		.uleb128 0x1b
 2992 0150 34       		.uleb128 0x34
 2993 0151 00       		.byte	0
 2994 0152 03       		.uleb128 0x3
 2995 0153 0E       		.uleb128 0xe
 2996 0154 3A       		.uleb128 0x3a
 2997 0155 0B       		.uleb128 0xb
 2998 0156 3B       		.uleb128 0x3b
 2999 0157 05       		.uleb128 0x5
 3000 0158 49       		.uleb128 0x49
 3001 0159 13       		.uleb128 0x13
 3002 015a 02       		.uleb128 0x2
 3003 015b 06       		.uleb128 0x6
 3004 015c 00       		.byte	0
 3005 015d 00       		.byte	0
 3006 015e 1C       		.uleb128 0x1c
 3007 015f 34       		.uleb128 0x34
 3008 0160 00       		.byte	0
 3009 0161 03       		.uleb128 0x3
 3010 0162 08       		.uleb128 0x8
 3011 0163 3A       		.uleb128 0x3a
 3012 0164 0B       		.uleb128 0xb
 3013 0165 3B       		.uleb128 0x3b
 3014 0166 05       		.uleb128 0x5
 3015 0167 49       		.uleb128 0x49
 3016 0168 13       		.uleb128 0x13
ARM GAS  /var/folders/5n/p_75w94d66l9ssrldxqdhh700000gn/T//cc4U8Rle.s 			page 54


 3017 0169 02       		.uleb128 0x2
 3018 016a 06       		.uleb128 0x6
 3019 016b 00       		.byte	0
 3020 016c 00       		.byte	0
 3021 016d 1D       		.uleb128 0x1d
 3022 016e 898201   		.uleb128 0x4109
 3023 0171 01       		.byte	0x1
 3024 0172 11       		.uleb128 0x11
 3025 0173 01       		.uleb128 0x1
 3026 0174 31       		.uleb128 0x31
 3027 0175 13       		.uleb128 0x13
 3028 0176 01       		.uleb128 0x1
 3029 0177 13       		.uleb128 0x13
 3030 0178 00       		.byte	0
 3031 0179 00       		.byte	0
 3032 017a 1E       		.uleb128 0x1e
 3033 017b 8A8201   		.uleb128 0x410a
 3034 017e 00       		.byte	0
 3035 017f 02       		.uleb128 0x2
 3036 0180 0A       		.uleb128 0xa
 3037 0181 9142     		.uleb128 0x2111
 3038 0183 0A       		.uleb128 0xa
 3039 0184 00       		.byte	0
 3040 0185 00       		.byte	0
 3041 0186 1F       		.uleb128 0x1f
 3042 0187 898201   		.uleb128 0x4109
 3043 018a 00       		.byte	0
 3044 018b 11       		.uleb128 0x11
 3045 018c 01       		.uleb128 0x1
 3046 018d 9542     		.uleb128 0x2115
 3047 018f 0C       		.uleb128 0xc
 3048 0190 31       		.uleb128 0x31
 3049 0191 13       		.uleb128 0x13
 3050 0192 00       		.byte	0
 3051 0193 00       		.byte	0
 3052 0194 20       		.uleb128 0x20
 3053 0195 2E       		.uleb128 0x2e
 3054 0196 01       		.byte	0x1
 3055 0197 3F       		.uleb128 0x3f
 3056 0198 0C       		.uleb128 0xc
 3057 0199 03       		.uleb128 0x3
 3058 019a 0E       		.uleb128 0xe
 3059 019b 3A       		.uleb128 0x3a
 3060 019c 0B       		.uleb128 0xb
 3061 019d 3B       		.uleb128 0x3b
 3062 019e 0B       		.uleb128 0xb
 3063 019f 27       		.uleb128 0x27
 3064 01a0 0C       		.uleb128 0xc
 3065 01a1 11       		.uleb128 0x11
 3066 01a2 01       		.uleb128 0x1
 3067 01a3 12       		.uleb128 0x12
 3068 01a4 01       		.uleb128 0x1
 3069 01a5 40       		.uleb128 0x40
 3070 01a6 06       		.uleb128 0x6
 3071 01a7 9742     		.uleb128 0x2117
 3072 01a9 0C       		.uleb128 0xc
 3073 01aa 01       		.uleb128 0x1
ARM GAS  /var/folders/5n/p_75w94d66l9ssrldxqdhh700000gn/T//cc4U8Rle.s 			page 55


 3074 01ab 13       		.uleb128 0x13
 3075 01ac 00       		.byte	0
 3076 01ad 00       		.byte	0
 3077 01ae 21       		.uleb128 0x21
 3078 01af 898201   		.uleb128 0x4109
 3079 01b2 01       		.byte	0x1
 3080 01b3 11       		.uleb128 0x11
 3081 01b4 01       		.uleb128 0x1
 3082 01b5 9542     		.uleb128 0x2115
 3083 01b7 0C       		.uleb128 0xc
 3084 01b8 31       		.uleb128 0x31
 3085 01b9 13       		.uleb128 0x13
 3086 01ba 00       		.byte	0
 3087 01bb 00       		.byte	0
 3088 01bc 22       		.uleb128 0x22
 3089 01bd 2E       		.uleb128 0x2e
 3090 01be 01       		.byte	0x1
 3091 01bf 03       		.uleb128 0x3
 3092 01c0 0E       		.uleb128 0xe
 3093 01c1 3A       		.uleb128 0x3a
 3094 01c2 0B       		.uleb128 0xb
 3095 01c3 3B       		.uleb128 0x3b
 3096 01c4 0B       		.uleb128 0xb
 3097 01c5 27       		.uleb128 0x27
 3098 01c6 0C       		.uleb128 0xc
 3099 01c7 11       		.uleb128 0x11
 3100 01c8 01       		.uleb128 0x1
 3101 01c9 12       		.uleb128 0x12
 3102 01ca 01       		.uleb128 0x1
 3103 01cb 40       		.uleb128 0x40
 3104 01cc 06       		.uleb128 0x6
 3105 01cd 9742     		.uleb128 0x2117
 3106 01cf 0C       		.uleb128 0xc
 3107 01d0 01       		.uleb128 0x1
 3108 01d1 13       		.uleb128 0x13
 3109 01d2 00       		.byte	0
 3110 01d3 00       		.byte	0
 3111 01d4 23       		.uleb128 0x23
 3112 01d5 05       		.uleb128 0x5
 3113 01d6 00       		.byte	0
 3114 01d7 03       		.uleb128 0x3
 3115 01d8 08       		.uleb128 0x8
 3116 01d9 3A       		.uleb128 0x3a
 3117 01da 0B       		.uleb128 0xb
 3118 01db 3B       		.uleb128 0x3b
 3119 01dc 0B       		.uleb128 0xb
 3120 01dd 49       		.uleb128 0x49
 3121 01de 13       		.uleb128 0x13
 3122 01df 02       		.uleb128 0x2
 3123 01e0 06       		.uleb128 0x6
 3124 01e1 00       		.byte	0
 3125 01e2 00       		.byte	0
 3126 01e3 24       		.uleb128 0x24
 3127 01e4 898201   		.uleb128 0x4109
 3128 01e7 00       		.byte	0
 3129 01e8 11       		.uleb128 0x11
 3130 01e9 01       		.uleb128 0x1
ARM GAS  /var/folders/5n/p_75w94d66l9ssrldxqdhh700000gn/T//cc4U8Rle.s 			page 56


 3131 01ea 31       		.uleb128 0x31
 3132 01eb 13       		.uleb128 0x13
 3133 01ec 00       		.byte	0
 3134 01ed 00       		.byte	0
 3135 01ee 25       		.uleb128 0x25
 3136 01ef 2E       		.uleb128 0x2e
 3137 01f0 01       		.byte	0x1
 3138 01f1 3F       		.uleb128 0x3f
 3139 01f2 0C       		.uleb128 0xc
 3140 01f3 03       		.uleb128 0x3
 3141 01f4 0E       		.uleb128 0xe
 3142 01f5 3A       		.uleb128 0x3a
 3143 01f6 0B       		.uleb128 0xb
 3144 01f7 3B       		.uleb128 0x3b
 3145 01f8 0B       		.uleb128 0xb
 3146 01f9 27       		.uleb128 0x27
 3147 01fa 0C       		.uleb128 0xc
 3148 01fb 11       		.uleb128 0x11
 3149 01fc 01       		.uleb128 0x1
 3150 01fd 12       		.uleb128 0x12
 3151 01fe 01       		.uleb128 0x1
 3152 01ff 40       		.uleb128 0x40
 3153 0200 0A       		.uleb128 0xa
 3154 0201 9742     		.uleb128 0x2117
 3155 0203 0C       		.uleb128 0xc
 3156 0204 01       		.uleb128 0x1
 3157 0205 13       		.uleb128 0x13
 3158 0206 00       		.byte	0
 3159 0207 00       		.byte	0
 3160 0208 26       		.uleb128 0x26
 3161 0209 0A       		.uleb128 0xa
 3162 020a 00       		.byte	0
 3163 020b 03       		.uleb128 0x3
 3164 020c 0E       		.uleb128 0xe
 3165 020d 3A       		.uleb128 0x3a
 3166 020e 0B       		.uleb128 0xb
 3167 020f 3B       		.uleb128 0x3b
 3168 0210 05       		.uleb128 0x5
 3169 0211 00       		.byte	0
 3170 0212 00       		.byte	0
 3171 0213 27       		.uleb128 0x27
 3172 0214 898201   		.uleb128 0x4109
 3173 0217 01       		.byte	0x1
 3174 0218 11       		.uleb128 0x11
 3175 0219 01       		.uleb128 0x1
 3176 021a 01       		.uleb128 0x1
 3177 021b 13       		.uleb128 0x13
 3178 021c 00       		.byte	0
 3179 021d 00       		.byte	0
 3180 021e 28       		.uleb128 0x28
 3181 021f 34       		.uleb128 0x34
 3182 0220 00       		.byte	0
 3183 0221 03       		.uleb128 0x3
 3184 0222 0E       		.uleb128 0xe
 3185 0223 3A       		.uleb128 0x3a
 3186 0224 0B       		.uleb128 0xb
 3187 0225 3B       		.uleb128 0x3b
ARM GAS  /var/folders/5n/p_75w94d66l9ssrldxqdhh700000gn/T//cc4U8Rle.s 			page 57


 3188 0226 0B       		.uleb128 0xb
 3189 0227 49       		.uleb128 0x49
 3190 0228 13       		.uleb128 0x13
 3191 0229 02       		.uleb128 0x2
 3192 022a 0A       		.uleb128 0xa
 3193 022b 00       		.byte	0
 3194 022c 00       		.byte	0
 3195 022d 29       		.uleb128 0x29
 3196 022e 34       		.uleb128 0x34
 3197 022f 00       		.byte	0
 3198 0230 03       		.uleb128 0x3
 3199 0231 0E       		.uleb128 0xe
 3200 0232 3A       		.uleb128 0x3a
 3201 0233 0B       		.uleb128 0xb
 3202 0234 3B       		.uleb128 0x3b
 3203 0235 05       		.uleb128 0x5
 3204 0236 49       		.uleb128 0x49
 3205 0237 13       		.uleb128 0x13
 3206 0238 3F       		.uleb128 0x3f
 3207 0239 0C       		.uleb128 0xc
 3208 023a 3C       		.uleb128 0x3c
 3209 023b 0C       		.uleb128 0xc
 3210 023c 00       		.byte	0
 3211 023d 00       		.byte	0
 3212 023e 2A       		.uleb128 0x2a
 3213 023f 2E       		.uleb128 0x2e
 3214 0240 01       		.byte	0x1
 3215 0241 3F       		.uleb128 0x3f
 3216 0242 0C       		.uleb128 0xc
 3217 0243 03       		.uleb128 0x3
 3218 0244 0E       		.uleb128 0xe
 3219 0245 3A       		.uleb128 0x3a
 3220 0246 0B       		.uleb128 0xb
 3221 0247 3B       		.uleb128 0x3b
 3222 0248 0B       		.uleb128 0xb
 3223 0249 27       		.uleb128 0x27
 3224 024a 0C       		.uleb128 0xc
 3225 024b 49       		.uleb128 0x49
 3226 024c 13       		.uleb128 0x13
 3227 024d 3C       		.uleb128 0x3c
 3228 024e 0C       		.uleb128 0xc
 3229 024f 01       		.uleb128 0x1
 3230 0250 13       		.uleb128 0x13
 3231 0251 00       		.byte	0
 3232 0252 00       		.byte	0
 3233 0253 2B       		.uleb128 0x2b
 3234 0254 2E       		.uleb128 0x2e
 3235 0255 00       		.byte	0
 3236 0256 3F       		.uleb128 0x3f
 3237 0257 0C       		.uleb128 0xc
 3238 0258 03       		.uleb128 0x3
 3239 0259 0E       		.uleb128 0xe
 3240 025a 3A       		.uleb128 0x3a
 3241 025b 0B       		.uleb128 0xb
 3242 025c 3B       		.uleb128 0x3b
 3243 025d 05       		.uleb128 0x5
 3244 025e 27       		.uleb128 0x27
ARM GAS  /var/folders/5n/p_75w94d66l9ssrldxqdhh700000gn/T//cc4U8Rle.s 			page 58


 3245 025f 0C       		.uleb128 0xc
 3246 0260 3C       		.uleb128 0x3c
 3247 0261 0C       		.uleb128 0xc
 3248 0262 00       		.byte	0
 3249 0263 00       		.byte	0
 3250 0264 2C       		.uleb128 0x2c
 3251 0265 2E       		.uleb128 0x2e
 3252 0266 00       		.byte	0
 3253 0267 3F       		.uleb128 0x3f
 3254 0268 0C       		.uleb128 0xc
 3255 0269 03       		.uleb128 0x3
 3256 026a 0E       		.uleb128 0xe
 3257 026b 3A       		.uleb128 0x3a
 3258 026c 0B       		.uleb128 0xb
 3259 026d 3B       		.uleb128 0x3b
 3260 026e 0B       		.uleb128 0xb
 3261 026f 27       		.uleb128 0x27
 3262 0270 0C       		.uleb128 0xc
 3263 0271 3C       		.uleb128 0x3c
 3264 0272 0C       		.uleb128 0xc
 3265 0273 00       		.byte	0
 3266 0274 00       		.byte	0
 3267 0275 2D       		.uleb128 0x2d
 3268 0276 2E       		.uleb128 0x2e
 3269 0277 01       		.byte	0x1
 3270 0278 3F       		.uleb128 0x3f
 3271 0279 0C       		.uleb128 0xc
 3272 027a 03       		.uleb128 0x3
 3273 027b 0E       		.uleb128 0xe
 3274 027c 3A       		.uleb128 0x3a
 3275 027d 0B       		.uleb128 0xb
 3276 027e 3B       		.uleb128 0x3b
 3277 027f 0B       		.uleb128 0xb
 3278 0280 27       		.uleb128 0x27
 3279 0281 0C       		.uleb128 0xc
 3280 0282 3C       		.uleb128 0x3c
 3281 0283 0C       		.uleb128 0xc
 3282 0284 01       		.uleb128 0x1
 3283 0285 13       		.uleb128 0x13
 3284 0286 00       		.byte	0
 3285 0287 00       		.byte	0
 3286 0288 2E       		.uleb128 0x2e
 3287 0289 2E       		.uleb128 0x2e
 3288 028a 01       		.byte	0x1
 3289 028b 3F       		.uleb128 0x3f
 3290 028c 0C       		.uleb128 0xc
 3291 028d 03       		.uleb128 0x3
 3292 028e 0E       		.uleb128 0xe
 3293 028f 3A       		.uleb128 0x3a
 3294 0290 0B       		.uleb128 0xb
 3295 0291 3B       		.uleb128 0x3b
 3296 0292 0B       		.uleb128 0xb
 3297 0293 27       		.uleb128 0x27
 3298 0294 0C       		.uleb128 0xc
 3299 0295 49       		.uleb128 0x49
 3300 0296 13       		.uleb128 0x13
 3301 0297 3C       		.uleb128 0x3c
ARM GAS  /var/folders/5n/p_75w94d66l9ssrldxqdhh700000gn/T//cc4U8Rle.s 			page 59


 3302 0298 0C       		.uleb128 0xc
 3303 0299 00       		.byte	0
 3304 029a 00       		.byte	0
 3305 029b 00       		.byte	0
 3306              		.section	.debug_loc,"",%progbits
 3307              	.Ldebug_loc0:
 3308              	.LLST0:
 3309 0000 00000000 		.4byte	.LFB12
 3310 0004 02000000 		.4byte	.LCFI0
 3311 0008 0200     		.2byte	0x2
 3312 000a 7D       		.byte	0x7d
 3313 000b 00       		.sleb128 0
 3314 000c 02000000 		.4byte	.LCFI0
 3315 0010 58000000 		.4byte	.LFE12
 3316 0014 0200     		.2byte	0x2
 3317 0016 7D       		.byte	0x7d
 3318 0017 10       		.sleb128 16
 3319 0018 00000000 		.4byte	0
 3320 001c 00000000 		.4byte	0
 3321              	.LLST1:
 3322 0020 00000000 		.4byte	.LVL0
 3323 0024 06000000 		.4byte	.LVL1
 3324 0028 0100     		.2byte	0x1
 3325 002a 50       		.byte	0x50
 3326 002b 06000000 		.4byte	.LVL1
 3327 002f 28000000 		.4byte	.LVL3
 3328 0033 0100     		.2byte	0x1
 3329 0035 54       		.byte	0x54
 3330 0036 28000000 		.4byte	.LVL3
 3331 003a 4A000000 		.4byte	.LVL6
 3332 003e 0200     		.2byte	0x2
 3333 0040 70       		.byte	0x70
 3334 0041 04       		.sleb128 4
 3335 0042 4A000000 		.4byte	.LVL6
 3336 0046 58000000 		.4byte	.LFE12
 3337 004a 0100     		.2byte	0x1
 3338 004c 54       		.byte	0x54
 3339 004d 00000000 		.4byte	0
 3340 0051 00000000 		.4byte	0
 3341              	.LLST2:
 3342 0055 00000000 		.4byte	.LVL0
 3343 0059 0D000000 		.4byte	.LVL2-1
 3344 005d 0100     		.2byte	0x1
 3345 005f 51       		.byte	0x51
 3346 0060 0D000000 		.4byte	.LVL2-1
 3347 0064 58000000 		.4byte	.LFE12
 3348 0068 0100     		.2byte	0x1
 3349 006a 56       		.byte	0x56
 3350 006b 00000000 		.4byte	0
 3351 006f 00000000 		.4byte	0
 3352              	.LLST3:
 3353 0073 00000000 		.4byte	.LVL0
 3354 0077 0D000000 		.4byte	.LVL2-1
 3355 007b 0100     		.2byte	0x1
 3356 007d 52       		.byte	0x52
 3357 007e 0D000000 		.4byte	.LVL2-1
 3358 0082 58000000 		.4byte	.LFE12
ARM GAS  /var/folders/5n/p_75w94d66l9ssrldxqdhh700000gn/T//cc4U8Rle.s 			page 60


 3359 0086 0100     		.2byte	0x1
 3360 0088 55       		.byte	0x55
 3361 0089 00000000 		.4byte	0
 3362 008d 00000000 		.4byte	0
 3363              	.LLST4:
 3364 0091 0E000000 		.4byte	.LVL2
 3365 0095 51000000 		.4byte	.LVL7-1
 3366 0099 0100     		.2byte	0x1
 3367 009b 50       		.byte	0x50
 3368 009c 00000000 		.4byte	0
 3369 00a0 00000000 		.4byte	0
 3370              	.LLST5:
 3371 00a4 30000000 		.4byte	.LVL4
 3372 00a8 4A000000 		.4byte	.LVL6
 3373 00ac 0100     		.2byte	0x1
 3374 00ae 51       		.byte	0x51
 3375 00af 00000000 		.4byte	0
 3376 00b3 00000000 		.4byte	0
 3377              	.LLST6:
 3378 00b7 00000000 		.4byte	.LFB11
 3379 00bb 02000000 		.4byte	.LCFI1
 3380 00bf 0200     		.2byte	0x2
 3381 00c1 7D       		.byte	0x7d
 3382 00c2 00       		.sleb128 0
 3383 00c3 02000000 		.4byte	.LCFI1
 3384 00c7 2A000000 		.4byte	.LFE11
 3385 00cb 0200     		.2byte	0x2
 3386 00cd 7D       		.byte	0x7d
 3387 00ce 08       		.sleb128 8
 3388 00cf 00000000 		.4byte	0
 3389 00d3 00000000 		.4byte	0
 3390              	.LLST7:
 3391 00d7 00000000 		.4byte	.LFB10
 3392 00db 02000000 		.4byte	.LCFI2
 3393 00df 0200     		.2byte	0x2
 3394 00e1 7D       		.byte	0x7d
 3395 00e2 00       		.sleb128 0
 3396 00e3 02000000 		.4byte	.LCFI2
 3397 00e7 1C000000 		.4byte	.LFE10
 3398 00eb 0200     		.2byte	0x2
 3399 00ed 7D       		.byte	0x7d
 3400 00ee 08       		.sleb128 8
 3401 00ef 00000000 		.4byte	0
 3402 00f3 00000000 		.4byte	0
 3403              	.LLST8:
 3404 00f7 00000000 		.4byte	.LVL10
 3405 00fb 05000000 		.4byte	.LVL11-1
 3406 00ff 0100     		.2byte	0x1
 3407 0101 50       		.byte	0x50
 3408 0102 05000000 		.4byte	.LVL11-1
 3409 0106 1C000000 		.4byte	.LFE10
 3410 010a 0400     		.2byte	0x4
 3411 010c F3       		.byte	0xf3
 3412 010d 01       		.uleb128 0x1
 3413 010e 50       		.byte	0x50
 3414 010f 9F       		.byte	0x9f
 3415 0110 00000000 		.4byte	0
ARM GAS  /var/folders/5n/p_75w94d66l9ssrldxqdhh700000gn/T//cc4U8Rle.s 			page 61


 3416 0114 00000000 		.4byte	0
 3417              	.LLST9:
 3418 0118 00000000 		.4byte	.LFB9
 3419 011c 02000000 		.4byte	.LCFI3
 3420 0120 0200     		.2byte	0x2
 3421 0122 7D       		.byte	0x7d
 3422 0123 00       		.sleb128 0
 3423 0124 02000000 		.4byte	.LCFI3
 3424 0128 1C000000 		.4byte	.LFE9
 3425 012c 0200     		.2byte	0x2
 3426 012e 7D       		.byte	0x7d
 3427 012f 08       		.sleb128 8
 3428 0130 00000000 		.4byte	0
 3429 0134 00000000 		.4byte	0
 3430              	.LLST10:
 3431 0138 00000000 		.4byte	.LVL13
 3432 013c 05000000 		.4byte	.LVL14-1
 3433 0140 0100     		.2byte	0x1
 3434 0142 50       		.byte	0x50
 3435 0143 05000000 		.4byte	.LVL14-1
 3436 0147 1C000000 		.4byte	.LFE9
 3437 014b 0400     		.2byte	0x4
 3438 014d F3       		.byte	0xf3
 3439 014e 01       		.uleb128 0x1
 3440 014f 50       		.byte	0x50
 3441 0150 9F       		.byte	0x9f
 3442 0151 00000000 		.4byte	0
 3443 0155 00000000 		.4byte	0
 3444              	.LLST11:
 3445 0159 00000000 		.4byte	.LFB7
 3446 015d 02000000 		.4byte	.LCFI4
 3447 0161 0200     		.2byte	0x2
 3448 0163 7D       		.byte	0x7d
 3449 0164 00       		.sleb128 0
 3450 0165 02000000 		.4byte	.LCFI4
 3451 0169 38000000 		.4byte	.LFE7
 3452 016d 0200     		.2byte	0x2
 3453 016f 7D       		.byte	0x7d
 3454 0170 08       		.sleb128 8
 3455 0171 00000000 		.4byte	0
 3456 0175 00000000 		.4byte	0
 3457              	.LLST12:
 3458 0179 00000000 		.4byte	.LVL17
 3459 017d 05000000 		.4byte	.LVL18-1
 3460 0181 0100     		.2byte	0x1
 3461 0183 50       		.byte	0x50
 3462 0184 05000000 		.4byte	.LVL18-1
 3463 0188 38000000 		.4byte	.LFE7
 3464 018c 0400     		.2byte	0x4
 3465 018e F3       		.byte	0xf3
 3466 018f 01       		.uleb128 0x1
 3467 0190 50       		.byte	0x50
 3468 0191 9F       		.byte	0x9f
 3469 0192 00000000 		.4byte	0
 3470 0196 00000000 		.4byte	0
 3471              	.LLST13:
 3472 019a 00000000 		.4byte	.LFB13
ARM GAS  /var/folders/5n/p_75w94d66l9ssrldxqdhh700000gn/T//cc4U8Rle.s 			page 62


 3473 019e 02000000 		.4byte	.LCFI5
 3474 01a2 0200     		.2byte	0x2
 3475 01a4 7D       		.byte	0x7d
 3476 01a5 00       		.sleb128 0
 3477 01a6 02000000 		.4byte	.LCFI5
 3478 01aa 48000000 		.4byte	.LFE13
 3479 01ae 0200     		.2byte	0x2
 3480 01b0 7D       		.byte	0x7d
 3481 01b1 08       		.sleb128 8
 3482 01b2 00000000 		.4byte	0
 3483 01b6 00000000 		.4byte	0
 3484              	.LLST14:
 3485 01ba 00000000 		.4byte	.LVL20
 3486 01be 2C000000 		.4byte	.LVL24
 3487 01c2 0100     		.2byte	0x1
 3488 01c4 50       		.byte	0x50
 3489 01c5 2C000000 		.4byte	.LVL24
 3490 01c9 3C000000 		.4byte	.LVL26
 3491 01cd 0400     		.2byte	0x4
 3492 01cf F3       		.byte	0xf3
 3493 01d0 01       		.uleb128 0x1
 3494 01d1 50       		.byte	0x50
 3495 01d2 9F       		.byte	0x9f
 3496 01d3 3C000000 		.4byte	.LVL26
 3497 01d7 48000000 		.4byte	.LFE13
 3498 01db 0100     		.2byte	0x1
 3499 01dd 50       		.byte	0x50
 3500 01de 00000000 		.4byte	0
 3501 01e2 00000000 		.4byte	0
 3502              	.LLST15:
 3503 01e6 00000000 		.4byte	.LVL20
 3504 01ea 2E000000 		.4byte	.LVL25
 3505 01ee 0100     		.2byte	0x1
 3506 01f0 51       		.byte	0x51
 3507 01f1 2E000000 		.4byte	.LVL25
 3508 01f5 3C000000 		.4byte	.LVL26
 3509 01f9 0400     		.2byte	0x4
 3510 01fb F3       		.byte	0xf3
 3511 01fc 01       		.uleb128 0x1
 3512 01fd 51       		.byte	0x51
 3513 01fe 9F       		.byte	0x9f
 3514 01ff 3C000000 		.4byte	.LVL26
 3515 0203 48000000 		.4byte	.LFE13
 3516 0207 0100     		.2byte	0x1
 3517 0209 51       		.byte	0x51
 3518 020a 00000000 		.4byte	0
 3519 020e 00000000 		.4byte	0
 3520              	.LLST16:
 3521 0212 0C000000 		.4byte	.LVL21
 3522 0216 3B000000 		.4byte	.LVL26-1
 3523 021a 0100     		.2byte	0x1
 3524 021c 53       		.byte	0x53
 3525 021d 40000000 		.4byte	.LVL27
 3526 0221 48000000 		.4byte	.LFE13
 3527 0225 0100     		.2byte	0x1
 3528 0227 53       		.byte	0x53
 3529 0228 00000000 		.4byte	0
ARM GAS  /var/folders/5n/p_75w94d66l9ssrldxqdhh700000gn/T//cc4U8Rle.s 			page 63


 3530 022c 00000000 		.4byte	0
 3531              	.LLST17:
 3532 0230 0E000000 		.4byte	.LVL22
 3533 0234 14000000 		.4byte	.LVL23
 3534 0238 0100     		.2byte	0x1
 3535 023a 52       		.byte	0x52
 3536 023b 00000000 		.4byte	0
 3537 023f 00000000 		.4byte	0
 3538              	.LLST18:
 3539 0243 00000000 		.4byte	.LFB14
 3540 0247 04000000 		.4byte	.LCFI6
 3541 024b 0200     		.2byte	0x2
 3542 024d 7D       		.byte	0x7d
 3543 024e 00       		.sleb128 0
 3544 024f 04000000 		.4byte	.LCFI6
 3545 0253 70000000 		.4byte	.LFE14
 3546 0257 0200     		.2byte	0x2
 3547 0259 7D       		.byte	0x7d
 3548 025a 20       		.sleb128 32
 3549 025b 00000000 		.4byte	0
 3550 025f 00000000 		.4byte	0
 3551              	.LLST19:
 3552 0263 00000000 		.4byte	.LVL28
 3553 0267 0E000000 		.4byte	.LVL29
 3554 026b 0100     		.2byte	0x1
 3555 026d 50       		.byte	0x50
 3556 026e 0E000000 		.4byte	.LVL29
 3557 0272 70000000 		.4byte	.LFE14
 3558 0276 0100     		.2byte	0x1
 3559 0278 57       		.byte	0x57
 3560 0279 00000000 		.4byte	0
 3561 027d 00000000 		.4byte	0
 3562              	.LLST20:
 3563 0281 00000000 		.4byte	.LVL28
 3564 0285 0E000000 		.4byte	.LVL29
 3565 0289 0100     		.2byte	0x1
 3566 028b 51       		.byte	0x51
 3567 028c 0E000000 		.4byte	.LVL29
 3568 0290 70000000 		.4byte	.LFE14
 3569 0294 0100     		.2byte	0x1
 3570 0296 56       		.byte	0x56
 3571 0297 00000000 		.4byte	0
 3572 029b 00000000 		.4byte	0
 3573              	.LLST21:
 3574 029f 34000000 		.4byte	.LVL34
 3575 02a3 3E000000 		.4byte	.LVL35
 3576 02a7 0100     		.2byte	0x1
 3577 02a9 50       		.byte	0x50
 3578 02aa 56000000 		.4byte	.LVL38
 3579 02ae 70000000 		.4byte	.LFE14
 3580 02b2 0100     		.2byte	0x1
 3581 02b4 50       		.byte	0x50
 3582 02b5 00000000 		.4byte	0
 3583 02b9 00000000 		.4byte	0
 3584              	.LLST22:
 3585 02bd 0E000000 		.4byte	.LVL29
 3586 02c1 1F000000 		.4byte	.LVL32-1
ARM GAS  /var/folders/5n/p_75w94d66l9ssrldxqdhh700000gn/T//cc4U8Rle.s 			page 64


 3587 02c5 0100     		.2byte	0x1
 3588 02c7 53       		.byte	0x53
 3589 02c8 00000000 		.4byte	0
 3590 02cc 00000000 		.4byte	0
 3591              	.LLST23:
 3592 02d0 10000000 		.4byte	.LVL30
 3593 02d4 22000000 		.4byte	.LVL33
 3594 02d8 0100     		.2byte	0x1
 3595 02da 55       		.byte	0x55
 3596 02db 3E000000 		.4byte	.LVL35
 3597 02df 48000000 		.4byte	.LVL37
 3598 02e3 0100     		.2byte	0x1
 3599 02e5 55       		.byte	0x55
 3600 02e6 00000000 		.4byte	0
 3601 02ea 00000000 		.4byte	0
 3602              	.LLST24:
 3603 02ee 16000000 		.4byte	.LVL31
 3604 02f2 22000000 		.4byte	.LVL33
 3605 02f6 0100     		.2byte	0x1
 3606 02f8 59       		.byte	0x59
 3607 02f9 3E000000 		.4byte	.LVL35
 3608 02fd 48000000 		.4byte	.LVL37
 3609 0301 0100     		.2byte	0x1
 3610 0303 59       		.byte	0x59
 3611 0304 00000000 		.4byte	0
 3612 0308 00000000 		.4byte	0
 3613              		.section	.debug_aranges,"",%progbits
 3614 0000 54000000 		.4byte	0x54
 3615 0004 0200     		.2byte	0x2
 3616 0006 00000000 		.4byte	.Ldebug_info0
 3617 000a 04       		.byte	0x4
 3618 000b 00       		.byte	0
 3619 000c 0000     		.2byte	0
 3620 000e 0000     		.2byte	0
 3621 0010 00000000 		.4byte	.LFB12
 3622 0014 58000000 		.4byte	.LFE12-.LFB12
 3623 0018 00000000 		.4byte	.LFB11
 3624 001c 2A000000 		.4byte	.LFE11-.LFB11
 3625 0020 00000000 		.4byte	.LFB10
 3626 0024 1C000000 		.4byte	.LFE10-.LFB10
 3627 0028 00000000 		.4byte	.LFB9
 3628 002c 1C000000 		.4byte	.LFE9-.LFB9
 3629 0030 00000000 		.4byte	.LFB8
 3630 0034 34000000 		.4byte	.LFE8-.LFB8
 3631 0038 00000000 		.4byte	.LFB7
 3632 003c 38000000 		.4byte	.LFE7-.LFB7
 3633 0040 00000000 		.4byte	.LFB13
 3634 0044 48000000 		.4byte	.LFE13-.LFB13
 3635 0048 00000000 		.4byte	.LFB14
 3636 004c 70000000 		.4byte	.LFE14-.LFB14
 3637 0050 00000000 		.4byte	0
 3638 0054 00000000 		.4byte	0
 3639              		.section	.debug_ranges,"",%progbits
 3640              	.Ldebug_ranges0:
 3641 0000 00000000 		.4byte	.LFB12
 3642 0004 58000000 		.4byte	.LFE12
 3643 0008 00000000 		.4byte	.LFB11
ARM GAS  /var/folders/5n/p_75w94d66l9ssrldxqdhh700000gn/T//cc4U8Rle.s 			page 65


 3644 000c 2A000000 		.4byte	.LFE11
 3645 0010 00000000 		.4byte	.LFB10
 3646 0014 1C000000 		.4byte	.LFE10
 3647 0018 00000000 		.4byte	.LFB9
 3648 001c 1C000000 		.4byte	.LFE9
 3649 0020 00000000 		.4byte	.LFB8
 3650 0024 34000000 		.4byte	.LFE8
 3651 0028 00000000 		.4byte	.LFB7
 3652 002c 38000000 		.4byte	.LFE7
 3653 0030 00000000 		.4byte	.LFB13
 3654 0034 48000000 		.4byte	.LFE13
 3655 0038 00000000 		.4byte	.LFB14
 3656 003c 70000000 		.4byte	.LFE14
 3657 0040 00000000 		.4byte	0
 3658 0044 00000000 		.4byte	0
 3659              		.section	.debug_line,"",%progbits
 3660              	.Ldebug_line0:
 3661 0000 70030000 		.section	.debug_str,"MS",%progbits,1
 3661      02004802 
 3661      00000201 
 3661      FB0E0D00 
 3661      01010101 
 3662              	.LASF184:
 3663 0000 70726576 		.ascii	"prev_t\000"
 3663      5F7400
 3664              	.LASF188:
 3665 0007 746D7074 		.ascii	"tmptimeout\000"
 3665      696D656F 
 3665      757400
 3666              	.LASF43:
 3667 0012 54687265 		.ascii	"ThreadsList\000"
 3667      6164734C 
 3667      69737400 
 3668              	.LASF35:
 3669 001e 705F7761 		.ascii	"p_waiting\000"
 3669      6974696E 
 3669      6700
 3670              	.LASF73:
 3671 0028 7379735F 		.ascii	"sys_mbox_t\000"
 3671      6D626F78 
 3671      5F7400
 3672              	.LASF161:
 3673 0033 4D454D50 		.ascii	"MEMP_TCP_PCB_LISTEN\000"
 3673      5F544350 
 3673      5F504342 
 3673      5F4C4953 
 3673      54454E00 
 3674              	.LASF34:
 3675 0047 705F7469 		.ascii	"p_time\000"
 3675      6D6500
 3676              	.LASF90:
 3677 004e 736F5F6F 		.ascii	"so_options\000"
 3677      7074696F 
 3677      6E7300
 3678              	.LASF44:
 3679 0059 72656761 		.ascii	"regarm_t\000"
 3679      726D5F74 
ARM GAS  /var/folders/5n/p_75w94d66l9ssrldxqdhh700000gn/T//cc4U8Rle.s 			page 66


 3679      00
 3680              	.LASF26:
 3681 0062 705F7072 		.ascii	"p_prio\000"
 3681      696F00
 3682              	.LASF203:
 3683 0069 61676169 		.ascii	"again\000"
 3683      6E00
 3684              	.LASF74:
 3685 006f 7379735F 		.ascii	"sys_timeout_handler\000"
 3685      74696D65 
 3685      6F75745F 
 3685      68616E64 
 3685      6C657200 
 3686              	.LASF157:
 3687 0083 75726770 		.ascii	"urgp\000"
 3687      00
 3688              	.LASF101:
 3689 0088 706F6C6C 		.ascii	"polltmr\000"
 3689      746D7200 
 3690              	.LASF86:
 3691 0090 7463705F 		.ascii	"tcp_accept_fn\000"
 3691      61636365 
 3691      70745F66 
 3691      6E00
 3692              	.LASF82:
 3693 009e 666C6167 		.ascii	"flags\000"
 3693      7300
 3694              	.LASF21:
 3695 00a4 73797374 		.ascii	"systime_t\000"
 3695      696D655F 
 3695      7400
 3696              	.LASF53:
 3697 00ae 6D5F6F77 		.ascii	"m_owner\000"
 3697      6E657200 
 3698              	.LASF49:
 3699 00b6 735F7175 		.ascii	"s_queue\000"
 3699      65756500 
 3700              	.LASF36:
 3701 00be 705F6D73 		.ascii	"p_msgqueue\000"
 3701      67717565 
 3701      756500
 3702              	.LASF0:
 3703 00c9 756E7369 		.ascii	"unsigned int\000"
 3703      676E6564 
 3703      20696E74 
 3703      00
 3704              	.LASF137:
 3705 00d6 7463705F 		.ascii	"tcp_connected_fn\000"
 3705      636F6E6E 
 3705      65637465 
 3705      645F666E 
 3705      00
 3706              	.LASF76:
 3707 00e7 6E657874 		.ascii	"next\000"
 3707      00
 3708              	.LASF183:
 3709 00ec 7379735F 		.ascii	"sys_untimeout\000"
ARM GAS  /var/folders/5n/p_75w94d66l9ssrldxqdhh700000gn/T//cc4U8Rle.s 			page 67


 3709      756E7469 
 3709      6D656F75 
 3709      7400
 3710              	.LASF72:
 3711 00fa 6572725F 		.ascii	"err_t\000"
 3711      7400
 3712              	.LASF190:
 3713 0100 74637069 		.ascii	"tcpip_tcp_timer_active\000"
 3713      705F7463 
 3713      705F7469 
 3713      6D65725F 
 3713      61637469 
 3714              	.LASF69:
 3715 0117 7531365F 		.ascii	"u16_t\000"
 3715      7400
 3716              	.LASF187:
 3717 011d 74696D65 		.ascii	"time_needed\000"
 3717      5F6E6565 
 3717      64656400 
 3718              	.LASF64:
 3719 0129 77746F62 		.ascii	"wtobjp\000"
 3719      6A7000
 3720              	.LASF175:
 3721 0130 68616E64 		.ascii	"handler\000"
 3721      6C657200 
 3722              	.LASF100:
 3723 0138 7263765F 		.ascii	"rcv_ann_right_edge\000"
 3723      616E6E5F 
 3723      72696768 
 3723      745F6564 
 3723      676500
 3724              	.LASF65:
 3725 014b 65776D61 		.ascii	"ewmask\000"
 3725      736B00
 3726              	.LASF132:
 3727 0152 6B656570 		.ascii	"keep_cnt_sent\000"
 3727      5F636E74 
 3727      5F73656E 
 3727      7400
 3728              	.LASF61:
 3729 0160 4D61696C 		.ascii	"Mailbox\000"
 3729      626F7800 
 3730              	.LASF134:
 3731 0168 7463705F 		.ascii	"tcp_sent_fn\000"
 3731      73656E74 
 3731      5F666E00 
 3732              	.LASF50:
 3733 0174 735F636E 		.ascii	"s_cnt\000"
 3733      7400
 3734              	.LASF196:
 3735 017a 7463705F 		.ascii	"tcp_tmr\000"
 3735      746D7200 
 3736              	.LASF153:
 3737 0182 7365716E 		.ascii	"seqno\000"
 3737      6F00
 3738              	.LASF11:
 3739 0188 75696E74 		.ascii	"uint32_t\000"
ARM GAS  /var/folders/5n/p_75w94d66l9ssrldxqdhh700000gn/T//cc4U8Rle.s 			page 68


 3739      33325F74 
 3739      00
 3740              	.LASF2:
 3741 0191 696E7438 		.ascii	"int8_t\000"
 3741      5F7400
 3742              	.LASF109:
 3743 0198 63776E64 		.ascii	"cwnd\000"
 3743      00
 3744              	.LASF20:
 3745 019d 6576656E 		.ascii	"eventmask_t\000"
 3745      746D6173 
 3745      6B5F7400 
 3746              	.LASF199:
 3747 01a9 474E5520 		.ascii	"GNU C 4.7.2\000"
 3747      4320342E 
 3747      372E3200 
 3748              	.LASF167:
 3749 01b5 4D454D50 		.ascii	"MEMP_TCPIP_MSG_API\000"
 3749      5F544350 
 3749      49505F4D 
 3749      53475F41 
 3749      504900
 3750              	.LASF95:
 3751 01c8 6C6F6361 		.ascii	"local_port\000"
 3751      6C5F706F 
 3751      727400
 3752              	.LASF18:
 3753 01d3 74707269 		.ascii	"tprio_t\000"
 3753      6F5F7400 
 3754              	.LASF5:
 3755 01db 696E7431 		.ascii	"int16_t\000"
 3755      365F7400 
 3756              	.LASF149:
 3757 01e3 7463705F 		.ascii	"tcp_seg\000"
 3757      73656700 
 3758              	.LASF14:
 3759 01eb 6C6F6E67 		.ascii	"long long unsigned int\000"
 3759      206C6F6E 
 3759      6720756E 
 3759      7369676E 
 3759      65642069 
 3760              	.LASF22:
 3761 0202 636E745F 		.ascii	"cnt_t\000"
 3761      7400
 3762              	.LASF103:
 3763 0208 7274696D 		.ascii	"rtime\000"
 3763      6500
 3764              	.LASF77:
 3765 020e 74696D65 		.ascii	"time\000"
 3765      00
 3766              	.LASF28:
 3767 0213 705F6E65 		.ascii	"p_newer\000"
 3767      77657200 
 3768              	.LASF97:
 3769 021b 7263765F 		.ascii	"rcv_nxt\000"
 3769      6E787400 
 3770              	.LASF168:
ARM GAS  /var/folders/5n/p_75w94d66l9ssrldxqdhh700000gn/T//cc4U8Rle.s 			page 69


 3771 0223 4D454D50 		.ascii	"MEMP_TCPIP_MSG_INPKT\000"
 3771      5F544350 
 3771      49505F4D 
 3771      53475F49 
 3771      4E504B54 
 3772              	.LASF197:
 3773 0238 6D656D70 		.ascii	"memp_free\000"
 3773      5F667265 
 3773      6500
 3774              	.LASF121:
 3775 0242 756E6163 		.ascii	"unacked\000"
 3775      6B656400 
 3776              	.LASF200:
 3777 024a 2E2E2F2E 		.ascii	"../../ext/lwip-1.4.0/src/core/timers.c\000"
 3777      2E2F6578 
 3777      742F6C77 
 3777      69702D31 
 3777      2E342E30 
 3778              	.LASF185:
 3779 0271 7379735F 		.ascii	"sys_timeouts_mbox_fetch\000"
 3779      74696D65 
 3779      6F757473 
 3779      5F6D626F 
 3779      785F6665 
 3780              	.LASF147:
 3781 0289 4C415354 		.ascii	"LAST_ACK\000"
 3781      5F41434B 
 3781      00
 3782              	.LASF80:
 3783 0292 746F745F 		.ascii	"tot_len\000"
 3783      6C656E00 
 3784              	.LASF62:
 3785 029a 7264796D 		.ascii	"rdymsg\000"
 3785      736700
 3786              	.LASF79:
 3787 02a1 7061796C 		.ascii	"payload\000"
 3787      6F616400 
 3788              	.LASF179:
 3789 02a9 6172705F 		.ascii	"arp_timer\000"
 3789      74696D65 
 3789      7200
 3790              	.LASF195:
 3791 02b3 69705F72 		.ascii	"ip_reass_tmr\000"
 3791      65617373 
 3791      5F746D72 
 3791      00
 3792              	.LASF126:
 3793 02c0 636F6E6E 		.ascii	"connected\000"
 3793      65637465 
 3793      6400
 3794              	.LASF78:
 3795 02ca 70627566 		.ascii	"pbuf\000"
 3795      00
 3796              	.LASF58:
 3797 02cf 6D625F72 		.ascii	"mb_rdptr\000"
 3797      64707472 
 3797      00
ARM GAS  /var/folders/5n/p_75w94d66l9ssrldxqdhh700000gn/T//cc4U8Rle.s 			page 70


 3798              	.LASF146:
 3799 02d8 434C4F53 		.ascii	"CLOSING\000"
 3799      494E4700 
 3800              	.LASF107:
 3801 02e0 6C617374 		.ascii	"lastack\000"
 3801      61636B00 
 3802              	.LASF172:
 3803 02e8 4D454D50 		.ascii	"MEMP_MAX\000"
 3803      5F4D4158 
 3803      00
 3804              	.LASF68:
 3805 02f1 73385F74 		.ascii	"s8_t\000"
 3805      00
 3806              	.LASF194:
 3807 02f6 65746861 		.ascii	"etharp_tmr\000"
 3807      72705F74 
 3807      6D7200
 3808              	.LASF51:
 3809 0301 4D757465 		.ascii	"Mutex\000"
 3809      7800
 3810              	.LASF60:
 3811 0307 6D625F65 		.ascii	"mb_emptysem\000"
 3811      6D707479 
 3811      73656D00 
 3812              	.LASF166:
 3813 0313 4D454D50 		.ascii	"MEMP_NETCONN\000"
 3813      5F4E4554 
 3813      434F4E4E 
 3813      00
 3814              	.LASF105:
 3815 0320 72747365 		.ascii	"rtseq\000"
 3815      7100
 3816              	.LASF30:
 3817 0326 705F6E61 		.ascii	"p_name\000"
 3817      6D6500
 3818              	.LASF108:
 3819 032d 64757061 		.ascii	"dupacks\000"
 3819      636B7300 
 3820              	.LASF92:
 3821 0335 7072696F 		.ascii	"prio\000"
 3821      00
 3822              	.LASF94:
 3823 033a 61636365 		.ascii	"accept\000"
 3823      707400
 3824              	.LASF170:
 3825 0341 4D454D50 		.ascii	"MEMP_PBUF\000"
 3825      5F504255 
 3825      4600
 3826              	.LASF127:
 3827 034b 706F6C6C 		.ascii	"poll\000"
 3827      00
 3828              	.LASF42:
 3829 0350 54687265 		.ascii	"ThreadsQueue\000"
 3829      61647351 
 3829      75657565 
 3829      00
 3830              	.LASF66:
ARM GAS  /var/folders/5n/p_75w94d66l9ssrldxqdhh700000gn/T//cc4U8Rle.s 			page 71


 3831 035d 63686172 		.ascii	"char\000"
 3831      00
 3832              	.LASF177:
 3833 0362 7379735F 		.ascii	"sys_timeout\000"
 3833      74696D65 
 3833      6F757400 
 3834              	.LASF116:
 3835 036e 61636B65 		.ascii	"acked\000"
 3835      6400
 3836              	.LASF145:
 3837 0374 434C4F53 		.ascii	"CLOSE_WAIT\000"
 3837      455F5741 
 3837      495400
 3838              	.LASF23:
 3839 037f 54687265 		.ascii	"Thread\000"
 3839      616400
 3840              	.LASF16:
 3841 0386 74737461 		.ascii	"tstate_t\000"
 3841      74655F74 
 3841      00
 3842              	.LASF29:
 3843 038f 705F6F6C 		.ascii	"p_older\000"
 3843      64657200 
 3844              	.LASF31:
 3845 0397 705F7374 		.ascii	"p_state\000"
 3845      61746500 
 3846              	.LASF124:
 3847 039f 73656E74 		.ascii	"sent\000"
 3847      00
 3848              	.LASF3:
 3849 03a4 75696E74 		.ascii	"uint8_t\000"
 3849      385F7400 
 3850              	.LASF59:
 3851 03ac 6D625F66 		.ascii	"mb_fullsem\000"
 3851      756C6C73 
 3851      656D00
 3852              	.LASF113:
 3853 03b7 736E645F 		.ascii	"snd_wl1\000"
 3853      776C3100 
 3854              	.LASF114:
 3855 03bf 736E645F 		.ascii	"snd_wl2\000"
 3855      776C3200 
 3856              	.LASF41:
 3857 03c7 705F6D70 		.ascii	"p_mpool\000"
 3857      6F6F6C00 
 3858              	.LASF39:
 3859 03cf 705F6D74 		.ascii	"p_mtxlist\000"
 3859      786C6973 
 3859      7400
 3860              	.LASF136:
 3861 03d9 7463705F 		.ascii	"tcp_err_fn\000"
 3861      6572725F 
 3861      666E00
 3862              	.LASF115:
 3863 03e4 736E645F 		.ascii	"snd_lbb\000"
 3863      6C626200 
 3864              	.LASF204:
ARM GAS  /var/folders/5n/p_75w94d66l9ssrldxqdhh700000gn/T//cc4U8Rle.s 			page 72


 3865 03ec 6D656D70 		.ascii	"memp_malloc\000"
 3865      5F6D616C 
 3865      6C6F6300 
 3866              	.LASF165:
 3867 03f8 4D454D50 		.ascii	"MEMP_NETBUF\000"
 3867      5F4E4554 
 3867      42554600 
 3868              	.LASF13:
 3869 0404 6C6F6E67 		.ascii	"long long int\000"
 3869      206C6F6E 
 3869      6720696E 
 3869      7400
 3870              	.LASF198:
 3871 0412 7379735F 		.ascii	"sys_arch_mbox_fetch\000"
 3871      61726368 
 3871      5F6D626F 
 3871      785F6665 
 3871      74636800 
 3872              	.LASF154:
 3873 0426 61636B6E 		.ascii	"ackno\000"
 3873      6F00
 3874              	.LASF131:
 3875 042c 70657273 		.ascii	"persist_backoff\000"
 3875      6973745F 
 3875      6261636B 
 3875      6F666600 
 3876              	.LASF19:
 3877 043c 6D73675F 		.ascii	"msg_t\000"
 3877      7400
 3878              	.LASF148:
 3879 0442 54494D45 		.ascii	"TIME_WAIT\000"
 3879      5F574149 
 3879      5400
 3880              	.LASF46:
 3881 044c 636F6E74 		.ascii	"context\000"
 3881      65787400 
 3882              	.LASF67:
 3883 0454 75385F74 		.ascii	"u8_t\000"
 3883      00
 3884              	.LASF201:
 3885 0459 2F557365 		.ascii	"/Users/sin/Documents/Eclipse/Workspace/ChibiOS_2.4."
 3885      72732F73 
 3885      696E2F44 
 3885      6F63756D 
 3885      656E7473 
 3886 048c 322F6465 		.ascii	"2/demos/ARMCM4-STM32F407-LWIP\000"
 3886      6D6F732F 
 3886      41524D43 
 3886      4D342D53 
 3886      544D3332 
 3887              	.LASF32:
 3888 04aa 705F666C 		.ascii	"p_flags\000"
 3888      61677300 
 3889              	.LASF181:
 3890 04b2 7463705F 		.ascii	"tcp_timer_needed\000"
 3890      74696D65 
 3890      725F6E65 
ARM GAS  /var/folders/5n/p_75w94d66l9ssrldxqdhh700000gn/T//cc4U8Rle.s 			page 73


 3890      65646564 
 3890      00
 3891              	.LASF96:
 3892 04c3 72656D6F 		.ascii	"remote_port\000"
 3892      74655F70 
 3892      6F727400 
 3893              	.LASF56:
 3894 04cf 6D625F74 		.ascii	"mb_top\000"
 3894      6F7000
 3895              	.LASF99:
 3896 04d6 7263765F 		.ascii	"rcv_ann_wnd\000"
 3896      616E6E5F 
 3896      776E6400 
 3897              	.LASF48:
 3898 04e2 53656D61 		.ascii	"Semaphore\000"
 3898      70686F72 
 3898      6500
 3899              	.LASF163:
 3900 04ec 4D454D50 		.ascii	"MEMP_REASSDATA\000"
 3900      5F524541 
 3900      53534441 
 3900      544100
 3901              	.LASF171:
 3902 04fb 4D454D50 		.ascii	"MEMP_PBUF_POOL\000"
 3902      5F504255 
 3902      465F504F 
 3902      4F4C00
 3903              	.LASF133:
 3904 050a 7463705F 		.ascii	"tcp_recv_fn\000"
 3904      72656376 
 3904      5F666E00 
 3905              	.LASF37:
 3906 0516 705F6D73 		.ascii	"p_msg\000"
 3906      6700
 3907              	.LASF15:
 3908 051c 746D6F64 		.ascii	"tmode_t\000"
 3908      655F7400 
 3909              	.LASF135:
 3910 0524 7463705F 		.ascii	"tcp_poll_fn\000"
 3910      706F6C6C 
 3910      5F666E00 
 3911              	.LASF7:
 3912 0530 75696E74 		.ascii	"uint16_t\000"
 3912      31365F74 
 3912      00
 3913              	.LASF128:
 3914 0539 65727266 		.ascii	"errf\000"
 3914      00
 3915              	.LASF45:
 3916 053e 696E7463 		.ascii	"intctx\000"
 3916      747800
 3917              	.LASF112:
 3918 0545 736E645F 		.ascii	"snd_wnd\000"
 3918      776E6400 
 3919              	.LASF176:
 3920 054d 74696D65 		.ascii	"timeout\000"
 3920      6F757400 
ARM GAS  /var/folders/5n/p_75w94d66l9ssrldxqdhh700000gn/T//cc4U8Rle.s 			page 74


 3921              	.LASF122:
 3922 0555 6F6F7365 		.ascii	"ooseq\000"
 3922      7100
 3923              	.LASF40:
 3924 055b 705F7265 		.ascii	"p_realprio\000"
 3924      616C7072 
 3924      696F00
 3925              	.LASF138:
 3926 0566 434C4F53 		.ascii	"CLOSED\000"
 3926      454400
 3927              	.LASF71:
 3928 056d 7533325F 		.ascii	"u32_t\000"
 3928      7400
 3929              	.LASF6:
 3930 0573 73686F72 		.ascii	"short int\000"
 3930      7420696E 
 3930      7400
 3931              	.LASF57:
 3932 057d 6D625F77 		.ascii	"mb_wrptr\000"
 3932      72707472 
 3932      00
 3933              	.LASF38:
 3934 0586 705F6570 		.ascii	"p_epending\000"
 3934      656E6469 
 3934      6E6700
 3935              	.LASF52:
 3936 0591 6D5F7175 		.ascii	"m_queue\000"
 3936      65756500 
 3937              	.LASF10:
 3938 0599 6C6F6E67 		.ascii	"long int\000"
 3938      20696E74 
 3938      00
 3939              	.LASF120:
 3940 05a2 756E7365 		.ascii	"unsent\000"
 3940      6E7400
 3941              	.LASF98:
 3942 05a9 7263765F 		.ascii	"rcv_wnd\000"
 3942      776E6400 
 3943              	.LASF104:
 3944 05b1 72747465 		.ascii	"rttest\000"
 3944      737400
 3945              	.LASF75:
 3946 05b8 7379735F 		.ascii	"sys_timeo\000"
 3946      74696D65 
 3946      6F00
 3947              	.LASF169:
 3948 05c2 4D454D50 		.ascii	"MEMP_SYS_TIMEOUT\000"
 3948      5F535953 
 3948      5F54494D 
 3948      454F5554 
 3948      00
 3949              	.LASF24:
 3950 05d3 705F6E65 		.ascii	"p_next\000"
 3950      787400
 3951              	.LASF159:
 3952 05da 4D454D50 		.ascii	"MEMP_UDP_PCB\000"
 3952      5F554450 
ARM GAS  /var/folders/5n/p_75w94d66l9ssrldxqdhh700000gn/T//cc4U8Rle.s 			page 75


 3952      5F504342 
 3952      00
 3953              	.LASF88:
 3954 05e7 6C6F6361 		.ascii	"local_ip\000"
 3954      6C5F6970 
 3954      00
 3955              	.LASF27:
 3956 05f0 705F6374 		.ascii	"p_ctx\000"
 3956      7800
 3957              	.LASF186:
 3958 05f6 6D626F78 		.ascii	"mbox\000"
 3958      00
 3959              	.LASF119:
 3960 05fb 756E7365 		.ascii	"unsent_oversize\000"
 3960      6E745F6F 
 3960      76657273 
 3960      697A6500 
 3961              	.LASF180:
 3962 060b 69705F72 		.ascii	"ip_reass_timer\000"
 3962      65617373 
 3962      5F74696D 
 3962      657200
 3963              	.LASF111:
 3964 061a 736E645F 		.ascii	"snd_nxt\000"
 3964      6E787400 
 3965              	.LASF142:
 3966 0622 45535441 		.ascii	"ESTABLISHED\000"
 3966      424C4953 
 3966      48454400 
 3967              	.LASF164:
 3968 062e 4D454D50 		.ascii	"MEMP_FRAG_PBUF\000"
 3968      5F465241 
 3968      475F5042 
 3968      554600
 3969              	.LASF110:
 3970 063d 73737468 		.ascii	"ssthresh\000"
 3970      72657368 
 3970      00
 3971              	.LASF117:
 3972 0646 736E645F 		.ascii	"snd_buf\000"
 3972      62756600 
 3973              	.LASF102:
 3974 064e 706F6C6C 		.ascii	"pollinterval\000"
 3974      696E7465 
 3974      7276616C 
 3974      00
 3975              	.LASF158:
 3976 065b 4D454D50 		.ascii	"MEMP_RAW_PCB\000"
 3976      5F524157 
 3976      5F504342 
 3976      00
 3977              	.LASF155:
 3978 0668 5F686472 		.ascii	"_hdrlen_rsvd_flags\000"
 3978      6C656E5F 
 3978      72737664 
 3978      5F666C61 
 3978      677300
ARM GAS  /var/folders/5n/p_75w94d66l9ssrldxqdhh700000gn/T//cc4U8Rle.s 			page 76


 3979              	.LASF25:
 3980 067b 705F7072 		.ascii	"p_prev\000"
 3980      657600
 3981              	.LASF47:
 3982 0682 73697A65 		.ascii	"sizetype\000"
 3982      74797065 
 3982      00
 3983              	.LASF17:
 3984 068b 74726566 		.ascii	"trefs_t\000"
 3984      735F7400 
 3985              	.LASF12:
 3986 0693 6C6F6E67 		.ascii	"long unsigned int\000"
 3986      20756E73 
 3986      69676E65 
 3986      6420696E 
 3986      7400
 3987              	.LASF55:
 3988 06a5 6D625F62 		.ascii	"mb_buffer\000"
 3988      75666665 
 3988      7200
 3989              	.LASF160:
 3990 06af 4D454D50 		.ascii	"MEMP_TCP_PCB\000"
 3990      5F544350 
 3990      5F504342 
 3990      00
 3991              	.LASF150:
 3992 06bc 74637068 		.ascii	"tcphdr\000"
 3992      647200
 3993              	.LASF70:
 3994 06c3 7331365F 		.ascii	"s16_t\000"
 3994      7400
 3995              	.LASF9:
 3996 06c9 696E7433 		.ascii	"int32_t\000"
 3996      325F7400 
 3997              	.LASF123:
 3998 06d1 72656675 		.ascii	"refused_data\000"
 3998      7365645F 
 3998      64617461 
 3998      00
 3999              	.LASF151:
 4000 06de 7463705F 		.ascii	"tcp_hdr\000"
 4000      68647200 
 4001              	.LASF81:
 4002 06e6 74797065 		.ascii	"type\000"
 4002      00
 4003              	.LASF4:
 4004 06eb 756E7369 		.ascii	"unsigned char\000"
 4004      676E6564 
 4004      20636861 
 4004      7200
 4005              	.LASF143:
 4006 06f9 46494E5F 		.ascii	"FIN_WAIT_1\000"
 4006      57414954 
 4006      5F3100
 4007              	.LASF144:
 4008 0704 46494E5F 		.ascii	"FIN_WAIT_2\000"
 4008      57414954 
ARM GAS  /var/folders/5n/p_75w94d66l9ssrldxqdhh700000gn/T//cc4U8Rle.s 			page 77


 4008      5F3200
 4009              	.LASF33:
 4010 070f 705F7265 		.ascii	"p_refs\000"
 4010      667300
 4011              	.LASF162:
 4012 0716 4D454D50 		.ascii	"MEMP_TCP_SEG\000"
 4012      5F544350 
 4012      5F534547 
 4012      00
 4013              	.LASF140:
 4014 0723 53594E5F 		.ascii	"SYN_SENT\000"
 4014      53454E54 
 4014      00
 4015              	.LASF129:
 4016 072c 6B656570 		.ascii	"keep_idle\000"
 4016      5F69646C 
 4016      6500
 4017              	.LASF93:
 4018 0736 63616C6C 		.ascii	"callback_arg\000"
 4018      6261636B 
 4018      5F617267 
 4018      00
 4019              	.LASF193:
 4020 0743 706F7274 		.ascii	"port_halt\000"
 4020      5F68616C 
 4020      7400
 4021              	.LASF139:
 4022 074d 4C495354 		.ascii	"LISTEN\000"
 4022      454E00
 4023              	.LASF84:
 4024 0754 61646472 		.ascii	"addr\000"
 4024      00
 4025              	.LASF178:
 4026 0759 7379735F 		.ascii	"sys_timeouts_init\000"
 4026      74696D65 
 4026      6F757473 
 4026      5F696E69 
 4026      7400
 4027              	.LASF91:
 4028 076b 73746174 		.ascii	"state\000"
 4028      6500
 4029              	.LASF189:
 4030 0771 6E657874 		.ascii	"next_timeout\000"
 4030      5F74696D 
 4030      656F7574 
 4030      00
 4031              	.LASF118:
 4032 077e 736E645F 		.ascii	"snd_queuelen\000"
 4032      71756575 
 4032      656C656E 
 4032      00
 4033              	.LASF156:
 4034 078b 63686B73 		.ascii	"chksum\000"
 4034      756D00
 4035              	.LASF125:
 4036 0792 72656376 		.ascii	"recv\000"
 4036      00
ARM GAS  /var/folders/5n/p_75w94d66l9ssrldxqdhh700000gn/T//cc4U8Rle.s 			page 78


 4037              	.LASF54:
 4038 0797 6D5F6E65 		.ascii	"m_next\000"
 4038      787400
 4039              	.LASF1:
 4040 079e 7369676E 		.ascii	"signed char\000"
 4040      65642063 
 4040      68617200 
 4041              	.LASF87:
 4042 07aa 7463705F 		.ascii	"tcp_pcb\000"
 4042      70636200 
 4043              	.LASF8:
 4044 07b2 73686F72 		.ascii	"short unsigned int\000"
 4044      7420756E 
 4044      7369676E 
 4044      65642069 
 4044      6E7400
 4045              	.LASF130:
 4046 07c5 70657273 		.ascii	"persist_cnt\000"
 4046      6973745F 
 4046      636E7400 
 4047              	.LASF89:
 4048 07d1 72656D6F 		.ascii	"remote_ip\000"
 4048      74655F69 
 4048      7000
 4049              	.LASF192:
 4050 07db 7463705F 		.ascii	"tcp_tw_pcbs\000"
 4050      74775F70 
 4050      63627300 
 4051              	.LASF85:
 4052 07e7 69705F61 		.ascii	"ip_addr_t\000"
 4052      6464725F 
 4052      7400
 4053              	.LASF202:
 4054 07f1 7463705F 		.ascii	"tcp_state\000"
 4054      73746174 
 4054      6500
 4055              	.LASF173:
 4056 07fb 6D656D70 		.ascii	"memp_t\000"
 4056      5F7400
 4057              	.LASF191:
 4058 0802 7463705F 		.ascii	"tcp_active_pcbs\000"
 4058      61637469 
 4058      76655F70 
 4058      63627300 
 4059              	.LASF106:
 4060 0812 6E727478 		.ascii	"nrtx\000"
 4060      00
 4061              	.LASF174:
 4062 0817 6D736563 		.ascii	"msecs\000"
 4062      7300
 4063              	.LASF152:
 4064 081d 64657374 		.ascii	"dest\000"
 4064      00
 4065              	.LASF63:
 4066 0822 65786974 		.ascii	"exitcode\000"
 4066      636F6465 
 4066      00
ARM GAS  /var/folders/5n/p_75w94d66l9ssrldxqdhh700000gn/T//cc4U8Rle.s 			page 79


 4067              	.LASF141:
 4068 082b 53594E5F 		.ascii	"SYN_RCVD\000"
 4068      52435644 
 4068      00
 4069              	.LASF83:
 4070 0834 69705F61 		.ascii	"ip_addr\000"
 4070      64647200 
 4071              	.LASF182:
 4072 083c 74637069 		.ascii	"tcpip_tcp_timer\000"
 4072      705F7463 
 4072      705F7469 
 4072      6D657200 
 4073              		.ident	"GCC: (GNU) 4.7.2"
ARM GAS  /var/folders/5n/p_75w94d66l9ssrldxqdhh700000gn/T//cc4U8Rle.s 			page 80


DEFINED SYMBOLS
                            *ABS*:0000000000000000 timers.c
/var/folders/5n/p_75w94d66l9ssrldxqdhh700000gn/T//cc4U8Rle.s:19     .text.sys_timeout:0000000000000000 $t
/var/folders/5n/p_75w94d66l9ssrldxqdhh700000gn/T//cc4U8Rle.s:25     .text.sys_timeout:0000000000000000 sys_timeout
/var/folders/5n/p_75w94d66l9ssrldxqdhh700000gn/T//cc4U8Rle.s:117    .text.sys_timeout:0000000000000054 $d
/var/folders/5n/p_75w94d66l9ssrldxqdhh700000gn/T//cc4U8Rle.s:122    .text.sys_timeouts_init:0000000000000000 $t
/var/folders/5n/p_75w94d66l9ssrldxqdhh700000gn/T//cc4U8Rle.s:128    .text.sys_timeouts_init:0000000000000000 sys_timeouts_init
/var/folders/5n/p_75w94d66l9ssrldxqdhh700000gn/T//cc4U8Rle.s:199    .text.ip_reass_timer:0000000000000000 ip_reass_timer
/var/folders/5n/p_75w94d66l9ssrldxqdhh700000gn/T//cc4U8Rle.s:165    .text.arp_timer:0000000000000000 arp_timer
/var/folders/5n/p_75w94d66l9ssrldxqdhh700000gn/T//cc4U8Rle.s:160    .text.arp_timer:0000000000000000 $t
/var/folders/5n/p_75w94d66l9ssrldxqdhh700000gn/T//cc4U8Rle.s:194    .text.ip_reass_timer:0000000000000000 $t
/var/folders/5n/p_75w94d66l9ssrldxqdhh700000gn/T//cc4U8Rle.s:228    .text.tcp_timer_needed:0000000000000000 $t
/var/folders/5n/p_75w94d66l9ssrldxqdhh700000gn/T//cc4U8Rle.s:234    .text.tcp_timer_needed:0000000000000000 tcp_timer_needed
/var/folders/5n/p_75w94d66l9ssrldxqdhh700000gn/T//cc4U8Rle.s:274    .text.tcp_timer_needed:0000000000000024 $d
/var/folders/5n/p_75w94d66l9ssrldxqdhh700000gn/T//cc4U8Rle.s:287    .text.tcpip_tcp_timer:0000000000000000 tcpip_tcp_timer
/var/folders/5n/p_75w94d66l9ssrldxqdhh700000gn/T//cc4U8Rle.s:282    .text.tcpip_tcp_timer:0000000000000000 $t
/var/folders/5n/p_75w94d66l9ssrldxqdhh700000gn/T//cc4U8Rle.s:329    .text.tcpip_tcp_timer:0000000000000028 $d
/var/folders/5n/p_75w94d66l9ssrldxqdhh700000gn/T//cc4U8Rle.s:337    .text.sys_untimeout:0000000000000000 $t
/var/folders/5n/p_75w94d66l9ssrldxqdhh700000gn/T//cc4U8Rle.s:343    .text.sys_untimeout:0000000000000000 sys_untimeout
/var/folders/5n/p_75w94d66l9ssrldxqdhh700000gn/T//cc4U8Rle.s:418    .text.sys_untimeout:0000000000000044 $d
/var/folders/5n/p_75w94d66l9ssrldxqdhh700000gn/T//cc4U8Rle.s:423    .text.sys_timeouts_mbox_fetch:0000000000000000 $t
/var/folders/5n/p_75w94d66l9ssrldxqdhh700000gn/T//cc4U8Rle.s:429    .text.sys_timeouts_mbox_fetch:0000000000000000 sys_timeouts_mbox_fetch
/var/folders/5n/p_75w94d66l9ssrldxqdhh700000gn/T//cc4U8Rle.s:530    .text.sys_timeouts_mbox_fetch:000000000000006c $d
/var/folders/5n/p_75w94d66l9ssrldxqdhh700000gn/T//cc4U8Rle.s:535    .bss.tcpip_tcp_timer_active:0000000000000000 $d
/var/folders/5n/p_75w94d66l9ssrldxqdhh700000gn/T//cc4U8Rle.s:539    .bss.tcpip_tcp_timer_active:0000000000000000 tcpip_tcp_timer_active
/var/folders/5n/p_75w94d66l9ssrldxqdhh700000gn/T//cc4U8Rle.s:542    .bss.next_timeout:0000000000000000 $d
/var/folders/5n/p_75w94d66l9ssrldxqdhh700000gn/T//cc4U8Rle.s:546    .bss.next_timeout:0000000000000000 next_timeout
                     .debug_frame:0000000000000010 $d
/var/folders/5n/p_75w94d66l9ssrldxqdhh700000gn/T//cc4U8Rle.s:121    .text.sys_timeout:0000000000000058 $t
/var/folders/5n/p_75w94d66l9ssrldxqdhh700000gn/T//cc4U8Rle.s:281    .text.tcp_timer_needed:0000000000000034 $t
/var/folders/5n/p_75w94d66l9ssrldxqdhh700000gn/T//cc4U8Rle.s:336    .text.tcpip_tcp_timer:0000000000000038 $t
/var/folders/5n/p_75w94d66l9ssrldxqdhh700000gn/T//cc4U8Rle.s:422    .text.sys_untimeout:0000000000000048 $t

UNDEFINED SYMBOLS
memp_malloc
port_halt
etharp_tmr
ip_reass_tmr
tcp_active_pcbs
tcp_tw_pcbs
tcp_tmr
memp_free
sys_arch_mbox_fetch
