ARM GAS  /var/folders/5n/p_75w94d66l9ssrldxqdhh700000gn/T//cc4U8Rle.s 			page 1


   1              		.syntax unified
   2              		.cpu cortex-m4
   3              		.fpu softvfp
   4              		.eabi_attribute 20, 1
   5              		.eabi_attribute 21, 1
   6              		.eabi_attribute 23, 3
   7              		.eabi_attribute 24, 1
   8              		.eabi_attribute 25, 1
   9              		.eabi_attribute 26, 1
  10              		.eabi_attribute 30, 2
  11              		.eabi_attribute 34, 1
  12              		.eabi_attribute 18, 4
  13              		.thumb
  14              		.file	"timers.c"
  15              		.text
  16              	.Ltext0:
  17              		.cfi_sections	.debug_frame
  18              		.section	.text.sys_timeout,"ax",%progbits
  19              		.align	2
  20              		.p2align 4,,15
  21              		.global	sys_timeout
  22              		.thumb
  23              		.thumb_func
  24              		.type	sys_timeout, %function
  25              	sys_timeout:
  26              	.LFB12:
  27              		.file 1 "../../ext/lwip-1.4.0/src/core/timers.c"
  28              		.loc 1 266 0
  29              		.cfi_startproc
  30              		@ args = 0, pretend = 0, frame = 0
  31              		@ frame_needed = 0, uses_anonymous_args = 0
  32              	.LVL0:
  33 0000 70B5     		push	{r4, r5, r6, lr}
  34              	.LCFI0:
  35              		.cfi_def_cfa_offset 16
  36              		.cfi_offset 4, -16
  37              		.cfi_offset 5, -12
  38              		.cfi_offset 6, -8
  39              		.cfi_offset 14, -4
  40              		.loc 1 266 0
  41 0002 0446     		mov	r4, r0
  42              		.loc 1 269 0
  43 0004 0B20     		movs	r0, #11
  44              	.LVL1:
  45              		.loc 1 266 0
  46 0006 0E46     		mov	r6, r1
  47 0008 1546     		mov	r5, r2
  48              		.loc 1 269 0
  49 000a FFF7FEFF 		bl	memp_malloc
  50              	.LVL2:
  51              		.loc 1 270 0
  52 000e E0B1     		cbz	r0, .L17
  53              		.loc 1 284 0
  54 0010 104B     		ldr	r3, .L19
  55              		.loc 1 275 0
  56 0012 8660     		str	r6, [r0, #8]
  57              		.loc 1 284 0
ARM GAS  /var/folders/5n/p_75w94d66l9ssrldxqdhh700000gn/T//cc4U8Rle.s 			page 2


  58 0014 1968     		ldr	r1, [r3, #0]
  59              		.loc 1 276 0
  60 0016 C560     		str	r5, [r0, #12]
  61              		.loc 1 274 0
  62 0018 0022     		movs	r2, #0
  63              		.loc 1 277 0
  64 001a 80E81400 		stmia	r0, {r2, r4}
  65              		.loc 1 284 0
  66 001e 29B1     		cbz	r1, .L15
  67              		.loc 1 289 0
  68 0020 4A68     		ldr	r2, [r1, #4]
  69 0022 9442     		cmp	r4, r2
  70 0024 05D2     		bcs	.L12
  71              		.loc 1 290 0
  72 0026 141B     		subs	r4, r2, r4
  73              	.LVL3:
  74 0028 4C60     		str	r4, [r1, #4]
  75              		.loc 1 291 0
  76 002a 0160     		str	r1, [r0, #0]
  77              	.L15:
  78              		.loc 1 292 0
  79 002c 1860     		str	r0, [r3, #0]
  80 002e 70BD     		pop	{r4, r5, r6, pc}
  81              	.LVL4:
  82              	.L18:
  83              		.loc 1 296 0
  84 0030 1946     		mov	r1, r3
  85              	.LVL5:
  86              	.L12:
  87              		.loc 1 296 0 is_stmt 0 discriminator 1
  88 0032 0B68     		ldr	r3, [r1, #0]
  89              		.loc 1 295 0 is_stmt 1 discriminator 1
  90 0034 A41A     		subs	r4, r4, r2
  91 0036 4460     		str	r4, [r0, #4]
  92              		.loc 1 296 0 discriminator 1
  93 0038 23B1     		cbz	r3, .L8
  94 003a 5A68     		ldr	r2, [r3, #4]
  95 003c 9442     		cmp	r4, r2
  96 003e F7D2     		bcs	.L18
  97              		.loc 1 298 0
  98 0040 141B     		subs	r4, r2, r4
  99 0042 5C60     		str	r4, [r3, #4]
 100              	.L8:
 101              		.loc 1 300 0
 102 0044 0360     		str	r3, [r0, #0]
 103              		.loc 1 301 0
 104 0046 0860     		str	r0, [r1, #0]
 105              		.loc 1 302 0
 106 0048 70BD     		pop	{r4, r5, r6, pc}
 107              	.LVL6:
 108              	.L17:
 109              		.loc 1 306 0 discriminator 1
 110 004a BDE87040 		pop	{r4, r5, r6, lr}
 111              		.loc 1 271 0 discriminator 1
 112 004e FFF7FEBF 		b	port_halt
 113              	.LVL7:
 114              	.L20:
ARM GAS  /var/folders/5n/p_75w94d66l9ssrldxqdhh700000gn/T//cc4U8Rle.s 			page 3


 115 0052 00BF     		.align	2
 116              	.L19:
 117 0054 00000000 		.word	.LANCHOR0
 118              		.cfi_endproc
 119              	.LFE12:
 120              		.size	sys_timeout, .-sys_timeout
 121 0058 AFF30080 		.section	.text.sys_timeouts_init,"ax",%progbits
 121      AFF30080 
 122              		.align	2
 123              		.p2align 4,,15
 124              		.global	sys_timeouts_init
 125              		.thumb
 126              		.thumb_func
 127              		.type	sys_timeouts_init, %function
 128              	sys_timeouts_init:
 129              	.LFB11:
 130              		.loc 1 222 0
 131              		.cfi_startproc
 132              		@ args = 0, pretend = 0, frame = 0
 133              		@ frame_needed = 0, uses_anonymous_args = 0
 134 0000 08B5     		push	{r3, lr}
 135              	.LCFI1:
 136              		.cfi_def_cfa_offset 8
 137              		.cfi_offset 3, -8
 138              		.cfi_offset 14, -4
 139              		.loc 1 224 0
 140 0002 40F20001 		movw	r1, #:lower16:ip_reass_timer
 141 0006 0022     		movs	r2, #0
 142 0008 4FF47A70 		mov	r0, #1000
 143 000c C0F20001 		movt	r1, #:upper16:ip_reass_timer
 144 0010 FFF7FEFF 		bl	sys_timeout
 145              	.LVL8:
 146              		.loc 1 227 0
 147 0014 40F20001 		movw	r1, #:lower16:arp_timer
 148 0018 41F28830 		movw	r0, #5000
 149 001c C0F20001 		movt	r1, #:upper16:arp_timer
 150 0020 0022     		movs	r2, #0
 151              		.loc 1 247 0
 152 0022 BDE80840 		pop	{r3, lr}
 153              		.loc 1 227 0
 154 0026 FFF7FEBF 		b	sys_timeout
 155              	.LVL9:
 156              		.cfi_endproc
 157              	.LFE11:
 158              		.size	sys_timeouts_init, .-sys_timeouts_init
 159              		.section	.text.arp_timer,"ax",%progbits
 160              		.align	2
 161              		.p2align 4,,15
 162              		.thumb
 163              		.thumb_func
 164              		.type	arp_timer, %function
 165              	arp_timer:
 166              	.LFB10:
 167              		.loc 1 134 0
 168              		.cfi_startproc
 169              		@ args = 0, pretend = 0, frame = 0
 170              		@ frame_needed = 0, uses_anonymous_args = 0
ARM GAS  /var/folders/5n/p_75w94d66l9ssrldxqdhh700000gn/T//cc4U8Rle.s 			page 4


 171              	.LVL10:
 172 0000 08B5     		push	{r3, lr}
 173              	.LCFI2:
 174              		.cfi_def_cfa_offset 8
 175              		.cfi_offset 3, -8
 176              		.cfi_offset 14, -4
 177              		.loc 1 137 0
 178 0002 FFF7FEFF 		bl	etharp_tmr
 179              	.LVL11:
 180              		.loc 1 138 0
 181 0006 40F20001 		movw	r1, #:lower16:arp_timer
 182 000a 41F28830 		movw	r0, #5000
 183 000e C0F20001 		movt	r1, #:upper16:arp_timer
 184 0012 0022     		movs	r2, #0
 185              		.loc 1 139 0
 186 0014 BDE80840 		pop	{r3, lr}
 187              		.loc 1 138 0
 188 0018 FFF7FEBF 		b	sys_timeout
 189              	.LVL12:
 190              		.cfi_endproc
 191              	.LFE10:
 192              		.size	arp_timer, .-arp_timer
 193 001c AFF30080 		.section	.text.ip_reass_timer,"ax",%progbits
 194              		.align	2
 195              		.p2align 4,,15
 196              		.thumb
 197              		.thumb_func
 198              		.type	ip_reass_timer, %function
 199              	ip_reass_timer:
 200              	.LFB9:
 201              		.loc 1 118 0
 202              		.cfi_startproc
 203              		@ args = 0, pretend = 0, frame = 0
 204              		@ frame_needed = 0, uses_anonymous_args = 0
 205              	.LVL13:
 206 0000 08B5     		push	{r3, lr}
 207              	.LCFI3:
 208              		.cfi_def_cfa_offset 8
 209              		.cfi_offset 3, -8
 210              		.cfi_offset 14, -4
 211              		.loc 1 121 0
 212 0002 FFF7FEFF 		bl	ip_reass_tmr
 213              	.LVL14:
 214              		.loc 1 122 0
 215 0006 40F20001 		movw	r1, #:lower16:ip_reass_timer
 216 000a 4FF47A70 		mov	r0, #1000
 217 000e C0F20001 		movt	r1, #:upper16:ip_reass_timer
 218 0012 0022     		movs	r2, #0
 219              		.loc 1 123 0
 220 0014 BDE80840 		pop	{r3, lr}
 221              		.loc 1 122 0
 222 0018 FFF7FEBF 		b	sys_timeout
 223              	.LVL15:
 224              		.cfi_endproc
 225              	.LFE9:
 226              		.size	ip_reass_timer, .-ip_reass_timer
 227 001c AFF30080 		.section	.text.tcp_timer_needed,"ax",%progbits
ARM GAS  /var/folders/5n/p_75w94d66l9ssrldxqdhh700000gn/T//cc4U8Rle.s 			page 5


 228              		.align	2
 229              		.p2align 4,,15
 230              		.global	tcp_timer_needed
 231              		.thumb
 232              		.thumb_func
 233              		.type	tcp_timer_needed, %function
 234              	tcp_timer_needed:
 235              	.LFB8:
 236              		.loc 1 100 0
 237              		.cfi_startproc
 238              		@ args = 0, pretend = 0, frame = 0
 239              		@ frame_needed = 0, uses_anonymous_args = 0
 240              		@ link register save eliminated.
 241              		.loc 1 102 0
 242 0000 084B     		ldr	r3, .L31
 243 0002 1A68     		ldr	r2, [r3, #0]
 244 0004 6AB9     		cbnz	r2, .L24
 245              		.loc 1 102 0 is_stmt 0 discriminator 1
 246 0006 084A     		ldr	r2, .L31+4
 247 0008 1268     		ldr	r2, [r2, #0]
 248 000a 32B1     		cbz	r2, .L30
 249              	.L26:
 250              		.loc 1 104 0 is_stmt 1
 251 000c 0122     		movs	r2, #1
 252              		.loc 1 105 0
 253 000e 0749     		ldr	r1, .L31+8
 254              		.loc 1 104 0
 255 0010 1A60     		str	r2, [r3, #0]
 256              		.loc 1 105 0
 257 0012 FA20     		movs	r0, #250
 258 0014 0022     		movs	r2, #0
 259              		.loc 1 107 0
 260              		.loc 1 105 0
 261 0016 FFF7FEBF 		b	sys_timeout
 262              	.LVL16:
 263              	.L30:
 264              		.loc 1 102 0 discriminator 1
 265 001a 054A     		ldr	r2, .L31+12
 266 001c 1268     		ldr	r2, [r2, #0]
 267 001e 002A     		cmp	r2, #0
 268 0020 F4D1     		bne	.L26
 269              	.L24:
 270 0022 7047     		bx	lr
 271              	.L32:
 272              		.align	2
 273              	.L31:
 274 0024 00000000 		.word	.LANCHOR1
 275 0028 00000000 		.word	tcp_active_pcbs
 276 002c 00000000 		.word	tcpip_tcp_timer
 277 0030 00000000 		.word	tcp_tw_pcbs
 278              		.cfi_endproc
 279              	.LFE8:
 280              		.size	tcp_timer_needed, .-tcp_timer_needed
 281 0034 AFF30080 		.section	.text.tcpip_tcp_timer,"ax",%progbits
 281      AFF30080 
 281      AFF30080 
 282              		.align	2
ARM GAS  /var/folders/5n/p_75w94d66l9ssrldxqdhh700000gn/T//cc4U8Rle.s 			page 6


 283              		.p2align 4,,15
 284              		.thumb
 285              		.thumb_func
 286              		.type	tcpip_tcp_timer, %function
 287              	tcpip_tcp_timer:
 288              	.LFB7:
 289              		.loc 1 78 0
 290              		.cfi_startproc
 291              		@ args = 0, pretend = 0, frame = 0
 292              		@ frame_needed = 0, uses_anonymous_args = 0
 293              	.LVL17:
 294 0000 08B5     		push	{r3, lr}
 295              	.LCFI4:
 296              		.cfi_def_cfa_offset 8
 297              		.cfi_offset 3, -8
 298              		.cfi_offset 14, -4
 299              		.loc 1 82 0
 300 0002 FFF7FEFF 		bl	tcp_tmr
 301              	.LVL18:
 302              		.loc 1 84 0
 303 0006 084B     		ldr	r3, .L37
 304 0008 1B68     		ldr	r3, [r3, #0]
 305 000a 33B1     		cbz	r3, .L36
 306              	.L34:
 307              		.loc 1 86 0
 308 000c 0749     		ldr	r1, .L37+4
 309 000e FA20     		movs	r0, #250
 310 0010 0022     		movs	r2, #0
 311              		.loc 1 91 0
 312 0012 BDE80840 		pop	{r3, lr}
 313              		.loc 1 86 0
 314 0016 FFF7FEBF 		b	sys_timeout
 315              	.LVL19:
 316              	.L36:
 317              		.loc 1 84 0 discriminator 1
 318 001a 054B     		ldr	r3, .L37+8
 319 001c 1B68     		ldr	r3, [r3, #0]
 320 001e 002B     		cmp	r3, #0
 321 0020 F4D1     		bne	.L34
 322              		.loc 1 89 0
 323 0022 044A     		ldr	r2, .L37+12
 324 0024 1360     		str	r3, [r2, #0]
 325 0026 08BD     		pop	{r3, pc}
 326              	.L38:
 327              		.align	2
 328              	.L37:
 329 0028 00000000 		.word	tcp_active_pcbs
 330 002c 00000000 		.word	tcpip_tcp_timer
 331 0030 00000000 		.word	tcp_tw_pcbs
 332 0034 00000000 		.word	.LANCHOR1
 333              		.cfi_endproc
 334              	.LFE7:
 335              		.size	tcpip_tcp_timer, .-tcpip_tcp_timer
 336 0038 AFF30080 		.section	.text.sys_untimeout,"ax",%progbits
 336      AFF30080 
 337              		.align	2
 338              		.p2align 4,,15
ARM GAS  /var/folders/5n/p_75w94d66l9ssrldxqdhh700000gn/T//cc4U8Rle.s 			page 7


 339              		.global	sys_untimeout
 340              		.thumb
 341              		.thumb_func
 342              		.type	sys_untimeout, %function
 343              	sys_untimeout:
 344              	.LFB13:
 345              		.loc 1 320 0
 346              		.cfi_startproc
 347              		@ args = 0, pretend = 0, frame = 0
 348              		@ frame_needed = 0, uses_anonymous_args = 0
 349              		@ link register save eliminated.
 350              	.LVL20:
 351 0000 30B4     		push	{r4, r5}
 352              	.LCFI5:
 353              		.cfi_def_cfa_offset 8
 354              		.cfi_offset 4, -8
 355              		.cfi_offset 5, -4
 356              		.loc 1 323 0
 357 0002 104D     		ldr	r5, .L54
 358 0004 2B68     		ldr	r3, [r5, #0]
 359 0006 CBB1     		cbz	r3, .L39
 360 0008 0024     		movs	r4, #0
 361 000a 03E0     		b	.L45
 362              	.LVL21:
 363              	.L41:
 364              		.loc 1 327 0
 365 000c 1A68     		ldr	r2, [r3, #0]
 366              	.LVL22:
 367 000e 1C46     		mov	r4, r3
 368 0010 A2B1     		cbz	r2, .L39
 369 0012 1346     		mov	r3, r2
 370              	.LVL23:
 371              	.L45:
 372              		.loc 1 328 0
 373 0014 9A68     		ldr	r2, [r3, #8]
 374 0016 8242     		cmp	r2, r0
 375 0018 F8D1     		bne	.L41
 376              		.loc 1 328 0 is_stmt 0 discriminator 1
 377 001a DA68     		ldr	r2, [r3, #12]
 378 001c 8A42     		cmp	r2, r1
 379 001e F5D1     		bne	.L41
 380              		.loc 1 332 0 is_stmt 1
 381 0020 1A68     		ldr	r2, [r3, #0]
 382              		.loc 1 331 0
 383 0022 6CB1     		cbz	r4, .L53
 384              		.loc 1 334 0
 385 0024 2260     		str	r2, [r4, #0]
 386 0026 1A68     		ldr	r2, [r3, #0]
 387              	.L43:
 388              		.loc 1 337 0
 389 0028 1AB1     		cbz	r2, .L44
 390              		.loc 1 338 0
 391 002a 5068     		ldr	r0, [r2, #4]
 392              	.LVL24:
 393 002c 5968     		ldr	r1, [r3, #4]
 394              	.LVL25:
 395 002e 4118     		adds	r1, r0, r1
ARM GAS  /var/folders/5n/p_75w94d66l9ssrldxqdhh700000gn/T//cc4U8Rle.s 			page 8


 396 0030 5160     		str	r1, [r2, #4]
 397              	.L44:
 398              		.loc 1 340 0
 399 0032 0B20     		movs	r0, #11
 400 0034 1946     		mov	r1, r3
 401              		.loc 1 345 0
 402 0036 30BC     		pop	{r4, r5}
 403              		.loc 1 340 0
 404 0038 FFF7FEBF 		b	memp_free
 405              	.LVL26:
 406              	.L39:
 407              		.loc 1 345 0
 408 003c 30BC     		pop	{r4, r5}
 409 003e 7047     		bx	lr
 410              	.LVL27:
 411              	.L53:
 412              		.loc 1 332 0
 413 0040 2A60     		str	r2, [r5, #0]
 414 0042 F1E7     		b	.L43
 415              	.L55:
 416              		.align	2
 417              	.L54:
 418 0044 00000000 		.word	.LANCHOR0
 419              		.cfi_endproc
 420              	.LFE13:
 421              		.size	sys_untimeout, .-sys_untimeout
 422 0048 AFF30080 		.section	.text.sys_timeouts_mbox_fetch,"ax",%progbits
 422      AFF30080 
 423              		.align	2
 424              		.p2align 4,,15
 425              		.global	sys_timeouts_mbox_fetch
 426              		.thumb
 427              		.thumb_func
 428              		.type	sys_timeouts_mbox_fetch, %function
 429              	sys_timeouts_mbox_fetch:
 430              	.LFB14:
 431              		.loc 1 419 0
 432              		.cfi_startproc
 433              		@ args = 0, pretend = 0, frame = 0
 434              		@ frame_needed = 0, uses_anonymous_args = 0
 435              	.LVL28:
 436 0000 2DE9F843 		push	{r3, r4, r5, r6, r7, r8, r9, lr}
 437              	.LCFI6:
 438              		.cfi_def_cfa_offset 32
 439              		.cfi_offset 3, -32
 440              		.cfi_offset 4, -28
 441              		.cfi_offset 5, -24
 442              		.cfi_offset 6, -20
 443              		.cfi_offset 7, -16
 444              		.cfi_offset 8, -12
 445              		.cfi_offset 9, -8
 446              		.cfi_offset 14, -4
 447 0004 194C     		ldr	r4, .L75
 448              		.loc 1 419 0
 449 0006 0746     		mov	r7, r0
 450 0008 0E46     		mov	r6, r1
 451              		.loc 1 426 0
ARM GAS  /var/folders/5n/p_75w94d66l9ssrldxqdhh700000gn/T//cc4U8Rle.s 			page 9


 452 000a A046     		mov	r8, r4
 453 000c 09E0     		b	.L72
 454              	.LVL29:
 455              	.L58:
 456              		.loc 1 441 0
 457 000e 9D68     		ldr	r5, [r3, #8]
 458              	.LVL30:
 459              		.loc 1 440 0
 460 0010 1A68     		ldr	r2, [r3, #0]
 461              		.loc 1 442 0
 462 0012 D3F80C90 		ldr	r9, [r3, #12]
 463              	.LVL31:
 464              		.loc 1 440 0
 465 0016 2260     		str	r2, [r4, #0]
 466              		.loc 1 449 0
 467 0018 0B20     		movs	r0, #11
 468 001a 1946     		mov	r1, r3
 469 001c FFF7FEFF 		bl	memp_free
 470              	.LVL32:
 471              		.loc 1 450 0
 472 0020 6DB9     		cbnz	r5, .L73
 473              	.LVL33:
 474              	.L72:
 475              		.loc 1 426 0
 476 0022 2368     		ldr	r3, [r4, #0]
 477 0024 83B1     		cbz	r3, .L74
 478              	.L57:
 479              		.loc 1 429 0
 480 0026 5A68     		ldr	r2, [r3, #4]
 481 0028 002A     		cmp	r2, #0
 482 002a F0D0     		beq	.L58
 483              		.loc 1 430 0
 484 002c 3146     		mov	r1, r6
 485 002e 3846     		mov	r0, r7
 486 0030 FFF7FEFF 		bl	sys_arch_mbox_fetch
 487              	.LVL34:
 488              		.loc 1 435 0
 489 0034 431C     		adds	r3, r0, #1
 490 0036 0ED1     		bne	.L59
 491 0038 D8F80030 		ldr	r3, [r8, #0]
 492 003c E7E7     		b	.L58
 493              	.LVL35:
 494              	.L73:
 495              		.loc 1 454 0
 496 003e 4846     		mov	r0, r9
 497 0040 A847     		blx	r5
 498              	.LVL36:
 499              		.loc 1 426 0
 500 0042 2368     		ldr	r3, [r4, #0]
 501 0044 002B     		cmp	r3, #0
 502 0046 EED1     		bne	.L57
 503              	.LVL37:
 504              	.L74:
 505              		.loc 1 427 0
 506 0048 3846     		mov	r0, r7
 507 004a 3146     		mov	r1, r6
 508 004c 1A46     		mov	r2, r3
ARM GAS  /var/folders/5n/p_75w94d66l9ssrldxqdhh700000gn/T//cc4U8Rle.s 			page 10


 509              		.loc 1 472 0
 510 004e BDE8F843 		pop	{r3, r4, r5, r6, r7, r8, r9, lr}
 511              		.loc 1 427 0
 512 0052 FFF7FEBF 		b	sys_arch_mbox_fetch
 513              	.LVL38:
 514              	.L59:
 515              		.loc 1 465 0
 516 0056 054B     		ldr	r3, .L75
 517 0058 1B68     		ldr	r3, [r3, #0]
 518 005a 5A68     		ldr	r2, [r3, #4]
 519 005c 9042     		cmp	r0, r2
 520              		.loc 1 466 0
 521 005e 34BF     		ite	cc
 522 0060 C0EB0202 		rsbcc	r2, r0, r2
 523              		.loc 1 468 0
 524 0064 0022     		movcs	r2, #0
 525 0066 5A60     		str	r2, [r3, #4]
 526 0068 BDE8F883 		pop	{r3, r4, r5, r6, r7, r8, r9, pc}
 527              	.L76:
 528              		.align	2
 529              	.L75:
 530 006c 00000000 		.word	.LANCHOR0
 531              		.cfi_endproc
 532              	.LFE14:
 533              		.size	sys_timeouts_mbox_fetch, .-sys_timeouts_mbox_fetch
 534              		.section	.bss.tcpip_tcp_timer_active,"aw",%nobits
 535              		.align	2
 536              		.set	.LANCHOR1,. + 0
 537              		.type	tcpip_tcp_timer_active, %object
 538              		.size	tcpip_tcp_timer_active, 4
 539              	tcpip_tcp_timer_active:
 540 0000 00000000 		.space	4
 541              		.section	.bss.next_timeout,"aw",%nobits
 542              		.align	2
 543              		.set	.LANCHOR0,. + 0
 544              		.type	next_timeout, %object
 545              		.size	next_timeout, 4
 546              	next_timeout:
 547 0000 00000000 		.space	4
 548              		.text
 549              	.Letext0:
 550              		.file 2 "/usr/local/cross/lib/gcc/arm-none-eabi/4.7.2/../../../../arm-none-eabi/include/stdint.h"
 551              		.file 3 "../../os/ports/GCC/ARMCMx/chtypes.h"
 552              		.file 4 "../../os/kernel/include/chlists.h"
 553              		.file 5 "../../os/kernel/include/chthreads.h"
 554              		.file 6 "../../os/ports/GCC/ARMCMx/chcore_v7m.h"
 555              		.file 7 "../../os/kernel/include/chsem.h"
 556              		.file 8 "../../os/kernel/include/chmtx.h"
 557              		.file 9 "../../os/kernel/include/chmboxes.h"
 558              		.file 10 "../../os/various/lwip_bindings/arch/cc.h"
 559              		.file 11 "../../ext/lwip-1.4.0/src/include/lwip/err.h"
 560              		.file 12 "../../os/various/lwip_bindings/arch/sys_arch.h"
 561              		.file 13 "../../ext/lwip-1.4.0/src/include/lwip/timers.h"
 562              		.file 14 "../../ext/lwip-1.4.0/src/include/lwip/pbuf.h"
 563              		.file 15 "../../ext/lwip-1.4.0/src/include/ipv4/lwip/ip_addr.h"
 564              		.file 16 "../../ext/lwip-1.4.0/src/include/lwip/tcp.h"
 565              		.file 17 "../../ext/lwip-1.4.0/src/include/lwip/tcp_impl.h"
ARM GAS  /var/folders/5n/p_75w94d66l9ssrldxqdhh700000gn/T//cc4U8Rle.s 			page 11


 566              		.file 18 "../../ext/lwip-1.4.0/src/include/lwip/memp.h"
 567              		.file 19 "../../ext/lwip-1.4.0/src/include/netif/etharp.h"
 568              		.file 20 "../../ext/lwip-1.4.0/src/include/ipv4/lwip/ip_frag.h"
 569              		.file 21 "../../ext/lwip-1.4.0/src/include/lwip/sys.h"