ARM GAS  /var/folders/5n/p_75w94d66l9ssrldxqdhh700000gn/T//ccfnEOi3.s 			page 1


   1              		.syntax unified
   2              		.cpu cortex-m4
   3              		.fpu softvfp
   4              		.eabi_attribute 20, 1
   5              		.eabi_attribute 21, 1
   6              		.eabi_attribute 23, 3
   7              		.eabi_attribute 24, 1
   8              		.eabi_attribute 25, 1
   9              		.eabi_attribute 26, 1
  10              		.eabi_attribute 30, 2
  11              		.eabi_attribute 34, 1
  12              		.eabi_attribute 18, 4
  13              		.thumb
  14              		.file	"tm.c"
  15              		.text
  16              	.Ltext0:
  17              		.cfi_sections	.debug_frame
  18              		.section	.text.tm_start,"ax",%progbits
  19              		.align	2
  20              		.p2align 4,,15
  21              		.thumb
  22              		.thumb_func
  23              		.type	tm_start, %function
  24              	tm_start:
  25              	.LFB117:
  26              		.file 1 "../../os/hal/src/tm.c"
  27              		.loc 1 69 0
  28              		.cfi_startproc
  29              		@ args = 0, pretend = 0, frame = 0
  30              		@ frame_needed = 0, uses_anonymous_args = 0
  31              		@ link register save eliminated.
  32              	.LVL0:
  33              		.loc 1 71 0
  34 0000 4FF48053 		mov	r3, #4096
  35 0004 CEF20003 		movt	r3, 57344
  36 0008 5B68     		ldr	r3, [r3, #4]
  37 000a 8360     		str	r3, [r0, #8]
  38 000c 7047     		bx	lr
  39              		.cfi_endproc
  40              	.LFE117:
  41              		.size	tm_start, .-tm_start
  42 000e 00BF     		.section	.text.tm_stop,"ax",%progbits
  43              		.align	2
  44              		.p2align 4,,15
  45              		.thumb
  46              		.thumb_func
  47              		.type	tm_stop, %function
  48              	tm_stop:
  49              	.LFB118:
  50              		.loc 1 81 0
  51              		.cfi_startproc
  52              		@ args = 0, pretend = 0, frame = 0
  53              		@ frame_needed = 0, uses_anonymous_args = 0
  54              		@ link register save eliminated.
  55              	.LVL1:
  56              		.loc 1 83 0
  57 0000 4FF48053 		mov	r3, #4096
ARM GAS  /var/folders/5n/p_75w94d66l9ssrldxqdhh700000gn/T//ccfnEOi3.s 			page 2


  58 0004 CEF20003 		movt	r3, 57344
  59              		.loc 1 84 0
  60 0008 094A     		ldr	r2, .L6
  61              		.loc 1 83 0
  62 000a 5B68     		ldr	r3, [r3, #4]
  63              	.LVL2:
  64              		.loc 1 84 0
  65 000c 8168     		ldr	r1, [r0, #8]
  66              		.loc 1 81 0
  67 000e 10B4     		push	{r4}
  68              	.LCFI0:
  69              		.cfi_def_cfa_offset 4
  70              		.cfi_offset 4, -4
  71              		.loc 1 84 0
  72 0010 1468     		ldr	r4, [r2, #0]
  73              		.loc 1 85 0
  74 0012 C268     		ldr	r2, [r0, #12]
  75              		.loc 1 84 0
  76 0014 5B1A     		subs	r3, r3, r1
  77              	.LVL3:
  78 0016 1B1B     		subs	r3, r3, r4
  79              		.loc 1 85 0
  80 0018 9342     		cmp	r3, r2
  81              		.loc 1 84 0
  82 001a 8360     		str	r3, [r0, #8]
  83              		.loc 1 86 0
  84 001c 88BF     		it	hi
  85 001e C360     		strhi	r3, [r0, #12]
  86              		.loc 1 85 0
  87 0020 03D8     		bhi	.L2
  88              		.loc 1 87 0
  89 0022 0269     		ldr	r2, [r0, #16]
  90 0024 9342     		cmp	r3, r2
  91              		.loc 1 88 0
  92 0026 38BF     		it	cc
  93 0028 0361     		strcc	r3, [r0, #16]
  94              	.L2:
  95              		.loc 1 89 0
  96 002a 10BC     		pop	{r4}
  97 002c 7047     		bx	lr
  98              	.L7:
  99 002e 00BF     		.align	2
 100              	.L6:
 101 0030 00000000 		.word	.LANCHOR0
 102              		.cfi_endproc
 103              	.LFE118:
 104              		.size	tm_stop, .-tm_stop
 105 0034 AFF30080 		.section	.text.tmInit,"ax",%progbits
 105      AFF30080 
 105      AFF30080 
 106              		.align	2
 107              		.p2align 4,,15
 108              		.global	tmInit
 109              		.thumb
 110              		.thumb_func
 111              		.type	tmInit, %function
 112              	tmInit:
ARM GAS  /var/folders/5n/p_75w94d66l9ssrldxqdhh700000gn/T//ccfnEOi3.s 			page 3


 113              	.LFB119:
 114              		.loc 1 104 0
 115              		.cfi_startproc
 116              		@ args = 0, pretend = 0, frame = 24
 117              		@ frame_needed = 0, uses_anonymous_args = 0
 118 0000 10B5     		push	{r4, lr}
 119              	.LCFI1:
 120              		.cfi_def_cfa_offset 8
 121              		.cfi_offset 4, -8
 122              		.cfi_offset 14, -4
 123              		.loc 1 110 0
 124 0002 40F20004 		movw	r4, #:lower16:.LANCHOR0
 125              		.loc 1 104 0
 126 0006 86B0     		sub	sp, sp, #24
 127              	.LCFI2:
 128              		.cfi_def_cfa_offset 32
 129              		.loc 1 110 0
 130 0008 C0F20004 		movt	r4, #:upper16:.LANCHOR0
 131 000c 0022     		movs	r2, #0
 132 000e 2260     		str	r2, [r4, #0]
 133              	.LVL4:
 134              	.LBB8:
 135              	.LBB9:
 136              		.loc 1 129 0
 137 0010 0492     		str	r2, [sp, #16]
 138              	.LBE9:
 139              	.LBE8:
 140              	.LBB14:
 141              	.LBB15:
 142              		.loc 1 71 0
 143 0012 4FF48053 		mov	r3, #4096
 144              	.LBE15:
 145              	.LBE14:
 146              	.LBB19:
 147              	.LBB10:
 148              		.loc 1 130 0
 149 0016 4FF0FF32 		mov	r2, #-1
 150 001a 0592     		str	r2, [sp, #20]
 151              	.LVL5:
 152              	.LBE10:
 153              	.LBE19:
 154              	.LBB20:
 155              	.LBB16:
 156              		.loc 1 71 0
 157 001c CEF20003 		movt	r3, 57344
 158              	.LBE16:
 159              	.LBE20:
 160              	.LBB21:
 161              	.LBB11:
 162              		.loc 1 126 0
 163 0020 40F20002 		movw	r2, #:lower16:tm_start
 164 0024 C0F20002 		movt	r2, #:upper16:tm_start
 165              	.LBE11:
 166              	.LBE21:
 167              	.LBB22:
 168              	.LBB17:
 169              		.loc 1 71 0
ARM GAS  /var/folders/5n/p_75w94d66l9ssrldxqdhh700000gn/T//ccfnEOi3.s 			page 4


 170 0028 5B68     		ldr	r3, [r3, #4]
 171              	.LBE17:
 172              	.LBE22:
 173              	.LBB23:
 174              	.LBB12:
 175              		.loc 1 126 0
 176 002a 0192     		str	r2, [sp, #4]
 177              		.loc 1 127 0
 178 002c 40F20002 		movw	r2, #:lower16:tm_stop
 179 0030 C0F20002 		movt	r2, #:upper16:tm_stop
 180              	.LBE12:
 181              	.LBE23:
 182              		.loc 1 113 0
 183 0034 01A8     		add	r0, sp, #4
 184              	.LVL6:
 185              	.LBB24:
 186              	.LBB18:
 187              		.loc 1 71 0
 188 0036 0393     		str	r3, [sp, #12]
 189              	.LBE18:
 190              	.LBE24:
 191              	.LBB25:
 192              	.LBB13:
 193              		.loc 1 127 0
 194 0038 0292     		str	r2, [sp, #8]
 195              	.LBE13:
 196              	.LBE25:
 197              		.loc 1 113 0
 198 003a FFF7FEFF 		bl	tm_stop
 199              	.LVL7:
 200              		.loc 1 114 0
 201 003e 039B     		ldr	r3, [sp, #12]
 202 0040 2360     		str	r3, [r4, #0]
 203              		.loc 1 115 0
 204 0042 06B0     		add	sp, sp, #24
 205 0044 10BD     		pop	{r4, pc}
 206              		.cfi_endproc
 207              	.LFE119:
 208              		.size	tmInit, .-tmInit
 209 0046 00BFAFF3 		.section	.text.tmObjectInit,"ax",%progbits
 209      0080AFF3 
 209      0080
 210              		.align	2
 211              		.p2align 4,,15
 212              		.global	tmObjectInit
 213              		.thumb
 214              		.thumb_func
 215              		.type	tmObjectInit, %function
 216              	tmObjectInit:
 217              	.LFB120:
 218              		.loc 1 124 0
 219              		.cfi_startproc
 220              		@ args = 0, pretend = 0, frame = 0
 221              		@ frame_needed = 0, uses_anonymous_args = 0
 222              		@ link register save eliminated.
 223              	.LVL8:
 224              		.loc 1 126 0
ARM GAS  /var/folders/5n/p_75w94d66l9ssrldxqdhh700000gn/T//ccfnEOi3.s 			page 5


 225 0000 40F20002 		movw	r2, #:lower16:tm_start
 226 0004 C0F20002 		movt	r2, #:upper16:tm_start
 227              		.loc 1 128 0
 228 0008 0023     		movs	r3, #0
 229              		.loc 1 126 0
 230 000a 0260     		str	r2, [r0, #0]
 231              		.loc 1 127 0
 232 000c 40F20002 		movw	r2, #:lower16:tm_stop
 233 0010 C0F20002 		movt	r2, #:upper16:tm_stop
 234              		.loc 1 128 0
 235 0014 8360     		str	r3, [r0, #8]
 236              		.loc 1 129 0
 237 0016 C360     		str	r3, [r0, #12]
 238              		.loc 1 130 0
 239 0018 4FF0FF33 		mov	r3, #-1
 240              		.loc 1 127 0
 241 001c 4260     		str	r2, [r0, #4]
 242              		.loc 1 130 0
 243 001e 0361     		str	r3, [r0, #16]
 244 0020 7047     		bx	lr
 245              		.cfi_endproc
 246              	.LFE120:
 247              		.size	tmObjectInit, .-tmObjectInit
 248 0022 00BFAFF3 		.section	.bss.measurement_offset,"aw",%nobits
 248      0080AFF3 
 248      0080AFF3 
 248      0080
 249              		.align	2
 250              		.set	.LANCHOR0,. + 0
 251              		.type	measurement_offset, %object
 252              		.size	measurement_offset, 4
 253              	measurement_offset:
 254 0000 00000000 		.space	4
 255              		.text
 256              	.Letext0:
 257              		.file 2 "/usr/local/cross/lib/gcc/arm-none-eabi/4.7.2/../../../../arm-none-eabi/include/stdint.h"
 258              		.file 3 "../../os/ports/common/ARMCMx/nvic.h"
 259              		.file 4 "../../os/hal/platforms/STM32F4xx/hal_lld.h"
 260              		.file 5 "../../os/hal/include/tm.h"
 261              		.file 6 "../../os/ports/common/ARMCMx/CMSIS/include/core_cm4.h"
 262              		.section	.debug_info,"",%progbits
 263              	.Ldebug_info0:
 264 0000 E9020000 		.4byte	0x2e9
 265 0004 0200     		.2byte	0x2
 266 0006 00000000 		.4byte	.Ldebug_abbrev0
 267 000a 04       		.byte	0x4
 268 000b 01       		.uleb128 0x1
 269 000c 08010000 		.4byte	.LASF31
 270 0010 01       		.byte	0x1
 271 0011 82010000 		.4byte	.LASF32
 272 0015 14010000 		.4byte	.LASF33
 273 0019 58000000 		.4byte	.Ldebug_ranges0+0x58
 274 001d 00000000 		.4byte	0
 275 0021 00000000 		.4byte	0
 276 0025 00000000 		.4byte	.Ldebug_line0
 277 0029 02       		.uleb128 0x2
 278 002a 04       		.byte	0x4
ARM GAS  /var/folders/5n/p_75w94d66l9ssrldxqdhh700000gn/T//ccfnEOi3.s 			page 6


 279 002b 05       		.byte	0x5
 280 002c 696E7400 		.ascii	"int\000"
 281 0030 03       		.uleb128 0x3
 282 0031 04       		.byte	0x4
 283 0032 07       		.byte	0x7
 284 0033 AF000000 		.4byte	.LASF0
 285 0037 03       		.uleb128 0x3
 286 0038 01       		.byte	0x1
 287 0039 06       		.byte	0x6
 288 003a B7010000 		.4byte	.LASF1
 289 003e 03       		.uleb128 0x3
 290 003f 01       		.byte	0x1
 291 0040 08       		.byte	0x8
 292 0041 38000000 		.4byte	.LASF2
 293 0045 03       		.uleb128 0x3
 294 0046 02       		.byte	0x2
 295 0047 05       		.byte	0x5
 296 0048 78010000 		.4byte	.LASF3
 297 004c 03       		.uleb128 0x3
 298 004d 02       		.byte	0x2
 299 004e 07       		.byte	0x7
 300 004f 73000000 		.4byte	.LASF4
 301 0053 04       		.uleb128 0x4
 302 0054 E1000000 		.4byte	.LASF6
 303 0058 02       		.byte	0x2
 304 0059 4F       		.byte	0x4f
 305 005a 5E000000 		.4byte	0x5e
 306 005e 03       		.uleb128 0x3
 307 005f 04       		.byte	0x4
 308 0060 05       		.byte	0x5
 309 0061 AE010000 		.4byte	.LASF5
 310 0065 04       		.uleb128 0x4
 311 0066 A5010000 		.4byte	.LASF7
 312 006a 02       		.byte	0x2
 313 006b 50       		.byte	0x50
 314 006c 70000000 		.4byte	0x70
 315 0070 03       		.uleb128 0x3
 316 0071 04       		.byte	0x4
 317 0072 07       		.byte	0x7
 318 0073 54000000 		.4byte	.LASF8
 319 0077 03       		.uleb128 0x3
 320 0078 08       		.byte	0x8
 321 0079 05       		.byte	0x5
 322 007a F2000000 		.4byte	.LASF9
 323 007e 03       		.uleb128 0x3
 324 007f 08       		.byte	0x8
 325 0080 07       		.byte	0x7
 326 0081 21000000 		.4byte	.LASF10
 327 0085 04       		.uleb128 0x4
 328 0086 00010000 		.4byte	.LASF11
 329 008a 03       		.byte	0x3
 330 008b 3A       		.byte	0x3a
 331 008c 90000000 		.4byte	0x90
 332 0090 05       		.uleb128 0x5
 333 0091 65000000 		.4byte	0x65
 334 0095 03       		.uleb128 0x3
 335 0096 04       		.byte	0x4
ARM GAS  /var/folders/5n/p_75w94d66l9ssrldxqdhh700000gn/T//ccfnEOi3.s 			page 7


 336 0097 07       		.byte	0x7
 337 0098 E9000000 		.4byte	.LASF12
 338 009c 06       		.uleb128 0x6
 339 009d 20       		.byte	0x20
 340 009e 03       		.byte	0x3
 341 009f 0601     		.2byte	0x106
 342 00a1 1E010000 		.4byte	0x11e
 343 00a5 07       		.uleb128 0x7
 344 00a6 D5000000 		.4byte	.LASF13
 345 00aa 03       		.byte	0x3
 346 00ab 0701     		.2byte	0x107
 347 00ad 85000000 		.4byte	0x85
 348 00b1 02       		.byte	0x2
 349 00b2 23       		.byte	0x23
 350 00b3 00       		.uleb128 0
 351 00b4 07       		.uleb128 0x7
 352 00b5 46000000 		.4byte	.LASF14
 353 00b9 03       		.byte	0x3
 354 00ba 0801     		.2byte	0x108
 355 00bc 85000000 		.4byte	0x85
 356 00c0 02       		.byte	0x2
 357 00c1 23       		.byte	0x23
 358 00c2 04       		.uleb128 0x4
 359 00c3 07       		.uleb128 0x7
 360 00c4 86000000 		.4byte	.LASF15
 361 00c8 03       		.byte	0x3
 362 00c9 0901     		.2byte	0x109
 363 00cb 85000000 		.4byte	0x85
 364 00cf 02       		.byte	0x2
 365 00d0 23       		.byte	0x23
 366 00d1 08       		.uleb128 0x8
 367 00d2 07       		.uleb128 0x7
 368 00d3 DA000000 		.4byte	.LASF16
 369 00d7 03       		.byte	0x3
 370 00d8 0A01     		.2byte	0x10a
 371 00da 85000000 		.4byte	0x85
 372 00de 02       		.byte	0x2
 373 00df 23       		.byte	0x23
 374 00e0 0C       		.uleb128 0xc
 375 00e1 07       		.uleb128 0x7
 376 00e2 13000000 		.4byte	.LASF17
 377 00e6 03       		.byte	0x3
 378 00e7 0B01     		.2byte	0x10b
 379 00e9 85000000 		.4byte	0x85
 380 00ed 02       		.byte	0x2
 381 00ee 23       		.byte	0x23
 382 00ef 10       		.uleb128 0x10
 383 00f0 07       		.uleb128 0x7
 384 00f1 A8000000 		.4byte	.LASF18
 385 00f5 03       		.byte	0x3
 386 00f6 0C01     		.2byte	0x10c
 387 00f8 85000000 		.4byte	0x85
 388 00fc 02       		.byte	0x2
 389 00fd 23       		.byte	0x23
 390 00fe 14       		.uleb128 0x14
 391 00ff 07       		.uleb128 0x7
 392 0100 9A000000 		.4byte	.LASF19
ARM GAS  /var/folders/5n/p_75w94d66l9ssrldxqdhh700000gn/T//ccfnEOi3.s 			page 8


 393 0104 03       		.byte	0x3
 394 0105 0D01     		.2byte	0x10d
 395 0107 85000000 		.4byte	0x85
 396 010b 02       		.byte	0x2
 397 010c 23       		.byte	0x23
 398 010d 18       		.uleb128 0x18
 399 010e 07       		.uleb128 0x7
 400 010f 00000000 		.4byte	.LASF20
 401 0113 03       		.byte	0x3
 402 0114 0E01     		.2byte	0x10e
 403 0116 85000000 		.4byte	0x85
 404 011a 02       		.byte	0x2
 405 011b 23       		.byte	0x23
 406 011c 1C       		.uleb128 0x1c
 407 011d 00       		.byte	0
 408 011e 08       		.uleb128 0x8
 409 011f 98010000 		.4byte	.LASF21
 410 0123 03       		.byte	0x3
 411 0124 0F01     		.2byte	0x10f
 412 0126 9C000000 		.4byte	0x9c
 413 012a 03       		.uleb128 0x3
 414 012b 01       		.byte	0x1
 415 012c 08       		.byte	0x8
 416 012d C7000000 		.4byte	.LASF22
 417 0131 05       		.uleb128 0x5
 418 0132 53000000 		.4byte	0x53
 419 0136 08       		.uleb128 0x8
 420 0137 BC000000 		.4byte	.LASF23
 421 013b 04       		.byte	0x4
 422 013c 6305     		.2byte	0x563
 423 013e 65000000 		.4byte	0x65
 424 0142 04       		.uleb128 0x4
 425 0143 C3010000 		.4byte	.LASF24
 426 0147 05       		.byte	0x5
 427 0148 45       		.byte	0x45
 428 0149 4D010000 		.4byte	0x14d
 429 014d 09       		.uleb128 0x9
 430 014e C3010000 		.4byte	.LASF24
 431 0152 14       		.byte	0x14
 432 0153 05       		.byte	0x5
 433 0154 4A       		.byte	0x4a
 434 0155 A0010000 		.4byte	0x1a0
 435 0159 0A       		.uleb128 0xa
 436 015a 0D000000 		.4byte	.LASF25
 437 015e 05       		.byte	0x5
 438 015f 4B       		.byte	0x4b
 439 0160 B2010000 		.4byte	0x1b2
 440 0164 02       		.byte	0x2
 441 0165 23       		.byte	0x23
 442 0166 00       		.uleb128 0
 443 0167 0A       		.uleb128 0xa
 444 0168 1C000000 		.4byte	.LASF26
 445 016c 05       		.byte	0x5
 446 016d 4C       		.byte	0x4c
 447 016e B2010000 		.4byte	0x1b2
 448 0172 02       		.byte	0x2
 449 0173 23       		.byte	0x23
ARM GAS  /var/folders/5n/p_75w94d66l9ssrldxqdhh700000gn/T//ccfnEOi3.s 			page 9


 450 0174 04       		.uleb128 0x4
 451 0175 0A       		.uleb128 0xa
 452 0176 D3010000 		.4byte	.LASF27
 453 017a 05       		.byte	0x5
 454 017b 4D       		.byte	0x4d
 455 017c 36010000 		.4byte	0x136
 456 0180 02       		.byte	0x2
 457 0181 23       		.byte	0x23
 458 0182 08       		.uleb128 0x8
 459 0183 0A       		.uleb128 0xa
 460 0184 A2000000 		.4byte	.LASF28
 461 0188 05       		.byte	0x5
 462 0189 4E       		.byte	0x4e
 463 018a 36010000 		.4byte	0x136
 464 018e 02       		.byte	0x2
 465 018f 23       		.byte	0x23
 466 0190 0C       		.uleb128 0xc
 467 0191 0A       		.uleb128 0xa
 468 0192 A0010000 		.4byte	.LASF29
 469 0196 05       		.byte	0x5
 470 0197 4F       		.byte	0x4f
 471 0198 36010000 		.4byte	0x136
 472 019c 02       		.byte	0x2
 473 019d 23       		.byte	0x23
 474 019e 10       		.uleb128 0x10
 475 019f 00       		.byte	0
 476 01a0 0B       		.uleb128 0xb
 477 01a1 01       		.byte	0x1
 478 01a2 AC010000 		.4byte	0x1ac
 479 01a6 0C       		.uleb128 0xc
 480 01a7 AC010000 		.4byte	0x1ac
 481 01ab 00       		.byte	0
 482 01ac 0D       		.uleb128 0xd
 483 01ad 04       		.byte	0x4
 484 01ae 42010000 		.4byte	0x142
 485 01b2 0D       		.uleb128 0xd
 486 01b3 04       		.byte	0x4
 487 01b4 A0010000 		.4byte	0x1a0
 488 01b8 0E       		.uleb128 0xe
 489 01b9 01       		.byte	0x1
 490 01ba 66000000 		.4byte	.LASF34
 491 01be 01       		.byte	0x1
 492 01bf 7C       		.byte	0x7c
 493 01c0 01       		.byte	0x1
 494 01c1 01       		.byte	0x1
 495 01c2 D2010000 		.4byte	0x1d2
 496 01c6 0F       		.uleb128 0xf
 497 01c7 746D7000 		.ascii	"tmp\000"
 498 01cb 01       		.byte	0x1
 499 01cc 7C       		.byte	0x7c
 500 01cd AC010000 		.4byte	0x1ac
 501 01d1 00       		.byte	0
 502 01d2 10       		.uleb128 0x10
 503 01d3 CC000000 		.4byte	.LASF35
 504 01d7 01       		.byte	0x1
 505 01d8 45       		.byte	0x45
 506 01d9 01       		.byte	0x1
ARM GAS  /var/folders/5n/p_75w94d66l9ssrldxqdhh700000gn/T//ccfnEOi3.s 			page 10


 507 01da 01       		.byte	0x1
 508 01db EB010000 		.4byte	0x1eb
 509 01df 0F       		.uleb128 0xf
 510 01e0 746D7000 		.ascii	"tmp\000"
 511 01e4 01       		.byte	0x1
 512 01e5 45       		.byte	0x45
 513 01e6 AC010000 		.4byte	0x1ac
 514 01ea 00       		.byte	0
 515 01eb 11       		.uleb128 0x11
 516 01ec D2010000 		.4byte	0x1d2
 517 01f0 00000000 		.4byte	.LFB117
 518 01f4 0E000000 		.4byte	.LFE117
 519 01f8 02       		.byte	0x2
 520 01f9 7D       		.byte	0x7d
 521 01fa 00       		.sleb128 0
 522 01fb 01       		.byte	0x1
 523 01fc 08020000 		.4byte	0x208
 524 0200 12       		.uleb128 0x12
 525 0201 DF010000 		.4byte	0x1df
 526 0205 01       		.byte	0x1
 527 0206 50       		.byte	0x50
 528 0207 00       		.byte	0
 529 0208 13       		.uleb128 0x13
 530 0209 05000000 		.4byte	.LASF36
 531 020d 01       		.byte	0x1
 532 020e 51       		.byte	0x51
 533 020f 01       		.byte	0x1
 534 0210 00000000 		.4byte	.LFB118
 535 0214 34000000 		.4byte	.LFE118
 536 0218 00000000 		.4byte	.LLST0
 537 021c 01       		.byte	0x1
 538 021d 3E020000 		.4byte	0x23e
 539 0221 14       		.uleb128 0x14
 540 0222 746D7000 		.ascii	"tmp\000"
 541 0226 01       		.byte	0x1
 542 0227 51       		.byte	0x51
 543 0228 AC010000 		.4byte	0x1ac
 544 022c 01       		.byte	0x1
 545 022d 50       		.byte	0x50
 546 022e 15       		.uleb128 0x15
 547 022f 6E6F7700 		.ascii	"now\000"
 548 0233 01       		.byte	0x1
 549 0234 53       		.byte	0x53
 550 0235 36010000 		.4byte	0x136
 551 0239 20000000 		.4byte	.LLST1
 552 023d 00       		.byte	0
 553 023e 16       		.uleb128 0x16
 554 023f 01       		.byte	0x1
 555 0240 4D000000 		.4byte	.LASF37
 556 0244 01       		.byte	0x1
 557 0245 68       		.byte	0x68
 558 0246 01       		.byte	0x1
 559 0247 00000000 		.4byte	.LFB119
 560 024b 46000000 		.4byte	.LFE119
 561 024f 33000000 		.4byte	.LLST2
 562 0253 01       		.byte	0x1
 563 0254 B0020000 		.4byte	0x2b0
ARM GAS  /var/folders/5n/p_75w94d66l9ssrldxqdhh700000gn/T//ccfnEOi3.s 			page 11


 564 0258 17       		.uleb128 0x17
 565 0259 746D00   		.ascii	"tm\000"
 566 025c 01       		.byte	0x1
 567 025d 69       		.byte	0x69
 568 025e 42010000 		.4byte	0x142
 569 0262 02       		.byte	0x2
 570 0263 91       		.byte	0x91
 571 0264 64       		.sleb128 -28
 572 0265 18       		.uleb128 0x18
 573 0266 B8010000 		.4byte	0x1b8
 574 026a 10000000 		.4byte	.LBB8
 575 026e 00000000 		.4byte	.Ldebug_ranges0+0
 576 0272 01       		.byte	0x1
 577 0273 6F       		.byte	0x6f
 578 0274 82020000 		.4byte	0x282
 579 0278 19       		.uleb128 0x19
 580 0279 C6010000 		.4byte	0x1c6
 581 027d 5F000000 		.4byte	.LLST3
 582 0281 00       		.byte	0
 583 0282 18       		.uleb128 0x18
 584 0283 D2010000 		.4byte	0x1d2
 585 0287 12000000 		.4byte	.LBB14
 586 028b 30000000 		.4byte	.Ldebug_ranges0+0x30
 587 028f 01       		.byte	0x1
 588 0290 70       		.byte	0x70
 589 0291 9F020000 		.4byte	0x29f
 590 0295 19       		.uleb128 0x19
 591 0296 DF010000 		.4byte	0x1df
 592 029a 8C000000 		.4byte	.LLST4
 593 029e 00       		.byte	0
 594 029f 1A       		.uleb128 0x1a
 595 02a0 3E000000 		.4byte	.LVL7
 596 02a4 08020000 		.4byte	0x208
 597 02a8 1B       		.uleb128 0x1b
 598 02a9 01       		.byte	0x1
 599 02aa 50       		.byte	0x50
 600 02ab 02       		.byte	0x2
 601 02ac 91       		.byte	0x91
 602 02ad 64       		.sleb128 -28
 603 02ae 00       		.byte	0
 604 02af 00       		.byte	0
 605 02b0 11       		.uleb128 0x11
 606 02b1 B8010000 		.4byte	0x1b8
 607 02b5 00000000 		.4byte	.LFB120
 608 02b9 22000000 		.4byte	.LFE120
 609 02bd 02       		.byte	0x2
 610 02be 7D       		.byte	0x7d
 611 02bf 00       		.sleb128 0
 612 02c0 01       		.byte	0x1
 613 02c1 CD020000 		.4byte	0x2cd
 614 02c5 12       		.uleb128 0x12
 615 02c6 C6010000 		.4byte	0x1c6
 616 02ca 01       		.byte	0x1
 617 02cb 50       		.byte	0x50
 618 02cc 00       		.byte	0
 619 02cd 1C       		.uleb128 0x1c
 620 02ce 65010000 		.4byte	.LASF30
ARM GAS  /var/folders/5n/p_75w94d66l9ssrldxqdhh700000gn/T//ccfnEOi3.s 			page 12


 621 02d2 01       		.byte	0x1
 622 02d3 38       		.byte	0x38
 623 02d4 36010000 		.4byte	0x136
 624 02d8 05       		.byte	0x5
 625 02d9 03       		.byte	0x3
 626 02da 00000000 		.4byte	measurement_offset
 627 02de 1D       		.uleb128 0x1d
 628 02df 8D000000 		.4byte	.LASF38
 629 02e3 06       		.byte	0x6
 630 02e4 1A05     		.2byte	0x51a
 631 02e6 31010000 		.4byte	0x131
 632 02ea 01       		.byte	0x1
 633 02eb 01       		.byte	0x1
 634 02ec 00       		.byte	0
 635              		.section	.debug_abbrev,"",%progbits
 636              	.Ldebug_abbrev0:
 637 0000 01       		.uleb128 0x1
 638 0001 11       		.uleb128 0x11
 639 0002 01       		.byte	0x1
 640 0003 25       		.uleb128 0x25
 641 0004 0E       		.uleb128 0xe
 642 0005 13       		.uleb128 0x13
 643 0006 0B       		.uleb128 0xb
 644 0007 03       		.uleb128 0x3
 645 0008 0E       		.uleb128 0xe
 646 0009 1B       		.uleb128 0x1b
 647 000a 0E       		.uleb128 0xe
 648 000b 55       		.uleb128 0x55
 649 000c 06       		.uleb128 0x6
 650 000d 11       		.uleb128 0x11
 651 000e 01       		.uleb128 0x1
 652 000f 52       		.uleb128 0x52
 653 0010 01       		.uleb128 0x1
 654 0011 10       		.uleb128 0x10
 655 0012 06       		.uleb128 0x6
 656 0013 00       		.byte	0
 657 0014 00       		.byte	0
 658 0015 02       		.uleb128 0x2
 659 0016 24       		.uleb128 0x24
 660 0017 00       		.byte	0
 661 0018 0B       		.uleb128 0xb
 662 0019 0B       		.uleb128 0xb
 663 001a 3E       		.uleb128 0x3e
 664 001b 0B       		.uleb128 0xb
 665 001c 03       		.uleb128 0x3
 666 001d 08       		.uleb128 0x8
 667 001e 00       		.byte	0
 668 001f 00       		.byte	0
 669 0020 03       		.uleb128 0x3
 670 0021 24       		.uleb128 0x24
 671 0022 00       		.byte	0
 672 0023 0B       		.uleb128 0xb
 673 0024 0B       		.uleb128 0xb
 674 0025 3E       		.uleb128 0x3e
 675 0026 0B       		.uleb128 0xb
 676 0027 03       		.uleb128 0x3
 677 0028 0E       		.uleb128 0xe
ARM GAS  /var/folders/5n/p_75w94d66l9ssrldxqdhh700000gn/T//ccfnEOi3.s 			page 13


 678 0029 00       		.byte	0
 679 002a 00       		.byte	0
 680 002b 04       		.uleb128 0x4
 681 002c 16       		.uleb128 0x16
 682 002d 00       		.byte	0
 683 002e 03       		.uleb128 0x3
 684 002f 0E       		.uleb128 0xe
 685 0030 3A       		.uleb128 0x3a
 686 0031 0B       		.uleb128 0xb
 687 0032 3B       		.uleb128 0x3b
 688 0033 0B       		.uleb128 0xb
 689 0034 49       		.uleb128 0x49
 690 0035 13       		.uleb128 0x13
 691 0036 00       		.byte	0
 692 0037 00       		.byte	0
 693 0038 05       		.uleb128 0x5
 694 0039 35       		.uleb128 0x35
 695 003a 00       		.byte	0
 696 003b 49       		.uleb128 0x49
 697 003c 13       		.uleb128 0x13
 698 003d 00       		.byte	0
 699 003e 00       		.byte	0
 700 003f 06       		.uleb128 0x6
 701 0040 13       		.uleb128 0x13
 702 0041 01       		.byte	0x1
 703 0042 0B       		.uleb128 0xb
 704 0043 0B       		.uleb128 0xb
 705 0044 3A       		.uleb128 0x3a
 706 0045 0B       		.uleb128 0xb
 707 0046 3B       		.uleb128 0x3b
 708 0047 05       		.uleb128 0x5
 709 0048 01       		.uleb128 0x1
 710 0049 13       		.uleb128 0x13
 711 004a 00       		.byte	0
 712 004b 00       		.byte	0
 713 004c 07       		.uleb128 0x7
 714 004d 0D       		.uleb128 0xd
 715 004e 00       		.byte	0
 716 004f 03       		.uleb128 0x3
 717 0050 0E       		.uleb128 0xe
 718 0051 3A       		.uleb128 0x3a
 719 0052 0B       		.uleb128 0xb
 720 0053 3B       		.uleb128 0x3b
 721 0054 05       		.uleb128 0x5
 722 0055 49       		.uleb128 0x49
 723 0056 13       		.uleb128 0x13
 724 0057 38       		.uleb128 0x38
 725 0058 0A       		.uleb128 0xa
 726 0059 00       		.byte	0
 727 005a 00       		.byte	0
 728 005b 08       		.uleb128 0x8
 729 005c 16       		.uleb128 0x16
 730 005d 00       		.byte	0
 731 005e 03       		.uleb128 0x3
 732 005f 0E       		.uleb128 0xe
 733 0060 3A       		.uleb128 0x3a
 734 0061 0B       		.uleb128 0xb
ARM GAS  /var/folders/5n/p_75w94d66l9ssrldxqdhh700000gn/T//ccfnEOi3.s 			page 14


 735 0062 3B       		.uleb128 0x3b
 736 0063 05       		.uleb128 0x5
 737 0064 49       		.uleb128 0x49
 738 0065 13       		.uleb128 0x13
 739 0066 00       		.byte	0
 740 0067 00       		.byte	0
 741 0068 09       		.uleb128 0x9
 742 0069 13       		.uleb128 0x13
 743 006a 01       		.byte	0x1
 744 006b 03       		.uleb128 0x3
 745 006c 0E       		.uleb128 0xe
 746 006d 0B       		.uleb128 0xb
 747 006e 0B       		.uleb128 0xb
 748 006f 3A       		.uleb128 0x3a
 749 0070 0B       		.uleb128 0xb
 750 0071 3B       		.uleb128 0x3b
 751 0072 0B       		.uleb128 0xb
 752 0073 01       		.uleb128 0x1
 753 0074 13       		.uleb128 0x13
 754 0075 00       		.byte	0
 755 0076 00       		.byte	0
 756 0077 0A       		.uleb128 0xa
 757 0078 0D       		.uleb128 0xd
 758 0079 00       		.byte	0
 759 007a 03       		.uleb128 0x3
 760 007b 0E       		.uleb128 0xe
 761 007c 3A       		.uleb128 0x3a
 762 007d 0B       		.uleb128 0xb
 763 007e 3B       		.uleb128 0x3b
 764 007f 0B       		.uleb128 0xb
 765 0080 49       		.uleb128 0x49
 766 0081 13       		.uleb128 0x13
 767 0082 38       		.uleb128 0x38
 768 0083 0A       		.uleb128 0xa
 769 0084 00       		.byte	0
 770 0085 00       		.byte	0
 771 0086 0B       		.uleb128 0xb
 772 0087 15       		.uleb128 0x15
 773 0088 01       		.byte	0x1
 774 0089 27       		.uleb128 0x27
 775 008a 0C       		.uleb128 0xc
 776 008b 01       		.uleb128 0x1
 777 008c 13       		.uleb128 0x13
 778 008d 00       		.byte	0
 779 008e 00       		.byte	0
 780 008f 0C       		.uleb128 0xc
 781 0090 05       		.uleb128 0x5
 782 0091 00       		.byte	0
 783 0092 49       		.uleb128 0x49
 784 0093 13       		.uleb128 0x13
 785 0094 00       		.byte	0
 786 0095 00       		.byte	0
 787 0096 0D       		.uleb128 0xd
 788 0097 0F       		.uleb128 0xf
 789 0098 00       		.byte	0
 790 0099 0B       		.uleb128 0xb
 791 009a 0B       		.uleb128 0xb
ARM GAS  /var/folders/5n/p_75w94d66l9ssrldxqdhh700000gn/T//ccfnEOi3.s 			page 15


 792 009b 49       		.uleb128 0x49
 793 009c 13       		.uleb128 0x13
 794 009d 00       		.byte	0
 795 009e 00       		.byte	0
 796 009f 0E       		.uleb128 0xe
 797 00a0 2E       		.uleb128 0x2e
 798 00a1 01       		.byte	0x1
 799 00a2 3F       		.uleb128 0x3f
 800 00a3 0C       		.uleb128 0xc
 801 00a4 03       		.uleb128 0x3
 802 00a5 0E       		.uleb128 0xe
 803 00a6 3A       		.uleb128 0x3a
 804 00a7 0B       		.uleb128 0xb
 805 00a8 3B       		.uleb128 0x3b
 806 00a9 0B       		.uleb128 0xb
 807 00aa 27       		.uleb128 0x27
 808 00ab 0C       		.uleb128 0xc
 809 00ac 20       		.uleb128 0x20
 810 00ad 0B       		.uleb128 0xb
 811 00ae 01       		.uleb128 0x1
 812 00af 13       		.uleb128 0x13
 813 00b0 00       		.byte	0
 814 00b1 00       		.byte	0
 815 00b2 0F       		.uleb128 0xf
 816 00b3 05       		.uleb128 0x5
 817 00b4 00       		.byte	0
 818 00b5 03       		.uleb128 0x3
 819 00b6 08       		.uleb128 0x8
 820 00b7 3A       		.uleb128 0x3a
 821 00b8 0B       		.uleb128 0xb
 822 00b9 3B       		.uleb128 0x3b
 823 00ba 0B       		.uleb128 0xb
 824 00bb 49       		.uleb128 0x49
 825 00bc 13       		.uleb128 0x13
 826 00bd 00       		.byte	0
 827 00be 00       		.byte	0
 828 00bf 10       		.uleb128 0x10
 829 00c0 2E       		.uleb128 0x2e
 830 00c1 01       		.byte	0x1
 831 00c2 03       		.uleb128 0x3
 832 00c3 0E       		.uleb128 0xe
 833 00c4 3A       		.uleb128 0x3a
 834 00c5 0B       		.uleb128 0xb
 835 00c6 3B       		.uleb128 0x3b
 836 00c7 0B       		.uleb128 0xb
 837 00c8 27       		.uleb128 0x27
 838 00c9 0C       		.uleb128 0xc
 839 00ca 20       		.uleb128 0x20
 840 00cb 0B       		.uleb128 0xb
 841 00cc 01       		.uleb128 0x1
 842 00cd 13       		.uleb128 0x13
 843 00ce 00       		.byte	0
 844 00cf 00       		.byte	0
 845 00d0 11       		.uleb128 0x11
 846 00d1 2E       		.uleb128 0x2e
 847 00d2 01       		.byte	0x1
 848 00d3 31       		.uleb128 0x31
ARM GAS  /var/folders/5n/p_75w94d66l9ssrldxqdhh700000gn/T//ccfnEOi3.s 			page 16


 849 00d4 13       		.uleb128 0x13
 850 00d5 11       		.uleb128 0x11
 851 00d6 01       		.uleb128 0x1
 852 00d7 12       		.uleb128 0x12
 853 00d8 01       		.uleb128 0x1
 854 00d9 40       		.uleb128 0x40
 855 00da 0A       		.uleb128 0xa
 856 00db 9742     		.uleb128 0x2117
 857 00dd 0C       		.uleb128 0xc
 858 00de 01       		.uleb128 0x1
 859 00df 13       		.uleb128 0x13
 860 00e0 00       		.byte	0
 861 00e1 00       		.byte	0
 862 00e2 12       		.uleb128 0x12
 863 00e3 05       		.uleb128 0x5
 864 00e4 00       		.byte	0
 865 00e5 31       		.uleb128 0x31
 866 00e6 13       		.uleb128 0x13
 867 00e7 02       		.uleb128 0x2
 868 00e8 0A       		.uleb128 0xa
 869 00e9 00       		.byte	0
 870 00ea 00       		.byte	0
 871 00eb 13       		.uleb128 0x13
 872 00ec 2E       		.uleb128 0x2e
 873 00ed 01       		.byte	0x1
 874 00ee 03       		.uleb128 0x3
 875 00ef 0E       		.uleb128 0xe
 876 00f0 3A       		.uleb128 0x3a
 877 00f1 0B       		.uleb128 0xb
 878 00f2 3B       		.uleb128 0x3b
 879 00f3 0B       		.uleb128 0xb
 880 00f4 27       		.uleb128 0x27
 881 00f5 0C       		.uleb128 0xc
 882 00f6 11       		.uleb128 0x11
 883 00f7 01       		.uleb128 0x1
 884 00f8 12       		.uleb128 0x12
 885 00f9 01       		.uleb128 0x1
 886 00fa 40       		.uleb128 0x40
 887 00fb 06       		.uleb128 0x6
 888 00fc 9742     		.uleb128 0x2117
 889 00fe 0C       		.uleb128 0xc
 890 00ff 01       		.uleb128 0x1
 891 0100 13       		.uleb128 0x13
 892 0101 00       		.byte	0
 893 0102 00       		.byte	0
 894 0103 14       		.uleb128 0x14
 895 0104 05       		.uleb128 0x5
 896 0105 00       		.byte	0
 897 0106 03       		.uleb128 0x3
 898 0107 08       		.uleb128 0x8
 899 0108 3A       		.uleb128 0x3a
 900 0109 0B       		.uleb128 0xb
 901 010a 3B       		.uleb128 0x3b
 902 010b 0B       		.uleb128 0xb
 903 010c 49       		.uleb128 0x49
 904 010d 13       		.uleb128 0x13
 905 010e 02       		.uleb128 0x2
ARM GAS  /var/folders/5n/p_75w94d66l9ssrldxqdhh700000gn/T//ccfnEOi3.s 			page 17


 906 010f 0A       		.uleb128 0xa
 907 0110 00       		.byte	0
 908 0111 00       		.byte	0
 909 0112 15       		.uleb128 0x15
 910 0113 34       		.uleb128 0x34
 911 0114 00       		.byte	0
 912 0115 03       		.uleb128 0x3
 913 0116 08       		.uleb128 0x8
 914 0117 3A       		.uleb128 0x3a
 915 0118 0B       		.uleb128 0xb
 916 0119 3B       		.uleb128 0x3b
 917 011a 0B       		.uleb128 0xb
 918 011b 49       		.uleb128 0x49
 919 011c 13       		.uleb128 0x13
 920 011d 02       		.uleb128 0x2
 921 011e 06       		.uleb128 0x6
 922 011f 00       		.byte	0
 923 0120 00       		.byte	0
 924 0121 16       		.uleb128 0x16
 925 0122 2E       		.uleb128 0x2e
 926 0123 01       		.byte	0x1
 927 0124 3F       		.uleb128 0x3f
 928 0125 0C       		.uleb128 0xc
 929 0126 03       		.uleb128 0x3
 930 0127 0E       		.uleb128 0xe
 931 0128 3A       		.uleb128 0x3a
 932 0129 0B       		.uleb128 0xb
 933 012a 3B       		.uleb128 0x3b
 934 012b 0B       		.uleb128 0xb
 935 012c 27       		.uleb128 0x27
 936 012d 0C       		.uleb128 0xc
 937 012e 11       		.uleb128 0x11
 938 012f 01       		.uleb128 0x1
 939 0130 12       		.uleb128 0x12
 940 0131 01       		.uleb128 0x1
 941 0132 40       		.uleb128 0x40
 942 0133 06       		.uleb128 0x6
 943 0134 9742     		.uleb128 0x2117
 944 0136 0C       		.uleb128 0xc
 945 0137 01       		.uleb128 0x1
 946 0138 13       		.uleb128 0x13
 947 0139 00       		.byte	0
 948 013a 00       		.byte	0
 949 013b 17       		.uleb128 0x17
 950 013c 34       		.uleb128 0x34
 951 013d 00       		.byte	0
 952 013e 03       		.uleb128 0x3
 953 013f 08       		.uleb128 0x8
 954 0140 3A       		.uleb128 0x3a
 955 0141 0B       		.uleb128 0xb
 956 0142 3B       		.uleb128 0x3b
 957 0143 0B       		.uleb128 0xb
 958 0144 49       		.uleb128 0x49
 959 0145 13       		.uleb128 0x13
 960 0146 02       		.uleb128 0x2
 961 0147 0A       		.uleb128 0xa
 962 0148 00       		.byte	0
ARM GAS  /var/folders/5n/p_75w94d66l9ssrldxqdhh700000gn/T//ccfnEOi3.s 			page 18


 963 0149 00       		.byte	0
 964 014a 18       		.uleb128 0x18
 965 014b 1D       		.uleb128 0x1d
 966 014c 01       		.byte	0x1
 967 014d 31       		.uleb128 0x31
 968 014e 13       		.uleb128 0x13
 969 014f 52       		.uleb128 0x52
 970 0150 01       		.uleb128 0x1
 971 0151 55       		.uleb128 0x55
 972 0152 06       		.uleb128 0x6
 973 0153 58       		.uleb128 0x58
 974 0154 0B       		.uleb128 0xb
 975 0155 59       		.uleb128 0x59
 976 0156 0B       		.uleb128 0xb
 977 0157 01       		.uleb128 0x1
 978 0158 13       		.uleb128 0x13
 979 0159 00       		.byte	0
 980 015a 00       		.byte	0
 981 015b 19       		.uleb128 0x19
 982 015c 05       		.uleb128 0x5
 983 015d 00       		.byte	0
 984 015e 31       		.uleb128 0x31
 985 015f 13       		.uleb128 0x13
 986 0160 02       		.uleb128 0x2
 987 0161 06       		.uleb128 0x6
 988 0162 00       		.byte	0
 989 0163 00       		.byte	0
 990 0164 1A       		.uleb128 0x1a
 991 0165 898201   		.uleb128 0x4109
 992 0168 01       		.byte	0x1
 993 0169 11       		.uleb128 0x11
 994 016a 01       		.uleb128 0x1
 995 016b 31       		.uleb128 0x31
 996 016c 13       		.uleb128 0x13
 997 016d 00       		.byte	0
 998 016e 00       		.byte	0
 999 016f 1B       		.uleb128 0x1b
 1000 0170 8A8201   		.uleb128 0x410a
 1001 0173 00       		.byte	0
 1002 0174 02       		.uleb128 0x2
 1003 0175 0A       		.uleb128 0xa
 1004 0176 9142     		.uleb128 0x2111
 1005 0178 0A       		.uleb128 0xa
 1006 0179 00       		.byte	0
 1007 017a 00       		.byte	0
 1008 017b 1C       		.uleb128 0x1c
 1009 017c 34       		.uleb128 0x34
 1010 017d 00       		.byte	0
 1011 017e 03       		.uleb128 0x3
 1012 017f 0E       		.uleb128 0xe
 1013 0180 3A       		.uleb128 0x3a
 1014 0181 0B       		.uleb128 0xb
 1015 0182 3B       		.uleb128 0x3b
 1016 0183 0B       		.uleb128 0xb
 1017 0184 49       		.uleb128 0x49
 1018 0185 13       		.uleb128 0x13
 1019 0186 02       		.uleb128 0x2
ARM GAS  /var/folders/5n/p_75w94d66l9ssrldxqdhh700000gn/T//ccfnEOi3.s 			page 19


 1020 0187 0A       		.uleb128 0xa
 1021 0188 00       		.byte	0
 1022 0189 00       		.byte	0
 1023 018a 1D       		.uleb128 0x1d
 1024 018b 34       		.uleb128 0x34
 1025 018c 00       		.byte	0
 1026 018d 03       		.uleb128 0x3
 1027 018e 0E       		.uleb128 0xe
 1028 018f 3A       		.uleb128 0x3a
 1029 0190 0B       		.uleb128 0xb
 1030 0191 3B       		.uleb128 0x3b
 1031 0192 05       		.uleb128 0x5
 1032 0193 49       		.uleb128 0x49
 1033 0194 13       		.uleb128 0x13
 1034 0195 3F       		.uleb128 0x3f
 1035 0196 0C       		.uleb128 0xc
 1036 0197 3C       		.uleb128 0x3c
 1037 0198 0C       		.uleb128 0xc
 1038 0199 00       		.byte	0
 1039 019a 00       		.byte	0
 1040 019b 00       		.byte	0
 1041              		.section	.debug_loc,"",%progbits
 1042              	.Ldebug_loc0:
 1043              	.LLST0:
 1044 0000 00000000 		.4byte	.LFB118
 1045 0004 10000000 		.4byte	.LCFI0
 1046 0008 0200     		.2byte	0x2
 1047 000a 7D       		.byte	0x7d
 1048 000b 00       		.sleb128 0
 1049 000c 10000000 		.4byte	.LCFI0
 1050 0010 34000000 		.4byte	.LFE118
 1051 0014 0200     		.2byte	0x2
 1052 0016 7D       		.byte	0x7d
 1053 0017 04       		.sleb128 4
 1054 0018 00000000 		.4byte	0
 1055 001c 00000000 		.4byte	0
 1056              	.LLST1:
 1057 0020 0C000000 		.4byte	.LVL2
 1058 0024 16000000 		.4byte	.LVL3
 1059 0028 0100     		.2byte	0x1
 1060 002a 53       		.byte	0x53
 1061 002b 00000000 		.4byte	0
 1062 002f 00000000 		.4byte	0
 1063              	.LLST2:
 1064 0033 00000000 		.4byte	.LFB119
 1065 0037 02000000 		.4byte	.LCFI1
 1066 003b 0200     		.2byte	0x2
 1067 003d 7D       		.byte	0x7d
 1068 003e 00       		.sleb128 0
 1069 003f 02000000 		.4byte	.LCFI1
 1070 0043 08000000 		.4byte	.LCFI2
 1071 0047 0200     		.2byte	0x2
 1072 0049 7D       		.byte	0x7d
 1073 004a 08       		.sleb128 8
 1074 004b 08000000 		.4byte	.LCFI2
 1075 004f 46000000 		.4byte	.LFE119
 1076 0053 0200     		.2byte	0x2
ARM GAS  /var/folders/5n/p_75w94d66l9ssrldxqdhh700000gn/T//ccfnEOi3.s 			page 20


 1077 0055 7D       		.byte	0x7d
 1078 0056 20       		.sleb128 32
 1079 0057 00000000 		.4byte	0
 1080 005b 00000000 		.4byte	0
 1081              	.LLST3:
 1082 005f 10000000 		.4byte	.LVL4
 1083 0063 36000000 		.4byte	.LVL6
 1084 0067 0300     		.2byte	0x3
 1085 0069 91       		.byte	0x91
 1086 006a 64       		.sleb128 -28
 1087 006b 9F       		.byte	0x9f
 1088 006c 36000000 		.4byte	.LVL6
 1089 0070 3D000000 		.4byte	.LVL7-1
 1090 0074 0100     		.2byte	0x1
 1091 0076 50       		.byte	0x50
 1092 0077 3D000000 		.4byte	.LVL7-1
 1093 007b 46000000 		.4byte	.LFE119
 1094 007f 0300     		.2byte	0x3
 1095 0081 91       		.byte	0x91
 1096 0082 64       		.sleb128 -28
 1097 0083 9F       		.byte	0x9f
 1098 0084 00000000 		.4byte	0
 1099 0088 00000000 		.4byte	0
 1100              	.LLST4:
 1101 008c 1C000000 		.4byte	.LVL5
 1102 0090 36000000 		.4byte	.LVL6
 1103 0094 0300     		.2byte	0x3
 1104 0096 91       		.byte	0x91
 1105 0097 64       		.sleb128 -28
 1106 0098 9F       		.byte	0x9f
 1107 0099 36000000 		.4byte	.LVL6
 1108 009d 3D000000 		.4byte	.LVL7-1
 1109 00a1 0100     		.2byte	0x1
 1110 00a3 50       		.byte	0x50
 1111 00a4 3D000000 		.4byte	.LVL7-1
 1112 00a8 46000000 		.4byte	.LFE119
 1113 00ac 0300     		.2byte	0x3
 1114 00ae 91       		.byte	0x91
 1115 00af 64       		.sleb128 -28
 1116 00b0 9F       		.byte	0x9f
 1117 00b1 00000000 		.4byte	0
 1118 00b5 00000000 		.4byte	0
 1119              		.section	.debug_aranges,"",%progbits
 1120 0000 34000000 		.4byte	0x34
 1121 0004 0200     		.2byte	0x2
 1122 0006 00000000 		.4byte	.Ldebug_info0
 1123 000a 04       		.byte	0x4
 1124 000b 00       		.byte	0
 1125 000c 0000     		.2byte	0
 1126 000e 0000     		.2byte	0
 1127 0010 00000000 		.4byte	.LFB117
 1128 0014 0E000000 		.4byte	.LFE117-.LFB117
 1129 0018 00000000 		.4byte	.LFB118
 1130 001c 34000000 		.4byte	.LFE118-.LFB118
 1131 0020 00000000 		.4byte	.LFB119
 1132 0024 46000000 		.4byte	.LFE119-.LFB119
 1133 0028 00000000 		.4byte	.LFB120
ARM GAS  /var/folders/5n/p_75w94d66l9ssrldxqdhh700000gn/T//ccfnEOi3.s 			page 21


 1134 002c 22000000 		.4byte	.LFE120-.LFB120
 1135 0030 00000000 		.4byte	0
 1136 0034 00000000 		.4byte	0
 1137              		.section	.debug_ranges,"",%progbits
 1138              	.Ldebug_ranges0:
 1139 0000 10000000 		.4byte	.LBB8
 1140 0004 12000000 		.4byte	.LBE8
 1141 0008 16000000 		.4byte	.LBB19
 1142 000c 1C000000 		.4byte	.LBE19
 1143 0010 20000000 		.4byte	.LBB21
 1144 0014 28000000 		.4byte	.LBE21
 1145 0018 2A000000 		.4byte	.LBB23
 1146 001c 34000000 		.4byte	.LBE23
 1147 0020 38000000 		.4byte	.LBB25
 1148 0024 3A000000 		.4byte	.LBE25
 1149 0028 00000000 		.4byte	0
 1150 002c 00000000 		.4byte	0
 1151 0030 12000000 		.4byte	.LBB14
 1152 0034 16000000 		.4byte	.LBE14
 1153 0038 1C000000 		.4byte	.LBB20
 1154 003c 20000000 		.4byte	.LBE20
 1155 0040 28000000 		.4byte	.LBB22
 1156 0044 2A000000 		.4byte	.LBE22
 1157 0048 36000000 		.4byte	.LBB24
 1158 004c 38000000 		.4byte	.LBE24
 1159 0050 00000000 		.4byte	0
 1160 0054 00000000 		.4byte	0
 1161 0058 00000000 		.4byte	.LFB117
 1162 005c 0E000000 		.4byte	.LFE117
 1163 0060 00000000 		.4byte	.LFB118
 1164 0064 34000000 		.4byte	.LFE118
 1165 0068 00000000 		.4byte	.LFB119
 1166 006c 46000000 		.4byte	.LFE119
 1167 0070 00000000 		.4byte	.LFB120
 1168 0074 22000000 		.4byte	.LFE120
 1169 0078 00000000 		.4byte	0
 1170 007c 00000000 		.4byte	0
 1171              		.section	.debug_line,"",%progbits
 1172              	.Ldebug_line0:
 1173 0000 BA010000 		.section	.debug_str,"MS",%progbits,1
 1173      02003201 
 1173      00000201 
 1173      FB0E0D00 
 1173      01010101 
 1174              	.LASF20:
 1175 0000 50435352 		.ascii	"PCSR\000"
 1175      00
 1176              	.LASF36:
 1177 0005 746D5F73 		.ascii	"tm_stop\000"
 1177      746F7000 
 1178              	.LASF25:
 1179 000d 73746172 		.ascii	"start\000"
 1179      7400
 1180              	.LASF17:
 1181 0013 534C4545 		.ascii	"SLEEPCNT\000"
 1181      50434E54 
 1181      00
ARM GAS  /var/folders/5n/p_75w94d66l9ssrldxqdhh700000gn/T//ccfnEOi3.s 			page 22


 1182              	.LASF26:
 1183 001c 73746F70 		.ascii	"stop\000"
 1183      00
 1184              	.LASF10:
 1185 0021 6C6F6E67 		.ascii	"long long unsigned int\000"
 1185      206C6F6E 
 1185      6720756E 
 1185      7369676E 
 1185      65642069 
 1186              	.LASF2:
 1187 0038 756E7369 		.ascii	"unsigned char\000"
 1187      676E6564 
 1187      20636861 
 1187      7200
 1188              	.LASF14:
 1189 0046 43594343 		.ascii	"CYCCNT\000"
 1189      4E5400
 1190              	.LASF37:
 1191 004d 746D496E 		.ascii	"tmInit\000"
 1191      697400
 1192              	.LASF8:
 1193 0054 6C6F6E67 		.ascii	"long unsigned int\000"
 1193      20756E73 
 1193      69676E65 
 1193      6420696E 
 1193      7400
 1194              	.LASF34:
 1195 0066 746D4F62 		.ascii	"tmObjectInit\000"
 1195      6A656374 
 1195      496E6974 
 1195      00
 1196              	.LASF4:
 1197 0073 73686F72 		.ascii	"short unsigned int\000"
 1197      7420756E 
 1197      7369676E 
 1197      65642069 
 1197      6E7400
 1198              	.LASF15:
 1199 0086 43504943 		.ascii	"CPICNT\000"
 1199      4E5400
 1200              	.LASF38:
 1201 008d 49544D5F 		.ascii	"ITM_RxBuffer\000"
 1201      52784275 
 1201      66666572 
 1201      00
 1202              	.LASF19:
 1203 009a 464F4C44 		.ascii	"FOLDCNT\000"
 1203      434E5400 
 1204              	.LASF28:
 1205 00a2 776F7273 		.ascii	"worst\000"
 1205      7400
 1206              	.LASF18:
 1207 00a8 4C535543 		.ascii	"LSUCNT\000"
 1207      4E5400
 1208              	.LASF0:
 1209 00af 756E7369 		.ascii	"unsigned int\000"
 1209      676E6564 
ARM GAS  /var/folders/5n/p_75w94d66l9ssrldxqdhh700000gn/T//ccfnEOi3.s 			page 23


 1209      20696E74 
 1209      00
 1210              	.LASF23:
 1211 00bc 68616C72 		.ascii	"halrtcnt_t\000"
 1211      74636E74 
 1211      5F7400
 1212              	.LASF22:
 1213 00c7 63686172 		.ascii	"char\000"
 1213      00
 1214              	.LASF35:
 1215 00cc 746D5F73 		.ascii	"tm_start\000"
 1215      74617274 
 1215      00
 1216              	.LASF13:
 1217 00d5 4354524C 		.ascii	"CTRL\000"
 1217      00
 1218              	.LASF16:
 1219 00da 45584343 		.ascii	"EXCCNT\000"
 1219      4E5400
 1220              	.LASF6:
 1221 00e1 696E7433 		.ascii	"int32_t\000"
 1221      325F7400 
 1222              	.LASF12:
 1223 00e9 73697A65 		.ascii	"sizetype\000"
 1223      74797065 
 1223      00
 1224              	.LASF9:
 1225 00f2 6C6F6E67 		.ascii	"long long int\000"
 1225      206C6F6E 
 1225      6720696E 
 1225      7400
 1226              	.LASF11:
 1227 0100 494F5245 		.ascii	"IOREG32\000"
 1227      47333200 
 1228              	.LASF31:
 1229 0108 474E5520 		.ascii	"GNU C 4.7.2\000"
 1229      4320342E 
 1229      372E3200 
 1230              	.LASF33:
 1231 0114 2F557365 		.ascii	"/Users/sin/Documents/Eclipse/Workspace/ChibiOS_2.4."
 1231      72732F73 
 1231      696E2F44 
 1231      6F63756D 
 1231      656E7473 
 1232 0147 322F6465 		.ascii	"2/demos/ARMCM4-STM32F407-LWIP\000"
 1232      6D6F732F 
 1232      41524D43 
 1232      4D342D53 
 1232      544D3332 
 1233              	.LASF30:
 1234 0165 6D656173 		.ascii	"measurement_offset\000"
 1234      7572656D 
 1234      656E745F 
 1234      6F666673 
 1234      657400
 1235              	.LASF3:
 1236 0178 73686F72 		.ascii	"short int\000"
ARM GAS  /var/folders/5n/p_75w94d66l9ssrldxqdhh700000gn/T//ccfnEOi3.s 			page 24


 1236      7420696E 
 1236      7400
 1237              	.LASF32:
 1238 0182 2E2E2F2E 		.ascii	"../../os/hal/src/tm.c\000"
 1238      2E2F6F73 
 1238      2F68616C 
 1238      2F737263 
 1238      2F746D2E 
 1239              	.LASF21:
 1240 0198 434D785F 		.ascii	"CMx_DWT\000"
 1240      44575400 
 1241              	.LASF29:
 1242 01a0 62657374 		.ascii	"best\000"
 1242      00
 1243              	.LASF7:
 1244 01a5 75696E74 		.ascii	"uint32_t\000"
 1244      33325F74 
 1244      00
 1245              	.LASF5:
 1246 01ae 6C6F6E67 		.ascii	"long int\000"
 1246      20696E74 
 1246      00
 1247              	.LASF1:
 1248 01b7 7369676E 		.ascii	"signed char\000"
 1248      65642063 
 1248      68617200 
 1249              	.LASF24:
 1250 01c3 54696D65 		.ascii	"TimeMeasurement\000"
 1250      4D656173 
 1250      7572656D 
 1250      656E7400 
 1251              	.LASF27:
 1252 01d3 6C617374 		.ascii	"last\000"
 1252      00
 1253              		.ident	"GCC: (GNU) 4.7.2"
ARM GAS  /var/folders/5n/p_75w94d66l9ssrldxqdhh700000gn/T//ccfnEOi3.s 			page 25


DEFINED SYMBOLS
                            *ABS*:0000000000000000 tm.c
/var/folders/5n/p_75w94d66l9ssrldxqdhh700000gn/T//ccfnEOi3.s:19     .text.tm_start:0000000000000000 $t
/var/folders/5n/p_75w94d66l9ssrldxqdhh700000gn/T//ccfnEOi3.s:24     .text.tm_start:0000000000000000 tm_start
/var/folders/5n/p_75w94d66l9ssrldxqdhh700000gn/T//ccfnEOi3.s:43     .text.tm_stop:0000000000000000 $t
/var/folders/5n/p_75w94d66l9ssrldxqdhh700000gn/T//ccfnEOi3.s:48     .text.tm_stop:0000000000000000 tm_stop
/var/folders/5n/p_75w94d66l9ssrldxqdhh700000gn/T//ccfnEOi3.s:101    .text.tm_stop:0000000000000030 $d
/var/folders/5n/p_75w94d66l9ssrldxqdhh700000gn/T//ccfnEOi3.s:106    .text.tmInit:0000000000000000 $t
/var/folders/5n/p_75w94d66l9ssrldxqdhh700000gn/T//ccfnEOi3.s:112    .text.tmInit:0000000000000000 tmInit
/var/folders/5n/p_75w94d66l9ssrldxqdhh700000gn/T//ccfnEOi3.s:250    .bss.measurement_offset:0000000000000000 .LANCHOR0
/var/folders/5n/p_75w94d66l9ssrldxqdhh700000gn/T//ccfnEOi3.s:210    .text.tmObjectInit:0000000000000000 $t
/var/folders/5n/p_75w94d66l9ssrldxqdhh700000gn/T//ccfnEOi3.s:216    .text.tmObjectInit:0000000000000000 tmObjectInit
/var/folders/5n/p_75w94d66l9ssrldxqdhh700000gn/T//ccfnEOi3.s:249    .bss.measurement_offset:0000000000000000 $d
/var/folders/5n/p_75w94d66l9ssrldxqdhh700000gn/T//ccfnEOi3.s:253    .bss.measurement_offset:0000000000000000 measurement_offset
                     .debug_frame:0000000000000010 $d
/var/folders/5n/p_75w94d66l9ssrldxqdhh700000gn/T//ccfnEOi3.s:105    .text.tm_stop:0000000000000034 $t

NO UNDEFINED SYMBOLS
