ARM GAS  /var/folders/5n/p_75w94d66l9ssrldxqdhh700000gn/T//ccfnEOi3.s 			page 1


   1              		.syntax unified
   2              		.cpu cortex-m4
   3              		.fpu softvfp
   4              		.eabi_attribute 20, 1
   5              		.eabi_attribute 21, 1
   6              		.eabi_attribute 23, 3
   7              		.eabi_attribute 24, 1
   8              		.eabi_attribute 25, 1
   9              		.eabi_attribute 26, 1
  10              		.eabi_attribute 30, 2
  11              		.eabi_attribute 34, 1
  12              		.eabi_attribute 18, 4
  13              		.thumb
  14              		.file	"tm.c"
  15              		.text
  16              	.Ltext0:
  17              		.cfi_sections	.debug_frame
  18              		.section	.text.tm_start,"ax",%progbits
  19              		.align	2
  20              		.p2align 4,,15
  21              		.thumb
  22              		.thumb_func
  23              		.type	tm_start, %function
  24              	tm_start:
  25              	.LFB117:
  26              		.file 1 "../../os/hal/src/tm.c"
  27              		.loc 1 69 0
  28              		.cfi_startproc
  29              		@ args = 0, pretend = 0, frame = 0
  30              		@ frame_needed = 0, uses_anonymous_args = 0
  31              		@ link register save eliminated.
  32              	.LVL0:
  33              		.loc 1 71 0
  34 0000 4FF48053 		mov	r3, #4096
  35 0004 CEF20003 		movt	r3, 57344
  36 0008 5B68     		ldr	r3, [r3, #4]
  37 000a 8360     		str	r3, [r0, #8]
  38 000c 7047     		bx	lr
  39              		.cfi_endproc
  40              	.LFE117:
  41              		.size	tm_start, .-tm_start
  42 000e 00BF     		.section	.text.tm_stop,"ax",%progbits
  43              		.align	2
  44              		.p2align 4,,15
  45              		.thumb
  46              		.thumb_func
  47              		.type	tm_stop, %function
  48              	tm_stop:
  49              	.LFB118:
  50              		.loc 1 81 0
  51              		.cfi_startproc
  52              		@ args = 0, pretend = 0, frame = 0
  53              		@ frame_needed = 0, uses_anonymous_args = 0
  54              		@ link register save eliminated.
  55              	.LVL1:
  56              		.loc 1 83 0
  57 0000 4FF48053 		mov	r3, #4096
ARM GAS  /var/folders/5n/p_75w94d66l9ssrldxqdhh700000gn/T//ccfnEOi3.s 			page 2


  58 0004 CEF20003 		movt	r3, 57344
  59              		.loc 1 84 0
  60 0008 094A     		ldr	r2, .L6
  61              		.loc 1 83 0
  62 000a 5B68     		ldr	r3, [r3, #4]
  63              	.LVL2:
  64              		.loc 1 84 0
  65 000c 8168     		ldr	r1, [r0, #8]
  66              		.loc 1 81 0
  67 000e 10B4     		push	{r4}
  68              	.LCFI0:
  69              		.cfi_def_cfa_offset 4
  70              		.cfi_offset 4, -4
  71              		.loc 1 84 0
  72 0010 1468     		ldr	r4, [r2, #0]
  73              		.loc 1 85 0
  74 0012 C268     		ldr	r2, [r0, #12]
  75              		.loc 1 84 0
  76 0014 5B1A     		subs	r3, r3, r1
  77              	.LVL3:
  78 0016 1B1B     		subs	r3, r3, r4
  79              		.loc 1 85 0
  80 0018 9342     		cmp	r3, r2
  81              		.loc 1 84 0
  82 001a 8360     		str	r3, [r0, #8]
  83              		.loc 1 86 0
  84 001c 88BF     		it	hi
  85 001e C360     		strhi	r3, [r0, #12]
  86              		.loc 1 85 0
  87 0020 03D8     		bhi	.L2
  88              		.loc 1 87 0
  89 0022 0269     		ldr	r2, [r0, #16]
  90 0024 9342     		cmp	r3, r2
  91              		.loc 1 88 0
  92 0026 38BF     		it	cc
  93 0028 0361     		strcc	r3, [r0, #16]
  94              	.L2:
  95              		.loc 1 89 0
  96 002a 10BC     		pop	{r4}
  97 002c 7047     		bx	lr
  98              	.L7:
  99 002e 00BF     		.align	2
 100              	.L6:
 101 0030 00000000 		.word	.LANCHOR0
 102              		.cfi_endproc
 103              	.LFE118:
 104              		.size	tm_stop, .-tm_stop
 105 0034 AFF30080 		.section	.text.tmInit,"ax",%progbits
 105      AFF30080 
 105      AFF30080 
 106              		.align	2
 107              		.p2align 4,,15
 108              		.global	tmInit
 109              		.thumb
 110              		.thumb_func
 111              		.type	tmInit, %function
 112              	tmInit:
ARM GAS  /var/folders/5n/p_75w94d66l9ssrldxqdhh700000gn/T//ccfnEOi3.s 			page 3


 113              	.LFB119:
 114              		.loc 1 104 0
 115              		.cfi_startproc
 116              		@ args = 0, pretend = 0, frame = 24
 117              		@ frame_needed = 0, uses_anonymous_args = 0
 118 0000 10B5     		push	{r4, lr}
 119              	.LCFI1:
 120              		.cfi_def_cfa_offset 8
 121              		.cfi_offset 4, -8
 122              		.cfi_offset 14, -4
 123              		.loc 1 110 0
 124 0002 40F20004 		movw	r4, #:lower16:.LANCHOR0
 125              		.loc 1 104 0
 126 0006 86B0     		sub	sp, sp, #24
 127              	.LCFI2:
 128              		.cfi_def_cfa_offset 32
 129              		.loc 1 110 0
 130 0008 C0F20004 		movt	r4, #:upper16:.LANCHOR0
 131 000c 0022     		movs	r2, #0
 132 000e 2260     		str	r2, [r4, #0]
 133              	.LVL4:
 134              	.LBB8:
 135              	.LBB9:
 136              		.loc 1 129 0
 137 0010 0492     		str	r2, [sp, #16]
 138              	.LBE9:
 139              	.LBE8:
 140              	.LBB14:
 141              	.LBB15:
 142              		.loc 1 71 0
 143 0012 4FF48053 		mov	r3, #4096
 144              	.LBE15:
 145              	.LBE14:
 146              	.LBB19:
 147              	.LBB10:
 148              		.loc 1 130 0
 149 0016 4FF0FF32 		mov	r2, #-1
 150 001a 0592     		str	r2, [sp, #20]
 151              	.LVL5:
 152              	.LBE10:
 153              	.LBE19:
 154              	.LBB20:
 155              	.LBB16:
 156              		.loc 1 71 0
 157 001c CEF20003 		movt	r3, 57344
 158              	.LBE16:
 159              	.LBE20:
 160              	.LBB21:
 161              	.LBB11:
 162              		.loc 1 126 0
 163 0020 40F20002 		movw	r2, #:lower16:tm_start
 164 0024 C0F20002 		movt	r2, #:upper16:tm_start
 165              	.LBE11:
 166              	.LBE21:
 167              	.LBB22:
 168              	.LBB17:
 169              		.loc 1 71 0
ARM GAS  /var/folders/5n/p_75w94d66l9ssrldxqdhh700000gn/T//ccfnEOi3.s 			page 4


 170 0028 5B68     		ldr	r3, [r3, #4]
 171              	.LBE17:
 172              	.LBE22:
 173              	.LBB23:
 174              	.LBB12:
 175              		.loc 1 126 0
 176 002a 0192     		str	r2, [sp, #4]
 177              		.loc 1 127 0
 178 002c 40F20002 		movw	r2, #:lower16:tm_stop
 179 0030 C0F20002 		movt	r2, #:upper16:tm_stop
 180              	.LBE12:
 181              	.LBE23:
 182              		.loc 1 113 0
 183 0034 01A8     		add	r0, sp, #4
 184              	.LVL6:
 185              	.LBB24:
 186              	.LBB18:
 187              		.loc 1 71 0
 188 0036 0393     		str	r3, [sp, #12]
 189              	.LBE18:
 190              	.LBE24:
 191              	.LBB25:
 192              	.LBB13:
 193              		.loc 1 127 0
 194 0038 0292     		str	r2, [sp, #8]
 195              	.LBE13:
 196              	.LBE25:
 197              		.loc 1 113 0
 198 003a FFF7FEFF 		bl	tm_stop
 199              	.LVL7:
 200              		.loc 1 114 0
 201 003e 039B     		ldr	r3, [sp, #12]
 202 0040 2360     		str	r3, [r4, #0]
 203              		.loc 1 115 0
 204 0042 06B0     		add	sp, sp, #24
 205 0044 10BD     		pop	{r4, pc}
 206              		.cfi_endproc
 207              	.LFE119:
 208              		.size	tmInit, .-tmInit
 209 0046 00BFAFF3 		.section	.text.tmObjectInit,"ax",%progbits
 209      0080AFF3 
 209      0080
 210              		.align	2
 211              		.p2align 4,,15
 212              		.global	tmObjectInit
 213              		.thumb
 214              		.thumb_func
 215              		.type	tmObjectInit, %function
 216              	tmObjectInit:
 217              	.LFB120:
 218              		.loc 1 124 0
 219              		.cfi_startproc
 220              		@ args = 0, pretend = 0, frame = 0
 221              		@ frame_needed = 0, uses_anonymous_args = 0
 222              		@ link register save eliminated.
 223              	.LVL8:
 224              		.loc 1 126 0
ARM GAS  /var/folders/5n/p_75w94d66l9ssrldxqdhh700000gn/T//ccfnEOi3.s 			page 5


 225 0000 40F20002 		movw	r2, #:lower16:tm_start
 226 0004 C0F20002 		movt	r2, #:upper16:tm_start
 227              		.loc 1 128 0
 228 0008 0023     		movs	r3, #0
 229              		.loc 1 126 0
 230 000a 0260     		str	r2, [r0, #0]
 231              		.loc 1 127 0
 232 000c 40F20002 		movw	r2, #:lower16:tm_stop
 233 0010 C0F20002 		movt	r2, #:upper16:tm_stop
 234              		.loc 1 128 0
 235 0014 8360     		str	r3, [r0, #8]
 236              		.loc 1 129 0
 237 0016 C360     		str	r3, [r0, #12]
 238              		.loc 1 130 0
 239 0018 4FF0FF33 		mov	r3, #-1
 240              		.loc 1 127 0
 241 001c 4260     		str	r2, [r0, #4]
 242              		.loc 1 130 0
 243 001e 0361     		str	r3, [r0, #16]
 244 0020 7047     		bx	lr
 245              		.cfi_endproc
 246              	.LFE120:
 247              		.size	tmObjectInit, .-tmObjectInit
 248 0022 00BFAFF3 		.section	.bss.measurement_offset,"aw",%nobits
 248      0080AFF3 
 248      0080AFF3 
 248      0080
 249              		.align	2
 250              		.set	.LANCHOR0,. + 0
 251              		.type	measurement_offset, %object
 252              		.size	measurement_offset, 4
 253              	measurement_offset:
 254 0000 00000000 		.space	4
 255              		.text
 256              	.Letext0:
 257              		.file 2 "/usr/local/cross/lib/gcc/arm-none-eabi/4.7.2/../../../../arm-none-eabi/include/stdint.h"
 258              		.file 3 "../../os/ports/common/ARMCMx/nvic.h"
 259              		.file 4 "../../os/hal/platforms/STM32F4xx/hal_lld.h"
 260              		.file 5 "../../os/hal/include/tm.h"
 261              		.file 6 "../../os/ports/common/ARMCMx/CMSIS/include/core_cm4.h"