ARM GAS  /var/folders/5n/p_75w94d66l9ssrldxqdhh700000gn/T//ccNT7h4C.s 			page 1


   1              		.syntax unified
   2              		.cpu cortex-m4
   3              		.fpu softvfp
   4              		.eabi_attribute 20, 1
   5              		.eabi_attribute 21, 1
   6              		.eabi_attribute 23, 3
   7              		.eabi_attribute 24, 1
   8              		.eabi_attribute 25, 1
   9              		.eabi_attribute 26, 1
  10              		.eabi_attribute 30, 2
  11              		.eabi_attribute 34, 1
  12              		.eabi_attribute 18, 4
  13              		.thumb
  14              		.file	"udp.c"
  15              		.text
  16              	.Ltext0:
  17              		.cfi_sections	.debug_frame
  18              		.section	.text.udp_input,"ax",%progbits
  19              		.align	2
  20              		.p2align 4,,15
  21              		.global	udp_input
  22              		.thumb
  23              		.thumb_func
  24              		.type	udp_input, %function
  25              	udp_input:
  26              	.LFB7:
  27              		.file 1 "../../ext/lwip-1.4.0/src/core/udp.c"
  28              		.loc 1 85 0
  29              		.cfi_startproc
  30              		@ args = 0, pretend = 0, frame = 16
  31              		@ frame_needed = 0, uses_anonymous_args = 0
  32              	.LVL0:
  33 0000 2DE9F04F 		push	{r4, r5, r6, r7, r8, r9, sl, fp, lr}
  34              	.LCFI0:
  35              		.cfi_def_cfa_offset 36
  36              		.cfi_offset 4, -36
  37              		.cfi_offset 5, -32
  38              		.cfi_offset 6, -28
  39              		.cfi_offset 7, -24
  40              		.cfi_offset 8, -20
  41              		.cfi_offset 9, -16
  42              		.cfi_offset 10, -12
  43              		.cfi_offset 11, -8
  44              		.cfi_offset 14, -4
  45              		.loc 1 96 0
  46 0004 894D     		ldr	r5, .L55
  47              		.loc 1 98 0
  48 0006 4768     		ldr	r7, [r0, #4]
  49              	.LVL1:
  50              		.loc 1 96 0
  51 0008 B5F87A30 		ldrh	r3, [r5, #122]
  52              		.loc 1 102 0
  53 000c 0489     		ldrh	r4, [r0, #8]
  54              		.loc 1 96 0
  55 000e 0133     		adds	r3, r3, #1
  56 0010 A5F87A30 		strh	r3, [r5, #122]	@ movhi
  57              		.loc 1 85 0
ARM GAS  /var/folders/5n/p_75w94d66l9ssrldxqdhh700000gn/T//ccNT7h4C.s 			page 2


  58 0014 87B0     		sub	sp, sp, #28
  59              	.LCFI1:
  60              		.cfi_def_cfa_offset 64
  61              		.loc 1 85 0
  62 0016 0646     		mov	r6, r0
  63              		.loc 1 102 0
  64 0018 3888     		ldrh	r0, [r7, #0]	@ unaligned
  65              	.LVL2:
  66              		.loc 1 85 0
  67 001a 8946     		mov	r9, r1
  68              		.loc 1 102 0
  69 001c FFF7FEFF 		bl	lwip_ntohs
  70              	.LVL3:
  71 0020 C0F30320 		ubfx	r0, r0, #8, #4
  72 0024 831C     		adds	r3, r0, #2
  73 0026 B4EB830F 		cmp	r4, r3, lsl #2
  74 002a 0BDB     		blt	.L3
  75              		.loc 1 102 0 is_stmt 0 discriminator 1
  76 002c 3888     		ldrh	r0, [r7, #0]	@ unaligned
  77 002e FFF7FEFF 		bl	lwip_ntohs
  78              	.LVL4:
  79 0032 C0F30320 		ubfx	r0, r0, #8, #4
  80 0036 8100     		lsls	r1, r0, #2
  81 0038 4942     		negs	r1, r1
  82 003a 3046     		mov	r0, r6
  83 003c FFF7FEFF 		bl	pbuf_header
  84              	.LVL5:
  85 0040 0446     		mov	r4, r0
  86 0042 78B1     		cbz	r0, .L48
  87              	.L3:
  88              		.loc 1 106 0 is_stmt 1
  89 0044 B5F88220 		ldrh	r2, [r5, #130]
  90              		.loc 1 107 0
  91 0048 B5F87E30 		ldrh	r3, [r5, #126]
  92              		.loc 1 106 0
  93 004c 0132     		adds	r2, r2, #1
  94              		.loc 1 107 0
  95 004e 0133     		adds	r3, r3, #1
  96              		.loc 1 109 0
  97 0050 3046     		mov	r0, r6
  98              		.loc 1 106 0
  99 0052 A5F88220 		strh	r2, [r5, #130]	@ movhi
 100              		.loc 1 107 0
 101 0056 A5F87E30 		strh	r3, [r5, #126]	@ movhi
 102              		.loc 1 360 0
 103 005a 07B0     		add	sp, sp, #28
 104 005c BDE8F04F 		pop	{r4, r5, r6, r7, r8, r9, sl, fp, lr}
 105              		.loc 1 109 0
 106 0060 FFF7FEBF 		b	pbuf_free
 107              	.LVL6:
 108              	.L48:
 109              		.loc 1 116 0
 110 0064 40F20001 		movw	r1, #:lower16:current_iphdr_dest
 111 0068 C0F20001 		movt	r1, #:upper16:current_iphdr_dest
 112              		.loc 1 113 0
 113 006c D6F804A0 		ldr	sl, [r6, #4]
 114              	.LVL7:
ARM GAS  /var/folders/5n/p_75w94d66l9ssrldxqdhh700000gn/T//ccNT7h4C.s 			page 3


 115              		.loc 1 116 0
 116 0070 0868     		ldr	r0, [r1, #0]
 117 0072 4946     		mov	r1, r9
 118 0074 FFF7FEFF 		bl	ip4_addr_isbroadcast
 119              	.LVL8:
 120 0078 8046     		mov	r8, r0
 121              	.LVL9:
 122              		.loc 1 121 0
 123 007a BAF80000 		ldrh	r0, [sl, #0]	@ unaligned
 124              	.LVL10:
 125 007e FFF7FEFF 		bl	lwip_ntohs
 126              	.LVL11:
 127 0082 8346     		mov	fp, r0
 128              	.LVL12:
 129              		.loc 1 122 0
 130 0084 BAF80200 		ldrh	r0, [sl, #2]	@ unaligned
 131              	.LVL13:
 132 0088 FFF7FEFF 		bl	lwip_ntohs
 133              	.LVL14:
 134              		.loc 1 162 0
 135 008c 40F20002 		movw	r2, #:lower16:.LANCHOR0
 136 0090 C0F20002 		movt	r2, #:upper16:.LANCHOR0
 137              		.loc 1 122 0
 138 0094 0146     		mov	r1, r0
 139              	.LVL15:
 140              		.loc 1 162 0
 141 0096 1268     		ldr	r2, [r2, #0]
 142 0098 0492     		str	r2, [sp, #16]
 143              	.LVL16:
 144 009a 002A     		cmp	r2, #0
 145 009c 69D0     		beq	.L4
 146              		.loc 1 176 0
 147 009e 40F20003 		movw	r3, #:lower16:current_iphdr_dest
 148 00a2 C0F20003 		movt	r3, #:upper16:current_iphdr_dest
 149              		.loc 1 157 0
 150 00a6 2046     		mov	r0, r4
 151              	.LVL17:
 152              		.loc 1 176 0
 153 00a8 1B68     		ldr	r3, [r3, #0]
 154 00aa 0397     		str	r7, [sp, #12]
 155 00ac 0593     		str	r3, [sp, #20]
 156              		.loc 1 196 0
 157 00ae 604B     		ldr	r3, .L55+4
 158 00b0 D3F800C0 		ldr	ip, [r3, #0]
 159 00b4 3346     		mov	r3, r6
 160 00b6 1446     		mov	r4, r2
 161 00b8 0646     		mov	r6, r0
 162              	.LVL18:
 163              		.loc 1 155 0
 164 00ba 0246     		mov	r2, r0
 165              	.LVL19:
 166 00bc 4046     		mov	r0, r8
 167 00be 9846     		mov	r8, r3
 168              	.LVL20:
 169 00c0 04E0     		b	.L14
 170              	.LVL21:
 171              	.L5:
ARM GAS  /var/folders/5n/p_75w94d66l9ssrldxqdhh700000gn/T//ccNT7h4C.s 			page 4


 172              		.loc 1 162 0
 173 00c2 E368     		ldr	r3, [r4, #12]
 174              	.LVL22:
 175 00c4 2246     		mov	r2, r4
 176 00c6 002B     		cmp	r3, #0
 177 00c8 4CD0     		beq	.L49
 178              	.LVL23:
 179 00ca 1C46     		mov	r4, r3
 180              	.LVL24:
 181              	.L14:
 182              		.loc 1 174 0
 183 00cc 638A     		ldrh	r3, [r4, #18]
 184 00ce 8B42     		cmp	r3, r1
 185 00d0 F7D1     		bne	.L5
 186              		.loc 1 174 0 is_stmt 0 discriminator 1
 187 00d2 20B9     		cbnz	r0, .L6
 188              		.loc 1 175 0 is_stmt 1
 189 00d4 2368     		ldr	r3, [r4, #0]
 190 00d6 13B1     		cbz	r3, .L6
 191 00d8 059F     		ldr	r7, [sp, #20]
 192 00da 9F42     		cmp	r7, r3
 193 00dc F1D1     		bne	.L5
 194              	.L6:
 195              	.LVL25:
 196              		.loc 1 186 0
 197 00de 002E     		cmp	r6, #0
 198 00e0 38D0     		beq	.L50
 199              	.L8:
 200              	.LVL26:
 201              		.loc 1 193 0
 202 00e2 A38A     		ldrh	r3, [r4, #20]
 203 00e4 5B45     		cmp	r3, fp
 204 00e6 ECD1     		bne	.L5
 205              		.loc 1 195 0
 206 00e8 6368     		ldr	r3, [r4, #4]
 207 00ea 0BB1     		cbz	r3, .L46
 208              		.loc 1 195 0 is_stmt 0 discriminator 1
 209 00ec 6345     		cmp	r3, ip
 210 00ee E8D1     		bne	.L5
 211              	.L46:
 212 00f0 4646     		mov	r6, r8
 213              	.LVL27:
 214 00f2 039F     		ldr	r7, [sp, #12]
 215 00f4 8046     		mov	r8, r0
 216              	.LVL28:
 217              		.loc 1 198 0 is_stmt 1
 218 00f6 002A     		cmp	r2, #0
 219 00f8 00F09E80 		beq	.L51
 220              		.loc 1 201 0
 221 00fc E368     		ldr	r3, [r4, #12]
 222              		.loc 1 203 0
 223 00fe 40F20001 		movw	r1, #:lower16:.LANCHOR0
 224              	.LVL29:
 225              		.loc 1 201 0
 226 0102 D360     		str	r3, [r2, #12]
 227              		.loc 1 203 0
 228 0104 C0F20001 		movt	r1, #:upper16:.LANCHOR0
ARM GAS  /var/folders/5n/p_75w94d66l9ssrldxqdhh700000gn/T//ccNT7h4C.s 			page 5


 229              		.loc 1 202 0
 230 0108 049A     		ldr	r2, [sp, #16]
 231              		.loc 1 203 0
 232 010a 0C60     		str	r4, [r1, #0]
 233              		.loc 1 202 0
 234 010c E260     		str	r2, [r4, #12]
 235              	.LVL30:
 236              	.L24:
 237              		.loc 1 255 0
 238 010e BAF80630 		ldrh	r3, [sl, #6]	@ unaligned
 239 0112 4BB1     		cbz	r3, .L17
 240              		.loc 1 256 0
 241 0114 3389     		ldrh	r3, [r6, #8]
 242 0116 4649     		ldr	r1, .L55+4
 243 0118 0093     		str	r3, [sp, #0]
 244 011a 3046     		mov	r0, r6
 245 011c 454A     		ldr	r2, .L55+8
 246 011e 1123     		movs	r3, #17
 247 0120 FFF7FEFF 		bl	inet_chksum_pseudo
 248              	.LVL31:
 249 0124 0028     		cmp	r0, #0
 250 0126 71D1     		bne	.L52
 251              	.L17:
 252              		.loc 1 269 0
 253 0128 3046     		mov	r0, r6
 254 012a 6FF00701 		mvn	r1, #7
 255 012e FFF7FEFF 		bl	pbuf_header
 256              	.LVL32:
 257 0132 0028     		cmp	r0, #0
 258 0134 2ED1     		bne	.L53
 259              		.loc 1 277 0
 260 0136 002C     		cmp	r4, #0
 261 0138 39D0     		beq	.L19
 262              		.loc 1 328 0
 263 013a A569     		ldr	r5, [r4, #24]
 264 013c 002D     		cmp	r5, #0
 265 013e 21D0     		beq	.L16
 266              	.L20:
 267              		.loc 1 330 0
 268 0140 E069     		ldr	r0, [r4, #28]
 269 0142 3B4B     		ldr	r3, .L55+4
 270 0144 CDF800B0 		str	fp, [sp, #0]
 271 0148 2146     		mov	r1, r4
 272 014a 3246     		mov	r2, r6
 273 014c A847     		blx	r5
 274              	.LVL33:
 275              		.loc 1 360 0
 276 014e 07B0     		add	sp, sp, #28
 277 0150 BDE8F08F 		pop	{r4, r5, r6, r7, r8, r9, sl, fp, pc}
 278              	.LVL34:
 279              	.L50:
 280              		.loc 1 187 0 discriminator 1
 281 0154 237C     		ldrb	r3, [r4, #16]	@ zero_extendqisi2
 282              		.loc 1 186 0 discriminator 1
 283 0156 03F00403 		and	r3, r3, #4
 284 015a DBB2     		uxtb	r3, r3
 285 015c 002B     		cmp	r3, #0
ARM GAS  /var/folders/5n/p_75w94d66l9ssrldxqdhh700000gn/T//ccNT7h4C.s 			page 6


 286 015e 08BF     		it	eq
 287 0160 2646     		moveq	r6, r4
 288 0162 BEE7     		b	.L8
 289              	.LVL35:
 290              	.L49:
 291 0164 4346     		mov	r3, r8
 292              	.LVL36:
 293 0166 8046     		mov	r8, r0
 294              	.LVL37:
 295 0168 3046     		mov	r0, r6
 296              	.LVL38:
 297 016a 039F     		ldr	r7, [sp, #12]
 298 016c 1E46     		mov	r6, r3
 299              		.loc 1 218 0
 300 016e 0028     		cmp	r0, #0
 301 0170 68D1     		bne	.L28
 302              	.LVL39:
 303              	.L4:
 304              		.loc 1 218 0 is_stmt 0 discriminator 1
 305 0172 40F20001 		movw	r1, #:lower16:current_iphdr_dest
 306              	.LVL40:
 307 0176 C0F20001 		movt	r1, #:upper16:current_iphdr_dest
 308 017a D9F80420 		ldr	r2, [r9, #4]
 309 017e 0B68     		ldr	r3, [r1, #0]
 310 0180 9A42     		cmp	r2, r3
 311 0182 05D0     		beq	.L54
 312              	.L16:
 313              		.loc 1 333 0 is_stmt 1
 314 0184 3046     		mov	r0, r6
 315              		.loc 1 360 0
 316 0186 07B0     		add	sp, sp, #28
 317 0188 BDE8F04F 		pop	{r4, r5, r6, r7, r8, r9, sl, fp, lr}
 318              		.loc 1 333 0
 319 018c FFF7FEBF 		b	pbuf_free
 320              	.LVL41:
 321              	.L54:
 322              		.loc 1 218 0
 323 0190 0024     		movs	r4, #0
 324 0192 BCE7     		b	.L24
 325              	.L53:
 326              		.loc 1 271 0 discriminator 1
 327 0194 FFF7FEFF 		bl	port_halt
 328              	.LVL42:
 329              		.loc 1 272 0 discriminator 1
 330 0198 B5F87E30 		ldrh	r3, [r5, #126]
 331              		.loc 1 274 0 discriminator 1
 332 019c 3046     		mov	r0, r6
 333              		.loc 1 272 0 discriminator 1
 334 019e 0133     		adds	r3, r3, #1
 335 01a0 A5F87E30 		strh	r3, [r5, #126]	@ movhi
 336              		.loc 1 360 0 discriminator 1
 337 01a4 07B0     		add	sp, sp, #28
 338 01a6 BDE8F04F 		pop	{r4, r5, r6, r7, r8, r9, sl, fp, lr}
 339              		.loc 1 274 0 discriminator 1
 340 01aa FFF7FEBF 		b	pbuf_free
 341              	.LVL43:
 342              	.L19:
ARM GAS  /var/folders/5n/p_75w94d66l9ssrldxqdhh700000gn/T//ccNT7h4C.s 			page 7


 343              		.loc 1 342 0
 344 01ae B8F1000F 		cmp	r8, #0
 345 01b2 1BD1     		bne	.L21
 346              		.loc 1 343 0 discriminator 1
 347 01b4 40F20002 		movw	r2, #:lower16:current_iphdr_dest
 348 01b8 C0F20002 		movt	r2, #:upper16:current_iphdr_dest
 349 01bc 1368     		ldr	r3, [r2, #0]
 350 01be 03F0F003 		and	r3, r3, #240
 351              		.loc 1 342 0 discriminator 1
 352 01c2 E02B     		cmp	r3, #224
 353 01c4 12D0     		beq	.L21
 354              		.loc 1 345 0
 355 01c6 3888     		ldrh	r0, [r7, #0]	@ unaligned
 356 01c8 FFF7FEFF 		bl	lwip_ntohs
 357              	.LVL44:
 358 01cc C0F30320 		ubfx	r0, r0, #8, #4
 359 01d0 811C     		adds	r1, r0, #2
 360 01d2 8900     		lsls	r1, r1, #2
 361 01d4 3046     		mov	r0, r6
 362 01d6 FFF7FEFF 		bl	pbuf_header
 363              	.LVL45:
 364              		.loc 1 346 0
 365 01da 7368     		ldr	r3, [r6, #4]
 366 01dc BB42     		cmp	r3, r7
 367 01de 01D0     		beq	.L22
 368              		.loc 1 346 0 is_stmt 0 discriminator 1
 369 01e0 FFF7FEFF 		bl	port_halt
 370              	.LVL46:
 371              	.L22:
 372              		.loc 1 347 0 is_stmt 1
 373 01e4 3046     		mov	r0, r6
 374 01e6 0321     		movs	r1, #3
 375 01e8 FFF7FEFF 		bl	icmp_dest_unreach
 376              	.LVL47:
 377              	.L21:
 378              		.loc 1 350 0
 379 01ec B5F88820 		ldrh	r2, [r5, #136]
 380              		.loc 1 351 0
 381 01f0 B5F87E30 		ldrh	r3, [r5, #126]
 382              		.loc 1 350 0
 383 01f4 0132     		adds	r2, r2, #1
 384              		.loc 1 351 0
 385 01f6 0133     		adds	r3, r3, #1
 386              		.loc 1 353 0
 387 01f8 3046     		mov	r0, r6
 388              		.loc 1 350 0
 389 01fa A5F88820 		strh	r2, [r5, #136]	@ movhi
 390              		.loc 1 351 0
 391 01fe A5F87E30 		strh	r3, [r5, #126]	@ movhi
 392              		.loc 1 360 0
 393 0202 07B0     		add	sp, sp, #28
 394 0204 BDE8F04F 		pop	{r4, r5, r6, r7, r8, r9, sl, fp, lr}
 395              		.loc 1 353 0
 396 0208 FFF7FEBF 		b	pbuf_free
 397              	.LVL48:
 398              	.L52:
 399              		.loc 1 260 0
ARM GAS  /var/folders/5n/p_75w94d66l9ssrldxqdhh700000gn/T//ccNT7h4C.s 			page 8


 400 020c B5F88020 		ldrh	r2, [r5, #128]
 401              		.loc 1 261 0
 402 0210 B5F87E30 		ldrh	r3, [r5, #126]
 403              		.loc 1 260 0
 404 0214 0132     		adds	r2, r2, #1
 405              		.loc 1 261 0
 406 0216 0133     		adds	r3, r3, #1
 407              		.loc 1 263 0
 408 0218 3046     		mov	r0, r6
 409              		.loc 1 260 0
 410 021a A5F88020 		strh	r2, [r5, #128]	@ movhi
 411              		.loc 1 261 0
 412 021e A5F87E30 		strh	r3, [r5, #126]	@ movhi
 413              		.loc 1 360 0
 414 0222 07B0     		add	sp, sp, #28
 415 0224 BDE8F04F 		pop	{r4, r5, r6, r7, r8, r9, sl, fp, lr}
 416              		.loc 1 263 0
 417 0228 FFF7FEBF 		b	pbuf_free
 418              	.LVL49:
 419              	.L56:
 420              		.align	2
 421              	.L55:
 422 022c 00000000 		.word	lwip_stats
 423 0230 00000000 		.word	current_iphdr_src
 424 0234 00000000 		.word	current_iphdr_dest
 425              	.LVL50:
 426              	.L51:
 427              		.loc 1 205 0
 428 0238 B5F88E30 		ldrh	r3, [r5, #142]
 429 023c 0133     		adds	r3, r3, #1
 430 023e A5F88E30 		strh	r3, [r5, #142]	@ movhi
 431              	.LVL51:
 432 0242 64E7     		b	.L24
 433              	.LVL52:
 434              	.L28:
 435              		.loc 1 218 0
 436 0244 0446     		mov	r4, r0
 437 0246 62E7     		b	.L24
 438              		.cfi_endproc
 439              	.LFE7:
 440              		.size	udp_input, .-udp_input
 441 0248 AFF30080 		.section	.text.udp_bind,"ax",%progbits
 441      AFF30080 
 442              		.align	2
 443              		.p2align 4,,15
 444              		.global	udp_bind
 445              		.thumb
 446              		.thumb_func
 447              		.type	udp_bind, %function
 448              	udp_bind:
 449              	.LFB11:
 450              		.loc 1 702 0
 451              		.cfi_startproc
 452              		@ args = 0, pretend = 0, frame = 0
 453              		@ frame_needed = 0, uses_anonymous_args = 0
 454              	.LVL53:
 455 0000 2DE9F041 		push	{r4, r5, r6, r7, r8, lr}
ARM GAS  /var/folders/5n/p_75w94d66l9ssrldxqdhh700000gn/T//ccNT7h4C.s 			page 9


 456              	.LCFI2:
 457              		.cfi_def_cfa_offset 24
 458              		.cfi_offset 4, -24
 459              		.cfi_offset 5, -20
 460              		.cfi_offset 6, -16
 461              		.cfi_offset 7, -12
 462              		.cfi_offset 8, -8
 463              		.cfi_offset 14, -4
 464              		.loc 1 712 0
 465 0004 DFF8A480 		ldr	r8, .L86
 466 0008 D8F80040 		ldr	r4, [r8, #0]
 467              	.LVL54:
 468              		.loc 1 702 0
 469 000c 0646     		mov	r6, r0
 470 000e 0F46     		mov	r7, r1
 471 0010 1546     		mov	r5, r2
 472              		.loc 1 712 0
 473 0012 002C     		cmp	r4, #0
 474 0014 47D0     		beq	.L71
 475 0016 0021     		movs	r1, #0
 476              	.LVL55:
 477 0018 01E0     		b	.L64
 478              	.LVL56:
 479              	.L60:
 480 001a E468     		ldr	r4, [r4, #12]
 481              	.LVL57:
 482 001c ACB1     		cbz	r4, .L58
 483              	.LVL58:
 484              	.L64:
 485              		.loc 1 714 0
 486 001e A642     		cmp	r6, r4
 487 0020 0DD0     		beq	.L83
 488              		.loc 1 731 0
 489 0022 638A     		ldrh	r3, [r4, #18]
 490 0024 AB42     		cmp	r3, r5
 491 0026 F8D1     		bne	.L60
 492              		.loc 1 733 0 discriminator 1
 493 0028 2368     		ldr	r3, [r4, #0]
 494 002a 23B1     		cbz	r3, .L63
 495 002c 1FB1     		cbz	r7, .L63
 496              		.loc 1 734 0
 497 002e 3A68     		ldr	r2, [r7, #0]
 498 0030 0AB1     		cbz	r2, .L63
 499              		.loc 1 734 0 is_stmt 0 discriminator 1
 500 0032 9342     		cmp	r3, r2
 501 0034 F1D1     		bne	.L60
 502              	.LVL59:
 503              	.L63:
 504              		.loc 1 739 0 is_stmt 1
 505 0036 F820     		movs	r0, #248
 506              	.L62:
 507              		.loc 1 787 0
 508 0038 40B2     		sxtb	r0, r0
 509 003a BDE8F081 		pop	{r4, r5, r6, r7, r8, pc}
 510              	.LVL60:
 511              	.L83:
 512              		.loc 1 716 0
ARM GAS  /var/folders/5n/p_75w94d66l9ssrldxqdhh700000gn/T//ccNT7h4C.s 			page 10


 513 003e 0029     		cmp	r1, #0
 514 0040 2DD1     		bne	.L84
 515              		.loc 1 712 0
 516 0042 E468     		ldr	r4, [r4, #12]
 517              	.LVL61:
 518              		.loc 1 718 0
 519 0044 0121     		movs	r1, #1
 520              	.LVL62:
 521              		.loc 1 712 0
 522 0046 002C     		cmp	r4, #0
 523 0048 E9D1     		bne	.L64
 524              	.LVL63:
 525              	.L58:
 526              		.loc 1 744 0
 527 004a 07B1     		cbz	r7, .L65
 528              		.loc 1 744 0 is_stmt 0 discriminator 1
 529 004c 3F68     		ldr	r7, [r7, #0]
 530              	.LVL64:
 531              	.L65:
 532              		.loc 1 744 0 discriminator 3
 533 004e 3760     		str	r7, [r6, #0]
 534              		.loc 1 747 0 is_stmt 1 discriminator 3
 535 0050 C5B9     		cbnz	r5, .L66
 536              	.LVL65:
 537              		.loc 1 755 0
 538 0052 D8F80040 		ldr	r4, [r8, #0]
 539              	.LVL66:
 540              		.loc 1 754 0
 541 0056 4FF44045 		mov	r5, #49152
 542              		.loc 1 755 0
 543 005a 2346     		mov	r3, r4
 544              		.loc 1 756 0
 545 005c 4FF6FF70 		movw	r0, #65535
 546              	.LVL67:
 547              	.L82:
 548              		.loc 1 756 0 is_stmt 0 discriminator 1
 549 0060 8542     		cmp	r5, r0
 550 0062 18BF     		it	ne
 551 0064 002B     		cmpne	r3, #0
 552 0066 0BD0     		beq	.L85
 553              	.LVL68:
 554              	.L70:
 555              		.loc 1 757 0 is_stmt 1
 556 0068 5A8A     		ldrh	r2, [r3, #18]
 557 006a AA42     		cmp	r2, r5
 558              		.loc 1 764 0
 559 006c 18BF     		it	ne
 560 006e DB68     		ldrne	r3, [r3, #12]
 561              	.LVL69:
 562              		.loc 1 757 0
 563 0070 F6D1     		bne	.L82
 564              		.loc 1 759 0
 565 0072 0135     		adds	r5, r5, #1
 566 0074 ADB2     		uxth	r5, r5
 567              	.LVL70:
 568              		.loc 1 761 0
 569 0076 2346     		mov	r3, r4
ARM GAS  /var/folders/5n/p_75w94d66l9ssrldxqdhh700000gn/T//ccNT7h4C.s 			page 11


 570              		.loc 1 756 0
 571 0078 8542     		cmp	r5, r0
 572 007a 18BF     		it	ne
 573 007c 002B     		cmpne	r3, #0
 574 007e F3D1     		bne	.L70
 575              	.LVL71:
 576              	.L85:
 577              		.loc 1 767 0
 578 0080 002B     		cmp	r3, #0
 579 0082 D8D1     		bne	.L63
 580              	.LVL72:
 581              	.L66:
 582              		.loc 1 773 0
 583 0084 7582     		strh	r5, [r6, #18]	@ movhi
 584              		.loc 1 786 0
 585 0086 0020     		movs	r0, #0
 586              		.loc 1 776 0
 587 0088 0029     		cmp	r1, #0
 588 008a D5D1     		bne	.L62
 589              		.loc 1 778 0
 590 008c D8F80030 		ldr	r3, [r8, #0]
 591              		.loc 1 779 0
 592 0090 C8F80060 		str	r6, [r8, #0]
 593              		.loc 1 786 0
 594 0094 0846     		mov	r0, r1
 595              		.loc 1 778 0
 596 0096 F360     		str	r3, [r6, #12]
 597              		.loc 1 787 0
 598 0098 40B2     		sxtb	r0, r0
 599 009a BDE8F081 		pop	{r4, r5, r6, r7, r8, pc}
 600              	.LVL73:
 601              	.L84:
 602              		.loc 1 716 0 discriminator 1
 603 009e FFF7FEFF 		bl	port_halt
 604              	.LVL74:
 605              		.loc 1 718 0 discriminator 1
 606 00a2 0121     		movs	r1, #1
 607 00a4 B9E7     		b	.L60
 608              	.LVL75:
 609              	.L71:
 610              		.loc 1 710 0
 611 00a6 2146     		mov	r1, r4
 612              	.LVL76:
 613 00a8 CFE7     		b	.L58
 614              	.L87:
 615 00aa 00BF     		.align	2
 616              	.L86:
 617 00ac 00000000 		.word	.LANCHOR0
 618              		.cfi_endproc
 619              	.LFE11:
 620              		.size	udp_bind, .-udp_bind
 621              		.section	.text.udp_sendto_if,"ax",%progbits
 622              		.align	2
 623              		.p2align 4,,15
 624              		.global	udp_sendto_if
 625              		.thumb
 626              		.thumb_func
ARM GAS  /var/folders/5n/p_75w94d66l9ssrldxqdhh700000gn/T//ccNT7h4C.s 			page 12


 627              		.type	udp_sendto_if, %function
 628              	udp_sendto_if:
 629              	.LFB10:
 630              		.loc 1 478 0
 631              		.cfi_startproc
 632              		@ args = 4, pretend = 0, frame = 0
 633              		@ frame_needed = 0, uses_anonymous_args = 0
 634              	.LVL77:
 635 0000 2DE9F047 		push	{r4, r5, r6, r7, r8, r9, sl, lr}
 636              	.LCFI3:
 637              		.cfi_def_cfa_offset 32
 638              		.cfi_offset 4, -32
 639              		.cfi_offset 5, -28
 640              		.cfi_offset 6, -24
 641              		.cfi_offset 7, -20
 642              		.cfi_offset 8, -16
 643              		.cfi_offset 9, -12
 644              		.cfi_offset 10, -8
 645              		.cfi_offset 14, -4
 646              		.loc 1 505 0
 647 0004 458A     		ldrh	r5, [r0, #18]
 648              		.loc 1 478 0
 649 0006 84B0     		sub	sp, sp, #16
 650              	.LCFI4:
 651              		.cfi_def_cfa_offset 48
 652              		.loc 1 478 0
 653 0008 0446     		mov	r4, r0
 654 000a 0F46     		mov	r7, r1
 655 000c DDF83080 		ldr	r8, [sp, #48]
 656 0010 9246     		mov	sl, r2
 657 0012 9946     		mov	r9, r3
 658              		.loc 1 505 0
 659 0014 35B9     		cbnz	r5, .L93
 660              		.loc 1 507 0
 661 0016 0146     		mov	r1, r0
 662              	.LVL78:
 663 0018 2A46     		mov	r2, r5
 664              	.LVL79:
 665 001a FFF7FEFF 		bl	udp_bind
 666              	.LVL80:
 667              		.loc 1 508 0
 668 001e 0646     		mov	r6, r0
 669 0020 0028     		cmp	r0, #0
 670 0022 39D1     		bne	.L92
 671              	.LVL81:
 672              	.L93:
 673              		.loc 1 515 0
 674 0024 3846     		mov	r0, r7
 675 0026 0821     		movs	r1, #8
 676 0028 FFF7FEFF 		bl	pbuf_header
 677              	.LVL82:
 678 002c 3D46     		mov	r5, r7
 679 002e 0028     		cmp	r0, #0
 680 0030 42D1     		bne	.L107
 681              	.L91:
 682              	.LVL83:
 683              		.loc 1 536 0
ARM GAS  /var/folders/5n/p_75w94d66l9ssrldxqdhh700000gn/T//ccNT7h4C.s 			page 13


 684 0032 6B89     		ldrh	r3, [r5, #10]
 685 0034 072B     		cmp	r3, #7
 686 0036 4DD9     		bls	.L108
 687              	.L94:
 688              		.loc 1 540 0
 689 0038 608A     		ldrh	r0, [r4, #18]
 690              		.loc 1 539 0
 691 003a 6E68     		ldr	r6, [r5, #4]
 692              	.LVL84:
 693              		.loc 1 540 0
 694 003c FFF7FEFF 		bl	lwip_htons
 695              	.LVL85:
 696 0040 3080     		strh	r0, [r6, #0]	@ unaligned
 697              		.loc 1 541 0
 698 0042 4846     		mov	r0, r9
 699 0044 FFF7FEFF 		bl	lwip_htons
 700              	.LVL86:
 701              		.loc 1 543 0
 702 0048 0023     		movs	r3, #0
 703              		.loc 1 541 0
 704 004a 7080     		strh	r0, [r6, #2]	@ unaligned
 705              		.loc 1 543 0
 706 004c B371     		strb	r3, [r6, #6]
 707 004e F371     		strb	r3, [r6, #7]
 708              		.loc 1 554 0
 709 0050 2368     		ldr	r3, [r4, #0]
 710 0052 002B     		cmp	r3, #0
 711 0054 24D1     		bne	.L95
 712              		.loc 1 556 0
 713 0056 08F10409 		add	r9, r8, #4
 714              	.LVL87:
 715              	.L96:
 716              		.loc 1 630 0
 717 005a 2889     		ldrh	r0, [r5, #8]
 718 005c FFF7FEFF 		bl	lwip_htons
 719              	.LVL88:
 720 0060 B080     		strh	r0, [r6, #4]	@ unaligned
 721              		.loc 1 633 0
 722 0062 237C     		ldrb	r3, [r4, #16]	@ zero_extendqisi2
 723 0064 DB07     		lsls	r3, r3, #31
 724 0066 38D5     		bpl	.L109
 725              	.L98:
 726              		.loc 1 661 0
 727 0068 627A     		ldrb	r2, [r4, #9]	@ zero_extendqisi2
 728 006a A37A     		ldrb	r3, [r4, #10]	@ zero_extendqisi2
 729 006c 0092     		str	r2, [sp, #0]
 730 006e 1122     		movs	r2, #17
 731 0070 0192     		str	r2, [sp, #4]
 732 0072 CDF80880 		str	r8, [sp, #8]
 733 0076 2846     		mov	r0, r5
 734 0078 4946     		mov	r1, r9
 735 007a 5246     		mov	r2, sl
 736 007c FFF7FEFF 		bl	ip_output_if
 737              	.LVL89:
 738              		.loc 1 670 0
 739 0080 BD42     		cmp	r5, r7
 740              		.loc 1 661 0
ARM GAS  /var/folders/5n/p_75w94d66l9ssrldxqdhh700000gn/T//ccNT7h4C.s 			page 14


 741 0082 0646     		mov	r6, r0
 742              	.LVL90:
 743              		.loc 1 670 0
 744 0084 02D0     		beq	.L100
 745              		.loc 1 672 0
 746 0086 2846     		mov	r0, r5
 747              	.LVL91:
 748 0088 FFF7FEFF 		bl	pbuf_free
 749              	.LVL92:
 750              	.L100:
 751              		.loc 1 677 0
 752 008c 1C4B     		ldr	r3, .L110
 753 008e B3F87820 		ldrh	r2, [r3, #120]
 754 0092 0132     		adds	r2, r2, #1
 755 0094 A3F87820 		strh	r2, [r3, #120]	@ movhi
 756              	.LVL93:
 757              	.L92:
 758              		.loc 1 679 0
 759 0098 70B2     		sxtb	r0, r6
 760 009a 04B0     		add	sp, sp, #16
 761 009c BDE8F087 		pop	{r4, r5, r6, r7, r8, r9, sl, pc}
 762              	.LVL94:
 763              	.L95:
 764              		.loc 1 560 0
 765 00a0 D8F80420 		ldr	r2, [r8, #4]
 766 00a4 9342     		cmp	r3, r2
 767 00a6 27D0     		beq	.L97
 768              		.loc 1 568 0
 769 00a8 FA26     		movs	r6, #250
 770              	.LVL95:
 771              		.loc 1 562 0
 772 00aa BD42     		cmp	r5, r7
 773 00ac F4D0     		beq	.L92
 774              		.loc 1 564 0
 775 00ae 2846     		mov	r0, r5
 776 00b0 FFF7FEFF 		bl	pbuf_free
 777              	.LVL96:
 778              		.loc 1 568 0
 779 00b4 FA26     		movs	r6, #250
 780 00b6 EFE7     		b	.L92
 781              	.LVL97:
 782              	.L107:
 783              		.loc 1 517 0
 784 00b8 0120     		movs	r0, #1
 785 00ba 0821     		movs	r1, #8
 786 00bc 0022     		movs	r2, #0
 787 00be FFF7FEFF 		bl	pbuf_alloc
 788              	.LVL98:
 789              		.loc 1 519 0
 790 00c2 0546     		mov	r5, r0
 791              	.LVL99:
 792 00c4 D0B1     		cbz	r0, .L101
 793              		.loc 1 523 0
 794 00c6 3B89     		ldrh	r3, [r7, #8]
 795 00c8 002B     		cmp	r3, #0
 796 00ca B2D0     		beq	.L91
 797              		.loc 1 525 0
ARM GAS  /var/folders/5n/p_75w94d66l9ssrldxqdhh700000gn/T//ccNT7h4C.s 			page 15


 798 00cc 3946     		mov	r1, r7
 799 00ce FFF7FEFF 		bl	pbuf_chain
 800              	.LVL100:
 801 00d2 AEE7     		b	.L91
 802              	.L108:
 803              		.loc 1 536 0 discriminator 1
 804 00d4 FFF7FEFF 		bl	port_halt
 805              	.LVL101:
 806 00d8 AEE7     		b	.L94
 807              	.LVL102:
 808              	.L109:
 809              	.LBB2:
 810              		.loc 1 645 0
 811 00da 2B89     		ldrh	r3, [r5, #8]
 812 00dc 2846     		mov	r0, r5
 813 00de 0093     		str	r3, [sp, #0]
 814 00e0 4946     		mov	r1, r9
 815 00e2 1123     		movs	r3, #17
 816 00e4 5246     		mov	r2, sl
 817 00e6 FFF7FEFF 		bl	inet_chksum_pseudo
 818              	.LVL103:
 819              		.loc 1 650 0
 820 00ea 4FF6FF73 		movw	r3, #65535
 821              	.LVL104:
 822              		.loc 1 652 0
 823 00ee 0028     		cmp	r0, #0
 824 00f0 08BF     		it	eq
 825 00f2 1846     		moveq	r0, r3
 826              	.LVL105:
 827 00f4 F080     		strh	r0, [r6, #6]	@ unaligned
 828 00f6 B7E7     		b	.L98
 829              	.LVL106:
 830              	.L97:
 831              	.LBE2:
 832              		.loc 1 554 0
 833 00f8 A146     		mov	r9, r4
 834 00fa AEE7     		b	.L96
 835              	.LVL107:
 836              	.L101:
 837              		.loc 1 521 0
 838 00fc FF26     		movs	r6, #255
 839 00fe CBE7     		b	.L92
 840              	.L111:
 841              		.align	2
 842              	.L110:
 843 0100 00000000 		.word	lwip_stats
 844              		.cfi_endproc
 845              	.LFE10:
 846              		.size	udp_sendto_if, .-udp_sendto_if
 847 0104 AFF30080 		.section	.text.udp_sendto,"ax",%progbits
 847      AFF30080 
 847      AFF30080 
 848              		.align	2
 849              		.p2align 4,,15
 850              		.global	udp_sendto
 851              		.thumb
 852              		.thumb_func
ARM GAS  /var/folders/5n/p_75w94d66l9ssrldxqdhh700000gn/T//ccNT7h4C.s 			page 16


 853              		.type	udp_sendto, %function
 854              	udp_sendto:
 855              	.LFB9:
 856              		.loc 1 420 0
 857              		.cfi_startproc
 858              		@ args = 0, pretend = 0, frame = 0
 859              		@ frame_needed = 0, uses_anonymous_args = 0
 860              	.LVL108:
 861 0000 F0B5     		push	{r4, r5, r6, r7, lr}
 862              	.LCFI5:
 863              		.cfi_def_cfa_offset 20
 864              		.cfi_offset 4, -20
 865              		.cfi_offset 5, -16
 866              		.cfi_offset 6, -12
 867              		.cfi_offset 7, -8
 868              		.cfi_offset 14, -4
 869 0002 0546     		mov	r5, r0
 870 0004 83B0     		sub	sp, sp, #12
 871              	.LCFI6:
 872              		.cfi_def_cfa_offset 32
 873              		.loc 1 439 0
 874 0006 1046     		mov	r0, r2
 875              	.LVL109:
 876              		.loc 1 420 0
 877 0008 1446     		mov	r4, r2
 878 000a 0F46     		mov	r7, r1
 879 000c 1E46     		mov	r6, r3
 880              		.loc 1 439 0
 881 000e FFF7FEFF 		bl	ip_route
 882              	.LVL110:
 883              		.loc 1 443 0
 884 0012 48B1     		cbz	r0, .L115
 885              		.loc 1 452 0
 886 0014 0090     		str	r0, [sp, #0]
 887 0016 3946     		mov	r1, r7
 888 0018 2846     		mov	r0, r5
 889              	.LVL111:
 890 001a 2246     		mov	r2, r4
 891 001c 3346     		mov	r3, r6
 892 001e FFF7FEFF 		bl	udp_sendto_if
 893              	.LVL112:
 894              	.L114:
 895              		.loc 1 454 0
 896 0022 40B2     		sxtb	r0, r0
 897 0024 03B0     		add	sp, sp, #12
 898 0026 F0BD     		pop	{r4, r5, r6, r7, pc}
 899              	.LVL113:
 900              	.L115:
 901              		.loc 1 446 0
 902 0028 034B     		ldr	r3, .L116
 903 002a B3F88620 		ldrh	r2, [r3, #134]
 904 002e 0132     		adds	r2, r2, #1
 905 0030 A3F88620 		strh	r2, [r3, #134]	@ movhi
 906              		.loc 1 447 0
 907 0034 FC20     		movs	r0, #252
 908              	.LVL114:
 909 0036 F4E7     		b	.L114
ARM GAS  /var/folders/5n/p_75w94d66l9ssrldxqdhh700000gn/T//ccNT7h4C.s 			page 17


 910              	.L117:
 911              		.align	2
 912              	.L116:
 913 0038 00000000 		.word	lwip_stats
 914              		.cfi_endproc
 915              	.LFE9:
 916              		.size	udp_sendto, .-udp_sendto
 917 003c AFF30080 		.section	.text.udp_send,"ax",%progbits
 918              		.align	2
 919              		.p2align 4,,15
 920              		.global	udp_send
 921              		.thumb
 922              		.thumb_func
 923              		.type	udp_send, %function
 924              	udp_send:
 925              	.LFB8:
 926              		.loc 1 382 0
 927              		.cfi_startproc
 928              		@ args = 0, pretend = 0, frame = 0
 929              		@ frame_needed = 0, uses_anonymous_args = 0
 930              		@ link register save eliminated.
 931              	.LVL115:
 932              		.loc 1 384 0
 933 0000 838A     		ldrh	r3, [r0, #20]
 934 0002 021D     		adds	r2, r0, #4
 935              		.loc 1 385 0
 936              		.loc 1 384 0
 937 0004 FFF7FEBF 		b	udp_sendto
 938              	.LVL116:
 939              		.cfi_endproc
 940              	.LFE8:
 941              		.size	udp_send, .-udp_send
 942 0008 AFF30080 		.section	.text.udp_connect,"ax",%progbits
 942      AFF30080 
 943              		.align	2
 944              		.p2align 4,,15
 945              		.global	udp_connect
 946              		.thumb
 947              		.thumb_func
 948              		.type	udp_connect, %function
 949              	udp_connect:
 950              	.LFB12:
 951              		.loc 1 807 0
 952              		.cfi_startproc
 953              		@ args = 0, pretend = 0, frame = 0
 954              		@ frame_needed = 0, uses_anonymous_args = 0
 955              	.LVL117:
 956              		.loc 1 810 0
 957 0000 438A     		ldrh	r3, [r0, #18]
 958              		.loc 1 807 0
 959 0002 70B5     		push	{r4, r5, r6, lr}
 960              	.LCFI7:
 961              		.cfi_def_cfa_offset 16
 962              		.cfi_offset 4, -16
 963              		.cfi_offset 5, -12
 964              		.cfi_offset 6, -8
 965              		.cfi_offset 14, -4
ARM GAS  /var/folders/5n/p_75w94d66l9ssrldxqdhh700000gn/T//ccNT7h4C.s 			page 18


 966              		.loc 1 807 0
 967 0004 0446     		mov	r4, r0
 968 0006 0D46     		mov	r5, r1
 969 0008 1646     		mov	r6, r2
 970              		.loc 1 810 0
 971 000a C3B1     		cbz	r3, .L120
 972              	.LVL118:
 973              	.L124:
 974              		.loc 1 817 0
 975 000c 05B1     		cbz	r5, .L122
 976              		.loc 1 817 0 is_stmt 0 discriminator 1
 977 000e 2D68     		ldr	r5, [r5, #0]
 978              	.LVL119:
 979              	.L122:
 980              		.loc 1 846 0 is_stmt 1 discriminator 3
 981 0010 1049     		ldr	r1, .L134
 982              		.loc 1 819 0 discriminator 3
 983 0012 237C     		ldrb	r3, [r4, #16]	@ zero_extendqisi2
 984              		.loc 1 846 0 discriminator 3
 985 0014 0868     		ldr	r0, [r1, #0]
 986              	.LVL120:
 987              		.loc 1 817 0 discriminator 3
 988 0016 6560     		str	r5, [r4, #4]
 989              		.loc 1 819 0 discriminator 3
 990 0018 43F00403 		orr	r3, r3, #4
 991              		.loc 1 818 0 discriminator 3
 992 001c A682     		strh	r6, [r4, #20]	@ movhi
 993              		.loc 1 819 0 discriminator 3
 994 001e 2374     		strb	r3, [r4, #16]
 995              		.loc 1 846 0 discriminator 3
 996 0020 40B1     		cbz	r0, .L125
 997              		.loc 1 847 0
 998 0022 8442     		cmp	r4, r0
 999 0024 13D0     		beq	.L130
 1000 0026 0346     		mov	r3, r0
 1001 0028 01E0     		b	.L127
 1002              	.LVL121:
 1003              	.L128:
 1004 002a 9C42     		cmp	r4, r3
 1005 002c 0FD0     		beq	.L130
 1006              	.L127:
 1007              		.loc 1 846 0
 1008 002e DB68     		ldr	r3, [r3, #12]
 1009              	.LVL122:
 1010 0030 002B     		cmp	r3, #0
 1011 0032 FAD1     		bne	.L128
 1012              	.LVL123:
 1013              	.L125:
 1014              		.loc 1 853 0
 1015 0034 E060     		str	r0, [r4, #12]
 1016              		.loc 1 855 0
 1017 0036 0020     		movs	r0, #0
 1018              		.loc 1 854 0
 1019 0038 0C60     		str	r4, [r1, #0]
 1020              		.loc 1 856 0
 1021 003a 40B2     		sxtb	r0, r0
 1022 003c 70BD     		pop	{r4, r5, r6, pc}
ARM GAS  /var/folders/5n/p_75w94d66l9ssrldxqdhh700000gn/T//ccNT7h4C.s 			page 19


 1023              	.LVL124:
 1024              	.L120:
 1025              	.LBB3:
 1026              		.loc 1 811 0
 1027 003e 0146     		mov	r1, r0
 1028              	.LVL125:
 1029 0040 1A46     		mov	r2, r3
 1030              	.LVL126:
 1031 0042 FFF7FEFF 		bl	udp_bind
 1032              	.LVL127:
 1033              		.loc 1 812 0
 1034 0046 0028     		cmp	r0, #0
 1035 0048 E0D0     		beq	.L124
 1036              	.LBE3:
 1037              		.loc 1 856 0
 1038 004a 40B2     		sxtb	r0, r0
 1039 004c 70BD     		pop	{r4, r5, r6, pc}
 1040              	.LVL128:
 1041              	.L130:
 1042              		.loc 1 849 0
 1043 004e 0020     		movs	r0, #0
 1044              		.loc 1 856 0
 1045 0050 40B2     		sxtb	r0, r0
 1046 0052 70BD     		pop	{r4, r5, r6, pc}
 1047              	.L135:
 1048              		.align	2
 1049              	.L134:
 1050 0054 00000000 		.word	.LANCHOR0
 1051              		.cfi_endproc
 1052              	.LFE12:
 1053              		.size	udp_connect, .-udp_connect
 1054 0058 AFF30080 		.section	.text.udp_disconnect,"ax",%progbits
 1054      AFF30080 
 1055              		.align	2
 1056              		.p2align 4,,15
 1057              		.global	udp_disconnect
 1058              		.thumb
 1059              		.thumb_func
 1060              		.type	udp_disconnect, %function
 1061              	udp_disconnect:
 1062              	.LFB13:
 1063              		.loc 1 865 0
 1064              		.cfi_startproc
 1065              		@ args = 0, pretend = 0, frame = 0
 1066              		@ frame_needed = 0, uses_anonymous_args = 0
 1067              		@ link register save eliminated.
 1068              	.LVL129:
 1069              		.loc 1 870 0
 1070 0000 027C     		ldrb	r2, [r0, #16]	@ zero_extendqisi2
 1071              		.loc 1 867 0
 1072 0002 0023     		movs	r3, #0
 1073              		.loc 1 870 0
 1074 0004 22F00402 		bic	r2, r2, #4
 1075              		.loc 1 867 0
 1076 0008 4360     		str	r3, [r0, #4]
 1077              		.loc 1 868 0
 1078 000a 8382     		strh	r3, [r0, #20]	@ movhi
ARM GAS  /var/folders/5n/p_75w94d66l9ssrldxqdhh700000gn/T//ccNT7h4C.s 			page 20


 1079              		.loc 1 870 0
 1080 000c 0274     		strb	r2, [r0, #16]
 1081 000e 7047     		bx	lr
 1082              		.cfi_endproc
 1083              	.LFE13:
 1084              		.size	udp_disconnect, .-udp_disconnect
 1085              		.section	.text.udp_recv,"ax",%progbits
 1086              		.align	2
 1087              		.p2align 4,,15
 1088              		.global	udp_recv
 1089              		.thumb
 1090              		.thumb_func
 1091              		.type	udp_recv, %function
 1092              	udp_recv:
 1093              	.LFB14:
 1094              		.loc 1 884 0
 1095              		.cfi_startproc
 1096              		@ args = 0, pretend = 0, frame = 0
 1097              		@ frame_needed = 0, uses_anonymous_args = 0
 1098              		@ link register save eliminated.
 1099              	.LVL130:
 1100              		.loc 1 886 0
 1101 0000 8161     		str	r1, [r0, #24]
 1102              		.loc 1 887 0
 1103 0002 C261     		str	r2, [r0, #28]
 1104 0004 7047     		bx	lr
 1105              		.cfi_endproc
 1106              	.LFE14:
 1107              		.size	udp_recv, .-udp_recv
 1108 0006 00BFAFF3 		.section	.text.udp_remove,"ax",%progbits
 1108      0080AFF3 
 1108      0080
 1109              		.align	2
 1110              		.p2align 4,,15
 1111              		.global	udp_remove
 1112              		.thumb
 1113              		.thumb_func
 1114              		.type	udp_remove, %function
 1115              	udp_remove:
 1116              	.LFB15:
 1117              		.loc 1 900 0
 1118              		.cfi_startproc
 1119              		@ args = 0, pretend = 0, frame = 0
 1120              		@ frame_needed = 0, uses_anonymous_args = 0
 1121              		@ link register save eliminated.
 1122              	.LVL131:
 1123              		.loc 1 905 0
 1124 0000 0B4B     		ldr	r3, .L153
 1125 0002 1A68     		ldr	r2, [r3, #0]
 1126 0004 8242     		cmp	r2, r0
 1127              		.loc 1 900 0
 1128 0006 0146     		mov	r1, r0
 1129              		.loc 1 905 0
 1130 0008 0FD0     		beq	.L139
 1131              	.LVL132:
 1132              		.loc 1 910 0 discriminator 1
 1133 000a 1AB9     		cbnz	r2, .L150
ARM GAS  /var/folders/5n/p_75w94d66l9ssrldxqdhh700000gn/T//ccNT7h4C.s 			page 21


 1134 000c 05E0     		b	.L142
 1135              	.LVL133:
 1136              	.L152:
 1137              		.loc 1 912 0 discriminator 1
 1138 000e 9942     		cmp	r1, r3
 1139 0010 06D0     		beq	.L151
 1140              	.L143:
 1141              		.loc 1 900 0
 1142 0012 1A46     		mov	r2, r3
 1143              	.L150:
 1144              		.loc 1 912 0
 1145 0014 D368     		ldr	r3, [r2, #12]
 1146 0016 002B     		cmp	r3, #0
 1147 0018 F9D1     		bne	.L152
 1148              	.L142:
 1149              		.loc 1 918 0
 1150 001a 0120     		movs	r0, #1
 1151              	.LVL134:
 1152              		.loc 1 919 0
 1153              		.loc 1 918 0
 1154 001c FFF7FEBF 		b	memp_free
 1155              	.LVL135:
 1156              	.L151:
 1157              		.loc 1 914 0
 1158 0020 CB68     		ldr	r3, [r1, #12]
 1159 0022 D360     		str	r3, [r2, #12]
 1160              	.LVL136:
 1161              		.loc 1 910 0
 1162 0024 002B     		cmp	r3, #0
 1163 0026 F4D1     		bne	.L143
 1164 0028 F7E7     		b	.L142
 1165              	.LVL137:
 1166              	.L139:
 1167              		.loc 1 907 0
 1168 002a C268     		ldr	r2, [r0, #12]
 1169 002c 1A60     		str	r2, [r3, #0]
 1170 002e F4E7     		b	.L142
 1171              	.L154:
 1172              		.align	2
 1173              	.L153:
 1174 0030 00000000 		.word	.LANCHOR0
 1175              		.cfi_endproc
 1176              	.LFE15:
 1177              		.size	udp_remove, .-udp_remove
 1178 0034 AFF30080 		.section	.text.udp_new,"ax",%progbits
 1178      AFF30080 
 1178      AFF30080 
 1179              		.align	2
 1180              		.p2align 4,,15
 1181              		.global	udp_new
 1182              		.thumb
 1183              		.thumb_func
 1184              		.type	udp_new, %function
 1185              	udp_new:
 1186              	.LFB16:
 1187              		.loc 1 931 0
 1188              		.cfi_startproc
ARM GAS  /var/folders/5n/p_75w94d66l9ssrldxqdhh700000gn/T//ccNT7h4C.s 			page 22


 1189              		@ args = 0, pretend = 0, frame = 0
 1190              		@ frame_needed = 0, uses_anonymous_args = 0
 1191 0000 10B5     		push	{r4, lr}
 1192              	.LCFI8:
 1193              		.cfi_def_cfa_offset 8
 1194              		.cfi_offset 4, -8
 1195              		.cfi_offset 14, -4
 1196              		.loc 1 933 0
 1197 0002 0120     		movs	r0, #1
 1198 0004 FFF7FEFF 		bl	memp_malloc
 1199              	.LVL138:
 1200              		.loc 1 935 0
 1201 0008 0446     		mov	r4, r0
 1202 000a 28B1     		cbz	r0, .L156
 1203              		.loc 1 940 0
 1204 000c 0021     		movs	r1, #0
 1205 000e 2022     		movs	r2, #32
 1206 0010 FFF7FEFF 		bl	memset
 1207              	.LVL139:
 1208              		.loc 1 941 0
 1209 0014 FF23     		movs	r3, #255
 1210 0016 A372     		strb	r3, [r4, #10]
 1211              	.L156:
 1212              		.loc 1 944 0
 1213 0018 2046     		mov	r0, r4
 1214 001a 10BD     		pop	{r4, pc}
 1215              		.cfi_endproc
 1216              	.LFE16:
 1217              		.size	udp_new, .-udp_new
 1218              		.global	udp_pcbs
 1219 001c AFF30080 		.section	.bss.udp_pcbs,"aw",%nobits
 1220              		.align	2
 1221              		.set	.LANCHOR0,. + 0
 1222              		.type	udp_pcbs, %object
 1223              		.size	udp_pcbs, 4
 1224              	udp_pcbs:
 1225 0000 00000000 		.space	4
 1226              		.text
 1227              	.Letext0:
 1228              		.file 2 "/usr/local/cross/lib/gcc/arm-none-eabi/4.7.2/../../../../arm-none-eabi/include/stdint.h"
 1229              		.file 3 "../../os/various/lwip_bindings/arch/cc.h"
 1230              		.file 4 "../../ext/lwip-1.4.0/src/include/lwip/err.h"
 1231              		.file 5 "../../ext/lwip-1.4.0/src/include/lwip/pbuf.h"
 1232              		.file 6 "../../ext/lwip-1.4.0/src/include/ipv4/lwip/ip_addr.h"
 1233              		.file 7 "../../ext/lwip-1.4.0/src/include/lwip/netif.h"
 1234              		.file 8 "../../ext/lwip-1.4.0/src/include/ipv4/lwip/ip.h"
 1235              		.file 9 "../../ext/lwip-1.4.0/src/include/lwip/udp.h"
 1236              		.file 10 "../../ext/lwip-1.4.0/src/include/lwip/memp.h"
 1237              		.file 11 "../../ext/lwip-1.4.0/src/include/lwip/mem.h"
 1238              		.file 12 "../../ext/lwip-1.4.0/src/include/lwip/stats.h"
 1239              		.file 13 "../../ext/lwip-1.4.0/src/include/lwip/def.h"
 1240              		.file 14 "../../ext/lwip-1.4.0/src/include/ipv4/lwip/inet_chksum.h"
 1241              		.file 15 "../../ext/lwip-1.4.0/src/include/ipv4/lwip/icmp.h"
 1242              		.file 16 "../../os/ports/GCC/ARMCMx/chcore_v7m.h"