###############################################################################
#                                                                             #
# IAR ELF Linker V6.40.2.53884/W32 for ARM              09/Sep/2012  18:28:12 #
# Copyright 2007-2012 IAR Systems AB.                                         #
#                                                                             #
#    Output file  =  C:\Users\Sin\Documents\STM32\STM32L_Discovery_Firmware_P #
#                    ack_V1.0.2\Projects\AN3964-Temperature_sensor\EWARM\STM3 #
#                    2L-DISCOVERY\Exe\STM32L152-EVAL.out                      #
#    Map file     =  C:\Users\Sin\Documents\STM32\STM32L_Discovery_Firmware_P #
#                    ack_V1.0.2\Projects\AN3964-Temperature_sensor\EWARM\STM3 #
#                    2L-DISCOVERY\List\STM32L152-EVAL.map                     #
#    Command line =  C:\Users\Sin\Documents\STM32\STM32L_Discovery_Firmware_P #
#                    ack_V1.0.2\Projects\AN3964-Temperature_sensor\EWARM\STM3 #
#                    2L-DISCOVERY\Obj\core_cm3.o                              #
#                    C:\Users\Sin\Documents\STM32\STM32L_Discovery_Firmware_P #
#                    ack_V1.0.2\Projects\AN3964-Temperature_sensor\EWARM\STM3 #
#                    2L-DISCOVERY\Obj\main.o C:\Users\Sin\Documents\STM32\STM #
#                    32L_Discovery_Firmware_Pack_V1.0.2\Projects\AN3964-Tempe #
#                    rature_sensor\EWARM\STM32L-DISCOVERY\Obj\misc.o          #
#                    C:\Users\Sin\Documents\STM32\STM32L_Discovery_Firmware_P #
#                    ack_V1.0.2\Projects\AN3964-Temperature_sensor\EWARM\STM3 #
#                    2L-DISCOVERY\Obj\startup_stm32l1xx_md.o                  #
#                    C:\Users\Sin\Documents\STM32\STM32L_Discovery_Firmware_P #
#                    ack_V1.0.2\Projects\AN3964-Temperature_sensor\EWARM\STM3 #
#                    2L-DISCOVERY\Obj\stm32l1xx_adc.o                         #
#                    C:\Users\Sin\Documents\STM32\STM32L_Discovery_Firmware_P #
#                    ack_V1.0.2\Projects\AN3964-Temperature_sensor\EWARM\STM3 #
#                    2L-DISCOVERY\Obj\stm32l1xx_comp.o                        #
#                    C:\Users\Sin\Documents\STM32\STM32L_Discovery_Firmware_P #
#                    ack_V1.0.2\Projects\AN3964-Temperature_sensor\EWARM\STM3 #
#                    2L-DISCOVERY\Obj\stm32l1xx_crc.o                         #
#                    C:\Users\Sin\Documents\STM32\STM32L_Discovery_Firmware_P #
#                    ack_V1.0.2\Projects\AN3964-Temperature_sensor\EWARM\STM3 #
#                    2L-DISCOVERY\Obj\stm32l1xx_dac.o                         #
#                    C:\Users\Sin\Documents\STM32\STM32L_Discovery_Firmware_P #
#                    ack_V1.0.2\Projects\AN3964-Temperature_sensor\EWARM\STM3 #
#                    2L-DISCOVERY\Obj\stm32l1xx_dbgmcu.o                      #
#                    C:\Users\Sin\Documents\STM32\STM32L_Discovery_Firmware_P #
#                    ack_V1.0.2\Projects\AN3964-Temperature_sensor\EWARM\STM3 #
#                    2L-DISCOVERY\Obj\stm32l1xx_dma.o                         #
#                    C:\Users\Sin\Documents\STM32\STM32L_Discovery_Firmware_P #
#                    ack_V1.0.2\Projects\AN3964-Temperature_sensor\EWARM\STM3 #
#                    2L-DISCOVERY\Obj\stm32l1xx_exti.o                        #
#                    C:\Users\Sin\Documents\STM32\STM32L_Discovery_Firmware_P #
#                    ack_V1.0.2\Projects\AN3964-Temperature_sensor\EWARM\STM3 #
#                    2L-DISCOVERY\Obj\stm32l1xx_flash.o                       #
#                    C:\Users\Sin\Documents\STM32\STM32L_Discovery_Firmware_P #
#                    ack_V1.0.2\Projects\AN3964-Temperature_sensor\EWARM\STM3 #
#                    2L-DISCOVERY\Obj\stm32l1xx_flash_ramfunc.o               #
#                    C:\Users\Sin\Documents\STM32\STM32L_Discovery_Firmware_P #
#                    ack_V1.0.2\Projects\AN3964-Temperature_sensor\EWARM\STM3 #
#                    2L-DISCOVERY\Obj\stm32l1xx_gpio.o                        #
#                    C:\Users\Sin\Documents\STM32\STM32L_Discovery_Firmware_P #
#                    ack_V1.0.2\Projects\AN3964-Temperature_sensor\EWARM\STM3 #
#                    2L-DISCOVERY\Obj\stm32l1xx_i2c.o                         #
#                    C:\Users\Sin\Documents\STM32\STM32L_Discovery_Firmware_P #
#                    ack_V1.0.2\Projects\AN3964-Temperature_sensor\EWARM\STM3 #
#                    2L-DISCOVERY\Obj\stm32l1xx_it.o                          #
#                    C:\Users\Sin\Documents\STM32\STM32L_Discovery_Firmware_P #
#                    ack_V1.0.2\Projects\AN3964-Temperature_sensor\EWARM\STM3 #
#                    2L-DISCOVERY\Obj\stm32l1xx_iwdg.o                        #
#                    C:\Users\Sin\Documents\STM32\STM32L_Discovery_Firmware_P #
#                    ack_V1.0.2\Projects\AN3964-Temperature_sensor\EWARM\STM3 #
#                    2L-DISCOVERY\Obj\stm32l1xx_lcd.o                         #
#                    C:\Users\Sin\Documents\STM32\STM32L_Discovery_Firmware_P #
#                    ack_V1.0.2\Projects\AN3964-Temperature_sensor\EWARM\STM3 #
#                    2L-DISCOVERY\Obj\stm32l1xx_pwr.o                         #
#                    C:\Users\Sin\Documents\STM32\STM32L_Discovery_Firmware_P #
#                    ack_V1.0.2\Projects\AN3964-Temperature_sensor\EWARM\STM3 #
#                    2L-DISCOVERY\Obj\stm32l1xx_rcc.o                         #
#                    C:\Users\Sin\Documents\STM32\STM32L_Discovery_Firmware_P #
#                    ack_V1.0.2\Projects\AN3964-Temperature_sensor\EWARM\STM3 #
#                    2L-DISCOVERY\Obj\stm32l1xx_rtc.o                         #
#                    C:\Users\Sin\Documents\STM32\STM32L_Discovery_Firmware_P #
#                    ack_V1.0.2\Projects\AN3964-Temperature_sensor\EWARM\STM3 #
#                    2L-DISCOVERY\Obj\stm32l1xx_spi.o                         #
#                    C:\Users\Sin\Documents\STM32\STM32L_Discovery_Firmware_P #
#                    ack_V1.0.2\Projects\AN3964-Temperature_sensor\EWARM\STM3 #
#                    2L-DISCOVERY\Obj\stm32l1xx_syscfg.o                      #
#                    C:\Users\Sin\Documents\STM32\STM32L_Discovery_Firmware_P #
#                    ack_V1.0.2\Projects\AN3964-Temperature_sensor\EWARM\STM3 #
#                    2L-DISCOVERY\Obj\stm32l1xx_tim.o                         #
#                    C:\Users\Sin\Documents\STM32\STM32L_Discovery_Firmware_P #
#                    ack_V1.0.2\Projects\AN3964-Temperature_sensor\EWARM\STM3 #
#                    2L-DISCOVERY\Obj\stm32l1xx_usart.o                       #
#                    C:\Users\Sin\Documents\STM32\STM32L_Discovery_Firmware_P #
#                    ack_V1.0.2\Projects\AN3964-Temperature_sensor\EWARM\STM3 #
#                    2L-DISCOVERY\Obj\stm32l1xx_wwdg.o                        #
#                    C:\Users\Sin\Documents\STM32\STM32L_Discovery_Firmware_P #
#                    ack_V1.0.2\Projects\AN3964-Temperature_sensor\EWARM\STM3 #
#                    2L-DISCOVERY\Obj\stm32l_discovery_lcd.o                  #
#                    C:\Users\Sin\Documents\STM32\STM32L_Discovery_Firmware_P #
#                    ack_V1.0.2\Projects\AN3964-Temperature_sensor\EWARM\STM3 #
#                    2L-DISCOVERY\Obj\system_stm32l1xx.o --redirect           #
#                    _Printf=_PrintfFull --redirect _Scanf=_ScanfFull -o      #
#                    C:\Users\Sin\Documents\STM32\STM32L_Discovery_Firmware_P #
#                    ack_V1.0.2\Projects\AN3964-Temperature_sensor\EWARM\STM3 #
#                    2L-DISCOVERY\Exe\STM32L152-EVAL.out --map                #
#                    C:\Users\Sin\Documents\STM32\STM32L_Discovery_Firmware_P #
#                    ack_V1.0.2\Projects\AN3964-Temperature_sensor\EWARM\STM3 #
#                    2L-DISCOVERY\List\STM32L152-EVAL.map --config            #
#                    C:\Users\Sin\Documents\STM32\STM32L_Discovery_Firmware_P #
#                    ack_V1.0.2\Projects\AN3964-Temperature_sensor\EWARM\stm3 #
#                    2l1xx_flash.icf --semihosting --entry                    #
#                    __iar_program_start --vfe                                #
#                                                                             #
#                                                                             #
###############################################################################

*******************************************************************************
*** RUNTIME MODEL ATTRIBUTES
***

CppFlavor                     = *
__Heap_Handler                = Basic
__SystemLibrary               = DLib
__dlib_dynamic_initialization = normal


*******************************************************************************
*** PLACEMENT SUMMARY
***

"A1":  place at 0x08000000 { ro section .intvec };
"P1":  place in [from 0x08000000 to 0x0801ffff] { ro };
"P2":  place in [from 0x20000000 to 0x20003fff] { rw, block CSTACK, block HEAP };

  Section             Kind        Address    Size  Object
  -------             ----        -------    ----  ------
"A1":                                        0xf4
  .intvec             ro code  0x08000000    0xf4  startup_stm32l1xx_md.o [1]
                             - 0x080000f4    0xf4

"P1":                                      0x37ac
  .text               ro code  0x080000f4  0x105a  xprintffull.o [3]
  .text               ro code  0x0800114e    0x20  xmbtowc.o [3]
  .text               ro code  0x0800116e    0x2e  copy_init3.o [5]
  .text               ro code  0x0800119c    0x16  strchr.o [5]
  .text               ro code  0x080011b2    0x22  zero_init3.o [5]
  .text               ro code  0x080011d4    0x36  strlen.o [5]
  .text               ro code  0x0800120a     0xa  xsprout.o [3]
  .text               ro code  0x08001214    0x58  memchr.o [5]
  .text               ro code  0x0800126c     0xa  xmbcurmax.o [3]
  .text               ro code  0x08001278    0xb0  xxmemxmalloc.o [3]
  .text               ro code  0x08001328    0x1a  xwctomb.o [3]
  .text               ro code  0x08001344    0x76  ABImemcpy.o [5]
  .text               ro code  0x080013bc    0x80  xxmemxfree.o [3]
  .text               ro code  0x0800143c    0xee  I64DivMod.o [5]
  .text               ro code  0x0800152a    0x42  xdnorm.o [4]
  .text               ro code  0x0800156c    0x2e  DblCmpLe.o [4]
  .text               ro code  0x0800159c    0x2e  DblCmpGe.o [4]
  .text               ro code  0x080015cc   0x10c  xdscale.o [4]
  .text               ro code  0x080016d8    0x58  DblToI32.o [4]
  .text               ro code  0x08001730    0x30  I32ToDbl.o [4]
  .text               ro code  0x08001760   0x180  DblSub.o [4]
  .text               ro code  0x080018e0   0x1a2  DblMul.o [4]
  .text               ro code  0x08001a84   0x246  DblDiv.o [4]
  .text               ro code  0x08001ccc    0x6c  localeconv.o [3]
  .text               ro code  0x08001d38     0xe  div.o [3]
  .text               ro code  0x08001d48    0x14  setlocale.o [3]
  .text               ro code  0x08001d5c    0x60  xencoding_sb.o [3]
  .text               ro code  0x08001dbc    0x28  xgetmemchunk.o [3]
  .text               ro code  0x08001de4     0x2  I64DivZer.o [5]
  .text               ro code  0x08001de8    0xd4  DblAdd.o [4]
  .text               ro code  0x08001ebc     0x2  xtls.o [3]
  .text               ro code  0x08001ec0   0x678  main.o [1]
  .text               ro code  0x08002538    0x60  stm32l1xx_pwr.o [1]
  .text               ro code  0x08002598    0x18  stm32l1xx_dbgmcu.o [1]
  .text               ro code  0x080025b0   0x190  stm32l1xx_rcc.o [1]
  .text               ro code  0x08002740   0x65c  stm32l_discovery_lcd.o [1]
  .text               ro code  0x08002d9c    0x34  sprintf.o [3]
  .text               ro code  0x08002dd0   0x146  stm32l1xx_rtc.o [1]
  .text               ro code  0x08002f18    0x90  stm32l1xx_flash.o [1]
  .text               ro code  0x08002fa8    0x74  stm32l1xx_exti.o [1]
  .text               ro code  0x0800301c   0x198  stm32l1xx_adc.o [1]
  .text               ro code  0x080031b4   0x118  stm32l1xx_dma.o [1]
  .text               ro code  0x080032cc    0x68  misc.o [1]
  .text               ro code  0x08003334    0xa4  stm32l1xx_gpio.o [1]
  .text               ro code  0x080033d8    0x28  stm32l1xx_syscfg.o [1]
  .text               ro code  0x08003400    0xb8  stm32l1xx_lcd.o [1]
  .text               ro code  0x080034b8     0x6  ABImemclr4.o [5]
  .text               ro code  0x080034c0    0x32  ABImemset48.o [5]
  .text               ro code  0x080034f4    0xdc  system_stm32l1xx.o [1]
  .text               ro code  0x080035d0    0x50  stm32l1xx_it.o [1]
  .rodata             const    0x08003620    0x48  main.o [1]
  .rodata             const    0x08003668    0x48  stm32l_discovery_lcd.o [1]
  .text               ro code  0x080036b0    0x28  data_init3.o [5]
  .iar.init_table     const    0x080036d8    0x24  - Linker created -
  .text               ro code  0x080036fc    0x16  cmain.o [5]
  .text               ro code  0x08003712     0x4  low_level_init.o [3]
  .text               ro code  0x08003716     0x4  exit.o [3]
  .text               ro code  0x0800371c     0xa  cexit.o [5]
  .text               ro code  0x08003728    0x14  exit.o [6]
  .text               ro code  0x0800373c    0x10  startup_stm32l1xx_md.o [1]
  .text               ro code  0x0800374c     0xc  cstartup_M.o [5]
  .text               ro code  0x08003758     0x4  startup_stm32l1xx_md.o [1]
  .text               ro code  0x0800375c     0x4  startup_stm32l1xx_md.o [1]
  .text               ro code  0x08003760     0x4  startup_stm32l1xx_md.o [1]
  .text               ro code  0x08003764     0x4  startup_stm32l1xx_md.o [1]
  .text               ro code  0x08003768     0x4  startup_stm32l1xx_md.o [1]
  .text               ro code  0x0800376c     0x4  startup_stm32l1xx_md.o [1]
  .text               ro code  0x08003770     0x4  startup_stm32l1xx_md.o [1]
  .text               ro code  0x08003774     0x4  startup_stm32l1xx_md.o [1]
  .text               ro code  0x08003778     0x4  startup_stm32l1xx_md.o [1]
  .text               ro code  0x0800377c     0x4  startup_stm32l1xx_md.o [1]
  .text               ro code  0x08003780     0x4  startup_stm32l1xx_md.o [1]
  .text               ro code  0x08003784     0x4  startup_stm32l1xx_md.o [1]
  .text               ro code  0x08003788     0x4  startup_stm32l1xx_md.o [1]
  .text               ro code  0x0800378c     0x4  startup_stm32l1xx_md.o [1]
  .text               ro code  0x08003790     0x4  startup_stm32l1xx_md.o [1]
  .text               ro code  0x08003794     0x4  startup_stm32l1xx_md.o [1]
  .text               ro code  0x08003798     0x4  startup_stm32l1xx_md.o [1]
  .text               ro code  0x0800379c     0x4  startup_stm32l1xx_md.o [1]
  .text               ro code  0x080037a0     0x4  startup_stm32l1xx_md.o [1]
  .text               ro code  0x080037a4     0x4  startup_stm32l1xx_md.o [1]
  .text               ro code  0x080037a8     0x4  startup_stm32l1xx_md.o [1]
  .text               ro code  0x080037ac     0x4  startup_stm32l1xx_md.o [1]
  .text               ro code  0x080037b0     0x4  startup_stm32l1xx_md.o [1]
  .text               ro code  0x080037b4     0x4  startup_stm32l1xx_md.o [1]
  .text               ro code  0x080037b8     0x4  startup_stm32l1xx_md.o [1]
  .text               ro code  0x080037bc     0x4  startup_stm32l1xx_md.o [1]
  .text               ro code  0x080037c0     0x4  startup_stm32l1xx_md.o [1]
  .text               ro code  0x080037c4     0x4  startup_stm32l1xx_md.o [1]
  .text               ro code  0x080037c8     0x4  startup_stm32l1xx_md.o [1]
  .text               ro code  0x080037cc     0x4  startup_stm32l1xx_md.o [1]
  .text               ro code  0x080037d0     0x4  startup_stm32l1xx_md.o [1]
  .text               ro code  0x080037d4     0x4  startup_stm32l1xx_md.o [1]
  .text               ro code  0x080037d8     0x4  startup_stm32l1xx_md.o [1]
  .text               ro code  0x080037dc     0x4  startup_stm32l1xx_md.o [1]
  .text               ro code  0x080037e0     0x4  startup_stm32l1xx_md.o [1]
  .text               ro code  0x080037e4     0x4  startup_stm32l1xx_md.o [1]
  .text               ro code  0x080037e8     0x4  startup_stm32l1xx_md.o [1]
  .text               ro code  0x080037ec     0x4  startup_stm32l1xx_md.o [1]
  .text               ro code  0x080037f0     0x4  startup_stm32l1xx_md.o [1]
  .text               ro code  0x080037f4     0x4  startup_stm32l1xx_md.o [1]
  .text               ro code  0x080037f8     0x4  startup_stm32l1xx_md.o [1]
  .text               ro code  0x080037fc     0x4  startup_stm32l1xx_md.o [1]
  .text               ro code  0x08003800     0x4  startup_stm32l1xx_md.o [1]
  .text               ro code  0x08003804     0x4  startup_stm32l1xx_md.o [1]
  .text               ro code  0x08003808     0x4  startup_stm32l1xx_md.o [1]
  .text               ro code  0x0800380c     0x4  startup_stm32l1xx_md.o [1]
  .text               ro code  0x08003810     0x4  startup_stm32l1xx_md.o [1]
  .text               ro code  0x08003814     0x4  startup_stm32l1xx_md.o [1]
  .text               ro code  0x08003818     0x4  startup_stm32l1xx_md.o [1]
  .text               ro code  0x0800381c     0x4  startup_stm32l1xx_md.o [1]
  .text               ro code  0x08003820     0x4  startup_stm32l1xx_md.o [1]
  .text               ro code  0x08003824     0x4  startup_stm32l1xx_md.o [1]
  .text               ro code  0x08003828     0x4  startup_stm32l1xx_md.o [1]
  .text               ro code  0x0800382c     0x4  startup_stm32l1xx_md.o [1]
  .rodata             const    0x08003830     0x0  zero_init3.o [5]
  .rodata             const    0x08003830     0x0  copy_init3.o [5]
  Initializer bytes   ro data  0x08003830    0x70  <for P2 s0>
                             - 0x080038a0  0x37ac

"P2", part 1 of 3:                           0x70
  P2 s0                        0x20000000    0x70  <Init block>
    __DLIB_PERTHREAD  inited   0x20000000    0x50  localeconv.o [3]
    .data             inited   0x20000050    0x1c  stm32l1xx_rcc.o [1]
    .data             inited   0x2000006c     0x1  main.o [1]
                             - 0x20000070    0x70

"P2", part 2 of 3:                          0x138
  .bss                zero     0x20000070    0x90  main.o [1]
  __DLIB_PERTHREAD    zero     0x20000100    0x74  setlocale.o [3]
  .bss                zero     0x20000174    0x20  main.o [1]
  .bss                zero     0x20000194     0x8  xxmemxmalloc.o [3]
  .bss                zero     0x2000019c     0x4  main.o [1]
  .bss                zero     0x200001a0     0x4  xgetmemchunk.o [3]
  .bss                zero     0x200001a4     0x2  stm32l_discovery_lcd.o [1]
  .bss                zero     0x200001a6     0x1  stm32l_discovery_lcd.o [1]
                             - 0x200001a7   0x137

"P2", part 3 of 3:                          0x600
  CSTACK                       0x200001a8   0x400  <Block>
    CSTACK            uninit   0x200001a8   0x400  <Block tail>
  HEAP                         0x200005a8   0x200  <Block>
    HEAP              uninit   0x200005a8   0x200  <Block tail>
                             - 0x200007a8   0x600


*******************************************************************************
*** INIT TABLE
***

          Address     Size
          -------     ----
Zero (__iar_zero_init3)
    1 destination range, total size 0x137:
          0x20000070  0x137

Copy (__iar_copy_init3)
    1 source range, total size 0x70 (102% of destination):
          0x08003830   0x70
    1 destination range, total size 0x6d:
          0x20000000   0x6d



*******************************************************************************
*** MODULE SUMMARY
***

    Module                  ro code  ro data  rw data
    ------                  -------  -------  -------
C:\Users\Sin\Documents\STM32\STM32L_Discovery_Firmware_Pack_V1.0.2\Projects\AN3964-Temperature_sensor\EWARM\STM32L-DISCOVERY\Obj: [1]
    main.o                    1 656       73      181
    misc.o                      104
    startup_stm32l1xx_md.o      476
    stm32l1xx_adc.o             408
    stm32l1xx_dbgmcu.o           24
    stm32l1xx_dma.o             280
    stm32l1xx_exti.o            116
    stm32l1xx_flash.o           144
    stm32l1xx_gpio.o            164
    stm32l1xx_it.o               80
    stm32l1xx_lcd.o             184
    stm32l1xx_pwr.o              96
    stm32l1xx_rcc.o             400       28       28
    stm32l1xx_rtc.o             326
    stm32l1xx_syscfg.o           40
    stm32l_discovery_lcd.o    1 628       72        3
    system_stm32l1xx.o          220
    -------------------------------------------------
    Total:                    6 346      173      212

command line: [2]
    -------------------------------------------------
    Total:

dl7M_tlf.a: [3]
    div.o                        14
    exit.o                        4
    localeconv.o                108       80       80
    low_level_init.o              4
    setlocale.o                  20               116
    sprintf.o                    52
    xencoding_sb.o               96
    xgetmemchunk.o               40                 4
    xmbcurmax.o                  10
    xmbtowc.o                    32
    xprintffull.o             4 186
    xsprout.o                    10
    xtls.o                        2
    xwctomb.o                    26
    xxmemxfree.o                128
    xxmemxmalloc.o              176                 8
    -------------------------------------------------
    Total:                    4 908       80      208

m7M_tl.a: [4]
    DblAdd.o                    212
    DblCmpGe.o                   46
    DblCmpLe.o                   46
    DblDiv.o                    582
    DblMul.o                    418
    DblSub.o                    384
    DblToI32.o                   88
    I32ToDbl.o                   48
    xdnorm.o                     66
    xdscale.o                   268
    -------------------------------------------------
    Total:                    2 158

rt7M_tl.a: [5]
    ABImemclr4.o                  6
    ABImemcpy.o                 118
    ABImemset48.o                50
    I64DivMod.o                 238
    I64DivZer.o                   2
    cexit.o                      10
    cmain.o                      22
    copy_init3.o                 46
    cstartup_M.o                 12
    data_init3.o                 40
    memchr.o                     88
    strchr.o                     22
    strlen.o                     54
    zero_init3.o                 34
    -------------------------------------------------
    Total:                      742

shb_l.a: [6]
    exit.o                       20
    -------------------------------------------------
    Total:                       20

    Gaps                         30
    Linker created                        39    1 536
-----------------------------------------------------
    Grand Total:             14 204      292    1 956


*******************************************************************************
*** ENTRY LIST
***

Entry                      Address   Size  Type      Object
-----                      -------   ----  ----      ------
?main                   0x080036fd         Code  Gb  cmain.o [5]
ADC1_IRQHandler         0x080037c5         Code  Wk  startup_stm32l1xx_md.o [1]
ADC_Cmd                 0x08003087   0x12  Code  Gb  stm32l1xx_adc.o [1]
ADC_CommonInit          0x08003077   0x10  Code  Gb  stm32l1xx_adc.o [1]
ADC_CommonInitStructure
                        0x20000190    0x4  Data  Gb  main.o [1]
ADC_ConvertedValueBuff  0x2000007c   0x28  Data  Gb  main.o [1]
ADC_DMACmd              0x08003195   0x12  Code  Gb  stm32l1xx_adc.o [1]
ADC_GetFlagStatus       0x080031a7    0xe  Code  Gb  stm32l1xx_adc.o [1]
ADC_Init                0x0800301d   0x40  Code  Gb  stm32l1xx_adc.o [1]
ADC_InitStructure       0x20000174   0x18  Data  Gb  main.o [1]
ADC_RegularChannelConfig
                        0x080030bd   0xce  Code  Gb  stm32l1xx_adc.o [1]
ADC_SoftwareStartConv   0x0800318b    0xa  Code  Gb  stm32l1xx_adc.o [1]
ADC_StructInit          0x0800305d   0x1a  Code  Gb  stm32l1xx_adc.o [1]
ADC_TempSensorVrefintCmd
                        0x08003099   0x14  Code  Gb  stm32l1xx_adc.o [1]
APBAHBPrescTable        0x2000005c   0x10  Data  Lc  stm32l1xx_rcc.o [1]
BusFault_Handler        0x080035d7    0x2  Code  Gb  stm32l1xx_it.o [1]
COMP_IRQHandler         0x080037d5         Code  Wk  startup_stm32l1xx_md.o [1]
CSTACK$$Base            0x200001a8          --   Gb  - Linker created -
CSTACK$$Limit           0x200005a8          --   Gb  - Linker created -
CapLetterMap            0x0800367c   0x34  Data  Gb  stm32l_discovery_lcd.o [1]
CurrentlyDisplayed      0x20000078    0x1  Data  Gb  main.o [1]
DAC_IRQHandler          0x080037d1         Code  Wk  startup_stm32l1xx_md.o [1]
DATA_EEPROM_ProgramWord
                        0x08002f37    0xe  Code  Gb  stm32l1xx_flash.o [1]
DATA_EEPROM_Unlock      0x08002f19   0x12  Code  Gb  stm32l1xx_flash.o [1]
DBGMCU_Config           0x08002599   0x12  Code  Gb  stm32l1xx_dbgmcu.o [1]
DMA1_Channel1_IRQHandler
                        0x080035e5   0x10  Code  Gb  stm32l1xx_it.o [1]
DMA1_Channel2_IRQHandler
                        0x080037ad         Code  Wk  startup_stm32l1xx_md.o [1]
DMA1_Channel3_IRQHandler
                        0x080037b1         Code  Wk  startup_stm32l1xx_md.o [1]
DMA1_Channel4_IRQHandler
                        0x080037b5         Code  Wk  startup_stm32l1xx_md.o [1]
DMA1_Channel5_IRQHandler
                        0x080037b9         Code  Wk  startup_stm32l1xx_md.o [1]
DMA1_Channel6_IRQHandler
                        0x080037bd         Code  Wk  startup_stm32l1xx_md.o [1]
DMA1_Channel7_IRQHandler
                        0x080037c1         Code  Wk  startup_stm32l1xx_md.o [1]
DMA_ClearFlag           0x080032a3    0xa  Code  Gb  stm32l1xx_dma.o [1]
DMA_Cmd                 0x0800327f   0x14  Code  Gb  stm32l1xx_dma.o [1]
DMA_DeInit              0x080031b5   0x7a  Code  Gb  stm32l1xx_dma.o [1]
DMA_ITConfig            0x08003293   0x10  Code  Gb  stm32l1xx_dma.o [1]
DMA_Init                0x0800322f   0x36  Code  Gb  stm32l1xx_dma.o [1]
DMA_InitStructure       0x200000a4   0x2c  Data  Gb  main.o [1]
DMA_StructInit          0x08003265   0x1a  Code  Gb  stm32l1xx_dma.o [1]
DebugMon_Handler        0x080035dd    0x2  Code  Gb  stm32l1xx_it.o [1]
Delay                   0x080024c1    0xc  Code  Gb  main.o [1]
EXTI0_IRQHandler        0x08003611    0x8  Code  Gb  stm32l1xx_it.o [1]
EXTI15_10_IRQHandler    0x0800381d         Code  Wk  startup_stm32l1xx_md.o [1]
EXTI1_IRQHandler        0x08003799         Code  Wk  startup_stm32l1xx_md.o [1]
EXTI2_IRQHandler        0x0800379d         Code  Wk  startup_stm32l1xx_md.o [1]
EXTI3_IRQHandler        0x080037a1         Code  Wk  startup_stm32l1xx_md.o [1]
EXTI4_IRQHandler        0x080037a5         Code  Wk  startup_stm32l1xx_md.o [1]
EXTI9_5_IRQHandler      0x080037d9         Code  Wk  startup_stm32l1xx_md.o [1]
EXTI_ClearITPendingBit  0x0800300d    0x2  Code  Gb  stm32l1xx_exti.o [1]
EXTI_Init               0x08002fa9   0x64  Code  Gb  stm32l1xx_exti.o [1]
FLASHStatus             0x2000006c    0x1  Data  Gb  main.o [1]
FLASH_ClearFlag         0x08002f4f    0x6  Code  Gb  stm32l1xx_flash.o [1]
FLASH_GetStatus         0x08002f55   0x26  Code  Gb  stm32l1xx_flash.o [1]
FLASH_IRQHandler        0x0800378d         Code  Wk  startup_stm32l1xx_md.o [1]
FLASH_WaitForLastOperation
                        0x08002f8d   0x1c  Code  Gb  stm32l1xx_flash.o [1]
GPIO_Init               0x08003335   0x6e  Code  Gb  stm32l1xx_gpio.o [1]
GPIO_PinAFConfig        0x080033b5   0x24  Code  Gb  stm32l1xx_gpio.o [1]
GPIO_StructInit         0x080033a3   0x12  Code  Gb  stm32l1xx_gpio.o [1]
HEAP$$Base              0x200005a8          --   Gb  - Linker created -
HEAP$$Limit             0x200007a8          --   Gb  - Linker created -
HardFault_Handler       0x080035d3    0x2  Code  Gb  stm32l1xx_it.o [1]
I2C1_ER_IRQHandler      0x080037fd         Code  Wk  startup_stm32l1xx_md.o [1]
I2C1_EV_IRQHandler      0x080037f9         Code  Wk  startup_stm32l1xx_md.o [1]
I2C2_ER_IRQHandler      0x08003805         Code  Wk  startup_stm32l1xx_md.o [1]
I2C2_EV_IRQHandler      0x08003801         Code  Wk  startup_stm32l1xx_md.o [1]
Init_GPIOs              0x080023df   0x9c  Code  Gb  main.o [1]
KeyPressed              0x200001a6    0x1  Data  Gb  stm32l_discovery_lcd.o [1]
LCD_BlinkConfig         0x0800346b   0x14  Code  Gb  stm32l1xx_lcd.o [1]
LCD_Cmd                 0x08003439    0x6  Code  Gb  stm32l1xx_lcd.o [1]
LCD_ContrastConfig      0x0800347f    0xa  Code  Gb  stm32l1xx_lcd.o [1]
LCD_Conv_Char_Seg       0x08002913   0xc4  Code  Lc  stm32l_discovery_lcd.o [1]
LCD_DeadTimeConfig      0x08003459    0x8  Code  Gb  stm32l1xx_lcd.o [1]
LCD_GLASS_Clear         0x08002ca1   0x1c  Code  Gb  stm32l_discovery_lcd.o [1]
LCD_GLASS_Configure_GPIO
                        0x080027ab  0x11e  Code  Gb  stm32l_discovery_lcd.o [1]
LCD_GLASS_DisplayString
                        0x08002c7d   0x24  Code  Gb  stm32l_discovery_lcd.o [1]
LCD_GLASS_Init          0x08002741   0x6a  Code  Gb  stm32l_discovery_lcd.o [1]
LCD_GLASS_ScrollSentence
                        0x08002cbd   0xa6  Code  Gb  stm32l_discovery_lcd.o [1]
LCD_GLASS_WriteChar     0x080029d9  0x288  Code  Gb  stm32l_discovery_lcd.o [1]
LCD_GetFlagStatus       0x08003491   0x10  Code  Gb  stm32l1xx_lcd.o [1]
LCD_IRQHandler          0x080037dd         Code  Wk  startup_stm32l1xx_md.o [1]
LCD_Init                0x08003401   0x38  Code  Gb  stm32l1xx_lcd.o [1]
LCD_MuxSegmentCmd       0x08003449    0x6  Code  Gb  stm32l1xx_lcd.o [1]
LCD_PulseOnDurationConfig
                        0x0800344f    0xa  Code  Gb  stm32l1xx_lcd.o [1]
LCD_UpdateDisplayRequest
                        0x08003489    0x8  Code  Gb  stm32l1xx_lcd.o [1]
LCD_WaitForSynchro      0x0800343f    0xa  Code  Gb  stm32l1xx_lcd.o [1]
LCD_bar                 0x080028e5   0x2e  Code  Gb  stm32l_discovery_lcd.o [1]
MemManage_Handler       0x080035d5    0x2  Code  Gb  stm32l1xx_it.o [1]
NMI_Handler             0x080035d1    0x2  Code  Gb  stm32l1xx_it.o [1]
NVIC_Init               0x080032cd   0x58  Code  Gb  misc.o [1]
NumberMap               0x08003668   0x14  Data  Gb  stm32l_discovery_lcd.o [1]
PLLMulTable             0x20000050    0xc  Data  Lc  stm32l1xx_rcc.o [1]
PVD_IRQHandler          0x08003781         Code  Wk  startup_stm32l1xx_md.o [1]
PWR_EnterSTOPMode       0x08002551   0x28  Code  Gb  stm32l1xx_pwr.o [1]
PWR_GetFlagStatus       0x08002579   0x10  Code  Gb  stm32l1xx_pwr.o [1]
PWR_RTCAccessCmd        0x08002539    0x6  Code  Gb  stm32l1xx_pwr.o [1]
PWR_VoltageScalingConfig
                        0x0800253f   0x12  Code  Gb  stm32l1xx_pwr.o [1]
PendSV_Handler          0x080035df    0x2  Code  Gb  stm32l1xx_it.o [1]
RCC_AHBPeriphClockCmd   0x080026af   0x12  Code  Gb  stm32l1xx_rcc.o [1]
RCC_APB1PeriphClockCmd  0x080026d3   0x12  Code  Gb  stm32l1xx_rcc.o [1]
RCC_APB2PeriphClockCmd  0x080026c1   0x12  Code  Gb  stm32l1xx_rcc.o [1]
RCC_Clocks              0x200000d0   0x10  Data  Gb  main.o [1]
RCC_Configuration       0x080022fd   0x46  Code  Gb  main.o [1]
RCC_GetClocksFreq       0x080025e3   0x92  Code  Gb  stm32l1xx_rcc.o [1]
RCC_GetFlagStatus       0x080026e5   0x22  Code  Gb  stm32l1xx_rcc.o [1]
RCC_HSEConfig           0x080025b1    0x4  Code  Gb  stm32l1xx_rcc.o [1]
RCC_HSICmd              0x080025bf    0x6  Code  Gb  stm32l1xx_rcc.o [1]
RCC_IRQHandler          0x08003791         Code  Wk  startup_stm32l1xx_md.o [1]
RCC_LSEConfig           0x080025c5    0x2  Code  Gb  stm32l1xx_rcc.o [1]
RCC_MSIRangeConfig      0x080025b5    0xa  Code  Gb  stm32l1xx_rcc.o [1]
RCC_RTCCLKCmd           0x080026a3    0x6  Code  Gb  stm32l1xx_rcc.o [1]
RCC_RTCCLKConfig        0x08002675   0x2e  Code  Gb  stm32l1xx_rcc.o [1]
RCC_RTCResetCmd         0x080026a9    0x6  Code  Gb  stm32l1xx_rcc.o [1]
RCC_SYSCLKConfig        0x080025cf    0xe  Code  Gb  stm32l1xx_rcc.o [1]
RTC_Alarm_IRQHandler    0x08003821         Code  Wk  startup_stm32l1xx_md.o [1]
RTC_ClearITPendingBit   0x08002ef9    0xc  Code  Gb  stm32l1xx_rtc.o [1]
RTC_Configuration       0x08002343   0x36  Code  Gb  main.o [1]
RTC_GetITStatus         0x08002ec1   0x28  Code  Gb  stm32l1xx_rtc.o [1]
RTC_ITConfig            0x08002e91   0x30  Code  Gb  stm32l1xx_rtc.o [1]
RTC_SetWakeUpCounter    0x08002e27   0x12  Code  Gb  stm32l1xx_rtc.o [1]
RTC_WKUP_IRQHandler     0x080035f5   0x1c  Code  Gb  stm32l1xx_it.o [1]
RTC_WaitForSynchro      0x08002dd1   0x3e  Code  Gb  stm32l1xx_rtc.o [1]
RTC_WakeUpClockConfig   0x08002e0f   0x18  Code  Gb  stm32l1xx_rtc.o [1]
RTC_WakeUpCmd           0x08002e39   0x4a  Code  Gb  stm32l1xx_rtc.o [1]
Region$$Table$$Base     0x080036d8          --   Gb  - Linker created -
Region$$Table$$Limit    0x080036fc          --   Gb  - Linker created -
Reset_Handler           0x0800373d         Code  Wk  startup_stm32l1xx_md.o [1]
SPI1_IRQHandler         0x08003809         Code  Wk  startup_stm32l1xx_md.o [1]
SPI2_IRQHandler         0x0800380d         Code  Wk  startup_stm32l1xx_md.o [1]
SVC_Handler             0x080035db    0x2  Code  Gb  stm32l1xx_it.o [1]
SYSCFG_EXTILineConfig   0x080033d9   0x22  Code  Gb  stm32l1xx_syscfg.o [1]
SysTick_Handler         0x080035e1    0x4  Code  Gb  stm32l1xx_it.o [1]
SystemInit              0x080034f5   0xc2  Code  Gb  system_stm32l1xx.o [1]
TAMPER_STAMP_IRQHandler
                        0x08003785         Code  Wk  startup_stm32l1xx_md.o [1]
TIM10_IRQHandler        0x080037e5         Code  Wk  startup_stm32l1xx_md.o [1]
TIM11_IRQHandler        0x080037e9         Code  Wk  startup_stm32l1xx_md.o [1]
TIM2_IRQHandler         0x080037ed         Code  Wk  startup_stm32l1xx_md.o [1]
TIM3_IRQHandler         0x080037f1         Code  Wk  startup_stm32l1xx_md.o [1]
TIM4_IRQHandler         0x080037f5         Code  Wk  startup_stm32l1xx_md.o [1]
TIM6_IRQHandler         0x08003829         Code  Wk  startup_stm32l1xx_md.o [1]
TIM7_IRQHandler         0x0800382d         Code  Wk  startup_stm32l1xx_md.o [1]
TIM9_IRQHandler         0x080037e1         Code  Wk  startup_stm32l1xx_md.o [1]
T_StartupTimeDelay      0x2000018c    0x2  Data  Gb  main.o [1]
TimingDelay             0x2000019c    0x4  Data  Lc  main.o [1]
TimingDelay_Decrement   0x080024cd    0xe  Code  Gb  main.o [1]
USART1_IRQHandler       0x08003811         Code  Wk  startup_stm32l1xx_md.o [1]
USART2_IRQHandler       0x08003815         Code  Wk  startup_stm32l1xx_md.o [1]
USART3_IRQHandler       0x08003819         Code  Wk  startup_stm32l1xx_md.o [1]
USB_FS_WKUP_IRQHandler  0x08003825         Code  Wk  startup_stm32l1xx_md.o [1]
USB_HP_IRQHandler       0x080037c9         Code  Wk  startup_stm32l1xx_md.o [1]
USB_LP_IRQHandler       0x080037cd         Code  Wk  startup_stm32l1xx_md.o [1]
UsageFault_Handler      0x080035d9    0x2  Code  Gb  stm32l1xx_it.o [1]
WWDG_IRQHandler         0x0800377d         Code  Wk  startup_stm32l1xx_md.o [1]
_EncodingSb_Mbtowc      0x08001d77   0x30  Code  Gb  xencoding_sb.o [3]
_EncodingSb_Wctomb      0x08001d5d   0x1a  Code  Gb  xencoding_sb.o [3]
_GenldFull              0x08000eb9  0x24e  Code  Lc  xprintffull.o [3]
_IsdstStr               0x20000104    0x4  Data  Gb  setlocale.o [3]
_LdtobFull              0x08000ab9  0x3fa  Code  Lc  xprintffull.o [3]
_LitobFull              0x080009a3  0x10e  Code  Lc  xprintffull.o [3]
_LocaleEncoding         0x08001d49    0xe  Code  Gb  setlocale.o [3]
_LocaleReturnString     0x20000124   0x50  Data  Lc  setlocale.o [3]
_Locale_Profile         0x20000108   0x1c  Data  Gb  setlocale.o [3]
_Locale_lconv           0x20000000   0x50  Data  Gb  localeconv.o [3]
_Mbtowc                 0x0800114f   0x20  Code  Gb  xmbtowc.o [3]
_PrintfFull             0x080000f5  0x5c0  Code  Gb  xprintffull.o [3]
_PutcharsFull           0x08001107   0x2e  Code  Lc  xprintffull.o [3]
_PutstrFull             0x080006cb  0x2d2  Code  Lc  xprintffull.o [3]
_SProut                 0x0800120b    0xa  Code  Gb  xsprout.o [3]
_TzoneStr               0x20000100    0x4  Data  Gb  setlocale.o [3]
_Wctomb                 0x08001329   0x1a  Code  Gb  xwctomb.o [3]
__aeabi_cdcmple         0x0800156d         Code  Gb  DblCmpLe.o [4]
__aeabi_cdrcmple        0x0800159d         Code  Gb  DblCmpGe.o [4]
__aeabi_d2iz            0x080016d9         Code  Gb  DblToI32.o [4]
__aeabi_d2uiz           0x08001705         Code  Gb  DblToI32.o [4]
__aeabi_ddiv            0x08001a85         Code  Gb  DblDiv.o [4]
__aeabi_dmul            0x080018e1         Code  Gb  DblMul.o [4]
__aeabi_dsub            0x08001761         Code  Gb  DblSub.o [4]
__aeabi_i2d             0x08001731         Code  Gb  I32ToDbl.o [4]
__aeabi_ldiv0           0x08001de5         Code  Gb  I64DivZer.o [5]
__aeabi_memclr4         0x080034b9         Code  Gb  ABImemclr4.o [5]
__aeabi_memcpy          0x08001345         Code  Gb  ABImemcpy.o [5]
__aeabi_memcpy4         0x08001365         Code  Gb  ABImemcpy.o [5]
__aeabi_memcpy8         0x08001365         Code  Gb  ABImemcpy.o [5]
__aeabi_ui2d            0x08001745         Code  Gb  I32ToDbl.o [4]
__aeabi_uldivmod        0x0800143d         Code  Gb  I64DivMod.o [5]
__cmain                 0x080036fd         Code  Gb  cmain.o [5]
__data_Aldata           0x20000194    0x8  Data  Gb  xxmemxmalloc.o [3]
__data_GetMemChunk      0x08001dbd   0x28  Code  Gb  xgetmemchunk.o [3]
__exit                  0x08003729   0x14  Code  Gb  exit.o [6]
__iar_Dnorm             0x0800152b   0x42  Code  Gb  xdnorm.o [4]
__iar_Dscale            0x080015cd  0x10c  Code  Gb  xdscale.o [4]
__iar_Locale_lconv_init
                        0x08001ccd   0x3a  Code  Gb  localeconv.o [3]
__iar_Mbcurmax          0x0800126d    0xa  Code  Gb  xmbcurmax.o [3]
__iar_Memchr            0x08001215         Code  Gb  memchr.o [5]
__iar_Memset4_word      0x080034c1         Code  Gb  ABImemset48.o [5]
__iar_Memset8_word      0x080034c1         Code  Gb  ABImemset48.o [5]
__iar_Strchr            0x0800119d         Code  Gb  strchr.o [5]
__iar_copy_init3        0x0800116f   0x2e  Code  Gb  copy_init3.o [5]
__iar_d2uiz             0x08001711         Code  Gb  DblToI32.o [4]
__iar_dadd              0x08001de9         Code  Gb  DblAdd.o [4]
__iar_data_init3        0x080036b1   0x28  Code  Gb  data_init3.o [5]
__iar_dlib_perthread_access
                        0x08001ebd    0x2  Code  Gb  xtls.o [3]
__iar_dsub              0x08001775         Code  Gb  DblSub.o [4]
__iar_dsubStart         0x08001787         Code  Gb  DblSub.o [4]
__iar_program_start     0x0800374d         Code  Gb  cstartup_M.o [5]
__iar_ui2d              0x08001749         Code  Gb  I32ToDbl.o [4]
__iar_zero_init3        0x080011b3   0x22  Code  Gb  zero_init3.o [5]
__low_level_init        0x08003713    0x4  Code  Gb  low_level_init.o [3]
__vector_table          0x08000000         Data  Gb  startup_stm32l1xx_md.o [1]
_call_main              0x08003709         Code  Gb  cmain.o [5]
_exit                   0x0800371d         Code  Gb  cexit.o [5]
_main                   0x0800370f         Code  Gb  cmain.o [5]
acquireTemperatureData  0x0800213f   0x68  Code  Gb  main.o [1]
calibdata               0x20000070    0x8  Data  Gb  main.o [1]
conf_analog_all_GPIOS   0x08002379   0x5e  Code  Gb  main.o [1]
configureADC_Temp       0x080021d1   0x8e  Code  Gb  main.o [1]
configureDMA            0x08002271   0x68  Code  Gb  main.o [1]
configureWakeup         0x08002097   0x94  Code  Gb  main.o [1]
div                     0x08001d39    0xe  Code  Gb  div.o [3]
exit                    0x08003717    0x4  Code  Gb  exit.o [3]
flag_ADCDMA_TransferComplete
                        0x20000079    0x1  Data  Gb  main.o [1]
flag_UserButton         0x2000007a    0x1  Data  Gb  main.o [1]
free                    0x080013bd   0x7a  Code  Gb  xxmemxfree.o [3]
insertionSort           0x08001fe7   0x2c  Code  Gb  main.o [1]
interquartileMean       0x08002013   0x22  Code  Gb  main.o [1]
localeconv              0x08001d07   0x16  Code  Gb  localeconv.o [3]
main                    0x08001ec1  0x126  Code  Gb  main.o [1]
malloc                  0x08001279   0xac  Code  Gb  xxmemxmalloc.o [3]
memchr                  0x08001215         Code  Gb  memchr.o [5]
powerDownADC_Temper     0x080021a7   0x2a  Code  Gb  main.o [1]
processTempData         0x0800247b   0x46  Code  Gb  main.o [1]
refAVG                  0x200000e0    0x4  Data  Gb  main.o [1]
setADCDMA_TransferComplete
                        0x08002135    0xa  Code  Gb  main.o [1]
setUserButtonFlag       0x0800212b    0xa  Code  Gb  main.o [1]
sprintf                 0x08002d9d   0x34  Code  Gb  sprintf.o [3]
strDisp                 0x200000ec   0x14  Data  Gb  main.o [1]
strchr                  0x0800119d         Code  Gb  strchr.o [5]
strlen                  0x080011d5         Code  Gb  strlen.o [5]
t_bar                   0x200001a4    0x2  Data  Gb  stm32l_discovery_lcd.o [1]
tempAVG                 0x200000e4    0x4  Data  Gb  main.o [1]
temperature_C           0x200000e8    0x4  Data  Gb  main.o [1]
testFactoryCalibData    0x08002049   0x14  Code  Gb  main.o [1]
testUserCalibData       0x08002035   0x14  Code  Gb  main.o [1]
writeCalibData          0x0800205d   0x3a  Code  Gb  main.o [1]


[1] = C:\Users\Sin\Documents\STM32\STM32L_Discovery_Firmware_Pack_V1.0.2\Projects\AN3964-Temperature_sensor\EWARM\STM32L-DISCOVERY\Obj
[2] = command line
[3] = dl7M_tlf.a
[4] = m7M_tl.a
[5] = rt7M_tl.a
[6] = shb_l.a

  14 204 bytes of readonly  code memory
     292 bytes of readonly  data memory
   1 956 bytes of readwrite data memory

Errors: none
Warnings: none
