
cpmega-arduino.elf:     file format elf32-avr


Disassembly of section .text:

00000000 <__vectors>:
       0:	0c 94 44 01 	jmp	0x288	; 0x288 <__ctors_end>
       4:	0c 94 61 01 	jmp	0x2c2	; 0x2c2 <__bad_interrupt>
       8:	0c 94 61 01 	jmp	0x2c2	; 0x2c2 <__bad_interrupt>
       c:	0c 94 61 01 	jmp	0x2c2	; 0x2c2 <__bad_interrupt>
      10:	0c 94 61 01 	jmp	0x2c2	; 0x2c2 <__bad_interrupt>
      14:	0c 94 61 01 	jmp	0x2c2	; 0x2c2 <__bad_interrupt>
      18:	0c 94 61 01 	jmp	0x2c2	; 0x2c2 <__bad_interrupt>
      1c:	0c 94 61 01 	jmp	0x2c2	; 0x2c2 <__bad_interrupt>
      20:	0c 94 61 01 	jmp	0x2c2	; 0x2c2 <__bad_interrupt>
      24:	0c 94 61 01 	jmp	0x2c2	; 0x2c2 <__bad_interrupt>
      28:	0c 94 61 01 	jmp	0x2c2	; 0x2c2 <__bad_interrupt>
      2c:	0c 94 61 01 	jmp	0x2c2	; 0x2c2 <__bad_interrupt>
      30:	0c 94 61 01 	jmp	0x2c2	; 0x2c2 <__bad_interrupt>
      34:	0c 94 61 01 	jmp	0x2c2	; 0x2c2 <__bad_interrupt>
      38:	0c 94 61 01 	jmp	0x2c2	; 0x2c2 <__bad_interrupt>
      3c:	0c 94 61 01 	jmp	0x2c2	; 0x2c2 <__bad_interrupt>
      40:	0c 94 61 01 	jmp	0x2c2	; 0x2c2 <__bad_interrupt>
      44:	0c 94 61 01 	jmp	0x2c2	; 0x2c2 <__bad_interrupt>
      48:	0c 94 d9 08 	jmp	0x11b2	; 0x11b2 <__vector_18>
      4c:	0c 94 61 01 	jmp	0x2c2	; 0x2c2 <__bad_interrupt>
      50:	0c 94 61 01 	jmp	0x2c2	; 0x2c2 <__bad_interrupt>
      54:	0c 94 61 01 	jmp	0x2c2	; 0x2c2 <__bad_interrupt>
      58:	0c 94 61 01 	jmp	0x2c2	; 0x2c2 <__bad_interrupt>
      5c:	0c 94 61 01 	jmp	0x2c2	; 0x2c2 <__bad_interrupt>
      60:	0c 94 61 01 	jmp	0x2c2	; 0x2c2 <__bad_interrupt>
      64:	0c 94 61 01 	jmp	0x2c2	; 0x2c2 <__bad_interrupt>
      68:	9a 01       	movw	r18, r20
      6a:	5f 02       	muls	r21, r31
      6c:	5f 02       	muls	r21, r31
      6e:	5f 02       	muls	r21, r31
      70:	5f 02       	muls	r21, r31
      72:	5f 02       	muls	r21, r31
      74:	5f 02       	muls	r21, r31
      76:	5f 02       	muls	r21, r31
      78:	5f 02       	muls	r21, r31
      7a:	f8 01       	movw	r30, r16
      7c:	fb 01       	movw	r30, r22
      7e:	fe 01       	movw	r30, r28
      80:	01 02       	muls	r16, r17
      82:	5f 02       	muls	r21, r31
      84:	5a 02       	muls	r21, r26
      86:	5d 02       	muls	r21, r29
      88:	48 1a       	sub	r4, r24
      8a:	48 10       	cpse	r4, r8
      8c:	62 10       	cpse	r6, r2
      8e:	70 10       	cpse	r7, r0
      90:	7d 10       	cpse	r7, r13
      92:	86 10       	cpse	r8, r6
      94:	8f 10       	cpse	r8, r15
      96:	9e 10       	cpse	r9, r14
      98:	45 1a       	sub	r4, r21
      9a:	af 10       	cpse	r10, r15
      9c:	bc 10       	cpse	r11, r12
      9e:	ca 10       	cpse	r12, r10
      a0:	d7 10       	cpse	r13, r7
      a2:	e0 10       	cpse	r14, r0
      a4:	e9 10       	cpse	r14, r9
      a6:	f8 10       	cpse	r15, r8
      a8:	45 1a       	sub	r4, r21
      aa:	0a 11       	cpse	r16, r10
      ac:	24 11       	cpse	r18, r4
      ae:	32 11       	cpse	r19, r2
      b0:	3f 11       	cpse	r19, r15
      b2:	48 11       	cpse	r20, r8
      b4:	51 11       	cpse	r21, r1
      b6:	60 11       	cpse	r22, r0
      b8:	45 1a       	sub	r4, r21
      ba:	72 11       	cpse	r23, r2
      bc:	7f 11       	cpse	r23, r15
      be:	8d 11       	cpse	r24, r13
      c0:	9a 11       	cpse	r25, r10
      c2:	a3 11       	cpse	r26, r3
      c4:	ac 11       	cpse	r26, r12
      c6:	bb 11       	cpse	r27, r11
      c8:	45 1a       	sub	r4, r21
      ca:	cb 11       	cpse	r28, r11
      cc:	e5 11       	cpse	r30, r5
      ce:	0b 12       	cpse	r0, r27
      d0:	18 12       	cpse	r1, r24
      d2:	21 12       	cpse	r2, r17
      d4:	2a 12       	cpse	r2, r26
      d6:	39 12       	cpse	r3, r25
      d8:	45 1a       	sub	r4, r21
      da:	64 12       	cpse	r6, r20
      dc:	70 12       	cpse	r7, r16
      de:	95 12       	cpse	r9, r21
      e0:	a1 12       	cpse	r10, r17
      e2:	a9 12       	cpse	r10, r25
      e4:	b1 12       	cpse	r11, r17
      e6:	bf 12       	cpse	r11, r31
      e8:	45 1a       	sub	r4, r21
      ea:	c5 12       	cpse	r12, r21
      ec:	e2 12       	cpse	r14, r18
      ee:	03 13       	cpse	r16, r19
      f0:	0b 13       	cpse	r16, r27
      f2:	21 13       	cpse	r18, r17
      f4:	37 13       	cpse	r19, r23
      f6:	50 13       	cpse	r21, r16
      f8:	45 1a       	sub	r4, r21
      fa:	56 13       	cpse	r21, r22
      fc:	5e 13       	cpse	r21, r30
      fe:	7f 13       	cpse	r23, r31
     100:	87 13       	cpse	r24, r23
     102:	8f 13       	cpse	r24, r31
     104:	97 13       	cpse	r25, r23
     106:	a5 13       	cpse	r26, r21
     108:	48 1a       	sub	r4, r24
     10a:	ac 13       	cpse	r26, r28
     10c:	b1 13       	cpse	r27, r17
     10e:	b6 13       	cpse	r27, r22
     110:	bb 13       	cpse	r27, r27
     112:	c0 13       	cpse	r28, r16
     114:	c5 13       	cpse	r28, r21
     116:	d2 13       	cpse	r29, r18
     118:	d7 13       	cpse	r29, r23
     11a:	48 1a       	sub	r4, r24
     11c:	dc 13       	cpse	r29, r28
     11e:	e1 13       	cpse	r30, r17
     120:	e6 13       	cpse	r30, r22
     122:	eb 13       	cpse	r30, r27
     124:	f0 13       	cpse	r31, r16
     126:	fd 13       	cpse	r31, r29
     128:	02 14       	cp	r0, r2
     12a:	07 14       	cp	r0, r7
     12c:	48 1a       	sub	r4, r24
     12e:	0c 14       	cp	r0, r12
     130:	11 14       	cp	r1, r1
     132:	16 14       	cp	r1, r6
     134:	1b 14       	cp	r1, r11
     136:	28 14       	cp	r2, r8
     138:	2d 14       	cp	r2, r13
     13a:	32 14       	cp	r3, r2
     13c:	37 14       	cp	r3, r7
     13e:	48 1a       	sub	r4, r24
     140:	3c 14       	cp	r3, r12
     142:	41 14       	cp	r4, r1
     144:	46 14       	cp	r4, r6
     146:	53 14       	cp	r5, r3
     148:	58 14       	cp	r5, r8
     14a:	5d 14       	cp	r5, r13
     14c:	62 14       	cp	r6, r2
     14e:	67 14       	cp	r6, r7
     150:	48 1a       	sub	r4, r24
     152:	6c 14       	cp	r6, r12
     154:	71 14       	cp	r7, r1
     156:	7e 14       	cp	r7, r14
     158:	83 14       	cp	r8, r3
     15a:	88 14       	cp	r8, r8
     15c:	8d 14       	cp	r8, r13
     15e:	92 14       	cp	r9, r2
     160:	97 14       	cp	r9, r7
     162:	48 1a       	sub	r4, r24
     164:	9c 14       	cp	r9, r12
     166:	a9 14       	cp	r10, r9
     168:	ae 14       	cp	r10, r14
     16a:	bb 14       	cp	r11, r11
     16c:	c8 14       	cp	r12, r8
     16e:	d5 14       	cp	r13, r5
     170:	e2 14       	cp	r14, r2
     172:	ed 14       	cp	r14, r13
     174:	44 10       	cpse	r4, r4
     176:	f8 14       	cp	r15, r8
     178:	05 15       	cp	r16, r5
     17a:	0a 15       	cp	r16, r10
     17c:	0f 15       	cp	r16, r15
     17e:	14 15       	cp	r17, r4
     180:	19 15       	cp	r17, r9
     182:	1e 15       	cp	r17, r14
     184:	23 15       	cp	r18, r3
     186:	48 1a       	sub	r4, r24
     188:	30 15       	cp	r19, r0
     18a:	38 15       	cp	r19, r8
     18c:	40 15       	cp	r20, r0
     18e:	48 15       	cp	r20, r8
     190:	50 15       	cp	r21, r0
     192:	58 15       	cp	r21, r8
     194:	60 15       	cp	r22, r0
     196:	71 15       	cp	r23, r1
     198:	79 15       	cp	r23, r9
     19a:	81 15       	cp	r24, r1
     19c:	89 15       	cp	r24, r9
     19e:	91 15       	cp	r25, r1
     1a0:	99 15       	cp	r25, r9
     1a2:	a1 15       	cp	r26, r1
     1a4:	a9 15       	cp	r26, r9
     1a6:	ba 15       	cp	r27, r10
     1a8:	c2 15       	cp	r28, r2
     1aa:	ca 15       	cp	r28, r10
     1ac:	d2 15       	cp	r29, r2
     1ae:	da 15       	cp	r29, r10
     1b0:	e2 15       	cp	r30, r2
     1b2:	ea 15       	cp	r30, r10
     1b4:	f2 15       	cp	r31, r2
     1b6:	03 16       	cp	r0, r19
     1b8:	0b 16       	cp	r0, r27
     1ba:	13 16       	cp	r1, r19
     1bc:	1b 16       	cp	r1, r27
     1be:	23 16       	cp	r2, r19
     1c0:	2b 16       	cp	r2, r27
     1c2:	33 16       	cp	r3, r19
     1c4:	3b 16       	cp	r3, r27
     1c6:	4c 16       	cp	r4, r28
     1c8:	54 16       	cp	r5, r20
     1ca:	5c 16       	cp	r5, r28
     1cc:	64 16       	cp	r6, r20
     1ce:	6c 16       	cp	r6, r28
     1d0:	74 16       	cp	r7, r20
     1d2:	7c 16       	cp	r7, r28
     1d4:	84 16       	cp	r8, r20
     1d6:	95 16       	cp	r9, r21
     1d8:	9d 16       	cp	r9, r29
     1da:	aa 16       	cp	r10, r26
     1dc:	b7 16       	cp	r11, r23
     1de:	c4 16       	cp	r12, r20
     1e0:	d1 16       	cp	r13, r17
     1e2:	de 16       	cp	r13, r30
     1e4:	eb 16       	cp	r14, r27
     1e6:	00 17       	cp	r16, r16
     1e8:	0a 17       	cp	r16, r26
     1ea:	17 17       	cp	r17, r23
     1ec:	24 17       	cp	r18, r20
     1ee:	31 17       	cp	r19, r17
     1f0:	3e 17       	cp	r19, r30
     1f2:	4b 17       	cp	r20, r27
     1f4:	58 17       	cp	r21, r24
     1f6:	6d 17       	cp	r22, r29
     1f8:	78 17       	cp	r23, r24
     1fa:	7f 17       	cp	r23, r31
     1fc:	86 17       	cp	r24, r22
     1fe:	8d 17       	cp	r24, r29
     200:	94 17       	cp	r25, r20
     202:	9b 17       	cp	r25, r27
     204:	a2 17       	cp	r26, r18
     206:	b2 17       	cp	r27, r18
     208:	b9 17       	cp	r27, r25
     20a:	c2 17       	cp	r28, r18
     20c:	db 17       	cp	r29, r27
     20e:	ef 17       	cp	r30, r31
     210:	e4 17       	cp	r30, r20
     212:	fe 17       	cp	r31, r30
     214:	13 18       	sub	r1, r3
     216:	25 18       	sub	r2, r5
     218:	2d 18       	sub	r2, r13
     21a:	33 18       	sub	r3, r3
     21c:	39 18       	sub	r3, r9
     21e:	45 1a       	sub	r4, r21
     220:	f5 17       	cp	r31, r21
     222:	3d 18       	sub	r3, r13
     224:	43 18       	sub	r4, r3
     226:	55 18       	sub	r5, r5
     228:	5d 18       	sub	r5, r13
     22a:	63 18       	sub	r6, r3
     22c:	7c 18       	sub	r7, r12
     22e:	80 18       	sub	r8, r0
     230:	91 18       	sub	r9, r1
     232:	95 18       	sub	r9, r5
     234:	aa 18       	sub	r10, r10
     236:	bc 18       	sub	r11, r12
     238:	c4 18       	sub	r12, r4
     23a:	45 1a       	sub	r4, r21
     23c:	ca 18       	sub	r12, r10
     23e:	ce 18       	sub	r12, r14
     240:	df 18       	sub	r13, r15
     242:	45 1a       	sub	r4, r21
     244:	e3 18       	sub	r14, r3
     246:	f5 18       	sub	r15, r5
     248:	fd 18       	sub	r15, r13
     24a:	03 19       	sub	r16, r3
     24c:	1c 19       	sub	r17, r12
     24e:	20 19       	sub	r18, r0
     250:	3f 19       	sub	r19, r15
     252:	43 19       	sub	r20, r3
     254:	58 19       	sub	r21, r8
     256:	6a 19       	sub	r22, r10
     258:	72 19       	sub	r23, r2
     25a:	78 19       	sub	r23, r8
     25c:	83 19       	sub	r24, r3
     25e:	87 19       	sub	r24, r7
     260:	96 19       	sub	r25, r6
     262:	45 1a       	sub	r4, r21
     264:	9a 19       	sub	r25, r10
     266:	b0 19       	sub	r27, r0
     268:	b8 19       	sub	r27, r8
     26a:	be 19       	sub	r27, r14
     26c:	d7 19       	sub	r29, r7
     26e:	48 1a       	sub	r4, r24
     270:	db 19       	sub	r29, r11
     272:	df 19       	sub	r29, r15
     274:	f5 19       	sub	r31, r5
     276:	0b 1a       	sub	r0, r27
     278:	13 1a       	sub	r1, r19
     27a:	19 1a       	sub	r1, r25
     27c:	24 1a       	sub	r2, r20
     27e:	48 1a       	sub	r4, r24
     280:	28 1a       	sub	r2, r24
     282:	45 1a       	sub	r4, r21
     284:	2c 1a       	sub	r2, r28
     286:	3d 1a       	sub	r3, r29

00000288 <__ctors_end>:
     288:	11 24       	eor	r1, r1
     28a:	1f be       	out	0x3f, r1	; 63
     28c:	cf ef       	ldi	r28, 0xFF	; 255
     28e:	d8 e0       	ldi	r29, 0x08	; 8
     290:	de bf       	out	0x3e, r29	; 62
     292:	cd bf       	out	0x3d, r28	; 61

00000294 <__do_copy_data>:
     294:	15 e0       	ldi	r17, 0x05	; 5
     296:	a0 e0       	ldi	r26, 0x00	; 0
     298:	b1 e0       	ldi	r27, 0x01	; 1
     29a:	e4 e0       	ldi	r30, 0x04	; 4
     29c:	f5 e3       	ldi	r31, 0x35	; 53
     29e:	02 c0       	rjmp	.+4      	; 0x2a4 <__do_copy_data+0x10>
     2a0:	05 90       	lpm	r0, Z+
     2a2:	0d 92       	st	X+, r0
     2a4:	a8 35       	cpi	r26, 0x58	; 88
     2a6:	b1 07       	cpc	r27, r17
     2a8:	d9 f7       	brne	.-10     	; 0x2a0 <__do_copy_data+0xc>

000002aa <__do_clear_bss>:
     2aa:	27 e0       	ldi	r18, 0x07	; 7
     2ac:	a8 e5       	ldi	r26, 0x58	; 88
     2ae:	b5 e0       	ldi	r27, 0x05	; 5
     2b0:	01 c0       	rjmp	.+2      	; 0x2b4 <.do_clear_bss_start>

000002b2 <.do_clear_bss_loop>:
     2b2:	1d 92       	st	X+, r1

000002b4 <.do_clear_bss_start>:
     2b4:	a8 3a       	cpi	r26, 0xA8	; 168
     2b6:	b2 07       	cpc	r27, r18
     2b8:	e1 f7       	brne	.-8      	; 0x2b2 <.do_clear_bss_loop>
     2ba:	0e 94 52 1a 	call	0x34a4	; 0x34a4 <main>
     2be:	0c 94 80 1a 	jmp	0x3500	; 0x3500 <_exit>

000002c2 <__bad_interrupt>:
     2c2:	0c 94 00 00 	jmp	0	; 0x0 <__vectors>

000002c6 <platform_reset>:
     2c6:	e1 2d       	mov	r30, r1
     2c8:	f1 2d       	mov	r31, r1
     2ca:	09 94       	ijmp
     2cc:	08 95       	ret

000002ce <in>:
     2ce:	81 11       	cpse	r24, r1
     2d0:	09 c0       	rjmp	.+18     	; 0x2e4 <in+0x16>
     2d2:	0e 94 1a 09 	call	0x1234	; 0x1234 <uart_peek>
     2d6:	21 e0       	ldi	r18, 0x01	; 1
     2d8:	89 2b       	or	r24, r25
     2da:	09 f4       	brne	.+2      	; 0x2de <in+0x10>
     2dc:	20 e0       	ldi	r18, 0x00	; 0
     2de:	82 2f       	mov	r24, r18
     2e0:	81 95       	neg	r24
     2e2:	08 95       	ret
     2e4:	81 30       	cpi	r24, 0x01	; 1
     2e6:	39 f4       	brne	.+14     	; 0x2f6 <in+0x28>
     2e8:	0e 94 04 09 	call	0x1208	; 0x1208 <uart_getchar>
     2ec:	8f 3f       	cpi	r24, 0xFF	; 255
     2ee:	2f ef       	ldi	r18, 0xFF	; 255
     2f0:	92 07       	cpc	r25, r18
     2f2:	d1 f3       	breq	.-12     	; 0x2e8 <in+0x1a>
     2f4:	08 95       	ret
     2f6:	80 e0       	ldi	r24, 0x00	; 0
     2f8:	08 95       	ret

000002fa <disk_read>:
     2fa:	20 91 73 05 	lds	r18, 0x0573
     2fe:	21 11       	cpse	r18, r1
     300:	02 c0       	rjmp	.+4      	; 0x306 <disk_read+0xc>
     302:	0c 94 92 0a 	jmp	0x1524	; 0x1524 <sdcard_fetch>
     306:	0e 94 f3 0d 	call	0x1be6	; 0x1be6 <fat_seek>
     30a:	0c 94 33 0e 	jmp	0x1c66	; 0x1c66 <fat_read>

0000030e <out>:
     30e:	ef 92       	push	r14
     310:	ff 92       	push	r15
     312:	0f 93       	push	r16
     314:	1f 93       	push	r17
     316:	cf 93       	push	r28
     318:	df 93       	push	r29
     31a:	16 2f       	mov	r17, r22
     31c:	48 2f       	mov	r20, r24
     31e:	50 e0       	ldi	r21, 0x00	; 0
     320:	fa 01       	movw	r30, r20
     322:	31 97       	sbiw	r30, 0x01	; 1
     324:	e0 31       	cpi	r30, 0x10	; 16
     326:	f1 05       	cpc	r31, r1
     328:	08 f0       	brcs	.+2      	; 0x32c <out+0x1e>
     32a:	c9 c0       	rjmp	.+402    	; 0x4be <out+0x1b0>
     32c:	ec 5c       	subi	r30, 0xCC	; 204
     32e:	ff 4f       	sbci	r31, 0xFF	; 255
     330:	0c 94 6b 1a 	jmp	0x34d6	; 0x34d6 <__tablejump2__>
     334:	80 91 5d 05 	lds	r24, 0x055D
     338:	82 30       	cpi	r24, 0x02	; 2
     33a:	99 f0       	breq	.+38     	; 0x362 <out+0x54>
     33c:	83 30       	cpi	r24, 0x03	; 3
     33e:	21 f1       	breq	.+72     	; 0x388 <out+0x7a>
     340:	81 30       	cpi	r24, 0x01	; 1
     342:	b1 f5       	brne	.+108    	; 0x3b0 <out+0xa2>
     344:	6d 33       	cpi	r22, 0x3D	; 61
     346:	11 f4       	brne	.+4      	; 0x34c <out+0x3e>
     348:	82 e0       	ldi	r24, 0x02	; 2
     34a:	1b c0       	rjmp	.+54     	; 0x382 <out+0x74>
     34c:	6b 33       	cpi	r22, 0x3B	; 59
     34e:	69 f5       	brne	.+90     	; 0x3aa <out+0x9c>
     350:	80 91 00 01 	lds	r24, 0x0100
     354:	81 30       	cpi	r24, 0x01	; 1
     356:	49 f5       	brne	.+82     	; 0x3aa <out+0x9c>
     358:	85 e1       	ldi	r24, 0x15	; 21
     35a:	91 e0       	ldi	r25, 0x01	; 1
     35c:	0e 94 a6 08 	call	0x114c	; 0x114c <uart_puts>
     360:	24 c0       	rjmp	.+72     	; 0x3aa <out+0x9c>
     362:	80 91 00 01 	lds	r24, 0x0100
     366:	81 30       	cpi	r24, 0x01	; 1
     368:	59 f4       	brne	.+22     	; 0x380 <out+0x72>
     36a:	8a e1       	ldi	r24, 0x1A	; 26
     36c:	91 e0       	ldi	r25, 0x01	; 1
     36e:	0e 94 a6 08 	call	0x114c	; 0x114c <uart_puts>
     372:	81 2f       	mov	r24, r17
     374:	90 e0       	ldi	r25, 0x00	; 0
     376:	6f ef       	ldi	r22, 0xFF	; 255
     378:	7f ef       	ldi	r23, 0xFF	; 255
     37a:	4f 97       	sbiw	r24, 0x1f	; 31
     37c:	0e 94 6e 08 	call	0x10dc	; 0x10dc <uart_putnum_u16>
     380:	83 e0       	ldi	r24, 0x03	; 3
     382:	80 93 5d 05 	sts	0x055D, r24
     386:	9b c0       	rjmp	.+310    	; 0x4be <out+0x1b0>
     388:	80 91 00 01 	lds	r24, 0x0100
     38c:	81 30       	cpi	r24, 0x01	; 1
     38e:	69 f4       	brne	.+26     	; 0x3aa <out+0x9c>
     390:	8b e3       	ldi	r24, 0x3B	; 59
     392:	0e 94 02 09 	call	0x1204	; 0x1204 <uart_putchar>
     396:	81 2f       	mov	r24, r17
     398:	90 e0       	ldi	r25, 0x00	; 0
     39a:	6f ef       	ldi	r22, 0xFF	; 255
     39c:	7f ef       	ldi	r23, 0xFF	; 255
     39e:	4f 97       	sbiw	r24, 0x1f	; 31
     3a0:	0e 94 6e 08 	call	0x10dc	; 0x10dc <uart_putnum_u16>
     3a4:	88 e4       	ldi	r24, 0x48	; 72
     3a6:	0e 94 02 09 	call	0x1204	; 0x1204 <uart_putchar>
     3aa:	10 92 5d 05 	sts	0x055D, r1
     3ae:	87 c0       	rjmp	.+270    	; 0x4be <out+0x1b0>
     3b0:	80 91 00 01 	lds	r24, 0x0100
     3b4:	81 11       	cpse	r24, r1
     3b6:	09 c0       	rjmp	.+18     	; 0x3ca <out+0xbc>
     3b8:	81 2f       	mov	r24, r17
     3ba:	df 91       	pop	r29
     3bc:	cf 91       	pop	r28
     3be:	1f 91       	pop	r17
     3c0:	0f 91       	pop	r16
     3c2:	ff 90       	pop	r15
     3c4:	ef 90       	pop	r14
     3c6:	0c 94 02 09 	jmp	0x1204	; 0x1204 <uart_putchar>
     3ca:	6a 31       	cpi	r22, 0x1A	; 26
     3cc:	69 f4       	brne	.+26     	; 0x3e8 <out+0xda>
     3ce:	81 30       	cpi	r24, 0x01	; 1
     3d0:	09 f0       	breq	.+2      	; 0x3d4 <out+0xc6>
     3d2:	75 c0       	rjmp	.+234    	; 0x4be <out+0x1b0>
     3d4:	85 e1       	ldi	r24, 0x15	; 21
     3d6:	91 e0       	ldi	r25, 0x01	; 1
     3d8:	df 91       	pop	r29
     3da:	cf 91       	pop	r28
     3dc:	1f 91       	pop	r17
     3de:	0f 91       	pop	r16
     3e0:	ff 90       	pop	r15
     3e2:	ef 90       	pop	r14
     3e4:	0c 94 a6 08 	jmp	0x114c	; 0x114c <uart_puts>
     3e8:	6b 31       	cpi	r22, 0x1B	; 27
     3ea:	31 f7       	brne	.-52     	; 0x3b8 <out+0xaa>
     3ec:	81 e0       	ldi	r24, 0x01	; 1
     3ee:	c9 cf       	rjmp	.-110    	; 0x382 <out+0x74>
     3f0:	60 93 5c 05 	sts	0x055C, r22
     3f4:	64 c0       	rjmp	.+200    	; 0x4be <out+0x1b0>
     3f6:	60 93 5b 05 	sts	0x055B, r22
     3fa:	61 c0       	rjmp	.+194    	; 0x4be <out+0x1b0>
     3fc:	60 93 5a 05 	sts	0x055A, r22
     400:	5e c0       	rjmp	.+188    	; 0x4be <out+0x1b0>
     402:	20 91 5b 05 	lds	r18, 0x055B
     406:	30 e0       	ldi	r19, 0x00	; 0
     408:	aa e1       	ldi	r26, 0x1A	; 26
     40a:	b0 e0       	ldi	r27, 0x00	; 0
     40c:	0e 94 71 1a 	call	0x34e2	; 0x34e2 <__umulhisi3>
     410:	20 91 5a 05 	lds	r18, 0x055A
     414:	62 0f       	add	r22, r18
     416:	71 1d       	adc	r23, r1
     418:	81 1d       	adc	r24, r1
     41a:	91 1d       	adc	r25, r1
     41c:	27 e0       	ldi	r18, 0x07	; 7
     41e:	66 0f       	add	r22, r22
     420:	77 1f       	adc	r23, r23
     422:	88 1f       	adc	r24, r24
     424:	99 1f       	adc	r25, r25
     426:	2a 95       	dec	r18
     428:	d1 f7       	brne	.-12     	; 0x41e <out+0x110>
     42a:	60 58       	subi	r22, 0x80	; 128
     42c:	71 09       	sbc	r23, r1
     42e:	81 09       	sbc	r24, r1
     430:	91 09       	sbc	r25, r1
     432:	eb 01       	movw	r28, r22
     434:	d1 70       	andi	r29, 0x01	; 1
     436:	66 27       	eor	r22, r22
     438:	7e 7f       	andi	r23, 0xFE	; 254
     43a:	0e 94 7d 01 	call	0x2fa	; 0x2fa <disk_read>
     43e:	e0 90 59 05 	lds	r14, 0x0559
     442:	f1 2c       	mov	r15, r1
     444:	fe 2c       	mov	r15, r14
     446:	ee 24       	eor	r14, r14
     448:	80 91 58 05 	lds	r24, 0x0558
     44c:	e8 2a       	or	r14, r24
     44e:	11 11       	cpse	r17, r1
     450:	13 c0       	rjmp	.+38     	; 0x478 <out+0x16a>
     452:	00 e0       	ldi	r16, 0x00	; 0
     454:	10 e0       	ldi	r17, 0x00	; 0
     456:	c8 01       	movw	r24, r16
     458:	8c 0f       	add	r24, r28
     45a:	9d 1f       	adc	r25, r29
     45c:	0e 94 a7 09 	call	0x134e	; 0x134e <sdcard_read>
     460:	68 2f       	mov	r22, r24
     462:	c8 01       	movw	r24, r16
     464:	8e 0d       	add	r24, r14
     466:	9f 1d       	adc	r25, r15
     468:	0e 94 8c 09 	call	0x1318	; 0x1318 <sram_write>
     46c:	0f 5f       	subi	r16, 0xFF	; 255
     46e:	1f 4f       	sbci	r17, 0xFF	; 255
     470:	00 38       	cpi	r16, 0x80	; 128
     472:	11 05       	cpc	r17, r1
     474:	81 f7       	brne	.-32     	; 0x456 <out+0x148>
     476:	23 c0       	rjmp	.+70     	; 0x4be <out+0x1b0>
     478:	80 91 74 05 	lds	r24, 0x0574
     47c:	81 11       	cpse	r24, r1
     47e:	1f c0       	rjmp	.+62     	; 0x4be <out+0x1b0>
     480:	00 e0       	ldi	r16, 0x00	; 0
     482:	10 e0       	ldi	r17, 0x00	; 0
     484:	c8 01       	movw	r24, r16
     486:	8e 0d       	add	r24, r14
     488:	9f 1d       	adc	r25, r15
     48a:	0e 94 76 09 	call	0x12ec	; 0x12ec <sram_read>
     48e:	68 2f       	mov	r22, r24
     490:	c8 01       	movw	r24, r16
     492:	8c 0f       	add	r24, r28
     494:	9d 1f       	adc	r25, r29
     496:	0e 94 b2 09 	call	0x1364	; 0x1364 <sdcard_write>
     49a:	0f 5f       	subi	r16, 0xFF	; 255
     49c:	1f 4f       	sbci	r17, 0xFF	; 255
     49e:	00 38       	cpi	r16, 0x80	; 128
     4a0:	11 05       	cpc	r17, r1
     4a2:	81 f7       	brne	.-32     	; 0x484 <out+0x176>
     4a4:	df 91       	pop	r29
     4a6:	cf 91       	pop	r28
     4a8:	1f 91       	pop	r17
     4aa:	0f 91       	pop	r16
     4ac:	ff 90       	pop	r15
     4ae:	ef 90       	pop	r14
     4b0:	0c 94 5b 0b 	jmp	0x16b6	; 0x16b6 <sdcard_flush>
     4b4:	60 93 58 05 	sts	0x0558, r22
     4b8:	02 c0       	rjmp	.+4      	; 0x4be <out+0x1b0>
     4ba:	60 93 59 05 	sts	0x0559, r22
     4be:	df 91       	pop	r29
     4c0:	cf 91       	pop	r28
     4c2:	1f 91       	pop	r17
     4c4:	0f 91       	pop	r16
     4c6:	ff 90       	pop	r15
     4c8:	ef 90       	pop	r14
     4ca:	08 95       	ret

000004cc <boot>:
     4cc:	cf 92       	push	r12
     4ce:	df 92       	push	r13
     4d0:	ef 92       	push	r14
     4d2:	ff 92       	push	r15
     4d4:	0f 93       	push	r16
     4d6:	1f 93       	push	r17
     4d8:	cf 93       	push	r28
     4da:	df 93       	push	r29
     4dc:	8e e5       	ldi	r24, 0x5E	; 94
     4de:	95 e0       	ldi	r25, 0x05	; 5
     4e0:	0e 94 1d 10 	call	0x203a	; 0x203a <cpu_8080_reset>
     4e4:	e1 2c       	mov	r14, r1
     4e6:	f1 2c       	mov	r15, r1
     4e8:	00 e0       	ldi	r16, 0x00	; 0
     4ea:	10 e0       	ldi	r17, 0x00	; 0
     4ec:	b8 01       	movw	r22, r16
     4ee:	76 2f       	mov	r23, r22
     4f0:	66 27       	eor	r22, r22
     4f2:	77 0f       	add	r23, r23
     4f4:	88 27       	eor	r24, r24
     4f6:	77 fd       	sbrc	r23, 7
     4f8:	80 95       	com	r24
     4fa:	98 2f       	mov	r25, r24
     4fc:	0e 94 7d 01 	call	0x2fa	; 0x2fa <disk_read>
     500:	c0 e0       	ldi	r28, 0x00	; 0
     502:	d0 e0       	ldi	r29, 0x00	; 0
     504:	67 01       	movw	r12, r14
     506:	80 e8       	ldi	r24, 0x80	; 128
     508:	c8 1a       	sub	r12, r24
     50a:	8c e1       	ldi	r24, 0x1C	; 28
     50c:	d8 0a       	sbc	r13, r24
     50e:	ce 01       	movw	r24, r28
     510:	0e 94 a7 09 	call	0x134e	; 0x134e <sdcard_read>
     514:	68 2f       	mov	r22, r24
     516:	c6 01       	movw	r24, r12
     518:	8c 0f       	add	r24, r28
     51a:	9d 1f       	adc	r25, r29
     51c:	0e 94 8c 09 	call	0x1318	; 0x1318 <sram_write>
     520:	21 96       	adiw	r28, 0x01	; 1
     522:	c1 15       	cp	r28, r1
     524:	82 e0       	ldi	r24, 0x02	; 2
     526:	d8 07       	cpc	r29, r24
     528:	91 f7       	brne	.-28     	; 0x50e <boot+0x42>
     52a:	0f 5f       	subi	r16, 0xFF	; 255
     52c:	1f 4f       	sbci	r17, 0xFF	; 255
     52e:	8e ef       	ldi	r24, 0xFE	; 254
     530:	f8 1a       	sub	r15, r24
     532:	0d 30       	cpi	r16, 0x0D	; 13
     534:	11 05       	cpc	r17, r1
     536:	d1 f6       	brne	.-76     	; 0x4ec <boot+0x20>
     538:	c0 e0       	ldi	r28, 0x00	; 0
     53a:	d0 e0       	ldi	r29, 0x00	; 0
     53c:	60 e0       	ldi	r22, 0x00	; 0
     53e:	ce 01       	movw	r24, r28
     540:	0e 94 8c 09 	call	0x1318	; 0x1318 <sram_write>
     544:	21 96       	adiw	r28, 0x01	; 1
     546:	c1 15       	cp	r28, r1
     548:	81 e0       	ldi	r24, 0x01	; 1
     54a:	d8 07       	cpc	r29, r24
     54c:	b9 f7       	brne	.-18     	; 0x53c <boot+0x70>
     54e:	63 ec       	ldi	r22, 0xC3	; 195
     550:	85 e0       	ldi	r24, 0x05	; 5
     552:	90 e0       	ldi	r25, 0x00	; 0
     554:	0e 94 8c 09 	call	0x1318	; 0x1318 <sram_write>
     558:	66 e0       	ldi	r22, 0x06	; 6
     55a:	86 e0       	ldi	r24, 0x06	; 6
     55c:	90 e0       	ldi	r25, 0x00	; 0
     55e:	0e 94 8c 09 	call	0x1318	; 0x1318 <sram_write>
     562:	6c ee       	ldi	r22, 0xEC	; 236
     564:	87 e0       	ldi	r24, 0x07	; 7
     566:	90 e0       	ldi	r25, 0x00	; 0
     568:	0e 94 8c 09 	call	0x1318	; 0x1318 <sram_write>
     56c:	8e e5       	ldi	r24, 0x5E	; 94
     56e:	95 e0       	ldi	r25, 0x05	; 5
     570:	0e 94 2d 10 	call	0x205a	; 0x205a <cpu_8080_step>
     574:	89 2b       	or	r24, r25
     576:	d1 f3       	breq	.-12     	; 0x56c <boot+0xa0>
     578:	8d e1       	ldi	r24, 0x1D	; 29
     57a:	91 e0       	ldi	r25, 0x01	; 1
     57c:	0e 94 b2 08 	call	0x1164	; 0x1164 <uart_putsln>
     580:	80 91 66 05 	lds	r24, 0x0566
     584:	90 91 67 05 	lds	r25, 0x0567
     588:	0e 94 76 09 	call	0x12ec	; 0x12ec <sram_read>
     58c:	c8 2f       	mov	r28, r24
     58e:	85 e2       	ldi	r24, 0x25	; 37
     590:	91 e0       	ldi	r25, 0x01	; 1
     592:	0e 94 a6 08 	call	0x114c	; 0x114c <uart_puts>
     596:	80 91 67 05 	lds	r24, 0x0567
     59a:	0e 94 63 08 	call	0x10c6	; 0x10c6 <uart_puthex>
     59e:	80 91 66 05 	lds	r24, 0x0566
     5a2:	0e 94 63 08 	call	0x10c6	; 0x10c6 <uart_puthex>
     5a6:	8a e2       	ldi	r24, 0x2A	; 42
     5a8:	91 e0       	ldi	r25, 0x01	; 1
     5aa:	0e 94 a6 08 	call	0x114c	; 0x114c <uart_puts>
     5ae:	8c 2f       	mov	r24, r28
     5b0:	0e 94 63 08 	call	0x10c6	; 0x10c6 <uart_puthex>
     5b4:	8d e2       	ldi	r24, 0x2D	; 45
     5b6:	91 e0       	ldi	r25, 0x01	; 1
     5b8:	df 91       	pop	r29
     5ba:	cf 91       	pop	r28
     5bc:	1f 91       	pop	r17
     5be:	0f 91       	pop	r16
     5c0:	ff 90       	pop	r15
     5c2:	ef 90       	pop	r14
     5c4:	df 90       	pop	r13
     5c6:	cf 90       	pop	r12
     5c8:	0c 94 b2 08 	jmp	0x1164	; 0x1164 <uart_putsln>

000005cc <strdcmp>:
     5cc:	fb 01       	movw	r30, r22
     5ce:	dc 01       	movw	r26, r24
     5d0:	2d 91       	ld	r18, X+
     5d2:	cd 01       	movw	r24, r26
     5d4:	22 23       	and	r18, r18
     5d6:	11 f0       	breq	.+4      	; 0x5dc <strdcmp+0x10>
     5d8:	42 13       	cpse	r20, r18
     5da:	05 c0       	rjmp	.+10     	; 0x5e6 <strdcmp+0x1a>
     5dc:	30 81       	ld	r19, Z
     5de:	33 23       	and	r19, r19
     5e0:	41 f0       	breq	.+16     	; 0x5f2 <strdcmp+0x26>
     5e2:	43 17       	cp	r20, r19
     5e4:	31 f0       	breq	.+12     	; 0x5f2 <strdcmp+0x26>
     5e6:	31 91       	ld	r19, Z+
     5e8:	23 17       	cp	r18, r19
     5ea:	89 f3       	breq	.-30     	; 0x5ce <strdcmp+0x2>
     5ec:	8f ef       	ldi	r24, 0xFF	; 255
     5ee:	9f ef       	ldi	r25, 0xFF	; 255
     5f0:	08 95       	ret
     5f2:	80 e0       	ldi	r24, 0x00	; 0
     5f4:	90 e0       	ldi	r25, 0x00	; 0
     5f6:	08 95       	ret

000005f8 <strndcmp>:
     5f8:	cf 93       	push	r28
     5fa:	df 93       	push	r29
     5fc:	fb 01       	movw	r30, r22
     5fe:	df 01       	movw	r26, r30
     600:	a6 1b       	sub	r26, r22
     602:	b7 0b       	sbc	r27, r23
     604:	a4 17       	cp	r26, r20
     606:	b5 07       	cpc	r27, r21
     608:	7c f4       	brge	.+30     	; 0x628 <strndcmp+0x30>
     60a:	ec 01       	movw	r28, r24
     60c:	a9 91       	ld	r26, Y+
     60e:	ce 01       	movw	r24, r28
     610:	aa 23       	and	r26, r26
     612:	69 f0       	breq	.+26     	; 0x62e <strndcmp+0x36>
     614:	2a 17       	cp	r18, r26
     616:	59 f0       	breq	.+22     	; 0x62e <strndcmp+0x36>
     618:	31 91       	ld	r19, Z+
     61a:	33 23       	and	r19, r19
     61c:	41 f0       	breq	.+16     	; 0x62e <strndcmp+0x36>
     61e:	23 17       	cp	r18, r19
     620:	31 f0       	breq	.+12     	; 0x62e <strndcmp+0x36>
     622:	a3 17       	cp	r26, r19
     624:	61 f3       	breq	.-40     	; 0x5fe <strndcmp+0x6>
     626:	03 c0       	rjmp	.+6      	; 0x62e <strndcmp+0x36>
     628:	80 e0       	ldi	r24, 0x00	; 0
     62a:	90 e0       	ldi	r25, 0x00	; 0
     62c:	02 c0       	rjmp	.+4      	; 0x632 <strndcmp+0x3a>
     62e:	8f ef       	ldi	r24, 0xFF	; 255
     630:	9f ef       	ldi	r25, 0xFF	; 255
     632:	df 91       	pop	r29
     634:	cf 91       	pop	r28
     636:	08 95       	ret

00000638 <getnum>:
     638:	cf 93       	push	r28
     63a:	df 93       	push	r29
     63c:	ec 01       	movw	r28, r24
     63e:	20 e0       	ldi	r18, 0x00	; 0
     640:	42 e0       	ldi	r20, 0x02	; 2
     642:	50 e0       	ldi	r21, 0x00	; 0
     644:	65 e7       	ldi	r22, 0x75	; 117
     646:	71 e0       	ldi	r23, 0x01	; 1
     648:	0e 94 fc 02 	call	0x5f8	; 0x5f8 <strndcmp>
     64c:	89 2b       	or	r24, r25
     64e:	81 f5       	brne	.+96     	; 0x6b0 <getnum+0x78>
     650:	22 96       	adiw	r28, 0x02	; 2
     652:	20 e0       	ldi	r18, 0x00	; 0
     654:	30 e0       	ldi	r19, 0x00	; 0
     656:	49 91       	ld	r20, Y+
     658:	44 23       	and	r20, r20
     65a:	09 f4       	brne	.+2      	; 0x65e <getnum+0x26>
     65c:	41 c0       	rjmp	.+130    	; 0x6e0 <getnum+0xa8>
     65e:	c9 01       	movw	r24, r18
     660:	54 e0       	ldi	r21, 0x04	; 4
     662:	88 0f       	add	r24, r24
     664:	99 1f       	adc	r25, r25
     666:	5a 95       	dec	r21
     668:	e1 f7       	brne	.-8      	; 0x662 <getnum+0x2a>
     66a:	50 ed       	ldi	r21, 0xD0	; 208
     66c:	54 0f       	add	r21, r20
     66e:	5a 30       	cpi	r21, 0x0A	; 10
     670:	38 f4       	brcc	.+14     	; 0x680 <getnum+0x48>
     672:	24 2f       	mov	r18, r20
     674:	33 27       	eor	r19, r19
     676:	27 fd       	sbrc	r18, 7
     678:	30 95       	com	r19
     67a:	20 53       	subi	r18, 0x30	; 48
     67c:	31 09       	sbc	r19, r1
     67e:	15 c0       	rjmp	.+42     	; 0x6aa <getnum+0x72>
     680:	5f e9       	ldi	r21, 0x9F	; 159
     682:	54 0f       	add	r21, r20
     684:	56 30       	cpi	r21, 0x06	; 6
     686:	38 f4       	brcc	.+14     	; 0x696 <getnum+0x5e>
     688:	24 2f       	mov	r18, r20
     68a:	33 27       	eor	r19, r19
     68c:	27 fd       	sbrc	r18, 7
     68e:	30 95       	com	r19
     690:	27 55       	subi	r18, 0x57	; 87
     692:	31 09       	sbc	r19, r1
     694:	0a c0       	rjmp	.+20     	; 0x6aa <getnum+0x72>
     696:	5f eb       	ldi	r21, 0xBF	; 191
     698:	54 0f       	add	r21, r20
     69a:	56 30       	cpi	r21, 0x06	; 6
     69c:	08 f5       	brcc	.+66     	; 0x6e0 <getnum+0xa8>
     69e:	24 2f       	mov	r18, r20
     6a0:	33 27       	eor	r19, r19
     6a2:	27 fd       	sbrc	r18, 7
     6a4:	30 95       	com	r19
     6a6:	27 53       	subi	r18, 0x37	; 55
     6a8:	31 09       	sbc	r19, r1
     6aa:	28 0f       	add	r18, r24
     6ac:	39 1f       	adc	r19, r25
     6ae:	d3 cf       	rjmp	.-90     	; 0x656 <getnum+0x1e>
     6b0:	20 e0       	ldi	r18, 0x00	; 0
     6b2:	30 e0       	ldi	r19, 0x00	; 0
     6b4:	5a e0       	ldi	r21, 0x0A	; 10
     6b6:	49 91       	ld	r20, Y+
     6b8:	44 23       	and	r20, r20
     6ba:	91 f0       	breq	.+36     	; 0x6e0 <getnum+0xa8>
     6bc:	52 9f       	mul	r21, r18
     6be:	c0 01       	movw	r24, r0
     6c0:	53 9f       	mul	r21, r19
     6c2:	90 0d       	add	r25, r0
     6c4:	11 24       	eor	r1, r1
     6c6:	60 ed       	ldi	r22, 0xD0	; 208
     6c8:	64 0f       	add	r22, r20
     6ca:	6a 30       	cpi	r22, 0x0A	; 10
     6cc:	48 f4       	brcc	.+18     	; 0x6e0 <getnum+0xa8>
     6ce:	24 2f       	mov	r18, r20
     6d0:	33 27       	eor	r19, r19
     6d2:	27 fd       	sbrc	r18, 7
     6d4:	30 95       	com	r19
     6d6:	20 53       	subi	r18, 0x30	; 48
     6d8:	31 09       	sbc	r19, r1
     6da:	28 0f       	add	r18, r24
     6dc:	39 1f       	adc	r19, r25
     6de:	eb cf       	rjmp	.-42     	; 0x6b6 <getnum+0x7e>
     6e0:	c9 01       	movw	r24, r18
     6e2:	df 91       	pop	r29
     6e4:	cf 91       	pop	r28
     6e6:	08 95       	ret

000006e8 <mount>:
     6e8:	0f 93       	push	r16
     6ea:	1f 93       	push	r17
     6ec:	cf 93       	push	r28
     6ee:	df 93       	push	r29
     6f0:	cd b7       	in	r28, 0x3d	; 61
     6f2:	de b7       	in	r29, 0x3e	; 62
     6f4:	cd 50       	subi	r28, 0x0D	; 13
     6f6:	cd bf       	out	0x3d, r28	; 61
     6f8:	8c 01       	movw	r16, r24
     6fa:	8f e2       	ldi	r24, 0x2F	; 47
     6fc:	91 e0       	ldi	r25, 0x01	; 1
     6fe:	0e 94 a6 08 	call	0x114c	; 0x114c <uart_puts>
     702:	c8 01       	movw	r24, r16
     704:	0e 94 a6 08 	call	0x114c	; 0x114c <uart_puts>
     708:	0e 94 3c 0d 	call	0x1a78	; 0x1a78 <fat_rewind>
     70c:	0e 94 85 0d 	call	0x1b0a	; 0x1b0a <fat_next>
     710:	97 fd       	sbrc	r25, 7
     712:	26 c0       	rjmp	.+76     	; 0x760 <mount+0x78>
     714:	ce 01       	movw	r24, r28
     716:	01 96       	adiw	r24, 0x01	; 1
     718:	0e 94 43 0d 	call	0x1a86	; 0x1a86 <fat_name>
     71c:	40 e0       	ldi	r20, 0x00	; 0
     71e:	be 01       	movw	r22, r28
     720:	6f 5f       	subi	r22, 0xFF	; 255
     722:	7f 4f       	sbci	r23, 0xFF	; 255
     724:	c8 01       	movw	r24, r16
     726:	0e 94 e6 02 	call	0x5cc	; 0x5cc <strdcmp>
     72a:	89 2b       	or	r24, r25
     72c:	79 f7       	brne	.-34     	; 0x70c <mount+0x24>
     72e:	0e 94 12 0e 	call	0x1c24	; 0x1c24 <fat_open>
     732:	8b e1       	ldi	r24, 0x1B	; 27
     734:	95 e0       	ldi	r25, 0x05	; 5
     736:	0e 94 b2 08 	call	0x1164	; 0x1164 <uart_putsln>
     73a:	81 e0       	ldi	r24, 0x01	; 1
     73c:	80 93 73 05 	sts	0x0573, r24
     740:	60 e0       	ldi	r22, 0x00	; 0
     742:	80 e1       	ldi	r24, 0x10	; 16
     744:	90 e0       	ldi	r25, 0x00	; 0
     746:	0e 94 72 0e 	call	0x1ce4	; 0x1ce4 <eeprom_write>
     74a:	b8 01       	movw	r22, r16
     74c:	81 e1       	ldi	r24, 0x11	; 17
     74e:	90 e0       	ldi	r25, 0x00	; 0
     750:	0e 94 41 0e 	call	0x1c82	; 0x1c82 <eeprom_write_string>
     754:	68 e8       	ldi	r22, 0x88	; 136
     756:	80 e1       	ldi	r24, 0x10	; 16
     758:	90 e0       	ldi	r25, 0x00	; 0
     75a:	0e 94 72 0e 	call	0x1ce4	; 0x1ce4 <eeprom_write>
     75e:	06 c0       	rjmp	.+12     	; 0x76c <mount+0x84>
     760:	83 e3       	ldi	r24, 0x33	; 51
     762:	91 e0       	ldi	r25, 0x01	; 1
     764:	0e 94 b2 08 	call	0x1164	; 0x1164 <uart_putsln>
     768:	10 92 73 05 	sts	0x0573, r1
     76c:	c3 5f       	subi	r28, 0xF3	; 243
     76e:	cd bf       	out	0x3d, r28	; 61
     770:	df 91       	pop	r29
     772:	cf 91       	pop	r28
     774:	1f 91       	pop	r17
     776:	0f 91       	pop	r16
     778:	08 95       	ret

0000077a <split>:
     77a:	fc 01       	movw	r30, r24
     77c:	cf 01       	movw	r24, r30
     77e:	21 91       	ld	r18, Z+
     780:	22 23       	and	r18, r18
     782:	21 f0       	breq	.+8      	; 0x78c <split+0x12>
     784:	62 13       	cpse	r22, r18
     786:	fa cf       	rjmp	.-12     	; 0x77c <split+0x2>
     788:	01 96       	adiw	r24, 0x01	; 1
     78a:	08 95       	ret
     78c:	80 e0       	ldi	r24, 0x00	; 0
     78e:	90 e0       	ldi	r25, 0x00	; 0
     790:	08 95       	ret

00000792 <prompt>:
     792:	cf 92       	push	r12
     794:	df 92       	push	r13
     796:	ef 92       	push	r14
     798:	ff 92       	push	r15
     79a:	0f 93       	push	r16
     79c:	1f 93       	push	r17
     79e:	cf 93       	push	r28
     7a0:	df 93       	push	r29
     7a2:	cd b7       	in	r28, 0x3d	; 61
     7a4:	de b7       	in	r29, 0x3e	; 62
     7a6:	c2 52       	subi	r28, 0x22	; 34
     7a8:	cd bf       	out	0x3d, r28	; 61
     7aa:	88 e3       	ldi	r24, 0x38	; 56
     7ac:	91 e0       	ldi	r25, 0x01	; 1
     7ae:	0e 94 a6 08 	call	0x114c	; 0x114c <uart_puts>
     7b2:	10 e0       	ldi	r17, 0x00	; 0
     7b4:	7e 01       	movw	r14, r28
     7b6:	82 e1       	ldi	r24, 0x12	; 18
     7b8:	e8 0e       	add	r14, r24
     7ba:	f1 1c       	adc	r15, r1
     7bc:	0e 94 04 09 	call	0x1208	; 0x1208 <uart_getchar>
     7c0:	97 fd       	sbrc	r25, 7
     7c2:	fc cf       	rjmp	.-8      	; 0x7bc <prompt+0x2a>
     7c4:	88 30       	cpi	r24, 0x08	; 8
     7c6:	91 05       	cpc	r25, r1
     7c8:	19 f0       	breq	.+6      	; 0x7d0 <prompt+0x3e>
     7ca:	8f 37       	cpi	r24, 0x7F	; 127
     7cc:	91 05       	cpc	r25, r1
     7ce:	69 f4       	brne	.+26     	; 0x7ea <prompt+0x58>
     7d0:	11 23       	and	r17, r17
     7d2:	a1 f3       	breq	.-24     	; 0x7bc <prompt+0x2a>
     7d4:	11 50       	subi	r17, 0x01	; 1
     7d6:	88 e0       	ldi	r24, 0x08	; 8
     7d8:	0e 94 02 09 	call	0x1204	; 0x1204 <uart_putchar>
     7dc:	80 e2       	ldi	r24, 0x20	; 32
     7de:	0e 94 02 09 	call	0x1204	; 0x1204 <uart_putchar>
     7e2:	88 e0       	ldi	r24, 0x08	; 8
     7e4:	0e 94 02 09 	call	0x1204	; 0x1204 <uart_putchar>
     7e8:	e9 cf       	rjmp	.-46     	; 0x7bc <prompt+0x2a>
     7ea:	8a 30       	cpi	r24, 0x0A	; 10
     7ec:	91 05       	cpc	r25, r1
     7ee:	31 f3       	breq	.-52     	; 0x7bc <prompt+0x2a>
     7f0:	8d 30       	cpi	r24, 0x0D	; 13
     7f2:	91 05       	cpc	r25, r1
     7f4:	b1 f4       	brne	.+44     	; 0x822 <prompt+0x90>
     7f6:	87 e5       	ldi	r24, 0x57	; 87
     7f8:	95 e0       	ldi	r25, 0x05	; 5
     7fa:	0e 94 b2 08 	call	0x1164	; 0x1164 <uart_putsln>
     7fe:	e2 e1       	ldi	r30, 0x12	; 18
     800:	f0 e0       	ldi	r31, 0x00	; 0
     802:	ec 0f       	add	r30, r28
     804:	fd 1f       	adc	r31, r29
     806:	e1 0f       	add	r30, r17
     808:	f1 1d       	adc	r31, r1
     80a:	10 82       	st	Z, r1
     80c:	60 e2       	ldi	r22, 0x20	; 32
     80e:	ce 01       	movw	r24, r28
     810:	42 96       	adiw	r24, 0x12	; 18
     812:	0e 94 bd 03 	call	0x77a	; 0x77a <split>
     816:	7c 01       	movw	r14, r24
     818:	8a 89       	ldd	r24, Y+18	; 0x12
     81a:	88 23       	and	r24, r24
     81c:	09 f4       	brne	.+2      	; 0x820 <prompt+0x8e>
     81e:	ad c2       	rjmp	.+1370   	; 0xd7a <__stack+0x47b>
     820:	1c c0       	rjmp	.+56     	; 0x85a <prompt+0xc8>
     822:	11 11       	cpse	r17, r1
     824:	0d c0       	rjmp	.+26     	; 0x840 <prompt+0xae>
     826:	80 31       	cpi	r24, 0x10	; 16
     828:	91 05       	cpc	r25, r1
     82a:	69 f4       	brne	.+26     	; 0x846 <prompt+0xb4>
     82c:	f7 01       	movw	r30, r14
     82e:	1e 2f       	mov	r17, r30
     830:	1e 19       	sub	r17, r14
     832:	81 91       	ld	r24, Z+
     834:	81 11       	cpse	r24, r1
     836:	fb cf       	rjmp	.-10     	; 0x82e <prompt+0x9c>
     838:	c7 01       	movw	r24, r14
     83a:	0e 94 a6 08 	call	0x114c	; 0x114c <uart_puts>
     83e:	be cf       	rjmp	.-132    	; 0x7bc <prompt+0x2a>
     840:	10 31       	cpi	r17, 0x10	; 16
     842:	09 f4       	brne	.+2      	; 0x846 <prompt+0xb4>
     844:	bb cf       	rjmp	.-138    	; 0x7bc <prompt+0x2a>
     846:	01 e0       	ldi	r16, 0x01	; 1
     848:	01 0f       	add	r16, r17
     84a:	f7 01       	movw	r30, r14
     84c:	e1 0f       	add	r30, r17
     84e:	f1 1d       	adc	r31, r1
     850:	80 83       	st	Z, r24
     852:	0e 94 02 09 	call	0x1204	; 0x1204 <uart_putchar>
     856:	10 2f       	mov	r17, r16
     858:	b1 cf       	rjmp	.-158    	; 0x7bc <prompt+0x2a>
     85a:	40 e0       	ldi	r20, 0x00	; 0
     85c:	be 01       	movw	r22, r28
     85e:	6e 5e       	subi	r22, 0xEE	; 238
     860:	7f 4f       	sbci	r23, 0xFF	; 255
     862:	8e e7       	ldi	r24, 0x7E	; 126
     864:	93 e0       	ldi	r25, 0x03	; 3
     866:	0e 94 e6 02 	call	0x5cc	; 0x5cc <strdcmp>
     86a:	89 2b       	or	r24, r25
     86c:	19 f4       	brne	.+6      	; 0x874 <prompt+0xe2>
     86e:	0e 94 63 01 	call	0x2c6	; 0x2c6 <platform_reset>
     872:	47 c2       	rjmp	.+1166   	; 0xd02 <__stack+0x403>
     874:	40 e0       	ldi	r20, 0x00	; 0
     876:	be 01       	movw	r22, r28
     878:	6e 5e       	subi	r22, 0xEE	; 238
     87a:	7f 4f       	sbci	r23, 0xFF	; 255
     87c:	83 e4       	ldi	r24, 0x43	; 67
     87e:	91 e0       	ldi	r25, 0x01	; 1
     880:	0e 94 e6 02 	call	0x5cc	; 0x5cc <strdcmp>
     884:	89 2b       	or	r24, r25
     886:	19 f4       	brne	.+6      	; 0x88e <prompt+0xfc>
     888:	0e 94 66 02 	call	0x4cc	; 0x4cc <boot>
     88c:	76 c2       	rjmp	.+1260   	; 0xd7a <__stack+0x47b>
     88e:	40 e2       	ldi	r20, 0x20	; 32
     890:	be 01       	movw	r22, r28
     892:	6e 5e       	subi	r22, 0xEE	; 238
     894:	7f 4f       	sbci	r23, 0xFF	; 255
     896:	85 e4       	ldi	r24, 0x45	; 69
     898:	91 e0       	ldi	r25, 0x01	; 1
     89a:	0e 94 e6 02 	call	0x5cc	; 0x5cc <strdcmp>
     89e:	89 2b       	or	r24, r25
     8a0:	e1 f4       	brne	.+56     	; 0x8da <prompt+0x148>
     8a2:	e1 14       	cp	r14, r1
     8a4:	f1 04       	cpc	r15, r1
     8a6:	09 f4       	brne	.+2      	; 0x8aa <prompt+0x118>
     8a8:	2c c2       	rjmp	.+1112   	; 0xd02 <__stack+0x403>
     8aa:	40 e0       	ldi	r20, 0x00	; 0
     8ac:	b7 01       	movw	r22, r14
     8ae:	88 e4       	ldi	r24, 0x48	; 72
     8b0:	91 e0       	ldi	r25, 0x01	; 1
     8b2:	0e 94 e6 02 	call	0x5cc	; 0x5cc <strdcmp>
     8b6:	89 2b       	or	r24, r25
     8b8:	31 f4       	brne	.+12     	; 0x8c6 <prompt+0x134>
     8ba:	87 e4       	ldi	r24, 0x47	; 71
     8bc:	91 e0       	ldi	r25, 0x01	; 1
     8be:	0e 94 b2 08 	call	0x1164	; 0x1164 <uart_putsln>
     8c2:	68 e8       	ldi	r22, 0x88	; 136
     8c4:	05 c0       	rjmp	.+10     	; 0x8d0 <prompt+0x13e>
     8c6:	8b e4       	ldi	r24, 0x4B	; 75
     8c8:	91 e0       	ldi	r25, 0x01	; 1
     8ca:	0e 94 b2 08 	call	0x1164	; 0x1164 <uart_putsln>
     8ce:	60 e0       	ldi	r22, 0x00	; 0
     8d0:	88 e0       	ldi	r24, 0x08	; 8
     8d2:	90 e0       	ldi	r25, 0x00	; 0
     8d4:	0e 94 72 0e 	call	0x1ce4	; 0x1ce4 <eeprom_write>
     8d8:	50 c2       	rjmp	.+1184   	; 0xd7a <__stack+0x47b>
     8da:	40 e2       	ldi	r20, 0x20	; 32
     8dc:	be 01       	movw	r22, r28
     8de:	6e 5e       	subi	r22, 0xEE	; 238
     8e0:	7f 4f       	sbci	r23, 0xFF	; 255
     8e2:	80 e5       	ldi	r24, 0x50	; 80
     8e4:	91 e0       	ldi	r25, 0x01	; 1
     8e6:	0e 94 e6 02 	call	0x5cc	; 0x5cc <strdcmp>
     8ea:	89 2b       	or	r24, r25
     8ec:	09 f5       	brne	.+66     	; 0x930 <__stack+0x31>
     8ee:	e1 14       	cp	r14, r1
     8f0:	f1 04       	cpc	r15, r1
     8f2:	09 f4       	brne	.+2      	; 0x8f6 <prompt+0x164>
     8f4:	06 c2       	rjmp	.+1036   	; 0xd02 <__stack+0x403>
     8f6:	83 e5       	ldi	r24, 0x53	; 83
     8f8:	91 e0       	ldi	r25, 0x01	; 1
     8fa:	0e 94 a6 08 	call	0x114c	; 0x114c <uart_puts>
     8fe:	40 e0       	ldi	r20, 0x00	; 0
     900:	b7 01       	movw	r22, r14
     902:	88 e4       	ldi	r24, 0x48	; 72
     904:	91 e0       	ldi	r25, 0x01	; 1
     906:	0e 94 e6 02 	call	0x5cc	; 0x5cc <strdcmp>
     90a:	89 2b       	or	r24, r25
     90c:	41 f4       	brne	.+16     	; 0x91e <__stack+0x1f>
     90e:	87 e4       	ldi	r24, 0x47	; 71
     910:	91 e0       	ldi	r25, 0x01	; 1
     912:	0e 94 a6 08 	call	0x114c	; 0x114c <uart_puts>
     916:	81 e0       	ldi	r24, 0x01	; 1
     918:	80 93 74 05 	sts	0x0574, r24
     91c:	06 c0       	rjmp	.+12     	; 0x92a <__stack+0x2b>
     91e:	8b e4       	ldi	r24, 0x4B	; 75
     920:	91 e0       	ldi	r25, 0x01	; 1
     922:	0e 94 a6 08 	call	0x114c	; 0x114c <uart_puts>
     926:	10 92 74 05 	sts	0x0574, r1
     92a:	81 e4       	ldi	r24, 0x41	; 65
     92c:	91 e0       	ldi	r25, 0x01	; 1
     92e:	23 c2       	rjmp	.+1094   	; 0xd76 <__stack+0x477>
     930:	40 e2       	ldi	r20, 0x20	; 32
     932:	be 01       	movw	r22, r28
     934:	6e 5e       	subi	r22, 0xEE	; 238
     936:	7f 4f       	sbci	r23, 0xFF	; 255
     938:	85 e6       	ldi	r24, 0x65	; 101
     93a:	91 e0       	ldi	r25, 0x01	; 1
     93c:	0e 94 e6 02 	call	0x5cc	; 0x5cc <strdcmp>
     940:	89 2b       	or	r24, r25
     942:	e1 f4       	brne	.+56     	; 0x97c <__stack+0x7d>
     944:	e1 14       	cp	r14, r1
     946:	f1 04       	cpc	r15, r1
     948:	09 f4       	brne	.+2      	; 0x94c <__stack+0x4d>
     94a:	db c1       	rjmp	.+950    	; 0xd02 <__stack+0x403>
     94c:	c7 01       	movw	r24, r14
     94e:	0e 94 1c 03 	call	0x638	; 0x638 <getnum>
     952:	f8 2e       	mov	r15, r24
     954:	19 2f       	mov	r17, r25
     956:	88 e6       	ldi	r24, 0x68	; 104
     958:	91 e0       	ldi	r25, 0x01	; 1
     95a:	0e 94 a6 08 	call	0x114c	; 0x114c <uart_puts>
     95e:	81 2f       	mov	r24, r17
     960:	0e 94 63 08 	call	0x10c6	; 0x10c6 <uart_puthex>
     964:	8f 2d       	mov	r24, r15
     966:	0e 94 63 08 	call	0x10c6	; 0x10c6 <uart_puthex>
     96a:	88 e7       	ldi	r24, 0x78	; 120
     96c:	91 e0       	ldi	r25, 0x01	; 1
     96e:	0e 94 b2 08 	call	0x1164	; 0x1164 <uart_putsln>
     972:	8f 2d       	mov	r24, r15
     974:	91 2f       	mov	r25, r17
     976:	0e 94 76 09 	call	0x12ec	; 0x12ec <sram_read>
     97a:	a7 c0       	rjmp	.+334    	; 0xaca <__stack+0x1cb>
     97c:	40 e2       	ldi	r20, 0x20	; 32
     97e:	be 01       	movw	r22, r28
     980:	6e 5e       	subi	r22, 0xEE	; 238
     982:	7f 4f       	sbci	r23, 0xFF	; 255
     984:	8b e7       	ldi	r24, 0x7B	; 123
     986:	91 e0       	ldi	r25, 0x01	; 1
     988:	0e 94 e6 02 	call	0x5cc	; 0x5cc <strdcmp>
     98c:	89 2b       	or	r24, r25
     98e:	81 f5       	brne	.+96     	; 0x9f0 <__stack+0xf1>
     990:	e1 14       	cp	r14, r1
     992:	f1 04       	cpc	r15, r1
     994:	09 f4       	brne	.+2      	; 0x998 <__stack+0x99>
     996:	b5 c1       	rjmp	.+874    	; 0xd02 <__stack+0x403>
     998:	6c e2       	ldi	r22, 0x2C	; 44
     99a:	c7 01       	movw	r24, r14
     99c:	0e 94 bd 03 	call	0x77a	; 0x77a <split>
     9a0:	6c 01       	movw	r12, r24
     9a2:	00 97       	sbiw	r24, 0x00	; 0
     9a4:	09 f4       	brne	.+2      	; 0x9a8 <__stack+0xa9>
     9a6:	ad c1       	rjmp	.+858    	; 0xd02 <__stack+0x403>
     9a8:	c7 01       	movw	r24, r14
     9aa:	0e 94 1c 03 	call	0x638	; 0x638 <getnum>
     9ae:	f8 2e       	mov	r15, r24
     9b0:	19 2f       	mov	r17, r25
     9b2:	c6 01       	movw	r24, r12
     9b4:	0e 94 1c 03 	call	0x638	; 0x638 <getnum>
     9b8:	e8 2e       	mov	r14, r24
     9ba:	8e e7       	ldi	r24, 0x7E	; 126
     9bc:	91 e0       	ldi	r25, 0x01	; 1
     9be:	0e 94 a6 08 	call	0x114c	; 0x114c <uart_puts>
     9c2:	81 2f       	mov	r24, r17
     9c4:	0e 94 63 08 	call	0x10c6	; 0x10c6 <uart_puthex>
     9c8:	8f 2d       	mov	r24, r15
     9ca:	0e 94 63 08 	call	0x10c6	; 0x10c6 <uart_puthex>
     9ce:	8f e8       	ldi	r24, 0x8F	; 143
     9d0:	91 e0       	ldi	r25, 0x01	; 1
     9d2:	0e 94 a6 08 	call	0x114c	; 0x114c <uart_puts>
     9d6:	8e 2d       	mov	r24, r14
     9d8:	0e 94 63 08 	call	0x10c6	; 0x10c6 <uart_puthex>
     9dc:	81 e4       	ldi	r24, 0x41	; 65
     9de:	91 e0       	ldi	r25, 0x01	; 1
     9e0:	0e 94 b2 08 	call	0x1164	; 0x1164 <uart_putsln>
     9e4:	6e 2d       	mov	r22, r14
     9e6:	8f 2d       	mov	r24, r15
     9e8:	91 2f       	mov	r25, r17
     9ea:	0e 94 8c 09 	call	0x1318	; 0x1318 <sram_write>
     9ee:	c5 c1       	rjmp	.+906    	; 0xd7a <__stack+0x47b>
     9f0:	40 e0       	ldi	r20, 0x00	; 0
     9f2:	be 01       	movw	r22, r28
     9f4:	6e 5e       	subi	r22, 0xEE	; 238
     9f6:	7f 4f       	sbci	r23, 0xFF	; 255
     9f8:	83 e9       	ldi	r24, 0x93	; 147
     9fa:	91 e0       	ldi	r25, 0x01	; 1
     9fc:	0e 94 e6 02 	call	0x5cc	; 0x5cc <strdcmp>
     a00:	89 2b       	or	r24, r25
     a02:	79 f4       	brne	.+30     	; 0xa22 <__stack+0x123>
     a04:	86 e9       	ldi	r24, 0x96	; 150
     a06:	91 e0       	ldi	r25, 0x01	; 1
     a08:	0e 94 b2 08 	call	0x1164	; 0x1164 <uart_putsln>
     a0c:	0e 94 57 0a 	call	0x14ae	; 0x14ae <sdcard_open>
     a10:	18 2f       	mov	r17, r24
     a12:	87 fd       	sbrc	r24, 7
     a14:	03 c0       	rjmp	.+6      	; 0xa1c <__stack+0x11d>
     a16:	84 ea       	ldi	r24, 0xA4	; 164
     a18:	91 e0       	ldi	r25, 0x01	; 1
     a1a:	ad c1       	rjmp	.+858    	; 0xd76 <__stack+0x477>
     a1c:	8c ea       	ldi	r24, 0xAC	; 172
     a1e:	91 e0       	ldi	r25, 0x01	; 1
     a20:	c0 c0       	rjmp	.+384    	; 0xba2 <__stack+0x2a3>
     a22:	40 e0       	ldi	r20, 0x00	; 0
     a24:	be 01       	movw	r22, r28
     a26:	6e 5e       	subi	r22, 0xEE	; 238
     a28:	7f 4f       	sbci	r23, 0xFF	; 255
     a2a:	89 eb       	ldi	r24, 0xB9	; 185
     a2c:	91 e0       	ldi	r25, 0x01	; 1
     a2e:	0e 94 e6 02 	call	0x5cc	; 0x5cc <strdcmp>
     a32:	89 2b       	or	r24, r25
     a34:	09 f0       	breq	.+2      	; 0xa38 <__stack+0x139>
     a36:	4e c0       	rjmp	.+156    	; 0xad4 <__stack+0x1d5>
     a38:	8c eb       	ldi	r24, 0xBC	; 188
     a3a:	91 e0       	ldi	r25, 0x01	; 1
     a3c:	0e 94 b2 08 	call	0x1164	; 0x1164 <uart_putsln>
     a40:	81 e3       	ldi	r24, 0x31	; 49
     a42:	91 e0       	ldi	r25, 0x01	; 1
     a44:	0e 94 a6 08 	call	0x114c	; 0x114c <uart_puts>
     a48:	e1 2c       	mov	r14, r1
     a4a:	f1 2c       	mov	r15, r1
     a4c:	c7 01       	movw	r24, r14
     a4e:	83 70       	andi	r24, 0x03	; 3
     a50:	99 27       	eor	r25, r25
     a52:	89 2b       	or	r24, r25
     a54:	19 f4       	brne	.+6      	; 0xa5c <__stack+0x15d>
     a56:	8f e5       	ldi	r24, 0x5F	; 95
     a58:	0e 94 02 09 	call	0x1204	; 0x1204 <uart_putchar>
     a5c:	c7 01       	movw	r24, r14
     a5e:	0e 94 a7 09 	call	0x134e	; 0x134e <sdcard_read>
     a62:	18 2f       	mov	r17, r24
     a64:	0e 94 63 08 	call	0x10c6	; 0x10c6 <uart_puthex>
     a68:	8f ed       	ldi	r24, 0xDF	; 223
     a6a:	81 0f       	add	r24, r17
     a6c:	8e 35       	cpi	r24, 0x5E	; 94
     a6e:	08 f0       	brcs	.+2      	; 0xa72 <__stack+0x173>
     a70:	10 e2       	ldi	r17, 0x20	; 32
     a72:	97 01       	movw	r18, r14
     a74:	2f 70       	andi	r18, 0x0F	; 15
     a76:	33 27       	eor	r19, r19
     a78:	e1 e0       	ldi	r30, 0x01	; 1
     a7a:	f0 e0       	ldi	r31, 0x00	; 0
     a7c:	ec 0f       	add	r30, r28
     a7e:	fd 1f       	adc	r31, r29
     a80:	e2 0f       	add	r30, r18
     a82:	f3 1f       	adc	r31, r19
     a84:	10 83       	st	Z, r17
     a86:	2f 30       	cpi	r18, 0x0F	; 15
     a88:	31 05       	cpc	r19, r1
     a8a:	69 f4       	brne	.+26     	; 0xaa6 <__stack+0x1a7>
     a8c:	19 8a       	std	Y+17, r1	; 0x11
     a8e:	80 e3       	ldi	r24, 0x30	; 48
     a90:	91 e0       	ldi	r25, 0x01	; 1
     a92:	0e 94 a6 08 	call	0x114c	; 0x114c <uart_puts>
     a96:	ce 01       	movw	r24, r28
     a98:	01 96       	adiw	r24, 0x01	; 1
     a9a:	0e 94 a6 08 	call	0x114c	; 0x114c <uart_puts>
     a9e:	81 e3       	ldi	r24, 0x31	; 49
     aa0:	91 e0       	ldi	r25, 0x01	; 1
     aa2:	0e 94 b2 08 	call	0x1164	; 0x1164 <uart_putsln>
     aa6:	8f ef       	ldi	r24, 0xFF	; 255
     aa8:	e8 1a       	sub	r14, r24
     aaa:	f8 0a       	sbc	r15, r24
     aac:	e1 14       	cp	r14, r1
     aae:	82 e0       	ldi	r24, 0x02	; 2
     ab0:	f8 06       	cpc	r15, r24
     ab2:	61 f6       	brne	.-104    	; 0xa4c <__stack+0x14d>
     ab4:	87 ed       	ldi	r24, 0xD7	; 215
     ab6:	91 e0       	ldi	r25, 0x01	; 1
     ab8:	0e 94 a6 08 	call	0x114c	; 0x114c <uart_puts>
     abc:	0e 94 56 0b 	call	0x16ac	; 0x16ac <sdcard_crc>
     ac0:	18 2f       	mov	r17, r24
     ac2:	89 2f       	mov	r24, r25
     ac4:	0e 94 63 08 	call	0x10c6	; 0x10c6 <uart_puthex>
     ac8:	81 2f       	mov	r24, r17
     aca:	0e 94 63 08 	call	0x10c6	; 0x10c6 <uart_puthex>
     ace:	87 e5       	ldi	r24, 0x57	; 87
     ad0:	95 e0       	ldi	r25, 0x05	; 5
     ad2:	51 c1       	rjmp	.+674    	; 0xd76 <__stack+0x477>
     ad4:	40 e2       	ldi	r20, 0x20	; 32
     ad6:	be 01       	movw	r22, r28
     ad8:	6e 5e       	subi	r22, 0xEE	; 238
     ada:	7f 4f       	sbci	r23, 0xFF	; 255
     adc:	8d ed       	ldi	r24, 0xDD	; 221
     ade:	91 e0       	ldi	r25, 0x01	; 1
     ae0:	0e 94 e6 02 	call	0x5cc	; 0x5cc <strdcmp>
     ae4:	89 2b       	or	r24, r25
     ae6:	59 f5       	brne	.+86     	; 0xb3e <__stack+0x23f>
     ae8:	e1 14       	cp	r14, r1
     aea:	f1 04       	cpc	r15, r1
     aec:	09 f4       	brne	.+2      	; 0xaf0 <__stack+0x1f1>
     aee:	09 c1       	rjmp	.+530    	; 0xd02 <__stack+0x403>
     af0:	c7 01       	movw	r24, r14
     af2:	0e 94 1c 03 	call	0x638	; 0x638 <getnum>
     af6:	6c 01       	movw	r12, r24
     af8:	ee 24       	eor	r14, r14
     afa:	d7 fc       	sbrc	r13, 7
     afc:	e0 94       	com	r14
     afe:	fe 2c       	mov	r15, r14
     b00:	80 ee       	ldi	r24, 0xE0	; 224
     b02:	91 e0       	ldi	r25, 0x01	; 1
     b04:	0e 94 a6 08 	call	0x114c	; 0x114c <uart_puts>
     b08:	8d 2d       	mov	r24, r13
     b0a:	0e 94 63 08 	call	0x10c6	; 0x10c6 <uart_puthex>
     b0e:	8c 2d       	mov	r24, r12
     b10:	0e 94 63 08 	call	0x10c6	; 0x10c6 <uart_puthex>
     b14:	81 e4       	ldi	r24, 0x41	; 65
     b16:	91 e0       	ldi	r25, 0x01	; 1
     b18:	0e 94 b2 08 	call	0x1164	; 0x1164 <uart_putsln>
     b1c:	c7 01       	movw	r24, r14
     b1e:	b6 01       	movw	r22, r12
     b20:	f9 e0       	ldi	r31, 0x09	; 9
     b22:	66 0f       	add	r22, r22
     b24:	77 1f       	adc	r23, r23
     b26:	88 1f       	adc	r24, r24
     b28:	99 1f       	adc	r25, r25
     b2a:	fa 95       	dec	r31
     b2c:	d1 f7       	brne	.-12     	; 0xb22 <__stack+0x223>
     b2e:	0e 94 92 0a 	call	0x1524	; 0x1524 <sdcard_fetch>
     b32:	18 2f       	mov	r17, r24
     b34:	87 fd       	sbrc	r24, 7
     b36:	33 c0       	rjmp	.+102    	; 0xb9e <__stack+0x29f>
     b38:	8b e1       	ldi	r24, 0x1B	; 27
     b3a:	95 e0       	ldi	r25, 0x05	; 5
     b3c:	1c c1       	rjmp	.+568    	; 0xd76 <__stack+0x477>
     b3e:	40 e2       	ldi	r20, 0x20	; 32
     b40:	be 01       	movw	r22, r28
     b42:	6e 5e       	subi	r22, 0xEE	; 238
     b44:	7f 4f       	sbci	r23, 0xFF	; 255
     b46:	8f ef       	ldi	r24, 0xFF	; 255
     b48:	91 e0       	ldi	r25, 0x01	; 1
     b4a:	0e 94 e6 02 	call	0x5cc	; 0x5cc <strdcmp>
     b4e:	89 2b       	or	r24, r25
     b50:	89 f5       	brne	.+98     	; 0xbb4 <__stack+0x2b5>
     b52:	e1 14       	cp	r14, r1
     b54:	f1 04       	cpc	r15, r1
     b56:	09 f4       	brne	.+2      	; 0xb5a <__stack+0x25b>
     b58:	d4 c0       	rjmp	.+424    	; 0xd02 <__stack+0x403>
     b5a:	c7 01       	movw	r24, r14
     b5c:	0e 94 1c 03 	call	0x638	; 0x638 <getnum>
     b60:	6c 01       	movw	r12, r24
     b62:	ee 24       	eor	r14, r14
     b64:	d7 fc       	sbrc	r13, 7
     b66:	e0 94       	com	r14
     b68:	fe 2c       	mov	r15, r14
     b6a:	82 e0       	ldi	r24, 0x02	; 2
     b6c:	92 e0       	ldi	r25, 0x02	; 2
     b6e:	0e 94 a6 08 	call	0x114c	; 0x114c <uart_puts>
     b72:	8d 2d       	mov	r24, r13
     b74:	0e 94 63 08 	call	0x10c6	; 0x10c6 <uart_puthex>
     b78:	8c 2d       	mov	r24, r12
     b7a:	0e 94 63 08 	call	0x10c6	; 0x10c6 <uart_puthex>
     b7e:	81 e4       	ldi	r24, 0x41	; 65
     b80:	91 e0       	ldi	r25, 0x01	; 1
     b82:	0e 94 b2 08 	call	0x1164	; 0x1164 <uart_putsln>
     b86:	c7 01       	movw	r24, r14
     b88:	b6 01       	movw	r22, r12
     b8a:	e9 e0       	ldi	r30, 0x09	; 9
     b8c:	66 0f       	add	r22, r22
     b8e:	77 1f       	adc	r23, r23
     b90:	88 1f       	adc	r24, r24
     b92:	99 1f       	adc	r25, r25
     b94:	ea 95       	dec	r30
     b96:	d1 f7       	brne	.-12     	; 0xb8c <__stack+0x28d>
     b98:	0e 94 f5 0a 	call	0x15ea	; 0x15ea <sdcard_store>
     b9c:	ca cf       	rjmp	.-108    	; 0xb32 <__stack+0x233>
     b9e:	87 ef       	ldi	r24, 0xF7	; 247
     ba0:	91 e0       	ldi	r25, 0x01	; 1
     ba2:	0e 94 a6 08 	call	0x114c	; 0x114c <uart_puts>
     ba6:	81 2f       	mov	r24, r17
     ba8:	81 95       	neg	r24
     baa:	0e 94 63 08 	call	0x10c6	; 0x10c6 <uart_puthex>
     bae:	8d e2       	ldi	r24, 0x2D	; 45
     bb0:	91 e0       	ldi	r25, 0x01	; 1
     bb2:	e1 c0       	rjmp	.+450    	; 0xd76 <__stack+0x477>
     bb4:	40 e0       	ldi	r20, 0x00	; 0
     bb6:	be 01       	movw	r22, r28
     bb8:	6e 5e       	subi	r22, 0xEE	; 238
     bba:	7f 4f       	sbci	r23, 0xFF	; 255
     bbc:	89 e1       	ldi	r24, 0x19	; 25
     bbe:	92 e0       	ldi	r25, 0x02	; 2
     bc0:	0e 94 e6 02 	call	0x5cc	; 0x5cc <strdcmp>
     bc4:	89 2b       	or	r24, r25
     bc6:	d1 f5       	brne	.+116    	; 0xc3c <__stack+0x33d>
     bc8:	0e 94 3c 0d 	call	0x1a78	; 0x1a78 <fat_rewind>
     bcc:	0e 94 85 0d 	call	0x1b0a	; 0x1b0a <fat_next>
     bd0:	97 fd       	sbrc	r25, 7
     bd2:	d3 c0       	rjmp	.+422    	; 0xd7a <__stack+0x47b>
     bd4:	0e 94 77 0d 	call	0x1aee	; 0x1aee <fat_attr>
     bd8:	18 2f       	mov	r17, r24
     bda:	ce 01       	movw	r24, r28
     bdc:	01 96       	adiw	r24, 0x01	; 1
     bde:	0e 94 43 0d 	call	0x1a86	; 0x1a86 <fat_name>
     be2:	80 e2       	ldi	r24, 0x20	; 32
     be4:	0e 94 02 09 	call	0x1204	; 0x1204 <uart_putchar>
     be8:	01 2f       	mov	r16, r17
     bea:	00 71       	andi	r16, 0x10	; 16
     bec:	14 ff       	sbrs	r17, 4
     bee:	02 c0       	rjmp	.+4      	; 0xbf4 <__stack+0x2f5>
     bf0:	84 e6       	ldi	r24, 0x64	; 100
     bf2:	01 c0       	rjmp	.+2      	; 0xbf6 <__stack+0x2f7>
     bf4:	8d e2       	ldi	r24, 0x2D	; 45
     bf6:	0e 94 02 09 	call	0x1204	; 0x1204 <uart_putchar>
     bfa:	12 fd       	sbrc	r17, 2
     bfc:	02 c0       	rjmp	.+4      	; 0xc02 <__stack+0x303>
     bfe:	82 e7       	ldi	r24, 0x72	; 114
     c00:	01 c0       	rjmp	.+2      	; 0xc04 <__stack+0x305>
     c02:	8d e2       	ldi	r24, 0x2D	; 45
     c04:	0e 94 02 09 	call	0x1204	; 0x1204 <uart_putchar>
     c08:	10 ff       	sbrs	r17, 0
     c0a:	02 c0       	rjmp	.+4      	; 0xc10 <__stack+0x311>
     c0c:	8d e2       	ldi	r24, 0x2D	; 45
     c0e:	01 c0       	rjmp	.+2      	; 0xc12 <__stack+0x313>
     c10:	87 e7       	ldi	r24, 0x77	; 119
     c12:	0e 94 02 09 	call	0x1204	; 0x1204 <uart_putchar>
     c16:	00 23       	and	r16, r16
     c18:	11 f0       	breq	.+4      	; 0xc1e <__stack+0x31f>
     c1a:	88 e7       	ldi	r24, 0x78	; 120
     c1c:	01 c0       	rjmp	.+2      	; 0xc20 <__stack+0x321>
     c1e:	8d e2       	ldi	r24, 0x2D	; 45
     c20:	0e 94 02 09 	call	0x1204	; 0x1204 <uart_putchar>
     c24:	80 e2       	ldi	r24, 0x20	; 32
     c26:	0e 94 02 09 	call	0x1204	; 0x1204 <uart_putchar>
     c2a:	ce 01       	movw	r24, r28
     c2c:	01 96       	adiw	r24, 0x01	; 1
     c2e:	0e 94 a6 08 	call	0x114c	; 0x114c <uart_puts>
     c32:	87 e5       	ldi	r24, 0x57	; 87
     c34:	95 e0       	ldi	r25, 0x05	; 5
     c36:	0e 94 b2 08 	call	0x1164	; 0x1164 <uart_putsln>
     c3a:	c8 cf       	rjmp	.-112    	; 0xbcc <__stack+0x2cd>
     c3c:	40 e2       	ldi	r20, 0x20	; 32
     c3e:	be 01       	movw	r22, r28
     c40:	6e 5e       	subi	r22, 0xEE	; 238
     c42:	7f 4f       	sbci	r23, 0xFF	; 255
     c44:	8c e1       	ldi	r24, 0x1C	; 28
     c46:	92 e0       	ldi	r25, 0x02	; 2
     c48:	0e 94 e6 02 	call	0x5cc	; 0x5cc <strdcmp>
     c4c:	89 2b       	or	r24, r25
     c4e:	01 f5       	brne	.+64     	; 0xc90 <__stack+0x391>
     c50:	e1 14       	cp	r14, r1
     c52:	f1 04       	cpc	r15, r1
     c54:	19 f4       	brne	.+6      	; 0xc5c <__stack+0x35d>
     c56:	0e 94 8e 0c 	call	0x191c	; 0x191c <fat_init>
     c5a:	8f c0       	rjmp	.+286    	; 0xd7a <__stack+0x47b>
     c5c:	0e 94 3c 0d 	call	0x1a78	; 0x1a78 <fat_rewind>
     c60:	0e 94 85 0d 	call	0x1b0a	; 0x1b0a <fat_next>
     c64:	97 fd       	sbrc	r25, 7
     c66:	89 c0       	rjmp	.+274    	; 0xd7a <__stack+0x47b>
     c68:	0e 94 77 0d 	call	0x1aee	; 0x1aee <fat_attr>
     c6c:	84 ff       	sbrs	r24, 4
     c6e:	f8 cf       	rjmp	.-16     	; 0xc60 <__stack+0x361>
     c70:	ce 01       	movw	r24, r28
     c72:	01 96       	adiw	r24, 0x01	; 1
     c74:	0e 94 43 0d 	call	0x1a86	; 0x1a86 <fat_name>
     c78:	40 e0       	ldi	r20, 0x00	; 0
     c7a:	be 01       	movw	r22, r28
     c7c:	6f 5f       	subi	r22, 0xFF	; 255
     c7e:	7f 4f       	sbci	r23, 0xFF	; 255
     c80:	c7 01       	movw	r24, r14
     c82:	0e 94 e6 02 	call	0x5cc	; 0x5cc <strdcmp>
     c86:	89 2b       	or	r24, r25
     c88:	59 f7       	brne	.-42     	; 0xc60 <__stack+0x361>
     c8a:	0e 94 ca 0d 	call	0x1b94	; 0x1b94 <fat_chdir>
     c8e:	75 c0       	rjmp	.+234    	; 0xd7a <__stack+0x47b>
     c90:	40 e2       	ldi	r20, 0x20	; 32
     c92:	be 01       	movw	r22, r28
     c94:	6e 5e       	subi	r22, 0xEE	; 238
     c96:	7f 4f       	sbci	r23, 0xFF	; 255
     c98:	83 e2       	ldi	r24, 0x23	; 35
     c9a:	91 e0       	ldi	r25, 0x01	; 1
     c9c:	0e 94 e6 02 	call	0x5cc	; 0x5cc <strdcmp>
     ca0:	89 2b       	or	r24, r25
     ca2:	39 f4       	brne	.+14     	; 0xcb2 <__stack+0x3b3>
     ca4:	e1 14       	cp	r14, r1
     ca6:	f1 04       	cpc	r15, r1
     ca8:	61 f1       	breq	.+88     	; 0xd02 <__stack+0x403>
     caa:	c7 01       	movw	r24, r14
     cac:	0e 94 74 03 	call	0x6e8	; 0x6e8 <mount>
     cb0:	64 c0       	rjmp	.+200    	; 0xd7a <__stack+0x47b>
     cb2:	40 e2       	ldi	r20, 0x20	; 32
     cb4:	be 01       	movw	r22, r28
     cb6:	6e 5e       	subi	r22, 0xEE	; 238
     cb8:	7f 4f       	sbci	r23, 0xFF	; 255
     cba:	8f e1       	ldi	r24, 0x1F	; 31
     cbc:	92 e0       	ldi	r25, 0x02	; 2
     cbe:	0e 94 e6 02 	call	0x5cc	; 0x5cc <strdcmp>
     cc2:	89 2b       	or	r24, r25
     cc4:	f1 f4       	brne	.+60     	; 0xd02 <__stack+0x403>
     cc6:	e1 14       	cp	r14, r1
     cc8:	f1 04       	cpc	r15, r1
     cca:	d9 f0       	breq	.+54     	; 0xd02 <__stack+0x403>
     ccc:	82 e2       	ldi	r24, 0x22	; 34
     cce:	92 e0       	ldi	r25, 0x02	; 2
     cd0:	0e 94 a6 08 	call	0x114c	; 0x114c <uart_puts>
     cd4:	40 e0       	ldi	r20, 0x00	; 0
     cd6:	b7 01       	movw	r22, r14
     cd8:	88 e4       	ldi	r24, 0x48	; 72
     cda:	91 e0       	ldi	r25, 0x01	; 1
     cdc:	0e 94 e6 02 	call	0x5cc	; 0x5cc <strdcmp>
     ce0:	89 2b       	or	r24, r25
     ce2:	41 f4       	brne	.+16     	; 0xcf4 <__stack+0x3f5>
     ce4:	87 e4       	ldi	r24, 0x47	; 71
     ce6:	91 e0       	ldi	r25, 0x01	; 1
     ce8:	0e 94 a6 08 	call	0x114c	; 0x114c <uart_puts>
     cec:	81 e0       	ldi	r24, 0x01	; 1
     cee:	80 93 00 01 	sts	0x0100, r24
     cf2:	1b ce       	rjmp	.-970    	; 0x92a <__stack+0x2b>
     cf4:	8b e4       	ldi	r24, 0x4B	; 75
     cf6:	91 e0       	ldi	r25, 0x01	; 1
     cf8:	0e 94 a6 08 	call	0x114c	; 0x114c <uart_puts>
     cfc:	10 92 00 01 	sts	0x0100, r1
     d00:	14 ce       	rjmp	.-984    	; 0x92a <__stack+0x2b>
     d02:	89 e3       	ldi	r24, 0x39	; 57
     d04:	92 e0       	ldi	r25, 0x02	; 2
     d06:	0e 94 b2 08 	call	0x1164	; 0x1164 <uart_putsln>
     d0a:	8a e4       	ldi	r24, 0x4A	; 74
     d0c:	92 e0       	ldi	r25, 0x02	; 2
     d0e:	0e 94 b2 08 	call	0x1164	; 0x1164 <uart_putsln>
     d12:	84 e6       	ldi	r24, 0x64	; 100
     d14:	92 e0       	ldi	r25, 0x02	; 2
     d16:	0e 94 b2 08 	call	0x1164	; 0x1164 <uart_putsln>
     d1a:	86 e8       	ldi	r24, 0x86	; 134
     d1c:	92 e0       	ldi	r25, 0x02	; 2
     d1e:	0e 94 b2 08 	call	0x1164	; 0x1164 <uart_putsln>
     d22:	87 eb       	ldi	r24, 0xB7	; 183
     d24:	92 e0       	ldi	r25, 0x02	; 2
     d26:	0e 94 b2 08 	call	0x1164	; 0x1164 <uart_putsln>
     d2a:	85 ed       	ldi	r24, 0xD5	; 213
     d2c:	92 e0       	ldi	r25, 0x02	; 2
     d2e:	0e 94 b2 08 	call	0x1164	; 0x1164 <uart_putsln>
     d32:	81 e0       	ldi	r24, 0x01	; 1
     d34:	93 e0       	ldi	r25, 0x03	; 3
     d36:	0e 94 b2 08 	call	0x1164	; 0x1164 <uart_putsln>
     d3a:	83 e3       	ldi	r24, 0x33	; 51
     d3c:	93 e0       	ldi	r25, 0x03	; 3
     d3e:	0e 94 b2 08 	call	0x1164	; 0x1164 <uart_putsln>
     d42:	83 e5       	ldi	r24, 0x53	; 83
     d44:	93 e0       	ldi	r25, 0x03	; 3
     d46:	0e 94 b2 08 	call	0x1164	; 0x1164 <uart_putsln>
     d4a:	80 e8       	ldi	r24, 0x80	; 128
     d4c:	93 e0       	ldi	r25, 0x03	; 3
     d4e:	0e 94 b2 08 	call	0x1164	; 0x1164 <uart_putsln>
     d52:	87 ea       	ldi	r24, 0xA7	; 167
     d54:	93 e0       	ldi	r25, 0x03	; 3
     d56:	0e 94 b2 08 	call	0x1164	; 0x1164 <uart_putsln>
     d5a:	8e ec       	ldi	r24, 0xCE	; 206
     d5c:	93 e0       	ldi	r25, 0x03	; 3
     d5e:	0e 94 b2 08 	call	0x1164	; 0x1164 <uart_putsln>
     d62:	8f ee       	ldi	r24, 0xEF	; 239
     d64:	93 e0       	ldi	r25, 0x03	; 3
     d66:	0e 94 b2 08 	call	0x1164	; 0x1164 <uart_putsln>
     d6a:	84 e1       	ldi	r24, 0x14	; 20
     d6c:	94 e0       	ldi	r25, 0x04	; 4
     d6e:	0e 94 b2 08 	call	0x1164	; 0x1164 <uart_putsln>
     d72:	89 e3       	ldi	r24, 0x39	; 57
     d74:	94 e0       	ldi	r25, 0x04	; 4
     d76:	0e 94 b2 08 	call	0x1164	; 0x1164 <uart_putsln>
     d7a:	ce 5d       	subi	r28, 0xDE	; 222
     d7c:	cd bf       	out	0x3d, r28	; 61
     d7e:	df 91       	pop	r29
     d80:	cf 91       	pop	r28
     d82:	1f 91       	pop	r17
     d84:	0f 91       	pop	r16
     d86:	ff 90       	pop	r15
     d88:	ef 90       	pop	r14
     d8a:	df 90       	pop	r13
     d8c:	cf 90       	pop	r12
     d8e:	08 95       	ret

00000d90 <mem_chk>:
     d90:	9f 92       	push	r9
     d92:	af 92       	push	r10
     d94:	bf 92       	push	r11
     d96:	cf 92       	push	r12
     d98:	df 92       	push	r13
     d9a:	ef 92       	push	r14
     d9c:	ff 92       	push	r15
     d9e:	0f 93       	push	r16
     da0:	1f 93       	push	r17
     da2:	cf 93       	push	r28
     da4:	df 93       	push	r29
     da6:	c0 e0       	ldi	r28, 0x00	; 0
     da8:	d0 e0       	ldi	r29, 0x00	; 0
     daa:	a1 2c       	mov	r10, r1
     dac:	8e 01       	movw	r16, r28
     dae:	01 70       	andi	r16, 0x01	; 1
     db0:	11 27       	eor	r17, r17
     db2:	6e 01       	movw	r12, r28
     db4:	dd 24       	eor	r13, r13
     db6:	ed 2e       	mov	r14, r29
     db8:	ff 24       	eor	r15, r15
     dba:	a1 10       	cpse	r10, r1
     dbc:	4c c0       	rjmp	.+152    	; 0xe56 <mem_chk+0xc6>
     dbe:	83 e6       	ldi	r24, 0x63	; 99
     dc0:	94 e0       	ldi	r25, 0x04	; 4
     dc2:	0e 94 a6 08 	call	0x114c	; 0x114c <uart_puts>
     dc6:	9c 2e       	mov	r9, r28
     dc8:	8c 2f       	mov	r24, r28
     dca:	0e 94 63 08 	call	0x10c6	; 0x10c6 <uart_puthex>
     dce:	8c 2f       	mov	r24, r28
     dd0:	0e 94 63 08 	call	0x10c6	; 0x10c6 <uart_puthex>
     dd4:	86 e5       	ldi	r24, 0x56	; 86
     dd6:	95 e0       	ldi	r25, 0x05	; 5
     dd8:	0e 94 a6 08 	call	0x114c	; 0x114c <uart_puts>
     ddc:	6a ea       	ldi	r22, 0xAA	; 170
     dde:	ce 01       	movw	r24, r28
     de0:	0e 94 8c 09 	call	0x1318	; 0x1318 <sram_write>
     de4:	ce 01       	movw	r24, r28
     de6:	0e 94 76 09 	call	0x12ec	; 0x12ec <sram_read>
     dea:	bb 24       	eor	r11, r11
     dec:	b3 94       	inc	r11
     dee:	8a 3a       	cpi	r24, 0xAA	; 170
     df0:	09 f4       	brne	.+2      	; 0xdf4 <mem_chk+0x64>
     df2:	b1 2c       	mov	r11, r1
     df4:	65 e5       	ldi	r22, 0x55	; 85
     df6:	ce 01       	movw	r24, r28
     df8:	0e 94 8c 09 	call	0x1318	; 0x1318 <sram_write>
     dfc:	ce 01       	movw	r24, r28
     dfe:	0e 94 76 09 	call	0x12ec	; 0x12ec <sram_read>
     e02:	85 35       	cpi	r24, 0x55	; 85
     e04:	19 f0       	breq	.+6      	; 0xe0c <mem_chk+0x7c>
     e06:	2b 2d       	mov	r18, r11
     e08:	22 60       	ori	r18, 0x02	; 2
     e0a:	b2 2e       	mov	r11, r18
     e0c:	8c e6       	ldi	r24, 0x6C	; 108
     e0e:	94 e0       	ldi	r25, 0x04	; 4
     e10:	0e 94 a6 08 	call	0x114c	; 0x114c <uart_puts>
     e14:	01 15       	cp	r16, r1
     e16:	11 05       	cpc	r17, r1
     e18:	11 f4       	brne	.+4      	; 0xe1e <mem_chk+0x8e>
     e1a:	69 2d       	mov	r22, r9
     e1c:	01 c0       	rjmp	.+2      	; 0xe20 <mem_chk+0x90>
     e1e:	6d 2f       	mov	r22, r29
     e20:	ce 01       	movw	r24, r28
     e22:	0e 94 8c 09 	call	0x1318	; 0x1318 <sram_write>
     e26:	ce 01       	movw	r24, r28
     e28:	0e 94 76 09 	call	0x12ec	; 0x12ec <sram_read>
     e2c:	98 2e       	mov	r9, r24
     e2e:	28 2f       	mov	r18, r24
     e30:	30 e0       	ldi	r19, 0x00	; 0
     e32:	c2 16       	cp	r12, r18
     e34:	d3 06       	cpc	r13, r19
     e36:	31 f0       	breq	.+12     	; 0xe44 <mem_chk+0xb4>
     e38:	01 15       	cp	r16, r1
     e3a:	11 05       	cpc	r17, r1
     e3c:	19 f4       	brne	.+6      	; 0xe44 <mem_chk+0xb4>
     e3e:	8b 2d       	mov	r24, r11
     e40:	84 60       	ori	r24, 0x04	; 4
     e42:	b8 2e       	mov	r11, r24
     e44:	e2 16       	cp	r14, r18
     e46:	f3 06       	cpc	r15, r19
     e48:	e1 f0       	breq	.+56     	; 0xe82 <mem_chk+0xf2>
     e4a:	01 2b       	or	r16, r17
     e4c:	d1 f0       	breq	.+52     	; 0xe82 <mem_chk+0xf2>
     e4e:	2b 2d       	mov	r18, r11
     e50:	24 60       	ori	r18, 0x04	; 4
     e52:	b2 2e       	mov	r11, r18
     e54:	1a c0       	rjmp	.+52     	; 0xe8a <mem_chk+0xfa>
     e56:	ce 01       	movw	r24, r28
     e58:	0e 94 76 09 	call	0x12ec	; 0x12ec <sram_read>
     e5c:	98 2e       	mov	r9, r24
     e5e:	28 2f       	mov	r18, r24
     e60:	30 e0       	ldi	r19, 0x00	; 0
     e62:	c2 16       	cp	r12, r18
     e64:	d3 06       	cpc	r13, r19
     e66:	31 f0       	breq	.+12     	; 0xe74 <mem_chk+0xe4>
     e68:	01 15       	cp	r16, r1
     e6a:	11 05       	cpc	r17, r1
     e6c:	19 f4       	brne	.+6      	; 0xe74 <mem_chk+0xe4>
     e6e:	b4 e0       	ldi	r27, 0x04	; 4
     e70:	bb 2e       	mov	r11, r27
     e72:	01 c0       	rjmp	.+2      	; 0xe76 <mem_chk+0xe6>
     e74:	b1 2c       	mov	r11, r1
     e76:	e2 16       	cp	r14, r18
     e78:	f3 06       	cpc	r15, r19
     e7a:	19 f0       	breq	.+6      	; 0xe82 <mem_chk+0xf2>
     e7c:	01 2b       	or	r16, r17
     e7e:	09 f0       	breq	.+2      	; 0xe82 <mem_chk+0xf2>
     e80:	5c c0       	rjmp	.+184    	; 0xf3a <mem_chk+0x1aa>
     e82:	bb 20       	and	r11, r11
     e84:	49 f1       	breq	.+82     	; 0xed8 <mem_chk+0x148>
     e86:	a1 10       	cpse	r10, r1
     e88:	03 c0       	rjmp	.+6      	; 0xe90 <mem_chk+0x100>
     e8a:	88 e7       	ldi	r24, 0x78	; 120
     e8c:	94 e0       	ldi	r25, 0x04	; 4
     e8e:	02 c0       	rjmp	.+4      	; 0xe94 <mem_chk+0x104>
     e90:	8b e8       	ldi	r24, 0x8B	; 139
     e92:	94 e0       	ldi	r25, 0x04	; 4
     e94:	0e 94 a6 08 	call	0x114c	; 0x114c <uart_puts>
     e98:	8d 2f       	mov	r24, r29
     e9a:	0e 94 63 08 	call	0x10c6	; 0x10c6 <uart_puthex>
     e9e:	8c 2f       	mov	r24, r28
     ea0:	0e 94 63 08 	call	0x10c6	; 0x10c6 <uart_puthex>
     ea4:	8a e2       	ldi	r24, 0x2A	; 42
     ea6:	91 e0       	ldi	r25, 0x01	; 1
     ea8:	0e 94 a6 08 	call	0x114c	; 0x114c <uart_puts>
     eac:	a1 10       	cpse	r10, r1
     eae:	02 c0       	rjmp	.+4      	; 0xeb4 <mem_chk+0x124>
     eb0:	8b 2d       	mov	r24, r11
     eb2:	01 c0       	rjmp	.+2      	; 0xeb6 <mem_chk+0x126>
     eb4:	89 2d       	mov	r24, r9
     eb6:	0e 94 63 08 	call	0x10c6	; 0x10c6 <uart_puthex>
     eba:	8d e2       	ldi	r24, 0x2D	; 45
     ebc:	91 e0       	ldi	r25, 0x01	; 1
     ebe:	df 91       	pop	r29
     ec0:	cf 91       	pop	r28
     ec2:	1f 91       	pop	r17
     ec4:	0f 91       	pop	r16
     ec6:	ff 90       	pop	r15
     ec8:	ef 90       	pop	r14
     eca:	df 90       	pop	r13
     ecc:	cf 90       	pop	r12
     ece:	bf 90       	pop	r11
     ed0:	af 90       	pop	r10
     ed2:	9f 90       	pop	r9
     ed4:	0c 94 b2 08 	jmp	0x1164	; 0x1164 <uart_putsln>
     ed8:	ce 01       	movw	r24, r28
     eda:	9f 70       	andi	r25, 0x0F	; 15
     edc:	8f 3f       	cpi	r24, 0xFF	; 255
     ede:	9f 40       	sbci	r25, 0x0F	; 15
     ee0:	d9 f4       	brne	.+54     	; 0xf18 <mem_chk+0x188>
     ee2:	a1 10       	cpse	r10, r1
     ee4:	03 c0       	rjmp	.+6      	; 0xeec <mem_chk+0x15c>
     ee6:	80 ea       	ldi	r24, 0xA0	; 160
     ee8:	94 e0       	ldi	r25, 0x04	; 4
     eea:	02 c0       	rjmp	.+4      	; 0xef0 <mem_chk+0x160>
     eec:	84 eb       	ldi	r24, 0xB4	; 180
     eee:	94 e0       	ldi	r25, 0x04	; 4
     ef0:	0e 94 a6 08 	call	0x114c	; 0x114c <uart_puts>
     ef4:	65 e0       	ldi	r22, 0x05	; 5
     ef6:	70 e0       	ldi	r23, 0x00	; 0
     ef8:	ce 01       	movw	r24, r28
     efa:	0e 94 6e 08 	call	0x10dc	; 0x10dc <uart_putnum_u16>
     efe:	8a ec       	ldi	r24, 0xCA	; 202
     f00:	94 e0       	ldi	r25, 0x04	; 4
     f02:	0e 94 a6 08 	call	0x114c	; 0x114c <uart_puts>
     f06:	cf 3f       	cpi	r28, 0xFF	; 255
     f08:	8f ef       	ldi	r24, 0xFF	; 255
     f0a:	d8 07       	cpc	r29, r24
     f0c:	29 f4       	brne	.+10     	; 0xf18 <mem_chk+0x188>
     f0e:	a3 94       	inc	r10
     f10:	86 e5       	ldi	r24, 0x56	; 86
     f12:	95 e0       	ldi	r25, 0x05	; 5
     f14:	0e 94 a6 08 	call	0x114c	; 0x114c <uart_puts>
     f18:	21 96       	adiw	r28, 0x01	; 1
     f1a:	21 e0       	ldi	r18, 0x01	; 1
     f1c:	2a 15       	cp	r18, r10
     f1e:	08 f0       	brcs	.+2      	; 0xf22 <mem_chk+0x192>
     f20:	45 cf       	rjmp	.-374    	; 0xdac <mem_chk+0x1c>
     f22:	df 91       	pop	r29
     f24:	cf 91       	pop	r28
     f26:	1f 91       	pop	r17
     f28:	0f 91       	pop	r16
     f2a:	ff 90       	pop	r15
     f2c:	ef 90       	pop	r14
     f2e:	df 90       	pop	r13
     f30:	cf 90       	pop	r12
     f32:	bf 90       	pop	r11
     f34:	af 90       	pop	r10
     f36:	9f 90       	pop	r9
     f38:	08 95       	ret
     f3a:	a4 e0       	ldi	r26, 0x04	; 4
     f3c:	ba 2e       	mov	r11, r26
     f3e:	a3 cf       	rjmp	.-186    	; 0xe86 <mem_chk+0xf6>

00000f40 <machine_boot>:
     f40:	cf 93       	push	r28
     f42:	df 93       	push	r29
     f44:	cd b7       	in	r28, 0x3d	; 61
     f46:	de b7       	in	r29, 0x3e	; 62
     f48:	cd 50       	subi	r28, 0x0D	; 13
     f4a:	cd bf       	out	0x3d, r28	; 61
     f4c:	82 ed       	ldi	r24, 0xD2	; 210
     f4e:	94 e0       	ldi	r25, 0x04	; 4
     f50:	0e 94 a6 08 	call	0x114c	; 0x114c <uart_puts>
     f54:	0e 94 b8 08 	call	0x1170	; 0x1170 <uart_init>
     f58:	89 ee       	ldi	r24, 0xE9	; 233
     f5a:	94 e0       	ldi	r25, 0x04	; 4
     f5c:	0e 94 a6 08 	call	0x114c	; 0x114c <uart_puts>
     f60:	0e 94 34 09 	call	0x1268	; 0x1268 <sram_init>
     f64:	8f ee       	ldi	r24, 0xEF	; 239
     f66:	94 e0       	ldi	r25, 0x04	; 4
     f68:	0e 94 a6 08 	call	0x114c	; 0x114c <uart_puts>
     f6c:	0e 94 46 0a 	call	0x148c	; 0x148c <sdcard_init>
     f70:	85 ef       	ldi	r24, 0xF5	; 245
     f72:	94 e0       	ldi	r25, 0x04	; 4
     f74:	0e 94 a6 08 	call	0x114c	; 0x114c <uart_puts>
     f78:	8d ef       	ldi	r24, 0xFD	; 253
     f7a:	94 e0       	ldi	r25, 0x04	; 4
     f7c:	0e 94 b2 08 	call	0x1164	; 0x1164 <uart_putsln>
     f80:	0e 94 c8 06 	call	0xd90	; 0xd90 <mem_chk>
     f84:	0e 94 57 0a 	call	0x14ae	; 0x14ae <sdcard_open>
     f88:	18 2f       	mov	r17, r24
     f8a:	87 fd       	sbrc	r24, 7
     f8c:	03 c0       	rjmp	.+6      	; 0xf94 <machine_boot+0x54>
     f8e:	87 e1       	ldi	r24, 0x17	; 23
     f90:	95 e0       	ldi	r25, 0x05	; 5
     f92:	0a c0       	rjmp	.+20     	; 0xfa8 <machine_boot+0x68>
     f94:	8f e1       	ldi	r24, 0x1F	; 31
     f96:	95 e0       	ldi	r25, 0x05	; 5
     f98:	0e 94 a6 08 	call	0x114c	; 0x114c <uart_puts>
     f9c:	81 2f       	mov	r24, r17
     f9e:	81 95       	neg	r24
     fa0:	0e 94 63 08 	call	0x10c6	; 0x10c6 <uart_puthex>
     fa4:	8d e2       	ldi	r24, 0x2D	; 45
     fa6:	91 e0       	ldi	r25, 0x01	; 1
     fa8:	0e 94 b2 08 	call	0x1164	; 0x1164 <uart_putsln>
     fac:	0e 94 8e 0c 	call	0x191c	; 0x191c <fat_init>
     fb0:	18 2f       	mov	r17, r24
     fb2:	89 e2       	ldi	r24, 0x29	; 41
     fb4:	95 e0       	ldi	r25, 0x05	; 5
     fb6:	17 fd       	sbrc	r17, 7
     fb8:	1b c0       	rjmp	.+54     	; 0xff0 <machine_boot+0xb0>
     fba:	0e 94 a6 08 	call	0x114c	; 0x114c <uart_puts>
     fbe:	81 2f       	mov	r24, r17
     fc0:	8d 7f       	andi	r24, 0xFD	; 253
     fc2:	84 30       	cpi	r24, 0x04	; 4
     fc4:	19 f4       	brne	.+6      	; 0xfcc <machine_boot+0x8c>
     fc6:	8f e2       	ldi	r24, 0x2F	; 47
     fc8:	95 e0       	ldi	r25, 0x05	; 5
     fca:	04 c0       	rjmp	.+8      	; 0xfd4 <machine_boot+0x94>
     fcc:	1b 30       	cpi	r17, 0x0B	; 11
     fce:	29 f4       	brne	.+10     	; 0xfda <machine_boot+0x9a>
     fd0:	85 e3       	ldi	r24, 0x35	; 53
     fd2:	95 e0       	ldi	r25, 0x05	; 5
     fd4:	0e 94 a6 08 	call	0x114c	; 0x114c <uart_puts>
     fd8:	03 c0       	rjmp	.+6      	; 0xfe0 <machine_boot+0xa0>
     fda:	81 2f       	mov	r24, r17
     fdc:	0e 94 63 08 	call	0x10c6	; 0x10c6 <uart_puthex>
     fe0:	87 e5       	ldi	r24, 0x57	; 87
     fe2:	95 e0       	ldi	r25, 0x05	; 5
     fe4:	0e 94 b2 08 	call	0x1164	; 0x1164 <uart_putsln>
     fe8:	81 e0       	ldi	r24, 0x01	; 1
     fea:	80 93 73 05 	sts	0x0573, r24
     fee:	0c c0       	rjmp	.+24     	; 0x1008 <machine_boot+0xc8>
     ff0:	0e 94 a6 08 	call	0x114c	; 0x114c <uart_puts>
     ff4:	81 2f       	mov	r24, r17
     ff6:	81 95       	neg	r24
     ff8:	0e 94 63 08 	call	0x10c6	; 0x10c6 <uart_puthex>
     ffc:	87 e5       	ldi	r24, 0x57	; 87
     ffe:	95 e0       	ldi	r25, 0x05	; 5
    1000:	0e 94 b2 08 	call	0x1164	; 0x1164 <uart_putsln>
    1004:	10 92 73 05 	sts	0x0573, r1
    1008:	86 e7       	ldi	r24, 0x76	; 118
    100a:	99 e0       	ldi	r25, 0x09	; 9
    100c:	90 93 6b 05 	sts	0x056B, r25
    1010:	80 93 6a 05 	sts	0x056A, r24
    1014:	8c e8       	ldi	r24, 0x8C	; 140
    1016:	99 e0       	ldi	r25, 0x09	; 9
    1018:	90 93 6d 05 	sts	0x056D, r25
    101c:	80 93 6c 05 	sts	0x056C, r24
    1020:	87 e6       	ldi	r24, 0x67	; 103
    1022:	91 e0       	ldi	r25, 0x01	; 1
    1024:	90 93 6f 05 	sts	0x056F, r25
    1028:	80 93 6e 05 	sts	0x056E, r24
    102c:	87 e8       	ldi	r24, 0x87	; 135
    102e:	91 e0       	ldi	r25, 0x01	; 1
    1030:	90 93 71 05 	sts	0x0571, r25
    1034:	80 93 70 05 	sts	0x0570, r24
    1038:	80 e0       	ldi	r24, 0x00	; 0
    103a:	90 e0       	ldi	r25, 0x00	; 0
    103c:	0e 94 7a 0e 	call	0x1cf4	; 0x1cf4 <eeprom_read>
    1040:	88 38       	cpi	r24, 0x88	; 136
    1042:	b1 f0       	breq	.+44     	; 0x1070 <machine_boot+0x130>
    1044:	8b e3       	ldi	r24, 0x3B	; 59
    1046:	95 e0       	ldi	r25, 0x05	; 5
    1048:	0e 94 b2 08 	call	0x1164	; 0x1164 <uart_putsln>
    104c:	00 e0       	ldi	r16, 0x00	; 0
    104e:	10 e0       	ldi	r17, 0x00	; 0
    1050:	60 e0       	ldi	r22, 0x00	; 0
    1052:	c8 01       	movw	r24, r16
    1054:	0e 94 72 0e 	call	0x1ce4	; 0x1ce4 <eeprom_write>
    1058:	0f 5f       	subi	r16, 0xFF	; 255
    105a:	1f 4f       	sbci	r17, 0xFF	; 255
    105c:	01 15       	cp	r16, r1
    105e:	81 e0       	ldi	r24, 0x01	; 1
    1060:	18 07       	cpc	r17, r24
    1062:	b1 f7       	brne	.-20     	; 0x1050 <machine_boot+0x110>
    1064:	68 e8       	ldi	r22, 0x88	; 136
    1066:	80 e0       	ldi	r24, 0x00	; 0
    1068:	90 e0       	ldi	r25, 0x00	; 0
    106a:	0e 94 72 0e 	call	0x1ce4	; 0x1ce4 <eeprom_write>
    106e:	21 c0       	rjmp	.+66     	; 0x10b2 <machine_boot+0x172>
    1070:	88 e4       	ldi	r24, 0x48	; 72
    1072:	95 e0       	ldi	r25, 0x05	; 5
    1074:	0e 94 b2 08 	call	0x1164	; 0x1164 <uart_putsln>
    1078:	80 e1       	ldi	r24, 0x10	; 16
    107a:	90 e0       	ldi	r25, 0x00	; 0
    107c:	0e 94 7a 0e 	call	0x1cf4	; 0x1cf4 <eeprom_read>
    1080:	88 38       	cpi	r24, 0x88	; 136
    1082:	79 f4       	brne	.+30     	; 0x10a2 <machine_boot+0x162>
    1084:	be 01       	movw	r22, r28
    1086:	6f 5f       	subi	r22, 0xFF	; 255
    1088:	7f 4f       	sbci	r23, 0xFF	; 255
    108a:	81 e1       	ldi	r24, 0x11	; 17
    108c:	90 e0       	ldi	r25, 0x00	; 0
    108e:	0e 94 5d 0e 	call	0x1cba	; 0x1cba <eeprom_read_string>
    1092:	80 91 73 05 	lds	r24, 0x0573
    1096:	88 23       	and	r24, r24
    1098:	21 f0       	breq	.+8      	; 0x10a2 <machine_boot+0x162>
    109a:	ce 01       	movw	r24, r28
    109c:	01 96       	adiw	r24, 0x01	; 1
    109e:	0e 94 74 03 	call	0x6e8	; 0x6e8 <mount>
    10a2:	88 e0       	ldi	r24, 0x08	; 8
    10a4:	90 e0       	ldi	r25, 0x00	; 0
    10a6:	0e 94 7a 0e 	call	0x1cf4	; 0x1cf4 <eeprom_read>
    10aa:	88 38       	cpi	r24, 0x88	; 136
    10ac:	11 f4       	brne	.+4      	; 0x10b2 <machine_boot+0x172>
    10ae:	0e 94 66 02 	call	0x4cc	; 0x4cc <boot>
    10b2:	0e 94 c9 03 	call	0x792	; 0x792 <prompt>
    10b6:	fd cf       	rjmp	.-6      	; 0x10b2 <machine_boot+0x172>

000010b8 <put_halfhex>:
    10b8:	8a 30       	cpi	r24, 0x0A	; 10
    10ba:	10 f4       	brcc	.+4      	; 0x10c0 <put_halfhex+0x8>
    10bc:	80 5d       	subi	r24, 0xD0	; 208
    10be:	01 c0       	rjmp	.+2      	; 0x10c2 <put_halfhex+0xa>
    10c0:	89 5c       	subi	r24, 0xC9	; 201
    10c2:	0c 94 02 09 	jmp	0x1204	; 0x1204 <uart_putchar>

000010c6 <uart_puthex>:
    10c6:	cf 93       	push	r28
    10c8:	c8 2f       	mov	r28, r24
    10ca:	82 95       	swap	r24
    10cc:	8f 70       	andi	r24, 0x0F	; 15
    10ce:	0e 94 5c 08 	call	0x10b8	; 0x10b8 <put_halfhex>
    10d2:	8c 2f       	mov	r24, r28
    10d4:	8f 70       	andi	r24, 0x0F	; 15
    10d6:	cf 91       	pop	r28
    10d8:	0c 94 5c 08 	jmp	0x10b8	; 0x10b8 <put_halfhex>

000010dc <uart_putnum_u16>:
    10dc:	ef 92       	push	r14
    10de:	ff 92       	push	r15
    10e0:	0f 93       	push	r16
    10e2:	1f 93       	push	r17
    10e4:	cf 93       	push	r28
    10e6:	df 93       	push	r29
    10e8:	8c 01       	movw	r16, r24
    10ea:	16 16       	cp	r1, r22
    10ec:	17 06       	cpc	r1, r23
    10ee:	8c f4       	brge	.+34     	; 0x1112 <uart_putnum_u16+0x36>
    10f0:	20 e0       	ldi	r18, 0x00	; 0
    10f2:	30 e0       	ldi	r19, 0x00	; 0
    10f4:	c1 e0       	ldi	r28, 0x01	; 1
    10f6:	d0 e0       	ldi	r29, 0x00	; 0
    10f8:	8a e0       	ldi	r24, 0x0A	; 10
    10fa:	2f 5f       	subi	r18, 0xFF	; 255
    10fc:	3f 4f       	sbci	r19, 0xFF	; 255
    10fe:	26 17       	cp	r18, r22
    1100:	37 07       	cpc	r19, r23
    1102:	49 f0       	breq	.+18     	; 0x1116 <uart_putnum_u16+0x3a>
    1104:	ae 01       	movw	r20, r28
    1106:	84 9f       	mul	r24, r20
    1108:	e0 01       	movw	r28, r0
    110a:	85 9f       	mul	r24, r21
    110c:	d0 0d       	add	r29, r0
    110e:	11 24       	eor	r1, r1
    1110:	f4 cf       	rjmp	.-24     	; 0x10fa <uart_putnum_u16+0x1e>
    1112:	c0 e1       	ldi	r28, 0x10	; 16
    1114:	d7 e2       	ldi	r29, 0x27	; 39
    1116:	8a e0       	ldi	r24, 0x0A	; 10
    1118:	e8 2e       	mov	r14, r24
    111a:	f1 2c       	mov	r15, r1
    111c:	c8 01       	movw	r24, r16
    111e:	be 01       	movw	r22, r28
    1120:	0e 94 57 1a 	call	0x34ae	; 0x34ae <__udivmodhi4>
    1124:	26 2f       	mov	r18, r22
    1126:	8c 01       	movw	r16, r24
    1128:	ce 01       	movw	r24, r28
    112a:	b7 01       	movw	r22, r14
    112c:	0e 94 57 1a 	call	0x34ae	; 0x34ae <__udivmodhi4>
    1130:	eb 01       	movw	r28, r22
    1132:	80 e3       	ldi	r24, 0x30	; 48
    1134:	82 0f       	add	r24, r18
    1136:	0e 94 02 09 	call	0x1204	; 0x1204 <uart_putchar>
    113a:	20 97       	sbiw	r28, 0x00	; 0
    113c:	79 f7       	brne	.-34     	; 0x111c <uart_putnum_u16+0x40>
    113e:	df 91       	pop	r29
    1140:	cf 91       	pop	r28
    1142:	1f 91       	pop	r17
    1144:	0f 91       	pop	r16
    1146:	ff 90       	pop	r15
    1148:	ef 90       	pop	r14
    114a:	08 95       	ret

0000114c <uart_puts>:
    114c:	cf 93       	push	r28
    114e:	df 93       	push	r29
    1150:	ec 01       	movw	r28, r24
    1152:	89 91       	ld	r24, Y+
    1154:	88 23       	and	r24, r24
    1156:	19 f0       	breq	.+6      	; 0x115e <uart_puts+0x12>
    1158:	0e 94 02 09 	call	0x1204	; 0x1204 <uart_putchar>
    115c:	fa cf       	rjmp	.-12     	; 0x1152 <uart_puts+0x6>
    115e:	df 91       	pop	r29
    1160:	cf 91       	pop	r28
    1162:	08 95       	ret

00001164 <uart_putsln>:
    1164:	0e 94 a6 08 	call	0x114c	; 0x114c <uart_puts>
    1168:	85 e5       	ldi	r24, 0x55	; 85
    116a:	95 e0       	ldi	r25, 0x05	; 5
    116c:	0c 94 a6 08 	jmp	0x114c	; 0x114c <uart_puts>

00001170 <uart_init>:
    1170:	f8 94       	cli
    1172:	83 e3       	ldi	r24, 0x33	; 51
    1174:	90 e0       	ldi	r25, 0x00	; 0
    1176:	90 93 c5 00 	sts	0x00C5, r25
    117a:	80 93 c4 00 	sts	0x00C4, r24
    117e:	e1 ec       	ldi	r30, 0xC1	; 193
    1180:	f0 e0       	ldi	r31, 0x00	; 0
    1182:	88 e1       	ldi	r24, 0x18	; 24
    1184:	80 83       	st	Z, r24
    1186:	86 e0       	ldi	r24, 0x06	; 6
    1188:	80 93 c2 00 	sts	0x00C2, r24
    118c:	80 81       	ld	r24, Z
    118e:	80 68       	ori	r24, 0x80	; 128
    1190:	80 83       	st	Z, r24
    1192:	78 94       	sei
    1194:	08 95       	ret

00001196 <uart_tx>:
    1196:	90 91 c0 00 	lds	r25, 0x00C0
    119a:	95 ff       	sbrs	r25, 5
    119c:	fc cf       	rjmp	.-8      	; 0x1196 <uart_tx>
    119e:	80 93 c6 00 	sts	0x00C6, r24
    11a2:	08 95       	ret

000011a4 <uart_rx>:
    11a4:	80 91 c0 00 	lds	r24, 0x00C0
    11a8:	87 ff       	sbrs	r24, 7
    11aa:	fc cf       	rjmp	.-8      	; 0x11a4 <uart_rx>
    11ac:	80 91 c6 00 	lds	r24, 0x00C6
    11b0:	08 95       	ret

000011b2 <__vector_18>:
    11b2:	1f 92       	push	r1
    11b4:	0f 92       	push	r0
    11b6:	0f b6       	in	r0, 0x3f	; 63
    11b8:	0f 92       	push	r0
    11ba:	11 24       	eor	r1, r1
    11bc:	8f 93       	push	r24
    11be:	9f 93       	push	r25
    11c0:	ef 93       	push	r30
    11c2:	ff 93       	push	r31
    11c4:	e0 91 76 05 	lds	r30, 0x0576
    11c8:	81 e0       	ldi	r24, 0x01	; 1
    11ca:	8e 0f       	add	r24, r30
    11cc:	80 93 76 05 	sts	0x0576, r24
    11d0:	90 91 c6 00 	lds	r25, 0x00C6
    11d4:	f0 e0       	ldi	r31, 0x00	; 0
    11d6:	e9 58       	subi	r30, 0x89	; 137
    11d8:	fa 4f       	sbci	r31, 0xFA	; 250
    11da:	90 83       	st	Z, r25
    11dc:	8f 70       	andi	r24, 0x0F	; 15
    11de:	80 93 76 05 	sts	0x0576, r24
    11e2:	90 91 75 05 	lds	r25, 0x0575
    11e6:	89 13       	cpse	r24, r25
    11e8:	04 c0       	rjmp	.+8      	; 0x11f2 <__vector_18+0x40>
    11ea:	8f 5f       	subi	r24, 0xFF	; 255
    11ec:	8f 70       	andi	r24, 0x0F	; 15
    11ee:	80 93 75 05 	sts	0x0575, r24
    11f2:	ff 91       	pop	r31
    11f4:	ef 91       	pop	r30
    11f6:	9f 91       	pop	r25
    11f8:	8f 91       	pop	r24
    11fa:	0f 90       	pop	r0
    11fc:	0f be       	out	0x3f, r0	; 63
    11fe:	0f 90       	pop	r0
    1200:	1f 90       	pop	r1
    1202:	18 95       	reti

00001204 <uart_putchar>:
    1204:	0c 94 cb 08 	jmp	0x1196	; 0x1196 <uart_tx>

00001208 <uart_getchar>:
    1208:	90 91 75 05 	lds	r25, 0x0575
    120c:	80 91 76 05 	lds	r24, 0x0576
    1210:	98 17       	cp	r25, r24
    1212:	69 f0       	breq	.+26     	; 0x122e <uart_getchar+0x26>
    1214:	e9 2f       	mov	r30, r25
    1216:	f0 e0       	ldi	r31, 0x00	; 0
    1218:	e9 58       	subi	r30, 0x89	; 137
    121a:	fa 4f       	sbci	r31, 0xFA	; 250
    121c:	80 81       	ld	r24, Z
    121e:	9f 5f       	subi	r25, 0xFF	; 255
    1220:	9f 70       	andi	r25, 0x0F	; 15
    1222:	90 93 75 05 	sts	0x0575, r25
    1226:	99 27       	eor	r25, r25
    1228:	87 fd       	sbrc	r24, 7
    122a:	90 95       	com	r25
    122c:	08 95       	ret
    122e:	8f ef       	ldi	r24, 0xFF	; 255
    1230:	9f ef       	ldi	r25, 0xFF	; 255
    1232:	08 95       	ret

00001234 <uart_peek>:
    1234:	e0 91 75 05 	lds	r30, 0x0575
    1238:	80 91 76 05 	lds	r24, 0x0576
    123c:	8e 17       	cp	r24, r30
    123e:	31 f0       	breq	.+12     	; 0x124c <uart_peek+0x18>
    1240:	f0 e0       	ldi	r31, 0x00	; 0
    1242:	e9 58       	subi	r30, 0x89	; 137
    1244:	fa 4f       	sbci	r31, 0xFA	; 250
    1246:	80 81       	ld	r24, Z
    1248:	90 e0       	ldi	r25, 0x00	; 0
    124a:	08 95       	ret
    124c:	8f ef       	ldi	r24, 0xFF	; 255
    124e:	9f ef       	ldi	r25, 0xFF	; 255
    1250:	08 95       	ret

00001252 <uart_available>:
    1252:	80 91 76 05 	lds	r24, 0x0576
    1256:	90 e0       	ldi	r25, 0x00	; 0
    1258:	40 96       	adiw	r24, 0x10	; 16
    125a:	20 91 75 05 	lds	r18, 0x0575
    125e:	82 1b       	sub	r24, r18
    1260:	91 09       	sbc	r25, r1
    1262:	8f 70       	andi	r24, 0x0F	; 15
    1264:	99 27       	eor	r25, r25
    1266:	08 95       	ret

00001268 <sram_init>:
    1268:	87 b1       	in	r24, 0x07	; 7
    126a:	8f 60       	ori	r24, 0x0F	; 15
    126c:	87 b9       	out	0x07, r24	; 7
    126e:	8a b1       	in	r24, 0x0a	; 10
    1270:	80 6f       	ori	r24, 0xF0	; 240
    1272:	8a b9       	out	0x0a, r24	; 10
    1274:	84 b1       	in	r24, 0x04	; 4
    1276:	83 60       	ori	r24, 0x03	; 3
    1278:	84 b9       	out	0x04, r24	; 4
    127a:	85 b1       	in	r24, 0x05	; 5
    127c:	83 60       	ori	r24, 0x03	; 3
    127e:	85 b9       	out	0x05, r24	; 5
    1280:	8a b1       	in	r24, 0x0a	; 10
    1282:	8c 60       	ori	r24, 0x0C	; 12
    1284:	8a b9       	out	0x0a, r24	; 10
    1286:	8b b1       	in	r24, 0x0b	; 11
    1288:	8c 60       	ori	r24, 0x0C	; 12
    128a:	8b b9       	out	0x0b, r24	; 11
    128c:	08 95       	ret

0000128e <addr_out>:
    128e:	27 b1       	in	r18, 0x07	; 7
    1290:	2f 60       	ori	r18, 0x0F	; 15
    1292:	27 b9       	out	0x07, r18	; 7
    1294:	2a b1       	in	r18, 0x0a	; 10
    1296:	20 6f       	ori	r18, 0xF0	; 240
    1298:	2a b9       	out	0x0a, r18	; 10
    129a:	28 b1       	in	r18, 0x08	; 8
    129c:	20 7f       	andi	r18, 0xF0	; 240
    129e:	28 b9       	out	0x08, r18	; 8
    12a0:	2b b1       	in	r18, 0x0b	; 11
    12a2:	2f 70       	andi	r18, 0x0F	; 15
    12a4:	2b b9       	out	0x0b, r18	; 11
    12a6:	38 b1       	in	r19, 0x08	; 8
    12a8:	26 2f       	mov	r18, r22
    12aa:	2f 70       	andi	r18, 0x0F	; 15
    12ac:	23 2b       	or	r18, r19
    12ae:	28 b9       	out	0x08, r18	; 8
    12b0:	3b b1       	in	r19, 0x0b	; 11
    12b2:	26 2f       	mov	r18, r22
    12b4:	20 7f       	andi	r18, 0xF0	; 240
    12b6:	23 2b       	or	r18, r19
    12b8:	2b b9       	out	0x0b, r18	; 11
    12ba:	5a 98       	cbi	0x0b, 2	; 11
    12bc:	5a 9a       	sbi	0x0b, 2	; 11
    12be:	28 b1       	in	r18, 0x08	; 8
    12c0:	20 7f       	andi	r18, 0xF0	; 240
    12c2:	28 b9       	out	0x08, r18	; 8
    12c4:	2b b1       	in	r18, 0x0b	; 11
    12c6:	2f 70       	andi	r18, 0x0F	; 15
    12c8:	2b b9       	out	0x0b, r18	; 11
    12ca:	38 b1       	in	r19, 0x08	; 8
    12cc:	bb 27       	eor	r27, r27
    12ce:	a9 2f       	mov	r26, r25
    12d0:	98 2f       	mov	r25, r24
    12d2:	87 2f       	mov	r24, r23
    12d4:	28 2f       	mov	r18, r24
    12d6:	2f 70       	andi	r18, 0x0F	; 15
    12d8:	23 2b       	or	r18, r19
    12da:	28 b9       	out	0x08, r18	; 8
    12dc:	2b b1       	in	r18, 0x0b	; 11
    12de:	68 2f       	mov	r22, r24
    12e0:	60 7f       	andi	r22, 0xF0	; 240
    12e2:	62 2b       	or	r22, r18
    12e4:	6b b9       	out	0x0b, r22	; 11
    12e6:	5b 98       	cbi	0x0b, 3	; 11
    12e8:	5b 9a       	sbi	0x0b, 3	; 11
    12ea:	08 95       	ret

000012ec <sram_read>:
    12ec:	bc 01       	movw	r22, r24
    12ee:	80 e0       	ldi	r24, 0x00	; 0
    12f0:	90 e0       	ldi	r25, 0x00	; 0
    12f2:	0e 94 47 09 	call	0x128e	; 0x128e <addr_out>
    12f6:	87 b1       	in	r24, 0x07	; 7
    12f8:	80 7f       	andi	r24, 0xF0	; 240
    12fa:	87 b9       	out	0x07, r24	; 7
    12fc:	8a b1       	in	r24, 0x0a	; 10
    12fe:	8f 70       	andi	r24, 0x0F	; 15
    1300:	8a b9       	out	0x0a, r24	; 10
    1302:	28 98       	cbi	0x05, 0	; 5
    1304:	00 00       	nop
    1306:	86 b1       	in	r24, 0x06	; 6
    1308:	99 b1       	in	r25, 0x09	; 9
    130a:	25 b1       	in	r18, 0x05	; 5
    130c:	2e 6f       	ori	r18, 0xFE	; 254
    130e:	25 b9       	out	0x05, r18	; 5
    1310:	90 7f       	andi	r25, 0xF0	; 240
    1312:	8f 70       	andi	r24, 0x0F	; 15
    1314:	89 2b       	or	r24, r25
    1316:	08 95       	ret

00001318 <sram_write>:
    1318:	cf 93       	push	r28
    131a:	c6 2f       	mov	r28, r22
    131c:	bc 01       	movw	r22, r24
    131e:	80 e0       	ldi	r24, 0x00	; 0
    1320:	90 e0       	ldi	r25, 0x00	; 0
    1322:	0e 94 47 09 	call	0x128e	; 0x128e <addr_out>
    1326:	88 b1       	in	r24, 0x08	; 8
    1328:	80 7f       	andi	r24, 0xF0	; 240
    132a:	88 b9       	out	0x08, r24	; 8
    132c:	8b b1       	in	r24, 0x0b	; 11
    132e:	8f 70       	andi	r24, 0x0F	; 15
    1330:	8b b9       	out	0x0b, r24	; 11
    1332:	98 b1       	in	r25, 0x08	; 8
    1334:	8c 2f       	mov	r24, r28
    1336:	8f 70       	andi	r24, 0x0F	; 15
    1338:	89 2b       	or	r24, r25
    133a:	88 b9       	out	0x08, r24	; 8
    133c:	8b b1       	in	r24, 0x0b	; 11
    133e:	6c 2f       	mov	r22, r28
    1340:	60 7f       	andi	r22, 0xF0	; 240
    1342:	68 2b       	or	r22, r24
    1344:	6b b9       	out	0x0b, r22	; 11
    1346:	29 98       	cbi	0x05, 1	; 5
    1348:	29 9a       	sbi	0x05, 1	; 5
    134a:	cf 91       	pop	r28
    134c:	08 95       	ret

0000134e <sdcard_read>:
    134e:	cf 93       	push	r28
    1350:	df 93       	push	r29
    1352:	ec 01       	movw	r28, r24
    1354:	0e 94 65 0b 	call	0x16ca	; 0x16ca <sdcard_buffer>
    1358:	c8 0f       	add	r28, r24
    135a:	d9 1f       	adc	r29, r25
    135c:	88 81       	ld	r24, Y
    135e:	df 91       	pop	r29
    1360:	cf 91       	pop	r28
    1362:	08 95       	ret

00001364 <sdcard_write>:
    1364:	0f 93       	push	r16
    1366:	1f 93       	push	r17
    1368:	cf 93       	push	r28
    136a:	df 93       	push	r29
    136c:	1f 92       	push	r1
    136e:	cd b7       	in	r28, 0x3d	; 61
    1370:	de b7       	in	r29, 0x3e	; 62
    1372:	8c 01       	movw	r16, r24
    1374:	69 83       	std	Y+1, r22	; 0x01
    1376:	0e 94 65 0b 	call	0x16ca	; 0x16ca <sdcard_buffer>
    137a:	80 0f       	add	r24, r16
    137c:	91 1f       	adc	r25, r17
    137e:	69 81       	ldd	r22, Y+1	; 0x01
    1380:	fc 01       	movw	r30, r24
    1382:	60 83       	st	Z, r22
    1384:	0f 90       	pop	r0
    1386:	df 91       	pop	r29
    1388:	cf 91       	pop	r28
    138a:	1f 91       	pop	r17
    138c:	0f 91       	pop	r16
    138e:	08 95       	ret

00001390 <sd_out>:
    1390:	27 e0       	ldi	r18, 0x07	; 7
    1392:	30 e0       	ldi	r19, 0x00	; 0
    1394:	99 27       	eor	r25, r25
    1396:	87 fd       	sbrc	r24, 7
    1398:	90 95       	com	r25
    139a:	ac 01       	movw	r20, r24
    139c:	02 2e       	mov	r0, r18
    139e:	02 c0       	rjmp	.+4      	; 0x13a4 <sd_out+0x14>
    13a0:	55 95       	asr	r21
    13a2:	47 95       	ror	r20
    13a4:	0a 94       	dec	r0
    13a6:	e2 f7       	brpl	.-8      	; 0x13a0 <sd_out+0x10>
    13a8:	40 fd       	sbrc	r20, 0
    13aa:	02 c0       	rjmp	.+4      	; 0x13b0 <sd_out+0x20>
    13ac:	50 e0       	ldi	r21, 0x00	; 0
    13ae:	01 c0       	rjmp	.+2      	; 0x13b2 <sd_out+0x22>
    13b0:	58 e0       	ldi	r21, 0x08	; 8
    13b2:	48 b1       	in	r20, 0x08	; 8
    13b4:	43 7f       	andi	r20, 0xF3	; 243
    13b6:	45 2b       	or	r20, r21
    13b8:	48 b9       	out	0x08, r20	; 8
    13ba:	42 9a       	sbi	0x08, 2	; 8
    13bc:	21 50       	subi	r18, 0x01	; 1
    13be:	31 09       	sbc	r19, r1
    13c0:	60 f7       	brcc	.-40     	; 0x139a <sd_out+0xa>
    13c2:	08 95       	ret

000013c4 <sd_busy>:
    13c4:	20 e0       	ldi	r18, 0x00	; 0
    13c6:	30 e0       	ldi	r19, 0x00	; 0
    13c8:	42 98       	cbi	0x08, 2	; 8
    13ca:	96 b1       	in	r25, 0x06	; 6
    13cc:	42 9a       	sbi	0x08, 2	; 8
    13ce:	98 27       	eor	r25, r24
    13d0:	94 ff       	sbrs	r25, 4
    13d2:	09 c0       	rjmp	.+18     	; 0x13e6 <sd_busy+0x22>
    13d4:	2f 5f       	subi	r18, 0xFF	; 255
    13d6:	3f 4f       	sbci	r19, 0xFF	; 255
    13d8:	2f 3f       	cpi	r18, 0xFF	; 255
    13da:	9f ef       	ldi	r25, 0xFF	; 255
    13dc:	39 07       	cpc	r19, r25
    13de:	a1 f7       	brne	.-24     	; 0x13c8 <sd_busy+0x4>
    13e0:	8f ef       	ldi	r24, 0xFF	; 255
    13e2:	9f ef       	ldi	r25, 0xFF	; 255
    13e4:	08 95       	ret
    13e6:	80 e0       	ldi	r24, 0x00	; 0
    13e8:	90 e0       	ldi	r25, 0x00	; 0
    13ea:	08 95       	ret

000013ec <sd_in>:
    13ec:	20 e0       	ldi	r18, 0x00	; 0
    13ee:	30 e0       	ldi	r19, 0x00	; 0
    13f0:	40 e0       	ldi	r20, 0x00	; 0
    13f2:	50 e0       	ldi	r21, 0x00	; 0
    13f4:	99 27       	eor	r25, r25
    13f6:	87 fd       	sbrc	r24, 7
    13f8:	90 95       	com	r25
    13fa:	48 17       	cp	r20, r24
    13fc:	59 07       	cpc	r21, r25
    13fe:	54 f4       	brge	.+20     	; 0x1414 <sd_in+0x28>
    1400:	42 98       	cbi	0x08, 2	; 8
    1402:	66 b1       	in	r22, 0x06	; 6
    1404:	42 9a       	sbi	0x08, 2	; 8
    1406:	22 0f       	add	r18, r18
    1408:	33 1f       	adc	r19, r19
    140a:	64 fd       	sbrc	r22, 4
    140c:	21 60       	ori	r18, 0x01	; 1
    140e:	4f 5f       	subi	r20, 0xFF	; 255
    1410:	5f 4f       	sbci	r21, 0xFF	; 255
    1412:	f3 cf       	rjmp	.-26     	; 0x13fa <sd_in+0xe>
    1414:	82 2f       	mov	r24, r18
    1416:	08 95       	ret

00001418 <sd_cmd>:
    1418:	ef 92       	push	r14
    141a:	0f 93       	push	r16
    141c:	cf 93       	push	r28
    141e:	df 93       	push	r29
    1420:	cd b7       	in	r28, 0x3d	; 61
    1422:	de b7       	in	r29, 0x3e	; 62
    1424:	c3 50       	subi	r28, 0x03	; 3
    1426:	cd bf       	out	0x3d, r28	; 61
    1428:	98 b1       	in	r25, 0x08	; 8
    142a:	93 7d       	andi	r25, 0xD3	; 211
    142c:	9c 60       	ori	r25, 0x0C	; 12
    142e:	98 b9       	out	0x08, r25	; 8
    1430:	2b 83       	std	Y+3, r18	; 0x03
    1432:	4a 83       	std	Y+2, r20	; 0x02
    1434:	69 83       	std	Y+1, r22	; 0x01
    1436:	0e 94 c8 09 	call	0x1390	; 0x1390 <sd_out>
    143a:	69 81       	ldd	r22, Y+1	; 0x01
    143c:	86 2f       	mov	r24, r22
    143e:	0e 94 c8 09 	call	0x1390	; 0x1390 <sd_out>
    1442:	4a 81       	ldd	r20, Y+2	; 0x02
    1444:	84 2f       	mov	r24, r20
    1446:	0e 94 c8 09 	call	0x1390	; 0x1390 <sd_out>
    144a:	2b 81       	ldd	r18, Y+3	; 0x03
    144c:	82 2f       	mov	r24, r18
    144e:	0e 94 c8 09 	call	0x1390	; 0x1390 <sd_out>
    1452:	80 2f       	mov	r24, r16
    1454:	0e 94 c8 09 	call	0x1390	; 0x1390 <sd_out>
    1458:	8e 2d       	mov	r24, r14
    145a:	0e 94 c8 09 	call	0x1390	; 0x1390 <sd_out>
    145e:	43 9a       	sbi	0x08, 3	; 8
    1460:	80 e0       	ldi	r24, 0x00	; 0
    1462:	0e 94 e2 09 	call	0x13c4	; 0x13c4 <sd_busy>
    1466:	97 fd       	sbrc	r25, 7
    1468:	09 c0       	rjmp	.+18     	; 0x147c <sd_cmd+0x64>
    146a:	87 e0       	ldi	r24, 0x07	; 7
    146c:	cd 5f       	subi	r28, 0xFD	; 253
    146e:	cd bf       	out	0x3d, r28	; 61
    1470:	df 91       	pop	r29
    1472:	cf 91       	pop	r28
    1474:	0f 91       	pop	r16
    1476:	ef 90       	pop	r14
    1478:	0c 94 f6 09 	jmp	0x13ec	; 0x13ec <sd_in>
    147c:	8f ef       	ldi	r24, 0xFF	; 255
    147e:	cd 5f       	subi	r28, 0xFD	; 253
    1480:	cd bf       	out	0x3d, r28	; 61
    1482:	df 91       	pop	r29
    1484:	cf 91       	pop	r28
    1486:	0f 91       	pop	r16
    1488:	ef 90       	pop	r14
    148a:	08 95       	ret

0000148c <sdcard_init>:
    148c:	3c 98       	cbi	0x07, 4	; 7
    148e:	87 b1       	in	r24, 0x07	; 7
    1490:	8c 62       	ori	r24, 0x2C	; 44
    1492:	87 b9       	out	0x07, r24	; 7
    1494:	88 b1       	in	r24, 0x08	; 8
    1496:	83 7d       	andi	r24, 0xD3	; 211
    1498:	88 b9       	out	0x08, r24	; 8
    149a:	44 9a       	sbi	0x08, 4	; 8
    149c:	10 92 87 05 	sts	0x0587, r1
    14a0:	10 92 88 05 	sts	0x0588, r1
    14a4:	10 92 89 05 	sts	0x0589, r1
    14a8:	10 92 8a 05 	sts	0x058A, r1
    14ac:	08 95       	ret

000014ae <sdcard_open>:
    14ae:	ef 92       	push	r14
    14b0:	0f 93       	push	r16
    14b2:	cf 93       	push	r28
    14b4:	df 93       	push	r29
    14b6:	88 b1       	in	r24, 0x08	; 8
    14b8:	88 62       	ori	r24, 0x28	; 40
    14ba:	88 b9       	out	0x08, r24	; 8
    14bc:	80 e5       	ldi	r24, 0x50	; 80
    14be:	90 e0       	ldi	r25, 0x00	; 0
    14c0:	42 98       	cbi	0x08, 2	; 8
    14c2:	42 9a       	sbi	0x08, 2	; 8
    14c4:	01 97       	sbiw	r24, 0x01	; 1
    14c6:	00 97       	sbiw	r24, 0x00	; 0
    14c8:	d9 f7       	brne	.-10     	; 0x14c0 <sdcard_open+0x12>
    14ca:	e5 e9       	ldi	r30, 0x95	; 149
    14cc:	ee 2e       	mov	r14, r30
    14ce:	00 e0       	ldi	r16, 0x00	; 0
    14d0:	20 e0       	ldi	r18, 0x00	; 0
    14d2:	40 e0       	ldi	r20, 0x00	; 0
    14d4:	60 e0       	ldi	r22, 0x00	; 0
    14d6:	80 e4       	ldi	r24, 0x40	; 64
    14d8:	0e 94 0c 0a 	call	0x1418	; 0x1418 <sd_cmd>
    14dc:	81 30       	cpi	r24, 0x01	; 1
    14de:	a1 f4       	brne	.+40     	; 0x1508 <sdcard_open+0x5a>
    14e0:	cf ef       	ldi	r28, 0xFF	; 255
    14e2:	df ef       	ldi	r29, 0xFF	; 255
    14e4:	e1 2c       	mov	r14, r1
    14e6:	00 e0       	ldi	r16, 0x00	; 0
    14e8:	20 e0       	ldi	r18, 0x00	; 0
    14ea:	40 e0       	ldi	r20, 0x00	; 0
    14ec:	60 e0       	ldi	r22, 0x00	; 0
    14ee:	81 e4       	ldi	r24, 0x41	; 65
    14f0:	0e 94 0c 0a 	call	0x1418	; 0x1418 <sd_cmd>
    14f4:	88 23       	and	r24, r24
    14f6:	71 f0       	breq	.+28     	; 0x1514 <sdcard_open+0x66>
    14f8:	8f 3f       	cpi	r24, 0xFF	; 255
    14fa:	49 f0       	breq	.+18     	; 0x150e <sdcard_open+0x60>
    14fc:	21 97       	sbiw	r28, 0x01	; 1
    14fe:	20 97       	sbiw	r28, 0x00	; 0
    1500:	89 f7       	brne	.-30     	; 0x14e4 <sdcard_open+0x36>
    1502:	8d ef       	ldi	r24, 0xFD	; 253
    1504:	9f ef       	ldi	r25, 0xFF	; 255
    1506:	09 c0       	rjmp	.+18     	; 0x151a <sdcard_open+0x6c>
    1508:	8f ef       	ldi	r24, 0xFF	; 255
    150a:	9f ef       	ldi	r25, 0xFF	; 255
    150c:	06 c0       	rjmp	.+12     	; 0x151a <sdcard_open+0x6c>
    150e:	8e ef       	ldi	r24, 0xFE	; 254
    1510:	9f ef       	ldi	r25, 0xFF	; 255
    1512:	03 c0       	rjmp	.+6      	; 0x151a <sdcard_open+0x6c>
    1514:	42 98       	cbi	0x08, 2	; 8
    1516:	80 e0       	ldi	r24, 0x00	; 0
    1518:	90 e0       	ldi	r25, 0x00	; 0
    151a:	df 91       	pop	r29
    151c:	cf 91       	pop	r28
    151e:	0f 91       	pop	r16
    1520:	ef 90       	pop	r14
    1522:	08 95       	ret

00001524 <sdcard_fetch>:
    1524:	4f 92       	push	r4
    1526:	5f 92       	push	r5
    1528:	6f 92       	push	r6
    152a:	7f 92       	push	r7
    152c:	8f 92       	push	r8
    152e:	9f 92       	push	r9
    1530:	af 92       	push	r10
    1532:	bf 92       	push	r11
    1534:	ef 92       	push	r14
    1536:	0f 93       	push	r16
    1538:	cf 93       	push	r28
    153a:	df 93       	push	r29
    153c:	4b 01       	movw	r8, r22
    153e:	5c 01       	movw	r10, r24
    1540:	27 2f       	mov	r18, r23
    1542:	38 2f       	mov	r19, r24
    1544:	49 2f       	mov	r20, r25
    1546:	55 27       	eor	r21, r21
    1548:	2c 01       	movw	r4, r24
    154a:	66 24       	eor	r6, r6
    154c:	77 24       	eor	r7, r7
    154e:	69 2f       	mov	r22, r25
    1550:	77 27       	eor	r23, r23
    1552:	88 27       	eor	r24, r24
    1554:	99 27       	eor	r25, r25
    1556:	e1 2c       	mov	r14, r1
    1558:	08 2d       	mov	r16, r8
    155a:	44 2d       	mov	r20, r4
    155c:	81 e5       	ldi	r24, 0x51	; 81
    155e:	0e 94 0c 0a 	call	0x1418	; 0x1418 <sd_cmd>
    1562:	81 11       	cpse	r24, r1
    1564:	30 c0       	rjmp	.+96     	; 0x15c6 <sdcard_fetch+0xa2>
    1566:	0e 94 e2 09 	call	0x13c4	; 0x13c4 <sd_busy>
    156a:	97 fd       	sbrc	r25, 7
    156c:	2f c0       	rjmp	.+94     	; 0x15cc <sdcard_fetch+0xa8>
    156e:	cb e8       	ldi	r28, 0x8B	; 139
    1570:	d5 e0       	ldi	r29, 0x05	; 5
    1572:	88 e0       	ldi	r24, 0x08	; 8
    1574:	0e 94 f6 09 	call	0x13ec	; 0x13ec <sd_in>
    1578:	89 93       	st	Y+, r24
    157a:	87 e0       	ldi	r24, 0x07	; 7
    157c:	cb 38       	cpi	r28, 0x8B	; 139
    157e:	d8 07       	cpc	r29, r24
    1580:	c1 f7       	brne	.-16     	; 0x1572 <sdcard_fetch+0x4e>
    1582:	88 e0       	ldi	r24, 0x08	; 8
    1584:	0e 94 f6 09 	call	0x13ec	; 0x13ec <sd_in>
    1588:	c8 2f       	mov	r28, r24
    158a:	88 e0       	ldi	r24, 0x08	; 8
    158c:	0e 94 f6 09 	call	0x13ec	; 0x13ec <sd_in>
    1590:	2c 2f       	mov	r18, r28
    1592:	33 27       	eor	r19, r19
    1594:	27 fd       	sbrc	r18, 7
    1596:	30 95       	com	r19
    1598:	32 2f       	mov	r19, r18
    159a:	22 27       	eor	r18, r18
    159c:	99 27       	eor	r25, r25
    159e:	87 fd       	sbrc	r24, 7
    15a0:	90 95       	com	r25
    15a2:	28 2b       	or	r18, r24
    15a4:	39 2b       	or	r19, r25
    15a6:	30 93 02 01 	sts	0x0102, r19
    15aa:	20 93 01 01 	sts	0x0101, r18
    15ae:	42 98       	cbi	0x08, 2	; 8
    15b0:	80 92 87 05 	sts	0x0587, r8
    15b4:	90 92 88 05 	sts	0x0588, r9
    15b8:	a0 92 89 05 	sts	0x0589, r10
    15bc:	b0 92 8a 05 	sts	0x058A, r11
    15c0:	80 e0       	ldi	r24, 0x00	; 0
    15c2:	90 e0       	ldi	r25, 0x00	; 0
    15c4:	05 c0       	rjmp	.+10     	; 0x15d0 <sdcard_fetch+0xac>
    15c6:	8f ef       	ldi	r24, 0xFF	; 255
    15c8:	9f ef       	ldi	r25, 0xFF	; 255
    15ca:	02 c0       	rjmp	.+4      	; 0x15d0 <sdcard_fetch+0xac>
    15cc:	8e ef       	ldi	r24, 0xFE	; 254
    15ce:	9f ef       	ldi	r25, 0xFF	; 255
    15d0:	df 91       	pop	r29
    15d2:	cf 91       	pop	r28
    15d4:	0f 91       	pop	r16
    15d6:	ef 90       	pop	r14
    15d8:	bf 90       	pop	r11
    15da:	af 90       	pop	r10
    15dc:	9f 90       	pop	r9
    15de:	8f 90       	pop	r8
    15e0:	7f 90       	pop	r7
    15e2:	6f 90       	pop	r6
    15e4:	5f 90       	pop	r5
    15e6:	4f 90       	pop	r4
    15e8:	08 95       	ret

000015ea <sdcard_store>:
    15ea:	4f 92       	push	r4
    15ec:	5f 92       	push	r5
    15ee:	6f 92       	push	r6
    15f0:	7f 92       	push	r7
    15f2:	8f 92       	push	r8
    15f4:	9f 92       	push	r9
    15f6:	af 92       	push	r10
    15f8:	bf 92       	push	r11
    15fa:	ef 92       	push	r14
    15fc:	0f 93       	push	r16
    15fe:	1f 93       	push	r17
    1600:	cf 93       	push	r28
    1602:	df 93       	push	r29
    1604:	8b 01       	movw	r16, r22
    1606:	9c 01       	movw	r18, r24
    1608:	47 2e       	mov	r4, r23
    160a:	58 2e       	mov	r5, r24
    160c:	69 2e       	mov	r6, r25
    160e:	77 24       	eor	r7, r7
    1610:	49 01       	movw	r8, r18
    1612:	aa 24       	eor	r10, r10
    1614:	bb 24       	eor	r11, r11
    1616:	63 2f       	mov	r22, r19
    1618:	77 27       	eor	r23, r23
    161a:	88 27       	eor	r24, r24
    161c:	99 27       	eor	r25, r25
    161e:	e1 2c       	mov	r14, r1
    1620:	24 2d       	mov	r18, r4
    1622:	48 2d       	mov	r20, r8
    1624:	88 e5       	ldi	r24, 0x58	; 88
    1626:	0e 94 0c 0a 	call	0x1418	; 0x1418 <sd_cmd>
    162a:	81 11       	cpse	r24, r1
    162c:	29 c0       	rjmp	.+82     	; 0x1680 <sdcard_store+0x96>
    162e:	8f ef       	ldi	r24, 0xFF	; 255
    1630:	0e 94 c8 09 	call	0x1390	; 0x1390 <sd_out>
    1634:	8e ef       	ldi	r24, 0xFE	; 254
    1636:	0e 94 c8 09 	call	0x1390	; 0x1390 <sd_out>
    163a:	cb e8       	ldi	r28, 0x8B	; 139
    163c:	d5 e0       	ldi	r29, 0x05	; 5
    163e:	89 91       	ld	r24, Y+
    1640:	0e 94 c8 09 	call	0x1390	; 0x1390 <sd_out>
    1644:	87 e0       	ldi	r24, 0x07	; 7
    1646:	cb 38       	cpi	r28, 0x8B	; 139
    1648:	d8 07       	cpc	r29, r24
    164a:	c9 f7       	brne	.-14     	; 0x163e <sdcard_store+0x54>
    164c:	8f ef       	ldi	r24, 0xFF	; 255
    164e:	0e 94 c8 09 	call	0x1390	; 0x1390 <sd_out>
    1652:	8f ef       	ldi	r24, 0xFF	; 255
    1654:	0e 94 c8 09 	call	0x1390	; 0x1390 <sd_out>
    1658:	80 e0       	ldi	r24, 0x00	; 0
    165a:	0e 94 e2 09 	call	0x13c4	; 0x13c4 <sd_busy>
    165e:	97 fd       	sbrc	r25, 7
    1660:	12 c0       	rjmp	.+36     	; 0x1686 <sdcard_store+0x9c>
    1662:	84 e0       	ldi	r24, 0x04	; 4
    1664:	0e 94 f6 09 	call	0x13ec	; 0x13ec <sd_in>
    1668:	c8 2f       	mov	r28, r24
    166a:	8f ef       	ldi	r24, 0xFF	; 255
    166c:	0e 94 e2 09 	call	0x13c4	; 0x13c4 <sd_busy>
    1670:	97 fd       	sbrc	r25, 7
    1672:	0c c0       	rjmp	.+24     	; 0x168c <sdcard_store+0xa2>
    1674:	42 98       	cbi	0x08, 2	; 8
    1676:	8c 2f       	mov	r24, r28
    1678:	99 27       	eor	r25, r25
    167a:	87 fd       	sbrc	r24, 7
    167c:	90 95       	com	r25
    167e:	08 c0       	rjmp	.+16     	; 0x1690 <sdcard_store+0xa6>
    1680:	8f ef       	ldi	r24, 0xFF	; 255
    1682:	9f ef       	ldi	r25, 0xFF	; 255
    1684:	05 c0       	rjmp	.+10     	; 0x1690 <sdcard_store+0xa6>
    1686:	8d ef       	ldi	r24, 0xFD	; 253
    1688:	9f ef       	ldi	r25, 0xFF	; 255
    168a:	02 c0       	rjmp	.+4      	; 0x1690 <sdcard_store+0xa6>
    168c:	8c ef       	ldi	r24, 0xFC	; 252
    168e:	9f ef       	ldi	r25, 0xFF	; 255
    1690:	df 91       	pop	r29
    1692:	cf 91       	pop	r28
    1694:	1f 91       	pop	r17
    1696:	0f 91       	pop	r16
    1698:	ef 90       	pop	r14
    169a:	bf 90       	pop	r11
    169c:	af 90       	pop	r10
    169e:	9f 90       	pop	r9
    16a0:	8f 90       	pop	r8
    16a2:	7f 90       	pop	r7
    16a4:	6f 90       	pop	r6
    16a6:	5f 90       	pop	r5
    16a8:	4f 90       	pop	r4
    16aa:	08 95       	ret

000016ac <sdcard_crc>:
    16ac:	80 91 01 01 	lds	r24, 0x0101
    16b0:	90 91 02 01 	lds	r25, 0x0102
    16b4:	08 95       	ret

000016b6 <sdcard_flush>:
    16b6:	60 91 87 05 	lds	r22, 0x0587
    16ba:	70 91 88 05 	lds	r23, 0x0588
    16be:	80 91 89 05 	lds	r24, 0x0589
    16c2:	90 91 8a 05 	lds	r25, 0x058A
    16c6:	0c 94 f5 0a 	jmp	0x15ea	; 0x15ea <sdcard_store>

000016ca <sdcard_buffer>:
    16ca:	8b e8       	ldi	r24, 0x8B	; 139
    16cc:	95 e0       	ldi	r25, 0x05	; 5
    16ce:	08 95       	ret

000016d0 <read4>:
    16d0:	ff 92       	push	r15
    16d2:	0f 93       	push	r16
    16d4:	1f 93       	push	r17
    16d6:	cf 93       	push	r28
    16d8:	df 93       	push	r29
    16da:	ec 01       	movw	r28, r24
    16dc:	03 96       	adiw	r24, 0x03	; 3
    16de:	0e 94 a7 09 	call	0x134e	; 0x134e <sdcard_read>
    16e2:	08 2f       	mov	r16, r24
    16e4:	ce 01       	movw	r24, r28
    16e6:	02 96       	adiw	r24, 0x02	; 2
    16e8:	0e 94 a7 09 	call	0x134e	; 0x134e <sdcard_read>
    16ec:	f8 2e       	mov	r15, r24
    16ee:	ce 01       	movw	r24, r28
    16f0:	01 96       	adiw	r24, 0x01	; 1
    16f2:	0e 94 a7 09 	call	0x134e	; 0x134e <sdcard_read>
    16f6:	18 2f       	mov	r17, r24
    16f8:	ce 01       	movw	r24, r28
    16fa:	0e 94 a7 09 	call	0x134e	; 0x134e <sdcard_read>
    16fe:	4f 2d       	mov	r20, r15
    1700:	50 e0       	ldi	r21, 0x00	; 0
    1702:	60 e0       	ldi	r22, 0x00	; 0
    1704:	70 e0       	ldi	r23, 0x00	; 0
    1706:	ba 01       	movw	r22, r20
    1708:	55 27       	eor	r21, r21
    170a:	44 27       	eor	r20, r20
    170c:	70 2b       	or	r23, r16
    170e:	48 2b       	or	r20, r24
    1710:	81 2f       	mov	r24, r17
    1712:	90 e0       	ldi	r25, 0x00	; 0
    1714:	98 2f       	mov	r25, r24
    1716:	88 27       	eor	r24, r24
    1718:	aa 27       	eor	r26, r26
    171a:	97 fd       	sbrc	r25, 7
    171c:	a0 95       	com	r26
    171e:	ba 2f       	mov	r27, r26
    1720:	48 2b       	or	r20, r24
    1722:	59 2b       	or	r21, r25
    1724:	6a 2b       	or	r22, r26
    1726:	7b 2b       	or	r23, r27
    1728:	cb 01       	movw	r24, r22
    172a:	ba 01       	movw	r22, r20
    172c:	df 91       	pop	r29
    172e:	cf 91       	pop	r28
    1730:	1f 91       	pop	r17
    1732:	0f 91       	pop	r16
    1734:	ff 90       	pop	r15
    1736:	08 95       	ret

00001738 <read2>:
    1738:	1f 93       	push	r17
    173a:	cf 93       	push	r28
    173c:	df 93       	push	r29
    173e:	ec 01       	movw	r28, r24
    1740:	01 96       	adiw	r24, 0x01	; 1
    1742:	0e 94 a7 09 	call	0x134e	; 0x134e <sdcard_read>
    1746:	18 2f       	mov	r17, r24
    1748:	ce 01       	movw	r24, r28
    174a:	0e 94 a7 09 	call	0x134e	; 0x134e <sdcard_read>
    174e:	21 2f       	mov	r18, r17
    1750:	30 e0       	ldi	r19, 0x00	; 0
    1752:	32 2f       	mov	r19, r18
    1754:	22 27       	eor	r18, r18
    1756:	a9 01       	movw	r20, r18
    1758:	48 2b       	or	r20, r24
    175a:	ca 01       	movw	r24, r20
    175c:	df 91       	pop	r29
    175e:	cf 91       	pop	r28
    1760:	1f 91       	pop	r17
    1762:	08 95       	ret

00001764 <fetch_cluster>:
    1764:	8f 92       	push	r8
    1766:	9f 92       	push	r9
    1768:	af 92       	push	r10
    176a:	bf 92       	push	r11
    176c:	cf 92       	push	r12
    176e:	df 92       	push	r13
    1770:	ef 92       	push	r14
    1772:	ff 92       	push	r15
    1774:	4a 01       	movw	r8, r20
    1776:	5b 01       	movw	r10, r22
    1778:	20 91 03 01 	lds	r18, 0x0103
    177c:	30 91 04 01 	lds	r19, 0x0104
    1780:	82 17       	cp	r24, r18
    1782:	93 07       	cpc	r25, r19
    1784:	a9 f4       	brne	.+42     	; 0x17b0 <fetch_cluster+0x4c>
    1786:	40 91 8b 07 	lds	r20, 0x078B
    178a:	50 91 8c 07 	lds	r21, 0x078C
    178e:	60 91 8d 07 	lds	r22, 0x078D
    1792:	70 91 8e 07 	lds	r23, 0x078E
    1796:	48 25       	eor	r20, r8
    1798:	59 25       	eor	r21, r9
    179a:	6a 25       	eor	r22, r10
    179c:	7b 25       	eor	r23, r11
    179e:	44 27       	eor	r20, r20
    17a0:	5e 7f       	andi	r21, 0xFE	; 254
    17a2:	66 27       	eor	r22, r22
    17a4:	77 27       	eor	r23, r23
    17a6:	45 2b       	or	r20, r21
    17a8:	46 2b       	or	r20, r22
    17aa:	47 2b       	or	r20, r23
    17ac:	09 f4       	brne	.+2      	; 0x17b0 <fetch_cluster+0x4c>
    17ae:	a5 c0       	rjmp	.+330    	; 0x18fa <fetch_cluster+0x196>
    17b0:	90 93 04 01 	sts	0x0104, r25
    17b4:	80 93 03 01 	sts	0x0103, r24
    17b8:	80 92 8b 07 	sts	0x078B, r8
    17bc:	90 92 8c 07 	sts	0x078C, r9
    17c0:	a0 92 8d 07 	sts	0x078D, r10
    17c4:	b0 92 8e 07 	sts	0x078E, r11
    17c8:	00 97       	sbiw	r24, 0x00	; 0
    17ca:	09 f0       	breq	.+2      	; 0x17ce <fetch_cluster+0x6a>
    17cc:	51 c0       	rjmp	.+162    	; 0x1870 <fetch_cluster+0x10c>
    17ce:	75 01       	movw	r14, r10
    17d0:	64 01       	movw	r12, r8
    17d2:	b9 e0       	ldi	r27, 0x09	; 9
    17d4:	f6 94       	lsr	r15
    17d6:	e7 94       	ror	r14
    17d8:	d7 94       	ror	r13
    17da:	c7 94       	ror	r12
    17dc:	ba 95       	dec	r27
    17de:	d1 f7       	brne	.-12     	; 0x17d4 <fetch_cluster+0x70>
    17e0:	80 91 9f 07 	lds	r24, 0x079F
    17e4:	90 91 a0 07 	lds	r25, 0x07A0
    17e8:	a0 91 a1 07 	lds	r26, 0x07A1
    17ec:	b0 91 a2 07 	lds	r27, 0x07A2
    17f0:	c8 0e       	add	r12, r24
    17f2:	d9 1e       	adc	r13, r25
    17f4:	ea 1e       	adc	r14, r26
    17f6:	fb 1e       	adc	r15, r27
    17f8:	6d c0       	rjmp	.+218    	; 0x18d4 <fetch_cluster+0x170>
    17fa:	88 0f       	add	r24, r24
    17fc:	99 1f       	adc	r25, r25
    17fe:	c0 90 a3 07 	lds	r12, 0x07A3
    1802:	d0 90 a4 07 	lds	r13, 0x07A4
    1806:	e0 90 a5 07 	lds	r14, 0x07A5
    180a:	f0 90 a6 07 	lds	r15, 0x07A6
    180e:	2f ef       	ldi	r18, 0xFF	; 255
    1810:	c2 1a       	sub	r12, r18
    1812:	d2 0a       	sbc	r13, r18
    1814:	e2 0a       	sbc	r14, r18
    1816:	f2 0a       	sbc	r15, r18
    1818:	a9 e0       	ldi	r26, 0x09	; 9
    181a:	cc 0c       	add	r12, r12
    181c:	dd 1c       	adc	r13, r13
    181e:	ee 1c       	adc	r14, r14
    1820:	ff 1c       	adc	r15, r15
    1822:	aa 95       	dec	r26
    1824:	d1 f7       	brne	.-12     	; 0x181a <fetch_cluster+0xb6>
    1826:	c8 0e       	add	r12, r24
    1828:	d9 1e       	adc	r13, r25
    182a:	e1 1c       	adc	r14, r1
    182c:	f1 1c       	adc	r15, r1
    182e:	c7 01       	movw	r24, r14
    1830:	b6 01       	movw	r22, r12
    1832:	66 27       	eor	r22, r22
    1834:	7e 7f       	andi	r23, 0xFE	; 254
    1836:	0e 94 92 0a 	call	0x1524	; 0x1524 <sdcard_fetch>
    183a:	97 fd       	sbrc	r25, 7
    183c:	61 c0       	rjmp	.+194    	; 0x1900 <fetch_cluster+0x19c>
    183e:	c6 01       	movw	r24, r12
    1840:	91 70       	andi	r25, 0x01	; 1
    1842:	0e 94 9c 0b 	call	0x1738	; 0x1738 <read2>
    1846:	9c 01       	movw	r18, r24
    1848:	22 50       	subi	r18, 0x02	; 2
    184a:	31 09       	sbc	r19, r1
    184c:	25 3f       	cpi	r18, 0xF5	; 245
    184e:	3f 4f       	sbci	r19, 0xFF	; 255
    1850:	08 f0       	brcs	.+2      	; 0x1854 <fetch_cluster+0xf0>
    1852:	59 c0       	rjmp	.+178    	; 0x1906 <fetch_cluster+0x1a2>
    1854:	40 91 a7 07 	lds	r20, 0x07A7
    1858:	50 e0       	ldi	r21, 0x00	; 0
    185a:	54 2f       	mov	r21, r20
    185c:	44 27       	eor	r20, r20
    185e:	55 0f       	add	r21, r21
    1860:	66 27       	eor	r22, r22
    1862:	57 fd       	sbrc	r21, 7
    1864:	60 95       	com	r22
    1866:	76 2f       	mov	r23, r22
    1868:	84 1a       	sub	r8, r20
    186a:	95 0a       	sbc	r9, r21
    186c:	a6 0a       	sbc	r10, r22
    186e:	b7 0a       	sbc	r11, r23
    1870:	a0 91 a7 07 	lds	r26, 0x07A7
    1874:	b0 e0       	ldi	r27, 0x00	; 0
    1876:	ad 01       	movw	r20, r26
    1878:	54 2f       	mov	r21, r20
    187a:	44 27       	eor	r20, r20
    187c:	55 0f       	add	r21, r21
    187e:	66 27       	eor	r22, r22
    1880:	57 fd       	sbrc	r21, 7
    1882:	60 95       	com	r22
    1884:	76 2f       	mov	r23, r22
    1886:	48 15       	cp	r20, r8
    1888:	59 05       	cpc	r21, r9
    188a:	6a 05       	cpc	r22, r10
    188c:	7b 05       	cpc	r23, r11
    188e:	08 f4       	brcc	.+2      	; 0x1892 <fetch_cluster+0x12e>
    1890:	b4 cf       	rjmp	.-152    	; 0x17fa <fetch_cluster+0x96>
    1892:	9c 01       	movw	r18, r24
    1894:	22 50       	subi	r18, 0x02	; 2
    1896:	31 09       	sbc	r19, r1
    1898:	c0 90 9f 07 	lds	r12, 0x079F
    189c:	d0 90 a0 07 	lds	r13, 0x07A0
    18a0:	e0 90 a1 07 	lds	r14, 0x07A1
    18a4:	f0 90 a2 07 	lds	r15, 0x07A2
    18a8:	80 e2       	ldi	r24, 0x20	; 32
    18aa:	c8 0e       	add	r12, r24
    18ac:	d1 1c       	adc	r13, r1
    18ae:	e1 1c       	adc	r14, r1
    18b0:	f1 1c       	adc	r15, r1
    18b2:	69 e0       	ldi	r22, 0x09	; 9
    18b4:	b6 94       	lsr	r11
    18b6:	a7 94       	ror	r10
    18b8:	97 94       	ror	r9
    18ba:	87 94       	ror	r8
    18bc:	6a 95       	dec	r22
    18be:	d1 f7       	brne	.-12     	; 0x18b4 <fetch_cluster+0x150>
    18c0:	c8 0c       	add	r12, r8
    18c2:	d9 1c       	adc	r13, r9
    18c4:	ea 1c       	adc	r14, r10
    18c6:	fb 1c       	adc	r15, r11
    18c8:	0e 94 71 1a 	call	0x34e2	; 0x34e2 <__umulhisi3>
    18cc:	c6 0e       	add	r12, r22
    18ce:	d7 1e       	adc	r13, r23
    18d0:	e8 1e       	adc	r14, r24
    18d2:	f9 1e       	adc	r15, r25
    18d4:	c7 01       	movw	r24, r14
    18d6:	b6 01       	movw	r22, r12
    18d8:	59 e0       	ldi	r21, 0x09	; 9
    18da:	66 0f       	add	r22, r22
    18dc:	77 1f       	adc	r23, r23
    18de:	88 1f       	adc	r24, r24
    18e0:	99 1f       	adc	r25, r25
    18e2:	5a 95       	dec	r21
    18e4:	d1 f7       	brne	.-12     	; 0x18da <fetch_cluster+0x176>
    18e6:	ff 90       	pop	r15
    18e8:	ef 90       	pop	r14
    18ea:	df 90       	pop	r13
    18ec:	cf 90       	pop	r12
    18ee:	bf 90       	pop	r11
    18f0:	af 90       	pop	r10
    18f2:	9f 90       	pop	r9
    18f4:	8f 90       	pop	r8
    18f6:	0c 94 92 0a 	jmp	0x1524	; 0x1524 <sdcard_fetch>
    18fa:	80 e0       	ldi	r24, 0x00	; 0
    18fc:	90 e0       	ldi	r25, 0x00	; 0
    18fe:	05 c0       	rjmp	.+10     	; 0x190a <fetch_cluster+0x1a6>
    1900:	8f ef       	ldi	r24, 0xFF	; 255
    1902:	9f ef       	ldi	r25, 0xFF	; 255
    1904:	02 c0       	rjmp	.+4      	; 0x190a <fetch_cluster+0x1a6>
    1906:	8e ef       	ldi	r24, 0xFE	; 254
    1908:	9f ef       	ldi	r25, 0xFF	; 255
    190a:	ff 90       	pop	r15
    190c:	ef 90       	pop	r14
    190e:	df 90       	pop	r13
    1910:	cf 90       	pop	r12
    1912:	bf 90       	pop	r11
    1914:	af 90       	pop	r10
    1916:	9f 90       	pop	r9
    1918:	8f 90       	pop	r8
    191a:	08 95       	ret

0000191c <fat_init>:
    191c:	ef 92       	push	r14
    191e:	ff 92       	push	r15
    1920:	0f 93       	push	r16
    1922:	1f 93       	push	r17
    1924:	cf 93       	push	r28
    1926:	60 e0       	ldi	r22, 0x00	; 0
    1928:	70 e0       	ldi	r23, 0x00	; 0
    192a:	cb 01       	movw	r24, r22
    192c:	0e 94 92 0a 	call	0x1524	; 0x1524 <sdcard_fetch>
    1930:	97 fd       	sbrc	r25, 7
    1932:	94 c0       	rjmp	.+296    	; 0x1a5c <fat_init+0x140>
    1934:	82 ec       	ldi	r24, 0xC2	; 194
    1936:	91 e0       	ldi	r25, 0x01	; 1
    1938:	0e 94 a7 09 	call	0x134e	; 0x134e <sdcard_read>
    193c:	c8 2f       	mov	r28, r24
    193e:	8e ef       	ldi	r24, 0xFE	; 254
    1940:	91 e0       	ldi	r25, 0x01	; 1
    1942:	0e 94 a7 09 	call	0x134e	; 0x134e <sdcard_read>
    1946:	85 35       	cpi	r24, 0x55	; 85
    1948:	19 f0       	breq	.+6      	; 0x1950 <fat_init+0x34>
    194a:	8e ef       	ldi	r24, 0xFE	; 254
    194c:	9f ef       	ldi	r25, 0xFF	; 255
    194e:	8e c0       	rjmp	.+284    	; 0x1a6c <fat_init+0x150>
    1950:	8f ef       	ldi	r24, 0xFF	; 255
    1952:	91 e0       	ldi	r25, 0x01	; 1
    1954:	0e 94 a7 09 	call	0x134e	; 0x134e <sdcard_read>
    1958:	8a 3a       	cpi	r24, 0xAA	; 170
    195a:	b9 f7       	brne	.-18     	; 0x194a <fat_init+0x2e>
    195c:	8c 2f       	mov	r24, r28
    195e:	8d 7f       	andi	r24, 0xFD	; 253
    1960:	84 30       	cpi	r24, 0x04	; 4
    1962:	39 f0       	breq	.+14     	; 0x1972 <fat_init+0x56>
    1964:	80 eb       	ldi	r24, 0xB0	; 176
    1966:	9f ef       	ldi	r25, 0xFF	; 255
    1968:	8c 1b       	sub	r24, r28
    196a:	91 09       	sbc	r25, r1
    196c:	c7 fd       	sbrc	r28, 7
    196e:	93 95       	inc	r25
    1970:	7d c0       	rjmp	.+250    	; 0x1a6c <fat_init+0x150>
    1972:	86 ec       	ldi	r24, 0xC6	; 198
    1974:	91 e0       	ldi	r25, 0x01	; 1
    1976:	0e 94 68 0b 	call	0x16d0	; 0x16d0 <read4>
    197a:	60 93 a3 07 	sts	0x07A3, r22
    197e:	70 93 a4 07 	sts	0x07A4, r23
    1982:	80 93 a5 07 	sts	0x07A5, r24
    1986:	90 93 a6 07 	sts	0x07A6, r25
    198a:	19 e0       	ldi	r17, 0x09	; 9
    198c:	66 0f       	add	r22, r22
    198e:	77 1f       	adc	r23, r23
    1990:	88 1f       	adc	r24, r24
    1992:	99 1f       	adc	r25, r25
    1994:	1a 95       	dec	r17
    1996:	d1 f7       	brne	.-12     	; 0x198c <fat_init+0x70>
    1998:	0e 94 92 0a 	call	0x1524	; 0x1524 <sdcard_fetch>
    199c:	97 fd       	sbrc	r25, 7
    199e:	61 c0       	rjmp	.+194    	; 0x1a62 <fat_init+0x146>
    19a0:	8e ef       	ldi	r24, 0xFE	; 254
    19a2:	91 e0       	ldi	r25, 0x01	; 1
    19a4:	0e 94 a7 09 	call	0x134e	; 0x134e <sdcard_read>
    19a8:	85 35       	cpi	r24, 0x55	; 85
    19aa:	19 f0       	breq	.+6      	; 0x19b2 <fat_init+0x96>
    19ac:	8c ef       	ldi	r24, 0xFC	; 252
    19ae:	9f ef       	ldi	r25, 0xFF	; 255
    19b0:	5d c0       	rjmp	.+186    	; 0x1a6c <fat_init+0x150>
    19b2:	8f ef       	ldi	r24, 0xFF	; 255
    19b4:	91 e0       	ldi	r25, 0x01	; 1
    19b6:	0e 94 a7 09 	call	0x134e	; 0x134e <sdcard_read>
    19ba:	8a 3a       	cpi	r24, 0xAA	; 170
    19bc:	b9 f7       	brne	.-18     	; 0x19ac <fat_init+0x90>
    19be:	8b e0       	ldi	r24, 0x0B	; 11
    19c0:	90 e0       	ldi	r25, 0x00	; 0
    19c2:	0e 94 9c 0b 	call	0x1738	; 0x1738 <read2>
    19c6:	7c 01       	movw	r14, r24
    19c8:	80 e1       	ldi	r24, 0x10	; 16
    19ca:	90 e0       	ldi	r25, 0x00	; 0
    19cc:	0e 94 a7 09 	call	0x134e	; 0x134e <sdcard_read>
    19d0:	18 2f       	mov	r17, r24
    19d2:	86 e1       	ldi	r24, 0x16	; 22
    19d4:	90 e0       	ldi	r25, 0x00	; 0
    19d6:	0e 94 a7 09 	call	0x134e	; 0x134e <sdcard_read>
    19da:	08 2f       	mov	r16, r24
    19dc:	8d e0       	ldi	r24, 0x0D	; 13
    19de:	90 e0       	ldi	r25, 0x00	; 0
    19e0:	0e 94 a7 09 	call	0x134e	; 0x134e <sdcard_read>
    19e4:	80 93 a7 07 	sts	0x07A7, r24
    19e8:	81 e1       	ldi	r24, 0x11	; 17
    19ea:	90 e0       	ldi	r25, 0x00	; 0
    19ec:	0e 94 9c 0b 	call	0x1738	; 0x1738 <read2>
    19f0:	90 93 9e 07 	sts	0x079E, r25
    19f4:	80 93 9d 07 	sts	0x079D, r24
    19f8:	40 91 a3 07 	lds	r20, 0x07A3
    19fc:	50 91 a4 07 	lds	r21, 0x07A4
    1a00:	60 91 a5 07 	lds	r22, 0x07A5
    1a04:	70 91 a6 07 	lds	r23, 0x07A6
    1a08:	4f 5f       	subi	r20, 0xFF	; 255
    1a0a:	5f 4f       	sbci	r21, 0xFF	; 255
    1a0c:	6f 4f       	sbci	r22, 0xFF	; 255
    1a0e:	7f 4f       	sbci	r23, 0xFF	; 255
    1a10:	01 9f       	mul	r16, r17
    1a12:	80 01       	movw	r16, r0
    1a14:	11 24       	eor	r1, r1
    1a16:	22 27       	eor	r18, r18
    1a18:	17 fd       	sbrc	r17, 7
    1a1a:	20 95       	com	r18
    1a1c:	32 2f       	mov	r19, r18
    1a1e:	40 0f       	add	r20, r16
    1a20:	51 1f       	adc	r21, r17
    1a22:	62 1f       	adc	r22, r18
    1a24:	73 1f       	adc	r23, r19
    1a26:	40 93 9f 07 	sts	0x079F, r20
    1a2a:	50 93 a0 07 	sts	0x07A0, r21
    1a2e:	60 93 a1 07 	sts	0x07A1, r22
    1a32:	70 93 a2 07 	sts	0x07A2, r23
    1a36:	e1 14       	cp	r14, r1
    1a38:	82 e0       	ldi	r24, 0x02	; 2
    1a3a:	f8 06       	cpc	r15, r24
    1a3c:	a9 f4       	brne	.+42     	; 0x1a68 <fat_init+0x14c>
    1a3e:	10 92 9a 07 	sts	0x079A, r1
    1a42:	10 92 99 07 	sts	0x0799, r1
    1a46:	8f ef       	ldi	r24, 0xFF	; 255
    1a48:	9f ef       	ldi	r25, 0xFF	; 255
    1a4a:	90 93 9c 07 	sts	0x079C, r25
    1a4e:	80 93 9b 07 	sts	0x079B, r24
    1a52:	8c 2f       	mov	r24, r28
    1a54:	99 27       	eor	r25, r25
    1a56:	87 fd       	sbrc	r24, 7
    1a58:	90 95       	com	r25
    1a5a:	08 c0       	rjmp	.+16     	; 0x1a6c <fat_init+0x150>
    1a5c:	8f ef       	ldi	r24, 0xFF	; 255
    1a5e:	9f ef       	ldi	r25, 0xFF	; 255
    1a60:	05 c0       	rjmp	.+10     	; 0x1a6c <fat_init+0x150>
    1a62:	8d ef       	ldi	r24, 0xFD	; 253
    1a64:	9f ef       	ldi	r25, 0xFF	; 255
    1a66:	02 c0       	rjmp	.+4      	; 0x1a6c <fat_init+0x150>
    1a68:	8b ef       	ldi	r24, 0xFB	; 251
    1a6a:	9f ef       	ldi	r25, 0xFF	; 255
    1a6c:	cf 91       	pop	r28
    1a6e:	1f 91       	pop	r17
    1a70:	0f 91       	pop	r16
    1a72:	ff 90       	pop	r15
    1a74:	ef 90       	pop	r14
    1a76:	08 95       	ret

00001a78 <fat_rewind>:
    1a78:	8f ef       	ldi	r24, 0xFF	; 255
    1a7a:	9f ef       	ldi	r25, 0xFF	; 255
    1a7c:	90 93 9c 07 	sts	0x079C, r25
    1a80:	80 93 9b 07 	sts	0x079B, r24
    1a84:	08 95       	ret

00001a86 <fat_name>:
    1a86:	df 92       	push	r13
    1a88:	ef 92       	push	r14
    1a8a:	ff 92       	push	r15
    1a8c:	0f 93       	push	r16
    1a8e:	1f 93       	push	r17
    1a90:	cf 93       	push	r28
    1a92:	df 93       	push	r29
    1a94:	ec 01       	movw	r28, r24
    1a96:	e0 90 9b 07 	lds	r14, 0x079B
    1a9a:	f0 90 9c 07 	lds	r15, 0x079C
    1a9e:	8f e0       	ldi	r24, 0x0F	; 15
    1aa0:	e8 22       	and	r14, r24
    1aa2:	ff 24       	eor	r15, r15
    1aa4:	05 e0       	ldi	r16, 0x05	; 5
    1aa6:	ee 0c       	add	r14, r14
    1aa8:	ff 1c       	adc	r15, r15
    1aaa:	0a 95       	dec	r16
    1aac:	e1 f7       	brne	.-8      	; 0x1aa6 <fat_name+0x20>
    1aae:	00 e0       	ldi	r16, 0x00	; 0
    1ab0:	10 e0       	ldi	r17, 0x00	; 0
    1ab2:	8e e2       	ldi	r24, 0x2E	; 46
    1ab4:	d8 2e       	mov	r13, r24
    1ab6:	c8 01       	movw	r24, r16
    1ab8:	8e 0d       	add	r24, r14
    1aba:	9f 1d       	adc	r25, r15
    1abc:	0e 94 a7 09 	call	0x134e	; 0x134e <sdcard_read>
    1ac0:	80 32       	cpi	r24, 0x20	; 32
    1ac2:	39 f0       	breq	.+14     	; 0x1ad2 <fat_name+0x4c>
    1ac4:	08 30       	cpi	r16, 0x08	; 8
    1ac6:	11 05       	cpc	r17, r1
    1ac8:	11 f4       	brne	.+4      	; 0x1ace <fat_name+0x48>
    1aca:	d8 82       	st	Y, r13
    1acc:	21 96       	adiw	r28, 0x01	; 1
    1ace:	88 83       	st	Y, r24
    1ad0:	21 96       	adiw	r28, 0x01	; 1
    1ad2:	0f 5f       	subi	r16, 0xFF	; 255
    1ad4:	1f 4f       	sbci	r17, 0xFF	; 255
    1ad6:	0b 30       	cpi	r16, 0x0B	; 11
    1ad8:	11 05       	cpc	r17, r1
    1ada:	69 f7       	brne	.-38     	; 0x1ab6 <fat_name+0x30>
    1adc:	18 82       	st	Y, r1
    1ade:	df 91       	pop	r29
    1ae0:	cf 91       	pop	r28
    1ae2:	1f 91       	pop	r17
    1ae4:	0f 91       	pop	r16
    1ae6:	ff 90       	pop	r15
    1ae8:	ef 90       	pop	r14
    1aea:	df 90       	pop	r13
    1aec:	08 95       	ret

00001aee <fat_attr>:
    1aee:	80 91 9b 07 	lds	r24, 0x079B
    1af2:	90 91 9c 07 	lds	r25, 0x079C
    1af6:	8f 70       	andi	r24, 0x0F	; 15
    1af8:	99 27       	eor	r25, r25
    1afa:	25 e0       	ldi	r18, 0x05	; 5
    1afc:	88 0f       	add	r24, r24
    1afe:	99 1f       	adc	r25, r25
    1b00:	2a 95       	dec	r18
    1b02:	e1 f7       	brne	.-8      	; 0x1afc <fat_attr+0xe>
    1b04:	0b 96       	adiw	r24, 0x0b	; 11
    1b06:	0c 94 a7 09 	jmp	0x134e	; 0x134e <sdcard_read>

00001b0a <fat_next>:
    1b0a:	cf 93       	push	r28
    1b0c:	df 93       	push	r29
    1b0e:	80 91 9b 07 	lds	r24, 0x079B
    1b12:	90 91 9c 07 	lds	r25, 0x079C
    1b16:	01 96       	adiw	r24, 0x01	; 1
    1b18:	90 93 9c 07 	sts	0x079C, r25
    1b1c:	80 93 9b 07 	sts	0x079B, r24
    1b20:	40 91 9b 07 	lds	r20, 0x079B
    1b24:	50 91 9c 07 	lds	r21, 0x079C
    1b28:	80 91 9d 07 	lds	r24, 0x079D
    1b2c:	90 91 9e 07 	lds	r25, 0x079E
    1b30:	48 17       	cp	r20, r24
    1b32:	59 07       	cpc	r21, r25
    1b34:	38 f5       	brcc	.+78     	; 0x1b84 <fat_next+0x7a>
    1b36:	ea 01       	movw	r28, r20
    1b38:	cf 70       	andi	r28, 0x0F	; 15
    1b3a:	dd 27       	eor	r29, r29
    1b3c:	60 e0       	ldi	r22, 0x00	; 0
    1b3e:	70 e0       	ldi	r23, 0x00	; 0
    1b40:	e5 e0       	ldi	r30, 0x05	; 5
    1b42:	44 0f       	add	r20, r20
    1b44:	55 1f       	adc	r21, r21
    1b46:	66 1f       	adc	r22, r22
    1b48:	77 1f       	adc	r23, r23
    1b4a:	ea 95       	dec	r30
    1b4c:	d1 f7       	brne	.-12     	; 0x1b42 <fat_next+0x38>
    1b4e:	80 91 99 07 	lds	r24, 0x0799
    1b52:	90 91 9a 07 	lds	r25, 0x079A
    1b56:	0e 94 b2 0b 	call	0x1764	; 0x1764 <fetch_cluster>
    1b5a:	97 fd       	sbrc	r25, 7
    1b5c:	16 c0       	rjmp	.+44     	; 0x1b8a <fat_next+0x80>
    1b5e:	ce 01       	movw	r24, r28
    1b60:	35 e0       	ldi	r19, 0x05	; 5
    1b62:	88 0f       	add	r24, r24
    1b64:	99 1f       	adc	r25, r25
    1b66:	3a 95       	dec	r19
    1b68:	e1 f7       	brne	.-8      	; 0x1b62 <fat_next+0x58>
    1b6a:	0e 94 a7 09 	call	0x134e	; 0x134e <sdcard_read>
    1b6e:	18 16       	cp	r1, r24
    1b70:	74 f6       	brge	.-100    	; 0x1b0e <fat_next+0x4>
    1b72:	0e 94 77 0d 	call	0x1aee	; 0x1aee <fat_attr>
    1b76:	8f 30       	cpi	r24, 0x0F	; 15
    1b78:	51 f2       	breq	.-108    	; 0x1b0e <fat_next+0x4>
    1b7a:	80 91 9b 07 	lds	r24, 0x079B
    1b7e:	90 91 9c 07 	lds	r25, 0x079C
    1b82:	05 c0       	rjmp	.+10     	; 0x1b8e <fat_next+0x84>
    1b84:	8f ef       	ldi	r24, 0xFF	; 255
    1b86:	9f ef       	ldi	r25, 0xFF	; 255
    1b88:	02 c0       	rjmp	.+4      	; 0x1b8e <fat_next+0x84>
    1b8a:	8e ef       	ldi	r24, 0xFE	; 254
    1b8c:	9f ef       	ldi	r25, 0xFF	; 255
    1b8e:	df 91       	pop	r29
    1b90:	cf 91       	pop	r28
    1b92:	08 95       	ret

00001b94 <fat_chdir>:
    1b94:	80 91 9b 07 	lds	r24, 0x079B
    1b98:	90 91 9c 07 	lds	r25, 0x079C
    1b9c:	8f 70       	andi	r24, 0x0F	; 15
    1b9e:	99 27       	eor	r25, r25
    1ba0:	f5 e0       	ldi	r31, 0x05	; 5
    1ba2:	88 0f       	add	r24, r24
    1ba4:	99 1f       	adc	r25, r25
    1ba6:	fa 95       	dec	r31
    1ba8:	e1 f7       	brne	.-8      	; 0x1ba2 <fat_chdir+0xe>
    1baa:	4a 96       	adiw	r24, 0x1a	; 26
    1bac:	0e 94 9c 0b 	call	0x1738	; 0x1738 <read2>
    1bb0:	90 93 9a 07 	sts	0x079A, r25
    1bb4:	80 93 99 07 	sts	0x0799, r24
    1bb8:	8f ef       	ldi	r24, 0xFF	; 255
    1bba:	9f ef       	ldi	r25, 0xFF	; 255
    1bbc:	90 93 9c 07 	sts	0x079C, r25
    1bc0:	80 93 9b 07 	sts	0x079B, r24
    1bc4:	80 e0       	ldi	r24, 0x00	; 0
    1bc6:	90 e0       	ldi	r25, 0x00	; 0
    1bc8:	08 95       	ret

00001bca <fat_size>:
    1bca:	80 91 9b 07 	lds	r24, 0x079B
    1bce:	90 91 9c 07 	lds	r25, 0x079C
    1bd2:	8f 70       	andi	r24, 0x0F	; 15
    1bd4:	99 27       	eor	r25, r25
    1bd6:	a5 e0       	ldi	r26, 0x05	; 5
    1bd8:	88 0f       	add	r24, r24
    1bda:	99 1f       	adc	r25, r25
    1bdc:	aa 95       	dec	r26
    1bde:	e1 f7       	brne	.-8      	; 0x1bd8 <fat_size+0xe>
    1be0:	4c 96       	adiw	r24, 0x1c	; 28
    1be2:	0c 94 68 0b 	jmp	0x16d0	; 0x16d0 <read4>

00001be6 <fat_seek>:
    1be6:	0f 93       	push	r16
    1be8:	1f 93       	push	r17
    1bea:	00 91 8f 07 	lds	r16, 0x078F
    1bee:	10 91 90 07 	lds	r17, 0x0790
    1bf2:	20 91 91 07 	lds	r18, 0x0791
    1bf6:	30 91 92 07 	lds	r19, 0x0792
    1bfa:	60 17       	cp	r22, r16
    1bfc:	71 07       	cpc	r23, r17
    1bfe:	82 07       	cpc	r24, r18
    1c00:	93 07       	cpc	r25, r19
    1c02:	58 f4       	brcc	.+22     	; 0x1c1a <fat_seek+0x34>
    1c04:	60 93 93 07 	sts	0x0793, r22
    1c08:	70 93 94 07 	sts	0x0794, r23
    1c0c:	80 93 95 07 	sts	0x0795, r24
    1c10:	90 93 96 07 	sts	0x0796, r25
    1c14:	80 e0       	ldi	r24, 0x00	; 0
    1c16:	90 e0       	ldi	r25, 0x00	; 0
    1c18:	02 c0       	rjmp	.+4      	; 0x1c1e <fat_seek+0x38>
    1c1a:	8f ef       	ldi	r24, 0xFF	; 255
    1c1c:	9f ef       	ldi	r25, 0xFF	; 255
    1c1e:	1f 91       	pop	r17
    1c20:	0f 91       	pop	r16
    1c22:	08 95       	ret

00001c24 <fat_open>:
    1c24:	80 91 9b 07 	lds	r24, 0x079B
    1c28:	90 91 9c 07 	lds	r25, 0x079C
    1c2c:	8f 70       	andi	r24, 0x0F	; 15
    1c2e:	99 27       	eor	r25, r25
    1c30:	b5 e0       	ldi	r27, 0x05	; 5
    1c32:	88 0f       	add	r24, r24
    1c34:	99 1f       	adc	r25, r25
    1c36:	ba 95       	dec	r27
    1c38:	e1 f7       	brne	.-8      	; 0x1c32 <fat_open+0xe>
    1c3a:	4a 96       	adiw	r24, 0x1a	; 26
    1c3c:	0e 94 9c 0b 	call	0x1738	; 0x1738 <read2>
    1c40:	90 93 98 07 	sts	0x0798, r25
    1c44:	80 93 97 07 	sts	0x0797, r24
    1c48:	0e 94 e5 0d 	call	0x1bca	; 0x1bca <fat_size>
    1c4c:	60 93 8f 07 	sts	0x078F, r22
    1c50:	70 93 90 07 	sts	0x0790, r23
    1c54:	80 93 91 07 	sts	0x0791, r24
    1c58:	90 93 92 07 	sts	0x0792, r25
    1c5c:	60 e0       	ldi	r22, 0x00	; 0
    1c5e:	70 e0       	ldi	r23, 0x00	; 0
    1c60:	cb 01       	movw	r24, r22
    1c62:	0c 94 f3 0d 	jmp	0x1be6	; 0x1be6 <fat_seek>

00001c66 <fat_read>:
    1c66:	40 91 93 07 	lds	r20, 0x0793
    1c6a:	50 91 94 07 	lds	r21, 0x0794
    1c6e:	60 91 95 07 	lds	r22, 0x0795
    1c72:	70 91 96 07 	lds	r23, 0x0796
    1c76:	80 91 97 07 	lds	r24, 0x0797
    1c7a:	90 91 98 07 	lds	r25, 0x0798
    1c7e:	0c 94 b2 0b 	jmp	0x1764	; 0x1764 <fetch_cluster>

00001c82 <eeprom_write_string>:
    1c82:	ef 92       	push	r14
    1c84:	ff 92       	push	r15
    1c86:	0f 93       	push	r16
    1c88:	1f 93       	push	r17
    1c8a:	cf 93       	push	r28
    1c8c:	df 93       	push	r29
    1c8e:	eb 01       	movw	r28, r22
    1c90:	7c 01       	movw	r14, r24
    1c92:	e6 1a       	sub	r14, r22
    1c94:	f7 0a       	sbc	r15, r23
    1c96:	8e 01       	movw	r16, r28
    1c98:	c7 01       	movw	r24, r14
    1c9a:	8c 0f       	add	r24, r28
    1c9c:	9d 1f       	adc	r25, r29
    1c9e:	69 91       	ld	r22, Y+
    1ca0:	0e 94 72 0e 	call	0x1ce4	; 0x1ce4 <eeprom_write>
    1ca4:	f8 01       	movw	r30, r16
    1ca6:	80 81       	ld	r24, Z
    1ca8:	81 11       	cpse	r24, r1
    1caa:	f5 cf       	rjmp	.-22     	; 0x1c96 <eeprom_write_string+0x14>
    1cac:	df 91       	pop	r29
    1cae:	cf 91       	pop	r28
    1cb0:	1f 91       	pop	r17
    1cb2:	0f 91       	pop	r16
    1cb4:	ff 90       	pop	r15
    1cb6:	ef 90       	pop	r14
    1cb8:	08 95       	ret

00001cba <eeprom_read_string>:
    1cba:	0f 93       	push	r16
    1cbc:	1f 93       	push	r17
    1cbe:	cf 93       	push	r28
    1cc0:	df 93       	push	r29
    1cc2:	eb 01       	movw	r28, r22
    1cc4:	8c 01       	movw	r16, r24
    1cc6:	06 1b       	sub	r16, r22
    1cc8:	17 0b       	sbc	r17, r23
    1cca:	ce 01       	movw	r24, r28
    1ccc:	80 0f       	add	r24, r16
    1cce:	91 1f       	adc	r25, r17
    1cd0:	0e 94 7a 0e 	call	0x1cf4	; 0x1cf4 <eeprom_read>
    1cd4:	89 93       	st	Y+, r24
    1cd6:	81 11       	cpse	r24, r1
    1cd8:	f8 cf       	rjmp	.-16     	; 0x1cca <eeprom_read_string+0x10>
    1cda:	df 91       	pop	r29
    1cdc:	cf 91       	pop	r28
    1cde:	1f 91       	pop	r17
    1ce0:	0f 91       	pop	r16
    1ce2:	08 95       	ret

00001ce4 <eeprom_write>:
    1ce4:	f9 99       	sbic	0x1f, 1	; 31
    1ce6:	fe cf       	rjmp	.-4      	; 0x1ce4 <eeprom_write>
    1ce8:	92 bd       	out	0x22, r25	; 34
    1cea:	81 bd       	out	0x21, r24	; 33
    1cec:	60 bd       	out	0x20, r22	; 32
    1cee:	fa 9a       	sbi	0x1f, 2	; 31
    1cf0:	f9 9a       	sbi	0x1f, 1	; 31
    1cf2:	08 95       	ret

00001cf4 <eeprom_read>:
    1cf4:	f9 99       	sbic	0x1f, 1	; 31
    1cf6:	fe cf       	rjmp	.-4      	; 0x1cf4 <eeprom_read>
    1cf8:	92 bd       	out	0x22, r25	; 34
    1cfa:	81 bd       	out	0x21, r24	; 33
    1cfc:	f8 9a       	sbi	0x1f, 0	; 31
    1cfe:	80 b5       	in	r24, 0x20	; 32
    1d00:	08 95       	ret

00001d02 <ret>:
    1d02:	1f 93       	push	r17
    1d04:	cf 93       	push	r28
    1d06:	df 93       	push	r29
    1d08:	ec 01       	movw	r28, r24
    1d0a:	ec 85       	ldd	r30, Y+12	; 0x0c
    1d0c:	fd 85       	ldd	r31, Y+13	; 0x0d
    1d0e:	8a 85       	ldd	r24, Y+10	; 0x0a
    1d10:	9b 85       	ldd	r25, Y+11	; 0x0b
    1d12:	9c 01       	movw	r18, r24
    1d14:	2f 5f       	subi	r18, 0xFF	; 255
    1d16:	3f 4f       	sbci	r19, 0xFF	; 255
    1d18:	3b 87       	std	Y+11, r19	; 0x0b
    1d1a:	2a 87       	std	Y+10, r18	; 0x0a
    1d1c:	09 95       	icall
    1d1e:	18 2f       	mov	r17, r24
    1d20:	ec 85       	ldd	r30, Y+12	; 0x0c
    1d22:	fd 85       	ldd	r31, Y+13	; 0x0d
    1d24:	8a 85       	ldd	r24, Y+10	; 0x0a
    1d26:	9b 85       	ldd	r25, Y+11	; 0x0b
    1d28:	bc 01       	movw	r22, r24
    1d2a:	6f 5f       	subi	r22, 0xFF	; 255
    1d2c:	7f 4f       	sbci	r23, 0xFF	; 255
    1d2e:	7b 87       	std	Y+11, r23	; 0x0b
    1d30:	6a 87       	std	Y+10, r22	; 0x0a
    1d32:	09 95       	icall
    1d34:	21 2f       	mov	r18, r17
    1d36:	30 e0       	ldi	r19, 0x00	; 0
    1d38:	38 2b       	or	r19, r24
    1d3a:	39 87       	std	Y+9, r19	; 0x09
    1d3c:	28 87       	std	Y+8, r18	; 0x08
    1d3e:	df 91       	pop	r29
    1d40:	cf 91       	pop	r28
    1d42:	1f 91       	pop	r17
    1d44:	08 95       	ret

00001d46 <jmp>:
    1d46:	1f 93       	push	r17
    1d48:	cf 93       	push	r28
    1d4a:	df 93       	push	r29
    1d4c:	ec 01       	movw	r28, r24
    1d4e:	ec 85       	ldd	r30, Y+12	; 0x0c
    1d50:	fd 85       	ldd	r31, Y+13	; 0x0d
    1d52:	88 85       	ldd	r24, Y+8	; 0x08
    1d54:	99 85       	ldd	r25, Y+9	; 0x09
    1d56:	9c 01       	movw	r18, r24
    1d58:	2f 5f       	subi	r18, 0xFF	; 255
    1d5a:	3f 4f       	sbci	r19, 0xFF	; 255
    1d5c:	39 87       	std	Y+9, r19	; 0x09
    1d5e:	28 87       	std	Y+8, r18	; 0x08
    1d60:	09 95       	icall
    1d62:	18 2f       	mov	r17, r24
    1d64:	ec 85       	ldd	r30, Y+12	; 0x0c
    1d66:	fd 85       	ldd	r31, Y+13	; 0x0d
    1d68:	88 85       	ldd	r24, Y+8	; 0x08
    1d6a:	99 85       	ldd	r25, Y+9	; 0x09
    1d6c:	bc 01       	movw	r22, r24
    1d6e:	6f 5f       	subi	r22, 0xFF	; 255
    1d70:	7f 4f       	sbci	r23, 0xFF	; 255
    1d72:	79 87       	std	Y+9, r23	; 0x09
    1d74:	68 87       	std	Y+8, r22	; 0x08
    1d76:	09 95       	icall
    1d78:	21 2f       	mov	r18, r17
    1d7a:	30 e0       	ldi	r19, 0x00	; 0
    1d7c:	38 2b       	or	r19, r24
    1d7e:	39 87       	std	Y+9, r19	; 0x09
    1d80:	28 87       	std	Y+8, r18	; 0x08
    1d82:	df 91       	pop	r29
    1d84:	cf 91       	pop	r28
    1d86:	1f 91       	pop	r17
    1d88:	08 95       	ret

00001d8a <call>:
    1d8a:	0f 93       	push	r16
    1d8c:	1f 93       	push	r17
    1d8e:	cf 93       	push	r28
    1d90:	df 93       	push	r29
    1d92:	ec 01       	movw	r28, r24
    1d94:	ec 85       	ldd	r30, Y+12	; 0x0c
    1d96:	fd 85       	ldd	r31, Y+13	; 0x0d
    1d98:	88 85       	ldd	r24, Y+8	; 0x08
    1d9a:	99 85       	ldd	r25, Y+9	; 0x09
    1d9c:	9c 01       	movw	r18, r24
    1d9e:	2f 5f       	subi	r18, 0xFF	; 255
    1da0:	3f 4f       	sbci	r19, 0xFF	; 255
    1da2:	39 87       	std	Y+9, r19	; 0x09
    1da4:	28 87       	std	Y+8, r18	; 0x08
    1da6:	09 95       	icall
    1da8:	08 2f       	mov	r16, r24
    1daa:	ec 85       	ldd	r30, Y+12	; 0x0c
    1dac:	fd 85       	ldd	r31, Y+13	; 0x0d
    1dae:	88 85       	ldd	r24, Y+8	; 0x08
    1db0:	99 85       	ldd	r25, Y+9	; 0x09
    1db2:	bc 01       	movw	r22, r24
    1db4:	6f 5f       	subi	r22, 0xFF	; 255
    1db6:	7f 4f       	sbci	r23, 0xFF	; 255
    1db8:	79 87       	std	Y+9, r23	; 0x09
    1dba:	68 87       	std	Y+8, r22	; 0x08
    1dbc:	09 95       	icall
    1dbe:	18 2f       	mov	r17, r24
    1dc0:	ee 85       	ldd	r30, Y+14	; 0x0e
    1dc2:	ff 85       	ldd	r31, Y+15	; 0x0f
    1dc4:	69 85       	ldd	r22, Y+9	; 0x09
    1dc6:	8a 85       	ldd	r24, Y+10	; 0x0a
    1dc8:	9b 85       	ldd	r25, Y+11	; 0x0b
    1dca:	01 97       	sbiw	r24, 0x01	; 1
    1dcc:	9b 87       	std	Y+11, r25	; 0x0b
    1dce:	8a 87       	std	Y+10, r24	; 0x0a
    1dd0:	09 95       	icall
    1dd2:	ee 85       	ldd	r30, Y+14	; 0x0e
    1dd4:	ff 85       	ldd	r31, Y+15	; 0x0f
    1dd6:	68 85       	ldd	r22, Y+8	; 0x08
    1dd8:	8a 85       	ldd	r24, Y+10	; 0x0a
    1dda:	9b 85       	ldd	r25, Y+11	; 0x0b
    1ddc:	01 97       	sbiw	r24, 0x01	; 1
    1dde:	9b 87       	std	Y+11, r25	; 0x0b
    1de0:	8a 87       	std	Y+10, r24	; 0x0a
    1de2:	09 95       	icall
    1de4:	20 2f       	mov	r18, r16
    1de6:	30 e0       	ldi	r19, 0x00	; 0
    1de8:	31 2b       	or	r19, r17
    1dea:	39 87       	std	Y+9, r19	; 0x09
    1dec:	28 87       	std	Y+8, r18	; 0x08
    1dee:	df 91       	pop	r29
    1df0:	cf 91       	pop	r28
    1df2:	1f 91       	pop	r17
    1df4:	0f 91       	pop	r16
    1df6:	08 95       	ret

00001df8 <rst>:
    1df8:	0f 93       	push	r16
    1dfa:	1f 93       	push	r17
    1dfc:	cf 93       	push	r28
    1dfe:	df 93       	push	r29
    1e00:	ec 01       	movw	r28, r24
    1e02:	8b 01       	movw	r16, r22
    1e04:	ee 85       	ldd	r30, Y+14	; 0x0e
    1e06:	ff 85       	ldd	r31, Y+15	; 0x0f
    1e08:	69 85       	ldd	r22, Y+9	; 0x09
    1e0a:	8a 85       	ldd	r24, Y+10	; 0x0a
    1e0c:	9b 85       	ldd	r25, Y+11	; 0x0b
    1e0e:	01 97       	sbiw	r24, 0x01	; 1
    1e10:	9b 87       	std	Y+11, r25	; 0x0b
    1e12:	8a 87       	std	Y+10, r24	; 0x0a
    1e14:	09 95       	icall
    1e16:	ee 85       	ldd	r30, Y+14	; 0x0e
    1e18:	ff 85       	ldd	r31, Y+15	; 0x0f
    1e1a:	68 85       	ldd	r22, Y+8	; 0x08
    1e1c:	8a 85       	ldd	r24, Y+10	; 0x0a
    1e1e:	9b 85       	ldd	r25, Y+11	; 0x0b
    1e20:	01 97       	sbiw	r24, 0x01	; 1
    1e22:	9b 87       	std	Y+11, r25	; 0x0b
    1e24:	8a 87       	std	Y+10, r24	; 0x0a
    1e26:	09 95       	icall
    1e28:	19 87       	std	Y+9, r17	; 0x09
    1e2a:	08 87       	std	Y+8, r16	; 0x08
    1e2c:	df 91       	pop	r29
    1e2e:	cf 91       	pop	r28
    1e30:	1f 91       	pop	r17
    1e32:	0f 91       	pop	r16
    1e34:	08 95       	ret

00001e36 <flag_zsp.isra.0>:
    1e36:	cf 93       	push	r28
    1e38:	df 93       	push	r29
    1e3a:	fc 01       	movw	r30, r24
    1e3c:	61 11       	cpse	r22, r1
    1e3e:	03 c0       	rjmp	.+6      	; 0x1e46 <flag_zsp.isra.0+0x10>
    1e40:	80 81       	ld	r24, Z
    1e42:	80 64       	ori	r24, 0x40	; 64
    1e44:	80 83       	st	Z, r24
    1e46:	26 2f       	mov	r18, r22
    1e48:	20 78       	andi	r18, 0x80	; 128
    1e4a:	80 81       	ld	r24, Z
    1e4c:	28 2b       	or	r18, r24
    1e4e:	20 83       	st	Z, r18
    1e50:	c6 2f       	mov	r28, r22
    1e52:	cf 70       	andi	r28, 0x0F	; 15
    1e54:	d0 e0       	ldi	r29, 0x00	; 0
    1e56:	cb 5f       	subi	r28, 0xFB	; 251
    1e58:	de 4f       	sbci	r29, 0xFE	; 254
    1e5a:	38 81       	ld	r19, Y
    1e5c:	62 95       	swap	r22
    1e5e:	6f 70       	andi	r22, 0x0F	; 15
    1e60:	a6 2f       	mov	r26, r22
    1e62:	b0 e0       	ldi	r27, 0x00	; 0
    1e64:	ab 5f       	subi	r26, 0xFB	; 251
    1e66:	be 4f       	sbci	r27, 0xFE	; 254
    1e68:	8c 91       	ld	r24, X
    1e6a:	90 e0       	ldi	r25, 0x00	; 0
    1e6c:	83 0f       	add	r24, r19
    1e6e:	91 1d       	adc	r25, r1
    1e70:	01 97       	sbiw	r24, 0x01	; 1
    1e72:	11 f0       	breq	.+4      	; 0x1e78 <flag_zsp.isra.0+0x42>
    1e74:	24 60       	ori	r18, 0x04	; 4
    1e76:	20 83       	st	Z, r18
    1e78:	df 91       	pop	r29
    1e7a:	cf 91       	pop	r28
    1e7c:	08 95       	ret

00001e7e <inr>:
    1e7e:	cf 93       	push	r28
    1e80:	fc 01       	movw	r30, r24
    1e82:	c6 2f       	mov	r28, r22
    1e84:	cf 5f       	subi	r28, 0xFF	; 255
    1e86:	81 81       	ldd	r24, Z+1	; 0x01
    1e88:	81 70       	andi	r24, 0x01	; 1
    1e8a:	9c 2f       	mov	r25, r28
    1e8c:	9f 70       	andi	r25, 0x0F	; 15
    1e8e:	09 f4       	brne	.+2      	; 0x1e92 <inr+0x14>
    1e90:	80 61       	ori	r24, 0x10	; 16
    1e92:	81 83       	std	Z+1, r24	; 0x01
    1e94:	6c 2f       	mov	r22, r28
    1e96:	cf 01       	movw	r24, r30
    1e98:	01 96       	adiw	r24, 0x01	; 1
    1e9a:	0e 94 1b 0f 	call	0x1e36	; 0x1e36 <flag_zsp.isra.0>
    1e9e:	8c 2f       	mov	r24, r28
    1ea0:	cf 91       	pop	r28
    1ea2:	08 95       	ret

00001ea4 <dcr>:
    1ea4:	cf 93       	push	r28
    1ea6:	fc 01       	movw	r30, r24
    1ea8:	c6 2f       	mov	r28, r22
    1eaa:	c1 50       	subi	r28, 0x01	; 1
    1eac:	81 81       	ldd	r24, Z+1	; 0x01
    1eae:	81 70       	andi	r24, 0x01	; 1
    1eb0:	9c 2f       	mov	r25, r28
    1eb2:	9f 70       	andi	r25, 0x0F	; 15
    1eb4:	9f 30       	cpi	r25, 0x0F	; 15
    1eb6:	09 f4       	brne	.+2      	; 0x1eba <dcr+0x16>
    1eb8:	80 61       	ori	r24, 0x10	; 16
    1eba:	81 83       	std	Z+1, r24	; 0x01
    1ebc:	6c 2f       	mov	r22, r28
    1ebe:	cf 01       	movw	r24, r30
    1ec0:	01 96       	adiw	r24, 0x01	; 1
    1ec2:	0e 94 1b 0f 	call	0x1e36	; 0x1e36 <flag_zsp.isra.0>
    1ec6:	8c 2f       	mov	r24, r28
    1ec8:	cf 91       	pop	r28
    1eca:	08 95       	ret

00001ecc <add>:
    1ecc:	cf 93       	push	r28
    1ece:	fc 01       	movw	r30, r24
    1ed0:	c6 2f       	mov	r28, r22
    1ed2:	20 81       	ld	r18, Z
    1ed4:	c2 0f       	add	r28, r18
    1ed6:	c2 17       	cp	r28, r18
    1ed8:	10 f0       	brcs	.+4      	; 0x1ede <add+0x12>
    1eda:	11 82       	std	Z+1, r1	; 0x01
    1edc:	02 c0       	rjmp	.+4      	; 0x1ee2 <add+0x16>
    1ede:	81 e0       	ldi	r24, 0x01	; 1
    1ee0:	81 83       	std	Z+1, r24	; 0x01
    1ee2:	4c 2f       	mov	r20, r28
    1ee4:	4f 70       	andi	r20, 0x0F	; 15
    1ee6:	50 e0       	ldi	r21, 0x00	; 0
    1ee8:	2f 70       	andi	r18, 0x0F	; 15
    1eea:	30 e0       	ldi	r19, 0x00	; 0
    1eec:	42 17       	cp	r20, r18
    1eee:	53 07       	cpc	r21, r19
    1ef0:	1c f4       	brge	.+6      	; 0x1ef8 <add+0x2c>
    1ef2:	81 81       	ldd	r24, Z+1	; 0x01
    1ef4:	80 61       	ori	r24, 0x10	; 16
    1ef6:	81 83       	std	Z+1, r24	; 0x01
    1ef8:	6c 2f       	mov	r22, r28
    1efa:	cf 01       	movw	r24, r30
    1efc:	01 96       	adiw	r24, 0x01	; 1
    1efe:	0e 94 1b 0f 	call	0x1e36	; 0x1e36 <flag_zsp.isra.0>
    1f02:	8c 2f       	mov	r24, r28
    1f04:	cf 91       	pop	r28
    1f06:	08 95       	ret

00001f08 <adc>:
    1f08:	cf 93       	push	r28
    1f0a:	fc 01       	movw	r30, r24
    1f0c:	80 81       	ld	r24, Z
    1f0e:	21 81       	ldd	r18, Z+1	; 0x01
    1f10:	21 70       	andi	r18, 0x01	; 1
    1f12:	c2 2f       	mov	r28, r18
    1f14:	c8 0f       	add	r28, r24
    1f16:	c6 0f       	add	r28, r22
    1f18:	30 e0       	ldi	r19, 0x00	; 0
    1f1a:	ac 2f       	mov	r26, r28
    1f1c:	b0 e0       	ldi	r27, 0x00	; 0
    1f1e:	a9 01       	movw	r20, r18
    1f20:	48 0f       	add	r20, r24
    1f22:	51 1d       	adc	r21, r1
    1f24:	a4 17       	cp	r26, r20
    1f26:	b5 07       	cpc	r27, r21
    1f28:	14 f0       	brlt	.+4      	; 0x1f2e <adc+0x26>
    1f2a:	11 82       	std	Z+1, r1	; 0x01
    1f2c:	02 c0       	rjmp	.+4      	; 0x1f32 <adc+0x2a>
    1f2e:	91 e0       	ldi	r25, 0x01	; 1
    1f30:	91 83       	std	Z+1, r25	; 0x01
    1f32:	4c 2f       	mov	r20, r28
    1f34:	4f 70       	andi	r20, 0x0F	; 15
    1f36:	50 e0       	ldi	r21, 0x00	; 0
    1f38:	8f 70       	andi	r24, 0x0F	; 15
    1f3a:	28 0f       	add	r18, r24
    1f3c:	31 1d       	adc	r19, r1
    1f3e:	42 17       	cp	r20, r18
    1f40:	53 07       	cpc	r21, r19
    1f42:	1c f4       	brge	.+6      	; 0x1f4a <adc+0x42>
    1f44:	81 81       	ldd	r24, Z+1	; 0x01
    1f46:	80 61       	ori	r24, 0x10	; 16
    1f48:	81 83       	std	Z+1, r24	; 0x01
    1f4a:	6c 2f       	mov	r22, r28
    1f4c:	cf 01       	movw	r24, r30
    1f4e:	01 96       	adiw	r24, 0x01	; 1
    1f50:	0e 94 1b 0f 	call	0x1e36	; 0x1e36 <flag_zsp.isra.0>
    1f54:	8c 2f       	mov	r24, r28
    1f56:	cf 91       	pop	r28
    1f58:	08 95       	ret

00001f5a <sub>:
    1f5a:	cf 93       	push	r28
    1f5c:	fc 01       	movw	r30, r24
    1f5e:	20 81       	ld	r18, Z
    1f60:	c2 2f       	mov	r28, r18
    1f62:	c6 1b       	sub	r28, r22
    1f64:	2c 17       	cp	r18, r28
    1f66:	10 f0       	brcs	.+4      	; 0x1f6c <sub+0x12>
    1f68:	11 82       	std	Z+1, r1	; 0x01
    1f6a:	02 c0       	rjmp	.+4      	; 0x1f70 <sub+0x16>
    1f6c:	81 e0       	ldi	r24, 0x01	; 1
    1f6e:	81 83       	std	Z+1, r24	; 0x01
    1f70:	4c 2f       	mov	r20, r28
    1f72:	4f 70       	andi	r20, 0x0F	; 15
    1f74:	50 e0       	ldi	r21, 0x00	; 0
    1f76:	2f 70       	andi	r18, 0x0F	; 15
    1f78:	30 e0       	ldi	r19, 0x00	; 0
    1f7a:	24 17       	cp	r18, r20
    1f7c:	35 07       	cpc	r19, r21
    1f7e:	1c f4       	brge	.+6      	; 0x1f86 <sub+0x2c>
    1f80:	81 81       	ldd	r24, Z+1	; 0x01
    1f82:	80 61       	ori	r24, 0x10	; 16
    1f84:	81 83       	std	Z+1, r24	; 0x01
    1f86:	6c 2f       	mov	r22, r28
    1f88:	cf 01       	movw	r24, r30
    1f8a:	01 96       	adiw	r24, 0x01	; 1
    1f8c:	0e 94 1b 0f 	call	0x1e36	; 0x1e36 <flag_zsp.isra.0>
    1f90:	8c 2f       	mov	r24, r28
    1f92:	cf 91       	pop	r28
    1f94:	08 95       	ret

00001f96 <sbb>:
    1f96:	1f 93       	push	r17
    1f98:	cf 93       	push	r28
    1f9a:	df 93       	push	r29
    1f9c:	fc 01       	movw	r30, r24
    1f9e:	20 81       	ld	r18, Z
    1fa0:	a1 81       	ldd	r26, Z+1	; 0x01
    1fa2:	a1 70       	andi	r26, 0x01	; 1
    1fa4:	12 2f       	mov	r17, r18
    1fa6:	16 1b       	sub	r17, r22
    1fa8:	1a 1b       	sub	r17, r26
    1faa:	b0 e0       	ldi	r27, 0x00	; 0
    1fac:	c1 2f       	mov	r28, r17
    1fae:	d0 e0       	ldi	r29, 0x00	; 0
    1fb0:	42 2f       	mov	r20, r18
    1fb2:	50 e0       	ldi	r21, 0x00	; 0
    1fb4:	4a 1b       	sub	r20, r26
    1fb6:	5b 0b       	sbc	r21, r27
    1fb8:	4c 17       	cp	r20, r28
    1fba:	5d 07       	cpc	r21, r29
    1fbc:	14 f0       	brlt	.+4      	; 0x1fc2 <sbb+0x2c>
    1fbe:	11 82       	std	Z+1, r1	; 0x01
    1fc0:	02 c0       	rjmp	.+4      	; 0x1fc6 <sbb+0x30>
    1fc2:	81 e0       	ldi	r24, 0x01	; 1
    1fc4:	81 83       	std	Z+1, r24	; 0x01
    1fc6:	41 2f       	mov	r20, r17
    1fc8:	4f 70       	andi	r20, 0x0F	; 15
    1fca:	50 e0       	ldi	r21, 0x00	; 0
    1fcc:	2f 70       	andi	r18, 0x0F	; 15
    1fce:	30 e0       	ldi	r19, 0x00	; 0
    1fd0:	2a 1b       	sub	r18, r26
    1fd2:	3b 0b       	sbc	r19, r27
    1fd4:	24 17       	cp	r18, r20
    1fd6:	35 07       	cpc	r19, r21
    1fd8:	1c f4       	brge	.+6      	; 0x1fe0 <sbb+0x4a>
    1fda:	81 81       	ldd	r24, Z+1	; 0x01
    1fdc:	80 61       	ori	r24, 0x10	; 16
    1fde:	81 83       	std	Z+1, r24	; 0x01
    1fe0:	61 2f       	mov	r22, r17
    1fe2:	cf 01       	movw	r24, r30
    1fe4:	01 96       	adiw	r24, 0x01	; 1
    1fe6:	0e 94 1b 0f 	call	0x1e36	; 0x1e36 <flag_zsp.isra.0>
    1fea:	81 2f       	mov	r24, r17
    1fec:	df 91       	pop	r29
    1fee:	cf 91       	pop	r28
    1ff0:	1f 91       	pop	r17
    1ff2:	08 95       	ret

00001ff4 <ana>:
    1ff4:	cf 93       	push	r28
    1ff6:	fc 01       	movw	r30, r24
    1ff8:	c6 2f       	mov	r28, r22
    1ffa:	80 81       	ld	r24, Z
    1ffc:	c8 23       	and	r28, r24
    1ffe:	80 e1       	ldi	r24, 0x10	; 16
    2000:	81 83       	std	Z+1, r24	; 0x01
    2002:	6c 2f       	mov	r22, r28
    2004:	cf 01       	movw	r24, r30
    2006:	01 96       	adiw	r24, 0x01	; 1
    2008:	0e 94 1b 0f 	call	0x1e36	; 0x1e36 <flag_zsp.isra.0>
    200c:	8c 2f       	mov	r24, r28
    200e:	cf 91       	pop	r28
    2010:	08 95       	ret

00002012 <dad>:
    2012:	fc 01       	movw	r30, r24
    2014:	86 81       	ldd	r24, Z+6	; 0x06
    2016:	90 e0       	ldi	r25, 0x00	; 0
    2018:	98 2f       	mov	r25, r24
    201a:	88 27       	eor	r24, r24
    201c:	27 81       	ldd	r18, Z+7	; 0x07
    201e:	82 2b       	or	r24, r18
    2020:	68 0f       	add	r22, r24
    2022:	79 1f       	adc	r23, r25
    2024:	21 81       	ldd	r18, Z+1	; 0x01
    2026:	68 17       	cp	r22, r24
    2028:	79 07       	cpc	r23, r25
    202a:	10 f4       	brcc	.+4      	; 0x2030 <dad+0x1e>
    202c:	21 60       	ori	r18, 0x01	; 1
    202e:	01 c0       	rjmp	.+2      	; 0x2032 <dad+0x20>
    2030:	2e 7f       	andi	r18, 0xFE	; 254
    2032:	21 83       	std	Z+1, r18	; 0x01
    2034:	76 83       	std	Z+6, r23	; 0x06
    2036:	67 83       	std	Z+7, r22	; 0x07
    2038:	08 95       	ret

0000203a <cpu_8080_reset>:
    203a:	fc 01       	movw	r30, r24
    203c:	10 82       	st	Z, r1
    203e:	11 82       	std	Z+1, r1	; 0x01
    2040:	12 82       	std	Z+2, r1	; 0x02
    2042:	13 82       	std	Z+3, r1	; 0x03
    2044:	14 82       	std	Z+4, r1	; 0x04
    2046:	15 82       	std	Z+5, r1	; 0x05
    2048:	16 82       	std	Z+6, r1	; 0x06
    204a:	17 82       	std	Z+7, r1	; 0x07
    204c:	8f ef       	ldi	r24, 0xFF	; 255
    204e:	9f ef       	ldi	r25, 0xFF	; 255
    2050:	93 87       	std	Z+11, r25	; 0x0b
    2052:	82 87       	std	Z+10, r24	; 0x0a
    2054:	11 86       	std	Z+9, r1	; 0x09
    2056:	10 86       	std	Z+8, r1	; 0x08
    2058:	08 95       	ret

0000205a <cpu_8080_step>:
    205a:	0f 93       	push	r16
    205c:	1f 93       	push	r17
    205e:	cf 93       	push	r28
    2060:	df 93       	push	r29
    2062:	ec 01       	movw	r28, r24
    2064:	ec 85       	ldd	r30, Y+12	; 0x0c
    2066:	fd 85       	ldd	r31, Y+13	; 0x0d
    2068:	88 85       	ldd	r24, Y+8	; 0x08
    206a:	99 85       	ldd	r25, Y+9	; 0x09
    206c:	9c 01       	movw	r18, r24
    206e:	2f 5f       	subi	r18, 0xFF	; 255
    2070:	3f 4f       	sbci	r19, 0xFF	; 255
    2072:	39 87       	std	Y+9, r19	; 0x09
    2074:	28 87       	std	Y+8, r18	; 0x08
    2076:	09 95       	icall
    2078:	8c 8b       	std	Y+20, r24	; 0x14
    207a:	48 2f       	mov	r20, r24
    207c:	50 e0       	ldi	r21, 0x00	; 0
    207e:	fa 01       	movw	r30, r20
    2080:	ec 5b       	subi	r30, 0xBC	; 188
    2082:	ff 4f       	sbci	r31, 0xFF	; 255
    2084:	0c 94 6b 1a 	jmp	0x34d6	; 0x34d6 <__tablejump2__>
    2088:	81 e0       	ldi	r24, 0x01	; 1
    208a:	90 e0       	ldi	r25, 0x00	; 0
    208c:	0c 94 4d 1a 	jmp	0x349a	; 0x349a <cpu_8080_step+0x1440>
    2090:	ec 85       	ldd	r30, Y+12	; 0x0c
    2092:	fd 85       	ldd	r31, Y+13	; 0x0d
    2094:	88 85       	ldd	r24, Y+8	; 0x08
    2096:	99 85       	ldd	r25, Y+9	; 0x09
    2098:	9c 01       	movw	r18, r24
    209a:	2f 5f       	subi	r18, 0xFF	; 255
    209c:	3f 4f       	sbci	r19, 0xFF	; 255
    209e:	39 87       	std	Y+9, r19	; 0x09
    20a0:	28 87       	std	Y+8, r18	; 0x08
    20a2:	09 95       	icall
    20a4:	8b 83       	std	Y+3, r24	; 0x03
    20a6:	ec 85       	ldd	r30, Y+12	; 0x0c
    20a8:	fd 85       	ldd	r31, Y+13	; 0x0d
    20aa:	88 85       	ldd	r24, Y+8	; 0x08
    20ac:	99 85       	ldd	r25, Y+9	; 0x09
    20ae:	9c 01       	movw	r18, r24
    20b0:	2f 5f       	subi	r18, 0xFF	; 255
    20b2:	3f 4f       	sbci	r19, 0xFF	; 255
    20b4:	39 87       	std	Y+9, r19	; 0x09
    20b6:	28 87       	std	Y+8, r18	; 0x08
    20b8:	09 95       	icall
    20ba:	8a 83       	std	Y+2, r24	; 0x02
    20bc:	80 e0       	ldi	r24, 0x00	; 0
    20be:	90 e0       	ldi	r25, 0x00	; 0
    20c0:	0c 94 4d 1a 	jmp	0x349a	; 0x349a <cpu_8080_step+0x1440>
    20c4:	8a 81       	ldd	r24, Y+2	; 0x02
    20c6:	90 e0       	ldi	r25, 0x00	; 0
    20c8:	98 2f       	mov	r25, r24
    20ca:	88 27       	eor	r24, r24
    20cc:	2b 81       	ldd	r18, Y+3	; 0x03
    20ce:	ee 85       	ldd	r30, Y+14	; 0x0e
    20d0:	ff 85       	ldd	r31, Y+15	; 0x0f
    20d2:	68 81       	ld	r22, Y
    20d4:	82 2b       	or	r24, r18
    20d6:	09 95       	icall
    20d8:	80 e0       	ldi	r24, 0x00	; 0
    20da:	90 e0       	ldi	r25, 0x00	; 0
    20dc:	0c 94 4d 1a 	jmp	0x349a	; 0x349a <cpu_8080_step+0x1440>
    20e0:	8a 81       	ldd	r24, Y+2	; 0x02
    20e2:	90 e0       	ldi	r25, 0x00	; 0
    20e4:	98 2f       	mov	r25, r24
    20e6:	88 27       	eor	r24, r24
    20e8:	2b 81       	ldd	r18, Y+3	; 0x03
    20ea:	82 2b       	or	r24, r18
    20ec:	01 96       	adiw	r24, 0x01	; 1
    20ee:	9a 83       	std	Y+2, r25	; 0x02
    20f0:	8b 83       	std	Y+3, r24	; 0x03
    20f2:	80 e0       	ldi	r24, 0x00	; 0
    20f4:	90 e0       	ldi	r25, 0x00	; 0
    20f6:	0c 94 4d 1a 	jmp	0x349a	; 0x349a <cpu_8080_step+0x1440>
    20fa:	6a 81       	ldd	r22, Y+2	; 0x02
    20fc:	ce 01       	movw	r24, r28
    20fe:	0e 94 3f 0f 	call	0x1e7e	; 0x1e7e <inr>
    2102:	8a 83       	std	Y+2, r24	; 0x02
    2104:	80 e0       	ldi	r24, 0x00	; 0
    2106:	90 e0       	ldi	r25, 0x00	; 0
    2108:	0c 94 4d 1a 	jmp	0x349a	; 0x349a <cpu_8080_step+0x1440>
    210c:	6a 81       	ldd	r22, Y+2	; 0x02
    210e:	ce 01       	movw	r24, r28
    2110:	0e 94 52 0f 	call	0x1ea4	; 0x1ea4 <dcr>
    2114:	8a 83       	std	Y+2, r24	; 0x02
    2116:	80 e0       	ldi	r24, 0x00	; 0
    2118:	90 e0       	ldi	r25, 0x00	; 0
    211a:	0c 94 4d 1a 	jmp	0x349a	; 0x349a <cpu_8080_step+0x1440>
    211e:	ec 85       	ldd	r30, Y+12	; 0x0c
    2120:	fd 85       	ldd	r31, Y+13	; 0x0d
    2122:	88 85       	ldd	r24, Y+8	; 0x08
    2124:	99 85       	ldd	r25, Y+9	; 0x09
    2126:	9c 01       	movw	r18, r24
    2128:	2f 5f       	subi	r18, 0xFF	; 255
    212a:	3f 4f       	sbci	r19, 0xFF	; 255
    212c:	39 87       	std	Y+9, r19	; 0x09
    212e:	28 87       	std	Y+8, r18	; 0x08
    2130:	09 95       	icall
    2132:	8a 83       	std	Y+2, r24	; 0x02
    2134:	80 e0       	ldi	r24, 0x00	; 0
    2136:	90 e0       	ldi	r25, 0x00	; 0
    2138:	0c 94 4d 1a 	jmp	0x349a	; 0x349a <cpu_8080_step+0x1440>
    213c:	28 81       	ld	r18, Y
    213e:	92 2f       	mov	r25, r18
    2140:	99 1f       	adc	r25, r25
    2142:	99 27       	eor	r25, r25
    2144:	99 1f       	adc	r25, r25
    2146:	89 81       	ldd	r24, Y+1	; 0x01
    2148:	8e 7f       	andi	r24, 0xFE	; 254
    214a:	89 2b       	or	r24, r25
    214c:	89 83       	std	Y+1, r24	; 0x01
    214e:	82 2f       	mov	r24, r18
    2150:	88 0f       	add	r24, r24
    2152:	89 2b       	or	r24, r25
    2154:	88 83       	st	Y, r24
    2156:	80 e0       	ldi	r24, 0x00	; 0
    2158:	90 e0       	ldi	r25, 0x00	; 0
    215a:	0c 94 4d 1a 	jmp	0x349a	; 0x349a <cpu_8080_step+0x1440>
    215e:	6a 81       	ldd	r22, Y+2	; 0x02
    2160:	70 e0       	ldi	r23, 0x00	; 0
    2162:	76 2f       	mov	r23, r22
    2164:	66 27       	eor	r22, r22
    2166:	8b 81       	ldd	r24, Y+3	; 0x03
    2168:	68 2b       	or	r22, r24
    216a:	ce 01       	movw	r24, r28
    216c:	0e 94 09 10 	call	0x2012	; 0x2012 <dad>
    2170:	80 e0       	ldi	r24, 0x00	; 0
    2172:	90 e0       	ldi	r25, 0x00	; 0
    2174:	0c 94 4d 1a 	jmp	0x349a	; 0x349a <cpu_8080_step+0x1440>
    2178:	8a 81       	ldd	r24, Y+2	; 0x02
    217a:	90 e0       	ldi	r25, 0x00	; 0
    217c:	98 2f       	mov	r25, r24
    217e:	88 27       	eor	r24, r24
    2180:	2b 81       	ldd	r18, Y+3	; 0x03
    2182:	ec 85       	ldd	r30, Y+12	; 0x0c
    2184:	fd 85       	ldd	r31, Y+13	; 0x0d
    2186:	82 2b       	or	r24, r18
    2188:	09 95       	icall
    218a:	88 83       	st	Y, r24
    218c:	80 e0       	ldi	r24, 0x00	; 0
    218e:	90 e0       	ldi	r25, 0x00	; 0
    2190:	0c 94 4d 1a 	jmp	0x349a	; 0x349a <cpu_8080_step+0x1440>
    2194:	8a 81       	ldd	r24, Y+2	; 0x02
    2196:	90 e0       	ldi	r25, 0x00	; 0
    2198:	98 2f       	mov	r25, r24
    219a:	88 27       	eor	r24, r24
    219c:	2b 81       	ldd	r18, Y+3	; 0x03
    219e:	82 2b       	or	r24, r18
    21a0:	01 97       	sbiw	r24, 0x01	; 1
    21a2:	9a 83       	std	Y+2, r25	; 0x02
    21a4:	8b 83       	std	Y+3, r24	; 0x03
    21a6:	80 e0       	ldi	r24, 0x00	; 0
    21a8:	90 e0       	ldi	r25, 0x00	; 0
    21aa:	0c 94 4d 1a 	jmp	0x349a	; 0x349a <cpu_8080_step+0x1440>
    21ae:	6b 81       	ldd	r22, Y+3	; 0x03
    21b0:	ce 01       	movw	r24, r28
    21b2:	0e 94 3f 0f 	call	0x1e7e	; 0x1e7e <inr>
    21b6:	8b 83       	std	Y+3, r24	; 0x03
    21b8:	80 e0       	ldi	r24, 0x00	; 0
    21ba:	90 e0       	ldi	r25, 0x00	; 0
    21bc:	0c 94 4d 1a 	jmp	0x349a	; 0x349a <cpu_8080_step+0x1440>
    21c0:	6b 81       	ldd	r22, Y+3	; 0x03
    21c2:	ce 01       	movw	r24, r28
    21c4:	0e 94 52 0f 	call	0x1ea4	; 0x1ea4 <dcr>
    21c8:	8b 83       	std	Y+3, r24	; 0x03
    21ca:	80 e0       	ldi	r24, 0x00	; 0
    21cc:	90 e0       	ldi	r25, 0x00	; 0
    21ce:	0c 94 4d 1a 	jmp	0x349a	; 0x349a <cpu_8080_step+0x1440>
    21d2:	ec 85       	ldd	r30, Y+12	; 0x0c
    21d4:	fd 85       	ldd	r31, Y+13	; 0x0d
    21d6:	88 85       	ldd	r24, Y+8	; 0x08
    21d8:	99 85       	ldd	r25, Y+9	; 0x09
    21da:	9c 01       	movw	r18, r24
    21dc:	2f 5f       	subi	r18, 0xFF	; 255
    21de:	3f 4f       	sbci	r19, 0xFF	; 255
    21e0:	39 87       	std	Y+9, r19	; 0x09
    21e2:	28 87       	std	Y+8, r18	; 0x08
    21e4:	09 95       	icall
    21e6:	8b 83       	std	Y+3, r24	; 0x03
    21e8:	80 e0       	ldi	r24, 0x00	; 0
    21ea:	90 e0       	ldi	r25, 0x00	; 0
    21ec:	0c 94 4d 1a 	jmp	0x349a	; 0x349a <cpu_8080_step+0x1440>
    21f0:	98 81       	ld	r25, Y
    21f2:	29 2f       	mov	r18, r25
    21f4:	21 70       	andi	r18, 0x01	; 1
    21f6:	89 81       	ldd	r24, Y+1	; 0x01
    21f8:	8e 7f       	andi	r24, 0xFE	; 254
    21fa:	82 2b       	or	r24, r18
    21fc:	89 83       	std	Y+1, r24	; 0x01
    21fe:	82 2f       	mov	r24, r18
    2200:	87 95       	ror	r24
    2202:	88 27       	eor	r24, r24
    2204:	87 95       	ror	r24
    2206:	96 95       	lsr	r25
    2208:	89 2b       	or	r24, r25
    220a:	88 83       	st	Y, r24
    220c:	80 e0       	ldi	r24, 0x00	; 0
    220e:	90 e0       	ldi	r25, 0x00	; 0
    2210:	0c 94 4d 1a 	jmp	0x349a	; 0x349a <cpu_8080_step+0x1440>
    2214:	ec 85       	ldd	r30, Y+12	; 0x0c
    2216:	fd 85       	ldd	r31, Y+13	; 0x0d
    2218:	88 85       	ldd	r24, Y+8	; 0x08
    221a:	99 85       	ldd	r25, Y+9	; 0x09
    221c:	9c 01       	movw	r18, r24
    221e:	2f 5f       	subi	r18, 0xFF	; 255
    2220:	3f 4f       	sbci	r19, 0xFF	; 255
    2222:	39 87       	std	Y+9, r19	; 0x09
    2224:	28 87       	std	Y+8, r18	; 0x08
    2226:	09 95       	icall
    2228:	8d 83       	std	Y+5, r24	; 0x05
    222a:	ec 85       	ldd	r30, Y+12	; 0x0c
    222c:	fd 85       	ldd	r31, Y+13	; 0x0d
    222e:	88 85       	ldd	r24, Y+8	; 0x08
    2230:	99 85       	ldd	r25, Y+9	; 0x09
    2232:	9c 01       	movw	r18, r24
    2234:	2f 5f       	subi	r18, 0xFF	; 255
    2236:	3f 4f       	sbci	r19, 0xFF	; 255
    2238:	39 87       	std	Y+9, r19	; 0x09
    223a:	28 87       	std	Y+8, r18	; 0x08
    223c:	09 95       	icall
    223e:	8c 83       	std	Y+4, r24	; 0x04
    2240:	80 e0       	ldi	r24, 0x00	; 0
    2242:	90 e0       	ldi	r25, 0x00	; 0
    2244:	0c 94 4d 1a 	jmp	0x349a	; 0x349a <cpu_8080_step+0x1440>
    2248:	8c 81       	ldd	r24, Y+4	; 0x04
    224a:	90 e0       	ldi	r25, 0x00	; 0
    224c:	98 2f       	mov	r25, r24
    224e:	88 27       	eor	r24, r24
    2250:	2d 81       	ldd	r18, Y+5	; 0x05
    2252:	ee 85       	ldd	r30, Y+14	; 0x0e
    2254:	ff 85       	ldd	r31, Y+15	; 0x0f
    2256:	68 81       	ld	r22, Y
    2258:	82 2b       	or	r24, r18
    225a:	09 95       	icall
    225c:	80 e0       	ldi	r24, 0x00	; 0
    225e:	90 e0       	ldi	r25, 0x00	; 0
    2260:	0c 94 4d 1a 	jmp	0x349a	; 0x349a <cpu_8080_step+0x1440>
    2264:	8c 81       	ldd	r24, Y+4	; 0x04
    2266:	90 e0       	ldi	r25, 0x00	; 0
    2268:	98 2f       	mov	r25, r24
    226a:	88 27       	eor	r24, r24
    226c:	2d 81       	ldd	r18, Y+5	; 0x05
    226e:	82 2b       	or	r24, r18
    2270:	01 96       	adiw	r24, 0x01	; 1
    2272:	9c 83       	std	Y+4, r25	; 0x04
    2274:	8d 83       	std	Y+5, r24	; 0x05
    2276:	80 e0       	ldi	r24, 0x00	; 0
    2278:	90 e0       	ldi	r25, 0x00	; 0
    227a:	0c 94 4d 1a 	jmp	0x349a	; 0x349a <cpu_8080_step+0x1440>
    227e:	6c 81       	ldd	r22, Y+4	; 0x04
    2280:	ce 01       	movw	r24, r28
    2282:	0e 94 3f 0f 	call	0x1e7e	; 0x1e7e <inr>
    2286:	8c 83       	std	Y+4, r24	; 0x04
    2288:	80 e0       	ldi	r24, 0x00	; 0
    228a:	90 e0       	ldi	r25, 0x00	; 0
    228c:	0c 94 4d 1a 	jmp	0x349a	; 0x349a <cpu_8080_step+0x1440>
    2290:	6c 81       	ldd	r22, Y+4	; 0x04
    2292:	ce 01       	movw	r24, r28
    2294:	0e 94 52 0f 	call	0x1ea4	; 0x1ea4 <dcr>
    2298:	8c 83       	std	Y+4, r24	; 0x04
    229a:	80 e0       	ldi	r24, 0x00	; 0
    229c:	90 e0       	ldi	r25, 0x00	; 0
    229e:	0c 94 4d 1a 	jmp	0x349a	; 0x349a <cpu_8080_step+0x1440>
    22a2:	ec 85       	ldd	r30, Y+12	; 0x0c
    22a4:	fd 85       	ldd	r31, Y+13	; 0x0d
    22a6:	88 85       	ldd	r24, Y+8	; 0x08
    22a8:	99 85       	ldd	r25, Y+9	; 0x09
    22aa:	9c 01       	movw	r18, r24
    22ac:	2f 5f       	subi	r18, 0xFF	; 255
    22ae:	3f 4f       	sbci	r19, 0xFF	; 255
    22b0:	39 87       	std	Y+9, r19	; 0x09
    22b2:	28 87       	std	Y+8, r18	; 0x08
    22b4:	09 95       	icall
    22b6:	8c 83       	std	Y+4, r24	; 0x04
    22b8:	80 e0       	ldi	r24, 0x00	; 0
    22ba:	90 e0       	ldi	r25, 0x00	; 0
    22bc:	0c 94 4d 1a 	jmp	0x349a	; 0x349a <cpu_8080_step+0x1440>
    22c0:	29 81       	ldd	r18, Y+1	; 0x01
    22c2:	88 81       	ld	r24, Y
    22c4:	98 2f       	mov	r25, r24
    22c6:	99 1f       	adc	r25, r25
    22c8:	99 27       	eor	r25, r25
    22ca:	99 1f       	adc	r25, r25
    22cc:	32 2f       	mov	r19, r18
    22ce:	3e 7f       	andi	r19, 0xFE	; 254
    22d0:	93 2b       	or	r25, r19
    22d2:	99 83       	std	Y+1, r25	; 0x01
    22d4:	88 0f       	add	r24, r24
    22d6:	21 70       	andi	r18, 0x01	; 1
    22d8:	82 2b       	or	r24, r18
    22da:	88 83       	st	Y, r24
    22dc:	80 e0       	ldi	r24, 0x00	; 0
    22de:	90 e0       	ldi	r25, 0x00	; 0
    22e0:	0c 94 4d 1a 	jmp	0x349a	; 0x349a <cpu_8080_step+0x1440>
    22e4:	6c 81       	ldd	r22, Y+4	; 0x04
    22e6:	70 e0       	ldi	r23, 0x00	; 0
    22e8:	76 2f       	mov	r23, r22
    22ea:	66 27       	eor	r22, r22
    22ec:	8d 81       	ldd	r24, Y+5	; 0x05
    22ee:	68 2b       	or	r22, r24
    22f0:	ce 01       	movw	r24, r28
    22f2:	0e 94 09 10 	call	0x2012	; 0x2012 <dad>
    22f6:	80 e0       	ldi	r24, 0x00	; 0
    22f8:	90 e0       	ldi	r25, 0x00	; 0
    22fa:	0c 94 4d 1a 	jmp	0x349a	; 0x349a <cpu_8080_step+0x1440>
    22fe:	8c 81       	ldd	r24, Y+4	; 0x04
    2300:	90 e0       	ldi	r25, 0x00	; 0
    2302:	98 2f       	mov	r25, r24
    2304:	88 27       	eor	r24, r24
    2306:	2d 81       	ldd	r18, Y+5	; 0x05
    2308:	ec 85       	ldd	r30, Y+12	; 0x0c
    230a:	fd 85       	ldd	r31, Y+13	; 0x0d
    230c:	82 2b       	or	r24, r18
    230e:	09 95       	icall
    2310:	88 83       	st	Y, r24
    2312:	80 e0       	ldi	r24, 0x00	; 0
    2314:	90 e0       	ldi	r25, 0x00	; 0
    2316:	0c 94 4d 1a 	jmp	0x349a	; 0x349a <cpu_8080_step+0x1440>
    231a:	8c 81       	ldd	r24, Y+4	; 0x04
    231c:	90 e0       	ldi	r25, 0x00	; 0
    231e:	98 2f       	mov	r25, r24
    2320:	88 27       	eor	r24, r24
    2322:	2d 81       	ldd	r18, Y+5	; 0x05
    2324:	82 2b       	or	r24, r18
    2326:	01 97       	sbiw	r24, 0x01	; 1
    2328:	9c 83       	std	Y+4, r25	; 0x04
    232a:	8d 83       	std	Y+5, r24	; 0x05
    232c:	80 e0       	ldi	r24, 0x00	; 0
    232e:	90 e0       	ldi	r25, 0x00	; 0
    2330:	0c 94 4d 1a 	jmp	0x349a	; 0x349a <cpu_8080_step+0x1440>
    2334:	6d 81       	ldd	r22, Y+5	; 0x05
    2336:	ce 01       	movw	r24, r28
    2338:	0e 94 3f 0f 	call	0x1e7e	; 0x1e7e <inr>
    233c:	8d 83       	std	Y+5, r24	; 0x05
    233e:	80 e0       	ldi	r24, 0x00	; 0
    2340:	90 e0       	ldi	r25, 0x00	; 0
    2342:	0c 94 4d 1a 	jmp	0x349a	; 0x349a <cpu_8080_step+0x1440>
    2346:	6d 81       	ldd	r22, Y+5	; 0x05
    2348:	ce 01       	movw	r24, r28
    234a:	0e 94 52 0f 	call	0x1ea4	; 0x1ea4 <dcr>
    234e:	8d 83       	std	Y+5, r24	; 0x05
    2350:	80 e0       	ldi	r24, 0x00	; 0
    2352:	90 e0       	ldi	r25, 0x00	; 0
    2354:	0c 94 4d 1a 	jmp	0x349a	; 0x349a <cpu_8080_step+0x1440>
    2358:	ec 85       	ldd	r30, Y+12	; 0x0c
    235a:	fd 85       	ldd	r31, Y+13	; 0x0d
    235c:	88 85       	ldd	r24, Y+8	; 0x08
    235e:	99 85       	ldd	r25, Y+9	; 0x09
    2360:	9c 01       	movw	r18, r24
    2362:	2f 5f       	subi	r18, 0xFF	; 255
    2364:	3f 4f       	sbci	r19, 0xFF	; 255
    2366:	39 87       	std	Y+9, r19	; 0x09
    2368:	28 87       	std	Y+8, r18	; 0x08
    236a:	09 95       	icall
    236c:	8d 83       	std	Y+5, r24	; 0x05
    236e:	80 e0       	ldi	r24, 0x00	; 0
    2370:	90 e0       	ldi	r25, 0x00	; 0
    2372:	0c 94 4d 1a 	jmp	0x349a	; 0x349a <cpu_8080_step+0x1440>
    2376:	89 81       	ldd	r24, Y+1	; 0x01
    2378:	98 81       	ld	r25, Y
    237a:	28 2f       	mov	r18, r24
    237c:	90 fb       	bst	r25, 0
    237e:	20 f9       	bld	r18, 0
    2380:	29 83       	std	Y+1, r18	; 0x01
    2382:	87 95       	ror	r24
    2384:	88 27       	eor	r24, r24
    2386:	87 95       	ror	r24
    2388:	96 95       	lsr	r25
    238a:	89 2b       	or	r24, r25
    238c:	88 83       	st	Y, r24
    238e:	80 e0       	ldi	r24, 0x00	; 0
    2390:	90 e0       	ldi	r25, 0x00	; 0
    2392:	0c 94 4d 1a 	jmp	0x349a	; 0x349a <cpu_8080_step+0x1440>
    2396:	ec 85       	ldd	r30, Y+12	; 0x0c
    2398:	fd 85       	ldd	r31, Y+13	; 0x0d
    239a:	88 85       	ldd	r24, Y+8	; 0x08
    239c:	99 85       	ldd	r25, Y+9	; 0x09
    239e:	9c 01       	movw	r18, r24
    23a0:	2f 5f       	subi	r18, 0xFF	; 255
    23a2:	3f 4f       	sbci	r19, 0xFF	; 255
    23a4:	39 87       	std	Y+9, r19	; 0x09
    23a6:	28 87       	std	Y+8, r18	; 0x08
    23a8:	09 95       	icall
    23aa:	8f 83       	std	Y+7, r24	; 0x07
    23ac:	ec 85       	ldd	r30, Y+12	; 0x0c
    23ae:	fd 85       	ldd	r31, Y+13	; 0x0d
    23b0:	88 85       	ldd	r24, Y+8	; 0x08
    23b2:	99 85       	ldd	r25, Y+9	; 0x09
    23b4:	9c 01       	movw	r18, r24
    23b6:	2f 5f       	subi	r18, 0xFF	; 255
    23b8:	3f 4f       	sbci	r19, 0xFF	; 255
    23ba:	39 87       	std	Y+9, r19	; 0x09
    23bc:	28 87       	std	Y+8, r18	; 0x08
    23be:	09 95       	icall
    23c0:	8e 83       	std	Y+6, r24	; 0x06
    23c2:	80 e0       	ldi	r24, 0x00	; 0
    23c4:	90 e0       	ldi	r25, 0x00	; 0
    23c6:	0c 94 4d 1a 	jmp	0x349a	; 0x349a <cpu_8080_step+0x1440>
    23ca:	ec 85       	ldd	r30, Y+12	; 0x0c
    23cc:	fd 85       	ldd	r31, Y+13	; 0x0d
    23ce:	88 85       	ldd	r24, Y+8	; 0x08
    23d0:	99 85       	ldd	r25, Y+9	; 0x09
    23d2:	9c 01       	movw	r18, r24
    23d4:	2f 5f       	subi	r18, 0xFF	; 255
    23d6:	3f 4f       	sbci	r19, 0xFF	; 255
    23d8:	39 87       	std	Y+9, r19	; 0x09
    23da:	28 87       	std	Y+8, r18	; 0x08
    23dc:	09 95       	icall
    23de:	08 2f       	mov	r16, r24
    23e0:	10 e0       	ldi	r17, 0x00	; 0
    23e2:	ec 85       	ldd	r30, Y+12	; 0x0c
    23e4:	fd 85       	ldd	r31, Y+13	; 0x0d
    23e6:	88 85       	ldd	r24, Y+8	; 0x08
    23e8:	99 85       	ldd	r25, Y+9	; 0x09
    23ea:	9c 01       	movw	r18, r24
    23ec:	2f 5f       	subi	r18, 0xFF	; 255
    23ee:	3f 4f       	sbci	r19, 0xFF	; 255
    23f0:	39 87       	std	Y+9, r19	; 0x09
    23f2:	28 87       	std	Y+8, r18	; 0x08
    23f4:	09 95       	icall
    23f6:	18 2b       	or	r17, r24
    23f8:	ee 85       	ldd	r30, Y+14	; 0x0e
    23fa:	ff 85       	ldd	r31, Y+15	; 0x0f
    23fc:	6f 81       	ldd	r22, Y+7	; 0x07
    23fe:	c8 01       	movw	r24, r16
    2400:	09 95       	icall
    2402:	ee 85       	ldd	r30, Y+14	; 0x0e
    2404:	ff 85       	ldd	r31, Y+15	; 0x0f
    2406:	6e 81       	ldd	r22, Y+6	; 0x06
    2408:	c8 01       	movw	r24, r16
    240a:	01 96       	adiw	r24, 0x01	; 1
    240c:	09 95       	icall
    240e:	80 e0       	ldi	r24, 0x00	; 0
    2410:	90 e0       	ldi	r25, 0x00	; 0
    2412:	0c 94 4d 1a 	jmp	0x349a	; 0x349a <cpu_8080_step+0x1440>
    2416:	8e 81       	ldd	r24, Y+6	; 0x06
    2418:	90 e0       	ldi	r25, 0x00	; 0
    241a:	98 2f       	mov	r25, r24
    241c:	88 27       	eor	r24, r24
    241e:	2f 81       	ldd	r18, Y+7	; 0x07
    2420:	82 2b       	or	r24, r18
    2422:	01 96       	adiw	r24, 0x01	; 1
    2424:	9e 83       	std	Y+6, r25	; 0x06
    2426:	8f 83       	std	Y+7, r24	; 0x07
    2428:	80 e0       	ldi	r24, 0x00	; 0
    242a:	90 e0       	ldi	r25, 0x00	; 0
    242c:	0c 94 4d 1a 	jmp	0x349a	; 0x349a <cpu_8080_step+0x1440>
    2430:	6e 81       	ldd	r22, Y+6	; 0x06
    2432:	ce 01       	movw	r24, r28
    2434:	0e 94 3f 0f 	call	0x1e7e	; 0x1e7e <inr>
    2438:	8e 83       	std	Y+6, r24	; 0x06
    243a:	80 e0       	ldi	r24, 0x00	; 0
    243c:	90 e0       	ldi	r25, 0x00	; 0
    243e:	0c 94 4d 1a 	jmp	0x349a	; 0x349a <cpu_8080_step+0x1440>
    2442:	6e 81       	ldd	r22, Y+6	; 0x06
    2444:	ce 01       	movw	r24, r28
    2446:	0e 94 52 0f 	call	0x1ea4	; 0x1ea4 <dcr>
    244a:	8e 83       	std	Y+6, r24	; 0x06
    244c:	80 e0       	ldi	r24, 0x00	; 0
    244e:	90 e0       	ldi	r25, 0x00	; 0
    2450:	0c 94 4d 1a 	jmp	0x349a	; 0x349a <cpu_8080_step+0x1440>
    2454:	ec 85       	ldd	r30, Y+12	; 0x0c
    2456:	fd 85       	ldd	r31, Y+13	; 0x0d
    2458:	88 85       	ldd	r24, Y+8	; 0x08
    245a:	99 85       	ldd	r25, Y+9	; 0x09
    245c:	9c 01       	movw	r18, r24
    245e:	2f 5f       	subi	r18, 0xFF	; 255
    2460:	3f 4f       	sbci	r19, 0xFF	; 255
    2462:	39 87       	std	Y+9, r19	; 0x09
    2464:	28 87       	std	Y+8, r18	; 0x08
    2466:	09 95       	icall
    2468:	8e 83       	std	Y+6, r24	; 0x06
    246a:	80 e0       	ldi	r24, 0x00	; 0
    246c:	90 e0       	ldi	r25, 0x00	; 0
    246e:	0c 94 4d 1a 	jmp	0x349a	; 0x349a <cpu_8080_step+0x1440>
    2472:	28 81       	ld	r18, Y
    2474:	82 2f       	mov	r24, r18
    2476:	82 95       	swap	r24
    2478:	8f 70       	andi	r24, 0x0F	; 15
    247a:	2f 70       	andi	r18, 0x0F	; 15
    247c:	28 83       	st	Y, r18
    247e:	99 81       	ldd	r25, Y+1	; 0x01
    2480:	94 fd       	sbrc	r25, 4
    2482:	02 c0       	rjmp	.+4      	; 0x2488 <cpu_8080_step+0x42e>
    2484:	2a 30       	cpi	r18, 0x0A	; 10
    2486:	20 f0       	brcs	.+8      	; 0x2490 <cpu_8080_step+0x436>
    2488:	2a 5f       	subi	r18, 0xFA	; 250
    248a:	28 83       	st	Y, r18
    248c:	90 61       	ori	r25, 0x10	; 16
    248e:	01 c0       	rjmp	.+2      	; 0x2492 <cpu_8080_step+0x438>
    2490:	9f 7e       	andi	r25, 0xEF	; 239
    2492:	99 83       	std	Y+1, r25	; 0x01
    2494:	99 81       	ldd	r25, Y+1	; 0x01
    2496:	90 fd       	sbrc	r25, 0
    2498:	02 c0       	rjmp	.+4      	; 0x249e <cpu_8080_step+0x444>
    249a:	8a 30       	cpi	r24, 0x0A	; 10
    249c:	18 f0       	brcs	.+6      	; 0x24a4 <cpu_8080_step+0x44a>
    249e:	8a 5f       	subi	r24, 0xFA	; 250
    24a0:	91 60       	ori	r25, 0x01	; 1
    24a2:	01 c0       	rjmp	.+2      	; 0x24a6 <cpu_8080_step+0x44c>
    24a4:	9e 7f       	andi	r25, 0xFE	; 254
    24a6:	99 83       	std	Y+1, r25	; 0x01
    24a8:	68 81       	ld	r22, Y
    24aa:	40 e1       	ldi	r20, 0x10	; 16
    24ac:	84 9f       	mul	r24, r20
    24ae:	60 0d       	add	r22, r0
    24b0:	11 24       	eor	r1, r1
    24b2:	68 83       	st	Y, r22
    24b4:	89 81       	ldd	r24, Y+1	; 0x01
    24b6:	8b 73       	andi	r24, 0x3B	; 59
    24b8:	89 83       	std	Y+1, r24	; 0x01
    24ba:	ce 01       	movw	r24, r28
    24bc:	01 96       	adiw	r24, 0x01	; 1
    24be:	0e 94 1b 0f 	call	0x1e36	; 0x1e36 <flag_zsp.isra.0>
    24c2:	80 e0       	ldi	r24, 0x00	; 0
    24c4:	90 e0       	ldi	r25, 0x00	; 0
    24c6:	e9 c7       	rjmp	.+4050   	; 0x349a <cpu_8080_step+0x1440>
    24c8:	6e 81       	ldd	r22, Y+6	; 0x06
    24ca:	70 e0       	ldi	r23, 0x00	; 0
    24cc:	76 2f       	mov	r23, r22
    24ce:	66 27       	eor	r22, r22
    24d0:	8f 81       	ldd	r24, Y+7	; 0x07
    24d2:	68 2b       	or	r22, r24
    24d4:	ce 01       	movw	r24, r28
    24d6:	0e 94 09 10 	call	0x2012	; 0x2012 <dad>
    24da:	80 e0       	ldi	r24, 0x00	; 0
    24dc:	90 e0       	ldi	r25, 0x00	; 0
    24de:	dd c7       	rjmp	.+4026   	; 0x349a <cpu_8080_step+0x1440>
    24e0:	ec 85       	ldd	r30, Y+12	; 0x0c
    24e2:	fd 85       	ldd	r31, Y+13	; 0x0d
    24e4:	88 85       	ldd	r24, Y+8	; 0x08
    24e6:	99 85       	ldd	r25, Y+9	; 0x09
    24e8:	9c 01       	movw	r18, r24
    24ea:	2f 5f       	subi	r18, 0xFF	; 255
    24ec:	3f 4f       	sbci	r19, 0xFF	; 255
    24ee:	39 87       	std	Y+9, r19	; 0x09
    24f0:	28 87       	std	Y+8, r18	; 0x08
    24f2:	09 95       	icall
    24f4:	08 2f       	mov	r16, r24
    24f6:	10 e0       	ldi	r17, 0x00	; 0
    24f8:	ec 85       	ldd	r30, Y+12	; 0x0c
    24fa:	fd 85       	ldd	r31, Y+13	; 0x0d
    24fc:	88 85       	ldd	r24, Y+8	; 0x08
    24fe:	99 85       	ldd	r25, Y+9	; 0x09
    2500:	9c 01       	movw	r18, r24
    2502:	2f 5f       	subi	r18, 0xFF	; 255
    2504:	3f 4f       	sbci	r19, 0xFF	; 255
    2506:	39 87       	std	Y+9, r19	; 0x09
    2508:	28 87       	std	Y+8, r18	; 0x08
    250a:	09 95       	icall
    250c:	18 2b       	or	r17, r24
    250e:	ec 85       	ldd	r30, Y+12	; 0x0c
    2510:	fd 85       	ldd	r31, Y+13	; 0x0d
    2512:	c8 01       	movw	r24, r16
    2514:	09 95       	icall
    2516:	8f 83       	std	Y+7, r24	; 0x07
    2518:	ec 85       	ldd	r30, Y+12	; 0x0c
    251a:	fd 85       	ldd	r31, Y+13	; 0x0d
    251c:	c8 01       	movw	r24, r16
    251e:	01 96       	adiw	r24, 0x01	; 1
    2520:	09 95       	icall
    2522:	8e 83       	std	Y+6, r24	; 0x06
    2524:	80 e0       	ldi	r24, 0x00	; 0
    2526:	90 e0       	ldi	r25, 0x00	; 0
    2528:	b8 c7       	rjmp	.+3952   	; 0x349a <cpu_8080_step+0x1440>
    252a:	8e 81       	ldd	r24, Y+6	; 0x06
    252c:	90 e0       	ldi	r25, 0x00	; 0
    252e:	98 2f       	mov	r25, r24
    2530:	88 27       	eor	r24, r24
    2532:	2f 81       	ldd	r18, Y+7	; 0x07
    2534:	82 2b       	or	r24, r18
    2536:	01 97       	sbiw	r24, 0x01	; 1
    2538:	9e 83       	std	Y+6, r25	; 0x06
    253a:	8f 83       	std	Y+7, r24	; 0x07
    253c:	80 e0       	ldi	r24, 0x00	; 0
    253e:	90 e0       	ldi	r25, 0x00	; 0
    2540:	ac c7       	rjmp	.+3928   	; 0x349a <cpu_8080_step+0x1440>
    2542:	6f 81       	ldd	r22, Y+7	; 0x07
    2544:	ce 01       	movw	r24, r28
    2546:	0e 94 3f 0f 	call	0x1e7e	; 0x1e7e <inr>
    254a:	8f 83       	std	Y+7, r24	; 0x07
    254c:	80 e0       	ldi	r24, 0x00	; 0
    254e:	90 e0       	ldi	r25, 0x00	; 0
    2550:	a4 c7       	rjmp	.+3912   	; 0x349a <cpu_8080_step+0x1440>
    2552:	6f 81       	ldd	r22, Y+7	; 0x07
    2554:	ce 01       	movw	r24, r28
    2556:	0e 94 52 0f 	call	0x1ea4	; 0x1ea4 <dcr>
    255a:	8f 83       	std	Y+7, r24	; 0x07
    255c:	80 e0       	ldi	r24, 0x00	; 0
    255e:	90 e0       	ldi	r25, 0x00	; 0
    2560:	9c c7       	rjmp	.+3896   	; 0x349a <cpu_8080_step+0x1440>
    2562:	ec 85       	ldd	r30, Y+12	; 0x0c
    2564:	fd 85       	ldd	r31, Y+13	; 0x0d
    2566:	88 85       	ldd	r24, Y+8	; 0x08
    2568:	99 85       	ldd	r25, Y+9	; 0x09
    256a:	9c 01       	movw	r18, r24
    256c:	2f 5f       	subi	r18, 0xFF	; 255
    256e:	3f 4f       	sbci	r19, 0xFF	; 255
    2570:	39 87       	std	Y+9, r19	; 0x09
    2572:	28 87       	std	Y+8, r18	; 0x08
    2574:	09 95       	icall
    2576:	8f 83       	std	Y+7, r24	; 0x07
    2578:	80 e0       	ldi	r24, 0x00	; 0
    257a:	90 e0       	ldi	r25, 0x00	; 0
    257c:	8e c7       	rjmp	.+3868   	; 0x349a <cpu_8080_step+0x1440>
    257e:	88 81       	ld	r24, Y
    2580:	80 95       	com	r24
    2582:	88 83       	st	Y, r24
    2584:	80 e0       	ldi	r24, 0x00	; 0
    2586:	90 e0       	ldi	r25, 0x00	; 0
    2588:	88 c7       	rjmp	.+3856   	; 0x349a <cpu_8080_step+0x1440>
    258a:	ec 85       	ldd	r30, Y+12	; 0x0c
    258c:	fd 85       	ldd	r31, Y+13	; 0x0d
    258e:	88 85       	ldd	r24, Y+8	; 0x08
    2590:	99 85       	ldd	r25, Y+9	; 0x09
    2592:	9c 01       	movw	r18, r24
    2594:	2f 5f       	subi	r18, 0xFF	; 255
    2596:	3f 4f       	sbci	r19, 0xFF	; 255
    2598:	39 87       	std	Y+9, r19	; 0x09
    259a:	28 87       	std	Y+8, r18	; 0x08
    259c:	09 95       	icall
    259e:	18 2f       	mov	r17, r24
    25a0:	ec 85       	ldd	r30, Y+12	; 0x0c
    25a2:	fd 85       	ldd	r31, Y+13	; 0x0d
    25a4:	88 85       	ldd	r24, Y+8	; 0x08
    25a6:	99 85       	ldd	r25, Y+9	; 0x09
    25a8:	bc 01       	movw	r22, r24
    25aa:	6f 5f       	subi	r22, 0xFF	; 255
    25ac:	7f 4f       	sbci	r23, 0xFF	; 255
    25ae:	79 87       	std	Y+9, r23	; 0x09
    25b0:	68 87       	std	Y+8, r22	; 0x08
    25b2:	09 95       	icall
    25b4:	21 2f       	mov	r18, r17
    25b6:	30 e0       	ldi	r19, 0x00	; 0
    25b8:	38 2b       	or	r19, r24
    25ba:	3b 87       	std	Y+11, r19	; 0x0b
    25bc:	2a 87       	std	Y+10, r18	; 0x0a
    25be:	80 e0       	ldi	r24, 0x00	; 0
    25c0:	90 e0       	ldi	r25, 0x00	; 0
    25c2:	6b c7       	rjmp	.+3798   	; 0x349a <cpu_8080_step+0x1440>
    25c4:	ec 85       	ldd	r30, Y+12	; 0x0c
    25c6:	fd 85       	ldd	r31, Y+13	; 0x0d
    25c8:	88 85       	ldd	r24, Y+8	; 0x08
    25ca:	99 85       	ldd	r25, Y+9	; 0x09
    25cc:	9c 01       	movw	r18, r24
    25ce:	2f 5f       	subi	r18, 0xFF	; 255
    25d0:	3f 4f       	sbci	r19, 0xFF	; 255
    25d2:	39 87       	std	Y+9, r19	; 0x09
    25d4:	28 87       	std	Y+8, r18	; 0x08
    25d6:	09 95       	icall
    25d8:	18 2f       	mov	r17, r24
    25da:	ec 85       	ldd	r30, Y+12	; 0x0c
    25dc:	fd 85       	ldd	r31, Y+13	; 0x0d
    25de:	88 85       	ldd	r24, Y+8	; 0x08
    25e0:	99 85       	ldd	r25, Y+9	; 0x09
    25e2:	ac 01       	movw	r20, r24
    25e4:	4f 5f       	subi	r20, 0xFF	; 255
    25e6:	5f 4f       	sbci	r21, 0xFF	; 255
    25e8:	59 87       	std	Y+9, r21	; 0x09
    25ea:	48 87       	std	Y+8, r20	; 0x08
    25ec:	09 95       	icall
    25ee:	21 2f       	mov	r18, r17
    25f0:	30 e0       	ldi	r19, 0x00	; 0
    25f2:	ee 85       	ldd	r30, Y+14	; 0x0e
    25f4:	ff 85       	ldd	r31, Y+15	; 0x0f
    25f6:	68 81       	ld	r22, Y
    25f8:	a9 01       	movw	r20, r18
    25fa:	58 2b       	or	r21, r24
    25fc:	ca 01       	movw	r24, r20
    25fe:	09 95       	icall
    2600:	80 e0       	ldi	r24, 0x00	; 0
    2602:	90 e0       	ldi	r25, 0x00	; 0
    2604:	4a c7       	rjmp	.+3732   	; 0x349a <cpu_8080_step+0x1440>
    2606:	8a 85       	ldd	r24, Y+10	; 0x0a
    2608:	9b 85       	ldd	r25, Y+11	; 0x0b
    260a:	01 96       	adiw	r24, 0x01	; 1
    260c:	9b 87       	std	Y+11, r25	; 0x0b
    260e:	8a 87       	std	Y+10, r24	; 0x0a
    2610:	80 e0       	ldi	r24, 0x00	; 0
    2612:	90 e0       	ldi	r25, 0x00	; 0
    2614:	42 c7       	rjmp	.+3716   	; 0x349a <cpu_8080_step+0x1440>
    2616:	0e 81       	ldd	r16, Y+6	; 0x06
    2618:	10 e0       	ldi	r17, 0x00	; 0
    261a:	10 2f       	mov	r17, r16
    261c:	00 27       	eor	r16, r16
    261e:	8f 81       	ldd	r24, Y+7	; 0x07
    2620:	08 2b       	or	r16, r24
    2622:	ec 85       	ldd	r30, Y+12	; 0x0c
    2624:	fd 85       	ldd	r31, Y+13	; 0x0d
    2626:	c8 01       	movw	r24, r16
    2628:	09 95       	icall
    262a:	68 2f       	mov	r22, r24
    262c:	ce 01       	movw	r24, r28
    262e:	0e 94 3f 0f 	call	0x1e7e	; 0x1e7e <inr>
    2632:	ee 85       	ldd	r30, Y+14	; 0x0e
    2634:	ff 85       	ldd	r31, Y+15	; 0x0f
    2636:	68 2f       	mov	r22, r24
    2638:	c8 01       	movw	r24, r16
    263a:	09 95       	icall
    263c:	80 e0       	ldi	r24, 0x00	; 0
    263e:	90 e0       	ldi	r25, 0x00	; 0
    2640:	2c c7       	rjmp	.+3672   	; 0x349a <cpu_8080_step+0x1440>
    2642:	0e 81       	ldd	r16, Y+6	; 0x06
    2644:	10 e0       	ldi	r17, 0x00	; 0
    2646:	10 2f       	mov	r17, r16
    2648:	00 27       	eor	r16, r16
    264a:	8f 81       	ldd	r24, Y+7	; 0x07
    264c:	08 2b       	or	r16, r24
    264e:	ec 85       	ldd	r30, Y+12	; 0x0c
    2650:	fd 85       	ldd	r31, Y+13	; 0x0d
    2652:	c8 01       	movw	r24, r16
    2654:	09 95       	icall
    2656:	68 2f       	mov	r22, r24
    2658:	ce 01       	movw	r24, r28
    265a:	0e 94 52 0f 	call	0x1ea4	; 0x1ea4 <dcr>
    265e:	ee 85       	ldd	r30, Y+14	; 0x0e
    2660:	ff 85       	ldd	r31, Y+15	; 0x0f
    2662:	68 2f       	mov	r22, r24
    2664:	c8 01       	movw	r24, r16
    2666:	09 95       	icall
    2668:	80 e0       	ldi	r24, 0x00	; 0
    266a:	90 e0       	ldi	r25, 0x00	; 0
    266c:	16 c7       	rjmp	.+3628   	; 0x349a <cpu_8080_step+0x1440>
    266e:	ec 85       	ldd	r30, Y+12	; 0x0c
    2670:	fd 85       	ldd	r31, Y+13	; 0x0d
    2672:	88 85       	ldd	r24, Y+8	; 0x08
    2674:	99 85       	ldd	r25, Y+9	; 0x09
    2676:	9c 01       	movw	r18, r24
    2678:	2f 5f       	subi	r18, 0xFF	; 255
    267a:	3f 4f       	sbci	r19, 0xFF	; 255
    267c:	39 87       	std	Y+9, r19	; 0x09
    267e:	28 87       	std	Y+8, r18	; 0x08
    2680:	09 95       	icall
    2682:	2e 81       	ldd	r18, Y+6	; 0x06
    2684:	30 e0       	ldi	r19, 0x00	; 0
    2686:	32 2f       	mov	r19, r18
    2688:	22 27       	eor	r18, r18
    268a:	9f 81       	ldd	r25, Y+7	; 0x07
    268c:	ee 85       	ldd	r30, Y+14	; 0x0e
    268e:	ff 85       	ldd	r31, Y+15	; 0x0f
    2690:	68 2f       	mov	r22, r24
    2692:	a9 01       	movw	r20, r18
    2694:	49 2b       	or	r20, r25
    2696:	ca 01       	movw	r24, r20
    2698:	09 95       	icall
    269a:	80 e0       	ldi	r24, 0x00	; 0
    269c:	90 e0       	ldi	r25, 0x00	; 0
    269e:	fd c6       	rjmp	.+3578   	; 0x349a <cpu_8080_step+0x1440>
    26a0:	89 81       	ldd	r24, Y+1	; 0x01
    26a2:	81 60       	ori	r24, 0x01	; 1
    26a4:	89 83       	std	Y+1, r24	; 0x01
    26a6:	80 e0       	ldi	r24, 0x00	; 0
    26a8:	90 e0       	ldi	r25, 0x00	; 0
    26aa:	f7 c6       	rjmp	.+3566   	; 0x349a <cpu_8080_step+0x1440>
    26ac:	6a 85       	ldd	r22, Y+10	; 0x0a
    26ae:	7b 85       	ldd	r23, Y+11	; 0x0b
    26b0:	ce 01       	movw	r24, r28
    26b2:	0e 94 09 10 	call	0x2012	; 0x2012 <dad>
    26b6:	80 e0       	ldi	r24, 0x00	; 0
    26b8:	90 e0       	ldi	r25, 0x00	; 0
    26ba:	ef c6       	rjmp	.+3550   	; 0x349a <cpu_8080_step+0x1440>
    26bc:	ec 85       	ldd	r30, Y+12	; 0x0c
    26be:	fd 85       	ldd	r31, Y+13	; 0x0d
    26c0:	88 85       	ldd	r24, Y+8	; 0x08
    26c2:	99 85       	ldd	r25, Y+9	; 0x09
    26c4:	9c 01       	movw	r18, r24
    26c6:	2f 5f       	subi	r18, 0xFF	; 255
    26c8:	3f 4f       	sbci	r19, 0xFF	; 255
    26ca:	39 87       	std	Y+9, r19	; 0x09
    26cc:	28 87       	std	Y+8, r18	; 0x08
    26ce:	09 95       	icall
    26d0:	18 2f       	mov	r17, r24
    26d2:	ec 85       	ldd	r30, Y+12	; 0x0c
    26d4:	fd 85       	ldd	r31, Y+13	; 0x0d
    26d6:	88 85       	ldd	r24, Y+8	; 0x08
    26d8:	99 85       	ldd	r25, Y+9	; 0x09
    26da:	ac 01       	movw	r20, r24
    26dc:	4f 5f       	subi	r20, 0xFF	; 255
    26de:	5f 4f       	sbci	r21, 0xFF	; 255
    26e0:	59 87       	std	Y+9, r21	; 0x09
    26e2:	48 87       	std	Y+8, r20	; 0x08
    26e4:	09 95       	icall
    26e6:	21 2f       	mov	r18, r17
    26e8:	30 e0       	ldi	r19, 0x00	; 0
    26ea:	ec 85       	ldd	r30, Y+12	; 0x0c
    26ec:	fd 85       	ldd	r31, Y+13	; 0x0d
    26ee:	a9 01       	movw	r20, r18
    26f0:	58 2b       	or	r21, r24
    26f2:	ca 01       	movw	r24, r20
    26f4:	09 95       	icall
    26f6:	88 83       	st	Y, r24
    26f8:	80 e0       	ldi	r24, 0x00	; 0
    26fa:	90 e0       	ldi	r25, 0x00	; 0
    26fc:	ce c6       	rjmp	.+3484   	; 0x349a <cpu_8080_step+0x1440>
    26fe:	8a 85       	ldd	r24, Y+10	; 0x0a
    2700:	9b 85       	ldd	r25, Y+11	; 0x0b
    2702:	01 97       	sbiw	r24, 0x01	; 1
    2704:	9b 87       	std	Y+11, r25	; 0x0b
    2706:	8a 87       	std	Y+10, r24	; 0x0a
    2708:	80 e0       	ldi	r24, 0x00	; 0
    270a:	90 e0       	ldi	r25, 0x00	; 0
    270c:	c6 c6       	rjmp	.+3468   	; 0x349a <cpu_8080_step+0x1440>
    270e:	68 81       	ld	r22, Y
    2710:	ce 01       	movw	r24, r28
    2712:	0e 94 3f 0f 	call	0x1e7e	; 0x1e7e <inr>
    2716:	88 83       	st	Y, r24
    2718:	80 e0       	ldi	r24, 0x00	; 0
    271a:	90 e0       	ldi	r25, 0x00	; 0
    271c:	be c6       	rjmp	.+3452   	; 0x349a <cpu_8080_step+0x1440>
    271e:	68 81       	ld	r22, Y
    2720:	ce 01       	movw	r24, r28
    2722:	0e 94 52 0f 	call	0x1ea4	; 0x1ea4 <dcr>
    2726:	88 83       	st	Y, r24
    2728:	80 e0       	ldi	r24, 0x00	; 0
    272a:	90 e0       	ldi	r25, 0x00	; 0
    272c:	b6 c6       	rjmp	.+3436   	; 0x349a <cpu_8080_step+0x1440>
    272e:	ec 85       	ldd	r30, Y+12	; 0x0c
    2730:	fd 85       	ldd	r31, Y+13	; 0x0d
    2732:	88 85       	ldd	r24, Y+8	; 0x08
    2734:	99 85       	ldd	r25, Y+9	; 0x09
    2736:	9c 01       	movw	r18, r24
    2738:	2f 5f       	subi	r18, 0xFF	; 255
    273a:	3f 4f       	sbci	r19, 0xFF	; 255
    273c:	39 87       	std	Y+9, r19	; 0x09
    273e:	28 87       	std	Y+8, r18	; 0x08
    2740:	09 95       	icall
    2742:	88 83       	st	Y, r24
    2744:	80 e0       	ldi	r24, 0x00	; 0
    2746:	90 e0       	ldi	r25, 0x00	; 0
    2748:	a8 c6       	rjmp	.+3408   	; 0x349a <cpu_8080_step+0x1440>
    274a:	89 81       	ldd	r24, Y+1	; 0x01
    274c:	91 e0       	ldi	r25, 0x01	; 1
    274e:	89 27       	eor	r24, r25
    2750:	89 83       	std	Y+1, r24	; 0x01
    2752:	80 e0       	ldi	r24, 0x00	; 0
    2754:	90 e0       	ldi	r25, 0x00	; 0
    2756:	a1 c6       	rjmp	.+3394   	; 0x349a <cpu_8080_step+0x1440>
    2758:	8b 81       	ldd	r24, Y+3	; 0x03
    275a:	8a 83       	std	Y+2, r24	; 0x02
    275c:	80 e0       	ldi	r24, 0x00	; 0
    275e:	90 e0       	ldi	r25, 0x00	; 0
    2760:	9c c6       	rjmp	.+3384   	; 0x349a <cpu_8080_step+0x1440>
    2762:	8c 81       	ldd	r24, Y+4	; 0x04
    2764:	8a 83       	std	Y+2, r24	; 0x02
    2766:	80 e0       	ldi	r24, 0x00	; 0
    2768:	90 e0       	ldi	r25, 0x00	; 0
    276a:	97 c6       	rjmp	.+3374   	; 0x349a <cpu_8080_step+0x1440>
    276c:	8d 81       	ldd	r24, Y+5	; 0x05
    276e:	8a 83       	std	Y+2, r24	; 0x02
    2770:	80 e0       	ldi	r24, 0x00	; 0
    2772:	90 e0       	ldi	r25, 0x00	; 0
    2774:	92 c6       	rjmp	.+3364   	; 0x349a <cpu_8080_step+0x1440>
    2776:	8e 81       	ldd	r24, Y+6	; 0x06
    2778:	8a 83       	std	Y+2, r24	; 0x02
    277a:	80 e0       	ldi	r24, 0x00	; 0
    277c:	90 e0       	ldi	r25, 0x00	; 0
    277e:	8d c6       	rjmp	.+3354   	; 0x349a <cpu_8080_step+0x1440>
    2780:	8f 81       	ldd	r24, Y+7	; 0x07
    2782:	8a 83       	std	Y+2, r24	; 0x02
    2784:	80 e0       	ldi	r24, 0x00	; 0
    2786:	90 e0       	ldi	r25, 0x00	; 0
    2788:	88 c6       	rjmp	.+3344   	; 0x349a <cpu_8080_step+0x1440>
    278a:	8e 81       	ldd	r24, Y+6	; 0x06
    278c:	90 e0       	ldi	r25, 0x00	; 0
    278e:	98 2f       	mov	r25, r24
    2790:	88 27       	eor	r24, r24
    2792:	2f 81       	ldd	r18, Y+7	; 0x07
    2794:	ec 85       	ldd	r30, Y+12	; 0x0c
    2796:	fd 85       	ldd	r31, Y+13	; 0x0d
    2798:	82 2b       	or	r24, r18
    279a:	09 95       	icall
    279c:	8a 83       	std	Y+2, r24	; 0x02
    279e:	80 e0       	ldi	r24, 0x00	; 0
    27a0:	90 e0       	ldi	r25, 0x00	; 0
    27a2:	7b c6       	rjmp	.+3318   	; 0x349a <cpu_8080_step+0x1440>
    27a4:	88 81       	ld	r24, Y
    27a6:	8a 83       	std	Y+2, r24	; 0x02
    27a8:	80 e0       	ldi	r24, 0x00	; 0
    27aa:	90 e0       	ldi	r25, 0x00	; 0
    27ac:	76 c6       	rjmp	.+3308   	; 0x349a <cpu_8080_step+0x1440>
    27ae:	8a 81       	ldd	r24, Y+2	; 0x02
    27b0:	8b 83       	std	Y+3, r24	; 0x03
    27b2:	80 e0       	ldi	r24, 0x00	; 0
    27b4:	90 e0       	ldi	r25, 0x00	; 0
    27b6:	71 c6       	rjmp	.+3298   	; 0x349a <cpu_8080_step+0x1440>
    27b8:	8c 81       	ldd	r24, Y+4	; 0x04
    27ba:	8b 83       	std	Y+3, r24	; 0x03
    27bc:	80 e0       	ldi	r24, 0x00	; 0
    27be:	90 e0       	ldi	r25, 0x00	; 0
    27c0:	6c c6       	rjmp	.+3288   	; 0x349a <cpu_8080_step+0x1440>
    27c2:	8d 81       	ldd	r24, Y+5	; 0x05
    27c4:	8b 83       	std	Y+3, r24	; 0x03
    27c6:	80 e0       	ldi	r24, 0x00	; 0
    27c8:	90 e0       	ldi	r25, 0x00	; 0
    27ca:	67 c6       	rjmp	.+3278   	; 0x349a <cpu_8080_step+0x1440>
    27cc:	8e 81       	ldd	r24, Y+6	; 0x06
    27ce:	8b 83       	std	Y+3, r24	; 0x03
    27d0:	80 e0       	ldi	r24, 0x00	; 0
    27d2:	90 e0       	ldi	r25, 0x00	; 0
    27d4:	62 c6       	rjmp	.+3268   	; 0x349a <cpu_8080_step+0x1440>
    27d6:	8f 81       	ldd	r24, Y+7	; 0x07
    27d8:	8b 83       	std	Y+3, r24	; 0x03
    27da:	80 e0       	ldi	r24, 0x00	; 0
    27dc:	90 e0       	ldi	r25, 0x00	; 0
    27de:	5d c6       	rjmp	.+3258   	; 0x349a <cpu_8080_step+0x1440>
    27e0:	8e 81       	ldd	r24, Y+6	; 0x06
    27e2:	90 e0       	ldi	r25, 0x00	; 0
    27e4:	98 2f       	mov	r25, r24
    27e6:	88 27       	eor	r24, r24
    27e8:	2f 81       	ldd	r18, Y+7	; 0x07
    27ea:	ec 85       	ldd	r30, Y+12	; 0x0c
    27ec:	fd 85       	ldd	r31, Y+13	; 0x0d
    27ee:	82 2b       	or	r24, r18
    27f0:	09 95       	icall
    27f2:	8b 83       	std	Y+3, r24	; 0x03
    27f4:	80 e0       	ldi	r24, 0x00	; 0
    27f6:	90 e0       	ldi	r25, 0x00	; 0
    27f8:	50 c6       	rjmp	.+3232   	; 0x349a <cpu_8080_step+0x1440>
    27fa:	88 81       	ld	r24, Y
    27fc:	8b 83       	std	Y+3, r24	; 0x03
    27fe:	80 e0       	ldi	r24, 0x00	; 0
    2800:	90 e0       	ldi	r25, 0x00	; 0
    2802:	4b c6       	rjmp	.+3222   	; 0x349a <cpu_8080_step+0x1440>
    2804:	8a 81       	ldd	r24, Y+2	; 0x02
    2806:	8c 83       	std	Y+4, r24	; 0x04
    2808:	80 e0       	ldi	r24, 0x00	; 0
    280a:	90 e0       	ldi	r25, 0x00	; 0
    280c:	46 c6       	rjmp	.+3212   	; 0x349a <cpu_8080_step+0x1440>
    280e:	8b 81       	ldd	r24, Y+3	; 0x03
    2810:	8c 83       	std	Y+4, r24	; 0x04
    2812:	80 e0       	ldi	r24, 0x00	; 0
    2814:	90 e0       	ldi	r25, 0x00	; 0
    2816:	41 c6       	rjmp	.+3202   	; 0x349a <cpu_8080_step+0x1440>
    2818:	8d 81       	ldd	r24, Y+5	; 0x05
    281a:	8c 83       	std	Y+4, r24	; 0x04
    281c:	80 e0       	ldi	r24, 0x00	; 0
    281e:	90 e0       	ldi	r25, 0x00	; 0
    2820:	3c c6       	rjmp	.+3192   	; 0x349a <cpu_8080_step+0x1440>
    2822:	8e 81       	ldd	r24, Y+6	; 0x06
    2824:	8c 83       	std	Y+4, r24	; 0x04
    2826:	80 e0       	ldi	r24, 0x00	; 0
    2828:	90 e0       	ldi	r25, 0x00	; 0
    282a:	37 c6       	rjmp	.+3182   	; 0x349a <cpu_8080_step+0x1440>
    282c:	8f 81       	ldd	r24, Y+7	; 0x07
    282e:	8c 83       	std	Y+4, r24	; 0x04
    2830:	80 e0       	ldi	r24, 0x00	; 0
    2832:	90 e0       	ldi	r25, 0x00	; 0
    2834:	32 c6       	rjmp	.+3172   	; 0x349a <cpu_8080_step+0x1440>
    2836:	8e 81       	ldd	r24, Y+6	; 0x06
    2838:	90 e0       	ldi	r25, 0x00	; 0
    283a:	98 2f       	mov	r25, r24
    283c:	88 27       	eor	r24, r24
    283e:	2f 81       	ldd	r18, Y+7	; 0x07
    2840:	ec 85       	ldd	r30, Y+12	; 0x0c
    2842:	fd 85       	ldd	r31, Y+13	; 0x0d
    2844:	82 2b       	or	r24, r18
    2846:	09 95       	icall
    2848:	8c 83       	std	Y+4, r24	; 0x04
    284a:	80 e0       	ldi	r24, 0x00	; 0
    284c:	90 e0       	ldi	r25, 0x00	; 0
    284e:	25 c6       	rjmp	.+3146   	; 0x349a <cpu_8080_step+0x1440>
    2850:	88 81       	ld	r24, Y
    2852:	8c 83       	std	Y+4, r24	; 0x04
    2854:	80 e0       	ldi	r24, 0x00	; 0
    2856:	90 e0       	ldi	r25, 0x00	; 0
    2858:	20 c6       	rjmp	.+3136   	; 0x349a <cpu_8080_step+0x1440>
    285a:	8a 81       	ldd	r24, Y+2	; 0x02
    285c:	8d 83       	std	Y+5, r24	; 0x05
    285e:	80 e0       	ldi	r24, 0x00	; 0
    2860:	90 e0       	ldi	r25, 0x00	; 0
    2862:	1b c6       	rjmp	.+3126   	; 0x349a <cpu_8080_step+0x1440>
    2864:	8b 81       	ldd	r24, Y+3	; 0x03
    2866:	8d 83       	std	Y+5, r24	; 0x05
    2868:	80 e0       	ldi	r24, 0x00	; 0
    286a:	90 e0       	ldi	r25, 0x00	; 0
    286c:	16 c6       	rjmp	.+3116   	; 0x349a <cpu_8080_step+0x1440>
    286e:	8c 81       	ldd	r24, Y+4	; 0x04
    2870:	8d 83       	std	Y+5, r24	; 0x05
    2872:	80 e0       	ldi	r24, 0x00	; 0
    2874:	90 e0       	ldi	r25, 0x00	; 0
    2876:	11 c6       	rjmp	.+3106   	; 0x349a <cpu_8080_step+0x1440>
    2878:	8e 81       	ldd	r24, Y+6	; 0x06
    287a:	8d 83       	std	Y+5, r24	; 0x05
    287c:	80 e0       	ldi	r24, 0x00	; 0
    287e:	90 e0       	ldi	r25, 0x00	; 0
    2880:	0c c6       	rjmp	.+3096   	; 0x349a <cpu_8080_step+0x1440>
    2882:	8f 81       	ldd	r24, Y+7	; 0x07
    2884:	8d 83       	std	Y+5, r24	; 0x05
    2886:	80 e0       	ldi	r24, 0x00	; 0
    2888:	90 e0       	ldi	r25, 0x00	; 0
    288a:	07 c6       	rjmp	.+3086   	; 0x349a <cpu_8080_step+0x1440>
    288c:	8e 81       	ldd	r24, Y+6	; 0x06
    288e:	90 e0       	ldi	r25, 0x00	; 0
    2890:	98 2f       	mov	r25, r24
    2892:	88 27       	eor	r24, r24
    2894:	2f 81       	ldd	r18, Y+7	; 0x07
    2896:	ec 85       	ldd	r30, Y+12	; 0x0c
    2898:	fd 85       	ldd	r31, Y+13	; 0x0d
    289a:	82 2b       	or	r24, r18
    289c:	09 95       	icall
    289e:	8d 83       	std	Y+5, r24	; 0x05
    28a0:	80 e0       	ldi	r24, 0x00	; 0
    28a2:	90 e0       	ldi	r25, 0x00	; 0
    28a4:	fa c5       	rjmp	.+3060   	; 0x349a <cpu_8080_step+0x1440>
    28a6:	88 81       	ld	r24, Y
    28a8:	8d 83       	std	Y+5, r24	; 0x05
    28aa:	80 e0       	ldi	r24, 0x00	; 0
    28ac:	90 e0       	ldi	r25, 0x00	; 0
    28ae:	f5 c5       	rjmp	.+3050   	; 0x349a <cpu_8080_step+0x1440>
    28b0:	8a 81       	ldd	r24, Y+2	; 0x02
    28b2:	8e 83       	std	Y+6, r24	; 0x06
    28b4:	80 e0       	ldi	r24, 0x00	; 0
    28b6:	90 e0       	ldi	r25, 0x00	; 0
    28b8:	f0 c5       	rjmp	.+3040   	; 0x349a <cpu_8080_step+0x1440>
    28ba:	8b 81       	ldd	r24, Y+3	; 0x03
    28bc:	8e 83       	std	Y+6, r24	; 0x06
    28be:	80 e0       	ldi	r24, 0x00	; 0
    28c0:	90 e0       	ldi	r25, 0x00	; 0
    28c2:	eb c5       	rjmp	.+3030   	; 0x349a <cpu_8080_step+0x1440>
    28c4:	8c 81       	ldd	r24, Y+4	; 0x04
    28c6:	8e 83       	std	Y+6, r24	; 0x06
    28c8:	80 e0       	ldi	r24, 0x00	; 0
    28ca:	90 e0       	ldi	r25, 0x00	; 0
    28cc:	e6 c5       	rjmp	.+3020   	; 0x349a <cpu_8080_step+0x1440>
    28ce:	8d 81       	ldd	r24, Y+5	; 0x05
    28d0:	8e 83       	std	Y+6, r24	; 0x06
    28d2:	80 e0       	ldi	r24, 0x00	; 0
    28d4:	90 e0       	ldi	r25, 0x00	; 0
    28d6:	e1 c5       	rjmp	.+3010   	; 0x349a <cpu_8080_step+0x1440>
    28d8:	8f 81       	ldd	r24, Y+7	; 0x07
    28da:	8e 83       	std	Y+6, r24	; 0x06
    28dc:	80 e0       	ldi	r24, 0x00	; 0
    28de:	90 e0       	ldi	r25, 0x00	; 0
    28e0:	dc c5       	rjmp	.+3000   	; 0x349a <cpu_8080_step+0x1440>
    28e2:	8e 81       	ldd	r24, Y+6	; 0x06
    28e4:	90 e0       	ldi	r25, 0x00	; 0
    28e6:	98 2f       	mov	r25, r24
    28e8:	88 27       	eor	r24, r24
    28ea:	2f 81       	ldd	r18, Y+7	; 0x07
    28ec:	ec 85       	ldd	r30, Y+12	; 0x0c
    28ee:	fd 85       	ldd	r31, Y+13	; 0x0d
    28f0:	82 2b       	or	r24, r18
    28f2:	09 95       	icall
    28f4:	8e 83       	std	Y+6, r24	; 0x06
    28f6:	80 e0       	ldi	r24, 0x00	; 0
    28f8:	90 e0       	ldi	r25, 0x00	; 0
    28fa:	cf c5       	rjmp	.+2974   	; 0x349a <cpu_8080_step+0x1440>
    28fc:	88 81       	ld	r24, Y
    28fe:	8e 83       	std	Y+6, r24	; 0x06
    2900:	80 e0       	ldi	r24, 0x00	; 0
    2902:	90 e0       	ldi	r25, 0x00	; 0
    2904:	ca c5       	rjmp	.+2964   	; 0x349a <cpu_8080_step+0x1440>
    2906:	8a 81       	ldd	r24, Y+2	; 0x02
    2908:	8f 83       	std	Y+7, r24	; 0x07
    290a:	80 e0       	ldi	r24, 0x00	; 0
    290c:	90 e0       	ldi	r25, 0x00	; 0
    290e:	c5 c5       	rjmp	.+2954   	; 0x349a <cpu_8080_step+0x1440>
    2910:	8b 81       	ldd	r24, Y+3	; 0x03
    2912:	8f 83       	std	Y+7, r24	; 0x07
    2914:	80 e0       	ldi	r24, 0x00	; 0
    2916:	90 e0       	ldi	r25, 0x00	; 0
    2918:	c0 c5       	rjmp	.+2944   	; 0x349a <cpu_8080_step+0x1440>
    291a:	8c 81       	ldd	r24, Y+4	; 0x04
    291c:	8f 83       	std	Y+7, r24	; 0x07
    291e:	80 e0       	ldi	r24, 0x00	; 0
    2920:	90 e0       	ldi	r25, 0x00	; 0
    2922:	bb c5       	rjmp	.+2934   	; 0x349a <cpu_8080_step+0x1440>
    2924:	8d 81       	ldd	r24, Y+5	; 0x05
    2926:	8f 83       	std	Y+7, r24	; 0x07
    2928:	80 e0       	ldi	r24, 0x00	; 0
    292a:	90 e0       	ldi	r25, 0x00	; 0
    292c:	b6 c5       	rjmp	.+2924   	; 0x349a <cpu_8080_step+0x1440>
    292e:	8e 81       	ldd	r24, Y+6	; 0x06
    2930:	8f 83       	std	Y+7, r24	; 0x07
    2932:	80 e0       	ldi	r24, 0x00	; 0
    2934:	90 e0       	ldi	r25, 0x00	; 0
    2936:	b1 c5       	rjmp	.+2914   	; 0x349a <cpu_8080_step+0x1440>
    2938:	8e 81       	ldd	r24, Y+6	; 0x06
    293a:	90 e0       	ldi	r25, 0x00	; 0
    293c:	98 2f       	mov	r25, r24
    293e:	88 27       	eor	r24, r24
    2940:	2f 81       	ldd	r18, Y+7	; 0x07
    2942:	ec 85       	ldd	r30, Y+12	; 0x0c
    2944:	fd 85       	ldd	r31, Y+13	; 0x0d
    2946:	82 2b       	or	r24, r18
    2948:	09 95       	icall
    294a:	8f 83       	std	Y+7, r24	; 0x07
    294c:	80 e0       	ldi	r24, 0x00	; 0
    294e:	90 e0       	ldi	r25, 0x00	; 0
    2950:	a4 c5       	rjmp	.+2888   	; 0x349a <cpu_8080_step+0x1440>
    2952:	88 81       	ld	r24, Y
    2954:	8f 83       	std	Y+7, r24	; 0x07
    2956:	80 e0       	ldi	r24, 0x00	; 0
    2958:	90 e0       	ldi	r25, 0x00	; 0
    295a:	9f c5       	rjmp	.+2878   	; 0x349a <cpu_8080_step+0x1440>
    295c:	8e 81       	ldd	r24, Y+6	; 0x06
    295e:	90 e0       	ldi	r25, 0x00	; 0
    2960:	98 2f       	mov	r25, r24
    2962:	88 27       	eor	r24, r24
    2964:	2f 81       	ldd	r18, Y+7	; 0x07
    2966:	ee 85       	ldd	r30, Y+14	; 0x0e
    2968:	ff 85       	ldd	r31, Y+15	; 0x0f
    296a:	6a 81       	ldd	r22, Y+2	; 0x02
    296c:	82 2b       	or	r24, r18
    296e:	09 95       	icall
    2970:	80 e0       	ldi	r24, 0x00	; 0
    2972:	90 e0       	ldi	r25, 0x00	; 0
    2974:	92 c5       	rjmp	.+2852   	; 0x349a <cpu_8080_step+0x1440>
    2976:	8e 81       	ldd	r24, Y+6	; 0x06
    2978:	90 e0       	ldi	r25, 0x00	; 0
    297a:	98 2f       	mov	r25, r24
    297c:	88 27       	eor	r24, r24
    297e:	2f 81       	ldd	r18, Y+7	; 0x07
    2980:	ee 85       	ldd	r30, Y+14	; 0x0e
    2982:	ff 85       	ldd	r31, Y+15	; 0x0f
    2984:	6b 81       	ldd	r22, Y+3	; 0x03
    2986:	82 2b       	or	r24, r18
    2988:	09 95       	icall
    298a:	80 e0       	ldi	r24, 0x00	; 0
    298c:	90 e0       	ldi	r25, 0x00	; 0
    298e:	85 c5       	rjmp	.+2826   	; 0x349a <cpu_8080_step+0x1440>
    2990:	8e 81       	ldd	r24, Y+6	; 0x06
    2992:	90 e0       	ldi	r25, 0x00	; 0
    2994:	98 2f       	mov	r25, r24
    2996:	88 27       	eor	r24, r24
    2998:	2f 81       	ldd	r18, Y+7	; 0x07
    299a:	ee 85       	ldd	r30, Y+14	; 0x0e
    299c:	ff 85       	ldd	r31, Y+15	; 0x0f
    299e:	6c 81       	ldd	r22, Y+4	; 0x04
    29a0:	82 2b       	or	r24, r18
    29a2:	09 95       	icall
    29a4:	80 e0       	ldi	r24, 0x00	; 0
    29a6:	90 e0       	ldi	r25, 0x00	; 0
    29a8:	78 c5       	rjmp	.+2800   	; 0x349a <cpu_8080_step+0x1440>
    29aa:	8e 81       	ldd	r24, Y+6	; 0x06
    29ac:	90 e0       	ldi	r25, 0x00	; 0
    29ae:	98 2f       	mov	r25, r24
    29b0:	88 27       	eor	r24, r24
    29b2:	2f 81       	ldd	r18, Y+7	; 0x07
    29b4:	ee 85       	ldd	r30, Y+14	; 0x0e
    29b6:	ff 85       	ldd	r31, Y+15	; 0x0f
    29b8:	6d 81       	ldd	r22, Y+5	; 0x05
    29ba:	82 2b       	or	r24, r18
    29bc:	09 95       	icall
    29be:	80 e0       	ldi	r24, 0x00	; 0
    29c0:	90 e0       	ldi	r25, 0x00	; 0
    29c2:	6b c5       	rjmp	.+2774   	; 0x349a <cpu_8080_step+0x1440>
    29c4:	2e 81       	ldd	r18, Y+6	; 0x06
    29c6:	8f 81       	ldd	r24, Y+7	; 0x07
    29c8:	90 e0       	ldi	r25, 0x00	; 0
    29ca:	ee 85       	ldd	r30, Y+14	; 0x0e
    29cc:	ff 85       	ldd	r31, Y+15	; 0x0f
    29ce:	62 2f       	mov	r22, r18
    29d0:	92 2b       	or	r25, r18
    29d2:	09 95       	icall
    29d4:	80 e0       	ldi	r24, 0x00	; 0
    29d6:	90 e0       	ldi	r25, 0x00	; 0
    29d8:	60 c5       	rjmp	.+2752   	; 0x349a <cpu_8080_step+0x1440>
    29da:	6f 81       	ldd	r22, Y+7	; 0x07
    29dc:	2e 81       	ldd	r18, Y+6	; 0x06
    29de:	86 2f       	mov	r24, r22
    29e0:	90 e0       	ldi	r25, 0x00	; 0
    29e2:	ee 85       	ldd	r30, Y+14	; 0x0e
    29e4:	ff 85       	ldd	r31, Y+15	; 0x0f
    29e6:	92 2b       	or	r25, r18
    29e8:	09 95       	icall
    29ea:	80 e0       	ldi	r24, 0x00	; 0
    29ec:	90 e0       	ldi	r25, 0x00	; 0
    29ee:	55 c5       	rjmp	.+2730   	; 0x349a <cpu_8080_step+0x1440>
    29f0:	8e 81       	ldd	r24, Y+6	; 0x06
    29f2:	90 e0       	ldi	r25, 0x00	; 0
    29f4:	98 2f       	mov	r25, r24
    29f6:	88 27       	eor	r24, r24
    29f8:	2f 81       	ldd	r18, Y+7	; 0x07
    29fa:	ee 85       	ldd	r30, Y+14	; 0x0e
    29fc:	ff 85       	ldd	r31, Y+15	; 0x0f
    29fe:	68 81       	ld	r22, Y
    2a00:	82 2b       	or	r24, r18
    2a02:	09 95       	icall
    2a04:	80 e0       	ldi	r24, 0x00	; 0
    2a06:	90 e0       	ldi	r25, 0x00	; 0
    2a08:	48 c5       	rjmp	.+2704   	; 0x349a <cpu_8080_step+0x1440>
    2a0a:	8a 81       	ldd	r24, Y+2	; 0x02
    2a0c:	88 83       	st	Y, r24
    2a0e:	80 e0       	ldi	r24, 0x00	; 0
    2a10:	90 e0       	ldi	r25, 0x00	; 0
    2a12:	43 c5       	rjmp	.+2694   	; 0x349a <cpu_8080_step+0x1440>
    2a14:	8b 81       	ldd	r24, Y+3	; 0x03
    2a16:	88 83       	st	Y, r24
    2a18:	80 e0       	ldi	r24, 0x00	; 0
    2a1a:	90 e0       	ldi	r25, 0x00	; 0
    2a1c:	3e c5       	rjmp	.+2684   	; 0x349a <cpu_8080_step+0x1440>
    2a1e:	8c 81       	ldd	r24, Y+4	; 0x04
    2a20:	88 83       	st	Y, r24
    2a22:	80 e0       	ldi	r24, 0x00	; 0
    2a24:	90 e0       	ldi	r25, 0x00	; 0
    2a26:	39 c5       	rjmp	.+2674   	; 0x349a <cpu_8080_step+0x1440>
    2a28:	8d 81       	ldd	r24, Y+5	; 0x05
    2a2a:	88 83       	st	Y, r24
    2a2c:	80 e0       	ldi	r24, 0x00	; 0
    2a2e:	90 e0       	ldi	r25, 0x00	; 0
    2a30:	34 c5       	rjmp	.+2664   	; 0x349a <cpu_8080_step+0x1440>
    2a32:	8e 81       	ldd	r24, Y+6	; 0x06
    2a34:	88 83       	st	Y, r24
    2a36:	80 e0       	ldi	r24, 0x00	; 0
    2a38:	90 e0       	ldi	r25, 0x00	; 0
    2a3a:	2f c5       	rjmp	.+2654   	; 0x349a <cpu_8080_step+0x1440>
    2a3c:	8f 81       	ldd	r24, Y+7	; 0x07
    2a3e:	88 83       	st	Y, r24
    2a40:	80 e0       	ldi	r24, 0x00	; 0
    2a42:	90 e0       	ldi	r25, 0x00	; 0
    2a44:	2a c5       	rjmp	.+2644   	; 0x349a <cpu_8080_step+0x1440>
    2a46:	8e 81       	ldd	r24, Y+6	; 0x06
    2a48:	90 e0       	ldi	r25, 0x00	; 0
    2a4a:	98 2f       	mov	r25, r24
    2a4c:	88 27       	eor	r24, r24
    2a4e:	2f 81       	ldd	r18, Y+7	; 0x07
    2a50:	ec 85       	ldd	r30, Y+12	; 0x0c
    2a52:	fd 85       	ldd	r31, Y+13	; 0x0d
    2a54:	82 2b       	or	r24, r18
    2a56:	09 95       	icall
    2a58:	88 83       	st	Y, r24
    2a5a:	80 e0       	ldi	r24, 0x00	; 0
    2a5c:	90 e0       	ldi	r25, 0x00	; 0
    2a5e:	1d c5       	rjmp	.+2618   	; 0x349a <cpu_8080_step+0x1440>
    2a60:	6a 81       	ldd	r22, Y+2	; 0x02
    2a62:	ce 01       	movw	r24, r28
    2a64:	0e 94 66 0f 	call	0x1ecc	; 0x1ecc <add>
    2a68:	88 83       	st	Y, r24
    2a6a:	80 e0       	ldi	r24, 0x00	; 0
    2a6c:	90 e0       	ldi	r25, 0x00	; 0
    2a6e:	15 c5       	rjmp	.+2602   	; 0x349a <cpu_8080_step+0x1440>
    2a70:	6b 81       	ldd	r22, Y+3	; 0x03
    2a72:	ce 01       	movw	r24, r28
    2a74:	0e 94 66 0f 	call	0x1ecc	; 0x1ecc <add>
    2a78:	88 83       	st	Y, r24
    2a7a:	80 e0       	ldi	r24, 0x00	; 0
    2a7c:	90 e0       	ldi	r25, 0x00	; 0
    2a7e:	0d c5       	rjmp	.+2586   	; 0x349a <cpu_8080_step+0x1440>
    2a80:	6c 81       	ldd	r22, Y+4	; 0x04
    2a82:	ce 01       	movw	r24, r28
    2a84:	0e 94 66 0f 	call	0x1ecc	; 0x1ecc <add>
    2a88:	88 83       	st	Y, r24
    2a8a:	80 e0       	ldi	r24, 0x00	; 0
    2a8c:	90 e0       	ldi	r25, 0x00	; 0
    2a8e:	05 c5       	rjmp	.+2570   	; 0x349a <cpu_8080_step+0x1440>
    2a90:	6d 81       	ldd	r22, Y+5	; 0x05
    2a92:	ce 01       	movw	r24, r28
    2a94:	0e 94 66 0f 	call	0x1ecc	; 0x1ecc <add>
    2a98:	88 83       	st	Y, r24
    2a9a:	80 e0       	ldi	r24, 0x00	; 0
    2a9c:	90 e0       	ldi	r25, 0x00	; 0
    2a9e:	fd c4       	rjmp	.+2554   	; 0x349a <cpu_8080_step+0x1440>
    2aa0:	6e 81       	ldd	r22, Y+6	; 0x06
    2aa2:	ce 01       	movw	r24, r28
    2aa4:	0e 94 66 0f 	call	0x1ecc	; 0x1ecc <add>
    2aa8:	88 83       	st	Y, r24
    2aaa:	80 e0       	ldi	r24, 0x00	; 0
    2aac:	90 e0       	ldi	r25, 0x00	; 0
    2aae:	f5 c4       	rjmp	.+2538   	; 0x349a <cpu_8080_step+0x1440>
    2ab0:	6f 81       	ldd	r22, Y+7	; 0x07
    2ab2:	ce 01       	movw	r24, r28
    2ab4:	0e 94 66 0f 	call	0x1ecc	; 0x1ecc <add>
    2ab8:	88 83       	st	Y, r24
    2aba:	80 e0       	ldi	r24, 0x00	; 0
    2abc:	90 e0       	ldi	r25, 0x00	; 0
    2abe:	ed c4       	rjmp	.+2522   	; 0x349a <cpu_8080_step+0x1440>
    2ac0:	8e 81       	ldd	r24, Y+6	; 0x06
    2ac2:	90 e0       	ldi	r25, 0x00	; 0
    2ac4:	98 2f       	mov	r25, r24
    2ac6:	88 27       	eor	r24, r24
    2ac8:	2f 81       	ldd	r18, Y+7	; 0x07
    2aca:	ec 85       	ldd	r30, Y+12	; 0x0c
    2acc:	fd 85       	ldd	r31, Y+13	; 0x0d
    2ace:	82 2b       	or	r24, r18
    2ad0:	09 95       	icall
    2ad2:	68 2f       	mov	r22, r24
    2ad4:	ce 01       	movw	r24, r28
    2ad6:	0e 94 66 0f 	call	0x1ecc	; 0x1ecc <add>
    2ada:	88 83       	st	Y, r24
    2adc:	80 e0       	ldi	r24, 0x00	; 0
    2ade:	90 e0       	ldi	r25, 0x00	; 0
    2ae0:	dc c4       	rjmp	.+2488   	; 0x349a <cpu_8080_step+0x1440>
    2ae2:	68 81       	ld	r22, Y
    2ae4:	ce 01       	movw	r24, r28
    2ae6:	0e 94 66 0f 	call	0x1ecc	; 0x1ecc <add>
    2aea:	88 83       	st	Y, r24
    2aec:	80 e0       	ldi	r24, 0x00	; 0
    2aee:	90 e0       	ldi	r25, 0x00	; 0
    2af0:	d4 c4       	rjmp	.+2472   	; 0x349a <cpu_8080_step+0x1440>
    2af2:	6a 81       	ldd	r22, Y+2	; 0x02
    2af4:	ce 01       	movw	r24, r28
    2af6:	0e 94 84 0f 	call	0x1f08	; 0x1f08 <adc>
    2afa:	88 83       	st	Y, r24
    2afc:	80 e0       	ldi	r24, 0x00	; 0
    2afe:	90 e0       	ldi	r25, 0x00	; 0
    2b00:	cc c4       	rjmp	.+2456   	; 0x349a <cpu_8080_step+0x1440>
    2b02:	6b 81       	ldd	r22, Y+3	; 0x03
    2b04:	ce 01       	movw	r24, r28
    2b06:	0e 94 84 0f 	call	0x1f08	; 0x1f08 <adc>
    2b0a:	88 83       	st	Y, r24
    2b0c:	80 e0       	ldi	r24, 0x00	; 0
    2b0e:	90 e0       	ldi	r25, 0x00	; 0
    2b10:	c4 c4       	rjmp	.+2440   	; 0x349a <cpu_8080_step+0x1440>
    2b12:	6c 81       	ldd	r22, Y+4	; 0x04
    2b14:	ce 01       	movw	r24, r28
    2b16:	0e 94 84 0f 	call	0x1f08	; 0x1f08 <adc>
    2b1a:	88 83       	st	Y, r24
    2b1c:	80 e0       	ldi	r24, 0x00	; 0
    2b1e:	90 e0       	ldi	r25, 0x00	; 0
    2b20:	bc c4       	rjmp	.+2424   	; 0x349a <cpu_8080_step+0x1440>
    2b22:	6d 81       	ldd	r22, Y+5	; 0x05
    2b24:	ce 01       	movw	r24, r28
    2b26:	0e 94 84 0f 	call	0x1f08	; 0x1f08 <adc>
    2b2a:	88 83       	st	Y, r24
    2b2c:	80 e0       	ldi	r24, 0x00	; 0
    2b2e:	90 e0       	ldi	r25, 0x00	; 0
    2b30:	b4 c4       	rjmp	.+2408   	; 0x349a <cpu_8080_step+0x1440>
    2b32:	6e 81       	ldd	r22, Y+6	; 0x06
    2b34:	ce 01       	movw	r24, r28
    2b36:	0e 94 84 0f 	call	0x1f08	; 0x1f08 <adc>
    2b3a:	88 83       	st	Y, r24
    2b3c:	80 e0       	ldi	r24, 0x00	; 0
    2b3e:	90 e0       	ldi	r25, 0x00	; 0
    2b40:	ac c4       	rjmp	.+2392   	; 0x349a <cpu_8080_step+0x1440>
    2b42:	6f 81       	ldd	r22, Y+7	; 0x07
    2b44:	ce 01       	movw	r24, r28
    2b46:	0e 94 84 0f 	call	0x1f08	; 0x1f08 <adc>
    2b4a:	88 83       	st	Y, r24
    2b4c:	80 e0       	ldi	r24, 0x00	; 0
    2b4e:	90 e0       	ldi	r25, 0x00	; 0
    2b50:	a4 c4       	rjmp	.+2376   	; 0x349a <cpu_8080_step+0x1440>
    2b52:	8e 81       	ldd	r24, Y+6	; 0x06
    2b54:	90 e0       	ldi	r25, 0x00	; 0
    2b56:	98 2f       	mov	r25, r24
    2b58:	88 27       	eor	r24, r24
    2b5a:	2f 81       	ldd	r18, Y+7	; 0x07
    2b5c:	ec 85       	ldd	r30, Y+12	; 0x0c
    2b5e:	fd 85       	ldd	r31, Y+13	; 0x0d
    2b60:	82 2b       	or	r24, r18
    2b62:	09 95       	icall
    2b64:	68 2f       	mov	r22, r24
    2b66:	ce 01       	movw	r24, r28
    2b68:	0e 94 84 0f 	call	0x1f08	; 0x1f08 <adc>
    2b6c:	88 83       	st	Y, r24
    2b6e:	80 e0       	ldi	r24, 0x00	; 0
    2b70:	90 e0       	ldi	r25, 0x00	; 0
    2b72:	93 c4       	rjmp	.+2342   	; 0x349a <cpu_8080_step+0x1440>
    2b74:	68 81       	ld	r22, Y
    2b76:	ce 01       	movw	r24, r28
    2b78:	0e 94 84 0f 	call	0x1f08	; 0x1f08 <adc>
    2b7c:	88 83       	st	Y, r24
    2b7e:	80 e0       	ldi	r24, 0x00	; 0
    2b80:	90 e0       	ldi	r25, 0x00	; 0
    2b82:	8b c4       	rjmp	.+2326   	; 0x349a <cpu_8080_step+0x1440>
    2b84:	6a 81       	ldd	r22, Y+2	; 0x02
    2b86:	ce 01       	movw	r24, r28
    2b88:	0e 94 ad 0f 	call	0x1f5a	; 0x1f5a <sub>
    2b8c:	88 83       	st	Y, r24
    2b8e:	80 e0       	ldi	r24, 0x00	; 0
    2b90:	90 e0       	ldi	r25, 0x00	; 0
    2b92:	83 c4       	rjmp	.+2310   	; 0x349a <cpu_8080_step+0x1440>
    2b94:	6b 81       	ldd	r22, Y+3	; 0x03
    2b96:	ce 01       	movw	r24, r28
    2b98:	0e 94 ad 0f 	call	0x1f5a	; 0x1f5a <sub>
    2b9c:	88 83       	st	Y, r24
    2b9e:	80 e0       	ldi	r24, 0x00	; 0
    2ba0:	90 e0       	ldi	r25, 0x00	; 0
    2ba2:	7b c4       	rjmp	.+2294   	; 0x349a <cpu_8080_step+0x1440>
    2ba4:	6c 81       	ldd	r22, Y+4	; 0x04
    2ba6:	ce 01       	movw	r24, r28
    2ba8:	0e 94 ad 0f 	call	0x1f5a	; 0x1f5a <sub>
    2bac:	88 83       	st	Y, r24
    2bae:	80 e0       	ldi	r24, 0x00	; 0
    2bb0:	90 e0       	ldi	r25, 0x00	; 0
    2bb2:	73 c4       	rjmp	.+2278   	; 0x349a <cpu_8080_step+0x1440>
    2bb4:	6d 81       	ldd	r22, Y+5	; 0x05
    2bb6:	ce 01       	movw	r24, r28
    2bb8:	0e 94 ad 0f 	call	0x1f5a	; 0x1f5a <sub>
    2bbc:	88 83       	st	Y, r24
    2bbe:	80 e0       	ldi	r24, 0x00	; 0
    2bc0:	90 e0       	ldi	r25, 0x00	; 0
    2bc2:	6b c4       	rjmp	.+2262   	; 0x349a <cpu_8080_step+0x1440>
    2bc4:	6e 81       	ldd	r22, Y+6	; 0x06
    2bc6:	ce 01       	movw	r24, r28
    2bc8:	0e 94 ad 0f 	call	0x1f5a	; 0x1f5a <sub>
    2bcc:	88 83       	st	Y, r24
    2bce:	80 e0       	ldi	r24, 0x00	; 0
    2bd0:	90 e0       	ldi	r25, 0x00	; 0
    2bd2:	63 c4       	rjmp	.+2246   	; 0x349a <cpu_8080_step+0x1440>
    2bd4:	6f 81       	ldd	r22, Y+7	; 0x07
    2bd6:	ce 01       	movw	r24, r28
    2bd8:	0e 94 ad 0f 	call	0x1f5a	; 0x1f5a <sub>
    2bdc:	88 83       	st	Y, r24
    2bde:	80 e0       	ldi	r24, 0x00	; 0
    2be0:	90 e0       	ldi	r25, 0x00	; 0
    2be2:	5b c4       	rjmp	.+2230   	; 0x349a <cpu_8080_step+0x1440>
    2be4:	8e 81       	ldd	r24, Y+6	; 0x06
    2be6:	90 e0       	ldi	r25, 0x00	; 0
    2be8:	98 2f       	mov	r25, r24
    2bea:	88 27       	eor	r24, r24
    2bec:	2f 81       	ldd	r18, Y+7	; 0x07
    2bee:	ec 85       	ldd	r30, Y+12	; 0x0c
    2bf0:	fd 85       	ldd	r31, Y+13	; 0x0d
    2bf2:	82 2b       	or	r24, r18
    2bf4:	09 95       	icall
    2bf6:	68 2f       	mov	r22, r24
    2bf8:	ce 01       	movw	r24, r28
    2bfa:	0e 94 ad 0f 	call	0x1f5a	; 0x1f5a <sub>
    2bfe:	88 83       	st	Y, r24
    2c00:	80 e0       	ldi	r24, 0x00	; 0
    2c02:	90 e0       	ldi	r25, 0x00	; 0
    2c04:	4a c4       	rjmp	.+2196   	; 0x349a <cpu_8080_step+0x1440>
    2c06:	68 81       	ld	r22, Y
    2c08:	ce 01       	movw	r24, r28
    2c0a:	0e 94 ad 0f 	call	0x1f5a	; 0x1f5a <sub>
    2c0e:	88 83       	st	Y, r24
    2c10:	80 e0       	ldi	r24, 0x00	; 0
    2c12:	90 e0       	ldi	r25, 0x00	; 0
    2c14:	42 c4       	rjmp	.+2180   	; 0x349a <cpu_8080_step+0x1440>
    2c16:	6a 81       	ldd	r22, Y+2	; 0x02
    2c18:	ce 01       	movw	r24, r28
    2c1a:	0e 94 cb 0f 	call	0x1f96	; 0x1f96 <sbb>
    2c1e:	88 83       	st	Y, r24
    2c20:	80 e0       	ldi	r24, 0x00	; 0
    2c22:	90 e0       	ldi	r25, 0x00	; 0
    2c24:	3a c4       	rjmp	.+2164   	; 0x349a <cpu_8080_step+0x1440>
    2c26:	6b 81       	ldd	r22, Y+3	; 0x03
    2c28:	ce 01       	movw	r24, r28
    2c2a:	0e 94 cb 0f 	call	0x1f96	; 0x1f96 <sbb>
    2c2e:	88 83       	st	Y, r24
    2c30:	80 e0       	ldi	r24, 0x00	; 0
    2c32:	90 e0       	ldi	r25, 0x00	; 0
    2c34:	32 c4       	rjmp	.+2148   	; 0x349a <cpu_8080_step+0x1440>
    2c36:	6c 81       	ldd	r22, Y+4	; 0x04
    2c38:	ce 01       	movw	r24, r28
    2c3a:	0e 94 cb 0f 	call	0x1f96	; 0x1f96 <sbb>
    2c3e:	88 83       	st	Y, r24
    2c40:	80 e0       	ldi	r24, 0x00	; 0
    2c42:	90 e0       	ldi	r25, 0x00	; 0
    2c44:	2a c4       	rjmp	.+2132   	; 0x349a <cpu_8080_step+0x1440>
    2c46:	6d 81       	ldd	r22, Y+5	; 0x05
    2c48:	ce 01       	movw	r24, r28
    2c4a:	0e 94 cb 0f 	call	0x1f96	; 0x1f96 <sbb>
    2c4e:	88 83       	st	Y, r24
    2c50:	80 e0       	ldi	r24, 0x00	; 0
    2c52:	90 e0       	ldi	r25, 0x00	; 0
    2c54:	22 c4       	rjmp	.+2116   	; 0x349a <cpu_8080_step+0x1440>
    2c56:	6e 81       	ldd	r22, Y+6	; 0x06
    2c58:	ce 01       	movw	r24, r28
    2c5a:	0e 94 cb 0f 	call	0x1f96	; 0x1f96 <sbb>
    2c5e:	88 83       	st	Y, r24
    2c60:	80 e0       	ldi	r24, 0x00	; 0
    2c62:	90 e0       	ldi	r25, 0x00	; 0
    2c64:	1a c4       	rjmp	.+2100   	; 0x349a <cpu_8080_step+0x1440>
    2c66:	6f 81       	ldd	r22, Y+7	; 0x07
    2c68:	ce 01       	movw	r24, r28
    2c6a:	0e 94 cb 0f 	call	0x1f96	; 0x1f96 <sbb>
    2c6e:	88 83       	st	Y, r24
    2c70:	80 e0       	ldi	r24, 0x00	; 0
    2c72:	90 e0       	ldi	r25, 0x00	; 0
    2c74:	12 c4       	rjmp	.+2084   	; 0x349a <cpu_8080_step+0x1440>
    2c76:	8e 81       	ldd	r24, Y+6	; 0x06
    2c78:	90 e0       	ldi	r25, 0x00	; 0
    2c7a:	98 2f       	mov	r25, r24
    2c7c:	88 27       	eor	r24, r24
    2c7e:	2f 81       	ldd	r18, Y+7	; 0x07
    2c80:	ec 85       	ldd	r30, Y+12	; 0x0c
    2c82:	fd 85       	ldd	r31, Y+13	; 0x0d
    2c84:	82 2b       	or	r24, r18
    2c86:	09 95       	icall
    2c88:	68 2f       	mov	r22, r24
    2c8a:	ce 01       	movw	r24, r28
    2c8c:	0e 94 cb 0f 	call	0x1f96	; 0x1f96 <sbb>
    2c90:	88 83       	st	Y, r24
    2c92:	80 e0       	ldi	r24, 0x00	; 0
    2c94:	90 e0       	ldi	r25, 0x00	; 0
    2c96:	01 c4       	rjmp	.+2050   	; 0x349a <cpu_8080_step+0x1440>
    2c98:	68 81       	ld	r22, Y
    2c9a:	ce 01       	movw	r24, r28
    2c9c:	0e 94 cb 0f 	call	0x1f96	; 0x1f96 <sbb>
    2ca0:	88 83       	st	Y, r24
    2ca2:	80 e0       	ldi	r24, 0x00	; 0
    2ca4:	90 e0       	ldi	r25, 0x00	; 0
    2ca6:	f9 c3       	rjmp	.+2034   	; 0x349a <cpu_8080_step+0x1440>
    2ca8:	6a 81       	ldd	r22, Y+2	; 0x02
    2caa:	ce 01       	movw	r24, r28
    2cac:	0e 94 fa 0f 	call	0x1ff4	; 0x1ff4 <ana>
    2cb0:	88 83       	st	Y, r24
    2cb2:	80 e0       	ldi	r24, 0x00	; 0
    2cb4:	90 e0       	ldi	r25, 0x00	; 0
    2cb6:	f1 c3       	rjmp	.+2018   	; 0x349a <cpu_8080_step+0x1440>
    2cb8:	6b 81       	ldd	r22, Y+3	; 0x03
    2cba:	ce 01       	movw	r24, r28
    2cbc:	0e 94 fa 0f 	call	0x1ff4	; 0x1ff4 <ana>
    2cc0:	88 83       	st	Y, r24
    2cc2:	80 e0       	ldi	r24, 0x00	; 0
    2cc4:	90 e0       	ldi	r25, 0x00	; 0
    2cc6:	e9 c3       	rjmp	.+2002   	; 0x349a <cpu_8080_step+0x1440>
    2cc8:	6c 81       	ldd	r22, Y+4	; 0x04
    2cca:	ce 01       	movw	r24, r28
    2ccc:	0e 94 fa 0f 	call	0x1ff4	; 0x1ff4 <ana>
    2cd0:	88 83       	st	Y, r24
    2cd2:	80 e0       	ldi	r24, 0x00	; 0
    2cd4:	90 e0       	ldi	r25, 0x00	; 0
    2cd6:	e1 c3       	rjmp	.+1986   	; 0x349a <cpu_8080_step+0x1440>
    2cd8:	6d 81       	ldd	r22, Y+5	; 0x05
    2cda:	ce 01       	movw	r24, r28
    2cdc:	0e 94 fa 0f 	call	0x1ff4	; 0x1ff4 <ana>
    2ce0:	88 83       	st	Y, r24
    2ce2:	80 e0       	ldi	r24, 0x00	; 0
    2ce4:	90 e0       	ldi	r25, 0x00	; 0
    2ce6:	d9 c3       	rjmp	.+1970   	; 0x349a <cpu_8080_step+0x1440>
    2ce8:	6e 81       	ldd	r22, Y+6	; 0x06
    2cea:	ce 01       	movw	r24, r28
    2cec:	0e 94 fa 0f 	call	0x1ff4	; 0x1ff4 <ana>
    2cf0:	88 83       	st	Y, r24
    2cf2:	80 e0       	ldi	r24, 0x00	; 0
    2cf4:	90 e0       	ldi	r25, 0x00	; 0
    2cf6:	d1 c3       	rjmp	.+1954   	; 0x349a <cpu_8080_step+0x1440>
    2cf8:	6f 81       	ldd	r22, Y+7	; 0x07
    2cfa:	ce 01       	movw	r24, r28
    2cfc:	0e 94 fa 0f 	call	0x1ff4	; 0x1ff4 <ana>
    2d00:	88 83       	st	Y, r24
    2d02:	80 e0       	ldi	r24, 0x00	; 0
    2d04:	90 e0       	ldi	r25, 0x00	; 0
    2d06:	c9 c3       	rjmp	.+1938   	; 0x349a <cpu_8080_step+0x1440>
    2d08:	8e 81       	ldd	r24, Y+6	; 0x06
    2d0a:	90 e0       	ldi	r25, 0x00	; 0
    2d0c:	98 2f       	mov	r25, r24
    2d0e:	88 27       	eor	r24, r24
    2d10:	2f 81       	ldd	r18, Y+7	; 0x07
    2d12:	ec 85       	ldd	r30, Y+12	; 0x0c
    2d14:	fd 85       	ldd	r31, Y+13	; 0x0d
    2d16:	82 2b       	or	r24, r18
    2d18:	09 95       	icall
    2d1a:	68 2f       	mov	r22, r24
    2d1c:	ce 01       	movw	r24, r28
    2d1e:	0e 94 fa 0f 	call	0x1ff4	; 0x1ff4 <ana>
    2d22:	88 83       	st	Y, r24
    2d24:	80 e0       	ldi	r24, 0x00	; 0
    2d26:	90 e0       	ldi	r25, 0x00	; 0
    2d28:	b8 c3       	rjmp	.+1904   	; 0x349a <cpu_8080_step+0x1440>
    2d2a:	68 81       	ld	r22, Y
    2d2c:	ce 01       	movw	r24, r28
    2d2e:	0e 94 fa 0f 	call	0x1ff4	; 0x1ff4 <ana>
    2d32:	88 83       	st	Y, r24
    2d34:	80 e0       	ldi	r24, 0x00	; 0
    2d36:	90 e0       	ldi	r25, 0x00	; 0
    2d38:	b0 c3       	rjmp	.+1888   	; 0x349a <cpu_8080_step+0x1440>
    2d3a:	18 81       	ld	r17, Y
    2d3c:	8a 81       	ldd	r24, Y+2	; 0x02
    2d3e:	18 27       	eor	r17, r24
    2d40:	19 82       	std	Y+1, r1	; 0x01
    2d42:	61 2f       	mov	r22, r17
    2d44:	ce 01       	movw	r24, r28
    2d46:	01 96       	adiw	r24, 0x01	; 1
    2d48:	0e 94 1b 0f 	call	0x1e36	; 0x1e36 <flag_zsp.isra.0>
    2d4c:	18 83       	st	Y, r17
    2d4e:	80 e0       	ldi	r24, 0x00	; 0
    2d50:	90 e0       	ldi	r25, 0x00	; 0
    2d52:	a3 c3       	rjmp	.+1862   	; 0x349a <cpu_8080_step+0x1440>
    2d54:	18 81       	ld	r17, Y
    2d56:	8b 81       	ldd	r24, Y+3	; 0x03
    2d58:	18 27       	eor	r17, r24
    2d5a:	19 82       	std	Y+1, r1	; 0x01
    2d5c:	61 2f       	mov	r22, r17
    2d5e:	ce 01       	movw	r24, r28
    2d60:	01 96       	adiw	r24, 0x01	; 1
    2d62:	0e 94 1b 0f 	call	0x1e36	; 0x1e36 <flag_zsp.isra.0>
    2d66:	18 83       	st	Y, r17
    2d68:	80 e0       	ldi	r24, 0x00	; 0
    2d6a:	90 e0       	ldi	r25, 0x00	; 0
    2d6c:	96 c3       	rjmp	.+1836   	; 0x349a <cpu_8080_step+0x1440>
    2d6e:	18 81       	ld	r17, Y
    2d70:	8c 81       	ldd	r24, Y+4	; 0x04
    2d72:	18 27       	eor	r17, r24
    2d74:	19 82       	std	Y+1, r1	; 0x01
    2d76:	61 2f       	mov	r22, r17
    2d78:	ce 01       	movw	r24, r28
    2d7a:	01 96       	adiw	r24, 0x01	; 1
    2d7c:	0e 94 1b 0f 	call	0x1e36	; 0x1e36 <flag_zsp.isra.0>
    2d80:	18 83       	st	Y, r17
    2d82:	80 e0       	ldi	r24, 0x00	; 0
    2d84:	90 e0       	ldi	r25, 0x00	; 0
    2d86:	89 c3       	rjmp	.+1810   	; 0x349a <cpu_8080_step+0x1440>
    2d88:	18 81       	ld	r17, Y
    2d8a:	8d 81       	ldd	r24, Y+5	; 0x05
    2d8c:	18 27       	eor	r17, r24
    2d8e:	19 82       	std	Y+1, r1	; 0x01
    2d90:	61 2f       	mov	r22, r17
    2d92:	ce 01       	movw	r24, r28
    2d94:	01 96       	adiw	r24, 0x01	; 1
    2d96:	0e 94 1b 0f 	call	0x1e36	; 0x1e36 <flag_zsp.isra.0>
    2d9a:	18 83       	st	Y, r17
    2d9c:	80 e0       	ldi	r24, 0x00	; 0
    2d9e:	90 e0       	ldi	r25, 0x00	; 0
    2da0:	7c c3       	rjmp	.+1784   	; 0x349a <cpu_8080_step+0x1440>
    2da2:	18 81       	ld	r17, Y
    2da4:	8e 81       	ldd	r24, Y+6	; 0x06
    2da6:	18 27       	eor	r17, r24
    2da8:	19 82       	std	Y+1, r1	; 0x01
    2daa:	61 2f       	mov	r22, r17
    2dac:	ce 01       	movw	r24, r28
    2dae:	01 96       	adiw	r24, 0x01	; 1
    2db0:	0e 94 1b 0f 	call	0x1e36	; 0x1e36 <flag_zsp.isra.0>
    2db4:	18 83       	st	Y, r17
    2db6:	80 e0       	ldi	r24, 0x00	; 0
    2db8:	90 e0       	ldi	r25, 0x00	; 0
    2dba:	6f c3       	rjmp	.+1758   	; 0x349a <cpu_8080_step+0x1440>
    2dbc:	18 81       	ld	r17, Y
    2dbe:	8f 81       	ldd	r24, Y+7	; 0x07
    2dc0:	18 27       	eor	r17, r24
    2dc2:	19 82       	std	Y+1, r1	; 0x01
    2dc4:	61 2f       	mov	r22, r17
    2dc6:	ce 01       	movw	r24, r28
    2dc8:	01 96       	adiw	r24, 0x01	; 1
    2dca:	0e 94 1b 0f 	call	0x1e36	; 0x1e36 <flag_zsp.isra.0>
    2dce:	18 83       	st	Y, r17
    2dd0:	80 e0       	ldi	r24, 0x00	; 0
    2dd2:	90 e0       	ldi	r25, 0x00	; 0
    2dd4:	62 c3       	rjmp	.+1732   	; 0x349a <cpu_8080_step+0x1440>
    2dd6:	8e 81       	ldd	r24, Y+6	; 0x06
    2dd8:	90 e0       	ldi	r25, 0x00	; 0
    2dda:	98 2f       	mov	r25, r24
    2ddc:	88 27       	eor	r24, r24
    2dde:	2f 81       	ldd	r18, Y+7	; 0x07
    2de0:	ec 85       	ldd	r30, Y+12	; 0x0c
    2de2:	fd 85       	ldd	r31, Y+13	; 0x0d
    2de4:	82 2b       	or	r24, r18
    2de6:	09 95       	icall
    2de8:	18 81       	ld	r17, Y
    2dea:	18 27       	eor	r17, r24
    2dec:	19 82       	std	Y+1, r1	; 0x01
    2dee:	61 2f       	mov	r22, r17
    2df0:	ce 01       	movw	r24, r28
    2df2:	01 96       	adiw	r24, 0x01	; 1
    2df4:	0e 94 1b 0f 	call	0x1e36	; 0x1e36 <flag_zsp.isra.0>
    2df8:	18 83       	st	Y, r17
    2dfa:	80 e0       	ldi	r24, 0x00	; 0
    2dfc:	90 e0       	ldi	r25, 0x00	; 0
    2dfe:	4d c3       	rjmp	.+1690   	; 0x349a <cpu_8080_step+0x1440>
    2e00:	19 82       	std	Y+1, r1	; 0x01
    2e02:	60 e0       	ldi	r22, 0x00	; 0
    2e04:	ce 01       	movw	r24, r28
    2e06:	01 96       	adiw	r24, 0x01	; 1
    2e08:	0e 94 1b 0f 	call	0x1e36	; 0x1e36 <flag_zsp.isra.0>
    2e0c:	18 82       	st	Y, r1
    2e0e:	80 e0       	ldi	r24, 0x00	; 0
    2e10:	90 e0       	ldi	r25, 0x00	; 0
    2e12:	43 c3       	rjmp	.+1670   	; 0x349a <cpu_8080_step+0x1440>
    2e14:	18 81       	ld	r17, Y
    2e16:	8a 81       	ldd	r24, Y+2	; 0x02
    2e18:	18 2b       	or	r17, r24
    2e1a:	19 82       	std	Y+1, r1	; 0x01
    2e1c:	61 2f       	mov	r22, r17
    2e1e:	ce 01       	movw	r24, r28
    2e20:	01 96       	adiw	r24, 0x01	; 1
    2e22:	0e 94 1b 0f 	call	0x1e36	; 0x1e36 <flag_zsp.isra.0>
    2e26:	18 83       	st	Y, r17
    2e28:	80 e0       	ldi	r24, 0x00	; 0
    2e2a:	90 e0       	ldi	r25, 0x00	; 0
    2e2c:	36 c3       	rjmp	.+1644   	; 0x349a <cpu_8080_step+0x1440>
    2e2e:	18 81       	ld	r17, Y
    2e30:	8b 81       	ldd	r24, Y+3	; 0x03
    2e32:	18 2b       	or	r17, r24
    2e34:	19 82       	std	Y+1, r1	; 0x01
    2e36:	61 2f       	mov	r22, r17
    2e38:	ce 01       	movw	r24, r28
    2e3a:	01 96       	adiw	r24, 0x01	; 1
    2e3c:	0e 94 1b 0f 	call	0x1e36	; 0x1e36 <flag_zsp.isra.0>
    2e40:	18 83       	st	Y, r17
    2e42:	80 e0       	ldi	r24, 0x00	; 0
    2e44:	90 e0       	ldi	r25, 0x00	; 0
    2e46:	29 c3       	rjmp	.+1618   	; 0x349a <cpu_8080_step+0x1440>
    2e48:	18 81       	ld	r17, Y
    2e4a:	8c 81       	ldd	r24, Y+4	; 0x04
    2e4c:	18 2b       	or	r17, r24
    2e4e:	19 82       	std	Y+1, r1	; 0x01
    2e50:	61 2f       	mov	r22, r17
    2e52:	ce 01       	movw	r24, r28
    2e54:	01 96       	adiw	r24, 0x01	; 1
    2e56:	0e 94 1b 0f 	call	0x1e36	; 0x1e36 <flag_zsp.isra.0>
    2e5a:	18 83       	st	Y, r17
    2e5c:	80 e0       	ldi	r24, 0x00	; 0
    2e5e:	90 e0       	ldi	r25, 0x00	; 0
    2e60:	1c c3       	rjmp	.+1592   	; 0x349a <cpu_8080_step+0x1440>
    2e62:	18 81       	ld	r17, Y
    2e64:	8d 81       	ldd	r24, Y+5	; 0x05
    2e66:	18 2b       	or	r17, r24
    2e68:	19 82       	std	Y+1, r1	; 0x01
    2e6a:	61 2f       	mov	r22, r17
    2e6c:	ce 01       	movw	r24, r28
    2e6e:	01 96       	adiw	r24, 0x01	; 1
    2e70:	0e 94 1b 0f 	call	0x1e36	; 0x1e36 <flag_zsp.isra.0>
    2e74:	18 83       	st	Y, r17
    2e76:	80 e0       	ldi	r24, 0x00	; 0
    2e78:	90 e0       	ldi	r25, 0x00	; 0
    2e7a:	0f c3       	rjmp	.+1566   	; 0x349a <cpu_8080_step+0x1440>
    2e7c:	18 81       	ld	r17, Y
    2e7e:	8e 81       	ldd	r24, Y+6	; 0x06
    2e80:	18 2b       	or	r17, r24
    2e82:	19 82       	std	Y+1, r1	; 0x01
    2e84:	61 2f       	mov	r22, r17
    2e86:	ce 01       	movw	r24, r28
    2e88:	01 96       	adiw	r24, 0x01	; 1
    2e8a:	0e 94 1b 0f 	call	0x1e36	; 0x1e36 <flag_zsp.isra.0>
    2e8e:	18 83       	st	Y, r17
    2e90:	80 e0       	ldi	r24, 0x00	; 0
    2e92:	90 e0       	ldi	r25, 0x00	; 0
    2e94:	02 c3       	rjmp	.+1540   	; 0x349a <cpu_8080_step+0x1440>
    2e96:	18 81       	ld	r17, Y
    2e98:	8f 81       	ldd	r24, Y+7	; 0x07
    2e9a:	18 2b       	or	r17, r24
    2e9c:	19 82       	std	Y+1, r1	; 0x01
    2e9e:	61 2f       	mov	r22, r17
    2ea0:	ce 01       	movw	r24, r28
    2ea2:	01 96       	adiw	r24, 0x01	; 1
    2ea4:	0e 94 1b 0f 	call	0x1e36	; 0x1e36 <flag_zsp.isra.0>
    2ea8:	18 83       	st	Y, r17
    2eaa:	80 e0       	ldi	r24, 0x00	; 0
    2eac:	90 e0       	ldi	r25, 0x00	; 0
    2eae:	f5 c2       	rjmp	.+1514   	; 0x349a <cpu_8080_step+0x1440>
    2eb0:	8e 81       	ldd	r24, Y+6	; 0x06
    2eb2:	90 e0       	ldi	r25, 0x00	; 0
    2eb4:	98 2f       	mov	r25, r24
    2eb6:	88 27       	eor	r24, r24
    2eb8:	2f 81       	ldd	r18, Y+7	; 0x07
    2eba:	ec 85       	ldd	r30, Y+12	; 0x0c
    2ebc:	fd 85       	ldd	r31, Y+13	; 0x0d
    2ebe:	82 2b       	or	r24, r18
    2ec0:	09 95       	icall
    2ec2:	18 81       	ld	r17, Y
    2ec4:	18 2b       	or	r17, r24
    2ec6:	19 82       	std	Y+1, r1	; 0x01
    2ec8:	61 2f       	mov	r22, r17
    2eca:	ce 01       	movw	r24, r28
    2ecc:	01 96       	adiw	r24, 0x01	; 1
    2ece:	0e 94 1b 0f 	call	0x1e36	; 0x1e36 <flag_zsp.isra.0>
    2ed2:	18 83       	st	Y, r17
    2ed4:	80 e0       	ldi	r24, 0x00	; 0
    2ed6:	90 e0       	ldi	r25, 0x00	; 0
    2ed8:	e0 c2       	rjmp	.+1472   	; 0x349a <cpu_8080_step+0x1440>
    2eda:	18 81       	ld	r17, Y
    2edc:	19 82       	std	Y+1, r1	; 0x01
    2ede:	61 2f       	mov	r22, r17
    2ee0:	ce 01       	movw	r24, r28
    2ee2:	01 96       	adiw	r24, 0x01	; 1
    2ee4:	0e 94 1b 0f 	call	0x1e36	; 0x1e36 <flag_zsp.isra.0>
    2ee8:	18 83       	st	Y, r17
    2eea:	80 e0       	ldi	r24, 0x00	; 0
    2eec:	90 e0       	ldi	r25, 0x00	; 0
    2eee:	d5 c2       	rjmp	.+1450   	; 0x349a <cpu_8080_step+0x1440>
    2ef0:	6a 81       	ldd	r22, Y+2	; 0x02
    2ef2:	ce 01       	movw	r24, r28
    2ef4:	0e 94 ad 0f 	call	0x1f5a	; 0x1f5a <sub>
    2ef8:	80 e0       	ldi	r24, 0x00	; 0
    2efa:	90 e0       	ldi	r25, 0x00	; 0
    2efc:	ce c2       	rjmp	.+1436   	; 0x349a <cpu_8080_step+0x1440>
    2efe:	6b 81       	ldd	r22, Y+3	; 0x03
    2f00:	ce 01       	movw	r24, r28
    2f02:	0e 94 ad 0f 	call	0x1f5a	; 0x1f5a <sub>
    2f06:	80 e0       	ldi	r24, 0x00	; 0
    2f08:	90 e0       	ldi	r25, 0x00	; 0
    2f0a:	c7 c2       	rjmp	.+1422   	; 0x349a <cpu_8080_step+0x1440>
    2f0c:	6c 81       	ldd	r22, Y+4	; 0x04
    2f0e:	ce 01       	movw	r24, r28
    2f10:	0e 94 ad 0f 	call	0x1f5a	; 0x1f5a <sub>
    2f14:	80 e0       	ldi	r24, 0x00	; 0
    2f16:	90 e0       	ldi	r25, 0x00	; 0
    2f18:	c0 c2       	rjmp	.+1408   	; 0x349a <cpu_8080_step+0x1440>
    2f1a:	6d 81       	ldd	r22, Y+5	; 0x05
    2f1c:	ce 01       	movw	r24, r28
    2f1e:	0e 94 ad 0f 	call	0x1f5a	; 0x1f5a <sub>
    2f22:	80 e0       	ldi	r24, 0x00	; 0
    2f24:	90 e0       	ldi	r25, 0x00	; 0
    2f26:	b9 c2       	rjmp	.+1394   	; 0x349a <cpu_8080_step+0x1440>
    2f28:	6e 81       	ldd	r22, Y+6	; 0x06
    2f2a:	ce 01       	movw	r24, r28
    2f2c:	0e 94 ad 0f 	call	0x1f5a	; 0x1f5a <sub>
    2f30:	80 e0       	ldi	r24, 0x00	; 0
    2f32:	90 e0       	ldi	r25, 0x00	; 0
    2f34:	b2 c2       	rjmp	.+1380   	; 0x349a <cpu_8080_step+0x1440>
    2f36:	6f 81       	ldd	r22, Y+7	; 0x07
    2f38:	ce 01       	movw	r24, r28
    2f3a:	0e 94 ad 0f 	call	0x1f5a	; 0x1f5a <sub>
    2f3e:	80 e0       	ldi	r24, 0x00	; 0
    2f40:	90 e0       	ldi	r25, 0x00	; 0
    2f42:	ab c2       	rjmp	.+1366   	; 0x349a <cpu_8080_step+0x1440>
    2f44:	8e 81       	ldd	r24, Y+6	; 0x06
    2f46:	90 e0       	ldi	r25, 0x00	; 0
    2f48:	98 2f       	mov	r25, r24
    2f4a:	88 27       	eor	r24, r24
    2f4c:	2f 81       	ldd	r18, Y+7	; 0x07
    2f4e:	ec 85       	ldd	r30, Y+12	; 0x0c
    2f50:	fd 85       	ldd	r31, Y+13	; 0x0d
    2f52:	82 2b       	or	r24, r18
    2f54:	09 95       	icall
    2f56:	68 2f       	mov	r22, r24
    2f58:	ce 01       	movw	r24, r28
    2f5a:	0e 94 ad 0f 	call	0x1f5a	; 0x1f5a <sub>
    2f5e:	80 e0       	ldi	r24, 0x00	; 0
    2f60:	90 e0       	ldi	r25, 0x00	; 0
    2f62:	9b c2       	rjmp	.+1334   	; 0x349a <cpu_8080_step+0x1440>
    2f64:	68 81       	ld	r22, Y
    2f66:	ce 01       	movw	r24, r28
    2f68:	0e 94 ad 0f 	call	0x1f5a	; 0x1f5a <sub>
    2f6c:	80 e0       	ldi	r24, 0x00	; 0
    2f6e:	90 e0       	ldi	r25, 0x00	; 0
    2f70:	94 c2       	rjmp	.+1320   	; 0x349a <cpu_8080_step+0x1440>
    2f72:	89 81       	ldd	r24, Y+1	; 0x01
    2f74:	86 fd       	sbrc	r24, 6
    2f76:	8f c2       	rjmp	.+1310   	; 0x3496 <cpu_8080_step+0x143c>
    2f78:	ce 01       	movw	r24, r28
    2f7a:	0e 94 81 0e 	call	0x1d02	; 0x1d02 <ret>
    2f7e:	80 e0       	ldi	r24, 0x00	; 0
    2f80:	90 e0       	ldi	r25, 0x00	; 0
    2f82:	8b c2       	rjmp	.+1302   	; 0x349a <cpu_8080_step+0x1440>
    2f84:	ec 85       	ldd	r30, Y+12	; 0x0c
    2f86:	fd 85       	ldd	r31, Y+13	; 0x0d
    2f88:	8a 85       	ldd	r24, Y+10	; 0x0a
    2f8a:	9b 85       	ldd	r25, Y+11	; 0x0b
    2f8c:	9c 01       	movw	r18, r24
    2f8e:	2f 5f       	subi	r18, 0xFF	; 255
    2f90:	3f 4f       	sbci	r19, 0xFF	; 255
    2f92:	3b 87       	std	Y+11, r19	; 0x0b
    2f94:	2a 87       	std	Y+10, r18	; 0x0a
    2f96:	09 95       	icall
    2f98:	8b 83       	std	Y+3, r24	; 0x03
    2f9a:	ec 85       	ldd	r30, Y+12	; 0x0c
    2f9c:	fd 85       	ldd	r31, Y+13	; 0x0d
    2f9e:	8a 85       	ldd	r24, Y+10	; 0x0a
    2fa0:	9b 85       	ldd	r25, Y+11	; 0x0b
    2fa2:	9c 01       	movw	r18, r24
    2fa4:	2f 5f       	subi	r18, 0xFF	; 255
    2fa6:	3f 4f       	sbci	r19, 0xFF	; 255
    2fa8:	3b 87       	std	Y+11, r19	; 0x0b
    2faa:	2a 87       	std	Y+10, r18	; 0x0a
    2fac:	09 95       	icall
    2fae:	8a 83       	std	Y+2, r24	; 0x02
    2fb0:	80 e0       	ldi	r24, 0x00	; 0
    2fb2:	90 e0       	ldi	r25, 0x00	; 0
    2fb4:	72 c2       	rjmp	.+1252   	; 0x349a <cpu_8080_step+0x1440>
    2fb6:	89 81       	ldd	r24, Y+1	; 0x01
    2fb8:	86 fd       	sbrc	r24, 6
    2fba:	09 c0       	rjmp	.+18     	; 0x2fce <cpu_8080_step+0xf74>
    2fbc:	ce 01       	movw	r24, r28
    2fbe:	0e 94 a3 0e 	call	0x1d46	; 0x1d46 <jmp>
    2fc2:	80 e0       	ldi	r24, 0x00	; 0
    2fc4:	90 e0       	ldi	r25, 0x00	; 0
    2fc6:	69 c2       	rjmp	.+1234   	; 0x349a <cpu_8080_step+0x1440>
    2fc8:	89 81       	ldd	r24, Y+1	; 0x01
    2fca:	86 ff       	sbrs	r24, 6
    2fcc:	11 c0       	rjmp	.+34     	; 0x2ff0 <cpu_8080_step+0xf96>
    2fce:	88 85       	ldd	r24, Y+8	; 0x08
    2fd0:	99 85       	ldd	r25, Y+9	; 0x09
    2fd2:	02 96       	adiw	r24, 0x02	; 2
    2fd4:	99 87       	std	Y+9, r25	; 0x09
    2fd6:	88 87       	std	Y+8, r24	; 0x08
    2fd8:	80 e0       	ldi	r24, 0x00	; 0
    2fda:	90 e0       	ldi	r25, 0x00	; 0
    2fdc:	5e c2       	rjmp	.+1212   	; 0x349a <cpu_8080_step+0x1440>
    2fde:	ce 01       	movw	r24, r28
    2fe0:	0e 94 a3 0e 	call	0x1d46	; 0x1d46 <jmp>
    2fe4:	80 e0       	ldi	r24, 0x00	; 0
    2fe6:	90 e0       	ldi	r25, 0x00	; 0
    2fe8:	58 c2       	rjmp	.+1200   	; 0x349a <cpu_8080_step+0x1440>
    2fea:	89 81       	ldd	r24, Y+1	; 0x01
    2fec:	86 ff       	sbrs	r24, 6
    2fee:	ef cf       	rjmp	.-34     	; 0x2fce <cpu_8080_step+0xf74>
    2ff0:	ce 01       	movw	r24, r28
    2ff2:	0e 94 c5 0e 	call	0x1d8a	; 0x1d8a <call>
    2ff6:	80 e0       	ldi	r24, 0x00	; 0
    2ff8:	90 e0       	ldi	r25, 0x00	; 0
    2ffa:	4f c2       	rjmp	.+1182   	; 0x349a <cpu_8080_step+0x1440>
    2ffc:	ee 85       	ldd	r30, Y+14	; 0x0e
    2ffe:	ff 85       	ldd	r31, Y+15	; 0x0f
    3000:	6a 81       	ldd	r22, Y+2	; 0x02
    3002:	8a 85       	ldd	r24, Y+10	; 0x0a
    3004:	9b 85       	ldd	r25, Y+11	; 0x0b
    3006:	01 97       	sbiw	r24, 0x01	; 1
    3008:	9b 87       	std	Y+11, r25	; 0x0b
    300a:	8a 87       	std	Y+10, r24	; 0x0a
    300c:	09 95       	icall
    300e:	ee 85       	ldd	r30, Y+14	; 0x0e
    3010:	ff 85       	ldd	r31, Y+15	; 0x0f
    3012:	6b 81       	ldd	r22, Y+3	; 0x03
    3014:	8a 85       	ldd	r24, Y+10	; 0x0a
    3016:	9b 85       	ldd	r25, Y+11	; 0x0b
    3018:	01 97       	sbiw	r24, 0x01	; 1
    301a:	9b 87       	std	Y+11, r25	; 0x0b
    301c:	8a 87       	std	Y+10, r24	; 0x0a
    301e:	09 95       	icall
    3020:	80 e0       	ldi	r24, 0x00	; 0
    3022:	90 e0       	ldi	r25, 0x00	; 0
    3024:	3a c2       	rjmp	.+1140   	; 0x349a <cpu_8080_step+0x1440>
    3026:	ec 85       	ldd	r30, Y+12	; 0x0c
    3028:	fd 85       	ldd	r31, Y+13	; 0x0d
    302a:	88 85       	ldd	r24, Y+8	; 0x08
    302c:	99 85       	ldd	r25, Y+9	; 0x09
    302e:	9c 01       	movw	r18, r24
    3030:	2f 5f       	subi	r18, 0xFF	; 255
    3032:	3f 4f       	sbci	r19, 0xFF	; 255
    3034:	39 87       	std	Y+9, r19	; 0x09
    3036:	28 87       	std	Y+8, r18	; 0x08
    3038:	09 95       	icall
    303a:	68 2f       	mov	r22, r24
    303c:	ce 01       	movw	r24, r28
    303e:	0e 94 66 0f 	call	0x1ecc	; 0x1ecc <add>
    3042:	88 83       	st	Y, r24
    3044:	80 e0       	ldi	r24, 0x00	; 0
    3046:	90 e0       	ldi	r25, 0x00	; 0
    3048:	28 c2       	rjmp	.+1104   	; 0x349a <cpu_8080_step+0x1440>
    304a:	60 e0       	ldi	r22, 0x00	; 0
    304c:	70 e0       	ldi	r23, 0x00	; 0
    304e:	ce 01       	movw	r24, r28
    3050:	0e 94 fc 0e 	call	0x1df8	; 0x1df8 <rst>
    3054:	80 e0       	ldi	r24, 0x00	; 0
    3056:	90 e0       	ldi	r25, 0x00	; 0
    3058:	20 c2       	rjmp	.+1088   	; 0x349a <cpu_8080_step+0x1440>
    305a:	89 81       	ldd	r24, Y+1	; 0x01
    305c:	86 fd       	sbrc	r24, 6
    305e:	8c cf       	rjmp	.-232    	; 0x2f78 <cpu_8080_step+0xf1e>
    3060:	80 e0       	ldi	r24, 0x00	; 0
    3062:	90 e0       	ldi	r25, 0x00	; 0
    3064:	1a c2       	rjmp	.+1076   	; 0x349a <cpu_8080_step+0x1440>
    3066:	ce 01       	movw	r24, r28
    3068:	0e 94 81 0e 	call	0x1d02	; 0x1d02 <ret>
    306c:	80 e0       	ldi	r24, 0x00	; 0
    306e:	90 e0       	ldi	r25, 0x00	; 0
    3070:	14 c2       	rjmp	.+1064   	; 0x349a <cpu_8080_step+0x1440>
    3072:	89 81       	ldd	r24, Y+1	; 0x01
    3074:	86 ff       	sbrs	r24, 6
    3076:	ab cf       	rjmp	.-170    	; 0x2fce <cpu_8080_step+0xf74>
    3078:	a1 cf       	rjmp	.-190    	; 0x2fbc <cpu_8080_step+0xf62>
    307a:	ce 01       	movw	r24, r28
    307c:	0e 94 c5 0e 	call	0x1d8a	; 0x1d8a <call>
    3080:	80 e0       	ldi	r24, 0x00	; 0
    3082:	90 e0       	ldi	r25, 0x00	; 0
    3084:	0a c2       	rjmp	.+1044   	; 0x349a <cpu_8080_step+0x1440>
    3086:	ec 85       	ldd	r30, Y+12	; 0x0c
    3088:	fd 85       	ldd	r31, Y+13	; 0x0d
    308a:	88 85       	ldd	r24, Y+8	; 0x08
    308c:	99 85       	ldd	r25, Y+9	; 0x09
    308e:	9c 01       	movw	r18, r24
    3090:	2f 5f       	subi	r18, 0xFF	; 255
    3092:	3f 4f       	sbci	r19, 0xFF	; 255
    3094:	39 87       	std	Y+9, r19	; 0x09
    3096:	28 87       	std	Y+8, r18	; 0x08
    3098:	09 95       	icall
    309a:	68 2f       	mov	r22, r24
    309c:	ce 01       	movw	r24, r28
    309e:	0e 94 84 0f 	call	0x1f08	; 0x1f08 <adc>
    30a2:	88 83       	st	Y, r24
    30a4:	80 e0       	ldi	r24, 0x00	; 0
    30a6:	90 e0       	ldi	r25, 0x00	; 0
    30a8:	f8 c1       	rjmp	.+1008   	; 0x349a <cpu_8080_step+0x1440>
    30aa:	68 e0       	ldi	r22, 0x08	; 8
    30ac:	70 e0       	ldi	r23, 0x00	; 0
    30ae:	ce 01       	movw	r24, r28
    30b0:	0e 94 fc 0e 	call	0x1df8	; 0x1df8 <rst>
    30b4:	80 e0       	ldi	r24, 0x00	; 0
    30b6:	90 e0       	ldi	r25, 0x00	; 0
    30b8:	f0 c1       	rjmp	.+992    	; 0x349a <cpu_8080_step+0x1440>
    30ba:	89 81       	ldd	r24, Y+1	; 0x01
    30bc:	80 ff       	sbrs	r24, 0
    30be:	5c cf       	rjmp	.-328    	; 0x2f78 <cpu_8080_step+0xf1e>
    30c0:	80 e0       	ldi	r24, 0x00	; 0
    30c2:	90 e0       	ldi	r25, 0x00	; 0
    30c4:	ea c1       	rjmp	.+980    	; 0x349a <cpu_8080_step+0x1440>
    30c6:	ec 85       	ldd	r30, Y+12	; 0x0c
    30c8:	fd 85       	ldd	r31, Y+13	; 0x0d
    30ca:	8a 85       	ldd	r24, Y+10	; 0x0a
    30cc:	9b 85       	ldd	r25, Y+11	; 0x0b
    30ce:	9c 01       	movw	r18, r24
    30d0:	2f 5f       	subi	r18, 0xFF	; 255
    30d2:	3f 4f       	sbci	r19, 0xFF	; 255
    30d4:	3b 87       	std	Y+11, r19	; 0x0b
    30d6:	2a 87       	std	Y+10, r18	; 0x0a
    30d8:	09 95       	icall
    30da:	8d 83       	std	Y+5, r24	; 0x05
    30dc:	ec 85       	ldd	r30, Y+12	; 0x0c
    30de:	fd 85       	ldd	r31, Y+13	; 0x0d
    30e0:	8a 85       	ldd	r24, Y+10	; 0x0a
    30e2:	9b 85       	ldd	r25, Y+11	; 0x0b
    30e4:	9c 01       	movw	r18, r24
    30e6:	2f 5f       	subi	r18, 0xFF	; 255
    30e8:	3f 4f       	sbci	r19, 0xFF	; 255
    30ea:	3b 87       	std	Y+11, r19	; 0x0b
    30ec:	2a 87       	std	Y+10, r18	; 0x0a
    30ee:	09 95       	icall
    30f0:	8c 83       	std	Y+4, r24	; 0x04
    30f2:	80 e0       	ldi	r24, 0x00	; 0
    30f4:	90 e0       	ldi	r25, 0x00	; 0
    30f6:	d1 c1       	rjmp	.+930    	; 0x349a <cpu_8080_step+0x1440>
    30f8:	89 81       	ldd	r24, Y+1	; 0x01
    30fa:	80 fd       	sbrc	r24, 0
    30fc:	68 cf       	rjmp	.-304    	; 0x2fce <cpu_8080_step+0xf74>
    30fe:	5e cf       	rjmp	.-324    	; 0x2fbc <cpu_8080_step+0xf62>
    3100:	ec 85       	ldd	r30, Y+12	; 0x0c
    3102:	fd 85       	ldd	r31, Y+13	; 0x0d
    3104:	88 85       	ldd	r24, Y+8	; 0x08
    3106:	99 85       	ldd	r25, Y+9	; 0x09
    3108:	9c 01       	movw	r18, r24
    310a:	2f 5f       	subi	r18, 0xFF	; 255
    310c:	3f 4f       	sbci	r19, 0xFF	; 255
    310e:	39 87       	std	Y+9, r19	; 0x09
    3110:	28 87       	std	Y+8, r18	; 0x08
    3112:	09 95       	icall
    3114:	ea 89       	ldd	r30, Y+18	; 0x12
    3116:	fb 89       	ldd	r31, Y+19	; 0x13
    3118:	68 81       	ld	r22, Y
    311a:	09 95       	icall
    311c:	80 e0       	ldi	r24, 0x00	; 0
    311e:	90 e0       	ldi	r25, 0x00	; 0
    3120:	bc c1       	rjmp	.+888    	; 0x349a <cpu_8080_step+0x1440>
    3122:	89 81       	ldd	r24, Y+1	; 0x01
    3124:	80 fd       	sbrc	r24, 0
    3126:	53 cf       	rjmp	.-346    	; 0x2fce <cpu_8080_step+0xf74>
    3128:	63 cf       	rjmp	.-314    	; 0x2ff0 <cpu_8080_step+0xf96>
    312a:	ee 85       	ldd	r30, Y+14	; 0x0e
    312c:	ff 85       	ldd	r31, Y+15	; 0x0f
    312e:	6c 81       	ldd	r22, Y+4	; 0x04
    3130:	8a 85       	ldd	r24, Y+10	; 0x0a
    3132:	9b 85       	ldd	r25, Y+11	; 0x0b
    3134:	01 97       	sbiw	r24, 0x01	; 1
    3136:	9b 87       	std	Y+11, r25	; 0x0b
    3138:	8a 87       	std	Y+10, r24	; 0x0a
    313a:	09 95       	icall
    313c:	ee 85       	ldd	r30, Y+14	; 0x0e
    313e:	ff 85       	ldd	r31, Y+15	; 0x0f
    3140:	6d 81       	ldd	r22, Y+5	; 0x05
    3142:	8a 85       	ldd	r24, Y+10	; 0x0a
    3144:	9b 85       	ldd	r25, Y+11	; 0x0b
    3146:	01 97       	sbiw	r24, 0x01	; 1
    3148:	9b 87       	std	Y+11, r25	; 0x0b
    314a:	8a 87       	std	Y+10, r24	; 0x0a
    314c:	09 95       	icall
    314e:	80 e0       	ldi	r24, 0x00	; 0
    3150:	90 e0       	ldi	r25, 0x00	; 0
    3152:	a3 c1       	rjmp	.+838    	; 0x349a <cpu_8080_step+0x1440>
    3154:	ec 85       	ldd	r30, Y+12	; 0x0c
    3156:	fd 85       	ldd	r31, Y+13	; 0x0d
    3158:	88 85       	ldd	r24, Y+8	; 0x08
    315a:	99 85       	ldd	r25, Y+9	; 0x09
    315c:	9c 01       	movw	r18, r24
    315e:	2f 5f       	subi	r18, 0xFF	; 255
    3160:	3f 4f       	sbci	r19, 0xFF	; 255
    3162:	39 87       	std	Y+9, r19	; 0x09
    3164:	28 87       	std	Y+8, r18	; 0x08
    3166:	09 95       	icall
    3168:	68 2f       	mov	r22, r24
    316a:	ce 01       	movw	r24, r28
    316c:	0e 94 ad 0f 	call	0x1f5a	; 0x1f5a <sub>
    3170:	88 83       	st	Y, r24
    3172:	80 e0       	ldi	r24, 0x00	; 0
    3174:	90 e0       	ldi	r25, 0x00	; 0
    3176:	91 c1       	rjmp	.+802    	; 0x349a <cpu_8080_step+0x1440>
    3178:	60 e1       	ldi	r22, 0x10	; 16
    317a:	70 e0       	ldi	r23, 0x00	; 0
    317c:	ce 01       	movw	r24, r28
    317e:	0e 94 fc 0e 	call	0x1df8	; 0x1df8 <rst>
    3182:	80 e0       	ldi	r24, 0x00	; 0
    3184:	90 e0       	ldi	r25, 0x00	; 0
    3186:	89 c1       	rjmp	.+786    	; 0x349a <cpu_8080_step+0x1440>
    3188:	89 81       	ldd	r24, Y+1	; 0x01
    318a:	80 fd       	sbrc	r24, 0
    318c:	f5 ce       	rjmp	.-534    	; 0x2f78 <cpu_8080_step+0xf1e>
    318e:	80 e0       	ldi	r24, 0x00	; 0
    3190:	90 e0       	ldi	r25, 0x00	; 0
    3192:	83 c1       	rjmp	.+774    	; 0x349a <cpu_8080_step+0x1440>
    3194:	89 81       	ldd	r24, Y+1	; 0x01
    3196:	80 ff       	sbrs	r24, 0
    3198:	1a cf       	rjmp	.-460    	; 0x2fce <cpu_8080_step+0xf74>
    319a:	10 cf       	rjmp	.-480    	; 0x2fbc <cpu_8080_step+0xf62>
    319c:	ec 85       	ldd	r30, Y+12	; 0x0c
    319e:	fd 85       	ldd	r31, Y+13	; 0x0d
    31a0:	88 85       	ldd	r24, Y+8	; 0x08
    31a2:	99 85       	ldd	r25, Y+9	; 0x09
    31a4:	9c 01       	movw	r18, r24
    31a6:	2f 5f       	subi	r18, 0xFF	; 255
    31a8:	3f 4f       	sbci	r19, 0xFF	; 255
    31aa:	39 87       	std	Y+9, r19	; 0x09
    31ac:	28 87       	std	Y+8, r18	; 0x08
    31ae:	09 95       	icall
    31b0:	e8 89       	ldd	r30, Y+16	; 0x10
    31b2:	f9 89       	ldd	r31, Y+17	; 0x11
    31b4:	09 95       	icall
    31b6:	88 83       	st	Y, r24
    31b8:	80 e0       	ldi	r24, 0x00	; 0
    31ba:	90 e0       	ldi	r25, 0x00	; 0
    31bc:	6e c1       	rjmp	.+732    	; 0x349a <cpu_8080_step+0x1440>
    31be:	89 81       	ldd	r24, Y+1	; 0x01
    31c0:	80 ff       	sbrs	r24, 0
    31c2:	05 cf       	rjmp	.-502    	; 0x2fce <cpu_8080_step+0xf74>
    31c4:	15 cf       	rjmp	.-470    	; 0x2ff0 <cpu_8080_step+0xf96>
    31c6:	ec 85       	ldd	r30, Y+12	; 0x0c
    31c8:	fd 85       	ldd	r31, Y+13	; 0x0d
    31ca:	88 85       	ldd	r24, Y+8	; 0x08
    31cc:	99 85       	ldd	r25, Y+9	; 0x09
    31ce:	9c 01       	movw	r18, r24
    31d0:	2f 5f       	subi	r18, 0xFF	; 255
    31d2:	3f 4f       	sbci	r19, 0xFF	; 255
    31d4:	39 87       	std	Y+9, r19	; 0x09
    31d6:	28 87       	std	Y+8, r18	; 0x08
    31d8:	09 95       	icall
    31da:	68 2f       	mov	r22, r24
    31dc:	ce 01       	movw	r24, r28
    31de:	0e 94 cb 0f 	call	0x1f96	; 0x1f96 <sbb>
    31e2:	88 83       	st	Y, r24
    31e4:	80 e0       	ldi	r24, 0x00	; 0
    31e6:	90 e0       	ldi	r25, 0x00	; 0
    31e8:	58 c1       	rjmp	.+688    	; 0x349a <cpu_8080_step+0x1440>
    31ea:	68 e1       	ldi	r22, 0x18	; 24
    31ec:	70 e0       	ldi	r23, 0x00	; 0
    31ee:	ce 01       	movw	r24, r28
    31f0:	0e 94 fc 0e 	call	0x1df8	; 0x1df8 <rst>
    31f4:	80 e0       	ldi	r24, 0x00	; 0
    31f6:	90 e0       	ldi	r25, 0x00	; 0
    31f8:	50 c1       	rjmp	.+672    	; 0x349a <cpu_8080_step+0x1440>
    31fa:	89 81       	ldd	r24, Y+1	; 0x01
    31fc:	82 ff       	sbrs	r24, 2
    31fe:	bc ce       	rjmp	.-648    	; 0x2f78 <cpu_8080_step+0xf1e>
    3200:	80 e0       	ldi	r24, 0x00	; 0
    3202:	90 e0       	ldi	r25, 0x00	; 0
    3204:	4a c1       	rjmp	.+660    	; 0x349a <cpu_8080_step+0x1440>
    3206:	ec 85       	ldd	r30, Y+12	; 0x0c
    3208:	fd 85       	ldd	r31, Y+13	; 0x0d
    320a:	8a 85       	ldd	r24, Y+10	; 0x0a
    320c:	9b 85       	ldd	r25, Y+11	; 0x0b
    320e:	9c 01       	movw	r18, r24
    3210:	2f 5f       	subi	r18, 0xFF	; 255
    3212:	3f 4f       	sbci	r19, 0xFF	; 255
    3214:	3b 87       	std	Y+11, r19	; 0x0b
    3216:	2a 87       	std	Y+10, r18	; 0x0a
    3218:	09 95       	icall
    321a:	8f 83       	std	Y+7, r24	; 0x07
    321c:	ec 85       	ldd	r30, Y+12	; 0x0c
    321e:	fd 85       	ldd	r31, Y+13	; 0x0d
    3220:	8a 85       	ldd	r24, Y+10	; 0x0a
    3222:	9b 85       	ldd	r25, Y+11	; 0x0b
    3224:	9c 01       	movw	r18, r24
    3226:	2f 5f       	subi	r18, 0xFF	; 255
    3228:	3f 4f       	sbci	r19, 0xFF	; 255
    322a:	3b 87       	std	Y+11, r19	; 0x0b
    322c:	2a 87       	std	Y+10, r18	; 0x0a
    322e:	09 95       	icall
    3230:	8e 83       	std	Y+6, r24	; 0x06
    3232:	80 e0       	ldi	r24, 0x00	; 0
    3234:	90 e0       	ldi	r25, 0x00	; 0
    3236:	31 c1       	rjmp	.+610    	; 0x349a <cpu_8080_step+0x1440>
    3238:	89 81       	ldd	r24, Y+1	; 0x01
    323a:	82 fd       	sbrc	r24, 2
    323c:	c8 ce       	rjmp	.-624    	; 0x2fce <cpu_8080_step+0xf74>
    323e:	be ce       	rjmp	.-644    	; 0x2fbc <cpu_8080_step+0xf62>
    3240:	ec 85       	ldd	r30, Y+12	; 0x0c
    3242:	fd 85       	ldd	r31, Y+13	; 0x0d
    3244:	8a 85       	ldd	r24, Y+10	; 0x0a
    3246:	9b 85       	ldd	r25, Y+11	; 0x0b
    3248:	09 95       	icall
    324a:	18 2f       	mov	r17, r24
    324c:	ee 85       	ldd	r30, Y+14	; 0x0e
    324e:	ff 85       	ldd	r31, Y+15	; 0x0f
    3250:	6f 81       	ldd	r22, Y+7	; 0x07
    3252:	8a 85       	ldd	r24, Y+10	; 0x0a
    3254:	9b 85       	ldd	r25, Y+11	; 0x0b
    3256:	09 95       	icall
    3258:	1f 83       	std	Y+7, r17	; 0x07
    325a:	8a 85       	ldd	r24, Y+10	; 0x0a
    325c:	9b 85       	ldd	r25, Y+11	; 0x0b
    325e:	ec 85       	ldd	r30, Y+12	; 0x0c
    3260:	fd 85       	ldd	r31, Y+13	; 0x0d
    3262:	01 96       	adiw	r24, 0x01	; 1
    3264:	09 95       	icall
    3266:	18 2f       	mov	r17, r24
    3268:	8a 85       	ldd	r24, Y+10	; 0x0a
    326a:	9b 85       	ldd	r25, Y+11	; 0x0b
    326c:	ee 85       	ldd	r30, Y+14	; 0x0e
    326e:	ff 85       	ldd	r31, Y+15	; 0x0f
    3270:	6e 81       	ldd	r22, Y+6	; 0x06
    3272:	01 96       	adiw	r24, 0x01	; 1
    3274:	09 95       	icall
    3276:	1e 83       	std	Y+6, r17	; 0x06
    3278:	80 e0       	ldi	r24, 0x00	; 0
    327a:	90 e0       	ldi	r25, 0x00	; 0
    327c:	0e c1       	rjmp	.+540    	; 0x349a <cpu_8080_step+0x1440>
    327e:	89 81       	ldd	r24, Y+1	; 0x01
    3280:	82 fd       	sbrc	r24, 2
    3282:	a5 ce       	rjmp	.-694    	; 0x2fce <cpu_8080_step+0xf74>
    3284:	b5 ce       	rjmp	.-662    	; 0x2ff0 <cpu_8080_step+0xf96>
    3286:	ee 85       	ldd	r30, Y+14	; 0x0e
    3288:	ff 85       	ldd	r31, Y+15	; 0x0f
    328a:	6e 81       	ldd	r22, Y+6	; 0x06
    328c:	8a 85       	ldd	r24, Y+10	; 0x0a
    328e:	9b 85       	ldd	r25, Y+11	; 0x0b
    3290:	01 97       	sbiw	r24, 0x01	; 1
    3292:	9b 87       	std	Y+11, r25	; 0x0b
    3294:	8a 87       	std	Y+10, r24	; 0x0a
    3296:	09 95       	icall
    3298:	ee 85       	ldd	r30, Y+14	; 0x0e
    329a:	ff 85       	ldd	r31, Y+15	; 0x0f
    329c:	6f 81       	ldd	r22, Y+7	; 0x07
    329e:	8a 85       	ldd	r24, Y+10	; 0x0a
    32a0:	9b 85       	ldd	r25, Y+11	; 0x0b
    32a2:	01 97       	sbiw	r24, 0x01	; 1
    32a4:	9b 87       	std	Y+11, r25	; 0x0b
    32a6:	8a 87       	std	Y+10, r24	; 0x0a
    32a8:	09 95       	icall
    32aa:	80 e0       	ldi	r24, 0x00	; 0
    32ac:	90 e0       	ldi	r25, 0x00	; 0
    32ae:	f5 c0       	rjmp	.+490    	; 0x349a <cpu_8080_step+0x1440>
    32b0:	ec 85       	ldd	r30, Y+12	; 0x0c
    32b2:	fd 85       	ldd	r31, Y+13	; 0x0d
    32b4:	88 85       	ldd	r24, Y+8	; 0x08
    32b6:	99 85       	ldd	r25, Y+9	; 0x09
    32b8:	9c 01       	movw	r18, r24
    32ba:	2f 5f       	subi	r18, 0xFF	; 255
    32bc:	3f 4f       	sbci	r19, 0xFF	; 255
    32be:	39 87       	std	Y+9, r19	; 0x09
    32c0:	28 87       	std	Y+8, r18	; 0x08
    32c2:	09 95       	icall
    32c4:	68 2f       	mov	r22, r24
    32c6:	ce 01       	movw	r24, r28
    32c8:	0e 94 fa 0f 	call	0x1ff4	; 0x1ff4 <ana>
    32cc:	88 83       	st	Y, r24
    32ce:	80 e0       	ldi	r24, 0x00	; 0
    32d0:	90 e0       	ldi	r25, 0x00	; 0
    32d2:	e3 c0       	rjmp	.+454    	; 0x349a <cpu_8080_step+0x1440>
    32d4:	60 e2       	ldi	r22, 0x20	; 32
    32d6:	70 e0       	ldi	r23, 0x00	; 0
    32d8:	ce 01       	movw	r24, r28
    32da:	0e 94 fc 0e 	call	0x1df8	; 0x1df8 <rst>
    32de:	80 e0       	ldi	r24, 0x00	; 0
    32e0:	90 e0       	ldi	r25, 0x00	; 0
    32e2:	db c0       	rjmp	.+438    	; 0x349a <cpu_8080_step+0x1440>
    32e4:	89 81       	ldd	r24, Y+1	; 0x01
