###############################################################################
#                                                                             #
# IAR ELF Linker V6.40.2.53884/W32 for ARM              17/Sep/2012  14:11:26 #
# Copyright 2007-2012 IAR Systems AB.                                         #
#                                                                             #
#    Output file  =  C:\Users\Sin\Documents\STM32\STM32F4-Discovery_FW_V1.1.0 #
#                    \Project\Audio_playback_and_record\EWARM\MEDIA_USB_KEY\E #
#                    xe\STM32F4-Discovery_Audio_USB.out                       #
#    Map file     =  C:\Users\Sin\Documents\STM32\STM32F4-Discovery_FW_V1.1.0 #
#                    \Project\Audio_playback_and_record\EWARM\MEDIA_USB_KEY\L #
#                    ist\STM32F4-Discovery_Audio_USB.map                      #
#    Command line =  C:\Users\Sin\Documents\STM32\STM32F4-Discovery_FW_V1.1.0 #
#                    \Project\Audio_playback_and_record\EWARM\MEDIA_USB_KEY\O #
#                    bj\fattime.o C:\Users\Sin\Documents\STM32\STM32F4-Discov #
#                    ery_FW_V1.1.0\Project\Audio_playback_and_record\EWARM\ME #
#                    DIA_USB_KEY\Obj\ff.o C:\Users\Sin\Documents\STM32\STM32F #
#                    4-Discovery_FW_V1.1.0\Project\Audio_playback_and_record\ #
#                    EWARM\MEDIA_USB_KEY\Obj\main.o                           #
#                    C:\Users\Sin\Documents\STM32\STM32F4-Discovery_FW_V1.1.0 #
#                    \Project\Audio_playback_and_record\EWARM\MEDIA_USB_KEY\O #
#                    bj\misc.o C:\Users\Sin\Documents\STM32\STM32F4-Discovery #
#                    _FW_V1.1.0\Project\Audio_playback_and_record\EWARM\MEDIA #
#                    _USB_KEY\Obj\startup_stm32f4xx.o                         #
#                    C:\Users\Sin\Documents\STM32\STM32F4-Discovery_FW_V1.1.0 #
#                    \Project\Audio_playback_and_record\EWARM\MEDIA_USB_KEY\O #
#                    bj\stm32f4_discovery.o C:\Users\Sin\Documents\STM32\STM3 #
#                    2F4-Discovery_FW_V1.1.0\Project\Audio_playback_and_recor #
#                    d\EWARM\MEDIA_USB_KEY\Obj\stm32f4_discovery_audio_codec. #
#                    o C:\Users\Sin\Documents\STM32\STM32F4-Discovery_FW_V1.1 #
#                    .0\Project\Audio_playback_and_record\EWARM\MEDIA_USB_KEY #
#                    \Obj\stm32f4_discovery_lis302dl.o                        #
#                    C:\Users\Sin\Documents\STM32\STM32F4-Discovery_FW_V1.1.0 #
#                    \Project\Audio_playback_and_record\EWARM\MEDIA_USB_KEY\O #
#                    bj\stm32f4xx_dac.o C:\Users\Sin\Documents\STM32\STM32F4- #
#                    Discovery_FW_V1.1.0\Project\Audio_playback_and_record\EW #
#                    ARM\MEDIA_USB_KEY\Obj\stm32f4xx_dma.o                    #
#                    C:\Users\Sin\Documents\STM32\STM32F4-Discovery_FW_V1.1.0 #
#                    \Project\Audio_playback_and_record\EWARM\MEDIA_USB_KEY\O #
#                    bj\stm32f4xx_exti.o C:\Users\Sin\Documents\STM32\STM32F4 #
#                    -Discovery_FW_V1.1.0\Project\Audio_playback_and_record\E #
#                    WARM\MEDIA_USB_KEY\Obj\stm32f4xx_gpio.o                  #
#                    C:\Users\Sin\Documents\STM32\STM32F4-Discovery_FW_V1.1.0 #
#                    \Project\Audio_playback_and_record\EWARM\MEDIA_USB_KEY\O #
#                    bj\stm32f4xx_i2c.o C:\Users\Sin\Documents\STM32\STM32F4- #
#                    Discovery_FW_V1.1.0\Project\Audio_playback_and_record\EW #
#                    ARM\MEDIA_USB_KEY\Obj\stm32f4xx_it.o                     #
#                    C:\Users\Sin\Documents\STM32\STM32F4-Discovery_FW_V1.1.0 #
#                    \Project\Audio_playback_and_record\EWARM\MEDIA_USB_KEY\O #
#                    bj\stm32f4xx_pwr.o C:\Users\Sin\Documents\STM32\STM32F4- #
#                    Discovery_FW_V1.1.0\Project\Audio_playback_and_record\EW #
#                    ARM\MEDIA_USB_KEY\Obj\stm32f4xx_rcc.o                    #
#                    C:\Users\Sin\Documents\STM32\STM32F4-Discovery_FW_V1.1.0 #
#                    \Project\Audio_playback_and_record\EWARM\MEDIA_USB_KEY\O #
#                    bj\stm32f4xx_rtc.o C:\Users\Sin\Documents\STM32\STM32F4- #
#                    Discovery_FW_V1.1.0\Project\Audio_playback_and_record\EW #
#                    ARM\MEDIA_USB_KEY\Obj\stm32f4xx_spi.o                    #
#                    C:\Users\Sin\Documents\STM32\STM32F4-Discovery_FW_V1.1.0 #
#                    \Project\Audio_playback_and_record\EWARM\MEDIA_USB_KEY\O #
#                    bj\stm32f4xx_syscfg.o C:\Users\Sin\Documents\STM32\STM32 #
#                    F4-Discovery_FW_V1.1.0\Project\Audio_playback_and_record #
#                    \EWARM\MEDIA_USB_KEY\Obj\stm32f4xx_tim.o                 #
#                    C:\Users\Sin\Documents\STM32\STM32F4-Discovery_FW_V1.1.0 #
#                    \Project\Audio_playback_and_record\EWARM\MEDIA_USB_KEY\O #
#                    bj\system_stm32f4xx.o C:\Users\Sin\Documents\STM32\STM32 #
#                    F4-Discovery_FW_V1.1.0\Project\Audio_playback_and_record #
#                    \EWARM\MEDIA_USB_KEY\Obj\usb_bsp.o                       #
#                    C:\Users\Sin\Documents\STM32\STM32F4-Discovery_FW_V1.1.0 #
#                    \Project\Audio_playback_and_record\EWARM\MEDIA_USB_KEY\O #
#                    bj\usb_core.o C:\Users\Sin\Documents\STM32\STM32F4-Disco #
#                    very_FW_V1.1.0\Project\Audio_playback_and_record\EWARM\M #
#                    EDIA_USB_KEY\Obj\usb_hcd.o C:\Users\Sin\Documents\STM32\ #
#                    STM32F4-Discovery_FW_V1.1.0\Project\Audio_playback_and_r #
#                    ecord\EWARM\MEDIA_USB_KEY\Obj\usb_hcd_int.o              #
#                    C:\Users\Sin\Documents\STM32\STM32F4-Discovery_FW_V1.1.0 #
#                    \Project\Audio_playback_and_record\EWARM\MEDIA_USB_KEY\O #
#                    bj\usbh_core.o C:\Users\Sin\Documents\STM32\STM32F4-Disc #
#                    overy_FW_V1.1.0\Project\Audio_playback_and_record\EWARM\ #
#                    MEDIA_USB_KEY\Obj\usbh_hcs.o                             #
#                    C:\Users\Sin\Documents\STM32\STM32F4-Discovery_FW_V1.1.0 #
#                    \Project\Audio_playback_and_record\EWARM\MEDIA_USB_KEY\O #
#                    bj\usbh_ioreq.o C:\Users\Sin\Documents\STM32\STM32F4-Dis #
#                    covery_FW_V1.1.0\Project\Audio_playback_and_record\EWARM #
#                    \MEDIA_USB_KEY\Obj\usbh_msc_bot.o                        #
#                    C:\Users\Sin\Documents\STM32\STM32F4-Discovery_FW_V1.1.0 #
#                    \Project\Audio_playback_and_record\EWARM\MEDIA_USB_KEY\O #
#                    bj\usbh_msc_core.o C:\Users\Sin\Documents\STM32\STM32F4- #
#                    Discovery_FW_V1.1.0\Project\Audio_playback_and_record\EW #
#                    ARM\MEDIA_USB_KEY\Obj\usbh_msc_fatfs.o                   #
#                    C:\Users\Sin\Documents\STM32\STM32F4-Discovery_FW_V1.1.0 #
#                    \Project\Audio_playback_and_record\EWARM\MEDIA_USB_KEY\O #
#                    bj\usbh_msc_scsi.o C:\Users\Sin\Documents\STM32\STM32F4- #
#                    Discovery_FW_V1.1.0\Project\Audio_playback_and_record\EW #
#                    ARM\MEDIA_USB_KEY\Obj\usbh_stdreq.o                      #
#                    C:\Users\Sin\Documents\STM32\STM32F4-Discovery_FW_V1.1.0 #
#                    \Project\Audio_playback_and_record\EWARM\MEDIA_USB_KEY\O #
#                    bj\usbh_usr.o C:\Users\Sin\Documents\STM32\STM32F4-Disco #
#                    very_FW_V1.1.0\Project\Audio_playback_and_record\EWARM\M #
#                    EDIA_USB_KEY\Obj\waveplayer.o                            #
#                    C:\Users\Sin\Documents\STM32\STM32F4-Discovery_FW_V1.1.0 #
#                    \Project\Audio_playback_and_record\EWARM\MEDIA_USB_KEY\O #
#                    bj\waverecorder.o C:\Users\Sin\Documents\STM32\STM32F4-D #
#                    iscovery_FW_V1.1.0\Utilities\STM32F4-Discovery\libPDMFil #
#                    ter_IAR.a --redirect _Printf=_PrintfSmall --redirect     #
#                    _Scanf=_ScanfSmall -o C:\Users\Sin\Documents\STM32\STM32 #
#                    F4-Discovery_FW_V1.1.0\Project\Audio_playback_and_record #
#                    \EWARM\MEDIA_USB_KEY\Exe\STM32F4-Discovery_Audio_USB.out #
#                     --map C:\Users\Sin\Documents\STM32\STM32F4-Discovery_FW #
#                    _V1.1.0\Project\Audio_playback_and_record\EWARM\MEDIA_US #
#                    B_KEY\List\STM32F4-Discovery_Audio_USB.map --config      #
#                    C:\Users\Sin\Documents\STM32\STM32F4-Discovery_FW_V1.1.0 #
#                    \Project\Audio_playback_and_record\EWARM\stm32f4xx_flash #
#                    .icf --semihosting --entry __iar_program_start --vfe     #
#                                                                             #
#                                                                             #
###############################################################################

*******************************************************************************
*** RUNTIME MODEL ATTRIBUTES
***

CppFlavor       = *
__SystemLibrary = DLib


*******************************************************************************
*** PLACEMENT SUMMARY
***

"A1":  place at 0x08000000 { ro section .intvec };
"P1":  place in [from 0x08000000 to 0x080fffff] { ro };
"P2":  place in [from 0x20000000 to 0x2001ffff] { rw, block CSTACK, block HEAP };

  Section            Kind        Address    Size  Object
  -------            ----        -------    ----  ------
"A1":                                      0x188
  .intvec            ro code  0x08000000   0x188  startup_stm32f4xx.o [1]
                            - 0x08000188   0x188

"P1":                                     0x6fa4
  .text              ro code  0x08000188  0x131a  ff.o [1]
  .text              ro code  0x080014a2    0x22  zero_init3.o [6]
  .text              ro code  0x080014c4   0x124  usbh_msc_fatfs.o [1]
  .text              ro code  0x080015e8     0x4  fattime.o [1]
  .text              ro code  0x080015ec    0x9e  usb_hcd.o [1]
  .text              ro code  0x0800168c   0x384  usbh_msc_scsi.o [1]
  .text              ro code  0x08001a10   0x290  usbh_msc_bot.o [1]
  .text              ro code  0x08001ca0   0x674  usb_core.o [1]
  .text              ro code  0x08002314   0x106  usbh_ioreq.o [1]
  .text              ro code  0x0800241a   0x258  usbh_stdreq.o [1]
  .text              ro code  0x08002674   0x206  usb_bsp.o [1]
  .text              ro code  0x0800287c   0x114  stm32f4xx_rcc.o [1]
  .text              ro code  0x08002990    0xa6  stm32f4xx_gpio.o [1]
  .text              ro code  0x08002a38    0x8c  misc.o [1]
  .text              ro code  0x08002ac4   0x14e  stm32f4xx_tim.o [1]
  .text              ro code  0x08002c14   0x8d2  stm32f4_discovery_audio_codec.o [1]
  .text              ro code  0x080034e8   0x1e2  stm32f4xx_spi.o [1]
  .text              ro code  0x080036cc   0x1f8  stm32f4xx_dma.o [1]
  .text              ro code  0x080038c4   0x528  waveplayer.o [1]
  .text              ro code  0x08003dec    0x60  stm32f4xx_dac.o [1]
  .text              ro code  0x08003e4c   0x1d8  stm32f4xx_i2c.o [1]
  .text              ro code  0x08004024   0x250  stm32f4_discovery_lis302dl.o [1]
  .text              ro code  0x08004274   0x10c  stm32f4_discovery.o [1]
  .text              ro code  0x08004380    0x28  stm32f4xx_syscfg.o [1]
  .text              ro code  0x080043a8    0x90  stm32f4xx_exti.o [1]
  .text              ro code  0x08004438   0x73c  usb_hcd_int.o [1]
  .text              ro code  0x08004b74   0x5b6  usbh_core.o [1]
  .text              ro code  0x0800512a    0xde  usbh_hcs.o [1]
  .text              ro code  0x08005208   0x4b0  waverecorder.o [1]
  .text              ro code  0x080056b8   0x400  pdm_filter.o [4]
  .text              ro code  0x08005ab8    0x66  ABImemset.o [6]
  .text              ro code  0x08005b20    0x1c  FltCmpEq.o [5]
  .text              ro code  0x08005b3c    0x12  FltMul.o [5]
  .text              ro code  0x08005b50    0x4e  FltToDbl.o [5]
  .text              ro code  0x08005ba0    0x30  I32ToDbl.o [5]
  .text              ro code  0x08005bd0   0x246  DblDiv.o [5]
  .text              ro code  0x08005e18    0xe8  DblAdd.o [5]
  .text              ro code  0x08005f00    0x4c  DblToI32.o [5]
  .text              ro code  0x08005f4c   0x1a2  DblMul.o [5]
  .text              ro code  0x080060f0   0x16c  DblSub.o [5]
  .text              ro code  0x0800625c   0x240  usbh_msc_core.o [1]
  .text              ro code  0x0800649c   0x180  stm32f4xx_it.o [1]
  .text              ro code  0x0800661c   0x16a  lz77_init3c.o [6]
  .text              ro code  0x08006786     0x6  abort.o [3]
  .text              ro code  0x0800678c    0x14  exit.o [7]
  .text              ro code  0x080067a0   0x160  main.o [1]
  .text              ro code  0x08006900   0x124  usbh_usr.o [1]
  .text              ro code  0x08006a24   0x114  system_stm32f4xx.o [1]
  .rodata            const    0x08006b38    0x8c  ff.o [1]
  .text              ro code  0x08006bc4    0x28  data_init3.o [6]
  .iar.init_table    const    0x08006bec    0x2c  - Linker created -
  .rodata            const    0x08006c18    0x1c  waveplayer.o [1]
  .text              ro code  0x08006c34    0x1a  fpinit_M.o [5]
  .rodata            const    0x08006c50    0x18  stm32f4_discovery.o [1]
  .text              ro code  0x08006c68    0x16  cmain.o [6]
  .text              ro code  0x08006c7e     0x4  low_level_init.o [3]
  .text              ro code  0x08006c82     0x4  exit.o [3]
  .text              ro code  0x08006c88     0xa  cexit.o [6]
  .text              ro code  0x08006c94    0x10  startup_stm32f4xx.o [1]
  .rodata            const    0x08006ca4     0xc  stm32f4_discovery.o [1]
  .rodata            const    0x08006cb0     0xc  waverecorder.o [1]
  .text              ro code  0x08006cbc     0xc  cstartup_M.o [6]
  .text              ro code  0x08006cc8     0x4  startup_stm32f4xx.o [1]
  .text              ro code  0x08006ccc     0x4  startup_stm32f4xx.o [1]
  .text              ro code  0x08006cd0     0x4  startup_stm32f4xx.o [1]
  .text              ro code  0x08006cd4     0x4  startup_stm32f4xx.o [1]
  .text              ro code  0x08006cd8     0x4  startup_stm32f4xx.o [1]
  .text              ro code  0x08006cdc     0x4  startup_stm32f4xx.o [1]
  .text              ro code  0x08006ce0     0x4  startup_stm32f4xx.o [1]
  .text              ro code  0x08006ce4     0x4  startup_stm32f4xx.o [1]
  .text              ro code  0x08006ce8     0x4  startup_stm32f4xx.o [1]
  .text              ro code  0x08006cec     0x4  startup_stm32f4xx.o [1]
  .text              ro code  0x08006cf0     0x4  startup_stm32f4xx.o [1]
  .text              ro code  0x08006cf4     0x4  startup_stm32f4xx.o [1]
  .text              ro code  0x08006cf8     0x4  startup_stm32f4xx.o [1]
  .text              ro code  0x08006cfc     0x4  startup_stm32f4xx.o [1]
  .text              ro code  0x08006d00     0x4  startup_stm32f4xx.o [1]
  .text              ro code  0x08006d04     0x4  startup_stm32f4xx.o [1]
  .text              ro code  0x08006d08     0x4  startup_stm32f4xx.o [1]
  .text              ro code  0x08006d0c     0x4  startup_stm32f4xx.o [1]
  .text              ro code  0x08006d10     0x4  startup_stm32f4xx.o [1]
  .text              ro code  0x08006d14     0x4  startup_stm32f4xx.o [1]
  .text              ro code  0x08006d18     0x4  startup_stm32f4xx.o [1]
  .text              ro code  0x08006d1c     0x4  startup_stm32f4xx.o [1]
  .text              ro code  0x08006d20     0x4  startup_stm32f4xx.o [1]
  .text              ro code  0x08006d24     0x4  startup_stm32f4xx.o [1]
  .text              ro code  0x08006d28     0x4  startup_stm32f4xx.o [1]
  .text              ro code  0x08006d2c     0x4  startup_stm32f4xx.o [1]
  .text              ro code  0x08006d30     0x4  startup_stm32f4xx.o [1]
  .text              ro code  0x08006d34     0x4  startup_stm32f4xx.o [1]
  .text              ro code  0x08006d38     0x4  startup_stm32f4xx.o [1]
  .text              ro code  0x08006d3c     0x4  startup_stm32f4xx.o [1]
  .text              ro code  0x08006d40     0x4  startup_stm32f4xx.o [1]
  .text              ro code  0x08006d44     0x4  startup_stm32f4xx.o [1]
  .text              ro code  0x08006d48     0x4  startup_stm32f4xx.o [1]
  .text              ro code  0x08006d4c     0x4  startup_stm32f4xx.o [1]
  .text              ro code  0x08006d50     0x4  startup_stm32f4xx.o [1]
  .text              ro code  0x08006d54     0x4  startup_stm32f4xx.o [1]
  .text              ro code  0x08006d58     0x4  startup_stm32f4xx.o [1]
  .text              ro code  0x08006d5c     0x4  startup_stm32f4xx.o [1]
  .text              ro code  0x08006d60     0x4  startup_stm32f4xx.o [1]
  .text              ro code  0x08006d64     0x4  startup_stm32f4xx.o [1]
  .text              ro code  0x08006d68     0x4  startup_stm32f4xx.o [1]
  .text              ro code  0x08006d6c     0x4  startup_stm32f4xx.o [1]
  .text              ro code  0x08006d70     0x4  startup_stm32f4xx.o [1]
  .text              ro code  0x08006d74     0x4  startup_stm32f4xx.o [1]
  .text              ro code  0x08006d78     0x4  startup_stm32f4xx.o [1]
  .text              ro code  0x08006d7c     0x4  startup_stm32f4xx.o [1]
  .text              ro code  0x08006d80     0x4  startup_stm32f4xx.o [1]
  .text              ro code  0x08006d84     0x4  startup_stm32f4xx.o [1]
  .text              ro code  0x08006d88     0x4  startup_stm32f4xx.o [1]
  .text              ro code  0x08006d8c     0x4  startup_stm32f4xx.o [1]
  .text              ro code  0x08006d90     0x4  startup_stm32f4xx.o [1]
  .text              ro code  0x08006d94     0x4  startup_stm32f4xx.o [1]
  .text              ro code  0x08006d98     0x4  startup_stm32f4xx.o [1]
  .text              ro code  0x08006d9c     0x4  startup_stm32f4xx.o [1]
  .text              ro code  0x08006da0     0x4  startup_stm32f4xx.o [1]
  .text              ro code  0x08006da4     0x4  startup_stm32f4xx.o [1]
  .text              ro code  0x08006da8     0x4  startup_stm32f4xx.o [1]
  .text              ro code  0x08006dac     0x4  startup_stm32f4xx.o [1]
  .text              ro code  0x08006db0     0x4  startup_stm32f4xx.o [1]
  .text              ro code  0x08006db4     0x4  startup_stm32f4xx.o [1]
  .text              ro code  0x08006db8     0x4  startup_stm32f4xx.o [1]
  .text              ro code  0x08006dbc     0x4  startup_stm32f4xx.o [1]
  .text              ro code  0x08006dc0     0x4  startup_stm32f4xx.o [1]
  .text              ro code  0x08006dc4     0x4  startup_stm32f4xx.o [1]
  .text              ro code  0x08006dc8     0x4  startup_stm32f4xx.o [1]
  .text              ro code  0x08006dcc     0x4  startup_stm32f4xx.o [1]
  .text              ro code  0x08006dd0     0x4  startup_stm32f4xx.o [1]
  .text              ro code  0x08006dd4     0x4  startup_stm32f4xx.o [1]
  .text              ro code  0x08006dd8     0x4  startup_stm32f4xx.o [1]
  .text              ro code  0x08006ddc     0x4  startup_stm32f4xx.o [1]
  .text              ro code  0x08006de0     0x4  startup_stm32f4xx.o [1]
  .text              ro code  0x08006de4     0x4  startup_stm32f4xx.o [1]
  .text              ro code  0x08006de8     0x4  startup_stm32f4xx.o [1]
  .text              ro code  0x08006dec     0x4  startup_stm32f4xx.o [1]
  .text              ro code  0x08006df0     0x4  startup_stm32f4xx.o [1]
  .text              ro code  0x08006df4     0x4  startup_stm32f4xx.o [1]
  .text              ro code  0x08006df8     0x4  startup_stm32f4xx.o [1]
  .text              ro code  0x08006dfc     0x4  startup_stm32f4xx.o [1]
  .text              ro code  0x08006e00     0x4  startup_stm32f4xx.o [1]
  .text              ro code  0x08006e04     0x4  startup_stm32f4xx.o [1]
  .text              ro code  0x08006e08     0x4  startup_stm32f4xx.o [1]
  .text              ro code  0x08006e0c     0x4  startup_stm32f4xx.o [1]
  .text              ro code  0x08006e10     0x4  startup_stm32f4xx.o [1]
  .text              ro code  0x08006e14     0x4  startup_stm32f4xx.o [1]
  .text              ro code  0x08006e18     0x4  startup_stm32f4xx.o [1]
  .text              ro code  0x08006e1c     0x4  startup_stm32f4xx.o [1]
  .text              ro code  0x08006e20     0x4  startup_stm32f4xx.o [1]
  .text              ro code  0x08006e24     0x4  startup_stm32f4xx.o [1]
  .text              ro code  0x08006e28     0x4  startup_stm32f4xx.o [1]
  .text              ro code  0x08006e2c     0x4  startup_stm32f4xx.o [1]
  .text              ro code  0x08006e30     0x4  startup_stm32f4xx.o [1]
  .rodata            const    0x08006e34     0x0  zero_init3.o [6]
  .rodata            const    0x08006e34     0x0  lz77_init3c.o [6]
  Initializer bytes  ro data  0x08006e34   0x2f6  <for P2 s0>
                            - 0x0800712a  0x6fa2

"P2", part 1 of 3:                        0x14a8
  P2 s0                       0x20000000  0x14a7  <Init block>
    .data            inited   0x20000000  0x1034  waveplayer.o [1]
    .data            inited   0x20001034   0x304  pdm_filter.o [4]
    .data            inited   0x20001338    0x78  stm32f4_discovery_audio_codec.o [1]
    .data            inited   0x200013b0    0x4c  waverecorder.o [1]
    .data            inited   0x200013fc    0x48  usbh_usr.o [1]
    .data            inited   0x20001444    0x14  system_stm32f4xx.o [1]
    .data            inited   0x20001458    0x10  stm32f4_discovery.o [1]
    .data            inited   0x20001468    0x10  stm32f4xx_rcc.o [1]
    .data            inited   0x20001478    0x10  usbh_msc_core.o [1]
    .data            inited   0x20001488     0xc  usbh_core.o [1]
    .data            inited   0x20001494     0x4  stm32f4_discovery.o [1]
    .data            inited   0x20001498     0x4  stm32f4_discovery_audio_codec.o [1]
    .data            inited   0x2000149c     0x4  stm32f4_discovery_lis302dl.o [1]
    .data            inited   0x200014a0     0x2  main.o [1]
    .data            inited   0x200014a2     0x2  stm32f4xx_it.o [1]
    .data            inited   0x200014a4     0x1  usbh_msc_fatfs.o [1]
    .data            inited   0x200014a5     0x1  usbh_msc_scsi.o [1]
    .data            inited   0x200014a6     0x1  waveplayer.o [1]
                            - 0x200014a7  0x14a7

"P2", part 2 of 3:                        0x2ef8
  .bss               zero     0x200014a8  0x19c0  waverecorder.o [1]
  .bss               zero     0x20002e68   0x548  main.o [1]
  .bss               zero     0x200033b0   0x434  usbh_usr.o [1]
  .bss               zero     0x200037e4   0x424  usbh_usr.o [1]
  .bss               zero     0x20003c08   0x424  usbh_usr.o [1]
  .bss               zero     0x2000402c   0x200  usbh_msc_scsi.o [1]
  .bss               zero     0x2000422c    0x84  waverecorder.o [1]
  .bss               zero     0x200042b0    0x4c  usbh_msc_core.o [1]
  .bss               zero     0x200042fc    0x30  usbh_msc_bot.o [1]
  .bss               zero     0x2000432c    0x20  usbh_msc_bot.o [1]
  .bss               zero     0x2000434c    0x1c  usbh_usr.o [1]
  .bss               zero     0x20004368    0x10  usbh_msc_scsi.o [1]
  .bss               zero     0x20004378     0x8  ff.o [1]
  .bss               zero     0x20004380     0x8  waveplayer.o [1]
  .bss               zero     0x20004388     0x4  stm32f4xx_it.o [1]
  .bss               zero     0x2000438c     0x4  usb_bsp.o [1]
  .bss               zero     0x20004390     0x4  waveplayer.o [1]
  .bss               zero     0x20004394     0x2  stm32f4xx_it.o [1]
  .bss               zero     0x20004396     0x2  usbh_core.o [1]
  .bss               zero     0x20004398     0x2  usbh_msc_core.o [1]
  .bss               zero     0x2000439a     0x1  usbh_usr.o [1]
                            - 0x2000439b  0x2ef3

"P2", part 3 of 3:                         0x400
  CSTACK                      0x200043a0   0x400  <Block>
    CSTACK           uninit   0x200043a0   0x400  <Block tail>
                            - 0x200047a0   0x400


*******************************************************************************
*** INIT TABLE
***

          Address     Size
          -------     ----
Zero (__iar_zero_init3)
    1 destination range, total size 0x2ef3:
          0x200014a8  0x2ef3

Copy/lz77 (__iar_lz77_init3)
    1 source range, total size 0x2f6 (14% of destination):
          0x08006e34   0x2f6
    1 destination range, total size 0x14a7:
          0x20000000  0x14a7



*******************************************************************************
*** MODULE SUMMARY
***

    Module                           ro code  ro data  rw data
    ------                           -------  -------  -------
C:\Users\Sin\Documents\STM32\STM32F4-Discovery_FW_V1.1.0\Project\Audio_playback_and_record\EWARM\MEDIA_USB_KEY\Obj: [1]
    fattime.o                              4
    ff.o                               4 890      140        8
    main.o                               352        1    1 354
    misc.o                               140
    startup_stm32f4xx.o                  772
    stm32f4_discovery.o                  268       38       20
    stm32f4_discovery_audio_codec.o    2 258       18      124
    stm32f4_discovery_lis302dl.o         592                 4
    stm32f4xx_dac.o                       96
    stm32f4xx_dma.o                      504
    stm32f4xx_exti.o                     144
    stm32f4xx_gpio.o                     166
    stm32f4xx_i2c.o                      472
    stm32f4xx_it.o                       384                 8
    stm32f4xx_rcc.o                      276        3       16
    stm32f4xx_spi.o                      482
    stm32f4xx_syscfg.o                    40
    stm32f4xx_tim.o                      334
    system_stm32f4xx.o                   276        3       20
    usb_bsp.o                            518                 4
    usb_core.o                         1 652
    usb_hcd.o                            158
    usb_hcd_int.o                      1 852
    usbh_core.o                        1 462        2       14
    usbh_hcs.o                           222
    usbh_ioreq.o                         262
    usbh_msc_bot.o                       656                80
    usbh_msc_core.o                      576        2       94
    usbh_msc_fatfs.o                     292                 1
    usbh_msc_scsi.o                      900               529
    usbh_stdreq.o                        600
    usbh_usr.o                           292       10    3 297
    waveplayer.o                       1 320      623    4 161
    waverecorder.o                     1 200       23    6 800
    ----------------------------------------------------------
    Total:                            24 412      863   16 534

command line: [2]
    ----------------------------------------------------------
    Total:

dl7M_tln.a: [3]
    abort.o                                6
    exit.o                                 4
    low_level_init.o                       4
    ----------------------------------------------------------
    Total:                                14

libPDMFilter_IAR.a: [4]
    pdm_filter.o                       1 024      111      772
    ----------------------------------------------------------
    Total:                             1 024      111      772

m7M_tlv.a: [5]
    DblAdd.o                             232
    DblDiv.o                             582
    DblMul.o                             418
    DblSub.o                             364
    DblToI32.o                            76
    FltCmpEq.o                            28
    FltMul.o                              18
    FltToDbl.o                            78
    I32ToDbl.o                            48
    fpinit_M.o                            26
    ----------------------------------------------------------
    Total:                             1 870

rt7M_tl.a: [6]
    ABImemset.o                          102
    cexit.o                               10
    cmain.o                               22
    cstartup_M.o                          12
    data_init3.o                          40
    lz77_init3c.o                        362
    zero_init3.o                          34
    ----------------------------------------------------------
    Total:                               582

shb_l.a: [7]
    exit.o                                20
    ----------------------------------------------------------
    Total:                                20

    Gaps                                  28        2
    Linker created                                 44    1 024
--------------------------------------------------------------
    Grand Total:                      27 950    1 020   18 330


*******************************************************************************
*** ENTRY LIST
***

Entry                      Address   Size  Type      Object
-----                      -------   ----  ----      ------
?main                   0x08006c69         Code  Gb  cmain.o [6]
ADC_IRQHandler          0x08006d35         Code  Wk  startup_stm32f4xx.o [1]
AHBPrescTable           0x20001444   0x10  Data  Gb  system_stm32f4xx.o [1]
APBAHBPrescTable        0x20001468   0x10  Data  Lc  stm32f4xx_rcc.o [1]
AUDIO_MAL_DMA_CHANNEL   0x20001394    0x4  Data  Gb  stm32f4_discovery_audio_codec.o [1]
AUDIO_MAL_DMA_CLOCK     0x20001388    0x4  Data  Gb  stm32f4_discovery_audio_codec.o [1]
AUDIO_MAL_DMA_DREG      0x20001390    0x4  Data  Gb  stm32f4_discovery_audio_codec.o [1]
AUDIO_MAL_DMA_FLAG_DME  0x200013ac    0x4  Data  Gb  stm32f4_discovery_audio_codec.o [1]
AUDIO_MAL_DMA_FLAG_FE   0x200013a4    0x4  Data  Gb  stm32f4_discovery_audio_codec.o [1]
AUDIO_MAL_DMA_FLAG_HT   0x200013a0    0x4  Data  Gb  stm32f4_discovery_audio_codec.o [1]
AUDIO_MAL_DMA_FLAG_TC   0x2000139c    0x4  Data  Gb  stm32f4_discovery_audio_codec.o [1]
AUDIO_MAL_DMA_FLAG_TE   0x200013a8    0x4  Data  Gb  stm32f4_discovery_audio_codec.o [1]
AUDIO_MAL_DMA_IRQ       0x20001398    0x4  Data  Gb  stm32f4_discovery_audio_codec.o [1]
AUDIO_MAL_DMA_STREAM    0x2000138c    0x4  Data  Gb  stm32f4_discovery_audio_codec.o [1]
AudioPlayStart          0x20000002    0x1  Data  Gb  waveplayer.o [1]
AudioRecBitRes          0x200013e8    0x4  Data  Gb  waverecorder.o [1]
AudioRecChnlNbr         0x200013f0    0x4  Data  Gb  waverecorder.o [1]
AudioRecCurrSize        0x200013f8    0x4  Data  Gb  waverecorder.o [1]
AudioRecInited          0x200013e4    0x4  Data  Lc  waverecorder.o [1]
AudioRemSize            0x2000137c    0x4  Data  Gb  stm32f4_discovery_audio_codec.o [1]
AudioTotalSize          0x20001378    0x4  Data  Gb  stm32f4_discovery_audio_codec.o [1]
Audio_MAL_IRQHandler    0x08002d97   0x82  Code  Lc  stm32f4_discovery_audio_codec.o [1]
Audio_MAL_Init          0x0800333f   0x9e  Code  Lc  stm32f4_discovery_audio_codec.o [1]
Audio_MAL_Play          0x080033f7   0x34  Code  Gb  stm32f4_discovery_audio_codec.o [1]
BOTStallErrorCount      0x20004320    0x4  Data  Lc  usbh_msc_bot.o [1]
BSP_Delay               0x080027eb   0x64  Code  Lc  usb_bsp.o [1]
BSP_delay               0x2000438c    0x4  Data  Gb  usb_bsp.o [1]
BUTTON_CLK              0x08006cac    0x4  Data  Gb  stm32f4_discovery.o [1]
BUTTON_EXTI_LINE        0x08006caa    0x2  Data  Gb  stm32f4_discovery.o [1]
BUTTON_IRQn             0x08006ca6    0x1  Data  Gb  stm32f4_discovery.o [1]
BUTTON_PIN              0x08006ca8    0x2  Data  Gb  stm32f4_discovery.o [1]
BUTTON_PIN_SOURCE       0x08006ca5    0x1  Data  Gb  stm32f4_discovery.o [1]
BUTTON_PORT             0x20001494    0x4  Data  Gb  stm32f4_discovery.o [1]
BUTTON_PORT_SOURCE      0x08006ca4    0x1  Data  Gb  stm32f4_discovery.o [1]
Buffer                  0x20004380    0x8  Data  Gb  waveplayer.o [1]
BusFault_Handler        0x080064a3    0x2  Code  Gb  stm32f4xx_it.o [1]
BytesRead               0x20000030    0x4  Data  Gb  waveplayer.o [1]
CAN1_RX0_IRQHandler     0x08006d3d         Code  Wk  startup_stm32f4xx.o [1]
CAN1_RX1_IRQHandler     0x08006d41         Code  Wk  startup_stm32f4xx.o [1]
CAN1_SCE_IRQHandler     0x08006d45         Code  Wk  startup_stm32f4xx.o [1]
CAN1_TX_IRQHandler      0x08006d39         Code  Wk  startup_stm32f4xx.o [1]
CAN2_RX0_IRQHandler     0x08006ded         Code  Wk  startup_stm32f4xx.o [1]
CAN2_RX1_IRQHandler     0x08006df1         Code  Wk  startup_stm32f4xx.o [1]
CAN2_SCE_IRQHandler     0x08006df5         Code  Wk  startup_stm32f4xx.o [1]
CAN2_TX_IRQHandler      0x08006de9         Code  Wk  startup_stm32f4xx.o [1]
CCR_Val                 0x200014a0    0x2  Data  Gb  main.o [1]
CODECTimeout            0x20001498    0x4  Data  Gb  stm32f4_discovery_audio_codec.o [1]
COMMAND_AudioExecuteApplication
                        0x080069dd   0x20  Code  Gb  usbh_usr.o [1]
CRYP_IRQHandler         0x08006e29         Code  Wk  startup_stm32f4xx.o [1]
CSTACK$$Base            0x200043a0          --   Gb  - Linker created -
CSTACK$$Limit           0x200047a0          --   Gb  - Linker created -
Codec_AudioInterface_Init
                        0x080031fb   0x62  Code  Lc  stm32f4_discovery_audio_codec.o [1]
Codec_GPIO_Init         0x0800325d   0xba  Code  Lc  stm32f4_discovery_audio_codec.o [1]
Codec_Init              0x08002e6d  0x128  Code  Lc  stm32f4_discovery_audio_codec.o [1]
Codec_Mute              0x08002fb7   0x10  Code  Lc  stm32f4_discovery_audio_codec.o [1]
Codec_ReadRegister      0x080030db  0x108  Code  Lc  stm32f4_discovery_audio_codec.o [1]
Codec_Reset             0x08002fc7   0x2a  Code  Lc  stm32f4_discovery_audio_codec.o [1]
Codec_TIMEOUT_UserCallback
                        0x08003acf    0x4  Code  Gb  waveplayer.o [1]
Codec_VolumeCtrl        0x08002f9b   0x1c  Code  Lc  stm32f4_discovery_audio_codec.o [1]
Codec_WriteRegister     0x08003001   0xd0  Code  Lc  stm32f4_discovery_audio_codec.o [1]
Command_index           0x2000439a    0x1  Data  Gb  usbh_usr.o [1]
Count                   0x200014a3    0x1  Data  Gb  stm32f4xx_it.o [1]
CurrAudioInterface      0x20001384    0x4  Data  Gb  stm32f4_discovery_audio_codec.o [1]
CurrentPos              0x20001380    0x4  Data  Gb  stm32f4_discovery_audio_codec.o [1]
DAC_Cmd                 0x08003e13   0x18  Code  Gb  stm32f4xx_dac.o [1]
DAC_Config              0x0800342b   0x34  Code  Gb  stm32f4_discovery_audio_codec.o [1]
DAC_Init                0x08003ded   0x26  Code  Gb  stm32f4xx_dac.o [1]
DAC_SetChannel1Data     0x08003e2b    0xa  Code  Gb  stm32f4xx_dac.o [1]
DCMI_IRQHandler         0x08006e25         Code  Wk  startup_stm32f4xx.o [1]
DMA1_Stream0_IRQHandler
                        0x08002e33    0x2  Code  Gb  stm32f4_discovery_audio_codec.o [1]
DMA1_Stream1_IRQHandler
                        0x08006d1d         Code  Wk  startup_stm32f4xx.o [1]
DMA1_Stream2_IRQHandler
                        0x08006d21         Code  Wk  startup_stm32f4xx.o [1]
DMA1_Stream3_IRQHandler
                        0x08006d25         Code  Wk  startup_stm32f4xx.o [1]
DMA1_Stream4_IRQHandler
                        0x08006d29         Code  Wk  startup_stm32f4xx.o [1]
DMA1_Stream5_IRQHandler
                        0x08006d2d         Code  Wk  startup_stm32f4xx.o [1]
DMA1_Stream6_IRQHandler
                        0x08006d31         Code  Wk  startup_stm32f4xx.o [1]
DMA1_Stream7_IRQHandler
                        0x08002e31    0x2  Code  Gb  stm32f4_discovery_audio_codec.o [1]
DMA2_Stream0_IRQHandler
                        0x08006dcd         Code  Wk  startup_stm32f4xx.o [1]
DMA2_Stream1_IRQHandler
                        0x08006dd1         Code  Wk  startup_stm32f4xx.o [1]
DMA2_Stream2_IRQHandler
                        0x08006dd5         Code  Wk  startup_stm32f4xx.o [1]
DMA2_Stream3_IRQHandler
                        0x08006dd9         Code  Wk  startup_stm32f4xx.o [1]
DMA2_Stream4_IRQHandler
                        0x08006ddd         Code  Wk  startup_stm32f4xx.o [1]
DMA2_Stream5_IRQHandler
                        0x08006dfd         Code  Wk  startup_stm32f4xx.o [1]
DMA2_Stream6_IRQHandler
                        0x08006e01         Code  Wk  startup_stm32f4xx.o [1]
DMA2_Stream7_IRQHandler
                        0x08006e05         Code  Wk  startup_stm32f4xx.o [1]
DMA_ClearFlag           0x08003819   0x1a  Code  Gb  stm32f4xx_dma.o [1]
DMA_Cmd                 0x080037dd   0x12  Code  Gb  stm32f4xx_dma.o [1]
DMA_DeInit              0x080036cd   0xc0  Code  Gb  stm32f4xx_dma.o [1]
DMA_GetCmdStatus        0x080037ef    0x2  Code  Gb  stm32f4xx_dma.o [1]
DMA_GetFlagStatus       0x080037f7   0x22  Code  Gb  stm32f4xx_dma.o [1]
DMA_ITConfig            0x08003833   0x2c  Code  Gb  stm32f4xx_dma.o [1]
DMA_Init                0x0800378d   0x50  Code  Gb  stm32f4xx_dma.o [1]
DMA_InitStructure       0x2000133c   0x3c  Data  Gb  stm32f4_discovery_audio_codec.o [1]
Data_Status             0x200013ec    0x4  Data  Gb  waverecorder.o [1]
DebugMon_Handler        0x080064a9    0x2  Code  Gb  stm32f4xx_it.o [1]
Delay                   0x08003ad3   0x12  Code  Gb  waveplayer.o [1]
ETH_IRQHandler          0x08006de1         Code  Wk  startup_stm32f4xx.o [1]
ETH_WKUP_IRQHandler     0x08006de5         Code  Wk  startup_stm32f4xx.o [1]
EVAL_AUDIO_GetSampleCallBack
                        0x08003acb    0x4  Code  Gb  waveplayer.o [1]
EVAL_AUDIO_Init         0x08002c93   0x26  Code  Gb  stm32f4_discovery_audio_codec.o [1]
EVAL_AUDIO_PauseResume  0x08002cb9   0x72  Code  Gb  stm32f4_discovery_audio_codec.o [1]
EVAL_AUDIO_SetAudioInterface
                        0x08002c15   0x7e  Code  Gb  stm32f4_discovery_audio_codec.o [1]
EVAL_AUDIO_Stop         0x08002d2b   0x6c  Code  Gb  stm32f4_discovery_audio_codec.o [1]
EVAL_AUDIO_TransferComplete_CallBack
                        0x08003aab   0x20  Code  Gb  waveplayer.o [1]
EXTI0_IRQHandler        0x080065af   0x30  Code  Gb  stm32f4xx_it.o [1]
EXTI15_10_IRQHandler    0x08006d8d         Code  Wk  startup_stm32f4xx.o [1]
EXTI1_IRQHandler        0x080064c5   0x26  Code  Gb  stm32f4xx_it.o [1]
EXTI2_IRQHandler        0x08006d0d         Code  Wk  startup_stm32f4xx.o [1]
EXTI3_IRQHandler        0x08006d11         Code  Wk  startup_stm32f4xx.o [1]
EXTI4_IRQHandler        0x08006d15         Code  Wk  startup_stm32f4xx.o [1]
EXTI9_5_IRQHandler      0x08006d49         Code  Wk  startup_stm32f4xx.o [1]
EXTILine_Config         0x08003d1f   0x78  Code  Lc  waveplayer.o [1]
EXTI_ClearITPendingBit  0x08004425    0x2  Code  Gb  stm32f4xx_exti.o [1]
EXTI_GetITStatus        0x0800440f   0x16  Code  Gb  stm32f4xx_exti.o [1]
EXTI_Init               0x080043a9   0x66  Code  Gb  stm32f4xx_exti.o [1]
FLASH_IRQHandler        0x08006cfd         Code  Wk  startup_stm32f4xx.o [1]
FPU_IRQHandler          0x08006e31         Code  Wk  startup_stm32f4xx.o [1]
FSMC_IRQHandler         0x08006dad         Code  Wk  startup_stm32f4xx.o [1]
FatFs                   0x2000437c    0x4  Data  Lc  ff.o [1]
Filter                  0x200013b0   0x34  Data  Gb  waverecorder.o [1]
Fsid                    0x20004378    0x2  Data  Lc  ff.o [1]
GPIO_CLK                0x08006c58   0x10  Data  Gb  stm32f4_discovery.o [1]
GPIO_Init               0x08002991   0x70  Code  Gb  stm32f4xx_gpio.o [1]
GPIO_PIN                0x08006c50    0x8  Data  Gb  stm32f4_discovery.o [1]
GPIO_PORT               0x20001458   0x10  Data  Gb  stm32f4_discovery.o [1]
GPIO_PinAFConfig        0x08002a13   0x24  Code  Gb  stm32f4xx_gpio.o [1]
GPIO_ResetBits          0x08002a05    0x4  Code  Gb  stm32f4xx_gpio.o [1]
GPIO_SetBits            0x08002a01    0x4  Code  Gb  stm32f4xx_gpio.o [1]
GPIO_WriteBit           0x08002a09    0xa  Code  Gb  stm32f4xx_gpio.o [1]
HASH_RNG_IRQHandler     0x08006e2d         Code  Wk  startup_stm32f4xx.o [1]
HCD_GetCurrentFrame     0x0800165d    0x8  Code  Gb  usb_hcd.o [1]
HCD_GetCurrentSpeed     0x08001641    0xc  Code  Gb  usb_hcd.o [1]
HCD_GetURB_State        0x08001665    0x8  Code  Gb  usb_hcd.o [1]
HCD_GetXferCnt          0x0800166d    0xa  Code  Gb  usb_hcd.o [1]
HCD_Init                0x080015ed   0x54  Code  Gb  usb_hcd.o [1]
HCD_IsDeviceConnected   0x08001657    0x6  Code  Gb  usb_hcd.o [1]
HCD_ResetPort           0x0800164d    0xa  Code  Gb  usb_hcd.o [1]
HCD_SubmitRequest       0x08001677   0x14  Code  Gb  usb_hcd.o [1]
HardFault_Handler       0x0800649f    0x2  Code  Gb  stm32f4xx_it.o [1]
I2C1_ER_IRQHandler      0x08006d6d         Code  Wk  startup_stm32f4xx.o [1]
I2C1_EV_IRQHandler      0x08006d69         Code  Wk  startup_stm32f4xx.o [1]
I2C2_ER_IRQHandler      0x08006d75         Code  Wk  startup_stm32f4xx.o [1]
I2C2_EV_IRQHandler      0x08006d71         Code  Wk  startup_stm32f4xx.o [1]
I2C3_ER_IRQHandler      0x08006e11         Code  Wk  startup_stm32f4xx.o [1]
I2C3_EV_IRQHandler      0x08006e0d         Code  Wk  startup_stm32f4xx.o [1]
I2C_AcknowledgeConfig   0x08003fb1   0x14  Code  Gb  stm32f4xx_i2c.o [1]
I2C_CheckEvent          0x08003fcf   0x1a  Code  Gb  stm32f4xx_i2c.o [1]
I2C_ClearFlag           0x0800401d    0x2  Code  Gb  stm32f4xx_i2c.o [1]
I2C_Cmd                 0x08003f65   0x14  Code  Gb  stm32f4xx_i2c.o [1]
I2C_DeInit              0x08003e4d   0x52  Code  Gb  stm32f4xx_i2c.o [1]
I2C_GenerateSTART       0x08003f79   0x14  Code  Gb  stm32f4xx_i2c.o [1]
I2C_GenerateSTOP        0x08003f8d   0x14  Code  Gb  stm32f4xx_i2c.o [1]
I2C_GetFlagStatus       0x08003fe9   0x34  Code  Gb  stm32f4xx_i2c.o [1]
I2C_Init                0x08003e9f   0xb0  Code  Gb  stm32f4xx_i2c.o [1]
I2C_ReceiveData         0x08003fc9    0x6  Code  Gb  stm32f4xx_i2c.o [1]
I2C_Send7bitAddress     0x08003fa1   0x10  Code  Gb  stm32f4xx_i2c.o [1]
I2C_SendData            0x08003fc5    0x4  Code  Gb  stm32f4xx_i2c.o [1]
I2S_Cmd                 0x08003651   0x14  Code  Gb  stm32f4xx_spi.o [1]
I2S_Init                0x08003579   0xac  Code  Gb  stm32f4xx_spi.o [1]
InStream_Read           0x0800661d   0x28  Code  Lc  lz77_init3c.o [6]
InternalBuffer          0x2000422c   0x80  Data  Lc  waverecorder.o [1]
InternalBufferSize      0x200042ac    0x4  Data  Lc  waverecorder.o [1]
LED_Toggle              0x20004388    0x1  Data  Gb  stm32f4xx_it.o [1]
LIS302DLTimeout         0x2000149c    0x4  Data  Gb  stm32f4_discovery_lis302dl.o [1]
LIS302DL_Init           0x08004025   0x20  Code  Gb  stm32f4_discovery_lis302dl.o [1]
LIS302DL_InterruptConfig
                        0x0800404f   0x26  Code  Gb  stm32f4_discovery_lis302dl.o [1]
LIS302DL_LowLevel_Init  0x080040fb   0xf4  Code  Lc  stm32f4_discovery_lis302dl.o [1]
LIS302DL_Read           0x080040b5   0x30  Code  Gb  stm32f4_discovery_lis302dl.o [1]
LIS302DL_SendByte       0x0800420f   0x52  Code  Lc  stm32f4_discovery_lis302dl.o [1]
LIS302DL_TIMEOUT_UserCallback
                        0x08003aa9    0x2  Code  Gb  waveplayer.o [1]
LIS302DL_Write          0x08004087   0x2e  Code  Gb  stm32f4_discovery_lis302dl.o [1]
MSCErrorCount           0x20004398    0x1  Data  Gb  usbh_msc_core.o [1]
MSC_Machine             0x200042b0   0x4c  Data  Gb  usbh_msc_core.o [1]
MemManage_Handler       0x080064a1    0x2  Code  Gb  stm32f4xx_it.o [1]
NMI_Handler             0x0800649d    0x2  Code  Gb  stm32f4xx_it.o [1]
NVIC_Init               0x08002a43   0x58  Code  Gb  misc.o [1]
NVIC_PriorityGroupConfig
                        0x08002a39    0xa  Code  Gb  misc.o [1]
NVIC_SetVectorTable     0x08002a9b    0xc  Code  Gb  misc.o [1]
OTG_FS_IRQHandler       0x080065eb    0x6  Code  Gb  stm32f4xx_it.o [1]
OTG_FS_WKUP_IRQHandler  0x08006d95         Code  Wk  startup_stm32f4xx.o [1]
OTG_HS_EP1_IN_IRQHandler
                        0x08006e19         Code  Wk  startup_stm32f4xx.o [1]
OTG_HS_EP1_OUT_IRQHandler
                        0x08006e15         Code  Wk  startup_stm32f4xx.o [1]
OTG_HS_IRQHandler       0x08006e21         Code  Wk  startup_stm32f4xx.o [1]
OTG_HS_WKUP_IRQHandler  0x08006e1d         Code  Wk  startup_stm32f4xx.o [1]
OutputDev               0x20001338    0x1  Data  Gb  stm32f4_discovery_audio_codec.o [1]
PDM_Filter_64_LSB       0x080057ad  0x2ee  Code  Gb  pdm_filter.o [4]
PDM_Filter_Init         0x080056b9   0xf4  Code  Gb  pdm_filter.o [4]
PVD_IRQHandler          0x08006cf1         Code  Wk  startup_stm32f4xx.o [1]
PauseResumeStatus       0x200014a2    0x1  Data  Gb  stm32f4xx_it.o [1]
PendSV_Handler          0x080064ab    0x2  Code  Gb  stm32f4xx_it.o [1]
RAM_Buf                 0x200016b0  0xbb8  Data  Gb  waverecorder.o [1]
RAM_Buf1                0x20002268  0xbb8  Data  Gb  waverecorder.o [1]
RCC_AHB1PeriphClockCmd  0x080028fd   0x12  Code  Gb  stm32f4xx_rcc.o [1]
RCC_AHB2PeriphClockCmd  0x0800290f   0x12  Code  Gb  stm32f4xx_rcc.o [1]
RCC_APB1PeriphClockCmd  0x08002921   0x12  Code  Gb  stm32f4xx_rcc.o [1]
RCC_APB1PeriphResetCmd  0x08002945   0x12  Code  Gb  stm32f4xx_rcc.o [1]
RCC_APB2PeriphClockCmd  0x08002933   0x12  Code  Gb  stm32f4xx_rcc.o [1]
RCC_APB2PeriphResetCmd  0x08002957   0x12  Code  Gb  stm32f4xx_rcc.o [1]
RCC_Clocks              0x20002e6c   0x10  Data  Gb  main.o [1]
RCC_GetClocksFreq       0x0800287d   0x80  Code  Gb  stm32f4xx_rcc.o [1]
RCC_IRQHandler          0x08006d01         Code  Wk  startup_stm32f4xx.o [1]
RTC_Alarm_IRQHandler    0x08006d91         Code  Wk  startup_stm32f4xx.o [1]
RTC_WKUP_IRQHandler     0x08006cf9         Code  Wk  startup_stm32f4xx.o [1]
ReadUnit                0x08003cfb   0x24  Code  Gb  waveplayer.o [1]
RecBuf                  0x20002e28   0x20  Data  Gb  waverecorder.o [1]
RecBuf1                 0x20002e48   0x20  Data  Gb  waverecorder.o [1]
RecBufHeader            0x200014a8  0x200  Data  Gb  waverecorder.o [1]
Region$$Table$$Base     0x08006bec          --   Gb  - Linker created -
Region$$Table$$Limit    0x08006c18          --   Gb  - Linker created -
RepeatState             0x20002e68    0x1  Data  Gb  main.o [1]
Reset_Handler           0x08006c95         Code  Wk  startup_stm32f4xx.o [1]
SDIO_IRQHandler         0x08006db1         Code  Wk  startup_stm32f4xx.o [1]
SPI1_IRQHandler         0x08006d79         Code  Wk  startup_stm32f4xx.o [1]
SPI2_IRQHandler         0x0800535d   0x4a  Code  Gb  waverecorder.o [1]
SPI3_IRQHandler         0x08002e35   0x38  Code  Gb  stm32f4_discovery_audio_codec.o [1]
SPI_Cmd                 0x0800363d   0x14  Code  Gb  stm32f4xx_spi.o [1]
SPI_I2S_DMACmd          0x0800366d   0x10  Code  Gb  stm32f4xx_spi.o [1]
SPI_I2S_DeInit          0x080034e9   0x58  Code  Gb  stm32f4xx_spi.o [1]
SPI_I2S_GetFlagStatus   0x08003697    0xe  Code  Gb  stm32f4xx_spi.o [1]
SPI_I2S_GetITStatus     0x080036a5   0x26  Code  Gb  stm32f4xx_spi.o [1]
SPI_I2S_ITConfig        0x0800367d   0x1a  Code  Gb  stm32f4xx_spi.o [1]
SPI_I2S_ReceiveData     0x08003665    0x4  Code  Gb  stm32f4xx_spi.o [1]
SPI_I2S_SendData        0x08003669    0x4  Code  Gb  stm32f4xx_spi.o [1]
SPI_Init                0x08003541   0x38  Code  Gb  stm32f4xx_spi.o [1]
STM_EVAL_LEDInit        0x08004275   0x40  Code  Gb  stm32f4_discovery.o [1]
STM_EVAL_LEDOff         0x080042c5   0x10  Code  Gb  stm32f4_discovery.o [1]
STM_EVAL_LEDOn          0x080042b5   0x10  Code  Gb  stm32f4_discovery.o [1]
STM_EVAL_LEDToggle      0x080042d5   0x14  Code  Gb  stm32f4_discovery.o [1]
STM_EVAL_PBInit         0x080042e9   0x88  Code  Gb  stm32f4_discovery.o [1]
SVC_Handler             0x080064a7    0x2  Code  Gb  stm32f4xx_it.o [1]
SYSCFG_EXTILineConfig   0x08004381   0x22  Code  Gb  stm32f4xx_syscfg.o [1]
SpeechDataOffset        0x2000001c    0x4  Data  Lc  waveplayer.o [1]
Stat                    0x200014a4    0x1  Data  Lc  usbh_msc_fatfs.o [1]
Switch                  0x200016a9    0x1  Data  Gb  waverecorder.o [1]
SysTick_Handler         0x080064ad   0x18  Code  Gb  stm32f4xx_it.o [1]
SystemCoreClock         0x20001454    0x4  Data  Gb  system_stm32f4xx.o [1]
SystemInit              0x08006a25   0xea  Code  Gb  system_stm32f4xx.o [1]
T0                      0x20001038  0x100  Data  Gb  pdm_filter.o [4]
T1                      0x20001138  0x100  Data  Gb  pdm_filter.o [4]
T2                      0x20001238  0x100  Data  Gb  pdm_filter.o [4]
TAMP_STAMP_IRQHandler   0x08006cf5         Code  Wk  startup_stm32f4xx.o [1]
TIM1_BRK_TIM9_IRQHandler
                        0x08006d4d         Code  Wk  startup_stm32f4xx.o [1]
TIM1_CC_IRQHandler      0x08006d59         Code  Wk  startup_stm32f4xx.o [1]
TIM1_TRG_COM_TIM11_IRQHandler
                        0x08006d55         Code  Wk  startup_stm32f4xx.o [1]
TIM1_UP_TIM10_IRQHandler
                        0x08006d51         Code  Wk  startup_stm32f4xx.o [1]
TIM2_IRQHandler         0x080065e7    0x4  Code  Gb  stm32f4xx_it.o [1]
TIM3_IRQHandler         0x08006d61         Code  Wk  startup_stm32f4xx.o [1]
TIM4_IRQHandler         0x080064eb   0xc4  Code  Gb  stm32f4xx_it.o [1]
TIM5_IRQHandler         0x08006db5         Code  Wk  startup_stm32f4xx.o [1]
TIM6_DAC_IRQHandler     0x08006dc5         Code  Wk  startup_stm32f4xx.o [1]
TIM7_IRQHandler         0x08006dc9         Code  Wk  startup_stm32f4xx.o [1]
TIM8_BRK_TIM12_IRQHandler
                        0x08006d99         Code  Wk  startup_stm32f4xx.o [1]
TIM8_CC_IRQHandler      0x08006da5         Code  Wk  startup_stm32f4xx.o [1]
TIM8_TRG_COM_TIM14_IRQHandler
                        0x08006da1         Code  Wk  startup_stm32f4xx.o [1]
TIM8_UP_TIM13_IRQHandler
                        0x08006d9d         Code  Wk  startup_stm32f4xx.o [1]
TIM_ARRPreloadConfig    0x08002b27   0x14  Code  Gb  stm32f4xx_tim.o [1]
TIM_ClearITPendingBit   0x08002c0b    0x2  Code  Gb  stm32f4xx_tim.o [1]
TIM_Cmd                 0x08002b3b   0x14  Code  Gb  stm32f4xx_tim.o [1]
TIM_GetCapture1         0x08002be3    0x4  Code  Gb  stm32f4xx_tim.o [1]
TIM_GetITStatus         0x08002bf7   0x14  Code  Gb  stm32f4xx_tim.o [1]
TIM_ITConfig            0x08002be7   0x10  Code  Gb  stm32f4xx_tim.o [1]
TIM_LED_Config          0x08006827   0xb2  Code  Lc  main.o [1]
TIM_OC1Init             0x08002b4f   0x64  Code  Gb  stm32f4xx_tim.o [1]
TIM_OC1PreloadConfig    0x08002bd5    0x6  Code  Gb  stm32f4xx_tim.o [1]
TIM_SetCompare1         0x08002bd1    0x4  Code  Gb  stm32f4xx_tim.o [1]
TIM_TimeBaseInit        0x08002ac5   0x62  Code  Gb  stm32f4xx_tim.o [1]
Time_Rec_Base           0x20004394    0x2  Data  Gb  stm32f4xx_it.o [1]
TimingDelay             0x20004390    0x4  Data  Lc  waveplayer.o [1]
TimingDelay_Decrement   0x08003ae5    0xe  Code  Gb  waveplayer.o [1]
UART4_IRQHandler        0x08006dbd         Code  Wk  startup_stm32f4xx.o [1]
UART5_IRQHandler        0x08006dc1         Code  Wk  startup_stm32f4xx.o [1]
USART1_IRQHandler       0x08006d81         Code  Wk  startup_stm32f4xx.o [1]
USART2_IRQHandler       0x08006d85         Code  Wk  startup_stm32f4xx.o [1]
USART3_IRQHandler       0x08006d89         Code  Wk  startup_stm32f4xx.o [1]
USART6_IRQHandler       0x08006e09         Code  Wk  startup_stm32f4xx.o [1]
USBH_Alloc_Channel      0x080051a7   0x34  Code  Gb  usbh_hcs.o [1]
USBH_BulkReceiveData    0x080023e7   0x16  Code  Gb  usbh_ioreq.o [1]
USBH_BulkSendData       0x080023d1   0x16  Code  Gb  usbh_ioreq.o [1]
USBH_ClrFeature         0x08002517   0x2a  Code  Gb  usbh_stdreq.o [1]
USBH_Connect            0x08004b75   0x12  Code  Gb  usbh_core.o [1]
USBH_CtlReceiveData     0x080023b5   0x1c  Code  Gb  usbh_ioreq.o [1]
USBH_CtlReq             0x08002315   0x50  Code  Gb  usbh_ioreq.o [1]
USBH_CtlSendData        0x0800238b   0x2a  Code  Gb  usbh_ioreq.o [1]
USBH_CtlSendSetup       0x08002365   0x26  Code  Gb  usbh_ioreq.o [1]
USBH_DataInBuffer       0x2000402c  0x200  Data  Gb  usbh_msc_scsi.o [1]
USBH_DeAllocate_AllChannel
                        0x080051f3   0x16  Code  Gb  usbh_hcs.o [1]
USBH_DeInit             0x08004beb   0x38  Code  Gb  usbh_core.o [1]
USBH_DeviceConnStatus_cb
                        0x20001488    0xc  Data  Gb  usbh_core.o [1]
USBH_Disconnect         0x08004b87   0x12  Code  Gb  usbh_core.o [1]
USBH_ErrorHandle        0x08004dbb   0x30  Code  Gb  usbh_core.o [1]
USBH_Free_Channel       0x080051db   0x18  Code  Gb  usbh_hcs.o [1]
USBH_GetDescriptor      0x080024c7   0x32  Code  Gb  usbh_stdreq.o [1]
USBH_Get_CfgDesc        0x08002441   0x2e  Code  Gb  usbh_stdreq.o [1]
USBH_Get_DevDesc        0x0800241b   0x26  Code  Gb  usbh_stdreq.o [1]
USBH_Get_StringDesc     0x0800247d   0x4a  Code  Gb  usbh_stdreq.o [1]
USBH_HandleControl      0x08004f7d  0x18c  Code  Gb  usbh_core.o [1]
USBH_HandleEnum         0x08004ded  0x182  Code  Lc  usbh_core.o [1]
USBH_Init               0x08004b99   0x52  Code  Gb  usbh_core.o [1]
USBH_MSC_BOTXferParam   0x200042fc   0x10  Data  Gb  usbh_msc_bot.o [1]
USBH_MSC_BOT_Abort      0x08001c0f   0x30  Code  Gb  usbh_msc_bot.o [1]
USBH_MSC_CBWData        0x2000432c   0x20  Data  Gb  usbh_msc_bot.o [1]
USBH_MSC_CSWData        0x2000430c   0x10  Data  Gb  usbh_msc_bot.o [1]
USBH_MSC_ClassRequest   0x08006321    0xa  Code  Lc  usbh_msc_core.o [1]
USBH_MSC_DecodeCSW      0x08001c3f   0x46  Code  Gb  usbh_msc_bot.o [1]
USBH_MSC_ErrorHandle    0x08006467   0x28  Code  Gb  usbh_msc_core.o [1]
USBH_MSC_Handle         0x0800632d  0x13a  Code  Lc  usbh_msc_core.o [1]
USBH_MSC_HandleBOTXfer  0x08001a39  0x1ce  Code  Gb  usbh_msc_bot.o [1]
USBH_MSC_Init           0x08001a11   0x28  Code  Gb  usbh_msc_bot.o [1]
USBH_MSC_InterfaceDeInit
                        0x080062ef   0x32  Code  Lc  usbh_msc_core.o [1]
USBH_MSC_InterfaceInit  0x0800625d   0x80  Code  Lc  usbh_msc_core.o [1]
USBH_MSC_ModeSense6     0x0800178d   0x86  Code  Gb  usbh_msc_scsi.o [1]
USBH_MSC_Param          0x20004368   0x10  Data  Gb  usbh_msc_scsi.o [1]
USBH_MSC_Read10         0x08001937   0xc0  Code  Gb  usbh_msc_scsi.o [1]
USBH_MSC_ReadCapacity10
                        0x08001701   0x8c  Code  Gb  usbh_msc_scsi.o [1]
USBH_MSC_RequestSense   0x08001819   0x8a  Code  Gb  usbh_msc_scsi.o [1]
USBH_MSC_TestUnitReady  0x0800168d   0x74  Code  Gb  usbh_msc_scsi.o [1]
USBH_MSC_Write10        0x080018a3   0x94  Code  Gb  usbh_msc_scsi.o [1]
USBH_MSC_cb             0x20001478   0x10  Data  Gb  usbh_msc_core.o [1]
USBH_Modify_Channel     0x08005177   0x30  Code  Gb  usbh_hcs.o [1]
USBH_OTG_ISR_Handler    0x08004439   0xe4  Code  Gb  usb_hcd_int.o [1]
USBH_Open_Channel       0x0800512b   0x4c  Code  Gb  usbh_hcs.o [1]
USBH_ParseCfgDesc       0x08002599   0xda  Code  Lc  usbh_stdreq.o [1]
USBH_ParseDevDesc       0x08002541   0x58  Code  Lc  usbh_stdreq.o [1]
USBH_Process            0x08004c25  0x184  Code  Gb  usbh_core.o [1]
USBH_SetAddress         0x080024f9    0x8  Code  Gb  usbh_stdreq.o [1]
USBH_SetCfg             0x08002501    0x6  Code  Gb  usbh_stdreq.o [1]
USBH_USR_ApplicationState
                        0x200033b0    0x1  Data  Lc  usbh_usr.o [1]
USBH_USR_Configuration_DescAvailable
                        0x08006981    0x2  Code  Gb  usbh_usr.o [1]
USBH_USR_DeInit         0x080069fd    0x8  Code  Gb  usbh_usr.o [1]
USBH_USR_DeviceAddressAssigned
                        0x0800697f    0x2  Code  Gb  usbh_usr.o [1]
USBH_USR_DeviceAttached
                        0x08006903   0x28  Code  Gb  usbh_usr.o [1]
USBH_USR_DeviceDisconnected
                        0x0800692d   0x4c  Code  Gb  usbh_usr.o [1]
USBH_USR_DeviceNotSupported
                        0x08006999    0x2  Code  Gb  usbh_usr.o [1]
USBH_USR_DeviceSpeedDetected
                        0x0800697b    0x2  Code  Gb  usbh_usr.o [1]
USBH_USR_Device_DescAvailable
                        0x0800697d    0x2  Code  Gb  usbh_usr.o [1]
USBH_USR_EnumerationDone
                        0x08006989   0x10  Code  Gb  usbh_usr.o [1]
USBH_USR_Init           0x08006901    0x2  Code  Gb  usbh_usr.o [1]
USBH_USR_MSC_Application
                        0x080069a1   0x3c  Code  Gb  usbh_usr.o [1]
USBH_USR_Manufacturer_String
                        0x08006983    0x2  Code  Gb  usbh_usr.o [1]
USBH_USR_OverCurrentDetected
                        0x0800699f    0x2  Code  Gb  usbh_usr.o [1]
USBH_USR_Product_String
                        0x08006985    0x2  Code  Gb  usbh_usr.o [1]
USBH_USR_ResetDevice    0x08006979    0x2  Code  Gb  usbh_usr.o [1]
USBH_USR_SerialNum_String
                        0x08006987    0x2  Code  Gb  usbh_usr.o [1]
USBH_USR_UnrecoveredError
                        0x0800692b    0x2  Code  Gb  usbh_usr.o [1]
USBH_USR_UserInput      0x0800699b    0x4  Code  Gb  usbh_usr.o [1]
USB_Host                0x2000332c   0x84  Data  Gb  main.o [1]
USB_OTG_BSP_ConfigVBUS  0x0800277b   0x3a  Code  Gb  usb_bsp.o [1]
USB_OTG_BSP_DriveVBUS   0x08002769   0x12  Code  Gb  usb_bsp.o [1]
USB_OTG_BSP_EnableInterrupt
                        0x08002735   0x28  Code  Gb  usb_bsp.o [1]
USB_OTG_BSP_Init        0x08002675   0xac  Code  Gb  usb_bsp.o [1]
USB_OTG_BSP_TimerIRQ    0x080027bd   0x2e  Code  Gb  usb_bsp.o [1]
USB_OTG_BSP_mDelay      0x080027b9    0x4  Code  Gb  usb_bsp.o [1]
USB_OTG_BSP_uDelay      0x080027b5    0x4  Code  Gb  usb_bsp.o [1]
USB_OTG_Core            0x20002e7c  0x4b0  Data  Gb  main.o [1]
USB_OTG_CoreInit        0x08001df5   0xc4  Code  Gb  usb_core.o [1]
USB_OTG_CoreInitHost    0x08001f79   0x7c  Code  Gb  usb_core.o [1]
USB_OTG_CoreReset       0x08001ca1   0x4a  Code  Lc  usb_core.o [1]
USB_OTG_DisableGlobalInt
                        0x08001ec3    0x8  Code  Gb  usb_core.o [1]
USB_OTG_DriveVbus       0x08002003   0x38  Code  Gb  usb_core.o [1]
USB_OTG_EnableGlobalInt
                        0x08001eb9    0xa  Code  Gb  usb_core.o [1]
USB_OTG_EnableHostInt   0x0800203b   0x2a  Code  Gb  usb_core.o [1]
USB_OTG_FlushRxFifo     0x08001efb   0x20  Code  Gb  usb_core.o [1]
USB_OTG_FlushTxFifo     0x08001ed1   0x2a  Code  Gb  usb_core.o [1]
USB_OTG_GetMode         0x08001f57    0xa  Code  Gb  usb_core.o [1]
USB_OTG_HC_DoPing       0x080022c9   0x20  Code  Gb  usb_core.o [1]
USB_OTG_HC_Halt         0x0800228f   0x3a  Code  Gb  usb_core.o [1]
USB_OTG_HC_Init         0x080020b5   0xd8  Code  Gb  usb_core.o [1]
USB_OTG_HC_StartXfer    0x0800218d  0x102  Code  Gb  usb_core.o [1]
USB_OTG_InitFSLSPClkSel
                        0x08002065   0x12  Code  Gb  usb_core.o [1]
USB_OTG_IsEvenFrame     0x08001ff5    0xe  Code  Gb  usb_core.o [1]
USB_OTG_IsHostMode      0x08001f61    0xe  Code  Gb  usb_core.o [1]
USB_OTG_ReadCoreItr     0x08001f6f    0xa  Code  Gb  usb_core.o [1]
USB_OTG_ReadHPRT0       0x08002077    0xc  Code  Gb  usb_core.o [1]
USB_OTG_ReadHostAllChannels_intr
                        0x08002083    0x6  Code  Gb  usb_core.o [1]
USB_OTG_ReadPacket      0x08001d15   0x24  Code  Gb  usb_core.o [1]
USB_OTG_ResetPort       0x08002089   0x2c  Code  Gb  usb_core.o [1]
USB_OTG_SelectCore      0x08001d39   0xbc  Code  Gb  usb_core.o [1]
USB_OTG_SetCurrentMode  0x08001f31   0x26  Code  Gb  usb_core.o [1]
USB_OTG_USBH_handle_hc_n_In_ISR
                        0x080048c9  0x1ba  Code  Lc  usb_hcd_int.o [1]
USB_OTG_USBH_handle_hc_n_Out_ISR
                        0x08004761  0x142  Code  Lc  usb_hcd_int.o [1]
USB_OTG_USBH_handle_nptxfempty_ISR
                        0x0800451d   0xa6  Code  Lc  usb_hcd_int.o [1]
USB_OTG_USBH_handle_port_ISR
                        0x080046bf   0xa2  Code  Lc  usb_hcd_int.o [1]
USB_OTG_USBH_handle_ptxfempty_ISR
                        0x080045c3   0xa6  Code  Lc  usb_hcd_int.o [1]
USB_OTG_USBH_handle_rx_qlvl_ISR
                        0x08004aa1   0xd4  Code  Lc  usb_hcd_int.o [1]
USB_OTG_WritePacket     0x08001ceb   0x2a  Code  Gb  usb_core.o [1]
USR_Callbacks           0x200013fc   0x48  Data  Gb  usbh_usr.o [1]
UsageFault_Handler      0x080064a5    0x2  Code  Gb  stm32f4xx_it.o [1]
WAVE_Format             0x20000004   0x18  Data  Gb  waveplayer.o [1]
WWDG_IRQHandler         0x08006ced         Code  Wk  startup_stm32f4xx.o [1]
WavaRecorderHeaderInit  0x080053a7   0xd0  Code  Gb  waverecorder.o [1]
WaveCounter             0x20000024    0x4  Data  Gb  waveplayer.o [1]
WaveDataLength          0x20000028    0x4  Data  Gb  waveplayer.o [1]
WaveFileStatus          0x20000000    0x1  Data  Gb  waveplayer.o [1]
WavePlayBack            0x080038c5   0xf6  Code  Gb  waveplayer.o [1]
WavePlayerInit          0x080039dd   0xbc  Code  Gb  waveplayer.o [1]
WavePlayerStart         0x08003af3   0x8a  Code  Gb  waveplayer.o [1]
WavePlayer_CallBack     0x08003b7d   0x4e  Code  Gb  waveplayer.o [1]
WavePlayer_WaveParsing  0x08003bcb  0x126  Code  Lc  waveplayer.o [1]
WaveRecStatus           0x200016a8    0x1  Data  Gb  waverecorder.o [1]
WaveRecorderInit        0x08005209  0x114  Code  Gb  waverecorder.o [1]
WaveRecorderStart       0x0800531d   0x28  Code  Gb  waverecorder.o [1]
WaveRecorderStop        0x08005345   0x18  Code  Gb  waverecorder.o [1]
WaveRecorderUpdate      0x08005477  0x1f2  Code  Gb  waverecorder.o [1]
XferCplt                0x20000020    0x4  Data  Gb  waveplayer.o [1]
__aeabi_cfcmpeq         0x08005b21         Code  Gb  FltCmpEq.o [5]
__aeabi_d2iz            0x08005f01         Code  Gb  DblToI32.o [5]
__aeabi_dadd            0x08005e19         Code  Gb  DblAdd.o [5]
__aeabi_ddiv            0x08005bd1         Code  Gb  DblDiv.o [5]
__aeabi_dmul            0x08005f4d         Code  Gb  DblMul.o [5]
__aeabi_f2d             0x08005b51         Code  Gb  FltToDbl.o [5]
__aeabi_fmul            0x08005b3d   0x12  Code  Gb  FltMul.o [5]
__aeabi_i2d             0x08005ba1         Code  Gb  I32ToDbl.o [5]
__aeabi_memset          0x08005ab9         Code  Gb  ABImemset.o [6]
__aeabi_ui2d            0x08005bb5         Code  Gb  I32ToDbl.o [5]
__cmain                 0x08006c69         Code  Gb  cmain.o [6]
__exit                  0x0800678d   0x14  Code  Gb  exit.o [7]
__iar_Memset            0x08005ab9         Code  Gb  ABImemset.o [6]
__iar_Memset_word       0x08005ac1         Code  Gb  ABImemset.o [6]
__iar_d2uiz             0x08005f2d         Code  Gb  DblToI32.o [5]
__iar_dadd              0x08005e2d         Code  Gb  DblAdd.o [5]
__iar_data_init3        0x08006bc5   0x28  Code  Gb  data_init3.o [6]
__iar_dsub              0x080060f1         Code  Gb  DblSub.o [5]
__iar_dsubStart         0x08006103         Code  Gb  DblSub.o [5]
__iar_init_vfp          0x08006c35         Code  Gb  fpinit_M.o [5]
__iar_lz77_init3        0x08006645  0x13e  Code  Gb  lz77_init3c.o [6]
__iar_program_start     0x08006cbd         Code  Gb  cstartup_M.o [6]
__iar_ui2d              0x08005bb9         Code  Gb  I32ToDbl.o [5]
__iar_zero_init3        0x080014a3   0x22  Code  Gb  zero_init3.o [6]
__low_level_init        0x08006c7f    0x4  Code  Gb  low_level_init.o [3]
__vector_table          0x08000000         Data  Gb  startup_stm32f4xx.o [1]
_call_main              0x08006c75         Code  Gb  cmain.o [6]
_exit                   0x08006c89         Code  Gb  cexit.o [6]
_main                   0x08006c7b         Code  Gb  cmain.o [6]
abort                   0x08006787    0x6  Code  Gb  abort.o [3]
buf_idx                 0x200016aa    0x2  Data  Gb  waverecorder.o [1]
buf_idx1                0x200016ac    0x2  Data  Gb  waverecorder.o [1]
buffer1                 0x20000034  0x800  Data  Gb  waveplayer.o [1]
buffer2                 0x20000834  0x800  Data  Gb  waveplayer.o [1]
buffer_switch           0x20000001    0x1  Data  Gb  waveplayer.o [1]
bytesWritten            0x20002e24    0x2  Data  Gb  waverecorder.o [1]
capture                 0x2000438a    0x2  Data  Gb  stm32f4xx_it.o [1]
check_fs                0x080009db   0x64  Code  Lc  ff.o [1]
chk_mounted             0x08000a3f  0x294  Code  Gb  ff.o [1]
clust2sect              0x080005bd   0x18  Code  Gb  ff.o [1]
counter                 0x200016ae    0x2  Data  Gb  waverecorder.o [1]
create_chain            0x08000535   0x88  Code  Lc  ff.o [1]
create_name             0x08000879   0xec  Code  Lc  ff.o [1]
dir                     0x2000434c   0x1c  Data  Gb  usbh_usr.o [1]
dir_find                0x08000771   0x46  Code  Lc  ff.o [1]
dir_next                0x08000675   0xfc  Code  Lc  ff.o [1]
dir_read                0x080007bd   0x38  Code  Lc  ff.o [1]
dir_register            0x080007fb   0x5e  Code  Lc  ff.o [1]
dir_remove              0x08000859   0x20  Code  Lc  ff.o [1]
dir_seek                0x080005d5   0xa0  Code  Lc  ff.o [1]
disk_initialize         0x080014c5   0x18  Code  Gb  usbh_msc_fatfs.o [1]
disk_ioctl              0x0800159f   0x38  Code  Gb  usbh_msc_fatfs.o [1]
disk_read               0x080014e9   0x4c  Code  Gb  usbh_msc_fatfs.o [1]
disk_status             0x080014dd    0xc  Code  Gb  usbh_msc_fatfs.o [1]
disk_write              0x08001535   0x56  Code  Gb  usbh_msc_fatfs.o [1]
exit                    0x08006c83    0x4  Code  Gb  exit.o [3]
f_close                 0x08001221   0x10  Code  Gb  ff.o [1]
f_lseek                 0x08001231  0x14e  Code  Gb  ff.o [1]
f_mount                 0x08000cfb   0x1c  Code  Gb  ff.o [1]
f_open                  0x08000d2d  0x14a  Code  Gb  ff.o [1]
f_opendir               0x08001389   0x44  Code  Gb  ff.o [1]
f_read                  0x08000e77  0x164  Code  Gb  ff.o [1]
f_sync                  0x08001183   0x9e  Code  Gb  ff.o [1]
f_unlink                0x080013f9   0x94  Code  Gb  ff.o [1]
f_write                 0x08000fdb  0x19a  Code  Gb  ff.o [1]
fatfs                   0x200033b4  0x430  Data  Gb  usbh_usr.o [1]
file                    0x200037e4  0x424  Data  Gb  usbh_usr.o [1]
fileR                   0x20003c08  0x424  Data  Gb  usbh_usr.o [1]
follow_path             0x08000965   0x70  Code  Lc  ff.o [1]
get_fat                 0x080002d5   0xd0  Code  Gb  ff.o [1]
get_fattime             0x080015e9    0x4  Code  Gb  fattime.o [1]
main                    0x080067a1   0x86  Code  Gb  main.o [1]
mem_cpy                 0x08000189   0x14  Code  Lc  ff.o [1]
mem_set                 0x0800019d   0x10  Code  Lc  ff.o [1]
move_window             0x080001ad   0x52  Code  Lc  ff.o [1]
pAudioRecBuf            0x200013f4    0x4  Data  Gb  waverecorder.o [1]
put_fat                 0x080003af  0x12a  Code  Gb  ff.o [1]
remove_chain            0x080004d9   0x56  Code  Lc  ff.o [1]
stm32_crc               0x20001034    0x4  Data  Gb  pdm_filter.o [4]
sync                    0x0800020d   0xc8  Code  Lc  ff.o [1]
validate                0x08000cd3   0x28  Code  Lc  ff.o [1]
volume                  0x200014a6    0x1  Data  Gb  waveplayer.o [1]
wavelen                 0x2000002c    0x4  Data  Lc  waveplayer.o [1]
writebuffer             0x20002e20    0x4  Data  Gb  waverecorder.o [1]


[1] = C:\Users\Sin\Documents\STM32\STM32F4-Discovery_FW_V1.1.0\Project\Audio_playback_and_record\EWARM\MEDIA_USB_KEY\Obj
[2] = command line
[3] = dl7M_tln.a
[4] = libPDMFilter_IAR.a
[5] = m7M_tlv.a
[6] = rt7M_tl.a
[7] = shb_l.a

  27 950 bytes of readonly  code memory
   1 020 bytes of readonly  data memory
  18 330 bytes of readwrite data memory

Errors: none
Warnings: none
