ARM GAS  /var/folders/5n/p_75w94d66l9ssrldxqdhh700000gn/T//cctZ13Fe.s 			page 1


   1              		.syntax unified
   2              		.cpu cortex-m4
   3              		.fpu softvfp
   4              		.eabi_attribute 20, 1	@ Tag_ABI_FP_denormal
   5              		.eabi_attribute 21, 1	@ Tag_ABI_FP_exceptions
   6              		.eabi_attribute 23, 3	@ Tag_ABI_FP_number_model
   7              		.eabi_attribute 24, 1	@ Tag_ABI_align8_needed
   8              		.eabi_attribute 25, 1	@ Tag_ABI_align8_preserved
   9              		.eabi_attribute 26, 1	@ Tag_ABI_enum_size
  10              		.eabi_attribute 30, 6	@ Tag_ABI_optimization_goals
  11              		.eabi_attribute 34, 1	@ Tag_CPU_unaligned_access
  12              		.eabi_attribute 18, 4	@ Tag_ABI_PCS_wchar_t
  13              		.file	"main.c"
  14              	@ GNU C (GCC) version 4.7.1 (arm-none-eabi)
  15              	@	compiled by GNU C version 4.6.3, GMP version 5.0.4, MPFR version 3.1.0-p3, MPC version 0.9
  16              	@ warning: GMP header version 5.0.4 differs from library version 5.0.2.
  17              	@ warning: MPFR header version 3.1.0-p3 differs from library version 3.0.1.
  18              	@ GGC heuristics: --param ggc-min-expand=100 --param ggc-min-heapsize=131072
  19              	@ 渡されたオプション:  -I . -I ./inc -I ./cmsis/core
  20              	@ -I ./cmsis/device -imultilib thumb -MD src/main.d -MF .dep/main.o.d -MP
  21              	@ -MQ src/main.o -D__USES_INITFINI__ -D STM32F10X_MD -D _DEBUG=1
  22              	@ -D RUN_FROM_FLASH=1 src/main.c -mthumb -mcpu=cortex-m4 -mfloat-abi=soft
  23              	@ -mfpu=fpv4-sp-d16 -auxbase-strip src/main.o -gdwarf-2 -O0 -Wall
  24              	@ -Wstrict-prototypes -fverbose-asm
  25              	@ 有効オプション:  -fauto-inc-dec -fbranch-count-reg -fcommon
  26              	@ -fdebug-types-section -fdelete-null-pointer-checks -fdwarf2-cfi-asm
  27              	@ -fearly-inlining -feliminate-unused-debug-types -ffunction-cse -fgcse-lm
  28              	@ -fgnu-runtime -fident -finline-atomics -fira-share-save-slots
  29              	@ -fira-share-spill-slots -fivopts -fkeep-static-consts
  30              	@ -fleading-underscore -fmath-errno -fmerge-debug-strings
  31              	@ -fmove-loop-invariants -fpeephole -fprefetch-loop-arrays
  32              	@ -freg-struct-return -fsched-critical-path-heuristic
  33              	@ -fsched-dep-count-heuristic -fsched-group-heuristic -fsched-interblock
  34              	@ -fsched-last-insn-heuristic -fsched-rank-heuristic -fsched-spec
  35              	@ -fsched-spec-insn-heuristic -fsched-stalled-insns-dep -fshow-column
  36              	@ -fsigned-zeros -fsplit-ivs-in-unroller -fstrict-volatile-bitfields
  37              	@ -ftrapping-math -ftree-cselim -ftree-forwprop -ftree-loop-if-convert
  38              	@ -ftree-loop-im -ftree-loop-ivcanon -ftree-loop-optimize
  39              	@ -ftree-parallelize-loops= -ftree-phiprop -ftree-pta -ftree-reassoc
  40              	@ -ftree-scev-cprop -ftree-slp-vectorize -ftree-vect-loop-version
  41              	@ -funit-at-a-time -fverbose-asm -fzero-initialized-in-bss -mlittle-endian
  42              	@ -msched-prolog -mthumb -munaligned-access -mvectorize-with-neon-quad
  43              	
  44              		.text
  45              	.Ltext0:
  46              		.cfi_sections	.debug_frame
  47              		.section	.rodata
  48              		.align	2
  49              		.type	d, %object
  50              		.size	d, 4
  51              	d:
  52 0000 07000000 		.word	7
  53              		.align	2
  54              		.type	fd, %object
  55              		.size	fd, 4
  56              	fd:
  57 0004 9A99A940 		.word	1084856730
ARM GAS  /var/folders/5n/p_75w94d66l9ssrldxqdhh700000gn/T//cctZ13Fe.s 			page 2


  58              		.data
  59              		.align	2
  60              		.type	dd, %object
  61              		.size	dd, 4
  62              	dd:
  63 0000 08000000 		.word	8
  64              		.bss
  65              		.align	2
  66              	must_zero_after_startup:
  67 0000 00000000 		.space	4
  68              		.global	__aeabi_fadd
  69              		.text
  70              		.align	2
  71              		.global	main
  72              		.thumb
  73              		.thumb_func
  74              		.type	main, %function
  75              	main:
  76              	.LFB0:
  77              		.file 1 "src/main.c"
   1:src/main.c    **** /****************************************************************************
   2:src/main.c    **** *  Copyright (c) 2011-2012 by Michael Fischer. All rights reserved.
   3:src/main.c    **** *
   4:src/main.c    **** *  Redistribution and use in source and binary forms, with or without 
   5:src/main.c    **** *  modification, are permitted provided that the following conditions 
   6:src/main.c    **** *  are met:
   7:src/main.c    **** *  
   8:src/main.c    **** *  1. Redistributions of source code must retain the above copyright 
   9:src/main.c    **** *     notice, this list of conditions and the following disclaimer.
  10:src/main.c    **** *  2. Redistributions in binary form must reproduce the above copyright
  11:src/main.c    **** *     notice, this list of conditions and the following disclaimer in the 
  12:src/main.c    **** *     documentation and/or other materials provided with the distribution.
  13:src/main.c    **** *  3. Neither the name of the author nor the names of its contributors may 
  14:src/main.c    **** *     be used to endorse or promote products derived from this software 
  15:src/main.c    **** *     without specific prior written permission.
  16:src/main.c    **** *
  17:src/main.c    **** *  THIS SOFTWARE IS PROVIDED BY THE COPYRIGHT HOLDERS AND CONTRIBUTORS 
  18:src/main.c    **** *  "AS IS" AND ANY EXPRESS OR IMPLIED WARRANTIES, INCLUDING, BUT NOT 
  19:src/main.c    **** *  LIMITED TO, THE IMPLIED WARRANTIES OF MERCHANTABILITY AND FITNESS 
  20:src/main.c    **** *  FOR A PARTICULAR PURPOSE ARE DISCLAIMED. IN NO EVENT SHALL 
  21:src/main.c    **** *  THE COPYRIGHT OWNER OR CONTRIBUTORS BE LIABLE FOR ANY DIRECT, INDIRECT, 
  22:src/main.c    **** *  INCIDENTAL, SPECIAL, EXEMPLARY, OR CONSEQUENTIAL DAMAGES (INCLUDING, 
  23:src/main.c    **** *  BUT NOT LIMITED TO, PROCUREMENT OF SUBSTITUTE GOODS OR SERVICES; LOSS 
  24:src/main.c    **** *  OF USE, DATA, OR PROFITS; OR BUSINESS INTERRUPTION) HOWEVER CAUSED 
  25:src/main.c    **** *  AND ON ANY THEORY OF LIABILITY, WHETHER IN CONTRACT, STRICT LIABILITY, 
  26:src/main.c    **** *  OR TORT (INCLUDING NEGLIGENCE OR OTHERWISE) ARISING IN ANY WAY OUT OF 
  27:src/main.c    **** *  THE USE OF THIS SOFTWARE, EVEN IF ADVISED OF THE POSSIBILITY OF 
  28:src/main.c    **** *  SUCH DAMAGE.
  29:src/main.c    **** *
  30:src/main.c    **** ****************************************************************************
  31:src/main.c    **** *  History:
  32:src/main.c    **** *
  33:src/main.c    **** *  09.04.2011  mifi  First Version
  34:src/main.c    **** *  13.06.2012  mifi  Added "check" with must_zero_after_startup
  35:src/main.c    **** ****************************************************************************/
  36:src/main.c    **** #define __MAIN_C__
  37:src/main.c    **** 
ARM GAS  /var/folders/5n/p_75w94d66l9ssrldxqdhh700000gn/T//cctZ13Fe.s 			page 3


  38:src/main.c    **** #include <stdint.h>
  39:src/main.c    **** 
  40:src/main.c    **** /*=========================================================================*/
  41:src/main.c    **** /*  DEFINE: All Structures and Common Constants                            */
  42:src/main.c    **** /*=========================================================================*/
  43:src/main.c    **** 
  44:src/main.c    **** /*=========================================================================*/
  45:src/main.c    **** /*  DEFINE: Prototypes                                                     */
  46:src/main.c    **** /*=========================================================================*/
  47:src/main.c    **** 
  48:src/main.c    **** /*=========================================================================*/
  49:src/main.c    **** /*  DEFINE: Definition of all local Data                                   */
  50:src/main.c    **** /*=========================================================================*/
  51:src/main.c    **** static const uint32_t d  = 7;
  52:src/main.c    **** static const float    fd = 5.3f;
  53:src/main.c    **** static uint32_t       dd = 8;
  54:src/main.c    **** 
  55:src/main.c    **** /* Must be 0, BSS must be cleared by the startup */
  56:src/main.c    **** static uint32_t       must_zero_after_startup;
  57:src/main.c    **** 
  58:src/main.c    **** /*=========================================================================*/
  59:src/main.c    **** /*  DEFINE: All code exported                                              */
  60:src/main.c    **** /*=========================================================================*/
  61:src/main.c    **** 
  62:src/main.c    **** /***************************************************************************/
  63:src/main.c    **** /*  main                                                                   */
  64:src/main.c    **** /***************************************************************************/
  65:src/main.c    **** int main (void)
  66:src/main.c    **** {
  78              		.loc 1 66 0
  79              		.cfi_startproc
  80              		@ args = 0, pretend = 0, frame = 24
  81              		@ frame_needed = 1, uses_anonymous_args = 0
  82 0000 80B5     		push	{r7, lr}	@
  83              	.LCFI0:
  84              		.cfi_def_cfa_offset 8
  85              		.cfi_offset 7, -8
  86              		.cfi_offset 14, -4
  87 0002 86B0     		sub	sp, sp, #24	@,,
  88              	.LCFI1:
  89              		.cfi_def_cfa_offset 32
  90 0004 00AF     		add	r7, sp, #0	@,,
  91              	.LCFI2:
  92              		.cfi_def_cfa_register 7
  67:src/main.c    ****   uint32_t a  = 1;
  93              		.loc 1 67 0
  94 0006 4FF00103 		mov	r3, #1	@ tmp141,
  95 000a 7B61     		str	r3, [r7, #20]	@ tmp141, a
  68:src/main.c    ****   uint32_t b  = 2;
  96              		.loc 1 68 0
  97 000c 4FF00203 		mov	r3, #2	@ tmp142,
  98 0010 3B61     		str	r3, [r7, #16]	@ tmp142, b
  69:src/main.c    ****   uint32_t c  = 0;
  99              		.loc 1 69 0
 100 0012 4FF00003 		mov	r3, #0	@ tmp143,
 101 0016 7B60     		str	r3, [r7, #4]	@ tmp143, c
  70:src/main.c    ****   float    fa = 1.3f;
ARM GAS  /var/folders/5n/p_75w94d66l9ssrldxqdhh700000gn/T//cctZ13Fe.s 			page 4


 102              		.loc 1 70 0
 103 0018 234B     		ldr	r3, .L4	@ float	@ tmp144,
 104 001a FB60     		str	r3, [r7, #12]	@ float	@ tmp144, fa
  71:src/main.c    ****   float    fb = 2.7f;
 105              		.loc 1 71 0
 106 001c 234B     		ldr	r3, .L4+4	@ float	@ tmp145,
 107 001e BB60     		str	r3, [r7, #8]	@ float	@ tmp145, fb
  72:src/main.c    ****   float    fc = 3.9f;
 108              		.loc 1 72 0
 109 0020 234B     		ldr	r3, .L4+8	@ float	@ tmp146,
 110 0022 3B60     		str	r3, [r7, #0]	@ float	@ tmp146, fc
  73:src/main.c    ****   
  74:src/main.c    ****   fa = fa + fd;
 111              		.loc 1 74 0
 112 0024 40F20003 		movw	r3, #:lower16:fd	@ tmp147,
 113 0028 C0F20003 		movt	r3, #:upper16:fd	@ tmp147,
 114 002c 1B68     		ldr	r3, [r3, #0]	@ float	@ fd.0, fd
 115 002e F868     		ldr	r0, [r7, #12]	@ float	@, fa
 116 0030 1946     		mov	r1, r3	@, fd.0
 117 0032 FFF7FEFF 		bl	__aeabi_fadd	@
 118 0036 0346     		mov	r3, r0	@ tmp148,
 119 0038 FB60     		str	r3, [r7, #12]	@ float	@ tmp148, fa
  75:src/main.c    ****   a  = a + d + dd + must_zero_after_startup;
 120              		.loc 1 75 0
 121 003a 40F20003 		movw	r3, #:lower16:d	@ tmp149,
 122 003e C0F20003 		movt	r3, #:upper16:d	@ tmp149,
 123 0042 1A68     		ldr	r2, [r3, #0]	@ d.1, d
 124 0044 7B69     		ldr	r3, [r7, #20]	@ tmp150, a
 125 0046 D218     		adds	r2, r2, r3	@ D.4098, d.1, tmp150
 126 0048 40F20003 		movw	r3, #:lower16:dd	@ tmp151,
 127 004c C0F20003 		movt	r3, #:upper16:dd	@ tmp151,
 128 0050 1B68     		ldr	r3, [r3, #0]	@ dd.2, dd
 129 0052 D218     		adds	r2, r2, r3	@ D.4100, D.4098, dd.2
 130 0054 40F20003 		movw	r3, #:lower16:must_zero_after_startup	@ tmp152,
 131 0058 C0F20003 		movt	r3, #:upper16:must_zero_after_startup	@ tmp152,
 132 005c 1B68     		ldr	r3, [r3, #0]	@ must_zero_after_startup.3, must_zero_after_startup
 133 005e D318     		adds	r3, r2, r3	@ tmp153, D.4100, must_zero_after_startup.3
 134 0060 7B61     		str	r3, [r7, #20]	@ tmp153, a
  76:src/main.c    ****   
  77:src/main.c    ****   /* A must be 16 here */
  78:src/main.c    ****   if (a != 16) while (1) {};
 135              		.loc 1 78 0
 136 0062 7B69     		ldr	r3, [r7, #20]	@ tmp154, a
 137 0064 102B     		cmp	r3, #16	@ tmp154,
 138 0066 00D0     		beq	.L2	@,
 139              	.L3:
 140              		.loc 1 78 0 is_stmt 0 discriminator 1
 141 0068 FEE7     		b	.L3	@
 142              	.L2:
  79:src/main.c    ****     
  80:src/main.c    ****   while (1)
  81:src/main.c    ****   {
  82:src/main.c    ****     a++;
 143              		.loc 1 82 0 is_stmt 1 discriminator 1
 144 006a 7B69     		ldr	r3, [r7, #20]	@ tmp156, a
 145 006c 03F10103 		add	r3, r3, #1	@ tmp155, tmp156,
 146 0070 7B61     		str	r3, [r7, #20]	@ tmp155, a
ARM GAS  /var/folders/5n/p_75w94d66l9ssrldxqdhh700000gn/T//cctZ13Fe.s 			page 5


  83:src/main.c    ****     b++;
 147              		.loc 1 83 0 discriminator 1
 148 0072 3B69     		ldr	r3, [r7, #16]	@ tmp158, b
 149 0074 03F10103 		add	r3, r3, #1	@ tmp157, tmp158,
 150 0078 3B61     		str	r3, [r7, #16]	@ tmp157, b
  84:src/main.c    ****     c = a + b;
 151              		.loc 1 84 0 discriminator 1
 152 007a 7A69     		ldr	r2, [r7, #20]	@ tmp160, a
 153 007c 3B69     		ldr	r3, [r7, #16]	@ tmp161, b
 154 007e D318     		adds	r3, r2, r3	@ tmp159, tmp160, tmp161
 155 0080 7B60     		str	r3, [r7, #4]	@ tmp159, c
  85:src/main.c    ****     
  86:src/main.c    ****     fa = fa + 2.6f;
 156              		.loc 1 86 0 discriminator 1
 157 0082 F868     		ldr	r0, [r7, #12]	@ float	@, fa
 158 0084 0B49     		ldr	r1, .L4+12	@ float	@,
 159 0086 FFF7FEFF 		bl	__aeabi_fadd	@
 160 008a 0346     		mov	r3, r0	@ tmp162,
 161 008c FB60     		str	r3, [r7, #12]	@ float	@ tmp162, fa
  87:src/main.c    ****     fb = fb + 1.67f;
 162              		.loc 1 87 0 discriminator 1
 163 008e B868     		ldr	r0, [r7, #8]	@ float	@, fb
 164 0090 0949     		ldr	r1, .L4+16	@ float	@,
 165 0092 FFF7FEFF 		bl	__aeabi_fadd	@
 166 0096 0346     		mov	r3, r0	@ tmp163,
 167 0098 BB60     		str	r3, [r7, #8]	@ float	@ tmp163, fb
  88:src/main.c    ****     fc = fa + fb;
 168              		.loc 1 88 0 discriminator 1
 169 009a F868     		ldr	r0, [r7, #12]	@ float	@, fa
 170 009c B968     		ldr	r1, [r7, #8]	@ float	@, fb
 171 009e FFF7FEFF 		bl	__aeabi_fadd	@
 172 00a2 0346     		mov	r3, r0	@ tmp164,
 173 00a4 3B60     		str	r3, [r7, #0]	@ float	@ tmp164, fc
  89:src/main.c    ****   }
 174              		.loc 1 89 0 discriminator 1
 175 00a6 E0E7     		b	.L2	@
 176              	.L5:
 177              		.align	2
 178              	.L4:
 179 00a8 6666A63F 		.word	1067869798
 180 00ac CDCC2C40 		.word	1076677837
 181 00b0 9A997940 		.word	1081711002
 182 00b4 66662640 		.word	1076258406
 183 00b8 8FC2D53F 		.word	1070973583
 184              		.cfi_endproc
 185              	.LFE0:
 186              		.size	main, .-main
 187              	.Letext0:
 188              		.file 2 "/usr/local/cross/lib/gcc/arm-none-eabi/4.7.1/../../../../arm-none-eabi/include/stdint.h"