ARM GAS  /var/folders/5n/p_75w94d66l9ssrldxqdhh700000gn/T//ccW3n6ch.s 			page 1


   1              		.syntax unified
   2              		.cpu cortex-m4
   3              		.fpu softvfp
   4              		.eabi_attribute 20, 1
   5              		.eabi_attribute 21, 1
   6              		.eabi_attribute 23, 3
   7              		.eabi_attribute 24, 1
   8              		.eabi_attribute 25, 1
   9              		.eabi_attribute 26, 1
  10              		.eabi_attribute 30, 2
  11              		.eabi_attribute 34, 1
  12              		.eabi_attribute 18, 4
  13              		.thumb
  14              		.file	"crt0.c"
  15              		.text
  16              	.Ltext0:
  17              		.cfi_sections	.debug_frame
  18              		.section	.text.__early_init,"ax",%progbits
  19              		.align	2
  20              		.p2align 4,,15
  21              		.weak	__early_init
  22              		.thumb
  23              		.thumb_func
  24              		.type	__early_init, %function
  25              	__early_init:
  26              	.LFB7:
  27              		.file 1 "../../os/ports/GCC/ARMCMx/crt0.c"
  28              		.loc 1 209 0
  29              		.cfi_startproc
  30              		@ args = 0, pretend = 0, frame = 0
  31              		@ frame_needed = 0, uses_anonymous_args = 0
  32              		@ link register save eliminated.
  33 0000 7047     		bx	lr
  34              		.cfi_endproc
  35              	.LFE7:
  36              		.size	__early_init, .-__early_init
  37 0002 00BFAFF3 		.section	.text.__late_init,"ax",%progbits
  37      0080AFF3 
  37      0080AFF3 
  37      0080
  38              		.align	2
  39              		.p2align 4,,15
  40              		.weak	__late_init
  41              		.thumb
  42              		.thumb_func
  43              		.type	__late_init, %function
  44              	__late_init:
  45              	.LFB8:
  46              		.loc 1 221 0
  47              		.cfi_startproc
  48              		@ args = 0, pretend = 0, frame = 0
  49              		@ frame_needed = 0, uses_anonymous_args = 0
  50              		@ link register save eliminated.
  51 0000 7047     		bx	lr
  52              		.cfi_endproc
  53              	.LFE8:
  54              		.size	__late_init, .-__late_init
ARM GAS  /var/folders/5n/p_75w94d66l9ssrldxqdhh700000gn/T//ccW3n6ch.s 			page 2


  55 0002 00BFAFF3 		.section	.text._default_exit,"ax",%progbits
  55      0080AFF3 
  55      0080AFF3 
  55      0080
  56              		.align	2
  57              		.p2align 4,,15
  58              		.weak	_default_exit
  59              		.thumb
  60              		.thumb_func
  61              		.type	_default_exit, %function
  62              	_default_exit:
  63              	.LFB9:
  64              		.loc 1 232 0
  65              		.cfi_startproc
  66              		@ Naked Function: prologue and epilogue provided by programmer.
  67              		@ args = 0, pretend = 0, frame = 0
  68              		@ frame_needed = 0, uses_anonymous_args = 0
  69              	.L4:
  70 0000 FEE7     		b	.L4
  71              		.cfi_endproc
  72              	.LFE9:
  73              		.size	_default_exit, .-_default_exit
  74 0002 00BFAFF3 		.section	.text.ResetHandler,"ax",%progbits
  74      0080AFF3 
  74      0080AFF3 
  74      0080
  75              		.align	2
  76              		.p2align 4,,15
  77              		.global	ResetHandler
  78              		.thumb
  79              		.thumb_func
  80              		.type	ResetHandler, %function
  81              	ResetHandler:
  82              	.LFB11:
  83              		.loc 1 256 0
  84              		.cfi_startproc
  85              		@ Naked Function: prologue and epilogue provided by programmer.
  86              		@ args = 0, pretend = 0, frame = 0
  87              		@ frame_needed = 0, uses_anonymous_args = 0
  88              		.loc 1 262 0
  89              	@ 262 "../../os/ports/GCC/ARMCMx/crt0.c" 1
  90 0000 72B6     		cpsid   i
  91              	@ 0 "" 2
  92              		.loc 1 263 0
  93              		.thumb
  94 0002 374C     		ldr	r4, .L32
  95              	.LVL0:
  96              		.loc 1 264 0
  97              	@ 264 "../../os/ports/GCC/ARMCMx/crt0.c" 1
  98 0004 84F30988 		msr     PSP, r4
  99              	@ 0 "" 2
 100              	.LVL1:
 101              		.loc 1 284 0
 102              		.thumb
 103 0008 0223     		movs	r3, #2
 104              	@ 284 "../../os/ports/GCC/ARMCMx/crt0.c" 1
 105 000a 83F31488 		msr     CONTROL, r3
ARM GAS  /var/folders/5n/p_75w94d66l9ssrldxqdhh700000gn/T//ccW3n6ch.s 			page 3


 106              	@ 0 "" 2
 107              		.loc 1 285 0
 108              	@ 285 "../../os/ports/GCC/ARMCMx/crt0.c" 1
 109 000e BFF36F8F 		isb
 110              	@ 0 "" 2
 111              		.loc 1 288 0
 112              		.thumb
 113 0012 FFF7FEFF 		bl	__early_init
 114              	.LVL2:
 115              	.LBB11:
 116              	.LBB12:
 117              		.loc 1 246 0
 118 0016 334A     		ldr	r2, .L32+4
 119 0018 334B     		ldr	r3, .L32+8
 120 001a 9A42     		cmp	r2, r3
 121 001c 0BD2     		bcs	.L10
 122              	.LBE12:
 123              	.LBE11:
 124              	.LBB14:
 125              	.LBB15:
 126              		.loc 1 256 0
 127 001e D143     		mvns	r1, r2
 128 0020 C918     		adds	r1, r1, r3
 129 0022 21F00301 		bic	r1, r1, #3
 130 0026 131F     		subs	r3, r2, #4
 131 0028 8918     		adds	r1, r1, r2
 132              	.LBE15:
 133              	.LBE14:
 134              	.LBB18:
 135              	.LBB13:
 136              		.loc 1 247 0
 137 002a 4FF05532 		mov	r2, #1431655765
 138              	.LVL3:
 139              	.L9:
 140 002e 43F8042F 		str	r2, [r3, #4]!
 141              		.loc 1 246 0
 142 0032 8B42     		cmp	r3, r1
 143 0034 FBD1     		bne	.L9
 144              	.L10:
 145              	.LVL4:
 146              	.LBE13:
 147              	.LBE18:
 148              	.LBB19:
 149              	.LBB16:
 150 0036 2D4A     		ldr	r2, .L32+12
 151 0038 A242     		cmp	r2, r4
 152 003a 0CD2     		bcs	.L8
 153              	.LBE16:
 154              	.LBE19:
 155              	.LBB20:
 156              		.loc 1 256 0
 157 003c 2C49     		ldr	r1, .L32+16
 158 003e 131D     		adds	r3, r2, #4
 159 0040 C91A     		subs	r1, r1, r3
 160 0042 21F00301 		bic	r1, r1, #3
 161 0046 131F     		subs	r3, r2, #4
 162 0048 8918     		adds	r1, r1, r2
ARM GAS  /var/folders/5n/p_75w94d66l9ssrldxqdhh700000gn/T//ccW3n6ch.s 			page 4


 163              	.LBE20:
 164              	.LBB21:
 165              	.LBB17:
 166              		.loc 1 247 0
 167 004a 4FF05532 		mov	r2, #1431655765
 168              	.LVL5:
 169              	.L13:
 170 004e 43F8042F 		str	r2, [r3, #4]!
 171              		.loc 1 246 0
 172 0052 8B42     		cmp	r3, r1
 173 0054 FBD1     		bne	.L13
 174              	.L8:
 175              	.LVL6:
 176              	.LBE17:
 177              	.LBE21:
 178              	.LBB22:
 179              		.loc 1 307 0
 180 0056 2749     		ldr	r1, .L32+20
 181 0058 274B     		ldr	r3, .L32+24
 182 005a 9942     		cmp	r1, r3
 183 005c 0BD2     		bcs	.L12
 184              	.LBE22:
 185              	.LBB23:
 186              	.LBB24:
 187              		.loc 1 256 0
 188 005e C843     		mvns	r0, r1
 189 0060 C018     		adds	r0, r0, r3
 190 0062 20F00300 		bic	r0, r0, #3
 191 0066 254C     		ldr	r4, .L32+28
 192 0068 0430     		adds	r0, r0, #4
 193              	.LBE24:
 194              	.LBE23:
 195 006a 0023     		movs	r3, #0
 196              	.LVL7:
 197              	.L16:
 198              	.LBB27:
 199              		.loc 1 308 0
 200 006c 1A59     		ldr	r2, [r3, r4]
 201 006e 5A50     		str	r2, [r3, r1]
 202 0070 0433     		adds	r3, r3, #4
 203              		.loc 1 307 0
 204 0072 8342     		cmp	r3, r0
 205 0074 FAD1     		bne	.L16
 206              	.L12:
 207              	.LVL8:
 208              	.LBE27:
 209              	.LBB28:
 210              	.LBB25:
 211              		.loc 1 246 0
 212 0076 224A     		ldr	r2, .L32+32
 213 0078 224B     		ldr	r3, .L32+36
 214 007a 9A42     		cmp	r2, r3
 215 007c 0AD2     		bcs	.L15
 216              	.LBE25:
 217              	.LBE28:
 218              	.LBB29:
 219              		.loc 1 256 0
ARM GAS  /var/folders/5n/p_75w94d66l9ssrldxqdhh700000gn/T//ccW3n6ch.s 			page 5


 220 007e D143     		mvns	r1, r2
 221 0080 C918     		adds	r1, r1, r3
 222 0082 21F00301 		bic	r1, r1, #3
 223 0086 131F     		subs	r3, r2, #4
 224 0088 8918     		adds	r1, r1, r2
 225              	.LBE29:
 226              	.LBB30:
 227              	.LBB26:
 228              		.loc 1 247 0
 229 008a 0022     		movs	r2, #0
 230              	.LVL9:
 231              	.L19:
 232 008c 43F8042F 		str	r2, [r3, #4]!
 233              		.loc 1 246 0
 234 0090 8B42     		cmp	r3, r1
 235 0092 FBD1     		bne	.L19
 236              	.L15:
 237              	.LBE26:
 238              	.LBE30:
 239              		.loc 1 318 0
 240 0094 FFF7FEFF 		bl	__late_init
 241              	.LVL10:
 242              	.LBB31:
 243              		.loc 1 324 0
 244 0098 1B4D     		ldr	r5, .L32+40
 245 009a 1C4B     		ldr	r3, .L32+44
 246 009c 9D42     		cmp	r5, r3
 247 009e 0BD2     		bcs	.L18
 248              	.LBE31:
 249              	.LBB32:
 250              		.loc 1 256 0
 251 00a0 EE43     		mvns	r6, r5
 252 00a2 F618     		adds	r6, r6, r3
 253 00a4 B608     		lsrs	r6, r6, #2
 254 00a6 043D     		subs	r5, r5, #4
 255 00a8 0136     		adds	r6, r6, #1
 256              	.LBE32:
 257 00aa 0024     		movs	r4, #0
 258              	.LVL11:
 259              	.L22:
 260              	.LBB33:
 261              		.loc 1 325 0
 262 00ac 55F8043F 		ldr	r3, [r5, #4]!
 263 00b0 0134     		adds	r4, r4, #1
 264 00b2 9847     		blx	r3
 265              	.LVL12:
 266              		.loc 1 324 0
 267 00b4 B442     		cmp	r4, r6
 268 00b6 F9D1     		bne	.L22
 269              	.L18:
 270              	.LBE33:
 271              		.loc 1 332 0
 272 00b8 FFF7FEFF 		bl	main
 273              	.LVL13:
 274              	.LBB34:
 275              		.loc 1 338 0
 276 00bc 144D     		ldr	r5, .L32+48
ARM GAS  /var/folders/5n/p_75w94d66l9ssrldxqdhh700000gn/T//ccW3n6ch.s 			page 6


 277 00be 154B     		ldr	r3, .L32+52
 278 00c0 9D42     		cmp	r5, r3
 279 00c2 0BD2     		bcs	.L21
 280              	.LBE34:
 281              		.loc 1 256 0
 282 00c4 EE43     		mvns	r6, r5
 283 00c6 F618     		adds	r6, r6, r3
 284 00c8 B608     		lsrs	r6, r6, #2
 285 00ca 043D     		subs	r5, r5, #4
 286 00cc 0136     		adds	r6, r6, #1
 287 00ce 0024     		movs	r4, #0
 288              	.LVL14:
 289              	.L23:
 290              	.LBB35:
 291              		.loc 1 339 0
 292 00d0 55F8043F 		ldr	r3, [r5, #4]!
 293 00d4 0134     		adds	r4, r4, #1
 294 00d6 9847     		blx	r3
 295              	.LVL15:
 296              		.loc 1 338 0
 297 00d8 B442     		cmp	r4, r6
 298 00da F9D1     		bne	.L23
 299              	.L21:
 300              	.LBE35:
 301              		.loc 1 346 0
 302 00dc FFF7FEFF 		bl	_default_exit
 303              	.LVL16:
 304              		.loc 1 347 0
 305              	.L33:
 306              		.align	2
 307              	.L32:
 308 00e0 00000000 		.word	__process_stack_end__
 309 00e4 00000000 		.word	__main_stack_base__
 310 00e8 00000000 		.word	__main_stack_end__
 311 00ec 00000000 		.word	__process_stack_base__
 312 00f0 03000000 		.word	__process_stack_end__+3
 313 00f4 00000000 		.word	_data
 314 00f8 00000000 		.word	_edata
 315 00fc 00000000 		.word	_textdata
 316 0100 00000000 		.word	_bss_start
 317 0104 00000000 		.word	_bss_end
 318 0108 00000000 		.word	__init_array_start
 319 010c 00000000 		.word	__init_array_end
 320 0110 00000000 		.word	__fini_array_start
 321 0114 00000000 		.word	__fini_array_end
 322              		.cfi_endproc
 323              	.LFE11:
 324              		.size	ResetHandler, .-ResetHandler
 325 0118 AFF30080 		.text
 325      AFF30080 
 326              	.Letext0:
 327              		.file 2 "/usr/local/cross/lib/gcc/arm-none-eabi/4.7.1/../../../../arm-none-eabi/include/stdint.h"
 328              		.section	.debug_info,"",%progbits
 329              	.Ldebug_info0:
 330 0000 F1020000 		.4byte	0x2f1
 331 0004 0200     		.2byte	0x2
 332 0006 00000000 		.4byte	.Ldebug_abbrev0
ARM GAS  /var/folders/5n/p_75w94d66l9ssrldxqdhh700000gn/T//ccW3n6ch.s 			page 7


 333 000a 04       		.byte	0x4
 334 000b 01       		.uleb128 0x1
 335 000c CD010000 		.4byte	.LASF33
 336 0010 01       		.byte	0x1
 337 0011 DB000000 		.4byte	.LASF34
 338 0015 6B000000 		.4byte	.LASF35
 339 0019 B8000000 		.4byte	.Ldebug_ranges0+0xb8
 340 001d 00000000 		.4byte	0
 341 0021 00000000 		.4byte	0
 342 0025 00000000 		.4byte	.Ldebug_line0
 343 0029 02       		.uleb128 0x2
 344 002a 04       		.byte	0x4
 345 002b 05       		.byte	0x5
 346 002c 696E7400 		.ascii	"int\000"
 347 0030 03       		.uleb128 0x3
 348 0031 04       		.byte	0x4
 349 0032 07       		.byte	0x7
 350 0033 5E010000 		.4byte	.LASF0
 351 0037 03       		.uleb128 0x3
 352 0038 01       		.byte	0x1
 353 0039 06       		.byte	0x6
 354 003a 03020000 		.4byte	.LASF1
 355 003e 04       		.uleb128 0x4
 356 003f B2010000 		.4byte	.LASF6
 357 0043 02       		.byte	0x2
 358 0044 2A       		.byte	0x2a
 359 0045 49000000 		.4byte	0x49
 360 0049 03       		.uleb128 0x3
 361 004a 01       		.byte	0x1
 362 004b 08       		.byte	0x8
 363 004c C1000000 		.4byte	.LASF2
 364 0050 03       		.uleb128 0x3
 365 0051 02       		.byte	0x2
 366 0052 05       		.byte	0x5
 367 0053 D9010000 		.4byte	.LASF3
 368 0057 03       		.uleb128 0x3
 369 0058 02       		.byte	0x2
 370 0059 07       		.byte	0x7
 371 005a 09010000 		.4byte	.LASF4
 372 005e 03       		.uleb128 0x3
 373 005f 04       		.byte	0x4
 374 0060 05       		.byte	0x5
 375 0061 F4010000 		.4byte	.LASF5
 376 0065 04       		.uleb128 0x4
 377 0066 EB010000 		.4byte	.LASF7
 378 006a 02       		.byte	0x2
 379 006b 50       		.byte	0x50
 380 006c 70000000 		.4byte	0x70
 381 0070 03       		.uleb128 0x3
 382 0071 04       		.byte	0x4
 383 0072 07       		.byte	0x7
 384 0073 40010000 		.4byte	.LASF8
 385 0077 03       		.uleb128 0x3
 386 0078 08       		.byte	0x8
 387 0079 05       		.byte	0x5
 388 007a BA010000 		.4byte	.LASF9
 389 007e 03       		.uleb128 0x3
ARM GAS  /var/folders/5n/p_75w94d66l9ssrldxqdhh700000gn/T//ccW3n6ch.s 			page 8


 390 007f 08       		.byte	0x8
 391 0080 07       		.byte	0x7
 392 0081 6B010000 		.4byte	.LASF10
 393 0085 03       		.uleb128 0x3
 394 0086 04       		.byte	0x4
 395 0087 07       		.byte	0x7
 396 0088 A9010000 		.4byte	.LASF11
 397 008c 03       		.uleb128 0x3
 398 008d 01       		.byte	0x1
 399 008e 08       		.byte	0x8
 400 008f C8010000 		.4byte	.LASF12
 401 0093 04       		.uleb128 0x4
 402 0094 E3010000 		.4byte	.LASF13
 403 0098 01       		.byte	0x1
 404 0099 26       		.byte	0x26
 405 009a 9E000000 		.4byte	0x9e
 406 009e 05       		.uleb128 0x5
 407 009f 04       		.byte	0x4
 408 00a0 A4000000 		.4byte	0xa4
 409 00a4 06       		.uleb128 0x6
 410 00a5 01       		.byte	0x1
 411 00a6 04       		.uleb128 0x4
 412 00a7 54000000 		.4byte	.LASF14
 413 00ab 01       		.byte	0x1
 414 00ac 27       		.byte	0x27
 415 00ad B1000000 		.4byte	0xb1
 416 00b1 05       		.uleb128 0x5
 417 00b2 04       		.byte	0x4
 418 00b3 93000000 		.4byte	0x93
 419 00b7 07       		.uleb128 0x7
 420 00b8 95010000 		.4byte	.LASF36
 421 00bc 01       		.byte	0x1
 422 00bd F4       		.byte	0xf4
 423 00be 01       		.byte	0x1
 424 00bf 01       		.byte	0x1
 425 00c0 E6000000 		.4byte	0xe6
 426 00c4 08       		.uleb128 0x8
 427 00c5 4E000000 		.4byte	.LASF15
 428 00c9 01       		.byte	0x1
 429 00ca F4       		.byte	0xf4
 430 00cb E6000000 		.4byte	0xe6
 431 00cf 09       		.uleb128 0x9
 432 00d0 656E6400 		.ascii	"end\000"
 433 00d4 01       		.byte	0x1
 434 00d5 F4       		.byte	0xf4
 435 00d6 E6000000 		.4byte	0xe6
 436 00da 08       		.uleb128 0x8
 437 00db 57010000 		.4byte	.LASF16
 438 00df 01       		.byte	0x1
 439 00e0 F4       		.byte	0xf4
 440 00e1 65000000 		.4byte	0x65
 441 00e5 00       		.byte	0
 442 00e6 05       		.uleb128 0x5
 443 00e7 04       		.byte	0x4
 444 00e8 65000000 		.4byte	0x65
 445 00ec 0A       		.uleb128 0xa
 446 00ed 01       		.byte	0x1
ARM GAS  /var/folders/5n/p_75w94d66l9ssrldxqdhh700000gn/T//ccW3n6ch.s 			page 9


 447 00ee 9C010000 		.4byte	.LASF17
 448 00f2 01       		.byte	0x1
 449 00f3 D1       		.byte	0xd1
 450 00f4 01       		.byte	0x1
 451 00f5 00000000 		.4byte	.LFB7
 452 00f9 02000000 		.4byte	.LFE7
 453 00fd 02       		.byte	0x2
 454 00fe 7D       		.byte	0x7d
 455 00ff 00       		.sleb128 0
 456 0100 01       		.byte	0x1
 457 0101 0A       		.uleb128 0xa
 458 0102 01       		.byte	0x1
 459 0103 CF000000 		.4byte	.LASF18
 460 0107 01       		.byte	0x1
 461 0108 DD       		.byte	0xdd
 462 0109 01       		.byte	0x1
 463 010a 00000000 		.4byte	.LFB8
 464 010e 02000000 		.4byte	.LFE8
 465 0112 02       		.byte	0x2
 466 0113 7D       		.byte	0x7d
 467 0114 00       		.sleb128 0
 468 0115 01       		.byte	0x1
 469 0116 0A       		.uleb128 0xa
 470 0117 01       		.byte	0x1
 471 0118 5D000000 		.4byte	.LASF19
 472 011c 01       		.byte	0x1
 473 011d E8       		.byte	0xe8
 474 011e 01       		.byte	0x1
 475 011f 00000000 		.4byte	.LFB9
 476 0123 02000000 		.4byte	.LFE9
 477 0127 02       		.byte	0x2
 478 0128 7D       		.byte	0x7d
 479 0129 00       		.sleb128 0
 480 012a 01       		.byte	0x1
 481 012b 0B       		.uleb128 0xb
 482 012c 01       		.byte	0x1
 483 012d FC000000 		.4byte	.LASF37
 484 0131 01       		.byte	0x1
 485 0132 0001     		.2byte	0x100
 486 0134 01       		.byte	0x1
 487 0135 00000000 		.4byte	.LFB11
 488 0139 18010000 		.4byte	.LFE11
 489 013d 02       		.byte	0x2
 490 013e 7D       		.byte	0x7d
 491 013f 00       		.sleb128 0
 492 0140 01       		.byte	0x1
 493 0141 41020000 		.4byte	0x241
 494 0145 0C       		.uleb128 0xc
 495 0146 70737000 		.ascii	"psp\000"
 496 014a 01       		.byte	0x1
 497 014b 0101     		.2byte	0x101
 498 014d 65000000 		.4byte	0x65
 499 0151 01       		.byte	0x1
 500 0152 54       		.byte	0x54
 501 0153 0D       		.uleb128 0xd
 502 0154 72656700 		.ascii	"reg\000"
 503 0158 01       		.byte	0x1
ARM GAS  /var/folders/5n/p_75w94d66l9ssrldxqdhh700000gn/T//ccW3n6ch.s 			page 10


 504 0159 0101     		.2byte	0x101
 505 015b 65000000 		.4byte	0x65
 506 015f 02       		.byte	0x2
 507 0160 0E       		.uleb128 0xe
 508 0161 B7000000 		.4byte	0xb7
 509 0165 16000000 		.4byte	.LBB11
 510 0169 00000000 		.4byte	.Ldebug_ranges0+0
 511 016d 01       		.byte	0x1
 512 016e 2401     		.2byte	0x124
 513 0170 88010000 		.4byte	0x188
 514 0174 0F       		.uleb128 0xf
 515 0175 DA000000 		.4byte	0xda
 516 0179 55555555 		.4byte	0x55555555
 517 017d 10       		.uleb128 0x10
 518 017e CF000000 		.4byte	0xcf
 519 0182 10       		.uleb128 0x10
 520 0183 C4000000 		.4byte	0xc4
 521 0187 00       		.byte	0
 522 0188 0E       		.uleb128 0xe
 523 0189 B7000000 		.4byte	0xb7
 524 018d 1E000000 		.4byte	.LBB14
 525 0191 18000000 		.4byte	.Ldebug_ranges0+0x18
 526 0195 01       		.byte	0x1
 527 0196 2701     		.2byte	0x127
 528 0198 AC010000 		.4byte	0x1ac
 529 019c 10       		.uleb128 0x10
 530 019d DA000000 		.4byte	0xda
 531 01a1 10       		.uleb128 0x10
 532 01a2 CF000000 		.4byte	0xcf
 533 01a6 10       		.uleb128 0x10
 534 01a7 C4000000 		.4byte	0xc4
 535 01ab 00       		.byte	0
 536 01ac 11       		.uleb128 0x11
 537 01ad 38000000 		.4byte	.Ldebug_ranges0+0x38
 538 01b1 CC010000 		.4byte	0x1cc
 539 01b5 12       		.uleb128 0x12
 540 01b6 747000   		.ascii	"tp\000"
 541 01b9 01       		.byte	0x1
 542 01ba 2F01     		.2byte	0x12f
 543 01bc E6000000 		.4byte	0xe6
 544 01c0 12       		.uleb128 0x12
 545 01c1 647000   		.ascii	"dp\000"
 546 01c4 01       		.byte	0x1
 547 01c5 2F01     		.2byte	0x12f
 548 01c7 E6000000 		.4byte	0xe6
 549 01cb 00       		.byte	0
 550 01cc 0E       		.uleb128 0xe
 551 01cd B7000000 		.4byte	0xb7
 552 01d1 5E000000 		.4byte	.LBB23
 553 01d5 58000000 		.4byte	.Ldebug_ranges0+0x58
 554 01d9 01       		.byte	0x1
 555 01da 3A01     		.2byte	0x13a
 556 01dc F0010000 		.4byte	0x1f0
 557 01e0 10       		.uleb128 0x10
 558 01e1 DA000000 		.4byte	0xda
 559 01e5 10       		.uleb128 0x10
 560 01e6 CF000000 		.4byte	0xcf
ARM GAS  /var/folders/5n/p_75w94d66l9ssrldxqdhh700000gn/T//ccW3n6ch.s 			page 11


 561 01ea 10       		.uleb128 0x10
 562 01eb C4000000 		.4byte	0xc4
 563 01ef 00       		.byte	0
 564 01f0 11       		.uleb128 0x11
 565 01f1 78000000 		.4byte	.Ldebug_ranges0+0x78
 566 01f5 06020000 		.4byte	0x206
 567 01f9 12       		.uleb128 0x12
 568 01fa 66707000 		.ascii	"fpp\000"
 569 01fe 01       		.byte	0x1
 570 01ff 4301     		.2byte	0x143
 571 0201 A6000000 		.4byte	0xa6
 572 0205 00       		.byte	0
 573 0206 11       		.uleb128 0x11
 574 0207 98000000 		.4byte	.Ldebug_ranges0+0x98
 575 020b 1C020000 		.4byte	0x21c
 576 020f 12       		.uleb128 0x12
 577 0210 66707000 		.ascii	"fpp\000"
 578 0214 01       		.byte	0x1
 579 0215 5101     		.2byte	0x151
 580 0217 A6000000 		.4byte	0xa6
 581 021b 00       		.byte	0
 582 021c 13       		.uleb128 0x13
 583 021d 16000000 		.4byte	.LVL2
 584 0221 EC000000 		.4byte	0xec
 585 0225 13       		.uleb128 0x13
 586 0226 98000000 		.4byte	.LVL10
 587 022a 01010000 		.4byte	0x101
 588 022e 13       		.uleb128 0x13
 589 022f BC000000 		.4byte	.LVL13
 590 0233 EA020000 		.4byte	0x2ea
 591 0237 13       		.uleb128 0x13
 592 0238 E0000000 		.4byte	.LVL16
 593 023c 16010000 		.4byte	0x116
 594 0240 00       		.byte	0
 595 0241 14       		.uleb128 0x14
 596 0242 23000000 		.4byte	.LASF20
 597 0246 01       		.byte	0x1
 598 0247 72       		.byte	0x72
 599 0248 65000000 		.4byte	0x65
 600 024c 01       		.byte	0x1
 601 024d 01       		.byte	0x1
 602 024e 14       		.uleb128 0x14
 603 024f 38020000 		.4byte	.LASF21
 604 0253 01       		.byte	0x1
 605 0254 7A       		.byte	0x7a
 606 0255 65000000 		.4byte	0x65
 607 0259 01       		.byte	0x1
 608 025a 01       		.byte	0x1
 609 025b 14       		.uleb128 0x14
 610 025c 37000000 		.4byte	.LASF22
 611 0260 01       		.byte	0x1
 612 0261 81       		.byte	0x81
 613 0262 65000000 		.4byte	0x65
 614 0266 01       		.byte	0x1
 615 0267 01       		.byte	0x1
 616 0268 14       		.uleb128 0x14
 617 0269 0F020000 		.4byte	.LASF23
ARM GAS  /var/folders/5n/p_75w94d66l9ssrldxqdhh700000gn/T//ccW3n6ch.s 			page 12


 618 026d 01       		.byte	0x1
 619 026e 88       		.byte	0x88
 620 026f 65000000 		.4byte	0x65
 621 0273 01       		.byte	0x1
 622 0274 01       		.byte	0x1
 623 0275 14       		.uleb128 0x14
 624 0276 8B010000 		.4byte	.LASF24
 625 027a 01       		.byte	0x1
 626 027b 8E       		.byte	0x8e
 627 027c 65000000 		.4byte	0x65
 628 0280 01       		.byte	0x1
 629 0281 01       		.byte	0x1
 630 0282 14       		.uleb128 0x14
 631 0283 FD010000 		.4byte	.LASF25
 632 0287 01       		.byte	0x1
 633 0288 94       		.byte	0x94
 634 0289 65000000 		.4byte	0x65
 635 028d 01       		.byte	0x1
 636 028e 01       		.byte	0x1
 637 028f 14       		.uleb128 0x14
 638 0290 0B000000 		.4byte	.LASF26
 639 0294 01       		.byte	0x1
 640 0295 9A       		.byte	0x9a
 641 0296 65000000 		.4byte	0x65
 642 029a 01       		.byte	0x1
 643 029b 01       		.byte	0x1
 644 029c 14       		.uleb128 0x14
 645 029d 00000000 		.4byte	.LASF27
 646 02a1 01       		.byte	0x1
 647 02a2 A0       		.byte	0xa0
 648 02a3 65000000 		.4byte	0x65
 649 02a7 01       		.byte	0x1
 650 02a8 01       		.byte	0x1
 651 02a9 14       		.uleb128 0x14
 652 02aa 82010000 		.4byte	.LASF28
 653 02ae 01       		.byte	0x1
 654 02af A6       		.byte	0xa6
 655 02b0 65000000 		.4byte	0x65
 656 02b4 01       		.byte	0x1
 657 02b5 01       		.byte	0x1
 658 02b6 14       		.uleb128 0x14
 659 02b7 25020000 		.4byte	.LASF29
 660 02bb 01       		.byte	0x1
 661 02bc AC       		.byte	0xac
 662 02bd 93000000 		.4byte	0x93
 663 02c1 01       		.byte	0x1
 664 02c2 01       		.byte	0x1
 665 02c3 14       		.uleb128 0x14
 666 02c4 2F010000 		.4byte	.LASF30
 667 02c8 01       		.byte	0x1
 668 02c9 B2       		.byte	0xb2
 669 02ca 93000000 		.4byte	0x93
 670 02ce 01       		.byte	0x1
 671 02cf 01       		.byte	0x1
 672 02d0 14       		.uleb128 0x14
 673 02d1 1C010000 		.4byte	.LASF31
 674 02d5 01       		.byte	0x1
ARM GAS  /var/folders/5n/p_75w94d66l9ssrldxqdhh700000gn/T//ccW3n6ch.s 			page 13


 675 02d6 B8       		.byte	0xb8
 676 02d7 93000000 		.4byte	0x93
 677 02db 01       		.byte	0x1
 678 02dc 01       		.byte	0x1
 679 02dd 14       		.uleb128 0x14
 680 02de 12000000 		.4byte	.LASF32
 681 02e2 01       		.byte	0x1
 682 02e3 BE       		.byte	0xbe
 683 02e4 93000000 		.4byte	0x93
 684 02e8 01       		.byte	0x1
 685 02e9 01       		.byte	0x1
 686 02ea 15       		.uleb128 0x15
 687 02eb 01       		.byte	0x1
 688 02ec 52010000 		.4byte	.LASF38
 689 02f0 01       		.byte	0x1
 690 02f1 C5       		.byte	0xc5
 691 02f2 01       		.byte	0x1
 692 02f3 01       		.byte	0x1
 693 02f4 00       		.byte	0
 694              		.section	.debug_abbrev,"",%progbits
 695              	.Ldebug_abbrev0:
 696 0000 01       		.uleb128 0x1
 697 0001 11       		.uleb128 0x11
 698 0002 01       		.byte	0x1
 699 0003 25       		.uleb128 0x25
 700 0004 0E       		.uleb128 0xe
 701 0005 13       		.uleb128 0x13
 702 0006 0B       		.uleb128 0xb
 703 0007 03       		.uleb128 0x3
 704 0008 0E       		.uleb128 0xe
 705 0009 1B       		.uleb128 0x1b
 706 000a 0E       		.uleb128 0xe
 707 000b 55       		.uleb128 0x55
 708 000c 06       		.uleb128 0x6
 709 000d 11       		.uleb128 0x11
 710 000e 01       		.uleb128 0x1
 711 000f 52       		.uleb128 0x52
 712 0010 01       		.uleb128 0x1
 713 0011 10       		.uleb128 0x10
 714 0012 06       		.uleb128 0x6
 715 0013 00       		.byte	0
 716 0014 00       		.byte	0
 717 0015 02       		.uleb128 0x2
 718 0016 24       		.uleb128 0x24
 719 0017 00       		.byte	0
 720 0018 0B       		.uleb128 0xb
 721 0019 0B       		.uleb128 0xb
 722 001a 3E       		.uleb128 0x3e
 723 001b 0B       		.uleb128 0xb
 724 001c 03       		.uleb128 0x3
 725 001d 08       		.uleb128 0x8
 726 001e 00       		.byte	0
 727 001f 00       		.byte	0
 728 0020 03       		.uleb128 0x3
 729 0021 24       		.uleb128 0x24
 730 0022 00       		.byte	0
 731 0023 0B       		.uleb128 0xb
ARM GAS  /var/folders/5n/p_75w94d66l9ssrldxqdhh700000gn/T//ccW3n6ch.s 			page 14


 732 0024 0B       		.uleb128 0xb
 733 0025 3E       		.uleb128 0x3e
 734 0026 0B       		.uleb128 0xb
 735 0027 03       		.uleb128 0x3
 736 0028 0E       		.uleb128 0xe
 737 0029 00       		.byte	0
 738 002a 00       		.byte	0
 739 002b 04       		.uleb128 0x4
 740 002c 16       		.uleb128 0x16
 741 002d 00       		.byte	0
 742 002e 03       		.uleb128 0x3
 743 002f 0E       		.uleb128 0xe
 744 0030 3A       		.uleb128 0x3a
 745 0031 0B       		.uleb128 0xb
 746 0032 3B       		.uleb128 0x3b
 747 0033 0B       		.uleb128 0xb
 748 0034 49       		.uleb128 0x49
 749 0035 13       		.uleb128 0x13
 750 0036 00       		.byte	0
 751 0037 00       		.byte	0
 752 0038 05       		.uleb128 0x5
 753 0039 0F       		.uleb128 0xf
 754 003a 00       		.byte	0
 755 003b 0B       		.uleb128 0xb
 756 003c 0B       		.uleb128 0xb
 757 003d 49       		.uleb128 0x49
 758 003e 13       		.uleb128 0x13
 759 003f 00       		.byte	0
 760 0040 00       		.byte	0
 761 0041 06       		.uleb128 0x6
 762 0042 15       		.uleb128 0x15
 763 0043 00       		.byte	0
 764 0044 27       		.uleb128 0x27
 765 0045 0C       		.uleb128 0xc
 766 0046 00       		.byte	0
 767 0047 00       		.byte	0
 768 0048 07       		.uleb128 0x7
 769 0049 2E       		.uleb128 0x2e
 770 004a 01       		.byte	0x1
 771 004b 03       		.uleb128 0x3
 772 004c 0E       		.uleb128 0xe
 773 004d 3A       		.uleb128 0x3a
 774 004e 0B       		.uleb128 0xb
 775 004f 3B       		.uleb128 0x3b
 776 0050 0B       		.uleb128 0xb
 777 0051 27       		.uleb128 0x27
 778 0052 0C       		.uleb128 0xc
 779 0053 20       		.uleb128 0x20
 780 0054 0B       		.uleb128 0xb
 781 0055 01       		.uleb128 0x1
 782 0056 13       		.uleb128 0x13
 783 0057 00       		.byte	0
 784 0058 00       		.byte	0
 785 0059 08       		.uleb128 0x8
 786 005a 05       		.uleb128 0x5
 787 005b 00       		.byte	0
 788 005c 03       		.uleb128 0x3
ARM GAS  /var/folders/5n/p_75w94d66l9ssrldxqdhh700000gn/T//ccW3n6ch.s 			page 15


 789 005d 0E       		.uleb128 0xe
 790 005e 3A       		.uleb128 0x3a
 791 005f 0B       		.uleb128 0xb
 792 0060 3B       		.uleb128 0x3b
 793 0061 0B       		.uleb128 0xb
 794 0062 49       		.uleb128 0x49
 795 0063 13       		.uleb128 0x13
 796 0064 00       		.byte	0
 797 0065 00       		.byte	0
 798 0066 09       		.uleb128 0x9
 799 0067 05       		.uleb128 0x5
 800 0068 00       		.byte	0
 801 0069 03       		.uleb128 0x3
 802 006a 08       		.uleb128 0x8
 803 006b 3A       		.uleb128 0x3a
 804 006c 0B       		.uleb128 0xb
 805 006d 3B       		.uleb128 0x3b
 806 006e 0B       		.uleb128 0xb
 807 006f 49       		.uleb128 0x49
 808 0070 13       		.uleb128 0x13
 809 0071 00       		.byte	0
 810 0072 00       		.byte	0
 811 0073 0A       		.uleb128 0xa
 812 0074 2E       		.uleb128 0x2e
 813 0075 00       		.byte	0
 814 0076 3F       		.uleb128 0x3f
 815 0077 0C       		.uleb128 0xc
 816 0078 03       		.uleb128 0x3
 817 0079 0E       		.uleb128 0xe
 818 007a 3A       		.uleb128 0x3a
 819 007b 0B       		.uleb128 0xb
 820 007c 3B       		.uleb128 0x3b
 821 007d 0B       		.uleb128 0xb
 822 007e 27       		.uleb128 0x27
 823 007f 0C       		.uleb128 0xc
 824 0080 11       		.uleb128 0x11
 825 0081 01       		.uleb128 0x1
 826 0082 12       		.uleb128 0x12
 827 0083 01       		.uleb128 0x1
 828 0084 40       		.uleb128 0x40
 829 0085 0A       		.uleb128 0xa
 830 0086 9742     		.uleb128 0x2117
 831 0088 0C       		.uleb128 0xc
 832 0089 00       		.byte	0
 833 008a 00       		.byte	0
 834 008b 0B       		.uleb128 0xb
 835 008c 2E       		.uleb128 0x2e
 836 008d 01       		.byte	0x1
 837 008e 3F       		.uleb128 0x3f
 838 008f 0C       		.uleb128 0xc
 839 0090 03       		.uleb128 0x3
 840 0091 0E       		.uleb128 0xe
 841 0092 3A       		.uleb128 0x3a
 842 0093 0B       		.uleb128 0xb
 843 0094 3B       		.uleb128 0x3b
 844 0095 05       		.uleb128 0x5
 845 0096 27       		.uleb128 0x27
ARM GAS  /var/folders/5n/p_75w94d66l9ssrldxqdhh700000gn/T//ccW3n6ch.s 			page 16


 846 0097 0C       		.uleb128 0xc
 847 0098 11       		.uleb128 0x11
 848 0099 01       		.uleb128 0x1
 849 009a 12       		.uleb128 0x12
 850 009b 01       		.uleb128 0x1
 851 009c 40       		.uleb128 0x40
 852 009d 0A       		.uleb128 0xa
 853 009e 9642     		.uleb128 0x2116
 854 00a0 0C       		.uleb128 0xc
 855 00a1 01       		.uleb128 0x1
 856 00a2 13       		.uleb128 0x13
 857 00a3 00       		.byte	0
 858 00a4 00       		.byte	0
 859 00a5 0C       		.uleb128 0xc
 860 00a6 34       		.uleb128 0x34
 861 00a7 00       		.byte	0
 862 00a8 03       		.uleb128 0x3
 863 00a9 08       		.uleb128 0x8
 864 00aa 3A       		.uleb128 0x3a
 865 00ab 0B       		.uleb128 0xb
 866 00ac 3B       		.uleb128 0x3b
 867 00ad 05       		.uleb128 0x5
 868 00ae 49       		.uleb128 0x49
 869 00af 13       		.uleb128 0x13
 870 00b0 02       		.uleb128 0x2
 871 00b1 0A       		.uleb128 0xa
 872 00b2 00       		.byte	0
 873 00b3 00       		.byte	0
 874 00b4 0D       		.uleb128 0xd
 875 00b5 34       		.uleb128 0x34
 876 00b6 00       		.byte	0
 877 00b7 03       		.uleb128 0x3
 878 00b8 08       		.uleb128 0x8
 879 00b9 3A       		.uleb128 0x3a
 880 00ba 0B       		.uleb128 0xb
 881 00bb 3B       		.uleb128 0x3b
 882 00bc 05       		.uleb128 0x5
 883 00bd 49       		.uleb128 0x49
 884 00be 13       		.uleb128 0x13
 885 00bf 1C       		.uleb128 0x1c
 886 00c0 0B       		.uleb128 0xb
 887 00c1 00       		.byte	0
 888 00c2 00       		.byte	0
 889 00c3 0E       		.uleb128 0xe
 890 00c4 1D       		.uleb128 0x1d
 891 00c5 01       		.byte	0x1
 892 00c6 31       		.uleb128 0x31
 893 00c7 13       		.uleb128 0x13
 894 00c8 52       		.uleb128 0x52
 895 00c9 01       		.uleb128 0x1
 896 00ca 55       		.uleb128 0x55
 897 00cb 06       		.uleb128 0x6
 898 00cc 58       		.uleb128 0x58
 899 00cd 0B       		.uleb128 0xb
 900 00ce 59       		.uleb128 0x59
 901 00cf 05       		.uleb128 0x5
 902 00d0 01       		.uleb128 0x1
ARM GAS  /var/folders/5n/p_75w94d66l9ssrldxqdhh700000gn/T//ccW3n6ch.s 			page 17


 903 00d1 13       		.uleb128 0x13
 904 00d2 00       		.byte	0
 905 00d3 00       		.byte	0
 906 00d4 0F       		.uleb128 0xf
 907 00d5 05       		.uleb128 0x5
 908 00d6 00       		.byte	0
 909 00d7 31       		.uleb128 0x31
 910 00d8 13       		.uleb128 0x13
 911 00d9 1C       		.uleb128 0x1c
 912 00da 06       		.uleb128 0x6
 913 00db 00       		.byte	0
 914 00dc 00       		.byte	0
 915 00dd 10       		.uleb128 0x10
 916 00de 05       		.uleb128 0x5
 917 00df 00       		.byte	0
 918 00e0 31       		.uleb128 0x31
 919 00e1 13       		.uleb128 0x13
 920 00e2 00       		.byte	0
 921 00e3 00       		.byte	0
 922 00e4 11       		.uleb128 0x11
 923 00e5 0B       		.uleb128 0xb
 924 00e6 01       		.byte	0x1
 925 00e7 55       		.uleb128 0x55
 926 00e8 06       		.uleb128 0x6
 927 00e9 01       		.uleb128 0x1
 928 00ea 13       		.uleb128 0x13
 929 00eb 00       		.byte	0
 930 00ec 00       		.byte	0
 931 00ed 12       		.uleb128 0x12
 932 00ee 34       		.uleb128 0x34
 933 00ef 00       		.byte	0
 934 00f0 03       		.uleb128 0x3
 935 00f1 08       		.uleb128 0x8
 936 00f2 3A       		.uleb128 0x3a
 937 00f3 0B       		.uleb128 0xb
 938 00f4 3B       		.uleb128 0x3b
 939 00f5 05       		.uleb128 0x5
 940 00f6 49       		.uleb128 0x49
 941 00f7 13       		.uleb128 0x13
 942 00f8 00       		.byte	0
 943 00f9 00       		.byte	0
 944 00fa 13       		.uleb128 0x13
 945 00fb 898201   		.uleb128 0x4109
 946 00fe 00       		.byte	0
 947 00ff 11       		.uleb128 0x11
 948 0100 01       		.uleb128 0x1
 949 0101 31       		.uleb128 0x31
 950 0102 13       		.uleb128 0x13
 951 0103 00       		.byte	0
 952 0104 00       		.byte	0
 953 0105 14       		.uleb128 0x14
 954 0106 34       		.uleb128 0x34
 955 0107 00       		.byte	0
 956 0108 03       		.uleb128 0x3
 957 0109 0E       		.uleb128 0xe
 958 010a 3A       		.uleb128 0x3a
 959 010b 0B       		.uleb128 0xb
ARM GAS  /var/folders/5n/p_75w94d66l9ssrldxqdhh700000gn/T//ccW3n6ch.s 			page 18


 960 010c 3B       		.uleb128 0x3b
 961 010d 0B       		.uleb128 0xb
 962 010e 49       		.uleb128 0x49
 963 010f 13       		.uleb128 0x13
 964 0110 3F       		.uleb128 0x3f
 965 0111 0C       		.uleb128 0xc
 966 0112 3C       		.uleb128 0x3c
 967 0113 0C       		.uleb128 0xc
 968 0114 00       		.byte	0
 969 0115 00       		.byte	0
 970 0116 15       		.uleb128 0x15
 971 0117 2E       		.uleb128 0x2e
 972 0118 00       		.byte	0
 973 0119 3F       		.uleb128 0x3f
 974 011a 0C       		.uleb128 0xc
 975 011b 03       		.uleb128 0x3
 976 011c 0E       		.uleb128 0xe
 977 011d 3A       		.uleb128 0x3a
 978 011e 0B       		.uleb128 0xb
 979 011f 3B       		.uleb128 0x3b
 980 0120 0B       		.uleb128 0xb
 981 0121 27       		.uleb128 0x27
 982 0122 0C       		.uleb128 0xc
 983 0123 3C       		.uleb128 0x3c
 984 0124 0C       		.uleb128 0xc
 985 0125 00       		.byte	0
 986 0126 00       		.byte	0
 987 0127 00       		.byte	0
 988              		.section	.debug_aranges,"",%progbits
 989 0000 34000000 		.4byte	0x34
 990 0004 0200     		.2byte	0x2
 991 0006 00000000 		.4byte	.Ldebug_info0
 992 000a 04       		.byte	0x4
 993 000b 00       		.byte	0
 994 000c 0000     		.2byte	0
 995 000e 0000     		.2byte	0
 996 0010 00000000 		.4byte	.LFB7
 997 0014 02000000 		.4byte	.LFE7-.LFB7
 998 0018 00000000 		.4byte	.LFB8
 999 001c 02000000 		.4byte	.LFE8-.LFB8
 1000 0020 00000000 		.4byte	.LFB9
 1001 0024 02000000 		.4byte	.LFE9-.LFB9
 1002 0028 00000000 		.4byte	.LFB11
 1003 002c 18010000 		.4byte	.LFE11-.LFB11
 1004 0030 00000000 		.4byte	0
 1005 0034 00000000 		.4byte	0
 1006              		.section	.debug_ranges,"",%progbits
 1007              	.Ldebug_ranges0:
 1008 0000 16000000 		.4byte	.LBB11
 1009 0004 1E000000 		.4byte	.LBE11
 1010 0008 2A000000 		.4byte	.LBB18
 1011 000c 36000000 		.4byte	.LBE18
 1012 0010 00000000 		.4byte	0
 1013 0014 00000000 		.4byte	0
 1014 0018 1E000000 		.4byte	.LBB14
 1015 001c 2A000000 		.4byte	.LBE14
 1016 0020 36000000 		.4byte	.LBB19
ARM GAS  /var/folders/5n/p_75w94d66l9ssrldxqdhh700000gn/T//ccW3n6ch.s 			page 19


 1017 0024 3C000000 		.4byte	.LBE19
 1018 0028 4A000000 		.4byte	.LBB21
 1019 002c 56000000 		.4byte	.LBE21
 1020 0030 00000000 		.4byte	0
 1021 0034 00000000 		.4byte	0
 1022 0038 3C000000 		.4byte	.LBB20
 1023 003c 4A000000 		.4byte	.LBE20
 1024 0040 56000000 		.4byte	.LBB22
 1025 0044 5E000000 		.4byte	.LBE22
 1026 0048 6C000000 		.4byte	.LBB27
 1027 004c 76000000 		.4byte	.LBE27
 1028 0050 00000000 		.4byte	0
 1029 0054 00000000 		.4byte	0
 1030 0058 5E000000 		.4byte	.LBB23
 1031 005c 6A000000 		.4byte	.LBE23
 1032 0060 76000000 		.4byte	.LBB28
 1033 0064 7E000000 		.4byte	.LBE28
 1034 0068 8A000000 		.4byte	.LBB30
 1035 006c 94000000 		.4byte	.LBE30
 1036 0070 00000000 		.4byte	0
 1037 0074 00000000 		.4byte	0
 1038 0078 7E000000 		.4byte	.LBB29
 1039 007c 8A000000 		.4byte	.LBE29
 1040 0080 98000000 		.4byte	.LBB31
 1041 0084 A0000000 		.4byte	.LBE31
 1042 0088 AC000000 		.4byte	.LBB33
 1043 008c B8000000 		.4byte	.LBE33
 1044 0090 00000000 		.4byte	0
 1045 0094 00000000 		.4byte	0
 1046 0098 A0000000 		.4byte	.LBB32
 1047 009c AA000000 		.4byte	.LBE32
 1048 00a0 BC000000 		.4byte	.LBB34
 1049 00a4 C4000000 		.4byte	.LBE34
 1050 00a8 D0000000 		.4byte	.LBB35
 1051 00ac DC000000 		.4byte	.LBE35
 1052 00b0 00000000 		.4byte	0
 1053 00b4 00000000 		.4byte	0
 1054 00b8 00000000 		.4byte	.LFB7
 1055 00bc 02000000 		.4byte	.LFE7
 1056 00c0 00000000 		.4byte	.LFB8
 1057 00c4 02000000 		.4byte	.LFE8
 1058 00c8 00000000 		.4byte	.LFB9
 1059 00cc 02000000 		.4byte	.LFE9
 1060 00d0 00000000 		.4byte	.LFB11
 1061 00d4 18010000 		.4byte	.LFE11
 1062 00d8 00000000 		.4byte	0
 1063 00dc 00000000 		.4byte	0
 1064              		.section	.debug_line,"",%progbits
 1065              	.Ldebug_line0:
 1066 0000 1F010000 		.section	.debug_str,"MS",%progbits,1
 1066      02009200 
 1066      00000201 
 1066      FB0E0D00 
 1066      01010101 
 1067              	.LASF27:
 1068 0000 5F627373 		.ascii	"_bss_start\000"
 1068      5F737461 
ARM GAS  /var/folders/5n/p_75w94d66l9ssrldxqdhh700000gn/T//ccW3n6ch.s 			page 20


 1068      727400
 1069              	.LASF26:
 1070 000b 5F656461 		.ascii	"_edata\000"
 1070      746100
 1071              	.LASF32:
 1072 0012 5F5F6669 		.ascii	"__fini_array_end\000"
 1072      6E695F61 
 1072      72726179 
 1072      5F656E64 
 1072      00
 1073              	.LASF20:
 1074 0023 5F5F6D61 		.ascii	"__main_stack_base__\000"
 1074      696E5F73 
 1074      7461636B 
 1074      5F626173 
 1074      655F5F00 
 1075              	.LASF22:
 1076 0037 5F5F7072 		.ascii	"__process_stack_base__\000"
 1076      6F636573 
 1076      735F7374 
 1076      61636B5F 
 1076      62617365 
 1077              	.LASF15:
 1078 004e 73746172 		.ascii	"start\000"
 1078      7400
 1079              	.LASF14:
 1080 0054 66756E63 		.ascii	"funcpp_t\000"
 1080      70705F74 
 1080      00
 1081              	.LASF19:
 1082 005d 5F646566 		.ascii	"_default_exit\000"
 1082      61756C74 
 1082      5F657869 
 1082      7400
 1083              	.LASF35:
 1084 006b 2F557365 		.ascii	"/Users/sin/Documents/Eclipse/Workspace/ChibiOS_2.4."
 1084      72732F73 
 1084      696E2F44 
 1084      6F63756D 
 1084      656E7473 
 1085 009e 322F6465 		.ascii	"2/demos/ARMCM4-STM32F407-DISCOVERY\000"
 1085      6D6F732F 
 1085      41524D43 
 1085      4D342D53 
 1085      544D3332 
 1086              	.LASF2:
 1087 00c1 756E7369 		.ascii	"unsigned char\000"
 1087      676E6564 
 1087      20636861 
 1087      7200
 1088              	.LASF18:
 1089 00cf 5F5F6C61 		.ascii	"__late_init\000"
 1089      74655F69 
 1089      6E697400 
 1090              	.LASF34:
 1091 00db 2E2E2F2E 		.ascii	"../../os/ports/GCC/ARMCMx/crt0.c\000"
 1091      2E2F6F73 
ARM GAS  /var/folders/5n/p_75w94d66l9ssrldxqdhh700000gn/T//ccW3n6ch.s 			page 21


 1091      2F706F72 
 1091      74732F47 
 1091      43432F41 
 1092              	.LASF37:
 1093 00fc 52657365 		.ascii	"ResetHandler\000"
 1093      7448616E 
 1093      646C6572 
 1093      00
 1094              	.LASF4:
 1095 0109 73686F72 		.ascii	"short unsigned int\000"
 1095      7420756E 
 1095      7369676E 
 1095      65642069 
 1095      6E7400
 1096              	.LASF31:
 1097 011c 5F5F6669 		.ascii	"__fini_array_start\000"
 1097      6E695F61 
 1097      72726179 
 1097      5F737461 
 1097      727400
 1098              	.LASF30:
 1099 012f 5F5F696E 		.ascii	"__init_array_end\000"
 1099      69745F61 
 1099      72726179 
 1099      5F656E64 
 1099      00
 1100              	.LASF8:
 1101 0140 6C6F6E67 		.ascii	"long unsigned int\000"
 1101      20756E73 
 1101      69676E65 
 1101      6420696E 
 1101      7400
 1102              	.LASF38:
 1103 0152 6D61696E 		.ascii	"main\000"
 1103      00
 1104              	.LASF16:
 1105 0157 66696C6C 		.ascii	"filler\000"
 1105      657200
 1106              	.LASF0:
 1107 015e 756E7369 		.ascii	"unsigned int\000"
 1107      676E6564 
 1107      20696E74 
 1107      00
 1108              	.LASF10:
 1109 016b 6C6F6E67 		.ascii	"long long unsigned int\000"
 1109      206C6F6E 
 1109      6720756E 
 1109      7369676E 
 1109      65642069 
 1110              	.LASF28:
 1111 0182 5F627373 		.ascii	"_bss_end\000"
 1111      5F656E64 
 1111      00
 1112              	.LASF24:
 1113 018b 5F746578 		.ascii	"_textdata\000"
 1113      74646174 
 1113      6100
ARM GAS  /var/folders/5n/p_75w94d66l9ssrldxqdhh700000gn/T//ccW3n6ch.s 			page 22


 1114              	.LASF36:
 1115 0195 66696C6C 		.ascii	"fill32\000"
 1115      333200
 1116              	.LASF17:
 1117 019c 5F5F6561 		.ascii	"__early_init\000"
 1117      726C795F 
 1117      696E6974 
 1117      00
 1118              	.LASF11:
 1119 01a9 73697A65 		.ascii	"sizetype\000"
 1119      74797065 
 1119      00
 1120              	.LASF6:
 1121 01b2 75696E74 		.ascii	"uint8_t\000"
 1121      385F7400 
 1122              	.LASF9:
 1123 01ba 6C6F6E67 		.ascii	"long long int\000"
 1123      206C6F6E 
 1123      6720696E 
 1123      7400
 1124              	.LASF12:
 1125 01c8 63686172 		.ascii	"char\000"
 1125      00
 1126              	.LASF33:
 1127 01cd 474E5520 		.ascii	"GNU C 4.7.1\000"
 1127      4320342E 
 1127      372E3100 
 1128              	.LASF3:
 1129 01d9 73686F72 		.ascii	"short int\000"
 1129      7420696E 
 1129      7400
 1130              	.LASF13:
 1131 01e3 66756E63 		.ascii	"funcp_t\000"
 1131      705F7400 
 1132              	.LASF7:
 1133 01eb 75696E74 		.ascii	"uint32_t\000"
 1133      33325F74 
 1133      00
 1134              	.LASF5:
 1135 01f4 6C6F6E67 		.ascii	"long int\000"
 1135      20696E74 
 1135      00
 1136              	.LASF25:
 1137 01fd 5F646174 		.ascii	"_data\000"
 1137      6100
 1138              	.LASF1:
 1139 0203 7369676E 		.ascii	"signed char\000"
 1139      65642063 
 1139      68617200 
 1140              	.LASF23:
 1141 020f 5F5F7072 		.ascii	"__process_stack_end__\000"
 1141      6F636573 
 1141      735F7374 
 1141      61636B5F 
 1141      656E645F 
 1142              	.LASF29:
 1143 0225 5F5F696E 		.ascii	"__init_array_start\000"
ARM GAS  /var/folders/5n/p_75w94d66l9ssrldxqdhh700000gn/T//ccW3n6ch.s 			page 23


 1143      69745F61 
 1143      72726179 
 1143      5F737461 
 1143      727400
 1144              	.LASF21:
 1145 0238 5F5F6D61 		.ascii	"__main_stack_end__\000"
 1145      696E5F73 
 1145      7461636B 
 1145      5F656E64 
 1145      5F5F00
 1146              		.ident	"GCC: (GNU) 4.7.1"
ARM GAS  /var/folders/5n/p_75w94d66l9ssrldxqdhh700000gn/T//ccW3n6ch.s 			page 24


DEFINED SYMBOLS
                            *ABS*:0000000000000000 crt0.c
/var/folders/5n/p_75w94d66l9ssrldxqdhh700000gn/T//ccW3n6ch.s:19     .text.__early_init:0000000000000000 $t
/var/folders/5n/p_75w94d66l9ssrldxqdhh700000gn/T//ccW3n6ch.s:25     .text.__early_init:0000000000000000 __early_init
/var/folders/5n/p_75w94d66l9ssrldxqdhh700000gn/T//ccW3n6ch.s:38     .text.__late_init:0000000000000000 $t
/var/folders/5n/p_75w94d66l9ssrldxqdhh700000gn/T//ccW3n6ch.s:44     .text.__late_init:0000000000000000 __late_init
/var/folders/5n/p_75w94d66l9ssrldxqdhh700000gn/T//ccW3n6ch.s:56     .text._default_exit:0000000000000000 $t
/var/folders/5n/p_75w94d66l9ssrldxqdhh700000gn/T//ccW3n6ch.s:62     .text._default_exit:0000000000000000 _default_exit
/var/folders/5n/p_75w94d66l9ssrldxqdhh700000gn/T//ccW3n6ch.s:75     .text.ResetHandler:0000000000000000 $t
/var/folders/5n/p_75w94d66l9ssrldxqdhh700000gn/T//ccW3n6ch.s:81     .text.ResetHandler:0000000000000000 ResetHandler
/var/folders/5n/p_75w94d66l9ssrldxqdhh700000gn/T//ccW3n6ch.s:308    .text.ResetHandler:00000000000000e0 $d
                     .debug_frame:0000000000000010 $d
/var/folders/5n/p_75w94d66l9ssrldxqdhh700000gn/T//ccW3n6ch.s:325    .text.ResetHandler:0000000000000118 $t

UNDEFINED SYMBOLS
main
__process_stack_end__
__main_stack_base__
__main_stack_end__
__process_stack_base__
_data
_edata
_textdata
_bss_start
_bss_end
__init_array_start
__init_array_end
__fini_array_start
__fini_array_end
