ARM GAS  /var/folders/5n/p_75w94d66l9ssrldxqdhh700000gn/T//ccW3n6ch.s 			page 1


   1              		.syntax unified
   2              		.cpu cortex-m4
   3              		.fpu softvfp
   4              		.eabi_attribute 20, 1
   5              		.eabi_attribute 21, 1
   6              		.eabi_attribute 23, 3
   7              		.eabi_attribute 24, 1
   8              		.eabi_attribute 25, 1
   9              		.eabi_attribute 26, 1
  10              		.eabi_attribute 30, 2
  11              		.eabi_attribute 34, 1
  12              		.eabi_attribute 18, 4
  13              		.thumb
  14              		.file	"crt0.c"
  15              		.text
  16              	.Ltext0:
  17              		.cfi_sections	.debug_frame
  18              		.section	.text.__early_init,"ax",%progbits
  19              		.align	2
  20              		.p2align 4,,15
  21              		.weak	__early_init
  22              		.thumb
  23              		.thumb_func
  24              		.type	__early_init, %function
  25              	__early_init:
  26              	.LFB7:
  27              		.file 1 "../../os/ports/GCC/ARMCMx/crt0.c"
  28              		.loc 1 209 0
  29              		.cfi_startproc
  30              		@ args = 0, pretend = 0, frame = 0
  31              		@ frame_needed = 0, uses_anonymous_args = 0
  32              		@ link register save eliminated.
  33 0000 7047     		bx	lr
  34              		.cfi_endproc
  35              	.LFE7:
  36              		.size	__early_init, .-__early_init
  37 0002 00BFAFF3 		.section	.text.__late_init,"ax",%progbits
  37      0080AFF3 
  37      0080AFF3 
  37      0080
  38              		.align	2
  39              		.p2align 4,,15
  40              		.weak	__late_init
  41              		.thumb
  42              		.thumb_func
  43              		.type	__late_init, %function
  44              	__late_init:
  45              	.LFB8:
  46              		.loc 1 221 0
  47              		.cfi_startproc
  48              		@ args = 0, pretend = 0, frame = 0
  49              		@ frame_needed = 0, uses_anonymous_args = 0
  50              		@ link register save eliminated.
  51 0000 7047     		bx	lr
  52              		.cfi_endproc
  53              	.LFE8:
  54              		.size	__late_init, .-__late_init
ARM GAS  /var/folders/5n/p_75w94d66l9ssrldxqdhh700000gn/T//ccW3n6ch.s 			page 2


  55 0002 00BFAFF3 		.section	.text._default_exit,"ax",%progbits
  55      0080AFF3 
  55      0080AFF3 
  55      0080
  56              		.align	2
  57              		.p2align 4,,15
  58              		.weak	_default_exit
  59              		.thumb
  60              		.thumb_func
  61              		.type	_default_exit, %function
  62              	_default_exit:
  63              	.LFB9:
  64              		.loc 1 232 0
  65              		.cfi_startproc
  66              		@ Naked Function: prologue and epilogue provided by programmer.
  67              		@ args = 0, pretend = 0, frame = 0
  68              		@ frame_needed = 0, uses_anonymous_args = 0
  69              	.L4:
  70 0000 FEE7     		b	.L4
  71              		.cfi_endproc
  72              	.LFE9:
  73              		.size	_default_exit, .-_default_exit
  74 0002 00BFAFF3 		.section	.text.ResetHandler,"ax",%progbits
  74      0080AFF3 
  74      0080AFF3 
  74      0080
  75              		.align	2
  76              		.p2align 4,,15
  77              		.global	ResetHandler
  78              		.thumb
  79              		.thumb_func
  80              		.type	ResetHandler, %function
  81              	ResetHandler:
  82              	.LFB11:
  83              		.loc 1 256 0
  84              		.cfi_startproc
  85              		@ Naked Function: prologue and epilogue provided by programmer.
  86              		@ args = 0, pretend = 0, frame = 0
  87              		@ frame_needed = 0, uses_anonymous_args = 0
  88              		.loc 1 262 0
  89              	@ 262 "../../os/ports/GCC/ARMCMx/crt0.c" 1
  90 0000 72B6     		cpsid   i
  91              	@ 0 "" 2
  92              		.loc 1 263 0
  93              		.thumb
  94 0002 374C     		ldr	r4, .L32
  95              	.LVL0:
  96              		.loc 1 264 0
  97              	@ 264 "../../os/ports/GCC/ARMCMx/crt0.c" 1
  98 0004 84F30988 		msr     PSP, r4
  99              	@ 0 "" 2
 100              	.LVL1:
 101              		.loc 1 284 0
 102              		.thumb
 103 0008 0223     		movs	r3, #2
 104              	@ 284 "../../os/ports/GCC/ARMCMx/crt0.c" 1
 105 000a 83F31488 		msr     CONTROL, r3
ARM GAS  /var/folders/5n/p_75w94d66l9ssrldxqdhh700000gn/T//ccW3n6ch.s 			page 3


 106              	@ 0 "" 2
 107              		.loc 1 285 0
 108              	@ 285 "../../os/ports/GCC/ARMCMx/crt0.c" 1
 109 000e BFF36F8F 		isb
 110              	@ 0 "" 2
 111              		.loc 1 288 0
 112              		.thumb
 113 0012 FFF7FEFF 		bl	__early_init
 114              	.LVL2:
 115              	.LBB11:
 116              	.LBB12:
 117              		.loc 1 246 0
 118 0016 334A     		ldr	r2, .L32+4
 119 0018 334B     		ldr	r3, .L32+8
 120 001a 9A42     		cmp	r2, r3
 121 001c 0BD2     		bcs	.L10
 122              	.LBE12:
 123              	.LBE11:
 124              	.LBB14:
 125              	.LBB15:
 126              		.loc 1 256 0
 127 001e D143     		mvns	r1, r2
 128 0020 C918     		adds	r1, r1, r3
 129 0022 21F00301 		bic	r1, r1, #3
 130 0026 131F     		subs	r3, r2, #4
 131 0028 8918     		adds	r1, r1, r2
 132              	.LBE15:
 133              	.LBE14:
 134              	.LBB18:
 135              	.LBB13:
 136              		.loc 1 247 0
 137 002a 4FF05532 		mov	r2, #1431655765
 138              	.LVL3:
 139              	.L9:
 140 002e 43F8042F 		str	r2, [r3, #4]!
 141              		.loc 1 246 0
 142 0032 8B42     		cmp	r3, r1
 143 0034 FBD1     		bne	.L9
 144              	.L10:
 145              	.LVL4:
 146              	.LBE13:
 147              	.LBE18:
 148              	.LBB19:
 149              	.LBB16:
 150 0036 2D4A     		ldr	r2, .L32+12
 151 0038 A242     		cmp	r2, r4
 152 003a 0CD2     		bcs	.L8
 153              	.LBE16:
 154              	.LBE19:
 155              	.LBB20:
 156              		.loc 1 256 0
 157 003c 2C49     		ldr	r1, .L32+16
 158 003e 131D     		adds	r3, r2, #4
 159 0040 C91A     		subs	r1, r1, r3
 160 0042 21F00301 		bic	r1, r1, #3
 161 0046 131F     		subs	r3, r2, #4
 162 0048 8918     		adds	r1, r1, r2
ARM GAS  /var/folders/5n/p_75w94d66l9ssrldxqdhh700000gn/T//ccW3n6ch.s 			page 4


 163              	.LBE20:
 164              	.LBB21:
 165              	.LBB17:
 166              		.loc 1 247 0
 167 004a 4FF05532 		mov	r2, #1431655765
 168              	.LVL5:
 169              	.L13:
 170 004e 43F8042F 		str	r2, [r3, #4]!
 171              		.loc 1 246 0
 172 0052 8B42     		cmp	r3, r1
 173 0054 FBD1     		bne	.L13
 174              	.L8:
 175              	.LVL6:
 176              	.LBE17:
 177              	.LBE21:
 178              	.LBB22:
 179              		.loc 1 307 0
 180 0056 2749     		ldr	r1, .L32+20
 181 0058 274B     		ldr	r3, .L32+24
 182 005a 9942     		cmp	r1, r3
 183 005c 0BD2     		bcs	.L12
 184              	.LBE22:
 185              	.LBB23:
 186              	.LBB24:
 187              		.loc 1 256 0
 188 005e C843     		mvns	r0, r1
 189 0060 C018     		adds	r0, r0, r3
 190 0062 20F00300 		bic	r0, r0, #3
 191 0066 254C     		ldr	r4, .L32+28
 192 0068 0430     		adds	r0, r0, #4
 193              	.LBE24:
 194              	.LBE23:
 195 006a 0023     		movs	r3, #0
 196              	.LVL7:
 197              	.L16:
 198              	.LBB27:
 199              		.loc 1 308 0
 200 006c 1A59     		ldr	r2, [r3, r4]
 201 006e 5A50     		str	r2, [r3, r1]
 202 0070 0433     		adds	r3, r3, #4
 203              		.loc 1 307 0
 204 0072 8342     		cmp	r3, r0
 205 0074 FAD1     		bne	.L16
 206              	.L12:
 207              	.LVL8:
 208              	.LBE27:
 209              	.LBB28:
 210              	.LBB25:
 211              		.loc 1 246 0
 212 0076 224A     		ldr	r2, .L32+32
 213 0078 224B     		ldr	r3, .L32+36
 214 007a 9A42     		cmp	r2, r3
 215 007c 0AD2     		bcs	.L15
 216              	.LBE25:
 217              	.LBE28:
 218              	.LBB29:
 219              		.loc 1 256 0
ARM GAS  /var/folders/5n/p_75w94d66l9ssrldxqdhh700000gn/T//ccW3n6ch.s 			page 5


 220 007e D143     		mvns	r1, r2
 221 0080 C918     		adds	r1, r1, r3
 222 0082 21F00301 		bic	r1, r1, #3
 223 0086 131F     		subs	r3, r2, #4
 224 0088 8918     		adds	r1, r1, r2
 225              	.LBE29:
 226              	.LBB30:
 227              	.LBB26:
 228              		.loc 1 247 0
 229 008a 0022     		movs	r2, #0
 230              	.LVL9:
 231              	.L19:
 232 008c 43F8042F 		str	r2, [r3, #4]!
 233              		.loc 1 246 0
 234 0090 8B42     		cmp	r3, r1
 235 0092 FBD1     		bne	.L19
 236              	.L15:
 237              	.LBE26:
 238              	.LBE30:
 239              		.loc 1 318 0
 240 0094 FFF7FEFF 		bl	__late_init
 241              	.LVL10:
 242              	.LBB31:
 243              		.loc 1 324 0
 244 0098 1B4D     		ldr	r5, .L32+40
 245 009a 1C4B     		ldr	r3, .L32+44
 246 009c 9D42     		cmp	r5, r3
 247 009e 0BD2     		bcs	.L18
 248              	.LBE31:
 249              	.LBB32:
 250              		.loc 1 256 0
 251 00a0 EE43     		mvns	r6, r5
 252 00a2 F618     		adds	r6, r6, r3
 253 00a4 B608     		lsrs	r6, r6, #2
 254 00a6 043D     		subs	r5, r5, #4
 255 00a8 0136     		adds	r6, r6, #1
 256              	.LBE32:
 257 00aa 0024     		movs	r4, #0
 258              	.LVL11:
 259              	.L22:
 260              	.LBB33:
 261              		.loc 1 325 0
 262 00ac 55F8043F 		ldr	r3, [r5, #4]!
 263 00b0 0134     		adds	r4, r4, #1
 264 00b2 9847     		blx	r3
 265              	.LVL12:
 266              		.loc 1 324 0
 267 00b4 B442     		cmp	r4, r6
 268 00b6 F9D1     		bne	.L22
 269              	.L18:
 270              	.LBE33:
 271              		.loc 1 332 0
 272 00b8 FFF7FEFF 		bl	main
 273              	.LVL13:
 274              	.LBB34:
 275              		.loc 1 338 0
 276 00bc 144D     		ldr	r5, .L32+48
ARM GAS  /var/folders/5n/p_75w94d66l9ssrldxqdhh700000gn/T//ccW3n6ch.s 			page 6


 277 00be 154B     		ldr	r3, .L32+52
 278 00c0 9D42     		cmp	r5, r3
 279 00c2 0BD2     		bcs	.L21
 280              	.LBE34:
 281              		.loc 1 256 0
 282 00c4 EE43     		mvns	r6, r5
 283 00c6 F618     		adds	r6, r6, r3
 284 00c8 B608     		lsrs	r6, r6, #2
 285 00ca 043D     		subs	r5, r5, #4
 286 00cc 0136     		adds	r6, r6, #1
 287 00ce 0024     		movs	r4, #0
 288              	.LVL14:
 289              	.L23:
 290              	.LBB35:
 291              		.loc 1 339 0
 292 00d0 55F8043F 		ldr	r3, [r5, #4]!
 293 00d4 0134     		adds	r4, r4, #1
 294 00d6 9847     		blx	r3
 295              	.LVL15:
 296              		.loc 1 338 0
 297 00d8 B442     		cmp	r4, r6
 298 00da F9D1     		bne	.L23
 299              	.L21:
 300              	.LBE35:
 301              		.loc 1 346 0
 302 00dc FFF7FEFF 		bl	_default_exit
 303              	.LVL16:
 304              		.loc 1 347 0
 305              	.L33:
 306              		.align	2
 307              	.L32:
 308 00e0 00000000 		.word	__process_stack_end__
 309 00e4 00000000 		.word	__main_stack_base__
 310 00e8 00000000 		.word	__main_stack_end__
 311 00ec 00000000 		.word	__process_stack_base__
 312 00f0 03000000 		.word	__process_stack_end__+3
 313 00f4 00000000 		.word	_data
 314 00f8 00000000 		.word	_edata
 315 00fc 00000000 		.word	_textdata
 316 0100 00000000 		.word	_bss_start
 317 0104 00000000 		.word	_bss_end
 318 0108 00000000 		.word	__init_array_start
 319 010c 00000000 		.word	__init_array_end
 320 0110 00000000 		.word	__fini_array_start
 321 0114 00000000 		.word	__fini_array_end
 322              		.cfi_endproc
 323              	.LFE11:
 324              		.size	ResetHandler, .-ResetHandler
 325 0118 AFF30080 		.text
 325      AFF30080 
 326              	.Letext0:
 327              		.file 2 "/usr/local/cross/lib/gcc/arm-none-eabi/4.7.1/../../../../arm-none-eabi/include/stdint.h"