ARM GAS  /var/folders/5n/p_75w94d66l9ssrldxqdhh700000gn/T//ccaLJV1U.s 			page 1


   1              		.syntax unified
   2              		.cpu cortex-m4
   3              		.fpu softvfp
   4              		.eabi_attribute 20, 1
   5              		.eabi_attribute 21, 1
   6              		.eabi_attribute 23, 3
   7              		.eabi_attribute 24, 1
   8              		.eabi_attribute 25, 1
   9              		.eabi_attribute 26, 1
  10              		.eabi_attribute 30, 2
  11              		.eabi_attribute 34, 1
  12              		.eabi_attribute 18, 4
  13              		.thumb
  14              		.file	"main.c"
  15              		.text
  16              	.Ltext0:
  17              		.cfi_sections	.debug_frame
  18              		.section	.text.Thread1,"ax",%progbits
  19              		.align	2
  20              		.p2align 4,,15
  21              		.thumb
  22              		.thumb_func
  23              		.type	Thread1, %function
  24              	Thread1:
  25              	.LFB120:
  26              		.file 1 "main.c"
  27              		.loc 1 179 0
  28              		.cfi_startproc
  29              		@ args = 0, pretend = 0, frame = 0
  30              		@ frame_needed = 0, uses_anonymous_args = 0
  31              	.LVL0:
  32              		.loc 1 182 0
  33 0000 0B4B     		ldr	r3, .L4
  34 0002 0C4A     		ldr	r2, .L4+4
  35 0004 DB69     		ldr	r3, [r3, #28]
  36              		.loc 1 179 0
  37 0006 70B5     		push	{r4, r5, r6, lr}
  38              	.LCFI0:
  39              		.cfi_def_cfa_offset 16
  40              		.cfi_offset 4, -16
  41              		.cfi_offset 5, -12
  42              		.cfi_offset 6, -8
  43              		.cfi_offset 14, -4
  44              		.loc 1 184 0
  45 0008 4FF44064 		mov	r4, #3072
  46 000c 4FF40055 		mov	r5, #8192
  47              		.loc 1 182 0
  48 0010 9A61     		str	r2, [r3, #24]
  49              		.loc 1 184 0
  50 0012 C4F20204 		movt	r4, 16386
  51 0016 2E46     		mov	r6, r5	@ movhi
  52              	.LVL1:
  53              	.L2:
  54              		.loc 1 184 0 is_stmt 0 discriminator 1
  55 0018 2683     		strh	r6, [r4, #24]	@ movhi
  56              		.loc 1 185 0 is_stmt 1 discriminator 1
  57 001a 4FF4FA70 		mov	r0, #500
ARM GAS  /var/folders/5n/p_75w94d66l9ssrldxqdhh700000gn/T//ccaLJV1U.s 			page 2


  58 001e FFF7FEFF 		bl	chThdSleep
  59              	.LVL2:
  60              		.loc 1 186 0 discriminator 1
  61 0022 6583     		strh	r5, [r4, #26]	@ movhi
  62              		.loc 1 187 0 discriminator 1
  63 0024 4FF4FA70 		mov	r0, #500
  64 0028 FFF7FEFF 		bl	chThdSleep
  65              	.LVL3:
  66 002c F4E7     		b	.L2
  67              	.L5:
  68 002e 00BF     		.align	2
  69              	.L4:
  70 0030 00000000 		.word	rlist
  71 0034 00000000 		.word	.LC0
  72              		.cfi_endproc
  73              	.LFE120:
  74              		.size	Thread1, .-Thread1
  75 0038 AFF30080 		.section	.text.pwmpcb,"ax",%progbits
  75      AFF30080 
  76              		.align	2
  77              		.p2align 4,,15
  78              		.thumb
  79              		.thumb_func
  80              		.type	pwmpcb, %function
  81              	pwmpcb:
  82              	.LFB117:
  83              		.loc 1 119 0
  84              		.cfi_startproc
  85              		@ args = 0, pretend = 0, frame = 0
  86              		@ frame_needed = 0, uses_anonymous_args = 0
  87              	.LVL4:
  88 0000 08B5     		push	{r3, lr}
  89              	.LCFI1:
  90              		.cfi_def_cfa_offset 8
  91              		.cfi_offset 3, -8
  92              		.cfi_offset 14, -4
  93              	.LBB5:
  94              		.loc 1 126 0
  95 0002 2023     		movs	r3, #32
  96              	.LVL5:
  97              	@ 126 "main.c" 1
  98 0004 83F31188 		msr     BASEPRI, r3
  99              	@ 0 "" 2
 100              	.LVL6:
 101              		.thumb
 102              	.LBE5:
 103              		.loc 1 127 0
 104 0008 40F20000 		movw	r0, #:lower16:ADCD1
 105              	.LVL7:
 106 000c 40F20001 		movw	r1, #:lower16:.LANCHOR0
 107 0010 40F20002 		movw	r2, #:lower16:.LANCHOR1
 108 0014 0423     		movs	r3, #4
 109              	.LVL8:
 110 0016 C0F20000 		movt	r0, #:upper16:ADCD1
 111 001a C0F20001 		movt	r1, #:upper16:.LANCHOR0
 112 001e C0F20002 		movt	r2, #:upper16:.LANCHOR1
 113 0022 FFF7FEFF 		bl	adcStartConversionI
ARM GAS  /var/folders/5n/p_75w94d66l9ssrldxqdhh700000gn/T//ccaLJV1U.s 			page 3


 114              	.LVL9:
 115              	.LBB6:
 116              		.loc 1 128 0
 117 0026 0023     		movs	r3, #0
 118              	.LVL10:
 119              	@ 128 "main.c" 1
 120 0028 83F31188 		msr     BASEPRI, r3
 121              	@ 0 "" 2
 122              	.LVL11:
 123              		.thumb
 124 002c 08BD     		pop	{r3, pc}
 125              	.LBE6:
 126              		.cfi_endproc
 127              	.LFE117:
 128              		.size	pwmpcb, .-pwmpcb
 129 002e 00BF     		.section	.text.spicb,"ax",%progbits
 130              		.align	2
 131              		.p2align 4,,15
 132              		.thumb
 133              		.thumb_func
 134              		.type	spicb, %function
 135              	spicb:
 136              	.LFB119:
 137              		.loc 1 166 0
 138              		.cfi_startproc
 139              		@ args = 0, pretend = 0, frame = 0
 140              		@ frame_needed = 0, uses_anonymous_args = 0
 141              	.LVL12:
 142 0000 08B5     		push	{r3, lr}
 143              	.LCFI2:
 144              		.cfi_def_cfa_offset 8
 145              		.cfi_offset 3, -8
 146              		.cfi_offset 14, -4
 147              	.LBB7:
 148              		.loc 1 169 0
 149 0002 2023     		movs	r3, #32
 150              	.LVL13:
 151              	@ 169 "main.c" 1
 152 0004 83F31188 		msr     BASEPRI, r3
 153              	@ 0 "" 2
 154              	.LVL14:
 155              		.thumb
 156              	.LBE7:
 157              		.loc 1 170 0
 158 0008 FFF7FEFF 		bl	spi_lld_unselect
 159              	.LVL15:
 160              	.LBB8:
 161              		.loc 1 171 0
 162 000c 0023     		movs	r3, #0
 163              	.LVL16:
 164              	@ 171 "main.c" 1
 165 000e 83F31188 		msr     BASEPRI, r3
 166              	@ 0 "" 2
 167              	.LVL17:
 168              		.thumb
 169 0012 08BD     		pop	{r3, pc}
 170              	.LBE8:
ARM GAS  /var/folders/5n/p_75w94d66l9ssrldxqdhh700000gn/T//ccaLJV1U.s 			page 4


 171              		.cfi_endproc
 172              	.LFE119:
 173              		.size	spicb, .-spicb
 174 0014 AFF30080 		.section	.text.adccb,"ax",%progbits
 174      AFF30080 
 174      AFF30080 
 175              		.align	2
 176              		.p2align 4,,15
 177              		.thumb
 178              		.thumb_func
 179              		.type	adccb, %function
 180              	adccb:
 181              	.LFB118:
 182              		.loc 1 136 0
 183              		.cfi_startproc
 184              		@ args = 0, pretend = 0, frame = 0
 185              		@ frame_needed = 0, uses_anonymous_args = 0
 186              	.LVL18:
 187 0000 F8B5     		push	{r3, r4, r5, r6, r7, lr}
 188              	.LCFI3:
 189              		.cfi_def_cfa_offset 24
 190              		.cfi_offset 3, -24
 191              		.cfi_offset 4, -20
 192              		.cfi_offset 5, -16
 193              		.cfi_offset 6, -12
 194              		.cfi_offset 7, -8
 195              		.cfi_offset 14, -4
 196              		.loc 1 141 0
 197 0002 0378     		ldrb	r3, [r0, #0]	@ zero_extendqisi2
 198 0004 042B     		cmp	r3, #4
 199 0006 00D0     		beq	.L10
 200 0008 F8BD     		pop	{r3, r4, r5, r6, r7, pc}
 201              	.L10:
 202              	.LBB14:
 203              	.LBB15:
 204              	.LBB16:
 205              		.loc 1 145 0
 206 000a 1B4C     		ldr	r4, .L11
 207 000c B4F800E0 		ldrh	lr, [r4, #0]
 208 0010 A288     		ldrh	r2, [r4, #4]
 209              	.LVL19:
 210              		.loc 1 146 0
 211 0012 6788     		ldrh	r7, [r4, #2]
 212 0014 E688     		ldrh	r6, [r4, #6]
 213              		.loc 1 145 0
 214 0016 2589     		ldrh	r5, [r4, #8]
 215              		.loc 1 146 0
 216 0018 6089     		ldrh	r0, [r4, #10]
 217              	.LVL20:
 218 001a E389     		ldrh	r3, [r4, #14]
 219              		.loc 1 145 0
 220 001c A189     		ldrh	r1, [r4, #12]
 221              	.LVL21:
 222 001e 7244     		add	r2, lr, r2
 223              		.loc 1 146 0
 224 0020 BF19     		adds	r7, r7, r6
 225              		.loc 1 145 0
ARM GAS  /var/folders/5n/p_75w94d66l9ssrldxqdhh700000gn/T//ccaLJV1U.s 			page 5


 226 0022 5219     		adds	r2, r2, r5
 227              		.loc 1 146 0
 228 0024 3F18     		adds	r7, r7, r0
 229              		.loc 1 145 0
 230 0026 5218     		adds	r2, r2, r1
 231              		.loc 1 146 0
 232 0028 FF18     		adds	r7, r7, r3
 233              		.loc 1 145 0
 234 002a 9210     		asrs	r2, r2, #2
 235              	.LVL22:
 236              		.loc 1 146 0
 237 002c BF10     		asrs	r7, r7, #2
 238              	.LVL23:
 239              	.LBB17:
 240              		.loc 1 148 0
 241 002e 2023     		movs	r3, #32
 242              	.LVL24:
 243              	@ 148 "main.c" 1
 244 0030 83F31188 		msr     BASEPRI, r3
 245              	@ 0 "" 2
 246              	.LVL25:
 247              		.thumb
 248              	.LBE17:
 249              		.loc 1 152 0
 250 0034 114D     		ldr	r5, .L11+4
 251              		.loc 1 156 0
 252 0036 124E     		ldr	r6, .L11+8
 253              		.loc 1 152 0
 254 0038 2B89     		ldrh	r3, [r5, #8]
 255              	.LVL26:
 256 003a 03FB02F2 		mul	r2, r3, r2
 257              	.LVL27:
 258 003e 2846     		mov	r0, r5
 259 0040 0021     		movs	r1, #0
 260              	.LVL28:
 261 0042 C2F30F32 		ubfx	r2, r2, #12, #16
 262 0046 FFF7FEFF 		bl	pwm_lld_enable_channel
 263              	.LVL29:
 264              		.loc 1 153 0
 265 004a 2B89     		ldrh	r3, [r5, #8]
 266 004c 03FB07F2 		mul	r2, r3, r7
 267 0050 0321     		movs	r1, #3
 268 0052 C2F30F32 		ubfx	r2, r2, #12, #16
 269 0056 2846     		mov	r0, r5
 270 0058 FFF7FEFF 		bl	pwm_lld_enable_channel
 271              	.LVL30:
 272              		.loc 1 156 0
 273 005c 3046     		mov	r0, r6
 274 005e FFF7FEFF 		bl	spi_lld_select
 275              	.LVL31:
 276              		.loc 1 157 0
 277 0062 0323     		movs	r3, #3
 278 0064 3046     		mov	r0, r6
 279 0066 0821     		movs	r1, #8
 280 0068 2246     		mov	r2, r4
 281 006a 3370     		strb	r3, [r6, #0]
 282 006c FFF7FEFF 		bl	spi_lld_send
ARM GAS  /var/folders/5n/p_75w94d66l9ssrldxqdhh700000gn/T//ccaLJV1U.s 			page 6


 283              	.LVL32:
 284              	.LBB18:
 285              		.loc 1 159 0
 286 0070 0023     		movs	r3, #0
 287              	.LVL33:
 288              	@ 159 "main.c" 1
 289 0072 83F31188 		msr     BASEPRI, r3
 290              	@ 0 "" 2
 291              	.LVL34:
 292              		.thumb
 293 0076 F8BD     		pop	{r3, r4, r5, r6, r7, pc}
 294              	.L12:
 295              		.align	2
 296              	.L11:
 297 0078 00000000 		.word	.LANCHOR1
 298 007c 00000000 		.word	PWMD4
 299 0080 00000000 		.word	SPID2
 300              	.LBE18:
 301              	.LBE16:
 302              	.LBE15:
 303              	.LBE14:
 304              		.cfi_endproc
 305              	.LFE118:
 306              		.size	adccb, .-adccb
 307 0084 AFF30080 		.section	.text.startup.main,"ax",%progbits
 307      AFF30080 
 307      AFF30080 
 308              		.align	2
 309              		.p2align 4,,15
 310              		.global	main
 311              		.thumb
 312              		.thumb_func
 313              		.type	main, %function
 314              	main:
 315              	.LFB121:
 316              		.loc 1 195 0
 317              		.cfi_startproc
 318              		@ args = 0, pretend = 0, frame = 0
 319              		@ frame_needed = 0, uses_anonymous_args = 0
 320 0000 70B5     		push	{r4, r5, r6, lr}
 321              	.LCFI4:
 322              		.cfi_def_cfa_offset 16
 323              		.cfi_offset 4, -16
 324              		.cfi_offset 5, -12
 325              		.cfi_offset 6, -8
 326              		.cfi_offset 14, -4
 327              		.loc 1 212 0
 328 0002 0024     		movs	r4, #0
 329              		.loc 1 195 0
 330 0004 82B0     		sub	sp, sp, #8
 331              	.LCFI5:
 332              		.cfi_def_cfa_offset 24
 333              		.loc 1 204 0
 334 0006 FFF7FEFF 		bl	halInit
 335              	.LVL35:
 336              		.loc 1 212 0
 337 000a C4F20204 		movt	r4, 16386
ARM GAS  /var/folders/5n/p_75w94d66l9ssrldxqdhh700000gn/T//ccaLJV1U.s 			page 7


 338              		.loc 1 205 0
 339 000e FFF7FEFF 		bl	chSysInit
 340              	.LVL36:
 341              		.loc 1 211 0
 342 0012 0021     		movs	r1, #0
 343 0014 5048     		ldr	r0, .L24
 344 0016 FFF7FEFF 		bl	sdStart
 345              	.LVL37:
 346              		.loc 1 212 0
 347 001a 0421     		movs	r1, #4
 348 001c 40F28232 		movw	r2, #898
 349 0020 2046     		mov	r0, r4
 350 0022 FFF7FEFF 		bl	_pal_lld_setgroupmode
 351              	.LVL38:
 352              		.loc 1 213 0
 353 0026 0821     		movs	r1, #8
 354 0028 40F28232 		movw	r2, #898
 355 002c 2046     		mov	r0, r4
 356 002e FFF7FEFF 		bl	_pal_lld_setgroupmode
 357              	.LVL39:
 358              		.loc 1 220 0
 359 0032 2369     		ldr	r3, [r4, #16]
 360 0034 DA07     		lsls	r2, r3, #31
 361 0036 00F18B80 		bmi	.L23
 362              	.L14:
 363              		.loc 1 231 0
 364 003a 4FF48064 		mov	r4, #1024
 365 003e C4F20204 		movt	r4, 16386
 366 0042 4FF48055 		mov	r5, #4096
 367              		.loc 1 230 0
 368 0046 4548     		ldr	r0, .L24+4
 369 0048 4549     		ldr	r1, .L24+8
 370 004a FFF7FEFF 		bl	spiStart
 371              	.LVL40:
 372              		.loc 1 232 0
 373 004e 2046     		mov	r0, r4
 374 0050 2946     		mov	r1, r5
 375 0052 1922     		movs	r2, #25
 376              		.loc 1 231 0
 377 0054 2583     		strh	r5, [r4, #24]	@ movhi
 378              		.loc 1 232 0
 379 0056 FFF7FEFF 		bl	_pal_lld_setgroupmode
 380              	.LVL41:
 381              		.loc 1 234 0
 382 005a 2046     		mov	r0, r4
 383 005c 4FF40051 		mov	r1, #8192
 384 0060 40F29A22 		movw	r2, #666
 385 0064 FFF7FEFF 		bl	_pal_lld_setgroupmode
 386              	.LVL42:
 387              		.loc 1 236 0
 388 0068 2046     		mov	r0, r4
 389 006a 4FF48041 		mov	r1, #16384
 390 006e 40F28222 		movw	r2, #642
 391 0072 FFF7FEFF 		bl	_pal_lld_setgroupmode
 392              	.LVL43:
 393              		.loc 1 237 0
 394 0076 40F29A22 		movw	r2, #666
ARM GAS  /var/folders/5n/p_75w94d66l9ssrldxqdhh700000gn/T//ccaLJV1U.s 			page 8


 395 007a 2046     		mov	r0, r4
 396 007c 4FF40041 		mov	r1, #32768
 397 0080 FFF7FEFF 		bl	_pal_lld_setgroupmode
 398              	.LVL44:
 399              		.loc 1 244 0
 400 0084 3748     		ldr	r0, .L24+12
 401 0086 0021     		movs	r1, #0
 402 0088 FFF7FEFF 		bl	adcStart
 403              	.LVL45:
 404              		.loc 1 245 0
 405 008c FFF7FEFF 		bl	adcSTM32EnableTSVREFE
 406              	.LVL46:
 407              		.loc 1 246 0
 408 0090 4FF40060 		mov	r0, #2048
 409 0094 0322     		movs	r2, #3
 410 0096 C4F20200 		movt	r0, 16386
 411 009a 0221     		movs	r1, #2
 412 009c FFF7FEFF 		bl	_pal_lld_setgroupmode
 413              	.LVL47:
 414              		.loc 1 251 0
 415 00a0 3148     		ldr	r0, .L24+16
 416 00a2 3249     		ldr	r1, .L24+20
 417 00a4 FFF7FEFF 		bl	pwmStart
 418              	.LVL48:
 419              		.loc 1 252 0
 420 00a8 4FF44060 		mov	r0, #3072
 421 00ac C4F20200 		movt	r0, 16386
 422 00b0 2946     		mov	r1, r5
 423 00b2 4FF48172 		mov	r2, #258
 424 00b6 FFF7FEFF 		bl	_pal_lld_setgroupmode
 425              	.LVL49:
 426              		.loc 1 253 0
 427 00ba 4FF44060 		mov	r0, #3072
 428              		.loc 1 258 0
 429 00be 0024     		movs	r4, #0
 430              		.loc 1 253 0
 431 00c0 C4F20200 		movt	r0, 16386
 432 00c4 4FF40041 		mov	r1, #32768
 433 00c8 4FF48172 		mov	r2, #258
 434 00cc FFF7FEFF 		bl	_pal_lld_setgroupmode
 435              	.LVL50:
 436              		.loc 1 258 0
 437 00d0 274B     		ldr	r3, .L24+24
 438 00d2 0094     		str	r4, [sp, #0]
 439 00d4 4022     		movs	r2, #64
 440 00d6 4FF49871 		mov	r1, #304
 441 00da 2648     		ldr	r0, .L24+28
 442 00dc FFF7FEFF 		bl	chThdCreateStatic
 443              	.LVL51:
 444              		.loc 1 265 0
 445 00e0 2548     		ldr	r0, .L24+32
 446 00e2 2649     		ldr	r1, .L24+36
 447 00e4 FFF7FEFF 		bl	spiStart
 448              	.LVL52:
 449              		.loc 1 266 0
 450 00e8 2348     		ldr	r0, .L24+32
 451 00ea 2021     		movs	r1, #32
ARM GAS  /var/folders/5n/p_75w94d66l9ssrldxqdhh700000gn/T//ccaLJV1U.s 			page 9


 452 00ec 4322     		movs	r2, #67
 453 00ee FFF7FEFF 		bl	lis302dlWriteRegister
 454              	.LVL53:
 455              		.loc 1 267 0
 456 00f2 2148     		ldr	r0, .L24+32
 457 00f4 2121     		movs	r1, #33
 458 00f6 2246     		mov	r2, r4
 459 00f8 FFF7FEFF 		bl	lis302dlWriteRegister
 460              	.LVL54:
 461              	.LBB19:
 462              		.loc 1 279 0
 463 00fc 2646     		mov	r6, r4
 464              	.LBE19:
 465              		.loc 1 268 0
 466 00fe 1E48     		ldr	r0, .L24+32
 467 0100 2221     		movs	r1, #34
 468 0102 2246     		mov	r2, r4
 469 0104 FFF7FEFF 		bl	lis302dlWriteRegister
 470              	.LVL55:
 471              	.LBB20:
 472              		.loc 1 279 0
 473 0108 C4F20206 		movt	r6, 16386
 474 010c 19E0     		b	.L16
 475              	.L15:
 476              		.loc 1 282 0
 477 010e 2921     		movs	r1, #41
 478 0110 1948     		ldr	r0, .L24+32
 479 0112 FFF7FEFF 		bl	lis302dlReadRegister
 480              	.LVL56:
 481              		.loc 1 283 0
 482 0116 2B21     		movs	r1, #43
 483              		.loc 1 282 0
 484 0118 0546     		mov	r5, r0
 485              	.LVL57:
 486              		.loc 1 283 0
 487 011a 1748     		ldr	r0, .L24+32
 488              	.LVL58:
 489 011c FFF7FEFF 		bl	lis302dlReadRegister
 490              	.LVL59:
 491              		.loc 1 284 0
 492 0120 2D21     		movs	r1, #45
 493              		.loc 1 283 0
 494 0122 0446     		mov	r4, r0
 495              	.LVL60:
 496              		.loc 1 284 0
 497 0124 1448     		ldr	r0, .L24+32
 498              	.LVL61:
 499 0126 FFF7FEFF 		bl	lis302dlReadRegister
 500              	.LVL62:
 501              		.loc 1 285 0
 502 012a 40B2     		sxtb	r0, r0
 503 012c 0090     		str	r0, [sp, #0]
 504 012e 1449     		ldr	r1, .L24+40
 505 0130 0948     		ldr	r0, .L24
 506              	.LVL63:
 507 0132 6AB2     		sxtb	r2, r5
 508 0134 63B2     		sxtb	r3, r4
ARM GAS  /var/folders/5n/p_75w94d66l9ssrldxqdhh700000gn/T//ccaLJV1U.s 			page 10


 509 0136 FFF7FEFF 		bl	chprintf
 510              	.LVL64:
 511              		.loc 1 286 0
 512 013a 4FF4FA70 		mov	r0, #500
 513 013e FFF7FEFF 		bl	chThdSleep
 514              	.LVL65:
 515              	.L16:
 516              		.loc 1 279 0
 517 0142 3369     		ldr	r3, [r6, #16]
 518 0144 DB07     		lsls	r3, r3, #31
 519 0146 E2D5     		bpl	.L15
 520              		.loc 1 280 0
 521 0148 0348     		ldr	r0, .L24
 522 014a FFF7FEFF 		bl	TestThread
 523              	.LVL66:
 524 014e DEE7     		b	.L15
 525              	.L23:
 526              	.LBE20:
 527              		.loc 1 221 0
 528 0150 0148     		ldr	r0, .L24
 529 0152 FFF7FEFF 		bl	TestThread
 530              	.LVL67:
 531 0156 70E7     		b	.L14
 532              	.L25:
 533              		.align	2
 534              	.L24:
 535 0158 00000000 		.word	SD2
 536 015c 00000000 		.word	SPID2
 537 0160 00000000 		.word	.LANCHOR2
 538 0164 00000000 		.word	ADCD1
 539 0168 00000000 		.word	PWMD4
 540 016c 00000000 		.word	.LANCHOR3
 541 0170 00000000 		.word	Thread1
 542 0174 00000000 		.word	.LANCHOR4
 543 0178 00000000 		.word	SPID1
 544 017c 00000000 		.word	.LANCHOR5
 545 0180 08000000 		.word	.LC1
 546              		.cfi_endproc
 547              	.LFE121:
 548              		.size	main, .-main
 549 0184 AFF30080 		.section	.bss.waThread1,"aw",%nobits
 549      AFF30080 
 549      AFF30080 
 550              		.align	3
 551              		.set	.LANCHOR4,. + 0
 552              		.type	waThread1, %object
 553              		.size	waThread1, 304
 554              	waThread1:
 555 0000 00000000 		.space	304
 555      00000000 
 555      00000000 
 555      00000000 
 555      00000000 
 556              		.section	.data.pwmcfg,"aw",%progbits
 557              		.align	2
 558              		.set	.LANCHOR3,. + 0
 559              		.type	pwmcfg, %object
ARM GAS  /var/folders/5n/p_75w94d66l9ssrldxqdhh700000gn/T//ccaLJV1U.s 			page 11


 560              		.size	pwmcfg, 48
 561              	pwmcfg:
 562 0000 10270000 		.word	10000
 563 0004 1027     		.short	10000
 564 0006 0000     		.space	2
 565 0008 00000000 		.word	pwmpcb
 566 000c 01000000 		.word	1
 567 0010 00000000 		.word	0
 568 0014 00000000 		.word	0
 569 0018 00000000 		.word	0
 570 001c 00000000 		.word	0
 571 0020 00000000 		.word	0
 572 0024 01000000 		.word	1
 573 0028 00000000 		.word	0
 574 002c 0000     		.short	0
 575 002e 0000     		.space	2
 576              		.section	.rodata.spi1cfg,"a",%progbits
 577              		.align	2
 578              		.set	.LANCHOR5,. + 0
 579              		.type	spi1cfg, %object
 580              		.size	spi1cfg, 12
 581              	spi1cfg:
 582 0000 00000000 		.word	0
 583 0004 00100240 		.word	1073876992
 584 0008 0300     		.short	3
 585 000a 1B00     		.short	27
 586              		.section	.rodata.spi2cfg,"a",%progbits
 587              		.align	2
 588              		.set	.LANCHOR2,. + 0
 589              		.type	spi2cfg, %object
 590              		.size	spi2cfg, 12
 591              	spi2cfg:
 592 0000 00000000 		.word	spicb
 593 0004 00040240 		.word	1073873920
 594 0008 0C00     		.short	12
 595 000a 0008     		.short	2048
 596              		.section	.rodata.str1.4,"aMS",%progbits,1
 597              		.align	2
 598              	.LC0:
 599 0000 626C696E 		.ascii	"blinker\000"
 599      6B657200 
 600              	.LC1:
 601 0008 25642C20 		.ascii	"%d, %d, %d\015\012\000"
 601      25642C20 
 601      25640D0A 
 601      00
 602 0015 000000   		.section	.rodata.adcgrpcfg,"a",%progbits
 603              		.align	2
 604              		.set	.LANCHOR0,. + 0
 605              		.type	adcgrpcfg, %object
 606              		.size	adcgrpcfg, 44
 607              	adcgrpcfg:
 608 0000 00000000 		.word	0
 609 0004 0200     		.short	2
 610 0006 0000     		.space	2
 611 0008 00000000 		.word	adccb
 612 000c 00000000 		.word	0
ARM GAS  /var/folders/5n/p_75w94d66l9ssrldxqdhh700000gn/T//ccaLJV1U.s 			page 12


 613 0010 00000000 		.word	0
 614 0014 00000040 		.word	1073741824
 615 0018 18001800 		.word	1572888
 616 001c 00000000 		.word	0
 617 0020 00001000 		.word	1048576
 618 0024 00000000 		.word	0
 619 0028 70010000 		.word	368
 620              		.section	.bss.samples,"aw",%nobits
 621              		.align	2
 622              		.set	.LANCHOR1,. + 0
 623              		.type	samples, %object
 624              		.size	samples, 16
 625              	samples:
 626 0000 00000000 		.space	16
 626      00000000 
 626      00000000 
 626      00000000 
 627              		.text
 628              	.Letext0:
 629              		.file 2 "/usr/local/cross/lib/gcc/arm-none-eabi/4.7.1/include/stddef.h"
 630              		.file 3 "/usr/local/cross/lib/gcc/arm-none-eabi/4.7.1/../../../../arm-none-eabi/include/stdint.h"
 631              		.file 4 "../../os/ports/GCC/ARMCMx/chtypes.h"
 632              		.file 5 "../../os/kernel/include/chlists.h"
 633              		.file 6 "../../os/kernel/include/chthreads.h"
 634              		.file 7 "../../os/ports/GCC/ARMCMx/chcore_v7m.h"
 635              		.file 8 "../../os/kernel/include/chschd.h"
 636              		.file 9 "../../os/kernel/include/chmtx.h"
 637              		.file 10 "../../os/kernel/include/chevents.h"
 638              		.file 11 "../../os/kernel/include/chqueues.h"
 639              		.file 12 "../../os/kernel/include/chioch.h"
 640              		.file 13 "../../os/hal/platforms/STM32F4xx/stm32f4xx.h"
 641              		.file 14 "../../os/hal/platforms/STM32/stm32.h"
 642              		.file 15 "../../os/hal/platforms/STM32F4xx/stm32_dma.h"
 643              		.file 16 "../../os/hal/platforms/STM32/GPIOv2/pal_lld.h"
 644              		.file 17 "../../os/hal/include/adc.h"
 645              		.file 18 "../../os/hal/platforms/STM32F4xx/adc_lld.h"
 646              		.file 19 "../../os/hal/include/pwm.h"
 647              		.file 20 "../../os/hal/platforms/STM32/pwm_lld.h"
 648              		.file 21 "../../os/hal/include/serial.h"
 649              		.file 22 "../../os/hal/platforms/STM32/serial_lld.h"
 650              		.file 23 "../../os/hal/include/spi.h"
 651              		.file 24 "../../os/hal/platforms/STM32/spi_lld.h"
 652              		.file 25 "../../os/ports/common/ARMCMx/CMSIS/include/core_cm4.h"
 653              		.file 26 "../../os/various/chprintf.h"
 654              		.file 27 "../../os/various/lis302dl.h"
 655              		.file 28 "../../test/test.h"
 656              		.file 29 "../../os/hal/include/hal.h"
 657              		.file 30 "../../os/kernel/include/chsys.h"