Archive member included because of file (symbol)

lib/lib.a(com_config.o)       main.o (COM_Configuration)
lib/lib.a(boardinit.o)        main.o (BoardInit)
lib/lib.a(misc.o)             lib/lib.a(boardinit.o) (NVIC_SetVectorTable)
lib/lib.a(stm32f10x_gpio.o)   main.o (GPIO_Init)
lib/lib.a(stm32f10x_rcc.o)    lib/lib.a(boardinit.o) (RCC_PLLCmd)
lib/lib.a(hw_config.o)        main.o (VCP_PrintFormatted)
lib/lib.a(usb_config.o)       lib/lib.a(com_config.o) (USB_Configuration)
lib/lib.a(usb_desc.o)         lib/lib.a(hw_config.o) (Virtual_Com_Port_StringSerial)
lib/lib.a(usb_endp.o)         lib/lib.a(hw_config.o) (buffer_out)
lib/lib.a(usb_istr.o)         lib/lib.a(com_config.o) (USB_Istr)
lib/lib.a(usb_prop.o)         lib/lib.a(usb_istr.o) (Device_Property)
lib/lib.a(usb_pwr.o)          lib/lib.a(hw_config.o) (bDeviceState)
lib/lib.a(usb_core.o)         lib/lib.a(usb_prop.o) (Standard_GetDescriptorData)
lib/lib.a(usb_init.o)         lib/lib.a(usb_prop.o) (pInformation)
lib/lib.a(usb_int.o)          lib/lib.a(usb_core.o) (SaveRState)
lib/lib.a(usb_mem.o)          lib/lib.a(usb_core.o) (UserToPMABufferCopy)
lib/lib.a(usb_regs.o)         lib/lib.a(usb_prop.o) (SetBTABLE)
lib/lib.a(usb_sil.o)          lib/lib.a(usb_prop.o) (USB_SIL_Init)
lib/lib.a(toascii.o)          lib/lib.a(hw_config.o) (Uint32_tToDecimal)

Allocating common symbols
Common symbol       size              file

SaveRState          0x2               lib/lib.a(usb_int.o)
HSEStartUpStatus    0x1               lib/lib.a(hw_config.o)
SaveState           0x2               lib/lib.a(usb_init.o)
wIstr               0x2               lib/lib.a(usb_istr.o)
pProperty           0x4               lib/lib.a(usb_init.o)
EPindex             0x1               lib/lib.a(usb_init.o)
SaveTState          0x2               lib/lib.a(usb_int.o)
Device_Info         0x1c              lib/lib.a(usb_init.o)
pUser_Standard_Requests
                    0x4               lib/lib.a(usb_init.o)
buffer_in           0x40              lib/lib.a(hw_config.o)
StatusInfo          0x2               lib/lib.a(usb_core.o)
pInformation        0x4               lib/lib.a(usb_init.o)
ResumeS             0x2               lib/lib.a(usb_pwr.o)
USART_InitStructure
                    0x10              lib/lib.a(hw_config.o)
buffer_out          0x40              lib/lib.a(usb_endp.o)
wInterrupt_Mask     0x2               lib/lib.a(usb_init.o)

Discarded input sections

 .text          0x00000000        0x0 c:/program files/codesourcery/sourcery g++ lite/bin/../lib/gcc/arm-none-eabi/4.4.1/thumb2/crti.o
 .data          0x00000000        0x0 c:/program files/codesourcery/sourcery g++ lite/bin/../lib/gcc/arm-none-eabi/4.4.1/thumb2/crti.o
 .bss           0x00000000        0x0 c:/program files/codesourcery/sourcery g++ lite/bin/../lib/gcc/arm-none-eabi/4.4.1/thumb2/crti.o
 .init          0x00000000        0x4 c:/program files/codesourcery/sourcery g++ lite/bin/../lib/gcc/arm-none-eabi/4.4.1/thumb2/crti.o
 .fini          0x00000000        0x4 c:/program files/codesourcery/sourcery g++ lite/bin/../lib/gcc/arm-none-eabi/4.4.1/thumb2/crti.o
 .text          0x00000000       0x30 c:/program files/codesourcery/sourcery g++ lite/bin/../lib/gcc/arm-none-eabi/4.4.1/thumb2/crtbegin.o
 .data          0x00000000        0x4 c:/program files/codesourcery/sourcery g++ lite/bin/../lib/gcc/arm-none-eabi/4.4.1/thumb2/crtbegin.o
 .bss           0x00000000        0x1 c:/program files/codesourcery/sourcery g++ lite/bin/../lib/gcc/arm-none-eabi/4.4.1/thumb2/crtbegin.o
 .init_array    0x00000000        0x4 c:/program files/codesourcery/sourcery g++ lite/bin/../lib/gcc/arm-none-eabi/4.4.1/thumb2/crtbegin.o
 .fini_array    0x00000000        0x4 c:/program files/codesourcery/sourcery g++ lite/bin/../lib/gcc/arm-none-eabi/4.4.1/thumb2/crtbegin.o
 .jcr           0x00000000        0x0 c:/program files/codesourcery/sourcery g++ lite/bin/../lib/gcc/arm-none-eabi/4.4.1/thumb2/crtbegin.o
 .data          0x00000000        0x0 main.o
 .bss           0x00000000        0x0 main.o
 .data          0x00000000        0x0 stm32f10x_it.o
 .bss           0x00000000        0x0 stm32f10x_it.o
 .text          0x00000000       0x14 lib/Startup/startup_stm32f10x_md_nortos.o
 .data          0x00000000        0x0 lib/Startup/startup_stm32f10x_md_nortos.o
 .bss           0x00000000        0x0 lib/Startup/startup_stm32f10x_md_nortos.o
 .data          0x00000000        0x0 lib/lib.a(com_config.o)
 .bss           0x00000000        0x0 lib/lib.a(com_config.o)
 .bss           0x00000000        0x0 lib/lib.a(boardinit.o)
 .data          0x00000000        0x0 lib/lib.a(misc.o)
 .bss           0x00000000        0x0 lib/lib.a(misc.o)
 .data          0x00000000        0x0 lib/lib.a(stm32f10x_gpio.o)
 .bss           0x00000000        0x0 lib/lib.a(stm32f10x_gpio.o)
 .bss           0x00000000        0x0 lib/lib.a(stm32f10x_rcc.o)
 .data          0x00000000        0x0 lib/lib.a(hw_config.o)
 .data          0x00000000        0x0 lib/lib.a(usb_config.o)
 .bss           0x00000000        0x0 lib/lib.a(usb_config.o)
 .text          0x00000000        0x0 lib/lib.a(usb_desc.o)
 .bss           0x00000000        0x0 lib/lib.a(usb_desc.o)
 .data          0x00000000        0x0 lib/lib.a(usb_endp.o)
 .data          0x00000000        0x1 lib/lib.a(usb_pwr.o)
 .data          0x00000000        0x0 lib/lib.a(usb_core.o)
 .data          0x00000000        0x0 lib/lib.a(usb_init.o)
 .bss           0x00000000        0x0 lib/lib.a(usb_init.o)
 .data          0x00000000        0x0 lib/lib.a(usb_int.o)
 .bss           0x00000000        0x0 lib/lib.a(usb_int.o)
 .data          0x00000000        0x0 lib/lib.a(usb_mem.o)
 .bss           0x00000000        0x0 lib/lib.a(usb_mem.o)
 .data          0x00000000        0x0 lib/lib.a(usb_regs.o)
 .bss           0x00000000        0x0 lib/lib.a(usb_regs.o)
 .data          0x00000000        0x0 lib/lib.a(usb_sil.o)
 .bss           0x00000000        0x0 lib/lib.a(usb_sil.o)
 .data          0x00000000        0x0 lib/lib.a(toascii.o)
 .bss           0x00000000        0x0 lib/lib.a(toascii.o)
 .text          0x00000000        0x0 c:/program files/codesourcery/sourcery g++ lite/bin/../lib/gcc/arm-none-eabi/4.4.1/thumb2/crtend.o
 .data          0x00000000        0x0 c:/program files/codesourcery/sourcery g++ lite/bin/../lib/gcc/arm-none-eabi/4.4.1/thumb2/crtend.o
 .bss           0x00000000        0x0 c:/program files/codesourcery/sourcery g++ lite/bin/../lib/gcc/arm-none-eabi/4.4.1/thumb2/crtend.o
 .jcr           0x00000000        0x4 c:/program files/codesourcery/sourcery g++ lite/bin/../lib/gcc/arm-none-eabi/4.4.1/thumb2/crtend.o
 .text          0x00000000        0x0 c:/program files/codesourcery/sourcery g++ lite/bin/../lib/gcc/arm-none-eabi/4.4.1/thumb2/crtn.o
 .data          0x00000000        0x0 c:/program files/codesourcery/sourcery g++ lite/bin/../lib/gcc/arm-none-eabi/4.4.1/thumb2/crtn.o
 .bss           0x00000000        0x0 c:/program files/codesourcery/sourcery g++ lite/bin/../lib/gcc/arm-none-eabi/4.4.1/thumb2/crtn.o
 .init          0x00000000        0x8 c:/program files/codesourcery/sourcery g++ lite/bin/../lib/gcc/arm-none-eabi/4.4.1/thumb2/crtn.o
 .fini          0x00000000        0x8 c:/program files/codesourcery/sourcery g++ lite/bin/../lib/gcc/arm-none-eabi/4.4.1/thumb2/crtn.o

Memory Configuration

Name             Origin             Length             Attributes
RAM              0x20000000         0x00005000         xrw
FLASH            0x08003000         0x0001d000         xr
FLASHB1          0x00000000         0x00000000         xr
EXTMEMB0         0x00000000         0x00000000         xr
EXTMEMB1         0x00000000         0x00000000         xr
EXTMEMB2         0x00000000         0x00000000         xr
EXTMEMB3         0x00000000         0x00000000         xr
*default*        0x00000000         0xffffffff

Linker script and memory map

LOAD c:/program files/codesourcery/sourcery g++ lite/bin/../lib/gcc/arm-none-eabi/4.4.1/thumb2/crti.o
LOAD c:/program files/codesourcery/sourcery g++ lite/bin/../lib/gcc/arm-none-eabi/4.4.1/thumb2/crtbegin.o
LOAD main.o
LOAD stm32f10x_it.o
LOAD lib/Startup/startup_stm32f10x_md_nortos.o
LOAD lib/lib.a
START GROUP
LOAD c:/program files/codesourcery/sourcery g++ lite/bin/../lib/gcc/arm-none-eabi/4.4.1/thumb2\libgcc.a
LOAD c:/program files/codesourcery/sourcery g++ lite/bin/../lib/gcc/arm-none-eabi/4.4.1/../../../../arm-none-eabi/lib/thumb2\libc.a
END GROUP
LOAD c:/program files/codesourcery/sourcery g++ lite/bin/../lib/gcc/arm-none-eabi/4.4.1/thumb2/crtend.o
LOAD c:/program files/codesourcery/sourcery g++ lite/bin/../lib/gcc/arm-none-eabi/4.4.1/thumb2/crtn.o
                0x00000400                __Stack_Size = 0x400
                0x00000400                PROVIDE (_Stack_Size, __Stack_Size)
                0x20004c00                __Stack_Init = (_estack - __Stack_Size)
                0x20004c00                PROVIDE (_Stack_Init, __Stack_Init)
                0x00000800                _Minimum_Stack_Size = 0x800
                0x20005000                _estack = 0x20005000

.isr_vector     0x08003000      0x10c
                0x08003000                . = ALIGN (0x4)
 *(.isr_vector)
 .isr_vector    0x08003000      0x10c lib/Startup/startup_stm32f10x_md_nortos.o
                0x08003000                g_pfnVectors
                0x0800310c                . = ALIGN (0x4)

.flashtext      0x0800310c        0x0
                0x0800310c                . = ALIGN (0x4)
 *(.flashtext)
                0x0800310c                . = ALIGN (0x4)

.text           0x0800310c     0x60f0
                0x0800310c                . = ALIGN (0x4)
 *(.text)
 .text          0x0800310c      0x1bc main.o
                0x0800310c                main
                0x08003264                GPIO_Configuration
                0x080032a4                Delay
 .text          0x080032c8       0x5c stm32f10x_it.o
                0x080032c8                NMI_Handler
                0x080032d4                HardFault_Handler
                0x080032dc                MemManage_Handler
                0x080032e4                BusFault_Handler
                0x080032ec                UsageFault_Handler
                0x080032f4                SVC_Handler
                0x08003300                DebugMon_Handler
                0x0800330c                PendSV_Handler
                0x08003318                SysTick_Handler
 .text          0x08003324       0x18 lib/lib.a(com_config.o)
                0x08003324                COM_Configuration
                0x08003330                USB_LP_CAN1_RX0_IRQHandler
 .text          0x0800333c      0x5a0 lib/lib.a(boardinit.o)
                0x0800333c                SystemInit
                0x080033d8                SystemCoreClockUpdate
                0x080036d4                BoardInit
                0x080036f4                Remap_JTAG
                0x08003718                Use_12MHz_Xtal
 .text          0x080038dc      0x1e8 lib/lib.a(misc.o)
                0x080038dc                NVIC_PriorityGroupConfig
                0x08003904                NVIC_Init
                0x080039f0                NVIC_SetVectorTable
                0x08003a20                NVIC_SystemLPConfig
                0x08003a78                SysTick_CLKSourceConfig
 .text          0x08003ac4      0x728 lib/lib.a(stm32f10x_gpio.o)
                0x08003ac4                GPIO_DeInit
                0x08003bec                GPIO_AFIODeInit
                0x08003c0c                GPIO_Init
                0x08003dcc                GPIO_StructInit
                0x08003df8                GPIO_ReadInputDataBit
                0x08003e34                GPIO_ReadInputData
                0x08003e50                GPIO_ReadOutputDataBit
                0x08003e8c                GPIO_ReadOutputData
                0x08003ea8                GPIO_SetBits
                0x08003ec4                GPIO_ResetBits
                0x08003ee0                GPIO_WriteBit
                0x08003f10                GPIO_Write
                0x08003f2c                GPIO_PinLockConfig
                0x08003f70                GPIO_EventOutputConfig
                0x08003fd0                GPIO_EventOutputCmd
                0x08003ff0                GPIO_PinRemapConfig
                0x08004114                GPIO_EXTILineConfig
                0x080041cc                GPIO_ETH_MediaInterfaceConfig
 .text          0x080041ec      0xa0c lib/lib.a(stm32f10x_rcc.o)
                0x080041ec                RCC_DeInit
                0x08004288                RCC_HSEConfig
                0x0800430c                RCC_WaitForHSEStartUp
                0x08004370                RCC_AdjustHSICalibrationValue
                0x080043b8                RCC_HSICmd
                0x080043d8                RCC_PLLConfig
                0x08004424                RCC_PLLCmd
                0x08004444                RCC_SYSCLKConfig
                0x08004488                RCC_GetSYSCLKSource
                0x080044a4                RCC_HCLKConfig
                0x080044e8                RCC_PCLK1Config
                0x0800452c                RCC_PCLK2Config
                0x08004574                RCC_ITConfig
                0x080045d8                RCC_USBCLKConfig
                0x080045f8                RCC_ADCCLKConfig
                0x0800463c                RCC_LSEConfig
                0x08004698                RCC_LSICmd
                0x080046b8                RCC_RTCCLKConfig
                0x080046e4                RCC_RTCCLKCmd
                0x08004704                RCC_GetClocksFreq
                0x080048cc                RCC_AHBPeriphClockCmd
                0x08004924                RCC_APB2PeriphClockCmd
                0x0800497c                RCC_APB1PeriphClockCmd
                0x080049d4                RCC_APB2PeriphResetCmd
                0x08004a2c                RCC_APB1PeriphResetCmd
                0x08004a84                RCC_BackupResetCmd
                0x08004aa4                RCC_ClockSecuritySystemCmd
                0x08004ac4                RCC_MCOConfig
                0x08004ae4                RCC_GetFlagStatus
                0x08004b74                RCC_ClearFlag
                0x08004b98                RCC_GetITStatus
                0x08004bd8                RCC_ClearITPendingBit
 .text          0x08004bf8      0x820 lib/lib.a(hw_config.o)
                0x08004bf8                Set_System
                0x08004c38                Set_USBClock
                0x08004c54                Enter_LowPowerMode
                0x08004c6c                Leave_LowPowerMode
                0x08004cac                USB_Interrupts_Config
                0x08004cfc                USB_Cable_Config
                0x08004d38                Get_SerialNum
                0x08004e58                VCP_PrintChar
                0x08004ecc                VCP_PrintString
                0x08004efc                VCP_PrintDecimal
                0x08005068                VCP_PrintUnsignedDecimal
                0x0800509c                VCP_PrintHexaecimal
                0x080050cc                VCP_PrintBinary
                0x080050fc                VCP_PrintFormatted
                0x08005394                VCP_ReceiveData
 .text          0x08005418       0x18 lib/lib.a(usb_config.o)
                0x08005418                USB_Configuration
 .text          0x08005430       0x44 lib/lib.a(usb_endp.o)
                0x08005430                EP1_IN_Callback
                0x08005448                EP3_OUT_Callback
 .text          0x08005474       0xcc lib/lib.a(usb_istr.o)
                0x08005474                USB_Istr
 .text          0x08005540      0x438 lib/lib.a(usb_prop.o)
                0x08005540                Virtual_Com_Port_init
                0x08005570                Virtual_Com_Port_Reset
                0x080056bc                Virtual_Com_Port_SetConfiguration
                0x080056ec                Virtual_Com_Port_SetDeviceAddress
                0x08005704                Virtual_Com_Port_Status_In
                0x0800572c                Virtual_Com_Port_Status_Out
                0x08005738                Virtual_Com_Port_Data_Setup
                0x080057e4                Virtual_Com_Port_NoData_Setup
                0x0800582c                Virtual_Com_Port_GetDeviceDescriptor
                0x08005854                Virtual_Com_Port_GetConfigDescriptor
                0x0800587c                Virtual_Com_Port_GetStringDescriptor
                0x080058c8                Virtual_Com_Port_Get_Interface_Setting
                0x08005900                Virtual_Com_Port_GetLineCoding
                0x0800593c                Virtual_Com_Port_SetLineCoding
 .text          0x08005978      0x2dc lib/lib.a(usb_pwr.o)
                0x08005978                PowerOn
                0x080059f8                PowerOff
                0x08005a38                Suspend
                0x08005a8c                Resume_Init
                0x08005acc                Resume
 .text          0x08005c54     0x1488 lib/lib.a(usb_core.o)
                0x08005c54                Standard_GetConfiguration
                0x08005ca0                Standard_SetConfiguration
                0x08005d14                Standard_GetInterface
                0x08005d60                Standard_SetInterface
                0x08005e28                Standard_GetStatus
                0x08005fec                Standard_ClearFeature
                0x0800622c                Standard_SetEndPointFeature
                0x08006384                Standard_SetDeviceFeature
                0x080063bc                Standard_GetDescriptorData
                0x08006d74                Setup0_Process
                0x08006e94                In0_Process
                0x08006f50                Out0_Process
                0x08006fdc                Post0_Process
                0x0800703c                SetDeviceAddress
                0x080070d0                NOP_Process
 .text          0x080070dc       0x5c lib/lib.a(usb_init.o)
                0x080070dc                USB_Init
 .text          0x08007138      0x5ac lib/lib.a(usb_int.o)
                0x08007138                CTR_LP
                0x0800758c                CTR_HP
 .text          0x080076e4       0xf8 lib/lib.a(usb_mem.o)
                0x080076e4                UserToPMABufferCopy
                0x08007770                PMAToUserBufferCopy
 .text          0x080077dc     0x12f0 lib/lib.a(usb_regs.o)
                0x080077dc                SetCNTR
                0x080077fc                GetCNTR
                0x08007814                SetISTR
                0x08007834                GetISTR
                0x0800784c                GetFNR
                0x08007864                SetDADDR
                0x08007884                GetDADDR
                0x0800789c                SetBTABLE
                0x080078c8                GetBTABLE
                0x080078e0                SetENDPOINT
                0x0800790c                GetENDPOINT
                0x08007934                SetEPType
                0x08007988                GetEPType
                0x080079b4                SetEPTxStatus
                0x08007a2c                SetEPRxStatus
                0x08007aa4                SetDouBleBuffEPStall
                0x08007b00                GetEPTxStatus
                0x08007b2c                GetEPRxStatus
                0x08007b58                SetEPTxValid
                0x08007bb8                SetEPRxValid
                0x08007c18                SetEP_KIND
                0x08007c6c                ClearEP_KIND
                0x08007cc8                Clear_Status_Out
                0x08007d24                Set_Status_Out
                0x08007d78                SetEPDoubleBuff
                0x08007dcc                ClearEPDoubleBuff
                0x08007e28                GetTxStallStatus
                0x08007e5c                GetRxStallStatus
                0x08007e94                ClearEP_CTR_RX
                0x08007ed8                ClearEP_CTR_TX
                0x08007f1c                ToggleDTOG_RX
                0x08007f68                ToggleDTOG_TX
                0x08007fb4                ClearDTOG_RX
                0x0800801c                ClearDTOG_TX
                0x08008084                SetEPAddress
                0x080080dc                GetEPAddress
                0x08008108                SetEPTxAddr
                0x08008150                SetEPRxAddr
                0x0800819c                GetEPTxAddr
                0x080081d8                GetEPRxAddr
                0x08008218                SetEPTxCount
                0x08008258                SetEPCountRxReg
                0x080082c8                SetEPRxCount
                0x08008360                GetEPTxCount
                0x080083a8                GetEPRxCount
                0x080083f0                SetEPDblBuffAddr
                0x08008470                SetEPDblBuf0Addr
                0x080084b8                SetEPDblBuf1Addr
                0x08008504                GetEPDblBuf0Addr
                0x08008540                GetEPDblBuf1Addr
                0x08008580                SetEPDblBuffCount
                0x08008708                SetEPDblBuf0Count
                0x080087dc                SetEPDblBuf1Count
                0x080088b0                GetEPDblBuf0Count
                0x080088f8                GetEPDblBuf1Count
                0x08008940                GetEPDblBufDir
                0x080089cc                FreeUserBuffer
                0x08008a64                ToWord
                0x08008a94                ByteSwap
 .text          0x08008acc       0xd8 lib/lib.a(usb_sil.o)
                0x08008acc                USB_SIL_Init
                0x08008b0c                USB_SIL_Write
                0x08008b58                USB_SIL_Read
 .text          0x08008ba4      0x4ac lib/lib.a(toascii.o)
                0x08008ba4                To_Binary
                0x08008c08                To_Hexadecimal
                0x08008c88                To_Decimal
                0x08008d74                Uint32_tToDecimal
                0x08008f3c                Uint32_tToHexadecimal
                0x08008fec                Uint32_tToBinary
 *(.text.*)
 .text.Reset_Handler
                0x08009050       0x40 lib/Startup/startup_stm32f10x_md_nortos.o
                0x08009050                Reset_Handler
 .text.Default_Handler
                0x08009090        0x2 lib/Startup/startup_stm32f10x_md_nortos.o
                0x08009090                EXTI2_IRQHandler
                0x08009090                TIM1_CC_IRQHandler
                0x08009090                PVD_IRQHandler
                0x08009090                EXTI3_IRQHandler
                0x08009090                EXTI0_IRQHandler
                0x08009090                I2C2_EV_IRQHandler
                0x08009090                ADC1_2_IRQHandler
                0x08009090                SPI1_IRQHandler
                0x08009090                TAMPER_IRQHandler
                0x08009090                DMA1_Channel4_IRQHandler
                0x08009090                USART3_IRQHandler
                0x08009090                RTC_IRQHandler
                0x08009090                DMA1_Channel7_IRQHandler
                0x08009090                CAN1_RX1_IRQHandler
                0x08009090                TIM4_IRQHandler
                0x08009090                I2C1_EV_IRQHandler
                0x08009090                DMA1_Channel6_IRQHandler
                0x08009090                TIM3_IRQHandler
                0x08009090                RCC_IRQHandler
                0x08009090                TIM1_TRG_COM_IRQHandler
                0x08009090                DMA1_Channel1_IRQHandler
                0x08009090                Default_Handler
                0x08009090                EXTI15_10_IRQHandler
                0x08009090                EXTI9_5_IRQHandler
                0x08009090                SPI2_IRQHandler
                0x08009090                DMA1_Channel5_IRQHandler
                0x08009090                EXTI4_IRQHandler
                0x08009090                USB_HP_CAN1_TX_IRQHandler
                0x08009090                DMA1_Channel3_IRQHandler
                0x08009090                TIM1_UP_IRQHandler
                0x08009090                WWDG_IRQHandler
                0x08009090                TIM2_IRQHandler
                0x08009090                TIM1_BRK_IRQHandler
                0x08009090                EXTI1_IRQHandler
                0x08009090                RTCAlarm_IRQHandler
                0x08009090                USART2_IRQHandler
                0x08009090                I2C2_ER_IRQHandler
                0x08009090                DMA1_Channel2_IRQHandler
                0x08009090                CAN1_SCE_IRQHandler
                0x08009090                FLASH_IRQHandler
                0x08009090                USART1_IRQHandler
                0x08009090                I2C1_ER_IRQHandler
                0x08009090                USBWakeUp_IRQHandler
 *(.rodata)
 *fill*         0x08009092        0x2 00
 .rodata        0x08009094       0xb0 main.o
 .rodata        0x08009144       0xb8 lib/lib.a(usb_desc.o)
                0x08009144                Virtual_Com_Port_DeviceDescriptor
                0x08009158                Virtual_Com_Port_ConfigDescriptor
                0x0800919c                Virtual_Com_Port_StringLangID
                0x080091a0                Virtual_Com_Port_StringVendor
                0x080091c8                Virtual_Com_Port_StringProduct
 *(.rodata*)
 *(.glue_7)
 .glue_7        0x00000000        0x0 linker stubs
 *(.glue_7t)
 .glue_7t       0x00000000        0x0 linker stubs
                0x080091fc                . = ALIGN (0x4)
                0x080091fc                _etext = .
                0x080091fc                _sidata = _etext

.vfp11_veneer   0x080091fc        0x0
 .vfp11_veneer  0x00000000        0x0 linker stubs

.v4_bx          0x080091fc        0x0
 .v4_bx         0x00000000        0x0 linker stubs

.data           0x20000000      0x10c load address 0x080091fc
                0x20000000                . = ALIGN (0x4)
                0x20000000                _sdata = .
 *(.data)
 .data          0x20000000       0x14 lib/lib.a(boardinit.o)
                0x20000000                SystemCoreClock
                0x20000004                AHBPrescTable
 .data          0x20000014       0x14 lib/lib.a(stm32f10x_rcc.o)
 .data          0x20000028       0x1c lib/lib.a(usb_desc.o)
                0x20000028                Virtual_Com_Port_StringSerial
 .data          0x20000044       0x38 lib/lib.a(usb_istr.o)
                0x20000044                pEpInt_IN
                0x20000060                pEpInt_OUT
 .data          0x2000007c       0x90 lib/lib.a(usb_prop.o)
                0x2000007c                linecoding
                0x20000084                Device_Table
                0x20000088                Device_Property
                0x200000b8                User_Standard_Requests
                0x200000dc                Device_Descriptor
                0x200000e4                Config_Descriptor
                0x200000ec                String_Descriptor
 *(.data.*)
                0x2000010c                . = ALIGN (0x4)
                0x2000010c                _edata = .

.bss            0x2000010c       0xf0 load address 0x08009308
                0x2000010c                . = ALIGN (0x4)
                0x2000010c                _sbss = .
 *(.bss)
 .bss           0x2000010c        0x1 lib/lib.a(hw_config.o)
                0x2000010c                buffer_counter
 *fill*         0x2000010d        0x3 00
 .bss           0x20000110        0x8 lib/lib.a(usb_endp.o)
                0x20000110                count_out
                0x20000114                count_in
 .bss           0x20000118        0x1 lib/lib.a(usb_istr.o)
                0x20000118                bIntPackSOF
 .bss           0x20000119        0x1 lib/lib.a(usb_prop.o)
                0x20000119                Request
 *fill*         0x2000011a        0x2 00
 .bss           0x2000011c        0x4 lib/lib.a(usb_pwr.o)
                0x2000011c                bDeviceState
 .bss           0x20000120        0x1 lib/lib.a(usb_core.o)
                0x20000120                Data_Mul_MaxPacketSize
 *(COMMON)
 *fill*         0x20000121        0x3 00
 COMMON         0x20000124       0x54 lib/lib.a(hw_config.o)
                0x20000124                HSEStartUpStatus
                0x20000128                buffer_in
                0x20000168                USART_InitStructure
 COMMON         0x20000178       0x40 lib/lib.a(usb_endp.o)
                0x20000178                buffer_out
 COMMON         0x200001b8        0x2 lib/lib.a(usb_istr.o)
                0x200001b8                wIstr
 *fill*         0x200001ba        0x2 00
 COMMON         0x200001bc        0x2 lib/lib.a(usb_pwr.o)
                0x200001bc                ResumeS
 *fill*         0x200001be        0x2 00
 COMMON         0x200001c0        0x2 lib/lib.a(usb_core.o)
                0x200001c0                StatusInfo
 *fill*         0x200001c2        0x2 00
 COMMON         0x200001c4       0x32 lib/lib.a(usb_init.o)
                0x200001c4                SaveState
                0x200001c8                pProperty
                0x200001cc                EPindex
                0x200001d0                Device_Info
                0x200001ec                pUser_Standard_Requests
                0x200001f0                pInformation
                0x200001f4                wInterrupt_Mask
 COMMON         0x200001f6        0x4 lib/lib.a(usb_int.o)
                0x200001f6                SaveRState
                0x200001f8                SaveTState
                0x200001fc                . = ALIGN (0x4)
 *fill*         0x200001fa        0x2 00
                0x200001fc                _ebss = .
                0x200001fc                PROVIDE (end, _ebss)
                0x200001fc                PROVIDE (_end, _ebss)

._usrstack      0x200001fc      0x800 load address 0x080093f8
                0x200001fc                . = ALIGN (0x4)
                0x200001fc                _susrstack = .
                0x200009fc                . = (. + _Minimum_Stack_Size)
 *fill*         0x200001fc      0x800 00
                0x200009fc                . = ALIGN (0x4)
                0x200009fc                _eusrstack = .

.b1text
 *(.b1text)
 *(.b1rodata)
 *(.b1rodata*)

.eb0text
 *(.eb0text)
 *(.eb0rodata)
 *(.eb0rodata*)

.eb1text
 *(.eb1text)
 *(.eb1rodata)
 *(.eb1rodata*)

.eb2text
 *(.eb2text)
 *(.eb2rodata)
 *(.eb2rodata*)

.eb3text
 *(.eb3text)
 *(.eb3rodata)
 *(.eb3rodata*)

DISCARD
 libc.a(*)
 libm.a(*)
 libgcc.a(*)

.stab
 *(.stab)

.stabstr
 *(.stabstr)

.stab.excl
 *(.stab.excl)

.stab.exclstr
 *(.stab.exclstr)

.stab.index
 *(.stab.index)

.stab.indexstr
 *(.stab.indexstr)

.ARM.attributes
                0x00000000       0x25
 .ARM.attributes
                0x00000000       0x19 c:/program files/codesourcery/sourcery g++ lite/bin/../lib/gcc/arm-none-eabi/4.4.1/thumb2/crti.o
 .ARM.attributes
                0x00000019       0x29 c:/program files/codesourcery/sourcery g++ lite/bin/../lib/gcc/arm-none-eabi/4.4.1/thumb2/crtbegin.o
 .ARM.attributes
                0x00000042       0x31 main.o
 .ARM.attributes
                0x00000073       0x31 stm32f10x_it.o
 .ARM.attributes
                0x000000a4       0x21 lib/Startup/startup_stm32f10x_md_nortos.o
 .ARM.attributes
                0x000000c5       0x31 lib/lib.a(com_config.o)
 .ARM.attributes
                0x000000f6       0x31 lib/lib.a(boardinit.o)
 .ARM.attributes
                0x00000127       0x31 lib/lib.a(misc.o)
 .ARM.attributes
                0x00000158       0x31 lib/lib.a(stm32f10x_gpio.o)
 .ARM.attributes
                0x00000189       0x31 lib/lib.a(stm32f10x_rcc.o)
 .ARM.attributes
                0x000001ba       0x31 lib/lib.a(hw_config.o)
 .ARM.attributes
                0x000001eb       0x31 lib/lib.a(usb_config.o)
 .ARM.attributes
                0x0000021c       0x31 lib/lib.a(usb_desc.o)
 .ARM.attributes
                0x0000024d       0x31 lib/lib.a(usb_endp.o)
 .ARM.attributes
                0x0000027e       0x31 lib/lib.a(usb_istr.o)
 .ARM.attributes
                0x000002af       0x31 lib/lib.a(usb_prop.o)
 .ARM.attributes
                0x000002e0       0x31 lib/lib.a(usb_pwr.o)
 .ARM.attributes
                0x00000311       0x31 lib/lib.a(usb_core.o)
 .ARM.attributes
                0x00000342       0x31 lib/lib.a(usb_init.o)
 .ARM.attributes
                0x00000373       0x31 lib/lib.a(usb_int.o)
 .ARM.attributes
                0x000003a4       0x31 lib/lib.a(usb_mem.o)
 .ARM.attributes
                0x000003d5       0x31 lib/lib.a(usb_regs.o)
 .ARM.attributes
                0x00000406       0x31 lib/lib.a(usb_sil.o)
 .ARM.attributes
                0x00000437       0x31 lib/lib.a(toascii.o)
 .ARM.attributes
                0x00000468       0x29 c:/program files/codesourcery/sourcery g++ lite/bin/../lib/gcc/arm-none-eabi/4.4.1/thumb2/crtend.o
 .ARM.attributes
                0x00000491       0x19 c:/program files/codesourcery/sourcery g++ lite/bin/../lib/gcc/arm-none-eabi/4.4.1/thumb2/crtn.o

.comment        0x00000000      0x387
 *(.comment)
 .comment       0x00000000       0x2b main.o
 .comment       0x0000002b       0x2b stm32f10x_it.o
 .comment       0x00000056       0x2b lib/lib.a(com_config.o)
 .comment       0x00000081       0x2b lib/lib.a(boardinit.o)
 .comment       0x000000ac       0x2b lib/lib.a(misc.o)
 .comment       0x000000d7       0x2b lib/lib.a(stm32f10x_gpio.o)
 .comment       0x00000102       0x2b lib/lib.a(stm32f10x_rcc.o)
 .comment       0x0000012d       0x2b lib/lib.a(hw_config.o)
 .comment       0x00000158       0x2b lib/lib.a(usb_config.o)
 .comment       0x00000183       0x2b lib/lib.a(usb_desc.o)
 .comment       0x000001ae       0x2b lib/lib.a(usb_endp.o)
 .comment       0x000001d9       0x2b lib/lib.a(usb_istr.o)
 .comment       0x00000204       0x2b lib/lib.a(usb_prop.o)
 .comment       0x0000022f       0x2b lib/lib.a(usb_pwr.o)
 .comment       0x0000025a       0x2b lib/lib.a(usb_core.o)
 .comment       0x00000285       0x2b lib/lib.a(usb_init.o)
 .comment       0x000002b0       0x2b lib/lib.a(usb_int.o)
 .comment       0x000002db       0x2b lib/lib.a(usb_mem.o)
 .comment       0x00000306       0x2b lib/lib.a(usb_regs.o)
 .comment       0x00000331       0x2b lib/lib.a(usb_sil.o)
 .comment       0x0000035c       0x2b lib/lib.a(toascii.o)

.debug
 *(.debug)

.line
 *(.line)

.debug_srcinfo
 *(.debug_srcinfo)

.debug_sfnames
 *(.debug_sfnames)

.debug_aranges  0x00000000      0x2a8
 *(.debug_aranges)
 .debug_aranges
                0x00000000       0x20 main.o
 .debug_aranges
                0x00000020       0x20 stm32f10x_it.o
 .debug_aranges
                0x00000040       0x28 lib/Startup/startup_stm32f10x_md_nortos.o
 .debug_aranges
                0x00000068       0x20 lib/lib.a(com_config.o)
 .debug_aranges
                0x00000088       0x20 lib/lib.a(boardinit.o)
 .debug_aranges
                0x000000a8       0x20 lib/lib.a(misc.o)
 .debug_aranges
                0x000000c8       0x20 lib/lib.a(stm32f10x_gpio.o)
 .debug_aranges
                0x000000e8       0x20 lib/lib.a(stm32f10x_rcc.o)
 .debug_aranges
                0x00000108       0x20 lib/lib.a(hw_config.o)
 .debug_aranges
                0x00000128       0x20 lib/lib.a(usb_config.o)
 .debug_aranges
                0x00000148       0x20 lib/lib.a(usb_endp.o)
 .debug_aranges
                0x00000168       0x20 lib/lib.a(usb_istr.o)
 .debug_aranges
                0x00000188       0x20 lib/lib.a(usb_prop.o)
 .debug_aranges
                0x000001a8       0x20 lib/lib.a(usb_pwr.o)
 .debug_aranges
                0x000001c8       0x20 lib/lib.a(usb_core.o)
 .debug_aranges
                0x000001e8       0x20 lib/lib.a(usb_init.o)
 .debug_aranges
                0x00000208       0x20 lib/lib.a(usb_int.o)
 .debug_aranges
                0x00000228       0x20 lib/lib.a(usb_mem.o)
 .debug_aranges
                0x00000248       0x20 lib/lib.a(usb_regs.o)
 .debug_aranges
                0x00000268       0x20 lib/lib.a(usb_sil.o)
 .debug_aranges
                0x00000288       0x20 lib/lib.a(toascii.o)

.debug_pubnames
                0x00000000     0x14f7
 *(.debug_pubnames)
 .debug_pubnames
                0x00000000       0x3c main.o
 .debug_pubnames
                0x0000003c       0xc6 stm32f10x_it.o
 .debug_pubnames
                0x00000102       0x47 lib/lib.a(com_config.o)
 .debug_pubnames
                0x00000149       0x91 lib/lib.a(boardinit.o)
 .debug_pubnames
                0x000001da       0x89 lib/lib.a(misc.o)
 .debug_pubnames
                0x00000263      0x19d lib/lib.a(stm32f10x_gpio.o)
 .debug_pubnames
                0x00000400      0x2c4 lib/lib.a(stm32f10x_rcc.o)
 .debug_pubnames
                0x000006c4      0x19e lib/lib.a(hw_config.o)
 .debug_pubnames
                0x00000862       0x28 lib/lib.a(usb_config.o)
 .debug_pubnames
                0x0000088a       0xe7 lib/lib.a(usb_desc.o)
 .debug_pubnames
                0x00000971       0x65 lib/lib.a(usb_endp.o)
 .debug_pubnames
                0x000009d6       0x56 lib/lib.a(usb_istr.o)
 .debug_pubnames
                0x00000a2c      0x29d lib/lib.a(usb_prop.o)
 .debug_pubnames
                0x00000cc9       0x83 lib/lib.a(usb_pwr.o)
 .debug_pubnames
                0x00000d4c      0x1a5 lib/lib.a(usb_core.o)
 .debug_pubnames
                0x00000ef1       0x98 lib/lib.a(usb_init.o)
 .debug_pubnames
                0x00000f89       0x46 lib/lib.a(usb_int.o)
 .debug_pubnames
                0x00000fcf       0x42 lib/lib.a(usb_mem.o)
 .debug_pubnames
                0x00001011      0x419 lib/lib.a(usb_regs.o)
 .debug_pubnames
                0x0000142a       0x46 lib/lib.a(usb_sil.o)
 .debug_pubnames
                0x00001470       0x87 lib/lib.a(toascii.o)

.debug_info     0x00000000     0x5e74
 *(.debug_info .gnu.linkonce.wi.*)
 .debug_info    0x00000000      0x28c main.o
 .debug_info    0x0000028c      0x14a stm32f10x_it.o
 .debug_info    0x000003d6       0x6a lib/Startup/startup_stm32f10x_md_nortos.o
 .debug_info    0x00000440       0xb7 lib/lib.a(com_config.o)
 .debug_info    0x000004f7      0x35c lib/lib.a(boardinit.o)
 .debug_info    0x00000853      0x524 lib/lib.a(misc.o)
 .debug_info    0x00000d77      0x70c lib/lib.a(stm32f10x_gpio.o)
 .debug_info    0x00001483      0x8ea lib/lib.a(stm32f10x_rcc.o)
 .debug_info    0x00001d6d      0xa11 lib/lib.a(hw_config.o)
 .debug_info    0x0000277e       0xa2 lib/lib.a(usb_config.o)
 .debug_info    0x00002820      0x17d lib/lib.a(usb_desc.o)
 .debug_info    0x0000299d      0x118 lib/lib.a(usb_endp.o)
 .debug_info    0x00002ab5      0x279 lib/lib.a(usb_istr.o)
 .debug_info    0x00002d2e      0x8ab lib/lib.a(usb_prop.o)
 .debug_info    0x000035d9      0x2a5 lib/lib.a(usb_pwr.o)
 .debug_info    0x0000387e      0xbdf lib/lib.a(usb_core.o)
 .debug_info    0x0000445d      0x48e lib/lib.a(usb_init.o)
 .debug_info    0x000048eb      0x1dc lib/lib.a(usb_int.o)
 .debug_info    0x00004ac7      0x1b0 lib/lib.a(usb_mem.o)
 .debug_info    0x00004c77      0xd67 lib/lib.a(usb_regs.o)
 .debug_info    0x000059de      0x16a lib/lib.a(usb_sil.o)
 .debug_info    0x00005b48      0x32c lib/lib.a(toascii.o)

.debug_abbrev   0x00000000     0x1779
 *(.debug_abbrev)
 .debug_abbrev  0x00000000      0x121 main.o
 .debug_abbrev  0x00000121       0x62 stm32f10x_it.o
 .debug_abbrev  0x00000183       0x12 lib/Startup/startup_stm32f10x_md_nortos.o
 .debug_abbrev  0x00000195       0x62 lib/lib.a(com_config.o)
 .debug_abbrev  0x000001f7      0x14f lib/lib.a(boardinit.o)
 .debug_abbrev  0x00000346      0x140 lib/lib.a(misc.o)
 .debug_abbrev  0x00000486      0x1a2 lib/lib.a(stm32f10x_gpio.o)
 .debug_abbrev  0x00000628      0x19c lib/lib.a(stm32f10x_rcc.o)
 .debug_abbrev  0x000007c4      0x248 lib/lib.a(hw_config.o)
 .debug_abbrev  0x00000a0c       0x62 lib/lib.a(usb_config.o)
 .debug_abbrev  0x00000a6e       0x84 lib/lib.a(usb_desc.o)
 .debug_abbrev  0x00000af2       0x92 lib/lib.a(usb_endp.o)
 .debug_abbrev  0x00000b84       0xfb lib/lib.a(usb_istr.o)
 .debug_abbrev  0x00000c7f      0x1a4 lib/lib.a(usb_prop.o)
 .debug_abbrev  0x00000e23      0x12f lib/lib.a(usb_pwr.o)
 .debug_abbrev  0x00000f52      0x27b lib/lib.a(usb_core.o)
 .debug_abbrev  0x000011cd      0x121 lib/lib.a(usb_init.o)
 .debug_abbrev  0x000012ee       0xd8 lib/lib.a(usb_int.o)
 .debug_abbrev  0x000013c6       0xa7 lib/lib.a(usb_mem.o)
 .debug_abbrev  0x0000146d      0x151 lib/lib.a(usb_regs.o)
 .debug_abbrev  0x000015be       0xc2 lib/lib.a(usb_sil.o)
 .debug_abbrev  0x00001680       0xf9 lib/lib.a(toascii.o)

.debug_line     0x00000000     0x51d8
 *(.debug_line)
 .debug_line    0x00000000      0x43d main.o
 .debug_line    0x0000043d      0x2e4 stm32f10x_it.o
 .debug_line    0x00000721       0x79 lib/Startup/startup_stm32f10x_md_nortos.o
 .debug_line    0x0000079a      0x40f lib/lib.a(com_config.o)
 .debug_line    0x00000ba9      0x377 lib/lib.a(boardinit.o)
 .debug_line    0x00000f20      0x2e7 lib/lib.a(misc.o)
 .debug_line    0x00001207      0x38d lib/lib.a(stm32f10x_gpio.o)
 .debug_line    0x00001594      0x3e8 lib/lib.a(stm32f10x_rcc.o)
 .debug_line    0x0000197c      0x52b lib/lib.a(hw_config.o)
 .debug_line    0x00001ea7      0x3f2 lib/lib.a(usb_config.o)
 .debug_line    0x00002299      0x372 lib/lib.a(usb_desc.o)
 .debug_line    0x0000260b      0x3a6 lib/lib.a(usb_endp.o)
 .debug_line    0x000029b1      0x3ae lib/lib.a(usb_istr.o)
 .debug_line    0x00002d5f      0x434 lib/lib.a(usb_prop.o)
 .debug_line    0x00003193      0x3e2 lib/lib.a(usb_pwr.o)
 .debug_line    0x00003575      0x585 lib/lib.a(usb_core.o)
 .debug_line    0x00003afa      0x383 lib/lib.a(usb_init.o)
 .debug_line    0x00003e7d      0x3cf lib/lib.a(usb_int.o)
 .debug_line    0x0000424c      0x395 lib/lib.a(usb_mem.o)
 .debug_line    0x000045e1      0x4e8 lib/lib.a(usb_regs.o)
 .debug_line    0x00004ac9      0x396 lib/lib.a(usb_sil.o)
 .debug_line    0x00004e5f      0x379 lib/lib.a(toascii.o)

.debug_frame    0x00000000     0x183c
 *(.debug_frame)
 .debug_frame   0x00000000       0x6c main.o
 .debug_frame   0x0000006c       0xe8 stm32f10x_it.o
 .debug_frame   0x00000154       0x48 lib/lib.a(com_config.o)
 .debug_frame   0x0000019c       0xf0 lib/lib.a(boardinit.o)
 .debug_frame   0x0000028c       0x9c lib/lib.a(misc.o)
 .debug_frame   0x00000328      0x20c lib/lib.a(stm32f10x_gpio.o)
 .debug_frame   0x00000534      0x388 lib/lib.a(stm32f10x_rcc.o)
 .debug_frame   0x000008bc      0x1e0 lib/lib.a(hw_config.o)
 .debug_frame   0x00000a9c       0x2c lib/lib.a(usb_config.o)
 .debug_frame   0x00000ac8       0x44 lib/lib.a(usb_endp.o)
 .debug_frame   0x00000b0c       0x2c lib/lib.a(usb_istr.o)
 .debug_frame   0x00000b38      0x19c lib/lib.a(usb_prop.o)
 .debug_frame   0x00000cd4       0xac lib/lib.a(usb_pwr.o)
 .debug_frame   0x00000d80      0x254 lib/lib.a(usb_core.o)
 .debug_frame   0x00000fd4       0x2c lib/lib.a(usb_init.o)
 .debug_frame   0x00001000       0x50 lib/lib.a(usb_int.o)
 .debug_frame   0x00001050       0x48 lib/lib.a(usb_mem.o)
 .debug_frame   0x00001098      0x684 lib/lib.a(usb_regs.o)
 .debug_frame   0x0000171c       0x68 lib/lib.a(usb_sil.o)
 .debug_frame   0x00001784       0xb8 lib/lib.a(toascii.o)

.debug_str      0x00000000     0x24d8
 *(.debug_str)
 .debug_str     0x00000000      0x205 main.o
                                0x246 (size before relaxing)
 .debug_str     0x00000205       0x9f stm32f10x_it.o
                                0x15c (size before relaxing)
 .debug_str     0x000002a4       0x61 lib/lib.a(com_config.o)
                                0x103 (size before relaxing)
 .debug_str     0x00000305      0x114 lib/lib.a(boardinit.o)
                                0x20e (size before relaxing)
 .debug_str     0x00000419      0x21d lib/lib.a(misc.o)
                                0x312 (size before relaxing)
 .debug_str     0x00000636      0x25e lib/lib.a(stm32f10x_gpio.o)
                                0x47b (size before relaxing)
 .debug_str     0x00000894      0x3c8 lib/lib.a(stm32f10x_rcc.o)
                                0x574 (size before relaxing)
 .debug_str     0x00000c5c      0x6cb lib/lib.a(hw_config.o)
                                0x9c4 (size before relaxing)
 .debug_str     0x00001327       0x34 lib/lib.a(usb_config.o)
                                 0xf5 (size before relaxing)
 .debug_str     0x0000135b       0xbf lib/lib.a(usb_desc.o)
                                0x1a6 (size before relaxing)
 .debug_str     0x0000141a       0x41 lib/lib.a(usb_endp.o)
                                0x131 (size before relaxing)
 .debug_str     0x0000145b      0x128 lib/lib.a(usb_istr.o)
                                0x262 (size before relaxing)
 .debug_str     0x00001583      0x3fb lib/lib.a(usb_prop.o)
                                0x8b0 (size before relaxing)
 .debug_str     0x0000197e      0x105 lib/lib.a(usb_pwr.o)
                                0x269 (size before relaxing)
 .debug_str     0x00001a83      0x437 lib/lib.a(usb_core.o)
                                0x9c8 (size before relaxing)
 .debug_str     0x00001eba       0x45 lib/lib.a(usb_init.o)
                                0x4a7 (size before relaxing)
 .debug_str     0x00001eff       0x3e lib/lib.a(usb_int.o)
                                0x15b (size before relaxing)
 .debug_str     0x00001f3d       0x81 lib/lib.a(usb_mem.o)
                                0x15c (size before relaxing)
 .debug_str     0x00001fbe      0x3ed lib/lib.a(usb_regs.o)
                                0x4e4 (size before relaxing)
 .debug_str     0x000023ab       0x7f lib/lib.a(usb_sil.o)
                                0x16a (size before relaxing)
 .debug_str     0x0000242a       0xae lib/lib.a(toascii.o)
                                0x1c4 (size before relaxing)

.debug_loc      0x00000000     0x2a81
 *(.debug_loc)
 .debug_loc     0x00000000       0xa5 main.o
 .debug_loc     0x000000a5      0x183 stm32f10x_it.o
 .debug_loc     0x00000228       0x56 lib/lib.a(com_config.o)
 .debug_loc     0x0000027e      0x17c lib/lib.a(boardinit.o)
 .debug_loc     0x000003fa      0x113 lib/lib.a(misc.o)
 .debug_loc     0x0000050d      0x3d2 lib/lib.a(stm32f10x_gpio.o)
 .debug_loc     0x000008df      0x6bc lib/lib.a(stm32f10x_rcc.o)
 .debug_loc     0x00000f9b      0x32d lib/lib.a(hw_config.o)
 .debug_loc     0x000012c8       0x2b lib/lib.a(usb_config.o)
 .debug_loc     0x000012f3       0x56 lib/lib.a(usb_endp.o)
 .debug_loc     0x00001349       0x2b lib/lib.a(usb_istr.o)
 .debug_loc     0x00001374      0x2c6 lib/lib.a(usb_prop.o)
 .debug_loc     0x0000163a      0x107 lib/lib.a(usb_pwr.o)
 .debug_loc     0x00001741      0x3e5 lib/lib.a(usb_core.o)
 .debug_loc     0x00001b26       0x2b lib/lib.a(usb_init.o)
 .debug_loc     0x00001b51       0x6e lib/lib.a(usb_int.o)
 .debug_loc     0x00001bbf       0x6e lib/lib.a(usb_mem.o)
 .debug_loc     0x00001c2d      0xc71 lib/lib.a(usb_regs.o)
 .debug_loc     0x0000289e       0x99 lib/lib.a(usb_sil.o)
 .debug_loc     0x00002937      0x14a lib/lib.a(toascii.o)

.debug_macinfo  0x00000000   0x69204b
 *(.debug_macinfo)
 .debug_macinfo
                0x00000000    0x51f4f main.o
 .debug_macinfo
                0x00051f4f    0x4de40 stm32f10x_it.o
 .debug_macinfo
                0x0009fd8f    0x51f6b lib/lib.a(com_config.o)
 .debug_macinfo
                0x000f1cfa    0x4f511 lib/lib.a(boardinit.o)
 .debug_macinfo
                0x0014120b    0x4de58 lib/lib.a(misc.o)
 .debug_macinfo
                0x0018f063    0x4e087 lib/lib.a(stm32f10x_gpio.o)
 .debug_macinfo
                0x001dd0ea    0x4e5be lib/lib.a(stm32f10x_rcc.o)
 .debug_macinfo
                0x0022b6a8    0x5209d lib/lib.a(hw_config.o)
 .debug_macinfo
                0x0027d745    0x51f39 lib/lib.a(usb_config.o)
 .debug_macinfo
                0x002cf67e    0x50598 lib/lib.a(usb_desc.o)
 .debug_macinfo
                0x0031fc16    0x5062b lib/lib.a(usb_endp.o)
 .debug_macinfo
                0x00370241    0x505e9 lib/lib.a(usb_istr.o)
 .debug_macinfo
                0x003c082a    0x5085f lib/lib.a(usb_prop.o)
 .debug_macinfo
                0x00411089    0x5040b lib/lib.a(usb_pwr.o)
 .debug_macinfo
                0x00461494    0x50533 lib/lib.a(usb_core.o)
 .debug_macinfo
                0x004b19c7    0x50381 lib/lib.a(usb_init.o)
 .debug_macinfo
                0x00501d48    0x50381 lib/lib.a(usb_int.o)
 .debug_macinfo
                0x005520c9    0x50381 lib/lib.a(usb_mem.o)
 .debug_macinfo
                0x005a244a    0x50381 lib/lib.a(usb_regs.o)
 .debug_macinfo
                0x005f27cb    0x50381 lib/lib.a(usb_sil.o)
 .debug_macinfo
                0x00642b4c    0x4f4ff lib/lib.a(toascii.o)

.debug_weaknames
 *(.debug_weaknames)

.debug_funcnames
 *(.debug_funcnames)

.debug_typenames
 *(.debug_typenames)

.debug_varnames
 *(.debug_varnames)
OUTPUT(bin\main.elf elf32-littlearm)

.debug_ranges   0x00000000       0x50
 .debug_ranges  0x00000000       0x20 lib/Startup/startup_stm32f10x_md_nortos.o
 .debug_ranges  0x00000020       0x30 lib/lib.a(usb_core.o)

Cross Reference Table

Symbol                                            File
ADC1_2_IRQHandler                                 lib/Startup/startup_stm32f10x_md_nortos.o
AHBPrescTable                                     lib/lib.a(boardinit.o)
BoardInit                                         lib/lib.a(boardinit.o)
                                                  main.o
BusFault_Handler                                  stm32f10x_it.o
ByteSwap                                          lib/lib.a(usb_regs.o)
                                                  lib/lib.a(usb_core.o)
CAN1_RX1_IRQHandler                               lib/Startup/startup_stm32f10x_md_nortos.o
CAN1_SCE_IRQHandler                               lib/Startup/startup_stm32f10x_md_nortos.o
COM_Configuration                                 lib/lib.a(com_config.o)
                                                  main.o
CTR_HP                                            lib/lib.a(usb_int.o)
CTR_LP                                            lib/lib.a(usb_int.o)
                                                  lib/lib.a(usb_istr.o)
ClearDTOG_RX                                      lib/lib.a(usb_regs.o)
                                                  lib/lib.a(usb_core.o)
ClearDTOG_TX                                      lib/lib.a(usb_regs.o)
                                                  lib/lib.a(usb_core.o)
ClearEPDoubleBuff                                 lib/lib.a(usb_regs.o)
ClearEP_CTR_RX                                    lib/lib.a(usb_regs.o)
ClearEP_CTR_TX                                    lib/lib.a(usb_regs.o)
ClearEP_KIND                                      lib/lib.a(usb_regs.o)
Clear_Status_Out                                  lib/lib.a(usb_regs.o)
                                                  lib/lib.a(usb_prop.o)
Config_Descriptor                                 lib/lib.a(usb_prop.o)
DMA1_Channel1_IRQHandler                          lib/Startup/startup_stm32f10x_md_nortos.o
DMA1_Channel2_IRQHandler                          lib/Startup/startup_stm32f10x_md_nortos.o
DMA1_Channel3_IRQHandler                          lib/Startup/startup_stm32f10x_md_nortos.o
DMA1_Channel4_IRQHandler                          lib/Startup/startup_stm32f10x_md_nortos.o
DMA1_Channel5_IRQHandler                          lib/Startup/startup_stm32f10x_md_nortos.o
DMA1_Channel6_IRQHandler                          lib/Startup/startup_stm32f10x_md_nortos.o
DMA1_Channel7_IRQHandler                          lib/Startup/startup_stm32f10x_md_nortos.o
Data_Mul_MaxPacketSize                            lib/lib.a(usb_core.o)
DebugMon_Handler                                  stm32f10x_it.o
Default_Handler                                   lib/Startup/startup_stm32f10x_md_nortos.o
Delay                                             main.o
Device_Descriptor                                 lib/lib.a(usb_prop.o)
Device_Info                                       lib/lib.a(usb_init.o)
                                                  lib/lib.a(usb_prop.o)
                                                  lib/lib.a(hw_config.o)
Device_Property                                   lib/lib.a(usb_prop.o)
                                                  lib/lib.a(usb_init.o)
                                                  lib/lib.a(usb_core.o)
                                                  lib/lib.a(usb_istr.o)
Device_Table                                      lib/lib.a(usb_prop.o)
                                                  lib/lib.a(usb_core.o)
EP1_IN_Callback                                   lib/lib.a(usb_endp.o)
                                                  lib/lib.a(usb_istr.o)
EP3_OUT_Callback                                  lib/lib.a(usb_endp.o)
                                                  lib/lib.a(usb_istr.o)
EPindex                                           lib/lib.a(usb_int.o)
                                                  lib/lib.a(usb_init.o)
EXTI0_IRQHandler                                  lib/Startup/startup_stm32f10x_md_nortos.o
EXTI15_10_IRQHandler                              lib/Startup/startup_stm32f10x_md_nortos.o
EXTI1_IRQHandler                                  lib/Startup/startup_stm32f10x_md_nortos.o
EXTI2_IRQHandler                                  lib/Startup/startup_stm32f10x_md_nortos.o
EXTI3_IRQHandler                                  lib/Startup/startup_stm32f10x_md_nortos.o
EXTI4_IRQHandler                                  lib/Startup/startup_stm32f10x_md_nortos.o
EXTI9_5_IRQHandler                                lib/Startup/startup_stm32f10x_md_nortos.o
Enter_LowPowerMode                                lib/lib.a(hw_config.o)
                                                  lib/lib.a(usb_pwr.o)
FLASH_IRQHandler                                  lib/Startup/startup_stm32f10x_md_nortos.o
FreeUserBuffer                                    lib/lib.a(usb_regs.o)
GPIO_AFIODeInit                                   lib/lib.a(stm32f10x_gpio.o)
GPIO_Configuration                                main.o
GPIO_DeInit                                       lib/lib.a(stm32f10x_gpio.o)
GPIO_ETH_MediaInterfaceConfig                     lib/lib.a(stm32f10x_gpio.o)
GPIO_EXTILineConfig                               lib/lib.a(stm32f10x_gpio.o)
GPIO_EventOutputCmd                               lib/lib.a(stm32f10x_gpio.o)
GPIO_EventOutputConfig                            lib/lib.a(stm32f10x_gpio.o)
GPIO_Init                                         lib/lib.a(stm32f10x_gpio.o)
                                                  lib/lib.a(hw_config.o)
                                                  main.o
GPIO_PinLockConfig                                lib/lib.a(stm32f10x_gpio.o)
GPIO_PinRemapConfig                               lib/lib.a(stm32f10x_gpio.o)
                                                  lib/lib.a(boardinit.o)
GPIO_ReadInputData                                lib/lib.a(stm32f10x_gpio.o)
GPIO_ReadInputDataBit                             lib/lib.a(stm32f10x_gpio.o)
GPIO_ReadOutputData                               lib/lib.a(stm32f10x_gpio.o)
GPIO_ReadOutputDataBit                            lib/lib.a(stm32f10x_gpio.o)
GPIO_ResetBits                                    lib/lib.a(stm32f10x_gpio.o)
                                                  lib/lib.a(hw_config.o)
                                                  main.o
GPIO_SetBits                                      lib/lib.a(stm32f10x_gpio.o)
                                                  lib/lib.a(hw_config.o)
                                                  main.o
GPIO_StructInit                                   lib/lib.a(stm32f10x_gpio.o)
GPIO_Write                                        lib/lib.a(stm32f10x_gpio.o)
GPIO_WriteBit                                     lib/lib.a(stm32f10x_gpio.o)
GetBTABLE                                         lib/lib.a(usb_regs.o)
GetCNTR                                           lib/lib.a(usb_regs.o)
GetDADDR                                          lib/lib.a(usb_regs.o)
GetENDPOINT                                       lib/lib.a(usb_regs.o)
GetEPAddress                                      lib/lib.a(usb_regs.o)
GetEPDblBuf0Addr                                  lib/lib.a(usb_regs.o)
GetEPDblBuf0Count                                 lib/lib.a(usb_regs.o)
GetEPDblBuf1Addr                                  lib/lib.a(usb_regs.o)
GetEPDblBuf1Count                                 lib/lib.a(usb_regs.o)
GetEPDblBufDir                                    lib/lib.a(usb_regs.o)
GetEPRxAddr                                       lib/lib.a(usb_regs.o)
                                                  lib/lib.a(usb_sil.o)
                                                  lib/lib.a(usb_core.o)
GetEPRxCount                                      lib/lib.a(usb_regs.o)
                                                  lib/lib.a(usb_sil.o)
GetEPRxStatus                                     lib/lib.a(usb_regs.o)
GetEPTxAddr                                       lib/lib.a(usb_regs.o)
                                                  lib/lib.a(usb_sil.o)
                                                  lib/lib.a(usb_core.o)
GetEPTxCount                                      lib/lib.a(usb_regs.o)
GetEPTxStatus                                     lib/lib.a(usb_regs.o)
                                                  lib/lib.a(hw_config.o)
GetEPType                                         lib/lib.a(usb_regs.o)
GetFNR                                            lib/lib.a(usb_regs.o)
GetISTR                                           lib/lib.a(usb_regs.o)
GetRxStallStatus                                  lib/lib.a(usb_regs.o)
GetTxStallStatus                                  lib/lib.a(usb_regs.o)
Get_SerialNum                                     lib/lib.a(hw_config.o)
                                                  lib/lib.a(usb_prop.o)
HSEStartUpStatus                                  lib/lib.a(hw_config.o)
HardFault_Handler                                 stm32f10x_it.o
I2C1_ER_IRQHandler                                lib/Startup/startup_stm32f10x_md_nortos.o
I2C1_EV_IRQHandler                                lib/Startup/startup_stm32f10x_md_nortos.o
I2C2_ER_IRQHandler                                lib/Startup/startup_stm32f10x_md_nortos.o
I2C2_EV_IRQHandler                                lib/Startup/startup_stm32f10x_md_nortos.o
In0_Process                                       lib/lib.a(usb_core.o)
                                                  lib/lib.a(usb_int.o)
Leave_LowPowerMode                                lib/lib.a(hw_config.o)
                                                  lib/lib.a(usb_pwr.o)
MemManage_Handler                                 stm32f10x_it.o
NMI_Handler                                       stm32f10x_it.o
NOP_Process                                       lib/lib.a(usb_core.o)
                                                  lib/lib.a(usb_prop.o)
                                                  lib/lib.a(usb_istr.o)
NVIC_Init                                         lib/lib.a(misc.o)
                                                  lib/lib.a(hw_config.o)
NVIC_PriorityGroupConfig                          lib/lib.a(misc.o)
                                                  lib/lib.a(hw_config.o)
NVIC_SetVectorTable                               lib/lib.a(misc.o)
                                                  lib/lib.a(boardinit.o)
NVIC_SystemLPConfig                               lib/lib.a(misc.o)
Out0_Process                                      lib/lib.a(usb_core.o)
                                                  lib/lib.a(usb_int.o)
PMAToUserBufferCopy                               lib/lib.a(usb_mem.o)
                                                  lib/lib.a(usb_sil.o)
                                                  lib/lib.a(usb_core.o)
PVD_IRQHandler                                    lib/Startup/startup_stm32f10x_md_nortos.o
PendSV_Handler                                    stm32f10x_it.o
Post0_Process                                     lib/lib.a(usb_core.o)
PowerOff                                          lib/lib.a(usb_pwr.o)
PowerOn                                           lib/lib.a(usb_pwr.o)
                                                  lib/lib.a(usb_prop.o)
RCC_ADCCLKConfig                                  lib/lib.a(stm32f10x_rcc.o)
RCC_AHBPeriphClockCmd                             lib/lib.a(stm32f10x_rcc.o)
RCC_APB1PeriphClockCmd                            lib/lib.a(stm32f10x_rcc.o)
                                                  lib/lib.a(hw_config.o)
RCC_APB1PeriphResetCmd                            lib/lib.a(stm32f10x_rcc.o)
RCC_APB2PeriphClockCmd                            lib/lib.a(stm32f10x_rcc.o)
                                                  lib/lib.a(hw_config.o)
                                                  lib/lib.a(boardinit.o)
                                                  main.o
RCC_APB2PeriphResetCmd                            lib/lib.a(stm32f10x_rcc.o)
                                                  lib/lib.a(stm32f10x_gpio.o)
RCC_AdjustHSICalibrationValue                     lib/lib.a(stm32f10x_rcc.o)
RCC_BackupResetCmd                                lib/lib.a(stm32f10x_rcc.o)
RCC_ClearFlag                                     lib/lib.a(stm32f10x_rcc.o)
RCC_ClearITPendingBit                             lib/lib.a(stm32f10x_rcc.o)
RCC_ClockSecuritySystemCmd                        lib/lib.a(stm32f10x_rcc.o)
RCC_DeInit                                        lib/lib.a(stm32f10x_rcc.o)
RCC_GetClocksFreq                                 lib/lib.a(stm32f10x_rcc.o)
RCC_GetFlagStatus                                 lib/lib.a(stm32f10x_rcc.o)
RCC_GetITStatus                                   lib/lib.a(stm32f10x_rcc.o)
RCC_GetSYSCLKSource                               lib/lib.a(stm32f10x_rcc.o)
RCC_HCLKConfig                                    lib/lib.a(stm32f10x_rcc.o)
RCC_HSEConfig                                     lib/lib.a(stm32f10x_rcc.o)
RCC_HSICmd                                        lib/lib.a(stm32f10x_rcc.o)
RCC_IRQHandler                                    lib/Startup/startup_stm32f10x_md_nortos.o
RCC_ITConfig                                      lib/lib.a(stm32f10x_rcc.o)
RCC_LSEConfig                                     lib/lib.a(stm32f10x_rcc.o)
RCC_LSICmd                                        lib/lib.a(stm32f10x_rcc.o)
RCC_MCOConfig                                     lib/lib.a(stm32f10x_rcc.o)
RCC_PCLK1Config                                   lib/lib.a(stm32f10x_rcc.o)
RCC_PCLK2Config                                   lib/lib.a(stm32f10x_rcc.o)
RCC_PLLCmd                                        lib/lib.a(stm32f10x_rcc.o)
                                                  lib/lib.a(boardinit.o)
RCC_PLLConfig                                     lib/lib.a(stm32f10x_rcc.o)
RCC_RTCCLKCmd                                     lib/lib.a(stm32f10x_rcc.o)
RCC_RTCCLKConfig                                  lib/lib.a(stm32f10x_rcc.o)
RCC_SYSCLKConfig                                  lib/lib.a(stm32f10x_rcc.o)
                                                  lib/lib.a(boardinit.o)
RCC_USBCLKConfig                                  lib/lib.a(stm32f10x_rcc.o)
                                                  lib/lib.a(hw_config.o)
RCC_WaitForHSEStartUp                             lib/lib.a(stm32f10x_rcc.o)
RTCAlarm_IRQHandler                               lib/Startup/startup_stm32f10x_md_nortos.o
RTC_IRQHandler                                    lib/Startup/startup_stm32f10x_md_nortos.o
Remap_JTAG                                        lib/lib.a(boardinit.o)
Request                                           lib/lib.a(usb_prop.o)
Reset_Handler                                     lib/Startup/startup_stm32f10x_md_nortos.o
Resume                                            lib/lib.a(usb_pwr.o)
ResumeS                                           lib/lib.a(usb_pwr.o)
Resume_Init                                       lib/lib.a(usb_pwr.o)
SPI1_IRQHandler                                   lib/Startup/startup_stm32f10x_md_nortos.o
SPI2_IRQHandler                                   lib/Startup/startup_stm32f10x_md_nortos.o
SVC_Handler                                       stm32f10x_it.o
SaveRState                                        lib/lib.a(usb_int.o)
                                                  lib/lib.a(usb_core.o)
SaveState                                         lib/lib.a(usb_init.o)
SaveTState                                        lib/lib.a(usb_int.o)
                                                  lib/lib.a(usb_core.o)
SetBTABLE                                         lib/lib.a(usb_regs.o)
                                                  lib/lib.a(usb_prop.o)
SetCNTR                                           lib/lib.a(usb_regs.o)
SetDADDR                                          lib/lib.a(usb_regs.o)
SetDeviceAddress                                  lib/lib.a(usb_core.o)
                                                  lib/lib.a(usb_prop.o)
SetDouBleBuffEPStall                              lib/lib.a(usb_regs.o)
SetENDPOINT                                       lib/lib.a(usb_regs.o)
SetEPAddress                                      lib/lib.a(usb_regs.o)
SetEPCountRxReg                                   lib/lib.a(usb_regs.o)
SetEPDblBuf0Addr                                  lib/lib.a(usb_regs.o)
SetEPDblBuf0Count                                 lib/lib.a(usb_regs.o)
SetEPDblBuf1Addr                                  lib/lib.a(usb_regs.o)
SetEPDblBuf1Count                                 lib/lib.a(usb_regs.o)
SetEPDblBuffAddr                                  lib/lib.a(usb_regs.o)
SetEPDblBuffCount                                 lib/lib.a(usb_regs.o)
SetEPDoubleBuff                                   lib/lib.a(usb_regs.o)
SetEPRxAddr                                       lib/lib.a(usb_regs.o)
                                                  lib/lib.a(usb_prop.o)
SetEPRxCount                                      lib/lib.a(usb_regs.o)
                                                  lib/lib.a(usb_core.o)
                                                  lib/lib.a(usb_prop.o)
SetEPRxStatus                                     lib/lib.a(usb_regs.o)
                                                  lib/lib.a(usb_prop.o)
SetEPRxValid                                      lib/lib.a(usb_regs.o)
                                                  lib/lib.a(usb_prop.o)
                                                  lib/lib.a(usb_endp.o)
SetEPTxAddr                                       lib/lib.a(usb_regs.o)
                                                  lib/lib.a(usb_prop.o)
SetEPTxCount                                      lib/lib.a(usb_regs.o)
                                                  lib/lib.a(usb_sil.o)
                                                  lib/lib.a(usb_core.o)
SetEPTxStatus                                     lib/lib.a(usb_regs.o)
                                                  lib/lib.a(usb_core.o)
                                                  lib/lib.a(usb_prop.o)
SetEPTxValid                                      lib/lib.a(usb_regs.o)
                                                  lib/lib.a(hw_config.o)
SetEPType                                         lib/lib.a(usb_regs.o)
                                                  lib/lib.a(usb_prop.o)
SetEP_KIND                                        lib/lib.a(usb_regs.o)
SetISTR                                           lib/lib.a(usb_regs.o)
Set_Status_Out                                    lib/lib.a(usb_regs.o)
Set_System                                        lib/lib.a(hw_config.o)
                                                  lib/lib.a(usb_config.o)
Set_USBClock                                      lib/lib.a(hw_config.o)
                                                  lib/lib.a(usb_config.o)
Setup0_Process                                    lib/lib.a(usb_core.o)
                                                  lib/lib.a(usb_int.o)
Standard_ClearFeature                             lib/lib.a(usb_core.o)
Standard_GetConfiguration                         lib/lib.a(usb_core.o)
Standard_GetDescriptorData                        lib/lib.a(usb_core.o)
                                                  lib/lib.a(usb_prop.o)
Standard_GetInterface                             lib/lib.a(usb_core.o)
Standard_GetStatus                                lib/lib.a(usb_core.o)
Standard_SetConfiguration                         lib/lib.a(usb_core.o)
Standard_SetDeviceFeature                         lib/lib.a(usb_core.o)
Standard_SetEndPointFeature                       lib/lib.a(usb_core.o)
Standard_SetInterface                             lib/lib.a(usb_core.o)
StatusInfo                                        lib/lib.a(usb_core.o)
String_Descriptor                                 lib/lib.a(usb_prop.o)
Suspend                                           lib/lib.a(usb_pwr.o)
SysTick_CLKSourceConfig                           lib/lib.a(misc.o)
SysTick_Handler                                   stm32f10x_it.o
SystemCoreClock                                   lib/lib.a(boardinit.o)
SystemCoreClockUpdate                             lib/lib.a(boardinit.o)
SystemInit                                        lib/lib.a(boardinit.o)
TAMPER_IRQHandler                                 lib/Startup/startup_stm32f10x_md_nortos.o
TIM1_BRK_IRQHandler                               lib/Startup/startup_stm32f10x_md_nortos.o
TIM1_CC_IRQHandler                                lib/Startup/startup_stm32f10x_md_nortos.o
TIM1_TRG_COM_IRQHandler                           lib/Startup/startup_stm32f10x_md_nortos.o
TIM1_UP_IRQHandler                                lib/Startup/startup_stm32f10x_md_nortos.o
TIM2_IRQHandler                                   lib/Startup/startup_stm32f10x_md_nortos.o
TIM3_IRQHandler                                   lib/Startup/startup_stm32f10x_md_nortos.o
TIM4_IRQHandler                                   lib/Startup/startup_stm32f10x_md_nortos.o
ToWord                                            lib/lib.a(usb_regs.o)
To_Binary                                         lib/lib.a(toascii.o)
To_Decimal                                        lib/lib.a(toascii.o)
To_Hexadecimal                                    lib/lib.a(toascii.o)
ToggleDTOG_RX                                     lib/lib.a(usb_regs.o)
ToggleDTOG_TX                                     lib/lib.a(usb_regs.o)
USART1_IRQHandler                                 lib/Startup/startup_stm32f10x_md_nortos.o
USART2_IRQHandler                                 lib/Startup/startup_stm32f10x_md_nortos.o
USART3_IRQHandler                                 lib/Startup/startup_stm32f10x_md_nortos.o
USART_InitStructure                               lib/lib.a(hw_config.o)
USBWakeUp_IRQHandler                              lib/Startup/startup_stm32f10x_md_nortos.o
USB_Cable_Config                                  lib/lib.a(hw_config.o)
                                                  lib/lib.a(usb_pwr.o)
USB_Configuration                                 lib/lib.a(usb_config.o)
                                                  lib/lib.a(com_config.o)
USB_HP_CAN1_TX_IRQHandler                         lib/Startup/startup_stm32f10x_md_nortos.o
USB_Init                                          lib/lib.a(usb_init.o)
                                                  lib/lib.a(usb_config.o)
USB_Interrupts_Config                             lib/lib.a(hw_config.o)
                                                  lib/lib.a(usb_config.o)
USB_Istr                                          lib/lib.a(usb_istr.o)
                                                  lib/lib.a(com_config.o)
USB_LP_CAN1_RX0_IRQHandler                        lib/lib.a(com_config.o)
                                                  lib/Startup/startup_stm32f10x_md_nortos.o
USB_SIL_Init                                      lib/lib.a(usb_sil.o)
                                                  lib/lib.a(usb_prop.o)
USB_SIL_Read                                      lib/lib.a(usb_sil.o)
                                                  lib/lib.a(usb_endp.o)
USB_SIL_Write                                     lib/lib.a(usb_sil.o)
                                                  lib/lib.a(hw_config.o)
Uint32_tToBinary                                  lib/lib.a(toascii.o)
                                                  lib/lib.a(hw_config.o)
Uint32_tToDecimal                                 lib/lib.a(toascii.o)
                                                  lib/lib.a(hw_config.o)
Uint32_tToHexadecimal                             lib/lib.a(toascii.o)
                                                  lib/lib.a(hw_config.o)
UsageFault_Handler                                stm32f10x_it.o
Use_12MHz_Xtal                                    lib/lib.a(boardinit.o)
UserToPMABufferCopy                               lib/lib.a(usb_mem.o)
                                                  lib/lib.a(usb_sil.o)
                                                  lib/lib.a(usb_core.o)
User_Standard_Requests                            lib/lib.a(usb_prop.o)
                                                  lib/lib.a(usb_init.o)
VCP_PrintBinary                                   lib/lib.a(hw_config.o)
VCP_PrintChar                                     lib/lib.a(hw_config.o)
VCP_PrintDecimal                                  lib/lib.a(hw_config.o)
VCP_PrintFormatted                                lib/lib.a(hw_config.o)
                                                  main.o
VCP_PrintHexaecimal                               lib/lib.a(hw_config.o)
VCP_PrintString                                   lib/lib.a(hw_config.o)
VCP_PrintUnsignedDecimal                          lib/lib.a(hw_config.o)
VCP_ReceiveData                                   lib/lib.a(hw_config.o)
Virtual_Com_Port_ConfigDescriptor                 lib/lib.a(usb_desc.o)
                                                  lib/lib.a(usb_prop.o)
Virtual_Com_Port_Data_Setup                       lib/lib.a(usb_prop.o)
Virtual_Com_Port_DeviceDescriptor                 lib/lib.a(usb_desc.o)
                                                  lib/lib.a(usb_prop.o)
Virtual_Com_Port_GetConfigDescriptor              lib/lib.a(usb_prop.o)
Virtual_Com_Port_GetDeviceDescriptor              lib/lib.a(usb_prop.o)
Virtual_Com_Port_GetLineCoding                    lib/lib.a(usb_prop.o)
Virtual_Com_Port_GetStringDescriptor              lib/lib.a(usb_prop.o)
Virtual_Com_Port_Get_Interface_Setting            lib/lib.a(usb_prop.o)
Virtual_Com_Port_NoData_Setup                     lib/lib.a(usb_prop.o)
Virtual_Com_Port_Reset                            lib/lib.a(usb_prop.o)
Virtual_Com_Port_SetConfiguration                 lib/lib.a(usb_prop.o)
Virtual_Com_Port_SetDeviceAddress                 lib/lib.a(usb_prop.o)
Virtual_Com_Port_SetLineCoding                    lib/lib.a(usb_prop.o)
Virtual_Com_Port_Status_In                        lib/lib.a(usb_prop.o)
Virtual_Com_Port_Status_Out                       lib/lib.a(usb_prop.o)
Virtual_Com_Port_StringLangID                     lib/lib.a(usb_desc.o)
                                                  lib/lib.a(usb_prop.o)
Virtual_Com_Port_StringProduct                    lib/lib.a(usb_desc.o)
                                                  lib/lib.a(usb_prop.o)
Virtual_Com_Port_StringSerial                     lib/lib.a(usb_desc.o)
                                                  lib/lib.a(usb_prop.o)
                                                  lib/lib.a(hw_config.o)
Virtual_Com_Port_StringVendor                     lib/lib.a(usb_desc.o)
                                                  lib/lib.a(usb_prop.o)
Virtual_Com_Port_init                             lib/lib.a(usb_prop.o)
WWDG_IRQHandler                                   lib/Startup/startup_stm32f10x_md_nortos.o
_Jv_RegisterClasses                               c:/program files/codesourcery/sourcery g++ lite/bin/../lib/gcc/arm-none-eabi/4.4.1/thumb2/crtbegin.o
__dso_handle                                      c:/program files/codesourcery/sourcery g++ lite/bin/../lib/gcc/arm-none-eabi/4.4.1/thumb2/crtbegin.o
_ebss                                             lib/Startup/startup_stm32f10x_md_nortos.o
_edata                                            lib/Startup/startup_stm32f10x_md_nortos.o
_estack                                           lib/Startup/startup_stm32f10x_md_nortos.o
_fini                                             c:/program files/codesourcery/sourcery g++ lite/bin/../lib/gcc/arm-none-eabi/4.4.1/thumb2/crti.o
_init                                             c:/program files/codesourcery/sourcery g++ lite/bin/../lib/gcc/arm-none-eabi/4.4.1/thumb2/crti.o
_sbss                                             lib/Startup/startup_stm32f10x_md_nortos.o
_sdata                                            lib/Startup/startup_stm32f10x_md_nortos.o
_sidata                                           lib/Startup/startup_stm32f10x_md_nortos.o
bDeviceState                                      lib/lib.a(usb_pwr.o)
                                                  lib/lib.a(usb_prop.o)
                                                  lib/lib.a(hw_config.o)
bIntPackSOF                                       lib/lib.a(usb_istr.o)
buffer_counter                                    lib/lib.a(hw_config.o)
buffer_in                                         lib/lib.a(hw_config.o)
buffer_out                                        lib/lib.a(usb_endp.o)
                                                  lib/lib.a(hw_config.o)
count_in                                          lib/lib.a(usb_endp.o)
                                                  lib/lib.a(hw_config.o)
count_out                                         lib/lib.a(usb_endp.o)
                                                  lib/lib.a(hw_config.o)
fSuspendEnabled                                   lib/lib.a(usb_pwr.o)
g_pfnVectors                                      lib/Startup/startup_stm32f10x_md_nortos.o
linecoding                                        lib/lib.a(usb_prop.o)
main                                              main.o
                                                  lib/Startup/startup_stm32f10x_md_nortos.o
pEpInt_IN                                         lib/lib.a(usb_istr.o)
                                                  lib/lib.a(usb_int.o)
pEpInt_OUT                                        lib/lib.a(usb_istr.o)
                                                  lib/lib.a(usb_int.o)
pInformation                                      lib/lib.a(usb_init.o)
                                                  lib/lib.a(usb_core.o)
                                                  lib/lib.a(usb_prop.o)
pProperty                                         lib/lib.a(usb_init.o)
                                                  lib/lib.a(usb_core.o)
pUser_Standard_Requests                           lib/lib.a(usb_init.o)
                                                  lib/lib.a(usb_core.o)
wInterrupt_Mask                                   lib/lib.a(usb_sil.o)
                                                  lib/lib.a(usb_init.o)
                                                  lib/lib.a(usb_pwr.o)
                                                  lib/lib.a(usb_istr.o)
wIstr                                             lib/lib.a(usb_int.o)
                                                  lib/lib.a(usb_istr.o)
