   1               		.file	"test.c"
   2               	__SREG__ = 0x3f
   3               	__SP_H__ = 0x3e
   4               	__SP_L__ = 0x3d
   5               	__CCP__  = 0x34
   6               	__tmp_reg__ = 0
   7               	__zero_reg__ = 1
  15               	.Ltext0:
  16               	.global	test_printn
  18               	test_printn:
  19               	.LFB9:
  20               	.LM1:
  21               	.LVL0:
  22 0000 AF92      		push r10
  23 0002 BF92      		push r11
  24 0004 CF92      		push r12
  25 0006 DF92      		push r13
  26 0008 EF92      		push r14
  27 000a FF92      		push r15
  28 000c 0F93      		push r16
  29 000e 1F93      		push r17
  30 0010 DF93      		push r29
  31 0012 CF93      		push r28
  32 0014 CDB7      		in r28,__SP_L__
  33 0016 DEB7      		in r29,__SP_H__
  34 0018 6097      		sbiw r28,16
  35 001a 0FB6      		in __tmp_reg__,__SREG__
  36 001c F894      		cli
  37 001e DEBF      		out __SP_H__,r29
  38 0020 0FBE      		out __SREG__,__tmp_reg__
  39 0022 CDBF      		out __SP_L__,r28
  40               	/* prologue: function */
  41               	/* frame size = 16 */
  42 0024 7B01      		movw r14,r22
  43 0026 8C01      		movw r16,r24
  44               	.LM2:
  45 0028 6115      		cp r22,__zero_reg__
  46 002a 7105      		cpc r23,__zero_reg__
  47 002c 8105      		cpc r24,__zero_reg__
  48 002e 9105      		cpc r25,__zero_reg__
  49 0030 01F4      		brne .+2
  50 0032 00C0      		rjmp .L12
  51               	.LM3:
  52 0034 5E01      		movw r10,r28
  53 0036 0894      		sec
  54 0038 A11C      		adc r10,__zero_reg__
  55 003a B11C      		adc r11,__zero_reg__
  56 003c 6501      		movw r12,r10
  57               	.LVL1:
  58               	.L4:
  59               	.LM4:
  60 003e C801      		movw r24,r16
  61 0040 B701      		movw r22,r14
  62               	.LVL2:
  63 0042 2AE0      		ldi r18,lo8(10)
  64 0044 30E0      		ldi r19,hi8(10)
  65 0046 40E0      		ldi r20,hlo8(10)
  66 0048 50E0      		ldi r21,hhi8(10)
  67 004a 0E94 0000 		call __udivmodsi4
  68 004e 605D      		subi r22,lo8(-(48))
  69 0050 F601      		movw r30,r12
  70 0052 6193      		st Z+,r22
  71 0054 6F01      		movw r12,r30
  72 0056 C801      		movw r24,r16
  73 0058 B701      		movw r22,r14
  74 005a 2AE0      		ldi r18,lo8(10)
  75 005c 30E0      		ldi r19,hi8(10)
  76 005e 40E0      		ldi r20,hlo8(10)
  77 0060 50E0      		ldi r21,hhi8(10)
  78 0062 0E94 0000 		call __udivmodsi4
  79 0066 C901      		movw r24,r18
  80 0068 DA01      		movw r26,r20
  81 006a 7C01      		movw r14,r24
  82 006c 8D01      		movw r16,r26
  83               	.LM5:
  84 006e E114      		cp r14,__zero_reg__
  85 0070 F104      		cpc r15,__zero_reg__
  86 0072 0105      		cpc r16,__zero_reg__
  87 0074 1105      		cpc r17,__zero_reg__
  88 0076 01F4      		brne .L4
  89               	.LM6:
  90 0078 AC14      		cp r10,r12
  91 007a BD04      		cpc r11,r13
  92 007c 00F4      		brsh .L6
  93               	.L7:
  94               	.LM7:
  95 007e E091 0000 		lds r30,chp
  96 0082 F091 0000 		lds r31,(chp)+1
  97 0086 A081      		ld r26,Z
  98 0088 B181      		ldd r27,Z+1
  99 008a 1496      		adiw r26,4
 100 008c 2D91      		ld r18,X+
 101 008e 3C91      		ld r19,X
 102 0090 1597      		sbiw r26,4+1
 103 0092 CF01      		movw r24,r30
 104 0094 F601      		movw r30,r12
 105 0096 6291      		ld r22,-Z
 106 0098 6F01      		movw r12,r30
 107 009a F901      		movw r30,r18
 108 009c 0995      		icall
 109               	.LM8:
 110 009e AC14      		cp r10,r12
 111 00a0 BD04      		cpc r11,r13
 112 00a2 00F0      		brlo .L7
 113               	.LVL3:
 114               	.L6:
 115               	/* epilogue start */
 116               	.LM9:
 117 00a4 6096      		adiw r28,16
 118 00a6 0FB6      		in __tmp_reg__,__SREG__
 119 00a8 F894      		cli
 120 00aa DEBF      		out __SP_H__,r29
 121 00ac 0FBE      		out __SREG__,__tmp_reg__
 122 00ae CDBF      		out __SP_L__,r28
 123 00b0 CF91      		pop r28
 124 00b2 DF91      		pop r29
 125 00b4 1F91      		pop r17
 126 00b6 0F91      		pop r16
 127 00b8 FF90      		pop r15
 128 00ba EF90      		pop r14
 129               	.LVL4:
 130 00bc DF90      		pop r13
 131 00be CF90      		pop r12
 132               	.LVL5:
 133 00c0 BF90      		pop r11
 134 00c2 AF90      		pop r10
 135 00c4 0895      		ret
 136               	.LVL6:
 137               	.L12:
 138               	.LM10:
 139 00c6 E091 0000 		lds r30,chp
 140 00ca F091 0000 		lds r31,(chp)+1
 141 00ce A081      		ld r26,Z
 142 00d0 B181      		ldd r27,Z+1
 143 00d2 1496      		adiw r26,4
 144 00d4 2D91      		ld r18,X+
 145 00d6 3C91      		ld r19,X
 146 00d8 1597      		sbiw r26,4+1
 147 00da CF01      		movw r24,r30
 148 00dc 60E3      		ldi r22,lo8(48)
 149               	.LVL7:
 150 00de F901      		movw r30,r18
 151 00e0 0995      		icall
 152 00e2 00C0      		rjmp .L6
 153               	.LFE9:
 155               	.global	test_print
 157               	test_print:
 158               	.LFB10:
 159               	.LM11:
 160               	.LVL8:
 161 00e4 CF93      		push r28
 162 00e6 DF93      		push r29
 163               	/* prologue: function */
 164               	/* frame size = 0 */
 165 00e8 EC01      		movw r28,r24
 166               	.LM12:
 167 00ea 6881      		ld r22,Y
 168 00ec 6623      		tst r22
 169 00ee 01F0      		breq .L16
 170               	.LVL9:
 171               	.L17:
 172               	.LM13:
 173 00f0 E091 0000 		lds r30,chp
 174 00f4 F091 0000 		lds r31,(chp)+1
 175 00f8 2196      		adiw r28,1
 176 00fa A081      		ld r26,Z
 177 00fc B181      		ldd r27,Z+1
 178 00fe 1496      		adiw r26,4
 179 0100 2D91      		ld r18,X+
 180 0102 3C91      		ld r19,X
 181 0104 1597      		sbiw r26,4+1
 182 0106 CF01      		movw r24,r30
 183 0108 F901      		movw r30,r18
 184 010a 0995      		icall
 185               	.LM14:
 186 010c 6881      		ld r22,Y
 187 010e 6623      		tst r22
 188 0110 01F4      		brne .L17
 189               	.LVL10:
 190               	.L16:
 191               	/* epilogue start */
 192               	.LM15:
 193 0112 DF91      		pop r29
 194 0114 CF91      		pop r28
 195               	.LVL11:
 196 0116 0895      		ret
 197               	.LFE10:
 199               		.data
 200               	.LC0:
 201 0000 0D0A 00   		.string	"\r\n"
 202               		.text
 203               	.global	test_println
 205               	test_println:
 206               	.LFB11:
 207               	.LM16:
 208               	.LVL12:
 209               	/* prologue: function */
 210               	/* frame size = 0 */
 211               	.LM17:
 212 0118 0E94 0000 		call test_print
 213               	.LVL13:
 214               	.LM18:
 215 011c E091 0000 		lds r30,chp
 216 0120 F091 0000 		lds r31,(chp)+1
 217 0124 A081      		ld r26,Z
 218 0126 B181      		ldd r27,Z+1
 219 0128 2D91      		ld r18,X+
 220 012a 3C91      		ld r19,X
 221 012c CF01      		movw r24,r30
 222 012e 60E0      		ldi r22,lo8(.LC0)
 223 0130 70E0      		ldi r23,hi8(.LC0)
 224 0132 42E0      		ldi r20,lo8(2)
 225 0134 50E0      		ldi r21,hi8(2)
 226 0136 F901      		movw r30,r18
 227 0138 0995      		icall
 228               	/* epilogue start */
 229               	.LM19:
 230 013a 0895      		ret
 231               	.LFE11:
 233               	.global	test_emit_token
 235               	test_emit_token:
 236               	.LFB14:
 237               	.LM20:
 238               	.LVL14:
 239               	/* prologue: function */
 240               	/* frame size = 0 */
 241               	.LM21:
 242               	/* #APP */
 243               	 ;  153 "test/test.c" 1
 244 013c F894      		cli
 245               	 ;  0 "" 2
 246               	.LM22:
 247               	/* #NOAPP */
 248 013e E091 0000 		lds r30,tokp
 249 0142 F091 0000 		lds r31,(tokp)+1
 250 0146 8193      		st Z+,r24
 251 0148 F093 0000 		sts (tokp)+1,r31
 252 014c E093 0000 		sts tokp,r30
 253               	.LM23:
 254               	/* #APP */
 255               	 ;  155 "test/test.c" 1
 256 0150 7894      		sei
 257               	 ;  0 "" 2
 258               	/* epilogue start */
 259               	.LM24:
 260               	/* #NOAPP */
 261 0152 0895      		ret
 262               	.LFE14:
 264               	.global	_test_fail
 266               	_test_fail:
 267               	.LFB15:
 268               	.LM25:
 269               	.LVL15:
 270               	/* prologue: function */
 271               	/* frame size = 0 */
 272               	.LM26:
 273 0154 21E0      		ldi r18,lo8(1)
 274 0156 2093 0000 		sts local_fail,r18
 275               	.LM27:
 276 015a 2093 0000 		sts global_fail,r18
 277               	.LM28:
 278 015e 9093 0000 		sts (failpoint)+1,r25
 279 0162 8093 0000 		sts failpoint,r24
 280               	.LM29:
 281 0166 81E0      		ldi r24,lo8(1)
 282               	.LVL16:
 283               	/* epilogue start */
 284 0168 0895      		ret
 285               	.LFE15:
 287               	.global	_test_assert
 289               	_test_assert:
 290               	.LFB16:
 291               	.LM30:
 292               	.LVL17:
 293               	/* prologue: function */
 294               	/* frame size = 0 */
 295 016a 9C01      		movw r18,r24
 296               	.LM31:
 297 016c 6623      		tst r22
 298 016e 01F4      		brne .L29
 299               	.LVL18:
 300               	.LBB22:
 301               	.LBB23:
 302               	.LM32:
 303 0170 81E0      		ldi r24,lo8(1)
 304 0172 8093 0000 		sts local_fail,r24
 305               	.LM33:
 306 0176 8093 0000 		sts global_fail,r24
 307               	.LM34:
 308 017a 3093 0000 		sts (failpoint)+1,r19
 309 017e 2093 0000 		sts failpoint,r18
 310               	.LBE23:
 311               	.LBE22:
 312               	.LM35:
 313 0182 0895      		ret
 314               	.LVL19:
 315               	.L29:
 316               	.LM36:
 317 0184 80E0      		ldi r24,lo8(0)
 318 0186 0895      		ret
 319               	.LFE16:
 321               	.global	_test_assert_sequence
 323               	_test_assert_sequence:
 324               	.LFB17:
 325               	.LM37:
 326               	.LVL20:
 327               	/* prologue: function */
 328               	/* frame size = 0 */
 329 0188 AC01      		movw r20,r24
 330 018a DB01      		movw r26,r22
 331               	.LM38:
 332 018c 2091 0000 		lds r18,tokp
 333 0190 3091 0000 		lds r19,(tokp)+1
 334 0194 60E0      		ldi r22,lo8(tokens_buffer)
 335 0196 70E0      		ldi r23,hi8(tokens_buffer)
 336               	.LVL21:
 337 0198 FB01      		movw r30,r22
 338               	.LVL22:
 339 019a 00C0      		rjmp .L31
 340               	.LVL23:
 341               	.L32:
 342               	.LM39:
 343 019c 3196      		adiw r30,1
 344 019e 1196      		adiw r26,1
 345               	.LVL24:
 346               	.L31:
 347               	.LM40:
 348 01a0 E217      		cp r30,r18
 349 01a2 F307      		cpc r31,r19
 350 01a4 00F4      		brsh .L38
 351               	.LM41:
 352 01a6 9081      		ld r25,Z
 353 01a8 8C91      		ld r24,X
 354 01aa 9817      		cp r25,r24
 355 01ac 01F0      		breq .L32
 356               	.L37:
 357               	.LBB24:
 358               	.LBB25:
 359               	.LM42:
 360 01ae 81E0      		ldi r24,lo8(1)
 361 01b0 8093 0000 		sts local_fail,r24
 362               	.LM43:
 363 01b4 8093 0000 		sts global_fail,r24
 364               	.LM44:
 365 01b8 5093 0000 		sts (failpoint)+1,r21
 366 01bc 4093 0000 		sts failpoint,r20
 367 01c0 0895      		ret
 368               	.LVL25:
 369               	.L38:
 370               	.LBE25:
 371               	.LBE24:
 372               	.LM45:
 373 01c2 8C91      		ld r24,X
 374 01c4 8823      		tst r24
 375 01c6 01F4      		brne .L37
 376               	.LBB26:
 377               	.LBB27:
 378               	.LM46:
 379 01c8 7093 0000 		sts (tokp)+1,r23
 380 01cc 6093 0000 		sts tokp,r22
 381 01d0 80E0      		ldi r24,lo8(0)
 382               	.LBE27:
 383               	.LBE26:
 384               	.LM47:
 385 01d2 0895      		ret
 386               	.LFE17:
 388               	.global	test_cpu_pulse
 390               	test_cpu_pulse:
 391               	.LFB21:
 392               	.LM48:
 393               	.LVL26:
 394               	/* prologue: function */
 395               	/* frame size = 0 */
 396               	.LM49:
 397 01d4 E091 0000 		lds r30,rlist+11
 398 01d8 F091 0000 		lds r31,(rlist+11)+1
 399 01dc 4089      		ldd r20,Z+16
 400 01de 5189      		ldd r21,Z+17
 401               	.LVL27:
 402               	.LM50:
 403 01e0 840F      		add r24,r20
 404 01e2 951F      		adc r25,r21
 405               	.LVL28:
 406               	.L49:
 407               	.LM51:
 408 01e4 2089      		ldd r18,Z+16
 409 01e6 3189      		ldd r19,Z+17
 410               	.LM52:
 411 01e8 4817      		cp r20,r24
 412 01ea 5907      		cpc r21,r25
 413 01ec 00F4      		brsh .L40
 414 01ee 2417      		cp r18,r20
 415 01f0 3507      		cpc r19,r21
 416 01f2 00F4      		brsh .L51
 417 01f4 0895      		ret
 418               	.L40:
 419 01f6 2417      		cp r18,r20
 420 01f8 3507      		cpc r19,r21
 421 01fa 00F4      		brsh .L49
 422               	.L51:
 423 01fc 2817      		cp r18,r24
 424 01fe 3907      		cpc r19,r25
 425 0200 00F0      		brlo .L49
 426 0202 0895      		ret
 427               	.LFE21:
 430               	tmr:
 431               	.LFB23:
 432               	.LM53:
 433               	.LVL29:
 434               	/* prologue: function */
 435               	/* frame size = 0 */
 436               	.LM54:
 437 0204 81E0      		ldi r24,lo8(1)
 438               	.LVL30:
 439 0206 8093 0000 		sts test_timer_done,r24
 440               	/* epilogue start */
 441               	.LM55:
 442 020a 0895      		ret
 443               	.LFE23:
 446               	print_line:
 447               	.LFB26:
 448               	.LM56:
 449 020c CF93      		push r28
 450 020e DF93      		push r29
 451               	/* prologue: function */
 452               	/* frame size = 0 */
 453               	.LM57:
 454 0210 C0E0      		ldi r28,lo8(0)
 455 0212 D0E0      		ldi r29,hi8(0)
 456               	.LVL31:
 457               	.L55:
 458               	.LM58:
 459 0214 E091 0000 		lds r30,chp
 460 0218 F091 0000 		lds r31,(chp)+1
 461 021c A081      		ld r26,Z
 462 021e B181      		ldd r27,Z+1
 463 0220 1496      		adiw r26,4
 464 0222 2D91      		ld r18,X+
 465 0224 3C91      		ld r19,X
 466 0226 1597      		sbiw r26,4+1
 467 0228 CF01      		movw r24,r30
 468 022a 6DE2      		ldi r22,lo8(45)
 469 022c F901      		movw r30,r18
 470 022e 0995      		icall
 471               	.LM59:
 472 0230 2196      		adiw r28,1
 473 0232 CC34      		cpi r28,76
 474 0234 D105      		cpc r29,__zero_reg__
 475 0236 01F4      		brne .L55
 476               	.LM60:
 477 0238 E091 0000 		lds r30,chp
 478 023c F091 0000 		lds r31,(chp)+1
 479 0240 A081      		ld r26,Z
 480 0242 B181      		ldd r27,Z+1
 481 0244 2D91      		ld r18,X+
 482 0246 3C91      		ld r19,X
 483 0248 CF01      		movw r24,r30
 484 024a 60E0      		ldi r22,lo8(.LC0)
 485 024c 70E0      		ldi r23,hi8(.LC0)
 486 024e 42E0      		ldi r20,lo8(2)
 487 0250 50E0      		ldi r21,hi8(2)
 488 0252 F901      		movw r30,r18
 489 0254 0995      		icall
 490               	/* epilogue start */
 491               	.LM61:
 492 0256 DF91      		pop r29
 493 0258 CF91      		pop r28
 494               	.LVL32:
 495 025a 0895      		ret
 496               	.LFE26:
 498               	.global	test_wait_tick
 500               	test_wait_tick:
 501               	.LFB22:
 502               	.LM62:
 503               	/* prologue: function */
 504               	/* frame size = 0 */
 505               	.LM63:
 506 025c 81E0      		ldi r24,lo8(1)
 507 025e 90E0      		ldi r25,hi8(1)
 508 0260 0E94 0000 		call chThdSleep
 509               	.LM64:
 510 0264 2091 0000 		lds r18,vtlist+6
 511 0268 3091 0000 		lds r19,(vtlist+6)+1
 512               	.LM65:
 513 026c C901      		movw r24,r18
 514               	/* epilogue start */
 515 026e 0895      		ret
 516               	.LFE22:
 518               	.global	test_start_timer
 520               	test_start_timer:
 521               	.LFB24:
 522               	.LM66:
 523               	.LVL33:
 524               	/* prologue: function */
 525               	/* frame size = 0 */
 526 0270 BC01      		movw r22,r24
 527               	.LM67:
 528 0272 1092 0000 		sts test_timer_done,__zero_reg__
 529               	.LM68:
 530               	/* #APP */
 531               	 ;  280 "test/test.c" 1
 532 0276 F894      		cli
 533               	 ;  0 "" 2
 534               	/* #NOAPP */
 535 0278 80E0      		ldi r24,lo8(vt)
 536 027a 90E0      		ldi r25,hi8(vt)
 537               	.LVL34:
 538 027c 40E0      		ldi r20,lo8(gs(tmr))
 539 027e 50E0      		ldi r21,hi8(gs(tmr))
 540 0280 20E0      		ldi r18,lo8(0)
 541 0282 30E0      		ldi r19,hi8(0)
 542 0284 0E94 0000 		call chVTSetI
 543               	.LVL35:
 544               	/* #APP */
 545               	 ;  280 "test/test.c" 1
 546 0288 7894      		sei
 547               	 ;  0 "" 2
 548               	/* epilogue start */
 549               	.LM69:
 550               	/* #NOAPP */
 551 028a 0895      		ret
 552               	.LFE24:
 554               	.global	test_wait_threads
 556               	test_wait_threads:
 557               	.LFB20:
 558               	.LM70:
 559 028c CF93      		push r28
 560 028e DF93      		push r29
 561               	/* prologue: function */
 562               	/* frame size = 0 */
 563               	.LM71:
 564 0290 C0E0      		ldi r28,lo8(threads)
 565 0292 D0E0      		ldi r29,hi8(threads)
 566               	.L64:
 567               	.LM72:
 568 0294 8881      		ld r24,Y
 569 0296 9981      		ldd r25,Y+1
 570 0298 0097      		sbiw r24,0
 571 029a 01F0      		breq .L63
 572               	.LM73:
 573 029c 0E94 0000 		call chThdWait
 574               	.LM74:
 575 02a0 1982      		std Y+1,__zero_reg__
 576 02a2 1882      		st Y,__zero_reg__
 577               	.L63:
 578 02a4 2296      		adiw r28,2
 579               	.LM75:
 580 02a6 80E0      		ldi r24,hi8(threads+10)
 581 02a8 C030      		cpi r28,lo8(threads+10)
 582 02aa D807      		cpc r29,r24
 583 02ac 01F4      		brne .L64
 584               	/* epilogue start */
 585               	.LM76:
 586 02ae DF91      		pop r29
 587 02b0 CF91      		pop r28
 588 02b2 0895      		ret
 589               	.LFE20:
 591               		.data
 592               	.LC1:
 593 0003 00        		.string	""
 594               	.LC2:
 595 0004 2A2A 2A20 		.string	"*** ChibiOS/RT test suite"
 595      4368 6962 
 595      694F 532F 
 595      5254 2074 
 595      6573 7420 
 596               	.LC3:
 597 001e 2A2A 2A00 		.string	"***"
 598               	.LC4:
 599 0022 2A2A 2A20 		.string	"*** Kernel:       "
 599      4B65 726E 
 599      656C 3A20 
 599      2020 2020 
 599      2020 00
 600               	.LC5:
 601 0035 322E 352E 		.string	"2.5.2unstable"
 601      3275 6E73 
 601      7461 626C 
 601      6500 
 602               	.LC6:
 603 0043 2A2A 2A20 		.string	"*** Compiled:     "
 603      436F 6D70 
 603      696C 6564 
 603      3A20 2020 
 603      2020 00
 604               	.LC7:
 605 0056 4A61 6E20 		.string	"Jan 29 2013 - 13:52:08"
 605      3239 2032 
 605      3031 3320 
 605      2D20 3133 
 605      3A35 323A 
 606               	.LC8:
 607 006d 2A2A 2A20 		.string	"*** Compiler:     "
 607      436F 6D70 
 607      696C 6572 
 607      3A20 2020 
 607      2020 00
 608               	.LC9:
 609 0080 4743 4320 		.string	"GCC 4.3.3"
 609      342E 332E 
 609      3300 
 610               	.LC10:
 611 008a 2A2A 2A20 		.string	"*** Architecture: "
 611      4172 6368 
 611      6974 6563 
 611      7475 7265 
 611      3A20 00
 612               	.LC11:
 613 009d 4156 5200 		.string	"AVR"
 614               	.LC12:
 615 00a1 2A2A 2A20 		.string	"*** Core Variant: "
 615      436F 7265 
 615      2056 6172 
 615      6961 6E74 
 615      3A20 00
 616               	.LC13:
 617 00b4 4D65 6761 		.string	"MegaAVR"
 617      4156 5200 
 618               	.LC14:
 619 00bc 2A2A 2A20 		.string	"*** Port Info:    "
 619      506F 7274 
 619      2049 6E66 
 619      6F3A 2020 
 619      2020 00
 620               	.LC15:
 621 00cf 4E6F 6E65 		.string	"None"
 621      00
 622               	.LC16:
 623 00d4 2A2A 2A20 		.string	"*** Platform:     "
 623      506C 6174 
 623      666F 726D 
 623      3A20 2020 
 623      2020 00
 624               	.LC17:
 625 00e7 4154 6D65 		.string	"ATmega128"
 625      6761 3132 
 625      3800 
 626               	.LC18:
 627 00f1 2A2A 2A20 		.string	"*** Test Board:   "
 627      5465 7374 
 627      2042 6F61 
 627      7264 3A20 
 627      2020 00
 628               	.LC19:
 629 0104 4156 525F 		.string	"AVR_ATMEGA1284P"
 629      4154 4D45 
 629      4741 3132 
 629      3834 5000 
 630               	.LC20:
 631 0114 2D2D 2D20 		.string	"--- Test Case "
 631      5465 7374 
 631      2043 6173 
 631      6520 00
 632               	.LC21:
 633 0123 2E00      		.string	"."
 634               	.LC22:
 635 0125 2028 00   		.string	" ("
 636               	.LC23:
 637 0128 2900      		.string	")"
 638               	.LC24:
 639 012a 2D2D 2D20 		.string	"--- Result: FAILURE (#"
 639      5265 7375 
 639      6C74 3A20 
 639      4641 494C 
 639      5552 4520 
 640               	.LC25:
 641 0141 205B 00   		.string	" ["
 642               	.LC26:
 643 0144 5D29 00   		.string	"])"
 644               	.LC27:
 645 0147 2D2D 2D20 		.string	"--- Result: SUCCESS"
 645      5265 7375 
 645      6C74 3A20 
 645      5355 4343 
 645      4553 5300 
 646               	.LC28:
 647 015b 4669 6E61 		.string	"Final result: "
 647      6C20 7265 
 647      7375 6C74 
 647      3A20 00
 648               	.LC29:
 649 016a 4641 494C 		.string	"FAILURE"
 649      5552 4500 
 650               	.LC30:
 651 0172 5355 4343 		.string	"SUCCESS"
 651      4553 5300 
 652               		.text
 653               	.global	TestThread
 655               	TestThread:
 656               	.LFB27:
 657               	.LM77:
 658               	.LVL36:
 659 02b4 4F92      		push r4
 660 02b6 5F92      		push r5
 661 02b8 6F92      		push r6
 662 02ba 7F92      		push r7
 663 02bc 8F92      		push r8
 664 02be 9F92      		push r9
 665 02c0 AF92      		push r10
 666 02c2 BF92      		push r11
 667 02c4 CF92      		push r12
 668 02c6 DF92      		push r13
 669 02c8 EF92      		push r14
 670 02ca FF92      		push r15
 671 02cc 0F93      		push r16
 672 02ce 1F93      		push r17
 673 02d0 CF93      		push r28
 674 02d2 DF93      		push r29
 675               	/* prologue: function */
 676               	/* frame size = 0 */
 677               	.LM78:
 678 02d4 9093 0000 		sts (chp)+1,r25
 679 02d8 8093 0000 		sts chp,r24
 680               	.LM79:
 681 02dc 80E0      		ldi r24,lo8(.LC1)
 682 02de 90E0      		ldi r25,hi8(.LC1)
 683               	.LVL37:
 684 02e0 0E94 0000 		call test_println
 685               	.LM80:
 686 02e4 80E0      		ldi r24,lo8(.LC2)
 687 02e6 90E0      		ldi r25,hi8(.LC2)
 688 02e8 0E94 0000 		call test_println
 689               	.LM81:
 690 02ec 80E0      		ldi r24,lo8(.LC3)
 691 02ee 90E0      		ldi r25,hi8(.LC3)
 692 02f0 0E94 0000 		call test_println
 693               	.LM82:
 694 02f4 80E0      		ldi r24,lo8(.LC4)
 695 02f6 90E0      		ldi r25,hi8(.LC4)
 696 02f8 0E94 0000 		call test_print
 697               	.LM83:
 698 02fc 80E0      		ldi r24,lo8(.LC5)
 699 02fe 90E0      		ldi r25,hi8(.LC5)
 700 0300 0E94 0000 		call test_println
 701               	.LM84:
 702 0304 80E0      		ldi r24,lo8(.LC6)
 703 0306 90E0      		ldi r25,hi8(.LC6)
 704 0308 0E94 0000 		call test_print
 705               	.LM85:
 706 030c 80E0      		ldi r24,lo8(.LC7)
 707 030e 90E0      		ldi r25,hi8(.LC7)
 708 0310 0E94 0000 		call test_println
 709               	.LM86:
 710 0314 80E0      		ldi r24,lo8(.LC8)
 711 0316 90E0      		ldi r25,hi8(.LC8)
 712 0318 0E94 0000 		call test_print
 713               	.LM87:
 714 031c 80E0      		ldi r24,lo8(.LC9)
 715 031e 90E0      		ldi r25,hi8(.LC9)
 716 0320 0E94 0000 		call test_println
 717               	.LM88:
 718 0324 80E0      		ldi r24,lo8(.LC10)
 719 0326 90E0      		ldi r25,hi8(.LC10)
 720 0328 0E94 0000 		call test_print
 721               	.LM89:
 722 032c 80E0      		ldi r24,lo8(.LC11)
 723 032e 90E0      		ldi r25,hi8(.LC11)
 724 0330 0E94 0000 		call test_println
 725               	.LM90:
 726 0334 80E0      		ldi r24,lo8(.LC12)
 727 0336 90E0      		ldi r25,hi8(.LC12)
 728 0338 0E94 0000 		call test_print
 729               	.LM91:
 730 033c 80E0      		ldi r24,lo8(.LC13)
 731 033e 90E0      		ldi r25,hi8(.LC13)
 732 0340 0E94 0000 		call test_println
 733               	.LM92:
 734 0344 80E0      		ldi r24,lo8(.LC14)
 735 0346 90E0      		ldi r25,hi8(.LC14)
 736 0348 0E94 0000 		call test_print
 737               	.LM93:
 738 034c 80E0      		ldi r24,lo8(.LC15)
 739 034e 90E0      		ldi r25,hi8(.LC15)
 740 0350 0E94 0000 		call test_println
 741               	.LM94:
 742 0354 80E0      		ldi r24,lo8(.LC16)
 743 0356 90E0      		ldi r25,hi8(.LC16)
 744 0358 0E94 0000 		call test_print
 745               	.LM95:
 746 035c 80E0      		ldi r24,lo8(.LC17)
 747 035e 90E0      		ldi r25,hi8(.LC17)
 748 0360 0E94 0000 		call test_println
 749               	.LM96:
 750 0364 80E0      		ldi r24,lo8(.LC18)
 751 0366 90E0      		ldi r25,hi8(.LC18)
 752 0368 0E94 0000 		call test_print
 753               	.LM97:
 754 036c 80E0      		ldi r24,lo8(.LC19)
 755 036e 90E0      		ldi r25,hi8(.LC19)
 756 0370 0E94 0000 		call test_println
 757               	.LM98:
 758 0374 80E0      		ldi r24,lo8(.LC1)
 759 0376 90E0      		ldi r25,hi8(.LC1)
 760 0378 0E94 0000 		call test_println
 761               	.LM99:
 762 037c 1092 0000 		sts global_fail,__zero_reg__
 763 0380 40E0      		ldi r20,lo8(patterns+2)
 764 0382 442E      		mov r4,r20
 765 0384 40E0      		ldi r20,hi8(patterns+2)
 766 0386 542E      		mov r5,r20
 767 0388 80E0      		ldi r24,lo8(patternthd)
 768 038a 90E0      		ldi r25,hi8(patternthd)
 769 038c 31E0      		ldi r19,lo8(1)
 770 038e 832E      		mov r8,r19
 771 0390 912C      		mov r9,__zero_reg__
 772 0392 A12C      		mov r10,__zero_reg__
 773 0394 B12C      		mov r11,__zero_reg__
 774               	.LBB28:
 775               	.LBB29:
 776               	.LBB30:
 777               	.LBB31:
 778               	.LM100:
 779 0396 20E0      		ldi r18,lo8(tokens_buffer)
 780 0398 622E      		mov r6,r18
 781 039a 20E0      		ldi r18,hi8(tokens_buffer)
 782 039c 722E      		mov r7,r18
 783               	.LVL38:
 784               	.L68:
 785               	.LBE31:
 786               	.LBE30:
 787               	.LBE29:
 788               	.LBE28:
 789               	.LM101:
 790 039e 6C01      		movw r12,r24
 791 03a0 81E0      		ldi r24,lo8(1)
 792 03a2 E82E      		mov r14,r24
 793 03a4 F12C      		mov r15,__zero_reg__
 794 03a6 012D      		mov r16,__zero_reg__
 795 03a8 112D      		mov r17,__zero_reg__
 796               	.LM102:
 797 03aa D601      		movw r26,r12
 798 03ac 8D91      		ld r24,X+
 799 03ae 9C91      		ld r25,X
 800 03b0 892B      		or r24,r25
 801 03b2 01F4      		brne .+2
 802 03b4 00C0      		rjmp .L82
 803               	.L75:
 804               	.LM103:
 805 03b6 0E94 0000 		call print_line
 806               	.LM104:
 807 03ba 80E0      		ldi r24,lo8(.LC20)
 808 03bc 90E0      		ldi r25,hi8(.LC20)
 809 03be 0E94 0000 		call test_print
 810               	.LM105:
 811 03c2 C501      		movw r24,r10
 812 03c4 B401      		movw r22,r8
 813 03c6 0E94 0000 		call test_printn
 814               	.LM106:
 815 03ca 80E0      		ldi r24,lo8(.LC21)
 816 03cc 90E0      		ldi r25,hi8(.LC21)
 817 03ce 0E94 0000 		call test_print
 818               	.LM107:
 819 03d2 C801      		movw r24,r16
 820 03d4 B701      		movw r22,r14
 821 03d6 0E94 0000 		call test_printn
 822               	.LM108:
 823 03da 80E0      		ldi r24,lo8(.LC22)
 824 03dc 90E0      		ldi r25,hi8(.LC22)
 825 03de 0E94 0000 		call test_print
 826               	.LM109:
 827 03e2 D601      		movw r26,r12
 828 03e4 ED91      		ld r30,X+
 829 03e6 FC91      		ld r31,X
 830 03e8 8081      		ld r24,Z
 831 03ea 9181      		ldd r25,Z+1
 832 03ec 0E94 0000 		call test_print
 833               	.LM110:
 834 03f0 80E0      		ldi r24,lo8(.LC23)
 835 03f2 90E0      		ldi r25,hi8(.LC23)
 836 03f4 0E94 0000 		call test_println
 837               	.LM111:
 838 03f8 88EC      		ldi r24,lo8(200)
 839 03fa 90E0      		ldi r25,hi8(200)
 840 03fc 0E94 0000 		call chThdSleep
 841               	.LM112:
 842 0400 F601      		movw r30,r12
 843 0402 C081      		ld r28,Z
 844 0404 D181      		ldd r29,Z+1
 845               	.LBB35:
 846               	.LBB34:
 847               	.LBB33:
 848               	.LBB32:
 849               	.LM113:
 850 0406 7092 0000 		sts (tokp)+1,r7
 851 040a 6092 0000 		sts tokp,r6
 852               	.LBE32:
 853               	.LBE33:
 854               	.LM114:
 855 040e 1092 0000 		sts local_fail,__zero_reg__
 856               	.LM115:
 857 0412 1092 0000 		sts (threads)+1,__zero_reg__
 858 0416 1092 0000 		sts threads,__zero_reg__
 859 041a 1092 0000 		sts (threads+2)+1,__zero_reg__
 860 041e 1092 0000 		sts threads+2,__zero_reg__
 861 0422 1092 0000 		sts (threads+4)+1,__zero_reg__
 862 0426 1092 0000 		sts threads+4,__zero_reg__
 863 042a 1092 0000 		sts (threads+6)+1,__zero_reg__
 864 042e 1092 0000 		sts threads+6,__zero_reg__
 865 0432 1092 0000 		sts (threads+8)+1,__zero_reg__
 866 0436 1092 0000 		sts threads+8,__zero_reg__
 867               	.LM116:
 868 043a EA81      		ldd r30,Y+2
 869 043c FB81      		ldd r31,Y+3
 870 043e 3097      		sbiw r30,0
 871 0440 01F0      		breq .L69
 872               	.LM117:
 873 0442 0995      		icall
 874               	.L69:
 875               	.LM118:
 876 0444 EE81      		ldd r30,Y+6
 877 0446 FF81      		ldd r31,Y+7
 878 0448 0995      		icall
 879               	.LM119:
 880 044a EC81      		ldd r30,Y+4
 881 044c FD81      		ldd r31,Y+5
 882 044e 3097      		sbiw r30,0
 883 0450 01F0      		breq .L70
 884               	.LM120:
 885 0452 0995      		icall
 886               	.L70:
 887               	.LM121:
 888 0454 0E94 0000 		call test_wait_threads
 889               	.LBE34:
 890               	.LBE35:
 891               	.LM122:
 892 0458 8091 0000 		lds r24,local_fail
 893 045c 8823      		tst r24
 894 045e 01F4      		brne .+2
 895 0460 00C0      		rjmp .L71
 896               	.LM123:
 897 0462 80E0      		ldi r24,lo8(.LC24)
 898 0464 90E0      		ldi r25,hi8(.LC24)
 899 0466 0E94 0000 		call test_print
 900               	.LM124:
 901 046a 6091 0000 		lds r22,failpoint
 902 046e 7091 0000 		lds r23,(failpoint)+1
 903 0472 80E0      		ldi r24,lo8(0)
 904 0474 90E0      		ldi r25,hi8(0)
 905 0476 0E94 0000 		call test_printn
 906               	.LM125:
 907 047a 80E0      		ldi r24,lo8(.LC25)
 908 047c 90E0      		ldi r25,hi8(.LC25)
 909 047e 0E94 0000 		call test_print
 910               	.LBB36:
 911               	.LBB37:
 912               	.LM126:
 913 0482 8091 0000 		lds r24,tokp
 914 0486 9091 0000 		lds r25,(tokp)+1
 915 048a 8050      		subi r24,lo8(tokens_buffer)
 916 048c 9040      		sbci r25,hi8(tokens_buffer)
 917 048e 01F0      		breq .L72
 918 0490 00F0      		brlo .L72
 919 0492 C0E0      		ldi r28,lo8(tokens_buffer)
 920 0494 D0E0      		ldi r29,hi8(tokens_buffer)
 921               	.LVL39:
 922               	.L73:
 923               	.LM127:
 924 0496 A091 0000 		lds r26,chp
 925 049a B091 0000 		lds r27,(chp)+1
 926 049e 6991      		ld r22,Y+
 927 04a0 ED91      		ld r30,X+
 928 04a2 FC91      		ld r31,X
 929 04a4 1197      		sbiw r26,1
 930 04a6 0480      		ldd __tmp_reg__,Z+4
 931 04a8 F581      		ldd r31,Z+5
 932 04aa E02D      		mov r30,__tmp_reg__
 933 04ac CD01      		movw r24,r26
 934 04ae 0995      		icall
 935               	.LM128:
 936 04b0 8091 0000 		lds r24,tokp
 937 04b4 9091 0000 		lds r25,(tokp)+1
 938 04b8 C817      		cp r28,r24
 939 04ba D907      		cpc r29,r25
 940 04bc 00F0      		brlo .L73
 941               	.LVL40:
 942               	.L72:
 943               	.LBE37:
 944               	.LBE36:
 945               	.LM129:
 946 04be 80E0      		ldi r24,lo8(.LC26)
 947 04c0 90E0      		ldi r25,hi8(.LC26)
 948 04c2 0E94 0000 		call test_println
 949               	.LVL41:
 950               	.L74:
 951               	.LM130:
 952 04c6 82E0      		ldi r24,lo8(2)
 953 04c8 90E0      		ldi r25,hi8(2)
 954 04ca C80E      		add r12,r24
 955 04cc D91E      		adc r13,r25
 956 04ce 0894      		sec
 957 04d0 E11C      		adc r14,__zero_reg__
 958 04d2 F11C      		adc r15,__zero_reg__
 959 04d4 011D      		adc r16,__zero_reg__
 960 04d6 111D      		adc r17,__zero_reg__
 961               	.LM131:
 962 04d8 D601      		movw r26,r12
 963 04da 8D91      		ld r24,X+
 964 04dc 9C91      		ld r25,X
 965 04de 892B      		or r24,r25
 966 04e0 01F0      		breq .+2
 967 04e2 00C0      		rjmp .L75
 968               	.L82:
 969               	.LM132:
 970 04e4 F201      		movw r30,r4
 971 04e6 8191      		ld r24,Z+
 972 04e8 9191      		ld r25,Z+
 973 04ea 2F01      		movw r4,r30
 974 04ec 0894      		sec
 975 04ee 811C      		adc r8,__zero_reg__
 976 04f0 911C      		adc r9,__zero_reg__
 977 04f2 A11C      		adc r10,__zero_reg__
 978 04f4 B11C      		adc r11,__zero_reg__
 979 04f6 0097      		sbiw r24,0
 980 04f8 01F0      		breq .+2
 981 04fa 00C0      		rjmp .L68
 982               	.LM133:
 983 04fc 0E94 0000 		call print_line
 984               	.LM134:
 985 0500 80E0      		ldi r24,lo8(.LC1)
 986 0502 90E0      		ldi r25,hi8(.LC1)
 987 0504 0E94 0000 		call test_println
 988               	.LM135:
 989 0508 80E0      		ldi r24,lo8(.LC28)
 990 050a 90E0      		ldi r25,hi8(.LC28)
 991 050c 0E94 0000 		call test_print
 992               	.LM136:
 993 0510 8091 0000 		lds r24,global_fail
 994 0514 8823      		tst r24
 995 0516 01F4      		brne .L83
 996               	.LM137:
 997 0518 80E0      		ldi r24,lo8(.LC30)
 998 051a 90E0      		ldi r25,hi8(.LC30)
 999 051c 0E94 0000 		call test_println
 1000               	.L79:
 1001 0520 2091 0000 		lds r18,global_fail
 1002 0524 3327      		clr r19
 1003 0526 27FD      		sbrc r18,7
 1004 0528 3095      		com r19
 1005               	.LM138:
 1006 052a C901      		movw r24,r18
 1007               	/* epilogue start */
 1008 052c DF91      		pop r29
 1009 052e CF91      		pop r28
 1010 0530 1F91      		pop r17
 1011 0532 0F91      		pop r16
 1012 0534 FF90      		pop r15
 1013 0536 EF90      		pop r14
 1014 0538 DF90      		pop r13
 1015 053a CF90      		pop r12
 1016 053c BF90      		pop r11
 1017 053e AF90      		pop r10
 1018 0540 9F90      		pop r9
 1019 0542 8F90      		pop r8
 1020 0544 7F90      		pop r7
 1021 0546 6F90      		pop r6
 1022               	.LVL42:
 1023 0548 5F90      		pop r5
 1024 054a 4F90      		pop r4
 1025 054c 0895      		ret
 1026               	.LVL43:
 1027               	.L71:
 1028               	.LM139:
 1029 054e 80E0      		ldi r24,lo8(.LC27)
 1030 0550 90E0      		ldi r25,hi8(.LC27)
 1031 0552 0E94 0000 		call test_println
 1032 0556 00C0      		rjmp .L74
 1033               	.LVL44:
 1034               	.L83:
 1035               	.LM140:
 1036 0558 80E0      		ldi r24,lo8(.LC29)
 1037 055a 90E0      		ldi r25,hi8(.LC29)
 1038 055c 0E94 0000 		call test_println
 1039 0560 00C0      		rjmp .L79
 1040               	.LFE27:
 1042               	.global	test_terminate_threads
 1044               	test_terminate_threads:
 1045               	.LFB19:
 1046               	.LM141:
 1047 0562 CF93      		push r28
 1048 0564 DF93      		push r29
 1049               	/* prologue: function */
 1050               	/* frame size = 0 */
 1051               	.LM142:
 1052 0566 C0E0      		ldi r28,lo8(threads)
 1053 0568 D0E0      		ldi r29,hi8(threads)
 1054               	.L86:
 1055               	.LM143:
 1056 056a 8881      		ld r24,Y
 1057 056c 9981      		ldd r25,Y+1
 1058 056e 0097      		sbiw r24,0
 1059 0570 01F0      		breq .L85
 1060               	.LM144:
 1061 0572 0E94 0000 		call chThdTerminate
 1062               	.L85:
 1063 0576 2296      		adiw r28,2
 1064               	.LM145:
 1065 0578 80E0      		ldi r24,hi8(threads+10)
 1066 057a C030      		cpi r28,lo8(threads+10)
 1067 057c D807      		cpc r29,r24
 1068 057e 01F4      		brne .L86
 1069               	/* epilogue start */
 1070               	.LM146:
 1071 0580 DF91      		pop r29
 1072 0582 CF91      		pop r28
 1073 0584 0895      		ret
 1074               	.LFE19:
 1076               	.global	_test_assert_time_window
 1078               	_test_assert_time_window:
 1079               	.LFB18:
 1080               	.LM147:
 1081               	.LVL45:
 1082 0586 CF93      		push r28
 1083 0588 DF93      		push r29
 1084               	/* prologue: function */
 1085               	/* frame size = 0 */
 1086 058a EC01      		movw r28,r24
 1087 058c CB01      		movw r24,r22
 1088               	.LVL46:
 1089               	.LM148:
 1090 058e BA01      		movw r22,r20
 1091               	.LVL47:
 1092 0590 0E94 0000 		call chTimeIsWithin
 1093               	.LVL48:
 1094               	.LBB38:
 1095               	.LBB39:
 1096               	.LM149:
 1097 0594 8823      		tst r24
 1098 0596 01F4      		brne .L93
 1099               	.LBB40:
 1100               	.LBB41:
 1101               	.LM150:
 1102 0598 81E0      		ldi r24,lo8(1)
 1103 059a 8093 0000 		sts local_fail,r24
 1104               	.LM151:
 1105 059e 8093 0000 		sts global_fail,r24
 1106               	.LM152:
 1107 05a2 D093 0000 		sts (failpoint)+1,r29
 1108 05a6 C093 0000 		sts failpoint,r28
 1109               	/* epilogue start */
 1110               	.LBE41:
 1111               	.LBE40:
 1112               	.LBE39:
 1113               	.LBE38:
 1114               	.LM153:
 1115 05aa DF91      		pop r29
 1116 05ac CF91      		pop r28
 1117               	.LVL49:
 1118 05ae 0895      		ret
 1119               	.LVL50:
 1120               	.L93:
 1121               	.LBB43:
 1122               	.LBB42:
 1123               	.LM154:
 1124 05b0 80E0      		ldi r24,lo8(0)
 1125               	.LBE42:
 1126               	.LBE43:
 1127               	.LM155:
 1128 05b2 DF91      		pop r29
 1129 05b4 CF91      		pop r28
 1130               	.LVL51:
 1131 05b6 0895      		ret
 1132               	.LFE18:
 1134               	.global	wa
 1135               		.data
 1138               	wa:
 1139 017a 0000      		.word	test
 1140 017c 0000      		.word	test+149
 1141 017e 0000      		.word	test+298
 1142 0180 0000      		.word	test+447
 1143 0182 0000      		.word	test+596
 1146               	patterns:
 1147 0184 0000      		.word	patternthd
 1148 0186 0000      		.word	patternsem
 1149 0188 0000      		.word	patternmtx
 1150 018a 0000      		.word	patternmsg
 1151 018c 0000      		.word	patternmbox
 1152 018e 0000      		.word	patternevt
 1153 0190 0000      		.word	patternheap
 1154 0192 0000      		.word	patternpools
 1155 0194 0000      		.word	patterndyn
 1156 0196 0000      		.word	patternqueues
 1157 0198 0000      		.word	patternbmk
 1158 019a 0000      		.word	0
 1159               		.lcomm local_fail,1
 1160               		.lcomm global_fail,1
 1161               		.lcomm failpoint,2
 1162               		.lcomm tokens_buffer,16
 1163               		.lcomm tokp,2
 1164               		.lcomm chp,2
 1165               		.lcomm vt,10
 1166               		.comm threads,10,1
 1167               		.comm test,745,1
 1168               		.comm test_timer_done,1,1
 1313               	.Letext0:
DEFINED SYMBOLS
                            *ABS*:00000000 test.c
/var/folders/8w/bxlddk455k9cddvwz9khk6br0000gn/T//cc47QCzN.s:2      *ABS*:0000003f __SREG__
/var/folders/8w/bxlddk455k9cddvwz9khk6br0000gn/T//cc47QCzN.s:3      *ABS*:0000003e __SP_H__
/var/folders/8w/bxlddk455k9cddvwz9khk6br0000gn/T//cc47QCzN.s:4      *ABS*:0000003d __SP_L__
/var/folders/8w/bxlddk455k9cddvwz9khk6br0000gn/T//cc47QCzN.s:5      *ABS*:00000034 __CCP__
/var/folders/8w/bxlddk455k9cddvwz9khk6br0000gn/T//cc47QCzN.s:6      *ABS*:00000000 __tmp_reg__
/var/folders/8w/bxlddk455k9cddvwz9khk6br0000gn/T//cc47QCzN.s:7      *ABS*:00000001 __zero_reg__
/var/folders/8w/bxlddk455k9cddvwz9khk6br0000gn/T//cc47QCzN.s:18     .text:00000000 test_printn
/var/folders/8w/bxlddk455k9cddvwz9khk6br0000gn/T//cc47QCzN.s:1163   .bss:00000016 chp
/var/folders/8w/bxlddk455k9cddvwz9khk6br0000gn/T//cc47QCzN.s:157    .text:000000e4 test_print
/var/folders/8w/bxlddk455k9cddvwz9khk6br0000gn/T//cc47QCzN.s:205    .text:00000118 test_println
/var/folders/8w/bxlddk455k9cddvwz9khk6br0000gn/T//cc47QCzN.s:235    .text:0000013c test_emit_token
/var/folders/8w/bxlddk455k9cddvwz9khk6br0000gn/T//cc47QCzN.s:1162   .bss:00000014 tokp
/var/folders/8w/bxlddk455k9cddvwz9khk6br0000gn/T//cc47QCzN.s:266    .text:00000154 _test_fail
                             .bss:00000000 local_fail
/var/folders/8w/bxlddk455k9cddvwz9khk6br0000gn/T//cc47QCzN.s:1159   .bss:00000001 global_fail
/var/folders/8w/bxlddk455k9cddvwz9khk6br0000gn/T//cc47QCzN.s:1160   .bss:00000002 failpoint
/var/folders/8w/bxlddk455k9cddvwz9khk6br0000gn/T//cc47QCzN.s:289    .text:0000016a _test_assert
/var/folders/8w/bxlddk455k9cddvwz9khk6br0000gn/T//cc47QCzN.s:323    .text:00000188 _test_assert_sequence
/var/folders/8w/bxlddk455k9cddvwz9khk6br0000gn/T//cc47QCzN.s:1161   .bss:00000004 tokens_buffer
/var/folders/8w/bxlddk455k9cddvwz9khk6br0000gn/T//cc47QCzN.s:390    .text:000001d4 test_cpu_pulse
/var/folders/8w/bxlddk455k9cddvwz9khk6br0000gn/T//cc47QCzN.s:430    .text:00000204 tmr
                            *COM*:00000001 test_timer_done
/var/folders/8w/bxlddk455k9cddvwz9khk6br0000gn/T//cc47QCzN.s:446    .text:0000020c print_line
/var/folders/8w/bxlddk455k9cddvwz9khk6br0000gn/T//cc47QCzN.s:500    .text:0000025c test_wait_tick
/var/folders/8w/bxlddk455k9cddvwz9khk6br0000gn/T//cc47QCzN.s:520    .text:00000270 test_start_timer
/var/folders/8w/bxlddk455k9cddvwz9khk6br0000gn/T//cc47QCzN.s:1164   .bss:00000018 vt
/var/folders/8w/bxlddk455k9cddvwz9khk6br0000gn/T//cc47QCzN.s:556    .text:0000028c test_wait_threads
                            *COM*:0000000a threads
/var/folders/8w/bxlddk455k9cddvwz9khk6br0000gn/T//cc47QCzN.s:655    .text:000002b4 TestThread
/var/folders/8w/bxlddk455k9cddvwz9khk6br0000gn/T//cc47QCzN.s:1146   .data:00000184 patterns
/var/folders/8w/bxlddk455k9cddvwz9khk6br0000gn/T//cc47QCzN.s:1044   .text:00000562 test_terminate_threads
/var/folders/8w/bxlddk455k9cddvwz9khk6br0000gn/T//cc47QCzN.s:1078   .text:00000586 _test_assert_time_window
/var/folders/8w/bxlddk455k9cddvwz9khk6br0000gn/T//cc47QCzN.s:1138   .data:0000017a wa
                            *COM*:000002e9 test

UNDEFINED SYMBOLS
__udivmodsi4
rlist
chThdSleep
vtlist
chVTSetI
chThdWait
patternthd
chThdTerminate
chTimeIsWithin
patternsem
patternmtx
patternmsg
patternmbox
patternevt
patternheap
patternpools
patterndyn
patternqueues
patternbmk
__do_copy_data
__do_clear_bss
