   1               		.file	"testmbox.c"
   2               	__SREG__ = 0x3f
   3               	__SP_H__ = 0x3e
   4               	__SP_L__ = 0x3d
   5               	__CCP__  = 0x34
   6               	__tmp_reg__ = 0
   7               	__zero_reg__ = 1
  15               	.Ltext0:
  16               		.data
  17               	.LC0:
  18 0000 4142 4344 		.string	"ABCDE"
  18      4500 
  19               		.text
  21               	mbox1_execute:
  22               	.LFB10:
  23               	.LM1:
  24 0000 EF92      		push r14
  25 0002 FF92      		push r15
  26 0004 0F93      		push r16
  27 0006 1F93      		push r17
  28 0008 DF93      		push r29
  29 000a CF93      		push r28
  30 000c 00D0      		rcall .
  31 000e CDB7      		in r28,__SP_L__
  32 0010 DEB7      		in r29,__SP_H__
  33               	/* prologue: function */
  34               	/* frame size = 2 */
  35               	.LM2:
  36 0012 60E0      		ldi r22,lo8(0)
  37 0014 8091 0000 		lds r24,mb1+17
  38 0018 8530      		cpi r24,lo8(5)
  39 001a 01F0      		breq .L71
  40               	.L2:
  41 001c 81E0      		ldi r24,lo8(1)
  42 001e 90E0      		ldi r25,hi8(1)
  43 0020 0E94 0000 		call _test_assert
  44 0024 8823      		tst r24
  45 0026 01F4      		brne .L65
  46 0028 02E4      		ldi r16,lo8(66)
  47 002a 10E0      		ldi r17,hi8(66)
  48               	.L5:
  49               	.LM3:
  50 002c 80E0      		ldi r24,lo8(mb1)
  51 002e 90E0      		ldi r25,hi8(mb1)
  52 0030 B801      		movw r22,r16
  53 0032 4FEF      		ldi r20,lo8(-1)
  54 0034 5FEF      		ldi r21,hi8(-1)
  55 0036 0E94 0000 		call chMBPost
  56               	.LM4:
  57 003a 60E0      		ldi r22,lo8(0)
  58 003c 892B      		or r24,r25
  59 003e 01F4      		brne .L4
  60 0040 61E0      		ldi r22,lo8(1)
  61               	.L4:
  62 0042 82E0      		ldi r24,lo8(2)
  63 0044 90E0      		ldi r25,hi8(2)
  64 0046 0E94 0000 		call _test_assert
  65 004a 8823      		tst r24
  66 004c 01F4      		brne .L65
  67 004e 0F5F      		subi r16,lo8(-(1))
  68 0050 1F4F      		sbci r17,hi8(-(1))
  69               	.LM5:
  70 0052 0634      		cpi r16,70
  71 0054 1105      		cpc r17,__zero_reg__
  72 0056 01F4      		brne .L5
  73               	.LM6:
  74 0058 80E0      		ldi r24,lo8(mb1)
  75 005a 90E0      		ldi r25,hi8(mb1)
  76 005c 61E4      		ldi r22,lo8(65)
  77 005e 70E0      		ldi r23,hi8(65)
  78 0060 4FEF      		ldi r20,lo8(-1)
  79 0062 5FEF      		ldi r21,hi8(-1)
  80 0064 0E94 0000 		call chMBPostAhead
  81               	.LM7:
  82 0068 60E0      		ldi r22,lo8(0)
  83 006a 892B      		or r24,r25
  84 006c 01F4      		brne .L6
  85 006e 61E0      		ldi r22,lo8(1)
  86               	.L6:
  87 0070 83E0      		ldi r24,lo8(3)
  88 0072 90E0      		ldi r25,hi8(3)
  89 0074 0E94 0000 		call _test_assert
  90 0078 8823      		tst r24
  91 007a 01F0      		breq .L72
  92               	.LVL0:
  93               	.L65:
  94               	/* epilogue start */
  95               	.LM8:
  96 007c 0F90      		pop __tmp_reg__
  97 007e 0F90      		pop __tmp_reg__
  98 0080 CF91      		pop r28
  99 0082 DF91      		pop r29
 100 0084 1F91      		pop r17
 101 0086 0F91      		pop r16
 102               	.LVL1:
 103 0088 FF90      		pop r15
 104 008a EF90      		pop r14
 105 008c 0895      		ret
 106               	.LVL2:
 107               	.L71:
 108               	.LM9:
 109 008e 61E0      		ldi r22,lo8(1)
 110 0090 00C0      		rjmp .L2
 111               	.L72:
 112               	.LM10:
 113 0092 80E0      		ldi r24,lo8(mb1)
 114 0094 90E0      		ldi r25,hi8(mb1)
 115 0096 68E5      		ldi r22,lo8(88)
 116 0098 70E0      		ldi r23,hi8(88)
 117 009a 41E0      		ldi r20,lo8(1)
 118 009c 50E0      		ldi r21,hi8(1)
 119 009e 0E94 0000 		call chMBPost
 120               	.LM11:
 121 00a2 60E0      		ldi r22,lo8(0)
 122 00a4 8F5F      		subi r24,lo8(-1)
 123 00a6 9F4F      		sbci r25,hi8(-1)
 124 00a8 01F4      		brne .+2
 125 00aa 00C0      		rjmp .L73
 126               	.L7:
 127 00ac 84E0      		ldi r24,lo8(4)
 128 00ae 90E0      		ldi r25,hi8(4)
 129 00b0 0E94 0000 		call _test_assert
 130 00b4 8823      		tst r24
 131 00b6 01F4      		brne .L65
 132               	.LM12:
 133               	/* #APP */
 134               	 ;  104 "test/testmbox.c" 1
 135 00b8 F894      		cli
 136               	 ;  0 "" 2
 137               	.LM13:
 138               	/* #NOAPP */
 139 00ba 80E0      		ldi r24,lo8(mb1)
 140 00bc 90E0      		ldi r25,hi8(mb1)
 141 00be 68E5      		ldi r22,lo8(88)
 142 00c0 70E0      		ldi r23,hi8(88)
 143 00c2 0E94 0000 		call chMBPostI
 144               	.LM14:
 145               	/* #APP */
 146               	 ;  106 "test/testmbox.c" 1
 147 00c6 7894      		sei
 148               	 ;  0 "" 2
 149               	.LM15:
 150               	/* #NOAPP */
 151 00c8 60E0      		ldi r22,lo8(0)
 152 00ca 8F5F      		subi r24,lo8(-1)
 153 00cc 9F4F      		sbci r25,hi8(-1)
 154               	.LVL3:
 155 00ce 01F4      		brne .+2
 156 00d0 00C0      		rjmp .L74
 157               	.L8:
 158 00d2 85E0      		ldi r24,lo8(5)
 159 00d4 90E0      		ldi r25,hi8(5)
 160               	.LVL4:
 161 00d6 0E94 0000 		call _test_assert
 162 00da 8823      		tst r24
 163 00dc 01F4      		brne .L65
 164               	.LM16:
 165 00de 80E0      		ldi r24,lo8(mb1)
 166 00e0 90E0      		ldi r25,hi8(mb1)
 167 00e2 68E5      		ldi r22,lo8(88)
 168 00e4 70E0      		ldi r23,hi8(88)
 169 00e6 41E0      		ldi r20,lo8(1)
 170 00e8 50E0      		ldi r21,hi8(1)
 171 00ea 0E94 0000 		call chMBPostAhead
 172               	.LM17:
 173 00ee 60E0      		ldi r22,lo8(0)
 174 00f0 8F5F      		subi r24,lo8(-1)
 175 00f2 9F4F      		sbci r25,hi8(-1)
 176 00f4 01F0      		breq .L75
 177               	.L9:
 178 00f6 86E0      		ldi r24,lo8(6)
 179 00f8 90E0      		ldi r25,hi8(6)
 180 00fa 0E94 0000 		call _test_assert
 181 00fe 8823      		tst r24
 182 0100 01F0      		breq .+2
 183 0102 00C0      		rjmp .L65
 184               	.LM18:
 185               	/* #APP */
 186               	 ;  110 "test/testmbox.c" 1
 187 0104 F894      		cli
 188               	 ;  0 "" 2
 189               	.LM19:
 190               	/* #NOAPP */
 191 0106 80E0      		ldi r24,lo8(mb1)
 192 0108 90E0      		ldi r25,hi8(mb1)
 193 010a 68E5      		ldi r22,lo8(88)
 194 010c 70E0      		ldi r23,hi8(88)
 195 010e 0E94 0000 		call chMBPostAheadI
 196               	.LM20:
 197               	/* #APP */
 198               	 ;  112 "test/testmbox.c" 1
 199 0112 7894      		sei
 200               	 ;  0 "" 2
 201               	.LM21:
 202               	/* #NOAPP */
 203 0114 60E0      		ldi r22,lo8(0)
 204 0116 8F5F      		subi r24,lo8(-1)
 205 0118 9F4F      		sbci r25,hi8(-1)
 206               	.LVL5:
 207 011a 01F0      		breq .L76
 208               	.L10:
 209 011c 87E0      		ldi r24,lo8(7)
 210 011e 90E0      		ldi r25,hi8(7)
 211               	.LVL6:
 212 0120 0E94 0000 		call _test_assert
 213 0124 8823      		tst r24
 214 0126 01F0      		breq .+2
 215 0128 00C0      		rjmp .L65
 216               	.LM22:
 217               	/* #APP */
 218               	 ;  118 "test/testmbox.c" 1
 219 012a F894      		cli
 220               	 ;  0 "" 2
 221               	/* #NOAPP */
 222 012c 60E0      		ldi r22,lo8(0)
 223 012e 8091 0000 		lds r24,mb1+17
 224 0132 8823      		tst r24
 225 0134 01F4      		brne .L11
 226 0136 61E0      		ldi r22,lo8(1)
 227               	.L11:
 228 0138 88E0      		ldi r24,lo8(8)
 229 013a 90E0      		ldi r25,hi8(8)
 230 013c 0E94 0000 		call _test_assert
 231 0140 8823      		tst r24
 232 0142 01F0      		breq .L12
 233               	/* #APP */
 234               	 ;  118 "test/testmbox.c" 1
 235 0144 7894      		sei
 236               	 ;  0 "" 2
 237               	/* #NOAPP */
 238 0146 00C0      		rjmp .L65
 239               	.LVL7:
 240               	.L74:
 241               	.LM23:
 242 0148 61E0      		ldi r22,lo8(1)
 243 014a 00C0      		rjmp .L8
 244               	.LVL8:
 245               	.L73:
 246               	.LM24:
 247 014c 61E0      		ldi r22,lo8(1)
 248 014e 00C0      		rjmp .L7
 249               	.L75:
 250               	.LM25:
 251 0150 61E0      		ldi r22,lo8(1)
 252 0152 00C0      		rjmp .L9
 253               	.LVL9:
 254               	.L76:
 255               	.LM26:
 256 0154 61E0      		ldi r22,lo8(1)
 257 0156 00C0      		rjmp .L10
 258               	.LVL10:
 259               	.L12:
 260               	.LM27:
 261               	/* #APP */
 262               	 ;  118 "test/testmbox.c" 1
 263 0158 7894      		sei
 264               	 ;  0 "" 2
 265               	.LM28:
 266               	 ;  119 "test/testmbox.c" 1
 267 015a F894      		cli
 268               	 ;  0 "" 2
 269               	/* #NOAPP */
 270 015c 60E0      		ldi r22,lo8(0)
 271 015e 8091 0000 		lds r24,mb1+12
 272 0162 8530      		cpi r24,lo8(5)
 273 0164 01F4      		brne .L13
 274 0166 61E0      		ldi r22,lo8(1)
 275               	.L13:
 276 0168 89E0      		ldi r24,lo8(9)
 277 016a 90E0      		ldi r25,hi8(9)
 278 016c 0E94 0000 		call _test_assert
 279 0170 8823      		tst r24
 280 0172 01F0      		breq .L14
 281               	/* #APP */
 282               	 ;  119 "test/testmbox.c" 1
 283 0174 7894      		sei
 284               	 ;  0 "" 2
 285               	/* #NOAPP */
 286 0176 00C0      		rjmp .L65
 287               	.L14:
 288               	/* #APP */
 289               	 ;  119 "test/testmbox.c" 1
 290 0178 7894      		sei
 291               	 ;  0 "" 2
 292               	.LM29:
 293               	 ;  120 "test/testmbox.c" 1
 294 017a F894      		cli
 295               	 ;  0 "" 2
 296               	/* #NOAPP */
 297 017c 60E0      		ldi r22,lo8(0)
 298 017e 2091 0000 		lds r18,mb1+6
 299 0182 3091 0000 		lds r19,(mb1+6)+1
 300 0186 8091 0000 		lds r24,mb1+4
 301 018a 9091 0000 		lds r25,(mb1+4)+1
 302 018e 2817      		cp r18,r24
 303 0190 3907      		cpc r19,r25
 304 0192 01F4      		brne .+2
 305 0194 00C0      		rjmp .L77
 306               	.L15:
 307 0196 8AE0      		ldi r24,lo8(10)
 308 0198 90E0      		ldi r25,hi8(10)
 309 019a 0E94 0000 		call _test_assert
 310 019e 8823      		tst r24
 311 01a0 01F0      		breq .+2
 312 01a2 00C0      		rjmp .L78
 313               	/* #APP */
 314               	 ;  120 "test/testmbox.c" 1
 315 01a4 7894      		sei
 316               	 ;  0 "" 2
 317               	/* #NOAPP */
 318 01a6 00E0      		ldi r16,lo8(0)
 319 01a8 10E0      		ldi r17,hi8(0)
 320               	.LVL11:
 321 01aa 7E01      		movw r14,r28
 322 01ac 0894      		sec
 323 01ae E11C      		adc r14,__zero_reg__
 324 01b0 F11C      		adc r15,__zero_reg__
 325               	.LVL12:
 326               	.L18:
 327               	.LM30:
 328 01b2 80E0      		ldi r24,lo8(mb1)
 329 01b4 90E0      		ldi r25,hi8(mb1)
 330 01b6 B701      		movw r22,r14
 331 01b8 4FEF      		ldi r20,lo8(-1)
 332 01ba 5FEF      		ldi r21,hi8(-1)
 333 01bc 0E94 0000 		call chMBFetch
 334               	.LM31:
 335 01c0 60E0      		ldi r22,lo8(0)
 336 01c2 892B      		or r24,r25
 337 01c4 01F4      		brne .L17
 338 01c6 61E0      		ldi r22,lo8(1)
 339               	.L17:
 340 01c8 8BE0      		ldi r24,lo8(11)
 341 01ca 90E0      		ldi r25,hi8(11)
 342 01cc 0E94 0000 		call _test_assert
 343 01d0 8823      		tst r24
 344 01d2 01F0      		breq .+2
 345 01d4 00C0      		rjmp .L65
 346               	.LM32:
 347 01d6 8981      		ldd r24,Y+1
 348 01d8 0E94 0000 		call test_emit_token
 349               	.LM33:
 350 01dc 0F5F      		subi r16,lo8(-(1))
 351 01de 1F4F      		sbci r17,hi8(-(1))
 352 01e0 0530      		cpi r16,5
 353 01e2 1105      		cpc r17,__zero_reg__
 354 01e4 01F4      		brne .L18
 355               	.LM34:
 356 01e6 8CE0      		ldi r24,lo8(12)
 357 01e8 90E0      		ldi r25,hi8(12)
 358 01ea 60E0      		ldi r22,lo8(.LC0)
 359 01ec 70E0      		ldi r23,hi8(.LC0)
 360 01ee 0E94 0000 		call _test_assert_sequence
 361 01f2 8823      		tst r24
 362 01f4 01F0      		breq .+2
 363 01f6 00C0      		rjmp .L65
 364               	.LM35:
 365 01f8 80E0      		ldi r24,lo8(mb1)
 366 01fa 90E0      		ldi r25,hi8(mb1)
 367 01fc 67E4      		ldi r22,lo8(71)
 368 01fe 70E0      		ldi r23,hi8(71)
 369 0200 4FEF      		ldi r20,lo8(-1)
 370 0202 5FEF      		ldi r21,hi8(-1)
 371 0204 0E94 0000 		call chMBPost
 372               	.LM36:
 373 0208 60E0      		ldi r22,lo8(0)
 374 020a 892B      		or r24,r25
 375 020c 01F4      		brne .L19
 376 020e 61E0      		ldi r22,lo8(1)
 377               	.L19:
 378 0210 8DE0      		ldi r24,lo8(13)
 379 0212 90E0      		ldi r25,hi8(13)
 380 0214 0E94 0000 		call _test_assert
 381 0218 8823      		tst r24
 382 021a 01F0      		breq .+2
 383 021c 00C0      		rjmp .L65
 384               	.LM37:
 385 021e 80E0      		ldi r24,lo8(mb1)
 386 0220 90E0      		ldi r25,hi8(mb1)
 387 0222 B701      		movw r22,r14
 388 0224 4FEF      		ldi r20,lo8(-1)
 389 0226 5FEF      		ldi r21,hi8(-1)
 390 0228 0E94 0000 		call chMBFetch
 391               	.LM38:
 392 022c 60E0      		ldi r22,lo8(0)
 393 022e 892B      		or r24,r25
 394 0230 01F4      		brne .L20
 395 0232 61E0      		ldi r22,lo8(1)
 396               	.L20:
 397 0234 8EE0      		ldi r24,lo8(14)
 398 0236 90E0      		ldi r25,hi8(14)
 399 0238 0E94 0000 		call _test_assert
 400 023c 8823      		tst r24
 401 023e 01F0      		breq .+2
 402 0240 00C0      		rjmp .L65
 403               	.LM39:
 404 0242 60E0      		ldi r22,lo8(0)
 405 0244 2091 0000 		lds r18,mb1
 406 0248 3091 0000 		lds r19,(mb1)+1
 407 024c 8091 0000 		lds r24,mb1+4
 408 0250 9091 0000 		lds r25,(mb1+4)+1
 409 0254 2817      		cp r18,r24
 410 0256 3907      		cpc r19,r25
 411 0258 01F4      		brne .L21
 412 025a 61E0      		ldi r22,lo8(1)
 413               	.L21:
 414 025c 8FE0      		ldi r24,lo8(15)
 415 025e 90E0      		ldi r25,hi8(15)
 416 0260 0E94 0000 		call _test_assert
 417 0264 8823      		tst r24
 418 0266 01F0      		breq .+2
 419 0268 00C0      		rjmp .L65
 420               	.LM40:
 421 026a 60E0      		ldi r22,lo8(0)
 422 026c 2091 0000 		lds r18,mb1
 423 0270 3091 0000 		lds r19,(mb1)+1
 424 0274 8091 0000 		lds r24,mb1+6
 425 0278 9091 0000 		lds r25,(mb1+6)+1
 426 027c 2817      		cp r18,r24
 427 027e 3907      		cpc r19,r25
 428 0280 01F4      		brne .L22
 429 0282 61E0      		ldi r22,lo8(1)
 430               	.L22:
 431 0284 80E1      		ldi r24,lo8(16)
 432 0286 90E0      		ldi r25,hi8(16)
 433 0288 0E94 0000 		call _test_assert
 434 028c 8823      		tst r24
 435 028e 01F0      		breq .+2
 436 0290 00C0      		rjmp .L65
 437               	.LM41:
 438 0292 80E0      		ldi r24,lo8(mb1)
 439 0294 90E0      		ldi r25,hi8(mb1)
 440 0296 B701      		movw r22,r14
 441 0298 41E0      		ldi r20,lo8(1)
 442 029a 50E0      		ldi r21,hi8(1)
 443 029c 0E94 0000 		call chMBFetch
 444               	.LM42:
 445 02a0 60E0      		ldi r22,lo8(0)
 446 02a2 8F5F      		subi r24,lo8(-1)
 447 02a4 9F4F      		sbci r25,hi8(-1)
 448 02a6 01F4      		brne .L23
 449 02a8 61E0      		ldi r22,lo8(1)
 450               	.L23:
 451 02aa 81E1      		ldi r24,lo8(17)
 452 02ac 90E0      		ldi r25,hi8(17)
 453 02ae 0E94 0000 		call _test_assert
 454 02b2 8823      		tst r24
 455 02b4 01F0      		breq .+2
 456 02b6 00C0      		rjmp .L65
 457               	.LM43:
 458               	/* #APP */
 459               	 ;  147 "test/testmbox.c" 1
 460 02b8 F894      		cli
 461               	 ;  0 "" 2
 462               	.LM44:
 463               	/* #NOAPP */
 464 02ba 80E0      		ldi r24,lo8(mb1)
 465 02bc 90E0      		ldi r25,hi8(mb1)
 466 02be B701      		movw r22,r14
 467 02c0 0E94 0000 		call chMBFetchI
 468               	.LM45:
 469               	/* #APP */
 470               	 ;  149 "test/testmbox.c" 1
 471 02c4 7894      		sei
 472               	 ;  0 "" 2
 473               	.LM46:
 474               	/* #NOAPP */
 475 02c6 60E0      		ldi r22,lo8(0)
 476 02c8 8F5F      		subi r24,lo8(-1)
 477 02ca 9F4F      		sbci r25,hi8(-1)
 478               	.LVL13:
 479 02cc 01F4      		brne .L24
 480 02ce 61E0      		ldi r22,lo8(1)
 481               	.L24:
 482 02d0 82E1      		ldi r24,lo8(18)
 483 02d2 90E0      		ldi r25,hi8(18)
 484               	.LVL14:
 485 02d4 0E94 0000 		call _test_assert
 486 02d8 8823      		tst r24
 487 02da 01F0      		breq .+2
 488 02dc 00C0      		rjmp .L65
 489               	.LM47:
 490               	/* #APP */
 491               	 ;  155 "test/testmbox.c" 1
 492 02de F894      		cli
 493               	 ;  0 "" 2
 494               	/* #NOAPP */
 495 02e0 60E0      		ldi r22,lo8(0)
 496 02e2 8091 0000 		lds r24,mb1+17
 497 02e6 8530      		cpi r24,lo8(5)
 498 02e8 01F4      		brne .L25
 499 02ea 61E0      		ldi r22,lo8(1)
 500               	.L25:
 501 02ec 83E1      		ldi r24,lo8(19)
 502 02ee 90E0      		ldi r25,hi8(19)
 503 02f0 0E94 0000 		call _test_assert
 504 02f4 8823      		tst r24
 505 02f6 01F0      		breq .L26
 506               	/* #APP */
 507               	 ;  155 "test/testmbox.c" 1
 508 02f8 7894      		sei
 509               	 ;  0 "" 2
 510               	/* #NOAPP */
 511 02fa 00C0      		rjmp .L65
 512               	.LVL15:
 513               	.L78:
 514               	.LM48:
 515               	/* #APP */
 516               	 ;  120 "test/testmbox.c" 1
 517 02fc 7894      		sei
 518               	 ;  0 "" 2
 519               	/* #NOAPP */
 520 02fe 00C0      		rjmp .L65
 521               	.L77:
 522 0300 61E0      		ldi r22,lo8(1)
 523 0302 00C0      		rjmp .L15
 524               	.LVL16:
 525               	.L26:
 526               	.LM49:
 527               	/* #APP */
 528               	 ;  155 "test/testmbox.c" 1
 529 0304 7894      		sei
 530               	 ;  0 "" 2
 531               	.LM50:
 532               	 ;  156 "test/testmbox.c" 1
 533 0306 F894      		cli
 534               	 ;  0 "" 2
 535               	/* #NOAPP */
 536 0308 60E0      		ldi r22,lo8(0)
 537 030a 8091 0000 		lds r24,mb1+12
 538 030e 8823      		tst r24
 539 0310 01F4      		brne .L27
 540 0312 61E0      		ldi r22,lo8(1)
 541               	.L27:
 542 0314 84E1      		ldi r24,lo8(20)
 543 0316 90E0      		ldi r25,hi8(20)
 544 0318 0E94 0000 		call _test_assert
 545 031c 8823      		tst r24
 546 031e 01F0      		breq .L28
 547               	/* #APP */
 548               	 ;  156 "test/testmbox.c" 1
 549 0320 7894      		sei
 550               	 ;  0 "" 2
 551               	/* #NOAPP */
 552 0322 00C0      		rjmp .L65
 553               	.L28:
 554               	/* #APP */
 555               	 ;  156 "test/testmbox.c" 1
 556 0324 7894      		sei
 557               	 ;  0 "" 2
 558               	.LM51:
 559               	 ;  157 "test/testmbox.c" 1
 560 0326 F894      		cli
 561               	 ;  0 "" 2
 562               	/* #NOAPP */
 563 0328 60E0      		ldi r22,lo8(0)
 564 032a 2091 0000 		lds r18,mb1+6
 565 032e 3091 0000 		lds r19,(mb1+6)+1
 566 0332 8091 0000 		lds r24,mb1+4
 567 0336 9091 0000 		lds r25,(mb1+4)+1
 568 033a 2817      		cp r18,r24
 569 033c 3907      		cpc r19,r25
 570 033e 01F4      		brne .L29
 571 0340 61E0      		ldi r22,lo8(1)
 572               	.L29:
 573 0342 85E1      		ldi r24,lo8(21)
 574 0344 90E0      		ldi r25,hi8(21)
 575 0346 0E94 0000 		call _test_assert
 576 034a 8823      		tst r24
 577 034c 01F0      		breq .L30
 578               	/* #APP */
 579               	 ;  157 "test/testmbox.c" 1
 580 034e 7894      		sei
 581               	 ;  0 "" 2
 582               	/* #NOAPP */
 583 0350 00C0      		rjmp .L65
 584               	.L30:
 585               	/* #APP */
 586               	 ;  157 "test/testmbox.c" 1
 587 0352 7894      		sei
 588               	 ;  0 "" 2
 589               	.LM52:
 590               	 ;  162 "test/testmbox.c" 1
 591 0354 F894      		cli
 592               	 ;  0 "" 2
 593               	.LM53:
 594               	/* #NOAPP */
 595 0356 80E0      		ldi r24,lo8(mb1)
 596 0358 90E0      		ldi r25,hi8(mb1)
 597 035a 61E4      		ldi r22,lo8(65)
 598 035c 70E0      		ldi r23,hi8(65)
 599 035e 0E94 0000 		call chMBPostI
 600               	.LM54:
 601 0362 60E0      		ldi r22,lo8(0)
 602 0364 892B      		or r24,r25
 603 0366 01F4      		brne .L31
 604 0368 61E0      		ldi r22,lo8(1)
 605               	.L31:
 606 036a 86E1      		ldi r24,lo8(22)
 607 036c 90E0      		ldi r25,hi8(22)
 608 036e 0E94 0000 		call _test_assert
 609 0372 8823      		tst r24
 610 0374 01F0      		breq .+2
 611 0376 00C0      		rjmp .L65
 612               	.LM55:
 613 0378 80E0      		ldi r24,lo8(mb1)
 614 037a 90E0      		ldi r25,hi8(mb1)
 615 037c 62E4      		ldi r22,lo8(66)
 616 037e 70E0      		ldi r23,hi8(66)
 617 0380 0E94 0000 		call chMBPostI
 618               	.LM56:
 619 0384 60E0      		ldi r22,lo8(0)
 620 0386 892B      		or r24,r25
 621 0388 01F4      		brne .L32
 622 038a 61E0      		ldi r22,lo8(1)
 623               	.L32:
 624 038c 87E1      		ldi r24,lo8(23)
 625 038e 90E0      		ldi r25,hi8(23)
 626 0390 0E94 0000 		call _test_assert
 627 0394 8823      		tst r24
 628 0396 01F0      		breq .+2
 629 0398 00C0      		rjmp .L65
 630               	.LM57:
 631 039a 80E0      		ldi r24,lo8(mb1)
 632 039c 90E0      		ldi r25,hi8(mb1)
 633 039e 63E4      		ldi r22,lo8(67)
 634 03a0 70E0      		ldi r23,hi8(67)
 635 03a2 0E94 0000 		call chMBPostI
 636               	.LM58:
 637 03a6 60E0      		ldi r22,lo8(0)
 638 03a8 892B      		or r24,r25
 639 03aa 01F4      		brne .L33
 640 03ac 61E0      		ldi r22,lo8(1)
 641               	.L33:
 642 03ae 88E1      		ldi r24,lo8(24)
 643 03b0 90E0      		ldi r25,hi8(24)
 644 03b2 0E94 0000 		call _test_assert
 645 03b6 8823      		tst r24
 646 03b8 01F0      		breq .+2
 647 03ba 00C0      		rjmp .L65
 648               	.LM59:
 649 03bc 80E0      		ldi r24,lo8(mb1)
 650 03be 90E0      		ldi r25,hi8(mb1)
 651 03c0 64E4      		ldi r22,lo8(68)
 652 03c2 70E0      		ldi r23,hi8(68)
 653 03c4 0E94 0000 		call chMBPostI
 654               	.LM60:
 655 03c8 60E0      		ldi r22,lo8(0)
 656 03ca 892B      		or r24,r25
 657 03cc 01F4      		brne .L34
 658 03ce 61E0      		ldi r22,lo8(1)
 659               	.L34:
 660 03d0 89E1      		ldi r24,lo8(25)
 661 03d2 90E0      		ldi r25,hi8(25)
 662 03d4 0E94 0000 		call _test_assert
 663 03d8 8823      		tst r24
 664 03da 01F0      		breq .+2
 665 03dc 00C0      		rjmp .L65
 666               	.LM61:
 667 03de 80E0      		ldi r24,lo8(mb1)
 668 03e0 90E0      		ldi r25,hi8(mb1)
 669 03e2 65E4      		ldi r22,lo8(69)
 670 03e4 70E0      		ldi r23,hi8(69)
 671 03e6 0E94 0000 		call chMBPostI
 672               	.LM62:
 673               	/* #APP */
 674               	 ;  172 "test/testmbox.c" 1
 675 03ea 7894      		sei
 676               	 ;  0 "" 2
 677               	.LM63:
 678               	/* #NOAPP */
 679 03ec 60E0      		ldi r22,lo8(0)
 680 03ee 892B      		or r24,r25
 681               	.LVL17:
 682 03f0 01F4      		brne .L35
 683 03f2 61E0      		ldi r22,lo8(1)
 684               	.L35:
 685 03f4 8AE1      		ldi r24,lo8(26)
 686 03f6 90E0      		ldi r25,hi8(26)
 687               	.LVL18:
 688 03f8 0E94 0000 		call _test_assert
 689 03fc 8823      		tst r24
 690 03fe 01F0      		breq .+2
 691 0400 00C0      		rjmp .L65
 692               	.LM64:
 693 0402 60E0      		ldi r22,lo8(0)
 694 0404 2091 0000 		lds r18,mb1+6
 695 0408 3091 0000 		lds r19,(mb1+6)+1
 696 040c 8091 0000 		lds r24,mb1+4
 697 0410 9091 0000 		lds r25,(mb1+4)+1
 698 0414 2817      		cp r18,r24
 699 0416 3907      		cpc r19,r25
 700 0418 01F4      		brne .L36
 701 041a 61E0      		ldi r22,lo8(1)
 702               	.L36:
 703 041c 8BE1      		ldi r24,lo8(27)
 704 041e 90E0      		ldi r25,hi8(27)
 705 0420 0E94 0000 		call _test_assert
 706 0424 8823      		tst r24
 707 0426 01F0      		breq .+2
 708 0428 00C0      		rjmp .L65
 709 042a 00E0      		ldi r16,lo8(0)
 710 042c 10E0      		ldi r17,hi8(0)
 711               	.LVL19:
 712               	.L38:
 713               	.LM65:
 714               	/* #APP */
 715               	 ;  176 "test/testmbox.c" 1
 716 042e F894      		cli
 717               	 ;  0 "" 2
 718               	.LM66:
 719               	/* #NOAPP */
 720 0430 80E0      		ldi r24,lo8(mb1)
 721 0432 90E0      		ldi r25,hi8(mb1)
 722 0434 B701      		movw r22,r14
 723 0436 0E94 0000 		call chMBFetchI
 724               	.LM67:
 725               	/* #APP */
 726               	 ;  178 "test/testmbox.c" 1
 727 043a 7894      		sei
 728               	 ;  0 "" 2
 729               	.LM68:
 730               	/* #NOAPP */
 731 043c 60E0      		ldi r22,lo8(0)
 732 043e 892B      		or r24,r25
 733               	.LVL20:
 734 0440 01F4      		brne .L37
 735 0442 61E0      		ldi r22,lo8(1)
 736               	.L37:
 737 0444 8CE1      		ldi r24,lo8(28)
 738 0446 90E0      		ldi r25,hi8(28)
 739               	.LVL21:
 740 0448 0E94 0000 		call _test_assert
 741 044c 8823      		tst r24
 742 044e 01F0      		breq .+2
 743 0450 00C0      		rjmp .L65
 744               	.LM69:
 745 0452 8981      		ldd r24,Y+1
 746 0454 0E94 0000 		call test_emit_token
 747               	.LM70:
 748 0458 0F5F      		subi r16,lo8(-(1))
 749 045a 1F4F      		sbci r17,hi8(-(1))
 750 045c 0530      		cpi r16,5
 751 045e 1105      		cpc r17,__zero_reg__
 752 0460 01F4      		brne .L38
 753               	.LM71:
 754 0462 8DE1      		ldi r24,lo8(29)
 755 0464 90E0      		ldi r25,hi8(29)
 756 0466 60E0      		ldi r22,lo8(.LC0)
 757 0468 70E0      		ldi r23,hi8(.LC0)
 758 046a 0E94 0000 		call _test_assert_sequence
 759 046e 8823      		tst r24
 760 0470 01F0      		breq .+2
 761 0472 00C0      		rjmp .L65
 762               	.LM72:
 763               	/* #APP */
 764               	 ;  183 "test/testmbox.c" 1
 765 0474 F894      		cli
 766               	 ;  0 "" 2
 767               	/* #NOAPP */
 768 0476 60E0      		ldi r22,lo8(0)
 769 0478 8091 0000 		lds r24,mb1+17
 770 047c 8530      		cpi r24,lo8(5)
 771 047e 01F4      		brne .L39
 772 0480 61E0      		ldi r22,lo8(1)
 773               	.L39:
 774 0482 8EE1      		ldi r24,lo8(30)
 775 0484 90E0      		ldi r25,hi8(30)
 776 0486 0E94 0000 		call _test_assert
 777 048a 8823      		tst r24
 778 048c 01F0      		breq .L40
 779               	/* #APP */
 780               	 ;  183 "test/testmbox.c" 1
 781 048e 7894      		sei
 782               	 ;  0 "" 2
 783               	/* #NOAPP */
 784 0490 00C0      		rjmp .L65
 785               	.L40:
 786               	/* #APP */
 787               	 ;  183 "test/testmbox.c" 1
 788 0492 7894      		sei
 789               	 ;  0 "" 2
 790               	.LM73:
 791               	 ;  184 "test/testmbox.c" 1
 792 0494 F894      		cli
 793               	 ;  0 "" 2
 794               	/* #NOAPP */
 795 0496 60E0      		ldi r22,lo8(0)
 796 0498 8091 0000 		lds r24,mb1+12
 797 049c 8823      		tst r24
 798 049e 01F4      		brne .L41
 799 04a0 61E0      		ldi r22,lo8(1)
 800               	.L41:
 801 04a2 8FE1      		ldi r24,lo8(31)
 802 04a4 90E0      		ldi r25,hi8(31)
 803 04a6 0E94 0000 		call _test_assert
 804 04aa 8823      		tst r24
 805 04ac 01F0      		breq .L42
 806               	/* #APP */
 807               	 ;  184 "test/testmbox.c" 1
 808 04ae 7894      		sei
 809               	 ;  0 "" 2
 810               	/* #NOAPP */
 811 04b0 00C0      		rjmp .L65
 812               	.L42:
 813               	/* #APP */
 814               	 ;  184 "test/testmbox.c" 1
 815 04b2 7894      		sei
 816               	 ;  0 "" 2
 817               	.LM74:
 818               	/* #NOAPP */
 819 04b4 60E0      		ldi r22,lo8(0)
 820 04b6 2091 0000 		lds r18,mb1+6
 821 04ba 3091 0000 		lds r19,(mb1+6)+1
 822 04be 8091 0000 		lds r24,mb1+4
 823 04c2 9091 0000 		lds r25,(mb1+4)+1
 824 04c6 2817      		cp r18,r24
 825 04c8 3907      		cpc r19,r25
 826 04ca 01F4      		brne .L43
 827 04cc 61E0      		ldi r22,lo8(1)
 828               	.L43:
 829 04ce 80E2      		ldi r24,lo8(32)
 830 04d0 90E0      		ldi r25,hi8(32)
 831 04d2 0E94 0000 		call _test_assert
 832 04d6 8823      		tst r24
 833 04d8 01F0      		breq .+2
 834 04da 00C0      		rjmp .L65
 835               	.LM75:
 836               	/* #APP */
 837               	 ;  187 "test/testmbox.c" 1
 838 04dc F894      		cli
 839               	 ;  0 "" 2
 840               	.LM76:
 841               	/* #NOAPP */
 842 04de 80E0      		ldi r24,lo8(mb1)
 843 04e0 90E0      		ldi r25,hi8(mb1)
 844 04e2 65E4      		ldi r22,lo8(69)
 845 04e4 70E0      		ldi r23,hi8(69)
 846 04e6 0E94 0000 		call chMBPostAheadI
 847               	.LM77:
 848 04ea 60E0      		ldi r22,lo8(0)
 849 04ec 892B      		or r24,r25
 850 04ee 01F4      		brne .L44
 851 04f0 61E0      		ldi r22,lo8(1)
 852               	.L44:
 853 04f2 81E2      		ldi r24,lo8(33)
 854 04f4 90E0      		ldi r25,hi8(33)
 855 04f6 0E94 0000 		call _test_assert
 856 04fa 8823      		tst r24
 857 04fc 01F0      		breq .+2
 858 04fe 00C0      		rjmp .L65
 859               	.LM78:
 860 0500 80E0      		ldi r24,lo8(mb1)
 861 0502 90E0      		ldi r25,hi8(mb1)
 862 0504 64E4      		ldi r22,lo8(68)
 863 0506 70E0      		ldi r23,hi8(68)
 864 0508 0E94 0000 		call chMBPostAheadI
 865               	.LM79:
 866 050c 60E0      		ldi r22,lo8(0)
 867 050e 892B      		or r24,r25
 868 0510 01F4      		brne .L45
 869 0512 61E0      		ldi r22,lo8(1)
 870               	.L45:
 871 0514 82E2      		ldi r24,lo8(34)
 872 0516 90E0      		ldi r25,hi8(34)
 873 0518 0E94 0000 		call _test_assert
 874 051c 8823      		tst r24
 875 051e 01F0      		breq .+2
 876 0520 00C0      		rjmp .L65
 877               	.LM80:
 878 0522 80E0      		ldi r24,lo8(mb1)
 879 0524 90E0      		ldi r25,hi8(mb1)
 880 0526 63E4      		ldi r22,lo8(67)
 881 0528 70E0      		ldi r23,hi8(67)
 882 052a 0E94 0000 		call chMBPostAheadI
 883               	.LM81:
 884 052e 60E0      		ldi r22,lo8(0)
 885 0530 892B      		or r24,r25
 886 0532 01F4      		brne .L46
 887 0534 61E0      		ldi r22,lo8(1)
 888               	.L46:
 889 0536 83E2      		ldi r24,lo8(35)
 890 0538 90E0      		ldi r25,hi8(35)
 891 053a 0E94 0000 		call _test_assert
 892 053e 8823      		tst r24
 893 0540 01F0      		breq .+2
 894 0542 00C0      		rjmp .L65
 895               	.LM82:
 896 0544 80E0      		ldi r24,lo8(mb1)
 897 0546 90E0      		ldi r25,hi8(mb1)
 898 0548 62E4      		ldi r22,lo8(66)
 899 054a 70E0      		ldi r23,hi8(66)
 900 054c 0E94 0000 		call chMBPostAheadI
 901               	.LM83:
 902 0550 60E0      		ldi r22,lo8(0)
 903 0552 892B      		or r24,r25
 904 0554 01F4      		brne .L47
 905 0556 61E0      		ldi r22,lo8(1)
 906               	.L47:
 907 0558 84E2      		ldi r24,lo8(36)
 908 055a 90E0      		ldi r25,hi8(36)
 909 055c 0E94 0000 		call _test_assert
 910 0560 8823      		tst r24
 911 0562 01F0      		breq .+2
 912 0564 00C0      		rjmp .L65
 913               	.LM84:
 914 0566 80E0      		ldi r24,lo8(mb1)
 915 0568 90E0      		ldi r25,hi8(mb1)
 916 056a 61E4      		ldi r22,lo8(65)
 917 056c 70E0      		ldi r23,hi8(65)
 918 056e 0E94 0000 		call chMBPostAheadI
 919               	.LM85:
 920               	/* #APP */
 921               	 ;  197 "test/testmbox.c" 1
 922 0572 7894      		sei
 923               	 ;  0 "" 2
 924               	.LM86:
 925               	/* #NOAPP */
 926 0574 60E0      		ldi r22,lo8(0)
 927 0576 892B      		or r24,r25
 928               	.LVL22:
 929 0578 01F4      		brne .L48
 930 057a 61E0      		ldi r22,lo8(1)
 931               	.L48:
 932 057c 85E2      		ldi r24,lo8(37)
 933 057e 90E0      		ldi r25,hi8(37)
 934               	.LVL23:
 935 0580 0E94 0000 		call _test_assert
 936 0584 8823      		tst r24
 937 0586 01F0      		breq .+2
 938 0588 00C0      		rjmp .L65
 939               	.LM87:
 940 058a 60E0      		ldi r22,lo8(0)
 941 058c 2091 0000 		lds r18,mb1+6
 942 0590 3091 0000 		lds r19,(mb1+6)+1
 943 0594 8091 0000 		lds r24,mb1+4
 944 0598 9091 0000 		lds r25,(mb1+4)+1
 945 059c 2817      		cp r18,r24
 946 059e 3907      		cpc r19,r25
 947 05a0 01F4      		brne .L49
 948 05a2 61E0      		ldi r22,lo8(1)
 949               	.L49:
 950 05a4 86E2      		ldi r24,lo8(38)
 951 05a6 90E0      		ldi r25,hi8(38)
 952 05a8 0E94 0000 		call _test_assert
 953 05ac 8823      		tst r24
 954 05ae 01F0      		breq .+2
 955 05b0 00C0      		rjmp .L65
 956 05b2 00E0      		ldi r16,lo8(0)
 957 05b4 10E0      		ldi r17,hi8(0)
 958               	.LVL24:
 959               	.L51:
 960               	.LM88:
 961               	/* #APP */
 962               	 ;  201 "test/testmbox.c" 1
 963 05b6 F894      		cli
 964               	 ;  0 "" 2
 965               	.LM89:
 966               	/* #NOAPP */
 967 05b8 80E0      		ldi r24,lo8(mb1)
 968 05ba 90E0      		ldi r25,hi8(mb1)
 969 05bc B701      		movw r22,r14
 970 05be 0E94 0000 		call chMBFetchI
 971               	.LM90:
 972               	/* #APP */
 973               	 ;  203 "test/testmbox.c" 1
 974 05c2 7894      		sei
 975               	 ;  0 "" 2
 976               	.LM91:
 977               	/* #NOAPP */
 978 05c4 60E0      		ldi r22,lo8(0)
 979 05c6 892B      		or r24,r25
 980               	.LVL25:
 981 05c8 01F4      		brne .L50
 982 05ca 61E0      		ldi r22,lo8(1)
 983               	.L50:
 984 05cc 87E2      		ldi r24,lo8(39)
 985 05ce 90E0      		ldi r25,hi8(39)
 986               	.LVL26:
 987 05d0 0E94 0000 		call _test_assert
 988 05d4 8823      		tst r24
 989 05d6 01F0      		breq .+2
 990 05d8 00C0      		rjmp .L65
 991               	.LM92:
 992 05da 8981      		ldd r24,Y+1
 993 05dc 0E94 0000 		call test_emit_token
 994               	.LM93:
 995 05e0 0F5F      		subi r16,lo8(-(1))
 996 05e2 1F4F      		sbci r17,hi8(-(1))
 997 05e4 0530      		cpi r16,5
 998 05e6 1105      		cpc r17,__zero_reg__
 999 05e8 01F4      		brne .L51
 1000               	.LM94:
 1001 05ea 88E2      		ldi r24,lo8(40)
 1002 05ec 90E0      		ldi r25,hi8(40)
 1003 05ee 60E0      		ldi r22,lo8(.LC0)
 1004 05f0 70E0      		ldi r23,hi8(.LC0)
 1005 05f2 0E94 0000 		call _test_assert_sequence
 1006 05f6 8823      		tst r24
 1007 05f8 01F0      		breq .+2
 1008 05fa 00C0      		rjmp .L65
 1009               	.LM95:
 1010               	/* #APP */
 1011               	 ;  208 "test/testmbox.c" 1
 1012 05fc F894      		cli
 1013               	 ;  0 "" 2
 1014               	/* #NOAPP */
 1015 05fe 60E0      		ldi r22,lo8(0)
 1016 0600 8091 0000 		lds r24,mb1+17
 1017 0604 8530      		cpi r24,lo8(5)
 1018 0606 01F4      		brne .L52
 1019 0608 61E0      		ldi r22,lo8(1)
 1020               	.L52:
 1021 060a 89E2      		ldi r24,lo8(41)
 1022 060c 90E0      		ldi r25,hi8(41)
 1023 060e 0E94 0000 		call _test_assert
 1024 0612 8823      		tst r24
 1025 0614 01F0      		breq .L53
 1026               	/* #APP */
 1027               	 ;  208 "test/testmbox.c" 1
 1028 0616 7894      		sei
 1029               	 ;  0 "" 2
 1030               	/* #NOAPP */
 1031 0618 00C0      		rjmp .L65
 1032               	.L53:
 1033               	/* #APP */
 1034               	 ;  208 "test/testmbox.c" 1
 1035 061a 7894      		sei
 1036               	 ;  0 "" 2
 1037               	.LM96:
 1038               	 ;  209 "test/testmbox.c" 1
 1039 061c F894      		cli
 1040               	 ;  0 "" 2
 1041               	/* #NOAPP */
 1042 061e 60E0      		ldi r22,lo8(0)
 1043 0620 8091 0000 		lds r24,mb1+12
 1044 0624 8823      		tst r24
 1045 0626 01F4      		brne .L54
 1046 0628 61E0      		ldi r22,lo8(1)
 1047               	.L54:
 1048 062a 8AE2      		ldi r24,lo8(42)
 1049 062c 90E0      		ldi r25,hi8(42)
 1050 062e 0E94 0000 		call _test_assert
 1051 0632 8823      		tst r24
 1052 0634 01F0      		breq .L55
 1053               	/* #APP */
 1054               	 ;  209 "test/testmbox.c" 1
 1055 0636 7894      		sei
 1056               	 ;  0 "" 2
 1057               	/* #NOAPP */
 1058 0638 00C0      		rjmp .L65
 1059               	.L55:
 1060               	/* #APP */
 1061               	 ;  209 "test/testmbox.c" 1
 1062 063a 7894      		sei
 1063               	 ;  0 "" 2
 1064               	.LM97:
 1065               	/* #NOAPP */
 1066 063c 60E0      		ldi r22,lo8(0)
 1067 063e 2091 0000 		lds r18,mb1+6
 1068 0642 3091 0000 		lds r19,(mb1+6)+1
 1069 0646 8091 0000 		lds r24,mb1+4
 1070 064a 9091 0000 		lds r25,(mb1+4)+1
 1071 064e 2817      		cp r18,r24
 1072 0650 3907      		cpc r19,r25
 1073 0652 01F4      		brne .L56
 1074 0654 61E0      		ldi r22,lo8(1)
 1075               	.L56:
 1076 0656 8BE2      		ldi r24,lo8(43)
 1077 0658 90E0      		ldi r25,hi8(43)
 1078 065a 0E94 0000 		call _test_assert
 1079 065e 8823      		tst r24
 1080 0660 01F0      		breq .+2
 1081 0662 00C0      		rjmp .L65
 1082               	.LM98:
 1083 0664 80E0      		ldi r24,lo8(mb1)
 1084 0666 90E0      		ldi r25,hi8(mb1)
 1085 0668 0E94 0000 		call chMBReset
 1086               	.LM99:
 1087               	/* #APP */
 1088               	 ;  220 "test/testmbox.c" 1
 1089 066c F894      		cli
 1090               	 ;  0 "" 2
 1091               	/* #NOAPP */
 1092 066e 60E0      		ldi r22,lo8(0)
 1093 0670 8091 0000 		lds r24,mb1+17
 1094 0674 8530      		cpi r24,lo8(5)
 1095 0676 01F4      		brne .L57
 1096 0678 61E0      		ldi r22,lo8(1)
 1097               	.L57:
 1098 067a 8CE2      		ldi r24,lo8(44)
 1099 067c 90E0      		ldi r25,hi8(44)
 1100 067e 0E94 0000 		call _test_assert
 1101 0682 8823      		tst r24
 1102 0684 01F0      		breq .L58
 1103               	/* #APP */
 1104               	 ;  220 "test/testmbox.c" 1
 1105 0686 7894      		sei
 1106               	 ;  0 "" 2
 1107               	/* #NOAPP */
 1108 0688 00C0      		rjmp .L65
 1109               	.L58:
 1110               	/* #APP */
 1111               	 ;  220 "test/testmbox.c" 1
 1112 068a 7894      		sei
 1113               	 ;  0 "" 2
 1114               	.LM100:
 1115               	 ;  221 "test/testmbox.c" 1
 1116 068c F894      		cli
 1117               	 ;  0 "" 2
 1118               	/* #NOAPP */
 1119 068e 60E0      		ldi r22,lo8(0)
 1120 0690 8091 0000 		lds r24,mb1+12
 1121 0694 8823      		tst r24
 1122 0696 01F4      		brne .L59
 1123 0698 61E0      		ldi r22,lo8(1)
 1124               	.L59:
 1125 069a 8DE2      		ldi r24,lo8(45)
 1126 069c 90E0      		ldi r25,hi8(45)
 1127 069e 0E94 0000 		call _test_assert
 1128 06a2 8823      		tst r24
 1129 06a4 01F0      		breq .L60
 1130               	/* #APP */
 1131               	 ;  221 "test/testmbox.c" 1
 1132 06a6 7894      		sei
 1133               	 ;  0 "" 2
 1134               	/* #NOAPP */
 1135 06a8 00C0      		rjmp .L65
 1136               	.L60:
 1137               	/* #APP */
 1138               	 ;  221 "test/testmbox.c" 1
 1139 06aa 7894      		sei
 1140               	 ;  0 "" 2
 1141               	.LM101:
 1142               	 ;  222 "test/testmbox.c" 1
 1143 06ac F894      		cli
 1144               	 ;  0 "" 2
 1145               	/* #NOAPP */
 1146 06ae 60E0      		ldi r22,lo8(0)
 1147 06b0 2091 0000 		lds r18,mb1
 1148 06b4 3091 0000 		lds r19,(mb1)+1
 1149 06b8 8091 0000 		lds r24,mb1+4
 1150 06bc 9091 0000 		lds r25,(mb1+4)+1
 1151 06c0 2817      		cp r18,r24
 1152 06c2 3907      		cpc r19,r25
 1153 06c4 01F4      		brne .L61
 1154 06c6 61E0      		ldi r22,lo8(1)
 1155               	.L61:
 1156 06c8 8EE2      		ldi r24,lo8(46)
 1157 06ca 90E0      		ldi r25,hi8(46)
 1158 06cc 0E94 0000 		call _test_assert
 1159 06d0 8823      		tst r24
 1160 06d2 01F0      		breq .L62
 1161               	/* #APP */
 1162               	 ;  222 "test/testmbox.c" 1
 1163 06d4 7894      		sei
 1164               	 ;  0 "" 2
 1165               	/* #NOAPP */
 1166 06d6 00C0      		rjmp .L65
 1167               	.L62:
 1168               	/* #APP */
 1169               	 ;  222 "test/testmbox.c" 1
 1170 06d8 7894      		sei
 1171               	 ;  0 "" 2
 1172               	.LM102:
 1173               	 ;  223 "test/testmbox.c" 1
 1174 06da F894      		cli
 1175               	 ;  0 "" 2
 1176               	/* #NOAPP */
 1177 06dc 60E0      		ldi r22,lo8(0)
 1178 06de 2091 0000 		lds r18,mb1
 1179 06e2 3091 0000 		lds r19,(mb1)+1
 1180 06e6 8091 0000 		lds r24,mb1+6
 1181 06ea 9091 0000 		lds r25,(mb1+6)+1
 1182 06ee 2817      		cp r18,r24
 1183 06f0 3907      		cpc r19,r25
 1184 06f2 01F4      		brne .L63
 1185 06f4 61E0      		ldi r22,lo8(1)
 1186               	.L63:
 1187 06f6 8FE2      		ldi r24,lo8(47)
 1188 06f8 90E0      		ldi r25,hi8(47)
 1189 06fa 0E94 0000 		call _test_assert
 1190               	/* #APP */
 1191               	 ;  223 "test/testmbox.c" 1
 1192 06fe 7894      		sei
 1193               	 ;  0 "" 2
 1194               	/* #NOAPP */
 1195 0700 00C0      		rjmp .L65
 1196               	.LFE10:
 1199               	mbox1_setup:
 1200               	.LFB9:
 1201               	.LM103:
 1202               	/* prologue: function */
 1203               	/* frame size = 0 */
 1204               	.LM104:
 1205 0702 80E0      		ldi r24,lo8(mb1)
 1206 0704 90E0      		ldi r25,hi8(mb1)
 1207 0706 60E0      		ldi r22,lo8(test)
 1208 0708 70E0      		ldi r23,hi8(test)
 1209 070a 45E0      		ldi r20,lo8(5)
 1210 070c 0E94 0000 		call chMBInit
 1211               	/* epilogue start */
 1212               	.LM105:
 1213 0710 0895      		ret
 1214               	.LFE9:
 1216               	.global	testmbox1
 1217               		.data
 1218               	.LC1:
 1219 0006 4D61 696C 		.string	"Mailboxes, queuing and timeouts"
 1219      626F 7865 
 1219      732C 2071 
 1219      7565 7569 
 1219      6E67 2061 
 1222               	testmbox1:
 1223 0026 0000      		.word	.LC1
 1224 0028 0000      		.word	gs(mbox1_setup)
 1225 002a 0000      		.word	0
 1226 002c 0000      		.word	gs(mbox1_execute)
 1227               	.global	patternmbox
 1230               	patternmbox:
 1231 002e 0000      		.word	testmbox1
 1232 0030 0000      		.word	0
 1235               	mb1:
 1236 0032 0000      		.word	test
 1237 0034 0000      		.word	test+10
 1238 0036 0000      		.word	test
 1239 0038 0000      		.word	test
 1240 003a 0000      		.word	mb1+8
 1241 003c 0000      		.word	mb1+8
 1242 003e 00        		.byte	0
 1243 003f 0000      		.word	mb1+13
 1244 0041 0000      		.word	mb1+13
 1245 0043 05        		.byte	5
 1278               	.Letext0:
DEFINED SYMBOLS
                            *ABS*:00000000 testmbox.c
/var/folders/8w/bxlddk455k9cddvwz9khk6br0000gn/T//cckk6W2e.s:2      *ABS*:0000003f __SREG__
/var/folders/8w/bxlddk455k9cddvwz9khk6br0000gn/T//cckk6W2e.s:3      *ABS*:0000003e __SP_H__
/var/folders/8w/bxlddk455k9cddvwz9khk6br0000gn/T//cckk6W2e.s:4      *ABS*:0000003d __SP_L__
/var/folders/8w/bxlddk455k9cddvwz9khk6br0000gn/T//cckk6W2e.s:5      *ABS*:00000034 __CCP__
/var/folders/8w/bxlddk455k9cddvwz9khk6br0000gn/T//cckk6W2e.s:6      *ABS*:00000000 __tmp_reg__
/var/folders/8w/bxlddk455k9cddvwz9khk6br0000gn/T//cckk6W2e.s:7      *ABS*:00000001 __zero_reg__
/var/folders/8w/bxlddk455k9cddvwz9khk6br0000gn/T//cckk6W2e.s:21     .text:00000000 mbox1_execute
/var/folders/8w/bxlddk455k9cddvwz9khk6br0000gn/T//cckk6W2e.s:1235   .data:00000032 mb1
/var/folders/8w/bxlddk455k9cddvwz9khk6br0000gn/T//cckk6W2e.s:1199   .text:00000702 mbox1_setup
/var/folders/8w/bxlddk455k9cddvwz9khk6br0000gn/T//cckk6W2e.s:1222   .data:00000026 testmbox1
/var/folders/8w/bxlddk455k9cddvwz9khk6br0000gn/T//cckk6W2e.s:1230   .data:0000002e patternmbox

UNDEFINED SYMBOLS
_test_assert
chMBPost
chMBPostAhead
chMBPostI
chMBPostAheadI
chMBFetch
test_emit_token
_test_assert_sequence
chMBFetchI
chMBReset
test
chMBInit
__do_copy_data
