###############################################################################
#                                                                             #
# IAR ELF Linker V6.40.2.53884/W32 for ARM              17/Sep/2012  13:38:50 #
# Copyright 2007-2012 IAR Systems AB.                                         #
#                                                                             #
#    Output file  =  C:\Users\Sin\Documents\STM32\STM32F4-Discovery_FW_V1.1.0 #
#                    \Project\Demonstration\EWARM\Demo\Exe\STM32F4-Discovery_ #
#                    Demo.out                                                 #
#    Map file     =  C:\Users\Sin\Documents\STM32\STM32F4-Discovery_FW_V1.1.0 #
#                    \Project\Demonstration\EWARM\Demo\List\STM32F4-Discovery #
#                    _Demo.map                                                #
#    Command line =  C:\Users\Sin\Documents\STM32\STM32F4-Discovery_FW_V1.1.0 #
#                    \Project\Demonstration\EWARM\Demo\Obj\main.o             #
#                    C:\Users\Sin\Documents\STM32\STM32F4-Discovery_FW_V1.1.0 #
#                    \Project\Demonstration\EWARM\Demo\Obj\misc.o             #
#                    C:\Users\Sin\Documents\STM32\STM32F4-Discovery_FW_V1.1.0 #
#                    \Project\Demonstration\EWARM\Demo\Obj\selftest.o         #
#                    C:\Users\Sin\Documents\STM32\STM32F4-Discovery_FW_V1.1.0 #
#                    \Project\Demonstration\EWARM\Demo\Obj\startup_stm32f4xx. #
#                    o C:\Users\Sin\Documents\STM32\STM32F4-Discovery_FW_V1.1 #
#                    .0\Project\Demonstration\EWARM\Demo\Obj\stm32f4_discover #
#                    y.o C:\Users\Sin\Documents\STM32\STM32F4-Discovery_FW_V1 #
#                    .1.0\Project\Demonstration\EWARM\Demo\Obj\stm32f4_discov #
#                    ery_audio_codec.o C:\Users\Sin\Documents\STM32\STM32F4-D #
#                    iscovery_FW_V1.1.0\Project\Demonstration\EWARM\Demo\Obj\ #
#                    stm32f4_discovery_lis302dl.o                             #
#                    C:\Users\Sin\Documents\STM32\STM32F4-Discovery_FW_V1.1.0 #
#                    \Project\Demonstration\EWARM\Demo\Obj\stm32f4xx_adc.o    #
#                    C:\Users\Sin\Documents\STM32\STM32F4-Discovery_FW_V1.1.0 #
#                    \Project\Demonstration\EWARM\Demo\Obj\stm32f4xx_dac.o    #
#                    C:\Users\Sin\Documents\STM32\STM32F4-Discovery_FW_V1.1.0 #
#                    \Project\Demonstration\EWARM\Demo\Obj\stm32f4xx_dma.o    #
#                    C:\Users\Sin\Documents\STM32\STM32F4-Discovery_FW_V1.1.0 #
#                    \Project\Demonstration\EWARM\Demo\Obj\stm32f4xx_exti.o   #
#                    C:\Users\Sin\Documents\STM32\STM32F4-Discovery_FW_V1.1.0 #
#                    \Project\Demonstration\EWARM\Demo\Obj\stm32f4xx_flash.o  #
#                    C:\Users\Sin\Documents\STM32\STM32F4-Discovery_FW_V1.1.0 #
#                    \Project\Demonstration\EWARM\Demo\Obj\stm32f4xx_gpio.o   #
#                    C:\Users\Sin\Documents\STM32\STM32F4-Discovery_FW_V1.1.0 #
#                    \Project\Demonstration\EWARM\Demo\Obj\stm32f4xx_i2c.o    #
#                    C:\Users\Sin\Documents\STM32\STM32F4-Discovery_FW_V1.1.0 #
#                    \Project\Demonstration\EWARM\Demo\Obj\stm32f4xx_it.o     #
#                    C:\Users\Sin\Documents\STM32\STM32F4-Discovery_FW_V1.1.0 #
#                    \Project\Demonstration\EWARM\Demo\Obj\stm32f4xx_rcc.o    #
#                    C:\Users\Sin\Documents\STM32\STM32F4-Discovery_FW_V1.1.0 #
#                    \Project\Demonstration\EWARM\Demo\Obj\stm32f4xx_spi.o    #
#                    C:\Users\Sin\Documents\STM32\STM32F4-Discovery_FW_V1.1.0 #
#                    \Project\Demonstration\EWARM\Demo\Obj\stm32f4xx_syscfg.o #
#                     C:\Users\Sin\Documents\STM32\STM32F4-Discovery_FW_V1.1. #
#                    0\Project\Demonstration\EWARM\Demo\Obj\stm32f4xx_tim.o   #
#                    C:\Users\Sin\Documents\STM32\STM32F4-Discovery_FW_V1.1.0 #
#                    \Project\Demonstration\EWARM\Demo\Obj\system_stm32f4xx.o #
#                     C:\Users\Sin\Documents\STM32\STM32F4-Discovery_FW_V1.1. #
#                    0\Project\Demonstration\EWARM\Demo\Obj\usb_bsp.o         #
#                    C:\Users\Sin\Documents\STM32\STM32F4-Discovery_FW_V1.1.0 #
#                    \Project\Demonstration\EWARM\Demo\Obj\usb_core.o         #
#                    C:\Users\Sin\Documents\STM32\STM32F4-Discovery_FW_V1.1.0 #
#                    \Project\Demonstration\EWARM\Demo\Obj\usb_dcd.o          #
#                    C:\Users\Sin\Documents\STM32\STM32F4-Discovery_FW_V1.1.0 #
#                    \Project\Demonstration\EWARM\Demo\Obj\usb_dcd_int.o      #
#                    C:\Users\Sin\Documents\STM32\STM32F4-Discovery_FW_V1.1.0 #
#                    \Project\Demonstration\EWARM\Demo\Obj\usbd_core.o        #
#                    C:\Users\Sin\Documents\STM32\STM32F4-Discovery_FW_V1.1.0 #
#                    \Project\Demonstration\EWARM\Demo\Obj\usbd_desc.o        #
#                    C:\Users\Sin\Documents\STM32\STM32F4-Discovery_FW_V1.1.0 #
#                    \Project\Demonstration\EWARM\Demo\Obj\usbd_hid_core.o    #
#                    C:\Users\Sin\Documents\STM32\STM32F4-Discovery_FW_V1.1.0 #
#                    \Project\Demonstration\EWARM\Demo\Obj\usbd_ioreq.o       #
#                    C:\Users\Sin\Documents\STM32\STM32F4-Discovery_FW_V1.1.0 #
#                    \Project\Demonstration\EWARM\Demo\Obj\usbd_req.o         #
#                    C:\Users\Sin\Documents\STM32\STM32F4-Discovery_FW_V1.1.0 #
#                    \Project\Demonstration\EWARM\Demo\Obj\usbd_usr.o         #
#                    --redirect _Printf=_PrintfFull --redirect                #
#                    _Scanf=_ScanfFull -o C:\Users\Sin\Documents\STM32\STM32F #
#                    4-Discovery_FW_V1.1.0\Project\Demonstration\EWARM\Demo\E #
#                    xe\STM32F4-Discovery_Demo.out --map                      #
#                    C:\Users\Sin\Documents\STM32\STM32F4-Discovery_FW_V1.1.0 #
#                    \Project\Demonstration\EWARM\Demo\List\STM32F4-Discovery #
#                    _Demo.map --config C:\Users\Sin\Documents\STM32\STM32F4- #
#                    Discovery_FW_V1.1.0\Project\Demonstration\EWARM\stm32f40 #
#                    x_flash.icf --semihosting --entry __iar_program_start    #
#                    --vfe                                                    #
#                                                                             #
#                                                                             #
###############################################################################

*******************************************************************************
*** RUNTIME MODEL ATTRIBUTES
***

CppFlavor       = *
__SystemLibrary = DLib


*******************************************************************************
*** PLACEMENT SUMMARY
***

"A1":  place at 0x08000000 { ro section .intvec };
"P1":  place in [from 0x08000000 to 0x080fffff] { ro };
"P2":  place in [from 0x20000000 to 0x20020000] { rw, block CSTACK, block HEAP };

  Section            Kind        Address    Size  Object
  -------            ----        -------    ----  ------
"A1":                                      0x188
  .intvec            ro code  0x08000000   0x188  startup_stm32f4xx.o [1]
                            - 0x08000188   0x188

"P1":                                     0x61ec
  .text              ro code  0x08000188   0xc64  stm32f4_discovery_audio_codec.o [1]
  .text              ro code  0x08000dec   0x2dc  stm32f4xx_dma.o [1]
  .text              ro code  0x080010c8   0xb0a  selftest.o [1]
  .text              ro code  0x08001bd2    0x2e  copy_init3.o [5]
  .text              ro code  0x08001c00   0x2e2  stm32f4xx_spi.o [1]
  .text              ro code  0x08001ee2    0x22  zero_init3.o [5]
  .text              ro code  0x08001f04    0x7c  stm32f4xx_dac.o [1]
  .text              ro code  0x08001f80   0x134  stm32f4xx_gpio.o [1]
  .text              ro code  0x080020b4   0x282  stm32f4xx_i2c.o [1]
  .rodata            const    0x08002336     0x2  stm32f4_discovery.o [1]
  .text              ro code  0x08002338   0x1e0  stm32f4xx_rcc.o [1]
  .text              ro code  0x08002518    0x88  misc.o [1]
  .text              ro code  0x080025a0   0x2ac  stm32f4_discovery_lis302dl.o [1]
  .text              ro code  0x0800284c   0x518  main.o [1]
  .text              ro code  0x08002d64   0x170  stm32f4_discovery.o [1]
  .text              ro code  0x08002ed4   0x1da  stm32f4xx_adc.o [1]
  .rodata            const    0x080030ae     0x2  stm32f4_discovery.o [1]
  .text              ro code  0x080030b0   0x1b4  stm32f4xx_flash.o [1]
  .text              ro code  0x08003264   0x33c  stm32f4xx_tim.o [1]
  .text              ro code  0x080035a0   0x324  usb_dcd.o [1]
  .text              ro code  0x080038c4   0xc04  usb_core.o [1]
  .text              ro code  0x080044c8   0x2c8  usbd_core.o [1]
  .text              ro code  0x08004790    0x54  stm32f4xx_syscfg.o [1]
  .text              ro code  0x080047e4    0xa4  stm32f4xx_exti.o [1]
  .text              ro code  0x08004888   0x10c  usb_bsp.o [1]
  .text              ro code  0x08004994   0x6c0  usbd_req.o [1]
  .text              ro code  0x08005054    0xb4  usbd_ioreq.o [1]
  .text              ro code  0x08005108   0x6ca  usb_dcd_int.o [1]
  .rodata            const    0x080057d2     0x1  stm32f4_discovery.o [1]
  .rodata            const    0x080057d3     0x1  stm32f4_discovery.o [1]
  .text              ro code  0x080057d4   0x29c  stm32f4xx_it.o [1]
  .text              ro code  0x08005a70   0x16a  usbd_hid_core.o [1]
  .rodata            const    0x08005bda     0x1  stm32f4_discovery.o [1]
  .text              ro code  0x08005bdc   0x170  system_stm32f4xx.o [1]
  .text              ro code  0x08005d4c    0xe8  usbd_desc.o [1]
  .text              ro code  0x08005e34    0xa0  usbd_usr.o [1]
  .rodata            const    0x08005ed4    0x60  selftest.o [1]
  .text              ro code  0x08005f34    0x28  data_init3.o [5]
  .iar.init_table    const    0x08005f5c    0x24  - Linker created -
  .text              ro code  0x08005f80    0x1a  fpinit_M.o [4]
  .text              ro code  0x08005f9c    0x16  cmain.o [5]
  .text              ro code  0x08005fb2     0x4  low_level_init.o [3]
  .text              ro code  0x08005fb6     0x4  exit.o [3]
  .text              ro code  0x08005fbc     0xa  cexit.o [5]
  .text              ro code  0x08005fc8    0x14  exit.o [6]
  .rodata            const    0x08005fdc    0x14  usbd_desc.o [1]
  .rodata            const    0x08005ff0    0x14  usbd_desc.o [1]
  .rodata            const    0x08006004    0x14  usbd_desc.o [1]
  .rodata            const    0x08006018    0x10  stm32f4_discovery.o [1]
  .rodata            const    0x08006028    0x10  usbd_desc.o [1]
  .rodata            const    0x08006038    0x10  usbd_desc.o [1]
  .rodata            const    0x08006048    0x10  usbd_desc.o [1]
  .text              ro code  0x08006058    0x10  startup_stm32f4xx.o [1]
  .rodata            const    0x08006068     0xc  usbd_desc.o [1]
  .text              ro code  0x08006074     0xc  cstartup_M.o [5]
  .rodata            const    0x08006080     0x8  stm32f4_discovery.o [1]
  .rodata            const    0x08006088     0x4  stm32f4_discovery.o [1]
  .text              ro code  0x0800608c     0x4  startup_stm32f4xx.o [1]
  .text              ro code  0x08006090     0x4  startup_stm32f4xx.o [1]
  .text              ro code  0x08006094     0x4  startup_stm32f4xx.o [1]
  .text              ro code  0x08006098     0x4  startup_stm32f4xx.o [1]
  .text              ro code  0x0800609c     0x4  startup_stm32f4xx.o [1]
  .text              ro code  0x080060a0     0x4  startup_stm32f4xx.o [1]
  .text              ro code  0x080060a4     0x4  startup_stm32f4xx.o [1]
  .text              ro code  0x080060a8     0x4  startup_stm32f4xx.o [1]
  .text              ro code  0x080060ac     0x4  startup_stm32f4xx.o [1]
  .text              ro code  0x080060b0     0x4  startup_stm32f4xx.o [1]
  .text              ro code  0x080060b4     0x4  startup_stm32f4xx.o [1]
  .text              ro code  0x080060b8     0x4  startup_stm32f4xx.o [1]
  .text              ro code  0x080060bc     0x4  startup_stm32f4xx.o [1]
  .text              ro code  0x080060c0     0x4  startup_stm32f4xx.o [1]
  .text              ro code  0x080060c4     0x4  startup_stm32f4xx.o [1]
  .text              ro code  0x080060c8     0x4  startup_stm32f4xx.o [1]
  .text              ro code  0x080060cc     0x4  startup_stm32f4xx.o [1]
  .text              ro code  0x080060d0     0x4  startup_stm32f4xx.o [1]
  .text              ro code  0x080060d4     0x4  startup_stm32f4xx.o [1]
  .text              ro code  0x080060d8     0x4  startup_stm32f4xx.o [1]
  .text              ro code  0x080060dc     0x4  startup_stm32f4xx.o [1]
  .text              ro code  0x080060e0     0x4  startup_stm32f4xx.o [1]
  .text              ro code  0x080060e4     0x4  startup_stm32f4xx.o [1]
  .text              ro code  0x080060e8     0x4  startup_stm32f4xx.o [1]
  .text              ro code  0x080060ec     0x4  startup_stm32f4xx.o [1]
  .text              ro code  0x080060f0     0x4  startup_stm32f4xx.o [1]
  .text              ro code  0x080060f4     0x4  startup_stm32f4xx.o [1]
  .text              ro code  0x080060f8     0x4  startup_stm32f4xx.o [1]
  .text              ro code  0x080060fc     0x4  startup_stm32f4xx.o [1]
  .text              ro code  0x08006100     0x4  startup_stm32f4xx.o [1]
  .text              ro code  0x08006104     0x4  startup_stm32f4xx.o [1]
  .text              ro code  0x08006108     0x4  startup_stm32f4xx.o [1]
  .text              ro code  0x0800610c     0x4  startup_stm32f4xx.o [1]
  .text              ro code  0x08006110     0x4  startup_stm32f4xx.o [1]
  .text              ro code  0x08006114     0x4  startup_stm32f4xx.o [1]
  .text              ro code  0x08006118     0x4  startup_stm32f4xx.o [1]
  .text              ro code  0x0800611c     0x4  startup_stm32f4xx.o [1]
  .text              ro code  0x08006120     0x4  startup_stm32f4xx.o [1]
  .text              ro code  0x08006124     0x4  startup_stm32f4xx.o [1]
  .text              ro code  0x08006128     0x4  startup_stm32f4xx.o [1]
  .text              ro code  0x0800612c     0x4  startup_stm32f4xx.o [1]
  .text              ro code  0x08006130     0x4  startup_stm32f4xx.o [1]
  .text              ro code  0x08006134     0x4  startup_stm32f4xx.o [1]
  .text              ro code  0x08006138     0x4  startup_stm32f4xx.o [1]
  .text              ro code  0x0800613c     0x4  startup_stm32f4xx.o [1]
  .text              ro code  0x08006140     0x4  startup_stm32f4xx.o [1]
  .text              ro code  0x08006144     0x4  startup_stm32f4xx.o [1]
  .text              ro code  0x08006148     0x4  startup_stm32f4xx.o [1]
  .text              ro code  0x0800614c     0x4  startup_stm32f4xx.o [1]
  .text              ro code  0x08006150     0x4  startup_stm32f4xx.o [1]
  .text              ro code  0x08006154     0x4  startup_stm32f4xx.o [1]
  .text              ro code  0x08006158     0x4  startup_stm32f4xx.o [1]
  .text              ro code  0x0800615c     0x4  startup_stm32f4xx.o [1]
  .text              ro code  0x08006160     0x4  startup_stm32f4xx.o [1]
  .text              ro code  0x08006164     0x4  startup_stm32f4xx.o [1]
  .text              ro code  0x08006168     0x4  startup_stm32f4xx.o [1]
  .text              ro code  0x0800616c     0x4  startup_stm32f4xx.o [1]
  .text              ro code  0x08006170     0x4  startup_stm32f4xx.o [1]
  .text              ro code  0x08006174     0x4  startup_stm32f4xx.o [1]
  .text              ro code  0x08006178     0x4  startup_stm32f4xx.o [1]
  .text              ro code  0x0800617c     0x4  startup_stm32f4xx.o [1]
  .text              ro code  0x08006180     0x4  startup_stm32f4xx.o [1]
  .text              ro code  0x08006184     0x4  startup_stm32f4xx.o [1]
  .text              ro code  0x08006188     0x4  startup_stm32f4xx.o [1]
  .text              ro code  0x0800618c     0x4  startup_stm32f4xx.o [1]
  .text              ro code  0x08006190     0x4  startup_stm32f4xx.o [1]
  .text              ro code  0x08006194     0x4  startup_stm32f4xx.o [1]
  .text              ro code  0x08006198     0x4  startup_stm32f4xx.o [1]
  .text              ro code  0x0800619c     0x4  startup_stm32f4xx.o [1]
  .text              ro code  0x080061a0     0x4  startup_stm32f4xx.o [1]
  .text              ro code  0x080061a4     0x4  startup_stm32f4xx.o [1]
  .text              ro code  0x080061a8     0x4  startup_stm32f4xx.o [1]
  .text              ro code  0x080061ac     0x4  startup_stm32f4xx.o [1]
  .text              ro code  0x080061b0     0x4  startup_stm32f4xx.o [1]
  .text              ro code  0x080061b4     0x4  startup_stm32f4xx.o [1]
  .text              ro code  0x080061b8     0x4  startup_stm32f4xx.o [1]
  .text              ro code  0x080061bc     0x4  startup_stm32f4xx.o [1]
  .text              ro code  0x080061c0     0x4  startup_stm32f4xx.o [1]
  .text              ro code  0x080061c4     0x4  startup_stm32f4xx.o [1]
  .text              ro code  0x080061c8     0x4  startup_stm32f4xx.o [1]
  .text              ro code  0x080061cc     0x4  startup_stm32f4xx.o [1]
  .text              ro code  0x080061d0     0x4  startup_stm32f4xx.o [1]
  .text              ro code  0x080061d4     0x4  startup_stm32f4xx.o [1]
  .text              ro code  0x080061d8     0x4  startup_stm32f4xx.o [1]
  .text              ro code  0x080061dc     0x4  startup_stm32f4xx.o [1]
  .text              ro code  0x080061e0     0x4  startup_stm32f4xx.o [1]
  .text              ro code  0x080061e4     0x4  startup_stm32f4xx.o [1]
  .text              ro code  0x080061e8     0x4  startup_stm32f4xx.o [1]
  .text              ro code  0x080061ec     0x4  startup_stm32f4xx.o [1]
  .text              ro code  0x080061f0     0x4  startup_stm32f4xx.o [1]
  .text              ro code  0x080061f4     0x4  startup_stm32f4xx.o [1]
  .rodata            const    0x080061f8     0x0  zero_init3.o [5]
  .rodata            const    0x080061f8     0x0  copy_init3.o [5]
  Initializer bytes  ro data  0x080061f8   0x17c  <for P2 s0>
                            - 0x08006374  0x61ec

"P2", part 1 of 3:                         0x17c
  P2 s0                       0x20000000   0x17c  <Init block>
    .data            inited   0x20000000    0x4c  usbd_hid_core.o [1]
    .data            inited   0x2000004c    0x2c  usbd_core.o [1]
    .data            inited   0x20000078    0x2c  usbd_hid_core.o [1]
    .data            inited   0x200000a4    0x24  usbd_hid_core.o [1]
    .data            inited   0x200000c8    0x1c  usbd_desc.o [1]
    .data            inited   0x200000e4    0x1c  usbd_usr.o [1]
    .data            inited   0x20000100    0x14  usbd_desc.o [1]
    .data            inited   0x20000114    0x10  stm32f4_discovery.o [1]
    .data            inited   0x20000124    0x10  stm32f4xx_rcc.o [1]
    .data            inited   0x20000134     0x4  stm32f4_discovery.o [1]
    .data            inited   0x20000138     0x4  stm32f4_discovery_audio_codec.o [1]
    .data            inited   0x2000013c     0x4  stm32f4_discovery_audio_codec.o [1]
    .data            inited   0x20000140     0x4  stm32f4_discovery_audio_codec.o [1]
    .data            inited   0x20000144     0x4  stm32f4_discovery_audio_codec.o [1]
    .data            inited   0x20000148     0x4  stm32f4_discovery_audio_codec.o [1]
    .data            inited   0x2000014c     0x4  stm32f4_discovery_audio_codec.o [1]
    .data            inited   0x20000150     0x4  stm32f4_discovery_audio_codec.o [1]
    .data            inited   0x20000154     0x4  stm32f4_discovery_audio_codec.o [1]
    .data            inited   0x20000158     0x4  stm32f4_discovery_audio_codec.o [1]
    .data            inited   0x2000015c     0x4  stm32f4_discovery_audio_codec.o [1]
    .data            inited   0x20000160     0x4  stm32f4_discovery_audio_codec.o [1]
    .data            inited   0x20000164     0x4  stm32f4_discovery_audio_codec.o [1]
    .data            inited   0x20000168     0x4  stm32f4_discovery_lis302dl.o [1]
    .data            inited   0x2000016c     0x4  system_stm32f4xx.o [1]
    .data            inited   0x20000170     0x4  usbd_core.o [1]
    .data            inited   0x20000174     0x4  usbd_desc.o [1]
    .data            inited   0x20000178     0x2  selftest.o [1]
                            - 0x2000017c   0x17c

"P2", part 2 of 3:                         0x6ec
  .bss               zero     0x2000017c   0x5f0  main.o [1]
  .bss               zero     0x2000076c    0x40  usbd_req.o [1]
  .bss               zero     0x200007ac    0x3c  stm32f4_discovery_audio_codec.o [1]
  .bss               zero     0x200007e8    0x18  selftest.o [1]
  .bss               zero     0x20000800    0x10  selftest.o [1]
  .bss               zero     0x20000810     0x8  main.o [1]
  .bss               zero     0x20000818     0x8  main.o [1]
  .bss               zero     0x20000820     0x4  main.o [1]
  .bss               zero     0x20000824     0x4  main.o [1]
  .bss               zero     0x20000828     0x4  stm32f4_discovery_audio_codec.o [1]
  .bss               zero     0x2000082c     0x4  stm32f4_discovery_audio_codec.o [1]
  .bss               zero     0x20000830     0x4  stm32f4xx_it.o [1]
  .bss               zero     0x20000834     0x4  usbd_hid_core.o [1]
  .bss               zero     0x20000838     0x4  usbd_hid_core.o [1]
  .bss               zero     0x2000083c     0x4  usbd_hid_core.o [1]
  .bss               zero     0x20000840     0x4  usbd_req.o [1]
  .bss               zero     0x20000844     0x4  usbd_req.o [1]
  .bss               zero     0x20000848     0x4  usbd_req.o [1]
  .bss               zero     0x2000084c     0x2  main.o [1]
  .bss               zero     0x2000084e     0x2  selftest.o [1]
  .bss               zero     0x20000850     0x2  selftest.o [1]
  .bss               zero     0x20000852     0x2  selftest.o [1]
  .bss               zero     0x20000854     0x2  selftest.o [1]
  .bss               zero     0x20000856     0x2  selftest.o [1]
  .bss               zero     0x20000858     0x2  selftest.o [1]
  .bss               zero     0x2000085a     0x1  main.o [1]
  .bss               zero     0x2000085b     0x1  main.o [1]
  .bss               zero     0x2000085c     0x1  main.o [1]
  .bss               zero     0x2000085d     0x1  main.o [1]
  .bss               zero     0x2000085e     0x1  main.o [1]
  .bss               zero     0x2000085f     0x1  selftest.o [1]
  .bss               zero     0x20000860     0x1  stm32f4_discovery_audio_codec.o [1]
  .bss               zero     0x20000861     0x1  stm32f4xx_it.o [1]
  .bss               zero     0x20000862     0x1  stm32f4xx_it.o [1]
  .bss               zero     0x20000863     0x1  usbd_req.o [1]
                            - 0x20000864   0x6e8

"P2", part 3 of 3:                         0x400
  CSTACK                      0x20000868   0x400  <Block>
    CSTACK           uninit   0x20000868   0x400  <Block tail>
                            - 0x20000c68   0x400


*******************************************************************************
*** INIT TABLE
***

          Address     Size
          -------     ----
Zero (__iar_zero_init3)
    1 destination range, total size 0x6e8:
          0x2000017c  0x6e8

Copy (__iar_copy_init3)
    1 source range, total size 0x17c (100% of destination):
          0x080061f8  0x17c
    1 destination range, total size 0x17a:
          0x20000000  0x17a



*******************************************************************************
*** MODULE SUMMARY
***

    Module                           ro code  ro data  rw data
    ------                           -------  -------  -------
C:\Users\Sin\Documents\STM32\STM32F4-Discovery_FW_V1.1.0\Project\Demonstration\EWARM\Demo\Obj: [1]
    main.o                             1 304             1 551
    misc.o                               136
    selftest.o                         2 826       98       55
    startup_stm32f4xx.o                  772
    stm32f4_discovery.o                  368       55       20
    stm32f4_discovery_audio_codec.o    3 172       48      117
    stm32f4_discovery_lis302dl.o         684        4        4
    stm32f4xx_adc.o                      474
    stm32f4xx_dac.o                      124
    stm32f4xx_dma.o                      732
    stm32f4xx_exti.o                     164
    stm32f4xx_flash.o                    436
    stm32f4xx_gpio.o                     308
    stm32f4xx_i2c.o                      642
    stm32f4xx_it.o                       668                 6
    stm32f4xx_rcc.o                      480       16       16
    stm32f4xx_spi.o                      738
    stm32f4xx_syscfg.o                    84
    stm32f4xx_tim.o                      828
    system_stm32f4xx.o                   368        4        4
    usb_bsp.o                            268
    usb_core.o                         3 076
    usb_dcd.o                            804
    usb_dcd_int.o                      1 738
    usbd_core.o                          712       48       48
    usbd_desc.o                          232      172       52
    usbd_hid_core.o                      362      156      168
    usbd_ioreq.o                         180
    usbd_req.o                         1 728                77
    usbd_usr.o                           160       28       28
    ----------------------------------------------------------
    Total:                            24 568      629    2 146

command line: [2]
    ----------------------------------------------------------
    Total:

dl7M_tlf.a: [3]
    exit.o                                 4
    low_level_init.o                       4
    ----------------------------------------------------------
    Total:                                 8

m7M_tlv.a: [4]
    fpinit_M.o                            26
    ----------------------------------------------------------
    Total:                                26

rt7M_tl.a: [5]
    cexit.o                               10
    cmain.o                               22
    copy_init3.o                          46
    cstartup_M.o                          12
    data_init3.o                          40
    zero_init3.o                          34
    ----------------------------------------------------------
    Total:                               164

shb_l.a: [6]
    exit.o                                20
    ----------------------------------------------------------
    Total:                                20

    Gaps                                   7
    Linker created                                 38    1 024
--------------------------------------------------------------
    Grand Total:                      24 793      667    3 170


*******************************************************************************
*** ENTRY LIST
***

Entry                      Address   Size  Type      Object
-----                      -------   ----  ----      ------
?main                   0x08005f9d         Code  Gb  cmain.o [5]
ADC_Cmd                 0x08002f65   0x1a  Code  Gb  stm32f4xx_adc.o [1]
ADC_CommonInit          0x08002f43   0x22  Code  Gb  stm32f4xx_adc.o [1]
ADC_CommonInitStructure
                        0x20000800   0x10  Data  Gb  selftest.o [1]
ADC_GetConversionValue  0x0800307f    0x6  Code  Gb  stm32f4xx_adc.o [1]
ADC_GetFlagStatus       0x08003095   0x1a  Code  Gb  stm32f4xx_adc.o [1]
ADC_IRQHandler          0x080060f9         Code  Wk  startup_stm32f4xx.o [1]
ADC_Init                0x08002ed5   0x50  Code  Gb  stm32f4xx_adc.o [1]
ADC_InitStructure       0x200007e8   0x18  Data  Gb  selftest.o [1]
ADC_RegularChannelConfig
                        0x08002f7f   0xf6  Code  Gb  stm32f4xx_adc.o [1]
ADC_SoftwareStartConv   0x08003075    0xa  Code  Gb  stm32f4xx_adc.o [1]
ADC_StructInit          0x08002f25   0x1e  Code  Gb  stm32f4xx_adc.o [1]
APBAHBPrescTable        0x20000124   0x10  Data  Lc  stm32f4xx_rcc.o [1]
AUDIO_MAL_DMA_CHANNEL   0x2000082c    0x4  Data  Gb  stm32f4_discovery_audio_codec.o [1]
AUDIO_MAL_DMA_CLOCK     0x20000144    0x4  Data  Gb  stm32f4_discovery_audio_codec.o [1]
AUDIO_MAL_DMA_DREG      0x2000014c    0x4  Data  Gb  stm32f4_discovery_audio_codec.o [1]
AUDIO_MAL_DMA_FLAG_DME  0x20000164    0x4  Data  Gb  stm32f4_discovery_audio_codec.o [1]
AUDIO_MAL_DMA_FLAG_FE   0x2000015c    0x4  Data  Gb  stm32f4_discovery_audio_codec.o [1]
AUDIO_MAL_DMA_FLAG_HT   0x20000158    0x4  Data  Gb  stm32f4_discovery_audio_codec.o [1]
AUDIO_MAL_DMA_FLAG_TC   0x20000154    0x4  Data  Gb  stm32f4_discovery_audio_codec.o [1]
AUDIO_MAL_DMA_FLAG_TE   0x20000160    0x4  Data  Gb  stm32f4_discovery_audio_codec.o [1]
AUDIO_MAL_DMA_IRQ       0x20000150    0x4  Data  Gb  stm32f4_discovery_audio_codec.o [1]
AUDIO_MAL_DMA_STREAM    0x20000148    0x4  Data  Gb  stm32f4_discovery_audio_codec.o [1]
Accelerometer_MEMS_Test
                        0x080010c9  0x11e  Code  Gb  selftest.o [1]
AudioRemSize            0x20000138    0x4  Data  Gb  stm32f4_discovery_audio_codec.o [1]
Audio_MAL_DeInit        0x08000ce5   0x36  Code  Lc  stm32f4_discovery_audio_codec.o [1]
Audio_MAL_IRQHandler    0x080002ab  0x108  Code  Lc  stm32f4_discovery_audio_codec.o [1]
Audio_MAL_Init          0x08000bc9  0x106  Code  Lc  stm32f4_discovery_audio_codec.o [1]
Audio_Test              0x080016c1  0x32e  Code  Gb  selftest.o [1]
BUTTON_CLK              0x08006088    0x4  Data  Gb  stm32f4_discovery.o [1]
BUTTON_EXTI_LINE        0x080030ae    0x2  Data  Gb  stm32f4_discovery.o [1]
BUTTON_IRQn             0x08005bda    0x1  Data  Gb  stm32f4_discovery.o [1]
BUTTON_PIN              0x08002336    0x2  Data  Gb  stm32f4_discovery.o [1]
BUTTON_PIN_SOURCE       0x080057d3    0x1  Data  Gb  stm32f4_discovery.o [1]
BUTTON_PORT             0x20000134    0x4  Data  Gb  stm32f4_discovery.o [1]
BUTTON_PORT_SOURCE      0x080057d2    0x1  Data  Gb  stm32f4_discovery.o [1]
Buffer                  0x20000818    0x8  Data  Gb  main.o [1]
BusFault_Handler        0x080057db    0x2  Code  Gb  stm32f4xx_it.o [1]
CAN1_RX0_IRQHandler     0x08006101         Code  Wk  startup_stm32f4xx.o [1]
CAN1_RX1_IRQHandler     0x08006105         Code  Wk  startup_stm32f4xx.o [1]
CAN1_SCE_IRQHandler     0x08006109         Code  Wk  startup_stm32f4xx.o [1]
CAN1_TX_IRQHandler      0x080060fd         Code  Wk  startup_stm32f4xx.o [1]
CAN2_RX0_IRQHandler     0x080061b1         Code  Wk  startup_stm32f4xx.o [1]
CAN2_RX1_IRQHandler     0x080061b5         Code  Wk  startup_stm32f4xx.o [1]
CAN2_SCE_IRQHandler     0x080061b9         Code  Wk  startup_stm32f4xx.o [1]
CAN2_TX_IRQHandler      0x080061ad         Code  Wk  startup_stm32f4xx.o [1]
CODECTimeout            0x2000013c    0x4  Data  Gb  stm32f4_discovery_audio_codec.o [1]
CRYP_IRQHandler         0x080061ed         Code  Wk  startup_stm32f4xx.o [1]
CSTACK$$Base            0x20000868          --   Gb  - Linker created -
CSTACK$$Limit           0x20000c68          --   Gb  - Linker created -
Codec_AudioInterface_DeInit
                        0x080009c7   0x20  Code  Lc  stm32f4_discovery_audio_codec.o [1]
Codec_AudioInterface_Init
                        0x0800094d   0x7a  Code  Lc  stm32f4_discovery_audio_codec.o [1]
Codec_CtrlInterface_DeInit
                        0x0800094b    0x2  Code  Lc  stm32f4_discovery_audio_codec.o [1]
Codec_CtrlInterface_Init
                        0x080008f3   0x58  Code  Lc  stm32f4_discovery_audio_codec.o [1]
Codec_DeInit            0x08000501   0x24  Code  Lc  stm32f4_discovery_audio_codec.o [1]
Codec_GPIO_DeInit       0x08000b1b   0x70  Code  Lc  stm32f4_discovery_audio_codec.o [1]
Codec_GPIO_Init         0x080009e7  0x134  Code  Lc  stm32f4_discovery_audio_codec.o [1]
Codec_Init              0x080003fd  0x104  Code  Lc  stm32f4_discovery_audio_codec.o [1]
Codec_ReadRegister      0x080006ed  0x206  Code  Lc  stm32f4_discovery_audio_codec.o [1]
Codec_Reset             0x08000577   0x24  Code  Lc  stm32f4_discovery_audio_codec.o [1]
Codec_TIMEOUT_UserCallback
                        0x08001bd1    0x2  Code  Gb  selftest.o [1]
Codec_VolumeCtrl        0x08000525   0x52  Code  Lc  stm32f4_discovery_audio_codec.o [1]
Codec_WriteRegister     0x0800059b  0x152  Code  Lc  stm32f4_discovery_audio_codec.o [1]
ConvData1               0x2000084e    0x2  Data  Gb  selftest.o [1]
ConvData2               0x20000850    0x2  Data  Gb  selftest.o [1]
Counter                 0x20000861    0x1  Data  Gb  stm32f4xx_it.o [1]
CurrAudioInterface      0x20000140    0x4  Data  Gb  stm32f4_discovery_audio_codec.o [1]
CurrentPos              0x20000828    0x4  Data  Gb  stm32f4_discovery_audio_codec.o [1]
DACTest                 0x2000085f    0x1  Data  Gb  selftest.o [1]
DAC_Cmd                 0x08001f37   0x26  Code  Gb  stm32f4xx_dac.o [1]
DAC_Config              0x08000d35   0x4e  Code  Gb  stm32f4_discovery_audio_codec.o [1]
DAC_Init                0x08001f05   0x32  Code  Gb  stm32f4xx_dac.o [1]
DAC_SetChannel1Data     0x08001f5d   0x1e  Code  Gb  stm32f4xx_dac.o [1]
DCD_DevDisconnect       0x080038ab   0x1a  Code  Gb  usb_dcd.o [1]
DCD_EP_Close            0x080036bf   0x4a  Code  Gb  usb_dcd.o [1]
DCD_EP_ClrStall         0x0800381d   0x50  Code  Gb  usb_dcd.o [1]
DCD_EP_Flush            0x0800386d   0x24  Code  Gb  usb_dcd.o [1]
DCD_EP_Open             0x08003643   0x7c  Code  Gb  usb_dcd.o [1]
DCD_EP_PrepareRx        0x08003709   0x66  Code  Gb  usb_dcd.o [1]
DCD_EP_SetAddress       0x08003891   0x1a  Code  Gb  usb_dcd.o [1]
DCD_EP_Stall            0x080037cd   0x50  Code  Gb  usb_dcd.o [1]
DCD_EP_Tx               0x0800376f   0x5e  Code  Gb  usb_dcd.o [1]
DCD_HandleEnumDone_ISR  0x08005711   0x4e  Code  Lc  usb_dcd_int.o [1]
DCD_HandleInEP_ISR      0x080052ab  0x13c  Code  Lc  usb_dcd_int.o [1]
DCD_HandleOutEP_ISR     0x080053e7   0xf6  Code  Lc  usb_dcd_int.o [1]
DCD_HandleResume_ISR    0x080051f1   0x4c  Code  Lc  usb_dcd_int.o [1]
DCD_HandleRxStatusQueueLevel_ISR
                        0x080054fb   0xa4  Code  Lc  usb_dcd_int.o [1]
DCD_HandleSof_ISR       0x080054dd   0x1e  Code  Lc  usb_dcd_int.o [1]
DCD_HandleUSBSuspend_ISR
                        0x0800523d   0x6e  Code  Lc  usb_dcd_int.o [1]
DCD_HandleUsbReset_ISR  0x0800563f   0xd2  Code  Lc  usb_dcd_int.o [1]
DCD_Init                0x080035a1   0xa2  Code  Gb  usb_dcd.o [1]
DCD_IsoINIncomplete_ISR
                        0x0800575f   0x1e  Code  Lc  usb_dcd_int.o [1]
DCD_IsoOUTIncomplete_ISR
                        0x0800577d   0x1e  Code  Lc  usb_dcd_int.o [1]
DCD_ReadDevInEP         0x080057a5   0x2e  Code  Lc  usb_dcd_int.o [1]
DCD_WriteEmptyTxFifo    0x0800559f   0xa0  Code  Lc  usb_dcd_int.o [1]
DCMI_IRQHandler         0x080061e9         Code  Wk  startup_stm32f4xx.o [1]
DMA1_Stream0_IRQHandler
                        0x080003bb    0x8  Code  Gb  stm32f4_discovery_audio_codec.o [1]
DMA1_Stream1_IRQHandler
                        0x080060e1         Code  Wk  startup_stm32f4xx.o [1]
DMA1_Stream2_IRQHandler
                        0x080060e5         Code  Wk  startup_stm32f4xx.o [1]
DMA1_Stream3_IRQHandler
                        0x080060e9         Code  Wk  startup_stm32f4xx.o [1]
DMA1_Stream4_IRQHandler
                        0x080060ed         Code  Wk  startup_stm32f4xx.o [1]
DMA1_Stream5_IRQHandler
                        0x080060f1         Code  Wk  startup_stm32f4xx.o [1]
DMA1_Stream6_IRQHandler
                        0x080060f5         Code  Wk  startup_stm32f4xx.o [1]
DMA1_Stream7_IRQHandler
                        0x080003b3    0x8  Code  Gb  stm32f4_discovery_audio_codec.o [1]
DMA2_Stream0_IRQHandler
                        0x08006191         Code  Wk  startup_stm32f4xx.o [1]
DMA2_Stream1_IRQHandler
                        0x08006195         Code  Wk  startup_stm32f4xx.o [1]
DMA2_Stream2_IRQHandler
                        0x08006199         Code  Wk  startup_stm32f4xx.o [1]
DMA2_Stream3_IRQHandler
                        0x0800619d         Code  Wk  startup_stm32f4xx.o [1]
DMA2_Stream4_IRQHandler
                        0x080061a1         Code  Wk  startup_stm32f4xx.o [1]
DMA2_Stream5_IRQHandler
                        0x080061c1         Code  Wk  startup_stm32f4xx.o [1]
DMA2_Stream6_IRQHandler
                        0x080061c5         Code  Wk  startup_stm32f4xx.o [1]
DMA2_Stream7_IRQHandler
                        0x080061c9         Code  Wk  startup_stm32f4xx.o [1]
DMA_ClearFlag           0x08000ff7   0x24  Code  Gb  stm32f4xx_dma.o [1]
DMA_Cmd                 0x08000f87   0x1a  Code  Gb  stm32f4xx_dma.o [1]
DMA_DeInit              0x08000ded  0x142  Code  Gb  stm32f4xx_dma.o [1]
DMA_GetCmdStatus        0x08000fa1   0x18  Code  Gb  stm32f4xx_dma.o [1]
DMA_GetFlagStatus       0x08000fb9   0x3e  Code  Gb  stm32f4xx_dma.o [1]
DMA_ITConfig            0x0800101b   0x42  Code  Gb  stm32f4xx_dma.o [1]
DMA_Init                0x08000f2f   0x58  Code  Gb  stm32f4xx_dma.o [1]
DMA_InitStructure       0x200007ac   0x3c  Data  Gb  stm32f4_discovery_audio_codec.o [1]
DebugMon_Handler        0x080057e1    0x2  Code  Gb  stm32f4xx_it.o [1]
Delay                   0x08002ca7   0x14  Code  Gb  main.o [1]
Delay                   0x08000bb5   0x14  Code  Lc  stm32f4_discovery_audio_codec.o [1]
DemoEnterCondition      0x2000085a    0x1  Data  Gb  main.o [1]
Demo_Exec               0x080029c5  0x1a0  Code  Lc  main.o [1]
Demo_USBConfig          0x08002b65   0x16  Code  Lc  main.o [1]
ETH_IRQHandler          0x080061a5         Code  Wk  startup_stm32f4xx.o [1]
ETH_WKUP_IRQHandler     0x080061a9         Code  Wk  startup_stm32f4xx.o [1]
EVAL_AUDIO_DeInit       0x0800029d    0xe  Code  Gb  stm32f4_discovery_audio_codec.o [1]
EVAL_AUDIO_GetSampleCallBack
                        0x08001ae1   0x96  Code  Gb  selftest.o [1]
EVAL_AUDIO_Init         0x08000261   0x3c  Code  Gb  stm32f4_discovery_audio_codec.o [1]
EVAL_AUDIO_SetAudioInterface
                        0x08000189   0xd8  Code  Gb  stm32f4_discovery_audio_codec.o [1]
EVAL_AUDIO_TransferComplete_CallBack
                        0x08001adf    0x2  Code  Gb  selftest.o [1]
EXTI0_IRQHandler        0x08005995   0x10  Code  Gb  stm32f4xx_it.o [1]
EXTI15_10_IRQHandler    0x08006151         Code  Wk  startup_stm32f4xx.o [1]
EXTI1_IRQHandler        0x080060cd         Code  Wk  startup_stm32f4xx.o [1]
EXTI2_IRQHandler        0x080060d1         Code  Wk  startup_stm32f4xx.o [1]
EXTI3_IRQHandler        0x080060d5         Code  Wk  startup_stm32f4xx.o [1]
EXTI4_IRQHandler        0x080060d9         Code  Wk  startup_stm32f4xx.o [1]
EXTI9_5_IRQHandler      0x0800610d         Code  Wk  startup_stm32f4xx.o [1]
EXTI_ClearITPendingBit  0x0800486d    0x6  Code  Gb  stm32f4xx_exti.o [1]
EXTI_Init               0x080047e5   0x88  Code  Gb  stm32f4xx_exti.o [1]
FLASH_EraseSector       0x080030d1   0xc0  Code  Gb  stm32f4xx_flash.o [1]
FLASH_GetStatus         0x080031e3   0x44  Code  Gb  stm32f4xx_flash.o [1]
FLASH_IRQHandler        0x080060c1         Code  Wk  startup_stm32f4xx.o [1]
FLASH_ProgramWord       0x08003191   0x52  Code  Gb  stm32f4xx_flash.o [1]
FLASH_Unlock            0x080030b1   0x20  Code  Gb  stm32f4xx_flash.o [1]
FLASH_WaitForLastOperation
                        0x0800323d   0x28  Code  Gb  stm32f4xx_flash.o [1]
FPU_IRQHandler          0x080061f5         Code  Wk  startup_stm32f4xx.o [1]
FSMC_IRQHandler         0x08006171         Code  Wk  startup_stm32f4xx.o [1]
Fail_Handler            0x08002ccf   0x20  Code  Gb  main.o [1]
GPIO_CLK                0x08006018   0x10  Data  Gb  stm32f4_discovery.o [1]
GPIO_Init               0x08001f81   0xaa  Code  Gb  stm32f4xx_gpio.o [1]
GPIO_PIN                0x08006080    0x8  Data  Gb  stm32f4_discovery.o [1]
GPIO_PORT               0x20000114   0x10  Data  Gb  stm32f4_discovery.o [1]
GPIO_PinAFConfig        0x0800205b   0x5a  Code  Gb  stm32f4xx_gpio.o [1]
GPIO_ReadInputDataBit   0x0800202b   0x1a  Code  Gb  stm32f4xx_gpio.o [1]
GPIO_ResetBits          0x08002049    0x4  Code  Gb  stm32f4xx_gpio.o [1]
GPIO_SetBits            0x08002045    0x4  Code  Gb  stm32f4xx_gpio.o [1]
GPIO_WriteBit           0x0800204d    0xe  Code  Gb  stm32f4xx_gpio.o [1]
HASH_RNG_IRQHandler     0x080061f1         Code  Wk  startup_stm32f4xx.o [1]
HID_MOUSE_ReportDesc    0x20000000   0x4c  Data  Lc  usbd_hid_core.o [1]
HardFault_Handler       0x080057d7    0x2  Code  Gb  stm32f4xx_it.o [1]
I2C1_ER_IRQHandler      0x08006131         Code  Wk  startup_stm32f4xx.o [1]
I2C1_EV_IRQHandler      0x0800612d         Code  Wk  startup_stm32f4xx.o [1]
I2C2_ER_IRQHandler      0x08006139         Code  Wk  startup_stm32f4xx.o [1]
I2C2_EV_IRQHandler      0x08006135         Code  Wk  startup_stm32f4xx.o [1]
I2C3_ER_IRQHandler      0x080061d5         Code  Wk  startup_stm32f4xx.o [1]
I2C3_EV_IRQHandler      0x080061d1         Code  Wk  startup_stm32f4xx.o [1]
I2C_AcknowledgeConfig   0x08002283   0x1c  Code  Gb  stm32f4xx_i2c.o [1]
I2C_CheckEvent          0x080022ab   0x38  Code  Gb  stm32f4xx_i2c.o [1]
I2C_ClearFlag           0x08002329    0xe  Code  Gb  stm32f4xx_i2c.o [1]
I2C_Cmd                 0x08002219   0x1c  Code  Gb  stm32f4xx_i2c.o [1]
I2C_DeInit              0x080020b5   0x58  Code  Gb  stm32f4xx_i2c.o [1]
I2C_GenerateSTART       0x08002235   0x1c  Code  Gb  stm32f4xx_i2c.o [1]
I2C_GenerateSTOP        0x08002251   0x1c  Code  Gb  stm32f4xx_i2c.o [1]
I2C_GetFlagStatus       0x080022e3   0x46  Code  Gb  stm32f4xx_i2c.o [1]
I2C_Init                0x0800210d   0xf2  Code  Gb  stm32f4xx_i2c.o [1]
I2C_ReceiveData         0x080022a5    0x6  Code  Gb  stm32f4xx_i2c.o [1]
I2C_Send7bitAddress     0x0800226d   0x16  Code  Gb  stm32f4xx_i2c.o [1]
I2C_SendData            0x0800229f    0x6  Code  Gb  stm32f4xx_i2c.o [1]
I2S_Cmd                 0x08001e65   0x1c  Code  Gb  stm32f4xx_spi.o [1]
I2S_Init                0x08001c99  0x194  Code  Gb  stm32f4xx_spi.o [1]
LIS302DLTimeout         0x20000168    0x4  Data  Gb  stm32f4_discovery_lis302dl.o [1]
LIS302DL_FilterConfig   0x080025d3   0x42  Code  Gb  stm32f4_discovery_lis302dl.o [1]
LIS302DL_FilterStruct   0x20000824    0x4  Data  Gb  main.o [1]
LIS302DL_Init           0x080025a1   0x32  Code  Gb  stm32f4_discovery_lis302dl.o [1]
LIS302DL_InitStruct     0x20000810    0x8  Data  Gb  main.o [1]
LIS302DL_LowLevel_Init  0x08002699  0x132  Code  Lc  stm32f4_discovery_lis302dl.o [1]
LIS302DL_Read           0x08002653   0x46  Code  Gb  stm32f4_discovery_lis302dl.o [1]
LIS302DL_SendByte       0x080027cb   0x6e  Code  Lc  stm32f4_discovery_lis302dl.o [1]
LIS302DL_TIMEOUT_UserCallback
                        0x08002cef   0x16  Code  Gb  main.o [1]
LIS302DL_Write          0x08002615   0x3e  Code  Gb  stm32f4_discovery_lis302dl.o [1]
Left_Right              0x20000858    0x2  Data  Gb  selftest.o [1]
MemManage_Handler       0x080057d9    0x2  Code  Gb  stm32f4xx_it.o [1]
Microphone_MEMS_Test    0x080019ef   0xf0  Code  Gb  selftest.o [1]
NMI_Handler             0x080057d5    0x2  Code  Gb  stm32f4xx_it.o [1]
NVIC_Init               0x08002523   0x6a  Code  Gb  misc.o [1]
NVIC_PriorityGroupConfig
                        0x08002519    0xa  Code  Gb  misc.o [1]
NVIC_SetPriority        0x0800284d   0x26  Code  Lc  main.o [1]
NVIC_SetPriority        0x08005e35   0x22  Code  Lc  usbd_usr.o [1]
OTG_FS_IRQHandler       0x080059cf    0xa  Code  Gb  stm32f4xx_it.o [1]
OTG_FS_WKUP_IRQHandler  0x080059a5   0x2a  Code  Gb  stm32f4xx_it.o [1]
OTG_HS_EP1_IN_IRQHandler
                        0x080061dd         Code  Wk  startup_stm32f4xx.o [1]
OTG_HS_EP1_OUT_IRQHandler
                        0x080061d9         Code  Wk  startup_stm32f4xx.o [1]
OTG_HS_IRQHandler       0x080061e5         Code  Wk  startup_stm32f4xx.o [1]
OTG_HS_WKUP_IRQHandler  0x080061e1         Code  Wk  startup_stm32f4xx.o [1]
OutputDev               0x20000860    0x1  Data  Gb  stm32f4_discovery_audio_codec.o [1]
PVD_IRQHandler          0x080060b5         Code  Wk  startup_stm32f4xx.o [1]
PendSV_Handler          0x080057e3    0x2  Code  Gb  stm32f4xx_it.o [1]
PrescalerValue          0x2000084c    0x2  Data  Gb  main.o [1]
RCC_AHB1PeriphClockCmd  0x08002439   0x1e  Code  Gb  stm32f4xx_rcc.o [1]
RCC_AHB2PeriphClockCmd  0x08002457   0x1e  Code  Gb  stm32f4xx_rcc.o [1]
RCC_APB1PeriphClockCmd  0x08002475   0x1e  Code  Gb  stm32f4xx_rcc.o [1]
RCC_APB1PeriphResetCmd  0x080024b1   0x1e  Code  Gb  stm32f4xx_rcc.o [1]
RCC_APB2PeriphClockCmd  0x08002493   0x1e  Code  Gb  stm32f4xx_rcc.o [1]
RCC_APB2PeriphResetCmd  0x080024cf   0x1e  Code  Gb  stm32f4xx_rcc.o [1]
RCC_GetClocksFreq       0x08002339  0x100  Code  Gb  stm32f4xx_rcc.o [1]
RCC_IRQHandler          0x080060c5         Code  Wk  startup_stm32f4xx.o [1]
RTC_Alarm_IRQHandler    0x08006155         Code  Wk  startup_stm32f4xx.o [1]
RTC_WKUP_IRQHandler     0x080060bd         Code  Wk  startup_stm32f4xx.o [1]
Region$$Table$$Base     0x08005f5c          --   Gb  - Linker created -
Region$$Table$$Limit    0x08005f80          --   Gb  - Linker created -
Reset_Handler           0x08006059         Code  Wk  startup_stm32f4xx.o [1]
SDIO_IRQHandler         0x08006175         Code  Wk  startup_stm32f4xx.o [1]
SPI1_IRQHandler         0x0800613d         Code  Wk  startup_stm32f4xx.o [1]
SPI2_IRQHandler         0x08006141         Code  Wk  startup_stm32f4xx.o [1]
SPI3_IRQHandler         0x080003c3   0x3a  Code  Gb  stm32f4_discovery_audio_codec.o [1]
SPI_Cmd                 0x08001e49   0x1c  Code  Gb  stm32f4xx_spi.o [1]
SPI_I2S_DMACmd          0x08001e89   0x16  Code  Gb  stm32f4xx_spi.o [1]
SPI_I2S_DeInit          0x08001c01   0x58  Code  Gb  stm32f4xx_spi.o [1]
SPI_I2S_GetFlagStatus   0x08001ecb   0x18  Code  Gb  stm32f4xx_spi.o [1]
SPI_I2S_ITConfig        0x08001e9f   0x2c  Code  Gb  stm32f4xx_spi.o [1]
SPI_I2S_ReceiveData     0x08001e81    0x4  Code  Gb  stm32f4xx_spi.o [1]
SPI_I2S_SendData        0x08001e85    0x4  Code  Gb  stm32f4xx_spi.o [1]
SPI_Init                0x08001c59   0x40  Code  Gb  stm32f4xx_spi.o [1]
STM_EVAL_LEDInit        0x08002d65   0x44  Code  Gb  stm32f4_discovery.o [1]
STM_EVAL_LEDOff         0x08002dbd   0x14  Code  Gb  stm32f4_discovery.o [1]
STM_EVAL_LEDOn          0x08002da9   0x14  Code  Gb  stm32f4_discovery.o [1]
STM_EVAL_LEDToggle      0x08002dd1   0x20  Code  Gb  stm32f4_discovery.o [1]
STM_EVAL_PBGetState     0x08002e93   0x1a  Code  Gb  stm32f4_discovery.o [1]
STM_EVAL_PBInit         0x08002df1   0xa2  Code  Gb  stm32f4_discovery.o [1]
SVC_Handler             0x080057df    0x2  Code  Gb  stm32f4xx_it.o [1]
SYSCFG_EXTILineConfig   0x08004791   0x50  Code  Gb  stm32f4xx_syscfg.o [1]
SetSysClock             0x08005c23   0xf4  Code  Lc  system_stm32f4xx.o [1]
SysTick_Config          0x08002873   0x38  Code  Lc  main.o [1]
SysTick_Config          0x08005e57   0x32  Code  Lc  usbd_usr.o [1]
SysTick_Handler         0x080057e5  0x1b0  Code  Gb  stm32f4xx_it.o [1]
SystemCoreClock         0x2000016c    0x4  Data  Gb  system_stm32f4xx.o [1]
SystemInit              0x08005bdd   0x46  Code  Gb  system_stm32f4xx.o [1]
TAMP_STAMP_IRQHandler   0x080060b9         Code  Wk  startup_stm32f4xx.o [1]
TIM1_BRK_TIM9_IRQHandler
                        0x08006111         Code  Wk  startup_stm32f4xx.o [1]
TIM1_CC_IRQHandler      0x0800611d         Code  Wk  startup_stm32f4xx.o [1]
TIM1_TRG_COM_TIM11_IRQHandler
                        0x08006119         Code  Wk  startup_stm32f4xx.o [1]
TIM1_UP_TIM10_IRQHandler
                        0x08006115         Code  Wk  startup_stm32f4xx.o [1]
TIM2_IRQHandler         0x08006121         Code  Wk  startup_stm32f4xx.o [1]
TIM3_IRQHandler         0x08006125         Code  Wk  startup_stm32f4xx.o [1]
TIM4_Config             0x08002b7b  0x12c  Code  Lc  main.o [1]
TIM4_IRQHandler         0x08006129         Code  Wk  startup_stm32f4xx.o [1]
TIM5_IRQHandler         0x08006179         Code  Wk  startup_stm32f4xx.o [1]
TIM6_DAC_IRQHandler     0x08006189         Code  Wk  startup_stm32f4xx.o [1]
TIM7_IRQHandler         0x0800618d         Code  Wk  startup_stm32f4xx.o [1]
TIM8_BRK_TIM12_IRQHandler
                        0x0800615d         Code  Wk  startup_stm32f4xx.o [1]
TIM8_CC_IRQHandler      0x08006169         Code  Wk  startup_stm32f4xx.o [1]
TIM8_TRG_COM_TIM14_IRQHandler
                        0x08006165         Code  Wk  startup_stm32f4xx.o [1]
TIM8_UP_TIM13_IRQHandler
                        0x08006161         Code  Wk  startup_stm32f4xx.o [1]
TIM_ARRPreloadConfig    0x080032d3   0x1c  Code  Gb  stm32f4xx_tim.o [1]
TIM_CCxCmd              0x08003581   0x20  Code  Gb  stm32f4xx_tim.o [1]
TIM_Cmd                 0x080032ef   0x1c  Code  Gb  stm32f4xx_tim.o [1]
TIM_OC1Init             0x0800330b   0x7e  Code  Gb  stm32f4xx_tim.o [1]
TIM_OC1PreloadConfig    0x08003535   0x12  Code  Gb  stm32f4xx_tim.o [1]
TIM_OC2Init             0x08003389   0x8c  Code  Gb  stm32f4xx_tim.o [1]
TIM_OC2PreloadConfig    0x08003547   0x14  Code  Gb  stm32f4xx_tim.o [1]
TIM_OC3Init             0x08003415   0x8a  Code  Gb  stm32f4xx_tim.o [1]
TIM_OC3PreloadConfig    0x0800355b   0x12  Code  Gb  stm32f4xx_tim.o [1]
TIM_OC4Init             0x0800349f   0x68  Code  Gb  stm32f4xx_tim.o [1]
TIM_OC4PreloadConfig    0x0800356d   0x14  Code  Gb  stm32f4xx_tim.o [1]
TIM_SetAutoreload       0x080032cf    0x4  Code  Gb  stm32f4xx_tim.o [1]
TIM_SetCompare1         0x08003525    0x4  Code  Gb  stm32f4xx_tim.o [1]
TIM_SetCompare2         0x08003529    0x4  Code  Gb  stm32f4xx_tim.o [1]
TIM_SetCompare3         0x0800352d    0x4  Code  Gb  stm32f4xx_tim.o [1]
TIM_SetCompare4         0x08003531    0x4  Code  Gb  stm32f4xx_tim.o [1]
TIM_TimeBaseInit        0x08003265   0x6a  Code  Gb  stm32f4xx_tim.o [1]
TempAcceleration        0x20000862    0x1  Data  Gb  stm32f4xx_it.o [1]
TimingDelay             0x20000820    0x4  Data  Gb  main.o [1]
TimingDelay_Decrement   0x08002cbb   0x14  Code  Gb  main.o [1]
UART4_IRQHandler        0x08006181         Code  Wk  startup_stm32f4xx.o [1]
UART5_IRQHandler        0x08006185         Code  Wk  startup_stm32f4xx.o [1]
USART1_IRQHandler       0x08006145         Code  Wk  startup_stm32f4xx.o [1]
USART2_IRQHandler       0x08006149         Code  Wk  startup_stm32f4xx.o [1]
USART3_IRQHandler       0x0800614d         Code  Wk  startup_stm32f4xx.o [1]
USART6_IRQHandler       0x080061cd         Code  Wk  startup_stm32f4xx.o [1]
USBD_ClrCfg             0x08004755   0x18  Code  Gb  usbd_core.o [1]
USBD_ClrFeature         0x08004f47   0x3a  Code  Lc  usbd_req.o [1]
USBD_CtlContinueRx      0x080050a3   0x1e  Code  Gb  usbd_ioreq.o [1]
USBD_CtlContinueSendData
                        0x08005085   0x1e  Code  Gb  usbd_ioreq.o [1]
USBD_CtlError           0x08004fc5   0x36  Code  Gb  usbd_req.o [1]
USBD_CtlReceiveStatus   0x080050e5   0x24  Code  Gb  usbd_ioreq.o [1]
USBD_CtlSendData        0x08005055   0x30  Code  Gb  usbd_ioreq.o [1]
USBD_CtlSendStatus      0x080050c1   0x24  Code  Gb  usbd_ioreq.o [1]
USBD_DCD_INT_cb         0x2000004c   0x2c  Data  Gb  usbd_core.o [1]
USBD_DCD_INT_fops       0x20000170    0x4  Data  Gb  usbd_core.o [1]
USBD_DataInStage        0x080045ff   0xbe  Code  Lc  usbd_core.o [1]
USBD_DataOutStage       0x08004565   0x9a  Code  Lc  usbd_core.o [1]
USBD_DeInit             0x0800450d    0x6  Code  Gb  usbd_core.o [1]
USBD_DeviceDesc         0x20000100   0x14  Data  Gb  usbd_desc.o [1]
USBD_GetConfig          0x08004e27   0x48  Code  Lc  usbd_req.o [1]
USBD_GetDescriptor      0x08004bcb  0x136  Code  Lc  usbd_req.o [1]
USBD_GetLen             0x08005041   0x14  Code  Lc  usbd_req.o [1]
USBD_GetStatus          0x08004e6f   0x3c  Code  Lc  usbd_req.o [1]
USBD_GetString          0x08004ffb   0x46  Code  Gb  usbd_req.o [1]
USBD_HID_AltSet         0x20000834    0x4  Data  Lc  usbd_hid_core.o [1]
USBD_HID_CfgDesc        0x200000a4   0x24  Data  Lc  usbd_hid_core.o [1]
USBD_HID_DataIn         0x08005bc9   0x12  Code  Lc  usbd_hid_core.o [1]
USBD_HID_DeInit         0x08005a93   0x1a  Code  Lc  usbd_hid_core.o [1]
USBD_HID_GetCfgDesc     0x08005ba5    0xa  Code  Lc  usbd_hid_core.o [1]
USBD_HID_GetPos         0x080059d9   0x6c  Code  Lc  stm32f4xx_it.o [1]
USBD_HID_IdleState      0x2000083c    0x4  Data  Lc  usbd_hid_core.o [1]
USBD_HID_Init           0x08005a71   0x22  Code  Lc  usbd_hid_core.o [1]
USBD_HID_Protocol       0x20000838    0x4  Data  Lc  usbd_hid_core.o [1]
USBD_HID_SendReport     0x08005b83   0x22  Code  Gb  usbd_hid_core.o [1]
USBD_HID_Setup          0x08005aad   0xd6  Code  Lc  usbd_hid_core.o [1]
USBD_HID_cb             0x20000078   0x2c  Data  Gb  usbd_hid_core.o [1]
USBD_Init               0x080044c9   0x44  Code  Gb  usbd_core.o [1]
USBD_IsoINIncomplete    0x0800476d   0x12  Code  Lc  usbd_core.o [1]
USBD_IsoOUTIncomplete   0x0800477f   0x12  Code  Lc  usbd_core.o [1]
USBD_LangIDDesc         0x20000174    0x4  Data  Gb  usbd_desc.o [1]
USBD_OTG_ISR_Handler    0x08005109   0xe8  Code  Gb  usb_dcd_int.o [1]
USBD_ParseSetupRequest  0x08004f81   0x44  Code  Gb  usbd_req.o [1]
USBD_Reset              0x080046bd   0x30  Code  Lc  usbd_core.o [1]
USBD_Resume             0x080046ed   0x16  Code  Lc  usbd_core.o [1]
USBD_SOF                0x08004719   0x1c  Code  Lc  usbd_core.o [1]
USBD_SetAddress         0x08004d01   0x60  Code  Lc  usbd_req.o [1]
USBD_SetCfg             0x08004735   0x20  Code  Gb  usbd_core.o [1]
USBD_SetConfig          0x08004d61   0xc6  Code  Lc  usbd_req.o [1]
USBD_SetFeature         0x08004ebd   0x8a  Code  Lc  usbd_req.o [1]
USBD_SetupStage         0x08004513   0x52  Code  Lc  usbd_core.o [1]
USBD_StdDevReq          0x08004995   0x7c  Code  Gb  usbd_req.o [1]
USBD_StdEPReq           0x08004a61  0x16a  Code  Gb  usbd_req.o [1]
USBD_StdItfReq          0x08004a11   0x50  Code  Gb  usbd_req.o [1]
USBD_StrDesc            0x2000076c   0x40  Data  Gb  usbd_req.o [1]
USBD_Suspend            0x08004703   0x16  Code  Lc  usbd_core.o [1]
USBD_USR_ConfigStrDescriptor
                        0x08005dc1   0x26  Code  Gb  usbd_desc.o [1]
USBD_USR_DeviceConfigured
                        0x08005ecb    0x2  Code  Gb  usbd_usr.o [1]
USBD_USR_DeviceConnected
                        0x08005ecd    0x2  Code  Gb  usbd_usr.o [1]
USBD_USR_DeviceDescriptor
                        0x08005d4d    0xa  Code  Gb  usbd_desc.o [1]
USBD_USR_DeviceDisconnected
                        0x08005ecf    0x2  Code  Gb  usbd_usr.o [1]
USBD_USR_DeviceReset    0x08005eb9   0x12  Code  Gb  usbd_usr.o [1]
USBD_USR_DeviceResumed  0x08005ed3    0x2  Code  Gb  usbd_usr.o [1]
USBD_USR_DeviceSuspended
                        0x08005ed1    0x2  Code  Gb  usbd_usr.o [1]
USBD_USR_Init           0x08005e89   0x18  Code  Gb  usbd_usr.o [1]
USBD_USR_InterfaceStrDescriptor
                        0x08005de7   0x26  Code  Gb  usbd_desc.o [1]
USBD_USR_LangIDStrDescriptor
                        0x08005d57    0xa  Code  Gb  usbd_desc.o [1]
USBD_USR_ManufacturerStrDescriptor
                        0x08005d87   0x14  Code  Gb  usbd_desc.o [1]
USBD_USR_ProductStrDescriptor
                        0x08005d61   0x26  Code  Gb  usbd_desc.o [1]
USBD_USR_SerialStrDescriptor
                        0x08005d9b   0x26  Code  Gb  usbd_desc.o [1]
USBD_cfg_status         0x20000848    0x4  Data  Gb  usbd_req.o [1]
USBD_default_cfg        0x20000844    0x4  Data  Gb  usbd_req.o [1]
USBD_ep_status          0x20000840    0x4  Data  Gb  usbd_req.o [1]
USB_OTG_BSP_EnableInterrupt
                        0x0800493d   0x2e  Code  Gb  usb_bsp.o [1]
USB_OTG_BSP_Init        0x08004889   0xb0  Code  Gb  usb_bsp.o [1]
USB_OTG_BSP_mDelay      0x08004983   0x12  Code  Gb  usb_bsp.o [1]
USB_OTG_BSP_uDelay      0x0800496b   0x18  Code  Gb  usb_bsp.o [1]
USB_OTG_CoreInit        0x08003aa3  0x134  Code  Gb  usb_core.o [1]
USB_OTG_CoreInitDev     0x08003d27  0x19e  Code  Gb  usb_core.o [1]
USB_OTG_CoreReset       0x080038e7   0x66  Code  Lc  usb_core.o [1]
USB_OTG_DisableGlobalInt
                        0x08003bf5   0x1e  Code  Gb  usb_core.o [1]
USB_OTG_EP0Activate     0x08003f53   0x50  Code  Gb  usb_core.o [1]
USB_OTG_EP0StartXfer    0x08004201  0x12c  Code  Gb  usb_core.o [1]
USB_OTG_EP0_OutStart    0x080043f5   0x52  Code  Gb  usb_core.o [1]
USB_OTG_EPActivate      0x08003fa3   0x7a  Code  Gb  usb_core.o [1]
USB_OTG_EPClearStall    0x08004375   0x46  Code  Gb  usb_core.o [1]
USB_OTG_EPDeactivate    0x0800401d   0x58  Code  Gb  usb_core.o [1]
USB_OTG_EPSetStall      0x0800432d   0x48  Code  Gb  usb_core.o [1]
USB_OTG_EPStartXfer     0x08004075  0x18c  Code  Gb  usb_core.o [1]
USB_OTG_EnableCommonInt
                        0x080038c5   0x22  Code  Lc  usb_core.o [1]
USB_OTG_EnableDevInt    0x08003ec5   0x5a  Code  Gb  usb_core.o [1]
USB_OTG_EnableGlobalInt
                        0x08003bd7   0x1e  Code  Gb  usb_core.o [1]
USB_OTG_FlushRxFifo     0x08003c5b   0x40  Code  Gb  usb_core.o [1]
USB_OTG_FlushTxFifo     0x08003c13   0x48  Code  Gb  usb_core.o [1]
USB_OTG_GetDeviceSpeed  0x08003f1f   0x34  Code  Gb  usb_core.o [1]
USB_OTG_GetMode         0x08003ce1    0xa  Code  Gb  usb_core.o [1]
USB_OTG_InitDevSpeed    0x08003d15   0x12  Code  Gb  usb_core.o [1]
USB_OTG_IsDeviceMode    0x08003ceb   0x18  Code  Gb  usb_core.o [1]
USB_OTG_ReadCoreItr     0x08003d03   0x12  Code  Gb  usb_core.o [1]
USB_OTG_ReadDevAllInEPItr
                        0x080043e3   0x12  Code  Gb  usb_core.o [1]
USB_OTG_ReadDevAllOutEp_itr
                        0x080043bb   0x12  Code  Gb  usb_core.o [1]
USB_OTG_ReadDevOutEP_itr
                        0x080043cd   0x16  Code  Gb  usb_core.o [1]
USB_OTG_ReadPacket      0x08003995   0x2c  Code  Gb  usb_core.o [1]
USB_OTG_SelectCore      0x080039c1   0xe2  Code  Gb  usb_core.o [1]
USB_OTG_SetCurrentMode  0x08003ca5   0x3c  Code  Gb  usb_core.o [1]
USB_OTG_StopDevice      0x08004473   0x56  Code  Gb  usb_core.o [1]
USB_OTG_UngateClock     0x08004447   0x2c  Code  Gb  usb_core.o [1]
USB_OTG_WritePacket     0x0800394d   0x48  Code  Gb  usb_core.o [1]
USB_OTG_dev             0x2000017c  0x5f0  Data  Gb  main.o [1]
USB_Test                0x080011e7  0x4da  Code  Gb  selftest.o [1]
USR_cb                  0x200000e4   0x1c  Data  Gb  usbd_usr.o [1]
USR_desc                0x200000c8   0x1c  Data  Gb  usbd_desc.o [1]
UsageFault_Handler      0x080057dd    0x2  Code  Gb  stm32f4xx_it.o [1]
UserButtonPressed       0x2000085b    0x1  Data  Gb  main.o [1]
WWDG_IRQHandler         0x080060b1         Code  Wk  startup_stm32f4xx.o [1]
X_Offset                0x2000085c    0x1  Data  Gb  main.o [1]
Y_Offset                0x2000085d    0x1  Data  Gb  main.o [1]
Z_Offset                0x2000085e    0x1  Data  Gb  main.o [1]
__cmain                 0x08005f9d         Code  Gb  cmain.o [5]
__exit                  0x08005fc9   0x14  Code  Gb  exit.o [6]
__iar_copy_init3        0x08001bd3   0x2e  Code  Gb  copy_init3.o [5]
__iar_data_init3        0x08005f35   0x28  Code  Gb  data_init3.o [5]
__iar_init_vfp          0x08005f81         Code  Gb  fpinit_M.o [4]
__iar_program_start     0x08006075         Code  Gb  cstartup_M.o [5]
__iar_zero_init3        0x08001ee3   0x22  Code  Gb  zero_init3.o [5]
__low_level_init        0x08005fb3    0x4  Code  Gb  low_level_init.o [3]
__vector_table          0x08000000         Data  Gb  startup_stm32f4xx.o [1]
_call_main              0x08005fa9         Code  Gb  cmain.o [5]
_exit                   0x08005fbd         Code  Gb  cexit.o [5]
_main                   0x08005faf         Code  Gb  cmain.o [5]
count                   0x20000856    0x2  Data  Gb  selftest.o [1]
count1                  0x20000178    0x2  Data  Gb  selftest.o [1]
counter0                0x20000852    0x2  Data  Gb  selftest.o [1]
counter1                0x20000854    0x2  Data  Gb  selftest.o [1]
exit                    0x08005fb7    0x4  Code  Gb  exit.o [3]
main                    0x080028ab  0x11a  Code  Gb  main.o [1]
sinebuf                 0x08005ed4   0x60  Data  Gb  selftest.o [1]


[1] = C:\Users\Sin\Documents\STM32\STM32F4-Discovery_FW_V1.1.0\Project\Demonstration\EWARM\Demo\Obj
[2] = command line
[3] = dl7M_tlf.a
[4] = m7M_tlv.a
[5] = rt7M_tl.a
[6] = shb_l.a

  24 793 bytes of readonly  code memory
     667 bytes of readonly  data memory
   3 170 bytes of readwrite data memory

Errors: none
Warnings: none
