###############################################################################
#                                                                             #
# IAR ELF Linker V6.40.2.53884/W32 for ARM              18/Sep/2012  14:53:34 #
# Copyright 2007-2012 IAR Systems AB.                                         #
#                                                                             #
#    Output file  =  \\psf\Home\Documents\Eclipse\Workspace\ChibiOS_2.4.2\dem #
#                    os\ARMCM4-STM32F407-DISCOVERY\iar\Debug\Exe\ch.out       #
#    Map file     =  \\psf\Home\Documents\Eclipse\Workspace\ChibiOS_2.4.2\dem #
#                    os\ARMCM4-STM32F407-DISCOVERY\iar\Debug\List\ch.map      #
#    Command line =  \\psf\Home\Documents\Eclipse\Workspace\ChibiOS_2.4.2\dem #
#                    os\ARMCM4-STM32F407-DISCOVERY\iar\Debug\Obj\adc.o        #
#                    \\psf\Home\Documents\Eclipse\Workspace\ChibiOS_2.4.2\dem #
#                    os\ARMCM4-STM32F407-DISCOVERY\iar\Debug\Obj\adc_lld.o    #
#                    \\psf\Home\Documents\Eclipse\Workspace\ChibiOS_2.4.2\dem #
#                    os\ARMCM4-STM32F407-DISCOVERY\iar\Debug\Obj\board.o      #
#                    \\psf\Home\Documents\Eclipse\Workspace\ChibiOS_2.4.2\dem #
#                    os\ARMCM4-STM32F407-DISCOVERY\iar\Debug\Obj\can.o        #
#                    \\psf\Home\Documents\Eclipse\Workspace\ChibiOS_2.4.2\dem #
#                    os\ARMCM4-STM32F407-DISCOVERY\iar\Debug\Obj\chcond.o     #
#                    \\psf\Home\Documents\Eclipse\Workspace\ChibiOS_2.4.2\dem #
#                    os\ARMCM4-STM32F407-DISCOVERY\iar\Debug\Obj\chcore.o     #
#                    \\psf\Home\Documents\Eclipse\Workspace\ChibiOS_2.4.2\dem #
#                    os\ARMCM4-STM32F407-DISCOVERY\iar\Debug\Obj\chcore_v7m.o #
#                     \\psf\Home\Documents\Eclipse\Workspace\ChibiOS_2.4.2\de #
#                    mos\ARMCM4-STM32F407-DISCOVERY\iar\Debug\Obj\chcoreasm_v #
#                    7m.o \\psf\Home\Documents\Eclipse\Workspace\ChibiOS_2.4. #
#                    2\demos\ARMCM4-STM32F407-DISCOVERY\iar\Debug\Obj\chdebug #
#                    .o \\psf\Home\Documents\Eclipse\Workspace\ChibiOS_2.4.2\ #
#                    demos\ARMCM4-STM32F407-DISCOVERY\iar\Debug\Obj\chdynamic #
#                    .o \\psf\Home\Documents\Eclipse\Workspace\ChibiOS_2.4.2\ #
#                    demos\ARMCM4-STM32F407-DISCOVERY\iar\Debug\Obj\chevents. #
#                    o \\psf\Home\Documents\Eclipse\Workspace\ChibiOS_2.4.2\d #
#                    emos\ARMCM4-STM32F407-DISCOVERY\iar\Debug\Obj\chheap.o   #
#                    \\psf\Home\Documents\Eclipse\Workspace\ChibiOS_2.4.2\dem #
#                    os\ARMCM4-STM32F407-DISCOVERY\iar\Debug\Obj\chlists.o    #
#                    \\psf\Home\Documents\Eclipse\Workspace\ChibiOS_2.4.2\dem #
#                    os\ARMCM4-STM32F407-DISCOVERY\iar\Debug\Obj\chmboxes.o   #
#                    \\psf\Home\Documents\Eclipse\Workspace\ChibiOS_2.4.2\dem #
#                    os\ARMCM4-STM32F407-DISCOVERY\iar\Debug\Obj\chmemcore.o  #
#                    \\psf\Home\Documents\Eclipse\Workspace\ChibiOS_2.4.2\dem #
#                    os\ARMCM4-STM32F407-DISCOVERY\iar\Debug\Obj\chmempools.o #
#                     \\psf\Home\Documents\Eclipse\Workspace\ChibiOS_2.4.2\de #
#                    mos\ARMCM4-STM32F407-DISCOVERY\iar\Debug\Obj\chmsg.o     #
#                    \\psf\Home\Documents\Eclipse\Workspace\ChibiOS_2.4.2\dem #
#                    os\ARMCM4-STM32F407-DISCOVERY\iar\Debug\Obj\chmtx.o      #
#                    \\psf\Home\Documents\Eclipse\Workspace\ChibiOS_2.4.2\dem #
#                    os\ARMCM4-STM32F407-DISCOVERY\iar\Debug\Obj\chprintf.o   #
#                    \\psf\Home\Documents\Eclipse\Workspace\ChibiOS_2.4.2\dem #
#                    os\ARMCM4-STM32F407-DISCOVERY\iar\Debug\Obj\chqueues.o   #
#                    \\psf\Home\Documents\Eclipse\Workspace\ChibiOS_2.4.2\dem #
#                    os\ARMCM4-STM32F407-DISCOVERY\iar\Debug\Obj\chregistry.o #
#                     \\psf\Home\Documents\Eclipse\Workspace\ChibiOS_2.4.2\de #
#                    mos\ARMCM4-STM32F407-DISCOVERY\iar\Debug\Obj\chschd.o    #
#                    \\psf\Home\Documents\Eclipse\Workspace\ChibiOS_2.4.2\dem #
#                    os\ARMCM4-STM32F407-DISCOVERY\iar\Debug\Obj\chsem.o      #
#                    \\psf\Home\Documents\Eclipse\Workspace\ChibiOS_2.4.2\dem #
#                    os\ARMCM4-STM32F407-DISCOVERY\iar\Debug\Obj\chsys.o      #
#                    \\psf\Home\Documents\Eclipse\Workspace\ChibiOS_2.4.2\dem #
#                    os\ARMCM4-STM32F407-DISCOVERY\iar\Debug\Obj\chthreads.o  #
#                    \\psf\Home\Documents\Eclipse\Workspace\ChibiOS_2.4.2\dem #
#                    os\ARMCM4-STM32F407-DISCOVERY\iar\Debug\Obj\chvt.o       #
#                    \\psf\Home\Documents\Eclipse\Workspace\ChibiOS_2.4.2\dem #
#                    os\ARMCM4-STM32F407-DISCOVERY\iar\Debug\Obj\cstartup.o   #
#                    \\psf\Home\Documents\Eclipse\Workspace\ChibiOS_2.4.2\dem #
#                    os\ARMCM4-STM32F407-DISCOVERY\iar\Debug\Obj\ext.o        #
#                    \\psf\Home\Documents\Eclipse\Workspace\ChibiOS_2.4.2\dem #
#                    os\ARMCM4-STM32F407-DISCOVERY\iar\Debug\Obj\gpt.o        #
#                    \\psf\Home\Documents\Eclipse\Workspace\ChibiOS_2.4.2\dem #
#                    os\ARMCM4-STM32F407-DISCOVERY\iar\Debug\Obj\hal.o        #
#                    \\psf\Home\Documents\Eclipse\Workspace\ChibiOS_2.4.2\dem #
#                    os\ARMCM4-STM32F407-DISCOVERY\iar\Debug\Obj\hal_lld.o    #
#                    \\psf\Home\Documents\Eclipse\Workspace\ChibiOS_2.4.2\dem #
#                    os\ARMCM4-STM32F407-DISCOVERY\iar\Debug\Obj\i2c.o        #
#                    \\psf\Home\Documents\Eclipse\Workspace\ChibiOS_2.4.2\dem #
#                    os\ARMCM4-STM32F407-DISCOVERY\iar\Debug\Obj\icu.o        #
#                    \\psf\Home\Documents\Eclipse\Workspace\ChibiOS_2.4.2\dem #
#                    os\ARMCM4-STM32F407-DISCOVERY\iar\Debug\Obj\lis302dl.o   #
#                    \\psf\Home\Documents\Eclipse\Workspace\ChibiOS_2.4.2\dem #
#                    os\ARMCM4-STM32F407-DISCOVERY\iar\Debug\Obj\mac.o        #
#                    \\psf\Home\Documents\Eclipse\Workspace\ChibiOS_2.4.2\dem #
#                    os\ARMCM4-STM32F407-DISCOVERY\iar\Debug\Obj\main.o       #
#                    \\psf\Home\Documents\Eclipse\Workspace\ChibiOS_2.4.2\dem #
#                    os\ARMCM4-STM32F407-DISCOVERY\iar\Debug\Obj\mmc_spi.o    #
#                    \\psf\Home\Documents\Eclipse\Workspace\ChibiOS_2.4.2\dem #
#                    os\ARMCM4-STM32F407-DISCOVERY\iar\Debug\Obj\nvic.o       #
#                    \\psf\Home\Documents\Eclipse\Workspace\ChibiOS_2.4.2\dem #
#                    os\ARMCM4-STM32F407-DISCOVERY\iar\Debug\Obj\pal.o        #
#                    \\psf\Home\Documents\Eclipse\Workspace\ChibiOS_2.4.2\dem #
#                    os\ARMCM4-STM32F407-DISCOVERY\iar\Debug\Obj\pal_lld.o    #
#                    \\psf\Home\Documents\Eclipse\Workspace\ChibiOS_2.4.2\dem #
#                    os\ARMCM4-STM32F407-DISCOVERY\iar\Debug\Obj\pwm.o        #
#                    \\psf\Home\Documents\Eclipse\Workspace\ChibiOS_2.4.2\dem #
#                    os\ARMCM4-STM32F407-DISCOVERY\iar\Debug\Obj\pwm_lld.o    #
#                    \\psf\Home\Documents\Eclipse\Workspace\ChibiOS_2.4.2\dem #
#                    os\ARMCM4-STM32F407-DISCOVERY\iar\Debug\Obj\rtc.o        #
#                    \\psf\Home\Documents\Eclipse\Workspace\ChibiOS_2.4.2\dem #
#                    os\ARMCM4-STM32F407-DISCOVERY\iar\Debug\Obj\sdc.o        #
#                    \\psf\Home\Documents\Eclipse\Workspace\ChibiOS_2.4.2\dem #
#                    os\ARMCM4-STM32F407-DISCOVERY\iar\Debug\Obj\serial.o     #
#                    \\psf\Home\Documents\Eclipse\Workspace\ChibiOS_2.4.2\dem #
#                    os\ARMCM4-STM32F407-DISCOVERY\iar\Debug\Obj\serial_lld.o #
#                     \\psf\Home\Documents\Eclipse\Workspace\ChibiOS_2.4.2\de #
#                    mos\ARMCM4-STM32F407-DISCOVERY\iar\Debug\Obj\serial_usb. #
#                    o \\psf\Home\Documents\Eclipse\Workspace\ChibiOS_2.4.2\d #
#                    emos\ARMCM4-STM32F407-DISCOVERY\iar\Debug\Obj\spi.o      #
#                    \\psf\Home\Documents\Eclipse\Workspace\ChibiOS_2.4.2\dem #
#                    os\ARMCM4-STM32F407-DISCOVERY\iar\Debug\Obj\spi_lld.o    #
#                    \\psf\Home\Documents\Eclipse\Workspace\ChibiOS_2.4.2\dem #
#                    os\ARMCM4-STM32F407-DISCOVERY\iar\Debug\Obj\stm32_dma.o  #
#                    \\psf\Home\Documents\Eclipse\Workspace\ChibiOS_2.4.2\dem #
#                    os\ARMCM4-STM32F407-DISCOVERY\iar\Debug\Obj\test.o       #
#                    \\psf\Home\Documents\Eclipse\Workspace\ChibiOS_2.4.2\dem #
#                    os\ARMCM4-STM32F407-DISCOVERY\iar\Debug\Obj\testbmk.o    #
#                    \\psf\Home\Documents\Eclipse\Workspace\ChibiOS_2.4.2\dem #
#                    os\ARMCM4-STM32F407-DISCOVERY\iar\Debug\Obj\testdyn.o    #
#                    \\psf\Home\Documents\Eclipse\Workspace\ChibiOS_2.4.2\dem #
#                    os\ARMCM4-STM32F407-DISCOVERY\iar\Debug\Obj\testevt.o    #
#                    \\psf\Home\Documents\Eclipse\Workspace\ChibiOS_2.4.2\dem #
#                    os\ARMCM4-STM32F407-DISCOVERY\iar\Debug\Obj\testheap.o   #
#                    \\psf\Home\Documents\Eclipse\Workspace\ChibiOS_2.4.2\dem #
#                    os\ARMCM4-STM32F407-DISCOVERY\iar\Debug\Obj\testmbox.o   #
#                    \\psf\Home\Documents\Eclipse\Workspace\ChibiOS_2.4.2\dem #
#                    os\ARMCM4-STM32F407-DISCOVERY\iar\Debug\Obj\testmsg.o    #
#                    \\psf\Home\Documents\Eclipse\Workspace\ChibiOS_2.4.2\dem #
#                    os\ARMCM4-STM32F407-DISCOVERY\iar\Debug\Obj\testmtx.o    #
#                    \\psf\Home\Documents\Eclipse\Workspace\ChibiOS_2.4.2\dem #
#                    os\ARMCM4-STM32F407-DISCOVERY\iar\Debug\Obj\testpools.o  #
#                    \\psf\Home\Documents\Eclipse\Workspace\ChibiOS_2.4.2\dem #
#                    os\ARMCM4-STM32F407-DISCOVERY\iar\Debug\Obj\testqueues.o #
#                     \\psf\Home\Documents\Eclipse\Workspace\ChibiOS_2.4.2\de #
#                    mos\ARMCM4-STM32F407-DISCOVERY\iar\Debug\Obj\testsem.o   #
#                    \\psf\Home\Documents\Eclipse\Workspace\ChibiOS_2.4.2\dem #
#                    os\ARMCM4-STM32F407-DISCOVERY\iar\Debug\Obj\testthd.o    #
#                    \\psf\Home\Documents\Eclipse\Workspace\ChibiOS_2.4.2\dem #
#                    os\ARMCM4-STM32F407-DISCOVERY\iar\Debug\Obj\uart.o       #
#                    \\psf\Home\Documents\Eclipse\Workspace\ChibiOS_2.4.2\dem #
#                    os\ARMCM4-STM32F407-DISCOVERY\iar\Debug\Obj\usb.o        #
#                    \\psf\Home\Documents\Eclipse\Workspace\ChibiOS_2.4.2\dem #
#                    os\ARMCM4-STM32F407-DISCOVERY\iar\Debug\Obj\vectors.o    #
#                    -o \\psf\Home\Documents\Eclipse\Workspace\ChibiOS_2.4.2\ #
#                    demos\ARMCM4-STM32F407-DISCOVERY\iar\Debug\Exe\ch.out    #
#                    --redirect _Printf=_PrintfTiny --redirect                #
#                    _Scanf=_ScanfSmall --map \\psf\Home\Documents\Eclipse\Wo #
#                    rkspace\ChibiOS_2.4.2\demos\ARMCM4-STM32F407-DISCOVERY\i #
#                    ar\Debug\List\ch.map --config "C:\Program Files          #
#                    (x86)\IAR Systems\Embedded Workbench 6.4                 #
#                    Kickstart\arm\config\linker\ST\stm32f407xG.icf"          #
#                    --semihosting --entry __iar_program_start --vfe          #
#                                                                             #
#                                                                             #
###############################################################################

*******************************************************************************
*** RUNTIME MODEL ATTRIBUTES
***

CppFlavor       = *
__SystemLibrary = DLib


*******************************************************************************
*** PLACEMENT SUMMARY
***

"A1":  place at 0x08000000 { ro section .intvec };
"P1":  place in [from 0x08000000 to 0x080fffff] { ro };
"P2":  place in [from 0x20000000 to 0x2001ffff] { rw, block CSTACK, block HEAP };

  Section            Kind        Address    Size  Object
  -------            ----        -------    ----  ------
"A1":                                      0x188
  .intvec            ro code  0x08000000   0x188  vectors.o [1]
                            - 0x08000188   0x188

"P1":                                     0x8ad8
  .text              ro code  0x08000188   0xab8  testmtx.o [1]
  .text              ro code  0x08000c40   0x288  chmtx.o [1]
  .text              ro code  0x08000ec8   0x4f8  test.o [1]
  .text              ro code  0x080013c0   0x280  chthreads.o [1]
  .text              ro code  0x08001640   0x1bc  chcond.o [1]
  .text              ro code  0x080017fc   0x19c  chschd.o [1]
  .text              ro code  0x08001998    0xe4  chvt.o [1]
  .text              ro code  0x08001a7c   0x124  chdynamic.o [1]
  .text              ro code  0x08001ba0    0x24  chcoreasm_v7m.o [1]
  .text              ro code  0x08001bc4   0x1bc  chheap.o [1]
  .text              ro code  0x08001d80    0xa8  chmempools.o [1]
  .text              ro code  0x08001e28   0x8d0  testbmk.o [1]
  .text              ro code  0x080026f8    0xc6  chmsg.o [1]
  .text              ro code  0x080027be    0x2e  copy_init3.o [5]
  .text              ro code  0x080027ec   0x354  chsem.o [1]
  .text              ro code  0x08002b40   0x338  chqueues.o [1]
  .text              ro code  0x08002e78   0x7a0  testmbox.o [1]
  .text              ro code  0x08003618   0x284  chmboxes.o [1]
  .text              ro code  0x0800389c   0x640  testqueues.o [1]
  .text              ro code  0x08003edc   0x54c  testsem.o [1]
  .text              ro code  0x08004428   0x51c  adc_lld.o [1]
  .text              ro code  0x08004944    0xe0  chcore_v7m.o [1]
  .text              ro code  0x08004a24    0xbc  adc.o [1]
  .text              ro code  0x08004ae0    0x80  nvic.o [1]
  .text              ro code  0x08004b60   0x41c  stm32_dma.o [1]
  .text              ro code  0x08004f7c    0xdc  chsys.o [1]
  .text              ro code  0x08005058    0x70  chmemcore.o [1]
  .text              ro code  0x080050c8   0x498  testevt.o [1]
  .text              ro code  0x08005560   0x32c  chevents.o [1]
  .text              ro code  0x0800588c   0x3f0  testdyn.o [1]
  .text              ro code  0x08005c7c    0x54  chregistry.o [1]
  .text              ro code  0x08005cd0   0x3c0  testthd.o [1]
  .text              ro code  0x08006090   0x314  spi_lld.o [1]
  .text              ro code  0x080063a4     0x4  chcore.o [1]
  .text              ro code  0x080063a8   0x1b4  spi.o [1]
  .text              ro code  0x0800655c   0x29c  testheap.o [1]
  .text              ro code  0x080067f8   0x298  chprintf.o [1]
  .text              ro code  0x08006a90   0x288  main.o [1]
  .text              ro code  0x08006d18   0x20e  pwm_lld.o [1]
  .text              ro code  0x08006f26    0x22  zero_init3.o [5]
  .text              ro code  0x08006f48    0x28  hal.o [1]
  .text              ro code  0x08006f70   0x154  serial.o [1]
  .text              ro code  0x080070c4   0x19e  pal_lld.o [1]
  .text              ro code  0x08007262     0x2  vectors.o [1]
  .text              ro code  0x08007264    0x60  pwm.o [1]
  .text              ro code  0x080072c4    0xa8  lis302dl.o [1]
  .text              ro code  0x0800736c   0x1f8  hal_lld.o [1]
  .text              ro code  0x08007564     0xa  board.o [1]
  .text              ro code  0x08007570   0x1fc  serial_lld.o [1]
  .rodata            const    0x0800776c    0xfc  board.o [1]
  .rodata            const    0x08007868    0xc0  stm32_dma.o [1]
  .text              ro code  0x08007928    0xa4  testmsg.o [1]
  .text              ro code  0x080079cc    0xa4  testpools.o [1]
  .rodata            const    0x08007a70    0x38  testbmk.o [1]
  .rodata            const    0x08007aa8    0x30  testdyn.o [1]
  .rodata            const    0x08007ad8    0x2c  main.o [1]
  .rodata            const    0x08007b04    0x2c  testbmk.o [1]
  .rodata            const    0x08007b30    0x2c  testdyn.o [1]
  .rodata            const    0x08007b5c    0x2c  testmtx.o [1]
  .rodata            const    0x08007b88    0x2c  testmtx.o [1]
  .rodata            const    0x08007bb4    0x28  testbmk.o [1]
  .rodata            const    0x08007bdc    0x28  testdyn.o [1]
  .rodata            const    0x08007c04    0x28  testheap.o [1]
  .text              ro code  0x08007c2c    0x28  cstartup.o [1]
  .text              ro code  0x08007c54    0x1a  fpinit_M.o [4]
  .text              ro code  0x08007c70    0x16  cmain.o [5]
  .text              ro code  0x08007c86     0x4  low_level_init.o [3]
  .text              ro code  0x08007c8c    0x28  data_init3.o [5]
  .text              ro code  0x08007cb4     0x4  exit.o [3]
  .text              ro code  0x08007cb8     0xa  cexit.o [5]
  .text              ro code  0x08007cc4    0x14  exit.o [6]
  .rodata            const    0x08007cd8    0x24  serial.o [1]
  .rodata            const    0x08007cfc    0x24  testbmk.o [1]
  .rodata            const    0x08007d20    0x24  testbmk.o [1]
  .rodata            const    0x08007d44    0x24  testbmk.o [1]
  .rodata            const    0x08007d68    0x24  testevt.o [1]
  .rodata            const    0x08007d8c    0x24  testmtx.o [1]
  .rodata            const    0x08007db0    0x24  testmtx.o [1]
  .rodata            const    0x08007dd4    0x24  testsem.o [1]
  .iar.init_table    const    0x08007df8    0x24  - Linker created -
  .rodata            const    0x08007e1c    0x20  chdynamic.o [1]
  .rodata            const    0x08007e3c    0x20  test.o [1]
  .rodata            const    0x08007e5c    0x20  testbmk.o [1]
  .rodata            const    0x08007e7c    0x20  testbmk.o [1]
  .rodata            const    0x08007e9c    0x20  testbmk.o [1]
  .rodata            const    0x08007ebc    0x20  testmbox.o [1]
  .rodata            const    0x08007edc    0x20  testsem.o [1]
  .rodata            const    0x08007efc    0x1c  test.o [1]
  .rodata            const    0x08007f18    0x1c  testbmk.o [1]
  .rodata            const    0x08007f34    0x1c  testbmk.o [1]
  .rodata            const    0x08007f50    0x1c  testevt.o [1]
  .rodata            const    0x08007f6c    0x1c  testmtx.o [1]
  .rodata            const    0x08007f88    0x1c  testpools.o [1]
  .rodata            const    0x08007fa4    0x1c  testthd.o [1]
  .rodata            const    0x08007fc0    0x1c  testthd.o [1]
  .rodata            const    0x08007fdc    0x1c  testthd.o [1]
  .rodata            const    0x08007ff8    0x18  adc.o [1]
  .rodata            const    0x08008010    0x18  chcond.o [1]
  .rodata            const    0x08008028    0x18  chcond.o [1]
  .rodata            const    0x08008040    0x18  chevents.o [1]
  .rodata            const    0x08008058    0x18  chevents.o [1]
  .rodata            const    0x08008070    0x18  chqueues.o [1]
  .rodata            const    0x08008088    0x18  chsem.o [1]
  .rodata            const    0x080080a0    0x18  chsem.o [1]
  .rodata            const    0x080080b8    0x18  chthreads.o [1]
  .rodata            const    0x080080d0    0x18  test.o [1]
  .rodata            const    0x080080e8    0x18  test.o [1]
  .rodata            const    0x08008100    0x18  test.o [1]
  .rodata            const    0x08008118    0x18  test.o [1]
  .rodata            const    0x08008130    0x18  testbmk.o [1]
  .rodata            const    0x08008148    0x18  testbmk.o [1]
  .rodata            const    0x08008160    0x18  testbmk.o [1]
  .rodata            const    0x08008178    0x18  testmtx.o [1]
  .rodata            const    0x08008190    0x18  testmtx.o [1]
  .rodata            const    0x080081a8    0x18  testqueues.o [1]
  .rodata            const    0x080081c0    0x18  testqueues.o [1]
  .rodata            const    0x080081d8    0x18  testsem.o [1]
  .rodata            const    0x080081f0    0x14  chcond.o [1]
  .rodata            const    0x08008204    0x14  chcond.o [1]
  .rodata            const    0x08008218    0x14  chevents.o [1]
  .rodata            const    0x0800822c    0x14  chevents.o [1]
  .rodata            const    0x08008240    0x14  chevents.o [1]
  .rodata            const    0x08008254    0x14  chmboxes.o [1]
  .rodata            const    0x08008268    0x14  chmboxes.o [1]
  .rodata            const    0x0800827c    0x14  chmempools.o [1]
  .rodata            const    0x08008290    0x14  chmtx.o [1]
  .rodata            const    0x080082a4    0x14  chqueues.o [1]
  .rodata            const    0x080082b8    0x14  chsem.o [1]
  .rodata            const    0x080082cc    0x14  chsem.o [1]
  .rodata            const    0x080082e0    0x14  chthreads.o [1]
  .rodata            const    0x080082f4    0x14  serial.o [1]
  .rodata            const    0x08008308    0x14  test.o [1]
  .rodata            const    0x0800831c    0x14  test.o [1]
  .rodata            const    0x08008330    0x14  test.o [1]
  .rodata            const    0x08008344    0x14  test.o [1]
  .rodata            const    0x08008358    0x14  test.o [1]
  .rodata            const    0x0800836c    0x14  test.o [1]
  .rodata            const    0x08008380    0x14  test.o [1]
  .rodata            const    0x08008394    0x14  test.o [1]
  .rodata            const    0x080083a8    0x14  test.o [1]
  .rodata            const    0x080083bc    0x14  test.o [1]
  .rodata            const    0x080083d0    0x14  testbmk.o [1]
  .rodata            const    0x080083e4    0x14  testevt.o [1]
  .rodata            const    0x080083f8    0x14  testmtx.o [1]
  .rodata            const    0x0800840c    0x14  testsem.o [1]
  .rodata            const    0x08008420    0x14  testsem.o [1]
  .rodata            const    0x08008434    0x14  testthd.o [1]
  .rodata            const    0x08008448    0x10  adc.o [1]
  .rodata            const    0x08008458    0x10  chcond.o [1]
  .rodata            const    0x08008468    0x10  chcond.o [1]
  .rodata            const    0x08008478    0x10  chevents.o [1]
  .rodata            const    0x08008488    0x10  chheap.o [1]
  .rodata            const    0x08008498    0x10  chheap.o [1]
  .rodata            const    0x080084a8    0x10  chmboxes.o [1]
  .rodata            const    0x080084b8    0x10  chmboxes.o [1]
  .rodata            const    0x080084c8    0x10  chmboxes.o [1]
  .rodata            const    0x080084d8    0x10  chmboxes.o [1]
  .rodata            const    0x080084e8    0x10  chmboxes.o [1]
  .rodata            const    0x080084f8    0x10  chmboxes.o [1]
  .rodata            const    0x08008508    0x10  chmempools.o [1]
  .rodata            const    0x08008518    0x10  chmempools.o [1]
  .rodata            const    0x08008528    0x10  chmsg.o [1]
  .rodata            const    0x08008538    0x10  chmtx.o [1]
  .rodata            const    0x08008548    0x10  chmtx.o [1]
  .rodata            const    0x08008558    0x10  chsem.o [1]
  .rodata            const    0x08008568    0x10  chsem.o [1]
  .rodata            const    0x08008578    0x10  chsem.o [1]
  .rodata            const    0x08008588    0x10  chsem.o [1]
  .rodata            const    0x08008598    0x10  chthreads.o [1]
  .rodata            const    0x080085a8    0x10  chthreads.o [1]
  .rodata            const    0x080085b8    0x10  chvt.o [1]
  .rodata            const    0x080085c8    0x10  chvt.o [1]
  .rodata            const    0x080085d8    0x10  main.o [1]
  .rodata            const    0x080085e8    0x10  pwm.o [1]
  .rodata            const    0x080085f8    0x10  spi.o [1]
  .rodata            const    0x08008608    0x10  spi.o [1]
  .rodata            const    0x08008618    0x10  spi.o [1]
  .rodata            const    0x08008628    0x10  spi.o [1]
  .rodata            const    0x08008638    0x10  stm32_dma.o [1]
  .rodata            const    0x08008648    0x10  test.o [1]
  .rodata            const    0x08008658    0x10  test.o [1]
  .rodata            const    0x08008668    0x10  testbmk.o [1]
  .rodata            const    0x08008678    0x10  testbmk.o [1]
  .rodata            const    0x08008688    0x10  testbmk.o [1]
  .rodata            const    0x08008698    0x10  testbmk.o [1]
  .rodata            const    0x080086a8    0x10  testbmk.o [1]
  .rodata            const    0x080086b8    0x10  testbmk.o [1]
  .rodata            const    0x080086c8    0x10  testbmk.o [1]
  .rodata            const    0x080086d8    0x10  testbmk.o [1]
  .rodata            const    0x080086e8    0x10  testbmk.o [1]
  .rodata            const    0x080086f8    0x10  testbmk.o [1]
  .rodata            const    0x08008708    0x10  testbmk.o [1]
  .rodata            const    0x08008718    0x10  testbmk.o [1]
  .rodata            const    0x08008728    0x10  testbmk.o [1]
  .rodata            const    0x08008738    0x10  testbmk.o [1]
  .rodata            const    0x08008748    0x10  testbmk.o [1]
  .rodata            const    0x08008758    0x10  testbmk.o [1]
  .rodata            const    0x08008768    0x10  testbmk.o [1]
  .rodata            const    0x08008778    0x10  testbmk.o [1]
  .rodata            const    0x08008788    0x10  testbmk.o [1]
  .rodata            const    0x08008798    0x10  testbmk.o [1]
  .rodata            const    0x080087a8    0x10  testbmk.o [1]
  .rodata            const    0x080087b8    0x10  testbmk.o [1]
  .rodata            const    0x080087c8    0x10  testbmk.o [1]
  .rodata            const    0x080087d8    0x10  testbmk.o [1]
  .rodata            const    0x080087e8    0x10  testbmk.o [1]
  .rodata            const    0x080087f8    0x10  testbmk.o [1]
  .rodata            const    0x08008808    0x10  testdyn.o [1]
  .rodata            const    0x08008818    0x10  testdyn.o [1]
  .rodata            const    0x08008828    0x10  testdyn.o [1]
  .rodata            const    0x08008838    0x10  testdyn.o [1]
  .rodata            const    0x08008848    0x10  testevt.o [1]
  .rodata            const    0x08008858    0x10  testevt.o [1]
  .rodata            const    0x08008868    0x10  testevt.o [1]
  .rodata            const    0x08008878    0x10  testevt.o [1]
  .rodata            const    0x08008888    0x10  testheap.o [1]
  .rodata            const    0x08008898    0x10  testmbox.o [1]
  .rodata            const    0x080088a8    0x10  testmsg.o [1]
  .rodata            const    0x080088b8    0x10  testmsg.o [1]
  .rodata            const    0x080088c8    0x10  testmtx.o [1]
  .rodata            const    0x080088d8    0x10  testmtx.o [1]
  .rodata            const    0x080088e8    0x10  testmtx.o [1]
  .rodata            const    0x080088f8    0x10  testmtx.o [1]
  .rodata            const    0x08008908    0x10  testmtx.o [1]
  .rodata            const    0x08008918    0x10  testmtx.o [1]
  .rodata            const    0x08008928    0x10  testmtx.o [1]
  .rodata            const    0x08008938    0x10  testmtx.o [1]
  .rodata            const    0x08008948    0x10  testmtx.o [1]
  .rodata            const    0x08008958    0x10  testpools.o [1]
  .rodata            const    0x08008968    0x10  testqueues.o [1]
  .rodata            const    0x08008978    0x10  testqueues.o [1]
  .rodata            const    0x08008988    0x10  testsem.o [1]
  .rodata            const    0x08008998    0x10  testsem.o [1]
  .rodata            const    0x080089a8    0x10  testsem.o [1]
  .rodata            const    0x080089b8    0x10  testsem.o [1]
  .rodata            const    0x080089c8    0x10  testthd.o [1]
  .rodata            const    0x080089d8    0x10  testthd.o [1]
  .rodata            const    0x080089e8    0x10  testthd.o [1]
  .rodata            const    0x080089f8    0x10  testthd.o [1]
  .rodata            const    0x08008a08    0x10  testthd.o [1]
  .rodata            const    0x08008a18     0xc  main.o [1]
  .rodata            const    0x08008a24     0xc  main.o [1]
  .rodata            const    0x08008a30     0xc  serial.o [1]
  .rodata            const    0x08008a3c     0xc  serial_lld.o [1]
  .rodata            const    0x08008a48     0xc  spi.o [1]
  .rodata            const    0x08008a54     0xc  test.o [1]
  .rodata            const    0x08008a60     0xc  test.o [1]
  .rodata            const    0x08008a6c     0xc  testbmk.o [1]
  .rodata            const    0x08008a78     0xc  testbmk.o [1]
  .rodata            const    0x08008a84     0xc  testbmk.o [1]
  .rodata            const    0x08008a90     0xc  testbmk.o [1]
  .rodata            const    0x08008a9c     0xc  testbmk.o [1]
  .rodata            const    0x08008aa8     0xc  testevt.o [1]
  .rodata            const    0x08008ab4     0xc  testqueues.o [1]
  .rodata            const    0x08008ac0     0x8  chprintf.o [1]
  .rodata            const    0x08008ac8     0x8  chsys.o [1]
  .rodata            const    0x08008ad0     0x8  chsys.o [1]
  .rodata            const    0x08008ad8     0x8  main.o [1]
  .rodata            const    0x08008ae0     0x8  test.o [1]
  .rodata            const    0x08008ae8     0x8  test.o [1]
  .rodata            const    0x08008af0     0x8  test.o [1]
  .rodata            const    0x08008af8     0x8  testbmk.o [1]
  .rodata            const    0x08008b00     0x8  testdyn.o [1]
  .rodata            const    0x08008b08     0x8  testheap.o [1]
  .rodata            const    0x08008b10     0x8  testmbox.o [1]
  .rodata            const    0x08008b18     0x8  testmbox.o [1]
  .rodata            const    0x08008b20     0x8  testmsg.o [1]
  .rodata            const    0x08008b28     0x8  testmtx.o [1]
  .rodata            const    0x08008b30     0x8  testpools.o [1]
  .rodata            const    0x08008b38     0x8  testqueues.o [1]
  .rodata            const    0x08008b40     0x8  testsem.o [1]
  .rodata            const    0x08008b48     0x8  testthd.o [1]
  .rodata            const    0x08008b50     0x0  zero_init3.o [5]
  .rodata            const    0x08008b50     0x0  copy_init3.o [5]
  Initializer bytes  ro data  0x08008b50   0x110  <for P2 s0>
                            - 0x08008c60  0x8ad8

"P2", part 1 of 4:                           0x0
  CSTACK             const    0x20000000     0x0  cstartup.o [1]
  SYSHEAP            const    0x20000000     0x0  cstartup.o [1]

"P2", part 2 of 4:                        0x2000
  CSTACK                      0x20000000  0x2000  <Block>
    CSTACK           uninit   0x20000000  0x2000  <Block tail>
                            - 0x20002000  0x2000

"P2", part 3 of 4:                         0x110
  P2 s0                       0x20002000   0x110  <Init block>
    .data            inited   0x20002000    0x30  main.o [1]
    .data            inited   0x20002030    0x30  test.o [1]
    .data            inited   0x20002060    0x28  testmbox.o [1]
    .data            inited   0x20002088    0x20  testqueues.o [1]
    .data            inited   0x200020a8    0x20  testqueues.o [1]
    .data            inited   0x200020c8    0x10  testmtx.o [1]
    .data            inited   0x200020d8    0x10  testmtx.o [1]
    .data            inited   0x200020e8     0xc  testpools.o [1]
    .data            inited   0x200020f4     0xc  testsem.o [1]
    .data            inited   0x20002100     0x8  testmtx.o [1]
    .data            inited   0x20002108     0x4  testevt.o [1]
    .data            inited   0x2000210c     0x4  testevt.o [1]
                            - 0x20002110   0x110

"P2", part 4 of 4:                         0xbb0
  .bss               zero     0x20002110   0x5f0  test.o [1]
  .bss               zero     0x20002700   0x130  main.o [1]
  .bss               zero     0x20002830    0xc0  chsys.o [1]
  .bss               zero     0x200028f0    0x80  stm32_dma.o [1]
  .bss               zero     0x20002970    0x74  serial_lld.o [1]
  .bss               zero     0x200029e4    0x48  chsys.o [1]
  .bss               zero     0x20002a2c    0x34  adc_lld.o [1]
  .bss               zero     0x20002a60    0x34  adc_lld.o [1]
  .bss               zero     0x20002a94    0x34  adc_lld.o [1]
  .bss               zero     0x20002ac8    0x30  spi_lld.o [1]
  .bss               zero     0x20002af8    0x30  spi_lld.o [1]
  .bss               zero     0x20002b28    0x20  chheap.o [1]
  .bss               zero     0x20002b48    0x20  chschd.o [1]
  .bss               zero     0x20002b68    0x20  testbmk.o [1]
  .bss               zero     0x20002b88    0x20  testdyn.o [1]
  .bss               zero     0x20002ba8    0x20  testheap.o [1]
  .bss               zero     0x20002bc8    0x14  pwm_lld.o [1]
  .bss               zero     0x20002bdc    0x14  test.o [1]
  .bss               zero     0x20002bf0    0x14  test.o [1]
  .bss               zero     0x20002c04    0x14  testbmk.o [1]
  .bss               zero     0x20002c18    0x14  testbmk.o [1]
  .bss               zero     0x20002c2c    0x10  chvt.o [1]
  .bss               zero     0x20002c3c    0x10  main.o [1]
  .bss               zero     0x20002c4c    0x10  test.o [1]
  .bss               zero     0x20002c5c    0x10  testbmk.o [1]
  .bss               zero     0x20002c6c    0x10  testbmk.o [1]
  .bss               zero     0x20002c7c     0xc  testbmk.o [1]
  .bss               zero     0x20002c88     0xc  testdyn.o [1]
  .bss               zero     0x20002c94     0x4  chmemcore.o [1]
  .bss               zero     0x20002c98     0x4  chmemcore.o [1]
  .bss               zero     0x20002c9c     0x4  stm32_dma.o [1]
  .bss               zero     0x20002ca0     0x4  test.o [1]
  .bss               zero     0x20002ca4     0x4  test.o [1]
  .bss               zero     0x20002ca8     0x4  test.o [1]
  .bss               zero     0x20002cac     0x4  test.o [1]
  .bss               zero     0x20002cb0     0x4  test.o [1]
  .bss               zero     0x20002cb4     0x4  test.o [1]
  .bss               zero     0x20002cb8     0x2  lis302dl.o [1]
  .bss               zero     0x20002cba     0x2  lis302dl.o [1]
  .bss               zero     0x20002cbc     0x2  spi_lld.o [1]
  .bss               zero     0x20002cbe     0x2  spi_lld.o [1]
                            - 0x20002cc0   0xbb0


*******************************************************************************
*** INIT TABLE
***

          Address     Size
          -------     ----
Zero (__iar_zero_init3)
    1 destination range, total size 0xbb0:
          0x20002110  0xbb0

Copy (__iar_copy_init3)
    1 source range, total size 0x110:
          0x08008b50  0x110
    1 destination range, total size 0x110:
          0x20002000  0x110



*******************************************************************************
*** MODULE SUMMARY
***

    Module            ro code  ro data  rw data
    ------            -------  -------  -------
\\psf\Home\Documents\Eclipse\Workspace\ChibiOS_2.4.2\demos\ARMCM4-STM32F407-DISCOVERY\iar\Debug\Obj: [1]
    adc.o                 188       40
    adc_lld.o           1 308               156
    board.o                10      252
    chcond.o              444      120
    chcore.o                4
    chcore_v7m.o          224
    chcoreasm_v7m.o        36
    chdynamic.o           292       32
    chevents.o            812      124
    chheap.o              444       32       32
    chmboxes.o            644      136
    chmemcore.o           112                 8
    chmempools.o          168       52
    chmsg.o               198       16
    chmtx.o               648       52
    chprintf.o            664        8
    chqueues.o            824       44
    chregistry.o           84
    chschd.o              412                32
    chsem.o               852      152
    chsys.o               220       16      264
    chthreads.o           640       76
    chvt.o                228       32       16
    cstartup.o             40
    hal.o                  40
    hal_lld.o             504
    lis302dl.o            168                 4
    main.o                648      140      368
    nvic.o                128
    pal_lld.o             414
    pwm.o                  96       16
    pwm_lld.o             526                20
    serial.o              340       68
    serial_lld.o          508       12      116
    spi.o                 436       76
    spi_lld.o             788               100
    stm32_dma.o         1 052      208      132
    test.o              1 272      484    1 648
    testbmk.o           2 256      976      116
    testdyn.o           1 008      204       44
    testevt.o           1 176      168        8
    testheap.o            668       64       32
    testmbox.o          1 952      104       40
    testmsg.o             164       40
    testmtx.o           2 744      448       40
    testpools.o           164       64       12
    testqueues.o        1 600      164       64
    testsem.o           1 356      216       12
    testthd.o             960      192
    vectors.o             394
    -------------------------------------------
    Total:             30 858    4 828    3 264

command line: [2]
    -------------------------------------------
    Total:

dl7M_tln.a: [3]
    exit.o                  4
    low_level_init.o        4
    -------------------------------------------
    Total:                  8

m7M_tlv.a: [4]
    fpinit_M.o             26
    -------------------------------------------
    Total:                 26

rt7M_tl.a: [5]
    cexit.o                10
    cmain.o                22
    copy_init3.o           46
    data_init3.o           40
    zero_init3.o           34
    -------------------------------------------
    Total:                152

shb_l.a: [6]
    exit.o                 20
    -------------------------------------------
    Total:                 20

    Gaps                    8
    Linker created                  36    8 192
-----------------------------------------------
    Grand Total:       31 072    4 864   11 456


*******************************************************************************
*** ENTRY LIST
***

Entry                      Address   Size  Type      Object
-----                      -------   ----  ----      ------
?main                   0x08007c71         Code  Gb  cmain.o [5]
ADCD1                   0x20002a2c   0x34  Data  Gb  adc_lld.o [1]
ADCD2                   0x20002a60   0x34  Data  Gb  adc_lld.o [1]
ADCD3                   0x20002a94   0x34  Data  Gb  adc_lld.o [1]
BusFaultVector          0x08007263         Code  Wk  vectors.o [1]
CSTACK$$Base            0x20000000          --   Gb  - Linker created -
CSTACK$$Limit           0x20002000          --   Gb  - Linker created -
DebugMonitorVector      0x08007263         Code  Wk  vectors.o [1]
HardFaultVector         0x08007263         Code  Wk  vectors.o [1]
IRQSTACK$$Limit         0x00000000          --   Gb  - Linker created -
MemManageVector         0x08007263         Code  Wk  vectors.o [1]
NMIVector               0x08007263         Code  Wk  vectors.o [1]
PWMD4                   0x20002bc8   0x14  Data  Gb  pwm_lld.o [1]
PendSVVector            0x08007263         Code  Wk  vectors.o [1]
Region$$Table$$Base     0x08007df8          --   Gb  - Linker created -
Region$$Table$$Limit    0x08007e1c          --   Gb  - Linker created -
SD2                     0x20002970   0x74  Data  Gb  serial_lld.o [1]
SPID1                   0x20002ac8   0x30  Data  Gb  spi_lld.o [1]
SPID2                   0x20002af8   0x30  Data  Gb  spi_lld.o [1]
SVCallVector            0x0800495d   0x12  Code  Gb  chcore_v7m.o [1]
SysTickVector           0x08004945   0x18  Code  Gb  chcore_v7m.o [1]
TestThread              0x080011c5  0x14e  Code  Gb  test.o [1]
Thread1                 0x08006b5b   0x2a  Code  Lc  main.o [1]
UsageFaultVector        0x08007263         Code  Wk  vectors.o [1]
Vector100               0x08007263         Code  Wk  vectors.o [1]
Vector104               0x08007263         Code  Wk  vectors.o [1]
Vector108               0x08007263         Code  Wk  vectors.o [1]
Vector10C               0x08007263         Code  Wk  vectors.o [1]
Vector110               0x08007263         Code  Wk  vectors.o [1]
Vector114               0x08007263         Code  Wk  vectors.o [1]
Vector118               0x08007263         Code  Wk  vectors.o [1]
Vector11C               0x08007263         Code  Wk  vectors.o [1]
Vector120               0x08004cf9   0x28  Code  Gb  stm32_dma.o [1]
Vector124               0x08004d21   0x2c  Code  Gb  stm32_dma.o [1]
Vector128               0x08004d4d   0x2c  Code  Gb  stm32_dma.o [1]
Vector12C               0x08004d79   0x2c  Code  Gb  stm32_dma.o [1]
Vector130               0x08004da5   0x28  Code  Gb  stm32_dma.o [1]
Vector134               0x08007263         Code  Wk  vectors.o [1]
Vector138               0x08007263         Code  Wk  vectors.o [1]
Vector13C               0x08007263         Code  Wk  vectors.o [1]
Vector140               0x08007263         Code  Wk  vectors.o [1]
Vector144               0x08007263         Code  Wk  vectors.o [1]
Vector148               0x08007263         Code  Wk  vectors.o [1]
Vector14C               0x08007263         Code  Wk  vectors.o [1]
Vector150               0x08004dcd   0x2c  Code  Gb  stm32_dma.o [1]
Vector154               0x08004df9   0x2c  Code  Gb  stm32_dma.o [1]
Vector158               0x08004e25   0x2c  Code  Gb  stm32_dma.o [1]
Vector15C               0x08007263         Code  Wk  vectors.o [1]
Vector160               0x08007263         Code  Wk  vectors.o [1]
Vector164               0x08007263         Code  Wk  vectors.o [1]
Vector168               0x08007263         Code  Wk  vectors.o [1]
Vector16C               0x08007263         Code  Wk  vectors.o [1]
Vector170               0x08007263         Code  Wk  vectors.o [1]
Vector174               0x08007263         Code  Wk  vectors.o [1]
Vector178               0x08007263         Code  Wk  vectors.o [1]
Vector17C               0x08007263         Code  Wk  vectors.o [1]
Vector180               0x08007263         Code  Wk  vectors.o [1]
Vector184               0x08007263         Code  Wk  vectors.o [1]
Vector1C                0x08007263         Code  Wk  vectors.o [1]
Vector20                0x08007263         Code  Wk  vectors.o [1]
Vector24                0x08007263         Code  Wk  vectors.o [1]
Vector28                0x08007263         Code  Wk  vectors.o [1]
Vector34                0x08007263         Code  Wk  vectors.o [1]
Vector40                0x08007263         Code  Wk  vectors.o [1]
Vector44                0x08007263         Code  Wk  vectors.o [1]
Vector48                0x08007263         Code  Wk  vectors.o [1]
Vector4C                0x08007263         Code  Wk  vectors.o [1]
Vector50                0x08007263         Code  Wk  vectors.o [1]
Vector54                0x08007263         Code  Wk  vectors.o [1]
Vector58                0x08007263         Code  Wk  vectors.o [1]
Vector5C                0x08007263         Code  Wk  vectors.o [1]
Vector60                0x08007263         Code  Wk  vectors.o [1]
Vector64                0x08007263         Code  Wk  vectors.o [1]
Vector68                0x08007263         Code  Wk  vectors.o [1]
Vector6C                0x08004b61   0x32  Code  Gb  stm32_dma.o [1]
Vector70                0x08004b93   0x36  Code  Gb  stm32_dma.o [1]
Vector74                0x08004bc9   0x36  Code  Gb  stm32_dma.o [1]
Vector78                0x08004bff   0x36  Code  Gb  stm32_dma.o [1]
Vector7C                0x08004c35   0x32  Code  Gb  stm32_dma.o [1]
Vector80                0x08004c67   0x36  Code  Gb  stm32_dma.o [1]
Vector84                0x08004c9d   0x30  Code  Gb  stm32_dma.o [1]
Vector88                0x0800455d  0x1be  Code  Gb  adc_lld.o [1]
Vector8C                0x08007263         Code  Wk  vectors.o [1]
Vector90                0x08007263         Code  Wk  vectors.o [1]
Vector94                0x08007263         Code  Wk  vectors.o [1]
Vector98                0x08007263         Code  Wk  vectors.o [1]
Vector9C                0x08007263         Code  Wk  vectors.o [1]
VectorA0                0x08007263         Code  Wk  vectors.o [1]
VectorA4                0x08007263         Code  Wk  vectors.o [1]
VectorA8                0x08007263         Code  Wk  vectors.o [1]
VectorAC                0x08007263         Code  Wk  vectors.o [1]
VectorB0                0x08007263         Code  Wk  vectors.o [1]
VectorB4                0x08007263         Code  Wk  vectors.o [1]
VectorB8                0x08006d6d    0xe  Code  Gb  pwm_lld.o [1]
VectorBC                0x08007263         Code  Wk  vectors.o [1]
VectorC0                0x08007263         Code  Wk  vectors.o [1]
VectorC4                0x08007263         Code  Wk  vectors.o [1]
VectorC8                0x08007263         Code  Wk  vectors.o [1]
VectorCC                0x08007263         Code  Wk  vectors.o [1]
VectorD0                0x08007263         Code  Wk  vectors.o [1]
VectorD4                0x08007263         Code  Wk  vectors.o [1]
VectorD8                0x080076eb    0xe  Code  Gb  serial_lld.o [1]
VectorDC                0x08007263         Code  Wk  vectors.o [1]
VectorE0                0x08007263         Code  Wk  vectors.o [1]
VectorE4                0x08007263         Code  Wk  vectors.o [1]
VectorE8                0x08007263         Code  Wk  vectors.o [1]
VectorEC                0x08007263         Code  Wk  vectors.o [1]
VectorF0                0x08007263         Code  Wk  vectors.o [1]
VectorF4                0x08007263         Code  Wk  vectors.o [1]
VectorF8                0x08007263         Code  Wk  vectors.o [1]
VectorFC                0x08004ccd   0x2c  Code  Gb  stm32_dma.o [1]
__cmain                 0x08007c71         Code  Gb  cmain.o [5]
__early_init            0x08007565    0x8  Code  Gb  board.o [1]
__exit                  0x08007cc5   0x14  Code  Gb  exit.o [6]
__heap_base__           0x20000000         Data  Gb  cstartup.o [1]
__heap_end__            0x20000000         Data  Gb  cstartup.o [1]
__iar_copy_init3        0x080027bf   0x2e  Code  Gb  copy_init3.o [5]
__iar_data_init3        0x08007c8d   0x28  Code  Gb  data_init3.o [5]
__iar_init_vfp          0x08007c55         Code  Gb  fpinit_M.o [4]
__iar_program_start     0x08007c2d         Code  Gb  cstartup.o [1]
__iar_zero_init3        0x08006f27   0x22  Code  Gb  zero_init3.o [5]
__low_level_init        0x08007c87    0x4  Code  Gb  low_level_init.o [3]
__main_thread_stack_base__
                        0x20000000         Data  Gb  cstartup.o [1]
__vector_table          0x08000000         Data  Gb  vectors.o [1]
_call_main              0x08007c7d         Code  Gb  cmain.o [5]
_core_init              0x08005059   0x16  Code  Gb  chmemcore.o [1]
_exit                   0x08007cb9         Code  Gb  cexit.o [5]
_heap_init              0x08001bc5   0x1c  Code  Gb  chheap.o [1]
_idle_thread            0x08004f7d    0xa  Code  Gb  chsys.o [1]
_idle_thread_wa         0x20002830   0xc0  Data  Gb  chsys.o [1]
_main                   0x08007c83         Code  Gb  cmain.o [5]
_pal_lld_init           0x080070e3   0x7a  Code  Gb  pal_lld.o [1]
_pal_lld_setgroupmode   0x08007189   0xda  Code  Gb  pal_lld.o [1]
_port_exit_from_isr     0x08001bc3         Code  Gb  chcoreasm_v7m.o [1]
_port_init              0x0800496f   0x2a  Code  Gb  chcore_v7m.o [1]
_port_irq_epilogue      0x08004999   0x70  Code  Gb  chcore_v7m.o [1]
_port_switch            0x08001ba1         Code  Gb  chcoreasm_v7m.o [1]
_port_switch_from_isr   0x08001bbf         Code  Gb  chcoreasm_v7m.o [1]
_port_thread_start      0x08001bb1         Code  Gb  chcoreasm_v7m.o [1]
_scheduler_init         0x08001817   0x22  Code  Gb  chschd.o [1]
_stm32_dma_streams      0x08007868   0xc0  Data  Gb  stm32_dma.o [1]
_test_assert            0x08001001   0x10  Code  Gb  test.o [1]
_test_assert_sequence   0x08001011   0x36  Code  Gb  test.o [1]
_test_assert_time_window
                        0x08001047   0x16  Code  Gb  test.o [1]
_test_fail              0x08000fe7   0x1a  Code  Gb  test.o [1]
_thread_init            0x080013d3   0x42  Code  Gb  chthreads.o [1]
_unhandled_exception    0x08007263         Code  Gb  vectors.o [1]
_vt_init                0x08001999   0x1a  Code  Gb  chvt.o [1]
adcInit                 0x08004a25    0x8  Code  Gb  adc.o [1]
adcObjectInit           0x08004a2d   0x22  Code  Gb  adc.o [1]
adcSTM32EnableTSVREFE   0x080048ed    0xe  Code  Gb  adc_lld.o [1]
adcStart                0x08004a4f   0x40  Code  Gb  adc.o [1]
adcStartConversionI     0x08004a8f   0x4a  Code  Gb  adc.o [1]
adc_lld_init            0x0800471b   0x5a  Code  Gb  adc_lld.o [1]
adc_lld_serve_rx_interrupt
                        0x08004429  0x134  Code  Lc  adc_lld.o [1]
adc_lld_start           0x08004775   0xb4  Code  Gb  adc_lld.o [1]
adc_lld_start_conversion
                        0x08004829   0x86  Code  Gb  adc_lld.o [1]
adc_lld_stop_conversion
                        0x080048af   0x3e  Code  Gb  adc_lld.o [1]
adccb                   0x08006aad   0x9a  Code  Lc  main.o [1]
adcgrpcfg               0x08007ad8   0x2c  Data  Lc  main.o [1]
bmk10_execute           0x08002483   0x60  Code  Lc  testbmk.o [1]
bmk11_execute           0x080024ef   0x5e  Code  Lc  testbmk.o [1]
bmk11_setup             0x080024e3    0xc  Code  Lc  testbmk.o [1]
bmk12_execute           0x08002557   0x56  Code  Lc  testbmk.o [1]
bmk12_setup             0x0800254d    0xa  Code  Lc  testbmk.o [1]
bmk13_execute           0x080025ad   0xba  Code  Lc  testbmk.o [1]
bmk1_execute            0x08001e73   0x60  Code  Lc  testbmk.o [1]
bmk2_execute            0x08001ed3   0x60  Code  Lc  testbmk.o [1]
bmk3_execute            0x08001f35   0xf8  Code  Lc  testbmk.o [1]
bmk4_execute            0x08002051   0xa2  Code  Lc  testbmk.o [1]
bmk5_execute            0x080020f3   0x5e  Code  Lc  testbmk.o [1]
bmk6_execute            0x08002151   0x5a  Code  Lc  testbmk.o [1]
bmk7_execute            0x080021d5  0x122  Code  Lc  testbmk.o [1]
bmk7_setup              0x080021c7    0xe  Code  Lc  testbmk.o [1]
bmk8_execute            0x08002321   0xcc  Code  Lc  testbmk.o [1]
bmk9_execute            0x080023ed   0x94  Code  Lc  testbmk.o [1]
boardInit               0x0800756d    0x2  Code  Gb  board.o [1]
c1                      0x20002100    0x8  Data  Lc  testmtx.o [1]
chCondBroadcast         0x080016d5   0x18  Code  Gb  chcond.o [1]
chCondBroadcastI        0x080016ed   0x2c  Code  Gb  chcond.o [1]
chCondInit              0x0800166f   0x14  Code  Gb  chcond.o [1]
chCondSignal            0x08001683   0x2e  Code  Gb  chcond.o [1]
chCondSignalI           0x080016b1   0x24  Code  Gb  chcond.o [1]
chCondWait              0x08001719   0x14  Code  Gb  chcond.o [1]
chCondWaitS             0x0800172d   0x46  Code  Gb  chcond.o [1]
chCondWaitTimeout       0x08001773   0x14  Code  Gb  chcond.o [1]
chCondWaitTimeoutS      0x08001787   0x5a  Code  Gb  chcond.o [1]
chCoreAlloc             0x0800506f   0x14  Code  Gb  chmemcore.o [1]
chCoreAllocI            0x08005083   0x2a  Code  Gb  chmemcore.o [1]
chCoreStatus            0x080050ad    0xc  Code  Gb  chmemcore.o [1]
chEvtAddFlags           0x080055ed   0x1c  Code  Gb  chevents.o [1]
chEvtBroadcastFlags     0x0800566f   0x18  Code  Gb  chevents.o [1]
chEvtBroadcastFlagsI    0x08005687   0x2c  Code  Gb  chevents.o [1]
chEvtClearFlags         0x080055c5   0x28  Code  Gb  chevents.o [1]
chEvtDispatch           0x080056b3   0x46  Code  Gb  chevents.o [1]
chEvtRegisterMask       0x08005561   0x2e  Code  Gb  chevents.o [1]
chEvtSignalFlags        0x08005609   0x26  Code  Gb  chevents.o [1]
chEvtSignalFlagsI       0x0800562f   0x40  Code  Gb  chevents.o [1]
chEvtUnregister         0x0800558f   0x36  Code  Gb  chevents.o [1]
chEvtWaitAll            0x0800575d   0x2e  Code  Gb  chevents.o [1]
chEvtWaitAllTimeout     0x08005827   0x4a  Code  Gb  chevents.o [1]
chEvtWaitAny            0x0800572d   0x30  Code  Gb  chevents.o [1]
chEvtWaitAnyTimeout     0x080057db   0x4c  Code  Gb  chevents.o [1]
chEvtWaitOne            0x080056f9   0x34  Code  Gb  chevents.o [1]
chEvtWaitOneTimeout     0x0800578b   0x50  Code  Gb  chevents.o [1]
chHeapAlloc             0x08001c15   0x86  Code  Gb  chheap.o [1]
chHeapFree              0x08001c9b   0x96  Code  Gb  chheap.o [1]
chHeapInit              0x08001be1   0x34  Code  Gb  chheap.o [1]
chHeapStatus            0x08001d31   0x3c  Code  Gb  chheap.o [1]
chIQGetTimeout          0x08002c17   0x56  Code  Gb  chqueues.o [1]
chIQInit                0x08002b83   0x1a  Code  Gb  chqueues.o [1]
chIQPutI                0x08002bc5   0x52  Code  Gb  chqueues.o [1]
chIQReadTimeout         0x08002c6d   0x8a  Code  Gb  chqueues.o [1]
chIQResetI              0x08002b9d   0x28  Code  Gb  chqueues.o [1]
chMBFetch               0x080037d5   0x14  Code  Gb  chmboxes.o [1]
chMBFetchI              0x08003837   0x46  Code  Gb  chmboxes.o [1]
chMBFetchS              0x080037e9   0x4e  Code  Gb  chmboxes.o [1]
chMBInit                0x08003619   0x3c  Code  Gb  chmboxes.o [1]
chMBPost                0x08003699   0x14  Code  Gb  chmboxes.o [1]
chMBPostAhead           0x08003735   0x14  Code  Gb  chmboxes.o [1]
chMBPostAheadI          0x08003793   0x42  Code  Gb  chmboxes.o [1]
chMBPostAheadS          0x08003749   0x4a  Code  Gb  chmboxes.o [1]
chMBPostI               0x080036f5   0x40  Code  Gb  chmboxes.o [1]
chMBPostS               0x080036ad   0x48  Code  Gb  chmboxes.o [1]
chMBReset               0x08003655   0x44  Code  Gb  chmboxes.o [1]
chMsgRelease            0x0800279d   0x22  Code  Gb  chmsg.o [1]
chMsgSend               0x08002713   0x4c  Code  Gb  chmsg.o [1]
chMsgWait               0x0800275f   0x34  Code  Gb  chmsg.o [1]
chMtxInit               0x08000c7d   0x18  Code  Gb  chmtx.o [1]
chMtxLock               0x08000c95   0x14  Code  Gb  chmtx.o [1]
chMtxLockS              0x08000ca9   0x9a  Code  Gb  chmtx.o [1]
chMtxTryLock            0x08000d43   0x14  Code  Gb  chmtx.o [1]
chMtxTryLockS           0x08000d57   0x30  Code  Gb  chmtx.o [1]
chMtxUnlock             0x08000d87   0x7a  Code  Gb  chmtx.o [1]
chMtxUnlockAll          0x08000e6d   0x4c  Code  Gb  chmtx.o [1]
chMtxUnlockS            0x08000e01   0x6c  Code  Gb  chmtx.o [1]
chOQGetI                0x08002d8f   0x54  Code  Gb  chqueues.o [1]
chOQInit                0x08002cf7   0x14  Code  Gb  chqueues.o [1]
chOQPutTimeout          0x08002d37   0x58  Code  Gb  chqueues.o [1]
chOQResetI              0x08002d0b   0x2c  Code  Gb  chqueues.o [1]
chOQWriteTimeout        0x08002de3   0x8a  Code  Gb  chqueues.o [1]
chPoolAlloc             0x08001dd1   0x14  Code  Gb  chmempools.o [1]
chPoolAllocI            0x08001da3   0x2e  Code  Gb  chmempools.o [1]
chPoolFree              0x08001e15   0x14  Code  Gb  chmempools.o [1]
chPoolFreeI             0x08001de5   0x24  Code  Gb  chmempools.o [1]
chPoolInit              0x08001d81   0x22  Code  Gb  chmempools.o [1]
chRegFirstThread        0x08005c7d   0x18  Code  Gb  chregistry.o [1]
chRegNextThread         0x08005c95   0x36  Code  Gb  chregistry.o [1]
chSchDoReschedule       0x08001961   0x30  Code  Gb  chschd.o [1]
chSchGoSleepS           0x0800186b   0x2c  Code  Gb  chschd.o [1]
chSchGoSleepTimeoutS    0x080018cf   0x40  Code  Gb  chschd.o [1]
chSchReadyI             0x08001839   0x32  Code  Gb  chschd.o [1]
chSchRescheduleS        0x08001949   0x18  Code  Gb  chschd.o [1]
chSchWakeupS            0x0800190f   0x3a  Code  Gb  chschd.o [1]
chSemAddCounterI        0x08002a21   0x5a  Code  Gb  chsem.o [1]
chSemInit               0x08002813   0x1a  Code  Gb  chsem.o [1]
chSemReset              0x0800282d   0x18  Code  Gb  chsem.o [1]
chSemResetI             0x08002845   0x54  Code  Gb  chsem.o [1]
chSemSignal             0x08002987   0x52  Code  Gb  chsem.o [1]
chSemSignalI            0x080029d9   0x48  Code  Gb  chsem.o [1]
chSemSignalWait         0x08002a7b   0xa2  Code  Gb  chsem.o [1]
chSemWait               0x08002899   0x14  Code  Gb  chsem.o [1]
chSemWaitS              0x080028ad   0x5c  Code  Gb  chsem.o [1]
chSemWaitTimeout        0x08002909   0x14  Code  Gb  chsem.o [1]
chSemWaitTimeoutS       0x0800291d   0x6a  Code  Gb  chsem.o [1]
chSysInit               0x08004f87   0x4c  Code  Gb  chsys.o [1]
chSysTimerHandlerI      0x08004fd3   0x68  Code  Gb  chsys.o [1]
chThdAddRef             0x08001a7d   0x22  Code  Gb  chdynamic.o [1]
chThdCreateFromHeap     0x08001b07   0x42  Code  Gb  chdynamic.o [1]
chThdCreateFromMemoryPool
                        0x08001b49   0x52  Code  Gb  chdynamic.o [1]
chThdCreateI            0x08001415   0x44  Code  Gb  chthreads.o [1]
chThdCreateStatic       0x08001459   0x24  Code  Gb  chthreads.o [1]
chThdExit               0x08001579    0xe  Code  Gb  chthreads.o [1]
chThdExitS              0x08001587   0x3c  Code  Gb  chthreads.o [1]
chThdRelease            0x08001a9f   0x68  Code  Gb  chdynamic.o [1]
chThdResume             0x080014cd   0x2a  Code  Gb  chthreads.o [1]
chThdSetPriority        0x0800147d   0x50  Code  Gb  chthreads.o [1]
chThdSleep              0x0800150d   0x26  Code  Gb  chthreads.o [1]
chThdSleepUntil         0x08001533   0x22  Code  Gb  chthreads.o [1]
chThdTerminate          0x080014f7   0x16  Code  Gb  chthreads.o [1]
chThdWait               0x080015c3   0x60  Code  Gb  chthreads.o [1]
chThdYield              0x08001555   0x24  Code  Gb  chthreads.o [1]
chTimeIsWithin          0x08001a43   0x2c  Code  Gb  chvt.o [1]
chVTResetI              0x08001a01   0x42  Code  Gb  chvt.o [1]
chVTSetI                0x080019b3   0x4e  Code  Gb  chvt.o [1]
chp                     0x20002cb0    0x4  Data  Lc  test.o [1]
chprintf                0x08006833  0x258  Code  Gb  chprintf.o [1]
clear_tokens            0x08000f89    0xc  Code  Lc  test.o [1]
default_config          0x08008a3c    0xc  Data  Lc  serial_lld.o [1]
default_heap            0x20002b28   0x20  Data  Lc  chheap.o [1]
dequeue                 0x08000c6f    0xe  Code  Lc  chmtx.o [1]
dequeue                 0x08001809    0xe  Code  Lc  chschd.o [1]
dmaInit                 0x08004e51   0x48  Code  Gb  stm32_dma.o [1]
dmaStreamAllocate       0x08004e99   0xae  Code  Gb  stm32_dma.o [1]
dma_isr_redir           0x200028f0   0x80  Data  Lc  stm32_dma.o [1]
dma_streams_mask        0x20002c9c    0x4  Data  Lc  stm32_dma.o [1]
dummyrx                 0x20002cbe    0x2  Data  Lc  spi_lld.o [1]
dummytx                 0x20002cbc    0x2  Data  Lc  spi_lld.o [1]
dyn1_execute            0x080058ad  0x110  Code  Lc  testdyn.o [1]
dyn1_setup              0x08005899   0x14  Code  Lc  testdyn.o [1]
dyn2_execute            0x080059cd   0xfe  Code  Lc  testdyn.o [1]
dyn2_setup              0x080059bd   0x10  Code  Lc  testdyn.o [1]
dyn3_execute            0x08005b11  0x140  Code  Lc  testdyn.o [1]
dyn3_setup              0x08005aef   0x10  Code  Lc  testdyn.o [1]
endmem                  0x20002c98    0x4  Data  Lc  chmemcore.o [1]
es1                     0x20002108    0x4  Data  Lc  testevt.o [1]
es2                     0x2000210c    0x4  Data  Lc  testevt.o [1]
evhndl                  0x08008aa8    0xc  Data  Lc  testevt.o [1]
evt1_execute            0x080050f3   0xa6  Code  Lc  testevt.o [1]
evt1_setup              0x080050c9    0xc  Code  Lc  testevt.o [1]
evt2_execute            0x080051d7  0x28e  Code  Lc  testevt.o [1]
evt2_setup              0x08005199    0xc  Code  Lc  testevt.o [1]
evt3_execute            0x0800549d   0xc4  Code  Lc  testevt.o [1]
evt3_setup              0x08005491    0xc  Code  Lc  testevt.o [1]
execute_test            0x0800113d   0x3e  Code  Lc  test.o [1]
exit                    0x08007cb5    0x4  Code  Gb  exit.o [3]
failpoint               0x20002ca8    0x4  Data  Lc  test.o [1]
fifo_remove             0x08001663    0xc  Code  Lc  chcond.o [1]
fifo_remove             0x08002707    0xc  Code  Lc  chmsg.o [1]
fifo_remove             0x08000c63    0xc  Code  Lc  chmtx.o [1]
fifo_remove             0x08002b4f    0xc  Code  Lc  chqueues.o [1]
fifo_remove             0x080017fd    0xc  Code  Lc  chschd.o [1]
fifo_remove             0x080027fb    0xc  Code  Lc  chsem.o [1]
getflags                0x08006fd7   0x16  Code  Lc  serial.o [1]
gett                    0x08006fb9    0xa  Code  Lc  serial.o [1]
getwouldblock           0x08006f9d   0x10  Code  Lc  serial.o [1]
global_fail             0x20002ca4    0x4  Data  Lc  test.o [1]
h1                      0x080050d5    0xa  Code  Lc  testevt.o [1]
h2                      0x080050df    0xa  Code  Lc  testevt.o [1]
h3                      0x080050e9    0xa  Code  Lc  testevt.o [1]
halInit                 0x08006f49   0x22  Code  Gb  hal.o [1]
hal_lld_backup_domain_init
                        0x0800736d   0x4a  Code  Lc  hal_lld.o [1]
hal_lld_init            0x080073b7   0x98  Code  Gb  hal_lld.o [1]
heap1                   0x20002b88   0x20  Data  Lc  testdyn.o [1]
heap1_execute           0x0800656d  0x282  Code  Lc  testheap.o [1]
heap1_setup             0x0800655d   0x10  Code  Lc  testheap.o [1]
initgpio                0x080070c5   0x1e  Code  Lc  pal_lld.o [1]
iq                      0x20002088   0x20  Data  Lc  testqueues.o [1]
lifo_remove             0x08002807    0xc  Code  Lc  chsem.o [1]
lis302dlReadRegister    0x080072c5   0x32  Code  Gb  lis302dl.o [1]
lis302dlWriteRegister   0x080072f7   0x6e  Code  Gb  lis302dl.o [1]
list_insert             0x080013c1    0x8  Code  Lc  chthreads.o [1]
list_remove             0x080013c9    0xa  Code  Lc  chthreads.o [1]
local_fail              0x20002ca0    0x4  Data  Lc  test.o [1]
ltoa                    0x080067f9   0x3a  Code  Lc  chprintf.o [1]
m1                      0x200020c8   0x10  Data  Lc  testmtx.o [1]
m2                      0x200020d8   0x10  Data  Lc  testmtx.o [1]
main                    0x08006b85  0x138  Code  Gb  main.o [1]
mb1                     0x20002060   0x28  Data  Lc  testmbox.o [1]
mbox1_execute           0x08002e8b  0x782  Code  Lc  testmbox.o [1]
mbox1_setup             0x08002e79   0x12  Code  Lc  testmbox.o [1]
mp1                     0x20002c88    0xc  Data  Lc  testdyn.o [1]
mp1                     0x200020e8    0xc  Data  Lc  testpools.o [1]
msg1_execute            0x08007949   0x6e  Code  Lc  testmsg.o [1]
msg_loop_test           0x08001e3f   0x34  Code  Lc  testbmk.o [1]
mtx1                    0x20002c5c   0x10  Data  Lc  testbmk.o [1]
mtx1_execute            0x080001af   0xe0  Code  Lc  testmtx.o [1]
mtx1_setup              0x08000189    0xc  Code  Lc  testmtx.o [1]
mtx2_execute            0x080002fb   0xa4  Code  Lc  testmtx.o [1]
mtx2_setup              0x0800028f    0xc  Code  Lc  testmtx.o [1]
mtx3_execute            0x08000481   0xf2  Code  Lc  testmtx.o [1]
mtx3_setup              0x0800039f   0x14  Code  Lc  testmtx.o [1]
mtx4_execute            0x080005bd  0x2a4  Code  Lc  testmtx.o [1]
mtx4_setup              0x08000573   0x14  Code  Lc  testmtx.o [1]
mtx5_execute            0x08000875   0xe0  Code  Lc  testmtx.o [1]
mtx5_setup              0x08000861    0xc  Code  Lc  testmtx.o [1]
mtx6_execute            0x0800098d   0xc2  Code  Lc  testmtx.o [1]
mtx6_setup              0x08000955   0x10  Code  Lc  testmtx.o [1]
mtx7_execute            0x08000a5f   0x9a  Code  Lc  testmtx.o [1]
mtx7_setup              0x08000a4f   0x10  Code  Lc  testmtx.o [1]
mtx8_execute            0x08000b69   0x70  Code  Lc  testmtx.o [1]
mtx8_setup              0x08000af9   0x16  Code  Lc  testmtx.o [1]
nextmem                 0x20002c94    0x4  Data  Lc  chmemcore.o [1]
notify                  0x0800389d    0x2  Code  Lc  testqueues.o [1]
notify2                 0x080076dd    0xe  Code  Lc  serial_lld.o [1]
null_provider           0x080079cd    0x4  Code  Lc  testpools.o [1]
nvicEnableVector        0x08004ae1   0x48  Code  Gb  nvic.o [1]
nvicSetSystemHandlerPriority
                        0x08004b29   0x26  Code  Gb  nvic.o [1]
oq                      0x200020a8   0x20  Data  Lc  testqueues.o [1]
pal_default_config      0x0800776c   0xfc  Data  Gb  board.o [1]
patternbmk              0x08007a70   0x38  Data  Gb  testbmk.o [1]
patterndyn              0x08008838   0x10  Data  Gb  testdyn.o [1]
patternevt              0x08008878   0x10  Data  Gb  testevt.o [1]
patternheap             0x08008b08    0x8  Data  Gb  testheap.o [1]
patternmbox             0x08008b18    0x8  Data  Gb  testmbox.o [1]
patternmsg              0x08008b20    0x8  Data  Gb  testmsg.o [1]
patternmtx              0x08007db0   0x24  Data  Gb  testmtx.o [1]
patternpools            0x08008b30    0x8  Data  Gb  testpools.o [1]
patternqueues           0x08008ab4    0xc  Data  Gb  testqueues.o [1]
patterns                0x20002030   0x30  Data  Lc  test.o [1]
patternsem              0x08008420   0x14  Data  Gb  testsem.o [1]
patternthd              0x08008434   0x14  Data  Gb  testthd.o [1]
pools1_execute          0x080079e1   0x84  Code  Lc  testpools.o [1]
pools1_setup            0x080079d1   0x10  Code  Lc  testpools.o [1]
port_halt               0x080063a5    0x4  Code  Wk  chcore.o [1]
print_line              0x0800117b   0x4a  Code  Lc  test.o [1]
print_tokens            0x08000f95   0x2e  Code  Lc  test.o [1]
prio_insert             0x08001641   0x22  Code  Lc  chcond.o [1]
prio_insert             0x08000c41   0x22  Code  Lc  chmtx.o [1]
putt                    0x08006fad    0xc  Code  Lc  serial.o [1]
putwouldblock           0x08006f8d   0x10  Code  Lc  serial.o [1]
pwmInit                 0x08007265    0x8  Code  Gb  pwm.o [1]
pwmObjectInit           0x0800726d    0xa  Code  Gb  pwm.o [1]
pwmStart                0x08007277   0x48  Code  Gb  pwm.o [1]
pwm_lld_enable_channel  0x08006ee9   0x3e  Code  Gb  pwm_lld.o [1]
pwm_lld_init            0x08006d7b   0x10  Code  Gb  pwm_lld.o [1]
pwm_lld_start           0x08006d8b  0x148  Code  Gb  pwm_lld.o [1]
pwmcfg                  0x20002000   0x30  Data  Lc  main.o [1]
pwmpcb                  0x08006a91   0x1c  Code  Lc  main.o [1]
queue_insert            0x080026f9    0xe  Code  Lc  chmsg.o [1]
queue_insert            0x08002b41    0xe  Code  Lc  chqueues.o [1]
queue_insert            0x080027ed    0xe  Code  Lc  chsem.o [1]
queues1_execute         0x080038c7  0x316  Code  Lc  testqueues.o [1]
queues1_setup           0x0800389f   0x18  Code  Lc  testqueues.o [1]
queues2_execute         0x08003bff  0x2b8  Code  Lc  testqueues.o [1]
queues2_setup           0x08003bdd   0x12  Code  Lc  testqueues.o [1]
qwait                   0x08002b5b   0x28  Code  Lc  chqueues.o [1]
reads                   0x08006f7f    0xe  Code  Lc  serial.o [1]
readt                   0x08006fcd    0xa  Code  Lc  serial.o [1]
regfind                 0x08005acb   0x24  Code  Lc  testdyn.o [1]
rlist                   0x20002b48   0x20  Data  Gb  chschd.o [1]
rxbuf                   0x20002cba    0x2  Data  Lc  lis302dl.o [1]
samples                 0x20002c3c   0x10  Data  Lc  main.o [1]
sdIncomingDataI         0x0800706b   0x4c  Code  Gb  serial.o [1]
sdInit                  0x08006fed    0x8  Code  Gb  serial.o [1]
sdObjectInit            0x08006ff5   0x38  Code  Gb  serial.o [1]
sdStart                 0x0800702d   0x3e  Code  Gb  serial.o [1]
sd_lld_init             0x080076f9   0x14  Code  Gb  serial_lld.o [1]
sd_lld_start            0x0800770d   0x36  Code  Gb  serial_lld.o [1]
sem1                    0x20002c7c    0xc  Data  Lc  testbmk.o [1]
sem1                    0x200020f4    0xc  Data  Lc  testsem.o [1]
sem1_execute            0x08003f01  0x158  Code  Lc  testsem.o [1]
sem1_setup              0x08003edd    0xe  Code  Lc  testsem.o [1]
sem2_execute            0x08004095  0x17a  Code  Lc  testsem.o [1]
sem2_setup              0x08004059    0xe  Code  Lc  testsem.o [1]
sem3_execute            0x0800423d   0x9e  Code  Lc  testsem.o [1]
sem3_setup              0x0800420f    0xc  Code  Lc  testsem.o [1]
sem4_execute            0x080042fb  0x104  Code  Lc  testsem.o [1]
serve_interrupt         0x08006d19   0x54  Code  Lc  pwm_lld.o [1]
serve_interrupt         0x08007603   0xda  Code  Lc  serial_lld.o [1]
set_error               0x080075c3   0x40  Code  Lc  serial_lld.o [1]
spi1cfg                 0x08008a18    0xc  Data  Lc  main.o [1]
spi2cfg                 0x08008a24    0xc  Data  Lc  main.o [1]
spiExchange             0x0800646d   0x6e  Code  Gb  spi.o [1]
spiInit                 0x080063a9    0x8  Code  Gb  spi.o [1]
spiObjectInit           0x080063b1   0x16  Code  Gb  spi.o [1]
spiSelect               0x0800640d   0x30  Code  Gb  spi.o [1]
spiSend                 0x080064db   0x6a  Code  Gb  spi.o [1]
spiStart                0x080063c7   0x46  Code  Gb  spi.o [1]
spiUnselect             0x0800643d   0x30  Code  Gb  spi.o [1]
spi_lld_exchange        0x080062b1   0x56  Code  Gb  spi_lld.o [1]
spi_lld_init            0x08006143   0x54  Code  Gb  spi_lld.o [1]
spi_lld_select          0x08006291   0x10  Code  Gb  spi_lld.o [1]
spi_lld_send            0x08006307   0x54  Code  Gb  spi_lld.o [1]
spi_lld_serve_rx_interrupt
                        0x08006091   0xa4  Code  Lc  spi_lld.o [1]
spi_lld_serve_tx_interrupt
                        0x08006135    0xe  Code  Lc  spi_lld.o [1]
spi_lld_start           0x08006197   0xfa  Code  Gb  spi_lld.o [1]
spi_lld_unselect        0x080062a1   0x10  Code  Gb  spi_lld.o [1]
spicb                   0x08006b47   0x14  Code  Lc  main.o [1]
stm32_clock_init        0x0800744f   0xb4  Code  Gb  hal_lld.o [1]
test                    0x20002110  0x5f0  Data  Gb  test.o [1]
test_cpu_pulse          0x080010a9   0x4c  Code  Gb  test.o [1]
test_emit_token         0x08000fc3   0x24  Code  Gb  test.o [1]
test_heap               0x20002ba8   0x20  Data  Lc  testheap.o [1]
test_print              0x08000f29   0x28  Code  Gb  test.o [1]
test_println            0x08000f51   0x38  Code  Gb  test.o [1]
test_printn             0x08000ec9   0x60  Code  Gb  test.o [1]
test_start_timer        0x0800110b   0x32  Code  Gb  test.o [1]
test_terminate_threads  0x0800105d   0x22  Code  Gb  test.o [1]
test_timer_done         0x20002cb4    0x4  Data  Gb  test.o [1]
test_wait_threads       0x0800107f   0x2a  Code  Gb  test.o [1]
test_wait_tick          0x080010f5    0xe  Code  Gb  test.o [1]
testbmk1                0x08008738   0x10  Data  Gb  testbmk.o [1]
testbmk10               0x080087c8   0x10  Data  Gb  testbmk.o [1]
testbmk11               0x080087d8   0x10  Data  Gb  testbmk.o [1]
testbmk12               0x080087e8   0x10  Data  Gb  testbmk.o [1]
testbmk13               0x080087f8   0x10  Data  Gb  testbmk.o [1]
testbmk2                0x08008748   0x10  Data  Gb  testbmk.o [1]
testbmk3                0x08008758   0x10  Data  Gb  testbmk.o [1]
testbmk4                0x08008768   0x10  Data  Gb  testbmk.o [1]
testbmk5                0x08008778   0x10  Data  Gb  testbmk.o [1]
testbmk6                0x08008788   0x10  Data  Gb  testbmk.o [1]
testbmk7                0x08008798   0x10  Data  Gb  testbmk.o [1]
testbmk8                0x080087a8   0x10  Data  Gb  testbmk.o [1]
testbmk9                0x080087b8   0x10  Data  Gb  testbmk.o [1]
testdyn1                0x08008808   0x10  Data  Gb  testdyn.o [1]
testdyn2                0x08008818   0x10  Data  Gb  testdyn.o [1]
testdyn3                0x08008828   0x10  Data  Gb  testdyn.o [1]
testevt1                0x08008848   0x10  Data  Gb  testevt.o [1]
testevt2                0x08008858   0x10  Data  Gb  testevt.o [1]
testevt3                0x08008868   0x10  Data  Gb  testevt.o [1]
testheap1               0x08008888   0x10  Data  Gb  testheap.o [1]
testmbox1               0x08008898   0x10  Data  Gb  testmbox.o [1]
testmsg1                0x080088b8   0x10  Data  Gb  testmsg.o [1]
testmtx1                0x080088d8   0x10  Data  Gb  testmtx.o [1]
testmtx2                0x080088e8   0x10  Data  Gb  testmtx.o [1]
testmtx3                0x080088f8   0x10  Data  Gb  testmtx.o [1]
testmtx4                0x08008908   0x10  Data  Gb  testmtx.o [1]
testmtx5                0x08008918   0x10  Data  Gb  testmtx.o [1]
testmtx6                0x08008928   0x10  Data  Gb  testmtx.o [1]
testmtx7                0x08008938   0x10  Data  Gb  testmtx.o [1]
testmtx8                0x08008948   0x10  Data  Gb  testmtx.o [1]
testpools1              0x08008958   0x10  Data  Gb  testpools.o [1]
testqueues1             0x08008968   0x10  Data  Gb  testqueues.o [1]
testqueues2             0x08008978   0x10  Data  Gb  testqueues.o [1]
testsem1                0x08008988   0x10  Data  Gb  testsem.o [1]
testsem2                0x08008998   0x10  Data  Gb  testsem.o [1]
testsem3                0x080089a8   0x10  Data  Gb  testsem.o [1]
testsem4                0x080089b8   0x10  Data  Gb  testsem.o [1]
testthd1                0x080089d8   0x10  Data  Gb  testthd.o [1]
testthd2                0x080089e8   0x10  Data  Gb  testthd.o [1]
testthd3                0x080089f8   0x10  Data  Gb  testthd.o [1]
testthd4                0x08008a08   0x10  Data  Gb  testthd.o [1]
thd1_execute            0x08005cdd   0xbe  Code  Lc  testthd.o [1]
thd2_execute            0x08005d9b   0xbe  Code  Lc  testthd.o [1]
thd3_execute            0x08005e69  0x190  Code  Lc  testthd.o [1]
thd4_execute            0x08005ffd   0x7a  Code  Lc  testthd.o [1]
thread                  0x0800588d    0xc  Code  Lc  testdyn.o [1]
thread                  0x08007929   0x20  Code  Lc  testmsg.o [1]
thread                  0x08005cd1    0xc  Code  Lc  testthd.o [1]
thread1                 0x08001e29   0x16  Code  Lc  testbmk.o [1]
thread1                 0x080051a5   0x16  Code  Lc  testevt.o [1]
thread1                 0x08000195   0x1a  Code  Lc  testmtx.o [1]
thread1                 0x080038b7   0x10  Code  Lc  testqueues.o [1]
thread1                 0x08003eeb   0x16  Code  Lc  testsem.o [1]
thread10                0x08000965   0x1e  Code  Lc  testmtx.o [1]
thread11                0x08000b0f   0x2c  Code  Lc  testmtx.o [1]
thread12                0x08000b3b   0x18  Code  Lc  testmtx.o [1]
thread2                 0x08001f33    0x2  Code  Lc  testbmk.o [1]
thread2                 0x080051bb   0x1c  Code  Lc  testevt.o [1]
thread2                 0x08003bef   0x10  Code  Lc  testqueues.o [1]
thread2                 0x08004067   0x24  Code  Lc  testsem.o [1]
thread2H                0x080002d7   0x24  Code  Lc  testmtx.o [1]
thread2L                0x0800029b   0x24  Code  Lc  testmtx.o [1]
thread2M                0x080002bf   0x18  Code  Lc  testmtx.o [1]
thread3                 0x080021ab   0x1c  Code  Lc  testbmk.o [1]
thread3                 0x08004221   0x12  Code  Lc  testsem.o [1]
thread3H                0x08000431   0x18  Code  Lc  testmtx.o [1]
thread3HH               0x08000449   0x24  Code  Lc  testmtx.o [1]
thread3L                0x080003d1   0x3c  Code  Lc  testmtx.o [1]
thread3LL               0x080003b3   0x1e  Code  Lc  testmtx.o [1]
thread3M                0x0800040d   0x24  Code  Lc  testmtx.o [1]
thread4                 0x0800202d   0x24  Code  Gb  testbmk.o [1]
thread4                 0x080042db   0x20  Code  Lc  testsem.o [1]
thread4a                0x08000587   0x18  Code  Lc  testmtx.o [1]
thread4b                0x0800059f   0x18  Code  Lc  testmtx.o [1]
thread8                 0x080022f7   0x2a  Code  Lc  testbmk.o [1]
threads                 0x20002bdc   0x14  Data  Gb  test.o [1]
tmo                     0x08002481    0x2  Code  Lc  testbmk.o [1]
tmr                     0x08001103    0x8  Code  Lc  test.o [1]
tokens_buffer           0x20002c4c   0x10  Data  Lc  test.o [1]
tokp                    0x20002cac    0x4  Data  Lc  test.o [1]
txbuf                   0x20002cb8    0x2  Data  Lc  lis302dl.o [1]
usart_init              0x08007571   0x52  Code  Lc  serial_lld.o [1]
vmt                     0x08007cd8   0x24  Data  Lc  serial.o [1]
vt                      0x20002bf0   0x14  Data  Lc  test.o [1]
vtlist                  0x20002c2c   0x10  Data  Gb  chvt.o [1]
wa                      0x080083bc   0x14  Data  Gb  test.o [1]
waThread1               0x20002700  0x130  Data  Lc  main.o [1]
wakeup                  0x08001897   0x38  Code  Lc  chschd.o [1]
writes                  0x08006f71    0xe  Code  Lc  serial.o [1]
writet                  0x08006fc3    0xa  Code  Lc  serial.o [1]


[1] = \\psf\Home\Documents\Eclipse\Workspace\ChibiOS_2.4.2\demos\ARMCM4-STM32F407-DISCOVERY\iar\Debug\Obj
[2] = command line
[3] = dl7M_tln.a
[4] = m7M_tlv.a
[5] = rt7M_tl.a
[6] = shb_l.a

  31 072 bytes of readonly  code memory
   4 864 bytes of readonly  data memory
  11 456 bytes of readwrite data memory

Errors: none
Warnings: none
