
stm32f4-usart.elf:     file format elf32-littlearm


Disassembly of section .text:

08000188 <delay_ms>:
  * @brief  wait millisecond
  * @param  wait_time : time to wait in millisecond
  * @retval None
  */
void delay_ms(uint16_t waittime)
{
 8000188:	b510      	push	{r4, lr}
 800018a:	4604      	mov	r4, r0
  //Supply APB1 Clock
  RCC_APB1PeriphClockCmd(TIM_RCC , ENABLE);
 800018c:	2001      	movs	r0, #1
 800018e:	4601      	mov	r1, r0
 8000190:	f001 fd0e 	bl	8001bb0 <RCC_APB1PeriphClockCmd>

  /* Time base configuration */
  TIM_TimeBaseStructureMili.TIM_Period = ((waittime+1) * 1)-1;
 8000194:	f240 0300 	movw	r3, #0
 8000198:	f2c2 0300 	movt	r3, #8192	; 0x2000
  TIM_TimeBaseInit(TIM_NUM, &TIM_TimeBaseStructureMili);
 800019c:	4619      	mov	r1, r3
{
  //Supply APB1 Clock
  RCC_APB1PeriphClockCmd(TIM_RCC , ENABLE);

  /* Time base configuration */
  TIM_TimeBaseStructureMili.TIM_Period = ((waittime+1) * 1)-1;
 800019e:	605c      	str	r4, [r3, #4]
  TIM_TimeBaseInit(TIM_NUM, &TIM_TimeBaseStructureMili);
 80001a0:	f04f 4080 	mov.w	r0, #1073741824	; 0x40000000
 80001a4:	f001 fe28 	bl	8001df8 <TIM_TimeBaseInit>

  TIM_SelectOnePulseMode(TIM_NUM, TIM_OPMode_Single);
 80001a8:	f04f 4080 	mov.w	r0, #1073741824	; 0x40000000
 80001ac:	2108      	movs	r1, #8
 80001ae:	f001 fee3 	bl	8001f78 <TIM_SelectOnePulseMode>

  TIM_SetCounter(TIM_NUM,2);
 80001b2:	f04f 4080 	mov.w	r0, #1073741824	; 0x40000000
 80001b6:	2102      	movs	r1, #2
 80001b8:	f001 fea4 	bl	8001f04 <TIM_SetCounter>

  /* TIM enable counter */
  TIM_Cmd(TIM_NUM, ENABLE);
 80001bc:	f04f 4080 	mov.w	r0, #1073741824	; 0x40000000
 80001c0:	2101      	movs	r1, #1
 80001c2:	f001 fef9 	bl	8001fb8 <TIM_Cmd>

  while (TIM_GetCounter(TIM_NUM)){};
 80001c6:	f04f 4080 	mov.w	r0, #1073741824	; 0x40000000
 80001ca:	f001 fe9f 	bl	8001f0c <TIM_GetCounter>
 80001ce:	4601      	mov	r1, r0
 80001d0:	2800      	cmp	r0, #0
 80001d2:	d1f8      	bne.n	80001c6 <delay_ms+0x3e>

  /* TIM enable counter */
  TIM_Cmd(TIM_NUM, DISABLE);
 80001d4:	f04f 4080 	mov.w	r0, #1073741824	; 0x40000000
}
 80001d8:	e8bd 4010 	ldmia.w	sp!, {r4, lr}
  TIM_Cmd(TIM_NUM, ENABLE);

  while (TIM_GetCounter(TIM_NUM)){};

  /* TIM enable counter */
  TIM_Cmd(TIM_NUM, DISABLE);
 80001dc:	f001 beec 	b.w	8001fb8 <TIM_Cmd>

080001e0 <delay_us>:
  * @brief  wait micro second
  * @param  wait_time : time to wait in micro second
  * @retval None
  */
void delay_us(uint16_t waittime)
{
 80001e0:	b510      	push	{r4, lr}
 80001e2:	4604      	mov	r4, r0
  //Supply APB1 Clock
  RCC_APB1PeriphClockCmd(TIM_RCC , ENABLE);
 80001e4:	2001      	movs	r0, #1
 80001e6:	4601      	mov	r1, r0
 80001e8:	f001 fce2 	bl	8001bb0 <RCC_APB1PeriphClockCmd>

  /* Time base configuration */
  TIM_TimeBaseStructureMicro.TIM_Period = ((waittime+1) * 1)-1;
 80001ec:	f240 0300 	movw	r3, #0
 80001f0:	f2c2 0300 	movt	r3, #8192	; 0x2000
  TIM_TimeBaseInit(TIM_NUM, &TIM_TimeBaseStructureMicro);
 80001f4:	f103 010c 	add.w	r1, r3, #12
{
  //Supply APB1 Clock
  RCC_APB1PeriphClockCmd(TIM_RCC , ENABLE);

  /* Time base configuration */
  TIM_TimeBaseStructureMicro.TIM_Period = ((waittime+1) * 1)-1;
 80001f8:	611c      	str	r4, [r3, #16]
  TIM_TimeBaseInit(TIM_NUM, &TIM_TimeBaseStructureMicro);
 80001fa:	f04f 4080 	mov.w	r0, #1073741824	; 0x40000000
 80001fe:	f001 fdfb 	bl	8001df8 <TIM_TimeBaseInit>

  TIM_SelectOnePulseMode(TIM_NUM, TIM_OPMode_Single);
 8000202:	f04f 4080 	mov.w	r0, #1073741824	; 0x40000000
 8000206:	2108      	movs	r1, #8
 8000208:	f001 feb6 	bl	8001f78 <TIM_SelectOnePulseMode>

  TIM_SetCounter(TIM_NUM,2);
 800020c:	f04f 4080 	mov.w	r0, #1073741824	; 0x40000000
 8000210:	2102      	movs	r1, #2
 8000212:	f001 fe77 	bl	8001f04 <TIM_SetCounter>

  /* TIM enable counter */
  TIM_Cmd(TIM_NUM, ENABLE);
 8000216:	f04f 4080 	mov.w	r0, #1073741824	; 0x40000000
 800021a:	2101      	movs	r1, #1
 800021c:	f001 fecc 	bl	8001fb8 <TIM_Cmd>

  while (TIM_GetCounter(TIM_NUM)){};
 8000220:	f04f 4080 	mov.w	r0, #1073741824	; 0x40000000
 8000224:	f001 fe72 	bl	8001f0c <TIM_GetCounter>
 8000228:	4601      	mov	r1, r0
 800022a:	2800      	cmp	r0, #0
 800022c:	d1f8      	bne.n	8000220 <delay_us+0x40>

  /* TIM enable counter */
  TIM_Cmd(TIM_NUM, DISABLE);
 800022e:	f04f 4080 	mov.w	r0, #1073741824	; 0x40000000

}
 8000232:	e8bd 4010 	ldmia.w	sp!, {r4, lr}
  TIM_Cmd(TIM_NUM, ENABLE);

  while (TIM_GetCounter(TIM_NUM)){};

  /* TIM enable counter */
  TIM_Cmd(TIM_NUM, DISABLE);
 8000236:	f001 bebf 	b.w	8001fb8 <TIM_Cmd>
 800023a:	bf00      	nop

0800023c <pinPort>:
	if (mode == GPIO_Mode_OUT)
		return (GPIO_ReadOutputDataBit(port, pinBit(portpin)) ? SET : RESET);
	return (GPIO_ReadInputDataBit(port, pinBit(portpin)) ? SET : RESET);
}

GPIO_TypeDef * pinPort(GPIOPin portpin) {
 800023c:	f240 0318 	movw	r3, #24
 8000240:	f2c2 0300 	movt	r3, #8192	; 0x2000
 8000244:	f3c0 2003 	ubfx	r0, r0, #8, #4
	return Port[portpin >> 8 & 0x0f];
}
 8000248:	f853 0020 	ldr.w	r0, [r3, r0, lsl #2]
 800024c:	4770      	bx	lr
 800024e:	bf00      	nop

08000250 <pinBit>:

uint16_t pinBit(GPIOPin portpin) {
 8000250:	f000 010f 	and.w	r1, r0, #15
 8000254:	2301      	movs	r3, #1
 8000256:	fa13 f001 	lsls.w	r0, r3, r1
	return ((uint16_t)1)<<(portpin &0x0f);
}
 800025a:	b280      	uxth	r0, r0
 800025c:	4770      	bx	lr
 800025e:	bf00      	nop

08000260 <pinSource>:

uint8_t pinSource(GPIOPin portpin) {
	return portpin & 0x0f;
}
 8000260:	f000 000f 	and.w	r0, r0, #15
 8000264:	4770      	bx	lr
 8000266:	bf00      	nop

08000268 <GPIOWrite>:
	GPIO_Init(port, &GPIO_InitStructure);
}


void GPIOWrite(GPIO_TypeDef * port, uint16_t bits) {
	GPIO_Write(port, bits);
 8000268:	f001 ba48 	b.w	80016fc <GPIO_Write>

0800026c <GPIOMode>:
uint8_t pinSource(GPIOPin portpin) {
	return portpin & 0x0f;
}

void GPIOMode(GPIO_TypeDef * port, uint16_t pinbit, GPIOMode_TypeDef mode,
              GPIOSpeed_TypeDef clk, GPIOOType_TypeDef otype, GPIOPuPd_TypeDef pupd) {
 800026c:	e92d 45f0 	stmdb	sp!, {r4, r5, r6, r7, r8, sl, lr}
	if ( port == GPIOB ) {
 8000270:	f240 4c00 	movw	ip, #1024	; 0x400
 8000274:	f2c4 0c02 	movt	ip, #16386	; 0x4002
uint8_t pinSource(GPIOPin portpin) {
	return portpin & 0x0f;
}

void GPIOMode(GPIO_TypeDef * port, uint16_t pinbit, GPIOMode_TypeDef mode,
              GPIOSpeed_TypeDef clk, GPIOOType_TypeDef otype, GPIOPuPd_TypeDef pupd) {
 8000278:	b083      	sub	sp, #12
	if ( port == GPIOB ) {
 800027a:	4560      	cmp	r0, ip
uint8_t pinSource(GPIOPin portpin) {
	return portpin & 0x0f;
}

void GPIOMode(GPIO_TypeDef * port, uint16_t pinbit, GPIOMode_TypeDef mode,
              GPIOSpeed_TypeDef clk, GPIOOType_TypeDef otype, GPIOPuPd_TypeDef pupd) {
 800027c:	4604      	mov	r4, r0
 800027e:	460d      	mov	r5, r1
 8000280:	4616      	mov	r6, r2
 8000282:	461f      	mov	r7, r3
 8000284:	f89d a028 	ldrb.w	sl, [sp, #40]	; 0x28
 8000288:	f89d 802c 	ldrb.w	r8, [sp, #44]	; 0x2c
	if ( port == GPIOB ) {
 800028c:	d044      	beq.n	8000318 <GPIOMode+0xac>
		RCC_AHB1PeriphClockCmd(RCC_AHB1Periph_GPIOB, ENABLE);
	} else if ( port == GPIOC ) {
 800028e:	f640 0300 	movw	r3, #2048	; 0x800
 8000292:	f2c4 0302 	movt	r3, #16386	; 0x4002
 8000296:	4298      	cmp	r0, r3
 8000298:	d043      	beq.n	8000322 <GPIOMode+0xb6>
		RCC_AHB1PeriphClockCmd(RCC_AHB1Periph_GPIOC, ENABLE);
	} else if ( port == GPIOD ) {
 800029a:	f640 4000 	movw	r0, #3072	; 0xc00
 800029e:	f2c4 0002 	movt	r0, #16386	; 0x4002
 80002a2:	4284      	cmp	r4, r0
 80002a4:	d042      	beq.n	800032c <GPIOMode+0xc0>
		RCC_AHB1PeriphClockCmd(RCC_AHB1Periph_GPIOD, ENABLE);
	} else if ( port == GPIOE ) {
 80002a6:	f241 0100 	movw	r1, #4096	; 0x1000
 80002aa:	f2c4 0102 	movt	r1, #16386	; 0x4002
 80002ae:	428c      	cmp	r4, r1
 80002b0:	d041      	beq.n	8000336 <GPIOMode+0xca>
		RCC_AHB1PeriphClockCmd(RCC_AHB1Periph_GPIOE, ENABLE);
	} else if ( port == GPIOF ) {
 80002b2:	f241 4200 	movw	r2, #5120	; 0x1400
 80002b6:	f2c4 0202 	movt	r2, #16386	; 0x4002
 80002ba:	4294      	cmp	r4, r2
 80002bc:	d040      	beq.n	8000340 <GPIOMode+0xd4>
		RCC_AHB1PeriphClockCmd(RCC_AHB1Periph_GPIOF, ENABLE);
	} else if ( port == GPIOG ) {
 80002be:	f641 0e00 	movw	lr, #6144	; 0x1800
 80002c2:	f2c4 0e02 	movt	lr, #16386	; 0x4002
 80002c6:	4574      	cmp	r4, lr
 80002c8:	d03f      	beq.n	800034a <GPIOMode+0xde>
		RCC_AHB1PeriphClockCmd(RCC_AHB1Periph_GPIOG, ENABLE);
	} else if ( port == GPIOH ) {
 80002ca:	f641 4c00 	movw	ip, #7168	; 0x1c00
 80002ce:	f2c4 0c02 	movt	ip, #16386	; 0x4002
 80002d2:	4564      	cmp	r4, ip
 80002d4:	d03e      	beq.n	8000354 <GPIOMode+0xe8>
		RCC_AHB1PeriphClockCmd(RCC_AHB1Periph_GPIOH, ENABLE);
	} else if ( port == GPIOI ) {
 80002d6:	f242 0300 	movw	r3, #8192	; 0x2000
 80002da:	f2c4 0302 	movt	r3, #16386	; 0x4002
 80002de:	429c      	cmp	r4, r3
 80002e0:	d03d      	beq.n	800035e <GPIOMode+0xf2>
		RCC_AHB1PeriphClockCmd(RCC_AHB1Periph_GPIOI, ENABLE);
	} else if ( port == GPIOA ) {
 80002e2:	f240 0000 	movw	r0, #0
 80002e6:	f2c4 0002 	movt	r0, #16386	; 0x4002
 80002ea:	4284      	cmp	r4, r0
 80002ec:	d00f      	beq.n	800030e <GPIOMode+0xa2>
	GPIO_InitStructure.GPIO_Mode = mode;
	GPIO_InitStructure.GPIO_OType = otype;
	GPIO_InitStructure.GPIO_PuPd = pupd;
	GPIO_InitStructure.GPIO_Speed = clk;
	//
	GPIO_Init(port, &GPIO_InitStructure);
 80002ee:	4620      	mov	r0, r4
 80002f0:	4669      	mov	r1, sp
	}
	// assumes port is already waked up.

	GPIO_InitTypeDef GPIO_InitStructure;
        
	GPIO_InitStructure.GPIO_Pin = pinbit;
 80002f2:	9500      	str	r5, [sp, #0]
	GPIO_InitStructure.GPIO_Mode = mode;
 80002f4:	f88d 6004 	strb.w	r6, [sp, #4]
	GPIO_InitStructure.GPIO_OType = otype;
 80002f8:	f88d a006 	strb.w	sl, [sp, #6]
	GPIO_InitStructure.GPIO_PuPd = pupd;
 80002fc:	f88d 8007 	strb.w	r8, [sp, #7]
	GPIO_InitStructure.GPIO_Speed = clk;
 8000300:	f88d 7005 	strb.w	r7, [sp, #5]
	//
	GPIO_Init(port, &GPIO_InitStructure);
 8000304:	f000 fe38 	bl	8000f78 <GPIO_Init>
}
 8000308:	b003      	add	sp, #12
 800030a:	e8bd 85f0 	ldmia.w	sp!, {r4, r5, r6, r7, r8, sl, pc}
	} else if ( port == GPIOH ) {
		RCC_AHB1PeriphClockCmd(RCC_AHB1Periph_GPIOH, ENABLE);
	} else if ( port == GPIOI ) {
		RCC_AHB1PeriphClockCmd(RCC_AHB1Periph_GPIOI, ENABLE);
	} else if ( port == GPIOA ) {
		RCC_AHB1PeriphClockCmd(RCC_AHB1Periph_GPIOA, ENABLE);
 800030e:	2001      	movs	r0, #1
 8000310:	4601      	mov	r1, r0
 8000312:	f001 fc17 	bl	8001b44 <RCC_AHB1PeriphClockCmd>
 8000316:	e7ea      	b.n	80002ee <GPIOMode+0x82>
}

void GPIOMode(GPIO_TypeDef * port, uint16_t pinbit, GPIOMode_TypeDef mode,
              GPIOSpeed_TypeDef clk, GPIOOType_TypeDef otype, GPIOPuPd_TypeDef pupd) {
	if ( port == GPIOB ) {
		RCC_AHB1PeriphClockCmd(RCC_AHB1Periph_GPIOB, ENABLE);
 8000318:	2002      	movs	r0, #2
 800031a:	2101      	movs	r1, #1
 800031c:	f001 fc12 	bl	8001b44 <RCC_AHB1PeriphClockCmd>
 8000320:	e7e5      	b.n	80002ee <GPIOMode+0x82>
	} else if ( port == GPIOC ) {
		RCC_AHB1PeriphClockCmd(RCC_AHB1Periph_GPIOC, ENABLE);
 8000322:	2004      	movs	r0, #4
 8000324:	2101      	movs	r1, #1
 8000326:	f001 fc0d 	bl	8001b44 <RCC_AHB1PeriphClockCmd>
 800032a:	e7e0      	b.n	80002ee <GPIOMode+0x82>
	} else if ( port == GPIOD ) {
		RCC_AHB1PeriphClockCmd(RCC_AHB1Periph_GPIOD, ENABLE);
 800032c:	2008      	movs	r0, #8
 800032e:	2101      	movs	r1, #1
 8000330:	f001 fc08 	bl	8001b44 <RCC_AHB1PeriphClockCmd>
 8000334:	e7db      	b.n	80002ee <GPIOMode+0x82>
	} else if ( port == GPIOE ) {
		RCC_AHB1PeriphClockCmd(RCC_AHB1Periph_GPIOE, ENABLE);
 8000336:	2010      	movs	r0, #16
 8000338:	2101      	movs	r1, #1
 800033a:	f001 fc03 	bl	8001b44 <RCC_AHB1PeriphClockCmd>
 800033e:	e7d6      	b.n	80002ee <GPIOMode+0x82>
	} else if ( port == GPIOF ) {
		RCC_AHB1PeriphClockCmd(RCC_AHB1Periph_GPIOF, ENABLE);
 8000340:	2020      	movs	r0, #32
 8000342:	2101      	movs	r1, #1
 8000344:	f001 fbfe 	bl	8001b44 <RCC_AHB1PeriphClockCmd>
 8000348:	e7d1      	b.n	80002ee <GPIOMode+0x82>
	} else if ( port == GPIOG ) {
		RCC_AHB1PeriphClockCmd(RCC_AHB1Periph_GPIOG, ENABLE);
 800034a:	2040      	movs	r0, #64	; 0x40
 800034c:	2101      	movs	r1, #1
 800034e:	f001 fbf9 	bl	8001b44 <RCC_AHB1PeriphClockCmd>
 8000352:	e7cc      	b.n	80002ee <GPIOMode+0x82>
	} else if ( port == GPIOH ) {
		RCC_AHB1PeriphClockCmd(RCC_AHB1Periph_GPIOH, ENABLE);
 8000354:	2080      	movs	r0, #128	; 0x80
 8000356:	2101      	movs	r1, #1
 8000358:	f001 fbf4 	bl	8001b44 <RCC_AHB1PeriphClockCmd>
 800035c:	e7c7      	b.n	80002ee <GPIOMode+0x82>
	} else if ( port == GPIOI ) {
		RCC_AHB1PeriphClockCmd(RCC_AHB1Periph_GPIOI, ENABLE);
 800035e:	f44f 7080 	mov.w	r0, #256	; 0x100
 8000362:	2101      	movs	r1, #1
 8000364:	f001 fbee 	bl	8001b44 <RCC_AHB1PeriphClockCmd>
 8000368:	e7c1      	b.n	80002ee <GPIOMode+0x82>
 800036a:	bf00      	nop

0800036c <pinMode>:
	}
	return 16;
}
*/

void pinMode(GPIOPin portpin, GPIOMode_TypeDef mode) {
 800036c:	b5f0      	push	{r4, r5, r6, r7, lr}

	GPIO_InitTypeDef GPIO_InitStructure;

	RCC_AHB1PeriphClockCmd(PortPeriph[portpin>>8 & 0x0f], ENABLE);
 800036e:	f240 0418 	movw	r4, #24
 8000372:	f3c0 2503 	ubfx	r5, r0, #8, #4
 8000376:	f2c2 0400 	movt	r4, #8192	; 0x2000
 800037a:	eb04 0385 	add.w	r3, r4, r5, lsl #2
	}
	return 16;
}
*/

void pinMode(GPIOPin portpin, GPIOMode_TypeDef mode) {
 800037e:	b083      	sub	sp, #12
 8000380:	4606      	mov	r6, r0
 8000382:	460f      	mov	r7, r1

	GPIO_InitTypeDef GPIO_InitStructure;

	RCC_AHB1PeriphClockCmd(PortPeriph[portpin>>8 & 0x0f], ENABLE);
 8000384:	6a98      	ldr	r0, [r3, #40]	; 0x28
 8000386:	2101      	movs	r1, #1
 8000388:	f001 fbdc 	bl	8001b44 <RCC_AHB1PeriphClockCmd>

	GPIO_InitStructure.GPIO_Pin = pinBit(portpin);
 800038c:	2101      	movs	r1, #1
 800038e:	f006 000f 	and.w	r0, r6, #15
 8000392:	fa11 f600 	lsls.w	r6, r1, r0
	GPIO_InitStructure.GPIO_Mode = mode;
	GPIO_InitStructure.GPIO_OType = GPIO_OType_PP;
 8000396:	2300      	movs	r3, #0

	GPIO_InitTypeDef GPIO_InitStructure;

	RCC_AHB1PeriphClockCmd(PortPeriph[portpin>>8 & 0x0f], ENABLE);

	GPIO_InitStructure.GPIO_Pin = pinBit(portpin);
 8000398:	b2b6      	uxth	r6, r6
	GPIO_InitStructure.GPIO_Mode = mode;
	GPIO_InitStructure.GPIO_OType = GPIO_OType_PP;
	GPIO_InitStructure.GPIO_PuPd = GPIO_PuPd_NOPULL;
	GPIO_InitStructure.GPIO_Speed = GPIO_Speed_50MHz;
 800039a:	2202      	movs	r2, #2
	//
	GPIO_Init(Port[portpin>>8 & 0x0f], &GPIO_InitStructure);
 800039c:	f854 0025 	ldr.w	r0, [r4, r5, lsl #2]
 80003a0:	4669      	mov	r1, sp

	GPIO_InitTypeDef GPIO_InitStructure;

	RCC_AHB1PeriphClockCmd(PortPeriph[portpin>>8 & 0x0f], ENABLE);

	GPIO_InitStructure.GPIO_Pin = pinBit(portpin);
 80003a2:	9600      	str	r6, [sp, #0]
	GPIO_InitStructure.GPIO_Mode = mode;
 80003a4:	f88d 7004 	strb.w	r7, [sp, #4]
	GPIO_InitStructure.GPIO_OType = GPIO_OType_PP;
	GPIO_InitStructure.GPIO_PuPd = GPIO_PuPd_NOPULL;
 80003a8:	f88d 3007 	strb.w	r3, [sp, #7]
	GPIO_InitStructure.GPIO_Speed = GPIO_Speed_50MHz;
 80003ac:	f88d 2005 	strb.w	r2, [sp, #5]

	RCC_AHB1PeriphClockCmd(PortPeriph[portpin>>8 & 0x0f], ENABLE);

	GPIO_InitStructure.GPIO_Pin = pinBit(portpin);
	GPIO_InitStructure.GPIO_Mode = mode;
	GPIO_InitStructure.GPIO_OType = GPIO_OType_PP;
 80003b0:	f88d 3006 	strb.w	r3, [sp, #6]
	GPIO_InitStructure.GPIO_PuPd = GPIO_PuPd_NOPULL;
	GPIO_InitStructure.GPIO_Speed = GPIO_Speed_50MHz;
	//
	GPIO_Init(Port[portpin>>8 & 0x0f], &GPIO_InitStructure);
 80003b4:	f000 fde0 	bl	8000f78 <GPIO_Init>
}
 80003b8:	b003      	add	sp, #12
 80003ba:	bdf0      	pop	{r4, r5, r6, r7, pc}

080003bc <digitalRead>:
GPIO_TypeDef * pinPort(GPIOPin portpin) {
	return Port[portpin >> 8 & 0x0f];
}

uint16_t pinBit(GPIOPin portpin) {
	return ((uint16_t)1)<<(portpin &0x0f);
 80003bc:	2201      	movs	r2, #1
	} else {
		GPIO_ResetBits(Port[portpin >>8 & 0x0f], pinBit(portpin));
	}
}

uint8_t digitalRead(GPIOPin portpin) {
 80003be:	b508      	push	{r3, lr}
GPIO_TypeDef * pinPort(GPIOPin portpin) {
	return Port[portpin >> 8 & 0x0f];
}

uint16_t pinBit(GPIOPin portpin) {
	return ((uint16_t)1)<<(portpin &0x0f);
 80003c0:	f000 030f 	and.w	r3, r0, #15
 80003c4:	fa12 f103 	lsls.w	r1, r2, r3
		GPIO_ResetBits(Port[portpin >>8 & 0x0f], pinBit(portpin));
	}
}

uint8_t digitalRead(GPIOPin portpin) {
	GPIO_TypeDef * port = Port[portpin>>8 & 0x0f];
 80003c8:	f240 0318 	movw	r3, #24
 80003cc:	f2c2 0300 	movt	r3, #8192	; 0x2000
 80003d0:	f3c0 2003 	ubfx	r0, r0, #8, #4
 80003d4:	f853 0020 	ldr.w	r0, [r3, r0, lsl #2]
GPIO_TypeDef * pinPort(GPIOPin portpin) {
	return Port[portpin >> 8 & 0x0f];
}

uint16_t pinBit(GPIOPin portpin) {
	return ((uint16_t)1)<<(portpin &0x0f);
 80003d8:	b289      	uxth	r1, r1
	}
}

uint8_t digitalRead(GPIOPin portpin) {
	GPIO_TypeDef * port = Port[portpin>>8 & 0x0f];
	uint8_t mode = (port->MODER) >> (pinBit(portpin) * 2);
 80003da:	6802      	ldr	r2, [r0, #0]
	if (mode == GPIO_Mode_OUT)
 80003dc:	004b      	lsls	r3, r1, #1
 80003de:	fa32 f303 	lsrs.w	r3, r2, r3
 80003e2:	b2db      	uxtb	r3, r3
 80003e4:	2b01      	cmp	r3, #1
 80003e6:	d005      	beq.n	80003f4 <digitalRead+0x38>
		return (GPIO_ReadOutputDataBit(port, pinBit(portpin)) ? SET : RESET);
	return (GPIO_ReadInputDataBit(port, pinBit(portpin)) ? SET : RESET);
 80003e8:	f001 f96a 	bl	80016c0 <GPIO_ReadInputDataBit>
 80003ec:	3800      	subs	r0, #0
 80003ee:	bf18      	it	ne
 80003f0:	2001      	movne	r0, #1
}
 80003f2:	bd08      	pop	{r3, pc}

uint8_t digitalRead(GPIOPin portpin) {
	GPIO_TypeDef * port = Port[portpin>>8 & 0x0f];
	uint8_t mode = (port->MODER) >> (pinBit(portpin) * 2);
	if (mode == GPIO_Mode_OUT)
		return (GPIO_ReadOutputDataBit(port, pinBit(portpin)) ? SET : RESET);
 80003f4:	f001 f96e 	bl	80016d4 <GPIO_ReadOutputDataBit>
 80003f8:	3800      	subs	r0, #0
 80003fa:	bf18      	it	ne
 80003fc:	2001      	movne	r0, #1
 80003fe:	bd08      	pop	{r3, pc}

08000400 <digitalWrite>:
	//
	GPIO_Init(Port[portpin>>8 & 0x0f], &GPIO_InitStructure);
}

void digitalWrite(GPIOPin portpin, uint8_t bit) {
	if (bit) {
 8000400:	b971      	cbnz	r1, 8000420 <digitalWrite+0x20>
		//? Bit_SET : Bit_RESET ));
		GPIO_SetBits(Port[portpin >>8 & 0x0f], pinBit(portpin));
	} else {
		GPIO_ResetBits(Port[portpin >>8 & 0x0f], pinBit(portpin));
 8000402:	f000 030f 	and.w	r3, r0, #15
 8000406:	2101      	movs	r1, #1
 8000408:	4099      	lsls	r1, r3
 800040a:	f240 0218 	movw	r2, #24
 800040e:	f2c2 0200 	movt	r2, #8192	; 0x2000
 8000412:	f3c0 2c03 	ubfx	ip, r0, #8, #4
 8000416:	f852 002c 	ldr.w	r0, [r2, ip, lsl #2]
 800041a:	b289      	uxth	r1, r1
 800041c:	f001 b966 	b.w	80016ec <GPIO_ResetBits>
}

void digitalWrite(GPIOPin portpin, uint8_t bit) {
	if (bit) {
		//? Bit_SET : Bit_RESET ));
		GPIO_SetBits(Port[portpin >>8 & 0x0f], pinBit(portpin));
 8000420:	f000 030f 	and.w	r3, r0, #15
 8000424:	2201      	movs	r2, #1
 8000426:	fa12 f103 	lsls.w	r1, r2, r3
 800042a:	f240 0318 	movw	r3, #24
 800042e:	f2c2 0300 	movt	r3, #8192	; 0x2000
 8000432:	f3c0 2003 	ubfx	r0, r0, #8, #4
 8000436:	f853 0020 	ldr.w	r0, [r3, r0, lsl #2]
 800043a:	b289      	uxth	r1, r1
 800043c:	f001 b954 	b.w	80016e8 <GPIO_SetBits>

08000440 <SysTick_Handler>:
#include "systick.h"

volatile uint32_t _systick_counter;

void SysTick_Handler(void) {
	_systick_counter++; /* increment timeTicks counter */
 8000440:	f240 6310 	movw	r3, #1552	; 0x610
 8000444:	f2c2 0300 	movt	r3, #8192	; 0x2000
 8000448:	6818      	ldr	r0, [r3, #0]
 800044a:	1c42      	adds	r2, r0, #1
 800044c:	601a      	str	r2, [r3, #0]
}
 800044e:	4770      	bx	lr

08000450 <SysTick_delay>:

void SysTick_delay(const uint32_t dlyTicks) {
	uint32_t currTicks = _systick_counter;
 8000450:	f240 6310 	movw	r3, #1552	; 0x610
 8000454:	f2c2 0300 	movt	r3, #8192	; 0x2000
 8000458:	681a      	ldr	r2, [r3, #0]

	while ((_systick_counter - currTicks) < dlyTicks)
 800045a:	6819      	ldr	r1, [r3, #0]
 800045c:	1a89      	subs	r1, r1, r2
 800045e:	4281      	cmp	r1, r0
 8000460:	d3fb      	bcc.n	800045a <SysTick_delay+0xa>
		;
}
 8000462:	4770      	bx	lr

08000464 <SysTick_count>:
	}
*/
}

uint32_t SysTick_count() {
	return _systick_counter;
 8000464:	f240 6310 	movw	r3, #1552	; 0x610
 8000468:	f2c2 0300 	movt	r3, #8192	; 0x2000
 800046c:	6818      	ldr	r0, [r3, #0]
}
 800046e:	4770      	bx	lr

08000470 <SysTick_Start>:

	while ((_systick_counter - currTicks) < dlyTicks)
		;
}

void SysTick_Start(void) {
 8000470:	b500      	push	{lr}
 8000472:	b085      	sub	sp, #20
	RCC_ClocksTypeDef RCC_Clocks;
	  /* SysTick end of count event each 1ms */
	  RCC_GetClocksFreq(&RCC_Clocks);
 8000474:	4668      	mov	r0, sp
 8000476:	f001 fad9 	bl	8001a2c <RCC_GetClocksFreq>
 */
static __INLINE uint32_t SysTick_Config(uint32_t ticks)
{
  if (ticks > SysTick_LOAD_RELOAD_Msk)  return (1);            /* Reload value impossible */

  SysTick->LOAD  = (ticks & SysTick_LOAD_RELOAD_Msk) - 1;      /* set reload register */
 800047a:	9801      	ldr	r0, [sp, #4]
 800047c:	f644 53d3 	movw	r3, #19923	; 0x4dd3
 8000480:	f2c1 0362 	movt	r3, #4194	; 0x1062
 8000484:	fba3 2c00 	umull	r2, ip, r3, r0
 8000488:	f24e 0310 	movw	r3, #57360	; 0xe010
 800048c:	f3cc 1197 	ubfx	r1, ip, #6, #24
    \param [in]  priority  Priority to set
 */
static __INLINE void NVIC_SetPriority(IRQn_Type IRQn, uint32_t priority)
{
  if(IRQn < 0) {
    SCB->SHP[((uint32_t)(IRQn) & 0xF)-4] = ((priority << (8 - __NVIC_PRIO_BITS)) & 0xff); } /* set Priority for Cortex-M  System Interrupts */
 8000490:	f64e 5200 	movw	r2, #60672	; 0xed00
 */
static __INLINE uint32_t SysTick_Config(uint32_t ticks)
{
  if (ticks > SysTick_LOAD_RELOAD_Msk)  return (1);            /* Reload value impossible */

  SysTick->LOAD  = (ticks & SysTick_LOAD_RELOAD_Msk) - 1;      /* set reload register */
 8000494:	f2ce 0300 	movt	r3, #57344	; 0xe000
 8000498:	1e48      	subs	r0, r1, #1
    \param [in]  priority  Priority to set
 */
static __INLINE void NVIC_SetPriority(IRQn_Type IRQn, uint32_t priority)
{
  if(IRQn < 0) {
    SCB->SHP[((uint32_t)(IRQn) & 0xF)-4] = ((priority << (8 - __NVIC_PRIO_BITS)) & 0xff); } /* set Priority for Cortex-M  System Interrupts */
 800049a:	f2ce 0200 	movt	r2, #57344	; 0xe000
 800049e:	f06f 010f 	mvn.w	r1, #15
 */
static __INLINE uint32_t SysTick_Config(uint32_t ticks)
{
  if (ticks > SysTick_LOAD_RELOAD_Msk)  return (1);            /* Reload value impossible */

  SysTick->LOAD  = (ticks & SysTick_LOAD_RELOAD_Msk) - 1;      /* set reload register */
 80004a2:	6058      	str	r0, [r3, #4]
    \param [in]  priority  Priority to set
 */
static __INLINE void NVIC_SetPriority(IRQn_Type IRQn, uint32_t priority)
{
  if(IRQn < 0) {
    SCB->SHP[((uint32_t)(IRQn) & 0xF)-4] = ((priority << (8 - __NVIC_PRIO_BITS)) & 0xff); } /* set Priority for Cortex-M  System Interrupts */
 80004a4:	f882 1023 	strb.w	r1, [r2, #35]	; 0x23
{
  if (ticks > SysTick_LOAD_RELOAD_Msk)  return (1);            /* Reload value impossible */

  SysTick->LOAD  = (ticks & SysTick_LOAD_RELOAD_Msk) - 1;      /* set reload register */
  NVIC_SetPriority (SysTick_IRQn, (1<<__NVIC_PRIO_BITS) - 1);  /* set Priority for Cortex-M0 System Interrupts */
  SysTick->VAL   = 0;                                          /* Load the SysTick Counter Value */
 80004a8:	2000      	movs	r0, #0
  SysTick->CTRL  = SysTick_CTRL_CLKSOURCE_Msk |
 80004aa:	2207      	movs	r2, #7
{
  if (ticks > SysTick_LOAD_RELOAD_Msk)  return (1);            /* Reload value impossible */

  SysTick->LOAD  = (ticks & SysTick_LOAD_RELOAD_Msk) - 1;      /* set reload register */
  NVIC_SetPriority (SysTick_IRQn, (1<<__NVIC_PRIO_BITS) - 1);  /* set Priority for Cortex-M0 System Interrupts */
  SysTick->VAL   = 0;                                          /* Load the SysTick Counter Value */
 80004ac:	6098      	str	r0, [r3, #8]
  SysTick->CTRL  = SysTick_CTRL_CLKSOURCE_Msk |
 80004ae:	601a      	str	r2, [r3, #0]
		// Handle Error
		while (1)
			;
	}
*/
}
 80004b0:	b005      	add	sp, #20
 80004b2:	bd00      	pop	{pc}

080004b4 <buffer_clear>:

//extern USARTRing rxring[3], txring[3];
USARTRing rxring[3], txring[3];

void buffer_clear(USARTRing * r) {
	r->head = 0;
 80004b4:	2300      	movs	r3, #0
	r->tail = 0;
	r->count = 0;
 80004b6:	f8a0 3104 	strh.w	r3, [r0, #260]	; 0x104

//extern USARTRing rxring[3], txring[3];
USARTRing rxring[3], txring[3];

void buffer_clear(USARTRing * r) {
	r->head = 0;
 80004ba:	f8a0 3100 	strh.w	r3, [r0, #256]	; 0x100
	r->tail = 0;
 80004be:	f8a0 3102 	strh.w	r3, [r0, #258]	; 0x102
	r->count = 0;
}
 80004c2:	4770      	bx	lr

080004c4 <buffer_count>:

uint16_t buffer_count(USARTRing * r) {
	return r->count;
}
 80004c4:	f8b0 0104 	ldrh.w	r0, [r0, #260]	; 0x104
 80004c8:	4770      	bx	lr
 80004ca:	bf00      	nop

080004cc <buffer_is_full>:

uint8_t buffer_is_full(USARTRing * r) {
	if ( (r->head == r->tail) && (r->count > 0) ) {
 80004cc:	f9b0 2100 	ldrsh.w	r2, [r0, #256]	; 0x100
 80004d0:	f9b0 3102 	ldrsh.w	r3, [r0, #258]	; 0x102
 80004d4:	429a      	cmp	r2, r3
 80004d6:	d001      	beq.n	80004dc <buffer_is_full+0x10>
 80004d8:	2000      	movs	r0, #0
 80004da:	4770      	bx	lr
 80004dc:	f8b0 0104 	ldrh.w	r0, [r0, #260]	; 0x104
 80004e0:	3800      	subs	r0, #0
 80004e2:	bf18      	it	ne
 80004e4:	2001      	movne	r0, #1
		return 1;
	}
	return 0;
}
 80004e6:	4770      	bx	lr

080004e8 <buffer_enque>:
uint16_t buffer_count(USARTRing * r) {
	return r->count;
}

uint8_t buffer_is_full(USARTRing * r) {
	if ( (r->head == r->tail) && (r->count > 0) ) {
 80004e8:	f8b0 c100 	ldrh.w	ip, [r0, #256]	; 0x100
		return 1;
	}
	return 0;
}

uint16_t buffer_enque(USARTRing * r, uint16_t w) {
 80004ec:	b410      	push	{r4}
uint16_t buffer_count(USARTRing * r) {
	return r->count;
}

uint8_t buffer_is_full(USARTRing * r) {
	if ( (r->head == r->tail) && (r->count > 0) ) {
 80004ee:	f9b0 4102 	ldrsh.w	r4, [r0, #258]	; 0x102
 80004f2:	fa0f f28c 	sxth.w	r2, ip
 80004f6:	4294      	cmp	r4, r2
		return 1;
	}
	return 0;
}

uint16_t buffer_enque(USARTRing * r, uint16_t w) {
 80004f8:	4603      	mov	r3, r0
uint16_t buffer_count(USARTRing * r) {
	return r->count;
}

uint8_t buffer_is_full(USARTRing * r) {
	if ( (r->head == r->tail) && (r->count > 0) ) {
 80004fa:	d017      	beq.n	800052c <buffer_enque+0x44>
}

uint16_t buffer_enque(USARTRing * r, uint16_t w) {
	if ( buffer_is_full(r) )
		return 0xffff;
	r->buf[r->head++] = w;
 80004fc:	f10c 0c01 	add.w	ip, ip, #1
	r->count++;
	r->head %= USART_BUFFER_SIZE;
 8000500:	fa0f f48c 	sxth.w	r4, ip
 8000504:	17e0      	asrs	r0, r4, #31
 8000506:	0e40      	lsrs	r0, r0, #25
 8000508:	eb04 0c00 	add.w	ip, r4, r0

uint16_t buffer_enque(USARTRing * r, uint16_t w) {
	if ( buffer_is_full(r) )
		return 0xffff;
	r->buf[r->head++] = w;
	r->count++;
 800050c:	f8b3 4104 	ldrh.w	r4, [r3, #260]	; 0x104
	r->head %= USART_BUFFER_SIZE;
 8000510:	f00c 0c7f 	and.w	ip, ip, #127	; 0x7f
 8000514:	ebc0 000c 	rsb	r0, r0, ip

uint16_t buffer_enque(USARTRing * r, uint16_t w) {
	if ( buffer_is_full(r) )
		return 0xffff;
	r->buf[r->head++] = w;
	r->count++;
 8000518:	3401      	adds	r4, #1
	r->head %= USART_BUFFER_SIZE;
 800051a:	f8a3 0100 	strh.w	r0, [r3, #256]	; 0x100
}

uint16_t buffer_enque(USARTRing * r, uint16_t w) {
	if ( buffer_is_full(r) )
		return 0xffff;
	r->buf[r->head++] = w;
 800051e:	f823 1012 	strh.w	r1, [r3, r2, lsl #1]
	r->count++;
 8000522:	f8a3 4104 	strh.w	r4, [r3, #260]	; 0x104
	r->head %= USART_BUFFER_SIZE;
	return w;
}
 8000526:	4608      	mov	r0, r1
 8000528:	bc10      	pop	{r4}
 800052a:	4770      	bx	lr
uint16_t buffer_count(USARTRing * r) {
	return r->count;
}

uint8_t buffer_is_full(USARTRing * r) {
	if ( (r->head == r->tail) && (r->count > 0) ) {
 800052c:	f8b0 0104 	ldrh.w	r0, [r0, #260]	; 0x104
 8000530:	2800      	cmp	r0, #0
 8000532:	d0e3      	beq.n	80004fc <buffer_enque+0x14>
 8000534:	f64f 71ff 	movw	r1, #65535	; 0xffff
 8000538:	e7f5      	b.n	8000526 <buffer_enque+0x3e>
 800053a:	bf00      	nop

0800053c <buffer_deque>:
	r->tail = 0;
	r->count = 0;
}

uint16_t buffer_count(USARTRing * r) {
	return r->count;
 800053c:	f8b0 2104 	ldrh.w	r2, [r0, #260]	; 0x104
	r->count++;
	r->head %= USART_BUFFER_SIZE;
	return w;
}

uint16_t buffer_deque(USARTRing * r) {
 8000540:	4603      	mov	r3, r0
	r->tail = 0;
	r->count = 0;
}

uint16_t buffer_count(USARTRing * r) {
	return r->count;
 8000542:	b1b2      	cbz	r2, 8000572 <buffer_deque+0x36>

uint16_t buffer_deque(USARTRing * r) {
	uint16_t w;
	if ( buffer_count(r) == 0 )
		return 0xffff;
	w = r->buf[r->tail++];
 8000544:	f8b0 0102 	ldrh.w	r0, [r0, #258]	; 0x102
	r->count--;
 8000548:	3a01      	subs	r2, #1

uint16_t buffer_deque(USARTRing * r) {
	uint16_t w;
	if ( buffer_count(r) == 0 )
		return 0xffff;
	w = r->buf[r->tail++];
 800054a:	f100 0c01 	add.w	ip, r0, #1
	r->count--;
	r->tail %= USART_BUFFER_SIZE;
 800054e:	fa0f fc8c 	sxth.w	ip, ip
 8000552:	ea4f 71ec 	mov.w	r1, ip, asr #31
 8000556:	0e49      	lsrs	r1, r1, #25
 8000558:	448c      	add	ip, r1
 800055a:	f00c 0c7f 	and.w	ip, ip, #127	; 0x7f
 800055e:	ebc1 010c 	rsb	r1, r1, ip

uint16_t buffer_deque(USARTRing * r) {
	uint16_t w;
	if ( buffer_count(r) == 0 )
		return 0xffff;
	w = r->buf[r->tail++];
 8000562:	b200      	sxth	r0, r0
 8000564:	f833 0010 	ldrh.w	r0, [r3, r0, lsl #1]
	r->count--;
	r->tail %= USART_BUFFER_SIZE;
 8000568:	f8a3 1102 	strh.w	r1, [r3, #258]	; 0x102
uint16_t buffer_deque(USARTRing * r) {
	uint16_t w;
	if ( buffer_count(r) == 0 )
		return 0xffff;
	w = r->buf[r->tail++];
	r->count--;
 800056c:	f8a3 2104 	strh.w	r2, [r3, #260]	; 0x104
	r->tail %= USART_BUFFER_SIZE;
	return w;
}
 8000570:	4770      	bx	lr
	r->tail = 0;
	r->count = 0;
}

uint16_t buffer_count(USARTRing * r) {
	return r->count;
 8000572:	f64f 70ff 	movw	r0, #65535	; 0xffff
 8000576:	4770      	bx	lr

08000578 <USART_id>:
	r->tail %= USART_BUFFER_SIZE;
	return w;
}

uint8_t USART_id(USART_TypeDef * USARTx) {
	if ( USARTx == USART1 )
 8000578:	f241 0300 	movw	r3, #4096	; 0x1000
 800057c:	f2c4 0301 	movt	r3, #16385	; 0x4001
 8000580:	4298      	cmp	r0, r3
 8000582:	d01d      	beq.n	80005c0 <USART_id+0x48>
		return USART_1;
	else if ( USARTx == USART2 )
 8000584:	f244 4100 	movw	r1, #17408	; 0x4400
 8000588:	f2c4 0100 	movt	r1, #16384	; 0x4000
 800058c:	4288      	cmp	r0, r1
 800058e:	d019      	beq.n	80005c4 <USART_id+0x4c>
		return USART_2;
	else if ( USARTx == USART3 )
 8000590:	f644 0200 	movw	r2, #18432	; 0x4800
 8000594:	f2c4 0200 	movt	r2, #16384	; 0x4000
 8000598:	4290      	cmp	r0, r2
 800059a:	d015      	beq.n	80005c8 <USART_id+0x50>
		return USART_3;
	else if ( USARTx == UART4 )
 800059c:	f644 4c00 	movw	ip, #19456	; 0x4c00
 80005a0:	f2c4 0c00 	movt	ip, #16384	; 0x4000
 80005a4:	4560      	cmp	r0, ip
 80005a6:	d013      	beq.n	80005d0 <USART_id+0x58>
		return UART_4;
	else if ( USARTx == UART5 )
 80005a8:	f245 0300 	movw	r3, #20480	; 0x5000
 80005ac:	f2c4 0300 	movt	r3, #16384	; 0x4000
 80005b0:	4298      	cmp	r0, r3
 80005b2:	d00f      	beq.n	80005d4 <USART_id+0x5c>
		return UART_5;
	else if ( USARTx == USART6 )
 80005b4:	f241 4100 	movw	r1, #5120	; 0x1400
 80005b8:	f2c4 0101 	movt	r1, #16385	; 0x4001
 80005bc:	4288      	cmp	r0, r1
 80005be:	d005      	beq.n	80005cc <USART_id+0x54>
 80005c0:	2000      	movs	r0, #0
		return USART_6;
	return USART_1;
}
 80005c2:	4770      	bx	lr
}

uint8_t USART_id(USART_TypeDef * USARTx) {
	if ( USARTx == USART1 )
		return USART_1;
	else if ( USARTx == USART2 )
 80005c4:	2001      	movs	r0, #1
 80005c6:	4770      	bx	lr
		return USART_2;
	else if ( USARTx == USART3 )
 80005c8:	2002      	movs	r0, #2
 80005ca:	4770      	bx	lr
		return USART_3;
	else if ( USARTx == UART4 )
		return UART_4;
	else if ( USARTx == UART5 )
		return UART_5;
	else if ( USARTx == USART6 )
 80005cc:	2005      	movs	r0, #5
 80005ce:	4770      	bx	lr
		return USART_1;
	else if ( USARTx == USART2 )
		return USART_2;
	else if ( USARTx == USART3 )
		return USART_3;
	else if ( USARTx == UART4 )
 80005d0:	2003      	movs	r0, #3
 80005d2:	4770      	bx	lr
		return UART_4;
	else if ( USARTx == UART5 )
 80005d4:	2004      	movs	r0, #4
 80005d6:	4770      	bx	lr

080005d8 <usart_read>:

uint16_t usart_bare_read(USART_TypeDef * USARTx) {
	return USART_ReceiveData(USARTx );
}

uint16_t usart_read(USART_TypeDef * USARTx) {
 80005d8:	b508      	push	{r3, lr}
	r->tail %= USART_BUFFER_SIZE;
	return w;
}

uint8_t USART_id(USART_TypeDef * USARTx) {
	if ( USARTx == USART1 )
 80005da:	f241 0300 	movw	r3, #4096	; 0x1000
 80005de:	f2c4 0301 	movt	r3, #16385	; 0x4001
 80005e2:	4298      	cmp	r0, r3
 80005e4:	d027      	beq.n	8000636 <usart_read+0x5e>
		return USART_1;
	else if ( USARTx == USART2 )
 80005e6:	f244 4100 	movw	r1, #17408	; 0x4400
 80005ea:	f2c4 0100 	movt	r1, #16384	; 0x4000
 80005ee:	4288      	cmp	r0, r1
 80005f0:	bf08      	it	eq
 80005f2:	4817      	ldreq	r0, [pc, #92]	; (8000650 <usart_read+0x78>)
 80005f4:	d023      	beq.n	800063e <usart_read+0x66>
		return USART_2;
	else if ( USARTx == USART3 )
 80005f6:	f644 0200 	movw	r2, #18432	; 0x4800
 80005fa:	f2c4 0200 	movt	r2, #16384	; 0x4000
 80005fe:	4290      	cmp	r0, r2
 8000600:	bf08      	it	eq
 8000602:	4814      	ldreq	r0, [pc, #80]	; (8000654 <usart_read+0x7c>)
 8000604:	d01b      	beq.n	800063e <usart_read+0x66>
		return USART_3;
	else if ( USARTx == UART4 )
 8000606:	f644 4c00 	movw	ip, #19456	; 0x4c00
 800060a:	f2c4 0c00 	movt	ip, #16384	; 0x4000
 800060e:	4560      	cmp	r0, ip
 8000610:	bf08      	it	eq
 8000612:	4811      	ldreq	r0, [pc, #68]	; (8000658 <usart_read+0x80>)
 8000614:	d013      	beq.n	800063e <usart_read+0x66>
		return UART_4;
	else if ( USARTx == UART5 )
 8000616:	f245 0e00 	movw	lr, #20480	; 0x5000
 800061a:	f2c4 0e00 	movt	lr, #16384	; 0x4000
 800061e:	4570      	cmp	r0, lr
 8000620:	bf08      	it	eq
 8000622:	480e      	ldreq	r0, [pc, #56]	; (800065c <usart_read+0x84>)
 8000624:	d00b      	beq.n	800063e <usart_read+0x66>
		return UART_5;
	else if ( USARTx == USART6 )
 8000626:	f241 4300 	movw	r3, #5120	; 0x1400
 800062a:	f2c4 0301 	movt	r3, #16385	; 0x4001
 800062e:	4298      	cmp	r0, r3
 8000630:	bf08      	it	eq
 8000632:	480b      	ldreq	r0, [pc, #44]	; (8000660 <usart_read+0x88>)
 8000634:	d003      	beq.n	800063e <usart_read+0x66>
 8000636:	f640 1028 	movw	r0, #2344	; 0x928
 800063a:	f2c2 0000 	movt	r0, #8192	; 0x2000
uint16_t usart_bare_read(USART_TypeDef * USARTx) {
	return USART_ReceiveData(USARTx );
}

uint16_t usart_read(USART_TypeDef * USARTx) {
	uint16_t w = buffer_deque(&rxring[USART_id(USARTx)]);
 800063e:	f7ff ff7d 	bl	800053c <buffer_deque>
	if ( w == 0xffff ) return 0; // buffer is empty
 8000642:	f64f 71ff 	movw	r1, #65535	; 0xffff
	return w;
}
 8000646:	4288      	cmp	r0, r1
 8000648:	bf08      	it	eq
 800064a:	2000      	moveq	r0, #0
 800064c:	bd08      	pop	{r3, pc}
 800064e:	bf00      	nop
 8000650:	20000a2e 	.word	0x20000a2e
 8000654:	20000b34 	.word	0x20000b34
 8000658:	20000c3a 	.word	0x20000c3a
 800065c:	20000d40 	.word	0x20000d40
 8000660:	20000e46 	.word	0x20000e46

08000664 <usart_peek>:
	r->tail %= USART_BUFFER_SIZE;
	return w;
}

uint8_t USART_id(USART_TypeDef * USARTx) {
	if ( USARTx == USART1 )
 8000664:	f241 0300 	movw	r3, #4096	; 0x1000
 8000668:	f2c4 0301 	movt	r3, #16385	; 0x4001
 800066c:	4298      	cmp	r0, r3
 800066e:	d027      	beq.n	80006c0 <usart_peek+0x5c>
		return USART_1;
	else if ( USARTx == USART2 )
 8000670:	f244 4300 	movw	r3, #17408	; 0x4400
 8000674:	f2c4 0300 	movt	r3, #16384	; 0x4000
 8000678:	4298      	cmp	r0, r3
 800067a:	bf08      	it	eq
 800067c:	4b48      	ldreq	r3, [pc, #288]	; (80007a0 <usart_peek+0x13c>)
 800067e:	d023      	beq.n	80006c8 <usart_peek+0x64>
		return USART_2;
	else if ( USARTx == USART3 )
 8000680:	f644 0300 	movw	r3, #18432	; 0x4800
 8000684:	f2c4 0300 	movt	r3, #16384	; 0x4000
 8000688:	4298      	cmp	r0, r3
 800068a:	bf08      	it	eq
 800068c:	4b45      	ldreq	r3, [pc, #276]	; (80007a4 <usart_peek+0x140>)
 800068e:	d01b      	beq.n	80006c8 <usart_peek+0x64>
		return USART_3;
	else if ( USARTx == UART4 )
 8000690:	f644 4300 	movw	r3, #19456	; 0x4c00
 8000694:	f2c4 0300 	movt	r3, #16384	; 0x4000
 8000698:	4298      	cmp	r0, r3
 800069a:	bf08      	it	eq
 800069c:	4b42      	ldreq	r3, [pc, #264]	; (80007a8 <usart_peek+0x144>)
 800069e:	d013      	beq.n	80006c8 <usart_peek+0x64>
		return UART_4;
	else if ( USARTx == UART5 )
 80006a0:	f245 0300 	movw	r3, #20480	; 0x5000
 80006a4:	f2c4 0300 	movt	r3, #16384	; 0x4000
 80006a8:	4298      	cmp	r0, r3
 80006aa:	bf08      	it	eq
 80006ac:	4b3f      	ldreq	r3, [pc, #252]	; (80007ac <usart_peek+0x148>)
 80006ae:	d00b      	beq.n	80006c8 <usart_peek+0x64>
		return UART_5;
	else if ( USARTx == USART6 )
 80006b0:	f241 4300 	movw	r3, #5120	; 0x1400
 80006b4:	f2c4 0301 	movt	r3, #16385	; 0x4001
 80006b8:	4298      	cmp	r0, r3
 80006ba:	bf08      	it	eq
 80006bc:	4b3c      	ldreq	r3, [pc, #240]	; (80007b0 <usart_peek+0x14c>)
 80006be:	d003      	beq.n	80006c8 <usart_peek+0x64>
 80006c0:	f640 1328 	movw	r3, #2344	; 0x928
 80006c4:	f2c2 0300 	movt	r3, #8192	; 0x2000
	r->tail = 0;
	r->count = 0;
}

uint16_t buffer_count(USARTRing * r) {
	return r->count;
 80006c8:	f8b3 1104 	ldrh.w	r1, [r3, #260]	; 0x104
 80006cc:	2900      	cmp	r1, #0
 80006ce:	d051      	beq.n	8000774 <usart_peek+0x110>
	r->tail %= USART_BUFFER_SIZE;
	return w;
}

uint8_t USART_id(USART_TypeDef * USARTx) {
	if ( USARTx == USART1 )
 80006d0:	f241 0200 	movw	r2, #4096	; 0x1000
 80006d4:	f2c4 0201 	movt	r2, #16385	; 0x4001
 80006d8:	4290      	cmp	r0, r2
 80006da:	d051      	beq.n	8000780 <usart_peek+0x11c>
		return USART_1;
	else if ( USARTx == USART2 )
 80006dc:	f244 4c00 	movw	ip, #17408	; 0x4400
 80006e0:	f2c4 0c00 	movt	ip, #16384	; 0x4000
 80006e4:	4560      	cmp	r0, ip
 80006e6:	d048      	beq.n	800077a <usart_peek+0x116>
		return USART_2;
	else if ( USARTx == USART3 )
 80006e8:	f644 0300 	movw	r3, #18432	; 0x4800
 80006ec:	f2c4 0300 	movt	r3, #16384	; 0x4000
 80006f0:	4298      	cmp	r0, r3
 80006f2:	d048      	beq.n	8000786 <usart_peek+0x122>
		return USART_3;
	else if ( USARTx == UART4 )
 80006f4:	f644 4100 	movw	r1, #19456	; 0x4c00
 80006f8:	f2c4 0100 	movt	r1, #16384	; 0x4000
 80006fc:	4288      	cmp	r0, r1
 80006fe:	d046      	beq.n	800078e <usart_peek+0x12a>
		return UART_4;
	else if ( USARTx == UART5 )
 8000700:	f245 0200 	movw	r2, #20480	; 0x5000
 8000704:	f2c4 0200 	movt	r2, #16384	; 0x4000
 8000708:	4290      	cmp	r0, r2
 800070a:	d044      	beq.n	8000796 <usart_peek+0x132>
		return UART_5;
	else if ( USARTx == USART6 )
 800070c:	f241 4c00 	movw	ip, #5120	; 0x1400
 8000710:	f2c4 0c01 	movt	ip, #16385	; 0x4001
 8000714:	4560      	cmp	r0, ip
 8000716:	bf0c      	ite	eq
 8000718:	2205      	moveq	r2, #5
 800071a:	2200      	movne	r2, #0
uint8_t USART_id(USART_TypeDef * USARTx) {
	if ( USARTx == USART1 )
		return USART_1;
	else if ( USARTx == USART2 )
		return USART_2;
	else if ( USARTx == USART3 )
 800071c:	f644 0300 	movw	r3, #18432	; 0x4800
 8000720:	f2c4 0300 	movt	r3, #16384	; 0x4000
 8000724:	4298      	cmp	r0, r3
 8000726:	d034      	beq.n	8000792 <usart_peek+0x12e>
		return USART_3;
	else if ( USARTx == UART4 )
 8000728:	f644 4300 	movw	r3, #19456	; 0x4c00
 800072c:	f2c4 0300 	movt	r3, #16384	; 0x4000
 8000730:	4298      	cmp	r0, r3
 8000732:	d02a      	beq.n	800078a <usart_peek+0x126>
		return UART_4;
	else if ( USARTx == UART5 )
 8000734:	f245 0100 	movw	r1, #20480	; 0x5000
 8000738:	f2c4 0100 	movt	r1, #16384	; 0x4000
 800073c:	4288      	cmp	r0, r1
 800073e:	d02c      	beq.n	800079a <usart_peek+0x136>
		return UART_5;
	else if ( USARTx == USART6 )
 8000740:	f241 4c00 	movw	ip, #5120	; 0x1400
 8000744:	f2c4 0c01 	movt	ip, #16385	; 0x4001
 8000748:	4560      	cmp	r0, ip
 800074a:	bf0c      	ite	eq
 800074c:	2005      	moveq	r0, #5
 800074e:	2000      	movne	r0, #0
	buffer_clear(&txring[USART_id(USARTx)]);
}

uint16_t usart_peek(USART_TypeDef * USARTx) {
	if ( ! buffer_count(&rxring[USART_id(USARTx)]) == 0 )
		return rxring[USART_id(USARTx)].buf[rxring[USART_id(USARTx)].tail];
 8000750:	f640 1328 	movw	r3, #2344	; 0x928
 8000754:	f2c2 0300 	movt	r3, #8192	; 0x2000
 8000758:	f44f 7c83 	mov.w	ip, #262	; 0x106
 800075c:	fb0c 3000 	mla	r0, ip, r0, r3
 8000760:	f9b0 1102 	ldrsh.w	r1, [r0, #258]	; 0x102
 8000764:	eb02 1082 	add.w	r0, r2, r2, lsl #6
 8000768:	eb02 0240 	add.w	r2, r2, r0, lsl #1
 800076c:	1852      	adds	r2, r2, r1
 800076e:	f833 0012 	ldrh.w	r0, [r3, r2, lsl #1]
	return 0xffff;
}
 8000772:	4770      	bx	lr
	r->tail = 0;
	r->count = 0;
}

uint16_t buffer_count(USARTRing * r) {
	return r->count;
 8000774:	f64f 70ff 	movw	r0, #65535	; 0xffff
 8000778:	4770      	bx	lr
}

uint8_t USART_id(USART_TypeDef * USARTx) {
	if ( USARTx == USART1 )
		return USART_1;
	else if ( USARTx == USART2 )
 800077a:	2001      	movs	r0, #1
 800077c:	4602      	mov	r2, r0
 800077e:	e7e7      	b.n	8000750 <usart_peek+0xec>
	r->tail %= USART_BUFFER_SIZE;
	return w;
}

uint8_t USART_id(USART_TypeDef * USARTx) {
	if ( USARTx == USART1 )
 8000780:	2000      	movs	r0, #0
 8000782:	4602      	mov	r2, r0
 8000784:	e7e4      	b.n	8000750 <usart_peek+0xec>
		return USART_1;
	else if ( USARTx == USART2 )
		return USART_2;
	else if ( USARTx == USART3 )
 8000786:	2202      	movs	r2, #2
 8000788:	e7c8      	b.n	800071c <usart_peek+0xb8>
		return USART_3;
	else if ( USARTx == UART4 )
 800078a:	2003      	movs	r0, #3
 800078c:	e7e0      	b.n	8000750 <usart_peek+0xec>
 800078e:	2203      	movs	r2, #3
 8000790:	e7c4      	b.n	800071c <usart_peek+0xb8>
uint8_t USART_id(USART_TypeDef * USARTx) {
	if ( USARTx == USART1 )
		return USART_1;
	else if ( USARTx == USART2 )
		return USART_2;
	else if ( USARTx == USART3 )
 8000792:	2002      	movs	r0, #2
 8000794:	e7dc      	b.n	8000750 <usart_peek+0xec>
		return USART_3;
	else if ( USARTx == UART4 )
		return UART_4;
	else if ( USARTx == UART5 )
 8000796:	2204      	movs	r2, #4
 8000798:	e7c0      	b.n	800071c <usart_peek+0xb8>
 800079a:	2004      	movs	r0, #4
 800079c:	e7d8      	b.n	8000750 <usart_peek+0xec>
 800079e:	bf00      	nop
 80007a0:	20000a2e 	.word	0x20000a2e
 80007a4:	20000b34 	.word	0x20000b34
 80007a8:	20000c3a 	.word	0x20000c3a
 80007ac:	20000d40 	.word	0x20000d40
 80007b0:	20000e46 	.word	0x20000e46

080007b4 <usart_available>:
	r->tail %= USART_BUFFER_SIZE;
	return w;
}

uint8_t USART_id(USART_TypeDef * USARTx) {
	if ( USARTx == USART1 )
 80007b4:	f241 0300 	movw	r3, #4096	; 0x1000
 80007b8:	f2c4 0301 	movt	r3, #16385	; 0x4001
 80007bc:	4298      	cmp	r0, r3
 80007be:	d027      	beq.n	8000810 <usart_available+0x5c>
		return USART_1;
	else if ( USARTx == USART2 )
 80007c0:	f244 4300 	movw	r3, #17408	; 0x4400
 80007c4:	f2c4 0300 	movt	r3, #16384	; 0x4000
 80007c8:	4298      	cmp	r0, r3
 80007ca:	bf08      	it	eq
 80007cc:	4b14      	ldreq	r3, [pc, #80]	; (8000820 <usart_available+0x6c>)
 80007ce:	d023      	beq.n	8000818 <usart_available+0x64>
		return USART_2;
	else if ( USARTx == USART3 )
 80007d0:	f644 0300 	movw	r3, #18432	; 0x4800
 80007d4:	f2c4 0300 	movt	r3, #16384	; 0x4000
 80007d8:	4298      	cmp	r0, r3
 80007da:	bf08      	it	eq
 80007dc:	4b11      	ldreq	r3, [pc, #68]	; (8000824 <usart_available+0x70>)
 80007de:	d01b      	beq.n	8000818 <usart_available+0x64>
		return USART_3;
	else if ( USARTx == UART4 )
 80007e0:	f644 4300 	movw	r3, #19456	; 0x4c00
 80007e4:	f2c4 0300 	movt	r3, #16384	; 0x4000
 80007e8:	4298      	cmp	r0, r3
 80007ea:	bf08      	it	eq
 80007ec:	4b0e      	ldreq	r3, [pc, #56]	; (8000828 <usart_available+0x74>)
 80007ee:	d013      	beq.n	8000818 <usart_available+0x64>
		return UART_4;
	else if ( USARTx == UART5 )
 80007f0:	f245 0300 	movw	r3, #20480	; 0x5000
 80007f4:	f2c4 0300 	movt	r3, #16384	; 0x4000
 80007f8:	4298      	cmp	r0, r3
 80007fa:	bf08      	it	eq
 80007fc:	4b0b      	ldreq	r3, [pc, #44]	; (800082c <usart_available+0x78>)
 80007fe:	d00b      	beq.n	8000818 <usart_available+0x64>
		return UART_5;
	else if ( USARTx == USART6 )
 8000800:	f241 4300 	movw	r3, #5120	; 0x1400
 8000804:	f2c4 0301 	movt	r3, #16385	; 0x4001
 8000808:	4298      	cmp	r0, r3
 800080a:	bf08      	it	eq
 800080c:	4b08      	ldreq	r3, [pc, #32]	; (8000830 <usart_available+0x7c>)
 800080e:	d003      	beq.n	8000818 <usart_available+0x64>
 8000810:	f640 1328 	movw	r3, #2344	; 0x928
 8000814:	f2c2 0300 	movt	r3, #8192	; 0x2000
	return 0xffff;
}

uint16_t usart_available(USART_TypeDef * USARTx) {
	return buffer_count(&rxring[USART_id(USARTx)]);
}
 8000818:	f8b3 0104 	ldrh.w	r0, [r3, #260]	; 0x104
 800081c:	4770      	bx	lr
 800081e:	bf00      	nop
 8000820:	20000a2e 	.word	0x20000a2e
 8000824:	20000b34 	.word	0x20000b34
 8000828:	20000c3a 	.word	0x20000c3a
 800082c:	20000d40 	.word	0x20000d40
 8000830:	20000e46 	.word	0x20000e46

08000834 <usart_bare_read>:
	while (*s)
		usart_write(USARTx, (uint16_t) *s++);
}

uint16_t usart_bare_read(USART_TypeDef * USARTx) {
	return USART_ReceiveData(USARTx );
 8000834:	f002 bb9c 	b.w	8002f70 <USART_ReceiveData>

08000838 <usart_write>:
		;
	USART_SendData(USARTx, w);
//	while (USART_GetFlagStatus(USART3, USART_FLAG_TC ) == RESET);
}

void usart_write(USART_TypeDef * USARTx, const uint16_t w) {
 8000838:	b570      	push	{r4, r5, r6, lr}
	USART_ITConfig(USARTx, USART_IT_TXE, (FunctionalState) DISABLE);
 800083a:	2200      	movs	r2, #0
		;
	USART_SendData(USARTx, w);
//	while (USART_GetFlagStatus(USART3, USART_FLAG_TC ) == RESET);
}

void usart_write(USART_TypeDef * USARTx, const uint16_t w) {
 800083c:	460d      	mov	r5, r1
	USART_ITConfig(USARTx, USART_IT_TXE, (FunctionalState) DISABLE);
 800083e:	f240 7127 	movw	r1, #1831	; 0x727
		;
	USART_SendData(USARTx, w);
//	while (USART_GetFlagStatus(USART3, USART_FLAG_TC ) == RESET);
}

void usart_write(USART_TypeDef * USARTx, const uint16_t w) {
 8000842:	4604      	mov	r4, r0
	USART_ITConfig(USARTx, USART_IT_TXE, (FunctionalState) DISABLE);
 8000844:	f002 fc58 	bl	80030f8 <USART_ITConfig>
	r->tail %= USART_BUFFER_SIZE;
	return w;
}

uint8_t USART_id(USART_TypeDef * USARTx) {
	if ( USARTx == USART1 )
 8000848:	f241 0300 	movw	r3, #4096	; 0x1000
 800084c:	f2c4 0301 	movt	r3, #16385	; 0x4001
 8000850:	429c      	cmp	r4, r3
 8000852:	d027      	beq.n	80008a4 <usart_write+0x6c>
		return USART_1;
	else if ( USARTx == USART2 )
 8000854:	f244 4100 	movw	r1, #17408	; 0x4400
 8000858:	f2c4 0100 	movt	r1, #16384	; 0x4000
 800085c:	428c      	cmp	r4, r1
 800085e:	bf08      	it	eq
 8000860:	4818      	ldreq	r0, [pc, #96]	; (80008c4 <usart_write+0x8c>)
 8000862:	d023      	beq.n	80008ac <usart_write+0x74>
		return USART_2;
	else if ( USARTx == USART3 )
 8000864:	f644 0200 	movw	r2, #18432	; 0x4800
 8000868:	f2c4 0200 	movt	r2, #16384	; 0x4000
 800086c:	4294      	cmp	r4, r2
 800086e:	bf08      	it	eq
 8000870:	4815      	ldreq	r0, [pc, #84]	; (80008c8 <usart_write+0x90>)
 8000872:	d01b      	beq.n	80008ac <usart_write+0x74>
		return USART_3;
	else if ( USARTx == UART4 )
 8000874:	f644 4c00 	movw	ip, #19456	; 0x4c00
 8000878:	f2c4 0c00 	movt	ip, #16384	; 0x4000
 800087c:	4564      	cmp	r4, ip
 800087e:	bf08      	it	eq
 8000880:	4812      	ldreq	r0, [pc, #72]	; (80008cc <usart_write+0x94>)
 8000882:	d013      	beq.n	80008ac <usart_write+0x74>
		return UART_4;
	else if ( USARTx == UART5 )
 8000884:	f245 0e00 	movw	lr, #20480	; 0x5000
 8000888:	f2c4 0e00 	movt	lr, #16384	; 0x4000
 800088c:	4574      	cmp	r4, lr
 800088e:	bf08      	it	eq
 8000890:	480f      	ldreq	r0, [pc, #60]	; (80008d0 <usart_write+0x98>)
 8000892:	d00b      	beq.n	80008ac <usart_write+0x74>
		return UART_5;
	else if ( USARTx == USART6 )
 8000894:	f241 4300 	movw	r3, #5120	; 0x1400
 8000898:	f2c4 0301 	movt	r3, #16385	; 0x4001
 800089c:	429c      	cmp	r4, r3
 800089e:	bf08      	it	eq
 80008a0:	480c      	ldreq	r0, [pc, #48]	; (80008d4 <usart_write+0x9c>)
 80008a2:	d003      	beq.n	80008ac <usart_write+0x74>
 80008a4:	f240 6014 	movw	r0, #1556	; 0x614
 80008a8:	f2c2 0000 	movt	r0, #8192	; 0x2000
//	while (USART_GetFlagStatus(USART3, USART_FLAG_TC ) == RESET);
}

void usart_write(USART_TypeDef * USARTx, const uint16_t w) {
	USART_ITConfig(USARTx, USART_IT_TXE, (FunctionalState) DISABLE);
	buffer_enque(&txring[USART_id(USARTx)], w);
 80008ac:	4629      	mov	r1, r5
 80008ae:	f7ff fe1b 	bl	80004e8 <buffer_enque>
	USART_ITConfig(USARTx, USART_IT_TXE, (FunctionalState) ENABLE);
 80008b2:	4620      	mov	r0, r4
 80008b4:	f240 7127 	movw	r1, #1831	; 0x727
 80008b8:	2201      	movs	r2, #1
}
 80008ba:	e8bd 4070 	ldmia.w	sp!, {r4, r5, r6, lr}
}

void usart_write(USART_TypeDef * USARTx, const uint16_t w) {
	USART_ITConfig(USARTx, USART_IT_TXE, (FunctionalState) DISABLE);
	buffer_enque(&txring[USART_id(USARTx)], w);
	USART_ITConfig(USARTx, USART_IT_TXE, (FunctionalState) ENABLE);
 80008be:	f002 bc1b 	b.w	80030f8 <USART_ITConfig>
 80008c2:	bf00      	nop
 80008c4:	2000071a 	.word	0x2000071a
 80008c8:	20000820 	.word	0x20000820
 80008cc:	20000926 	.word	0x20000926
 80008d0:	20000a2c 	.word	0x20000a2c
 80008d4:	20000b32 	.word	0x20000b32

080008d8 <usart_print>:
}

void usart_print(USART_TypeDef * USARTx, const char * s) {
 80008d8:	b538      	push	{r3, r4, r5, lr}
 80008da:	460c      	mov	r4, r1
	while (*s)
 80008dc:	7809      	ldrb	r1, [r1, #0]
	USART_ITConfig(USARTx, USART_IT_TXE, (FunctionalState) DISABLE);
	buffer_enque(&txring[USART_id(USARTx)], w);
	USART_ITConfig(USARTx, USART_IT_TXE, (FunctionalState) ENABLE);
}

void usart_print(USART_TypeDef * USARTx, const char * s) {
 80008de:	4605      	mov	r5, r0
	while (*s)
 80008e0:	b131      	cbz	r1, 80008f0 <usart_print+0x18>
		usart_write(USARTx, (uint16_t) *s++);
 80008e2:	4628      	mov	r0, r5
 80008e4:	f7ff ffa8 	bl	8000838 <usart_write>
	buffer_enque(&txring[USART_id(USARTx)], w);
	USART_ITConfig(USARTx, USART_IT_TXE, (FunctionalState) ENABLE);
}

void usart_print(USART_TypeDef * USARTx, const char * s) {
	while (*s)
 80008e8:	f814 1f01 	ldrb.w	r1, [r4, #1]!
 80008ec:	2900      	cmp	r1, #0
 80008ee:	d1f8      	bne.n	80008e2 <usart_print+0xa>
 80008f0:	bd38      	pop	{r3, r4, r5, pc}
 80008f2:	bf00      	nop

080008f4 <USART3_IRQHandler>:
		}
	}
}

void USART3_IRQHandler(void) {
	if (USART_GetITStatus(USART3, USART_IT_RXNE )) {
 80008f4:	f644 0000 	movw	r0, #18432	; 0x4800
			USART_SendData(USART1, buffer_deque(&txring[USART_1]));
		}
	}
}

void USART3_IRQHandler(void) {
 80008f8:	b510      	push	{r4, lr}
	if (USART_GetITStatus(USART3, USART_IT_RXNE )) {
 80008fa:	f2c4 0000 	movt	r0, #16384	; 0x4000
 80008fe:	f240 5125 	movw	r1, #1317	; 0x525
 8000902:	f002 fc1f 	bl	8003144 <USART_GetITStatus>
 8000906:	2800      	cmp	r0, #0
 8000908:	d130      	bne.n	800096c <USART3_IRQHandler+0x78>
		buffer_enque(&rxring[USART_3], USART_ReceiveData(USART3) );
	}

	if (USART_GetITStatus(USART3, USART_IT_TXE )) {
 800090a:	f644 0000 	movw	r0, #18432	; 0x4800
 800090e:	f2c4 0000 	movt	r0, #16384	; 0x4000
 8000912:	f240 7127 	movw	r1, #1831	; 0x727
 8000916:	f002 fc15 	bl	8003144 <USART_GetITStatus>
 800091a:	2800      	cmp	r0, #0
 800091c:	d025      	beq.n	800096a <USART3_IRQHandler+0x76>
		if (txring[USART_3].count == 0) {
 800091e:	f240 6014 	movw	r0, #1556	; 0x614
 8000922:	f2c2 0000 	movt	r0, #8192	; 0x2000
 8000926:	f8b0 2310 	ldrh.w	r2, [r0, #784]	; 0x310
 800092a:	b162      	cbz	r2, 8000946 <USART3_IRQHandler+0x52>
			USART_ITConfig(USART3, USART_IT_TXE, (FunctionalState) DISABLE);
			USART_ClearITPendingBit(USART3, USART_IT_TXE );
		} else {
			USART_SendData(USART3, buffer_deque(&txring[USART_3]));
 800092c:	f500 7003 	add.w	r0, r0, #524	; 0x20c
 8000930:	f7ff fe04 	bl	800053c <buffer_deque>
 8000934:	4601      	mov	r1, r0
 8000936:	f644 0000 	movw	r0, #18432	; 0x4800
 800093a:	f2c4 0000 	movt	r0, #16384	; 0x4000
		}
	}
}
 800093e:	e8bd 4010 	ldmia.w	sp!, {r4, lr}
	if (USART_GetITStatus(USART3, USART_IT_TXE )) {
		if (txring[USART_3].count == 0) {
			USART_ITConfig(USART3, USART_IT_TXE, (FunctionalState) DISABLE);
			USART_ClearITPendingBit(USART3, USART_IT_TXE );
		} else {
			USART_SendData(USART3, buffer_deque(&txring[USART_3]));
 8000942:	f002 bb11 	b.w	8002f68 <USART_SendData>
		buffer_enque(&rxring[USART_3], USART_ReceiveData(USART3) );
	}

	if (USART_GetITStatus(USART3, USART_IT_TXE )) {
		if (txring[USART_3].count == 0) {
			USART_ITConfig(USART3, USART_IT_TXE, (FunctionalState) DISABLE);
 8000946:	f644 0000 	movw	r0, #18432	; 0x4800
 800094a:	f2c4 0000 	movt	r0, #16384	; 0x4000
 800094e:	f240 7127 	movw	r1, #1831	; 0x727
 8000952:	f002 fbd1 	bl	80030f8 <USART_ITConfig>
			USART_ClearITPendingBit(USART3, USART_IT_TXE );
 8000956:	f644 0000 	movw	r0, #18432	; 0x4800
 800095a:	f2c4 0000 	movt	r0, #16384	; 0x4000
 800095e:	f240 7127 	movw	r1, #1831	; 0x727
		} else {
			USART_SendData(USART3, buffer_deque(&txring[USART_3]));
		}
	}
}
 8000962:	e8bd 4010 	ldmia.w	sp!, {r4, lr}
	}

	if (USART_GetITStatus(USART3, USART_IT_TXE )) {
		if (txring[USART_3].count == 0) {
			USART_ITConfig(USART3, USART_IT_TXE, (FunctionalState) DISABLE);
			USART_ClearITPendingBit(USART3, USART_IT_TXE );
 8000966:	f002 bc17 	b.w	8003198 <USART_ClearITPendingBit>
 800096a:	bd10      	pop	{r4, pc}
	}
}

void USART3_IRQHandler(void) {
	if (USART_GetITStatus(USART3, USART_IT_RXNE )) {
		buffer_enque(&rxring[USART_3], USART_ReceiveData(USART3) );
 800096c:	f644 0000 	movw	r0, #18432	; 0x4800
 8000970:	f2c4 0000 	movt	r0, #16384	; 0x4000
 8000974:	f002 fafc 	bl	8002f70 <USART_ReceiveData>
 8000978:	4601      	mov	r1, r0
 800097a:	4802      	ldr	r0, [pc, #8]	; (8000984 <USART3_IRQHandler+0x90>)
 800097c:	f7ff fdb4 	bl	80004e8 <buffer_enque>
 8000980:	e7c3      	b.n	800090a <USART3_IRQHandler+0x16>
 8000982:	bf00      	nop
 8000984:	20000b34 	.word	0x20000b34

08000988 <USART1_IRQHandler>:
}

// this is the interrupt request handler (IRQ) for ALL USART3 interrupts

void USART1_IRQHandler(void) {
	if (USART_GetITStatus(USART1, USART_IT_RXNE )) {
 8000988:	f241 0000 	movw	r0, #4096	; 0x1000
	return buffer_count(&rxring[USART_id(USARTx)]);
}

// this is the interrupt request handler (IRQ) for ALL USART3 interrupts

void USART1_IRQHandler(void) {
 800098c:	b510      	push	{r4, lr}
	if (USART_GetITStatus(USART1, USART_IT_RXNE )) {
 800098e:	f2c4 0001 	movt	r0, #16385	; 0x4001
 8000992:	f240 5125 	movw	r1, #1317	; 0x525
 8000996:	f002 fbd5 	bl	8003144 <USART_GetITStatus>
 800099a:	2800      	cmp	r0, #0
 800099c:	d12e      	bne.n	80009fc <USART1_IRQHandler+0x74>
		buffer_enque(&rxring[USART_1], USART_ReceiveData(USART1) );
	}

	if (USART_GetITStatus(USART1, USART_IT_TXE )) {
 800099e:	f241 0000 	movw	r0, #4096	; 0x1000
 80009a2:	f2c4 0001 	movt	r0, #16385	; 0x4001
 80009a6:	f240 7127 	movw	r1, #1831	; 0x727
 80009aa:	f002 fbcb 	bl	8003144 <USART_GetITStatus>
 80009ae:	2800      	cmp	r0, #0
 80009b0:	d023      	beq.n	80009fa <USART1_IRQHandler+0x72>
		if (txring[USART_1].count == 0) {
 80009b2:	f240 6014 	movw	r0, #1556	; 0x614
 80009b6:	f2c2 0000 	movt	r0, #8192	; 0x2000
 80009ba:	f8b0 2104 	ldrh.w	r2, [r0, #260]	; 0x104
 80009be:	b152      	cbz	r2, 80009d6 <USART1_IRQHandler+0x4e>
			USART_ITConfig(USART1, USART_IT_TXE, (FunctionalState) DISABLE);
			USART_ClearITPendingBit(USART1, USART_IT_TXE );
		} else {
			USART_SendData(USART1, buffer_deque(&txring[USART_1]));
 80009c0:	f7ff fdbc 	bl	800053c <buffer_deque>
 80009c4:	4601      	mov	r1, r0
 80009c6:	f241 0000 	movw	r0, #4096	; 0x1000
 80009ca:	f2c4 0001 	movt	r0, #16385	; 0x4001
		}
	}
}
 80009ce:	e8bd 4010 	ldmia.w	sp!, {r4, lr}
	if (USART_GetITStatus(USART1, USART_IT_TXE )) {
		if (txring[USART_1].count == 0) {
			USART_ITConfig(USART1, USART_IT_TXE, (FunctionalState) DISABLE);
			USART_ClearITPendingBit(USART1, USART_IT_TXE );
		} else {
			USART_SendData(USART1, buffer_deque(&txring[USART_1]));
 80009d2:	f002 bac9 	b.w	8002f68 <USART_SendData>
		buffer_enque(&rxring[USART_1], USART_ReceiveData(USART1) );
	}

	if (USART_GetITStatus(USART1, USART_IT_TXE )) {
		if (txring[USART_1].count == 0) {
			USART_ITConfig(USART1, USART_IT_TXE, (FunctionalState) DISABLE);
 80009d6:	f241 0000 	movw	r0, #4096	; 0x1000
 80009da:	f2c4 0001 	movt	r0, #16385	; 0x4001
 80009de:	f240 7127 	movw	r1, #1831	; 0x727
 80009e2:	f002 fb89 	bl	80030f8 <USART_ITConfig>
			USART_ClearITPendingBit(USART1, USART_IT_TXE );
 80009e6:	f241 0000 	movw	r0, #4096	; 0x1000
 80009ea:	f2c4 0001 	movt	r0, #16385	; 0x4001
 80009ee:	f240 7127 	movw	r1, #1831	; 0x727
		} else {
			USART_SendData(USART1, buffer_deque(&txring[USART_1]));
		}
	}
}
 80009f2:	e8bd 4010 	ldmia.w	sp!, {r4, lr}
	}

	if (USART_GetITStatus(USART1, USART_IT_TXE )) {
		if (txring[USART_1].count == 0) {
			USART_ITConfig(USART1, USART_IT_TXE, (FunctionalState) DISABLE);
			USART_ClearITPendingBit(USART1, USART_IT_TXE );
 80009f6:	f002 bbcf 	b.w	8003198 <USART_ClearITPendingBit>
 80009fa:	bd10      	pop	{r4, pc}

// this is the interrupt request handler (IRQ) for ALL USART3 interrupts

void USART1_IRQHandler(void) {
	if (USART_GetITStatus(USART1, USART_IT_RXNE )) {
		buffer_enque(&rxring[USART_1], USART_ReceiveData(USART1) );
 80009fc:	f241 0000 	movw	r0, #4096	; 0x1000
 8000a00:	f2c4 0001 	movt	r0, #16385	; 0x4001
 8000a04:	f002 fab4 	bl	8002f70 <USART_ReceiveData>
 8000a08:	4601      	mov	r1, r0
 8000a0a:	f640 1028 	movw	r0, #2344	; 0x928
 8000a0e:	f2c2 0000 	movt	r0, #8192	; 0x2000
 8000a12:	f7ff fd69 	bl	80004e8 <buffer_enque>
 8000a16:	e7c2      	b.n	800099e <USART1_IRQHandler+0x16>

08000a18 <usart_flush>:
	uint16_t w = buffer_deque(&rxring[USART_id(USARTx)]);
	if ( w == 0xffff ) return 0; // buffer is empty
	return w;
}

void usart_flush(USART_TypeDef * USARTx) {
 8000a18:	b5f8      	push	{r3, r4, r5, r6, r7, lr}
	USART_ITConfig(USARTx, USART_IT_RXNE, (FunctionalState) DISABLE); // enable the USART3 receive interrupt
 8000a1a:	2200      	movs	r2, #0
 8000a1c:	f240 5125 	movw	r1, #1317	; 0x525
	uint16_t w = buffer_deque(&rxring[USART_id(USARTx)]);
	if ( w == 0xffff ) return 0; // buffer is empty
	return w;
}

void usart_flush(USART_TypeDef * USARTx) {
 8000a20:	4604      	mov	r4, r0
	USART_ITConfig(USARTx, USART_IT_RXNE, (FunctionalState) DISABLE); // enable the USART3 receive interrupt
 8000a22:	f002 fb69 	bl	80030f8 <USART_ITConfig>
	r->tail %= USART_BUFFER_SIZE;
	return w;
}

uint8_t USART_id(USART_TypeDef * USARTx) {
	if ( USARTx == USART1 )
 8000a26:	f241 0300 	movw	r3, #4096	; 0x1000
 8000a2a:	f2c4 0301 	movt	r3, #16385	; 0x4001
 8000a2e:	429c      	cmp	r4, r3
 8000a30:	d027      	beq.n	8000a82 <usart_flush+0x6a>
		return USART_1;
	else if ( USARTx == USART2 )
 8000a32:	f244 4300 	movw	r3, #17408	; 0x4400
 8000a36:	f2c4 0300 	movt	r3, #16384	; 0x4000
 8000a3a:	429c      	cmp	r4, r3
 8000a3c:	bf08      	it	eq
 8000a3e:	4b77      	ldreq	r3, [pc, #476]	; (8000c1c <usart_flush+0x204>)
 8000a40:	d023      	beq.n	8000a8a <usart_flush+0x72>
		return USART_2;
	else if ( USARTx == USART3 )
 8000a42:	f644 0300 	movw	r3, #18432	; 0x4800
 8000a46:	f2c4 0300 	movt	r3, #16384	; 0x4000
 8000a4a:	429c      	cmp	r4, r3
 8000a4c:	bf08      	it	eq
 8000a4e:	4b74      	ldreq	r3, [pc, #464]	; (8000c20 <usart_flush+0x208>)
 8000a50:	d01b      	beq.n	8000a8a <usart_flush+0x72>
		return USART_3;
	else if ( USARTx == UART4 )
 8000a52:	f644 4300 	movw	r3, #19456	; 0x4c00
 8000a56:	f2c4 0300 	movt	r3, #16384	; 0x4000
 8000a5a:	429c      	cmp	r4, r3
 8000a5c:	bf08      	it	eq
 8000a5e:	4b71      	ldreq	r3, [pc, #452]	; (8000c24 <usart_flush+0x20c>)
 8000a60:	d013      	beq.n	8000a8a <usart_flush+0x72>
		return UART_4;
	else if ( USARTx == UART5 )
 8000a62:	f245 0300 	movw	r3, #20480	; 0x5000
 8000a66:	f2c4 0300 	movt	r3, #16384	; 0x4000
 8000a6a:	429c      	cmp	r4, r3
 8000a6c:	bf08      	it	eq
 8000a6e:	4b6e      	ldreq	r3, [pc, #440]	; (8000c28 <usart_flush+0x210>)
 8000a70:	d00b      	beq.n	8000a8a <usart_flush+0x72>
		return UART_5;
	else if ( USARTx == USART6 )
 8000a72:	f241 4300 	movw	r3, #5120	; 0x1400
 8000a76:	f2c4 0301 	movt	r3, #16385	; 0x4001
 8000a7a:	429c      	cmp	r4, r3
 8000a7c:	bf08      	it	eq
 8000a7e:	4b6b      	ldreq	r3, [pc, #428]	; (8000c2c <usart_flush+0x214>)
 8000a80:	d003      	beq.n	8000a8a <usart_flush+0x72>
 8000a82:	f640 1328 	movw	r3, #2344	; 0x928
 8000a86:	f2c2 0300 	movt	r3, #8192	; 0x2000
USARTRing rxring[3], txring[3];

void buffer_clear(USARTRing * r) {
	r->head = 0;
	r->tail = 0;
	r->count = 0;
 8000a8a:	f04f 0200 	mov.w	r2, #0
 8000a8e:	f8a3 2104 	strh.w	r2, [r3, #260]	; 0x104

//extern USARTRing rxring[3], txring[3];
USARTRing rxring[3], txring[3];

void buffer_clear(USARTRing * r) {
	r->head = 0;
 8000a92:	f8a3 2100 	strh.w	r2, [r3, #256]	; 0x100
	r->tail = 0;
 8000a96:	f8a3 2102 	strh.w	r2, [r3, #258]	; 0x102
}

void usart_flush(USART_TypeDef * USARTx) {
	USART_ITConfig(USARTx, USART_IT_RXNE, (FunctionalState) DISABLE); // enable the USART3 receive interrupt
	buffer_clear(&rxring[USART_id(USARTx)]);
	USART_ClearITPendingBit(USARTx, USART_IT_RXNE );
 8000a9a:	f240 5125 	movw	r1, #1317	; 0x525
 8000a9e:	4620      	mov	r0, r4
 8000aa0:	f002 fb7a 	bl	8003198 <USART_ClearITPendingBit>
	USART_ITConfig(USARTx, USART_IT_RXNE, (FunctionalState) ENABLE); // enable the USART3 receive interrupt
 8000aa4:	4620      	mov	r0, r4
 8000aa6:	f240 5125 	movw	r1, #1317	; 0x525
 8000aaa:	2201      	movs	r2, #1
 8000aac:	f002 fb24 	bl	80030f8 <USART_ITConfig>
	USART_ITConfig(USARTx, USART_IT_TXE, (FunctionalState) DISABLE);
 8000ab0:	4620      	mov	r0, r4
 8000ab2:	f240 7127 	movw	r1, #1831	; 0x727
 8000ab6:	2200      	movs	r2, #0
 8000ab8:	f002 fb1e 	bl	80030f8 <USART_ITConfig>
	r->tail %= USART_BUFFER_SIZE;
	return w;
}

uint8_t USART_id(USART_TypeDef * USARTx) {
	if ( USARTx == USART1 )
 8000abc:	f241 0500 	movw	r5, #4096	; 0x1000
		return USART_1;
	else if ( USARTx == USART2 )
 8000ac0:	f244 4600 	movw	r6, #17408	; 0x4400
		return USART_2;
	else if ( USARTx == USART3 )
 8000ac4:	f644 0700 	movw	r7, #18432	; 0x4800
	r->tail %= USART_BUFFER_SIZE;
	return w;
}

uint8_t USART_id(USART_TypeDef * USARTx) {
	if ( USARTx == USART1 )
 8000ac8:	f2c4 0501 	movt	r5, #16385	; 0x4001
		return USART_1;
	else if ( USARTx == USART2 )
 8000acc:	f2c4 0600 	movt	r6, #16384	; 0x4000
		return USART_2;
	else if ( USARTx == USART3 )
 8000ad0:	f2c4 0700 	movt	r7, #16384	; 0x4000
	r->tail %= USART_BUFFER_SIZE;
	return w;
}

uint8_t USART_id(USART_TypeDef * USARTx) {
	if ( USARTx == USART1 )
 8000ad4:	42ac      	cmp	r4, r5
 8000ad6:	d01f      	beq.n	8000b18 <usart_flush+0x100>
		return USART_1;
	else if ( USARTx == USART2 )
 8000ad8:	42b4      	cmp	r4, r6
 8000ada:	bf08      	it	eq
 8000adc:	4b54      	ldreq	r3, [pc, #336]	; (8000c30 <usart_flush+0x218>)
 8000ade:	d01f      	beq.n	8000b20 <usart_flush+0x108>
		return USART_2;
	else if ( USARTx == USART3 )
 8000ae0:	42bc      	cmp	r4, r7
 8000ae2:	bf08      	it	eq
 8000ae4:	4b53      	ldreq	r3, [pc, #332]	; (8000c34 <usart_flush+0x21c>)
 8000ae6:	d01b      	beq.n	8000b20 <usart_flush+0x108>
		return USART_3;
	else if ( USARTx == UART4 )
 8000ae8:	f644 4300 	movw	r3, #19456	; 0x4c00
 8000aec:	f2c4 0300 	movt	r3, #16384	; 0x4000
 8000af0:	429c      	cmp	r4, r3
 8000af2:	bf08      	it	eq
 8000af4:	4b50      	ldreq	r3, [pc, #320]	; (8000c38 <usart_flush+0x220>)
 8000af6:	d013      	beq.n	8000b20 <usart_flush+0x108>
		return UART_4;
	else if ( USARTx == UART5 )
 8000af8:	f245 0300 	movw	r3, #20480	; 0x5000
 8000afc:	f2c4 0300 	movt	r3, #16384	; 0x4000
 8000b00:	429c      	cmp	r4, r3
 8000b02:	bf08      	it	eq
 8000b04:	4b4d      	ldreq	r3, [pc, #308]	; (8000c3c <usart_flush+0x224>)
 8000b06:	d00b      	beq.n	8000b20 <usart_flush+0x108>
		return UART_5;
	else if ( USARTx == USART6 )
 8000b08:	f241 4300 	movw	r3, #5120	; 0x1400
 8000b0c:	f2c4 0301 	movt	r3, #16385	; 0x4001
 8000b10:	429c      	cmp	r4, r3
 8000b12:	bf08      	it	eq
 8000b14:	4b4a      	ldreq	r3, [pc, #296]	; (8000c40 <usart_flush+0x228>)
 8000b16:	d003      	beq.n	8000b20 <usart_flush+0x108>
 8000b18:	f240 6314 	movw	r3, #1556	; 0x614
 8000b1c:	f2c2 0300 	movt	r3, #8192	; 0x2000
	r->tail = 0;
	r->count = 0;
}

uint16_t buffer_count(USARTRing * r) {
	return r->count;
 8000b20:	f8b3 0104 	ldrh.w	r0, [r3, #260]	; 0x104
 8000b24:	2800      	cmp	r0, #0
 8000b26:	d038      	beq.n	8000b9a <usart_flush+0x182>
	buffer_clear(&rxring[USART_id(USARTx)]);
	USART_ClearITPendingBit(USARTx, USART_IT_RXNE );
	USART_ITConfig(USARTx, USART_IT_RXNE, (FunctionalState) ENABLE); // enable the USART3 receive interrupt
	USART_ITConfig(USARTx, USART_IT_TXE, (FunctionalState) DISABLE);
	while ( buffer_count(&txring[USART_id(USARTx)]) > 0 ) {
		while (USART_GetFlagStatus(USARTx, USART_FLAG_TXE ) == RESET);
 8000b28:	4620      	mov	r0, r4
 8000b2a:	2180      	movs	r1, #128	; 0x80
 8000b2c:	f002 fb00 	bl	8003130 <USART_GetFlagStatus>
 8000b30:	2800      	cmp	r0, #0
 8000b32:	d0f9      	beq.n	8000b28 <usart_flush+0x110>
	r->tail %= USART_BUFFER_SIZE;
	return w;
}

uint8_t USART_id(USART_TypeDef * USARTx) {
	if ( USARTx == USART1 )
 8000b34:	42ac      	cmp	r4, r5
 8000b36:	d01f      	beq.n	8000b78 <usart_flush+0x160>
		return USART_1;
	else if ( USARTx == USART2 )
 8000b38:	42b4      	cmp	r4, r6
 8000b3a:	bf08      	it	eq
 8000b3c:	483c      	ldreq	r0, [pc, #240]	; (8000c30 <usart_flush+0x218>)
 8000b3e:	d01f      	beq.n	8000b80 <usart_flush+0x168>
		return USART_2;
	else if ( USARTx == USART3 )
 8000b40:	42bc      	cmp	r4, r7
 8000b42:	bf08      	it	eq
 8000b44:	483b      	ldreq	r0, [pc, #236]	; (8000c34 <usart_flush+0x21c>)
 8000b46:	d01b      	beq.n	8000b80 <usart_flush+0x168>
		return USART_3;
	else if ( USARTx == UART4 )
 8000b48:	f644 4100 	movw	r1, #19456	; 0x4c00
 8000b4c:	f2c4 0100 	movt	r1, #16384	; 0x4000
 8000b50:	428c      	cmp	r4, r1
 8000b52:	bf08      	it	eq
 8000b54:	4838      	ldreq	r0, [pc, #224]	; (8000c38 <usart_flush+0x220>)
 8000b56:	d013      	beq.n	8000b80 <usart_flush+0x168>
		return UART_4;
	else if ( USARTx == UART5 )
 8000b58:	f245 0c00 	movw	ip, #20480	; 0x5000
 8000b5c:	f2c4 0c00 	movt	ip, #16384	; 0x4000
 8000b60:	4564      	cmp	r4, ip
 8000b62:	bf08      	it	eq
 8000b64:	4835      	ldreq	r0, [pc, #212]	; (8000c3c <usart_flush+0x224>)
 8000b66:	d00b      	beq.n	8000b80 <usart_flush+0x168>
		return UART_5;
	else if ( USARTx == USART6 )
 8000b68:	f241 4e00 	movw	lr, #5120	; 0x1400
 8000b6c:	f2c4 0e01 	movt	lr, #16385	; 0x4001
 8000b70:	4574      	cmp	r4, lr
 8000b72:	bf08      	it	eq
 8000b74:	4832      	ldreq	r0, [pc, #200]	; (8000c40 <usart_flush+0x228>)
 8000b76:	d003      	beq.n	8000b80 <usart_flush+0x168>
 8000b78:	f240 6014 	movw	r0, #1556	; 0x614
 8000b7c:	f2c2 0000 	movt	r0, #8192	; 0x2000
	USART_ClearITPendingBit(USARTx, USART_IT_RXNE );
	USART_ITConfig(USARTx, USART_IT_RXNE, (FunctionalState) ENABLE); // enable the USART3 receive interrupt
	USART_ITConfig(USARTx, USART_IT_TXE, (FunctionalState) DISABLE);
	while ( buffer_count(&txring[USART_id(USARTx)]) > 0 ) {
		while (USART_GetFlagStatus(USARTx, USART_FLAG_TXE ) == RESET);
		USART_SendData(USARTx, buffer_deque(&txring[USART_id(USARTx)]));
 8000b80:	f7ff fcdc 	bl	800053c <buffer_deque>
 8000b84:	4601      	mov	r1, r0
 8000b86:	4620      	mov	r0, r4
 8000b88:	f002 f9ee 	bl	8002f68 <USART_SendData>
		while (USART_GetFlagStatus(USARTx, USART_FLAG_TC ) == RESET);
 8000b8c:	4620      	mov	r0, r4
 8000b8e:	2140      	movs	r1, #64	; 0x40
 8000b90:	f002 face 	bl	8003130 <USART_GetFlagStatus>
 8000b94:	2800      	cmp	r0, #0
 8000b96:	d0f9      	beq.n	8000b8c <usart_flush+0x174>
 8000b98:	e79c      	b.n	8000ad4 <usart_flush+0xbc>
	}
	USART_ClearITPendingBit(USARTx, USART_IT_TXE );
 8000b9a:	4620      	mov	r0, r4
 8000b9c:	f240 7127 	movw	r1, #1831	; 0x727
 8000ba0:	f002 fafa 	bl	8003198 <USART_ClearITPendingBit>
	r->tail %= USART_BUFFER_SIZE;
	return w;
}

uint8_t USART_id(USART_TypeDef * USARTx) {
	if ( USARTx == USART1 )
 8000ba4:	f241 0300 	movw	r3, #4096	; 0x1000
 8000ba8:	f2c4 0301 	movt	r3, #16385	; 0x4001
 8000bac:	429c      	cmp	r4, r3
 8000bae:	d027      	beq.n	8000c00 <usart_flush+0x1e8>
		return USART_1;
	else if ( USARTx == USART2 )
 8000bb0:	f244 4300 	movw	r3, #17408	; 0x4400
 8000bb4:	f2c4 0300 	movt	r3, #16384	; 0x4000
 8000bb8:	429c      	cmp	r4, r3
 8000bba:	bf08      	it	eq
 8000bbc:	4b1c      	ldreq	r3, [pc, #112]	; (8000c30 <usart_flush+0x218>)
 8000bbe:	d023      	beq.n	8000c08 <usart_flush+0x1f0>
		return USART_2;
	else if ( USARTx == USART3 )
 8000bc0:	f644 0300 	movw	r3, #18432	; 0x4800
 8000bc4:	f2c4 0300 	movt	r3, #16384	; 0x4000
 8000bc8:	429c      	cmp	r4, r3
 8000bca:	bf08      	it	eq
 8000bcc:	4b19      	ldreq	r3, [pc, #100]	; (8000c34 <usart_flush+0x21c>)
 8000bce:	d01b      	beq.n	8000c08 <usart_flush+0x1f0>
		return USART_3;
	else if ( USARTx == UART4 )
 8000bd0:	f644 4300 	movw	r3, #19456	; 0x4c00
 8000bd4:	f2c4 0300 	movt	r3, #16384	; 0x4000
 8000bd8:	429c      	cmp	r4, r3
 8000bda:	bf08      	it	eq
 8000bdc:	4b16      	ldreq	r3, [pc, #88]	; (8000c38 <usart_flush+0x220>)
 8000bde:	d013      	beq.n	8000c08 <usart_flush+0x1f0>
		return UART_4;
	else if ( USARTx == UART5 )
 8000be0:	f245 0300 	movw	r3, #20480	; 0x5000
 8000be4:	f2c4 0300 	movt	r3, #16384	; 0x4000
 8000be8:	429c      	cmp	r4, r3
 8000bea:	bf08      	it	eq
 8000bec:	4b13      	ldreq	r3, [pc, #76]	; (8000c3c <usart_flush+0x224>)
 8000bee:	d00b      	beq.n	8000c08 <usart_flush+0x1f0>
		return UART_5;
	else if ( USARTx == USART6 )
 8000bf0:	f241 4300 	movw	r3, #5120	; 0x1400
 8000bf4:	f2c4 0301 	movt	r3, #16385	; 0x4001
 8000bf8:	429c      	cmp	r4, r3
 8000bfa:	bf08      	it	eq
 8000bfc:	4b10      	ldreq	r3, [pc, #64]	; (8000c40 <usart_flush+0x228>)
 8000bfe:	d003      	beq.n	8000c08 <usart_flush+0x1f0>
 8000c00:	f240 6314 	movw	r3, #1556	; 0x614
 8000c04:	f2c2 0300 	movt	r3, #8192	; 0x2000
USARTRing rxring[3], txring[3];

void buffer_clear(USARTRing * r) {
	r->head = 0;
	r->tail = 0;
	r->count = 0;
 8000c08:	f04f 0200 	mov.w	r2, #0
 8000c0c:	f8a3 2104 	strh.w	r2, [r3, #260]	; 0x104

//extern USARTRing rxring[3], txring[3];
USARTRing rxring[3], txring[3];

void buffer_clear(USARTRing * r) {
	r->head = 0;
 8000c10:	f8a3 2100 	strh.w	r2, [r3, #256]	; 0x100
	r->tail = 0;
 8000c14:	f8a3 2102 	strh.w	r2, [r3, #258]	; 0x102
		USART_SendData(USARTx, buffer_deque(&txring[USART_id(USARTx)]));
		while (USART_GetFlagStatus(USARTx, USART_FLAG_TC ) == RESET);
	}
	USART_ClearITPendingBit(USARTx, USART_IT_TXE );
	buffer_clear(&txring[USART_id(USARTx)]);
}
 8000c18:	bdf8      	pop	{r3, r4, r5, r6, r7, pc}
 8000c1a:	bf00      	nop
 8000c1c:	20000a2e 	.word	0x20000a2e
 8000c20:	20000b34 	.word	0x20000b34
 8000c24:	20000c3a 	.word	0x20000c3a
 8000c28:	20000d40 	.word	0x20000d40
 8000c2c:	20000e46 	.word	0x20000e46
 8000c30:	2000071a 	.word	0x2000071a
 8000c34:	20000820 	.word	0x20000820
 8000c38:	20000926 	.word	0x20000926
 8000c3c:	20000a2c 	.word	0x20000a2c
 8000c40:	20000b32 	.word	0x20000b32

08000c44 <usart_bare_write>:

	// finally this enables the complete USART3 peripheral
	USART_Cmd(USARTx, ENABLE);
}

void usart_bare_write(USART_TypeDef * USARTx, const uint16_t w) {
 8000c44:	b570      	push	{r4, r5, r6, lr}
 8000c46:	4604      	mov	r4, r0
 8000c48:	460d      	mov	r5, r1
	while (USART_GetFlagStatus(USARTx, USART_FLAG_TXE ) == RESET)
 8000c4a:	4620      	mov	r0, r4
 8000c4c:	2180      	movs	r1, #128	; 0x80
 8000c4e:	f002 fa6f 	bl	8003130 <USART_GetFlagStatus>
 8000c52:	2800      	cmp	r0, #0
 8000c54:	d0f9      	beq.n	8000c4a <usart_bare_write+0x6>
		;
	USART_SendData(USARTx, w);
 8000c56:	4620      	mov	r0, r4
 8000c58:	4629      	mov	r1, r5
//	while (USART_GetFlagStatus(USART3, USART_FLAG_TC ) == RESET);
}
 8000c5a:	e8bd 4070 	ldmia.w	sp!, {r4, r5, r6, lr}
}

void usart_bare_write(USART_TypeDef * USARTx, const uint16_t w) {
	while (USART_GetFlagStatus(USARTx, USART_FLAG_TXE ) == RESET)
		;
	USART_SendData(USARTx, w);
 8000c5e:	f002 b983 	b.w	8002f68 <USART_SendData>
 8000c62:	bf00      	nop

08000c64 <usart_begin>:
	else if ( USARTx == USART6 )
		return USART_6;
	return USART_1;
}

void usart_begin(USART_TypeDef * USARTx, GPIOPin rx, GPIOPin tx, const uint32_t baud) {
 8000c64:	e92d 4ff0 	stmdb	sp!, {r4, r5, r6, r7, r8, r9, sl, fp, lr}

	uint8_t portid = USART_1;
	uint8_t af = GPIO_AF_USART1;
	IRQn_Type irq = USART1_IRQn;

	if ( USARTx == USART1 ) {
 8000c68:	f241 0c00 	movw	ip, #4096	; 0x1000
 8000c6c:	f2c4 0c01 	movt	ip, #16385	; 0x4001
	else if ( USARTx == USART6 )
		return USART_6;
	return USART_1;
}

void usart_begin(USART_TypeDef * USARTx, GPIOPin rx, GPIOPin tx, const uint32_t baud) {
 8000c70:	b08b      	sub	sp, #44	; 0x2c

	uint8_t portid = USART_1;
	uint8_t af = GPIO_AF_USART1;
	IRQn_Type irq = USART1_IRQn;

	if ( USARTx == USART1 ) {
 8000c72:	4560      	cmp	r0, ip
	else if ( USARTx == USART6 )
		return USART_6;
	return USART_1;
}

void usart_begin(USART_TypeDef * USARTx, GPIOPin rx, GPIOPin tx, const uint32_t baud) {
 8000c74:	4605      	mov	r5, r0
 8000c76:	4688      	mov	r8, r1
 8000c78:	4692      	mov	sl, r2
 8000c7a:	9302      	str	r3, [sp, #8]

	uint8_t portid = USART_1;
	uint8_t af = GPIO_AF_USART1;
	IRQn_Type irq = USART1_IRQn;

	if ( USARTx == USART1 ) {
 8000c7c:	f000 80b0 	beq.w	8000de0 <usart_begin+0x17c>
		portid = USART_1;
		RCC_APB2PeriphClockCmd(RCC_APB2Periph_USART1, ENABLE);
		af = GPIO_AF_USART1;
		irq = USART1_IRQn;
	} else if ( USARTx == USART2 ) {
 8000c80:	f244 4300 	movw	r3, #17408	; 0x4400
 8000c84:	f2c4 0300 	movt	r3, #16384	; 0x4000
 8000c88:	4298      	cmp	r0, r3
 8000c8a:	f000 80ba 	beq.w	8000e02 <usart_begin+0x19e>
		portid = USART_2;
		RCC_APB1PeriphClockCmd(RCC_APB1Periph_USART2, ENABLE);
		af = GPIO_AF_USART2;
		irq = USART2_IRQn;
	} else if ( USARTx == USART3 ) {
 8000c8e:	f644 0100 	movw	r1, #18432	; 0x4800
 8000c92:	f2c4 0100 	movt	r1, #16384	; 0x4000
 8000c96:	4288      	cmp	r0, r1
 8000c98:	f000 80bf 	beq.w	8000e1a <usart_begin+0x1b6>
		portid = USART_3;
		RCC_APB1PeriphClockCmd(RCC_APB1Periph_USART3, ENABLE);
		af = GPIO_AF_USART3;
		irq = USART3_IRQn;
	} else if ( USARTx == UART4 ) {
 8000c9c:	f644 4600 	movw	r6, #19456	; 0x4c00
 8000ca0:	f2c4 0600 	movt	r6, #16384	; 0x4000
 8000ca4:	42b0      	cmp	r0, r6
 8000ca6:	f000 80c4 	beq.w	8000e32 <usart_begin+0x1ce>
		portid = UART_4;
		RCC_APB1PeriphClockCmd(RCC_APB1Periph_UART4, ENABLE);
		af = GPIO_AF_UART4;
		irq = UART4_IRQn;
	} else if ( USARTx == UART5 ) {
 8000caa:	f245 0700 	movw	r7, #20480	; 0x5000
 8000cae:	f2c4 0700 	movt	r7, #16384	; 0x4000
 8000cb2:	42b8      	cmp	r0, r7
 8000cb4:	f000 80c9 	beq.w	8000e4a <usart_begin+0x1e6>
		portid = UART_5;
		RCC_APB1PeriphClockCmd(RCC_APB1Periph_UART5, ENABLE);
		af = GPIO_AF_UART5;
		irq = UART5_IRQn;
	} else if ( USARTx == USART6 ) {
 8000cb8:	f241 4900 	movw	r9, #5120	; 0x1400
 8000cbc:	f2c4 0901 	movt	r9, #16385	; 0x4001
 8000cc0:	4548      	cmp	r0, r9
 8000cc2:	f000 8082 	beq.w	8000dca <usart_begin+0x166>
 8000cc6:	f240 6614 	movw	r6, #1556	; 0x614
 8000cca:	f640 1728 	movw	r7, #2344	; 0x928
 8000cce:	2025      	movs	r0, #37	; 0x25
 8000cd0:	f2c2 0600 	movt	r6, #8192	; 0x2000
 8000cd4:	f2c2 0700 	movt	r7, #8192	; 0x2000
 8000cd8:	9003      	str	r0, [sp, #12]
 8000cda:	f04f 0907 	mov.w	r9, #7
		portid = USART_6;
		RCC_APB2PeriphClockCmd(RCC_APB2Periph_USART6, ENABLE);
		af = GPIO_AF_USART6;
		irq = USART6_IRQn;
	}
	GPIOMode(pinPort(rx), pinBit(rx), GPIO_Mode_AF, GPIO_Speed_50MHz, GPIO_OType_PP, GPIO_PuPd_NOPULL);
 8000cde:	4640      	mov	r0, r8
 8000ce0:	f7ff faac 	bl	800023c <pinPort>
 8000ce4:	4604      	mov	r4, r0
 8000ce6:	4640      	mov	r0, r8
 8000ce8:	f7ff fab2 	bl	8000250 <pinBit>
 8000cec:	2202      	movs	r2, #2
 8000cee:	4601      	mov	r1, r0
 8000cf0:	4613      	mov	r3, r2
 8000cf2:	4620      	mov	r0, r4
 8000cf4:	2400      	movs	r4, #0
 8000cf6:	9400      	str	r4, [sp, #0]
 8000cf8:	9401      	str	r4, [sp, #4]
 8000cfa:	f7ff fab7 	bl	800026c <GPIOMode>
	GPIOMode(pinPort(tx), pinBit(tx), GPIO_Mode_AF, GPIO_Speed_50MHz, GPIO_OType_PP, GPIO_PuPd_NOPULL);
 8000cfe:	4650      	mov	r0, sl
 8000d00:	f7ff fa9c 	bl	800023c <pinPort>
 8000d04:	4683      	mov	fp, r0
 8000d06:	4650      	mov	r0, sl
 8000d08:	f7ff faa2 	bl	8000250 <pinBit>
 8000d0c:	2202      	movs	r2, #2
 8000d0e:	4613      	mov	r3, r2
 8000d10:	4601      	mov	r1, r0
 8000d12:	4658      	mov	r0, fp
 8000d14:	9400      	str	r4, [sp, #0]
 8000d16:	9401      	str	r4, [sp, #4]
 8000d18:	f7ff faa8 	bl	800026c <GPIOMode>

	GPIO_PinAFConfig(pinPort(rx), pinSource(rx), af );
 8000d1c:	4640      	mov	r0, r8
 8000d1e:	f7ff fa8d 	bl	800023c <pinPort>
 8000d22:	4683      	mov	fp, r0
 8000d24:	4640      	mov	r0, r8
 8000d26:	f7ff fa9b 	bl	8000260 <pinSource>
 8000d2a:	464a      	mov	r2, r9
 8000d2c:	4601      	mov	r1, r0
 8000d2e:	4658      	mov	r0, fp
 8000d30:	f000 fcec 	bl	800170c <GPIO_PinAFConfig>
	GPIO_PinAFConfig(pinPort(tx), pinSource(tx), af );
 8000d34:	4650      	mov	r0, sl
 8000d36:	f7ff fa81 	bl	800023c <pinPort>
 8000d3a:	4680      	mov	r8, r0
 8000d3c:	4650      	mov	r0, sl
 8000d3e:	f7ff fa8f 	bl	8000260 <pinSource>
 8000d42:	464a      	mov	r2, r9
 8000d44:	4601      	mov	r1, r0
 8000d46:	4640      	mov	r0, r8
 8000d48:	f000 fce0 	bl	800170c <GPIO_PinAFConfig>

	USART_InitStruct.USART_BaudRate = baud;	// the baudrate is set to the value we passed into this init function
 8000d4c:	9b02      	ldr	r3, [sp, #8]
	USART_InitStruct.USART_StopBits = USART_StopBits_1;	// we want 1 stop bit (standard)
	USART_InitStruct.USART_Parity = USART_Parity_No;// we don't want a parity bit (standard)
	USART_InitStruct.USART_HardwareFlowControl = USART_HardwareFlowControl_None; // we don't want flow control (standard)
	USART_InitStruct.USART_Mode = USART_Mode_Tx | USART_Mode_Rx; // we want to enable the transmitter and the receiver

	USART_Init(USARTx, &USART_InitStruct); // again all the properties are passed to the USART_Init function which takes care of all the bit setting
 8000d4e:	a905      	add	r1, sp, #20
 8000d50:	4628      	mov	r0, r5
	USART_InitStruct.USART_BaudRate = baud;	// the baudrate is set to the value we passed into this init function
	USART_InitStruct.USART_WordLength = USART_WordLength_8b;// we want the data frame size to be 8 bits (standard)
	USART_InitStruct.USART_StopBits = USART_StopBits_1;	// we want 1 stop bit (standard)
	USART_InitStruct.USART_Parity = USART_Parity_No;// we don't want a parity bit (standard)
	USART_InitStruct.USART_HardwareFlowControl = USART_HardwareFlowControl_None; // we don't want flow control (standard)
	USART_InitStruct.USART_Mode = USART_Mode_Tx | USART_Mode_Rx; // we want to enable the transmitter and the receiver
 8000d52:	f04f 080c 	mov.w	r8, #12
	GPIOMode(pinPort(tx), pinBit(tx), GPIO_Mode_AF, GPIO_Speed_50MHz, GPIO_OType_PP, GPIO_PuPd_NOPULL);

	GPIO_PinAFConfig(pinPort(rx), pinSource(rx), af );
	GPIO_PinAFConfig(pinPort(tx), pinSource(tx), af );

	USART_InitStruct.USART_BaudRate = baud;	// the baudrate is set to the value we passed into this init function
 8000d56:	9305      	str	r3, [sp, #20]
	USART_InitStruct.USART_WordLength = USART_WordLength_8b;// we want the data frame size to be 8 bits (standard)
	USART_InitStruct.USART_StopBits = USART_StopBits_1;	// we want 1 stop bit (standard)
	USART_InitStruct.USART_Parity = USART_Parity_No;// we don't want a parity bit (standard)
	USART_InitStruct.USART_HardwareFlowControl = USART_HardwareFlowControl_None; // we don't want flow control (standard)
	USART_InitStruct.USART_Mode = USART_Mode_Tx | USART_Mode_Rx; // we want to enable the transmitter and the receiver
 8000d58:	f8ad 801e 	strh.w	r8, [sp, #30]

	GPIO_PinAFConfig(pinPort(rx), pinSource(rx), af );
	GPIO_PinAFConfig(pinPort(tx), pinSource(tx), af );

	USART_InitStruct.USART_BaudRate = baud;	// the baudrate is set to the value we passed into this init function
	USART_InitStruct.USART_WordLength = USART_WordLength_8b;// we want the data frame size to be 8 bits (standard)
 8000d5c:	f8ad 4018 	strh.w	r4, [sp, #24]
	USART_InitStruct.USART_StopBits = USART_StopBits_1;	// we want 1 stop bit (standard)
 8000d60:	f8ad 401a 	strh.w	r4, [sp, #26]
	USART_InitStruct.USART_Parity = USART_Parity_No;// we don't want a parity bit (standard)
 8000d64:	f8ad 401c 	strh.w	r4, [sp, #28]
	USART_InitStruct.USART_HardwareFlowControl = USART_HardwareFlowControl_None; // we don't want flow control (standard)
 8000d68:	f8ad 4020 	strh.w	r4, [sp, #32]
	USART_InitStruct.USART_Mode = USART_Mode_Tx | USART_Mode_Rx; // we want to enable the transmitter and the receiver

	USART_Init(USARTx, &USART_InitStruct); // again all the properties are passed to the USART_Init function which takes care of all the bit setting
 8000d6c:	f002 fa1c 	bl	80031a8 <USART_Init>

	USART_ITConfig(USARTx, USART_IT_RXNE, (FunctionalState) ENABLE); // enable the USART3 receive interrupt
 8000d70:	4628      	mov	r0, r5
 8000d72:	2201      	movs	r2, #1
 8000d74:	f240 5125 	movw	r1, #1317	; 0x525
 8000d78:	f002 f9be 	bl	80030f8 <USART_ITConfig>
	USART_ITConfig(USARTx, USART_IT_TXE, (FunctionalState) DISABLE);
 8000d7c:	4628      	mov	r0, r5
 8000d7e:	f240 7127 	movw	r1, #1831	; 0x727
 8000d82:	4622      	mov	r2, r4
 8000d84:	f002 f9b8 	bl	80030f8 <USART_ITConfig>

	NVIC_InitStructure.NVIC_IRQChannel = irq;
 8000d88:	9a03      	ldr	r2, [sp, #12]
	// we want to configure the USART3 interrupts
	NVIC_InitStructure.NVIC_IRQChannelPreemptionPriority = 0; // this sets the priority group of the USART3 interrupts
	NVIC_InitStructure.NVIC_IRQChannelSubPriority = 0; // this sets the subpriority inside the group
	NVIC_InitStructure.NVIC_IRQChannelCmd = ENABLE;	// the USART3 interrupts are globally enabled
 8000d8a:	f04f 0801 	mov.w	r8, #1
	NVIC_Init(&NVIC_InitStructure);	// the properties are passed to the NVIC_Init function which takes care of the low level stuff
 8000d8e:	a809      	add	r0, sp, #36	; 0x24
	USART_Init(USARTx, &USART_InitStruct); // again all the properties are passed to the USART_Init function which takes care of all the bit setting

	USART_ITConfig(USARTx, USART_IT_RXNE, (FunctionalState) ENABLE); // enable the USART3 receive interrupt
	USART_ITConfig(USARTx, USART_IT_TXE, (FunctionalState) DISABLE);

	NVIC_InitStructure.NVIC_IRQChannel = irq;
 8000d90:	f88d 2024 	strb.w	r2, [sp, #36]	; 0x24
	// we want to configure the USART3 interrupts
	NVIC_InitStructure.NVIC_IRQChannelPreemptionPriority = 0; // this sets the priority group of the USART3 interrupts
	NVIC_InitStructure.NVIC_IRQChannelSubPriority = 0; // this sets the subpriority inside the group
 8000d94:	f88d 4026 	strb.w	r4, [sp, #38]	; 0x26
	USART_ITConfig(USARTx, USART_IT_RXNE, (FunctionalState) ENABLE); // enable the USART3 receive interrupt
	USART_ITConfig(USARTx, USART_IT_TXE, (FunctionalState) DISABLE);

	NVIC_InitStructure.NVIC_IRQChannel = irq;
	// we want to configure the USART3 interrupts
	NVIC_InitStructure.NVIC_IRQChannelPreemptionPriority = 0; // this sets the priority group of the USART3 interrupts
 8000d98:	f88d 4025 	strb.w	r4, [sp, #37]	; 0x25
	NVIC_InitStructure.NVIC_IRQChannelSubPriority = 0; // this sets the subpriority inside the group
	NVIC_InitStructure.NVIC_IRQChannelCmd = ENABLE;	// the USART3 interrupts are globally enabled
 8000d9c:	f88d 8027 	strb.w	r8, [sp, #39]	; 0x27
	NVIC_Init(&NVIC_InitStructure);	// the properties are passed to the NVIC_Init function which takes care of the low level stuff
 8000da0:	f000 f87e 	bl	8000ea0 <NVIC_Init>
USARTRing rxring[3], txring[3];

void buffer_clear(USARTRing * r) {
	r->head = 0;
	r->tail = 0;
	r->count = 0;
 8000da4:	f8a6 4104 	strh.w	r4, [r6, #260]	; 0x104

//extern USARTRing rxring[3], txring[3];
USARTRing rxring[3], txring[3];

void buffer_clear(USARTRing * r) {
	r->head = 0;
 8000da8:	f8a7 4100 	strh.w	r4, [r7, #256]	; 0x100
	r->tail = 0;
 8000dac:	f8a7 4102 	strh.w	r4, [r7, #258]	; 0x102

	buffer_clear(&rxring[portid]);
	buffer_clear(&txring[portid]);

	// finally this enables the complete USART3 peripheral
	USART_Cmd(USARTx, ENABLE);
 8000db0:	4628      	mov	r0, r5
 8000db2:	4641      	mov	r1, r8
USARTRing rxring[3], txring[3];

void buffer_clear(USARTRing * r) {
	r->head = 0;
	r->tail = 0;
	r->count = 0;
 8000db4:	f8a7 4104 	strh.w	r4, [r7, #260]	; 0x104

//extern USARTRing rxring[3], txring[3];
USARTRing rxring[3], txring[3];

void buffer_clear(USARTRing * r) {
	r->head = 0;
 8000db8:	f8a6 4100 	strh.w	r4, [r6, #256]	; 0x100
	r->tail = 0;
 8000dbc:	f8a6 4102 	strh.w	r4, [r6, #258]	; 0x102

	buffer_clear(&rxring[portid]);
	buffer_clear(&txring[portid]);

	// finally this enables the complete USART3 peripheral
	USART_Cmd(USARTx, ENABLE);
 8000dc0:	f002 f89a 	bl	8002ef8 <USART_Cmd>
}
 8000dc4:	b00b      	add	sp, #44	; 0x2c
 8000dc6:	e8bd 8ff0 	ldmia.w	sp!, {r4, r5, r6, r7, r8, r9, sl, fp, pc}
		RCC_APB1PeriphClockCmd(RCC_APB1Periph_UART5, ENABLE);
		af = GPIO_AF_UART5;
		irq = UART5_IRQn;
	} else if ( USARTx == USART6 ) {
		portid = USART_6;
		RCC_APB2PeriphClockCmd(RCC_APB2Periph_USART6, ENABLE);
 8000dca:	2101      	movs	r1, #1
 8000dcc:	2020      	movs	r0, #32
 8000dce:	f000 ff01 	bl	8001bd4 <RCC_APB2PeriphClockCmd>
 8000dd2:	2147      	movs	r1, #71	; 0x47
 8000dd4:	4f23      	ldr	r7, [pc, #140]	; (8000e64 <usart_begin+0x200>)
 8000dd6:	4e24      	ldr	r6, [pc, #144]	; (8000e68 <usart_begin+0x204>)
 8000dd8:	9103      	str	r1, [sp, #12]
 8000dda:	f04f 0908 	mov.w	r9, #8
 8000dde:	e77e      	b.n	8000cde <usart_begin+0x7a>
	uint8_t af = GPIO_AF_USART1;
	IRQn_Type irq = USART1_IRQn;

	if ( USARTx == USART1 ) {
		portid = USART_1;
		RCC_APB2PeriphClockCmd(RCC_APB2Periph_USART1, ENABLE);
 8000de0:	2010      	movs	r0, #16
 8000de2:	2101      	movs	r1, #1
 8000de4:	f000 fef6 	bl	8001bd4 <RCC_APB2PeriphClockCmd>
 8000de8:	f240 6614 	movw	r6, #1556	; 0x614
 8000dec:	f640 1728 	movw	r7, #2344	; 0x928
 8000df0:	2225      	movs	r2, #37	; 0x25
 8000df2:	f2c2 0600 	movt	r6, #8192	; 0x2000
 8000df6:	f2c2 0700 	movt	r7, #8192	; 0x2000
 8000dfa:	9203      	str	r2, [sp, #12]
 8000dfc:	f04f 0907 	mov.w	r9, #7
 8000e00:	e76d      	b.n	8000cde <usart_begin+0x7a>
		af = GPIO_AF_USART1;
		irq = USART1_IRQn;
	} else if ( USARTx == USART2 ) {
		portid = USART_2;
		RCC_APB1PeriphClockCmd(RCC_APB1Periph_USART2, ENABLE);
 8000e02:	f44f 3000 	mov.w	r0, #131072	; 0x20000
 8000e06:	2101      	movs	r1, #1
 8000e08:	f000 fed2 	bl	8001bb0 <RCC_APB1PeriphClockCmd>
 8000e0c:	2026      	movs	r0, #38	; 0x26
 8000e0e:	4e17      	ldr	r6, [pc, #92]	; (8000e6c <usart_begin+0x208>)
 8000e10:	4f17      	ldr	r7, [pc, #92]	; (8000e70 <usart_begin+0x20c>)
 8000e12:	9003      	str	r0, [sp, #12]
 8000e14:	f04f 0907 	mov.w	r9, #7
 8000e18:	e761      	b.n	8000cde <usart_begin+0x7a>
		af = GPIO_AF_USART2;
		irq = USART2_IRQn;
	} else if ( USARTx == USART3 ) {
		portid = USART_3;
		RCC_APB1PeriphClockCmd(RCC_APB1Periph_USART3, ENABLE);
 8000e1a:	f44f 2080 	mov.w	r0, #262144	; 0x40000
 8000e1e:	2101      	movs	r1, #1
 8000e20:	2427      	movs	r4, #39	; 0x27
 8000e22:	f000 fec5 	bl	8001bb0 <RCC_APB1PeriphClockCmd>
 8000e26:	4e13      	ldr	r6, [pc, #76]	; (8000e74 <usart_begin+0x210>)
 8000e28:	4f13      	ldr	r7, [pc, #76]	; (8000e78 <usart_begin+0x214>)
 8000e2a:	9403      	str	r4, [sp, #12]
 8000e2c:	f04f 0907 	mov.w	r9, #7
 8000e30:	e755      	b.n	8000cde <usart_begin+0x7a>
		af = GPIO_AF_USART3;
		irq = USART3_IRQn;
	} else if ( USARTx == UART4 ) {
		portid = UART_4;
		RCC_APB1PeriphClockCmd(RCC_APB1Periph_UART4, ENABLE);
 8000e32:	f44f 2000 	mov.w	r0, #524288	; 0x80000
 8000e36:	2101      	movs	r1, #1
 8000e38:	f000 feba 	bl	8001bb0 <RCC_APB1PeriphClockCmd>
 8000e3c:	2234      	movs	r2, #52	; 0x34
 8000e3e:	4f0f      	ldr	r7, [pc, #60]	; (8000e7c <usart_begin+0x218>)
 8000e40:	4e0f      	ldr	r6, [pc, #60]	; (8000e80 <usart_begin+0x21c>)
 8000e42:	9203      	str	r2, [sp, #12]
 8000e44:	f04f 0908 	mov.w	r9, #8
 8000e48:	e749      	b.n	8000cde <usart_begin+0x7a>
		af = GPIO_AF_UART4;
		irq = UART4_IRQn;
	} else if ( USARTx == UART5 ) {
		portid = UART_5;
		RCC_APB1PeriphClockCmd(RCC_APB1Periph_UART5, ENABLE);
 8000e4a:	f44f 1080 	mov.w	r0, #1048576	; 0x100000
 8000e4e:	2101      	movs	r1, #1
 8000e50:	f000 feae 	bl	8001bb0 <RCC_APB1PeriphClockCmd>
 8000e54:	2335      	movs	r3, #53	; 0x35
 8000e56:	4f0b      	ldr	r7, [pc, #44]	; (8000e84 <usart_begin+0x220>)
 8000e58:	4e0b      	ldr	r6, [pc, #44]	; (8000e88 <usart_begin+0x224>)
 8000e5a:	9303      	str	r3, [sp, #12]
 8000e5c:	f04f 0908 	mov.w	r9, #8
 8000e60:	e73d      	b.n	8000cde <usart_begin+0x7a>
 8000e62:	bf00      	nop
 8000e64:	20000e46 	.word	0x20000e46
 8000e68:	20000b32 	.word	0x20000b32
 8000e6c:	2000071a 	.word	0x2000071a
 8000e70:	20000a2e 	.word	0x20000a2e
 8000e74:	20000820 	.word	0x20000820
 8000e78:	20000b34 	.word	0x20000b34
 8000e7c:	20000c3a 	.word	0x20000c3a
 8000e80:	20000926 	.word	0x20000926
 8000e84:	20000d40 	.word	0x20000d40
 8000e88:	20000a2c 	.word	0x20000a2c

08000e8c <NVIC_PriorityGroupConfig>:
{
  /* Check the parameters */
  assert_param(IS_NVIC_PRIORITY_GROUP(NVIC_PriorityGroup));
  
  /* Set the PRIGROUP[10:8] bits according to NVIC_PriorityGroup value */
  SCB->AIRCR = AIRCR_VECTKEY_MASK | NVIC_PriorityGroup;
 8000e8c:	f040 61be 	orr.w	r1, r0, #99614720	; 0x5f00000
 8000e90:	f64e 5300 	movw	r3, #60672	; 0xed00
 8000e94:	f441 2020 	orr.w	r0, r1, #655360	; 0xa0000
 8000e98:	f2ce 0300 	movt	r3, #57344	; 0xe000
 8000e9c:	60d8      	str	r0, [r3, #12]
}
 8000e9e:	4770      	bx	lr

08000ea0 <NVIC_Init>:
  /* Check the parameters */
  assert_param(IS_FUNCTIONAL_STATE(NVIC_InitStruct->NVIC_IRQChannelCmd));
  assert_param(IS_NVIC_PREEMPTION_PRIORITY(NVIC_InitStruct->NVIC_IRQChannelPreemptionPriority));  
  assert_param(IS_NVIC_SUB_PRIORITY(NVIC_InitStruct->NVIC_IRQChannelSubPriority));
    
  if (NVIC_InitStruct->NVIC_IRQChannelCmd != DISABLE)
 8000ea0:	78c3      	ldrb	r3, [r0, #3]
  * @param  NVIC_InitStruct: pointer to a NVIC_InitTypeDef structure that contains
  *         the configuration information for the specified NVIC peripheral.
  * @retval None
  */
void NVIC_Init(NVIC_InitTypeDef* NVIC_InitStruct)
{
 8000ea2:	b410      	push	{r4}
  /* Check the parameters */
  assert_param(IS_FUNCTIONAL_STATE(NVIC_InitStruct->NVIC_IRQChannelCmd));
  assert_param(IS_NVIC_PREEMPTION_PRIORITY(NVIC_InitStruct->NVIC_IRQChannelPreemptionPriority));  
  assert_param(IS_NVIC_SUB_PRIORITY(NVIC_InitStruct->NVIC_IRQChannelSubPriority));
    
  if (NVIC_InitStruct->NVIC_IRQChannelCmd != DISABLE)
 8000ea4:	b97b      	cbnz	r3, 8000ec6 <NVIC_Init+0x26>
      (uint32_t)0x01 << (NVIC_InitStruct->NVIC_IRQChannel & (uint8_t)0x1F);
  }
  else
  {
    /* Disable the Selected IRQ Channels -------------------------------------*/
    NVIC->ICER[NVIC_InitStruct->NVIC_IRQChannel >> 0x05] =
 8000ea6:	7803      	ldrb	r3, [r0, #0]
      (uint32_t)0x01 << (NVIC_InitStruct->NVIC_IRQChannel & (uint8_t)0x1F);
 8000ea8:	2101      	movs	r1, #1
 8000eaa:	f003 021f 	and.w	r2, r3, #31
 8000eae:	fa11 f002 	lsls.w	r0, r1, r2
      (uint32_t)0x01 << (NVIC_InitStruct->NVIC_IRQChannel & (uint8_t)0x1F);
  }
  else
  {
    /* Disable the Selected IRQ Channels -------------------------------------*/
    NVIC->ICER[NVIC_InitStruct->NVIC_IRQChannel >> 0x05] =
 8000eb2:	095a      	lsrs	r2, r3, #5
 8000eb4:	f24e 1300 	movw	r3, #57600	; 0xe100
 8000eb8:	f2ce 0300 	movt	r3, #57344	; 0xe000
 8000ebc:	3220      	adds	r2, #32
 8000ebe:	f843 0022 	str.w	r0, [r3, r2, lsl #2]
      (uint32_t)0x01 << (NVIC_InitStruct->NVIC_IRQChannel & (uint8_t)0x1F);
  }
}
 8000ec2:	bc10      	pop	{r4}
 8000ec4:	4770      	bx	lr
  assert_param(IS_NVIC_SUB_PRIORITY(NVIC_InitStruct->NVIC_IRQChannelSubPriority));
    
  if (NVIC_InitStruct->NVIC_IRQChannelCmd != DISABLE)
  {
    /* Compute the Corresponding IRQ Priority --------------------------------*/    
    tmppriority = (0x700 - ((SCB->AIRCR) & (uint32_t)0x700))>> 0x08;
 8000ec6:	f64e 5200 	movw	r2, #60672	; 0xed00
 8000eca:	f2ce 0200 	movt	r2, #57344	; 0xe000
 8000ece:	68d1      	ldr	r1, [r2, #12]
    tmppre = (0x4 - tmppriority);
    tmpsub = tmpsub >> tmppriority;

    tmppriority = NVIC_InitStruct->NVIC_IRQChannelPreemptionPriority << tmppre;
 8000ed0:	7844      	ldrb	r4, [r0, #1]
  assert_param(IS_NVIC_SUB_PRIORITY(NVIC_InitStruct->NVIC_IRQChannelSubPriority));
    
  if (NVIC_InitStruct->NVIC_IRQChannelCmd != DISABLE)
  {
    /* Compute the Corresponding IRQ Priority --------------------------------*/    
    tmppriority = (0x700 - ((SCB->AIRCR) & (uint32_t)0x700))>> 0x08;
 8000ed2:	43cb      	mvns	r3, r1
 8000ed4:	f3c3 2302 	ubfx	r3, r3, #8, #3
    tmppre = (0x4 - tmppriority);
    tmpsub = tmpsub >> tmppriority;

    tmppriority = NVIC_InitStruct->NVIC_IRQChannelPreemptionPriority << tmppre;
 8000ed8:	f1c3 0c04 	rsb	ip, r3, #4
 8000edc:	fa5f f28c 	uxtb.w	r2, ip
    tmppriority |=  (uint8_t)(NVIC_InitStruct->NVIC_IRQChannelSubPriority & tmpsub);
 8000ee0:	210f      	movs	r1, #15
 8000ee2:	fa51 f303 	asrs.w	r3, r1, r3
    /* Compute the Corresponding IRQ Priority --------------------------------*/    
    tmppriority = (0x700 - ((SCB->AIRCR) & (uint32_t)0x700))>> 0x08;
    tmppre = (0x4 - tmppriority);
    tmpsub = tmpsub >> tmppriority;

    tmppriority = NVIC_InitStruct->NVIC_IRQChannelPreemptionPriority << tmppre;
 8000ee6:	fa14 f202 	lsls.w	r2, r4, r2
    tmppriority |=  (uint8_t)(NVIC_InitStruct->NVIC_IRQChannelSubPriority & tmpsub);
        
    tmppriority = tmppriority << 0x04;
        
    NVIC->IP[NVIC_InitStruct->NVIC_IRQChannel] = tmppriority;
 8000eea:	7801      	ldrb	r1, [r0, #0]
    
    /* Enable the Selected IRQ Channels --------------------------------------*/
    NVIC->ISER[NVIC_InitStruct->NVIC_IRQChannel >> 0x05] =
      (uint32_t)0x01 << (NVIC_InitStruct->NVIC_IRQChannel & (uint8_t)0x1F);
 8000eec:	2401      	movs	r4, #1
 8000eee:	f001 0c1f 	and.w	ip, r1, #31
 8000ef2:	fa04 f40c 	lsl.w	r4, r4, ip
    tmppriority = (0x700 - ((SCB->AIRCR) & (uint32_t)0x700))>> 0x08;
    tmppre = (0x4 - tmppriority);
    tmpsub = tmpsub >> tmppriority;

    tmppriority = NVIC_InitStruct->NVIC_IRQChannelPreemptionPriority << tmppre;
    tmppriority |=  (uint8_t)(NVIC_InitStruct->NVIC_IRQChannelSubPriority & tmpsub);
 8000ef6:	f890 c002 	ldrb.w	ip, [r0, #2]
    /* Compute the Corresponding IRQ Priority --------------------------------*/    
    tmppriority = (0x700 - ((SCB->AIRCR) & (uint32_t)0x700))>> 0x08;
    tmppre = (0x4 - tmppriority);
    tmpsub = tmpsub >> tmppriority;

    tmppriority = NVIC_InitStruct->NVIC_IRQChannelPreemptionPriority << tmppre;
 8000efa:	b2d2      	uxtb	r2, r2
    tmppriority |=  (uint8_t)(NVIC_InitStruct->NVIC_IRQChannelSubPriority & tmpsub);
 8000efc:	ea03 000c 	and.w	r0, r3, ip
 8000f00:	4310      	orrs	r0, r2
        
    tmppriority = tmppriority << 0x04;
        
    NVIC->IP[NVIC_InitStruct->NVIC_IRQChannel] = tmppriority;
 8000f02:	f24e 1300 	movw	r3, #57600	; 0xe100
    tmpsub = tmpsub >> tmppriority;

    tmppriority = NVIC_InitStruct->NVIC_IRQChannelPreemptionPriority << tmppre;
    tmppriority |=  (uint8_t)(NVIC_InitStruct->NVIC_IRQChannelSubPriority & tmpsub);
        
    tmppriority = tmppriority << 0x04;
 8000f06:	0102      	lsls	r2, r0, #4
        
    NVIC->IP[NVIC_InitStruct->NVIC_IRQChannel] = tmppriority;
 8000f08:	f2ce 0300 	movt	r3, #57344	; 0xe000
    tmpsub = tmpsub >> tmppriority;

    tmppriority = NVIC_InitStruct->NVIC_IRQChannelPreemptionPriority << tmppre;
    tmppriority |=  (uint8_t)(NVIC_InitStruct->NVIC_IRQChannelSubPriority & tmpsub);
        
    tmppriority = tmppriority << 0x04;
 8000f0c:	b2d0      	uxtb	r0, r2
        
    NVIC->IP[NVIC_InitStruct->NVIC_IRQChannel] = tmppriority;
 8000f0e:	461a      	mov	r2, r3
 8000f10:	18cb      	adds	r3, r1, r3
    
    /* Enable the Selected IRQ Channels --------------------------------------*/
    NVIC->ISER[NVIC_InitStruct->NVIC_IRQChannel >> 0x05] =
 8000f12:	0949      	lsrs	r1, r1, #5
    tmppriority = NVIC_InitStruct->NVIC_IRQChannelPreemptionPriority << tmppre;
    tmppriority |=  (uint8_t)(NVIC_InitStruct->NVIC_IRQChannelSubPriority & tmpsub);
        
    tmppriority = tmppriority << 0x04;
        
    NVIC->IP[NVIC_InitStruct->NVIC_IRQChannel] = tmppriority;
 8000f14:	f883 0300 	strb.w	r0, [r3, #768]	; 0x300
    
    /* Enable the Selected IRQ Channels --------------------------------------*/
    NVIC->ISER[NVIC_InitStruct->NVIC_IRQChannel >> 0x05] =
 8000f18:	f842 4021 	str.w	r4, [r2, r1, lsl #2]
 8000f1c:	e7d1      	b.n	8000ec2 <NVIC_Init+0x22>
 8000f1e:	bf00      	nop

08000f20 <NVIC_SetVectorTable>:
{ 
  /* Check the parameters */
  assert_param(IS_NVIC_VECTTAB(NVIC_VectTab));
  assert_param(IS_NVIC_OFFSET(Offset));  
   
  SCB->VTOR = NVIC_VectTab | (Offset & (uint32_t)0x1FFFFF80);
 8000f20:	f021 4260 	bic.w	r2, r1, #3758096384	; 0xe0000000
 8000f24:	f022 017f 	bic.w	r1, r2, #127	; 0x7f
 8000f28:	f64e 5300 	movw	r3, #60672	; 0xed00
 8000f2c:	4301      	orrs	r1, r0
 8000f2e:	f2ce 0300 	movt	r3, #57344	; 0xe000
 8000f32:	6099      	str	r1, [r3, #8]
}
 8000f34:	4770      	bx	lr
 8000f36:	bf00      	nop

08000f38 <NVIC_SystemLPConfig>:
{
  /* Check the parameters */
  assert_param(IS_NVIC_LP(LowPowerMode));
  assert_param(IS_FUNCTIONAL_STATE(NewState));  
  
  if (NewState != DISABLE)
 8000f38:	b941      	cbnz	r1, 8000f4c <NVIC_SystemLPConfig+0x14>
  {
    SCB->SCR |= LowPowerMode;
  }
  else
  {
    SCB->SCR &= (uint32_t)(~(uint32_t)LowPowerMode);
 8000f3a:	f64e 5100 	movw	r1, #60672	; 0xed00
 8000f3e:	f2ce 0100 	movt	r1, #57344	; 0xe000
 8000f42:	690b      	ldr	r3, [r1, #16]
 8000f44:	ea23 0000 	bic.w	r0, r3, r0
 8000f48:	6108      	str	r0, [r1, #16]
 8000f4a:	4770      	bx	lr
  assert_param(IS_NVIC_LP(LowPowerMode));
  assert_param(IS_FUNCTIONAL_STATE(NewState));  
  
  if (NewState != DISABLE)
  {
    SCB->SCR |= LowPowerMode;
 8000f4c:	f64e 5300 	movw	r3, #60672	; 0xed00
 8000f50:	f2ce 0300 	movt	r3, #57344	; 0xe000
 8000f54:	691a      	ldr	r2, [r3, #16]
 8000f56:	4310      	orrs	r0, r2
 8000f58:	6118      	str	r0, [r3, #16]
 8000f5a:	4770      	bx	lr

08000f5c <SysTick_CLKSourceConfig>:
{
  /* Check the parameters */
  assert_param(IS_SYSTICK_CLK_SOURCE(SysTick_CLKSource));
  if (SysTick_CLKSource == SysTick_CLKSource_HCLK)
  {
    SysTick->CTRL |= SysTick_CLKSource_HCLK;
 8000f5c:	f24e 0310 	movw	r3, #57360	; 0xe010
 8000f60:	f2ce 0300 	movt	r3, #57344	; 0xe000
 8000f64:	681a      	ldr	r2, [r3, #0]
  */
void SysTick_CLKSourceConfig(uint32_t SysTick_CLKSource)
{
  /* Check the parameters */
  assert_param(IS_SYSTICK_CLK_SOURCE(SysTick_CLKSource));
  if (SysTick_CLKSource == SysTick_CLKSource_HCLK)
 8000f66:	2804      	cmp	r0, #4
  {
    SysTick->CTRL |= SysTick_CLKSource_HCLK;
 8000f68:	bf0c      	ite	eq
 8000f6a:	f042 0204 	orreq.w	r2, r2, #4
  }
  else
  {
    SysTick->CTRL &= SysTick_CLKSource_HCLK_Div8;
 8000f6e:	f022 0204 	bicne.w	r2, r2, #4
 8000f72:	601a      	str	r2, [r3, #0]
 8000f74:	4770      	bx	lr
 8000f76:	bf00      	nop

08000f78 <GPIO_Init>:
  * @param  GPIO_InitStruct: pointer to a GPIO_InitTypeDef structure that contains
  *         the configuration information for the specified GPIO peripheral.
  * @retval None
  */
void GPIO_Init(GPIO_TypeDef* GPIOx, GPIO_InitTypeDef* GPIO_InitStruct)
{
 8000f78:	680b      	ldr	r3, [r1, #0]
 8000f7a:	b410      	push	{r4}
  {
    pos = ((uint32_t)0x01) << pinpos;
    /* Get the port pins position */
    currentpin = (GPIO_InitStruct->GPIO_Pin) & pos;

    if (currentpin == pos)
 8000f7c:	f013 0f01 	tst.w	r3, #1
 8000f80:	d13b      	bne.n	8000ffa <GPIO_Init+0x82>
 8000f82:	f013 0f02 	tst.w	r3, #2
 8000f86:	d156      	bne.n	8001036 <GPIO_Init+0xbe>
 8000f88:	f013 0f04 	tst.w	r3, #4
 8000f8c:	d171      	bne.n	8001072 <GPIO_Init+0xfa>
 8000f8e:	f013 0f08 	tst.w	r3, #8
 8000f92:	f040 808d 	bne.w	80010b0 <GPIO_Init+0x138>
 8000f96:	f013 0f10 	tst.w	r3, #16
 8000f9a:	f040 80a8 	bne.w	80010ee <GPIO_Init+0x176>
 8000f9e:	f013 0f20 	tst.w	r3, #32
 8000fa2:	f040 80c3 	bne.w	800112c <GPIO_Init+0x1b4>
 8000fa6:	f013 0f40 	tst.w	r3, #64	; 0x40
 8000faa:	f040 80de 	bne.w	800116a <GPIO_Init+0x1f2>
 8000fae:	f013 0f80 	tst.w	r3, #128	; 0x80
 8000fb2:	f040 80f9 	bne.w	80011a8 <GPIO_Init+0x230>
 8000fb6:	f413 7f80 	tst.w	r3, #256	; 0x100
 8000fba:	f040 8114 	bne.w	80011e6 <GPIO_Init+0x26e>
 8000fbe:	f413 7f00 	tst.w	r3, #512	; 0x200
 8000fc2:	f040 812f 	bne.w	8001224 <GPIO_Init+0x2ac>
 8000fc6:	f413 6f80 	tst.w	r3, #1024	; 0x400
 8000fca:	f040 814a 	bne.w	8001262 <GPIO_Init+0x2ea>
 8000fce:	f413 6f00 	tst.w	r3, #2048	; 0x800
 8000fd2:	f040 8165 	bne.w	80012a0 <GPIO_Init+0x328>
 8000fd6:	f413 5f80 	tst.w	r3, #4096	; 0x1000
 8000fda:	f040 8180 	bne.w	80012de <GPIO_Init+0x366>
 8000fde:	f413 5f00 	tst.w	r3, #8192	; 0x2000
 8000fe2:	f040 819b 	bne.w	800131c <GPIO_Init+0x3a4>
 8000fe6:	f413 4f80 	tst.w	r3, #16384	; 0x4000
 8000fea:	f040 81b6 	bne.w	800135a <GPIO_Init+0x3e2>
 8000fee:	f413 4f00 	tst.w	r3, #32768	; 0x8000
 8000ff2:	f040 81d1 	bne.w	8001398 <GPIO_Init+0x420>
      /* Pull-up Pull down resistor configuration*/
      GPIOx->PUPDR &= ~(GPIO_PUPDR_PUPDR0 << ((uint16_t)pinpos * 2));
      GPIOx->PUPDR |= (((uint32_t)GPIO_InitStruct->GPIO_PuPd) << (pinpos * 2));
    }
  }
}
 8000ff6:	bc10      	pop	{r4}
 8000ff8:	4770      	bx	lr
    /* Get the port pins position */
    currentpin = (GPIO_InitStruct->GPIO_Pin) & pos;

    if (currentpin == pos)
    {
      GPIOx->MODER  &= ~(GPIO_MODER_MODER0 << (pinpos * 2));
 8000ffa:	6804      	ldr	r4, [r0, #0]
      GPIOx->MODER |= (((uint32_t)GPIO_InitStruct->GPIO_Mode) << (pinpos * 2));
 8000ffc:	790a      	ldrb	r2, [r1, #4]
    /* Get the port pins position */
    currentpin = (GPIO_InitStruct->GPIO_Pin) & pos;

    if (currentpin == pos)
    {
      GPIOx->MODER  &= ~(GPIO_MODER_MODER0 << (pinpos * 2));
 8000ffe:	f024 0403 	bic.w	r4, r4, #3
 8001002:	6004      	str	r4, [r0, #0]
      GPIOx->MODER |= (((uint32_t)GPIO_InitStruct->GPIO_Mode) << (pinpos * 2));
 8001004:	6804      	ldr	r4, [r0, #0]

      if ((GPIO_InitStruct->GPIO_Mode == GPIO_Mode_OUT) || (GPIO_InitStruct->GPIO_Mode == GPIO_Mode_AF))
 8001006:	f102 3cff 	add.w	ip, r2, #4294967295
 800100a:	fa5f fc8c 	uxtb.w	ip, ip
    currentpin = (GPIO_InitStruct->GPIO_Pin) & pos;

    if (currentpin == pos)
    {
      GPIOx->MODER  &= ~(GPIO_MODER_MODER0 << (pinpos * 2));
      GPIOx->MODER |= (((uint32_t)GPIO_InitStruct->GPIO_Mode) << (pinpos * 2));
 800100e:	ea44 0202 	orr.w	r2, r4, r2

      if ((GPIO_InitStruct->GPIO_Mode == GPIO_Mode_OUT) || (GPIO_InitStruct->GPIO_Mode == GPIO_Mode_AF))
 8001012:	f1bc 0f01 	cmp.w	ip, #1
    currentpin = (GPIO_InitStruct->GPIO_Pin) & pos;

    if (currentpin == pos)
    {
      GPIOx->MODER  &= ~(GPIO_MODER_MODER0 << (pinpos * 2));
      GPIOx->MODER |= (((uint32_t)GPIO_InitStruct->GPIO_Mode) << (pinpos * 2));
 8001016:	6002      	str	r2, [r0, #0]

      if ((GPIO_InitStruct->GPIO_Mode == GPIO_Mode_OUT) || (GPIO_InitStruct->GPIO_Mode == GPIO_Mode_AF))
 8001018:	f240 81d9 	bls.w	80013ce <GPIO_Init+0x456>
        GPIOx->OTYPER  &= ~((GPIO_OTYPER_OT_0) << ((uint16_t)pinpos)) ;
        GPIOx->OTYPER |= (uint16_t)(((uint16_t)GPIO_InitStruct->GPIO_OType) << ((uint16_t)pinpos));
      }

      /* Pull-up Pull down resistor configuration*/
      GPIOx->PUPDR &= ~(GPIO_PUPDR_PUPDR0 << ((uint16_t)pinpos * 2));
 800101c:	68c2      	ldr	r2, [r0, #12]
      GPIOx->PUPDR |= (((uint32_t)GPIO_InitStruct->GPIO_PuPd) << (pinpos * 2));
 800101e:	f891 c007 	ldrb.w	ip, [r1, #7]
        GPIOx->OTYPER  &= ~((GPIO_OTYPER_OT_0) << ((uint16_t)pinpos)) ;
        GPIOx->OTYPER |= (uint16_t)(((uint16_t)GPIO_InitStruct->GPIO_OType) << ((uint16_t)pinpos));
      }

      /* Pull-up Pull down resistor configuration*/
      GPIOx->PUPDR &= ~(GPIO_PUPDR_PUPDR0 << ((uint16_t)pinpos * 2));
 8001022:	f022 0403 	bic.w	r4, r2, #3
 8001026:	60c4      	str	r4, [r0, #12]
      GPIOx->PUPDR |= (((uint32_t)GPIO_InitStruct->GPIO_PuPd) << (pinpos * 2));
 8001028:	68c4      	ldr	r4, [r0, #12]
  {
    pos = ((uint32_t)0x01) << pinpos;
    /* Get the port pins position */
    currentpin = (GPIO_InitStruct->GPIO_Pin) & pos;

    if (currentpin == pos)
 800102a:	f013 0f02 	tst.w	r3, #2
        GPIOx->OTYPER |= (uint16_t)(((uint16_t)GPIO_InitStruct->GPIO_OType) << ((uint16_t)pinpos));
      }

      /* Pull-up Pull down resistor configuration*/
      GPIOx->PUPDR &= ~(GPIO_PUPDR_PUPDR0 << ((uint16_t)pinpos * 2));
      GPIOx->PUPDR |= (((uint32_t)GPIO_InitStruct->GPIO_PuPd) << (pinpos * 2));
 800102e:	ea44 020c 	orr.w	r2, r4, ip
 8001032:	60c2      	str	r2, [r0, #12]
  {
    pos = ((uint32_t)0x01) << pinpos;
    /* Get the port pins position */
    currentpin = (GPIO_InitStruct->GPIO_Pin) & pos;

    if (currentpin == pos)
 8001034:	d0a8      	beq.n	8000f88 <GPIO_Init+0x10>
    {
      GPIOx->MODER  &= ~(GPIO_MODER_MODER0 << (pinpos * 2));
 8001036:	6804      	ldr	r4, [r0, #0]
      GPIOx->MODER |= (((uint32_t)GPIO_InitStruct->GPIO_Mode) << (pinpos * 2));
 8001038:	790a      	ldrb	r2, [r1, #4]
    /* Get the port pins position */
    currentpin = (GPIO_InitStruct->GPIO_Pin) & pos;

    if (currentpin == pos)
    {
      GPIOx->MODER  &= ~(GPIO_MODER_MODER0 << (pinpos * 2));
 800103a:	f024 040c 	bic.w	r4, r4, #12
 800103e:	6004      	str	r4, [r0, #0]
      GPIOx->MODER |= (((uint32_t)GPIO_InitStruct->GPIO_Mode) << (pinpos * 2));
 8001040:	6804      	ldr	r4, [r0, #0]

      if ((GPIO_InitStruct->GPIO_Mode == GPIO_Mode_OUT) || (GPIO_InitStruct->GPIO_Mode == GPIO_Mode_AF))
 8001042:	f102 3cff 	add.w	ip, r2, #4294967295
 8001046:	fa5f fc8c 	uxtb.w	ip, ip
    currentpin = (GPIO_InitStruct->GPIO_Pin) & pos;

    if (currentpin == pos)
    {
      GPIOx->MODER  &= ~(GPIO_MODER_MODER0 << (pinpos * 2));
      GPIOx->MODER |= (((uint32_t)GPIO_InitStruct->GPIO_Mode) << (pinpos * 2));
 800104a:	ea44 0282 	orr.w	r2, r4, r2, lsl #2

      if ((GPIO_InitStruct->GPIO_Mode == GPIO_Mode_OUT) || (GPIO_InitStruct->GPIO_Mode == GPIO_Mode_AF))
 800104e:	f1bc 0f01 	cmp.w	ip, #1
    currentpin = (GPIO_InitStruct->GPIO_Pin) & pos;

    if (currentpin == pos)
    {
      GPIOx->MODER  &= ~(GPIO_MODER_MODER0 << (pinpos * 2));
      GPIOx->MODER |= (((uint32_t)GPIO_InitStruct->GPIO_Mode) << (pinpos * 2));
 8001052:	6002      	str	r2, [r0, #0]

      if ((GPIO_InitStruct->GPIO_Mode == GPIO_Mode_OUT) || (GPIO_InitStruct->GPIO_Mode == GPIO_Mode_AF))
 8001054:	f240 81cf 	bls.w	80013f6 <GPIO_Init+0x47e>
        GPIOx->OTYPER  &= ~((GPIO_OTYPER_OT_0) << ((uint16_t)pinpos)) ;
        GPIOx->OTYPER |= (uint16_t)(((uint16_t)GPIO_InitStruct->GPIO_OType) << ((uint16_t)pinpos));
      }

      /* Pull-up Pull down resistor configuration*/
      GPIOx->PUPDR &= ~(GPIO_PUPDR_PUPDR0 << ((uint16_t)pinpos * 2));
 8001058:	68c2      	ldr	r2, [r0, #12]
      GPIOx->PUPDR |= (((uint32_t)GPIO_InitStruct->GPIO_PuPd) << (pinpos * 2));
 800105a:	f891 c007 	ldrb.w	ip, [r1, #7]
        GPIOx->OTYPER  &= ~((GPIO_OTYPER_OT_0) << ((uint16_t)pinpos)) ;
        GPIOx->OTYPER |= (uint16_t)(((uint16_t)GPIO_InitStruct->GPIO_OType) << ((uint16_t)pinpos));
      }

      /* Pull-up Pull down resistor configuration*/
      GPIOx->PUPDR &= ~(GPIO_PUPDR_PUPDR0 << ((uint16_t)pinpos * 2));
 800105e:	f022 020c 	bic.w	r2, r2, #12
 8001062:	60c2      	str	r2, [r0, #12]
      GPIOx->PUPDR |= (((uint32_t)GPIO_InitStruct->GPIO_PuPd) << (pinpos * 2));
 8001064:	68c2      	ldr	r2, [r0, #12]
  {
    pos = ((uint32_t)0x01) << pinpos;
    /* Get the port pins position */
    currentpin = (GPIO_InitStruct->GPIO_Pin) & pos;

    if (currentpin == pos)
 8001066:	f013 0f04 	tst.w	r3, #4
        GPIOx->OTYPER |= (uint16_t)(((uint16_t)GPIO_InitStruct->GPIO_OType) << ((uint16_t)pinpos));
      }

      /* Pull-up Pull down resistor configuration*/
      GPIOx->PUPDR &= ~(GPIO_PUPDR_PUPDR0 << ((uint16_t)pinpos * 2));
      GPIOx->PUPDR |= (((uint32_t)GPIO_InitStruct->GPIO_PuPd) << (pinpos * 2));
 800106a:	ea42 028c 	orr.w	r2, r2, ip, lsl #2
 800106e:	60c2      	str	r2, [r0, #12]
  {
    pos = ((uint32_t)0x01) << pinpos;
    /* Get the port pins position */
    currentpin = (GPIO_InitStruct->GPIO_Pin) & pos;

    if (currentpin == pos)
 8001070:	d08d      	beq.n	8000f8e <GPIO_Init+0x16>
    {
      GPIOx->MODER  &= ~(GPIO_MODER_MODER0 << (pinpos * 2));
 8001072:	6804      	ldr	r4, [r0, #0]
      GPIOx->MODER |= (((uint32_t)GPIO_InitStruct->GPIO_Mode) << (pinpos * 2));
 8001074:	790a      	ldrb	r2, [r1, #4]
    /* Get the port pins position */
    currentpin = (GPIO_InitStruct->GPIO_Pin) & pos;

    if (currentpin == pos)
    {
      GPIOx->MODER  &= ~(GPIO_MODER_MODER0 << (pinpos * 2));
 8001076:	f024 0430 	bic.w	r4, r4, #48	; 0x30
 800107a:	6004      	str	r4, [r0, #0]
      GPIOx->MODER |= (((uint32_t)GPIO_InitStruct->GPIO_Mode) << (pinpos * 2));
 800107c:	6804      	ldr	r4, [r0, #0]

      if ((GPIO_InitStruct->GPIO_Mode == GPIO_Mode_OUT) || (GPIO_InitStruct->GPIO_Mode == GPIO_Mode_AF))
 800107e:	f102 3cff 	add.w	ip, r2, #4294967295
 8001082:	fa5f fc8c 	uxtb.w	ip, ip
    currentpin = (GPIO_InitStruct->GPIO_Pin) & pos;

    if (currentpin == pos)
    {
      GPIOx->MODER  &= ~(GPIO_MODER_MODER0 << (pinpos * 2));
      GPIOx->MODER |= (((uint32_t)GPIO_InitStruct->GPIO_Mode) << (pinpos * 2));
 8001086:	ea44 1202 	orr.w	r2, r4, r2, lsl #4

      if ((GPIO_InitStruct->GPIO_Mode == GPIO_Mode_OUT) || (GPIO_InitStruct->GPIO_Mode == GPIO_Mode_AF))
 800108a:	f1bc 0f01 	cmp.w	ip, #1
    currentpin = (GPIO_InitStruct->GPIO_Pin) & pos;

    if (currentpin == pos)
    {
      GPIOx->MODER  &= ~(GPIO_MODER_MODER0 << (pinpos * 2));
      GPIOx->MODER |= (((uint32_t)GPIO_InitStruct->GPIO_Mode) << (pinpos * 2));
 800108e:	6002      	str	r2, [r0, #0]

      if ((GPIO_InitStruct->GPIO_Mode == GPIO_Mode_OUT) || (GPIO_InitStruct->GPIO_Mode == GPIO_Mode_AF))
 8001090:	f240 81c5 	bls.w	800141e <GPIO_Init+0x4a6>
        GPIOx->OTYPER  &= ~((GPIO_OTYPER_OT_0) << ((uint16_t)pinpos)) ;
        GPIOx->OTYPER |= (uint16_t)(((uint16_t)GPIO_InitStruct->GPIO_OType) << ((uint16_t)pinpos));
      }

      /* Pull-up Pull down resistor configuration*/
      GPIOx->PUPDR &= ~(GPIO_PUPDR_PUPDR0 << ((uint16_t)pinpos * 2));
 8001094:	68c2      	ldr	r2, [r0, #12]
      GPIOx->PUPDR |= (((uint32_t)GPIO_InitStruct->GPIO_PuPd) << (pinpos * 2));
 8001096:	f891 c007 	ldrb.w	ip, [r1, #7]
        GPIOx->OTYPER  &= ~((GPIO_OTYPER_OT_0) << ((uint16_t)pinpos)) ;
        GPIOx->OTYPER |= (uint16_t)(((uint16_t)GPIO_InitStruct->GPIO_OType) << ((uint16_t)pinpos));
      }

      /* Pull-up Pull down resistor configuration*/
      GPIOx->PUPDR &= ~(GPIO_PUPDR_PUPDR0 << ((uint16_t)pinpos * 2));
 800109a:	f022 0230 	bic.w	r2, r2, #48	; 0x30
 800109e:	60c2      	str	r2, [r0, #12]
      GPIOx->PUPDR |= (((uint32_t)GPIO_InitStruct->GPIO_PuPd) << (pinpos * 2));
 80010a0:	68c2      	ldr	r2, [r0, #12]
  {
    pos = ((uint32_t)0x01) << pinpos;
    /* Get the port pins position */
    currentpin = (GPIO_InitStruct->GPIO_Pin) & pos;

    if (currentpin == pos)
 80010a2:	f013 0f08 	tst.w	r3, #8
        GPIOx->OTYPER |= (uint16_t)(((uint16_t)GPIO_InitStruct->GPIO_OType) << ((uint16_t)pinpos));
      }

      /* Pull-up Pull down resistor configuration*/
      GPIOx->PUPDR &= ~(GPIO_PUPDR_PUPDR0 << ((uint16_t)pinpos * 2));
      GPIOx->PUPDR |= (((uint32_t)GPIO_InitStruct->GPIO_PuPd) << (pinpos * 2));
 80010a6:	ea42 120c 	orr.w	r2, r2, ip, lsl #4
 80010aa:	60c2      	str	r2, [r0, #12]
  {
    pos = ((uint32_t)0x01) << pinpos;
    /* Get the port pins position */
    currentpin = (GPIO_InitStruct->GPIO_Pin) & pos;

    if (currentpin == pos)
 80010ac:	f43f af73 	beq.w	8000f96 <GPIO_Init+0x1e>
    {
      GPIOx->MODER  &= ~(GPIO_MODER_MODER0 << (pinpos * 2));
 80010b0:	6804      	ldr	r4, [r0, #0]
      GPIOx->MODER |= (((uint32_t)GPIO_InitStruct->GPIO_Mode) << (pinpos * 2));
 80010b2:	790a      	ldrb	r2, [r1, #4]
    /* Get the port pins position */
    currentpin = (GPIO_InitStruct->GPIO_Pin) & pos;

    if (currentpin == pos)
    {
      GPIOx->MODER  &= ~(GPIO_MODER_MODER0 << (pinpos * 2));
 80010b4:	f024 04c0 	bic.w	r4, r4, #192	; 0xc0
 80010b8:	6004      	str	r4, [r0, #0]
      GPIOx->MODER |= (((uint32_t)GPIO_InitStruct->GPIO_Mode) << (pinpos * 2));
 80010ba:	6804      	ldr	r4, [r0, #0]

      if ((GPIO_InitStruct->GPIO_Mode == GPIO_Mode_OUT) || (GPIO_InitStruct->GPIO_Mode == GPIO_Mode_AF))
 80010bc:	f102 3cff 	add.w	ip, r2, #4294967295
 80010c0:	fa5f fc8c 	uxtb.w	ip, ip
    currentpin = (GPIO_InitStruct->GPIO_Pin) & pos;

    if (currentpin == pos)
    {
      GPIOx->MODER  &= ~(GPIO_MODER_MODER0 << (pinpos * 2));
      GPIOx->MODER |= (((uint32_t)GPIO_InitStruct->GPIO_Mode) << (pinpos * 2));
 80010c4:	ea44 1282 	orr.w	r2, r4, r2, lsl #6

      if ((GPIO_InitStruct->GPIO_Mode == GPIO_Mode_OUT) || (GPIO_InitStruct->GPIO_Mode == GPIO_Mode_AF))
 80010c8:	f1bc 0f01 	cmp.w	ip, #1
    currentpin = (GPIO_InitStruct->GPIO_Pin) & pos;

    if (currentpin == pos)
    {
      GPIOx->MODER  &= ~(GPIO_MODER_MODER0 << (pinpos * 2));
      GPIOx->MODER |= (((uint32_t)GPIO_InitStruct->GPIO_Mode) << (pinpos * 2));
 80010cc:	6002      	str	r2, [r0, #0]

      if ((GPIO_InitStruct->GPIO_Mode == GPIO_Mode_OUT) || (GPIO_InitStruct->GPIO_Mode == GPIO_Mode_AF))
 80010ce:	f240 81ba 	bls.w	8001446 <GPIO_Init+0x4ce>
        GPIOx->OTYPER  &= ~((GPIO_OTYPER_OT_0) << ((uint16_t)pinpos)) ;
        GPIOx->OTYPER |= (uint16_t)(((uint16_t)GPIO_InitStruct->GPIO_OType) << ((uint16_t)pinpos));
      }

      /* Pull-up Pull down resistor configuration*/
      GPIOx->PUPDR &= ~(GPIO_PUPDR_PUPDR0 << ((uint16_t)pinpos * 2));
 80010d2:	68c2      	ldr	r2, [r0, #12]
      GPIOx->PUPDR |= (((uint32_t)GPIO_InitStruct->GPIO_PuPd) << (pinpos * 2));
 80010d4:	f891 c007 	ldrb.w	ip, [r1, #7]
        GPIOx->OTYPER  &= ~((GPIO_OTYPER_OT_0) << ((uint16_t)pinpos)) ;
        GPIOx->OTYPER |= (uint16_t)(((uint16_t)GPIO_InitStruct->GPIO_OType) << ((uint16_t)pinpos));
      }

      /* Pull-up Pull down resistor configuration*/
      GPIOx->PUPDR &= ~(GPIO_PUPDR_PUPDR0 << ((uint16_t)pinpos * 2));
 80010d8:	f022 02c0 	bic.w	r2, r2, #192	; 0xc0
 80010dc:	60c2      	str	r2, [r0, #12]
      GPIOx->PUPDR |= (((uint32_t)GPIO_InitStruct->GPIO_PuPd) << (pinpos * 2));
 80010de:	68c2      	ldr	r2, [r0, #12]
  {
    pos = ((uint32_t)0x01) << pinpos;
    /* Get the port pins position */
    currentpin = (GPIO_InitStruct->GPIO_Pin) & pos;

    if (currentpin == pos)
 80010e0:	f013 0f10 	tst.w	r3, #16
        GPIOx->OTYPER |= (uint16_t)(((uint16_t)GPIO_InitStruct->GPIO_OType) << ((uint16_t)pinpos));
      }

      /* Pull-up Pull down resistor configuration*/
      GPIOx->PUPDR &= ~(GPIO_PUPDR_PUPDR0 << ((uint16_t)pinpos * 2));
      GPIOx->PUPDR |= (((uint32_t)GPIO_InitStruct->GPIO_PuPd) << (pinpos * 2));
 80010e4:	ea42 128c 	orr.w	r2, r2, ip, lsl #6
 80010e8:	60c2      	str	r2, [r0, #12]
  {
    pos = ((uint32_t)0x01) << pinpos;
    /* Get the port pins position */
    currentpin = (GPIO_InitStruct->GPIO_Pin) & pos;

    if (currentpin == pos)
 80010ea:	f43f af58 	beq.w	8000f9e <GPIO_Init+0x26>
    {
      GPIOx->MODER  &= ~(GPIO_MODER_MODER0 << (pinpos * 2));
 80010ee:	6804      	ldr	r4, [r0, #0]
      GPIOx->MODER |= (((uint32_t)GPIO_InitStruct->GPIO_Mode) << (pinpos * 2));
 80010f0:	790a      	ldrb	r2, [r1, #4]
    /* Get the port pins position */
    currentpin = (GPIO_InitStruct->GPIO_Pin) & pos;

    if (currentpin == pos)
    {
      GPIOx->MODER  &= ~(GPIO_MODER_MODER0 << (pinpos * 2));
 80010f2:	f424 7440 	bic.w	r4, r4, #768	; 0x300
 80010f6:	6004      	str	r4, [r0, #0]
      GPIOx->MODER |= (((uint32_t)GPIO_InitStruct->GPIO_Mode) << (pinpos * 2));
 80010f8:	6804      	ldr	r4, [r0, #0]

      if ((GPIO_InitStruct->GPIO_Mode == GPIO_Mode_OUT) || (GPIO_InitStruct->GPIO_Mode == GPIO_Mode_AF))
 80010fa:	f102 3cff 	add.w	ip, r2, #4294967295
 80010fe:	fa5f fc8c 	uxtb.w	ip, ip
    currentpin = (GPIO_InitStruct->GPIO_Pin) & pos;

    if (currentpin == pos)
    {
      GPIOx->MODER  &= ~(GPIO_MODER_MODER0 << (pinpos * 2));
      GPIOx->MODER |= (((uint32_t)GPIO_InitStruct->GPIO_Mode) << (pinpos * 2));
 8001102:	ea44 2202 	orr.w	r2, r4, r2, lsl #8

      if ((GPIO_InitStruct->GPIO_Mode == GPIO_Mode_OUT) || (GPIO_InitStruct->GPIO_Mode == GPIO_Mode_AF))
 8001106:	f1bc 0f01 	cmp.w	ip, #1
    currentpin = (GPIO_InitStruct->GPIO_Pin) & pos;

    if (currentpin == pos)
    {
      GPIOx->MODER  &= ~(GPIO_MODER_MODER0 << (pinpos * 2));
      GPIOx->MODER |= (((uint32_t)GPIO_InitStruct->GPIO_Mode) << (pinpos * 2));
 800110a:	6002      	str	r2, [r0, #0]

      if ((GPIO_InitStruct->GPIO_Mode == GPIO_Mode_OUT) || (GPIO_InitStruct->GPIO_Mode == GPIO_Mode_AF))
 800110c:	f240 81af 	bls.w	800146e <GPIO_Init+0x4f6>
        GPIOx->OTYPER  &= ~((GPIO_OTYPER_OT_0) << ((uint16_t)pinpos)) ;
        GPIOx->OTYPER |= (uint16_t)(((uint16_t)GPIO_InitStruct->GPIO_OType) << ((uint16_t)pinpos));
      }

      /* Pull-up Pull down resistor configuration*/
      GPIOx->PUPDR &= ~(GPIO_PUPDR_PUPDR0 << ((uint16_t)pinpos * 2));
 8001110:	68c2      	ldr	r2, [r0, #12]
      GPIOx->PUPDR |= (((uint32_t)GPIO_InitStruct->GPIO_PuPd) << (pinpos * 2));
 8001112:	f891 c007 	ldrb.w	ip, [r1, #7]
        GPIOx->OTYPER  &= ~((GPIO_OTYPER_OT_0) << ((uint16_t)pinpos)) ;
        GPIOx->OTYPER |= (uint16_t)(((uint16_t)GPIO_InitStruct->GPIO_OType) << ((uint16_t)pinpos));
      }

      /* Pull-up Pull down resistor configuration*/
      GPIOx->PUPDR &= ~(GPIO_PUPDR_PUPDR0 << ((uint16_t)pinpos * 2));
 8001116:	f422 7240 	bic.w	r2, r2, #768	; 0x300
 800111a:	60c2      	str	r2, [r0, #12]
      GPIOx->PUPDR |= (((uint32_t)GPIO_InitStruct->GPIO_PuPd) << (pinpos * 2));
 800111c:	68c2      	ldr	r2, [r0, #12]
  {
    pos = ((uint32_t)0x01) << pinpos;
    /* Get the port pins position */
    currentpin = (GPIO_InitStruct->GPIO_Pin) & pos;

    if (currentpin == pos)
 800111e:	f013 0f20 	tst.w	r3, #32
        GPIOx->OTYPER |= (uint16_t)(((uint16_t)GPIO_InitStruct->GPIO_OType) << ((uint16_t)pinpos));
      }

      /* Pull-up Pull down resistor configuration*/
      GPIOx->PUPDR &= ~(GPIO_PUPDR_PUPDR0 << ((uint16_t)pinpos * 2));
      GPIOx->PUPDR |= (((uint32_t)GPIO_InitStruct->GPIO_PuPd) << (pinpos * 2));
 8001122:	ea42 220c 	orr.w	r2, r2, ip, lsl #8
 8001126:	60c2      	str	r2, [r0, #12]
  {
    pos = ((uint32_t)0x01) << pinpos;
    /* Get the port pins position */
    currentpin = (GPIO_InitStruct->GPIO_Pin) & pos;

    if (currentpin == pos)
 8001128:	f43f af3d 	beq.w	8000fa6 <GPIO_Init+0x2e>
    {
      GPIOx->MODER  &= ~(GPIO_MODER_MODER0 << (pinpos * 2));
 800112c:	6804      	ldr	r4, [r0, #0]
      GPIOx->MODER |= (((uint32_t)GPIO_InitStruct->GPIO_Mode) << (pinpos * 2));
 800112e:	790a      	ldrb	r2, [r1, #4]
    /* Get the port pins position */
    currentpin = (GPIO_InitStruct->GPIO_Pin) & pos;

    if (currentpin == pos)
    {
      GPIOx->MODER  &= ~(GPIO_MODER_MODER0 << (pinpos * 2));
 8001130:	f424 6440 	bic.w	r4, r4, #3072	; 0xc00
 8001134:	6004      	str	r4, [r0, #0]
      GPIOx->MODER |= (((uint32_t)GPIO_InitStruct->GPIO_Mode) << (pinpos * 2));
 8001136:	6804      	ldr	r4, [r0, #0]

      if ((GPIO_InitStruct->GPIO_Mode == GPIO_Mode_OUT) || (GPIO_InitStruct->GPIO_Mode == GPIO_Mode_AF))
 8001138:	f102 3cff 	add.w	ip, r2, #4294967295
 800113c:	fa5f fc8c 	uxtb.w	ip, ip
    currentpin = (GPIO_InitStruct->GPIO_Pin) & pos;

    if (currentpin == pos)
    {
      GPIOx->MODER  &= ~(GPIO_MODER_MODER0 << (pinpos * 2));
      GPIOx->MODER |= (((uint32_t)GPIO_InitStruct->GPIO_Mode) << (pinpos * 2));
 8001140:	ea44 2282 	orr.w	r2, r4, r2, lsl #10

      if ((GPIO_InitStruct->GPIO_Mode == GPIO_Mode_OUT) || (GPIO_InitStruct->GPIO_Mode == GPIO_Mode_AF))
 8001144:	f1bc 0f01 	cmp.w	ip, #1
    currentpin = (GPIO_InitStruct->GPIO_Pin) & pos;

    if (currentpin == pos)
    {
      GPIOx->MODER  &= ~(GPIO_MODER_MODER0 << (pinpos * 2));
      GPIOx->MODER |= (((uint32_t)GPIO_InitStruct->GPIO_Mode) << (pinpos * 2));
 8001148:	6002      	str	r2, [r0, #0]

      if ((GPIO_InitStruct->GPIO_Mode == GPIO_Mode_OUT) || (GPIO_InitStruct->GPIO_Mode == GPIO_Mode_AF))
 800114a:	f240 81a4 	bls.w	8001496 <GPIO_Init+0x51e>
        GPIOx->OTYPER  &= ~((GPIO_OTYPER_OT_0) << ((uint16_t)pinpos)) ;
        GPIOx->OTYPER |= (uint16_t)(((uint16_t)GPIO_InitStruct->GPIO_OType) << ((uint16_t)pinpos));
      }

      /* Pull-up Pull down resistor configuration*/
      GPIOx->PUPDR &= ~(GPIO_PUPDR_PUPDR0 << ((uint16_t)pinpos * 2));
 800114e:	68c2      	ldr	r2, [r0, #12]
      GPIOx->PUPDR |= (((uint32_t)GPIO_InitStruct->GPIO_PuPd) << (pinpos * 2));
 8001150:	f891 c007 	ldrb.w	ip, [r1, #7]
        GPIOx->OTYPER  &= ~((GPIO_OTYPER_OT_0) << ((uint16_t)pinpos)) ;
        GPIOx->OTYPER |= (uint16_t)(((uint16_t)GPIO_InitStruct->GPIO_OType) << ((uint16_t)pinpos));
      }

      /* Pull-up Pull down resistor configuration*/
      GPIOx->PUPDR &= ~(GPIO_PUPDR_PUPDR0 << ((uint16_t)pinpos * 2));
 8001154:	f422 6240 	bic.w	r2, r2, #3072	; 0xc00
 8001158:	60c2      	str	r2, [r0, #12]
      GPIOx->PUPDR |= (((uint32_t)GPIO_InitStruct->GPIO_PuPd) << (pinpos * 2));
 800115a:	68c2      	ldr	r2, [r0, #12]
  {
    pos = ((uint32_t)0x01) << pinpos;
    /* Get the port pins position */
    currentpin = (GPIO_InitStruct->GPIO_Pin) & pos;

    if (currentpin == pos)
 800115c:	f013 0f40 	tst.w	r3, #64	; 0x40
        GPIOx->OTYPER |= (uint16_t)(((uint16_t)GPIO_InitStruct->GPIO_OType) << ((uint16_t)pinpos));
      }

      /* Pull-up Pull down resistor configuration*/
      GPIOx->PUPDR &= ~(GPIO_PUPDR_PUPDR0 << ((uint16_t)pinpos * 2));
      GPIOx->PUPDR |= (((uint32_t)GPIO_InitStruct->GPIO_PuPd) << (pinpos * 2));
 8001160:	ea42 228c 	orr.w	r2, r2, ip, lsl #10
 8001164:	60c2      	str	r2, [r0, #12]
  {
    pos = ((uint32_t)0x01) << pinpos;
    /* Get the port pins position */
    currentpin = (GPIO_InitStruct->GPIO_Pin) & pos;

    if (currentpin == pos)
 8001166:	f43f af22 	beq.w	8000fae <GPIO_Init+0x36>
    {
      GPIOx->MODER  &= ~(GPIO_MODER_MODER0 << (pinpos * 2));
 800116a:	6804      	ldr	r4, [r0, #0]
      GPIOx->MODER |= (((uint32_t)GPIO_InitStruct->GPIO_Mode) << (pinpos * 2));
 800116c:	790a      	ldrb	r2, [r1, #4]
    /* Get the port pins position */
    currentpin = (GPIO_InitStruct->GPIO_Pin) & pos;

    if (currentpin == pos)
    {
      GPIOx->MODER  &= ~(GPIO_MODER_MODER0 << (pinpos * 2));
 800116e:	f424 5440 	bic.w	r4, r4, #12288	; 0x3000
 8001172:	6004      	str	r4, [r0, #0]
      GPIOx->MODER |= (((uint32_t)GPIO_InitStruct->GPIO_Mode) << (pinpos * 2));
 8001174:	6804      	ldr	r4, [r0, #0]

      if ((GPIO_InitStruct->GPIO_Mode == GPIO_Mode_OUT) || (GPIO_InitStruct->GPIO_Mode == GPIO_Mode_AF))
 8001176:	f102 3cff 	add.w	ip, r2, #4294967295
 800117a:	fa5f fc8c 	uxtb.w	ip, ip
    currentpin = (GPIO_InitStruct->GPIO_Pin) & pos;

    if (currentpin == pos)
    {
      GPIOx->MODER  &= ~(GPIO_MODER_MODER0 << (pinpos * 2));
      GPIOx->MODER |= (((uint32_t)GPIO_InitStruct->GPIO_Mode) << (pinpos * 2));
 800117e:	ea44 3202 	orr.w	r2, r4, r2, lsl #12

      if ((GPIO_InitStruct->GPIO_Mode == GPIO_Mode_OUT) || (GPIO_InitStruct->GPIO_Mode == GPIO_Mode_AF))
 8001182:	f1bc 0f01 	cmp.w	ip, #1
    currentpin = (GPIO_InitStruct->GPIO_Pin) & pos;

    if (currentpin == pos)
    {
      GPIOx->MODER  &= ~(GPIO_MODER_MODER0 << (pinpos * 2));
      GPIOx->MODER |= (((uint32_t)GPIO_InitStruct->GPIO_Mode) << (pinpos * 2));
 8001186:	6002      	str	r2, [r0, #0]

      if ((GPIO_InitStruct->GPIO_Mode == GPIO_Mode_OUT) || (GPIO_InitStruct->GPIO_Mode == GPIO_Mode_AF))
 8001188:	f240 8199 	bls.w	80014be <GPIO_Init+0x546>
        GPIOx->OTYPER  &= ~((GPIO_OTYPER_OT_0) << ((uint16_t)pinpos)) ;
        GPIOx->OTYPER |= (uint16_t)(((uint16_t)GPIO_InitStruct->GPIO_OType) << ((uint16_t)pinpos));
      }

      /* Pull-up Pull down resistor configuration*/
      GPIOx->PUPDR &= ~(GPIO_PUPDR_PUPDR0 << ((uint16_t)pinpos * 2));
 800118c:	68c2      	ldr	r2, [r0, #12]
      GPIOx->PUPDR |= (((uint32_t)GPIO_InitStruct->GPIO_PuPd) << (pinpos * 2));
 800118e:	f891 c007 	ldrb.w	ip, [r1, #7]
        GPIOx->OTYPER  &= ~((GPIO_OTYPER_OT_0) << ((uint16_t)pinpos)) ;
        GPIOx->OTYPER |= (uint16_t)(((uint16_t)GPIO_InitStruct->GPIO_OType) << ((uint16_t)pinpos));
      }

      /* Pull-up Pull down resistor configuration*/
      GPIOx->PUPDR &= ~(GPIO_PUPDR_PUPDR0 << ((uint16_t)pinpos * 2));
 8001192:	f422 5240 	bic.w	r2, r2, #12288	; 0x3000
 8001196:	60c2      	str	r2, [r0, #12]
      GPIOx->PUPDR |= (((uint32_t)GPIO_InitStruct->GPIO_PuPd) << (pinpos * 2));
 8001198:	68c2      	ldr	r2, [r0, #12]
  {
    pos = ((uint32_t)0x01) << pinpos;
    /* Get the port pins position */
    currentpin = (GPIO_InitStruct->GPIO_Pin) & pos;

    if (currentpin == pos)
 800119a:	f013 0f80 	tst.w	r3, #128	; 0x80
        GPIOx->OTYPER |= (uint16_t)(((uint16_t)GPIO_InitStruct->GPIO_OType) << ((uint16_t)pinpos));
      }

      /* Pull-up Pull down resistor configuration*/
      GPIOx->PUPDR &= ~(GPIO_PUPDR_PUPDR0 << ((uint16_t)pinpos * 2));
      GPIOx->PUPDR |= (((uint32_t)GPIO_InitStruct->GPIO_PuPd) << (pinpos * 2));
 800119e:	ea42 320c 	orr.w	r2, r2, ip, lsl #12
 80011a2:	60c2      	str	r2, [r0, #12]
  {
    pos = ((uint32_t)0x01) << pinpos;
    /* Get the port pins position */
    currentpin = (GPIO_InitStruct->GPIO_Pin) & pos;

    if (currentpin == pos)
 80011a4:	f43f af07 	beq.w	8000fb6 <GPIO_Init+0x3e>
    {
      GPIOx->MODER  &= ~(GPIO_MODER_MODER0 << (pinpos * 2));
 80011a8:	6804      	ldr	r4, [r0, #0]
      GPIOx->MODER |= (((uint32_t)GPIO_InitStruct->GPIO_Mode) << (pinpos * 2));
 80011aa:	790a      	ldrb	r2, [r1, #4]
    /* Get the port pins position */
    currentpin = (GPIO_InitStruct->GPIO_Pin) & pos;

    if (currentpin == pos)
    {
      GPIOx->MODER  &= ~(GPIO_MODER_MODER0 << (pinpos * 2));
 80011ac:	f424 4440 	bic.w	r4, r4, #49152	; 0xc000
 80011b0:	6004      	str	r4, [r0, #0]
      GPIOx->MODER |= (((uint32_t)GPIO_InitStruct->GPIO_Mode) << (pinpos * 2));
 80011b2:	6804      	ldr	r4, [r0, #0]

      if ((GPIO_InitStruct->GPIO_Mode == GPIO_Mode_OUT) || (GPIO_InitStruct->GPIO_Mode == GPIO_Mode_AF))
 80011b4:	f102 3cff 	add.w	ip, r2, #4294967295
 80011b8:	fa5f fc8c 	uxtb.w	ip, ip
    currentpin = (GPIO_InitStruct->GPIO_Pin) & pos;

    if (currentpin == pos)
    {
      GPIOx->MODER  &= ~(GPIO_MODER_MODER0 << (pinpos * 2));
      GPIOx->MODER |= (((uint32_t)GPIO_InitStruct->GPIO_Mode) << (pinpos * 2));
 80011bc:	ea44 3282 	orr.w	r2, r4, r2, lsl #14

      if ((GPIO_InitStruct->GPIO_Mode == GPIO_Mode_OUT) || (GPIO_InitStruct->GPIO_Mode == GPIO_Mode_AF))
 80011c0:	f1bc 0f01 	cmp.w	ip, #1
    currentpin = (GPIO_InitStruct->GPIO_Pin) & pos;

    if (currentpin == pos)
    {
      GPIOx->MODER  &= ~(GPIO_MODER_MODER0 << (pinpos * 2));
      GPIOx->MODER |= (((uint32_t)GPIO_InitStruct->GPIO_Mode) << (pinpos * 2));
 80011c4:	6002      	str	r2, [r0, #0]

      if ((GPIO_InitStruct->GPIO_Mode == GPIO_Mode_OUT) || (GPIO_InitStruct->GPIO_Mode == GPIO_Mode_AF))
 80011c6:	f240 818e 	bls.w	80014e6 <GPIO_Init+0x56e>
        GPIOx->OTYPER  &= ~((GPIO_OTYPER_OT_0) << ((uint16_t)pinpos)) ;
        GPIOx->OTYPER |= (uint16_t)(((uint16_t)GPIO_InitStruct->GPIO_OType) << ((uint16_t)pinpos));
      }

      /* Pull-up Pull down resistor configuration*/
      GPIOx->PUPDR &= ~(GPIO_PUPDR_PUPDR0 << ((uint16_t)pinpos * 2));
 80011ca:	68c2      	ldr	r2, [r0, #12]
      GPIOx->PUPDR |= (((uint32_t)GPIO_InitStruct->GPIO_PuPd) << (pinpos * 2));
 80011cc:	f891 c007 	ldrb.w	ip, [r1, #7]
        GPIOx->OTYPER  &= ~((GPIO_OTYPER_OT_0) << ((uint16_t)pinpos)) ;
        GPIOx->OTYPER |= (uint16_t)(((uint16_t)GPIO_InitStruct->GPIO_OType) << ((uint16_t)pinpos));
      }

      /* Pull-up Pull down resistor configuration*/
      GPIOx->PUPDR &= ~(GPIO_PUPDR_PUPDR0 << ((uint16_t)pinpos * 2));
 80011d0:	f422 4240 	bic.w	r2, r2, #49152	; 0xc000
 80011d4:	60c2      	str	r2, [r0, #12]
      GPIOx->PUPDR |= (((uint32_t)GPIO_InitStruct->GPIO_PuPd) << (pinpos * 2));
 80011d6:	68c2      	ldr	r2, [r0, #12]
  {
    pos = ((uint32_t)0x01) << pinpos;
    /* Get the port pins position */
    currentpin = (GPIO_InitStruct->GPIO_Pin) & pos;

    if (currentpin == pos)
 80011d8:	f413 7f80 	tst.w	r3, #256	; 0x100
        GPIOx->OTYPER |= (uint16_t)(((uint16_t)GPIO_InitStruct->GPIO_OType) << ((uint16_t)pinpos));
      }

      /* Pull-up Pull down resistor configuration*/
      GPIOx->PUPDR &= ~(GPIO_PUPDR_PUPDR0 << ((uint16_t)pinpos * 2));
      GPIOx->PUPDR |= (((uint32_t)GPIO_InitStruct->GPIO_PuPd) << (pinpos * 2));
 80011dc:	ea42 328c 	orr.w	r2, r2, ip, lsl #14
 80011e0:	60c2      	str	r2, [r0, #12]
  {
    pos = ((uint32_t)0x01) << pinpos;
    /* Get the port pins position */
    currentpin = (GPIO_InitStruct->GPIO_Pin) & pos;

    if (currentpin == pos)
 80011e2:	f43f aeec 	beq.w	8000fbe <GPIO_Init+0x46>
    {
      GPIOx->MODER  &= ~(GPIO_MODER_MODER0 << (pinpos * 2));
 80011e6:	6804      	ldr	r4, [r0, #0]
      GPIOx->MODER |= (((uint32_t)GPIO_InitStruct->GPIO_Mode) << (pinpos * 2));
 80011e8:	790a      	ldrb	r2, [r1, #4]
    /* Get the port pins position */
    currentpin = (GPIO_InitStruct->GPIO_Pin) & pos;

    if (currentpin == pos)
    {
      GPIOx->MODER  &= ~(GPIO_MODER_MODER0 << (pinpos * 2));
 80011ea:	f424 3440 	bic.w	r4, r4, #196608	; 0x30000
 80011ee:	6004      	str	r4, [r0, #0]
      GPIOx->MODER |= (((uint32_t)GPIO_InitStruct->GPIO_Mode) << (pinpos * 2));
 80011f0:	6804      	ldr	r4, [r0, #0]

      if ((GPIO_InitStruct->GPIO_Mode == GPIO_Mode_OUT) || (GPIO_InitStruct->GPIO_Mode == GPIO_Mode_AF))
 80011f2:	f102 3cff 	add.w	ip, r2, #4294967295
 80011f6:	fa5f fc8c 	uxtb.w	ip, ip
    currentpin = (GPIO_InitStruct->GPIO_Pin) & pos;

    if (currentpin == pos)
    {
      GPIOx->MODER  &= ~(GPIO_MODER_MODER0 << (pinpos * 2));
      GPIOx->MODER |= (((uint32_t)GPIO_InitStruct->GPIO_Mode) << (pinpos * 2));
 80011fa:	ea44 4202 	orr.w	r2, r4, r2, lsl #16

      if ((GPIO_InitStruct->GPIO_Mode == GPIO_Mode_OUT) || (GPIO_InitStruct->GPIO_Mode == GPIO_Mode_AF))
 80011fe:	f1bc 0f01 	cmp.w	ip, #1
    currentpin = (GPIO_InitStruct->GPIO_Pin) & pos;

    if (currentpin == pos)
    {
      GPIOx->MODER  &= ~(GPIO_MODER_MODER0 << (pinpos * 2));
      GPIOx->MODER |= (((uint32_t)GPIO_InitStruct->GPIO_Mode) << (pinpos * 2));
 8001202:	6002      	str	r2, [r0, #0]

      if ((GPIO_InitStruct->GPIO_Mode == GPIO_Mode_OUT) || (GPIO_InitStruct->GPIO_Mode == GPIO_Mode_AF))
 8001204:	f240 8183 	bls.w	800150e <GPIO_Init+0x596>
        GPIOx->OTYPER  &= ~((GPIO_OTYPER_OT_0) << ((uint16_t)pinpos)) ;
        GPIOx->OTYPER |= (uint16_t)(((uint16_t)GPIO_InitStruct->GPIO_OType) << ((uint16_t)pinpos));
      }

      /* Pull-up Pull down resistor configuration*/
      GPIOx->PUPDR &= ~(GPIO_PUPDR_PUPDR0 << ((uint16_t)pinpos * 2));
 8001208:	68c2      	ldr	r2, [r0, #12]
      GPIOx->PUPDR |= (((uint32_t)GPIO_InitStruct->GPIO_PuPd) << (pinpos * 2));
 800120a:	f891 c007 	ldrb.w	ip, [r1, #7]
        GPIOx->OTYPER  &= ~((GPIO_OTYPER_OT_0) << ((uint16_t)pinpos)) ;
        GPIOx->OTYPER |= (uint16_t)(((uint16_t)GPIO_InitStruct->GPIO_OType) << ((uint16_t)pinpos));
      }

      /* Pull-up Pull down resistor configuration*/
      GPIOx->PUPDR &= ~(GPIO_PUPDR_PUPDR0 << ((uint16_t)pinpos * 2));
 800120e:	f422 3240 	bic.w	r2, r2, #196608	; 0x30000
 8001212:	60c2      	str	r2, [r0, #12]
      GPIOx->PUPDR |= (((uint32_t)GPIO_InitStruct->GPIO_PuPd) << (pinpos * 2));
 8001214:	68c2      	ldr	r2, [r0, #12]
  {
    pos = ((uint32_t)0x01) << pinpos;
    /* Get the port pins position */
    currentpin = (GPIO_InitStruct->GPIO_Pin) & pos;

    if (currentpin == pos)
 8001216:	f413 7f00 	tst.w	r3, #512	; 0x200
        GPIOx->OTYPER |= (uint16_t)(((uint16_t)GPIO_InitStruct->GPIO_OType) << ((uint16_t)pinpos));
      }

      /* Pull-up Pull down resistor configuration*/
      GPIOx->PUPDR &= ~(GPIO_PUPDR_PUPDR0 << ((uint16_t)pinpos * 2));
      GPIOx->PUPDR |= (((uint32_t)GPIO_InitStruct->GPIO_PuPd) << (pinpos * 2));
 800121a:	ea42 420c 	orr.w	r2, r2, ip, lsl #16
 800121e:	60c2      	str	r2, [r0, #12]
  {
    pos = ((uint32_t)0x01) << pinpos;
    /* Get the port pins position */
    currentpin = (GPIO_InitStruct->GPIO_Pin) & pos;

    if (currentpin == pos)
 8001220:	f43f aed1 	beq.w	8000fc6 <GPIO_Init+0x4e>
    {
      GPIOx->MODER  &= ~(GPIO_MODER_MODER0 << (pinpos * 2));
 8001224:	6804      	ldr	r4, [r0, #0]
      GPIOx->MODER |= (((uint32_t)GPIO_InitStruct->GPIO_Mode) << (pinpos * 2));
 8001226:	790a      	ldrb	r2, [r1, #4]
    /* Get the port pins position */
    currentpin = (GPIO_InitStruct->GPIO_Pin) & pos;

    if (currentpin == pos)
    {
      GPIOx->MODER  &= ~(GPIO_MODER_MODER0 << (pinpos * 2));
 8001228:	f424 2440 	bic.w	r4, r4, #786432	; 0xc0000
 800122c:	6004      	str	r4, [r0, #0]
      GPIOx->MODER |= (((uint32_t)GPIO_InitStruct->GPIO_Mode) << (pinpos * 2));
 800122e:	6804      	ldr	r4, [r0, #0]

      if ((GPIO_InitStruct->GPIO_Mode == GPIO_Mode_OUT) || (GPIO_InitStruct->GPIO_Mode == GPIO_Mode_AF))
 8001230:	f102 3cff 	add.w	ip, r2, #4294967295
 8001234:	fa5f fc8c 	uxtb.w	ip, ip
    currentpin = (GPIO_InitStruct->GPIO_Pin) & pos;

    if (currentpin == pos)
    {
      GPIOx->MODER  &= ~(GPIO_MODER_MODER0 << (pinpos * 2));
      GPIOx->MODER |= (((uint32_t)GPIO_InitStruct->GPIO_Mode) << (pinpos * 2));
 8001238:	ea44 4282 	orr.w	r2, r4, r2, lsl #18

      if ((GPIO_InitStruct->GPIO_Mode == GPIO_Mode_OUT) || (GPIO_InitStruct->GPIO_Mode == GPIO_Mode_AF))
 800123c:	f1bc 0f01 	cmp.w	ip, #1
    currentpin = (GPIO_InitStruct->GPIO_Pin) & pos;

    if (currentpin == pos)
    {
      GPIOx->MODER  &= ~(GPIO_MODER_MODER0 << (pinpos * 2));
      GPIOx->MODER |= (((uint32_t)GPIO_InitStruct->GPIO_Mode) << (pinpos * 2));
 8001240:	6002      	str	r2, [r0, #0]

      if ((GPIO_InitStruct->GPIO_Mode == GPIO_Mode_OUT) || (GPIO_InitStruct->GPIO_Mode == GPIO_Mode_AF))
 8001242:	f240 8178 	bls.w	8001536 <GPIO_Init+0x5be>
        GPIOx->OTYPER  &= ~((GPIO_OTYPER_OT_0) << ((uint16_t)pinpos)) ;
        GPIOx->OTYPER |= (uint16_t)(((uint16_t)GPIO_InitStruct->GPIO_OType) << ((uint16_t)pinpos));
      }

      /* Pull-up Pull down resistor configuration*/
      GPIOx->PUPDR &= ~(GPIO_PUPDR_PUPDR0 << ((uint16_t)pinpos * 2));
 8001246:	68c2      	ldr	r2, [r0, #12]
      GPIOx->PUPDR |= (((uint32_t)GPIO_InitStruct->GPIO_PuPd) << (pinpos * 2));
 8001248:	f891 c007 	ldrb.w	ip, [r1, #7]
        GPIOx->OTYPER  &= ~((GPIO_OTYPER_OT_0) << ((uint16_t)pinpos)) ;
        GPIOx->OTYPER |= (uint16_t)(((uint16_t)GPIO_InitStruct->GPIO_OType) << ((uint16_t)pinpos));
      }

      /* Pull-up Pull down resistor configuration*/
      GPIOx->PUPDR &= ~(GPIO_PUPDR_PUPDR0 << ((uint16_t)pinpos * 2));
 800124c:	f422 2240 	bic.w	r2, r2, #786432	; 0xc0000
 8001250:	60c2      	str	r2, [r0, #12]
      GPIOx->PUPDR |= (((uint32_t)GPIO_InitStruct->GPIO_PuPd) << (pinpos * 2));
 8001252:	68c2      	ldr	r2, [r0, #12]
  {
    pos = ((uint32_t)0x01) << pinpos;
    /* Get the port pins position */
    currentpin = (GPIO_InitStruct->GPIO_Pin) & pos;

    if (currentpin == pos)
 8001254:	f413 6f80 	tst.w	r3, #1024	; 0x400
        GPIOx->OTYPER |= (uint16_t)(((uint16_t)GPIO_InitStruct->GPIO_OType) << ((uint16_t)pinpos));
      }

      /* Pull-up Pull down resistor configuration*/
      GPIOx->PUPDR &= ~(GPIO_PUPDR_PUPDR0 << ((uint16_t)pinpos * 2));
      GPIOx->PUPDR |= (((uint32_t)GPIO_InitStruct->GPIO_PuPd) << (pinpos * 2));
 8001258:	ea42 428c 	orr.w	r2, r2, ip, lsl #18
 800125c:	60c2      	str	r2, [r0, #12]
  {
    pos = ((uint32_t)0x01) << pinpos;
    /* Get the port pins position */
    currentpin = (GPIO_InitStruct->GPIO_Pin) & pos;

    if (currentpin == pos)
 800125e:	f43f aeb6 	beq.w	8000fce <GPIO_Init+0x56>
    {
      GPIOx->MODER  &= ~(GPIO_MODER_MODER0 << (pinpos * 2));
 8001262:	6804      	ldr	r4, [r0, #0]
      GPIOx->MODER |= (((uint32_t)GPIO_InitStruct->GPIO_Mode) << (pinpos * 2));
 8001264:	790a      	ldrb	r2, [r1, #4]
    /* Get the port pins position */
    currentpin = (GPIO_InitStruct->GPIO_Pin) & pos;

    if (currentpin == pos)
    {
      GPIOx->MODER  &= ~(GPIO_MODER_MODER0 << (pinpos * 2));
 8001266:	f424 1440 	bic.w	r4, r4, #3145728	; 0x300000
 800126a:	6004      	str	r4, [r0, #0]
      GPIOx->MODER |= (((uint32_t)GPIO_InitStruct->GPIO_Mode) << (pinpos * 2));
 800126c:	6804      	ldr	r4, [r0, #0]

      if ((GPIO_InitStruct->GPIO_Mode == GPIO_Mode_OUT) || (GPIO_InitStruct->GPIO_Mode == GPIO_Mode_AF))
 800126e:	f102 3cff 	add.w	ip, r2, #4294967295
 8001272:	fa5f fc8c 	uxtb.w	ip, ip
    currentpin = (GPIO_InitStruct->GPIO_Pin) & pos;

    if (currentpin == pos)
    {
      GPIOx->MODER  &= ~(GPIO_MODER_MODER0 << (pinpos * 2));
      GPIOx->MODER |= (((uint32_t)GPIO_InitStruct->GPIO_Mode) << (pinpos * 2));
 8001276:	ea44 5202 	orr.w	r2, r4, r2, lsl #20

      if ((GPIO_InitStruct->GPIO_Mode == GPIO_Mode_OUT) || (GPIO_InitStruct->GPIO_Mode == GPIO_Mode_AF))
 800127a:	f1bc 0f01 	cmp.w	ip, #1
    currentpin = (GPIO_InitStruct->GPIO_Pin) & pos;

    if (currentpin == pos)
    {
      GPIOx->MODER  &= ~(GPIO_MODER_MODER0 << (pinpos * 2));
      GPIOx->MODER |= (((uint32_t)GPIO_InitStruct->GPIO_Mode) << (pinpos * 2));
 800127e:	6002      	str	r2, [r0, #0]

      if ((GPIO_InitStruct->GPIO_Mode == GPIO_Mode_OUT) || (GPIO_InitStruct->GPIO_Mode == GPIO_Mode_AF))
 8001280:	f240 8171 	bls.w	8001566 <GPIO_Init+0x5ee>
        GPIOx->OTYPER  &= ~((GPIO_OTYPER_OT_0) << ((uint16_t)pinpos)) ;
        GPIOx->OTYPER |= (uint16_t)(((uint16_t)GPIO_InitStruct->GPIO_OType) << ((uint16_t)pinpos));
      }

      /* Pull-up Pull down resistor configuration*/
      GPIOx->PUPDR &= ~(GPIO_PUPDR_PUPDR0 << ((uint16_t)pinpos * 2));
 8001284:	68c2      	ldr	r2, [r0, #12]
      GPIOx->PUPDR |= (((uint32_t)GPIO_InitStruct->GPIO_PuPd) << (pinpos * 2));
 8001286:	f891 c007 	ldrb.w	ip, [r1, #7]
        GPIOx->OTYPER  &= ~((GPIO_OTYPER_OT_0) << ((uint16_t)pinpos)) ;
        GPIOx->OTYPER |= (uint16_t)(((uint16_t)GPIO_InitStruct->GPIO_OType) << ((uint16_t)pinpos));
      }

      /* Pull-up Pull down resistor configuration*/
      GPIOx->PUPDR &= ~(GPIO_PUPDR_PUPDR0 << ((uint16_t)pinpos * 2));
 800128a:	f422 1240 	bic.w	r2, r2, #3145728	; 0x300000
 800128e:	60c2      	str	r2, [r0, #12]
      GPIOx->PUPDR |= (((uint32_t)GPIO_InitStruct->GPIO_PuPd) << (pinpos * 2));
 8001290:	68c2      	ldr	r2, [r0, #12]
  {
    pos = ((uint32_t)0x01) << pinpos;
    /* Get the port pins position */
    currentpin = (GPIO_InitStruct->GPIO_Pin) & pos;

    if (currentpin == pos)
 8001292:	f413 6f00 	tst.w	r3, #2048	; 0x800
        GPIOx->OTYPER |= (uint16_t)(((uint16_t)GPIO_InitStruct->GPIO_OType) << ((uint16_t)pinpos));
      }

      /* Pull-up Pull down resistor configuration*/
      GPIOx->PUPDR &= ~(GPIO_PUPDR_PUPDR0 << ((uint16_t)pinpos * 2));
      GPIOx->PUPDR |= (((uint32_t)GPIO_InitStruct->GPIO_PuPd) << (pinpos * 2));
 8001296:	ea42 520c 	orr.w	r2, r2, ip, lsl #20
 800129a:	60c2      	str	r2, [r0, #12]
  {
    pos = ((uint32_t)0x01) << pinpos;
    /* Get the port pins position */
    currentpin = (GPIO_InitStruct->GPIO_Pin) & pos;

    if (currentpin == pos)
 800129c:	f43f ae9b 	beq.w	8000fd6 <GPIO_Init+0x5e>
    {
      GPIOx->MODER  &= ~(GPIO_MODER_MODER0 << (pinpos * 2));
 80012a0:	6804      	ldr	r4, [r0, #0]
      GPIOx->MODER |= (((uint32_t)GPIO_InitStruct->GPIO_Mode) << (pinpos * 2));
 80012a2:	790a      	ldrb	r2, [r1, #4]
    /* Get the port pins position */
    currentpin = (GPIO_InitStruct->GPIO_Pin) & pos;

    if (currentpin == pos)
    {
      GPIOx->MODER  &= ~(GPIO_MODER_MODER0 << (pinpos * 2));
 80012a4:	f424 0440 	bic.w	r4, r4, #12582912	; 0xc00000
 80012a8:	6004      	str	r4, [r0, #0]
      GPIOx->MODER |= (((uint32_t)GPIO_InitStruct->GPIO_Mode) << (pinpos * 2));
 80012aa:	6804      	ldr	r4, [r0, #0]

      if ((GPIO_InitStruct->GPIO_Mode == GPIO_Mode_OUT) || (GPIO_InitStruct->GPIO_Mode == GPIO_Mode_AF))
 80012ac:	f102 3cff 	add.w	ip, r2, #4294967295
 80012b0:	fa5f fc8c 	uxtb.w	ip, ip
    currentpin = (GPIO_InitStruct->GPIO_Pin) & pos;

    if (currentpin == pos)
    {
      GPIOx->MODER  &= ~(GPIO_MODER_MODER0 << (pinpos * 2));
      GPIOx->MODER |= (((uint32_t)GPIO_InitStruct->GPIO_Mode) << (pinpos * 2));
 80012b4:	ea44 5282 	orr.w	r2, r4, r2, lsl #22

      if ((GPIO_InitStruct->GPIO_Mode == GPIO_Mode_OUT) || (GPIO_InitStruct->GPIO_Mode == GPIO_Mode_AF))
 80012b8:	f1bc 0f01 	cmp.w	ip, #1
    currentpin = (GPIO_InitStruct->GPIO_Pin) & pos;

    if (currentpin == pos)
    {
      GPIOx->MODER  &= ~(GPIO_MODER_MODER0 << (pinpos * 2));
      GPIOx->MODER |= (((uint32_t)GPIO_InitStruct->GPIO_Mode) << (pinpos * 2));
 80012bc:	6002      	str	r2, [r0, #0]

      if ((GPIO_InitStruct->GPIO_Mode == GPIO_Mode_OUT) || (GPIO_InitStruct->GPIO_Mode == GPIO_Mode_AF))
 80012be:	f240 816a 	bls.w	8001596 <GPIO_Init+0x61e>
        GPIOx->OTYPER  &= ~((GPIO_OTYPER_OT_0) << ((uint16_t)pinpos)) ;
        GPIOx->OTYPER |= (uint16_t)(((uint16_t)GPIO_InitStruct->GPIO_OType) << ((uint16_t)pinpos));
      }

      /* Pull-up Pull down resistor configuration*/
      GPIOx->PUPDR &= ~(GPIO_PUPDR_PUPDR0 << ((uint16_t)pinpos * 2));
 80012c2:	68c2      	ldr	r2, [r0, #12]
      GPIOx->PUPDR |= (((uint32_t)GPIO_InitStruct->GPIO_PuPd) << (pinpos * 2));
 80012c4:	f891 c007 	ldrb.w	ip, [r1, #7]
        GPIOx->OTYPER  &= ~((GPIO_OTYPER_OT_0) << ((uint16_t)pinpos)) ;
        GPIOx->OTYPER |= (uint16_t)(((uint16_t)GPIO_InitStruct->GPIO_OType) << ((uint16_t)pinpos));
      }

      /* Pull-up Pull down resistor configuration*/
      GPIOx->PUPDR &= ~(GPIO_PUPDR_PUPDR0 << ((uint16_t)pinpos * 2));
 80012c8:	f422 0240 	bic.w	r2, r2, #12582912	; 0xc00000
 80012cc:	60c2      	str	r2, [r0, #12]
      GPIOx->PUPDR |= (((uint32_t)GPIO_InitStruct->GPIO_PuPd) << (pinpos * 2));
 80012ce:	68c2      	ldr	r2, [r0, #12]
  {
    pos = ((uint32_t)0x01) << pinpos;
    /* Get the port pins position */
    currentpin = (GPIO_InitStruct->GPIO_Pin) & pos;

    if (currentpin == pos)
 80012d0:	f413 5f80 	tst.w	r3, #4096	; 0x1000
        GPIOx->OTYPER |= (uint16_t)(((uint16_t)GPIO_InitStruct->GPIO_OType) << ((uint16_t)pinpos));
      }

      /* Pull-up Pull down resistor configuration*/
      GPIOx->PUPDR &= ~(GPIO_PUPDR_PUPDR0 << ((uint16_t)pinpos * 2));
      GPIOx->PUPDR |= (((uint32_t)GPIO_InitStruct->GPIO_PuPd) << (pinpos * 2));
 80012d4:	ea42 528c 	orr.w	r2, r2, ip, lsl #22
 80012d8:	60c2      	str	r2, [r0, #12]
  {
    pos = ((uint32_t)0x01) << pinpos;
    /* Get the port pins position */
    currentpin = (GPIO_InitStruct->GPIO_Pin) & pos;

    if (currentpin == pos)
 80012da:	f43f ae80 	beq.w	8000fde <GPIO_Init+0x66>
    {
      GPIOx->MODER  &= ~(GPIO_MODER_MODER0 << (pinpos * 2));
 80012de:	6804      	ldr	r4, [r0, #0]
      GPIOx->MODER |= (((uint32_t)GPIO_InitStruct->GPIO_Mode) << (pinpos * 2));
 80012e0:	790a      	ldrb	r2, [r1, #4]
    /* Get the port pins position */
    currentpin = (GPIO_InitStruct->GPIO_Pin) & pos;

    if (currentpin == pos)
    {
      GPIOx->MODER  &= ~(GPIO_MODER_MODER0 << (pinpos * 2));
 80012e2:	f024 7440 	bic.w	r4, r4, #50331648	; 0x3000000
 80012e6:	6004      	str	r4, [r0, #0]
      GPIOx->MODER |= (((uint32_t)GPIO_InitStruct->GPIO_Mode) << (pinpos * 2));
 80012e8:	6804      	ldr	r4, [r0, #0]

      if ((GPIO_InitStruct->GPIO_Mode == GPIO_Mode_OUT) || (GPIO_InitStruct->GPIO_Mode == GPIO_Mode_AF))
 80012ea:	f102 3cff 	add.w	ip, r2, #4294967295
 80012ee:	fa5f fc8c 	uxtb.w	ip, ip
    currentpin = (GPIO_InitStruct->GPIO_Pin) & pos;

    if (currentpin == pos)
    {
      GPIOx->MODER  &= ~(GPIO_MODER_MODER0 << (pinpos * 2));
      GPIOx->MODER |= (((uint32_t)GPIO_InitStruct->GPIO_Mode) << (pinpos * 2));
 80012f2:	ea44 6202 	orr.w	r2, r4, r2, lsl #24

      if ((GPIO_InitStruct->GPIO_Mode == GPIO_Mode_OUT) || (GPIO_InitStruct->GPIO_Mode == GPIO_Mode_AF))
 80012f6:	f1bc 0f01 	cmp.w	ip, #1
    currentpin = (GPIO_InitStruct->GPIO_Pin) & pos;

    if (currentpin == pos)
    {
      GPIOx->MODER  &= ~(GPIO_MODER_MODER0 << (pinpos * 2));
      GPIOx->MODER |= (((uint32_t)GPIO_InitStruct->GPIO_Mode) << (pinpos * 2));
 80012fa:	6002      	str	r2, [r0, #0]

      if ((GPIO_InitStruct->GPIO_Mode == GPIO_Mode_OUT) || (GPIO_InitStruct->GPIO_Mode == GPIO_Mode_AF))
 80012fc:	f240 8163 	bls.w	80015c6 <GPIO_Init+0x64e>
        GPIOx->OTYPER  &= ~((GPIO_OTYPER_OT_0) << ((uint16_t)pinpos)) ;
        GPIOx->OTYPER |= (uint16_t)(((uint16_t)GPIO_InitStruct->GPIO_OType) << ((uint16_t)pinpos));
      }

      /* Pull-up Pull down resistor configuration*/
      GPIOx->PUPDR &= ~(GPIO_PUPDR_PUPDR0 << ((uint16_t)pinpos * 2));
 8001300:	68c2      	ldr	r2, [r0, #12]
      GPIOx->PUPDR |= (((uint32_t)GPIO_InitStruct->GPIO_PuPd) << (pinpos * 2));
 8001302:	f891 c007 	ldrb.w	ip, [r1, #7]
        GPIOx->OTYPER  &= ~((GPIO_OTYPER_OT_0) << ((uint16_t)pinpos)) ;
        GPIOx->OTYPER |= (uint16_t)(((uint16_t)GPIO_InitStruct->GPIO_OType) << ((uint16_t)pinpos));
      }

      /* Pull-up Pull down resistor configuration*/
      GPIOx->PUPDR &= ~(GPIO_PUPDR_PUPDR0 << ((uint16_t)pinpos * 2));
 8001306:	f022 7240 	bic.w	r2, r2, #50331648	; 0x3000000
 800130a:	60c2      	str	r2, [r0, #12]
      GPIOx->PUPDR |= (((uint32_t)GPIO_InitStruct->GPIO_PuPd) << (pinpos * 2));
 800130c:	68c2      	ldr	r2, [r0, #12]
  {
    pos = ((uint32_t)0x01) << pinpos;
    /* Get the port pins position */
    currentpin = (GPIO_InitStruct->GPIO_Pin) & pos;

    if (currentpin == pos)
 800130e:	f413 5f00 	tst.w	r3, #8192	; 0x2000
        GPIOx->OTYPER |= (uint16_t)(((uint16_t)GPIO_InitStruct->GPIO_OType) << ((uint16_t)pinpos));
      }

      /* Pull-up Pull down resistor configuration*/
      GPIOx->PUPDR &= ~(GPIO_PUPDR_PUPDR0 << ((uint16_t)pinpos * 2));
      GPIOx->PUPDR |= (((uint32_t)GPIO_InitStruct->GPIO_PuPd) << (pinpos * 2));
 8001312:	ea42 620c 	orr.w	r2, r2, ip, lsl #24
 8001316:	60c2      	str	r2, [r0, #12]
  {
    pos = ((uint32_t)0x01) << pinpos;
    /* Get the port pins position */
    currentpin = (GPIO_InitStruct->GPIO_Pin) & pos;

    if (currentpin == pos)
 8001318:	f43f ae65 	beq.w	8000fe6 <GPIO_Init+0x6e>
    {
      GPIOx->MODER  &= ~(GPIO_MODER_MODER0 << (pinpos * 2));
 800131c:	6804      	ldr	r4, [r0, #0]
      GPIOx->MODER |= (((uint32_t)GPIO_InitStruct->GPIO_Mode) << (pinpos * 2));
 800131e:	790a      	ldrb	r2, [r1, #4]
    /* Get the port pins position */
    currentpin = (GPIO_InitStruct->GPIO_Pin) & pos;

    if (currentpin == pos)
    {
      GPIOx->MODER  &= ~(GPIO_MODER_MODER0 << (pinpos * 2));
 8001320:	f024 6440 	bic.w	r4, r4, #201326592	; 0xc000000
 8001324:	6004      	str	r4, [r0, #0]
      GPIOx->MODER |= (((uint32_t)GPIO_InitStruct->GPIO_Mode) << (pinpos * 2));
 8001326:	6804      	ldr	r4, [r0, #0]

      if ((GPIO_InitStruct->GPIO_Mode == GPIO_Mode_OUT) || (GPIO_InitStruct->GPIO_Mode == GPIO_Mode_AF))
 8001328:	f102 3cff 	add.w	ip, r2, #4294967295
 800132c:	fa5f fc8c 	uxtb.w	ip, ip
    currentpin = (GPIO_InitStruct->GPIO_Pin) & pos;

    if (currentpin == pos)
    {
      GPIOx->MODER  &= ~(GPIO_MODER_MODER0 << (pinpos * 2));
      GPIOx->MODER |= (((uint32_t)GPIO_InitStruct->GPIO_Mode) << (pinpos * 2));
 8001330:	ea44 6282 	orr.w	r2, r4, r2, lsl #26

      if ((GPIO_InitStruct->GPIO_Mode == GPIO_Mode_OUT) || (GPIO_InitStruct->GPIO_Mode == GPIO_Mode_AF))
 8001334:	f1bc 0f01 	cmp.w	ip, #1
    currentpin = (GPIO_InitStruct->GPIO_Pin) & pos;

    if (currentpin == pos)
    {
      GPIOx->MODER  &= ~(GPIO_MODER_MODER0 << (pinpos * 2));
      GPIOx->MODER |= (((uint32_t)GPIO_InitStruct->GPIO_Mode) << (pinpos * 2));
 8001338:	6002      	str	r2, [r0, #0]

      if ((GPIO_InitStruct->GPIO_Mode == GPIO_Mode_OUT) || (GPIO_InitStruct->GPIO_Mode == GPIO_Mode_AF))
 800133a:	f240 815c 	bls.w	80015f6 <GPIO_Init+0x67e>
        GPIOx->OTYPER  &= ~((GPIO_OTYPER_OT_0) << ((uint16_t)pinpos)) ;
        GPIOx->OTYPER |= (uint16_t)(((uint16_t)GPIO_InitStruct->GPIO_OType) << ((uint16_t)pinpos));
      }

      /* Pull-up Pull down resistor configuration*/
      GPIOx->PUPDR &= ~(GPIO_PUPDR_PUPDR0 << ((uint16_t)pinpos * 2));
 800133e:	68c2      	ldr	r2, [r0, #12]
      GPIOx->PUPDR |= (((uint32_t)GPIO_InitStruct->GPIO_PuPd) << (pinpos * 2));
 8001340:	f891 c007 	ldrb.w	ip, [r1, #7]
        GPIOx->OTYPER  &= ~((GPIO_OTYPER_OT_0) << ((uint16_t)pinpos)) ;
        GPIOx->OTYPER |= (uint16_t)(((uint16_t)GPIO_InitStruct->GPIO_OType) << ((uint16_t)pinpos));
      }

      /* Pull-up Pull down resistor configuration*/
      GPIOx->PUPDR &= ~(GPIO_PUPDR_PUPDR0 << ((uint16_t)pinpos * 2));
 8001344:	f022 6240 	bic.w	r2, r2, #201326592	; 0xc000000
 8001348:	60c2      	str	r2, [r0, #12]
      GPIOx->PUPDR |= (((uint32_t)GPIO_InitStruct->GPIO_PuPd) << (pinpos * 2));
 800134a:	68c2      	ldr	r2, [r0, #12]
  {
    pos = ((uint32_t)0x01) << pinpos;
    /* Get the port pins position */
    currentpin = (GPIO_InitStruct->GPIO_Pin) & pos;

    if (currentpin == pos)
 800134c:	f413 4f80 	tst.w	r3, #16384	; 0x4000
        GPIOx->OTYPER |= (uint16_t)(((uint16_t)GPIO_InitStruct->GPIO_OType) << ((uint16_t)pinpos));
      }

      /* Pull-up Pull down resistor configuration*/
      GPIOx->PUPDR &= ~(GPIO_PUPDR_PUPDR0 << ((uint16_t)pinpos * 2));
      GPIOx->PUPDR |= (((uint32_t)GPIO_InitStruct->GPIO_PuPd) << (pinpos * 2));
 8001350:	ea42 628c 	orr.w	r2, r2, ip, lsl #26
 8001354:	60c2      	str	r2, [r0, #12]
  {
    pos = ((uint32_t)0x01) << pinpos;
    /* Get the port pins position */
    currentpin = (GPIO_InitStruct->GPIO_Pin) & pos;

    if (currentpin == pos)
 8001356:	f43f ae4a 	beq.w	8000fee <GPIO_Init+0x76>
    {
      GPIOx->MODER  &= ~(GPIO_MODER_MODER0 << (pinpos * 2));
 800135a:	6804      	ldr	r4, [r0, #0]
      GPIOx->MODER |= (((uint32_t)GPIO_InitStruct->GPIO_Mode) << (pinpos * 2));
 800135c:	790a      	ldrb	r2, [r1, #4]
    /* Get the port pins position */
    currentpin = (GPIO_InitStruct->GPIO_Pin) & pos;

    if (currentpin == pos)
    {
      GPIOx->MODER  &= ~(GPIO_MODER_MODER0 << (pinpos * 2));
 800135e:	f024 5440 	bic.w	r4, r4, #805306368	; 0x30000000
 8001362:	6004      	str	r4, [r0, #0]
      GPIOx->MODER |= (((uint32_t)GPIO_InitStruct->GPIO_Mode) << (pinpos * 2));
 8001364:	6804      	ldr	r4, [r0, #0]

      if ((GPIO_InitStruct->GPIO_Mode == GPIO_Mode_OUT) || (GPIO_InitStruct->GPIO_Mode == GPIO_Mode_AF))
 8001366:	f102 3cff 	add.w	ip, r2, #4294967295
 800136a:	fa5f fc8c 	uxtb.w	ip, ip
    currentpin = (GPIO_InitStruct->GPIO_Pin) & pos;

    if (currentpin == pos)
    {
      GPIOx->MODER  &= ~(GPIO_MODER_MODER0 << (pinpos * 2));
      GPIOx->MODER |= (((uint32_t)GPIO_InitStruct->GPIO_Mode) << (pinpos * 2));
 800136e:	ea44 7202 	orr.w	r2, r4, r2, lsl #28

      if ((GPIO_InitStruct->GPIO_Mode == GPIO_Mode_OUT) || (GPIO_InitStruct->GPIO_Mode == GPIO_Mode_AF))
 8001372:	f1bc 0f01 	cmp.w	ip, #1
    currentpin = (GPIO_InitStruct->GPIO_Pin) & pos;

    if (currentpin == pos)
    {
      GPIOx->MODER  &= ~(GPIO_MODER_MODER0 << (pinpos * 2));
      GPIOx->MODER |= (((uint32_t)GPIO_InitStruct->GPIO_Mode) << (pinpos * 2));
 8001376:	6002      	str	r2, [r0, #0]

      if ((GPIO_InitStruct->GPIO_Mode == GPIO_Mode_OUT) || (GPIO_InitStruct->GPIO_Mode == GPIO_Mode_AF))
 8001378:	f240 8155 	bls.w	8001626 <GPIO_Init+0x6ae>
        GPIOx->OTYPER  &= ~((GPIO_OTYPER_OT_0) << ((uint16_t)pinpos)) ;
        GPIOx->OTYPER |= (uint16_t)(((uint16_t)GPIO_InitStruct->GPIO_OType) << ((uint16_t)pinpos));
      }

      /* Pull-up Pull down resistor configuration*/
      GPIOx->PUPDR &= ~(GPIO_PUPDR_PUPDR0 << ((uint16_t)pinpos * 2));
 800137c:	68c2      	ldr	r2, [r0, #12]
      GPIOx->PUPDR |= (((uint32_t)GPIO_InitStruct->GPIO_PuPd) << (pinpos * 2));
 800137e:	f891 c007 	ldrb.w	ip, [r1, #7]
        GPIOx->OTYPER  &= ~((GPIO_OTYPER_OT_0) << ((uint16_t)pinpos)) ;
        GPIOx->OTYPER |= (uint16_t)(((uint16_t)GPIO_InitStruct->GPIO_OType) << ((uint16_t)pinpos));
      }

      /* Pull-up Pull down resistor configuration*/
      GPIOx->PUPDR &= ~(GPIO_PUPDR_PUPDR0 << ((uint16_t)pinpos * 2));
 8001382:	f022 5240 	bic.w	r2, r2, #805306368	; 0x30000000
 8001386:	60c2      	str	r2, [r0, #12]
      GPIOx->PUPDR |= (((uint32_t)GPIO_InitStruct->GPIO_PuPd) << (pinpos * 2));
 8001388:	68c2      	ldr	r2, [r0, #12]
  {
    pos = ((uint32_t)0x01) << pinpos;
    /* Get the port pins position */
    currentpin = (GPIO_InitStruct->GPIO_Pin) & pos;

    if (currentpin == pos)
 800138a:	f413 4f00 	tst.w	r3, #32768	; 0x8000
        GPIOx->OTYPER |= (uint16_t)(((uint16_t)GPIO_InitStruct->GPIO_OType) << ((uint16_t)pinpos));
      }

      /* Pull-up Pull down resistor configuration*/
      GPIOx->PUPDR &= ~(GPIO_PUPDR_PUPDR0 << ((uint16_t)pinpos * 2));
      GPIOx->PUPDR |= (((uint32_t)GPIO_InitStruct->GPIO_PuPd) << (pinpos * 2));
 800138e:	ea42 720c 	orr.w	r2, r2, ip, lsl #28
 8001392:	60c2      	str	r2, [r0, #12]
  {
    pos = ((uint32_t)0x01) << pinpos;
    /* Get the port pins position */
    currentpin = (GPIO_InitStruct->GPIO_Pin) & pos;

    if (currentpin == pos)
 8001394:	f43f ae2f 	beq.w	8000ff6 <GPIO_Init+0x7e>
    {
      GPIOx->MODER  &= ~(GPIO_MODER_MODER0 << (pinpos * 2));
 8001398:	6802      	ldr	r2, [r0, #0]
      GPIOx->MODER |= (((uint32_t)GPIO_InitStruct->GPIO_Mode) << (pinpos * 2));
 800139a:	790b      	ldrb	r3, [r1, #4]
    /* Get the port pins position */
    currentpin = (GPIO_InitStruct->GPIO_Pin) & pos;

    if (currentpin == pos)
    {
      GPIOx->MODER  &= ~(GPIO_MODER_MODER0 << (pinpos * 2));
 800139c:	f022 4440 	bic.w	r4, r2, #3221225472	; 0xc0000000
 80013a0:	6004      	str	r4, [r0, #0]
      GPIOx->MODER |= (((uint32_t)GPIO_InitStruct->GPIO_Mode) << (pinpos * 2));

      if ((GPIO_InitStruct->GPIO_Mode == GPIO_Mode_OUT) || (GPIO_InitStruct->GPIO_Mode == GPIO_Mode_AF))
 80013a2:	1e5a      	subs	r2, r3, #1
    currentpin = (GPIO_InitStruct->GPIO_Pin) & pos;

    if (currentpin == pos)
    {
      GPIOx->MODER  &= ~(GPIO_MODER_MODER0 << (pinpos * 2));
      GPIOx->MODER |= (((uint32_t)GPIO_InitStruct->GPIO_Mode) << (pinpos * 2));
 80013a4:	6804      	ldr	r4, [r0, #0]

      if ((GPIO_InitStruct->GPIO_Mode == GPIO_Mode_OUT) || (GPIO_InitStruct->GPIO_Mode == GPIO_Mode_AF))
 80013a6:	fa5f fc82 	uxtb.w	ip, r2
    currentpin = (GPIO_InitStruct->GPIO_Pin) & pos;

    if (currentpin == pos)
    {
      GPIOx->MODER  &= ~(GPIO_MODER_MODER0 << (pinpos * 2));
      GPIOx->MODER |= (((uint32_t)GPIO_InitStruct->GPIO_Mode) << (pinpos * 2));
 80013aa:	ea44 7383 	orr.w	r3, r4, r3, lsl #30

      if ((GPIO_InitStruct->GPIO_Mode == GPIO_Mode_OUT) || (GPIO_InitStruct->GPIO_Mode == GPIO_Mode_AF))
 80013ae:	f1bc 0f01 	cmp.w	ip, #1
    currentpin = (GPIO_InitStruct->GPIO_Pin) & pos;

    if (currentpin == pos)
    {
      GPIOx->MODER  &= ~(GPIO_MODER_MODER0 << (pinpos * 2));
      GPIOx->MODER |= (((uint32_t)GPIO_InitStruct->GPIO_Mode) << (pinpos * 2));
 80013b2:	6003      	str	r3, [r0, #0]

      if ((GPIO_InitStruct->GPIO_Mode == GPIO_Mode_OUT) || (GPIO_InitStruct->GPIO_Mode == GPIO_Mode_AF))
 80013b4:	f240 814f 	bls.w	8001656 <GPIO_Init+0x6de>
        GPIOx->OTYPER  &= ~((GPIO_OTYPER_OT_0) << ((uint16_t)pinpos)) ;
        GPIOx->OTYPER |= (uint16_t)(((uint16_t)GPIO_InitStruct->GPIO_OType) << ((uint16_t)pinpos));
      }

      /* Pull-up Pull down resistor configuration*/
      GPIOx->PUPDR &= ~(GPIO_PUPDR_PUPDR0 << ((uint16_t)pinpos * 2));
 80013b8:	68c3      	ldr	r3, [r0, #12]
      GPIOx->PUPDR |= (((uint32_t)GPIO_InitStruct->GPIO_PuPd) << (pinpos * 2));
 80013ba:	f891 c007 	ldrb.w	ip, [r1, #7]
        GPIOx->OTYPER  &= ~((GPIO_OTYPER_OT_0) << ((uint16_t)pinpos)) ;
        GPIOx->OTYPER |= (uint16_t)(((uint16_t)GPIO_InitStruct->GPIO_OType) << ((uint16_t)pinpos));
      }

      /* Pull-up Pull down resistor configuration*/
      GPIOx->PUPDR &= ~(GPIO_PUPDR_PUPDR0 << ((uint16_t)pinpos * 2));
 80013be:	f023 4240 	bic.w	r2, r3, #3221225472	; 0xc0000000
 80013c2:	60c2      	str	r2, [r0, #12]
      GPIOx->PUPDR |= (((uint32_t)GPIO_InitStruct->GPIO_PuPd) << (pinpos * 2));
 80013c4:	68c3      	ldr	r3, [r0, #12]
 80013c6:	ea43 718c 	orr.w	r1, r3, ip, lsl #30
 80013ca:	60c1      	str	r1, [r0, #12]
 80013cc:	e613      	b.n	8000ff6 <GPIO_Init+0x7e>
      {
        /* Check Speed mode parameters */
        assert_param(IS_GPIO_SPEED(GPIO_InitStruct->GPIO_Speed));

        /* Speed mode configuration */
        GPIOx->OSPEEDR &= ~(GPIO_OSPEEDER_OSPEEDR0 << (pinpos * 2));
 80013ce:	6884      	ldr	r4, [r0, #8]
        GPIOx->OSPEEDR |= ((uint32_t)(GPIO_InitStruct->GPIO_Speed) << (pinpos * 2));
 80013d0:	794a      	ldrb	r2, [r1, #5]
      {
        /* Check Speed mode parameters */
        assert_param(IS_GPIO_SPEED(GPIO_InitStruct->GPIO_Speed));

        /* Speed mode configuration */
        GPIOx->OSPEEDR &= ~(GPIO_OSPEEDER_OSPEEDR0 << (pinpos * 2));
 80013d2:	f024 0403 	bic.w	r4, r4, #3
 80013d6:	6084      	str	r4, [r0, #8]
        GPIOx->OSPEEDR |= ((uint32_t)(GPIO_InitStruct->GPIO_Speed) << (pinpos * 2));
 80013d8:	6884      	ldr	r4, [r0, #8]
        /* Check Output mode parameters */
        assert_param(IS_GPIO_OTYPE(GPIO_InitStruct->GPIO_OType));

        /* Output mode configuration*/
        GPIOx->OTYPER  &= ~((GPIO_OTYPER_OT_0) << ((uint16_t)pinpos)) ;
        GPIOx->OTYPER |= (uint16_t)(((uint16_t)GPIO_InitStruct->GPIO_OType) << ((uint16_t)pinpos));
 80013da:	f891 c006 	ldrb.w	ip, [r1, #6]
        /* Check Speed mode parameters */
        assert_param(IS_GPIO_SPEED(GPIO_InitStruct->GPIO_Speed));

        /* Speed mode configuration */
        GPIOx->OSPEEDR &= ~(GPIO_OSPEEDER_OSPEEDR0 << (pinpos * 2));
        GPIOx->OSPEEDR |= ((uint32_t)(GPIO_InitStruct->GPIO_Speed) << (pinpos * 2));
 80013de:	ea44 0202 	orr.w	r2, r4, r2
 80013e2:	6082      	str	r2, [r0, #8]

        /* Check Output mode parameters */
        assert_param(IS_GPIO_OTYPE(GPIO_InitStruct->GPIO_OType));

        /* Output mode configuration*/
        GPIOx->OTYPER  &= ~((GPIO_OTYPER_OT_0) << ((uint16_t)pinpos)) ;
 80013e4:	6842      	ldr	r2, [r0, #4]
 80013e6:	f022 0401 	bic.w	r4, r2, #1
 80013ea:	6044      	str	r4, [r0, #4]
        GPIOx->OTYPER |= (uint16_t)(((uint16_t)GPIO_InitStruct->GPIO_OType) << ((uint16_t)pinpos));
 80013ec:	6842      	ldr	r2, [r0, #4]
 80013ee:	ea4c 0402 	orr.w	r4, ip, r2
 80013f2:	6044      	str	r4, [r0, #4]
 80013f4:	e612      	b.n	800101c <GPIO_Init+0xa4>
      {
        /* Check Speed mode parameters */
        assert_param(IS_GPIO_SPEED(GPIO_InitStruct->GPIO_Speed));

        /* Speed mode configuration */
        GPIOx->OSPEEDR &= ~(GPIO_OSPEEDER_OSPEEDR0 << (pinpos * 2));
 80013f6:	6882      	ldr	r2, [r0, #8]
        GPIOx->OSPEEDR |= ((uint32_t)(GPIO_InitStruct->GPIO_Speed) << (pinpos * 2));
 80013f8:	794c      	ldrb	r4, [r1, #5]
      {
        /* Check Speed mode parameters */
        assert_param(IS_GPIO_SPEED(GPIO_InitStruct->GPIO_Speed));

        /* Speed mode configuration */
        GPIOx->OSPEEDR &= ~(GPIO_OSPEEDER_OSPEEDR0 << (pinpos * 2));
 80013fa:	f022 020c 	bic.w	r2, r2, #12
 80013fe:	6082      	str	r2, [r0, #8]
        GPIOx->OSPEEDR |= ((uint32_t)(GPIO_InitStruct->GPIO_Speed) << (pinpos * 2));
 8001400:	6882      	ldr	r2, [r0, #8]
        /* Check Output mode parameters */
        assert_param(IS_GPIO_OTYPE(GPIO_InitStruct->GPIO_OType));

        /* Output mode configuration*/
        GPIOx->OTYPER  &= ~((GPIO_OTYPER_OT_0) << ((uint16_t)pinpos)) ;
        GPIOx->OTYPER |= (uint16_t)(((uint16_t)GPIO_InitStruct->GPIO_OType) << ((uint16_t)pinpos));
 8001402:	f891 c006 	ldrb.w	ip, [r1, #6]
        /* Check Speed mode parameters */
        assert_param(IS_GPIO_SPEED(GPIO_InitStruct->GPIO_Speed));

        /* Speed mode configuration */
        GPIOx->OSPEEDR &= ~(GPIO_OSPEEDER_OSPEEDR0 << (pinpos * 2));
        GPIOx->OSPEEDR |= ((uint32_t)(GPIO_InitStruct->GPIO_Speed) << (pinpos * 2));
 8001406:	ea42 0284 	orr.w	r2, r2, r4, lsl #2
 800140a:	6082      	str	r2, [r0, #8]

        /* Check Output mode parameters */
        assert_param(IS_GPIO_OTYPE(GPIO_InitStruct->GPIO_OType));

        /* Output mode configuration*/
        GPIOx->OTYPER  &= ~((GPIO_OTYPER_OT_0) << ((uint16_t)pinpos)) ;
 800140c:	6842      	ldr	r2, [r0, #4]
 800140e:	f022 0202 	bic.w	r2, r2, #2
 8001412:	6042      	str	r2, [r0, #4]
        GPIOx->OTYPER |= (uint16_t)(((uint16_t)GPIO_InitStruct->GPIO_OType) << ((uint16_t)pinpos));
 8001414:	6842      	ldr	r2, [r0, #4]
 8001416:	ea42 024c 	orr.w	r2, r2, ip, lsl #1
 800141a:	6042      	str	r2, [r0, #4]
 800141c:	e61c      	b.n	8001058 <GPIO_Init+0xe0>
      {
        /* Check Speed mode parameters */
        assert_param(IS_GPIO_SPEED(GPIO_InitStruct->GPIO_Speed));

        /* Speed mode configuration */
        GPIOx->OSPEEDR &= ~(GPIO_OSPEEDER_OSPEEDR0 << (pinpos * 2));
 800141e:	6882      	ldr	r2, [r0, #8]
        GPIOx->OSPEEDR |= ((uint32_t)(GPIO_InitStruct->GPIO_Speed) << (pinpos * 2));
 8001420:	794c      	ldrb	r4, [r1, #5]
      {
        /* Check Speed mode parameters */
        assert_param(IS_GPIO_SPEED(GPIO_InitStruct->GPIO_Speed));

        /* Speed mode configuration */
        GPIOx->OSPEEDR &= ~(GPIO_OSPEEDER_OSPEEDR0 << (pinpos * 2));
 8001422:	f022 0230 	bic.w	r2, r2, #48	; 0x30
 8001426:	6082      	str	r2, [r0, #8]
        GPIOx->OSPEEDR |= ((uint32_t)(GPIO_InitStruct->GPIO_Speed) << (pinpos * 2));
 8001428:	6882      	ldr	r2, [r0, #8]
        /* Check Output mode parameters */
        assert_param(IS_GPIO_OTYPE(GPIO_InitStruct->GPIO_OType));

        /* Output mode configuration*/
        GPIOx->OTYPER  &= ~((GPIO_OTYPER_OT_0) << ((uint16_t)pinpos)) ;
        GPIOx->OTYPER |= (uint16_t)(((uint16_t)GPIO_InitStruct->GPIO_OType) << ((uint16_t)pinpos));
 800142a:	f891 c006 	ldrb.w	ip, [r1, #6]
        /* Check Speed mode parameters */
        assert_param(IS_GPIO_SPEED(GPIO_InitStruct->GPIO_Speed));

        /* Speed mode configuration */
        GPIOx->OSPEEDR &= ~(GPIO_OSPEEDER_OSPEEDR0 << (pinpos * 2));
        GPIOx->OSPEEDR |= ((uint32_t)(GPIO_InitStruct->GPIO_Speed) << (pinpos * 2));
 800142e:	ea42 1204 	orr.w	r2, r2, r4, lsl #4
 8001432:	6082      	str	r2, [r0, #8]

        /* Check Output mode parameters */
        assert_param(IS_GPIO_OTYPE(GPIO_InitStruct->GPIO_OType));

        /* Output mode configuration*/
        GPIOx->OTYPER  &= ~((GPIO_OTYPER_OT_0) << ((uint16_t)pinpos)) ;
 8001434:	6842      	ldr	r2, [r0, #4]
 8001436:	f022 0204 	bic.w	r2, r2, #4
 800143a:	6042      	str	r2, [r0, #4]
        GPIOx->OTYPER |= (uint16_t)(((uint16_t)GPIO_InitStruct->GPIO_OType) << ((uint16_t)pinpos));
 800143c:	6842      	ldr	r2, [r0, #4]
 800143e:	ea42 028c 	orr.w	r2, r2, ip, lsl #2
 8001442:	6042      	str	r2, [r0, #4]
 8001444:	e626      	b.n	8001094 <GPIO_Init+0x11c>
      {
        /* Check Speed mode parameters */
        assert_param(IS_GPIO_SPEED(GPIO_InitStruct->GPIO_Speed));

        /* Speed mode configuration */
        GPIOx->OSPEEDR &= ~(GPIO_OSPEEDER_OSPEEDR0 << (pinpos * 2));
 8001446:	6882      	ldr	r2, [r0, #8]
        GPIOx->OSPEEDR |= ((uint32_t)(GPIO_InitStruct->GPIO_Speed) << (pinpos * 2));
 8001448:	794c      	ldrb	r4, [r1, #5]
      {
        /* Check Speed mode parameters */
        assert_param(IS_GPIO_SPEED(GPIO_InitStruct->GPIO_Speed));

        /* Speed mode configuration */
        GPIOx->OSPEEDR &= ~(GPIO_OSPEEDER_OSPEEDR0 << (pinpos * 2));
 800144a:	f022 02c0 	bic.w	r2, r2, #192	; 0xc0
 800144e:	6082      	str	r2, [r0, #8]
        GPIOx->OSPEEDR |= ((uint32_t)(GPIO_InitStruct->GPIO_Speed) << (pinpos * 2));
 8001450:	6882      	ldr	r2, [r0, #8]
        /* Check Output mode parameters */
        assert_param(IS_GPIO_OTYPE(GPIO_InitStruct->GPIO_OType));

        /* Output mode configuration*/
        GPIOx->OTYPER  &= ~((GPIO_OTYPER_OT_0) << ((uint16_t)pinpos)) ;
        GPIOx->OTYPER |= (uint16_t)(((uint16_t)GPIO_InitStruct->GPIO_OType) << ((uint16_t)pinpos));
 8001452:	f891 c006 	ldrb.w	ip, [r1, #6]
        /* Check Speed mode parameters */
        assert_param(IS_GPIO_SPEED(GPIO_InitStruct->GPIO_Speed));

        /* Speed mode configuration */
        GPIOx->OSPEEDR &= ~(GPIO_OSPEEDER_OSPEEDR0 << (pinpos * 2));
        GPIOx->OSPEEDR |= ((uint32_t)(GPIO_InitStruct->GPIO_Speed) << (pinpos * 2));
 8001456:	ea42 1284 	orr.w	r2, r2, r4, lsl #6
 800145a:	6082      	str	r2, [r0, #8]

        /* Check Output mode parameters */
        assert_param(IS_GPIO_OTYPE(GPIO_InitStruct->GPIO_OType));

        /* Output mode configuration*/
        GPIOx->OTYPER  &= ~((GPIO_OTYPER_OT_0) << ((uint16_t)pinpos)) ;
 800145c:	6842      	ldr	r2, [r0, #4]
 800145e:	f022 0208 	bic.w	r2, r2, #8
 8001462:	6042      	str	r2, [r0, #4]
        GPIOx->OTYPER |= (uint16_t)(((uint16_t)GPIO_InitStruct->GPIO_OType) << ((uint16_t)pinpos));
 8001464:	6842      	ldr	r2, [r0, #4]
 8001466:	ea42 02cc 	orr.w	r2, r2, ip, lsl #3
 800146a:	6042      	str	r2, [r0, #4]
 800146c:	e631      	b.n	80010d2 <GPIO_Init+0x15a>
      {
        /* Check Speed mode parameters */
        assert_param(IS_GPIO_SPEED(GPIO_InitStruct->GPIO_Speed));

        /* Speed mode configuration */
        GPIOx->OSPEEDR &= ~(GPIO_OSPEEDER_OSPEEDR0 << (pinpos * 2));
 800146e:	6882      	ldr	r2, [r0, #8]
        GPIOx->OSPEEDR |= ((uint32_t)(GPIO_InitStruct->GPIO_Speed) << (pinpos * 2));
 8001470:	794c      	ldrb	r4, [r1, #5]
      {
        /* Check Speed mode parameters */
        assert_param(IS_GPIO_SPEED(GPIO_InitStruct->GPIO_Speed));

        /* Speed mode configuration */
        GPIOx->OSPEEDR &= ~(GPIO_OSPEEDER_OSPEEDR0 << (pinpos * 2));
 8001472:	f422 7240 	bic.w	r2, r2, #768	; 0x300
 8001476:	6082      	str	r2, [r0, #8]
        GPIOx->OSPEEDR |= ((uint32_t)(GPIO_InitStruct->GPIO_Speed) << (pinpos * 2));
 8001478:	6882      	ldr	r2, [r0, #8]
        /* Check Output mode parameters */
        assert_param(IS_GPIO_OTYPE(GPIO_InitStruct->GPIO_OType));

        /* Output mode configuration*/
        GPIOx->OTYPER  &= ~((GPIO_OTYPER_OT_0) << ((uint16_t)pinpos)) ;
        GPIOx->OTYPER |= (uint16_t)(((uint16_t)GPIO_InitStruct->GPIO_OType) << ((uint16_t)pinpos));
 800147a:	f891 c006 	ldrb.w	ip, [r1, #6]
        /* Check Speed mode parameters */
        assert_param(IS_GPIO_SPEED(GPIO_InitStruct->GPIO_Speed));

        /* Speed mode configuration */
        GPIOx->OSPEEDR &= ~(GPIO_OSPEEDER_OSPEEDR0 << (pinpos * 2));
        GPIOx->OSPEEDR |= ((uint32_t)(GPIO_InitStruct->GPIO_Speed) << (pinpos * 2));
 800147e:	ea42 2204 	orr.w	r2, r2, r4, lsl #8
 8001482:	6082      	str	r2, [r0, #8]

        /* Check Output mode parameters */
        assert_param(IS_GPIO_OTYPE(GPIO_InitStruct->GPIO_OType));

        /* Output mode configuration*/
        GPIOx->OTYPER  &= ~((GPIO_OTYPER_OT_0) << ((uint16_t)pinpos)) ;
 8001484:	6842      	ldr	r2, [r0, #4]
 8001486:	f022 0210 	bic.w	r2, r2, #16
 800148a:	6042      	str	r2, [r0, #4]
        GPIOx->OTYPER |= (uint16_t)(((uint16_t)GPIO_InitStruct->GPIO_OType) << ((uint16_t)pinpos));
 800148c:	6842      	ldr	r2, [r0, #4]
 800148e:	ea42 120c 	orr.w	r2, r2, ip, lsl #4
 8001492:	6042      	str	r2, [r0, #4]
 8001494:	e63c      	b.n	8001110 <GPIO_Init+0x198>
      {
        /* Check Speed mode parameters */
        assert_param(IS_GPIO_SPEED(GPIO_InitStruct->GPIO_Speed));

        /* Speed mode configuration */
        GPIOx->OSPEEDR &= ~(GPIO_OSPEEDER_OSPEEDR0 << (pinpos * 2));
 8001496:	6882      	ldr	r2, [r0, #8]
        GPIOx->OSPEEDR |= ((uint32_t)(GPIO_InitStruct->GPIO_Speed) << (pinpos * 2));
 8001498:	794c      	ldrb	r4, [r1, #5]
      {
        /* Check Speed mode parameters */
        assert_param(IS_GPIO_SPEED(GPIO_InitStruct->GPIO_Speed));

        /* Speed mode configuration */
        GPIOx->OSPEEDR &= ~(GPIO_OSPEEDER_OSPEEDR0 << (pinpos * 2));
 800149a:	f422 6240 	bic.w	r2, r2, #3072	; 0xc00
 800149e:	6082      	str	r2, [r0, #8]
        GPIOx->OSPEEDR |= ((uint32_t)(GPIO_InitStruct->GPIO_Speed) << (pinpos * 2));
 80014a0:	6882      	ldr	r2, [r0, #8]
        /* Check Output mode parameters */
        assert_param(IS_GPIO_OTYPE(GPIO_InitStruct->GPIO_OType));

        /* Output mode configuration*/
        GPIOx->OTYPER  &= ~((GPIO_OTYPER_OT_0) << ((uint16_t)pinpos)) ;
        GPIOx->OTYPER |= (uint16_t)(((uint16_t)GPIO_InitStruct->GPIO_OType) << ((uint16_t)pinpos));
 80014a2:	f891 c006 	ldrb.w	ip, [r1, #6]
        /* Check Speed mode parameters */
        assert_param(IS_GPIO_SPEED(GPIO_InitStruct->GPIO_Speed));

        /* Speed mode configuration */
        GPIOx->OSPEEDR &= ~(GPIO_OSPEEDER_OSPEEDR0 << (pinpos * 2));
        GPIOx->OSPEEDR |= ((uint32_t)(GPIO_InitStruct->GPIO_Speed) << (pinpos * 2));
 80014a6:	ea42 2284 	orr.w	r2, r2, r4, lsl #10
 80014aa:	6082      	str	r2, [r0, #8]

        /* Check Output mode parameters */
        assert_param(IS_GPIO_OTYPE(GPIO_InitStruct->GPIO_OType));

        /* Output mode configuration*/
        GPIOx->OTYPER  &= ~((GPIO_OTYPER_OT_0) << ((uint16_t)pinpos)) ;
 80014ac:	6842      	ldr	r2, [r0, #4]
 80014ae:	f022 0220 	bic.w	r2, r2, #32
 80014b2:	6042      	str	r2, [r0, #4]
        GPIOx->OTYPER |= (uint16_t)(((uint16_t)GPIO_InitStruct->GPIO_OType) << ((uint16_t)pinpos));
 80014b4:	6842      	ldr	r2, [r0, #4]
 80014b6:	ea42 124c 	orr.w	r2, r2, ip, lsl #5
 80014ba:	6042      	str	r2, [r0, #4]
 80014bc:	e647      	b.n	800114e <GPIO_Init+0x1d6>
      {
        /* Check Speed mode parameters */
        assert_param(IS_GPIO_SPEED(GPIO_InitStruct->GPIO_Speed));

        /* Speed mode configuration */
        GPIOx->OSPEEDR &= ~(GPIO_OSPEEDER_OSPEEDR0 << (pinpos * 2));
 80014be:	6882      	ldr	r2, [r0, #8]
        GPIOx->OSPEEDR |= ((uint32_t)(GPIO_InitStruct->GPIO_Speed) << (pinpos * 2));
 80014c0:	794c      	ldrb	r4, [r1, #5]
      {
        /* Check Speed mode parameters */
        assert_param(IS_GPIO_SPEED(GPIO_InitStruct->GPIO_Speed));

        /* Speed mode configuration */
        GPIOx->OSPEEDR &= ~(GPIO_OSPEEDER_OSPEEDR0 << (pinpos * 2));
 80014c2:	f422 5240 	bic.w	r2, r2, #12288	; 0x3000
 80014c6:	6082      	str	r2, [r0, #8]
        GPIOx->OSPEEDR |= ((uint32_t)(GPIO_InitStruct->GPIO_Speed) << (pinpos * 2));
 80014c8:	6882      	ldr	r2, [r0, #8]
        /* Check Output mode parameters */
        assert_param(IS_GPIO_OTYPE(GPIO_InitStruct->GPIO_OType));

        /* Output mode configuration*/
        GPIOx->OTYPER  &= ~((GPIO_OTYPER_OT_0) << ((uint16_t)pinpos)) ;
        GPIOx->OTYPER |= (uint16_t)(((uint16_t)GPIO_InitStruct->GPIO_OType) << ((uint16_t)pinpos));
 80014ca:	f891 c006 	ldrb.w	ip, [r1, #6]
        /* Check Speed mode parameters */
        assert_param(IS_GPIO_SPEED(GPIO_InitStruct->GPIO_Speed));

        /* Speed mode configuration */
        GPIOx->OSPEEDR &= ~(GPIO_OSPEEDER_OSPEEDR0 << (pinpos * 2));
        GPIOx->OSPEEDR |= ((uint32_t)(GPIO_InitStruct->GPIO_Speed) << (pinpos * 2));
 80014ce:	ea42 3204 	orr.w	r2, r2, r4, lsl #12
 80014d2:	6082      	str	r2, [r0, #8]

        /* Check Output mode parameters */
        assert_param(IS_GPIO_OTYPE(GPIO_InitStruct->GPIO_OType));

        /* Output mode configuration*/
        GPIOx->OTYPER  &= ~((GPIO_OTYPER_OT_0) << ((uint16_t)pinpos)) ;
 80014d4:	6842      	ldr	r2, [r0, #4]
 80014d6:	f022 0240 	bic.w	r2, r2, #64	; 0x40
 80014da:	6042      	str	r2, [r0, #4]
        GPIOx->OTYPER |= (uint16_t)(((uint16_t)GPIO_InitStruct->GPIO_OType) << ((uint16_t)pinpos));
 80014dc:	6842      	ldr	r2, [r0, #4]
 80014de:	ea42 128c 	orr.w	r2, r2, ip, lsl #6
 80014e2:	6042      	str	r2, [r0, #4]
 80014e4:	e652      	b.n	800118c <GPIO_Init+0x214>
      {
        /* Check Speed mode parameters */
        assert_param(IS_GPIO_SPEED(GPIO_InitStruct->GPIO_Speed));

        /* Speed mode configuration */
        GPIOx->OSPEEDR &= ~(GPIO_OSPEEDER_OSPEEDR0 << (pinpos * 2));
 80014e6:	6882      	ldr	r2, [r0, #8]
        GPIOx->OSPEEDR |= ((uint32_t)(GPIO_InitStruct->GPIO_Speed) << (pinpos * 2));
 80014e8:	794c      	ldrb	r4, [r1, #5]
      {
        /* Check Speed mode parameters */
        assert_param(IS_GPIO_SPEED(GPIO_InitStruct->GPIO_Speed));

        /* Speed mode configuration */
        GPIOx->OSPEEDR &= ~(GPIO_OSPEEDER_OSPEEDR0 << (pinpos * 2));
 80014ea:	f422 4240 	bic.w	r2, r2, #49152	; 0xc000
 80014ee:	6082      	str	r2, [r0, #8]
        GPIOx->OSPEEDR |= ((uint32_t)(GPIO_InitStruct->GPIO_Speed) << (pinpos * 2));
 80014f0:	6882      	ldr	r2, [r0, #8]
        /* Check Output mode parameters */
        assert_param(IS_GPIO_OTYPE(GPIO_InitStruct->GPIO_OType));

        /* Output mode configuration*/
        GPIOx->OTYPER  &= ~((GPIO_OTYPER_OT_0) << ((uint16_t)pinpos)) ;
        GPIOx->OTYPER |= (uint16_t)(((uint16_t)GPIO_InitStruct->GPIO_OType) << ((uint16_t)pinpos));
 80014f2:	f891 c006 	ldrb.w	ip, [r1, #6]
        /* Check Speed mode parameters */
        assert_param(IS_GPIO_SPEED(GPIO_InitStruct->GPIO_Speed));

        /* Speed mode configuration */
        GPIOx->OSPEEDR &= ~(GPIO_OSPEEDER_OSPEEDR0 << (pinpos * 2));
        GPIOx->OSPEEDR |= ((uint32_t)(GPIO_InitStruct->GPIO_Speed) << (pinpos * 2));
 80014f6:	ea42 3284 	orr.w	r2, r2, r4, lsl #14
 80014fa:	6082      	str	r2, [r0, #8]

        /* Check Output mode parameters */
        assert_param(IS_GPIO_OTYPE(GPIO_InitStruct->GPIO_OType));

        /* Output mode configuration*/
        GPIOx->OTYPER  &= ~((GPIO_OTYPER_OT_0) << ((uint16_t)pinpos)) ;
 80014fc:	6842      	ldr	r2, [r0, #4]
 80014fe:	f022 0280 	bic.w	r2, r2, #128	; 0x80
 8001502:	6042      	str	r2, [r0, #4]
        GPIOx->OTYPER |= (uint16_t)(((uint16_t)GPIO_InitStruct->GPIO_OType) << ((uint16_t)pinpos));
 8001504:	6842      	ldr	r2, [r0, #4]
 8001506:	ea42 12cc 	orr.w	r2, r2, ip, lsl #7
 800150a:	6042      	str	r2, [r0, #4]
 800150c:	e65d      	b.n	80011ca <GPIO_Init+0x252>
      {
        /* Check Speed mode parameters */
        assert_param(IS_GPIO_SPEED(GPIO_InitStruct->GPIO_Speed));

        /* Speed mode configuration */
        GPIOx->OSPEEDR &= ~(GPIO_OSPEEDER_OSPEEDR0 << (pinpos * 2));
 800150e:	6882      	ldr	r2, [r0, #8]
        GPIOx->OSPEEDR |= ((uint32_t)(GPIO_InitStruct->GPIO_Speed) << (pinpos * 2));
 8001510:	794c      	ldrb	r4, [r1, #5]
      {
        /* Check Speed mode parameters */
        assert_param(IS_GPIO_SPEED(GPIO_InitStruct->GPIO_Speed));

        /* Speed mode configuration */
        GPIOx->OSPEEDR &= ~(GPIO_OSPEEDER_OSPEEDR0 << (pinpos * 2));
 8001512:	f422 3240 	bic.w	r2, r2, #196608	; 0x30000
 8001516:	6082      	str	r2, [r0, #8]
        GPIOx->OSPEEDR |= ((uint32_t)(GPIO_InitStruct->GPIO_Speed) << (pinpos * 2));
 8001518:	6882      	ldr	r2, [r0, #8]
        /* Check Output mode parameters */
        assert_param(IS_GPIO_OTYPE(GPIO_InitStruct->GPIO_OType));

        /* Output mode configuration*/
        GPIOx->OTYPER  &= ~((GPIO_OTYPER_OT_0) << ((uint16_t)pinpos)) ;
        GPIOx->OTYPER |= (uint16_t)(((uint16_t)GPIO_InitStruct->GPIO_OType) << ((uint16_t)pinpos));
 800151a:	f891 c006 	ldrb.w	ip, [r1, #6]
        /* Check Speed mode parameters */
        assert_param(IS_GPIO_SPEED(GPIO_InitStruct->GPIO_Speed));

        /* Speed mode configuration */
        GPIOx->OSPEEDR &= ~(GPIO_OSPEEDER_OSPEEDR0 << (pinpos * 2));
        GPIOx->OSPEEDR |= ((uint32_t)(GPIO_InitStruct->GPIO_Speed) << (pinpos * 2));
 800151e:	ea42 4204 	orr.w	r2, r2, r4, lsl #16
 8001522:	6082      	str	r2, [r0, #8]

        /* Check Output mode parameters */
        assert_param(IS_GPIO_OTYPE(GPIO_InitStruct->GPIO_OType));

        /* Output mode configuration*/
        GPIOx->OTYPER  &= ~((GPIO_OTYPER_OT_0) << ((uint16_t)pinpos)) ;
 8001524:	6842      	ldr	r2, [r0, #4]
 8001526:	f422 7280 	bic.w	r2, r2, #256	; 0x100
 800152a:	6042      	str	r2, [r0, #4]
        GPIOx->OTYPER |= (uint16_t)(((uint16_t)GPIO_InitStruct->GPIO_OType) << ((uint16_t)pinpos));
 800152c:	6842      	ldr	r2, [r0, #4]
 800152e:	ea42 220c 	orr.w	r2, r2, ip, lsl #8
 8001532:	6042      	str	r2, [r0, #4]
 8001534:	e668      	b.n	8001208 <GPIO_Init+0x290>
      {
        /* Check Speed mode parameters */
        assert_param(IS_GPIO_SPEED(GPIO_InitStruct->GPIO_Speed));

        /* Speed mode configuration */
        GPIOx->OSPEEDR &= ~(GPIO_OSPEEDER_OSPEEDR0 << (pinpos * 2));
 8001536:	6882      	ldr	r2, [r0, #8]
        GPIOx->OSPEEDR |= ((uint32_t)(GPIO_InitStruct->GPIO_Speed) << (pinpos * 2));
 8001538:	794c      	ldrb	r4, [r1, #5]
      {
        /* Check Speed mode parameters */
        assert_param(IS_GPIO_SPEED(GPIO_InitStruct->GPIO_Speed));

        /* Speed mode configuration */
        GPIOx->OSPEEDR &= ~(GPIO_OSPEEDER_OSPEEDR0 << (pinpos * 2));
 800153a:	f422 2240 	bic.w	r2, r2, #786432	; 0xc0000
 800153e:	6082      	str	r2, [r0, #8]
        GPIOx->OSPEEDR |= ((uint32_t)(GPIO_InitStruct->GPIO_Speed) << (pinpos * 2));
 8001540:	6882      	ldr	r2, [r0, #8]
        /* Check Output mode parameters */
        assert_param(IS_GPIO_OTYPE(GPIO_InitStruct->GPIO_OType));

        /* Output mode configuration*/
        GPIOx->OTYPER  &= ~((GPIO_OTYPER_OT_0) << ((uint16_t)pinpos)) ;
        GPIOx->OTYPER |= (uint16_t)(((uint16_t)GPIO_InitStruct->GPIO_OType) << ((uint16_t)pinpos));
 8001542:	f891 c006 	ldrb.w	ip, [r1, #6]
        /* Check Speed mode parameters */
        assert_param(IS_GPIO_SPEED(GPIO_InitStruct->GPIO_Speed));

        /* Speed mode configuration */
        GPIOx->OSPEEDR &= ~(GPIO_OSPEEDER_OSPEEDR0 << (pinpos * 2));
        GPIOx->OSPEEDR |= ((uint32_t)(GPIO_InitStruct->GPIO_Speed) << (pinpos * 2));
 8001546:	ea42 4284 	orr.w	r2, r2, r4, lsl #18
 800154a:	6082      	str	r2, [r0, #8]

        /* Check Output mode parameters */
        assert_param(IS_GPIO_OTYPE(GPIO_InitStruct->GPIO_OType));

        /* Output mode configuration*/
        GPIOx->OTYPER  &= ~((GPIO_OTYPER_OT_0) << ((uint16_t)pinpos)) ;
 800154c:	6842      	ldr	r2, [r0, #4]
        GPIOx->OTYPER |= (uint16_t)(((uint16_t)GPIO_InitStruct->GPIO_OType) << ((uint16_t)pinpos));
 800154e:	ea4f 2c4c 	mov.w	ip, ip, lsl #9

        /* Check Output mode parameters */
        assert_param(IS_GPIO_OTYPE(GPIO_InitStruct->GPIO_OType));

        /* Output mode configuration*/
        GPIOx->OTYPER  &= ~((GPIO_OTYPER_OT_0) << ((uint16_t)pinpos)) ;
 8001552:	f422 7200 	bic.w	r2, r2, #512	; 0x200
 8001556:	6042      	str	r2, [r0, #4]
        GPIOx->OTYPER |= (uint16_t)(((uint16_t)GPIO_InitStruct->GPIO_OType) << ((uint16_t)pinpos));
 8001558:	6842      	ldr	r2, [r0, #4]
 800155a:	fa1f fc8c 	uxth.w	ip, ip
 800155e:	ea4c 0202 	orr.w	r2, ip, r2
 8001562:	6042      	str	r2, [r0, #4]
 8001564:	e66f      	b.n	8001246 <GPIO_Init+0x2ce>
      {
        /* Check Speed mode parameters */
        assert_param(IS_GPIO_SPEED(GPIO_InitStruct->GPIO_Speed));

        /* Speed mode configuration */
        GPIOx->OSPEEDR &= ~(GPIO_OSPEEDER_OSPEEDR0 << (pinpos * 2));
 8001566:	6882      	ldr	r2, [r0, #8]
        GPIOx->OSPEEDR |= ((uint32_t)(GPIO_InitStruct->GPIO_Speed) << (pinpos * 2));
 8001568:	794c      	ldrb	r4, [r1, #5]
      {
        /* Check Speed mode parameters */
        assert_param(IS_GPIO_SPEED(GPIO_InitStruct->GPIO_Speed));

        /* Speed mode configuration */
        GPIOx->OSPEEDR &= ~(GPIO_OSPEEDER_OSPEEDR0 << (pinpos * 2));
 800156a:	f422 1240 	bic.w	r2, r2, #3145728	; 0x300000
 800156e:	6082      	str	r2, [r0, #8]
        GPIOx->OSPEEDR |= ((uint32_t)(GPIO_InitStruct->GPIO_Speed) << (pinpos * 2));
 8001570:	6882      	ldr	r2, [r0, #8]
        /* Check Output mode parameters */
        assert_param(IS_GPIO_OTYPE(GPIO_InitStruct->GPIO_OType));

        /* Output mode configuration*/
        GPIOx->OTYPER  &= ~((GPIO_OTYPER_OT_0) << ((uint16_t)pinpos)) ;
        GPIOx->OTYPER |= (uint16_t)(((uint16_t)GPIO_InitStruct->GPIO_OType) << ((uint16_t)pinpos));
 8001572:	f891 c006 	ldrb.w	ip, [r1, #6]
        /* Check Speed mode parameters */
        assert_param(IS_GPIO_SPEED(GPIO_InitStruct->GPIO_Speed));

        /* Speed mode configuration */
        GPIOx->OSPEEDR &= ~(GPIO_OSPEEDER_OSPEEDR0 << (pinpos * 2));
        GPIOx->OSPEEDR |= ((uint32_t)(GPIO_InitStruct->GPIO_Speed) << (pinpos * 2));
 8001576:	ea42 5204 	orr.w	r2, r2, r4, lsl #20
 800157a:	6082      	str	r2, [r0, #8]

        /* Check Output mode parameters */
        assert_param(IS_GPIO_OTYPE(GPIO_InitStruct->GPIO_OType));

        /* Output mode configuration*/
        GPIOx->OTYPER  &= ~((GPIO_OTYPER_OT_0) << ((uint16_t)pinpos)) ;
 800157c:	6842      	ldr	r2, [r0, #4]
        GPIOx->OTYPER |= (uint16_t)(((uint16_t)GPIO_InitStruct->GPIO_OType) << ((uint16_t)pinpos));
 800157e:	ea4f 2c8c 	mov.w	ip, ip, lsl #10

        /* Check Output mode parameters */
        assert_param(IS_GPIO_OTYPE(GPIO_InitStruct->GPIO_OType));

        /* Output mode configuration*/
        GPIOx->OTYPER  &= ~((GPIO_OTYPER_OT_0) << ((uint16_t)pinpos)) ;
 8001582:	f422 6280 	bic.w	r2, r2, #1024	; 0x400
 8001586:	6042      	str	r2, [r0, #4]
        GPIOx->OTYPER |= (uint16_t)(((uint16_t)GPIO_InitStruct->GPIO_OType) << ((uint16_t)pinpos));
 8001588:	6842      	ldr	r2, [r0, #4]
 800158a:	fa1f fc8c 	uxth.w	ip, ip
 800158e:	ea4c 0202 	orr.w	r2, ip, r2
 8001592:	6042      	str	r2, [r0, #4]
 8001594:	e676      	b.n	8001284 <GPIO_Init+0x30c>
      {
        /* Check Speed mode parameters */
        assert_param(IS_GPIO_SPEED(GPIO_InitStruct->GPIO_Speed));

        /* Speed mode configuration */
        GPIOx->OSPEEDR &= ~(GPIO_OSPEEDER_OSPEEDR0 << (pinpos * 2));
 8001596:	6882      	ldr	r2, [r0, #8]
        GPIOx->OSPEEDR |= ((uint32_t)(GPIO_InitStruct->GPIO_Speed) << (pinpos * 2));
 8001598:	794c      	ldrb	r4, [r1, #5]
      {
        /* Check Speed mode parameters */
        assert_param(IS_GPIO_SPEED(GPIO_InitStruct->GPIO_Speed));

        /* Speed mode configuration */
        GPIOx->OSPEEDR &= ~(GPIO_OSPEEDER_OSPEEDR0 << (pinpos * 2));
 800159a:	f422 0240 	bic.w	r2, r2, #12582912	; 0xc00000
 800159e:	6082      	str	r2, [r0, #8]
        GPIOx->OSPEEDR |= ((uint32_t)(GPIO_InitStruct->GPIO_Speed) << (pinpos * 2));
 80015a0:	6882      	ldr	r2, [r0, #8]
        /* Check Output mode parameters */
        assert_param(IS_GPIO_OTYPE(GPIO_InitStruct->GPIO_OType));

        /* Output mode configuration*/
        GPIOx->OTYPER  &= ~((GPIO_OTYPER_OT_0) << ((uint16_t)pinpos)) ;
        GPIOx->OTYPER |= (uint16_t)(((uint16_t)GPIO_InitStruct->GPIO_OType) << ((uint16_t)pinpos));
 80015a2:	f891 c006 	ldrb.w	ip, [r1, #6]
        /* Check Speed mode parameters */
        assert_param(IS_GPIO_SPEED(GPIO_InitStruct->GPIO_Speed));

        /* Speed mode configuration */
        GPIOx->OSPEEDR &= ~(GPIO_OSPEEDER_OSPEEDR0 << (pinpos * 2));
        GPIOx->OSPEEDR |= ((uint32_t)(GPIO_InitStruct->GPIO_Speed) << (pinpos * 2));
 80015a6:	ea42 5284 	orr.w	r2, r2, r4, lsl #22
 80015aa:	6082      	str	r2, [r0, #8]

        /* Check Output mode parameters */
        assert_param(IS_GPIO_OTYPE(GPIO_InitStruct->GPIO_OType));

        /* Output mode configuration*/
        GPIOx->OTYPER  &= ~((GPIO_OTYPER_OT_0) << ((uint16_t)pinpos)) ;
 80015ac:	6842      	ldr	r2, [r0, #4]
        GPIOx->OTYPER |= (uint16_t)(((uint16_t)GPIO_InitStruct->GPIO_OType) << ((uint16_t)pinpos));
 80015ae:	ea4f 2ccc 	mov.w	ip, ip, lsl #11

        /* Check Output mode parameters */
        assert_param(IS_GPIO_OTYPE(GPIO_InitStruct->GPIO_OType));

        /* Output mode configuration*/
        GPIOx->OTYPER  &= ~((GPIO_OTYPER_OT_0) << ((uint16_t)pinpos)) ;
 80015b2:	f422 6200 	bic.w	r2, r2, #2048	; 0x800
 80015b6:	6042      	str	r2, [r0, #4]
        GPIOx->OTYPER |= (uint16_t)(((uint16_t)GPIO_InitStruct->GPIO_OType) << ((uint16_t)pinpos));
 80015b8:	6842      	ldr	r2, [r0, #4]
 80015ba:	fa1f fc8c 	uxth.w	ip, ip
 80015be:	ea4c 0202 	orr.w	r2, ip, r2
 80015c2:	6042      	str	r2, [r0, #4]
 80015c4:	e67d      	b.n	80012c2 <GPIO_Init+0x34a>
      {
        /* Check Speed mode parameters */
        assert_param(IS_GPIO_SPEED(GPIO_InitStruct->GPIO_Speed));

        /* Speed mode configuration */
        GPIOx->OSPEEDR &= ~(GPIO_OSPEEDER_OSPEEDR0 << (pinpos * 2));
 80015c6:	6882      	ldr	r2, [r0, #8]
        GPIOx->OSPEEDR |= ((uint32_t)(GPIO_InitStruct->GPIO_Speed) << (pinpos * 2));
 80015c8:	794c      	ldrb	r4, [r1, #5]
      {
        /* Check Speed mode parameters */
        assert_param(IS_GPIO_SPEED(GPIO_InitStruct->GPIO_Speed));

        /* Speed mode configuration */
        GPIOx->OSPEEDR &= ~(GPIO_OSPEEDER_OSPEEDR0 << (pinpos * 2));
 80015ca:	f022 7240 	bic.w	r2, r2, #50331648	; 0x3000000
 80015ce:	6082      	str	r2, [r0, #8]
        GPIOx->OSPEEDR |= ((uint32_t)(GPIO_InitStruct->GPIO_Speed) << (pinpos * 2));
 80015d0:	6882      	ldr	r2, [r0, #8]
        /* Check Output mode parameters */
        assert_param(IS_GPIO_OTYPE(GPIO_InitStruct->GPIO_OType));

        /* Output mode configuration*/
        GPIOx->OTYPER  &= ~((GPIO_OTYPER_OT_0) << ((uint16_t)pinpos)) ;
        GPIOx->OTYPER |= (uint16_t)(((uint16_t)GPIO_InitStruct->GPIO_OType) << ((uint16_t)pinpos));
 80015d2:	f891 c006 	ldrb.w	ip, [r1, #6]
        /* Check Speed mode parameters */
        assert_param(IS_GPIO_SPEED(GPIO_InitStruct->GPIO_Speed));

        /* Speed mode configuration */
        GPIOx->OSPEEDR &= ~(GPIO_OSPEEDER_OSPEEDR0 << (pinpos * 2));
        GPIOx->OSPEEDR |= ((uint32_t)(GPIO_InitStruct->GPIO_Speed) << (pinpos * 2));
 80015d6:	ea42 6204 	orr.w	r2, r2, r4, lsl #24
 80015da:	6082      	str	r2, [r0, #8]

        /* Check Output mode parameters */
        assert_param(IS_GPIO_OTYPE(GPIO_InitStruct->GPIO_OType));

        /* Output mode configuration*/
        GPIOx->OTYPER  &= ~((GPIO_OTYPER_OT_0) << ((uint16_t)pinpos)) ;
 80015dc:	6842      	ldr	r2, [r0, #4]
        GPIOx->OTYPER |= (uint16_t)(((uint16_t)GPIO_InitStruct->GPIO_OType) << ((uint16_t)pinpos));
 80015de:	ea4f 3c0c 	mov.w	ip, ip, lsl #12

        /* Check Output mode parameters */
        assert_param(IS_GPIO_OTYPE(GPIO_InitStruct->GPIO_OType));

        /* Output mode configuration*/
        GPIOx->OTYPER  &= ~((GPIO_OTYPER_OT_0) << ((uint16_t)pinpos)) ;
 80015e2:	f422 5280 	bic.w	r2, r2, #4096	; 0x1000
 80015e6:	6042      	str	r2, [r0, #4]
        GPIOx->OTYPER |= (uint16_t)(((uint16_t)GPIO_InitStruct->GPIO_OType) << ((uint16_t)pinpos));
 80015e8:	6842      	ldr	r2, [r0, #4]
 80015ea:	fa1f fc8c 	uxth.w	ip, ip
 80015ee:	ea4c 0202 	orr.w	r2, ip, r2
 80015f2:	6042      	str	r2, [r0, #4]
 80015f4:	e684      	b.n	8001300 <GPIO_Init+0x388>
      {
        /* Check Speed mode parameters */
        assert_param(IS_GPIO_SPEED(GPIO_InitStruct->GPIO_Speed));

        /* Speed mode configuration */
        GPIOx->OSPEEDR &= ~(GPIO_OSPEEDER_OSPEEDR0 << (pinpos * 2));
 80015f6:	6882      	ldr	r2, [r0, #8]
        GPIOx->OSPEEDR |= ((uint32_t)(GPIO_InitStruct->GPIO_Speed) << (pinpos * 2));
 80015f8:	794c      	ldrb	r4, [r1, #5]
      {
        /* Check Speed mode parameters */
        assert_param(IS_GPIO_SPEED(GPIO_InitStruct->GPIO_Speed));

        /* Speed mode configuration */
        GPIOx->OSPEEDR &= ~(GPIO_OSPEEDER_OSPEEDR0 << (pinpos * 2));
 80015fa:	f022 6240 	bic.w	r2, r2, #201326592	; 0xc000000
 80015fe:	6082      	str	r2, [r0, #8]
        GPIOx->OSPEEDR |= ((uint32_t)(GPIO_InitStruct->GPIO_Speed) << (pinpos * 2));
 8001600:	6882      	ldr	r2, [r0, #8]
        /* Check Output mode parameters */
        assert_param(IS_GPIO_OTYPE(GPIO_InitStruct->GPIO_OType));

        /* Output mode configuration*/
        GPIOx->OTYPER  &= ~((GPIO_OTYPER_OT_0) << ((uint16_t)pinpos)) ;
        GPIOx->OTYPER |= (uint16_t)(((uint16_t)GPIO_InitStruct->GPIO_OType) << ((uint16_t)pinpos));
 8001602:	f891 c006 	ldrb.w	ip, [r1, #6]
        /* Check Speed mode parameters */
        assert_param(IS_GPIO_SPEED(GPIO_InitStruct->GPIO_Speed));

        /* Speed mode configuration */
        GPIOx->OSPEEDR &= ~(GPIO_OSPEEDER_OSPEEDR0 << (pinpos * 2));
        GPIOx->OSPEEDR |= ((uint32_t)(GPIO_InitStruct->GPIO_Speed) << (pinpos * 2));
 8001606:	ea42 6284 	orr.w	r2, r2, r4, lsl #26
 800160a:	6082      	str	r2, [r0, #8]

        /* Check Output mode parameters */
        assert_param(IS_GPIO_OTYPE(GPIO_InitStruct->GPIO_OType));

        /* Output mode configuration*/
        GPIOx->OTYPER  &= ~((GPIO_OTYPER_OT_0) << ((uint16_t)pinpos)) ;
 800160c:	6842      	ldr	r2, [r0, #4]
        GPIOx->OTYPER |= (uint16_t)(((uint16_t)GPIO_InitStruct->GPIO_OType) << ((uint16_t)pinpos));
 800160e:	ea4f 3c4c 	mov.w	ip, ip, lsl #13

        /* Check Output mode parameters */
        assert_param(IS_GPIO_OTYPE(GPIO_InitStruct->GPIO_OType));

        /* Output mode configuration*/
        GPIOx->OTYPER  &= ~((GPIO_OTYPER_OT_0) << ((uint16_t)pinpos)) ;
 8001612:	f422 5200 	bic.w	r2, r2, #8192	; 0x2000
 8001616:	6042      	str	r2, [r0, #4]
        GPIOx->OTYPER |= (uint16_t)(((uint16_t)GPIO_InitStruct->GPIO_OType) << ((uint16_t)pinpos));
 8001618:	6842      	ldr	r2, [r0, #4]
 800161a:	fa1f fc8c 	uxth.w	ip, ip
 800161e:	ea4c 0202 	orr.w	r2, ip, r2
 8001622:	6042      	str	r2, [r0, #4]
 8001624:	e68b      	b.n	800133e <GPIO_Init+0x3c6>
      {
        /* Check Speed mode parameters */
        assert_param(IS_GPIO_SPEED(GPIO_InitStruct->GPIO_Speed));

        /* Speed mode configuration */
        GPIOx->OSPEEDR &= ~(GPIO_OSPEEDER_OSPEEDR0 << (pinpos * 2));
 8001626:	6882      	ldr	r2, [r0, #8]
        GPIOx->OSPEEDR |= ((uint32_t)(GPIO_InitStruct->GPIO_Speed) << (pinpos * 2));
 8001628:	794c      	ldrb	r4, [r1, #5]
      {
        /* Check Speed mode parameters */
        assert_param(IS_GPIO_SPEED(GPIO_InitStruct->GPIO_Speed));

        /* Speed mode configuration */
        GPIOx->OSPEEDR &= ~(GPIO_OSPEEDER_OSPEEDR0 << (pinpos * 2));
 800162a:	f022 5240 	bic.w	r2, r2, #805306368	; 0x30000000
 800162e:	6082      	str	r2, [r0, #8]
        GPIOx->OSPEEDR |= ((uint32_t)(GPIO_InitStruct->GPIO_Speed) << (pinpos * 2));
 8001630:	6882      	ldr	r2, [r0, #8]
        /* Check Output mode parameters */
        assert_param(IS_GPIO_OTYPE(GPIO_InitStruct->GPIO_OType));

        /* Output mode configuration*/
        GPIOx->OTYPER  &= ~((GPIO_OTYPER_OT_0) << ((uint16_t)pinpos)) ;
        GPIOx->OTYPER |= (uint16_t)(((uint16_t)GPIO_InitStruct->GPIO_OType) << ((uint16_t)pinpos));
 8001632:	f891 c006 	ldrb.w	ip, [r1, #6]
        /* Check Speed mode parameters */
        assert_param(IS_GPIO_SPEED(GPIO_InitStruct->GPIO_Speed));

        /* Speed mode configuration */
        GPIOx->OSPEEDR &= ~(GPIO_OSPEEDER_OSPEEDR0 << (pinpos * 2));
        GPIOx->OSPEEDR |= ((uint32_t)(GPIO_InitStruct->GPIO_Speed) << (pinpos * 2));
 8001636:	ea42 7204 	orr.w	r2, r2, r4, lsl #28
 800163a:	6082      	str	r2, [r0, #8]

        /* Check Output mode parameters */
        assert_param(IS_GPIO_OTYPE(GPIO_InitStruct->GPIO_OType));

        /* Output mode configuration*/
        GPIOx->OTYPER  &= ~((GPIO_OTYPER_OT_0) << ((uint16_t)pinpos)) ;
 800163c:	6842      	ldr	r2, [r0, #4]
        GPIOx->OTYPER |= (uint16_t)(((uint16_t)GPIO_InitStruct->GPIO_OType) << ((uint16_t)pinpos));
 800163e:	ea4f 3c8c 	mov.w	ip, ip, lsl #14

        /* Check Output mode parameters */
        assert_param(IS_GPIO_OTYPE(GPIO_InitStruct->GPIO_OType));

        /* Output mode configuration*/
        GPIOx->OTYPER  &= ~((GPIO_OTYPER_OT_0) << ((uint16_t)pinpos)) ;
 8001642:	f422 4280 	bic.w	r2, r2, #16384	; 0x4000
 8001646:	6042      	str	r2, [r0, #4]
        GPIOx->OTYPER |= (uint16_t)(((uint16_t)GPIO_InitStruct->GPIO_OType) << ((uint16_t)pinpos));
 8001648:	6842      	ldr	r2, [r0, #4]
 800164a:	fa1f fc8c 	uxth.w	ip, ip
 800164e:	ea4c 0202 	orr.w	r2, ip, r2
 8001652:	6042      	str	r2, [r0, #4]
 8001654:	e692      	b.n	800137c <GPIO_Init+0x404>
      {
        /* Check Speed mode parameters */
        assert_param(IS_GPIO_SPEED(GPIO_InitStruct->GPIO_Speed));

        /* Speed mode configuration */
        GPIOx->OSPEEDR &= ~(GPIO_OSPEEDER_OSPEEDR0 << (pinpos * 2));
 8001656:	6883      	ldr	r3, [r0, #8]
        GPIOx->OSPEEDR |= ((uint32_t)(GPIO_InitStruct->GPIO_Speed) << (pinpos * 2));
 8001658:	f891 c005 	ldrb.w	ip, [r1, #5]
      {
        /* Check Speed mode parameters */
        assert_param(IS_GPIO_SPEED(GPIO_InitStruct->GPIO_Speed));

        /* Speed mode configuration */
        GPIOx->OSPEEDR &= ~(GPIO_OSPEEDER_OSPEEDR0 << (pinpos * 2));
 800165c:	f023 4240 	bic.w	r2, r3, #3221225472	; 0xc0000000
 8001660:	6082      	str	r2, [r0, #8]
        GPIOx->OSPEEDR |= ((uint32_t)(GPIO_InitStruct->GPIO_Speed) << (pinpos * 2));
 8001662:	6883      	ldr	r3, [r0, #8]
        /* Check Output mode parameters */
        assert_param(IS_GPIO_OTYPE(GPIO_InitStruct->GPIO_OType));

        /* Output mode configuration*/
        GPIOx->OTYPER  &= ~((GPIO_OTYPER_OT_0) << ((uint16_t)pinpos)) ;
        GPIOx->OTYPER |= (uint16_t)(((uint16_t)GPIO_InitStruct->GPIO_OType) << ((uint16_t)pinpos));
 8001664:	798a      	ldrb	r2, [r1, #6]
        /* Check Speed mode parameters */
        assert_param(IS_GPIO_SPEED(GPIO_InitStruct->GPIO_Speed));

        /* Speed mode configuration */
        GPIOx->OSPEEDR &= ~(GPIO_OSPEEDER_OSPEEDR0 << (pinpos * 2));
        GPIOx->OSPEEDR |= ((uint32_t)(GPIO_InitStruct->GPIO_Speed) << (pinpos * 2));
 8001666:	ea43 738c 	orr.w	r3, r3, ip, lsl #30
 800166a:	6083      	str	r3, [r0, #8]

        /* Check Output mode parameters */
        assert_param(IS_GPIO_OTYPE(GPIO_InitStruct->GPIO_OType));

        /* Output mode configuration*/
        GPIOx->OTYPER  &= ~((GPIO_OTYPER_OT_0) << ((uint16_t)pinpos)) ;
 800166c:	6843      	ldr	r3, [r0, #4]
        GPIOx->OTYPER |= (uint16_t)(((uint16_t)GPIO_InitStruct->GPIO_OType) << ((uint16_t)pinpos));
 800166e:	03d2      	lsls	r2, r2, #15

        /* Check Output mode parameters */
        assert_param(IS_GPIO_OTYPE(GPIO_InitStruct->GPIO_OType));

        /* Output mode configuration*/
        GPIOx->OTYPER  &= ~((GPIO_OTYPER_OT_0) << ((uint16_t)pinpos)) ;
 8001670:	f423 4300 	bic.w	r3, r3, #32768	; 0x8000
 8001674:	6043      	str	r3, [r0, #4]
        GPIOx->OTYPER |= (uint16_t)(((uint16_t)GPIO_InitStruct->GPIO_OType) << ((uint16_t)pinpos));
 8001676:	6843      	ldr	r3, [r0, #4]
 8001678:	fa1f fc82 	uxth.w	ip, r2
 800167c:	ea4c 0303 	orr.w	r3, ip, r3
 8001680:	6043      	str	r3, [r0, #4]
 8001682:	e699      	b.n	80013b8 <GPIO_Init+0x440>

08001684 <GPIO_StructInit>:
  */
void GPIO_StructInit(GPIO_InitTypeDef* GPIO_InitStruct)
{
  /* Reset GPIO init structure parameters values */
  GPIO_InitStruct->GPIO_Pin  = GPIO_Pin_All;
  GPIO_InitStruct->GPIO_Mode = GPIO_Mode_IN;
 8001684:	2300      	movs	r3, #0
  * @retval None
  */
void GPIO_StructInit(GPIO_InitTypeDef* GPIO_InitStruct)
{
  /* Reset GPIO init structure parameters values */
  GPIO_InitStruct->GPIO_Pin  = GPIO_Pin_All;
 8001686:	f64f 72ff 	movw	r2, #65535	; 0xffff
  GPIO_InitStruct->GPIO_Mode = GPIO_Mode_IN;
  GPIO_InitStruct->GPIO_Speed = GPIO_Speed_2MHz;
  GPIO_InitStruct->GPIO_OType = GPIO_OType_PP;
  GPIO_InitStruct->GPIO_PuPd = GPIO_PuPd_NOPULL;
 800168a:	71c3      	strb	r3, [r0, #7]
  * @retval None
  */
void GPIO_StructInit(GPIO_InitTypeDef* GPIO_InitStruct)
{
  /* Reset GPIO init structure parameters values */
  GPIO_InitStruct->GPIO_Pin  = GPIO_Pin_All;
 800168c:	6002      	str	r2, [r0, #0]
  GPIO_InitStruct->GPIO_Mode = GPIO_Mode_IN;
 800168e:	7103      	strb	r3, [r0, #4]
  GPIO_InitStruct->GPIO_Speed = GPIO_Speed_2MHz;
 8001690:	7143      	strb	r3, [r0, #5]
  GPIO_InitStruct->GPIO_OType = GPIO_OType_PP;
 8001692:	7183      	strb	r3, [r0, #6]
  GPIO_InitStruct->GPIO_PuPd = GPIO_PuPd_NOPULL;
}
 8001694:	4770      	bx	lr
 8001696:	bf00      	nop

08001698 <GPIO_PinLockConfig>:
  * @param  GPIO_Pin: specifies the port bit to be locked.
  *          This parameter can be any combination of GPIO_Pin_x where x can be (0..15).
  * @retval None
  */
void GPIO_PinLockConfig(GPIO_TypeDef* GPIOx, uint16_t GPIO_Pin)
{
 8001698:	b082      	sub	sp, #8
  __IO uint32_t tmp = 0x00010000;
 800169a:	f44f 3280 	mov.w	r2, #65536	; 0x10000
 800169e:	9201      	str	r2, [sp, #4]

  /* Check the parameters */
  assert_param(IS_GPIO_ALL_PERIPH(GPIOx));
  assert_param(IS_GPIO_PIN(GPIO_Pin));

  tmp |= GPIO_Pin;
 80016a0:	9b01      	ldr	r3, [sp, #4]
 80016a2:	ea41 0203 	orr.w	r2, r1, r3
 80016a6:	9201      	str	r2, [sp, #4]
  /* Set LCKK bit */
  GPIOx->LCKR = tmp;
 80016a8:	9b01      	ldr	r3, [sp, #4]
 80016aa:	61c3      	str	r3, [r0, #28]
  /* Reset LCKK bit */
  GPIOx->LCKR =  GPIO_Pin;
 80016ac:	61c1      	str	r1, [r0, #28]
  /* Set LCKK bit */
  GPIOx->LCKR = tmp;
 80016ae:	9a01      	ldr	r2, [sp, #4]
 80016b0:	61c2      	str	r2, [r0, #28]
  /* Read LCKK bit*/
  tmp = GPIOx->LCKR;
 80016b2:	69c1      	ldr	r1, [r0, #28]
 80016b4:	9101      	str	r1, [sp, #4]
  /* Read LCKK bit*/
  tmp = GPIOx->LCKR;
 80016b6:	69c3      	ldr	r3, [r0, #28]
 80016b8:	9301      	str	r3, [sp, #4]
}
 80016ba:	b002      	add	sp, #8
 80016bc:	4770      	bx	lr
 80016be:	bf00      	nop

080016c0 <GPIO_ReadInputDataBit>:

  /* Check the parameters */
  assert_param(IS_GPIO_ALL_PERIPH(GPIOx));
  assert_param(IS_GET_GPIO_PIN(GPIO_Pin));

  if ((GPIOx->IDR & GPIO_Pin) != (uint32_t)Bit_RESET)
 80016c0:	6903      	ldr	r3, [r0, #16]
 80016c2:	4219      	tst	r1, r3
  else
  {
    bitstatus = (uint8_t)Bit_RESET;
  }
  return bitstatus;
}
 80016c4:	bf0c      	ite	eq
 80016c6:	2000      	moveq	r0, #0
 80016c8:	2001      	movne	r0, #1
 80016ca:	4770      	bx	lr

080016cc <GPIO_ReadInputData>:
uint16_t GPIO_ReadInputData(GPIO_TypeDef* GPIOx)
{
  /* Check the parameters */
  assert_param(IS_GPIO_ALL_PERIPH(GPIOx));

  return ((uint16_t)GPIOx->IDR);
 80016cc:	6900      	ldr	r0, [r0, #16]
}
 80016ce:	b280      	uxth	r0, r0
 80016d0:	4770      	bx	lr
 80016d2:	bf00      	nop

080016d4 <GPIO_ReadOutputDataBit>:

  /* Check the parameters */
  assert_param(IS_GPIO_ALL_PERIPH(GPIOx));
  assert_param(IS_GET_GPIO_PIN(GPIO_Pin));

  if ((GPIOx->ODR & GPIO_Pin) != (uint32_t)Bit_RESET)
 80016d4:	6943      	ldr	r3, [r0, #20]
 80016d6:	4219      	tst	r1, r3
  else
  {
    bitstatus = (uint8_t)Bit_RESET;
  }
  return bitstatus;
}
 80016d8:	bf0c      	ite	eq
 80016da:	2000      	moveq	r0, #0
 80016dc:	2001      	movne	r0, #1
 80016de:	4770      	bx	lr

080016e0 <GPIO_ReadOutputData>:
uint16_t GPIO_ReadOutputData(GPIO_TypeDef* GPIOx)
{
  /* Check the parameters */
  assert_param(IS_GPIO_ALL_PERIPH(GPIOx));

  return ((uint16_t)GPIOx->ODR);
 80016e0:	6940      	ldr	r0, [r0, #20]
}
 80016e2:	b280      	uxth	r0, r0
 80016e4:	4770      	bx	lr
 80016e6:	bf00      	nop

080016e8 <GPIO_SetBits>:
{
  /* Check the parameters */
  assert_param(IS_GPIO_ALL_PERIPH(GPIOx));
  assert_param(IS_GPIO_PIN(GPIO_Pin));

  GPIOx->BSRRL = GPIO_Pin;
 80016e8:	8301      	strh	r1, [r0, #24]
}
 80016ea:	4770      	bx	lr

080016ec <GPIO_ResetBits>:
{
  /* Check the parameters */
  assert_param(IS_GPIO_ALL_PERIPH(GPIOx));
  assert_param(IS_GPIO_PIN(GPIO_Pin));

  GPIOx->BSRRH = GPIO_Pin;
 80016ec:	8341      	strh	r1, [r0, #26]
}
 80016ee:	4770      	bx	lr

080016f0 <GPIO_WriteBit>:
  /* Check the parameters */
  assert_param(IS_GPIO_ALL_PERIPH(GPIOx));
  assert_param(IS_GET_GPIO_PIN(GPIO_Pin));
  assert_param(IS_GPIO_BIT_ACTION(BitVal));

  if (BitVal != Bit_RESET)
 80016f0:	b90a      	cbnz	r2, 80016f6 <GPIO_WriteBit+0x6>
  {
    GPIOx->BSRRL = GPIO_Pin;
  }
  else
  {
    GPIOx->BSRRH = GPIO_Pin ;
 80016f2:	8341      	strh	r1, [r0, #26]
 80016f4:	4770      	bx	lr
  assert_param(IS_GET_GPIO_PIN(GPIO_Pin));
  assert_param(IS_GPIO_BIT_ACTION(BitVal));

  if (BitVal != Bit_RESET)
  {
    GPIOx->BSRRL = GPIO_Pin;
 80016f6:	8301      	strh	r1, [r0, #24]
 80016f8:	4770      	bx	lr
 80016fa:	bf00      	nop

080016fc <GPIO_Write>:
void GPIO_Write(GPIO_TypeDef* GPIOx, uint16_t PortVal)
{
  /* Check the parameters */
  assert_param(IS_GPIO_ALL_PERIPH(GPIOx));

  GPIOx->ODR = PortVal;
 80016fc:	6141      	str	r1, [r0, #20]
}
 80016fe:	4770      	bx	lr

08001700 <GPIO_ToggleBits>:
void GPIO_ToggleBits(GPIO_TypeDef* GPIOx, uint16_t GPIO_Pin)
{
  /* Check the parameters */
  assert_param(IS_GPIO_ALL_PERIPH(GPIOx));

  GPIOx->ODR ^= GPIO_Pin;
 8001700:	6942      	ldr	r2, [r0, #20]
 8001702:	ea81 0302 	eor.w	r3, r1, r2
 8001706:	6143      	str	r3, [r0, #20]
}
 8001708:	4770      	bx	lr
 800170a:	bf00      	nop

0800170c <GPIO_PinAFConfig>:
  /* Check the parameters */
  assert_param(IS_GPIO_ALL_PERIPH(GPIOx));
  assert_param(IS_GPIO_PIN_SOURCE(GPIO_PinSource));
  assert_param(IS_GPIO_AF(GPIO_AF));
  
  temp = ((uint32_t)(GPIO_AF) << ((uint32_t)((uint32_t)GPIO_PinSource & (uint32_t)0x07) * 4)) ;
 800170c:	f001 0307 	and.w	r3, r1, #7
 8001710:	009b      	lsls	r3, r3, #2
  GPIOx->AFR[GPIO_PinSource >> 0x03] &= ~((uint32_t)0xF << ((uint32_t)((uint32_t)GPIO_PinSource & (uint32_t)0x07) * 4)) ;
 8001712:	f04f 0c0f 	mov.w	ip, #15
 8001716:	fa0c fc03 	lsl.w	ip, ip, r3
  temp_2 = GPIOx->AFR[GPIO_PinSource >> 0x03] | temp;
 800171a:	fa12 f303 	lsls.w	r3, r2, r3
  assert_param(IS_GPIO_ALL_PERIPH(GPIOx));
  assert_param(IS_GPIO_PIN_SOURCE(GPIO_PinSource));
  assert_param(IS_GPIO_AF(GPIO_AF));
  
  temp = ((uint32_t)(GPIO_AF) << ((uint32_t)((uint32_t)GPIO_PinSource & (uint32_t)0x07) * 4)) ;
  GPIOx->AFR[GPIO_PinSource >> 0x03] &= ~((uint32_t)0xF << ((uint32_t)((uint32_t)GPIO_PinSource & (uint32_t)0x07) * 4)) ;
 800171e:	08c9      	lsrs	r1, r1, #3
 8001720:	3108      	adds	r1, #8
 8001722:	f850 2021 	ldr.w	r2, [r0, r1, lsl #2]
 8001726:	ea22 020c 	bic.w	r2, r2, ip
 800172a:	f840 2021 	str.w	r2, [r0, r1, lsl #2]
  temp_2 = GPIOx->AFR[GPIO_PinSource >> 0x03] | temp;
 800172e:	f850 2021 	ldr.w	r2, [r0, r1, lsl #2]
 8001732:	4313      	orrs	r3, r2
  GPIOx->AFR[GPIO_PinSource >> 0x03] = temp_2;
 8001734:	f840 3021 	str.w	r3, [r0, r1, lsl #2]
}
 8001738:	4770      	bx	lr
 800173a:	bf00      	nop

0800173c <GPIO_DeInit>:
void GPIO_DeInit(GPIO_TypeDef* GPIOx)
{
  /* Check the parameters */
  assert_param(IS_GPIO_ALL_PERIPH(GPIOx));

  if (GPIOx == GPIOA)
 800173c:	f240 0300 	movw	r3, #0
 8001740:	f2c4 0302 	movt	r3, #16386	; 0x4002
 8001744:	4298      	cmp	r0, r3
  * @note   By default, The GPIO pins are configured in input floating mode (except JTAG pins).
  * @param  GPIOx: where x can be (A..I) to select the GPIO peripheral.
  * @retval None
  */
void GPIO_DeInit(GPIO_TypeDef* GPIOx)
{
 8001746:	b510      	push	{r4, lr}
  /* Check the parameters */
  assert_param(IS_GPIO_ALL_PERIPH(GPIOx));

  if (GPIOx == GPIOA)
 8001748:	d03c      	beq.n	80017c4 <GPIO_DeInit+0x88>
  {
    RCC_AHB1PeriphResetCmd(RCC_AHB1Periph_GPIOA, ENABLE);
    RCC_AHB1PeriphResetCmd(RCC_AHB1Periph_GPIOA, DISABLE);
  }
  else if (GPIOx == GPIOB)
 800174a:	f240 4100 	movw	r1, #1024	; 0x400
 800174e:	f2c4 0102 	movt	r1, #16386	; 0x4002
 8001752:	4288      	cmp	r0, r1
 8001754:	d040      	beq.n	80017d8 <GPIO_DeInit+0x9c>
  {
    RCC_AHB1PeriphResetCmd(RCC_AHB1Periph_GPIOB, ENABLE);
    RCC_AHB1PeriphResetCmd(RCC_AHB1Periph_GPIOB, DISABLE);
  }
  else if (GPIOx == GPIOC)
 8001756:	f640 0200 	movw	r2, #2048	; 0x800
 800175a:	f2c4 0202 	movt	r2, #16386	; 0x4002
 800175e:	4290      	cmp	r0, r2
 8001760:	d044      	beq.n	80017ec <GPIO_DeInit+0xb0>
  {
    RCC_AHB1PeriphResetCmd(RCC_AHB1Periph_GPIOC, ENABLE);
    RCC_AHB1PeriphResetCmd(RCC_AHB1Periph_GPIOC, DISABLE);
  }
  else if (GPIOx == GPIOD)
 8001762:	f640 4c00 	movw	ip, #3072	; 0xc00
 8001766:	f2c4 0c02 	movt	ip, #16386	; 0x4002
 800176a:	4560      	cmp	r0, ip
 800176c:	d048      	beq.n	8001800 <GPIO_DeInit+0xc4>
  {
    RCC_AHB1PeriphResetCmd(RCC_AHB1Periph_GPIOD, ENABLE);
    RCC_AHB1PeriphResetCmd(RCC_AHB1Periph_GPIOD, DISABLE);
  }
  else if (GPIOx == GPIOE)
 800176e:	f241 0300 	movw	r3, #4096	; 0x1000
 8001772:	f2c4 0302 	movt	r3, #16386	; 0x4002
 8001776:	4298      	cmp	r0, r3
 8001778:	d04c      	beq.n	8001814 <GPIO_DeInit+0xd8>
  {
    RCC_AHB1PeriphResetCmd(RCC_AHB1Periph_GPIOE, ENABLE);
    RCC_AHB1PeriphResetCmd(RCC_AHB1Periph_GPIOE, DISABLE);
  }
  else if (GPIOx == GPIOF)
 800177a:	f241 4100 	movw	r1, #5120	; 0x1400
 800177e:	f2c4 0102 	movt	r1, #16386	; 0x4002
 8001782:	4288      	cmp	r0, r1
 8001784:	d050      	beq.n	8001828 <GPIO_DeInit+0xec>
  {
    RCC_AHB1PeriphResetCmd(RCC_AHB1Periph_GPIOF, ENABLE);
    RCC_AHB1PeriphResetCmd(RCC_AHB1Periph_GPIOF, DISABLE);
  }
  else if (GPIOx == GPIOG)
 8001786:	f641 0200 	movw	r2, #6144	; 0x1800
 800178a:	f2c4 0202 	movt	r2, #16386	; 0x4002
 800178e:	4290      	cmp	r0, r2
 8001790:	d054      	beq.n	800183c <GPIO_DeInit+0x100>
  {
    RCC_AHB1PeriphResetCmd(RCC_AHB1Periph_GPIOG, ENABLE);
    RCC_AHB1PeriphResetCmd(RCC_AHB1Periph_GPIOG, DISABLE);
  }
  else if (GPIOx == GPIOH)
 8001792:	f641 4c00 	movw	ip, #7168	; 0x1c00
 8001796:	f2c4 0c02 	movt	ip, #16386	; 0x4002
 800179a:	4560      	cmp	r0, ip
 800179c:	d058      	beq.n	8001850 <GPIO_DeInit+0x114>
    RCC_AHB1PeriphResetCmd(RCC_AHB1Periph_GPIOH, ENABLE);
    RCC_AHB1PeriphResetCmd(RCC_AHB1Periph_GPIOH, DISABLE);
  }
  else
  {
    if (GPIOx == GPIOI)
 800179e:	f242 0300 	movw	r3, #8192	; 0x2000
 80017a2:	f2c4 0302 	movt	r3, #16386	; 0x4002
 80017a6:	4298      	cmp	r0, r3
 80017a8:	d000      	beq.n	80017ac <GPIO_DeInit+0x70>
 80017aa:	bd10      	pop	{r4, pc}
    {
      RCC_AHB1PeriphResetCmd(RCC_AHB1Periph_GPIOI, ENABLE);
 80017ac:	2101      	movs	r1, #1
 80017ae:	f44f 7080 	mov.w	r0, #256	; 0x100
 80017b2:	f000 fa21 	bl	8001bf8 <RCC_AHB1PeriphResetCmd>
      RCC_AHB1PeriphResetCmd(RCC_AHB1Periph_GPIOI, DISABLE);
 80017b6:	f44f 7080 	mov.w	r0, #256	; 0x100
 80017ba:	2100      	movs	r1, #0
    }
  }
}
 80017bc:	e8bd 4010 	ldmia.w	sp!, {r4, lr}
  else
  {
    if (GPIOx == GPIOI)
    {
      RCC_AHB1PeriphResetCmd(RCC_AHB1Periph_GPIOI, ENABLE);
      RCC_AHB1PeriphResetCmd(RCC_AHB1Periph_GPIOI, DISABLE);
 80017c0:	f000 ba1a 	b.w	8001bf8 <RCC_AHB1PeriphResetCmd>
  /* Check the parameters */
  assert_param(IS_GPIO_ALL_PERIPH(GPIOx));

  if (GPIOx == GPIOA)
  {
    RCC_AHB1PeriphResetCmd(RCC_AHB1Periph_GPIOA, ENABLE);
 80017c4:	2001      	movs	r0, #1
 80017c6:	4601      	mov	r1, r0
 80017c8:	f000 fa16 	bl	8001bf8 <RCC_AHB1PeriphResetCmd>
    RCC_AHB1PeriphResetCmd(RCC_AHB1Periph_GPIOA, DISABLE);
 80017cc:	2001      	movs	r0, #1
 80017ce:	2100      	movs	r1, #0
    {
      RCC_AHB1PeriphResetCmd(RCC_AHB1Periph_GPIOI, ENABLE);
      RCC_AHB1PeriphResetCmd(RCC_AHB1Periph_GPIOI, DISABLE);
    }
  }
}
 80017d0:	e8bd 4010 	ldmia.w	sp!, {r4, lr}
  assert_param(IS_GPIO_ALL_PERIPH(GPIOx));

  if (GPIOx == GPIOA)
  {
    RCC_AHB1PeriphResetCmd(RCC_AHB1Periph_GPIOA, ENABLE);
    RCC_AHB1PeriphResetCmd(RCC_AHB1Periph_GPIOA, DISABLE);
 80017d4:	f000 ba10 	b.w	8001bf8 <RCC_AHB1PeriphResetCmd>
  }
  else if (GPIOx == GPIOB)
  {
    RCC_AHB1PeriphResetCmd(RCC_AHB1Periph_GPIOB, ENABLE);
 80017d8:	2002      	movs	r0, #2
 80017da:	2101      	movs	r1, #1
 80017dc:	f000 fa0c 	bl	8001bf8 <RCC_AHB1PeriphResetCmd>
    RCC_AHB1PeriphResetCmd(RCC_AHB1Periph_GPIOB, DISABLE);
 80017e0:	2002      	movs	r0, #2
 80017e2:	2100      	movs	r1, #0
    {
      RCC_AHB1PeriphResetCmd(RCC_AHB1Periph_GPIOI, ENABLE);
      RCC_AHB1PeriphResetCmd(RCC_AHB1Periph_GPIOI, DISABLE);
    }
  }
}
 80017e4:	e8bd 4010 	ldmia.w	sp!, {r4, lr}
    RCC_AHB1PeriphResetCmd(RCC_AHB1Periph_GPIOA, DISABLE);
  }
  else if (GPIOx == GPIOB)
  {
    RCC_AHB1PeriphResetCmd(RCC_AHB1Periph_GPIOB, ENABLE);
    RCC_AHB1PeriphResetCmd(RCC_AHB1Periph_GPIOB, DISABLE);
 80017e8:	f000 ba06 	b.w	8001bf8 <RCC_AHB1PeriphResetCmd>
  }
  else if (GPIOx == GPIOC)
  {
    RCC_AHB1PeriphResetCmd(RCC_AHB1Periph_GPIOC, ENABLE);
 80017ec:	2004      	movs	r0, #4
 80017ee:	2101      	movs	r1, #1
 80017f0:	f000 fa02 	bl	8001bf8 <RCC_AHB1PeriphResetCmd>
    RCC_AHB1PeriphResetCmd(RCC_AHB1Periph_GPIOC, DISABLE);
 80017f4:	2004      	movs	r0, #4
 80017f6:	2100      	movs	r1, #0
    {
      RCC_AHB1PeriphResetCmd(RCC_AHB1Periph_GPIOI, ENABLE);
      RCC_AHB1PeriphResetCmd(RCC_AHB1Periph_GPIOI, DISABLE);
    }
  }
}
 80017f8:	e8bd 4010 	ldmia.w	sp!, {r4, lr}
    RCC_AHB1PeriphResetCmd(RCC_AHB1Periph_GPIOB, DISABLE);
  }
  else if (GPIOx == GPIOC)
  {
    RCC_AHB1PeriphResetCmd(RCC_AHB1Periph_GPIOC, ENABLE);
    RCC_AHB1PeriphResetCmd(RCC_AHB1Periph_GPIOC, DISABLE);
 80017fc:	f000 b9fc 	b.w	8001bf8 <RCC_AHB1PeriphResetCmd>
  }
  else if (GPIOx == GPIOD)
  {
    RCC_AHB1PeriphResetCmd(RCC_AHB1Periph_GPIOD, ENABLE);
 8001800:	2008      	movs	r0, #8
 8001802:	2101      	movs	r1, #1
 8001804:	f000 f9f8 	bl	8001bf8 <RCC_AHB1PeriphResetCmd>
    RCC_AHB1PeriphResetCmd(RCC_AHB1Periph_GPIOD, DISABLE);
 8001808:	2008      	movs	r0, #8
 800180a:	2100      	movs	r1, #0
    {
      RCC_AHB1PeriphResetCmd(RCC_AHB1Periph_GPIOI, ENABLE);
      RCC_AHB1PeriphResetCmd(RCC_AHB1Periph_GPIOI, DISABLE);
    }
  }
}
 800180c:	e8bd 4010 	ldmia.w	sp!, {r4, lr}
    RCC_AHB1PeriphResetCmd(RCC_AHB1Periph_GPIOC, DISABLE);
  }
  else if (GPIOx == GPIOD)
  {
    RCC_AHB1PeriphResetCmd(RCC_AHB1Periph_GPIOD, ENABLE);
    RCC_AHB1PeriphResetCmd(RCC_AHB1Periph_GPIOD, DISABLE);
 8001810:	f000 b9f2 	b.w	8001bf8 <RCC_AHB1PeriphResetCmd>
  }
  else if (GPIOx == GPIOE)
  {
    RCC_AHB1PeriphResetCmd(RCC_AHB1Periph_GPIOE, ENABLE);
 8001814:	2010      	movs	r0, #16
 8001816:	2101      	movs	r1, #1
 8001818:	f000 f9ee 	bl	8001bf8 <RCC_AHB1PeriphResetCmd>
    RCC_AHB1PeriphResetCmd(RCC_AHB1Periph_GPIOE, DISABLE);
 800181c:	2010      	movs	r0, #16
 800181e:	2100      	movs	r1, #0
    {
      RCC_AHB1PeriphResetCmd(RCC_AHB1Periph_GPIOI, ENABLE);
      RCC_AHB1PeriphResetCmd(RCC_AHB1Periph_GPIOI, DISABLE);
    }
  }
}
 8001820:	e8bd 4010 	ldmia.w	sp!, {r4, lr}
    RCC_AHB1PeriphResetCmd(RCC_AHB1Periph_GPIOD, DISABLE);
  }
  else if (GPIOx == GPIOE)
  {
    RCC_AHB1PeriphResetCmd(RCC_AHB1Periph_GPIOE, ENABLE);
    RCC_AHB1PeriphResetCmd(RCC_AHB1Periph_GPIOE, DISABLE);
 8001824:	f000 b9e8 	b.w	8001bf8 <RCC_AHB1PeriphResetCmd>
  }
  else if (GPIOx == GPIOF)
  {
    RCC_AHB1PeriphResetCmd(RCC_AHB1Periph_GPIOF, ENABLE);
 8001828:	2020      	movs	r0, #32
 800182a:	2101      	movs	r1, #1
 800182c:	f000 f9e4 	bl	8001bf8 <RCC_AHB1PeriphResetCmd>
    RCC_AHB1PeriphResetCmd(RCC_AHB1Periph_GPIOF, DISABLE);
 8001830:	2020      	movs	r0, #32
 8001832:	2100      	movs	r1, #0
    {
      RCC_AHB1PeriphResetCmd(RCC_AHB1Periph_GPIOI, ENABLE);
      RCC_AHB1PeriphResetCmd(RCC_AHB1Periph_GPIOI, DISABLE);
    }
  }
}
 8001834:	e8bd 4010 	ldmia.w	sp!, {r4, lr}
    RCC_AHB1PeriphResetCmd(RCC_AHB1Periph_GPIOE, DISABLE);
  }
  else if (GPIOx == GPIOF)
  {
    RCC_AHB1PeriphResetCmd(RCC_AHB1Periph_GPIOF, ENABLE);
    RCC_AHB1PeriphResetCmd(RCC_AHB1Periph_GPIOF, DISABLE);
 8001838:	f000 b9de 	b.w	8001bf8 <RCC_AHB1PeriphResetCmd>
  }
  else if (GPIOx == GPIOG)
  {
    RCC_AHB1PeriphResetCmd(RCC_AHB1Periph_GPIOG, ENABLE);
 800183c:	2040      	movs	r0, #64	; 0x40
 800183e:	2101      	movs	r1, #1
 8001840:	f000 f9da 	bl	8001bf8 <RCC_AHB1PeriphResetCmd>
    RCC_AHB1PeriphResetCmd(RCC_AHB1Periph_GPIOG, DISABLE);
 8001844:	2040      	movs	r0, #64	; 0x40
 8001846:	2100      	movs	r1, #0
    {
      RCC_AHB1PeriphResetCmd(RCC_AHB1Periph_GPIOI, ENABLE);
      RCC_AHB1PeriphResetCmd(RCC_AHB1Periph_GPIOI, DISABLE);
    }
  }
}
 8001848:	e8bd 4010 	ldmia.w	sp!, {r4, lr}
    RCC_AHB1PeriphResetCmd(RCC_AHB1Periph_GPIOF, DISABLE);
  }
  else if (GPIOx == GPIOG)
  {
    RCC_AHB1PeriphResetCmd(RCC_AHB1Periph_GPIOG, ENABLE);
    RCC_AHB1PeriphResetCmd(RCC_AHB1Periph_GPIOG, DISABLE);
 800184c:	f000 b9d4 	b.w	8001bf8 <RCC_AHB1PeriphResetCmd>
  }
  else if (GPIOx == GPIOH)
  {
    RCC_AHB1PeriphResetCmd(RCC_AHB1Periph_GPIOH, ENABLE);
 8001850:	2080      	movs	r0, #128	; 0x80
 8001852:	2101      	movs	r1, #1
 8001854:	f000 f9d0 	bl	8001bf8 <RCC_AHB1PeriphResetCmd>
    RCC_AHB1PeriphResetCmd(RCC_AHB1Periph_GPIOH, DISABLE);
 8001858:	2080      	movs	r0, #128	; 0x80
 800185a:	2100      	movs	r1, #0
    {
      RCC_AHB1PeriphResetCmd(RCC_AHB1Periph_GPIOI, ENABLE);
      RCC_AHB1PeriphResetCmd(RCC_AHB1Periph_GPIOI, DISABLE);
    }
  }
}
 800185c:	e8bd 4010 	ldmia.w	sp!, {r4, lr}
    RCC_AHB1PeriphResetCmd(RCC_AHB1Periph_GPIOG, DISABLE);
  }
  else if (GPIOx == GPIOH)
  {
    RCC_AHB1PeriphResetCmd(RCC_AHB1Periph_GPIOH, ENABLE);
    RCC_AHB1PeriphResetCmd(RCC_AHB1Periph_GPIOH, DISABLE);
 8001860:	f000 b9ca 	b.w	8001bf8 <RCC_AHB1PeriphResetCmd>

08001864 <RCC_DeInit>:
  * @retval None
  */
void RCC_DeInit(void)
{
  /* Set HSION bit */
  RCC->CR |= (uint32_t)0x00000001;
 8001864:	f643 0300 	movw	r3, #14336	; 0x3800
 8001868:	f2c4 0302 	movt	r3, #16386	; 0x4002
 800186c:	6819      	ldr	r1, [r3, #0]

  /* Reset CFGR register */
  RCC->CFGR = 0x00000000;
 800186e:	2000      	movs	r0, #0
  * @retval None
  */
void RCC_DeInit(void)
{
  /* Set HSION bit */
  RCC->CR |= (uint32_t)0x00000001;
 8001870:	f041 0201 	orr.w	r2, r1, #1
 8001874:	601a      	str	r2, [r3, #0]

  /* Reset CFGR register */
  RCC->CFGR = 0x00000000;
 8001876:	6098      	str	r0, [r3, #8]

  /* Reset HSEON, CSSON and PLLON bits */
  RCC->CR &= (uint32_t)0xFEF6FFFF;
 8001878:	6819      	ldr	r1, [r3, #0]

  /* Reset PLLCFGR register */
  RCC->PLLCFGR = 0x24003010;
 800187a:	f243 0210 	movw	r2, #12304	; 0x3010

  /* Reset CFGR register */
  RCC->CFGR = 0x00000000;

  /* Reset HSEON, CSSON and PLLON bits */
  RCC->CR &= (uint32_t)0xFEF6FFFF;
 800187e:	f021 7c84 	bic.w	ip, r1, #17301504	; 0x1080000
 8001882:	f42c 3180 	bic.w	r1, ip, #65536	; 0x10000

  /* Reset PLLCFGR register */
  RCC->PLLCFGR = 0x24003010;
 8001886:	f2c2 4200 	movt	r2, #9216	; 0x2400

  /* Reset CFGR register */
  RCC->CFGR = 0x00000000;

  /* Reset HSEON, CSSON and PLLON bits */
  RCC->CR &= (uint32_t)0xFEF6FFFF;
 800188a:	6019      	str	r1, [r3, #0]

  /* Reset PLLCFGR register */
  RCC->PLLCFGR = 0x24003010;
 800188c:	605a      	str	r2, [r3, #4]

  /* Reset HSEBYP bit */
  RCC->CR &= (uint32_t)0xFFFBFFFF;
 800188e:	6819      	ldr	r1, [r3, #0]
 8001890:	f421 2280 	bic.w	r2, r1, #262144	; 0x40000
 8001894:	601a      	str	r2, [r3, #0]

  /* Disable all interrupts */
  RCC->CIR = 0x00000000;
 8001896:	60d8      	str	r0, [r3, #12]
}
 8001898:	4770      	bx	lr
 800189a:	bf00      	nop

0800189c <RCC_HSEConfig>:
{
  /* Check the parameters */
  assert_param(IS_RCC_HSE(RCC_HSE));

  /* Reset HSEON and HSEBYP bits before configuring the HSE ------------------*/
  *(__IO uint8_t *) CR_BYTE3_ADDRESS = RCC_HSE_OFF;
 800189c:	f643 0302 	movw	r3, #14338	; 0x3802
 80018a0:	f2c4 0302 	movt	r3, #16386	; 0x4002
 80018a4:	2200      	movs	r2, #0
 80018a6:	701a      	strb	r2, [r3, #0]

  /* Set the new HSE configuration -------------------------------------------*/
  *(__IO uint8_t *) CR_BYTE3_ADDRESS = RCC_HSE;
 80018a8:	7018      	strb	r0, [r3, #0]
}
 80018aa:	4770      	bx	lr

080018ac <RCC_WaitForHSEStartUp>:
  * @retval An ErrorStatus enumeration value:
  *          - SUCCESS: HSE oscillator is stable and ready to use
  *          - ERROR: HSE oscillator not yet ready
  */
ErrorStatus RCC_WaitForHSEStartUp(void)
{
 80018ac:	b082      	sub	sp, #8

  /* Get the RCC register index */
  tmp = RCC_FLAG >> 5;
  if (tmp == 1)               /* The flag to check is in CR register */
  {
    statusreg = RCC->CR;
 80018ae:	f643 0100 	movw	r1, #14336	; 0x3800
  *          - SUCCESS: HSE oscillator is stable and ready to use
  *          - ERROR: HSE oscillator not yet ready
  */
ErrorStatus RCC_WaitForHSEStartUp(void)
{
  __IO uint32_t startupcounter = 0;
 80018b2:	2300      	movs	r3, #0
 80018b4:	9301      	str	r3, [sp, #4]

  /* Get the RCC register index */
  tmp = RCC_FLAG >> 5;
  if (tmp == 1)               /* The flag to check is in CR register */
  {
    statusreg = RCC->CR;
 80018b6:	f2c4 0102 	movt	r1, #16386	; 0x4002
 80018ba:	680a      	ldr	r2, [r1, #0]
  FlagStatus hsestatus = RESET;
  /* Wait till HSE is ready and if Time out is reached exit */
  do
  {
    hsestatus = RCC_GetFlagStatus(RCC_FLAG_HSERDY);
    startupcounter++;
 80018bc:	9801      	ldr	r0, [sp, #4]
 80018be:	1c43      	adds	r3, r0, #1
 80018c0:	9301      	str	r3, [sp, #4]
  } while((startupcounter != HSE_STARTUP_TIMEOUT) && (hsestatus == RESET));
 80018c2:	9801      	ldr	r0, [sp, #4]
 80018c4:	f5b0 6fa0 	cmp.w	r0, #1280	; 0x500
 80018c8:	d002      	beq.n	80018d0 <RCC_WaitForHSEStartUp+0x24>
 80018ca:	f412 3f00 	tst.w	r2, #131072	; 0x20000
 80018ce:	d0f4      	beq.n	80018ba <RCC_WaitForHSEStartUp+0xe>

  /* Get the RCC register index */
  tmp = RCC_FLAG >> 5;
  if (tmp == 1)               /* The flag to check is in CR register */
  {
    statusreg = RCC->CR;
 80018d0:	f643 0200 	movw	r2, #14336	; 0x3800
 80018d4:	f2c4 0202 	movt	r2, #16386	; 0x4002
 80018d8:	6811      	ldr	r1, [r2, #0]
  else
  {
    status = ERROR;
  }
  return (status);
}
 80018da:	f3c1 4040 	ubfx	r0, r1, #17, #1
 80018de:	b002      	add	sp, #8
 80018e0:	4770      	bx	lr
 80018e2:	bf00      	nop

080018e4 <RCC_AdjustHSICalibrationValue>:
{
  uint32_t tmpreg = 0;
  /* Check the parameters */
  assert_param(IS_RCC_CALIBRATION_VALUE(HSICalibrationValue));

  tmpreg = RCC->CR;
 80018e4:	f643 0300 	movw	r3, #14336	; 0x3800
 80018e8:	f2c4 0302 	movt	r3, #16386	; 0x4002
 80018ec:	681a      	ldr	r2, [r3, #0]

  /* Clear HSITRIM[4:0] bits */
  tmpreg &= ~RCC_CR_HSITRIM;
 80018ee:	f022 01f8 	bic.w	r1, r2, #248	; 0xf8

  /* Set the HSITRIM[4:0] bits according to HSICalibrationValue value */
  tmpreg |= (uint32_t)HSICalibrationValue << 3;
 80018f2:	ea41 02c0 	orr.w	r2, r1, r0, lsl #3

  /* Store the new value */
  RCC->CR = tmpreg;
 80018f6:	601a      	str	r2, [r3, #0]
}
 80018f8:	4770      	bx	lr
 80018fa:	bf00      	nop

080018fc <RCC_HSICmd>:
void RCC_HSICmd(FunctionalState NewState)
{
  /* Check the parameters */
  assert_param(IS_FUNCTIONAL_STATE(NewState));

  *(__IO uint32_t *) CR_HSION_BB = (uint32_t)NewState;
 80018fc:	f240 0300 	movw	r3, #0
 8001900:	f2c4 2347 	movt	r3, #16967	; 0x4247
 8001904:	6018      	str	r0, [r3, #0]
}
 8001906:	4770      	bx	lr

08001908 <RCC_LSEConfig>:
  /* Check the parameters */
  assert_param(IS_RCC_LSE(RCC_LSE));

  /* Reset LSEON and LSEBYP bits before configuring the LSE ------------------*/
  /* Reset LSEON bit */
  *(__IO uint8_t *) BDCR_ADDRESS = RCC_LSE_OFF;
 8001908:	f643 0370 	movw	r3, #14448	; 0x3870
 800190c:	2200      	movs	r2, #0
 800190e:	f2c4 0302 	movt	r3, #16386	; 0x4002

  /* Reset LSEBYP bit */
  *(__IO uint8_t *) BDCR_ADDRESS = RCC_LSE_OFF;

  /* Configure LSE (RCC_LSE_OFF is already covered by the code section above) */
  switch (RCC_LSE)
 8001912:	2801      	cmp	r0, #1
  /* Check the parameters */
  assert_param(IS_RCC_LSE(RCC_LSE));

  /* Reset LSEON and LSEBYP bits before configuring the LSE ------------------*/
  /* Reset LSEON bit */
  *(__IO uint8_t *) BDCR_ADDRESS = RCC_LSE_OFF;
 8001914:	701a      	strb	r2, [r3, #0]

  /* Reset LSEBYP bit */
  *(__IO uint8_t *) BDCR_ADDRESS = RCC_LSE_OFF;
 8001916:	701a      	strb	r2, [r3, #0]

  /* Configure LSE (RCC_LSE_OFF is already covered by the code section above) */
  switch (RCC_LSE)
 8001918:	d004      	beq.n	8001924 <RCC_LSEConfig+0x1c>
 800191a:	2804      	cmp	r0, #4
 800191c:	d101      	bne.n	8001922 <RCC_LSEConfig+0x1a>
      /* Set LSEON bit */
      *(__IO uint8_t *) BDCR_ADDRESS = RCC_LSE_ON;
      break;
    case RCC_LSE_Bypass:
      /* Set LSEBYP and LSEON bits */
      *(__IO uint8_t *) BDCR_ADDRESS = RCC_LSE_Bypass | RCC_LSE_ON;
 800191e:	2005      	movs	r0, #5
 8001920:	7018      	strb	r0, [r3, #0]
 8001922:	4770      	bx	lr
  /* Configure LSE (RCC_LSE_OFF is already covered by the code section above) */
  switch (RCC_LSE)
  {
    case RCC_LSE_ON:
      /* Set LSEON bit */
      *(__IO uint8_t *) BDCR_ADDRESS = RCC_LSE_ON;
 8001924:	7018      	strb	r0, [r3, #0]
      break;
 8001926:	4770      	bx	lr

08001928 <RCC_LSICmd>:
void RCC_LSICmd(FunctionalState NewState)
{
  /* Check the parameters */
  assert_param(IS_FUNCTIONAL_STATE(NewState));

  *(__IO uint32_t *) CSR_LSION_BB = (uint32_t)NewState;
 8001928:	f640 6380 	movw	r3, #3712	; 0xe80
 800192c:	f2c4 2347 	movt	r3, #16967	; 0x4247
 8001930:	6018      	str	r0, [r3, #0]
}
 8001932:	4770      	bx	lr

08001934 <RCC_PLLConfig>:
  assert_param(IS_RCC_PLLM_VALUE(PLLM));
  assert_param(IS_RCC_PLLN_VALUE(PLLN));
  assert_param(IS_RCC_PLLP_VALUE(PLLP));
  assert_param(IS_RCC_PLLQ_VALUE(PLLQ));

  RCC->PLLCFGR = PLLM | (PLLN << 6) | (((PLLP >> 1) -1) << 16) | (RCC_PLLSource) |
 8001934:	4301      	orrs	r1, r0
 8001936:	ea41 1282 	orr.w	r2, r1, r2, lsl #6
 800193a:	9900      	ldr	r1, [sp, #0]
 800193c:	0858      	lsrs	r0, r3, #1
 800193e:	1e43      	subs	r3, r0, #1
 8001940:	ea42 6c01 	orr.w	ip, r2, r1, lsl #24
 8001944:	f643 0000 	movw	r0, #14336	; 0x3800
 8001948:	ea4c 4203 	orr.w	r2, ip, r3, lsl #16
 800194c:	f2c4 0002 	movt	r0, #16386	; 0x4002
 8001950:	6042      	str	r2, [r0, #4]
                 (PLLQ << 24);
}
 8001952:	4770      	bx	lr

08001954 <RCC_PLLCmd>:
  */
void RCC_PLLCmd(FunctionalState NewState)
{
  /* Check the parameters */
  assert_param(IS_FUNCTIONAL_STATE(NewState));
  *(__IO uint32_t *) CR_PLLON_BB = (uint32_t)NewState;
 8001954:	f240 0360 	movw	r3, #96	; 0x60
 8001958:	f2c4 2347 	movt	r3, #16967	; 0x4247
 800195c:	6018      	str	r0, [r3, #0]
}
 800195e:	4770      	bx	lr

08001960 <RCC_PLLI2SConfig>:
{
  /* Check the parameters */
  assert_param(IS_RCC_PLLI2SN_VALUE(PLLI2SN));
  assert_param(IS_RCC_PLLI2SR_VALUE(PLLI2SR));

  RCC->PLLI2SCFGR = (PLLI2SN << 6) | (PLLI2SR << 28);
 8001960:	0180      	lsls	r0, r0, #6
 8001962:	f643 0300 	movw	r3, #14336	; 0x3800
 8001966:	ea40 7101 	orr.w	r1, r0, r1, lsl #28
 800196a:	f2c4 0302 	movt	r3, #16386	; 0x4002
 800196e:	f8c3 1084 	str.w	r1, [r3, #132]	; 0x84
}
 8001972:	4770      	bx	lr

08001974 <RCC_PLLI2SCmd>:
  */
void RCC_PLLI2SCmd(FunctionalState NewState)
{
  /* Check the parameters */
  assert_param(IS_FUNCTIONAL_STATE(NewState));
  *(__IO uint32_t *) CR_PLLI2SON_BB = (uint32_t)NewState;
 8001974:	f240 0368 	movw	r3, #104	; 0x68
 8001978:	f2c4 2347 	movt	r3, #16967	; 0x4247
 800197c:	6018      	str	r0, [r3, #0]
}
 800197e:	4770      	bx	lr

08001980 <RCC_ClockSecuritySystemCmd>:
  */
void RCC_ClockSecuritySystemCmd(FunctionalState NewState)
{
  /* Check the parameters */
  assert_param(IS_FUNCTIONAL_STATE(NewState));
  *(__IO uint32_t *) CR_CSSON_BB = (uint32_t)NewState;
 8001980:	f240 034c 	movw	r3, #76	; 0x4c
 8001984:	f2c4 2347 	movt	r3, #16967	; 0x4247
 8001988:	6018      	str	r0, [r3, #0]
}
 800198a:	4770      	bx	lr

0800198c <RCC_MCO1Config>:
  
  /* Check the parameters */
  assert_param(IS_RCC_MCO1SOURCE(RCC_MCO1Source));
  assert_param(IS_RCC_MCO1DIV(RCC_MCO1Div));  

  tmpreg = RCC->CFGR;
 800198c:	f643 0300 	movw	r3, #14336	; 0x3800
 8001990:	f2c4 0302 	movt	r3, #16386	; 0x4002
 8001994:	689a      	ldr	r2, [r3, #8]

  /* Clear MCO1[1:0] and MCO1PRE[2:0] bits */
  tmpreg &= CFGR_MCO1_RESET_MASK;

  /* Select MCO1 clock source and prescaler */
  tmpreg |= RCC_MCO1Source | RCC_MCO1Div;
 8001996:	f022 6cec 	bic.w	ip, r2, #123731968	; 0x7600000
 800199a:	ea40 020c 	orr.w	r2, r0, ip
 800199e:	430a      	orrs	r2, r1

  /* Store the new value */
  RCC->CFGR = tmpreg;  
 80019a0:	609a      	str	r2, [r3, #8]
}
 80019a2:	4770      	bx	lr

080019a4 <RCC_MCO2Config>:
  
  /* Check the parameters */
  assert_param(IS_RCC_MCO2SOURCE(RCC_MCO2Source));
  assert_param(IS_RCC_MCO2DIV(RCC_MCO2Div));
  
  tmpreg = RCC->CFGR;
 80019a4:	f643 0300 	movw	r3, #14336	; 0x3800
 80019a8:	f2c4 0302 	movt	r3, #16386	; 0x4002
 80019ac:	689a      	ldr	r2, [r3, #8]
  
  /* Clear MCO2 and MCO2PRE[2:0] bits */
  tmpreg &= CFGR_MCO2_RESET_MASK;

  /* Select MCO2 clock source and prescaler */
  tmpreg |= RCC_MCO2Source | RCC_MCO2Div;
 80019ae:	f022 4c78 	bic.w	ip, r2, #4160749568	; 0xf8000000
 80019b2:	ea40 020c 	orr.w	r2, r0, ip
 80019b6:	430a      	orrs	r2, r1

  /* Store the new value */
  RCC->CFGR = tmpreg;  
 80019b8:	609a      	str	r2, [r3, #8]
}
 80019ba:	4770      	bx	lr

080019bc <RCC_SYSCLKConfig>:
  uint32_t tmpreg = 0;

  /* Check the parameters */
  assert_param(IS_RCC_SYSCLK_SOURCE(RCC_SYSCLKSource));

  tmpreg = RCC->CFGR;
 80019bc:	f643 0300 	movw	r3, #14336	; 0x3800
 80019c0:	f2c4 0302 	movt	r3, #16386	; 0x4002
 80019c4:	689a      	ldr	r2, [r3, #8]

  /* Clear SW[1:0] bits */
  tmpreg &= ~RCC_CFGR_SW;
 80019c6:	f022 0103 	bic.w	r1, r2, #3

  /* Set SW[1:0] bits according to RCC_SYSCLKSource value */
  tmpreg |= RCC_SYSCLKSource;
 80019ca:	ea40 0201 	orr.w	r2, r0, r1

  /* Store the new value */
  RCC->CFGR = tmpreg;
 80019ce:	609a      	str	r2, [r3, #8]
}
 80019d0:	4770      	bx	lr
 80019d2:	bf00      	nop

080019d4 <RCC_GetSYSCLKSource>:
  *              - 0x04: HSE used as system clock
  *              - 0x08: PLL used as system clock
  */
uint8_t RCC_GetSYSCLKSource(void)
{
  return ((uint8_t)(RCC->CFGR & RCC_CFGR_SWS));
 80019d4:	f643 0300 	movw	r3, #14336	; 0x3800
 80019d8:	f2c4 0302 	movt	r3, #16386	; 0x4002
 80019dc:	6898      	ldr	r0, [r3, #8]
}
 80019de:	f000 000c 	and.w	r0, r0, #12
 80019e2:	4770      	bx	lr

080019e4 <RCC_HCLKConfig>:
  uint32_t tmpreg = 0;
  
  /* Check the parameters */
  assert_param(IS_RCC_HCLK(RCC_SYSCLK));

  tmpreg = RCC->CFGR;
 80019e4:	f643 0300 	movw	r3, #14336	; 0x3800
 80019e8:	f2c4 0302 	movt	r3, #16386	; 0x4002
 80019ec:	689a      	ldr	r2, [r3, #8]

  /* Clear HPRE[3:0] bits */
  tmpreg &= ~RCC_CFGR_HPRE;
 80019ee:	f022 01f0 	bic.w	r1, r2, #240	; 0xf0

  /* Set HPRE[3:0] bits according to RCC_SYSCLK value */
  tmpreg |= RCC_SYSCLK;
 80019f2:	ea40 0201 	orr.w	r2, r0, r1

  /* Store the new value */
  RCC->CFGR = tmpreg;
 80019f6:	609a      	str	r2, [r3, #8]
}
 80019f8:	4770      	bx	lr
 80019fa:	bf00      	nop

080019fc <RCC_PCLK1Config>:
  uint32_t tmpreg = 0;

  /* Check the parameters */
  assert_param(IS_RCC_PCLK(RCC_HCLK));

  tmpreg = RCC->CFGR;
 80019fc:	f643 0300 	movw	r3, #14336	; 0x3800
 8001a00:	f2c4 0302 	movt	r3, #16386	; 0x4002
 8001a04:	689a      	ldr	r2, [r3, #8]

  /* Clear PPRE1[2:0] bits */
  tmpreg &= ~RCC_CFGR_PPRE1;
 8001a06:	f422 51e0 	bic.w	r1, r2, #7168	; 0x1c00

  /* Set PPRE1[2:0] bits according to RCC_HCLK value */
  tmpreg |= RCC_HCLK;
 8001a0a:	ea40 0201 	orr.w	r2, r0, r1

  /* Store the new value */
  RCC->CFGR = tmpreg;
 8001a0e:	609a      	str	r2, [r3, #8]
}
 8001a10:	4770      	bx	lr
 8001a12:	bf00      	nop

08001a14 <RCC_PCLK2Config>:
  uint32_t tmpreg = 0;

  /* Check the parameters */
  assert_param(IS_RCC_PCLK(RCC_HCLK));

  tmpreg = RCC->CFGR;
 8001a14:	f643 0300 	movw	r3, #14336	; 0x3800
 8001a18:	f2c4 0302 	movt	r3, #16386	; 0x4002
 8001a1c:	689a      	ldr	r2, [r3, #8]

  /* Clear PPRE2[2:0] bits */
  tmpreg &= ~RCC_CFGR_PPRE2;
 8001a1e:	f422 4160 	bic.w	r1, r2, #57344	; 0xe000

  /* Set PPRE2[2:0] bits according to RCC_HCLK value */
  tmpreg |= RCC_HCLK << 3;
 8001a22:	ea41 02c0 	orr.w	r2, r1, r0, lsl #3

  /* Store the new value */
  RCC->CFGR = tmpreg;
 8001a26:	609a      	str	r2, [r3, #8]
}
 8001a28:	4770      	bx	lr
 8001a2a:	bf00      	nop

08001a2c <RCC_GetClocksFreq>:
void RCC_GetClocksFreq(RCC_ClocksTypeDef* RCC_Clocks)
{
  uint32_t tmp = 0, presc = 0, pllvco = 0, pllp = 2, pllsource = 0, pllm = 2;

  /* Get SYSCLK source -------------------------------------------------------*/
  tmp = RCC->CFGR & RCC_CFGR_SWS;
 8001a2c:	f643 0300 	movw	r3, #14336	; 0x3800
 8001a30:	f2c4 0302 	movt	r3, #16386	; 0x4002
 8001a34:	689a      	ldr	r2, [r3, #8]
  *         configuration based on this function will be incorrect.
  *    
  * @retval None
  */
void RCC_GetClocksFreq(RCC_ClocksTypeDef* RCC_Clocks)
{
 8001a36:	b410      	push	{r4}
  uint32_t tmp = 0, presc = 0, pllvco = 0, pllp = 2, pllsource = 0, pllm = 2;

  /* Get SYSCLK source -------------------------------------------------------*/
  tmp = RCC->CFGR & RCC_CFGR_SWS;

  switch (tmp)
 8001a38:	f002 020c 	and.w	r2, r2, #12
 8001a3c:	2a04      	cmp	r2, #4
  {
    case 0x00:  /* HSI used as system clock source */
      RCC_Clocks->SYSCLK_Frequency = HSI_VALUE;
      break;
    case 0x04:  /* HSE used as system clock  source */
      RCC_Clocks->SYSCLK_Frequency = HSE_VALUE;
 8001a3e:	bf02      	ittt	eq
 8001a40:	f241 2100 	movweq	r1, #4608	; 0x1200
 8001a44:	f2c0 017a 	movteq	r1, #122	; 0x7a
 8001a48:	6001      	streq	r1, [r0, #0]
  uint32_t tmp = 0, presc = 0, pllvco = 0, pllp = 2, pllsource = 0, pllm = 2;

  /* Get SYSCLK source -------------------------------------------------------*/
  tmp = RCC->CFGR & RCC_CFGR_SWS;

  switch (tmp)
 8001a4a:	d006      	beq.n	8001a5a <RCC_GetClocksFreq+0x2e>
 8001a4c:	2a08      	cmp	r2, #8
 8001a4e:	d026      	beq.n	8001a9e <RCC_GetClocksFreq+0x72>

      pllp = (((RCC->PLLCFGR & RCC_PLLCFGR_PLLP) >>16) + 1 ) *2;
      RCC_Clocks->SYSCLK_Frequency = pllvco/pllp;
      break;
    default:
      RCC_Clocks->SYSCLK_Frequency = HSI_VALUE;
 8001a50:	f242 4100 	movw	r1, #9216	; 0x2400
 8001a54:	f2c0 01f4 	movt	r1, #244	; 0xf4
 8001a58:	6001      	str	r1, [r0, #0]
      break;
  }
  /* Compute HCLK, PCLK1 and PCLK2 clocks frequencies ------------------------*/

  /* Get HCLK prescaler */
  tmp = RCC->CFGR & RCC_CFGR_HPRE;
 8001a5a:	f643 0200 	movw	r2, #14336	; 0x3800
 8001a5e:	f2c4 0202 	movt	r2, #16386	; 0x4002
 8001a62:	6894      	ldr	r4, [r2, #8]
  tmp = tmp >> 4;
  presc = APBAHBPrescTable[tmp];
 8001a64:	f240 038c 	movw	r3, #140	; 0x8c
 8001a68:	f2c2 0300 	movt	r3, #8192	; 0x2000
  }
  /* Compute HCLK, PCLK1 and PCLK2 clocks frequencies ------------------------*/

  /* Get HCLK prescaler */
  tmp = RCC->CFGR & RCC_CFGR_HPRE;
  tmp = tmp >> 4;
 8001a6c:	f3c4 1c03 	ubfx	ip, r4, #4, #4
  presc = APBAHBPrescTable[tmp];
 8001a70:	f813 c00c 	ldrb.w	ip, [r3, ip]
  /* HCLK clock frequency */
  RCC_Clocks->HCLK_Frequency = RCC_Clocks->SYSCLK_Frequency >> presc;
 8001a74:	fa21 f10c 	lsr.w	r1, r1, ip
 8001a78:	6041      	str	r1, [r0, #4]

  /* Get PCLK1 prescaler */
  tmp = RCC->CFGR & RCC_CFGR_PPRE1;
 8001a7a:	6894      	ldr	r4, [r2, #8]
  tmp = tmp >> 10;
 8001a7c:	f3c4 2c82 	ubfx	ip, r4, #10, #3
  presc = APBAHBPrescTable[tmp];
 8001a80:	f813 400c 	ldrb.w	r4, [r3, ip]
  /* PCLK1 clock frequency */
  RCC_Clocks->PCLK1_Frequency = RCC_Clocks->HCLK_Frequency >> presc;
 8001a84:	fa31 f404 	lsrs.w	r4, r1, r4
 8001a88:	6084      	str	r4, [r0, #8]

  /* Get PCLK2 prescaler */
  tmp = RCC->CFGR & RCC_CFGR_PPRE2;
 8001a8a:	6892      	ldr	r2, [r2, #8]
  tmp = tmp >> 13;
 8001a8c:	f3c2 3c42 	ubfx	ip, r2, #13, #3
  presc = APBAHBPrescTable[tmp];
 8001a90:	f813 300c 	ldrb.w	r3, [r3, ip]
  /* PCLK2 clock frequency */
  RCC_Clocks->PCLK2_Frequency = RCC_Clocks->HCLK_Frequency >> presc;
 8001a94:	fa31 f203 	lsrs.w	r2, r1, r3
 8001a98:	60c2      	str	r2, [r0, #12]
}
 8001a9a:	bc10      	pop	{r4}
 8001a9c:	4770      	bx	lr
    case 0x08:  /* PLL used as system clock  source */

      /* PLL_VCO = (HSE_VALUE or HSI_VALUE / PLLM) * PLLN
         SYSCLK = PLL_VCO / PLLP
         */    
      pllsource = (RCC->PLLCFGR & RCC_PLLCFGR_PLLSRC) >> 22;
 8001a9e:	6859      	ldr	r1, [r3, #4]
      pllm = RCC->PLLCFGR & RCC_PLLCFGR_PLLM;
 8001aa0:	685c      	ldr	r4, [r3, #4]
      
      if (pllsource != 0)
 8001aa2:	f411 0f80 	tst.w	r1, #4194304	; 0x400000

      /* PLL_VCO = (HSE_VALUE or HSI_VALUE / PLLM) * PLLN
         SYSCLK = PLL_VCO / PLLP
         */    
      pllsource = (RCC->PLLCFGR & RCC_PLLCFGR_PLLSRC) >> 22;
      pllm = RCC->PLLCFGR & RCC_PLLCFGR_PLLM;
 8001aa6:	f004 023f 	and.w	r2, r4, #63	; 0x3f
      
      if (pllsource != 0)
      {
        /* HSE used as PLL clock source */
        pllvco = (HSE_VALUE / pllm) * ((RCC->PLLCFGR & RCC_PLLCFGR_PLLN) >> 6);
 8001aaa:	685c      	ldr	r4, [r3, #4]
 8001aac:	bf14      	ite	ne
 8001aae:	f241 2300 	movwne	r3, #4608	; 0x1200
      }
      else
      {
        /* HSI used as PLL clock source */
        pllvco = (HSI_VALUE / pllm) * ((RCC->PLLCFGR & RCC_PLLCFGR_PLLN) >> 6);      
 8001ab2:	f242 4300 	movweq	r3, #9216	; 0x2400
 8001ab6:	f3c4 1c88 	ubfx	ip, r4, #6, #9
      }

      pllp = (((RCC->PLLCFGR & RCC_PLLCFGR_PLLP) >>16) + 1 ) *2;
 8001aba:	f643 0400 	movw	r4, #14336	; 0x3800
      pllm = RCC->PLLCFGR & RCC_PLLCFGR_PLLM;
      
      if (pllsource != 0)
      {
        /* HSE used as PLL clock source */
        pllvco = (HSE_VALUE / pllm) * ((RCC->PLLCFGR & RCC_PLLCFGR_PLLN) >> 6);
 8001abe:	bf14      	ite	ne
 8001ac0:	f2c0 037a 	movtne	r3, #122	; 0x7a
      }
      else
      {
        /* HSI used as PLL clock source */
        pllvco = (HSI_VALUE / pllm) * ((RCC->PLLCFGR & RCC_PLLCFGR_PLLN) >> 6);      
 8001ac4:	f2c0 03f4 	movteq	r3, #244	; 0xf4
      }

      pllp = (((RCC->PLLCFGR & RCC_PLLCFGR_PLLP) >>16) + 1 ) *2;
 8001ac8:	f2c4 0402 	movt	r4, #16386	; 0x4002
        pllvco = (HSE_VALUE / pllm) * ((RCC->PLLCFGR & RCC_PLLCFGR_PLLN) >> 6);
      }
      else
      {
        /* HSI used as PLL clock source */
        pllvco = (HSI_VALUE / pllm) * ((RCC->PLLCFGR & RCC_PLLCFGR_PLLN) >> 6);      
 8001acc:	fbb3 f1f2 	udiv	r1, r3, r2
      }

      pllp = (((RCC->PLLCFGR & RCC_PLLCFGR_PLLP) >>16) + 1 ) *2;
 8001ad0:	6863      	ldr	r3, [r4, #4]
        pllvco = (HSE_VALUE / pllm) * ((RCC->PLLCFGR & RCC_PLLCFGR_PLLN) >> 6);
      }
      else
      {
        /* HSI used as PLL clock source */
        pllvco = (HSI_VALUE / pllm) * ((RCC->PLLCFGR & RCC_PLLCFGR_PLLN) >> 6);      
 8001ad2:	fb01 f10c 	mul.w	r1, r1, ip
      }

      pllp = (((RCC->PLLCFGR & RCC_PLLCFGR_PLLP) >>16) + 1 ) *2;
      RCC_Clocks->SYSCLK_Frequency = pllvco/pllp;
 8001ad6:	f3c3 4201 	ubfx	r2, r3, #16, #2
 8001ada:	1c54      	adds	r4, r2, #1
 8001adc:	0063      	lsls	r3, r4, #1
 8001ade:	fbb1 f1f3 	udiv	r1, r1, r3
 8001ae2:	6001      	str	r1, [r0, #0]
      break;
 8001ae4:	e7b9      	b.n	8001a5a <RCC_GetClocksFreq+0x2e>
 8001ae6:	bf00      	nop

08001ae8 <RCC_RTCCLKConfig>:
  uint32_t tmpreg = 0;

  /* Check the parameters */
  assert_param(IS_RCC_RTCCLK_SOURCE(RCC_RTCCLKSource));

  if ((RCC_RTCCLKSource & 0x00000300) == 0x00000300)
 8001ae8:	f400 7340 	and.w	r3, r0, #768	; 0x300
 8001aec:	f5b3 7f40 	cmp.w	r3, #768	; 0x300
 8001af0:	d10c      	bne.n	8001b0c <RCC_RTCCLKConfig+0x24>
  { /* If HSE is selected as RTC clock source, configure HSE division factor for RTC clock */
    tmpreg = RCC->CFGR;
 8001af2:	f643 0300 	movw	r3, #14336	; 0x3800
 8001af6:	f2c4 0302 	movt	r3, #16386	; 0x4002
 8001afa:	689a      	ldr	r2, [r3, #8]

    /* Clear RTCPRE[4:0] bits */
    tmpreg &= ~RCC_CFGR_RTCPRE;

    /* Configure HSE division factor for RTC clock */
    tmpreg |= (RCC_RTCCLKSource & 0xFFFFCFF);
 8001afc:	f020 4c70 	bic.w	ip, r0, #4026531840	; 0xf0000000
  if ((RCC_RTCCLKSource & 0x00000300) == 0x00000300)
  { /* If HSE is selected as RTC clock source, configure HSE division factor for RTC clock */
    tmpreg = RCC->CFGR;

    /* Clear RTCPRE[4:0] bits */
    tmpreg &= ~RCC_CFGR_RTCPRE;
 8001b00:	f422 11f8 	bic.w	r1, r2, #2031616	; 0x1f0000

    /* Configure HSE division factor for RTC clock */
    tmpreg |= (RCC_RTCCLKSource & 0xFFFFCFF);
 8001b04:	f42c 7240 	bic.w	r2, ip, #768	; 0x300
 8001b08:	430a      	orrs	r2, r1

    /* Store the new value */
    RCC->CFGR = tmpreg;
 8001b0a:	609a      	str	r2, [r3, #8]
  }
    
  /* Select the RTC clock source */
  RCC->BDCR |= (RCC_RTCCLKSource & 0x00000FFF);
 8001b0c:	f643 0300 	movw	r3, #14336	; 0x3800
 8001b10:	f2c4 0302 	movt	r3, #16386	; 0x4002
 8001b14:	6f19      	ldr	r1, [r3, #112]	; 0x70
 8001b16:	0502      	lsls	r2, r0, #20
 8001b18:	0d10      	lsrs	r0, r2, #20
 8001b1a:	4308      	orrs	r0, r1
 8001b1c:	6718      	str	r0, [r3, #112]	; 0x70
}
 8001b1e:	4770      	bx	lr

08001b20 <RCC_RTCCLKCmd>:
void RCC_RTCCLKCmd(FunctionalState NewState)
{
  /* Check the parameters */
  assert_param(IS_FUNCTIONAL_STATE(NewState));

  *(__IO uint32_t *) BDCR_RTCEN_BB = (uint32_t)NewState;
 8001b20:	f640 633c 	movw	r3, #3644	; 0xe3c
 8001b24:	f2c4 2347 	movt	r3, #16967	; 0x4247
 8001b28:	6018      	str	r0, [r3, #0]
}
 8001b2a:	4770      	bx	lr

08001b2c <RCC_BackupResetCmd>:
  */
void RCC_BackupResetCmd(FunctionalState NewState)
{
  /* Check the parameters */
  assert_param(IS_FUNCTIONAL_STATE(NewState));
  *(__IO uint32_t *) BDCR_BDRST_BB = (uint32_t)NewState;
 8001b2c:	f640 6340 	movw	r3, #3648	; 0xe40
 8001b30:	f2c4 2347 	movt	r3, #16967	; 0x4247
 8001b34:	6018      	str	r0, [r3, #0]
}
 8001b36:	4770      	bx	lr

08001b38 <RCC_I2SCLKConfig>:
void RCC_I2SCLKConfig(uint32_t RCC_I2SCLKSource)
{
  /* Check the parameters */
  assert_param(IS_RCC_I2SCLK_SOURCE(RCC_I2SCLKSource));

  *(__IO uint32_t *) CFGR_I2SSRC_BB = RCC_I2SCLKSource;
 8001b38:	f240 135c 	movw	r3, #348	; 0x15c
 8001b3c:	f2c4 2347 	movt	r3, #16967	; 0x4247
 8001b40:	6018      	str	r0, [r3, #0]
}
 8001b42:	4770      	bx	lr

08001b44 <RCC_AHB1PeriphClockCmd>:
{
  /* Check the parameters */
  assert_param(IS_RCC_AHB1_CLOCK_PERIPH(RCC_AHB1Periph));

  assert_param(IS_FUNCTIONAL_STATE(NewState));
  if (NewState != DISABLE)
 8001b44:	b941      	cbnz	r1, 8001b58 <RCC_AHB1PeriphClockCmd+0x14>
  {
    RCC->AHB1ENR |= RCC_AHB1Periph;
  }
  else
  {
    RCC->AHB1ENR &= ~RCC_AHB1Periph;
 8001b46:	f643 0100 	movw	r1, #14336	; 0x3800
 8001b4a:	f2c4 0102 	movt	r1, #16386	; 0x4002
 8001b4e:	6b0b      	ldr	r3, [r1, #48]	; 0x30
 8001b50:	ea23 0000 	bic.w	r0, r3, r0
 8001b54:	6308      	str	r0, [r1, #48]	; 0x30
 8001b56:	4770      	bx	lr
  assert_param(IS_RCC_AHB1_CLOCK_PERIPH(RCC_AHB1Periph));

  assert_param(IS_FUNCTIONAL_STATE(NewState));
  if (NewState != DISABLE)
  {
    RCC->AHB1ENR |= RCC_AHB1Periph;
 8001b58:	f643 0300 	movw	r3, #14336	; 0x3800
 8001b5c:	f2c4 0302 	movt	r3, #16386	; 0x4002
 8001b60:	6b1a      	ldr	r2, [r3, #48]	; 0x30
 8001b62:	4310      	orrs	r0, r2
 8001b64:	6318      	str	r0, [r3, #48]	; 0x30
 8001b66:	4770      	bx	lr

08001b68 <RCC_AHB2PeriphClockCmd>:
{
  /* Check the parameters */
  assert_param(IS_RCC_AHB2_PERIPH(RCC_AHB2Periph));
  assert_param(IS_FUNCTIONAL_STATE(NewState));

  if (NewState != DISABLE)
 8001b68:	b941      	cbnz	r1, 8001b7c <RCC_AHB2PeriphClockCmd+0x14>
  {
    RCC->AHB2ENR |= RCC_AHB2Periph;
  }
  else
  {
    RCC->AHB2ENR &= ~RCC_AHB2Periph;
 8001b6a:	f643 0100 	movw	r1, #14336	; 0x3800
 8001b6e:	f2c4 0102 	movt	r1, #16386	; 0x4002
 8001b72:	6b4b      	ldr	r3, [r1, #52]	; 0x34
 8001b74:	ea23 0000 	bic.w	r0, r3, r0
 8001b78:	6348      	str	r0, [r1, #52]	; 0x34
 8001b7a:	4770      	bx	lr
  assert_param(IS_RCC_AHB2_PERIPH(RCC_AHB2Periph));
  assert_param(IS_FUNCTIONAL_STATE(NewState));

  if (NewState != DISABLE)
  {
    RCC->AHB2ENR |= RCC_AHB2Periph;
 8001b7c:	f643 0300 	movw	r3, #14336	; 0x3800
 8001b80:	f2c4 0302 	movt	r3, #16386	; 0x4002
 8001b84:	6b5a      	ldr	r2, [r3, #52]	; 0x34
 8001b86:	4310      	orrs	r0, r2
 8001b88:	6358      	str	r0, [r3, #52]	; 0x34
 8001b8a:	4770      	bx	lr

08001b8c <RCC_AHB3PeriphClockCmd>:
{
  /* Check the parameters */
  assert_param(IS_RCC_AHB3_PERIPH(RCC_AHB3Periph));  
  assert_param(IS_FUNCTIONAL_STATE(NewState));

  if (NewState != DISABLE)
 8001b8c:	b941      	cbnz	r1, 8001ba0 <RCC_AHB3PeriphClockCmd+0x14>
  {
    RCC->AHB3ENR |= RCC_AHB3Periph;
  }
  else
  {
    RCC->AHB3ENR &= ~RCC_AHB3Periph;
 8001b8e:	f643 0100 	movw	r1, #14336	; 0x3800
 8001b92:	f2c4 0102 	movt	r1, #16386	; 0x4002
 8001b96:	6b8b      	ldr	r3, [r1, #56]	; 0x38
 8001b98:	ea23 0000 	bic.w	r0, r3, r0
 8001b9c:	6388      	str	r0, [r1, #56]	; 0x38
 8001b9e:	4770      	bx	lr
  assert_param(IS_RCC_AHB3_PERIPH(RCC_AHB3Periph));  
  assert_param(IS_FUNCTIONAL_STATE(NewState));

  if (NewState != DISABLE)
  {
    RCC->AHB3ENR |= RCC_AHB3Periph;
 8001ba0:	f643 0300 	movw	r3, #14336	; 0x3800
 8001ba4:	f2c4 0302 	movt	r3, #16386	; 0x4002
 8001ba8:	6b9a      	ldr	r2, [r3, #56]	; 0x38
 8001baa:	4310      	orrs	r0, r2
 8001bac:	6398      	str	r0, [r3, #56]	; 0x38
 8001bae:	4770      	bx	lr

08001bb0 <RCC_APB1PeriphClockCmd>:
{
  /* Check the parameters */
  assert_param(IS_RCC_APB1_PERIPH(RCC_APB1Periph));  
  assert_param(IS_FUNCTIONAL_STATE(NewState));

  if (NewState != DISABLE)
 8001bb0:	b941      	cbnz	r1, 8001bc4 <RCC_APB1PeriphClockCmd+0x14>
  {
    RCC->APB1ENR |= RCC_APB1Periph;
  }
  else
  {
    RCC->APB1ENR &= ~RCC_APB1Periph;
 8001bb2:	f643 0100 	movw	r1, #14336	; 0x3800
 8001bb6:	f2c4 0102 	movt	r1, #16386	; 0x4002
 8001bba:	6c0b      	ldr	r3, [r1, #64]	; 0x40
 8001bbc:	ea23 0000 	bic.w	r0, r3, r0
 8001bc0:	6408      	str	r0, [r1, #64]	; 0x40
 8001bc2:	4770      	bx	lr
  assert_param(IS_RCC_APB1_PERIPH(RCC_APB1Periph));  
  assert_param(IS_FUNCTIONAL_STATE(NewState));

  if (NewState != DISABLE)
  {
    RCC->APB1ENR |= RCC_APB1Periph;
 8001bc4:	f643 0300 	movw	r3, #14336	; 0x3800
 8001bc8:	f2c4 0302 	movt	r3, #16386	; 0x4002
 8001bcc:	6c1a      	ldr	r2, [r3, #64]	; 0x40
 8001bce:	4310      	orrs	r0, r2
 8001bd0:	6418      	str	r0, [r3, #64]	; 0x40
 8001bd2:	4770      	bx	lr

08001bd4 <RCC_APB2PeriphClockCmd>:
{
  /* Check the parameters */
  assert_param(IS_RCC_APB2_PERIPH(RCC_APB2Periph));
  assert_param(IS_FUNCTIONAL_STATE(NewState));

  if (NewState != DISABLE)
 8001bd4:	b941      	cbnz	r1, 8001be8 <RCC_APB2PeriphClockCmd+0x14>
  {
    RCC->APB2ENR |= RCC_APB2Periph;
  }
  else
  {
    RCC->APB2ENR &= ~RCC_APB2Periph;
 8001bd6:	f643 0100 	movw	r1, #14336	; 0x3800
 8001bda:	f2c4 0102 	movt	r1, #16386	; 0x4002
 8001bde:	6c4b      	ldr	r3, [r1, #68]	; 0x44
 8001be0:	ea23 0000 	bic.w	r0, r3, r0
 8001be4:	6448      	str	r0, [r1, #68]	; 0x44
 8001be6:	4770      	bx	lr
  assert_param(IS_RCC_APB2_PERIPH(RCC_APB2Periph));
  assert_param(IS_FUNCTIONAL_STATE(NewState));

  if (NewState != DISABLE)
  {
    RCC->APB2ENR |= RCC_APB2Periph;
 8001be8:	f643 0300 	movw	r3, #14336	; 0x3800
 8001bec:	f2c4 0302 	movt	r3, #16386	; 0x4002
 8001bf0:	6c5a      	ldr	r2, [r3, #68]	; 0x44
 8001bf2:	4310      	orrs	r0, r2
 8001bf4:	6458      	str	r0, [r3, #68]	; 0x44
 8001bf6:	4770      	bx	lr

08001bf8 <RCC_AHB1PeriphResetCmd>:
{
  /* Check the parameters */
  assert_param(IS_RCC_AHB1_RESET_PERIPH(RCC_AHB1Periph));
  assert_param(IS_FUNCTIONAL_STATE(NewState));

  if (NewState != DISABLE)
 8001bf8:	b941      	cbnz	r1, 8001c0c <RCC_AHB1PeriphResetCmd+0x14>
  {
    RCC->AHB1RSTR |= RCC_AHB1Periph;
  }
  else
  {
    RCC->AHB1RSTR &= ~RCC_AHB1Periph;
 8001bfa:	f643 0100 	movw	r1, #14336	; 0x3800
 8001bfe:	f2c4 0102 	movt	r1, #16386	; 0x4002
 8001c02:	690b      	ldr	r3, [r1, #16]
 8001c04:	ea23 0000 	bic.w	r0, r3, r0
 8001c08:	6108      	str	r0, [r1, #16]
 8001c0a:	4770      	bx	lr
  assert_param(IS_RCC_AHB1_RESET_PERIPH(RCC_AHB1Periph));
  assert_param(IS_FUNCTIONAL_STATE(NewState));

  if (NewState != DISABLE)
  {
    RCC->AHB1RSTR |= RCC_AHB1Periph;
 8001c0c:	f643 0300 	movw	r3, #14336	; 0x3800
 8001c10:	f2c4 0302 	movt	r3, #16386	; 0x4002
 8001c14:	691a      	ldr	r2, [r3, #16]
 8001c16:	4310      	orrs	r0, r2
 8001c18:	6118      	str	r0, [r3, #16]
 8001c1a:	4770      	bx	lr

08001c1c <RCC_AHB2PeriphResetCmd>:
{
  /* Check the parameters */
  assert_param(IS_RCC_AHB2_PERIPH(RCC_AHB2Periph));
  assert_param(IS_FUNCTIONAL_STATE(NewState));

  if (NewState != DISABLE)
 8001c1c:	b941      	cbnz	r1, 8001c30 <RCC_AHB2PeriphResetCmd+0x14>
  {
    RCC->AHB2RSTR |= RCC_AHB2Periph;
  }
  else
  {
    RCC->AHB2RSTR &= ~RCC_AHB2Periph;
 8001c1e:	f643 0100 	movw	r1, #14336	; 0x3800
 8001c22:	f2c4 0102 	movt	r1, #16386	; 0x4002
 8001c26:	694b      	ldr	r3, [r1, #20]
 8001c28:	ea23 0000 	bic.w	r0, r3, r0
 8001c2c:	6148      	str	r0, [r1, #20]
 8001c2e:	4770      	bx	lr
  assert_param(IS_RCC_AHB2_PERIPH(RCC_AHB2Periph));
  assert_param(IS_FUNCTIONAL_STATE(NewState));

  if (NewState != DISABLE)
  {
    RCC->AHB2RSTR |= RCC_AHB2Periph;
 8001c30:	f643 0300 	movw	r3, #14336	; 0x3800
 8001c34:	f2c4 0302 	movt	r3, #16386	; 0x4002
 8001c38:	695a      	ldr	r2, [r3, #20]
 8001c3a:	4310      	orrs	r0, r2
 8001c3c:	6158      	str	r0, [r3, #20]
 8001c3e:	4770      	bx	lr

08001c40 <RCC_AHB3PeriphResetCmd>:
{
  /* Check the parameters */
  assert_param(IS_RCC_AHB3_PERIPH(RCC_AHB3Periph));
  assert_param(IS_FUNCTIONAL_STATE(NewState));

  if (NewState != DISABLE)
 8001c40:	b941      	cbnz	r1, 8001c54 <RCC_AHB3PeriphResetCmd+0x14>
  {
    RCC->AHB3RSTR |= RCC_AHB3Periph;
  }
  else
  {
    RCC->AHB3RSTR &= ~RCC_AHB3Periph;
 8001c42:	f643 0100 	movw	r1, #14336	; 0x3800
 8001c46:	f2c4 0102 	movt	r1, #16386	; 0x4002
 8001c4a:	698b      	ldr	r3, [r1, #24]
 8001c4c:	ea23 0000 	bic.w	r0, r3, r0
 8001c50:	6188      	str	r0, [r1, #24]
 8001c52:	4770      	bx	lr
  assert_param(IS_RCC_AHB3_PERIPH(RCC_AHB3Periph));
  assert_param(IS_FUNCTIONAL_STATE(NewState));

  if (NewState != DISABLE)
  {
    RCC->AHB3RSTR |= RCC_AHB3Periph;
 8001c54:	f643 0300 	movw	r3, #14336	; 0x3800
 8001c58:	f2c4 0302 	movt	r3, #16386	; 0x4002
 8001c5c:	699a      	ldr	r2, [r3, #24]
 8001c5e:	4310      	orrs	r0, r2
 8001c60:	6198      	str	r0, [r3, #24]
 8001c62:	4770      	bx	lr

08001c64 <RCC_APB1PeriphResetCmd>:
void RCC_APB1PeriphResetCmd(uint32_t RCC_APB1Periph, FunctionalState NewState)
{
  /* Check the parameters */
  assert_param(IS_RCC_APB1_PERIPH(RCC_APB1Periph));
  assert_param(IS_FUNCTIONAL_STATE(NewState));
  if (NewState != DISABLE)
 8001c64:	b941      	cbnz	r1, 8001c78 <RCC_APB1PeriphResetCmd+0x14>
  {
    RCC->APB1RSTR |= RCC_APB1Periph;
  }
  else
  {
    RCC->APB1RSTR &= ~RCC_APB1Periph;
 8001c66:	f643 0100 	movw	r1, #14336	; 0x3800
 8001c6a:	f2c4 0102 	movt	r1, #16386	; 0x4002
 8001c6e:	6a0b      	ldr	r3, [r1, #32]
 8001c70:	ea23 0000 	bic.w	r0, r3, r0
 8001c74:	6208      	str	r0, [r1, #32]
 8001c76:	4770      	bx	lr
  /* Check the parameters */
  assert_param(IS_RCC_APB1_PERIPH(RCC_APB1Periph));
  assert_param(IS_FUNCTIONAL_STATE(NewState));
  if (NewState != DISABLE)
  {
    RCC->APB1RSTR |= RCC_APB1Periph;
 8001c78:	f643 0300 	movw	r3, #14336	; 0x3800
 8001c7c:	f2c4 0302 	movt	r3, #16386	; 0x4002
 8001c80:	6a1a      	ldr	r2, [r3, #32]
 8001c82:	4310      	orrs	r0, r2
 8001c84:	6218      	str	r0, [r3, #32]
 8001c86:	4770      	bx	lr

08001c88 <RCC_APB2PeriphResetCmd>:
void RCC_APB2PeriphResetCmd(uint32_t RCC_APB2Periph, FunctionalState NewState)
{
  /* Check the parameters */
  assert_param(IS_RCC_APB2_RESET_PERIPH(RCC_APB2Periph));
  assert_param(IS_FUNCTIONAL_STATE(NewState));
  if (NewState != DISABLE)
 8001c88:	b941      	cbnz	r1, 8001c9c <RCC_APB2PeriphResetCmd+0x14>
  {
    RCC->APB2RSTR |= RCC_APB2Periph;
  }
  else
  {
    RCC->APB2RSTR &= ~RCC_APB2Periph;
 8001c8a:	f643 0100 	movw	r1, #14336	; 0x3800
 8001c8e:	f2c4 0102 	movt	r1, #16386	; 0x4002
 8001c92:	6a4b      	ldr	r3, [r1, #36]	; 0x24
 8001c94:	ea23 0000 	bic.w	r0, r3, r0
 8001c98:	6248      	str	r0, [r1, #36]	; 0x24
 8001c9a:	4770      	bx	lr
  /* Check the parameters */
  assert_param(IS_RCC_APB2_RESET_PERIPH(RCC_APB2Periph));
  assert_param(IS_FUNCTIONAL_STATE(NewState));
  if (NewState != DISABLE)
  {
    RCC->APB2RSTR |= RCC_APB2Periph;
 8001c9c:	f643 0300 	movw	r3, #14336	; 0x3800
 8001ca0:	f2c4 0302 	movt	r3, #16386	; 0x4002
 8001ca4:	6a5a      	ldr	r2, [r3, #36]	; 0x24
 8001ca6:	4310      	orrs	r0, r2
 8001ca8:	6258      	str	r0, [r3, #36]	; 0x24
 8001caa:	4770      	bx	lr

08001cac <RCC_AHB1PeriphClockLPModeCmd>:
void RCC_AHB1PeriphClockLPModeCmd(uint32_t RCC_AHB1Periph, FunctionalState NewState)
{
  /* Check the parameters */
  assert_param(IS_RCC_AHB1_LPMODE_PERIPH(RCC_AHB1Periph));
  assert_param(IS_FUNCTIONAL_STATE(NewState));
  if (NewState != DISABLE)
 8001cac:	b941      	cbnz	r1, 8001cc0 <RCC_AHB1PeriphClockLPModeCmd+0x14>
  {
    RCC->AHB1LPENR |= RCC_AHB1Periph;
  }
  else
  {
    RCC->AHB1LPENR &= ~RCC_AHB1Periph;
 8001cae:	f643 0100 	movw	r1, #14336	; 0x3800
 8001cb2:	f2c4 0102 	movt	r1, #16386	; 0x4002
 8001cb6:	6d0b      	ldr	r3, [r1, #80]	; 0x50
 8001cb8:	ea23 0000 	bic.w	r0, r3, r0
 8001cbc:	6508      	str	r0, [r1, #80]	; 0x50
 8001cbe:	4770      	bx	lr
  /* Check the parameters */
  assert_param(IS_RCC_AHB1_LPMODE_PERIPH(RCC_AHB1Periph));
  assert_param(IS_FUNCTIONAL_STATE(NewState));
  if (NewState != DISABLE)
  {
    RCC->AHB1LPENR |= RCC_AHB1Periph;
 8001cc0:	f643 0300 	movw	r3, #14336	; 0x3800
 8001cc4:	f2c4 0302 	movt	r3, #16386	; 0x4002
 8001cc8:	6d1a      	ldr	r2, [r3, #80]	; 0x50
 8001cca:	4310      	orrs	r0, r2
 8001ccc:	6518      	str	r0, [r3, #80]	; 0x50
 8001cce:	4770      	bx	lr

08001cd0 <RCC_AHB2PeriphClockLPModeCmd>:
void RCC_AHB2PeriphClockLPModeCmd(uint32_t RCC_AHB2Periph, FunctionalState NewState)
{
  /* Check the parameters */
  assert_param(IS_RCC_AHB2_PERIPH(RCC_AHB2Periph));
  assert_param(IS_FUNCTIONAL_STATE(NewState));
  if (NewState != DISABLE)
 8001cd0:	b941      	cbnz	r1, 8001ce4 <RCC_AHB2PeriphClockLPModeCmd+0x14>
  {
    RCC->AHB2LPENR |= RCC_AHB2Periph;
  }
  else
  {
    RCC->AHB2LPENR &= ~RCC_AHB2Periph;
 8001cd2:	f643 0100 	movw	r1, #14336	; 0x3800
 8001cd6:	f2c4 0102 	movt	r1, #16386	; 0x4002
 8001cda:	6d4b      	ldr	r3, [r1, #84]	; 0x54
 8001cdc:	ea23 0000 	bic.w	r0, r3, r0
 8001ce0:	6548      	str	r0, [r1, #84]	; 0x54
 8001ce2:	4770      	bx	lr
  /* Check the parameters */
  assert_param(IS_RCC_AHB2_PERIPH(RCC_AHB2Periph));
  assert_param(IS_FUNCTIONAL_STATE(NewState));
  if (NewState != DISABLE)
  {
    RCC->AHB2LPENR |= RCC_AHB2Periph;
 8001ce4:	f643 0300 	movw	r3, #14336	; 0x3800
 8001ce8:	f2c4 0302 	movt	r3, #16386	; 0x4002
 8001cec:	6d5a      	ldr	r2, [r3, #84]	; 0x54
 8001cee:	4310      	orrs	r0, r2
 8001cf0:	6558      	str	r0, [r3, #84]	; 0x54
 8001cf2:	4770      	bx	lr

08001cf4 <RCC_AHB3PeriphClockLPModeCmd>:
void RCC_AHB3PeriphClockLPModeCmd(uint32_t RCC_AHB3Periph, FunctionalState NewState)
{
  /* Check the parameters */
  assert_param(IS_RCC_AHB3_PERIPH(RCC_AHB3Periph));
  assert_param(IS_FUNCTIONAL_STATE(NewState));
  if (NewState != DISABLE)
 8001cf4:	b941      	cbnz	r1, 8001d08 <RCC_AHB3PeriphClockLPModeCmd+0x14>
  {
    RCC->AHB3LPENR |= RCC_AHB3Periph;
  }
  else
  {
    RCC->AHB3LPENR &= ~RCC_AHB3Periph;
 8001cf6:	f643 0100 	movw	r1, #14336	; 0x3800
 8001cfa:	f2c4 0102 	movt	r1, #16386	; 0x4002
 8001cfe:	6d8b      	ldr	r3, [r1, #88]	; 0x58
 8001d00:	ea23 0000 	bic.w	r0, r3, r0
 8001d04:	6588      	str	r0, [r1, #88]	; 0x58
 8001d06:	4770      	bx	lr
  /* Check the parameters */
  assert_param(IS_RCC_AHB3_PERIPH(RCC_AHB3Periph));
  assert_param(IS_FUNCTIONAL_STATE(NewState));
  if (NewState != DISABLE)
  {
    RCC->AHB3LPENR |= RCC_AHB3Periph;
 8001d08:	f643 0300 	movw	r3, #14336	; 0x3800
 8001d0c:	f2c4 0302 	movt	r3, #16386	; 0x4002
 8001d10:	6d9a      	ldr	r2, [r3, #88]	; 0x58
 8001d12:	4310      	orrs	r0, r2
 8001d14:	6598      	str	r0, [r3, #88]	; 0x58
 8001d16:	4770      	bx	lr

08001d18 <RCC_APB1PeriphClockLPModeCmd>:
void RCC_APB1PeriphClockLPModeCmd(uint32_t RCC_APB1Periph, FunctionalState NewState)
{
  /* Check the parameters */
  assert_param(IS_RCC_APB1_PERIPH(RCC_APB1Periph));
  assert_param(IS_FUNCTIONAL_STATE(NewState));
  if (NewState != DISABLE)
 8001d18:	b941      	cbnz	r1, 8001d2c <RCC_APB1PeriphClockLPModeCmd+0x14>
  {
    RCC->APB1LPENR |= RCC_APB1Periph;
  }
  else
  {
    RCC->APB1LPENR &= ~RCC_APB1Periph;
 8001d1a:	f643 0100 	movw	r1, #14336	; 0x3800
 8001d1e:	f2c4 0102 	movt	r1, #16386	; 0x4002
 8001d22:	6e0b      	ldr	r3, [r1, #96]	; 0x60
 8001d24:	ea23 0000 	bic.w	r0, r3, r0
 8001d28:	6608      	str	r0, [r1, #96]	; 0x60
 8001d2a:	4770      	bx	lr
  /* Check the parameters */
  assert_param(IS_RCC_APB1_PERIPH(RCC_APB1Periph));
  assert_param(IS_FUNCTIONAL_STATE(NewState));
  if (NewState != DISABLE)
  {
    RCC->APB1LPENR |= RCC_APB1Periph;
 8001d2c:	f643 0300 	movw	r3, #14336	; 0x3800
 8001d30:	f2c4 0302 	movt	r3, #16386	; 0x4002
 8001d34:	6e1a      	ldr	r2, [r3, #96]	; 0x60
 8001d36:	4310      	orrs	r0, r2
 8001d38:	6618      	str	r0, [r3, #96]	; 0x60
 8001d3a:	4770      	bx	lr

08001d3c <RCC_APB2PeriphClockLPModeCmd>:
void RCC_APB2PeriphClockLPModeCmd(uint32_t RCC_APB2Periph, FunctionalState NewState)
{
  /* Check the parameters */
  assert_param(IS_RCC_APB2_PERIPH(RCC_APB2Periph));
  assert_param(IS_FUNCTIONAL_STATE(NewState));
  if (NewState != DISABLE)
 8001d3c:	b941      	cbnz	r1, 8001d50 <RCC_APB2PeriphClockLPModeCmd+0x14>
  {
    RCC->APB2LPENR |= RCC_APB2Periph;
  }
  else
  {
    RCC->APB2LPENR &= ~RCC_APB2Periph;
 8001d3e:	f643 0100 	movw	r1, #14336	; 0x3800
 8001d42:	f2c4 0102 	movt	r1, #16386	; 0x4002
 8001d46:	6e4b      	ldr	r3, [r1, #100]	; 0x64
 8001d48:	ea23 0000 	bic.w	r0, r3, r0
 8001d4c:	6648      	str	r0, [r1, #100]	; 0x64
 8001d4e:	4770      	bx	lr
  /* Check the parameters */
  assert_param(IS_RCC_APB2_PERIPH(RCC_APB2Periph));
  assert_param(IS_FUNCTIONAL_STATE(NewState));
  if (NewState != DISABLE)
  {
    RCC->APB2LPENR |= RCC_APB2Periph;
 8001d50:	f643 0300 	movw	r3, #14336	; 0x3800
 8001d54:	f2c4 0302 	movt	r3, #16386	; 0x4002
 8001d58:	6e5a      	ldr	r2, [r3, #100]	; 0x64
 8001d5a:	4310      	orrs	r0, r2
 8001d5c:	6658      	str	r0, [r3, #100]	; 0x64
 8001d5e:	4770      	bx	lr

08001d60 <RCC_ITConfig>:
void RCC_ITConfig(uint8_t RCC_IT, FunctionalState NewState)
{
  /* Check the parameters */
  assert_param(IS_RCC_IT(RCC_IT));
  assert_param(IS_FUNCTIONAL_STATE(NewState));
  if (NewState != DISABLE)
 8001d60:	b949      	cbnz	r1, 8001d76 <RCC_ITConfig+0x16>
    *(__IO uint8_t *) CIR_BYTE2_ADDRESS |= RCC_IT;
  }
  else
  {
    /* Perform Byte access to RCC_CIR[14:8] bits to disable the selected interrupts */
    *(__IO uint8_t *) CIR_BYTE2_ADDRESS &= (uint8_t)~RCC_IT;
 8001d62:	f643 010d 	movw	r1, #14349	; 0x380d
 8001d66:	f2c4 0102 	movt	r1, #16386	; 0x4002
 8001d6a:	f891 c000 	ldrb.w	ip, [r1]
 8001d6e:	ea2c 0000 	bic.w	r0, ip, r0
 8001d72:	7008      	strb	r0, [r1, #0]
 8001d74:	4770      	bx	lr
  assert_param(IS_RCC_IT(RCC_IT));
  assert_param(IS_FUNCTIONAL_STATE(NewState));
  if (NewState != DISABLE)
  {
    /* Perform Byte access to RCC_CIR[14:8] bits to enable the selected interrupts */
    *(__IO uint8_t *) CIR_BYTE2_ADDRESS |= RCC_IT;
 8001d76:	f643 030d 	movw	r3, #14349	; 0x380d
 8001d7a:	f2c4 0302 	movt	r3, #16386	; 0x4002
 8001d7e:	781a      	ldrb	r2, [r3, #0]
 8001d80:	4310      	orrs	r0, r2
 8001d82:	7018      	strb	r0, [r3, #0]
 8001d84:	4770      	bx	lr
 8001d86:	bf00      	nop

08001d88 <RCC_GetFlagStatus>:

  /* Check the parameters */
  assert_param(IS_RCC_FLAG(RCC_FLAG));

  /* Get the RCC register index */
  tmp = RCC_FLAG >> 5;
 8001d88:	0943      	lsrs	r3, r0, #5
  if (tmp == 1)               /* The flag to check is in CR register */
 8001d8a:	2b01      	cmp	r3, #1
 8001d8c:	d00e      	beq.n	8001dac <RCC_GetFlagStatus+0x24>
  {
    statusreg = RCC->CR;
  }
  else if (tmp == 2)          /* The flag to check is in BDCR register */
 8001d8e:	2b02      	cmp	r3, #2
  {
    statusreg = RCC->BDCR;
 8001d90:	f643 0300 	movw	r3, #14336	; 0x3800
 8001d94:	f2c4 0302 	movt	r3, #16386	; 0x4002
 8001d98:	bf0c      	ite	eq
 8001d9a:	6f1b      	ldreq	r3, [r3, #112]	; 0x70
  }
  else                       /* The flag to check is in CSR register */
  {
    statusreg = RCC->CSR;
 8001d9c:	6f5b      	ldrne	r3, [r3, #116]	; 0x74
 8001d9e:	f000 011f 	and.w	r1, r0, #31
 8001da2:	fa33 f001 	lsrs.w	r0, r3, r1
  {
    bitstatus = RESET;
  }
  /* Return the flag status */
  return bitstatus;
}
 8001da6:	f000 0001 	and.w	r0, r0, #1
 8001daa:	4770      	bx	lr

  /* Get the RCC register index */
  tmp = RCC_FLAG >> 5;
  if (tmp == 1)               /* The flag to check is in CR register */
  {
    statusreg = RCC->CR;
 8001dac:	f643 0300 	movw	r3, #14336	; 0x3800
 8001db0:	f2c4 0302 	movt	r3, #16386	; 0x4002
 8001db4:	681b      	ldr	r3, [r3, #0]
  {
    statusreg = RCC->BDCR;
  }
  else                       /* The flag to check is in CSR register */
  {
    statusreg = RCC->CSR;
 8001db6:	f000 011f 	and.w	r1, r0, #31
 8001dba:	fa33 f001 	lsrs.w	r0, r3, r1
  {
    bitstatus = RESET;
  }
  /* Return the flag status */
  return bitstatus;
}
 8001dbe:	f000 0001 	and.w	r0, r0, #1
 8001dc2:	4770      	bx	lr

08001dc4 <RCC_ClearFlag>:
  * @retval None
  */
void RCC_ClearFlag(void)
{
  /* Set RMVF bit to clear the reset flags */
  RCC->CSR |= RCC_CSR_RMVF;
 8001dc4:	f643 0300 	movw	r3, #14336	; 0x3800
 8001dc8:	f2c4 0302 	movt	r3, #16386	; 0x4002
 8001dcc:	6f58      	ldr	r0, [r3, #116]	; 0x74
 8001dce:	f040 7280 	orr.w	r2, r0, #16777216	; 0x1000000
 8001dd2:	675a      	str	r2, [r3, #116]	; 0x74
}
 8001dd4:	4770      	bx	lr
 8001dd6:	bf00      	nop

08001dd8 <RCC_GetITStatus>:

  /* Check the parameters */
  assert_param(IS_RCC_GET_IT(RCC_IT));

  /* Check the status of the specified RCC interrupt */
  if ((RCC->CIR & RCC_IT) != (uint32_t)RESET)
 8001dd8:	f643 0100 	movw	r1, #14336	; 0x3800
 8001ddc:	f2c4 0102 	movt	r1, #16386	; 0x4002
 8001de0:	68cb      	ldr	r3, [r1, #12]
 8001de2:	4218      	tst	r0, r3
  {
    bitstatus = RESET;
  }
  /* Return the RCC_IT status */
  return  bitstatus;
}
 8001de4:	bf0c      	ite	eq
 8001de6:	2000      	moveq	r0, #0
 8001de8:	2001      	movne	r0, #1
 8001dea:	4770      	bx	lr

08001dec <RCC_ClearITPendingBit>:
  /* Check the parameters */
  assert_param(IS_RCC_CLEAR_IT(RCC_IT));

  /* Perform Byte access to RCC_CIR[23:16] bits to clear the selected interrupt
     pending bits */
  *(__IO uint8_t *) CIR_BYTE3_ADDRESS = RCC_IT;
 8001dec:	f643 030e 	movw	r3, #14350	; 0x380e
 8001df0:	f2c4 0302 	movt	r3, #16386	; 0x4002
 8001df4:	7018      	strb	r0, [r3, #0]
}
 8001df6:	4770      	bx	lr

08001df8 <TIM_TimeBaseInit>:
  * @param  TIM_TimeBaseInitStruct: pointer to a TIM_TimeBaseInitTypeDef structure
  *         that contains the configuration information for the specified TIM peripheral.
  * @retval None
  */
void TIM_TimeBaseInit(TIM_TypeDef* TIMx, TIM_TimeBaseInitTypeDef* TIM_TimeBaseInitStruct)
{
 8001df8:	b410      	push	{r4}
  assert_param(IS_TIM_COUNTER_MODE(TIM_TimeBaseInitStruct->TIM_CounterMode));
  assert_param(IS_TIM_CKD_DIV(TIM_TimeBaseInitStruct->TIM_ClockDivision));

  tmpcr1 = TIMx->CR1;  

  if((TIMx == TIM1) || (TIMx == TIM8)||
 8001dfa:	f240 0400 	movw	r4, #0
 8001dfe:	f2c4 0401 	movt	r4, #16385	; 0x4001
 8001e02:	f240 4200 	movw	r2, #1024	; 0x400
 8001e06:	f2c4 0201 	movt	r2, #16385	; 0x4001
 8001e0a:	42a0      	cmp	r0, r4
 8001e0c:	bf14      	ite	ne
 8001e0e:	2300      	movne	r3, #0
 8001e10:	2301      	moveq	r3, #1
  /* Check the parameters */
  assert_param(IS_TIM_ALL_PERIPH(TIMx)); 
  assert_param(IS_TIM_COUNTER_MODE(TIM_TimeBaseInitStruct->TIM_CounterMode));
  assert_param(IS_TIM_CKD_DIV(TIM_TimeBaseInitStruct->TIM_ClockDivision));

  tmpcr1 = TIMx->CR1;  
 8001e12:	f8b0 c000 	ldrh.w	ip, [r0]

  if((TIMx == TIM1) || (TIMx == TIM8)||
 8001e16:	4290      	cmp	r0, r2
 8001e18:	bf14      	ite	ne
 8001e1a:	461a      	movne	r2, r3
 8001e1c:	f043 0201 	orreq.w	r2, r3, #1
  /* Check the parameters */
  assert_param(IS_TIM_ALL_PERIPH(TIMx)); 
  assert_param(IS_TIM_COUNTER_MODE(TIM_TimeBaseInitStruct->TIM_CounterMode));
  assert_param(IS_TIM_CKD_DIV(TIM_TimeBaseInitStruct->TIM_ClockDivision));

  tmpcr1 = TIMx->CR1;  
 8001e20:	fa1f fc8c 	uxth.w	ip, ip

  if((TIMx == TIM1) || (TIMx == TIM8)||
 8001e24:	b97a      	cbnz	r2, 8001e46 <TIM_TimeBaseInit+0x4e>
 8001e26:	f240 4300 	movw	r3, #1024	; 0x400
 8001e2a:	f2c4 0300 	movt	r3, #16384	; 0x4000
 8001e2e:	f1b0 4f80 	cmp.w	r0, #1073741824	; 0x40000000
 8001e32:	bf14      	ite	ne
 8001e34:	2400      	movne	r4, #0
 8001e36:	2401      	moveq	r4, #1
 8001e38:	4298      	cmp	r0, r3
 8001e3a:	bf14      	ite	ne
 8001e3c:	4623      	movne	r3, r4
 8001e3e:	f044 0301 	orreq.w	r3, r4, #1
 8001e42:	2b00      	cmp	r3, #0
 8001e44:	d032      	beq.n	8001eac <TIM_TimeBaseInit+0xb4>
     (TIMx == TIM2) || (TIMx == TIM3)||
     (TIMx == TIM4) || (TIMx == TIM5)) 
  {
    /* Select the Counter Mode */
    tmpcr1 &= (uint16_t)(~(TIM_CR1_DIR | TIM_CR1_CMS));
 8001e46:	f64f 738f 	movw	r3, #65423	; 0xff8f
 8001e4a:	f2c0 0300 	movt	r3, #0
    tmpcr1 |= (uint32_t)TIM_TimeBaseInitStruct->TIM_CounterMode;
 8001e4e:	884c      	ldrh	r4, [r1, #2]
  if((TIMx == TIM1) || (TIMx == TIM8)||
     (TIMx == TIM2) || (TIMx == TIM3)||
     (TIMx == TIM4) || (TIMx == TIM5)) 
  {
    /* Select the Counter Mode */
    tmpcr1 &= (uint16_t)(~(TIM_CR1_DIR | TIM_CR1_CMS));
 8001e50:	ea0c 0303 	and.w	r3, ip, r3
    tmpcr1 |= (uint32_t)TIM_TimeBaseInitStruct->TIM_CounterMode;
 8001e54:	ea43 0c04 	orr.w	ip, r3, r4
  }
 
  if((TIMx != TIM6) && (TIMx != TIM7))
 8001e58:	f241 0400 	movw	r4, #4096	; 0x1000
 8001e5c:	f2c4 0400 	movt	r4, #16384	; 0x4000
 8001e60:	f241 4300 	movw	r3, #5120	; 0x1400
 8001e64:	f2c4 0300 	movt	r3, #16384	; 0x4000
 8001e68:	1b04      	subs	r4, r0, r4
 8001e6a:	bf18      	it	ne
 8001e6c:	2401      	movne	r4, #1
 8001e6e:	4298      	cmp	r0, r3
 8001e70:	bf0c      	ite	eq
 8001e72:	2300      	moveq	r3, #0
 8001e74:	f004 0301 	andne.w	r3, r4, #1
 8001e78:	b143      	cbz	r3, 8001e8c <TIM_TimeBaseInit+0x94>
  {
    /* Set the clock division */
    tmpcr1 &=  (uint16_t)(~TIM_CR1_CKD);
 8001e7a:	f64f 43ff 	movw	r3, #64767	; 0xfcff
 8001e7e:	f2c0 0300 	movt	r3, #0
    tmpcr1 |= (uint32_t)TIM_TimeBaseInitStruct->TIM_ClockDivision;
 8001e82:	890c      	ldrh	r4, [r1, #8]
  }
 
  if((TIMx != TIM6) && (TIMx != TIM7))
  {
    /* Set the clock division */
    tmpcr1 &=  (uint16_t)(~TIM_CR1_CKD);
 8001e84:	ea0c 0303 	and.w	r3, ip, r3
    tmpcr1 |= (uint32_t)TIM_TimeBaseInitStruct->TIM_ClockDivision;
 8001e88:	ea43 0c04 	orr.w	ip, r3, r4
  }

  TIMx->CR1 = tmpcr1;
 8001e8c:	f8a0 c000 	strh.w	ip, [r0]

  /* Set the Autoreload value */
  TIMx->ARR = TIM_TimeBaseInitStruct->TIM_Period ;
 8001e90:	684c      	ldr	r4, [r1, #4]
 
  /* Set the Prescaler value */
  TIMx->PSC = TIM_TimeBaseInitStruct->TIM_Prescaler;
 8001e92:	f8b1 c000 	ldrh.w	ip, [r1]
  }

  TIMx->CR1 = tmpcr1;

  /* Set the Autoreload value */
  TIMx->ARR = TIM_TimeBaseInitStruct->TIM_Period ;
 8001e96:	62c4      	str	r4, [r0, #44]	; 0x2c
 
  /* Set the Prescaler value */
  TIMx->PSC = TIM_TimeBaseInitStruct->TIM_Prescaler;
 8001e98:	f8a0 c028 	strh.w	ip, [r0, #40]	; 0x28
    
  if ((TIMx == TIM1) || (TIMx == TIM8))  
 8001e9c:	b10a      	cbz	r2, 8001ea2 <TIM_TimeBaseInit+0xaa>
  {
    /* Set the Repetition Counter value */
    TIMx->RCR = TIM_TimeBaseInitStruct->TIM_RepetitionCounter;
 8001e9e:	7a8a      	ldrb	r2, [r1, #10]
 8001ea0:	8602      	strh	r2, [r0, #48]	; 0x30
  }

  /* Generate an update event to reload the Prescaler 
     and the repetition counter(only for TIM1 and TIM8) value immediatly */
  TIMx->EGR = TIM_PSCReloadMode_Immediate;          
 8001ea2:	f04f 0101 	mov.w	r1, #1
 8001ea6:	8281      	strh	r1, [r0, #20]
}
 8001ea8:	bc10      	pop	{r4}
 8001eaa:	4770      	bx	lr
  assert_param(IS_TIM_COUNTER_MODE(TIM_TimeBaseInitStruct->TIM_CounterMode));
  assert_param(IS_TIM_CKD_DIV(TIM_TimeBaseInitStruct->TIM_ClockDivision));

  tmpcr1 = TIMx->CR1;  

  if((TIMx == TIM1) || (TIMx == TIM8)||
 8001eac:	f640 0400 	movw	r4, #2048	; 0x800
 8001eb0:	f2c4 0400 	movt	r4, #16384	; 0x4000
 8001eb4:	f640 4300 	movw	r3, #3072	; 0xc00
 8001eb8:	f2c4 0300 	movt	r3, #16384	; 0x4000
 8001ebc:	42a0      	cmp	r0, r4
 8001ebe:	bf14      	ite	ne
 8001ec0:	2400      	movne	r4, #0
 8001ec2:	2401      	moveq	r4, #1
 8001ec4:	4298      	cmp	r0, r3
 8001ec6:	bf14      	ite	ne
 8001ec8:	4623      	movne	r3, r4
 8001eca:	f044 0301 	orreq.w	r3, r4, #1
 8001ece:	2b00      	cmp	r3, #0
 8001ed0:	d0c2      	beq.n	8001e58 <TIM_TimeBaseInit+0x60>
 8001ed2:	e7b8      	b.n	8001e46 <TIM_TimeBaseInit+0x4e>

08001ed4 <TIM_TimeBaseStructInit>:
  */
void TIM_TimeBaseStructInit(TIM_TimeBaseInitTypeDef* TIM_TimeBaseInitStruct)
{
  /* Set the default configuration */
  TIM_TimeBaseInitStruct->TIM_Period = 0xFFFFFFFF;
  TIM_TimeBaseInitStruct->TIM_Prescaler = 0x0000;
 8001ed4:	2300      	movs	r3, #0
  * @retval None
  */
void TIM_TimeBaseStructInit(TIM_TimeBaseInitTypeDef* TIM_TimeBaseInitStruct)
{
  /* Set the default configuration */
  TIM_TimeBaseInitStruct->TIM_Period = 0xFFFFFFFF;
 8001ed6:	f04f 32ff 	mov.w	r2, #4294967295
  TIM_TimeBaseInitStruct->TIM_Prescaler = 0x0000;
  TIM_TimeBaseInitStruct->TIM_ClockDivision = TIM_CKD_DIV1;
  TIM_TimeBaseInitStruct->TIM_CounterMode = TIM_CounterMode_Up;
  TIM_TimeBaseInitStruct->TIM_RepetitionCounter = 0x0000;
 8001eda:	7283      	strb	r3, [r0, #10]
  * @retval None
  */
void TIM_TimeBaseStructInit(TIM_TimeBaseInitTypeDef* TIM_TimeBaseInitStruct)
{
  /* Set the default configuration */
  TIM_TimeBaseInitStruct->TIM_Period = 0xFFFFFFFF;
 8001edc:	6042      	str	r2, [r0, #4]
  TIM_TimeBaseInitStruct->TIM_Prescaler = 0x0000;
  TIM_TimeBaseInitStruct->TIM_ClockDivision = TIM_CKD_DIV1;
  TIM_TimeBaseInitStruct->TIM_CounterMode = TIM_CounterMode_Up;
 8001ede:	8043      	strh	r3, [r0, #2]
  */
void TIM_TimeBaseStructInit(TIM_TimeBaseInitTypeDef* TIM_TimeBaseInitStruct)
{
  /* Set the default configuration */
  TIM_TimeBaseInitStruct->TIM_Period = 0xFFFFFFFF;
  TIM_TimeBaseInitStruct->TIM_Prescaler = 0x0000;
 8001ee0:	8003      	strh	r3, [r0, #0]
  TIM_TimeBaseInitStruct->TIM_ClockDivision = TIM_CKD_DIV1;
 8001ee2:	8103      	strh	r3, [r0, #8]
  TIM_TimeBaseInitStruct->TIM_CounterMode = TIM_CounterMode_Up;
  TIM_TimeBaseInitStruct->TIM_RepetitionCounter = 0x0000;
}
 8001ee4:	4770      	bx	lr
 8001ee6:	bf00      	nop

08001ee8 <TIM_PrescalerConfig>:
{
  /* Check the parameters */
  assert_param(IS_TIM_ALL_PERIPH(TIMx));
  assert_param(IS_TIM_PRESCALER_RELOAD(TIM_PSCReloadMode));
  /* Set the Prescaler value */
  TIMx->PSC = Prescaler;
 8001ee8:	8501      	strh	r1, [r0, #40]	; 0x28
  /* Set or reset the UG Bit */
  TIMx->EGR = TIM_PSCReloadMode;
 8001eea:	8282      	strh	r2, [r0, #20]
}
 8001eec:	4770      	bx	lr
 8001eee:	bf00      	nop

08001ef0 <TIM_CounterModeConfig>:

  /* Check the parameters */
  assert_param(IS_TIM_LIST3_PERIPH(TIMx));
  assert_param(IS_TIM_COUNTER_MODE(TIM_CounterMode));

  tmpcr1 = TIMx->CR1;
 8001ef0:	f8b0 c000 	ldrh.w	ip, [r0]

  /* Reset the CMS and DIR Bits */
  tmpcr1 &= (uint16_t)~(TIM_CR1_DIR | TIM_CR1_CMS);
 8001ef4:	f02c 0270 	bic.w	r2, ip, #112	; 0x70
 8001ef8:	0413      	lsls	r3, r2, #16
 8001efa:	0c1a      	lsrs	r2, r3, #16

  /* Set the Counter Mode */
  tmpcr1 |= TIM_CounterMode;
 8001efc:	ea41 0302 	orr.w	r3, r1, r2

  /* Write to TIMx CR1 register */
  TIMx->CR1 = tmpcr1;
 8001f00:	8003      	strh	r3, [r0, #0]
}
 8001f02:	4770      	bx	lr

08001f04 <TIM_SetCounter>:
{
  /* Check the parameters */
   assert_param(IS_TIM_ALL_PERIPH(TIMx));

  /* Set the Counter Register value */
  TIMx->CNT = Counter;
 8001f04:	6241      	str	r1, [r0, #36]	; 0x24
}
 8001f06:	4770      	bx	lr

08001f08 <TIM_SetAutoreload>:
{
  /* Check the parameters */
  assert_param(IS_TIM_ALL_PERIPH(TIMx));
  
  /* Set the Autoreload Register value */
  TIMx->ARR = Autoreload;
 8001f08:	62c1      	str	r1, [r0, #44]	; 0x2c
}
 8001f0a:	4770      	bx	lr

08001f0c <TIM_GetCounter>:
{
  /* Check the parameters */
  assert_param(IS_TIM_ALL_PERIPH(TIMx));

  /* Get the Counter Register value */
  return TIMx->CNT;
 8001f0c:	6a40      	ldr	r0, [r0, #36]	; 0x24
}
 8001f0e:	4770      	bx	lr

08001f10 <TIM_GetPrescaler>:
{
  /* Check the parameters */
  assert_param(IS_TIM_ALL_PERIPH(TIMx));

  /* Get the Prescaler Register value */
  return TIMx->PSC;
 8001f10:	8d00      	ldrh	r0, [r0, #40]	; 0x28
}
 8001f12:	b280      	uxth	r0, r0
 8001f14:	4770      	bx	lr
 8001f16:	bf00      	nop

08001f18 <TIM_UpdateDisableConfig>:
{
  /* Check the parameters */
  assert_param(IS_TIM_ALL_PERIPH(TIMx));
  assert_param(IS_FUNCTIONAL_STATE(NewState));

  if (NewState != DISABLE)
 8001f18:	b939      	cbnz	r1, 8001f2a <TIM_UpdateDisableConfig+0x12>
    TIMx->CR1 |= TIM_CR1_UDIS;
  }
  else
  {
    /* Reset the Update Disable Bit */
    TIMx->CR1 &= (uint16_t)~TIM_CR1_UDIS;
 8001f1a:	f8b0 c000 	ldrh.w	ip, [r0]
 8001f1e:	f02c 0202 	bic.w	r2, ip, #2
 8001f22:	0411      	lsls	r1, r2, #16
 8001f24:	0c0b      	lsrs	r3, r1, #16
 8001f26:	8003      	strh	r3, [r0, #0]
 8001f28:	4770      	bx	lr
  assert_param(IS_FUNCTIONAL_STATE(NewState));

  if (NewState != DISABLE)
  {
    /* Set the Update Disable Bit */
    TIMx->CR1 |= TIM_CR1_UDIS;
 8001f2a:	8802      	ldrh	r2, [r0, #0]
 8001f2c:	b291      	uxth	r1, r2
 8001f2e:	f041 0302 	orr.w	r3, r1, #2
 8001f32:	8003      	strh	r3, [r0, #0]
 8001f34:	4770      	bx	lr
 8001f36:	bf00      	nop

08001f38 <TIM_UpdateRequestConfig>:
{
  /* Check the parameters */
  assert_param(IS_TIM_ALL_PERIPH(TIMx));
  assert_param(IS_TIM_UPDATE_SOURCE(TIM_UpdateSource));

  if (TIM_UpdateSource != TIM_UpdateSource_Global)
 8001f38:	b939      	cbnz	r1, 8001f4a <TIM_UpdateRequestConfig+0x12>
    TIMx->CR1 |= TIM_CR1_URS;
  }
  else
  {
    /* Reset the URS Bit */
    TIMx->CR1 &= (uint16_t)~TIM_CR1_URS;
 8001f3a:	f8b0 c000 	ldrh.w	ip, [r0]
 8001f3e:	f02c 0204 	bic.w	r2, ip, #4
 8001f42:	0411      	lsls	r1, r2, #16
 8001f44:	0c0b      	lsrs	r3, r1, #16
 8001f46:	8003      	strh	r3, [r0, #0]
 8001f48:	4770      	bx	lr
  assert_param(IS_TIM_UPDATE_SOURCE(TIM_UpdateSource));

  if (TIM_UpdateSource != TIM_UpdateSource_Global)
  {
    /* Set the URS Bit */
    TIMx->CR1 |= TIM_CR1_URS;
 8001f4a:	8802      	ldrh	r2, [r0, #0]
 8001f4c:	b291      	uxth	r1, r2
 8001f4e:	f041 0304 	orr.w	r3, r1, #4
 8001f52:	8003      	strh	r3, [r0, #0]
 8001f54:	4770      	bx	lr
 8001f56:	bf00      	nop

08001f58 <TIM_ARRPreloadConfig>:
{
  /* Check the parameters */
  assert_param(IS_TIM_ALL_PERIPH(TIMx));
  assert_param(IS_FUNCTIONAL_STATE(NewState));

  if (NewState != DISABLE)
 8001f58:	b939      	cbnz	r1, 8001f6a <TIM_ARRPreloadConfig+0x12>
    TIMx->CR1 |= TIM_CR1_ARPE;
  }
  else
  {
    /* Reset the ARR Preload Bit */
    TIMx->CR1 &= (uint16_t)~TIM_CR1_ARPE;
 8001f5a:	f8b0 c000 	ldrh.w	ip, [r0]
 8001f5e:	f02c 0280 	bic.w	r2, ip, #128	; 0x80
 8001f62:	0411      	lsls	r1, r2, #16
 8001f64:	0c0b      	lsrs	r3, r1, #16
 8001f66:	8003      	strh	r3, [r0, #0]
 8001f68:	4770      	bx	lr
  assert_param(IS_FUNCTIONAL_STATE(NewState));

  if (NewState != DISABLE)
  {
    /* Set the ARR Preload Bit */
    TIMx->CR1 |= TIM_CR1_ARPE;
 8001f6a:	8802      	ldrh	r2, [r0, #0]
 8001f6c:	b291      	uxth	r1, r2
 8001f6e:	f041 0380 	orr.w	r3, r1, #128	; 0x80
 8001f72:	8003      	strh	r3, [r0, #0]
 8001f74:	4770      	bx	lr
 8001f76:	bf00      	nop

08001f78 <TIM_SelectOnePulseMode>:
  /* Check the parameters */
  assert_param(IS_TIM_ALL_PERIPH(TIMx));
  assert_param(IS_TIM_OPM_MODE(TIM_OPMode));

  /* Reset the OPM Bit */
  TIMx->CR1 &= (uint16_t)~TIM_CR1_OPM;
 8001f78:	f8b0 c000 	ldrh.w	ip, [r0]
 8001f7c:	f02c 0308 	bic.w	r3, ip, #8
 8001f80:	041a      	lsls	r2, r3, #16
 8001f82:	0c13      	lsrs	r3, r2, #16
 8001f84:	8003      	strh	r3, [r0, #0]

  /* Configure the OPM Mode */
  TIMx->CR1 |= TIM_OPMode;
 8001f86:	f8b0 c000 	ldrh.w	ip, [r0]
 8001f8a:	fa1f f28c 	uxth.w	r2, ip
 8001f8e:	ea41 0302 	orr.w	r3, r1, r2
 8001f92:	8003      	strh	r3, [r0, #0]
}
 8001f94:	4770      	bx	lr
 8001f96:	bf00      	nop

08001f98 <TIM_SetClockDivision>:
  /* Check the parameters */
  assert_param(IS_TIM_LIST1_PERIPH(TIMx));
  assert_param(IS_TIM_CKD_DIV(TIM_CKD));

  /* Reset the CKD Bits */
  TIMx->CR1 &= (uint16_t)(~TIM_CR1_CKD);
 8001f98:	f8b0 c000 	ldrh.w	ip, [r0]
 8001f9c:	f42c 7340 	bic.w	r3, ip, #768	; 0x300
 8001fa0:	041a      	lsls	r2, r3, #16
 8001fa2:	0c13      	lsrs	r3, r2, #16
 8001fa4:	8003      	strh	r3, [r0, #0]

  /* Set the CKD value */
  TIMx->CR1 |= TIM_CKD;
 8001fa6:	f8b0 c000 	ldrh.w	ip, [r0]
 8001faa:	fa1f f28c 	uxth.w	r2, ip
 8001fae:	ea41 0302 	orr.w	r3, r1, r2
 8001fb2:	8003      	strh	r3, [r0, #0]
}
 8001fb4:	4770      	bx	lr
 8001fb6:	bf00      	nop

08001fb8 <TIM_Cmd>:
{
  /* Check the parameters */
  assert_param(IS_TIM_ALL_PERIPH(TIMx)); 
  assert_param(IS_FUNCTIONAL_STATE(NewState));
  
  if (NewState != DISABLE)
 8001fb8:	b939      	cbnz	r1, 8001fca <TIM_Cmd+0x12>
    TIMx->CR1 |= TIM_CR1_CEN;
  }
  else
  {
    /* Disable the TIM Counter */
    TIMx->CR1 &= (uint16_t)~TIM_CR1_CEN;
 8001fba:	f8b0 c000 	ldrh.w	ip, [r0]
 8001fbe:	f02c 0201 	bic.w	r2, ip, #1
 8001fc2:	0411      	lsls	r1, r2, #16
 8001fc4:	0c0b      	lsrs	r3, r1, #16
 8001fc6:	8003      	strh	r3, [r0, #0]
 8001fc8:	4770      	bx	lr
  assert_param(IS_FUNCTIONAL_STATE(NewState));
  
  if (NewState != DISABLE)
  {
    /* Enable the TIM Counter */
    TIMx->CR1 |= TIM_CR1_CEN;
 8001fca:	8802      	ldrh	r2, [r0, #0]
 8001fcc:	b291      	uxth	r1, r2
 8001fce:	f041 0301 	orr.w	r3, r1, #1
 8001fd2:	8003      	strh	r3, [r0, #0]
 8001fd4:	4770      	bx	lr
 8001fd6:	bf00      	nop

08001fd8 <TIM_OC1Init>:
  assert_param(IS_TIM_OC_MODE(TIM_OCInitStruct->TIM_OCMode));
  assert_param(IS_TIM_OUTPUT_STATE(TIM_OCInitStruct->TIM_OutputState));
  assert_param(IS_TIM_OC_POLARITY(TIM_OCInitStruct->TIM_OCPolarity));   

  /* Disable the Channel 1: Reset the CC1E Bit */
  TIMx->CCER &= (uint16_t)~TIM_CCER_CC1E;
 8001fd8:	f8b0 c020 	ldrh.w	ip, [r0, #32]
  * @param  TIM_OCInitStruct: pointer to a TIM_OCInitTypeDef structure that contains
  *         the configuration information for the specified TIM peripheral.
  * @retval None
  */
void TIM_OC1Init(TIM_TypeDef* TIMx, TIM_OCInitTypeDef* TIM_OCInitStruct)
{
 8001fdc:	e92d 05f0 	stmdb	sp!, {r4, r5, r6, r7, r8, sl}
  assert_param(IS_TIM_OC_MODE(TIM_OCInitStruct->TIM_OCMode));
  assert_param(IS_TIM_OUTPUT_STATE(TIM_OCInitStruct->TIM_OutputState));
  assert_param(IS_TIM_OC_POLARITY(TIM_OCInitStruct->TIM_OCPolarity));   

  /* Disable the Channel 1: Reset the CC1E Bit */
  TIMx->CCER &= (uint16_t)~TIM_CCER_CC1E;
 8001fe0:	f02c 0301 	bic.w	r3, ip, #1
 8001fe4:	041f      	lsls	r7, r3, #16
 8001fe6:	0c3a      	lsrs	r2, r7, #16
 8001fe8:	8402      	strh	r2, [r0, #32]
  
  /* Get the TIMx CCER register value */
  tmpccer = TIMx->CCER;
 8001fea:	8c06      	ldrh	r6, [r0, #32]
  tmpccmrx |= TIM_OCInitStruct->TIM_OCMode;
  
  /* Reset the Output Polarity level */
  tmpccer &= (uint16_t)~TIM_CCER_CC1P;
  /* Set the Output Compare Polarity */
  tmpccer |= TIM_OCInitStruct->TIM_OCPolarity;
 8001fec:	884d      	ldrh	r5, [r1, #2]
 8001fee:	898c      	ldrh	r4, [r1, #12]
  
  /* Set the Output State */
  tmpccer |= TIM_OCInitStruct->TIM_OutputState;
    
  if((TIMx == TIM1) || (TIMx == TIM8))
 8001ff0:	f240 0700 	movw	r7, #0
  tmpccmrx &= (uint16_t)~TIM_CCMR1_CC1S;
  /* Select the Output Compare Mode */
  tmpccmrx |= TIM_OCInitStruct->TIM_OCMode;
  
  /* Reset the Output Polarity level */
  tmpccer &= (uint16_t)~TIM_CCER_CC1P;
 8001ff4:	f026 0302 	bic.w	r3, r6, #2
  tmpccer |= TIM_OCInitStruct->TIM_OCPolarity;
  
  /* Set the Output State */
  tmpccer |= TIM_OCInitStruct->TIM_OutputState;
    
  if((TIMx == TIM1) || (TIMx == TIM8))
 8001ff8:	f2c4 0701 	movt	r7, #16385	; 0x4001
 8001ffc:	f240 4200 	movw	r2, #1024	; 0x400
 8002000:	42b8      	cmp	r0, r7
 8002002:	bf14      	ite	ne
 8002004:	f04f 0c00 	movne.w	ip, #0
 8002008:	f04f 0c01 	moveq.w	ip, #1
  tmpccmrx |= TIM_OCInitStruct->TIM_OCMode;
  
  /* Reset the Output Polarity level */
  tmpccer &= (uint16_t)~TIM_CCER_CC1P;
  /* Set the Output Compare Polarity */
  tmpccer |= TIM_OCInitStruct->TIM_OCPolarity;
 800200c:	ea45 0404 	orr.w	r4, r5, r4
  tmpccmrx &= (uint16_t)~TIM_CCMR1_CC1S;
  /* Select the Output Compare Mode */
  tmpccmrx |= TIM_OCInitStruct->TIM_OCMode;
  
  /* Reset the Output Polarity level */
  tmpccer &= (uint16_t)~TIM_CCER_CC1P;
 8002010:	041e      	lsls	r6, r3, #16
  TIMx->CCER &= (uint16_t)~TIM_CCER_CC1E;
  
  /* Get the TIMx CCER register value */
  tmpccer = TIMx->CCER;
  /* Get the TIMx CR2 register value */
  tmpcr2 =  TIMx->CR2;
 8002012:	8885      	ldrh	r5, [r0, #4]
  tmpccer |= TIM_OCInitStruct->TIM_OCPolarity;
  
  /* Set the Output State */
  tmpccer |= TIM_OCInitStruct->TIM_OutputState;
    
  if((TIMx == TIM1) || (TIMx == TIM8))
 8002014:	f2c4 0201 	movt	r2, #16385	; 0x4001
  tmpccer = TIMx->CCER;
  /* Get the TIMx CR2 register value */
  tmpcr2 =  TIMx->CR2;
  
  /* Get the TIMx CCMR1 register value */
  tmpccmrx = TIMx->CCMR1;
 8002018:	8b07      	ldrh	r7, [r0, #24]
  tmpccmrx &= (uint16_t)~TIM_CCMR1_CC1S;
  /* Select the Output Compare Mode */
  tmpccmrx |= TIM_OCInitStruct->TIM_OCMode;
  
  /* Reset the Output Polarity level */
  tmpccer &= (uint16_t)~TIM_CCER_CC1P;
 800201a:	0c33      	lsrs	r3, r6, #16
  tmpccer |= TIM_OCInitStruct->TIM_OCPolarity;
  
  /* Set the Output State */
  tmpccer |= TIM_OCInitStruct->TIM_OutputState;
    
  if((TIMx == TIM1) || (TIMx == TIM8))
 800201c:	4290      	cmp	r0, r2
 800201e:	bf14      	ite	ne
 8002020:	4662      	movne	r2, ip
 8002022:	f04c 0201 	orreq.w	r2, ip, #1
  tmpccmrx |= TIM_OCInitStruct->TIM_OCMode;
  
  /* Reset the Output Polarity level */
  tmpccer &= (uint16_t)~TIM_CCER_CC1P;
  /* Set the Output Compare Polarity */
  tmpccer |= TIM_OCInitStruct->TIM_OCPolarity;
 8002026:	fa1f fc84 	uxth.w	ip, r4
  
  /* Set the Output State */
  tmpccer |= TIM_OCInitStruct->TIM_OutputState;
 800202a:	ea4c 0c03 	orr.w	ip, ip, r3
  TIMx->CCER &= (uint16_t)~TIM_CCER_CC1E;
  
  /* Get the TIMx CCER register value */
  tmpccer = TIMx->CCER;
  /* Get the TIMx CR2 register value */
  tmpcr2 =  TIMx->CR2;
 800202e:	b2ad      	uxth	r5, r5
  
  /* Get the TIMx CCMR1 register value */
  tmpccmrx = TIMx->CCMR1;
 8002030:	b2bf      	uxth	r7, r7
    
  /* Reset the Output Compare Mode Bits */
  tmpccmrx &= (uint16_t)~TIM_CCMR1_OC1M;
  tmpccmrx &= (uint16_t)~TIM_CCMR1_CC1S;
  /* Select the Output Compare Mode */
  tmpccmrx |= TIM_OCInitStruct->TIM_OCMode;
 8002032:	880e      	ldrh	r6, [r1, #0]
  tmpccer |= TIM_OCInitStruct->TIM_OCPolarity;
  
  /* Set the Output State */
  tmpccer |= TIM_OCInitStruct->TIM_OutputState;
    
  if((TIMx == TIM1) || (TIMx == TIM8))
 8002034:	b302      	cbz	r2, 8002078 <TIM_OC1Init+0xa0>
    assert_param(IS_TIM_OCN_POLARITY(TIM_OCInitStruct->TIM_OCNPolarity));
    assert_param(IS_TIM_OCNIDLE_STATE(TIM_OCInitStruct->TIM_OCNIdleState));
    assert_param(IS_TIM_OCIDLE_STATE(TIM_OCInitStruct->TIM_OCIdleState));
    
    /* Reset the Output N Polarity level */
    tmpccer &= (uint16_t)~TIM_CCER_CC1NP;
 8002036:	f64f 72f7 	movw	r2, #65527	; 0xfff7
 800203a:	f2c0 0200 	movt	r2, #0
    tmpccer |= TIM_OCInitStruct->TIM_OutputNState;
    /* Reset the Output Compare and Output Compare N IDLE State */
    tmpcr2 &= (uint16_t)~TIM_CR2_OIS1;
    tmpcr2 &= (uint16_t)~TIM_CR2_OIS1N;
    /* Set the Output Idle state */
    tmpcr2 |= TIM_OCInitStruct->TIM_OCIdleState;
 800203e:	8a0b      	ldrh	r3, [r1, #16]
    assert_param(IS_TIM_OCIDLE_STATE(TIM_OCInitStruct->TIM_OCIdleState));
    
    /* Reset the Output N Polarity level */
    tmpccer &= (uint16_t)~TIM_CCER_CC1NP;
    /* Set the Output N Polarity */
    tmpccer |= TIM_OCInitStruct->TIM_OCNPolarity;
 8002040:	f8b1 a00e 	ldrh.w	sl, [r1, #14]
    tmpccer |= TIM_OCInitStruct->TIM_OutputNState;
    /* Reset the Output Compare and Output Compare N IDLE State */
    tmpcr2 &= (uint16_t)~TIM_CR2_OIS1;
    tmpcr2 &= (uint16_t)~TIM_CR2_OIS1N;
    /* Set the Output Idle state */
    tmpcr2 |= TIM_OCInitStruct->TIM_OCIdleState;
 8002044:	f8b1 8012 	ldrh.w	r8, [r1, #18]
    assert_param(IS_TIM_OCN_POLARITY(TIM_OCInitStruct->TIM_OCNPolarity));
    assert_param(IS_TIM_OCNIDLE_STATE(TIM_OCInitStruct->TIM_OCNIdleState));
    assert_param(IS_TIM_OCIDLE_STATE(TIM_OCInitStruct->TIM_OCIdleState));
    
    /* Reset the Output N Polarity level */
    tmpccer &= (uint16_t)~TIM_CCER_CC1NP;
 8002048:	ea0c 0402 	and.w	r4, ip, r2
    /* Set the Output N Polarity */
    tmpccer |= TIM_OCInitStruct->TIM_OCNPolarity;
    /* Reset the Output N State */
    tmpccer &= (uint16_t)~TIM_CCER_CC1NE;
 800204c:	f64f 7cfb 	movw	ip, #65531	; 0xfffb
    
    /* Set the Output N State */
    tmpccer |= TIM_OCInitStruct->TIM_OutputNState;
    /* Reset the Output Compare and Output Compare N IDLE State */
    tmpcr2 &= (uint16_t)~TIM_CR2_OIS1;
    tmpcr2 &= (uint16_t)~TIM_CR2_OIS1N;
 8002050:	f64f 42ff 	movw	r2, #64767	; 0xfcff
    /* Set the Output Idle state */
    tmpcr2 |= TIM_OCInitStruct->TIM_OCIdleState;
 8002054:	ea48 0803 	orr.w	r8, r8, r3
    assert_param(IS_TIM_OCIDLE_STATE(TIM_OCInitStruct->TIM_OCIdleState));
    
    /* Reset the Output N Polarity level */
    tmpccer &= (uint16_t)~TIM_CCER_CC1NP;
    /* Set the Output N Polarity */
    tmpccer |= TIM_OCInitStruct->TIM_OCNPolarity;
 8002058:	ea44 040a 	orr.w	r4, r4, sl
    /* Reset the Output N State */
    tmpccer &= (uint16_t)~TIM_CCER_CC1NE;
 800205c:	f2c0 0c00 	movt	ip, #0
    
    /* Set the Output N State */
    tmpccer |= TIM_OCInitStruct->TIM_OutputNState;
    /* Reset the Output Compare and Output Compare N IDLE State */
    tmpcr2 &= (uint16_t)~TIM_CR2_OIS1;
    tmpcr2 &= (uint16_t)~TIM_CR2_OIS1N;
 8002060:	f2c0 0200 	movt	r2, #0
    tmpccer |= TIM_OCInitStruct->TIM_OCNPolarity;
    /* Reset the Output N State */
    tmpccer &= (uint16_t)~TIM_CCER_CC1NE;
    
    /* Set the Output N State */
    tmpccer |= TIM_OCInitStruct->TIM_OutputNState;
 8002064:	888b      	ldrh	r3, [r1, #4]
    /* Reset the Output Compare and Output Compare N IDLE State */
    tmpcr2 &= (uint16_t)~TIM_CR2_OIS1;
    tmpcr2 &= (uint16_t)~TIM_CR2_OIS1N;
 8002066:	ea05 0202 	and.w	r2, r5, r2
    /* Reset the Output N Polarity level */
    tmpccer &= (uint16_t)~TIM_CCER_CC1NP;
    /* Set the Output N Polarity */
    tmpccer |= TIM_OCInitStruct->TIM_OCNPolarity;
    /* Reset the Output N State */
    tmpccer &= (uint16_t)~TIM_CCER_CC1NE;
 800206a:	ea04 0c0c 	and.w	ip, r4, ip
    tmpccer |= TIM_OCInitStruct->TIM_OutputNState;
    /* Reset the Output Compare and Output Compare N IDLE State */
    tmpcr2 &= (uint16_t)~TIM_CR2_OIS1;
    tmpcr2 &= (uint16_t)~TIM_CR2_OIS1N;
    /* Set the Output Idle state */
    tmpcr2 |= TIM_OCInitStruct->TIM_OCIdleState;
 800206e:	fa1f f588 	uxth.w	r5, r8
    tmpccer |= TIM_OCInitStruct->TIM_OCNPolarity;
    /* Reset the Output N State */
    tmpccer &= (uint16_t)~TIM_CCER_CC1NE;
    
    /* Set the Output N State */
    tmpccer |= TIM_OCInitStruct->TIM_OutputNState;
 8002072:	ea4c 0c03 	orr.w	ip, ip, r3
    tmpcr2 &= (uint16_t)~TIM_CR2_OIS1;
    tmpcr2 &= (uint16_t)~TIM_CR2_OIS1N;
    /* Set the Output Idle state */
    tmpcr2 |= TIM_OCInitStruct->TIM_OCIdleState;
    /* Set the Output N Idle state */
    tmpcr2 |= TIM_OCInitStruct->TIM_OCNIdleState;
 8002076:	4315      	orrs	r5, r2
  /* Get the TIMx CCMR1 register value */
  tmpccmrx = TIMx->CCMR1;
    
  /* Reset the Output Compare Mode Bits */
  tmpccmrx &= (uint16_t)~TIM_CCMR1_OC1M;
  tmpccmrx &= (uint16_t)~TIM_CCMR1_CC1S;
 8002078:	f64f 728c 	movw	r2, #65420	; 0xff8c
 800207c:	f2c0 0200 	movt	r2, #0
 8002080:	ea07 0302 	and.w	r3, r7, r2
  
  /* Write to TIMx CCMR1 */
  TIMx->CCMR1 = tmpccmrx;
  
  /* Set the Capture Compare Register value */
  TIMx->CCR1 = TIM_OCInitStruct->TIM_Pulse;
 8002084:	688a      	ldr	r2, [r1, #8]
    
  /* Reset the Output Compare Mode Bits */
  tmpccmrx &= (uint16_t)~TIM_CCMR1_OC1M;
  tmpccmrx &= (uint16_t)~TIM_CCMR1_CC1S;
  /* Select the Output Compare Mode */
  tmpccmrx |= TIM_OCInitStruct->TIM_OCMode;
 8002086:	4333      	orrs	r3, r6
    tmpcr2 |= TIM_OCInitStruct->TIM_OCIdleState;
    /* Set the Output N Idle state */
    tmpcr2 |= TIM_OCInitStruct->TIM_OCNIdleState;
  }
  /* Write to TIMx CR2 */
  TIMx->CR2 = tmpcr2;
 8002088:	8085      	strh	r5, [r0, #4]
  
  /* Write to TIMx CCMR1 */
  TIMx->CCMR1 = tmpccmrx;
 800208a:	8303      	strh	r3, [r0, #24]
  
  /* Set the Capture Compare Register value */
  TIMx->CCR1 = TIM_OCInitStruct->TIM_Pulse;
 800208c:	6342      	str	r2, [r0, #52]	; 0x34
  
  /* Write to TIMx CCER */
  TIMx->CCER = tmpccer;
 800208e:	f8a0 c020 	strh.w	ip, [r0, #32]
}
 8002092:	e8bd 05f0 	ldmia.w	sp!, {r4, r5, r6, r7, r8, sl}
 8002096:	4770      	bx	lr

08002098 <TIM_OC2Init>:
  * @param  TIM_OCInitStruct: pointer to a TIM_OCInitTypeDef structure that contains
  *         the configuration information for the specified TIM peripheral.
  * @retval None
  */
void TIM_OC2Init(TIM_TypeDef* TIMx, TIM_OCInitTypeDef* TIM_OCInitStruct)
{
 8002098:	e92d 01f0 	stmdb	sp!, {r4, r5, r6, r7, r8}
  assert_param(IS_TIM_OC_MODE(TIM_OCInitStruct->TIM_OCMode));
  assert_param(IS_TIM_OUTPUT_STATE(TIM_OCInitStruct->TIM_OutputState));
  assert_param(IS_TIM_OC_POLARITY(TIM_OCInitStruct->TIM_OCPolarity));   

  /* Disable the Channel 2: Reset the CC2E Bit */
  TIMx->CCER &= (uint16_t)~TIM_CCER_CC2E;
 800209c:	8c05      	ldrh	r5, [r0, #32]
 800209e:	f025 0710 	bic.w	r7, r5, #16
 80020a2:	043a      	lsls	r2, r7, #16
 80020a4:	0c13      	lsrs	r3, r2, #16
 80020a6:	8403      	strh	r3, [r0, #32]
  
  /* Get the TIMx CCER register value */  
  tmpccer = TIMx->CCER;
 80020a8:	f8b0 c020 	ldrh.w	ip, [r0, #32]
  tmpccmrx |= (uint16_t)(TIM_OCInitStruct->TIM_OCMode << 8);
  
  /* Reset the Output Polarity level */
  tmpccer &= (uint16_t)~TIM_CCER_CC2P;
  /* Set the Output Compare Polarity */
  tmpccer |= (uint16_t)(TIM_OCInitStruct->TIM_OCPolarity << 4);
 80020ac:	898d      	ldrh	r5, [r1, #12]
  
  /* Select the Output Compare Mode */
  tmpccmrx |= (uint16_t)(TIM_OCInitStruct->TIM_OCMode << 8);
  
  /* Reset the Output Polarity level */
  tmpccer &= (uint16_t)~TIM_CCER_CC2P;
 80020ae:	f02c 0620 	bic.w	r6, ip, #32
 80020b2:	0434      	lsls	r4, r6, #16
  tmpccer |= (uint16_t)(TIM_OCInitStruct->TIM_OCPolarity << 4);
  
  /* Set the Output State */
  tmpccer |= (uint16_t)(TIM_OCInitStruct->TIM_OutputState << 4);
    
  if((TIMx == TIM1) || (TIMx == TIM8))
 80020b4:	f240 0200 	movw	r2, #0
  
  /* Select the Output Compare Mode */
  tmpccmrx |= (uint16_t)(TIM_OCInitStruct->TIM_OCMode << 8);
  
  /* Reset the Output Polarity level */
  tmpccer &= (uint16_t)~TIM_CCER_CC2P;
 80020b8:	0c27      	lsrs	r7, r4, #16
  tmpccer |= (uint16_t)(TIM_OCInitStruct->TIM_OCPolarity << 4);
  
  /* Set the Output State */
  tmpccer |= (uint16_t)(TIM_OCInitStruct->TIM_OutputState << 4);
    
  if((TIMx == TIM1) || (TIMx == TIM8))
 80020ba:	f2c4 0201 	movt	r2, #16385	; 0x4001
  tmpccer &= (uint16_t)~TIM_CCER_CC2P;
  /* Set the Output Compare Polarity */
  tmpccer |= (uint16_t)(TIM_OCInitStruct->TIM_OCPolarity << 4);
  
  /* Set the Output State */
  tmpccer |= (uint16_t)(TIM_OCInitStruct->TIM_OutputState << 4);
 80020be:	884e      	ldrh	r6, [r1, #2]
    
  if((TIMx == TIM1) || (TIMx == TIM8))
 80020c0:	f240 4400 	movw	r4, #1024	; 0x400
  tmpccmrx |= (uint16_t)(TIM_OCInitStruct->TIM_OCMode << 8);
  
  /* Reset the Output Polarity level */
  tmpccer &= (uint16_t)~TIM_CCER_CC2P;
  /* Set the Output Compare Polarity */
  tmpccer |= (uint16_t)(TIM_OCInitStruct->TIM_OCPolarity << 4);
 80020c4:	ea47 1305 	orr.w	r3, r7, r5, lsl #4
  
  /* Set the Output State */
  tmpccer |= (uint16_t)(TIM_OCInitStruct->TIM_OutputState << 4);
    
  if((TIMx == TIM1) || (TIMx == TIM8))
 80020c8:	4290      	cmp	r0, r2
 80020ca:	bf14      	ite	ne
 80020cc:	f04f 0c00 	movne.w	ip, #0
 80020d0:	f04f 0c01 	moveq.w	ip, #1
  TIMx->CCER &= (uint16_t)~TIM_CCER_CC2E;
  
  /* Get the TIMx CCER register value */  
  tmpccer = TIMx->CCER;
  /* Get the TIMx CR2 register value */
  tmpcr2 =  TIMx->CR2;
 80020d4:	8885      	ldrh	r5, [r0, #4]
  tmpccer |= (uint16_t)(TIM_OCInitStruct->TIM_OCPolarity << 4);
  
  /* Set the Output State */
  tmpccer |= (uint16_t)(TIM_OCInitStruct->TIM_OutputState << 4);
    
  if((TIMx == TIM1) || (TIMx == TIM8))
 80020d6:	f2c4 0401 	movt	r4, #16385	; 0x4001
  tmpccer = TIMx->CCER;
  /* Get the TIMx CR2 register value */
  tmpcr2 =  TIMx->CR2;
  
  /* Get the TIMx CCMR1 register value */
  tmpccmrx = TIMx->CCMR1;
 80020da:	8b07      	ldrh	r7, [r0, #24]
  tmpccer &= (uint16_t)~TIM_CCER_CC2P;
  /* Set the Output Compare Polarity */
  tmpccer |= (uint16_t)(TIM_OCInitStruct->TIM_OCPolarity << 4);
  
  /* Set the Output State */
  tmpccer |= (uint16_t)(TIM_OCInitStruct->TIM_OutputState << 4);
 80020dc:	ea43 1206 	orr.w	r2, r3, r6, lsl #4
    
  if((TIMx == TIM1) || (TIMx == TIM8))
 80020e0:	42a0      	cmp	r0, r4
 80020e2:	bf14      	ite	ne
 80020e4:	4664      	movne	r4, ip
 80020e6:	f04c 0401 	orreq.w	r4, ip, #1
  tmpccer = TIMx->CCER;
  /* Get the TIMx CR2 register value */
  tmpcr2 =  TIMx->CR2;
  
  /* Get the TIMx CCMR1 register value */
  tmpccmrx = TIMx->CCMR1;
 80020ea:	b2bf      	uxth	r7, r7
  TIMx->CCER &= (uint16_t)~TIM_CCER_CC2E;
  
  /* Get the TIMx CCER register value */  
  tmpccer = TIMx->CCER;
  /* Get the TIMx CR2 register value */
  tmpcr2 =  TIMx->CR2;
 80020ec:	fa1f fc85 	uxth.w	ip, r5
  tmpccer &= (uint16_t)~TIM_CCER_CC2P;
  /* Set the Output Compare Polarity */
  tmpccer |= (uint16_t)(TIM_OCInitStruct->TIM_OCPolarity << 4);
  
  /* Set the Output State */
  tmpccer |= (uint16_t)(TIM_OCInitStruct->TIM_OutputState << 4);
 80020f0:	b292      	uxth	r2, r2
  /* Reset the Output Compare mode and Capture/Compare selection Bits */
  tmpccmrx &= (uint16_t)~TIM_CCMR1_OC2M;
  tmpccmrx &= (uint16_t)~TIM_CCMR1_CC2S;
  
  /* Select the Output Compare Mode */
  tmpccmrx |= (uint16_t)(TIM_OCInitStruct->TIM_OCMode << 8);
 80020f2:	880e      	ldrh	r6, [r1, #0]
  tmpccer |= (uint16_t)(TIM_OCInitStruct->TIM_OCPolarity << 4);
  
  /* Set the Output State */
  tmpccer |= (uint16_t)(TIM_OCInitStruct->TIM_OutputState << 4);
    
  if((TIMx == TIM1) || (TIMx == TIM8))
 80020f4:	b314      	cbz	r4, 800213c <TIM_OC2Init+0xa4>
    assert_param(IS_TIM_OCN_POLARITY(TIM_OCInitStruct->TIM_OCNPolarity));
    assert_param(IS_TIM_OCNIDLE_STATE(TIM_OCInitStruct->TIM_OCNIdleState));
    assert_param(IS_TIM_OCIDLE_STATE(TIM_OCInitStruct->TIM_OCIdleState));
    
    /* Reset the Output N Polarity level */
    tmpccer &= (uint16_t)~TIM_CCER_CC2NP;
 80020f6:	f64f 787f 	movw	r8, #65407	; 0xff7f
 80020fa:	f2c0 0800 	movt	r8, #0
    /* Set the Output N Polarity */
    tmpccer |= (uint16_t)(TIM_OCInitStruct->TIM_OCNPolarity << 4);
 80020fe:	89cb      	ldrh	r3, [r1, #14]
    
    /* Set the Output N State */
    tmpccer |= (uint16_t)(TIM_OCInitStruct->TIM_OutputNState << 4);
    /* Reset the Output Compare and Output Compare N IDLE State */
    tmpcr2 &= (uint16_t)~TIM_CR2_OIS2;
    tmpcr2 &= (uint16_t)~TIM_CR2_OIS2N;
 8002100:	f24f 34ff 	movw	r4, #62463	; 0xf3ff
    assert_param(IS_TIM_OCN_POLARITY(TIM_OCInitStruct->TIM_OCNPolarity));
    assert_param(IS_TIM_OCNIDLE_STATE(TIM_OCInitStruct->TIM_OCNIdleState));
    assert_param(IS_TIM_OCIDLE_STATE(TIM_OCInitStruct->TIM_OCIdleState));
    
    /* Reset the Output N Polarity level */
    tmpccer &= (uint16_t)~TIM_CCER_CC2NP;
 8002104:	ea02 0508 	and.w	r5, r2, r8
    
    /* Set the Output N State */
    tmpccer |= (uint16_t)(TIM_OCInitStruct->TIM_OutputNState << 4);
    /* Reset the Output Compare and Output Compare N IDLE State */
    tmpcr2 &= (uint16_t)~TIM_CR2_OIS2;
    tmpcr2 &= (uint16_t)~TIM_CR2_OIS2N;
 8002108:	f2c0 0400 	movt	r4, #0
    /* Reset the Output N Polarity level */
    tmpccer &= (uint16_t)~TIM_CCER_CC2NP;
    /* Set the Output N Polarity */
    tmpccer |= (uint16_t)(TIM_OCInitStruct->TIM_OCNPolarity << 4);
    /* Reset the Output N State */
    tmpccer &= (uint16_t)~TIM_CCER_CC2NE;
 800210c:	f64f 72bf 	movw	r2, #65471	; 0xffbf
    tmpccer |= (uint16_t)(TIM_OCInitStruct->TIM_OutputNState << 4);
    /* Reset the Output Compare and Output Compare N IDLE State */
    tmpcr2 &= (uint16_t)~TIM_CR2_OIS2;
    tmpcr2 &= (uint16_t)~TIM_CR2_OIS2N;
    /* Set the Output Idle state */
    tmpcr2 |= (uint16_t)(TIM_OCInitStruct->TIM_OCIdleState << 2);
 8002110:	f8b1 8010 	ldrh.w	r8, [r1, #16]
    
    /* Set the Output N State */
    tmpccer |= (uint16_t)(TIM_OCInitStruct->TIM_OutputNState << 4);
    /* Reset the Output Compare and Output Compare N IDLE State */
    tmpcr2 &= (uint16_t)~TIM_CR2_OIS2;
    tmpcr2 &= (uint16_t)~TIM_CR2_OIS2N;
 8002114:	ea0c 0404 	and.w	r4, ip, r4
    assert_param(IS_TIM_OCIDLE_STATE(TIM_OCInitStruct->TIM_OCIdleState));
    
    /* Reset the Output N Polarity level */
    tmpccer &= (uint16_t)~TIM_CCER_CC2NP;
    /* Set the Output N Polarity */
    tmpccer |= (uint16_t)(TIM_OCInitStruct->TIM_OCNPolarity << 4);
 8002118:	ea45 1503 	orr.w	r5, r5, r3, lsl #4
    /* Reset the Output N State */
    tmpccer &= (uint16_t)~TIM_CCER_CC2NE;
 800211c:	f2c0 0200 	movt	r2, #0
    
    /* Set the Output N State */
    tmpccer |= (uint16_t)(TIM_OCInitStruct->TIM_OutputNState << 4);
 8002120:	888b      	ldrh	r3, [r1, #4]
    tmpcr2 &= (uint16_t)~TIM_CR2_OIS2;
    tmpcr2 &= (uint16_t)~TIM_CR2_OIS2N;
    /* Set the Output Idle state */
    tmpcr2 |= (uint16_t)(TIM_OCInitStruct->TIM_OCIdleState << 2);
    /* Set the Output N Idle state */
    tmpcr2 |= (uint16_t)(TIM_OCInitStruct->TIM_OCNIdleState << 2);
 8002122:	f8b1 c012 	ldrh.w	ip, [r1, #18]
    /* Reset the Output N Polarity level */
    tmpccer &= (uint16_t)~TIM_CCER_CC2NP;
    /* Set the Output N Polarity */
    tmpccer |= (uint16_t)(TIM_OCInitStruct->TIM_OCNPolarity << 4);
    /* Reset the Output N State */
    tmpccer &= (uint16_t)~TIM_CCER_CC2NE;
 8002126:	ea05 0202 	and.w	r2, r5, r2
    tmpccer |= (uint16_t)(TIM_OCInitStruct->TIM_OutputNState << 4);
    /* Reset the Output Compare and Output Compare N IDLE State */
    tmpcr2 &= (uint16_t)~TIM_CR2_OIS2;
    tmpcr2 &= (uint16_t)~TIM_CR2_OIS2N;
    /* Set the Output Idle state */
    tmpcr2 |= (uint16_t)(TIM_OCInitStruct->TIM_OCIdleState << 2);
 800212a:	ea44 0488 	orr.w	r4, r4, r8, lsl #2
    tmpccer |= (uint16_t)(TIM_OCInitStruct->TIM_OCNPolarity << 4);
    /* Reset the Output N State */
    tmpccer &= (uint16_t)~TIM_CCER_CC2NE;
    
    /* Set the Output N State */
    tmpccer |= (uint16_t)(TIM_OCInitStruct->TIM_OutputNState << 4);
 800212e:	ea42 1203 	orr.w	r2, r2, r3, lsl #4
    tmpcr2 &= (uint16_t)~TIM_CR2_OIS2;
    tmpcr2 &= (uint16_t)~TIM_CR2_OIS2N;
    /* Set the Output Idle state */
    tmpcr2 |= (uint16_t)(TIM_OCInitStruct->TIM_OCIdleState << 2);
    /* Set the Output N Idle state */
    tmpcr2 |= (uint16_t)(TIM_OCInitStruct->TIM_OCNIdleState << 2);
 8002132:	ea44 0c8c 	orr.w	ip, r4, ip, lsl #2
    tmpccer |= (uint16_t)(TIM_OCInitStruct->TIM_OCNPolarity << 4);
    /* Reset the Output N State */
    tmpccer &= (uint16_t)~TIM_CCER_CC2NE;
    
    /* Set the Output N State */
    tmpccer |= (uint16_t)(TIM_OCInitStruct->TIM_OutputNState << 4);
 8002136:	b292      	uxth	r2, r2
    tmpcr2 &= (uint16_t)~TIM_CR2_OIS2;
    tmpcr2 &= (uint16_t)~TIM_CR2_OIS2N;
    /* Set the Output Idle state */
    tmpcr2 |= (uint16_t)(TIM_OCInitStruct->TIM_OCIdleState << 2);
    /* Set the Output N Idle state */
    tmpcr2 |= (uint16_t)(TIM_OCInitStruct->TIM_OCNIdleState << 2);
 8002138:	fa1f fc8c 	uxth.w	ip, ip
  /* Get the TIMx CCMR1 register value */
  tmpccmrx = TIMx->CCMR1;
    
  /* Reset the Output Compare mode and Capture/Compare selection Bits */
  tmpccmrx &= (uint16_t)~TIM_CCMR1_OC2M;
  tmpccmrx &= (uint16_t)~TIM_CCMR1_CC2S;
 800213c:	f648 43ff 	movw	r3, #36095	; 0x8cff
 8002140:	f2c0 0300 	movt	r3, #0
 8002144:	ea07 0303 	and.w	r3, r7, r3
  
  /* Select the Output Compare Mode */
  tmpccmrx |= (uint16_t)(TIM_OCInitStruct->TIM_OCMode << 8);
 8002148:	ea43 2306 	orr.w	r3, r3, r6, lsl #8
  
  /* Write to TIMx CCMR1 */
  TIMx->CCMR1 = tmpccmrx;
  
  /* Set the Capture Compare Register value */
  TIMx->CCR2 = TIM_OCInitStruct->TIM_Pulse;
 800214c:	6889      	ldr	r1, [r1, #8]
  /* Reset the Output Compare mode and Capture/Compare selection Bits */
  tmpccmrx &= (uint16_t)~TIM_CCMR1_OC2M;
  tmpccmrx &= (uint16_t)~TIM_CCMR1_CC2S;
  
  /* Select the Output Compare Mode */
  tmpccmrx |= (uint16_t)(TIM_OCInitStruct->TIM_OCMode << 8);
 800214e:	b29b      	uxth	r3, r3
    tmpcr2 |= (uint16_t)(TIM_OCInitStruct->TIM_OCIdleState << 2);
    /* Set the Output N Idle state */
    tmpcr2 |= (uint16_t)(TIM_OCInitStruct->TIM_OCNIdleState << 2);
  }
  /* Write to TIMx CR2 */
  TIMx->CR2 = tmpcr2;
 8002150:	f8a0 c004 	strh.w	ip, [r0, #4]
  
  /* Write to TIMx CCMR1 */
  TIMx->CCMR1 = tmpccmrx;
 8002154:	8303      	strh	r3, [r0, #24]
  
  /* Set the Capture Compare Register value */
  TIMx->CCR2 = TIM_OCInitStruct->TIM_Pulse;
 8002156:	6381      	str	r1, [r0, #56]	; 0x38
  
  /* Write to TIMx CCER */
  TIMx->CCER = tmpccer;
 8002158:	8402      	strh	r2, [r0, #32]
}
 800215a:	e8bd 01f0 	ldmia.w	sp!, {r4, r5, r6, r7, r8}
 800215e:	4770      	bx	lr

08002160 <TIM_OC3Init>:
  * @param  TIM_OCInitStruct: pointer to a TIM_OCInitTypeDef structure that contains
  *         the configuration information for the specified TIM peripheral.
  * @retval None
  */
void TIM_OC3Init(TIM_TypeDef* TIMx, TIM_OCInitTypeDef* TIM_OCInitStruct)
{
 8002160:	e92d 01f0 	stmdb	sp!, {r4, r5, r6, r7, r8}
  assert_param(IS_TIM_OC_MODE(TIM_OCInitStruct->TIM_OCMode));
  assert_param(IS_TIM_OUTPUT_STATE(TIM_OCInitStruct->TIM_OutputState));
  assert_param(IS_TIM_OC_POLARITY(TIM_OCInitStruct->TIM_OCPolarity));   

  /* Disable the Channel 3: Reset the CC2E Bit */
  TIMx->CCER &= (uint16_t)~TIM_CCER_CC3E;
 8002164:	8c05      	ldrh	r5, [r0, #32]
 8002166:	f425 7780 	bic.w	r7, r5, #256	; 0x100
 800216a:	043a      	lsls	r2, r7, #16
 800216c:	0c13      	lsrs	r3, r2, #16
 800216e:	8403      	strh	r3, [r0, #32]
  
  /* Get the TIMx CCER register value */
  tmpccer = TIMx->CCER;
 8002170:	f8b0 c020 	ldrh.w	ip, [r0, #32]
  tmpccmrx |= TIM_OCInitStruct->TIM_OCMode;
  
  /* Reset the Output Polarity level */
  tmpccer &= (uint16_t)~TIM_CCER_CC3P;
  /* Set the Output Compare Polarity */
  tmpccer |= (uint16_t)(TIM_OCInitStruct->TIM_OCPolarity << 8);
 8002174:	898d      	ldrh	r5, [r1, #12]
  tmpccmrx &= (uint16_t)~TIM_CCMR2_CC3S;  
  /* Select the Output Compare Mode */
  tmpccmrx |= TIM_OCInitStruct->TIM_OCMode;
  
  /* Reset the Output Polarity level */
  tmpccer &= (uint16_t)~TIM_CCER_CC3P;
 8002176:	f42c 7600 	bic.w	r6, ip, #512	; 0x200
 800217a:	0434      	lsls	r4, r6, #16
  tmpccer |= (uint16_t)(TIM_OCInitStruct->TIM_OCPolarity << 8);
  
  /* Set the Output State */
  tmpccer |= (uint16_t)(TIM_OCInitStruct->TIM_OutputState << 8);
    
  if((TIMx == TIM1) || (TIMx == TIM8))
 800217c:	f240 0200 	movw	r2, #0
  tmpccmrx &= (uint16_t)~TIM_CCMR2_CC3S;  
  /* Select the Output Compare Mode */
  tmpccmrx |= TIM_OCInitStruct->TIM_OCMode;
  
  /* Reset the Output Polarity level */
  tmpccer &= (uint16_t)~TIM_CCER_CC3P;
 8002180:	0c27      	lsrs	r7, r4, #16
  tmpccer |= (uint16_t)(TIM_OCInitStruct->TIM_OCPolarity << 8);
  
  /* Set the Output State */
  tmpccer |= (uint16_t)(TIM_OCInitStruct->TIM_OutputState << 8);
    
  if((TIMx == TIM1) || (TIMx == TIM8))
 8002182:	f2c4 0201 	movt	r2, #16385	; 0x4001
  tmpccer &= (uint16_t)~TIM_CCER_CC3P;
  /* Set the Output Compare Polarity */
  tmpccer |= (uint16_t)(TIM_OCInitStruct->TIM_OCPolarity << 8);
  
  /* Set the Output State */
  tmpccer |= (uint16_t)(TIM_OCInitStruct->TIM_OutputState << 8);
 8002186:	884e      	ldrh	r6, [r1, #2]
    
  if((TIMx == TIM1) || (TIMx == TIM8))
 8002188:	f240 4400 	movw	r4, #1024	; 0x400
  tmpccmrx |= TIM_OCInitStruct->TIM_OCMode;
  
  /* Reset the Output Polarity level */
  tmpccer &= (uint16_t)~TIM_CCER_CC3P;
  /* Set the Output Compare Polarity */
  tmpccer |= (uint16_t)(TIM_OCInitStruct->TIM_OCPolarity << 8);
 800218c:	ea47 2305 	orr.w	r3, r7, r5, lsl #8
  
  /* Set the Output State */
  tmpccer |= (uint16_t)(TIM_OCInitStruct->TIM_OutputState << 8);
    
  if((TIMx == TIM1) || (TIMx == TIM8))
 8002190:	4290      	cmp	r0, r2
 8002192:	bf14      	ite	ne
 8002194:	f04f 0c00 	movne.w	ip, #0
 8002198:	f04f 0c01 	moveq.w	ip, #1
  TIMx->CCER &= (uint16_t)~TIM_CCER_CC3E;
  
  /* Get the TIMx CCER register value */
  tmpccer = TIMx->CCER;
  /* Get the TIMx CR2 register value */
  tmpcr2 =  TIMx->CR2;
 800219c:	8885      	ldrh	r5, [r0, #4]
  tmpccer |= (uint16_t)(TIM_OCInitStruct->TIM_OCPolarity << 8);
  
  /* Set the Output State */
  tmpccer |= (uint16_t)(TIM_OCInitStruct->TIM_OutputState << 8);
    
  if((TIMx == TIM1) || (TIMx == TIM8))
 800219e:	f2c4 0401 	movt	r4, #16385	; 0x4001
  tmpccer = TIMx->CCER;
  /* Get the TIMx CR2 register value */
  tmpcr2 =  TIMx->CR2;
  
  /* Get the TIMx CCMR2 register value */
  tmpccmrx = TIMx->CCMR2;
 80021a2:	8b87      	ldrh	r7, [r0, #28]
  tmpccer &= (uint16_t)~TIM_CCER_CC3P;
  /* Set the Output Compare Polarity */
  tmpccer |= (uint16_t)(TIM_OCInitStruct->TIM_OCPolarity << 8);
  
  /* Set the Output State */
  tmpccer |= (uint16_t)(TIM_OCInitStruct->TIM_OutputState << 8);
 80021a4:	ea43 2206 	orr.w	r2, r3, r6, lsl #8
    
  if((TIMx == TIM1) || (TIMx == TIM8))
 80021a8:	42a0      	cmp	r0, r4
 80021aa:	bf14      	ite	ne
 80021ac:	4664      	movne	r4, ip
 80021ae:	f04c 0401 	orreq.w	r4, ip, #1
  tmpccer = TIMx->CCER;
  /* Get the TIMx CR2 register value */
  tmpcr2 =  TIMx->CR2;
  
  /* Get the TIMx CCMR2 register value */
  tmpccmrx = TIMx->CCMR2;
 80021b2:	b2bf      	uxth	r7, r7
  TIMx->CCER &= (uint16_t)~TIM_CCER_CC3E;
  
  /* Get the TIMx CCER register value */
  tmpccer = TIMx->CCER;
  /* Get the TIMx CR2 register value */
  tmpcr2 =  TIMx->CR2;
 80021b4:	fa1f fc85 	uxth.w	ip, r5
  tmpccer &= (uint16_t)~TIM_CCER_CC3P;
  /* Set the Output Compare Polarity */
  tmpccer |= (uint16_t)(TIM_OCInitStruct->TIM_OCPolarity << 8);
  
  /* Set the Output State */
  tmpccer |= (uint16_t)(TIM_OCInitStruct->TIM_OutputState << 8);
 80021b8:	b292      	uxth	r2, r2
    
  /* Reset the Output Compare mode and Capture/Compare selection Bits */
  tmpccmrx &= (uint16_t)~TIM_CCMR2_OC3M;
  tmpccmrx &= (uint16_t)~TIM_CCMR2_CC3S;  
  /* Select the Output Compare Mode */
  tmpccmrx |= TIM_OCInitStruct->TIM_OCMode;
 80021ba:	880e      	ldrh	r6, [r1, #0]
  tmpccer |= (uint16_t)(TIM_OCInitStruct->TIM_OCPolarity << 8);
  
  /* Set the Output State */
  tmpccer |= (uint16_t)(TIM_OCInitStruct->TIM_OutputState << 8);
    
  if((TIMx == TIM1) || (TIMx == TIM8))
 80021bc:	b314      	cbz	r4, 8002204 <TIM_OC3Init+0xa4>
    assert_param(IS_TIM_OCN_POLARITY(TIM_OCInitStruct->TIM_OCNPolarity));
    assert_param(IS_TIM_OCNIDLE_STATE(TIM_OCInitStruct->TIM_OCNIdleState));
    assert_param(IS_TIM_OCIDLE_STATE(TIM_OCInitStruct->TIM_OCIdleState));
    
    /* Reset the Output N Polarity level */
    tmpccer &= (uint16_t)~TIM_CCER_CC3NP;
 80021be:	f24f 78ff 	movw	r8, #63487	; 0xf7ff
 80021c2:	f2c0 0800 	movt	r8, #0
    /* Set the Output N Polarity */
    tmpccer |= (uint16_t)(TIM_OCInitStruct->TIM_OCNPolarity << 8);
 80021c6:	89cb      	ldrh	r3, [r1, #14]
    
    /* Set the Output N State */
    tmpccer |= (uint16_t)(TIM_OCInitStruct->TIM_OutputNState << 8);
    /* Reset the Output Compare and Output Compare N IDLE State */
    tmpcr2 &= (uint16_t)~TIM_CR2_OIS3;
    tmpcr2 &= (uint16_t)~TIM_CR2_OIS3N;
 80021c8:	f64c 74ff 	movw	r4, #53247	; 0xcfff
    assert_param(IS_TIM_OCN_POLARITY(TIM_OCInitStruct->TIM_OCNPolarity));
    assert_param(IS_TIM_OCNIDLE_STATE(TIM_OCInitStruct->TIM_OCNIdleState));
    assert_param(IS_TIM_OCIDLE_STATE(TIM_OCInitStruct->TIM_OCIdleState));
    
    /* Reset the Output N Polarity level */
    tmpccer &= (uint16_t)~TIM_CCER_CC3NP;
 80021cc:	ea02 0508 	and.w	r5, r2, r8
    
    /* Set the Output N State */
    tmpccer |= (uint16_t)(TIM_OCInitStruct->TIM_OutputNState << 8);
    /* Reset the Output Compare and Output Compare N IDLE State */
    tmpcr2 &= (uint16_t)~TIM_CR2_OIS3;
    tmpcr2 &= (uint16_t)~TIM_CR2_OIS3N;
 80021d0:	f2c0 0400 	movt	r4, #0
    /* Reset the Output N Polarity level */
    tmpccer &= (uint16_t)~TIM_CCER_CC3NP;
    /* Set the Output N Polarity */
    tmpccer |= (uint16_t)(TIM_OCInitStruct->TIM_OCNPolarity << 8);
    /* Reset the Output N State */
    tmpccer &= (uint16_t)~TIM_CCER_CC3NE;
 80021d4:	f64f 32ff 	movw	r2, #64511	; 0xfbff
    tmpccer |= (uint16_t)(TIM_OCInitStruct->TIM_OutputNState << 8);
    /* Reset the Output Compare and Output Compare N IDLE State */
    tmpcr2 &= (uint16_t)~TIM_CR2_OIS3;
    tmpcr2 &= (uint16_t)~TIM_CR2_OIS3N;
    /* Set the Output Idle state */
    tmpcr2 |= (uint16_t)(TIM_OCInitStruct->TIM_OCIdleState << 4);
 80021d8:	f8b1 8010 	ldrh.w	r8, [r1, #16]
    
    /* Set the Output N State */
    tmpccer |= (uint16_t)(TIM_OCInitStruct->TIM_OutputNState << 8);
    /* Reset the Output Compare and Output Compare N IDLE State */
    tmpcr2 &= (uint16_t)~TIM_CR2_OIS3;
    tmpcr2 &= (uint16_t)~TIM_CR2_OIS3N;
 80021dc:	ea0c 0404 	and.w	r4, ip, r4
    assert_param(IS_TIM_OCIDLE_STATE(TIM_OCInitStruct->TIM_OCIdleState));
    
    /* Reset the Output N Polarity level */
    tmpccer &= (uint16_t)~TIM_CCER_CC3NP;
    /* Set the Output N Polarity */
    tmpccer |= (uint16_t)(TIM_OCInitStruct->TIM_OCNPolarity << 8);
 80021e0:	ea45 2503 	orr.w	r5, r5, r3, lsl #8
    /* Reset the Output N State */
    tmpccer &= (uint16_t)~TIM_CCER_CC3NE;
 80021e4:	f2c0 0200 	movt	r2, #0
    
    /* Set the Output N State */
    tmpccer |= (uint16_t)(TIM_OCInitStruct->TIM_OutputNState << 8);
 80021e8:	888b      	ldrh	r3, [r1, #4]
    tmpcr2 &= (uint16_t)~TIM_CR2_OIS3;
    tmpcr2 &= (uint16_t)~TIM_CR2_OIS3N;
    /* Set the Output Idle state */
    tmpcr2 |= (uint16_t)(TIM_OCInitStruct->TIM_OCIdleState << 4);
    /* Set the Output N Idle state */
    tmpcr2 |= (uint16_t)(TIM_OCInitStruct->TIM_OCNIdleState << 4);
 80021ea:	f8b1 c012 	ldrh.w	ip, [r1, #18]
    /* Reset the Output N Polarity level */
    tmpccer &= (uint16_t)~TIM_CCER_CC3NP;
    /* Set the Output N Polarity */
    tmpccer |= (uint16_t)(TIM_OCInitStruct->TIM_OCNPolarity << 8);
    /* Reset the Output N State */
    tmpccer &= (uint16_t)~TIM_CCER_CC3NE;
 80021ee:	ea05 0202 	and.w	r2, r5, r2
    tmpccer |= (uint16_t)(TIM_OCInitStruct->TIM_OutputNState << 8);
    /* Reset the Output Compare and Output Compare N IDLE State */
    tmpcr2 &= (uint16_t)~TIM_CR2_OIS3;
    tmpcr2 &= (uint16_t)~TIM_CR2_OIS3N;
    /* Set the Output Idle state */
    tmpcr2 |= (uint16_t)(TIM_OCInitStruct->TIM_OCIdleState << 4);
 80021f2:	ea44 1408 	orr.w	r4, r4, r8, lsl #4
    tmpccer |= (uint16_t)(TIM_OCInitStruct->TIM_OCNPolarity << 8);
    /* Reset the Output N State */
    tmpccer &= (uint16_t)~TIM_CCER_CC3NE;
    
    /* Set the Output N State */
    tmpccer |= (uint16_t)(TIM_OCInitStruct->TIM_OutputNState << 8);
 80021f6:	ea42 2203 	orr.w	r2, r2, r3, lsl #8
    tmpcr2 &= (uint16_t)~TIM_CR2_OIS3;
    tmpcr2 &= (uint16_t)~TIM_CR2_OIS3N;
    /* Set the Output Idle state */
    tmpcr2 |= (uint16_t)(TIM_OCInitStruct->TIM_OCIdleState << 4);
    /* Set the Output N Idle state */
    tmpcr2 |= (uint16_t)(TIM_OCInitStruct->TIM_OCNIdleState << 4);
 80021fa:	ea44 1c0c 	orr.w	ip, r4, ip, lsl #4
    tmpccer |= (uint16_t)(TIM_OCInitStruct->TIM_OCNPolarity << 8);
    /* Reset the Output N State */
    tmpccer &= (uint16_t)~TIM_CCER_CC3NE;
    
    /* Set the Output N State */
    tmpccer |= (uint16_t)(TIM_OCInitStruct->TIM_OutputNState << 8);
 80021fe:	b292      	uxth	r2, r2
    tmpcr2 &= (uint16_t)~TIM_CR2_OIS3;
    tmpcr2 &= (uint16_t)~TIM_CR2_OIS3N;
    /* Set the Output Idle state */
    tmpcr2 |= (uint16_t)(TIM_OCInitStruct->TIM_OCIdleState << 4);
    /* Set the Output N Idle state */
    tmpcr2 |= (uint16_t)(TIM_OCInitStruct->TIM_OCNIdleState << 4);
 8002200:	fa1f fc8c 	uxth.w	ip, ip
  /* Get the TIMx CCMR2 register value */
  tmpccmrx = TIMx->CCMR2;
    
  /* Reset the Output Compare mode and Capture/Compare selection Bits */
  tmpccmrx &= (uint16_t)~TIM_CCMR2_OC3M;
  tmpccmrx &= (uint16_t)~TIM_CCMR2_CC3S;  
 8002204:	f64f 738c 	movw	r3, #65420	; 0xff8c
 8002208:	f2c0 0300 	movt	r3, #0
 800220c:	ea07 0303 	and.w	r3, r7, r3
  
  /* Write to TIMx CCMR2 */
  TIMx->CCMR2 = tmpccmrx;
  
  /* Set the Capture Compare Register value */
  TIMx->CCR3 = TIM_OCInitStruct->TIM_Pulse;
 8002210:	6889      	ldr	r1, [r1, #8]
    
  /* Reset the Output Compare mode and Capture/Compare selection Bits */
  tmpccmrx &= (uint16_t)~TIM_CCMR2_OC3M;
  tmpccmrx &= (uint16_t)~TIM_CCMR2_CC3S;  
  /* Select the Output Compare Mode */
  tmpccmrx |= TIM_OCInitStruct->TIM_OCMode;
 8002212:	4333      	orrs	r3, r6
    tmpcr2 |= (uint16_t)(TIM_OCInitStruct->TIM_OCIdleState << 4);
    /* Set the Output N Idle state */
    tmpcr2 |= (uint16_t)(TIM_OCInitStruct->TIM_OCNIdleState << 4);
  }
  /* Write to TIMx CR2 */
  TIMx->CR2 = tmpcr2;
 8002214:	f8a0 c004 	strh.w	ip, [r0, #4]
  
  /* Write to TIMx CCMR2 */
  TIMx->CCMR2 = tmpccmrx;
 8002218:	8383      	strh	r3, [r0, #28]
  
  /* Set the Capture Compare Register value */
  TIMx->CCR3 = TIM_OCInitStruct->TIM_Pulse;
 800221a:	63c1      	str	r1, [r0, #60]	; 0x3c
  
  /* Write to TIMx CCER */
  TIMx->CCER = tmpccer;
 800221c:	8402      	strh	r2, [r0, #32]
}
 800221e:	e8bd 01f0 	ldmia.w	sp!, {r4, r5, r6, r7, r8}
 8002222:	4770      	bx	lr

08002224 <TIM_OC4Init>:
  * @param  TIM_OCInitStruct: pointer to a TIM_OCInitTypeDef structure that contains
  *         the configuration information for the specified TIM peripheral.
  * @retval None
  */
void TIM_OC4Init(TIM_TypeDef* TIMx, TIM_OCInitTypeDef* TIM_OCInitStruct)
{
 8002224:	e92d 05f0 	stmdb	sp!, {r4, r5, r6, r7, r8, sl}
  assert_param(IS_TIM_OC_MODE(TIM_OCInitStruct->TIM_OCMode));
  assert_param(IS_TIM_OUTPUT_STATE(TIM_OCInitStruct->TIM_OutputState));
  assert_param(IS_TIM_OC_POLARITY(TIM_OCInitStruct->TIM_OCPolarity));   

  /* Disable the Channel 4: Reset the CC4E Bit */
  TIMx->CCER &= (uint16_t)~TIM_CCER_CC4E;
 8002228:	f8b0 a020 	ldrh.w	sl, [r0, #32]
  tmpccer |= (uint16_t)(TIM_OCInitStruct->TIM_OCPolarity << 12);
  
  /* Set the Output State */
  tmpccer |= (uint16_t)(TIM_OCInitStruct->TIM_OutputState << 12);
  
  if((TIMx == TIM1) || (TIMx == TIM8))
 800222c:	f240 0800 	movw	r8, #0
  assert_param(IS_TIM_OC_MODE(TIM_OCInitStruct->TIM_OCMode));
  assert_param(IS_TIM_OUTPUT_STATE(TIM_OCInitStruct->TIM_OutputState));
  assert_param(IS_TIM_OC_POLARITY(TIM_OCInitStruct->TIM_OCPolarity));   

  /* Disable the Channel 4: Reset the CC4E Bit */
  TIMx->CCER &= (uint16_t)~TIM_CCER_CC4E;
 8002230:	f42a 5580 	bic.w	r5, sl, #4096	; 0x1000
 8002234:	042c      	lsls	r4, r5, #16
 8002236:	0c23      	lsrs	r3, r4, #16
 8002238:	8403      	strh	r3, [r0, #32]
  tmpccer |= (uint16_t)(TIM_OCInitStruct->TIM_OCPolarity << 12);
  
  /* Set the Output State */
  tmpccer |= (uint16_t)(TIM_OCInitStruct->TIM_OutputState << 12);
  
  if((TIMx == TIM1) || (TIMx == TIM8))
 800223a:	f2c4 0801 	movt	r8, #16385	; 0x4001
 800223e:	f240 4700 	movw	r7, #1024	; 0x400

  /* Disable the Channel 4: Reset the CC4E Bit */
  TIMx->CCER &= (uint16_t)~TIM_CCER_CC4E;
  
  /* Get the TIMx CCER register value */
  tmpccer = TIMx->CCER;
 8002242:	8c05      	ldrh	r5, [r0, #32]
  tmpccer |= (uint16_t)(TIM_OCInitStruct->TIM_OCPolarity << 12);
  
  /* Set the Output State */
  tmpccer |= (uint16_t)(TIM_OCInitStruct->TIM_OutputState << 12);
  
  if((TIMx == TIM1) || (TIMx == TIM8))
 8002244:	f2c4 0701 	movt	r7, #16385	; 0x4001
 8002248:	4540      	cmp	r0, r8
 800224a:	bf14      	ite	ne
 800224c:	2200      	movne	r2, #0
 800224e:	2201      	moveq	r2, #1
  TIMx->CCER &= (uint16_t)~TIM_CCER_CC4E;
  
  /* Get the TIMx CCER register value */
  tmpccer = TIMx->CCER;
  /* Get the TIMx CR2 register value */
  tmpcr2 =  TIMx->CR2;
 8002250:	8884      	ldrh	r4, [r0, #4]
  
  /* Get the TIMx CCMR2 register value */
  tmpccmrx = TIMx->CCMR2;
 8002252:	f8b0 c01c 	ldrh.w	ip, [r0, #28]
  tmpccer |= (uint16_t)(TIM_OCInitStruct->TIM_OCPolarity << 12);
  
  /* Set the Output State */
  tmpccer |= (uint16_t)(TIM_OCInitStruct->TIM_OutputState << 12);
  
  if((TIMx == TIM1) || (TIMx == TIM8))
 8002256:	42b8      	cmp	r0, r7
 8002258:	bf14      	ite	ne
 800225a:	4613      	movne	r3, r2
 800225c:	f042 0301 	orreq.w	r3, r2, #1

  /* Disable the Channel 4: Reset the CC4E Bit */
  TIMx->CCER &= (uint16_t)~TIM_CCER_CC4E;
  
  /* Get the TIMx CCER register value */
  tmpccer = TIMx->CCER;
 8002260:	b2ad      	uxth	r5, r5
  /* Get the TIMx CR2 register value */
  tmpcr2 =  TIMx->CR2;
 8002262:	b2a4      	uxth	r4, r4
  
  /* Get the TIMx CCMR2 register value */
  tmpccmrx = TIMx->CCMR2;
 8002264:	fa1f fc8c 	uxth.w	ip, ip
  /* Reset the Output Compare mode and Capture/Compare selection Bits */
  tmpccmrx &= (uint16_t)~TIM_CCMR2_OC4M;
  tmpccmrx &= (uint16_t)~TIM_CCMR2_CC4S;
  
  /* Select the Output Compare Mode */
  tmpccmrx |= (uint16_t)(TIM_OCInitStruct->TIM_OCMode << 8);
 8002268:	f8b1 8000 	ldrh.w	r8, [r1]
  
  /* Reset the Output Polarity level */
  tmpccer &= (uint16_t)~TIM_CCER_CC4P;
  /* Set the Output Compare Polarity */
  tmpccer |= (uint16_t)(TIM_OCInitStruct->TIM_OCPolarity << 12);
 800226c:	f8b1 a00c 	ldrh.w	sl, [r1, #12]
  
  /* Set the Output State */
  tmpccer |= (uint16_t)(TIM_OCInitStruct->TIM_OutputState << 12);
 8002270:	884f      	ldrh	r7, [r1, #2]
  
  if((TIMx == TIM1) || (TIMx == TIM8))
 8002272:	b14b      	cbz	r3, 8002288 <TIM_OC4Init+0x64>
  {
    assert_param(IS_TIM_OCIDLE_STATE(TIM_OCInitStruct->TIM_OCIdleState));
    /* Reset the Output Compare IDLE State */
    tmpcr2 &=(uint16_t) ~TIM_CR2_OIS4;
 8002274:	f64b 76ff 	movw	r6, #49151	; 0xbfff
 8002278:	f2c0 0600 	movt	r6, #0
    /* Set the Output Idle state */
    tmpcr2 |= (uint16_t)(TIM_OCInitStruct->TIM_OCIdleState << 6);
 800227c:	8a0b      	ldrh	r3, [r1, #16]
  
  if((TIMx == TIM1) || (TIMx == TIM8))
  {
    assert_param(IS_TIM_OCIDLE_STATE(TIM_OCInitStruct->TIM_OCIdleState));
    /* Reset the Output Compare IDLE State */
    tmpcr2 &=(uint16_t) ~TIM_CR2_OIS4;
 800227e:	ea04 0606 	and.w	r6, r4, r6
    /* Set the Output Idle state */
    tmpcr2 |= (uint16_t)(TIM_OCInitStruct->TIM_OCIdleState << 6);
 8002282:	ea46 1283 	orr.w	r2, r6, r3, lsl #6
 8002286:	b294      	uxth	r4, r2
  
  /* Select the Output Compare Mode */
  tmpccmrx |= (uint16_t)(TIM_OCInitStruct->TIM_OCMode << 8);
  
  /* Reset the Output Polarity level */
  tmpccer &= (uint16_t)~TIM_CCER_CC4P;
 8002288:	f64d 72ff 	movw	r2, #57343	; 0xdfff
 800228c:	f2c0 0200 	movt	r2, #0
  /* Get the TIMx CCMR2 register value */
  tmpccmrx = TIMx->CCMR2;
    
  /* Reset the Output Compare mode and Capture/Compare selection Bits */
  tmpccmrx &= (uint16_t)~TIM_CCMR2_OC4M;
  tmpccmrx &= (uint16_t)~TIM_CCMR2_CC4S;
 8002290:	f648 43ff 	movw	r3, #36095	; 0x8cff
  
  /* Select the Output Compare Mode */
  tmpccmrx |= (uint16_t)(TIM_OCInitStruct->TIM_OCMode << 8);
  
  /* Reset the Output Polarity level */
  tmpccer &= (uint16_t)~TIM_CCER_CC4P;
 8002294:	ea05 0202 	and.w	r2, r5, r2
  /* Get the TIMx CCMR2 register value */
  tmpccmrx = TIMx->CCMR2;
    
  /* Reset the Output Compare mode and Capture/Compare selection Bits */
  tmpccmrx &= (uint16_t)~TIM_CCMR2_OC4M;
  tmpccmrx &= (uint16_t)~TIM_CCMR2_CC4S;
 8002298:	f2c0 0300 	movt	r3, #0
 800229c:	ea0c 0303 	and.w	r3, ip, r3
  tmpccmrx |= (uint16_t)(TIM_OCInitStruct->TIM_OCMode << 8);
  
  /* Reset the Output Polarity level */
  tmpccer &= (uint16_t)~TIM_CCER_CC4P;
  /* Set the Output Compare Polarity */
  tmpccer |= (uint16_t)(TIM_OCInitStruct->TIM_OCPolarity << 12);
 80022a0:	ea42 320a 	orr.w	r2, r2, sl, lsl #12
  /* Reset the Output Compare mode and Capture/Compare selection Bits */
  tmpccmrx &= (uint16_t)~TIM_CCMR2_OC4M;
  tmpccmrx &= (uint16_t)~TIM_CCMR2_CC4S;
  
  /* Select the Output Compare Mode */
  tmpccmrx |= (uint16_t)(TIM_OCInitStruct->TIM_OCMode << 8);
 80022a4:	ea43 2c08 	orr.w	ip, r3, r8, lsl #8
  tmpccer &= (uint16_t)~TIM_CCER_CC4P;
  /* Set the Output Compare Polarity */
  tmpccer |= (uint16_t)(TIM_OCInitStruct->TIM_OCPolarity << 12);
  
  /* Set the Output State */
  tmpccer |= (uint16_t)(TIM_OCInitStruct->TIM_OutputState << 12);
 80022a8:	ea42 3207 	orr.w	r2, r2, r7, lsl #12
  
  /* Write to TIMx CCMR2 */  
  TIMx->CCMR2 = tmpccmrx;
    
  /* Set the Capture Compare Register value */
  TIMx->CCR4 = TIM_OCInitStruct->TIM_Pulse;
 80022ac:	6889      	ldr	r1, [r1, #8]
  /* Reset the Output Compare mode and Capture/Compare selection Bits */
  tmpccmrx &= (uint16_t)~TIM_CCMR2_OC4M;
  tmpccmrx &= (uint16_t)~TIM_CCMR2_CC4S;
  
  /* Select the Output Compare Mode */
  tmpccmrx |= (uint16_t)(TIM_OCInitStruct->TIM_OCMode << 8);
 80022ae:	fa1f f38c 	uxth.w	r3, ip
  tmpccer &= (uint16_t)~TIM_CCER_CC4P;
  /* Set the Output Compare Polarity */
  tmpccer |= (uint16_t)(TIM_OCInitStruct->TIM_OCPolarity << 12);
  
  /* Set the Output State */
  tmpccer |= (uint16_t)(TIM_OCInitStruct->TIM_OutputState << 12);
 80022b2:	fa1f fc82 	uxth.w	ip, r2
    tmpcr2 &=(uint16_t) ~TIM_CR2_OIS4;
    /* Set the Output Idle state */
    tmpcr2 |= (uint16_t)(TIM_OCInitStruct->TIM_OCIdleState << 6);
  }
  /* Write to TIMx CR2 */
  TIMx->CR2 = tmpcr2;
 80022b6:	8084      	strh	r4, [r0, #4]
  
  /* Write to TIMx CCMR2 */  
  TIMx->CCMR2 = tmpccmrx;
 80022b8:	8383      	strh	r3, [r0, #28]
    
  /* Set the Capture Compare Register value */
  TIMx->CCR4 = TIM_OCInitStruct->TIM_Pulse;
 80022ba:	6401      	str	r1, [r0, #64]	; 0x40
  
  /* Write to TIMx CCER */
  TIMx->CCER = tmpccer;
 80022bc:	f8a0 c020 	strh.w	ip, [r0, #32]
}
 80022c0:	e8bd 05f0 	ldmia.w	sp!, {r4, r5, r6, r7, r8, sl}
 80022c4:	4770      	bx	lr
 80022c6:	bf00      	nop

080022c8 <TIM_OCStructInit>:
  * @retval None
  */
void TIM_OCStructInit(TIM_OCInitTypeDef* TIM_OCInitStruct)
{
  /* Set the default configuration */
  TIM_OCInitStruct->TIM_OCMode = TIM_OCMode_Timing;
 80022c8:	2300      	movs	r3, #0
  TIM_OCInitStruct->TIM_OutputNState = TIM_OutputNState_Disable;
  TIM_OCInitStruct->TIM_Pulse = 0x00000000;
  TIM_OCInitStruct->TIM_OCPolarity = TIM_OCPolarity_High;
  TIM_OCInitStruct->TIM_OCNPolarity = TIM_OCPolarity_High;
  TIM_OCInitStruct->TIM_OCIdleState = TIM_OCIdleState_Reset;
  TIM_OCInitStruct->TIM_OCNIdleState = TIM_OCNIdleState_Reset;
 80022ca:	8243      	strh	r3, [r0, #18]
  * @retval None
  */
void TIM_OCStructInit(TIM_OCInitTypeDef* TIM_OCInitStruct)
{
  /* Set the default configuration */
  TIM_OCInitStruct->TIM_OCMode = TIM_OCMode_Timing;
 80022cc:	8003      	strh	r3, [r0, #0]
  TIM_OCInitStruct->TIM_OutputState = TIM_OutputState_Disable;
 80022ce:	8043      	strh	r3, [r0, #2]
  TIM_OCInitStruct->TIM_OutputNState = TIM_OutputNState_Disable;
 80022d0:	8083      	strh	r3, [r0, #4]
  TIM_OCInitStruct->TIM_Pulse = 0x00000000;
 80022d2:	6083      	str	r3, [r0, #8]
  TIM_OCInitStruct->TIM_OCPolarity = TIM_OCPolarity_High;
 80022d4:	8183      	strh	r3, [r0, #12]
  TIM_OCInitStruct->TIM_OCNPolarity = TIM_OCPolarity_High;
 80022d6:	81c3      	strh	r3, [r0, #14]
  TIM_OCInitStruct->TIM_OCIdleState = TIM_OCIdleState_Reset;
 80022d8:	8203      	strh	r3, [r0, #16]
  TIM_OCInitStruct->TIM_OCNIdleState = TIM_OCNIdleState_Reset;
}
 80022da:	4770      	bx	lr

080022dc <TIM_SelectOCxM>:
  *            @arg TIM_ForcedAction_Active
  *            @arg TIM_ForcedAction_InActive
  * @retval None
  */
void TIM_SelectOCxM(TIM_TypeDef* TIMx, uint16_t TIM_Channel, uint16_t TIM_OCMode)
{
 80022dc:	b410      	push	{r4}
  tmp += CCMR_OFFSET;

  tmp1 = CCER_CCE_SET << (uint16_t)TIM_Channel;

  /* Disable the Channel: Reset the CCxE Bit */
  TIMx->CCER &= (uint16_t) ~tmp1;
 80022de:	2401      	movs	r4, #1
 80022e0:	fa14 f301 	lsls.w	r3, r4, r1
 80022e4:	f8b0 c020 	ldrh.w	ip, [r0, #32]

  if((TIM_Channel == TIM_Channel_1) ||(TIM_Channel == TIM_Channel_3))
 80022e8:	f1d1 0401 	rsbs	r4, r1, #1
 80022ec:	bf38      	it	cc
 80022ee:	2400      	movcc	r4, #0
  tmp += CCMR_OFFSET;

  tmp1 = CCER_CCE_SET << (uint16_t)TIM_Channel;

  /* Disable the Channel: Reset the CCxE Bit */
  TIMx->CCER &= (uint16_t) ~tmp1;
 80022f0:	fa1f fc8c 	uxth.w	ip, ip
 80022f4:	ea2c 0303 	bic.w	r3, ip, r3

  if((TIM_Channel == TIM_Channel_1) ||(TIM_Channel == TIM_Channel_3))
 80022f8:	2908      	cmp	r1, #8
 80022fa:	bf08      	it	eq
 80022fc:	f044 0401 	orreq.w	r4, r4, #1
  tmp += CCMR_OFFSET;

  tmp1 = CCER_CCE_SET << (uint16_t)TIM_Channel;

  /* Disable the Channel: Reset the CCxE Bit */
  TIMx->CCER &= (uint16_t) ~tmp1;
 8002300:	8403      	strh	r3, [r0, #32]
  assert_param(IS_TIM_LIST1_PERIPH(TIMx));
  assert_param(IS_TIM_CHANNEL(TIM_Channel));
  assert_param(IS_TIM_OCM(TIM_OCMode));

  tmp = (uint32_t) TIMx;
  tmp += CCMR_OFFSET;
 8002302:	3018      	adds	r0, #24
  tmp1 = CCER_CCE_SET << (uint16_t)TIM_Channel;

  /* Disable the Channel: Reset the CCxE Bit */
  TIMx->CCER &= (uint16_t) ~tmp1;

  if((TIM_Channel == TIM_Channel_1) ||(TIM_Channel == TIM_Channel_3))
 8002304:	b99c      	cbnz	r4, 800232e <TIM_SelectOCxM+0x52>
  else
  {
    tmp += (uint16_t)(TIM_Channel - (uint16_t)4)>> (uint16_t)1;

    /* Reset the OCxM bits in the CCMRx register */
    *(__IO uint32_t *) tmp &= CCMR_OC24M_MASK;
 8002306:	1f0c      	subs	r4, r1, #4
 8002308:	f3c4 014e 	ubfx	r1, r4, #1, #15
 800230c:	580c      	ldr	r4, [r1, r0]
 800230e:	f648 7cff 	movw	ip, #36863	; 0x8fff
 8002312:	f2c0 0c00 	movt	ip, #0
 8002316:	ea04 030c 	and.w	r3, r4, ip
 800231a:	500b      	str	r3, [r1, r0]
    
    /* Configure the OCxM bits in the CCMRx register */
    *(__IO uint32_t *) tmp |= (uint16_t)(TIM_OCMode << 8);
 800231c:	0212      	lsls	r2, r2, #8
 800231e:	580b      	ldr	r3, [r1, r0]
 8002320:	fa1f fc82 	uxth.w	ip, r2
 8002324:	ea43 020c 	orr.w	r2, r3, ip
 8002328:	500a      	str	r2, [r1, r0]
  }
}
 800232a:	bc10      	pop	{r4}
 800232c:	4770      	bx	lr
  if((TIM_Channel == TIM_Channel_1) ||(TIM_Channel == TIM_Channel_3))
  {
    tmp += (TIM_Channel>>1);

    /* Reset the OCxM bits in the CCMRx register */
    *(__IO uint32_t *) tmp &= CCMR_OC13M_MASK;
 800232e:	0849      	lsrs	r1, r1, #1
 8002330:	580c      	ldr	r4, [r1, r0]
 8002332:	f64f 7c8f 	movw	ip, #65423	; 0xff8f
 8002336:	f2c0 0c00 	movt	ip, #0
 800233a:	ea04 030c 	and.w	r3, r4, ip
 800233e:	500b      	str	r3, [r1, r0]
   
    /* Configure the OCxM bits in the CCMRx register */
    *(__IO uint32_t *) tmp |= TIM_OCMode;
 8002340:	580b      	ldr	r3, [r1, r0]
 8002342:	ea43 0202 	orr.w	r2, r3, r2
 8002346:	500a      	str	r2, [r1, r0]
 8002348:	e7ef      	b.n	800232a <TIM_SelectOCxM+0x4e>
 800234a:	bf00      	nop

0800234c <TIM_SetCompare1>:
{
  /* Check the parameters */
  assert_param(IS_TIM_LIST1_PERIPH(TIMx));

  /* Set the Capture Compare1 Register value */
  TIMx->CCR1 = Compare1;
 800234c:	6341      	str	r1, [r0, #52]	; 0x34
}
 800234e:	4770      	bx	lr

08002350 <TIM_SetCompare2>:
{
  /* Check the parameters */
  assert_param(IS_TIM_LIST2_PERIPH(TIMx));

  /* Set the Capture Compare2 Register value */
  TIMx->CCR2 = Compare2;
 8002350:	6381      	str	r1, [r0, #56]	; 0x38
}
 8002352:	4770      	bx	lr

08002354 <TIM_SetCompare3>:
{
  /* Check the parameters */
  assert_param(IS_TIM_LIST3_PERIPH(TIMx));

  /* Set the Capture Compare3 Register value */
  TIMx->CCR3 = Compare3;
 8002354:	63c1      	str	r1, [r0, #60]	; 0x3c
}
 8002356:	4770      	bx	lr

08002358 <TIM_SetCompare4>:
{
  /* Check the parameters */
  assert_param(IS_TIM_LIST3_PERIPH(TIMx));

  /* Set the Capture Compare4 Register value */
  TIMx->CCR4 = Compare4;
 8002358:	6401      	str	r1, [r0, #64]	; 0x40
}
 800235a:	4770      	bx	lr

0800235c <TIM_ForcedOC1Config>:
  uint16_t tmpccmr1 = 0;

  /* Check the parameters */
  assert_param(IS_TIM_LIST1_PERIPH(TIMx));
  assert_param(IS_TIM_FORCED_ACTION(TIM_ForcedAction));
  tmpccmr1 = TIMx->CCMR1;
 800235c:	f8b0 c018 	ldrh.w	ip, [r0, #24]

  /* Reset the OC1M Bits */
  tmpccmr1 &= (uint16_t)~TIM_CCMR1_OC1M;
 8002360:	f02c 0270 	bic.w	r2, ip, #112	; 0x70
 8002364:	0413      	lsls	r3, r2, #16
 8002366:	0c1a      	lsrs	r2, r3, #16

  /* Configure The Forced output Mode */
  tmpccmr1 |= TIM_ForcedAction;
 8002368:	ea41 0302 	orr.w	r3, r1, r2

  /* Write to TIMx CCMR1 register */
  TIMx->CCMR1 = tmpccmr1;
 800236c:	8303      	strh	r3, [r0, #24]
}
 800236e:	4770      	bx	lr

08002370 <TIM_ForcedOC2Config>:
  uint16_t tmpccmr1 = 0;

  /* Check the parameters */
  assert_param(IS_TIM_LIST2_PERIPH(TIMx));
  assert_param(IS_TIM_FORCED_ACTION(TIM_ForcedAction));
  tmpccmr1 = TIMx->CCMR1;
 8002370:	f8b0 c018 	ldrh.w	ip, [r0, #24]

  /* Reset the OC2M Bits */
  tmpccmr1 &= (uint16_t)~TIM_CCMR1_OC2M;
 8002374:	f42c 43e0 	bic.w	r3, ip, #28672	; 0x7000
 8002378:	041a      	lsls	r2, r3, #16
 800237a:	0c13      	lsrs	r3, r2, #16

  /* Configure The Forced output Mode */
  tmpccmr1 |= (uint16_t)(TIM_ForcedAction << 8);
 800237c:	ea43 2201 	orr.w	r2, r3, r1, lsl #8
 8002380:	b293      	uxth	r3, r2

  /* Write to TIMx CCMR1 register */
  TIMx->CCMR1 = tmpccmr1;
 8002382:	8303      	strh	r3, [r0, #24]
}
 8002384:	4770      	bx	lr
 8002386:	bf00      	nop

08002388 <TIM_ForcedOC3Config>:

  /* Check the parameters */
  assert_param(IS_TIM_LIST3_PERIPH(TIMx));
  assert_param(IS_TIM_FORCED_ACTION(TIM_ForcedAction));

  tmpccmr2 = TIMx->CCMR2;
 8002388:	f8b0 c01c 	ldrh.w	ip, [r0, #28]

  /* Reset the OC1M Bits */
  tmpccmr2 &= (uint16_t)~TIM_CCMR2_OC3M;
 800238c:	f02c 0270 	bic.w	r2, ip, #112	; 0x70
 8002390:	0413      	lsls	r3, r2, #16
 8002392:	0c1a      	lsrs	r2, r3, #16

  /* Configure The Forced output Mode */
  tmpccmr2 |= TIM_ForcedAction;
 8002394:	ea41 0302 	orr.w	r3, r1, r2

  /* Write to TIMx CCMR2 register */
  TIMx->CCMR2 = tmpccmr2;
 8002398:	8383      	strh	r3, [r0, #28]
}
 800239a:	4770      	bx	lr

0800239c <TIM_ForcedOC4Config>:
  uint16_t tmpccmr2 = 0;

  /* Check the parameters */
  assert_param(IS_TIM_LIST3_PERIPH(TIMx));
  assert_param(IS_TIM_FORCED_ACTION(TIM_ForcedAction));
  tmpccmr2 = TIMx->CCMR2;
 800239c:	f8b0 c01c 	ldrh.w	ip, [r0, #28]

  /* Reset the OC2M Bits */
  tmpccmr2 &= (uint16_t)~TIM_CCMR2_OC4M;
 80023a0:	f42c 43e0 	bic.w	r3, ip, #28672	; 0x7000
 80023a4:	041a      	lsls	r2, r3, #16
 80023a6:	0c13      	lsrs	r3, r2, #16

  /* Configure The Forced output Mode */
  tmpccmr2 |= (uint16_t)(TIM_ForcedAction << 8);
 80023a8:	ea43 2201 	orr.w	r2, r3, r1, lsl #8
 80023ac:	b293      	uxth	r3, r2

  /* Write to TIMx CCMR2 register */
  TIMx->CCMR2 = tmpccmr2;
 80023ae:	8383      	strh	r3, [r0, #28]
}
 80023b0:	4770      	bx	lr
 80023b2:	bf00      	nop

080023b4 <TIM_OC1PreloadConfig>:

  /* Check the parameters */
  assert_param(IS_TIM_LIST1_PERIPH(TIMx));
  assert_param(IS_TIM_OCPRELOAD_STATE(TIM_OCPreload));

  tmpccmr1 = TIMx->CCMR1;
 80023b4:	f8b0 c018 	ldrh.w	ip, [r0, #24]

  /* Reset the OC1PE Bit */
  tmpccmr1 &= (uint16_t)(~TIM_CCMR1_OC1PE);
 80023b8:	f02c 0208 	bic.w	r2, ip, #8
 80023bc:	0413      	lsls	r3, r2, #16
 80023be:	0c1a      	lsrs	r2, r3, #16

  /* Enable or Disable the Output Compare Preload feature */
  tmpccmr1 |= TIM_OCPreload;
 80023c0:	ea41 0302 	orr.w	r3, r1, r2

  /* Write to TIMx CCMR1 register */
  TIMx->CCMR1 = tmpccmr1;
 80023c4:	8303      	strh	r3, [r0, #24]
}
 80023c6:	4770      	bx	lr

080023c8 <TIM_OC2PreloadConfig>:

  /* Check the parameters */
  assert_param(IS_TIM_LIST2_PERIPH(TIMx));
  assert_param(IS_TIM_OCPRELOAD_STATE(TIM_OCPreload));

  tmpccmr1 = TIMx->CCMR1;
 80023c8:	f8b0 c018 	ldrh.w	ip, [r0, #24]

  /* Reset the OC2PE Bit */
  tmpccmr1 &= (uint16_t)(~TIM_CCMR1_OC2PE);
 80023cc:	f42c 6300 	bic.w	r3, ip, #2048	; 0x800
 80023d0:	041a      	lsls	r2, r3, #16
 80023d2:	0c13      	lsrs	r3, r2, #16

  /* Enable or Disable the Output Compare Preload feature */
  tmpccmr1 |= (uint16_t)(TIM_OCPreload << 8);
 80023d4:	ea43 2201 	orr.w	r2, r3, r1, lsl #8
 80023d8:	b293      	uxth	r3, r2

  /* Write to TIMx CCMR1 register */
  TIMx->CCMR1 = tmpccmr1;
 80023da:	8303      	strh	r3, [r0, #24]
}
 80023dc:	4770      	bx	lr
 80023de:	bf00      	nop

080023e0 <TIM_OC3PreloadConfig>:

  /* Check the parameters */
  assert_param(IS_TIM_LIST3_PERIPH(TIMx));
  assert_param(IS_TIM_OCPRELOAD_STATE(TIM_OCPreload));

  tmpccmr2 = TIMx->CCMR2;
 80023e0:	f8b0 c01c 	ldrh.w	ip, [r0, #28]

  /* Reset the OC3PE Bit */
  tmpccmr2 &= (uint16_t)(~TIM_CCMR2_OC3PE);
 80023e4:	f02c 0208 	bic.w	r2, ip, #8
 80023e8:	0413      	lsls	r3, r2, #16
 80023ea:	0c1a      	lsrs	r2, r3, #16

  /* Enable or Disable the Output Compare Preload feature */
  tmpccmr2 |= TIM_OCPreload;
 80023ec:	ea41 0302 	orr.w	r3, r1, r2

  /* Write to TIMx CCMR2 register */
  TIMx->CCMR2 = tmpccmr2;
 80023f0:	8383      	strh	r3, [r0, #28]
}
 80023f2:	4770      	bx	lr

080023f4 <TIM_OC4PreloadConfig>:

  /* Check the parameters */
  assert_param(IS_TIM_LIST3_PERIPH(TIMx));
  assert_param(IS_TIM_OCPRELOAD_STATE(TIM_OCPreload));

  tmpccmr2 = TIMx->CCMR2;
 80023f4:	f8b0 c01c 	ldrh.w	ip, [r0, #28]

  /* Reset the OC4PE Bit */
  tmpccmr2 &= (uint16_t)(~TIM_CCMR2_OC4PE);
 80023f8:	f42c 6300 	bic.w	r3, ip, #2048	; 0x800
 80023fc:	041a      	lsls	r2, r3, #16
 80023fe:	0c13      	lsrs	r3, r2, #16

  /* Enable or Disable the Output Compare Preload feature */
  tmpccmr2 |= (uint16_t)(TIM_OCPreload << 8);
 8002400:	ea43 2201 	orr.w	r2, r3, r1, lsl #8
 8002404:	b293      	uxth	r3, r2

  /* Write to TIMx CCMR2 register */
  TIMx->CCMR2 = tmpccmr2;
 8002406:	8383      	strh	r3, [r0, #28]
}
 8002408:	4770      	bx	lr
 800240a:	bf00      	nop

0800240c <TIM_OC1FastConfig>:
  /* Check the parameters */
  assert_param(IS_TIM_LIST1_PERIPH(TIMx));
  assert_param(IS_TIM_OCFAST_STATE(TIM_OCFast));

  /* Get the TIMx CCMR1 register value */
  tmpccmr1 = TIMx->CCMR1;
 800240c:	f8b0 c018 	ldrh.w	ip, [r0, #24]

  /* Reset the OC1FE Bit */
  tmpccmr1 &= (uint16_t)~TIM_CCMR1_OC1FE;
 8002410:	f02c 0204 	bic.w	r2, ip, #4
 8002414:	0413      	lsls	r3, r2, #16
 8002416:	0c1a      	lsrs	r2, r3, #16

  /* Enable or Disable the Output Compare Fast Bit */
  tmpccmr1 |= TIM_OCFast;
 8002418:	ea41 0302 	orr.w	r3, r1, r2

  /* Write to TIMx CCMR1 */
  TIMx->CCMR1 = tmpccmr1;
 800241c:	8303      	strh	r3, [r0, #24]
}
 800241e:	4770      	bx	lr

08002420 <TIM_OC2FastConfig>:
  /* Check the parameters */
  assert_param(IS_TIM_LIST2_PERIPH(TIMx));
  assert_param(IS_TIM_OCFAST_STATE(TIM_OCFast));

  /* Get the TIMx CCMR1 register value */
  tmpccmr1 = TIMx->CCMR1;
 8002420:	f8b0 c018 	ldrh.w	ip, [r0, #24]

  /* Reset the OC2FE Bit */
  tmpccmr1 &= (uint16_t)(~TIM_CCMR1_OC2FE);
 8002424:	f42c 6380 	bic.w	r3, ip, #1024	; 0x400
 8002428:	041a      	lsls	r2, r3, #16
 800242a:	0c13      	lsrs	r3, r2, #16

  /* Enable or Disable the Output Compare Fast Bit */
  tmpccmr1 |= (uint16_t)(TIM_OCFast << 8);
 800242c:	ea43 2201 	orr.w	r2, r3, r1, lsl #8
 8002430:	b293      	uxth	r3, r2

  /* Write to TIMx CCMR1 */
  TIMx->CCMR1 = tmpccmr1;
 8002432:	8303      	strh	r3, [r0, #24]
}
 8002434:	4770      	bx	lr
 8002436:	bf00      	nop

08002438 <TIM_OC3FastConfig>:
  /* Check the parameters */
  assert_param(IS_TIM_LIST3_PERIPH(TIMx));
  assert_param(IS_TIM_OCFAST_STATE(TIM_OCFast));

  /* Get the TIMx CCMR2 register value */
  tmpccmr2 = TIMx->CCMR2;
 8002438:	f8b0 c01c 	ldrh.w	ip, [r0, #28]

  /* Reset the OC3FE Bit */
  tmpccmr2 &= (uint16_t)~TIM_CCMR2_OC3FE;
 800243c:	f02c 0204 	bic.w	r2, ip, #4
 8002440:	0413      	lsls	r3, r2, #16
 8002442:	0c1a      	lsrs	r2, r3, #16

  /* Enable or Disable the Output Compare Fast Bit */
  tmpccmr2 |= TIM_OCFast;
 8002444:	ea41 0302 	orr.w	r3, r1, r2

  /* Write to TIMx CCMR2 */
  TIMx->CCMR2 = tmpccmr2;
 8002448:	8383      	strh	r3, [r0, #28]
}
 800244a:	4770      	bx	lr

0800244c <TIM_OC4FastConfig>:
  /* Check the parameters */
  assert_param(IS_TIM_LIST3_PERIPH(TIMx));
  assert_param(IS_TIM_OCFAST_STATE(TIM_OCFast));

  /* Get the TIMx CCMR2 register value */
  tmpccmr2 = TIMx->CCMR2;
 800244c:	f8b0 c01c 	ldrh.w	ip, [r0, #28]

  /* Reset the OC4FE Bit */
  tmpccmr2 &= (uint16_t)(~TIM_CCMR2_OC4FE);
 8002450:	f42c 6380 	bic.w	r3, ip, #1024	; 0x400
 8002454:	041a      	lsls	r2, r3, #16
 8002456:	0c13      	lsrs	r3, r2, #16

  /* Enable or Disable the Output Compare Fast Bit */
  tmpccmr2 |= (uint16_t)(TIM_OCFast << 8);
 8002458:	ea43 2201 	orr.w	r2, r3, r1, lsl #8
 800245c:	b293      	uxth	r3, r2

  /* Write to TIMx CCMR2 */
  TIMx->CCMR2 = tmpccmr2;
 800245e:	8383      	strh	r3, [r0, #28]
}
 8002460:	4770      	bx	lr
 8002462:	bf00      	nop

08002464 <TIM_ClearOC1Ref>:

  /* Check the parameters */
  assert_param(IS_TIM_LIST1_PERIPH(TIMx));
  assert_param(IS_TIM_OCCLEAR_STATE(TIM_OCClear));

  tmpccmr1 = TIMx->CCMR1;
 8002464:	f8b0 c018 	ldrh.w	ip, [r0, #24]

  /* Reset the OC1CE Bit */
  tmpccmr1 &= (uint16_t)~TIM_CCMR1_OC1CE;
 8002468:	f02c 0280 	bic.w	r2, ip, #128	; 0x80
 800246c:	0413      	lsls	r3, r2, #16
 800246e:	0c1a      	lsrs	r2, r3, #16

  /* Enable or Disable the Output Compare Clear Bit */
  tmpccmr1 |= TIM_OCClear;
 8002470:	ea41 0302 	orr.w	r3, r1, r2

  /* Write to TIMx CCMR1 register */
  TIMx->CCMR1 = tmpccmr1;
 8002474:	8303      	strh	r3, [r0, #24]
}
 8002476:	4770      	bx	lr

08002478 <TIM_ClearOC2Ref>:

  /* Check the parameters */
  assert_param(IS_TIM_LIST2_PERIPH(TIMx));
  assert_param(IS_TIM_OCCLEAR_STATE(TIM_OCClear));

  tmpccmr1 = TIMx->CCMR1;
 8002478:	8b03      	ldrh	r3, [r0, #24]

  /* Reset the OC2CE Bit */
  tmpccmr1 &= (uint16_t)~TIM_CCMR1_OC2CE;
 800247a:	045a      	lsls	r2, r3, #17
 800247c:	0c53      	lsrs	r3, r2, #17

  /* Enable or Disable the Output Compare Clear Bit */
  tmpccmr1 |= (uint16_t)(TIM_OCClear << 8);
 800247e:	ea43 2201 	orr.w	r2, r3, r1, lsl #8
 8002482:	b293      	uxth	r3, r2

  /* Write to TIMx CCMR1 register */
  TIMx->CCMR1 = tmpccmr1;
 8002484:	8303      	strh	r3, [r0, #24]
}
 8002486:	4770      	bx	lr

08002488 <TIM_ClearOC3Ref>:

  /* Check the parameters */
  assert_param(IS_TIM_LIST3_PERIPH(TIMx));
  assert_param(IS_TIM_OCCLEAR_STATE(TIM_OCClear));

  tmpccmr2 = TIMx->CCMR2;
 8002488:	f8b0 c01c 	ldrh.w	ip, [r0, #28]

  /* Reset the OC3CE Bit */
  tmpccmr2 &= (uint16_t)~TIM_CCMR2_OC3CE;
 800248c:	f02c 0280 	bic.w	r2, ip, #128	; 0x80
 8002490:	0413      	lsls	r3, r2, #16
 8002492:	0c1a      	lsrs	r2, r3, #16

  /* Enable or Disable the Output Compare Clear Bit */
  tmpccmr2 |= TIM_OCClear;
 8002494:	ea41 0302 	orr.w	r3, r1, r2

  /* Write to TIMx CCMR2 register */
  TIMx->CCMR2 = tmpccmr2;
 8002498:	8383      	strh	r3, [r0, #28]
}
 800249a:	4770      	bx	lr

0800249c <TIM_ClearOC4Ref>:

  /* Check the parameters */
  assert_param(IS_TIM_LIST3_PERIPH(TIMx));
  assert_param(IS_TIM_OCCLEAR_STATE(TIM_OCClear));

  tmpccmr2 = TIMx->CCMR2;
 800249c:	8b83      	ldrh	r3, [r0, #28]

  /* Reset the OC4CE Bit */
  tmpccmr2 &= (uint16_t)~TIM_CCMR2_OC4CE;
 800249e:	045a      	lsls	r2, r3, #17
 80024a0:	0c53      	lsrs	r3, r2, #17

  /* Enable or Disable the Output Compare Clear Bit */
  tmpccmr2 |= (uint16_t)(TIM_OCClear << 8);
 80024a2:	ea43 2201 	orr.w	r2, r3, r1, lsl #8
 80024a6:	b293      	uxth	r3, r2

  /* Write to TIMx CCMR2 register */
  TIMx->CCMR2 = tmpccmr2;
 80024a8:	8383      	strh	r3, [r0, #28]
}
 80024aa:	4770      	bx	lr

080024ac <TIM_OC1PolarityConfig>:

  /* Check the parameters */
  assert_param(IS_TIM_LIST1_PERIPH(TIMx));
  assert_param(IS_TIM_OC_POLARITY(TIM_OCPolarity));

  tmpccer = TIMx->CCER;
 80024ac:	f8b0 c020 	ldrh.w	ip, [r0, #32]

  /* Set or Reset the CC1P Bit */
  tmpccer &= (uint16_t)(~TIM_CCER_CC1P);
 80024b0:	f02c 0202 	bic.w	r2, ip, #2
 80024b4:	0413      	lsls	r3, r2, #16
 80024b6:	0c1a      	lsrs	r2, r3, #16
  tmpccer |= TIM_OCPolarity;
 80024b8:	ea41 0302 	orr.w	r3, r1, r2

  /* Write to TIMx CCER register */
  TIMx->CCER = tmpccer;
 80024bc:	8403      	strh	r3, [r0, #32]
}
 80024be:	4770      	bx	lr

080024c0 <TIM_OC1NPolarityConfig>:
  uint16_t tmpccer = 0;
  /* Check the parameters */
  assert_param(IS_TIM_LIST4_PERIPH(TIMx));
  assert_param(IS_TIM_OCN_POLARITY(TIM_OCNPolarity));
   
  tmpccer = TIMx->CCER;
 80024c0:	f8b0 c020 	ldrh.w	ip, [r0, #32]

  /* Set or Reset the CC1NP Bit */
  tmpccer &= (uint16_t)~TIM_CCER_CC1NP;
 80024c4:	f02c 0208 	bic.w	r2, ip, #8
 80024c8:	0413      	lsls	r3, r2, #16
 80024ca:	0c1a      	lsrs	r2, r3, #16
  tmpccer |= TIM_OCNPolarity;
 80024cc:	ea41 0302 	orr.w	r3, r1, r2

  /* Write to TIMx CCER register */
  TIMx->CCER = tmpccer;
 80024d0:	8403      	strh	r3, [r0, #32]
}
 80024d2:	4770      	bx	lr

080024d4 <TIM_OC2PolarityConfig>:

  /* Check the parameters */
  assert_param(IS_TIM_LIST2_PERIPH(TIMx));
  assert_param(IS_TIM_OC_POLARITY(TIM_OCPolarity));

  tmpccer = TIMx->CCER;
 80024d4:	f8b0 c020 	ldrh.w	ip, [r0, #32]

  /* Set or Reset the CC2P Bit */
  tmpccer &= (uint16_t)(~TIM_CCER_CC2P);
 80024d8:	f02c 0320 	bic.w	r3, ip, #32
 80024dc:	041a      	lsls	r2, r3, #16
 80024de:	0c13      	lsrs	r3, r2, #16
  tmpccer |= (uint16_t)(TIM_OCPolarity << 4);
 80024e0:	ea43 1201 	orr.w	r2, r3, r1, lsl #4
 80024e4:	b293      	uxth	r3, r2

  /* Write to TIMx CCER register */
  TIMx->CCER = tmpccer;
 80024e6:	8403      	strh	r3, [r0, #32]
}
 80024e8:	4770      	bx	lr
 80024ea:	bf00      	nop

080024ec <TIM_OC2NPolarityConfig>:

  /* Check the parameters */
  assert_param(IS_TIM_LIST4_PERIPH(TIMx));
  assert_param(IS_TIM_OCN_POLARITY(TIM_OCNPolarity));
  
  tmpccer = TIMx->CCER;
 80024ec:	f8b0 c020 	ldrh.w	ip, [r0, #32]

  /* Set or Reset the CC2NP Bit */
  tmpccer &= (uint16_t)~TIM_CCER_CC2NP;
 80024f0:	f02c 0380 	bic.w	r3, ip, #128	; 0x80
 80024f4:	041a      	lsls	r2, r3, #16
 80024f6:	0c13      	lsrs	r3, r2, #16
  tmpccer |= (uint16_t)(TIM_OCNPolarity << 4);
 80024f8:	ea43 1201 	orr.w	r2, r3, r1, lsl #4
 80024fc:	b293      	uxth	r3, r2

  /* Write to TIMx CCER register */
  TIMx->CCER = tmpccer;
 80024fe:	8403      	strh	r3, [r0, #32]
}
 8002500:	4770      	bx	lr
 8002502:	bf00      	nop

08002504 <TIM_OC3PolarityConfig>:

  /* Check the parameters */
  assert_param(IS_TIM_LIST3_PERIPH(TIMx));
  assert_param(IS_TIM_OC_POLARITY(TIM_OCPolarity));

  tmpccer = TIMx->CCER;
 8002504:	f8b0 c020 	ldrh.w	ip, [r0, #32]

  /* Set or Reset the CC3P Bit */
  tmpccer &= (uint16_t)~TIM_CCER_CC3P;
 8002508:	f42c 7300 	bic.w	r3, ip, #512	; 0x200
 800250c:	041a      	lsls	r2, r3, #16
 800250e:	0c13      	lsrs	r3, r2, #16
  tmpccer |= (uint16_t)(TIM_OCPolarity << 8);
 8002510:	ea43 2201 	orr.w	r2, r3, r1, lsl #8
 8002514:	b293      	uxth	r3, r2

  /* Write to TIMx CCER register */
  TIMx->CCER = tmpccer;
 8002516:	8403      	strh	r3, [r0, #32]
}
 8002518:	4770      	bx	lr
 800251a:	bf00      	nop

0800251c <TIM_OC3NPolarityConfig>:
 
  /* Check the parameters */
  assert_param(IS_TIM_LIST4_PERIPH(TIMx));
  assert_param(IS_TIM_OCN_POLARITY(TIM_OCNPolarity));
    
  tmpccer = TIMx->CCER;
 800251c:	f8b0 c020 	ldrh.w	ip, [r0, #32]

  /* Set or Reset the CC3NP Bit */
  tmpccer &= (uint16_t)~TIM_CCER_CC3NP;
 8002520:	f42c 6300 	bic.w	r3, ip, #2048	; 0x800
 8002524:	041a      	lsls	r2, r3, #16
 8002526:	0c13      	lsrs	r3, r2, #16
  tmpccer |= (uint16_t)(TIM_OCNPolarity << 8);
 8002528:	ea43 2201 	orr.w	r2, r3, r1, lsl #8
 800252c:	b293      	uxth	r3, r2

  /* Write to TIMx CCER register */
  TIMx->CCER = tmpccer;
 800252e:	8403      	strh	r3, [r0, #32]
}
 8002530:	4770      	bx	lr
 8002532:	bf00      	nop

08002534 <TIM_OC4PolarityConfig>:

  /* Check the parameters */
  assert_param(IS_TIM_LIST3_PERIPH(TIMx));
  assert_param(IS_TIM_OC_POLARITY(TIM_OCPolarity));

  tmpccer = TIMx->CCER;
 8002534:	f8b0 c020 	ldrh.w	ip, [r0, #32]

  /* Set or Reset the CC4P Bit */
  tmpccer &= (uint16_t)~TIM_CCER_CC4P;
 8002538:	f42c 5300 	bic.w	r3, ip, #8192	; 0x2000
 800253c:	041a      	lsls	r2, r3, #16
 800253e:	0c13      	lsrs	r3, r2, #16
  tmpccer |= (uint16_t)(TIM_OCPolarity << 12);
 8002540:	ea43 3201 	orr.w	r2, r3, r1, lsl #12
 8002544:	b293      	uxth	r3, r2

  /* Write to TIMx CCER register */
  TIMx->CCER = tmpccer;
 8002546:	8403      	strh	r3, [r0, #32]
}
 8002548:	4770      	bx	lr
 800254a:	bf00      	nop

0800254c <TIM_CCxCmd>:
  assert_param(IS_TIM_CCX(TIM_CCx));

  tmp = CCER_CCE_SET << TIM_Channel;

  /* Reset the CCxE Bit */
  TIMx->CCER &= (uint16_t)~ tmp;
 800254c:	2301      	movs	r3, #1
 800254e:	408b      	lsls	r3, r1

  /* Set or reset the CCxE Bit */ 
  TIMx->CCER |=  (uint16_t)(TIM_CCx << TIM_Channel);
 8002550:	408a      	lsls	r2, r1
  assert_param(IS_TIM_CCX(TIM_CCx));

  tmp = CCER_CCE_SET << TIM_Channel;

  /* Reset the CCxE Bit */
  TIMx->CCER &= (uint16_t)~ tmp;
 8002552:	8c01      	ldrh	r1, [r0, #32]
 8002554:	fa1f fc81 	uxth.w	ip, r1
 8002558:	ea2c 0303 	bic.w	r3, ip, r3
 800255c:	8403      	strh	r3, [r0, #32]

  /* Set or reset the CCxE Bit */ 
  TIMx->CCER |=  (uint16_t)(TIM_CCx << TIM_Channel);
 800255e:	8c01      	ldrh	r1, [r0, #32]
 8002560:	430a      	orrs	r2, r1
 8002562:	b292      	uxth	r2, r2
 8002564:	8402      	strh	r2, [r0, #32]
}
 8002566:	4770      	bx	lr

08002568 <TIM_CCxNCmd>:
  assert_param(IS_TIM_CCXN(TIM_CCxN));

  tmp = CCER_CCNE_SET << TIM_Channel;

  /* Reset the CCxNE Bit */
  TIMx->CCER &= (uint16_t) ~tmp;
 8002568:	2304      	movs	r3, #4
 800256a:	408b      	lsls	r3, r1

  /* Set or reset the CCxNE Bit */ 
  TIMx->CCER |=  (uint16_t)(TIM_CCxN << TIM_Channel);
 800256c:	408a      	lsls	r2, r1
  assert_param(IS_TIM_CCXN(TIM_CCxN));

  tmp = CCER_CCNE_SET << TIM_Channel;

  /* Reset the CCxNE Bit */
  TIMx->CCER &= (uint16_t) ~tmp;
 800256e:	8c01      	ldrh	r1, [r0, #32]
 8002570:	fa1f fc81 	uxth.w	ip, r1
 8002574:	ea2c 0303 	bic.w	r3, ip, r3
 8002578:	8403      	strh	r3, [r0, #32]

  /* Set or reset the CCxNE Bit */ 
  TIMx->CCER |=  (uint16_t)(TIM_CCxN << TIM_Channel);
 800257a:	8c01      	ldrh	r1, [r0, #32]
 800257c:	430a      	orrs	r2, r1
 800257e:	b292      	uxth	r2, r2
 8002580:	8402      	strh	r2, [r0, #32]
}
 8002582:	4770      	bx	lr

08002584 <TIM_ICInit>:
  assert_param(IS_TIM_IC_POLARITY(TIM_ICInitStruct->TIM_ICPolarity));
  assert_param(IS_TIM_IC_SELECTION(TIM_ICInitStruct->TIM_ICSelection));
  assert_param(IS_TIM_IC_PRESCALER(TIM_ICInitStruct->TIM_ICPrescaler));
  assert_param(IS_TIM_IC_FILTER(TIM_ICInitStruct->TIM_ICFilter));
  
  if (TIM_ICInitStruct->TIM_Channel == TIM_Channel_1)
 8002584:	880b      	ldrh	r3, [r1, #0]
  * @param  TIM_ICInitStruct: pointer to a TIM_ICInitTypeDef structure that contains
  *         the configuration information for the specified TIM peripheral.
  * @retval None
  */
void TIM_ICInit(TIM_TypeDef* TIMx, TIM_ICInitTypeDef* TIM_ICInitStruct)
{
 8002586:	b470      	push	{r4, r5, r6}
  assert_param(IS_TIM_IC_POLARITY(TIM_ICInitStruct->TIM_ICPolarity));
  assert_param(IS_TIM_IC_SELECTION(TIM_ICInitStruct->TIM_ICSelection));
  assert_param(IS_TIM_IC_PRESCALER(TIM_ICInitStruct->TIM_ICPrescaler));
  assert_param(IS_TIM_IC_FILTER(TIM_ICInitStruct->TIM_ICFilter));
  
  if (TIM_ICInitStruct->TIM_Channel == TIM_Channel_1)
 8002588:	2b00      	cmp	r3, #0
 800258a:	d037      	beq.n	80025fc <TIM_ICInit+0x78>
               TIM_ICInitStruct->TIM_ICSelection,
               TIM_ICInitStruct->TIM_ICFilter);
    /* Set the Input Capture Prescaler value */
    TIM_SetIC1Prescaler(TIMx, TIM_ICInitStruct->TIM_ICPrescaler);
  }
  else if (TIM_ICInitStruct->TIM_Channel == TIM_Channel_2)
 800258c:	2b04      	cmp	r3, #4
 800258e:	d062      	beq.n	8002656 <TIM_ICInit+0xd2>
               TIM_ICInitStruct->TIM_ICSelection,
               TIM_ICInitStruct->TIM_ICFilter);
    /* Set the Input Capture Prescaler value */
    TIM_SetIC2Prescaler(TIMx, TIM_ICInitStruct->TIM_ICPrescaler);
  }
  else if (TIM_ICInitStruct->TIM_Channel == TIM_Channel_3)
 8002590:	2b08      	cmp	r3, #8
                       uint16_t TIM_ICFilter)
{
  uint16_t tmpccmr2 = 0, tmpccer = 0, tmp = 0;

  /* Disable the Channel 3: Reset the CC3E Bit */
  TIMx->CCER &= (uint16_t)~TIM_CCER_CC3E;
 8002592:	f8b0 c020 	ldrh.w	ip, [r0, #32]
  }
  else if (TIM_ICInitStruct->TIM_Channel == TIM_Channel_3)
  {
    /* TI3 Configuration */
    assert_param(IS_TIM_LIST3_PERIPH(TIMx));
    TI3_Config(TIMx,  TIM_ICInitStruct->TIM_ICPolarity,
 8002596:	884d      	ldrh	r5, [r1, #2]
               TIM_ICInitStruct->TIM_ICSelection,
               TIM_ICInitStruct->TIM_ICFilter);
    /* Set the Input Capture Prescaler value */
    TIM_SetIC2Prescaler(TIMx, TIM_ICInitStruct->TIM_ICPrescaler);
  }
  else if (TIM_ICInitStruct->TIM_Channel == TIM_Channel_3)
 8002598:	f000 8092 	beq.w	80026c0 <TIM_ICInit+0x13c>
                       uint16_t TIM_ICFilter)
{
  uint16_t tmpccmr2 = 0, tmpccer = 0, tmp = 0;

  /* Disable the Channel 4: Reset the CC4E Bit */
  TIMx->CCER &= (uint16_t)~TIM_CCER_CC4E;
 800259c:	f42c 5680 	bic.w	r6, ip, #4096	; 0x1000
 80025a0:	0434      	lsls	r4, r6, #16
 80025a2:	0c22      	lsrs	r2, r4, #16
  }
  else
  {
    /* TI4 Configuration */
    assert_param(IS_TIM_LIST3_PERIPH(TIMx));
    TI4_Config(TIMx, TIM_ICInitStruct->TIM_ICPolarity,
 80025a4:	888e      	ldrh	r6, [r1, #4]
 80025a6:	890c      	ldrh	r4, [r1, #8]
                       uint16_t TIM_ICFilter)
{
  uint16_t tmpccmr2 = 0, tmpccer = 0, tmp = 0;

  /* Disable the Channel 4: Reset the CC4E Bit */
  TIMx->CCER &= (uint16_t)~TIM_CCER_CC4E;
 80025a8:	8402      	strh	r2, [r0, #32]
  tmpccmr2 = TIMx->CCMR2;
 80025aa:	8b83      	ldrh	r3, [r0, #28]
  tmpccer = TIMx->CCER;
 80025ac:	f8b0 c020 	ldrh.w	ip, [r0, #32]
  tmp = (uint16_t)(TIM_ICPolarity << 12);

  /* Select the Input and set the filter */
  tmpccmr2 &= ((uint16_t)~TIM_CCMR1_CC2S) & ((uint16_t)~TIM_CCMR1_IC2F);
 80025b0:	f423 7240 	bic.w	r2, r3, #768	; 0x300
  tmpccmr2 |= (uint16_t)(TIM_ICSelection << 8);
  tmpccmr2 |= (uint16_t)(TIM_ICFilter << 12);

  /* Select the Polarity and set the CC4E Bit */
  tmpccer &= (uint16_t)~(TIM_CCER_CC4P | TIM_CCER_CC4NP);
  tmpccer |= (uint16_t)(tmp | (uint16_t)TIM_CCER_CC4E);
 80025b4:	f42c 5300 	bic.w	r3, ip, #8192	; 0x2000
  tmpccmr2 = TIMx->CCMR2;
  tmpccer = TIMx->CCER;
  tmp = (uint16_t)(TIM_ICPolarity << 12);

  /* Select the Input and set the filter */
  tmpccmr2 &= ((uint16_t)~TIM_CCMR1_CC2S) & ((uint16_t)~TIM_CCMR1_IC2F);
 80025b8:	0512      	lsls	r2, r2, #20
  tmpccmr2 |= (uint16_t)(TIM_ICSelection << 8);
  tmpccmr2 |= (uint16_t)(TIM_ICFilter << 12);

  /* Select the Polarity and set the CC4E Bit */
  tmpccer &= (uint16_t)~(TIM_CCER_CC4P | TIM_CCER_CC4NP);
  tmpccer |= (uint16_t)(tmp | (uint16_t)TIM_CCER_CC4E);
 80025ba:	045b      	lsls	r3, r3, #17
  tmpccmr2 = TIMx->CCMR2;
  tmpccer = TIMx->CCER;
  tmp = (uint16_t)(TIM_ICPolarity << 12);

  /* Select the Input and set the filter */
  tmpccmr2 &= ((uint16_t)~TIM_CCMR1_CC2S) & ((uint16_t)~TIM_CCMR1_IC2F);
 80025bc:	0d12      	lsrs	r2, r2, #20
  tmpccmr2 |= (uint16_t)(TIM_ICSelection << 8);
  tmpccmr2 |= (uint16_t)(TIM_ICFilter << 12);

  /* Select the Polarity and set the CC4E Bit */
  tmpccer &= (uint16_t)~(TIM_CCER_CC4P | TIM_CCER_CC4NP);
  tmpccer |= (uint16_t)(tmp | (uint16_t)TIM_CCER_CC4E);
 80025be:	0c5b      	lsrs	r3, r3, #17
  tmpccer = TIMx->CCER;
  tmp = (uint16_t)(TIM_ICPolarity << 12);

  /* Select the Input and set the filter */
  tmpccmr2 &= ((uint16_t)~TIM_CCMR1_CC2S) & ((uint16_t)~TIM_CCMR1_IC2F);
  tmpccmr2 |= (uint16_t)(TIM_ICSelection << 8);
 80025c0:	ea42 2c06 	orr.w	ip, r2, r6, lsl #8
  tmpccmr2 |= (uint16_t)(TIM_ICFilter << 12);

  /* Select the Polarity and set the CC4E Bit */
  tmpccer &= (uint16_t)~(TIM_CCER_CC4P | TIM_CCER_CC4NP);
  tmpccer |= (uint16_t)(tmp | (uint16_t)TIM_CCER_CC4E);
 80025c4:	ea43 3305 	orr.w	r3, r3, r5, lsl #12
  tmp = (uint16_t)(TIM_ICPolarity << 12);

  /* Select the Input and set the filter */
  tmpccmr2 &= ((uint16_t)~TIM_CCMR1_CC2S) & ((uint16_t)~TIM_CCMR1_IC2F);
  tmpccmr2 |= (uint16_t)(TIM_ICSelection << 8);
  tmpccmr2 |= (uint16_t)(TIM_ICFilter << 12);
 80025c8:	ea4c 3204 	orr.w	r2, ip, r4, lsl #12

  /* Select the Polarity and set the CC4E Bit */
  tmpccer &= (uint16_t)~(TIM_CCER_CC4P | TIM_CCER_CC4NP);
  tmpccer |= (uint16_t)(tmp | (uint16_t)TIM_CCER_CC4E);
 80025cc:	fa1f fc83 	uxth.w	ip, r3
 80025d0:	f44c 5380 	orr.w	r3, ip, #4096	; 0x1000
  tmp = (uint16_t)(TIM_ICPolarity << 12);

  /* Select the Input and set the filter */
  tmpccmr2 &= ((uint16_t)~TIM_CCMR1_CC2S) & ((uint16_t)~TIM_CCMR1_IC2F);
  tmpccmr2 |= (uint16_t)(TIM_ICSelection << 8);
  tmpccmr2 |= (uint16_t)(TIM_ICFilter << 12);
 80025d4:	b292      	uxth	r2, r2
  /* Select the Polarity and set the CC4E Bit */
  tmpccer &= (uint16_t)~(TIM_CCER_CC4P | TIM_CCER_CC4NP);
  tmpccer |= (uint16_t)(tmp | (uint16_t)TIM_CCER_CC4E);

  /* Write to TIMx CCMR2 and CCER registers */
  TIMx->CCMR2 = tmpccmr2;
 80025d6:	8382      	strh	r2, [r0, #28]
  TIMx->CCER = tmpccer ;
 80025d8:	8403      	strh	r3, [r0, #32]
  /* Check the parameters */
  assert_param(IS_TIM_LIST3_PERIPH(TIMx));
  assert_param(IS_TIM_IC_PRESCALER(TIM_ICPSC));

  /* Reset the IC4PSC Bits */
  TIMx->CCMR2 &= (uint16_t)~TIM_CCMR2_IC4PSC;
 80025da:	f8b0 c01c 	ldrh.w	ip, [r0, #28]
    assert_param(IS_TIM_LIST3_PERIPH(TIMx));
    TI4_Config(TIMx, TIM_ICInitStruct->TIM_ICPolarity,
               TIM_ICInitStruct->TIM_ICSelection,
               TIM_ICInitStruct->TIM_ICFilter);
    /* Set the Input Capture Prescaler value */
    TIM_SetIC4Prescaler(TIMx, TIM_ICInitStruct->TIM_ICPrescaler);
 80025de:	88ca      	ldrh	r2, [r1, #6]
  /* Check the parameters */
  assert_param(IS_TIM_LIST3_PERIPH(TIMx));
  assert_param(IS_TIM_IC_PRESCALER(TIM_ICPSC));

  /* Reset the IC4PSC Bits */
  TIMx->CCMR2 &= (uint16_t)~TIM_CCMR2_IC4PSC;
 80025e0:	f42c 6340 	bic.w	r3, ip, #3072	; 0xc00
 80025e4:	0419      	lsls	r1, r3, #16
 80025e6:	0c0b      	lsrs	r3, r1, #16
 80025e8:	8383      	strh	r3, [r0, #28]

  /* Set the IC4PSC value */
  TIMx->CCMR2 |= (uint16_t)(TIM_ICPSC << 8);
 80025ea:	8b81      	ldrh	r1, [r0, #28]
 80025ec:	b28b      	uxth	r3, r1
 80025ee:	ea43 2c02 	orr.w	ip, r3, r2, lsl #8
 80025f2:	fa1f f18c 	uxth.w	r1, ip
 80025f6:	8381      	strh	r1, [r0, #28]
               TIM_ICInitStruct->TIM_ICSelection,
               TIM_ICInitStruct->TIM_ICFilter);
    /* Set the Input Capture Prescaler value */
    TIM_SetIC4Prescaler(TIMx, TIM_ICInitStruct->TIM_ICPrescaler);
  }
}
 80025f8:	bc70      	pop	{r4, r5, r6}
 80025fa:	4770      	bx	lr
                       uint16_t TIM_ICFilter)
{
  uint16_t tmpccmr1 = 0, tmpccer = 0;

  /* Disable the Channel 1: Reset the CC1E Bit */
  TIMx->CCER &= (uint16_t)~TIM_CCER_CC1E;
 80025fc:	8c02      	ldrh	r2, [r0, #32]
  assert_param(IS_TIM_IC_FILTER(TIM_ICInitStruct->TIM_ICFilter));
  
  if (TIM_ICInitStruct->TIM_Channel == TIM_Channel_1)
  {
    /* TI1 Configuration */
    TI1_Config(TIMx, TIM_ICInitStruct->TIM_ICPolarity,
 80025fe:	884d      	ldrh	r5, [r1, #2]
                       uint16_t TIM_ICFilter)
{
  uint16_t tmpccmr1 = 0, tmpccer = 0;

  /* Disable the Channel 1: Reset the CC1E Bit */
  TIMx->CCER &= (uint16_t)~TIM_CCER_CC1E;
 8002600:	f022 0601 	bic.w	r6, r2, #1
 8002604:	0434      	lsls	r4, r6, #16
 8002606:	ea4f 4c14 	mov.w	ip, r4, lsr #16
  assert_param(IS_TIM_IC_FILTER(TIM_ICInitStruct->TIM_ICFilter));
  
  if (TIM_ICInitStruct->TIM_Channel == TIM_Channel_1)
  {
    /* TI1 Configuration */
    TI1_Config(TIMx, TIM_ICInitStruct->TIM_ICPolarity,
 800260a:	890e      	ldrh	r6, [r1, #8]
 800260c:	888c      	ldrh	r4, [r1, #4]
                       uint16_t TIM_ICFilter)
{
  uint16_t tmpccmr1 = 0, tmpccer = 0;

  /* Disable the Channel 1: Reset the CC1E Bit */
  TIMx->CCER &= (uint16_t)~TIM_CCER_CC1E;
 800260e:	f8a0 c020 	strh.w	ip, [r0, #32]
  tmpccmr1 = TIMx->CCMR1;
 8002612:	8b03      	ldrh	r3, [r0, #24]
  tmpccer = TIMx->CCER;
 8002614:	f8b0 c020 	ldrh.w	ip, [r0, #32]

  /* Select the Input and set the filter */
  tmpccmr1 &= ((uint16_t)~TIM_CCMR1_CC1S) & ((uint16_t)~TIM_CCMR1_IC1F);
  tmpccmr1 |= (uint16_t)(TIM_ICSelection | (uint16_t)(TIM_ICFilter << (uint16_t)4));
 8002618:	f023 02f3 	bic.w	r2, r3, #243	; 0xf3
 800261c:	0413      	lsls	r3, r2, #16
 800261e:	0c1a      	lsrs	r2, r3, #16

  /* Select the Polarity and set the CC1E Bit */
  tmpccer &= (uint16_t)~(TIM_CCER_CC1P | TIM_CCER_CC1NP);
 8002620:	f02c 030a 	bic.w	r3, ip, #10
  tmpccmr1 = TIMx->CCMR1;
  tmpccer = TIMx->CCER;

  /* Select the Input and set the filter */
  tmpccmr1 &= ((uint16_t)~TIM_CCMR1_CC1S) & ((uint16_t)~TIM_CCMR1_IC1F);
  tmpccmr1 |= (uint16_t)(TIM_ICSelection | (uint16_t)(TIM_ICFilter << (uint16_t)4));
 8002624:	ea42 1206 	orr.w	r2, r2, r6, lsl #4

  /* Select the Polarity and set the CC1E Bit */
  tmpccer &= (uint16_t)~(TIM_CCER_CC1P | TIM_CCER_CC1NP);
 8002628:	041b      	lsls	r3, r3, #16
  tmpccer |= (uint16_t)(TIM_ICPolarity | (uint16_t)TIM_CCER_CC1E);
 800262a:	f045 0c01 	orr.w	ip, r5, #1
  tmpccmr1 = TIMx->CCMR1;
  tmpccer = TIMx->CCER;

  /* Select the Input and set the filter */
  tmpccmr1 &= ((uint16_t)~TIM_CCMR1_CC1S) & ((uint16_t)~TIM_CCMR1_IC1F);
  tmpccmr1 |= (uint16_t)(TIM_ICSelection | (uint16_t)(TIM_ICFilter << (uint16_t)4));
 800262e:	b292      	uxth	r2, r2

  /* Select the Polarity and set the CC1E Bit */
  tmpccer &= (uint16_t)~(TIM_CCER_CC1P | TIM_CCER_CC1NP);
 8002630:	0c1b      	lsrs	r3, r3, #16
  tmpccer |= (uint16_t)(TIM_ICPolarity | (uint16_t)TIM_CCER_CC1E);
 8002632:	ea43 030c 	orr.w	r3, r3, ip
  tmpccmr1 = TIMx->CCMR1;
  tmpccer = TIMx->CCER;

  /* Select the Input and set the filter */
  tmpccmr1 &= ((uint16_t)~TIM_CCMR1_CC1S) & ((uint16_t)~TIM_CCMR1_IC1F);
  tmpccmr1 |= (uint16_t)(TIM_ICSelection | (uint16_t)(TIM_ICFilter << (uint16_t)4));
 8002636:	4322      	orrs	r2, r4
  /* Select the Polarity and set the CC1E Bit */
  tmpccer &= (uint16_t)~(TIM_CCER_CC1P | TIM_CCER_CC1NP);
  tmpccer |= (uint16_t)(TIM_ICPolarity | (uint16_t)TIM_CCER_CC1E);

  /* Write to TIMx CCMR1 and CCER registers */
  TIMx->CCMR1 = tmpccmr1;
 8002638:	8302      	strh	r2, [r0, #24]
  TIMx->CCER = tmpccer;
 800263a:	8403      	strh	r3, [r0, #32]
  /* Check the parameters */
  assert_param(IS_TIM_LIST1_PERIPH(TIMx));
  assert_param(IS_TIM_IC_PRESCALER(TIM_ICPSC));

  /* Reset the IC1PSC Bits */
  TIMx->CCMR1 &= (uint16_t)~TIM_CCMR1_IC1PSC;
 800263c:	f8b0 c018 	ldrh.w	ip, [r0, #24]
    /* TI1 Configuration */
    TI1_Config(TIMx, TIM_ICInitStruct->TIM_ICPolarity,
               TIM_ICInitStruct->TIM_ICSelection,
               TIM_ICInitStruct->TIM_ICFilter);
    /* Set the Input Capture Prescaler value */
    TIM_SetIC1Prescaler(TIMx, TIM_ICInitStruct->TIM_ICPrescaler);
 8002640:	88ca      	ldrh	r2, [r1, #6]
  /* Check the parameters */
  assert_param(IS_TIM_LIST1_PERIPH(TIMx));
  assert_param(IS_TIM_IC_PRESCALER(TIM_ICPSC));

  /* Reset the IC1PSC Bits */
  TIMx->CCMR1 &= (uint16_t)~TIM_CCMR1_IC1PSC;
 8002642:	f02c 030c 	bic.w	r3, ip, #12
 8002646:	0419      	lsls	r1, r3, #16
 8002648:	0c0b      	lsrs	r3, r1, #16
 800264a:	8303      	strh	r3, [r0, #24]

  /* Set the IC1PSC value */
  TIMx->CCMR1 |= TIM_ICPSC;
 800264c:	8b01      	ldrh	r1, [r0, #24]
 800264e:	b28b      	uxth	r3, r1
 8002650:	4313      	orrs	r3, r2
 8002652:	8303      	strh	r3, [r0, #24]
 8002654:	e7d0      	b.n	80025f8 <TIM_ICInit+0x74>
                       uint16_t TIM_ICFilter)
{
  uint16_t tmpccmr1 = 0, tmpccer = 0, tmp = 0;

  /* Disable the Channel 2: Reset the CC2E Bit */
  TIMx->CCER &= (uint16_t)~TIM_CCER_CC2E;
 8002656:	8c03      	ldrh	r3, [r0, #32]
  }
  else if (TIM_ICInitStruct->TIM_Channel == TIM_Channel_2)
  {
    /* TI2 Configuration */
    assert_param(IS_TIM_LIST2_PERIPH(TIMx));
    TI2_Config(TIMx, TIM_ICInitStruct->TIM_ICPolarity,
 8002658:	884d      	ldrh	r5, [r1, #2]
                       uint16_t TIM_ICFilter)
{
  uint16_t tmpccmr1 = 0, tmpccer = 0, tmp = 0;

  /* Disable the Channel 2: Reset the CC2E Bit */
  TIMx->CCER &= (uint16_t)~TIM_CCER_CC2E;
 800265a:	f023 0610 	bic.w	r6, r3, #16
 800265e:	0434      	lsls	r4, r6, #16
 8002660:	ea4f 4c14 	mov.w	ip, r4, lsr #16
  }
  else if (TIM_ICInitStruct->TIM_Channel == TIM_Channel_2)
  {
    /* TI2 Configuration */
    assert_param(IS_TIM_LIST2_PERIPH(TIMx));
    TI2_Config(TIMx, TIM_ICInitStruct->TIM_ICPolarity,
 8002664:	890e      	ldrh	r6, [r1, #8]
 8002666:	888c      	ldrh	r4, [r1, #4]
                       uint16_t TIM_ICFilter)
{
  uint16_t tmpccmr1 = 0, tmpccer = 0, tmp = 0;

  /* Disable the Channel 2: Reset the CC2E Bit */
  TIMx->CCER &= (uint16_t)~TIM_CCER_CC2E;
 8002668:	f8a0 c020 	strh.w	ip, [r0, #32]
  tmpccmr1 = TIMx->CCMR1;
 800266c:	8b02      	ldrh	r2, [r0, #24]
  tmpccer = TIMx->CCER;
 800266e:	f8b0 c020 	ldrh.w	ip, [r0, #32]
  tmp = (uint16_t)(TIM_ICPolarity << 4);

  /* Select the Input and set the filter */
  tmpccmr1 &= ((uint16_t)~TIM_CCMR1_CC2S) & ((uint16_t)~TIM_CCMR1_IC2F);
 8002672:	f422 7340 	bic.w	r3, r2, #768	; 0x300
 8002676:	051a      	lsls	r2, r3, #20
  tmpccmr1 |= (uint16_t)(TIM_ICFilter << 12);
  tmpccmr1 |= (uint16_t)(TIM_ICSelection << 8);

  /* Select the Polarity and set the CC2E Bit */
  tmpccer &= (uint16_t)~(TIM_CCER_CC2P | TIM_CCER_CC2NP);
  tmpccer |=  (uint16_t)(tmp | (uint16_t)TIM_CCER_CC2E);
 8002678:	f02c 03a0 	bic.w	r3, ip, #160	; 0xa0
  tmpccmr1 = TIMx->CCMR1;
  tmpccer = TIMx->CCER;
  tmp = (uint16_t)(TIM_ICPolarity << 4);

  /* Select the Input and set the filter */
  tmpccmr1 &= ((uint16_t)~TIM_CCMR1_CC2S) & ((uint16_t)~TIM_CCMR1_IC2F);
 800267c:	0d12      	lsrs	r2, r2, #20
  tmpccmr1 |= (uint16_t)(TIM_ICFilter << 12);
  tmpccmr1 |= (uint16_t)(TIM_ICSelection << 8);

  /* Select the Polarity and set the CC2E Bit */
  tmpccer &= (uint16_t)~(TIM_CCER_CC2P | TIM_CCER_CC2NP);
  tmpccer |=  (uint16_t)(tmp | (uint16_t)TIM_CCER_CC2E);
 800267e:	041b      	lsls	r3, r3, #16
  tmpccer = TIMx->CCER;
  tmp = (uint16_t)(TIM_ICPolarity << 4);

  /* Select the Input and set the filter */
  tmpccmr1 &= ((uint16_t)~TIM_CCMR1_CC2S) & ((uint16_t)~TIM_CCMR1_IC2F);
  tmpccmr1 |= (uint16_t)(TIM_ICFilter << 12);
 8002680:	ea42 3206 	orr.w	r2, r2, r6, lsl #12
  tmpccmr1 |= (uint16_t)(TIM_ICSelection << 8);

  /* Select the Polarity and set the CC2E Bit */
  tmpccer &= (uint16_t)~(TIM_CCER_CC2P | TIM_CCER_CC2NP);
  tmpccer |=  (uint16_t)(tmp | (uint16_t)TIM_CCER_CC2E);
 8002684:	0c1b      	lsrs	r3, r3, #16
 8002686:	ea43 1305 	orr.w	r3, r3, r5, lsl #4
  tmpccer = TIMx->CCER;
  tmp = (uint16_t)(TIM_ICPolarity << 4);

  /* Select the Input and set the filter */
  tmpccmr1 &= ((uint16_t)~TIM_CCMR1_CC2S) & ((uint16_t)~TIM_CCMR1_IC2F);
  tmpccmr1 |= (uint16_t)(TIM_ICFilter << 12);
 800268a:	fa1f fc82 	uxth.w	ip, r2
  tmpccmr1 |= (uint16_t)(TIM_ICSelection << 8);
 800268e:	ea4c 2204 	orr.w	r2, ip, r4, lsl #8

  /* Select the Polarity and set the CC2E Bit */
  tmpccer &= (uint16_t)~(TIM_CCER_CC2P | TIM_CCER_CC2NP);
  tmpccer |=  (uint16_t)(tmp | (uint16_t)TIM_CCER_CC2E);
 8002692:	fa1f fc83 	uxth.w	ip, r3
 8002696:	f04c 0310 	orr.w	r3, ip, #16
  tmp = (uint16_t)(TIM_ICPolarity << 4);

  /* Select the Input and set the filter */
  tmpccmr1 &= ((uint16_t)~TIM_CCMR1_CC2S) & ((uint16_t)~TIM_CCMR1_IC2F);
  tmpccmr1 |= (uint16_t)(TIM_ICFilter << 12);
  tmpccmr1 |= (uint16_t)(TIM_ICSelection << 8);
 800269a:	b292      	uxth	r2, r2
  /* Select the Polarity and set the CC2E Bit */
  tmpccer &= (uint16_t)~(TIM_CCER_CC2P | TIM_CCER_CC2NP);
  tmpccer |=  (uint16_t)(tmp | (uint16_t)TIM_CCER_CC2E);

  /* Write to TIMx CCMR1 and CCER registers */
  TIMx->CCMR1 = tmpccmr1 ;
 800269c:	8302      	strh	r2, [r0, #24]
  TIMx->CCER = tmpccer;
 800269e:	8403      	strh	r3, [r0, #32]
  /* Check the parameters */
  assert_param(IS_TIM_LIST2_PERIPH(TIMx));
  assert_param(IS_TIM_IC_PRESCALER(TIM_ICPSC));

  /* Reset the IC2PSC Bits */
  TIMx->CCMR1 &= (uint16_t)~TIM_CCMR1_IC2PSC;
 80026a0:	f8b0 c018 	ldrh.w	ip, [r0, #24]
    assert_param(IS_TIM_LIST2_PERIPH(TIMx));
    TI2_Config(TIMx, TIM_ICInitStruct->TIM_ICPolarity,
               TIM_ICInitStruct->TIM_ICSelection,
               TIM_ICInitStruct->TIM_ICFilter);
    /* Set the Input Capture Prescaler value */
    TIM_SetIC2Prescaler(TIMx, TIM_ICInitStruct->TIM_ICPrescaler);
 80026a4:	88ca      	ldrh	r2, [r1, #6]
  /* Check the parameters */
  assert_param(IS_TIM_LIST2_PERIPH(TIMx));
  assert_param(IS_TIM_IC_PRESCALER(TIM_ICPSC));

  /* Reset the IC2PSC Bits */
  TIMx->CCMR1 &= (uint16_t)~TIM_CCMR1_IC2PSC;
 80026a6:	f42c 6340 	bic.w	r3, ip, #3072	; 0xc00
 80026aa:	0419      	lsls	r1, r3, #16
 80026ac:	0c0b      	lsrs	r3, r1, #16
 80026ae:	8303      	strh	r3, [r0, #24]

  /* Set the IC2PSC value */
  TIMx->CCMR1 |= (uint16_t)(TIM_ICPSC << 8);
 80026b0:	8b01      	ldrh	r1, [r0, #24]
 80026b2:	fa1f fc81 	uxth.w	ip, r1
 80026b6:	ea4c 2302 	orr.w	r3, ip, r2, lsl #8
 80026ba:	b299      	uxth	r1, r3
 80026bc:	8301      	strh	r1, [r0, #24]
 80026be:	e79b      	b.n	80025f8 <TIM_ICInit+0x74>
                       uint16_t TIM_ICFilter)
{
  uint16_t tmpccmr2 = 0, tmpccer = 0, tmp = 0;

  /* Disable the Channel 3: Reset the CC3E Bit */
  TIMx->CCER &= (uint16_t)~TIM_CCER_CC3E;
 80026c0:	f42c 7680 	bic.w	r6, ip, #256	; 0x100
 80026c4:	0434      	lsls	r4, r6, #16
 80026c6:	0c22      	lsrs	r2, r4, #16
  }
  else if (TIM_ICInitStruct->TIM_Channel == TIM_Channel_3)
  {
    /* TI3 Configuration */
    assert_param(IS_TIM_LIST3_PERIPH(TIMx));
    TI3_Config(TIMx,  TIM_ICInitStruct->TIM_ICPolarity,
 80026c8:	890e      	ldrh	r6, [r1, #8]
 80026ca:	888c      	ldrh	r4, [r1, #4]
                       uint16_t TIM_ICFilter)
{
  uint16_t tmpccmr2 = 0, tmpccer = 0, tmp = 0;

  /* Disable the Channel 3: Reset the CC3E Bit */
  TIMx->CCER &= (uint16_t)~TIM_CCER_CC3E;
 80026cc:	8402      	strh	r2, [r0, #32]
  tmpccmr2 = TIMx->CCMR2;
 80026ce:	8b83      	ldrh	r3, [r0, #28]
  tmpccer = TIMx->CCER;
 80026d0:	f8b0 c020 	ldrh.w	ip, [r0, #32]
  tmp = (uint16_t)(TIM_ICPolarity << 8);

  /* Select the Input and set the filter */
  tmpccmr2 &= ((uint16_t)~TIM_CCMR1_CC1S) & ((uint16_t)~TIM_CCMR2_IC3F);
  tmpccmr2 |= (uint16_t)(TIM_ICSelection | (uint16_t)(TIM_ICFilter << (uint16_t)4));
 80026d4:	f023 02f3 	bic.w	r2, r3, #243	; 0xf3

  /* Select the Polarity and set the CC3E Bit */
  tmpccer &= (uint16_t)~(TIM_CCER_CC3P | TIM_CCER_CC3NP);
  tmpccer |= (uint16_t)(tmp | (uint16_t)TIM_CCER_CC3E);
 80026d8:	f42c 6320 	bic.w	r3, ip, #2560	; 0xa00
  tmpccer = TIMx->CCER;
  tmp = (uint16_t)(TIM_ICPolarity << 8);

  /* Select the Input and set the filter */
  tmpccmr2 &= ((uint16_t)~TIM_CCMR1_CC1S) & ((uint16_t)~TIM_CCMR2_IC3F);
  tmpccmr2 |= (uint16_t)(TIM_ICSelection | (uint16_t)(TIM_ICFilter << (uint16_t)4));
 80026dc:	0412      	lsls	r2, r2, #16

  /* Select the Polarity and set the CC3E Bit */
  tmpccer &= (uint16_t)~(TIM_CCER_CC3P | TIM_CCER_CC3NP);
  tmpccer |= (uint16_t)(tmp | (uint16_t)TIM_CCER_CC3E);
 80026de:	041b      	lsls	r3, r3, #16
  tmpccer = TIMx->CCER;
  tmp = (uint16_t)(TIM_ICPolarity << 8);

  /* Select the Input and set the filter */
  tmpccmr2 &= ((uint16_t)~TIM_CCMR1_CC1S) & ((uint16_t)~TIM_CCMR2_IC3F);
  tmpccmr2 |= (uint16_t)(TIM_ICSelection | (uint16_t)(TIM_ICFilter << (uint16_t)4));
 80026e0:	0c12      	lsrs	r2, r2, #16

  /* Select the Polarity and set the CC3E Bit */
  tmpccer &= (uint16_t)~(TIM_CCER_CC3P | TIM_CCER_CC3NP);
  tmpccer |= (uint16_t)(tmp | (uint16_t)TIM_CCER_CC3E);
 80026e2:	0c1b      	lsrs	r3, r3, #16
 80026e4:	ea43 2305 	orr.w	r3, r3, r5, lsl #8
  tmpccer = TIMx->CCER;
  tmp = (uint16_t)(TIM_ICPolarity << 8);

  /* Select the Input and set the filter */
  tmpccmr2 &= ((uint16_t)~TIM_CCMR1_CC1S) & ((uint16_t)~TIM_CCMR2_IC3F);
  tmpccmr2 |= (uint16_t)(TIM_ICSelection | (uint16_t)(TIM_ICFilter << (uint16_t)4));
 80026e8:	ea42 1206 	orr.w	r2, r2, r6, lsl #4

  /* Select the Polarity and set the CC3E Bit */
  tmpccer &= (uint16_t)~(TIM_CCER_CC3P | TIM_CCER_CC3NP);
  tmpccer |= (uint16_t)(tmp | (uint16_t)TIM_CCER_CC3E);
 80026ec:	fa1f fc83 	uxth.w	ip, r3
  tmpccer = TIMx->CCER;
  tmp = (uint16_t)(TIM_ICPolarity << 8);

  /* Select the Input and set the filter */
  tmpccmr2 &= ((uint16_t)~TIM_CCMR1_CC1S) & ((uint16_t)~TIM_CCMR2_IC3F);
  tmpccmr2 |= (uint16_t)(TIM_ICSelection | (uint16_t)(TIM_ICFilter << (uint16_t)4));
 80026f0:	b292      	uxth	r2, r2

  /* Select the Polarity and set the CC3E Bit */
  tmpccer &= (uint16_t)~(TIM_CCER_CC3P | TIM_CCER_CC3NP);
  tmpccer |= (uint16_t)(tmp | (uint16_t)TIM_CCER_CC3E);
 80026f2:	f44c 7380 	orr.w	r3, ip, #256	; 0x100
  tmpccer = TIMx->CCER;
  tmp = (uint16_t)(TIM_ICPolarity << 8);

  /* Select the Input and set the filter */
  tmpccmr2 &= ((uint16_t)~TIM_CCMR1_CC1S) & ((uint16_t)~TIM_CCMR2_IC3F);
  tmpccmr2 |= (uint16_t)(TIM_ICSelection | (uint16_t)(TIM_ICFilter << (uint16_t)4));
 80026f6:	4322      	orrs	r2, r4
  /* Select the Polarity and set the CC3E Bit */
  tmpccer &= (uint16_t)~(TIM_CCER_CC3P | TIM_CCER_CC3NP);
  tmpccer |= (uint16_t)(tmp | (uint16_t)TIM_CCER_CC3E);

  /* Write to TIMx CCMR2 and CCER registers */
  TIMx->CCMR2 = tmpccmr2;
 80026f8:	8382      	strh	r2, [r0, #28]
  TIMx->CCER = tmpccer;
 80026fa:	8403      	strh	r3, [r0, #32]
  /* Check the parameters */
  assert_param(IS_TIM_LIST3_PERIPH(TIMx));
  assert_param(IS_TIM_IC_PRESCALER(TIM_ICPSC));

  /* Reset the IC3PSC Bits */
  TIMx->CCMR2 &= (uint16_t)~TIM_CCMR2_IC3PSC;
 80026fc:	f8b0 c01c 	ldrh.w	ip, [r0, #28]
    assert_param(IS_TIM_LIST3_PERIPH(TIMx));
    TI3_Config(TIMx,  TIM_ICInitStruct->TIM_ICPolarity,
               TIM_ICInitStruct->TIM_ICSelection,
               TIM_ICInitStruct->TIM_ICFilter);
    /* Set the Input Capture Prescaler value */
    TIM_SetIC3Prescaler(TIMx, TIM_ICInitStruct->TIM_ICPrescaler);
 8002700:	88ca      	ldrh	r2, [r1, #6]
  /* Check the parameters */
  assert_param(IS_TIM_LIST3_PERIPH(TIMx));
  assert_param(IS_TIM_IC_PRESCALER(TIM_ICPSC));

  /* Reset the IC3PSC Bits */
  TIMx->CCMR2 &= (uint16_t)~TIM_CCMR2_IC3PSC;
 8002702:	f02c 030c 	bic.w	r3, ip, #12
 8002706:	0419      	lsls	r1, r3, #16
 8002708:	0c0b      	lsrs	r3, r1, #16
 800270a:	8383      	strh	r3, [r0, #28]

  /* Set the IC3PSC value */
  TIMx->CCMR2 |= TIM_ICPSC;
 800270c:	f8b0 c01c 	ldrh.w	ip, [r0, #28]
 8002710:	fa1f f18c 	uxth.w	r1, ip
 8002714:	4311      	orrs	r1, r2
 8002716:	8381      	strh	r1, [r0, #28]
 8002718:	e76e      	b.n	80025f8 <TIM_ICInit+0x74>
 800271a:	bf00      	nop

0800271c <TIM_ICStructInit>:
  * @retval None
  */
void TIM_ICStructInit(TIM_ICInitTypeDef* TIM_ICInitStruct)
{
  /* Set the default configuration */
  TIM_ICInitStruct->TIM_Channel = TIM_Channel_1;
 800271c:	2300      	movs	r3, #0
  TIM_ICInitStruct->TIM_ICPolarity = TIM_ICPolarity_Rising;
  TIM_ICInitStruct->TIM_ICSelection = TIM_ICSelection_DirectTI;
 800271e:	f04f 0201 	mov.w	r2, #1
  TIM_ICInitStruct->TIM_ICPrescaler = TIM_ICPSC_DIV1;
  TIM_ICInitStruct->TIM_ICFilter = 0x00;
 8002722:	8103      	strh	r3, [r0, #8]
  * @retval None
  */
void TIM_ICStructInit(TIM_ICInitTypeDef* TIM_ICInitStruct)
{
  /* Set the default configuration */
  TIM_ICInitStruct->TIM_Channel = TIM_Channel_1;
 8002724:	8003      	strh	r3, [r0, #0]
  TIM_ICInitStruct->TIM_ICPolarity = TIM_ICPolarity_Rising;
 8002726:	8043      	strh	r3, [r0, #2]
  TIM_ICInitStruct->TIM_ICSelection = TIM_ICSelection_DirectTI;
 8002728:	8082      	strh	r2, [r0, #4]
  TIM_ICInitStruct->TIM_ICPrescaler = TIM_ICPSC_DIV1;
 800272a:	80c3      	strh	r3, [r0, #6]
  TIM_ICInitStruct->TIM_ICFilter = 0x00;
}
 800272c:	4770      	bx	lr
 800272e:	bf00      	nop

08002730 <TIM_PWMIConfig>:
  * @param  TIM_ICInitStruct: pointer to a TIM_ICInitTypeDef structure that contains
  *         the configuration information for the specified TIM peripheral.
  * @retval None
  */
void TIM_PWMIConfig(TIM_TypeDef* TIMx, TIM_ICInitTypeDef* TIM_ICInitStruct)
{
 8002730:	e92d 01f0 	stmdb	sp!, {r4, r5, r6, r7, r8}

  /* Check the parameters */
  assert_param(IS_TIM_LIST2_PERIPH(TIMx));

  /* Select the Opposite Input Polarity */
  if (TIM_ICInitStruct->TIM_ICPolarity == TIM_ICPolarity_Rising)
 8002734:	884a      	ldrh	r2, [r1, #2]
  else
  {
    icoppositepolarity = TIM_ICPolarity_Rising;
  }
  /* Select the Opposite Input */
  if (TIM_ICInitStruct->TIM_ICSelection == TIM_ICSelection_DirectTI)
 8002736:	888b      	ldrh	r3, [r1, #4]
  }
  else
  {
    icoppositeselection = TIM_ICSelection_DirectTI;
  }
  if (TIM_ICInitStruct->TIM_Channel == TIM_Channel_1)
 8002738:	880c      	ldrh	r4, [r1, #0]

  /* Check the parameters */
  assert_param(IS_TIM_LIST2_PERIPH(TIMx));

  /* Select the Opposite Input Polarity */
  if (TIM_ICInitStruct->TIM_ICPolarity == TIM_ICPolarity_Rising)
 800273a:	2a00      	cmp	r2, #0
 800273c:	bf0c      	ite	eq
 800273e:	2502      	moveq	r5, #2
 8002740:	2500      	movne	r5, #0
  else
  {
    icoppositepolarity = TIM_ICPolarity_Rising;
  }
  /* Select the Opposite Input */
  if (TIM_ICInitStruct->TIM_ICSelection == TIM_ICSelection_DirectTI)
 8002742:	2b01      	cmp	r3, #1
 8002744:	bf0c      	ite	eq
 8002746:	2602      	moveq	r6, #2
 8002748:	2601      	movne	r6, #1
  }
  else
  {
    icoppositeselection = TIM_ICSelection_DirectTI;
  }
  if (TIM_ICInitStruct->TIM_Channel == TIM_Channel_1)
 800274a:	2c00      	cmp	r4, #0
 800274c:	d05e      	beq.n	800280c <TIM_PWMIConfig+0xdc>
                       uint16_t TIM_ICFilter)
{
  uint16_t tmpccmr1 = 0, tmpccer = 0, tmp = 0;

  /* Disable the Channel 2: Reset the CC2E Bit */
  TIMx->CCER &= (uint16_t)~TIM_CCER_CC2E;
 800274e:	f8b0 8020 	ldrh.w	r8, [r0, #32]
    TIM_SetIC2Prescaler(TIMx, TIM_ICInitStruct->TIM_ICPrescaler);
  }
  else
  { 
    /* TI2 Configuration */
    TI2_Config(TIMx, TIM_ICInitStruct->TIM_ICPolarity, TIM_ICInitStruct->TIM_ICSelection,
 8002752:	890c      	ldrh	r4, [r1, #8]
                       uint16_t TIM_ICFilter)
{
  uint16_t tmpccmr1 = 0, tmpccer = 0, tmp = 0;

  /* Disable the Channel 2: Reset the CC2E Bit */
  TIMx->CCER &= (uint16_t)~TIM_CCER_CC2E;
 8002754:	f028 0710 	bic.w	r7, r8, #16
 8002758:	ea4f 4c07 	mov.w	ip, r7, lsl #16
 800275c:	ea4f 481c 	mov.w	r8, ip, lsr #16
 8002760:	f8a0 8020 	strh.w	r8, [r0, #32]
  tmpccmr1 = TIMx->CCMR1;
 8002764:	8b07      	ldrh	r7, [r0, #24]
  tmpccer = TIMx->CCER;
 8002766:	f8b0 c020 	ldrh.w	ip, [r0, #32]
  tmp = (uint16_t)(TIM_ICPolarity << 4);

  /* Select the Input and set the filter */
  tmpccmr1 &= ((uint16_t)~TIM_CCMR1_CC2S) & ((uint16_t)~TIM_CCMR1_IC2F);
 800276a:	46b8      	mov	r8, r7
 800276c:	f427 7740 	bic.w	r7, r7, #768	; 0x300
 8002770:	053f      	lsls	r7, r7, #20
  tmpccmr1 |= (uint16_t)(TIM_ICFilter << 12);
  tmpccmr1 |= (uint16_t)(TIM_ICSelection << 8);

  /* Select the Polarity and set the CC2E Bit */
  tmpccer &= (uint16_t)~(TIM_CCER_CC2P | TIM_CCER_CC2NP);
  tmpccer |=  (uint16_t)(tmp | (uint16_t)TIM_CCER_CC2E);
 8002772:	f02c 0ca0 	bic.w	ip, ip, #160	; 0xa0
  tmpccmr1 = TIMx->CCMR1;
  tmpccer = TIMx->CCER;
  tmp = (uint16_t)(TIM_ICPolarity << 4);

  /* Select the Input and set the filter */
  tmpccmr1 &= ((uint16_t)~TIM_CCMR1_CC2S) & ((uint16_t)~TIM_CCMR1_IC2F);
 8002776:	0d3f      	lsrs	r7, r7, #20
  tmpccmr1 |= (uint16_t)(TIM_ICFilter << 12);
  tmpccmr1 |= (uint16_t)(TIM_ICSelection << 8);

  /* Select the Polarity and set the CC2E Bit */
  tmpccer &= (uint16_t)~(TIM_CCER_CC2P | TIM_CCER_CC2NP);
  tmpccer |=  (uint16_t)(tmp | (uint16_t)TIM_CCER_CC2E);
 8002778:	ea4f 4c0c 	mov.w	ip, ip, lsl #16
 800277c:	ea4f 4c1c 	mov.w	ip, ip, lsr #16
  tmpccer = TIMx->CCER;
  tmp = (uint16_t)(TIM_ICPolarity << 4);

  /* Select the Input and set the filter */
  tmpccmr1 &= ((uint16_t)~TIM_CCMR1_CC2S) & ((uint16_t)~TIM_CCMR1_IC2F);
  tmpccmr1 |= (uint16_t)(TIM_ICFilter << 12);
 8002780:	ea47 3704 	orr.w	r7, r7, r4, lsl #12
  tmpccmr1 |= (uint16_t)(TIM_ICSelection << 8);

  /* Select the Polarity and set the CC2E Bit */
  tmpccer &= (uint16_t)~(TIM_CCER_CC2P | TIM_CCER_CC2NP);
  tmpccer |=  (uint16_t)(tmp | (uint16_t)TIM_CCER_CC2E);
 8002784:	ea4c 1202 	orr.w	r2, ip, r2, lsl #4
  tmpccer = TIMx->CCER;
  tmp = (uint16_t)(TIM_ICPolarity << 4);

  /* Select the Input and set the filter */
  tmpccmr1 &= ((uint16_t)~TIM_CCMR1_CC2S) & ((uint16_t)~TIM_CCMR1_IC2F);
  tmpccmr1 |= (uint16_t)(TIM_ICFilter << 12);
 8002788:	b2bf      	uxth	r7, r7
  tmpccmr1 |= (uint16_t)(TIM_ICSelection << 8);
 800278a:	ea47 2c03 	orr.w	ip, r7, r3, lsl #8

  /* Select the Polarity and set the CC2E Bit */
  tmpccer &= (uint16_t)~(TIM_CCER_CC2P | TIM_CCER_CC2NP);
  tmpccer |=  (uint16_t)(tmp | (uint16_t)TIM_CCER_CC2E);
 800278e:	b292      	uxth	r2, r2
  tmp = (uint16_t)(TIM_ICPolarity << 4);

  /* Select the Input and set the filter */
  tmpccmr1 &= ((uint16_t)~TIM_CCMR1_CC2S) & ((uint16_t)~TIM_CCMR1_IC2F);
  tmpccmr1 |= (uint16_t)(TIM_ICFilter << 12);
  tmpccmr1 |= (uint16_t)(TIM_ICSelection << 8);
 8002790:	fa1f f38c 	uxth.w	r3, ip

  /* Select the Polarity and set the CC2E Bit */
  tmpccer &= (uint16_t)~(TIM_CCER_CC2P | TIM_CCER_CC2NP);
  tmpccer |=  (uint16_t)(tmp | (uint16_t)TIM_CCER_CC2E);
 8002794:	f042 0c10 	orr.w	ip, r2, #16

  /* Write to TIMx CCMR1 and CCER registers */
  TIMx->CCMR1 = tmpccmr1 ;
 8002798:	8303      	strh	r3, [r0, #24]
  TIMx->CCER = tmpccer;
 800279a:	f8a0 c020 	strh.w	ip, [r0, #32]
  /* Check the parameters */
  assert_param(IS_TIM_LIST2_PERIPH(TIMx));
  assert_param(IS_TIM_IC_PRESCALER(TIM_ICPSC));

  /* Reset the IC2PSC Bits */
  TIMx->CCMR1 &= (uint16_t)~TIM_CCMR1_IC2PSC;
 800279e:	8b03      	ldrh	r3, [r0, #24]
  { 
    /* TI2 Configuration */
    TI2_Config(TIMx, TIM_ICInitStruct->TIM_ICPolarity, TIM_ICInitStruct->TIM_ICSelection,
               TIM_ICInitStruct->TIM_ICFilter);
    /* Set the Input Capture Prescaler value */
    TIM_SetIC2Prescaler(TIMx, TIM_ICInitStruct->TIM_ICPrescaler);
 80027a0:	f8b1 c006 	ldrh.w	ip, [r1, #6]
  /* Check the parameters */
  assert_param(IS_TIM_LIST2_PERIPH(TIMx));
  assert_param(IS_TIM_IC_PRESCALER(TIM_ICPSC));

  /* Reset the IC2PSC Bits */
  TIMx->CCMR1 &= (uint16_t)~TIM_CCMR1_IC2PSC;
 80027a4:	f423 6240 	bic.w	r2, r3, #3072	; 0xc00
 80027a8:	0411      	lsls	r1, r2, #16
 80027aa:	0c0a      	lsrs	r2, r1, #16
 80027ac:	8302      	strh	r2, [r0, #24]

  /* Set the IC2PSC value */
  TIMx->CCMR1 |= (uint16_t)(TIM_ICPSC << 8);
 80027ae:	8b03      	ldrh	r3, [r0, #24]
 80027b0:	b299      	uxth	r1, r3
 80027b2:	ea41 220c 	orr.w	r2, r1, ip, lsl #8
 80027b6:	b293      	uxth	r3, r2
 80027b8:	8303      	strh	r3, [r0, #24]
                       uint16_t TIM_ICFilter)
{
  uint16_t tmpccmr1 = 0, tmpccer = 0;

  /* Disable the Channel 1: Reset the CC1E Bit */
  TIMx->CCER &= (uint16_t)~TIM_CCER_CC1E;
 80027ba:	8c01      	ldrh	r1, [r0, #32]
 80027bc:	f021 0201 	bic.w	r2, r1, #1
 80027c0:	0413      	lsls	r3, r2, #16
 80027c2:	0c19      	lsrs	r1, r3, #16
 80027c4:	8401      	strh	r1, [r0, #32]
  tmpccmr1 = TIMx->CCMR1;
 80027c6:	8b02      	ldrh	r2, [r0, #24]
  tmpccer = TIMx->CCER;
 80027c8:	8c01      	ldrh	r1, [r0, #32]

  /* Select the Input and set the filter */
  tmpccmr1 &= ((uint16_t)~TIM_CCMR1_CC1S) & ((uint16_t)~TIM_CCMR1_IC1F);
  tmpccmr1 |= (uint16_t)(TIM_ICSelection | (uint16_t)(TIM_ICFilter << (uint16_t)4));
 80027ca:	f022 03f3 	bic.w	r3, r2, #243	; 0xf3
 80027ce:	041a      	lsls	r2, r3, #16

  /* Select the Polarity and set the CC1E Bit */
  tmpccer &= (uint16_t)~(TIM_CCER_CC1P | TIM_CCER_CC1NP);
  tmpccer |= (uint16_t)(TIM_ICPolarity | (uint16_t)TIM_CCER_CC1E);
 80027d0:	f021 030a 	bic.w	r3, r1, #10
 80027d4:	041b      	lsls	r3, r3, #16
  tmpccmr1 = TIMx->CCMR1;
  tmpccer = TIMx->CCER;

  /* Select the Input and set the filter */
  tmpccmr1 &= ((uint16_t)~TIM_CCMR1_CC1S) & ((uint16_t)~TIM_CCMR1_IC1F);
  tmpccmr1 |= (uint16_t)(TIM_ICSelection | (uint16_t)(TIM_ICFilter << (uint16_t)4));
 80027d6:	0c11      	lsrs	r1, r2, #16
 80027d8:	ea41 1204 	orr.w	r2, r1, r4, lsl #4

  /* Select the Polarity and set the CC1E Bit */
  tmpccer &= (uint16_t)~(TIM_CCER_CC1P | TIM_CCER_CC1NP);
  tmpccer |= (uint16_t)(TIM_ICPolarity | (uint16_t)TIM_CCER_CC1E);
 80027dc:	0c19      	lsrs	r1, r3, #16
 80027de:	f041 0301 	orr.w	r3, r1, #1
  tmpccmr1 = TIMx->CCMR1;
  tmpccer = TIMx->CCER;

  /* Select the Input and set the filter */
  tmpccmr1 &= ((uint16_t)~TIM_CCMR1_CC1S) & ((uint16_t)~TIM_CCMR1_IC1F);
  tmpccmr1 |= (uint16_t)(TIM_ICSelection | (uint16_t)(TIM_ICFilter << (uint16_t)4));
 80027e2:	b292      	uxth	r2, r2
 80027e4:	ea42 0606 	orr.w	r6, r2, r6

  /* Select the Polarity and set the CC1E Bit */
  tmpccer &= (uint16_t)~(TIM_CCER_CC1P | TIM_CCER_CC1NP);
  tmpccer |= (uint16_t)(TIM_ICPolarity | (uint16_t)TIM_CCER_CC1E);
 80027e8:	ea43 0505 	orr.w	r5, r3, r5

  /* Write to TIMx CCMR1 and CCER registers */
  TIMx->CCMR1 = tmpccmr1;
 80027ec:	8306      	strh	r6, [r0, #24]
  TIMx->CCER = tmpccer;
 80027ee:	8405      	strh	r5, [r0, #32]
  /* Check the parameters */
  assert_param(IS_TIM_LIST1_PERIPH(TIMx));
  assert_param(IS_TIM_IC_PRESCALER(TIM_ICPSC));

  /* Reset the IC1PSC Bits */
  TIMx->CCMR1 &= (uint16_t)~TIM_CCMR1_IC1PSC;
 80027f0:	8b01      	ldrh	r1, [r0, #24]
 80027f2:	f021 020c 	bic.w	r2, r1, #12
 80027f6:	0413      	lsls	r3, r2, #16
 80027f8:	0c19      	lsrs	r1, r3, #16
 80027fa:	8301      	strh	r1, [r0, #24]

  /* Set the IC1PSC value */
  TIMx->CCMR1 |= TIM_ICPSC;
 80027fc:	8b02      	ldrh	r2, [r0, #24]
 80027fe:	b293      	uxth	r3, r2
 8002800:	ea43 010c 	orr.w	r1, r3, ip
 8002804:	8301      	strh	r1, [r0, #24]
    /* TI1 Configuration */
    TI1_Config(TIMx, icoppositepolarity, icoppositeselection, TIM_ICInitStruct->TIM_ICFilter);
    /* Set the Input Capture Prescaler value */
    TIM_SetIC1Prescaler(TIMx, TIM_ICInitStruct->TIM_ICPrescaler);
  }
}
 8002806:	e8bd 01f0 	ldmia.w	sp!, {r4, r5, r6, r7, r8}
 800280a:	4770      	bx	lr
                       uint16_t TIM_ICFilter)
{
  uint16_t tmpccmr1 = 0, tmpccer = 0;

  /* Disable the Channel 1: Reset the CC1E Bit */
  TIMx->CCER &= (uint16_t)~TIM_CCER_CC1E;
 800280c:	f8b0 8020 	ldrh.w	r8, [r0, #32]
    icoppositeselection = TIM_ICSelection_DirectTI;
  }
  if (TIM_ICInitStruct->TIM_Channel == TIM_Channel_1)
  {
    /* TI1 Configuration */
    TI1_Config(TIMx, TIM_ICInitStruct->TIM_ICPolarity, TIM_ICInitStruct->TIM_ICSelection,
 8002810:	890c      	ldrh	r4, [r1, #8]
                       uint16_t TIM_ICFilter)
{
  uint16_t tmpccmr1 = 0, tmpccer = 0;

  /* Disable the Channel 1: Reset the CC1E Bit */
  TIMx->CCER &= (uint16_t)~TIM_CCER_CC1E;
 8002812:	f028 0701 	bic.w	r7, r8, #1
 8002816:	ea4f 4c07 	mov.w	ip, r7, lsl #16
 800281a:	ea4f 481c 	mov.w	r8, ip, lsr #16
 800281e:	f8a0 8020 	strh.w	r8, [r0, #32]
  tmpccmr1 = TIMx->CCMR1;
 8002822:	8b07      	ldrh	r7, [r0, #24]
  tmpccer = TIMx->CCER;
 8002824:	f8b0 c020 	ldrh.w	ip, [r0, #32]

  /* Select the Input and set the filter */
  tmpccmr1 &= ((uint16_t)~TIM_CCMR1_CC1S) & ((uint16_t)~TIM_CCMR1_IC1F);
  tmpccmr1 |= (uint16_t)(TIM_ICSelection | (uint16_t)(TIM_ICFilter << (uint16_t)4));
 8002828:	46b8      	mov	r8, r7
 800282a:	f027 07f3 	bic.w	r7, r7, #243	; 0xf3
 800282e:	043f      	lsls	r7, r7, #16
 8002830:	0c3f      	lsrs	r7, r7, #16

  /* Select the Polarity and set the CC1E Bit */
  tmpccer &= (uint16_t)~(TIM_CCER_CC1P | TIM_CCER_CC1NP);
 8002832:	f02c 0c0a 	bic.w	ip, ip, #10
  tmpccmr1 = TIMx->CCMR1;
  tmpccer = TIMx->CCER;

  /* Select the Input and set the filter */
  tmpccmr1 &= ((uint16_t)~TIM_CCMR1_CC1S) & ((uint16_t)~TIM_CCMR1_IC1F);
  tmpccmr1 |= (uint16_t)(TIM_ICSelection | (uint16_t)(TIM_ICFilter << (uint16_t)4));
 8002836:	ea47 1704 	orr.w	r7, r7, r4, lsl #4

  /* Select the Polarity and set the CC1E Bit */
  tmpccer &= (uint16_t)~(TIM_CCER_CC1P | TIM_CCER_CC1NP);
 800283a:	ea4f 4c0c 	mov.w	ip, ip, lsl #16
  tmpccer |= (uint16_t)(TIM_ICPolarity | (uint16_t)TIM_CCER_CC1E);
 800283e:	f042 0201 	orr.w	r2, r2, #1
  tmpccmr1 = TIMx->CCMR1;
  tmpccer = TIMx->CCER;

  /* Select the Input and set the filter */
  tmpccmr1 &= ((uint16_t)~TIM_CCMR1_CC1S) & ((uint16_t)~TIM_CCMR1_IC1F);
  tmpccmr1 |= (uint16_t)(TIM_ICSelection | (uint16_t)(TIM_ICFilter << (uint16_t)4));
 8002842:	b2bf      	uxth	r7, r7

  /* Select the Polarity and set the CC1E Bit */
  tmpccer &= (uint16_t)~(TIM_CCER_CC1P | TIM_CCER_CC1NP);
 8002844:	ea4f 4c1c 	mov.w	ip, ip, lsr #16
  tmpccer |= (uint16_t)(TIM_ICPolarity | (uint16_t)TIM_CCER_CC1E);
 8002848:	ea4c 0c02 	orr.w	ip, ip, r2
  tmpccmr1 = TIMx->CCMR1;
  tmpccer = TIMx->CCER;

  /* Select the Input and set the filter */
  tmpccmr1 &= ((uint16_t)~TIM_CCMR1_CC1S) & ((uint16_t)~TIM_CCMR1_IC1F);
  tmpccmr1 |= (uint16_t)(TIM_ICSelection | (uint16_t)(TIM_ICFilter << (uint16_t)4));
 800284c:	ea47 0303 	orr.w	r3, r7, r3
  /* Select the Polarity and set the CC1E Bit */
  tmpccer &= (uint16_t)~(TIM_CCER_CC1P | TIM_CCER_CC1NP);
  tmpccer |= (uint16_t)(TIM_ICPolarity | (uint16_t)TIM_CCER_CC1E);

  /* Write to TIMx CCMR1 and CCER registers */
  TIMx->CCMR1 = tmpccmr1;
 8002850:	8303      	strh	r3, [r0, #24]
  TIMx->CCER = tmpccer;
 8002852:	f8a0 c020 	strh.w	ip, [r0, #32]
  /* Check the parameters */
  assert_param(IS_TIM_LIST1_PERIPH(TIMx));
  assert_param(IS_TIM_IC_PRESCALER(TIM_ICPSC));

  /* Reset the IC1PSC Bits */
  TIMx->CCMR1 &= (uint16_t)~TIM_CCMR1_IC1PSC;
 8002856:	f8b0 c018 	ldrh.w	ip, [r0, #24]
  {
    /* TI1 Configuration */
    TI1_Config(TIMx, TIM_ICInitStruct->TIM_ICPolarity, TIM_ICInitStruct->TIM_ICSelection,
               TIM_ICInitStruct->TIM_ICFilter);
    /* Set the Input Capture Prescaler value */
    TIM_SetIC1Prescaler(TIMx, TIM_ICInitStruct->TIM_ICPrescaler);
 800285a:	88c9      	ldrh	r1, [r1, #6]
  /* Check the parameters */
  assert_param(IS_TIM_LIST1_PERIPH(TIMx));
  assert_param(IS_TIM_IC_PRESCALER(TIM_ICPSC));

  /* Reset the IC1PSC Bits */
  TIMx->CCMR1 &= (uint16_t)~TIM_CCMR1_IC1PSC;
 800285c:	f02c 020c 	bic.w	r2, ip, #12
 8002860:	0413      	lsls	r3, r2, #16
 8002862:	0c1a      	lsrs	r2, r3, #16
 8002864:	8302      	strh	r2, [r0, #24]

  /* Set the IC1PSC value */
  TIMx->CCMR1 |= TIM_ICPSC;
 8002866:	8b03      	ldrh	r3, [r0, #24]
 8002868:	b29a      	uxth	r2, r3
 800286a:	430a      	orrs	r2, r1
 800286c:	8302      	strh	r2, [r0, #24]
                       uint16_t TIM_ICFilter)
{
  uint16_t tmpccmr1 = 0, tmpccer = 0, tmp = 0;

  /* Disable the Channel 2: Reset the CC2E Bit */
  TIMx->CCER &= (uint16_t)~TIM_CCER_CC2E;
 800286e:	f8b0 c020 	ldrh.w	ip, [r0, #32]
 8002872:	f02c 0310 	bic.w	r3, ip, #16
 8002876:	041a      	lsls	r2, r3, #16
 8002878:	0c13      	lsrs	r3, r2, #16
 800287a:	8403      	strh	r3, [r0, #32]
  tmpccmr1 = TIMx->CCMR1;
 800287c:	8b02      	ldrh	r2, [r0, #24]
  tmpccer = TIMx->CCER;
 800287e:	f8b0 c020 	ldrh.w	ip, [r0, #32]
  tmp = (uint16_t)(TIM_ICPolarity << 4);

  /* Select the Input and set the filter */
  tmpccmr1 &= ((uint16_t)~TIM_CCMR1_CC2S) & ((uint16_t)~TIM_CCMR1_IC2F);
 8002882:	f422 7340 	bic.w	r3, r2, #768	; 0x300
 8002886:	051a      	lsls	r2, r3, #20
  tmpccmr1 |= (uint16_t)(TIM_ICFilter << 12);
  tmpccmr1 |= (uint16_t)(TIM_ICSelection << 8);

  /* Select the Polarity and set the CC2E Bit */
  tmpccer &= (uint16_t)~(TIM_CCER_CC2P | TIM_CCER_CC2NP);
  tmpccer |=  (uint16_t)(tmp | (uint16_t)TIM_CCER_CC2E);
 8002888:	f02c 03a0 	bic.w	r3, ip, #160	; 0xa0
  tmpccmr1 = TIMx->CCMR1;
  tmpccer = TIMx->CCER;
  tmp = (uint16_t)(TIM_ICPolarity << 4);

  /* Select the Input and set the filter */
  tmpccmr1 &= ((uint16_t)~TIM_CCMR1_CC2S) & ((uint16_t)~TIM_CCMR1_IC2F);
 800288c:	0d12      	lsrs	r2, r2, #20
  tmpccmr1 |= (uint16_t)(TIM_ICFilter << 12);
  tmpccmr1 |= (uint16_t)(TIM_ICSelection << 8);

  /* Select the Polarity and set the CC2E Bit */
  tmpccer &= (uint16_t)~(TIM_CCER_CC2P | TIM_CCER_CC2NP);
  tmpccer |=  (uint16_t)(tmp | (uint16_t)TIM_CCER_CC2E);
 800288e:	041b      	lsls	r3, r3, #16
  tmpccer = TIMx->CCER;
  tmp = (uint16_t)(TIM_ICPolarity << 4);

  /* Select the Input and set the filter */
  tmpccmr1 &= ((uint16_t)~TIM_CCMR1_CC2S) & ((uint16_t)~TIM_CCMR1_IC2F);
  tmpccmr1 |= (uint16_t)(TIM_ICFilter << 12);
 8002890:	ea42 3c04 	orr.w	ip, r2, r4, lsl #12
  tmpccmr1 |= (uint16_t)(TIM_ICSelection << 8);

  /* Select the Polarity and set the CC2E Bit */
  tmpccer &= (uint16_t)~(TIM_CCER_CC2P | TIM_CCER_CC2NP);
  tmpccer |=  (uint16_t)(tmp | (uint16_t)TIM_CCER_CC2E);
 8002894:	0c1b      	lsrs	r3, r3, #16
  tmpccer = TIMx->CCER;
  tmp = (uint16_t)(TIM_ICPolarity << 4);

  /* Select the Input and set the filter */
  tmpccmr1 &= ((uint16_t)~TIM_CCMR1_CC2S) & ((uint16_t)~TIM_CCMR1_IC2F);
  tmpccmr1 |= (uint16_t)(TIM_ICFilter << 12);
 8002896:	fa1f f28c 	uxth.w	r2, ip
  tmpccmr1 |= (uint16_t)(TIM_ICSelection << 8);

  /* Select the Polarity and set the CC2E Bit */
  tmpccer &= (uint16_t)~(TIM_CCER_CC2P | TIM_CCER_CC2NP);
  tmpccer |=  (uint16_t)(tmp | (uint16_t)TIM_CCER_CC2E);
 800289a:	f043 0310 	orr.w	r3, r3, #16
  tmp = (uint16_t)(TIM_ICPolarity << 4);

  /* Select the Input and set the filter */
  tmpccmr1 &= ((uint16_t)~TIM_CCMR1_CC2S) & ((uint16_t)~TIM_CCMR1_IC2F);
  tmpccmr1 |= (uint16_t)(TIM_ICFilter << 12);
  tmpccmr1 |= (uint16_t)(TIM_ICSelection << 8);
 800289e:	ea42 2606 	orr.w	r6, r2, r6, lsl #8

  /* Select the Polarity and set the CC2E Bit */
  tmpccer &= (uint16_t)~(TIM_CCER_CC2P | TIM_CCER_CC2NP);
  tmpccer |=  (uint16_t)(tmp | (uint16_t)TIM_CCER_CC2E);
 80028a2:	ea43 1505 	orr.w	r5, r3, r5, lsl #4

  /* Write to TIMx CCMR1 and CCER registers */
  TIMx->CCMR1 = tmpccmr1 ;
 80028a6:	8306      	strh	r6, [r0, #24]
  TIMx->CCER = tmpccer;
 80028a8:	8405      	strh	r5, [r0, #32]
  /* Check the parameters */
  assert_param(IS_TIM_LIST2_PERIPH(TIMx));
  assert_param(IS_TIM_IC_PRESCALER(TIM_ICPSC));

  /* Reset the IC2PSC Bits */
  TIMx->CCMR1 &= (uint16_t)~TIM_CCMR1_IC2PSC;
 80028aa:	f8b0 c018 	ldrh.w	ip, [r0, #24]
 80028ae:	f42c 6240 	bic.w	r2, ip, #3072	; 0xc00
 80028b2:	0413      	lsls	r3, r2, #16
 80028b4:	0c1a      	lsrs	r2, r3, #16
 80028b6:	8302      	strh	r2, [r0, #24]

  /* Set the IC2PSC value */
  TIMx->CCMR1 |= (uint16_t)(TIM_ICPSC << 8);
 80028b8:	f8b0 c018 	ldrh.w	ip, [r0, #24]
 80028bc:	fa1f f38c 	uxth.w	r3, ip
 80028c0:	ea43 2201 	orr.w	r2, r3, r1, lsl #8
 80028c4:	b291      	uxth	r1, r2
 80028c6:	8301      	strh	r1, [r0, #24]
 80028c8:	e79d      	b.n	8002806 <TIM_PWMIConfig+0xd6>
 80028ca:	bf00      	nop

080028cc <TIM_GetCapture1>:
{
  /* Check the parameters */
  assert_param(IS_TIM_LIST1_PERIPH(TIMx));

  /* Get the Capture 1 Register value */
  return TIMx->CCR1;
 80028cc:	6b40      	ldr	r0, [r0, #52]	; 0x34
}
 80028ce:	4770      	bx	lr

080028d0 <TIM_GetCapture2>:
{
  /* Check the parameters */
  assert_param(IS_TIM_LIST2_PERIPH(TIMx));

  /* Get the Capture 2 Register value */
  return TIMx->CCR2;
 80028d0:	6b80      	ldr	r0, [r0, #56]	; 0x38
}
 80028d2:	4770      	bx	lr

080028d4 <TIM_GetCapture3>:
{
  /* Check the parameters */
  assert_param(IS_TIM_LIST3_PERIPH(TIMx)); 

  /* Get the Capture 3 Register value */
  return TIMx->CCR3;
 80028d4:	6bc0      	ldr	r0, [r0, #60]	; 0x3c
}
 80028d6:	4770      	bx	lr

080028d8 <TIM_GetCapture4>:
{
  /* Check the parameters */
  assert_param(IS_TIM_LIST3_PERIPH(TIMx));

  /* Get the Capture 4 Register value */
  return TIMx->CCR4;
 80028d8:	6c00      	ldr	r0, [r0, #64]	; 0x40
}
 80028da:	4770      	bx	lr

080028dc <TIM_SetIC1Prescaler>:
  /* Check the parameters */
  assert_param(IS_TIM_LIST1_PERIPH(TIMx));
  assert_param(IS_TIM_IC_PRESCALER(TIM_ICPSC));

  /* Reset the IC1PSC Bits */
  TIMx->CCMR1 &= (uint16_t)~TIM_CCMR1_IC1PSC;
 80028dc:	f8b0 c018 	ldrh.w	ip, [r0, #24]
 80028e0:	f02c 030c 	bic.w	r3, ip, #12
 80028e4:	041a      	lsls	r2, r3, #16
 80028e6:	0c13      	lsrs	r3, r2, #16
 80028e8:	8303      	strh	r3, [r0, #24]

  /* Set the IC1PSC value */
  TIMx->CCMR1 |= TIM_ICPSC;
 80028ea:	f8b0 c018 	ldrh.w	ip, [r0, #24]
 80028ee:	fa1f f28c 	uxth.w	r2, ip
 80028f2:	ea41 0302 	orr.w	r3, r1, r2
 80028f6:	8303      	strh	r3, [r0, #24]
}
 80028f8:	4770      	bx	lr
 80028fa:	bf00      	nop

080028fc <TIM_SetIC2Prescaler>:
  /* Check the parameters */
  assert_param(IS_TIM_LIST2_PERIPH(TIMx));
  assert_param(IS_TIM_IC_PRESCALER(TIM_ICPSC));

  /* Reset the IC2PSC Bits */
  TIMx->CCMR1 &= (uint16_t)~TIM_CCMR1_IC2PSC;
 80028fc:	f8b0 c018 	ldrh.w	ip, [r0, #24]
 8002900:	f42c 6240 	bic.w	r2, ip, #3072	; 0xc00
 8002904:	0413      	lsls	r3, r2, #16
 8002906:	0c1a      	lsrs	r2, r3, #16
 8002908:	8302      	strh	r2, [r0, #24]

  /* Set the IC2PSC value */
  TIMx->CCMR1 |= (uint16_t)(TIM_ICPSC << 8);
 800290a:	8b03      	ldrh	r3, [r0, #24]
 800290c:	fa1f fc83 	uxth.w	ip, r3
 8002910:	ea4c 2201 	orr.w	r2, ip, r1, lsl #8
 8002914:	b293      	uxth	r3, r2
 8002916:	8303      	strh	r3, [r0, #24]
}
 8002918:	4770      	bx	lr
 800291a:	bf00      	nop

0800291c <TIM_SetIC3Prescaler>:
  /* Check the parameters */
  assert_param(IS_TIM_LIST3_PERIPH(TIMx));
  assert_param(IS_TIM_IC_PRESCALER(TIM_ICPSC));

  /* Reset the IC3PSC Bits */
  TIMx->CCMR2 &= (uint16_t)~TIM_CCMR2_IC3PSC;
 800291c:	f8b0 c01c 	ldrh.w	ip, [r0, #28]
 8002920:	f02c 030c 	bic.w	r3, ip, #12
 8002924:	041a      	lsls	r2, r3, #16
 8002926:	0c13      	lsrs	r3, r2, #16
 8002928:	8383      	strh	r3, [r0, #28]

  /* Set the IC3PSC value */
  TIMx->CCMR2 |= TIM_ICPSC;
 800292a:	f8b0 c01c 	ldrh.w	ip, [r0, #28]
 800292e:	fa1f f28c 	uxth.w	r2, ip
 8002932:	ea41 0302 	orr.w	r3, r1, r2
 8002936:	8383      	strh	r3, [r0, #28]
}
 8002938:	4770      	bx	lr
 800293a:	bf00      	nop

0800293c <TIM_SetIC4Prescaler>:
  /* Check the parameters */
  assert_param(IS_TIM_LIST3_PERIPH(TIMx));
  assert_param(IS_TIM_IC_PRESCALER(TIM_ICPSC));

  /* Reset the IC4PSC Bits */
  TIMx->CCMR2 &= (uint16_t)~TIM_CCMR2_IC4PSC;
 800293c:	f8b0 c01c 	ldrh.w	ip, [r0, #28]
 8002940:	f42c 6240 	bic.w	r2, ip, #3072	; 0xc00
 8002944:	0413      	lsls	r3, r2, #16
 8002946:	0c1a      	lsrs	r2, r3, #16
 8002948:	8382      	strh	r2, [r0, #28]

  /* Set the IC4PSC value */
  TIMx->CCMR2 |= (uint16_t)(TIM_ICPSC << 8);
 800294a:	8b83      	ldrh	r3, [r0, #28]
 800294c:	fa1f fc83 	uxth.w	ip, r3
 8002950:	ea4c 2201 	orr.w	r2, ip, r1, lsl #8
 8002954:	b293      	uxth	r3, r2
 8002956:	8383      	strh	r3, [r0, #28]
}
 8002958:	4770      	bx	lr
 800295a:	bf00      	nop

0800295c <TIM_BDTRConfig>:
  assert_param(IS_TIM_BREAK_POLARITY(TIM_BDTRInitStruct->TIM_BreakPolarity));
  assert_param(IS_TIM_AUTOMATIC_OUTPUT_STATE(TIM_BDTRInitStruct->TIM_AutomaticOutput));

  /* Set the Lock level, the Break enable Bit and the Polarity, the OSSR State,
     the OSSI State, the dead time value and the Automatic Output Enable Bit */
  TIMx->BDTR = (uint32_t)TIM_BDTRInitStruct->TIM_OSSRState | TIM_BDTRInitStruct->TIM_OSSIState |
 800295c:	f8b1 c002 	ldrh.w	ip, [r1, #2]
 8002960:	880b      	ldrh	r3, [r1, #0]
 8002962:	888a      	ldrh	r2, [r1, #4]
 8002964:	ea4c 0303 	orr.w	r3, ip, r3
 8002968:	f8b1 c006 	ldrh.w	ip, [r1, #6]
 800296c:	4313      	orrs	r3, r2
 800296e:	890a      	ldrh	r2, [r1, #8]
 8002970:	ea43 030c 	orr.w	r3, r3, ip
 8002974:	f8b1 c00a 	ldrh.w	ip, [r1, #10]
 8002978:	4313      	orrs	r3, r2
 800297a:	898a      	ldrh	r2, [r1, #12]
 800297c:	ea43 010c 	orr.w	r1, r3, ip
 8002980:	4311      	orrs	r1, r2
 8002982:	b28b      	uxth	r3, r1
 8002984:	f8a0 3044 	strh.w	r3, [r0, #68]	; 0x44
             TIM_BDTRInitStruct->TIM_LOCKLevel | TIM_BDTRInitStruct->TIM_DeadTime |
             TIM_BDTRInitStruct->TIM_Break | TIM_BDTRInitStruct->TIM_BreakPolarity |
             TIM_BDTRInitStruct->TIM_AutomaticOutput;
}
 8002988:	4770      	bx	lr
 800298a:	bf00      	nop

0800298c <TIM_BDTRStructInit>:
  * @retval None
  */
void TIM_BDTRStructInit(TIM_BDTRInitTypeDef* TIM_BDTRInitStruct)
{
  /* Set the default configuration */
  TIM_BDTRInitStruct->TIM_OSSRState = TIM_OSSRState_Disable;
 800298c:	2300      	movs	r3, #0
  TIM_BDTRInitStruct->TIM_OSSIState = TIM_OSSIState_Disable;
  TIM_BDTRInitStruct->TIM_LOCKLevel = TIM_LOCKLevel_OFF;
  TIM_BDTRInitStruct->TIM_DeadTime = 0x00;
  TIM_BDTRInitStruct->TIM_Break = TIM_Break_Disable;
  TIM_BDTRInitStruct->TIM_BreakPolarity = TIM_BreakPolarity_Low;
  TIM_BDTRInitStruct->TIM_AutomaticOutput = TIM_AutomaticOutput_Disable;
 800298e:	8183      	strh	r3, [r0, #12]
  * @retval None
  */
void TIM_BDTRStructInit(TIM_BDTRInitTypeDef* TIM_BDTRInitStruct)
{
  /* Set the default configuration */
  TIM_BDTRInitStruct->TIM_OSSRState = TIM_OSSRState_Disable;
 8002990:	8003      	strh	r3, [r0, #0]
  TIM_BDTRInitStruct->TIM_OSSIState = TIM_OSSIState_Disable;
 8002992:	8043      	strh	r3, [r0, #2]
  TIM_BDTRInitStruct->TIM_LOCKLevel = TIM_LOCKLevel_OFF;
 8002994:	8083      	strh	r3, [r0, #4]
  TIM_BDTRInitStruct->TIM_DeadTime = 0x00;
 8002996:	80c3      	strh	r3, [r0, #6]
  TIM_BDTRInitStruct->TIM_Break = TIM_Break_Disable;
 8002998:	8103      	strh	r3, [r0, #8]
  TIM_BDTRInitStruct->TIM_BreakPolarity = TIM_BreakPolarity_Low;
 800299a:	8143      	strh	r3, [r0, #10]
  TIM_BDTRInitStruct->TIM_AutomaticOutput = TIM_AutomaticOutput_Disable;
}
 800299c:	4770      	bx	lr
 800299e:	bf00      	nop

080029a0 <TIM_CtrlPWMOutputs>:
{
  /* Check the parameters */
  assert_param(IS_TIM_LIST4_PERIPH(TIMx));
  assert_param(IS_FUNCTIONAL_STATE(NewState));

  if (NewState != DISABLE)
 80029a0:	b931      	cbnz	r1, 80029b0 <TIM_CtrlPWMOutputs+0x10>
    TIMx->BDTR |= TIM_BDTR_MOE;
  }
  else
  {
    /* Disable the TIM Main Output */
    TIMx->BDTR &= (uint16_t)~TIM_BDTR_MOE;
 80029a2:	f8b0 2044 	ldrh.w	r2, [r0, #68]	; 0x44
 80029a6:	0451      	lsls	r1, r2, #17
 80029a8:	0c4b      	lsrs	r3, r1, #17
 80029aa:	f8a0 3044 	strh.w	r3, [r0, #68]	; 0x44
 80029ae:	4770      	bx	lr
  assert_param(IS_FUNCTIONAL_STATE(NewState));

  if (NewState != DISABLE)
  {
    /* Enable the TIM Main Output */
    TIMx->BDTR |= TIM_BDTR_MOE;
 80029b0:	f8b0 2044 	ldrh.w	r2, [r0, #68]	; 0x44
 80029b4:	b291      	uxth	r1, r2
 80029b6:	f441 4300 	orr.w	r3, r1, #32768	; 0x8000
 80029ba:	f8a0 3044 	strh.w	r3, [r0, #68]	; 0x44
 80029be:	4770      	bx	lr

080029c0 <TIM_SelectCOM>:
{
  /* Check the parameters */
  assert_param(IS_TIM_LIST4_PERIPH(TIMx));
  assert_param(IS_FUNCTIONAL_STATE(NewState));

  if (NewState != DISABLE)
 80029c0:	b939      	cbnz	r1, 80029d2 <TIM_SelectCOM+0x12>
    TIMx->CR2 |= TIM_CR2_CCUS;
  }
  else
  {
    /* Reset the COM Bit */
    TIMx->CR2 &= (uint16_t)~TIM_CR2_CCUS;
 80029c2:	f8b0 c004 	ldrh.w	ip, [r0, #4]
 80029c6:	f02c 0204 	bic.w	r2, ip, #4
 80029ca:	0411      	lsls	r1, r2, #16
 80029cc:	0c0b      	lsrs	r3, r1, #16
 80029ce:	8083      	strh	r3, [r0, #4]
 80029d0:	4770      	bx	lr
  assert_param(IS_FUNCTIONAL_STATE(NewState));

  if (NewState != DISABLE)
  {
    /* Set the COM Bit */
    TIMx->CR2 |= TIM_CR2_CCUS;
 80029d2:	8882      	ldrh	r2, [r0, #4]
 80029d4:	b291      	uxth	r1, r2
 80029d6:	f041 0304 	orr.w	r3, r1, #4
 80029da:	8083      	strh	r3, [r0, #4]
 80029dc:	4770      	bx	lr
 80029de:	bf00      	nop

080029e0 <TIM_CCPreloadControl>:
void TIM_CCPreloadControl(TIM_TypeDef* TIMx, FunctionalState NewState)
{ 
  /* Check the parameters */
  assert_param(IS_TIM_LIST4_PERIPH(TIMx));
  assert_param(IS_FUNCTIONAL_STATE(NewState));
  if (NewState != DISABLE)
 80029e0:	b939      	cbnz	r1, 80029f2 <TIM_CCPreloadControl+0x12>
    TIMx->CR2 |= TIM_CR2_CCPC;
  }
  else
  {
    /* Reset the CCPC Bit */
    TIMx->CR2 &= (uint16_t)~TIM_CR2_CCPC;
 80029e2:	f8b0 c004 	ldrh.w	ip, [r0, #4]
 80029e6:	f02c 0201 	bic.w	r2, ip, #1
 80029ea:	0411      	lsls	r1, r2, #16
 80029ec:	0c0b      	lsrs	r3, r1, #16
 80029ee:	8083      	strh	r3, [r0, #4]
 80029f0:	4770      	bx	lr
  assert_param(IS_TIM_LIST4_PERIPH(TIMx));
  assert_param(IS_FUNCTIONAL_STATE(NewState));
  if (NewState != DISABLE)
  {
    /* Set the CCPC Bit */
    TIMx->CR2 |= TIM_CR2_CCPC;
 80029f2:	8882      	ldrh	r2, [r0, #4]
 80029f4:	b291      	uxth	r1, r2
 80029f6:	f041 0301 	orr.w	r3, r1, #1
 80029fa:	8083      	strh	r3, [r0, #4]
 80029fc:	4770      	bx	lr
 80029fe:	bf00      	nop

08002a00 <TIM_ITConfig>:
  /* Check the parameters */
  assert_param(IS_TIM_ALL_PERIPH(TIMx));
  assert_param(IS_TIM_IT(TIM_IT));
  assert_param(IS_FUNCTIONAL_STATE(NewState));
  
  if (NewState != DISABLE)
 8002a00:	b932      	cbnz	r2, 8002a10 <TIM_ITConfig+0x10>
    TIMx->DIER |= TIM_IT;
  }
  else
  {
    /* Disable the Interrupt sources */
    TIMx->DIER &= (uint16_t)~TIM_IT;
 8002a02:	8983      	ldrh	r3, [r0, #12]
 8002a04:	fa1f fc83 	uxth.w	ip, r3
 8002a08:	ea2c 0101 	bic.w	r1, ip, r1
 8002a0c:	8181      	strh	r1, [r0, #12]
 8002a0e:	4770      	bx	lr
  assert_param(IS_FUNCTIONAL_STATE(NewState));
  
  if (NewState != DISABLE)
  {
    /* Enable the Interrupt sources */
    TIMx->DIER |= TIM_IT;
 8002a10:	8982      	ldrh	r2, [r0, #12]
 8002a12:	b293      	uxth	r3, r2
 8002a14:	4319      	orrs	r1, r3
 8002a16:	8181      	strh	r1, [r0, #12]
 8002a18:	4770      	bx	lr
 8002a1a:	bf00      	nop

08002a1c <TIM_GenerateEvent>:
  /* Check the parameters */
  assert_param(IS_TIM_ALL_PERIPH(TIMx));
  assert_param(IS_TIM_EVENT_SOURCE(TIM_EventSource));
 
  /* Set the event sources */
  TIMx->EGR = TIM_EventSource;
 8002a1c:	8281      	strh	r1, [r0, #20]
}
 8002a1e:	4770      	bx	lr

08002a20 <TIM_GetFlagStatus>:
  /* Check the parameters */
  assert_param(IS_TIM_ALL_PERIPH(TIMx));
  assert_param(IS_TIM_GET_FLAG(TIM_FLAG));

  
  if ((TIMx->SR & TIM_FLAG) != (uint16_t)RESET)
 8002a20:	8a03      	ldrh	r3, [r0, #16]
 8002a22:	4219      	tst	r1, r3
  else
  {
    bitstatus = RESET;
  }
  return bitstatus;
}
 8002a24:	bf0c      	ite	eq
 8002a26:	2000      	moveq	r0, #0
 8002a28:	2001      	movne	r0, #1
 8002a2a:	4770      	bx	lr

08002a2c <TIM_ClearFlag>:
{  
  /* Check the parameters */
  assert_param(IS_TIM_ALL_PERIPH(TIMx));
   
  /* Clear the flags */
  TIMx->SR = (uint16_t)~TIM_FLAG;
 8002a2c:	43ca      	mvns	r2, r1
 8002a2e:	b291      	uxth	r1, r2
 8002a30:	8201      	strh	r1, [r0, #16]
}
 8002a32:	4770      	bx	lr

08002a34 <TIM_GetITStatus>:
  uint16_t itstatus = 0x0, itenable = 0x0;
  /* Check the parameters */
  assert_param(IS_TIM_ALL_PERIPH(TIMx));
  assert_param(IS_TIM_GET_IT(TIM_IT));
   
  itstatus = TIMx->SR & TIM_IT;
 8002a34:	8a03      	ldrh	r3, [r0, #16]
  
  itenable = TIMx->DIER & TIM_IT;
 8002a36:	8982      	ldrh	r2, [r0, #12]
 8002a38:	4211      	tst	r1, r2
 8002a3a:	bf0c      	ite	eq
 8002a3c:	2000      	moveq	r0, #0
 8002a3e:	2001      	movne	r0, #1
 8002a40:	4219      	tst	r1, r3
  else
  {
    bitstatus = RESET;
  }
  return bitstatus;
}
 8002a42:	bf0c      	ite	eq
 8002a44:	2000      	moveq	r0, #0
 8002a46:	f000 0001 	andne.w	r0, r0, #1
 8002a4a:	4770      	bx	lr

08002a4c <TIM_ClearITPendingBit>:
{
  /* Check the parameters */
  assert_param(IS_TIM_ALL_PERIPH(TIMx));

  /* Clear the IT pending Bit */
  TIMx->SR = (uint16_t)~TIM_IT;
 8002a4c:	43ca      	mvns	r2, r1
 8002a4e:	b291      	uxth	r1, r2
 8002a50:	8201      	strh	r1, [r0, #16]
}
 8002a52:	4770      	bx	lr

08002a54 <TIM_DMAConfig>:
  assert_param(IS_TIM_LIST3_PERIPH(TIMx));
  assert_param(IS_TIM_DMA_BASE(TIM_DMABase)); 
  assert_param(IS_TIM_DMA_LENGTH(TIM_DMABurstLength));

  /* Set the DMA Base and the DMA Burst Length */
  TIMx->DCR = TIM_DMABase | TIM_DMABurstLength;
 8002a54:	430a      	orrs	r2, r1
 8002a56:	f8a0 2048 	strh.w	r2, [r0, #72]	; 0x48
}
 8002a5a:	4770      	bx	lr

08002a5c <TIM_DMACmd>:
  /* Check the parameters */
  assert_param(IS_TIM_LIST5_PERIPH(TIMx)); 
  assert_param(IS_TIM_DMA_SOURCE(TIM_DMASource));
  assert_param(IS_FUNCTIONAL_STATE(NewState));
  
  if (NewState != DISABLE)
 8002a5c:	b932      	cbnz	r2, 8002a6c <TIM_DMACmd+0x10>
    TIMx->DIER |= TIM_DMASource; 
  }
  else
  {
    /* Disable the DMA sources */
    TIMx->DIER &= (uint16_t)~TIM_DMASource;
 8002a5e:	8983      	ldrh	r3, [r0, #12]
 8002a60:	fa1f fc83 	uxth.w	ip, r3
 8002a64:	ea2c 0101 	bic.w	r1, ip, r1
 8002a68:	8181      	strh	r1, [r0, #12]
 8002a6a:	4770      	bx	lr
  assert_param(IS_FUNCTIONAL_STATE(NewState));
  
  if (NewState != DISABLE)
  {
    /* Enable the DMA sources */
    TIMx->DIER |= TIM_DMASource; 
 8002a6c:	8982      	ldrh	r2, [r0, #12]
 8002a6e:	b293      	uxth	r3, r2
 8002a70:	4319      	orrs	r1, r3
 8002a72:	8181      	strh	r1, [r0, #12]
 8002a74:	4770      	bx	lr
 8002a76:	bf00      	nop

08002a78 <TIM_SelectCCDMA>:
{
  /* Check the parameters */
  assert_param(IS_TIM_LIST3_PERIPH(TIMx));
  assert_param(IS_FUNCTIONAL_STATE(NewState));

  if (NewState != DISABLE)
 8002a78:	b939      	cbnz	r1, 8002a8a <TIM_SelectCCDMA+0x12>
    TIMx->CR2 |= TIM_CR2_CCDS;
  }
  else
  {
    /* Reset the CCDS Bit */
    TIMx->CR2 &= (uint16_t)~TIM_CR2_CCDS;
 8002a7a:	f8b0 c004 	ldrh.w	ip, [r0, #4]
 8002a7e:	f02c 0208 	bic.w	r2, ip, #8
 8002a82:	0411      	lsls	r1, r2, #16
 8002a84:	0c0b      	lsrs	r3, r1, #16
 8002a86:	8083      	strh	r3, [r0, #4]
 8002a88:	4770      	bx	lr
  assert_param(IS_FUNCTIONAL_STATE(NewState));

  if (NewState != DISABLE)
  {
    /* Set the CCDS Bit */
    TIMx->CR2 |= TIM_CR2_CCDS;
 8002a8a:	8882      	ldrh	r2, [r0, #4]
 8002a8c:	b291      	uxth	r1, r2
 8002a8e:	f041 0308 	orr.w	r3, r1, #8
 8002a92:	8083      	strh	r3, [r0, #4]
 8002a94:	4770      	bx	lr
 8002a96:	bf00      	nop

08002a98 <TIM_InternalClockConfig>:
{
  /* Check the parameters */
  assert_param(IS_TIM_LIST2_PERIPH(TIMx));

  /* Disable slave mode to clock the prescaler directly with the internal clock */
  TIMx->SMCR &=  (uint16_t)~TIM_SMCR_SMS;
 8002a98:	f8b0 c008 	ldrh.w	ip, [r0, #8]
 8002a9c:	f02c 0207 	bic.w	r2, ip, #7
 8002aa0:	0411      	lsls	r1, r2, #16
 8002aa2:	0c0b      	lsrs	r3, r1, #16
 8002aa4:	8103      	strh	r3, [r0, #8]
}
 8002aa6:	4770      	bx	lr

08002aa8 <TIM_ITRxExternalClockConfig>:
  /* Check the parameters */
  assert_param(IS_TIM_LIST1_PERIPH(TIMx)); 
  assert_param(IS_TIM_TRIGGER_SELECTION(TIM_InputTriggerSource));

  /* Get the TIMx SMCR register value */
  tmpsmcr = TIMx->SMCR;
 8002aa8:	f8b0 c008 	ldrh.w	ip, [r0, #8]

  /* Reset the TS Bits */
  tmpsmcr &= (uint16_t)~TIM_SMCR_TS;
 8002aac:	f02c 0370 	bic.w	r3, ip, #112	; 0x70
 8002ab0:	041a      	lsls	r2, r3, #16
 8002ab2:	0c13      	lsrs	r3, r2, #16

  /* Set the Input Trigger source */
  tmpsmcr |= TIM_InputTriggerSource;
 8002ab4:	ea41 0c03 	orr.w	ip, r1, r3

  /* Write to TIMx SMCR */
  TIMx->SMCR = tmpsmcr;
 8002ab8:	f8a0 c008 	strh.w	ip, [r0, #8]

  /* Select the Internal Trigger */
  TIM_SelectInputTrigger(TIMx, TIM_InputTriggerSource);

  /* Select the External clock mode1 */
  TIMx->SMCR |= TIM_SlaveMode_External1;
 8002abc:	8902      	ldrh	r2, [r0, #8]
 8002abe:	b291      	uxth	r1, r2
 8002ac0:	f041 0307 	orr.w	r3, r1, #7
 8002ac4:	8103      	strh	r3, [r0, #8]
}
 8002ac6:	4770      	bx	lr

08002ac8 <TIM_TIxExternalClockConfig>:
  assert_param(IS_TIM_LIST1_PERIPH(TIMx));
  assert_param(IS_TIM_IC_POLARITY(TIM_ICPolarity));
  assert_param(IS_TIM_IC_FILTER(ICFilter));

  /* Configure the Timer Input Clock Source */
  if (TIM_TIxExternalCLKSource == TIM_TIxExternalCLK1Source_TI2)
 8002ac8:	2960      	cmp	r1, #96	; 0x60
  *          This parameter must be a value between 0x0 and 0xF.
  * @retval None
  */
void TIM_TIxExternalClockConfig(TIM_TypeDef* TIMx, uint16_t TIM_TIxExternalCLKSource,
                                uint16_t TIM_ICPolarity, uint16_t ICFilter)
{
 8002aca:	b410      	push	{r4}
                       uint16_t TIM_ICFilter)
{
  uint16_t tmpccmr1 = 0, tmpccer = 0, tmp = 0;

  /* Disable the Channel 2: Reset the CC2E Bit */
  TIMx->CCER &= (uint16_t)~TIM_CCER_CC2E;
 8002acc:	f8b0 c020 	ldrh.w	ip, [r0, #32]
  assert_param(IS_TIM_LIST1_PERIPH(TIMx));
  assert_param(IS_TIM_IC_POLARITY(TIM_ICPolarity));
  assert_param(IS_TIM_IC_FILTER(ICFilter));

  /* Configure the Timer Input Clock Source */
  if (TIM_TIxExternalCLKSource == TIM_TIxExternalCLK1Source_TI2)
 8002ad0:	d02e      	beq.n	8002b30 <TIM_TIxExternalClockConfig+0x68>
                       uint16_t TIM_ICFilter)
{
  uint16_t tmpccmr1 = 0, tmpccer = 0;

  /* Disable the Channel 1: Reset the CC1E Bit */
  TIMx->CCER &= (uint16_t)~TIM_CCER_CC1E;
 8002ad2:	f02c 0c01 	bic.w	ip, ip, #1
 8002ad6:	ea4f 440c 	mov.w	r4, ip, lsl #16
 8002ada:	ea4f 4c14 	mov.w	ip, r4, lsr #16
 8002ade:	f8a0 c020 	strh.w	ip, [r0, #32]
  tmpccmr1 = TIMx->CCMR1;
 8002ae2:	8b04      	ldrh	r4, [r0, #24]
  tmpccer = TIMx->CCER;
 8002ae4:	f8b0 c020 	ldrh.w	ip, [r0, #32]

  /* Select the Input and set the filter */
  tmpccmr1 &= ((uint16_t)~TIM_CCMR1_CC1S) & ((uint16_t)~TIM_CCMR1_IC1F);
  tmpccmr1 |= (uint16_t)(TIM_ICSelection | (uint16_t)(TIM_ICFilter << (uint16_t)4));
 8002ae8:	f024 04f3 	bic.w	r4, r4, #243	; 0xf3
 8002aec:	0424      	lsls	r4, r4, #16

  /* Select the Polarity and set the CC1E Bit */
  tmpccer &= (uint16_t)~(TIM_CCER_CC1P | TIM_CCER_CC1NP);
  tmpccer |= (uint16_t)(TIM_ICPolarity | (uint16_t)TIM_CCER_CC1E);
 8002aee:	f02c 0c0a 	bic.w	ip, ip, #10
  tmpccmr1 = TIMx->CCMR1;
  tmpccer = TIMx->CCER;

  /* Select the Input and set the filter */
  tmpccmr1 &= ((uint16_t)~TIM_CCMR1_CC1S) & ((uint16_t)~TIM_CCMR1_IC1F);
  tmpccmr1 |= (uint16_t)(TIM_ICSelection | (uint16_t)(TIM_ICFilter << (uint16_t)4));
 8002af2:	0c24      	lsrs	r4, r4, #16

  /* Select the Polarity and set the CC1E Bit */
  tmpccer &= (uint16_t)~(TIM_CCER_CC1P | TIM_CCER_CC1NP);
  tmpccer |= (uint16_t)(TIM_ICPolarity | (uint16_t)TIM_CCER_CC1E);
 8002af4:	ea4f 4c0c 	mov.w	ip, ip, lsl #16
  tmpccmr1 = TIMx->CCMR1;
  tmpccer = TIMx->CCER;

  /* Select the Input and set the filter */
  tmpccmr1 &= ((uint16_t)~TIM_CCMR1_CC1S) & ((uint16_t)~TIM_CCMR1_IC1F);
  tmpccmr1 |= (uint16_t)(TIM_ICSelection | (uint16_t)(TIM_ICFilter << (uint16_t)4));
 8002af8:	f044 0401 	orr.w	r4, r4, #1

  /* Select the Polarity and set the CC1E Bit */
  tmpccer &= (uint16_t)~(TIM_CCER_CC1P | TIM_CCER_CC1NP);
  tmpccer |= (uint16_t)(TIM_ICPolarity | (uint16_t)TIM_CCER_CC1E);
 8002afc:	ea4f 4c1c 	mov.w	ip, ip, lsr #16
  tmpccmr1 = TIMx->CCMR1;
  tmpccer = TIMx->CCER;

  /* Select the Input and set the filter */
  tmpccmr1 &= ((uint16_t)~TIM_CCMR1_CC1S) & ((uint16_t)~TIM_CCMR1_IC1F);
  tmpccmr1 |= (uint16_t)(TIM_ICSelection | (uint16_t)(TIM_ICFilter << (uint16_t)4));
 8002b00:	ea44 1303 	orr.w	r3, r4, r3, lsl #4

  /* Select the Polarity and set the CC1E Bit */
  tmpccer &= (uint16_t)~(TIM_CCER_CC1P | TIM_CCER_CC1NP);
  tmpccer |= (uint16_t)(TIM_ICPolarity | (uint16_t)TIM_CCER_CC1E);
 8002b04:	f04c 0c01 	orr.w	ip, ip, #1
 8002b08:	ea4c 0202 	orr.w	r2, ip, r2
  tmpccmr1 = TIMx->CCMR1;
  tmpccer = TIMx->CCER;

  /* Select the Input and set the filter */
  tmpccmr1 &= ((uint16_t)~TIM_CCMR1_CC1S) & ((uint16_t)~TIM_CCMR1_IC1F);
  tmpccmr1 |= (uint16_t)(TIM_ICSelection | (uint16_t)(TIM_ICFilter << (uint16_t)4));
 8002b0c:	b29b      	uxth	r3, r3
  /* Select the Polarity and set the CC1E Bit */
  tmpccer &= (uint16_t)~(TIM_CCER_CC1P | TIM_CCER_CC1NP);
  tmpccer |= (uint16_t)(TIM_ICPolarity | (uint16_t)TIM_CCER_CC1E);

  /* Write to TIMx CCMR1 and CCER registers */
  TIMx->CCMR1 = tmpccmr1;
 8002b0e:	8303      	strh	r3, [r0, #24]
  TIMx->CCER = tmpccer;
 8002b10:	8402      	strh	r2, [r0, #32]
  /* Check the parameters */
  assert_param(IS_TIM_LIST1_PERIPH(TIMx)); 
  assert_param(IS_TIM_TRIGGER_SELECTION(TIM_InputTriggerSource));

  /* Get the TIMx SMCR register value */
  tmpsmcr = TIMx->SMCR;
 8002b12:	f8b0 c008 	ldrh.w	ip, [r0, #8]

  /* Reset the TS Bits */
  tmpsmcr &= (uint16_t)~TIM_SMCR_TS;
 8002b16:	f02c 0270 	bic.w	r2, ip, #112	; 0x70
 8002b1a:	0413      	lsls	r3, r2, #16
 8002b1c:	0c1a      	lsrs	r2, r3, #16

  /* Set the Input Trigger source */
  tmpsmcr |= TIM_InputTriggerSource;
 8002b1e:	4311      	orrs	r1, r2

  /* Write to TIMx SMCR */
  TIMx->SMCR = tmpsmcr;
 8002b20:	8101      	strh	r1, [r0, #8]
    TI1_Config(TIMx, TIM_ICPolarity, TIM_ICSelection_DirectTI, ICFilter);
  }
  /* Select the Trigger source */
  TIM_SelectInputTrigger(TIMx, TIM_TIxExternalCLKSource);
  /* Select the External clock mode1 */
  TIMx->SMCR |= TIM_SlaveMode_External1;
 8002b22:	8903      	ldrh	r3, [r0, #8]
 8002b24:	b29a      	uxth	r2, r3
 8002b26:	f042 0107 	orr.w	r1, r2, #7
 8002b2a:	8101      	strh	r1, [r0, #8]
}
 8002b2c:	bc10      	pop	{r4}
 8002b2e:	4770      	bx	lr
                       uint16_t TIM_ICFilter)
{
  uint16_t tmpccmr1 = 0, tmpccer = 0, tmp = 0;

  /* Disable the Channel 2: Reset the CC2E Bit */
  TIMx->CCER &= (uint16_t)~TIM_CCER_CC2E;
 8002b30:	f02c 0c10 	bic.w	ip, ip, #16
 8002b34:	ea4f 440c 	mov.w	r4, ip, lsl #16
 8002b38:	ea4f 4c14 	mov.w	ip, r4, lsr #16
 8002b3c:	f8a0 c020 	strh.w	ip, [r0, #32]
  tmpccmr1 = TIMx->CCMR1;
 8002b40:	8b04      	ldrh	r4, [r0, #24]
  tmpccer = TIMx->CCER;
 8002b42:	f8b0 c020 	ldrh.w	ip, [r0, #32]
  tmp = (uint16_t)(TIM_ICPolarity << 4);

  /* Select the Input and set the filter */
  tmpccmr1 &= ((uint16_t)~TIM_CCMR1_CC2S) & ((uint16_t)~TIM_CCMR1_IC2F);
 8002b46:	f424 7440 	bic.w	r4, r4, #768	; 0x300
  tmpccmr1 |= (uint16_t)(TIM_ICFilter << 12);
  tmpccmr1 |= (uint16_t)(TIM_ICSelection << 8);

  /* Select the Polarity and set the CC2E Bit */
  tmpccer &= (uint16_t)~(TIM_CCER_CC2P | TIM_CCER_CC2NP);
  tmpccer |=  (uint16_t)(tmp | (uint16_t)TIM_CCER_CC2E);
 8002b4a:	f02c 0ca0 	bic.w	ip, ip, #160	; 0xa0
  tmpccmr1 = TIMx->CCMR1;
  tmpccer = TIMx->CCER;
  tmp = (uint16_t)(TIM_ICPolarity << 4);

  /* Select the Input and set the filter */
  tmpccmr1 &= ((uint16_t)~TIM_CCMR1_CC2S) & ((uint16_t)~TIM_CCMR1_IC2F);
 8002b4e:	0524      	lsls	r4, r4, #20
  tmpccmr1 |= (uint16_t)(TIM_ICFilter << 12);
  tmpccmr1 |= (uint16_t)(TIM_ICSelection << 8);

  /* Select the Polarity and set the CC2E Bit */
  tmpccer &= (uint16_t)~(TIM_CCER_CC2P | TIM_CCER_CC2NP);
  tmpccer |=  (uint16_t)(tmp | (uint16_t)TIM_CCER_CC2E);
 8002b50:	ea4f 4c0c 	mov.w	ip, ip, lsl #16
  tmpccmr1 = TIMx->CCMR1;
  tmpccer = TIMx->CCER;
  tmp = (uint16_t)(TIM_ICPolarity << 4);

  /* Select the Input and set the filter */
  tmpccmr1 &= ((uint16_t)~TIM_CCMR1_CC2S) & ((uint16_t)~TIM_CCMR1_IC2F);
 8002b54:	0d24      	lsrs	r4, r4, #20
  tmpccmr1 |= (uint16_t)(TIM_ICFilter << 12);
  tmpccmr1 |= (uint16_t)(TIM_ICSelection << 8);

  /* Select the Polarity and set the CC2E Bit */
  tmpccer &= (uint16_t)~(TIM_CCER_CC2P | TIM_CCER_CC2NP);
  tmpccer |=  (uint16_t)(tmp | (uint16_t)TIM_CCER_CC2E);
 8002b56:	ea4f 4c1c 	mov.w	ip, ip, lsr #16
  tmpccer = TIMx->CCER;
  tmp = (uint16_t)(TIM_ICPolarity << 4);

  /* Select the Input and set the filter */
  tmpccmr1 &= ((uint16_t)~TIM_CCMR1_CC2S) & ((uint16_t)~TIM_CCMR1_IC2F);
  tmpccmr1 |= (uint16_t)(TIM_ICFilter << 12);
 8002b5a:	f444 7480 	orr.w	r4, r4, #256	; 0x100
  tmpccmr1 |= (uint16_t)(TIM_ICSelection << 8);

  /* Select the Polarity and set the CC2E Bit */
  tmpccer &= (uint16_t)~(TIM_CCER_CC2P | TIM_CCER_CC2NP);
  tmpccer |=  (uint16_t)(tmp | (uint16_t)TIM_CCER_CC2E);
 8002b5e:	f04c 0c10 	orr.w	ip, ip, #16
  tmp = (uint16_t)(TIM_ICPolarity << 4);

  /* Select the Input and set the filter */
  tmpccmr1 &= ((uint16_t)~TIM_CCMR1_CC2S) & ((uint16_t)~TIM_CCMR1_IC2F);
  tmpccmr1 |= (uint16_t)(TIM_ICFilter << 12);
  tmpccmr1 |= (uint16_t)(TIM_ICSelection << 8);
 8002b62:	ea44 3303 	orr.w	r3, r4, r3, lsl #12

  /* Select the Polarity and set the CC2E Bit */
  tmpccer &= (uint16_t)~(TIM_CCER_CC2P | TIM_CCER_CC2NP);
  tmpccer |=  (uint16_t)(tmp | (uint16_t)TIM_CCER_CC2E);
 8002b66:	ea4c 1202 	orr.w	r2, ip, r2, lsl #4
  tmp = (uint16_t)(TIM_ICPolarity << 4);

  /* Select the Input and set the filter */
  tmpccmr1 &= ((uint16_t)~TIM_CCMR1_CC2S) & ((uint16_t)~TIM_CCMR1_IC2F);
  tmpccmr1 |= (uint16_t)(TIM_ICFilter << 12);
  tmpccmr1 |= (uint16_t)(TIM_ICSelection << 8);
 8002b6a:	b29b      	uxth	r3, r3

  /* Select the Polarity and set the CC2E Bit */
  tmpccer &= (uint16_t)~(TIM_CCER_CC2P | TIM_CCER_CC2NP);
  tmpccer |=  (uint16_t)(tmp | (uint16_t)TIM_CCER_CC2E);
 8002b6c:	b292      	uxth	r2, r2

  /* Write to TIMx CCMR1 and CCER registers */
  TIMx->CCMR1 = tmpccmr1 ;
 8002b6e:	8303      	strh	r3, [r0, #24]
  TIMx->CCER = tmpccer;
 8002b70:	8402      	strh	r2, [r0, #32]
 8002b72:	e7ce      	b.n	8002b12 <TIM_TIxExternalClockConfig+0x4a>

08002b74 <TIM_ETRClockMode1Config>:
  assert_param(IS_TIM_LIST3_PERIPH(TIMx));
  assert_param(IS_TIM_EXT_PRESCALER(TIM_ExtTRGPrescaler));
  assert_param(IS_TIM_EXT_POLARITY(TIM_ExtTRGPolarity));
  assert_param(IS_TIM_EXT_FILTER(ExtTRGFilter));

  tmpsmcr = TIMx->SMCR;
 8002b74:	f8b0 c008 	ldrh.w	ip, [r0, #8]

  /* Reset the ETR Bits */
  tmpsmcr &= SMCR_ETR_MASK;

  /* Set the Prescaler, the Filter value and the Polarity */
  tmpsmcr |= (uint16_t)(TIM_ExtTRGPrescaler | (uint16_t)(TIM_ExtTRGPolarity | (uint16_t)(ExtTRGFilter << (uint16_t)8)));
 8002b78:	fa5f fc8c 	uxtb.w	ip, ip
 8002b7c:	ea41 0c0c 	orr.w	ip, r1, ip
 8002b80:	ea42 0c0c 	orr.w	ip, r2, ip
 8002b84:	ea4c 2203 	orr.w	r2, ip, r3, lsl #8
 8002b88:	b291      	uxth	r1, r2

  /* Write to TIMx SMCR */
  TIMx->SMCR = tmpsmcr;
 8002b8a:	8101      	strh	r1, [r0, #8]
  assert_param(IS_TIM_EXT_FILTER(ExtTRGFilter));
  /* Configure the ETR Clock source */
  TIM_ETRConfig(TIMx, TIM_ExtTRGPrescaler, TIM_ExtTRGPolarity, ExtTRGFilter);
  
  /* Get the TIMx SMCR register value */
  tmpsmcr = TIMx->SMCR;
 8002b8c:	f8b0 c008 	ldrh.w	ip, [r0, #8]

  /* Reset the SMS Bits */
  tmpsmcr &= (uint16_t)~TIM_SMCR_SMS;

  /* Select the External clock mode1 */
  tmpsmcr |= TIM_SlaveMode_External1;
 8002b90:	f02c 0377 	bic.w	r3, ip, #119	; 0x77
 8002b94:	041a      	lsls	r2, r3, #16
 8002b96:	0c11      	lsrs	r1, r2, #16

  /* Select the Trigger selection : ETRF */
  tmpsmcr &= (uint16_t)~TIM_SMCR_TS;
  tmpsmcr |= TIM_TS_ETRF;
 8002b98:	f041 0377 	orr.w	r3, r1, #119	; 0x77

  /* Write to TIMx SMCR */
  TIMx->SMCR = tmpsmcr;
 8002b9c:	8103      	strh	r3, [r0, #8]
}
 8002b9e:	4770      	bx	lr

08002ba0 <TIM_ETRClockMode2Config>:
  assert_param(IS_TIM_LIST3_PERIPH(TIMx));
  assert_param(IS_TIM_EXT_PRESCALER(TIM_ExtTRGPrescaler));
  assert_param(IS_TIM_EXT_POLARITY(TIM_ExtTRGPolarity));
  assert_param(IS_TIM_EXT_FILTER(ExtTRGFilter));

  tmpsmcr = TIMx->SMCR;
 8002ba0:	f8b0 c008 	ldrh.w	ip, [r0, #8]

  /* Reset the ETR Bits */
  tmpsmcr &= SMCR_ETR_MASK;

  /* Set the Prescaler, the Filter value and the Polarity */
  tmpsmcr |= (uint16_t)(TIM_ExtTRGPrescaler | (uint16_t)(TIM_ExtTRGPolarity | (uint16_t)(ExtTRGFilter << (uint16_t)8)));
 8002ba4:	fa5f fc8c 	uxtb.w	ip, ip
 8002ba8:	ea41 0c0c 	orr.w	ip, r1, ip
 8002bac:	ea42 0c0c 	orr.w	ip, r2, ip
 8002bb0:	ea4c 2103 	orr.w	r1, ip, r3, lsl #8
 8002bb4:	fa1f fc81 	uxth.w	ip, r1

  /* Write to TIMx SMCR */
  TIMx->SMCR = tmpsmcr;
 8002bb8:	f8a0 c008 	strh.w	ip, [r0, #8]

  /* Configure the ETR Clock source */
  TIM_ETRConfig(TIMx, TIM_ExtTRGPrescaler, TIM_ExtTRGPolarity, ExtTRGFilter);

  /* Enable the External clock mode2 */
  TIMx->SMCR |= TIM_SMCR_ECE;
 8002bbc:	8902      	ldrh	r2, [r0, #8]
 8002bbe:	b291      	uxth	r1, r2
 8002bc0:	f441 4380 	orr.w	r3, r1, #16384	; 0x4000
 8002bc4:	8103      	strh	r3, [r0, #8]
}
 8002bc6:	4770      	bx	lr

08002bc8 <TIM_SelectInputTrigger>:
  /* Check the parameters */
  assert_param(IS_TIM_LIST1_PERIPH(TIMx)); 
  assert_param(IS_TIM_TRIGGER_SELECTION(TIM_InputTriggerSource));

  /* Get the TIMx SMCR register value */
  tmpsmcr = TIMx->SMCR;
 8002bc8:	f8b0 c008 	ldrh.w	ip, [r0, #8]

  /* Reset the TS Bits */
  tmpsmcr &= (uint16_t)~TIM_SMCR_TS;
 8002bcc:	f02c 0270 	bic.w	r2, ip, #112	; 0x70
 8002bd0:	0413      	lsls	r3, r2, #16
 8002bd2:	0c1a      	lsrs	r2, r3, #16

  /* Set the Input Trigger source */
  tmpsmcr |= TIM_InputTriggerSource;
 8002bd4:	ea41 0302 	orr.w	r3, r1, r2

  /* Write to TIMx SMCR */
  TIMx->SMCR = tmpsmcr;
 8002bd8:	8103      	strh	r3, [r0, #8]
}
 8002bda:	4770      	bx	lr

08002bdc <TIM_SelectOutputTrigger>:
  /* Check the parameters */
  assert_param(IS_TIM_LIST5_PERIPH(TIMx));
  assert_param(IS_TIM_TRGO_SOURCE(TIM_TRGOSource));

  /* Reset the MMS Bits */
  TIMx->CR2 &= (uint16_t)~TIM_CR2_MMS;
 8002bdc:	f8b0 c004 	ldrh.w	ip, [r0, #4]
 8002be0:	f02c 0370 	bic.w	r3, ip, #112	; 0x70
 8002be4:	041a      	lsls	r2, r3, #16
 8002be6:	0c13      	lsrs	r3, r2, #16
 8002be8:	8083      	strh	r3, [r0, #4]
  /* Select the TRGO source */
  TIMx->CR2 |=  TIM_TRGOSource;
 8002bea:	f8b0 c004 	ldrh.w	ip, [r0, #4]
 8002bee:	fa1f f28c 	uxth.w	r2, ip
 8002bf2:	ea41 0302 	orr.w	r3, r1, r2
 8002bf6:	8083      	strh	r3, [r0, #4]
}
 8002bf8:	4770      	bx	lr
 8002bfa:	bf00      	nop

08002bfc <TIM_SelectSlaveMode>:
  /* Check the parameters */
  assert_param(IS_TIM_LIST2_PERIPH(TIMx));
  assert_param(IS_TIM_SLAVE_MODE(TIM_SlaveMode));

  /* Reset the SMS Bits */
  TIMx->SMCR &= (uint16_t)~TIM_SMCR_SMS;
 8002bfc:	f8b0 c008 	ldrh.w	ip, [r0, #8]
 8002c00:	f02c 0307 	bic.w	r3, ip, #7
 8002c04:	041a      	lsls	r2, r3, #16
 8002c06:	0c13      	lsrs	r3, r2, #16
 8002c08:	8103      	strh	r3, [r0, #8]

  /* Select the Slave Mode */
  TIMx->SMCR |= TIM_SlaveMode;
 8002c0a:	f8b0 c008 	ldrh.w	ip, [r0, #8]
 8002c0e:	fa1f f28c 	uxth.w	r2, ip
 8002c12:	ea41 0302 	orr.w	r3, r1, r2
 8002c16:	8103      	strh	r3, [r0, #8]
}
 8002c18:	4770      	bx	lr
 8002c1a:	bf00      	nop

08002c1c <TIM_SelectMasterSlaveMode>:
  /* Check the parameters */
  assert_param(IS_TIM_LIST2_PERIPH(TIMx));
  assert_param(IS_TIM_MSM_STATE(TIM_MasterSlaveMode));

  /* Reset the MSM Bit */
  TIMx->SMCR &= (uint16_t)~TIM_SMCR_MSM;
 8002c1c:	f8b0 c008 	ldrh.w	ip, [r0, #8]
 8002c20:	f02c 0380 	bic.w	r3, ip, #128	; 0x80
 8002c24:	041a      	lsls	r2, r3, #16
 8002c26:	0c13      	lsrs	r3, r2, #16
 8002c28:	8103      	strh	r3, [r0, #8]
  
  /* Set or Reset the MSM Bit */
  TIMx->SMCR |= TIM_MasterSlaveMode;
 8002c2a:	f8b0 c008 	ldrh.w	ip, [r0, #8]
 8002c2e:	fa1f f28c 	uxth.w	r2, ip
 8002c32:	ea41 0302 	orr.w	r3, r1, r2
 8002c36:	8103      	strh	r3, [r0, #8]
}
 8002c38:	4770      	bx	lr
 8002c3a:	bf00      	nop

08002c3c <TIM_ETRConfig>:
  assert_param(IS_TIM_LIST3_PERIPH(TIMx));
  assert_param(IS_TIM_EXT_PRESCALER(TIM_ExtTRGPrescaler));
  assert_param(IS_TIM_EXT_POLARITY(TIM_ExtTRGPolarity));
  assert_param(IS_TIM_EXT_FILTER(ExtTRGFilter));

  tmpsmcr = TIMx->SMCR;
 8002c3c:	f8b0 c008 	ldrh.w	ip, [r0, #8]

  /* Reset the ETR Bits */
  tmpsmcr &= SMCR_ETR_MASK;

  /* Set the Prescaler, the Filter value and the Polarity */
  tmpsmcr |= (uint16_t)(TIM_ExtTRGPrescaler | (uint16_t)(TIM_ExtTRGPolarity | (uint16_t)(ExtTRGFilter << (uint16_t)8)));
 8002c40:	fa5f fc8c 	uxtb.w	ip, ip
 8002c44:	ea41 0c0c 	orr.w	ip, r1, ip
 8002c48:	ea42 0c0c 	orr.w	ip, r2, ip
 8002c4c:	ea4c 2103 	orr.w	r1, ip, r3, lsl #8
 8002c50:	fa1f fc81 	uxth.w	ip, r1

  /* Write to TIMx SMCR */
  TIMx->SMCR = tmpsmcr;
 8002c54:	f8a0 c008 	strh.w	ip, [r0, #8]
}
 8002c58:	4770      	bx	lr
 8002c5a:	bf00      	nop

08002c5c <TIM_EncoderInterfaceConfig>:
  *            @arg TIM_ICPolarity_Rising: IC Rising edge.
  * @retval None
  */
void TIM_EncoderInterfaceConfig(TIM_TypeDef* TIMx, uint16_t TIM_EncoderMode,
                                uint16_t TIM_IC1Polarity, uint16_t TIM_IC2Polarity)
{
 8002c5c:	b430      	push	{r4, r5}
  assert_param(IS_TIM_ENCODER_MODE(TIM_EncoderMode));
  assert_param(IS_TIM_IC_POLARITY(TIM_IC1Polarity));
  assert_param(IS_TIM_IC_POLARITY(TIM_IC2Polarity));

  /* Get the TIMx SMCR register value */
  tmpsmcr = TIMx->SMCR;
 8002c5e:	8904      	ldrh	r4, [r0, #8]

  /* Get the TIMx CCMR1 register value */
  tmpccmr1 = TIMx->CCMR1;
 8002c60:	f8b0 c018 	ldrh.w	ip, [r0, #24]

  /* Get the TIMx CCER register value */
  tmpccer = TIMx->CCER;
 8002c64:	8c05      	ldrh	r5, [r0, #32]
  /* Set the encoder Mode */
  tmpsmcr &= (uint16_t)~TIM_SMCR_SMS;
  tmpsmcr |= TIM_EncoderMode;

  /* Select the Capture Compare 1 and the Capture Compare 2 as input */
  tmpccmr1 &= ((uint16_t)~TIM_CCMR1_CC1S) & ((uint16_t)~TIM_CCMR1_CC2S);
 8002c66:	f42c 7c40 	bic.w	ip, ip, #768	; 0x300
  tmpccmr1 |= TIM_CCMR1_CC1S_0 | TIM_CCMR1_CC2S_0;

  /* Set the TI1 and the TI2 Polarities */
  tmpccer &= ((uint16_t)~TIM_CCER_CC1P) & ((uint16_t)~TIM_CCER_CC2P);
  tmpccer |= (uint16_t)(TIM_IC1Polarity | (uint16_t)(TIM_IC2Polarity << (uint16_t)4));
 8002c6a:	f025 0522 	bic.w	r5, r5, #34	; 0x22
  /* Set the encoder Mode */
  tmpsmcr &= (uint16_t)~TIM_SMCR_SMS;
  tmpsmcr |= TIM_EncoderMode;

  /* Select the Capture Compare 1 and the Capture Compare 2 as input */
  tmpccmr1 &= ((uint16_t)~TIM_CCMR1_CC1S) & ((uint16_t)~TIM_CCMR1_CC2S);
 8002c6e:	f02c 0c03 	bic.w	ip, ip, #3
  tmpccmr1 |= TIM_CCMR1_CC1S_0 | TIM_CCMR1_CC2S_0;

  /* Set the TI1 and the TI2 Polarities */
  tmpccer &= ((uint16_t)~TIM_CCER_CC1P) & ((uint16_t)~TIM_CCER_CC2P);
  tmpccer |= (uint16_t)(TIM_IC1Polarity | (uint16_t)(TIM_IC2Polarity << (uint16_t)4));
 8002c72:	042d      	lsls	r5, r5, #16

  /* Get the TIMx CCER register value */
  tmpccer = TIMx->CCER;

  /* Set the encoder Mode */
  tmpsmcr &= (uint16_t)~TIM_SMCR_SMS;
 8002c74:	f024 0407 	bic.w	r4, r4, #7
  tmpsmcr |= TIM_EncoderMode;

  /* Select the Capture Compare 1 and the Capture Compare 2 as input */
  tmpccmr1 &= ((uint16_t)~TIM_CCMR1_CC1S) & ((uint16_t)~TIM_CCMR1_CC2S);
 8002c78:	ea4f 4c0c 	mov.w	ip, ip, lsl #16
  tmpccmr1 |= TIM_CCMR1_CC1S_0 | TIM_CCMR1_CC2S_0;

  /* Set the TI1 and the TI2 Polarities */
  tmpccer &= ((uint16_t)~TIM_CCER_CC1P) & ((uint16_t)~TIM_CCER_CC2P);
  tmpccer |= (uint16_t)(TIM_IC1Polarity | (uint16_t)(TIM_IC2Polarity << (uint16_t)4));
 8002c7c:	0c2d      	lsrs	r5, r5, #16
 8002c7e:	ea42 0505 	orr.w	r5, r2, r5
  /* Set the encoder Mode */
  tmpsmcr &= (uint16_t)~TIM_SMCR_SMS;
  tmpsmcr |= TIM_EncoderMode;

  /* Select the Capture Compare 1 and the Capture Compare 2 as input */
  tmpccmr1 &= ((uint16_t)~TIM_CCMR1_CC1S) & ((uint16_t)~TIM_CCMR1_CC2S);
 8002c82:	ea4f 4c1c 	mov.w	ip, ip, lsr #16

  /* Get the TIMx CCER register value */
  tmpccer = TIMx->CCER;

  /* Set the encoder Mode */
  tmpsmcr &= (uint16_t)~TIM_SMCR_SMS;
 8002c86:	0424      	lsls	r4, r4, #16
  tmpccmr1 &= ((uint16_t)~TIM_CCMR1_CC1S) & ((uint16_t)~TIM_CCMR1_CC2S);
  tmpccmr1 |= TIM_CCMR1_CC1S_0 | TIM_CCMR1_CC2S_0;

  /* Set the TI1 and the TI2 Polarities */
  tmpccer &= ((uint16_t)~TIM_CCER_CC1P) & ((uint16_t)~TIM_CCER_CC2P);
  tmpccer |= (uint16_t)(TIM_IC1Polarity | (uint16_t)(TIM_IC2Polarity << (uint16_t)4));
 8002c88:	ea45 1503 	orr.w	r5, r5, r3, lsl #4

  /* Get the TIMx CCER register value */
  tmpccer = TIMx->CCER;

  /* Set the encoder Mode */
  tmpsmcr &= (uint16_t)~TIM_SMCR_SMS;
 8002c8c:	0c24      	lsrs	r4, r4, #16
  tmpsmcr |= TIM_EncoderMode;

  /* Select the Capture Compare 1 and the Capture Compare 2 as input */
  tmpccmr1 &= ((uint16_t)~TIM_CCMR1_CC1S) & ((uint16_t)~TIM_CCMR1_CC2S);
  tmpccmr1 |= TIM_CCMR1_CC1S_0 | TIM_CCMR1_CC2S_0;
 8002c8e:	f44c 7280 	orr.w	r2, ip, #256	; 0x100
  /* Get the TIMx CCER register value */
  tmpccer = TIMx->CCER;

  /* Set the encoder Mode */
  tmpsmcr &= (uint16_t)~TIM_SMCR_SMS;
  tmpsmcr |= TIM_EncoderMode;
 8002c92:	4321      	orrs	r1, r4

  /* Select the Capture Compare 1 and the Capture Compare 2 as input */
  tmpccmr1 &= ((uint16_t)~TIM_CCMR1_CC1S) & ((uint16_t)~TIM_CCMR1_CC2S);
  tmpccmr1 |= TIM_CCMR1_CC1S_0 | TIM_CCMR1_CC2S_0;
 8002c94:	f042 0c01 	orr.w	ip, r2, #1

  /* Set the TI1 and the TI2 Polarities */
  tmpccer &= ((uint16_t)~TIM_CCER_CC1P) & ((uint16_t)~TIM_CCER_CC2P);
  tmpccer |= (uint16_t)(TIM_IC1Polarity | (uint16_t)(TIM_IC2Polarity << (uint16_t)4));
 8002c98:	b2ad      	uxth	r5, r5

  /* Write to TIMx SMCR */
  TIMx->SMCR = tmpsmcr;
 8002c9a:	8101      	strh	r1, [r0, #8]

  /* Write to TIMx CCMR1 */
  TIMx->CCMR1 = tmpccmr1;
 8002c9c:	f8a0 c018 	strh.w	ip, [r0, #24]

  /* Write to TIMx CCER */
  TIMx->CCER = tmpccer;
 8002ca0:	8405      	strh	r5, [r0, #32]
}
 8002ca2:	bc30      	pop	{r4, r5}
 8002ca4:	4770      	bx	lr
 8002ca6:	bf00      	nop

08002ca8 <TIM_SelectHallSensor>:
{
  /* Check the parameters */
  assert_param(IS_TIM_LIST2_PERIPH(TIMx));
  assert_param(IS_FUNCTIONAL_STATE(NewState));

  if (NewState != DISABLE)
 8002ca8:	b939      	cbnz	r1, 8002cba <TIM_SelectHallSensor+0x12>
    TIMx->CR2 |= TIM_CR2_TI1S;
  }
  else
  {
    /* Reset the TI1S Bit */
    TIMx->CR2 &= (uint16_t)~TIM_CR2_TI1S;
 8002caa:	f8b0 c004 	ldrh.w	ip, [r0, #4]
 8002cae:	f02c 0280 	bic.w	r2, ip, #128	; 0x80
 8002cb2:	0411      	lsls	r1, r2, #16
 8002cb4:	0c0b      	lsrs	r3, r1, #16
 8002cb6:	8083      	strh	r3, [r0, #4]
 8002cb8:	4770      	bx	lr
  assert_param(IS_FUNCTIONAL_STATE(NewState));

  if (NewState != DISABLE)
  {
    /* Set the TI1S Bit */
    TIMx->CR2 |= TIM_CR2_TI1S;
 8002cba:	8882      	ldrh	r2, [r0, #4]
 8002cbc:	b291      	uxth	r1, r2
 8002cbe:	f041 0380 	orr.w	r3, r1, #128	; 0x80
 8002cc2:	8083      	strh	r3, [r0, #4]
 8002cc4:	4770      	bx	lr
 8002cc6:	bf00      	nop

08002cc8 <TIM_RemapConfig>:
 /* Check the parameters */
  assert_param(IS_TIM_LIST6_PERIPH(TIMx));
  assert_param(IS_TIM_REMAP(TIM_Remap));

  /* Set the Timer remapping configuration */
  TIMx->OR =  TIM_Remap;
 8002cc8:	f8a0 1050 	strh.w	r1, [r0, #80]	; 0x50
}
 8002ccc:	4770      	bx	lr
 8002cce:	bf00      	nop

08002cd0 <TIM_DeInit>:
void TIM_DeInit(TIM_TypeDef* TIMx)
{
  /* Check the parameters */
  assert_param(IS_TIM_ALL_PERIPH(TIMx)); 
 
  if (TIMx == TIM1)
 8002cd0:	f240 0300 	movw	r3, #0
 8002cd4:	f2c4 0301 	movt	r3, #16385	; 0x4001
 8002cd8:	4298      	cmp	r0, r3
  * @param  TIMx: where x can be 1 to 14 to select the TIM peripheral.
  * @retval None

  */
void TIM_DeInit(TIM_TypeDef* TIMx)
{
 8002cda:	b510      	push	{r4, lr}
  /* Check the parameters */
  assert_param(IS_TIM_ALL_PERIPH(TIMx)); 
 
  if (TIMx == TIM1)
 8002cdc:	d05b      	beq.n	8002d96 <TIM_DeInit+0xc6>
  {
    RCC_APB2PeriphResetCmd(RCC_APB2Periph_TIM1, ENABLE);
    RCC_APB2PeriphResetCmd(RCC_APB2Periph_TIM1, DISABLE);  
  } 
  else if (TIMx == TIM2) 
 8002cde:	f1b0 4f80 	cmp.w	r0, #1073741824	; 0x40000000
 8002ce2:	d062      	beq.n	8002daa <TIM_DeInit+0xda>
  {     
    RCC_APB1PeriphResetCmd(RCC_APB1Periph_TIM2, ENABLE);
    RCC_APB1PeriphResetCmd(RCC_APB1Periph_TIM2, DISABLE);
  }  
  else if (TIMx == TIM3)
 8002ce4:	f240 4100 	movw	r1, #1024	; 0x400
 8002ce8:	f2c4 0100 	movt	r1, #16384	; 0x4000
 8002cec:	4288      	cmp	r0, r1
 8002cee:	d066      	beq.n	8002dbe <TIM_DeInit+0xee>
  { 
    RCC_APB1PeriphResetCmd(RCC_APB1Periph_TIM3, ENABLE);
    RCC_APB1PeriphResetCmd(RCC_APB1Periph_TIM3, DISABLE);
  }  
  else if (TIMx == TIM4)
 8002cf0:	f640 0200 	movw	r2, #2048	; 0x800
 8002cf4:	f2c4 0200 	movt	r2, #16384	; 0x4000
 8002cf8:	4290      	cmp	r0, r2
 8002cfa:	d06a      	beq.n	8002dd2 <TIM_DeInit+0x102>
  { 
    RCC_APB1PeriphResetCmd(RCC_APB1Periph_TIM4, ENABLE);
    RCC_APB1PeriphResetCmd(RCC_APB1Periph_TIM4, DISABLE);
  }  
  else if (TIMx == TIM5)
 8002cfc:	f640 4c00 	movw	ip, #3072	; 0xc00
 8002d00:	f2c4 0c00 	movt	ip, #16384	; 0x4000
 8002d04:	4560      	cmp	r0, ip
 8002d06:	d06e      	beq.n	8002de6 <TIM_DeInit+0x116>
  {      
    RCC_APB1PeriphResetCmd(RCC_APB1Periph_TIM5, ENABLE);
    RCC_APB1PeriphResetCmd(RCC_APB1Periph_TIM5, DISABLE);
  }  
  else if (TIMx == TIM6)  
 8002d08:	f241 0300 	movw	r3, #4096	; 0x1000
 8002d0c:	f2c4 0300 	movt	r3, #16384	; 0x4000
 8002d10:	4298      	cmp	r0, r3
 8002d12:	d072      	beq.n	8002dfa <TIM_DeInit+0x12a>
  {    
    RCC_APB1PeriphResetCmd(RCC_APB1Periph_TIM6, ENABLE);
    RCC_APB1PeriphResetCmd(RCC_APB1Periph_TIM6, DISABLE);
  }  
  else if (TIMx == TIM7)
 8002d14:	f241 4100 	movw	r1, #5120	; 0x1400
 8002d18:	f2c4 0100 	movt	r1, #16384	; 0x4000
 8002d1c:	4288      	cmp	r0, r1
 8002d1e:	d076      	beq.n	8002e0e <TIM_DeInit+0x13e>
  {      
    RCC_APB1PeriphResetCmd(RCC_APB1Periph_TIM7, ENABLE);
    RCC_APB1PeriphResetCmd(RCC_APB1Periph_TIM7, DISABLE);
  }  
  else if (TIMx == TIM8)
 8002d20:	f240 4200 	movw	r2, #1024	; 0x400
 8002d24:	f2c4 0201 	movt	r2, #16385	; 0x4001
 8002d28:	4290      	cmp	r0, r2
 8002d2a:	d07a      	beq.n	8002e22 <TIM_DeInit+0x152>
  {      
    RCC_APB2PeriphResetCmd(RCC_APB2Periph_TIM8, ENABLE);
    RCC_APB2PeriphResetCmd(RCC_APB2Periph_TIM8, DISABLE);  
  }  
  else if (TIMx == TIM9)
 8002d2c:	f244 0c00 	movw	ip, #16384	; 0x4000
 8002d30:	f2c4 0c01 	movt	ip, #16385	; 0x4001
 8002d34:	4560      	cmp	r0, ip
 8002d36:	d07e      	beq.n	8002e36 <TIM_DeInit+0x166>
  {      
    RCC_APB2PeriphResetCmd(RCC_APB2Periph_TIM9, ENABLE);
    RCC_APB2PeriphResetCmd(RCC_APB2Periph_TIM9, DISABLE);  
   }  
  else if (TIMx == TIM10)
 8002d38:	f244 4300 	movw	r3, #17408	; 0x4400
 8002d3c:	f2c4 0301 	movt	r3, #16385	; 0x4001
 8002d40:	4298      	cmp	r0, r3
 8002d42:	f000 8084 	beq.w	8002e4e <TIM_DeInit+0x17e>
  {      
    RCC_APB2PeriphResetCmd(RCC_APB2Periph_TIM10, ENABLE);
    RCC_APB2PeriphResetCmd(RCC_APB2Periph_TIM10, DISABLE);  
  }  
  else if (TIMx == TIM11) 
 8002d46:	f644 0100 	movw	r1, #18432	; 0x4800
 8002d4a:	f2c4 0101 	movt	r1, #16385	; 0x4001
 8002d4e:	4288      	cmp	r0, r1
 8002d50:	f000 8089 	beq.w	8002e66 <TIM_DeInit+0x196>
  {     
    RCC_APB2PeriphResetCmd(RCC_APB2Periph_TIM11, ENABLE);
    RCC_APB2PeriphResetCmd(RCC_APB2Periph_TIM11, DISABLE);  
  }  
  else if (TIMx == TIM12)
 8002d54:	f641 0200 	movw	r2, #6144	; 0x1800
 8002d58:	f2c4 0200 	movt	r2, #16384	; 0x4000
 8002d5c:	4290      	cmp	r0, r2
 8002d5e:	f000 808e 	beq.w	8002e7e <TIM_DeInit+0x1ae>
  {      
    RCC_APB1PeriphResetCmd(RCC_APB1Periph_TIM12, ENABLE);
    RCC_APB1PeriphResetCmd(RCC_APB1Periph_TIM12, DISABLE);  
  }  
  else if (TIMx == TIM13) 
 8002d62:	f641 4c00 	movw	ip, #7168	; 0x1c00
 8002d66:	f2c4 0c00 	movt	ip, #16384	; 0x4000
 8002d6a:	4560      	cmp	r0, ip
 8002d6c:	f000 8091 	beq.w	8002e92 <TIM_DeInit+0x1c2>
    RCC_APB1PeriphResetCmd(RCC_APB1Periph_TIM13, ENABLE);
    RCC_APB1PeriphResetCmd(RCC_APB1Periph_TIM13, DISABLE);  
  }  
  else
  { 
    if (TIMx == TIM14) 
 8002d70:	f242 0300 	movw	r3, #8192	; 0x2000
 8002d74:	f2c4 0300 	movt	r3, #16384	; 0x4000
 8002d78:	4298      	cmp	r0, r3
 8002d7a:	d000      	beq.n	8002d7e <TIM_DeInit+0xae>
 8002d7c:	bd10      	pop	{r4, pc}
    {     
      RCC_APB1PeriphResetCmd(RCC_APB1Periph_TIM14, ENABLE);
 8002d7e:	2101      	movs	r1, #1
 8002d80:	f44f 7080 	mov.w	r0, #256	; 0x100
 8002d84:	f7fe ff6e 	bl	8001c64 <RCC_APB1PeriphResetCmd>
      RCC_APB1PeriphResetCmd(RCC_APB1Periph_TIM14, DISABLE); 
 8002d88:	f44f 7080 	mov.w	r0, #256	; 0x100
 8002d8c:	2100      	movs	r1, #0
    }   
  }
}
 8002d8e:	e8bd 4010 	ldmia.w	sp!, {r4, lr}
  else
  { 
    if (TIMx == TIM14) 
    {     
      RCC_APB1PeriphResetCmd(RCC_APB1Periph_TIM14, ENABLE);
      RCC_APB1PeriphResetCmd(RCC_APB1Periph_TIM14, DISABLE); 
 8002d92:	f7fe bf67 	b.w	8001c64 <RCC_APB1PeriphResetCmd>
  /* Check the parameters */
  assert_param(IS_TIM_ALL_PERIPH(TIMx)); 
 
  if (TIMx == TIM1)
  {
    RCC_APB2PeriphResetCmd(RCC_APB2Periph_TIM1, ENABLE);
 8002d96:	2001      	movs	r0, #1
 8002d98:	4601      	mov	r1, r0
 8002d9a:	f7fe ff75 	bl	8001c88 <RCC_APB2PeriphResetCmd>
    RCC_APB2PeriphResetCmd(RCC_APB2Periph_TIM1, DISABLE);  
 8002d9e:	2001      	movs	r0, #1
 8002da0:	2100      	movs	r1, #0
    {     
      RCC_APB1PeriphResetCmd(RCC_APB1Periph_TIM14, ENABLE);
      RCC_APB1PeriphResetCmd(RCC_APB1Periph_TIM14, DISABLE); 
    }   
  }
}
 8002da2:	e8bd 4010 	ldmia.w	sp!, {r4, lr}
  assert_param(IS_TIM_ALL_PERIPH(TIMx)); 
 
  if (TIMx == TIM1)
  {
    RCC_APB2PeriphResetCmd(RCC_APB2Periph_TIM1, ENABLE);
    RCC_APB2PeriphResetCmd(RCC_APB2Periph_TIM1, DISABLE);  
 8002da6:	f7fe bf6f 	b.w	8001c88 <RCC_APB2PeriphResetCmd>
  } 
  else if (TIMx == TIM2) 
  {     
    RCC_APB1PeriphResetCmd(RCC_APB1Periph_TIM2, ENABLE);
 8002daa:	2001      	movs	r0, #1
 8002dac:	4601      	mov	r1, r0
 8002dae:	f7fe ff59 	bl	8001c64 <RCC_APB1PeriphResetCmd>
    RCC_APB1PeriphResetCmd(RCC_APB1Periph_TIM2, DISABLE);
 8002db2:	2001      	movs	r0, #1
 8002db4:	2100      	movs	r1, #0
    {     
      RCC_APB1PeriphResetCmd(RCC_APB1Periph_TIM14, ENABLE);
      RCC_APB1PeriphResetCmd(RCC_APB1Periph_TIM14, DISABLE); 
    }   
  }
}
 8002db6:	e8bd 4010 	ldmia.w	sp!, {r4, lr}
    RCC_APB2PeriphResetCmd(RCC_APB2Periph_TIM1, DISABLE);  
  } 
  else if (TIMx == TIM2) 
  {     
    RCC_APB1PeriphResetCmd(RCC_APB1Periph_TIM2, ENABLE);
    RCC_APB1PeriphResetCmd(RCC_APB1Periph_TIM2, DISABLE);
 8002dba:	f7fe bf53 	b.w	8001c64 <RCC_APB1PeriphResetCmd>
  }  
  else if (TIMx == TIM3)
  { 
    RCC_APB1PeriphResetCmd(RCC_APB1Periph_TIM3, ENABLE);
 8002dbe:	2002      	movs	r0, #2
 8002dc0:	2101      	movs	r1, #1
 8002dc2:	f7fe ff4f 	bl	8001c64 <RCC_APB1PeriphResetCmd>
    RCC_APB1PeriphResetCmd(RCC_APB1Periph_TIM3, DISABLE);
 8002dc6:	2002      	movs	r0, #2
 8002dc8:	2100      	movs	r1, #0
    {     
      RCC_APB1PeriphResetCmd(RCC_APB1Periph_TIM14, ENABLE);
      RCC_APB1PeriphResetCmd(RCC_APB1Periph_TIM14, DISABLE); 
    }   
  }
}
 8002dca:	e8bd 4010 	ldmia.w	sp!, {r4, lr}
    RCC_APB1PeriphResetCmd(RCC_APB1Periph_TIM2, DISABLE);
  }  
  else if (TIMx == TIM3)
  { 
    RCC_APB1PeriphResetCmd(RCC_APB1Periph_TIM3, ENABLE);
    RCC_APB1PeriphResetCmd(RCC_APB1Periph_TIM3, DISABLE);
 8002dce:	f7fe bf49 	b.w	8001c64 <RCC_APB1PeriphResetCmd>
  }  
  else if (TIMx == TIM4)
  { 
    RCC_APB1PeriphResetCmd(RCC_APB1Periph_TIM4, ENABLE);
 8002dd2:	2004      	movs	r0, #4
 8002dd4:	2101      	movs	r1, #1
 8002dd6:	f7fe ff45 	bl	8001c64 <RCC_APB1PeriphResetCmd>
    RCC_APB1PeriphResetCmd(RCC_APB1Periph_TIM4, DISABLE);
 8002dda:	2004      	movs	r0, #4
 8002ddc:	2100      	movs	r1, #0
    {     
      RCC_APB1PeriphResetCmd(RCC_APB1Periph_TIM14, ENABLE);
      RCC_APB1PeriphResetCmd(RCC_APB1Periph_TIM14, DISABLE); 
    }   
  }
}
 8002dde:	e8bd 4010 	ldmia.w	sp!, {r4, lr}
    RCC_APB1PeriphResetCmd(RCC_APB1Periph_TIM3, DISABLE);
  }  
  else if (TIMx == TIM4)
  { 
    RCC_APB1PeriphResetCmd(RCC_APB1Periph_TIM4, ENABLE);
    RCC_APB1PeriphResetCmd(RCC_APB1Periph_TIM4, DISABLE);
 8002de2:	f7fe bf3f 	b.w	8001c64 <RCC_APB1PeriphResetCmd>
  }  
  else if (TIMx == TIM5)
  {      
    RCC_APB1PeriphResetCmd(RCC_APB1Periph_TIM5, ENABLE);
 8002de6:	2008      	movs	r0, #8
 8002de8:	2101      	movs	r1, #1
 8002dea:	f7fe ff3b 	bl	8001c64 <RCC_APB1PeriphResetCmd>
    RCC_APB1PeriphResetCmd(RCC_APB1Periph_TIM5, DISABLE);
 8002dee:	2008      	movs	r0, #8
 8002df0:	2100      	movs	r1, #0
    {     
      RCC_APB1PeriphResetCmd(RCC_APB1Periph_TIM14, ENABLE);
      RCC_APB1PeriphResetCmd(RCC_APB1Periph_TIM14, DISABLE); 
    }   
  }
}
 8002df2:	e8bd 4010 	ldmia.w	sp!, {r4, lr}
    RCC_APB1PeriphResetCmd(RCC_APB1Periph_TIM4, DISABLE);
  }  
  else if (TIMx == TIM5)
  {      
    RCC_APB1PeriphResetCmd(RCC_APB1Periph_TIM5, ENABLE);
    RCC_APB1PeriphResetCmd(RCC_APB1Periph_TIM5, DISABLE);
 8002df6:	f7fe bf35 	b.w	8001c64 <RCC_APB1PeriphResetCmd>
  }  
  else if (TIMx == TIM6)  
  {    
    RCC_APB1PeriphResetCmd(RCC_APB1Periph_TIM6, ENABLE);
 8002dfa:	2010      	movs	r0, #16
 8002dfc:	2101      	movs	r1, #1
 8002dfe:	f7fe ff31 	bl	8001c64 <RCC_APB1PeriphResetCmd>
    RCC_APB1PeriphResetCmd(RCC_APB1Periph_TIM6, DISABLE);
 8002e02:	2010      	movs	r0, #16
 8002e04:	2100      	movs	r1, #0
    {     
      RCC_APB1PeriphResetCmd(RCC_APB1Periph_TIM14, ENABLE);
      RCC_APB1PeriphResetCmd(RCC_APB1Periph_TIM14, DISABLE); 
    }   
  }
}
 8002e06:	e8bd 4010 	ldmia.w	sp!, {r4, lr}
    RCC_APB1PeriphResetCmd(RCC_APB1Periph_TIM5, DISABLE);
  }  
  else if (TIMx == TIM6)  
  {    
    RCC_APB1PeriphResetCmd(RCC_APB1Periph_TIM6, ENABLE);
    RCC_APB1PeriphResetCmd(RCC_APB1Periph_TIM6, DISABLE);
 8002e0a:	f7fe bf2b 	b.w	8001c64 <RCC_APB1PeriphResetCmd>
  }  
  else if (TIMx == TIM7)
  {      
    RCC_APB1PeriphResetCmd(RCC_APB1Periph_TIM7, ENABLE);
 8002e0e:	2020      	movs	r0, #32
 8002e10:	2101      	movs	r1, #1
 8002e12:	f7fe ff27 	bl	8001c64 <RCC_APB1PeriphResetCmd>
    RCC_APB1PeriphResetCmd(RCC_APB1Periph_TIM7, DISABLE);
 8002e16:	2020      	movs	r0, #32
 8002e18:	2100      	movs	r1, #0
    {     
      RCC_APB1PeriphResetCmd(RCC_APB1Periph_TIM14, ENABLE);
      RCC_APB1PeriphResetCmd(RCC_APB1Periph_TIM14, DISABLE); 
    }   
  }
}
 8002e1a:	e8bd 4010 	ldmia.w	sp!, {r4, lr}
    RCC_APB1PeriphResetCmd(RCC_APB1Periph_TIM6, DISABLE);
  }  
  else if (TIMx == TIM7)
  {      
    RCC_APB1PeriphResetCmd(RCC_APB1Periph_TIM7, ENABLE);
    RCC_APB1PeriphResetCmd(RCC_APB1Periph_TIM7, DISABLE);
 8002e1e:	f7fe bf21 	b.w	8001c64 <RCC_APB1PeriphResetCmd>
  }  
  else if (TIMx == TIM8)
  {      
    RCC_APB2PeriphResetCmd(RCC_APB2Periph_TIM8, ENABLE);
 8002e22:	2002      	movs	r0, #2
 8002e24:	2101      	movs	r1, #1
 8002e26:	f7fe ff2f 	bl	8001c88 <RCC_APB2PeriphResetCmd>
    RCC_APB2PeriphResetCmd(RCC_APB2Periph_TIM8, DISABLE);  
 8002e2a:	2002      	movs	r0, #2
 8002e2c:	2100      	movs	r1, #0
    {     
      RCC_APB1PeriphResetCmd(RCC_APB1Periph_TIM14, ENABLE);
      RCC_APB1PeriphResetCmd(RCC_APB1Periph_TIM14, DISABLE); 
    }   
  }
}
 8002e2e:	e8bd 4010 	ldmia.w	sp!, {r4, lr}
    RCC_APB1PeriphResetCmd(RCC_APB1Periph_TIM7, DISABLE);
  }  
  else if (TIMx == TIM8)
  {      
    RCC_APB2PeriphResetCmd(RCC_APB2Periph_TIM8, ENABLE);
    RCC_APB2PeriphResetCmd(RCC_APB2Periph_TIM8, DISABLE);  
 8002e32:	f7fe bf29 	b.w	8001c88 <RCC_APB2PeriphResetCmd>
  }  
  else if (TIMx == TIM9)
  {      
    RCC_APB2PeriphResetCmd(RCC_APB2Periph_TIM9, ENABLE);
 8002e36:	2101      	movs	r1, #1
 8002e38:	f44f 3080 	mov.w	r0, #65536	; 0x10000
 8002e3c:	f7fe ff24 	bl	8001c88 <RCC_APB2PeriphResetCmd>
    RCC_APB2PeriphResetCmd(RCC_APB2Periph_TIM9, DISABLE);  
 8002e40:	f44f 3080 	mov.w	r0, #65536	; 0x10000
 8002e44:	2100      	movs	r1, #0
    {     
      RCC_APB1PeriphResetCmd(RCC_APB1Periph_TIM14, ENABLE);
      RCC_APB1PeriphResetCmd(RCC_APB1Periph_TIM14, DISABLE); 
    }   
  }
}
 8002e46:	e8bd 4010 	ldmia.w	sp!, {r4, lr}
    RCC_APB2PeriphResetCmd(RCC_APB2Periph_TIM8, DISABLE);  
  }  
  else if (TIMx == TIM9)
  {      
    RCC_APB2PeriphResetCmd(RCC_APB2Periph_TIM9, ENABLE);
    RCC_APB2PeriphResetCmd(RCC_APB2Periph_TIM9, DISABLE);  
 8002e4a:	f7fe bf1d 	b.w	8001c88 <RCC_APB2PeriphResetCmd>
   }  
  else if (TIMx == TIM10)
  {      
    RCC_APB2PeriphResetCmd(RCC_APB2Periph_TIM10, ENABLE);
 8002e4e:	2101      	movs	r1, #1
 8002e50:	f44f 3000 	mov.w	r0, #131072	; 0x20000
 8002e54:	f7fe ff18 	bl	8001c88 <RCC_APB2PeriphResetCmd>
    RCC_APB2PeriphResetCmd(RCC_APB2Periph_TIM10, DISABLE);  
 8002e58:	f44f 3000 	mov.w	r0, #131072	; 0x20000
 8002e5c:	2100      	movs	r1, #0
    {     
      RCC_APB1PeriphResetCmd(RCC_APB1Periph_TIM14, ENABLE);
      RCC_APB1PeriphResetCmd(RCC_APB1Periph_TIM14, DISABLE); 
    }   
  }
}
 8002e5e:	e8bd 4010 	ldmia.w	sp!, {r4, lr}
    RCC_APB2PeriphResetCmd(RCC_APB2Periph_TIM9, DISABLE);  
   }  
  else if (TIMx == TIM10)
  {      
    RCC_APB2PeriphResetCmd(RCC_APB2Periph_TIM10, ENABLE);
    RCC_APB2PeriphResetCmd(RCC_APB2Periph_TIM10, DISABLE);  
 8002e62:	f7fe bf11 	b.w	8001c88 <RCC_APB2PeriphResetCmd>
  }  
  else if (TIMx == TIM11) 
  {     
    RCC_APB2PeriphResetCmd(RCC_APB2Periph_TIM11, ENABLE);
 8002e66:	2101      	movs	r1, #1
 8002e68:	f44f 2080 	mov.w	r0, #262144	; 0x40000
 8002e6c:	f7fe ff0c 	bl	8001c88 <RCC_APB2PeriphResetCmd>
    RCC_APB2PeriphResetCmd(RCC_APB2Periph_TIM11, DISABLE);  
 8002e70:	f44f 2080 	mov.w	r0, #262144	; 0x40000
 8002e74:	2100      	movs	r1, #0
    {     
      RCC_APB1PeriphResetCmd(RCC_APB1Periph_TIM14, ENABLE);
      RCC_APB1PeriphResetCmd(RCC_APB1Periph_TIM14, DISABLE); 
    }   
  }
}
 8002e76:	e8bd 4010 	ldmia.w	sp!, {r4, lr}
    RCC_APB2PeriphResetCmd(RCC_APB2Periph_TIM10, DISABLE);  
  }  
  else if (TIMx == TIM11) 
  {     
    RCC_APB2PeriphResetCmd(RCC_APB2Periph_TIM11, ENABLE);
    RCC_APB2PeriphResetCmd(RCC_APB2Periph_TIM11, DISABLE);  
 8002e7a:	f7fe bf05 	b.w	8001c88 <RCC_APB2PeriphResetCmd>
  }  
  else if (TIMx == TIM12)
  {      
    RCC_APB1PeriphResetCmd(RCC_APB1Periph_TIM12, ENABLE);
 8002e7e:	2040      	movs	r0, #64	; 0x40
 8002e80:	2101      	movs	r1, #1
 8002e82:	f7fe feef 	bl	8001c64 <RCC_APB1PeriphResetCmd>
    RCC_APB1PeriphResetCmd(RCC_APB1Periph_TIM12, DISABLE);  
 8002e86:	2040      	movs	r0, #64	; 0x40
 8002e88:	2100      	movs	r1, #0
    {     
      RCC_APB1PeriphResetCmd(RCC_APB1Periph_TIM14, ENABLE);
      RCC_APB1PeriphResetCmd(RCC_APB1Periph_TIM14, DISABLE); 
    }   
  }
}
 8002e8a:	e8bd 4010 	ldmia.w	sp!, {r4, lr}
    RCC_APB2PeriphResetCmd(RCC_APB2Periph_TIM11, DISABLE);  
  }  
  else if (TIMx == TIM12)
  {      
    RCC_APB1PeriphResetCmd(RCC_APB1Periph_TIM12, ENABLE);
    RCC_APB1PeriphResetCmd(RCC_APB1Periph_TIM12, DISABLE);  
 8002e8e:	f7fe bee9 	b.w	8001c64 <RCC_APB1PeriphResetCmd>
  }  
  else if (TIMx == TIM13) 
  {       
    RCC_APB1PeriphResetCmd(RCC_APB1Periph_TIM13, ENABLE);
 8002e92:	2080      	movs	r0, #128	; 0x80
 8002e94:	2101      	movs	r1, #1
 8002e96:	f7fe fee5 	bl	8001c64 <RCC_APB1PeriphResetCmd>
    RCC_APB1PeriphResetCmd(RCC_APB1Periph_TIM13, DISABLE);  
 8002e9a:	2080      	movs	r0, #128	; 0x80
 8002e9c:	2100      	movs	r1, #0
    {     
      RCC_APB1PeriphResetCmd(RCC_APB1Periph_TIM14, ENABLE);
      RCC_APB1PeriphResetCmd(RCC_APB1Periph_TIM14, DISABLE); 
    }   
  }
}
 8002e9e:	e8bd 4010 	ldmia.w	sp!, {r4, lr}
    RCC_APB1PeriphResetCmd(RCC_APB1Periph_TIM12, DISABLE);  
  }  
  else if (TIMx == TIM13) 
  {       
    RCC_APB1PeriphResetCmd(RCC_APB1Periph_TIM13, ENABLE);
    RCC_APB1PeriphResetCmd(RCC_APB1Periph_TIM13, DISABLE);  
 8002ea2:	f7fe bedf 	b.w	8001c64 <RCC_APB1PeriphResetCmd>
 8002ea6:	bf00      	nop

08002ea8 <USART_StructInit>:
  */
void USART_StructInit(USART_InitTypeDef* USART_InitStruct)
{
  /* USART_InitStruct members default value */
  USART_InitStruct->USART_BaudRate = 9600;
  USART_InitStruct->USART_WordLength = USART_WordLength_8b;
 8002ea8:	2100      	movs	r1, #0
  * @retval None
  */
void USART_StructInit(USART_InitTypeDef* USART_InitStruct)
{
  /* USART_InitStruct members default value */
  USART_InitStruct->USART_BaudRate = 9600;
 8002eaa:	f44f 5216 	mov.w	r2, #9600	; 0x2580
  USART_InitStruct->USART_WordLength = USART_WordLength_8b;
  USART_InitStruct->USART_StopBits = USART_StopBits_1;
  USART_InitStruct->USART_Parity = USART_Parity_No ;
  USART_InitStruct->USART_Mode = USART_Mode_Rx | USART_Mode_Tx;
 8002eae:	f04f 030c 	mov.w	r3, #12
  USART_InitStruct->USART_HardwareFlowControl = USART_HardwareFlowControl_None;  
 8002eb2:	8181      	strh	r1, [r0, #12]
  * @retval None
  */
void USART_StructInit(USART_InitTypeDef* USART_InitStruct)
{
  /* USART_InitStruct members default value */
  USART_InitStruct->USART_BaudRate = 9600;
 8002eb4:	6002      	str	r2, [r0, #0]
  USART_InitStruct->USART_WordLength = USART_WordLength_8b;
 8002eb6:	8081      	strh	r1, [r0, #4]
  USART_InitStruct->USART_StopBits = USART_StopBits_1;
 8002eb8:	80c1      	strh	r1, [r0, #6]
  USART_InitStruct->USART_Parity = USART_Parity_No ;
 8002eba:	8101      	strh	r1, [r0, #8]
  USART_InitStruct->USART_Mode = USART_Mode_Rx | USART_Mode_Tx;
 8002ebc:	8143      	strh	r3, [r0, #10]
  USART_InitStruct->USART_HardwareFlowControl = USART_HardwareFlowControl_None;  
}
 8002ebe:	4770      	bx	lr

08002ec0 <USART_ClockInit>:
  /* Set CPHA bit according to USART_CPHA value */
  /* Set LBCL bit according to USART_LastBit value */
  tmpreg |= (uint32_t)USART_ClockInitStruct->USART_Clock | USART_ClockInitStruct->USART_CPOL | 
                 USART_ClockInitStruct->USART_CPHA | USART_ClockInitStruct->USART_LastBit;
  /* Write to USART CR2 */
  USARTx->CR2 = (uint16_t)tmpreg;
 8002ec0:	880a      	ldrh	r2, [r1, #0]
  *         contains the configuration information for the specified  USART peripheral.
  * @note   The Smart Card and Synchronous modes are not available for UART4 and UART5.    
  * @retval None
  */
void USART_ClockInit(USART_TypeDef* USARTx, USART_ClockInitTypeDef* USART_ClockInitStruct)
{
 8002ec2:	b410      	push	{r4}
  /* Set CPHA bit according to USART_CPHA value */
  /* Set LBCL bit according to USART_LastBit value */
  tmpreg |= (uint32_t)USART_ClockInitStruct->USART_Clock | USART_ClockInitStruct->USART_CPOL | 
                 USART_ClockInitStruct->USART_CPHA | USART_ClockInitStruct->USART_LastBit;
  /* Write to USART CR2 */
  USARTx->CR2 = (uint16_t)tmpreg;
 8002ec4:	884c      	ldrh	r4, [r1, #2]
 8002ec6:	f8b1 c004 	ldrh.w	ip, [r1, #4]
  assert_param(IS_USART_CPOL(USART_ClockInitStruct->USART_CPOL));
  assert_param(IS_USART_CPHA(USART_ClockInitStruct->USART_CPHA));
  assert_param(IS_USART_LASTBIT(USART_ClockInitStruct->USART_LastBit));
  
/*---------------------------- USART CR2 Configuration -----------------------*/
  tmpreg = USARTx->CR2;
 8002eca:	8a03      	ldrh	r3, [r0, #16]
  /* Set CPHA bit according to USART_CPHA value */
  /* Set LBCL bit according to USART_LastBit value */
  tmpreg |= (uint32_t)USART_ClockInitStruct->USART_Clock | USART_ClockInitStruct->USART_CPOL | 
                 USART_ClockInitStruct->USART_CPHA | USART_ClockInitStruct->USART_LastBit;
  /* Write to USART CR2 */
  USARTx->CR2 = (uint16_t)tmpreg;
 8002ecc:	88c9      	ldrh	r1, [r1, #6]
 8002ece:	ea44 0202 	orr.w	r2, r4, r2
 8002ed2:	ea42 020c 	orr.w	r2, r2, ip
  assert_param(IS_USART_LASTBIT(USART_ClockInitStruct->USART_LastBit));
  
/*---------------------------- USART CR2 Configuration -----------------------*/
  tmpreg = USARTx->CR2;
  /* Clear CLKEN, CPOL, CPHA and LBCL bits */
  tmpreg &= (uint32_t)~((uint32_t)CR2_CLOCK_CLEAR_MASK);
 8002ed6:	f423 6370 	bic.w	r3, r3, #3840	; 0xf00
  /* Set CPHA bit according to USART_CPHA value */
  /* Set LBCL bit according to USART_LastBit value */
  tmpreg |= (uint32_t)USART_ClockInitStruct->USART_Clock | USART_ClockInitStruct->USART_CPOL | 
                 USART_ClockInitStruct->USART_CPHA | USART_ClockInitStruct->USART_LastBit;
  /* Write to USART CR2 */
  USARTx->CR2 = (uint16_t)tmpreg;
 8002eda:	430a      	orrs	r2, r1
  assert_param(IS_USART_LASTBIT(USART_ClockInitStruct->USART_LastBit));
  
/*---------------------------- USART CR2 Configuration -----------------------*/
  tmpreg = USARTx->CR2;
  /* Clear CLKEN, CPOL, CPHA and LBCL bits */
  tmpreg &= (uint32_t)~((uint32_t)CR2_CLOCK_CLEAR_MASK);
 8002edc:	041b      	lsls	r3, r3, #16
 8002ede:	0c19      	lsrs	r1, r3, #16
  /* Set CPHA bit according to USART_CPHA value */
  /* Set LBCL bit according to USART_LastBit value */
  tmpreg |= (uint32_t)USART_ClockInitStruct->USART_Clock | USART_ClockInitStruct->USART_CPOL | 
                 USART_ClockInitStruct->USART_CPHA | USART_ClockInitStruct->USART_LastBit;
  /* Write to USART CR2 */
  USARTx->CR2 = (uint16_t)tmpreg;
 8002ee0:	b292      	uxth	r2, r2
 8002ee2:	ea42 0301 	orr.w	r3, r2, r1
 8002ee6:	8203      	strh	r3, [r0, #16]
}
 8002ee8:	bc10      	pop	{r4}
 8002eea:	4770      	bx	lr

08002eec <USART_ClockStructInit>:
  * @retval None
  */
void USART_ClockStructInit(USART_ClockInitTypeDef* USART_ClockInitStruct)
{
  /* USART_ClockInitStruct members default value */
  USART_ClockInitStruct->USART_Clock = USART_Clock_Disable;
 8002eec:	2300      	movs	r3, #0
  USART_ClockInitStruct->USART_CPOL = USART_CPOL_Low;
  USART_ClockInitStruct->USART_CPHA = USART_CPHA_1Edge;
  USART_ClockInitStruct->USART_LastBit = USART_LastBit_Disable;
 8002eee:	80c3      	strh	r3, [r0, #6]
  * @retval None
  */
void USART_ClockStructInit(USART_ClockInitTypeDef* USART_ClockInitStruct)
{
  /* USART_ClockInitStruct members default value */
  USART_ClockInitStruct->USART_Clock = USART_Clock_Disable;
 8002ef0:	8003      	strh	r3, [r0, #0]
  USART_ClockInitStruct->USART_CPOL = USART_CPOL_Low;
 8002ef2:	8043      	strh	r3, [r0, #2]
  USART_ClockInitStruct->USART_CPHA = USART_CPHA_1Edge;
 8002ef4:	8083      	strh	r3, [r0, #4]
  USART_ClockInitStruct->USART_LastBit = USART_LastBit_Disable;
}
 8002ef6:	4770      	bx	lr

08002ef8 <USART_Cmd>:
{
  /* Check the parameters */
  assert_param(IS_USART_ALL_PERIPH(USARTx));
  assert_param(IS_FUNCTIONAL_STATE(NewState));
  
  if (NewState != DISABLE)
 8002ef8:	b939      	cbnz	r1, 8002f0a <USART_Cmd+0x12>
    USARTx->CR1 |= USART_CR1_UE;
  }
  else
  {
    /* Disable the selected USART by clearing the UE bit in the CR1 register */
    USARTx->CR1 &= (uint16_t)~((uint16_t)USART_CR1_UE);
 8002efa:	f8b0 c00c 	ldrh.w	ip, [r0, #12]
 8002efe:	f42c 5200 	bic.w	r2, ip, #8192	; 0x2000
 8002f02:	0411      	lsls	r1, r2, #16
 8002f04:	0c0b      	lsrs	r3, r1, #16
 8002f06:	8183      	strh	r3, [r0, #12]
 8002f08:	4770      	bx	lr
  assert_param(IS_FUNCTIONAL_STATE(NewState));
  
  if (NewState != DISABLE)
  {
    /* Enable the selected USART by setting the UE bit in the CR1 register */
    USARTx->CR1 |= USART_CR1_UE;
 8002f0a:	8982      	ldrh	r2, [r0, #12]
 8002f0c:	b291      	uxth	r1, r2
 8002f0e:	f441 5300 	orr.w	r3, r1, #8192	; 0x2000
 8002f12:	8183      	strh	r3, [r0, #12]
 8002f14:	4770      	bx	lr
 8002f16:	bf00      	nop

08002f18 <USART_SetPrescaler>:
{ 
  /* Check the parameters */
  assert_param(IS_USART_ALL_PERIPH(USARTx));
  
  /* Clear the USART prescaler */
  USARTx->GTPR &= USART_GTPR_GT;
 8002f18:	8b02      	ldrh	r2, [r0, #24]
 8002f1a:	f402 437f 	and.w	r3, r2, #65280	; 0xff00
 8002f1e:	8303      	strh	r3, [r0, #24]
  /* Set the USART prescaler */
  USARTx->GTPR |= USART_Prescaler;
 8002f20:	f8b0 c018 	ldrh.w	ip, [r0, #24]
 8002f24:	fa1f f28c 	uxth.w	r2, ip
 8002f28:	ea41 0302 	orr.w	r3, r1, r2
 8002f2c:	8303      	strh	r3, [r0, #24]
}
 8002f2e:	4770      	bx	lr

08002f30 <USART_OverSampling8Cmd>:
{
  /* Check the parameters */
  assert_param(IS_USART_ALL_PERIPH(USARTx));
  assert_param(IS_FUNCTIONAL_STATE(NewState));
  
  if (NewState != DISABLE)
 8002f30:	b921      	cbnz	r1, 8002f3c <USART_OverSampling8Cmd+0xc>
    USARTx->CR1 |= USART_CR1_OVER8;
  }
  else
  {
    /* Disable the 8x Oversampling mode by clearing the OVER8 bit in the CR1 register */
    USARTx->CR1 &= (uint16_t)~((uint16_t)USART_CR1_OVER8);
 8002f32:	8982      	ldrh	r2, [r0, #12]
 8002f34:	0451      	lsls	r1, r2, #17
 8002f36:	0c4b      	lsrs	r3, r1, #17
 8002f38:	8183      	strh	r3, [r0, #12]
 8002f3a:	4770      	bx	lr
  assert_param(IS_FUNCTIONAL_STATE(NewState));
  
  if (NewState != DISABLE)
  {
    /* Enable the 8x Oversampling mode by setting the OVER8 bit in the CR1 register */
    USARTx->CR1 |= USART_CR1_OVER8;
 8002f3c:	8982      	ldrh	r2, [r0, #12]
 8002f3e:	b291      	uxth	r1, r2
 8002f40:	f441 4300 	orr.w	r3, r1, #32768	; 0x8000
 8002f44:	8183      	strh	r3, [r0, #12]
 8002f46:	4770      	bx	lr

08002f48 <USART_OneBitMethodCmd>:
{
  /* Check the parameters */
  assert_param(IS_USART_ALL_PERIPH(USARTx));
  assert_param(IS_FUNCTIONAL_STATE(NewState));
  
  if (NewState != DISABLE)
 8002f48:	b939      	cbnz	r1, 8002f5a <USART_OneBitMethodCmd+0x12>
    USARTx->CR3 |= USART_CR3_ONEBIT;
  }
  else
  {
    /* Disable the one bit method by clearing the ONEBITE bit in the CR3 register */
    USARTx->CR3 &= (uint16_t)~((uint16_t)USART_CR3_ONEBIT);
 8002f4a:	f8b0 c014 	ldrh.w	ip, [r0, #20]
 8002f4e:	f42c 6200 	bic.w	r2, ip, #2048	; 0x800
 8002f52:	0411      	lsls	r1, r2, #16
 8002f54:	0c0b      	lsrs	r3, r1, #16
 8002f56:	8283      	strh	r3, [r0, #20]
 8002f58:	4770      	bx	lr
  assert_param(IS_FUNCTIONAL_STATE(NewState));
  
  if (NewState != DISABLE)
  {
    /* Enable the one bit method by setting the ONEBITE bit in the CR3 register */
    USARTx->CR3 |= USART_CR3_ONEBIT;
 8002f5a:	8a82      	ldrh	r2, [r0, #20]
 8002f5c:	b291      	uxth	r1, r2
 8002f5e:	f441 6300 	orr.w	r3, r1, #2048	; 0x800
 8002f62:	8283      	strh	r3, [r0, #20]
 8002f64:	4770      	bx	lr
 8002f66:	bf00      	nop

08002f68 <USART_SendData>:
  /* Check the parameters */
  assert_param(IS_USART_ALL_PERIPH(USARTx));
  assert_param(IS_USART_DATA(Data)); 
    
  /* Transmit Data */
  USARTx->DR = (Data & (uint16_t)0x01FF);
 8002f68:	05ca      	lsls	r2, r1, #23
 8002f6a:	0dd1      	lsrs	r1, r2, #23
 8002f6c:	8081      	strh	r1, [r0, #4]
}
 8002f6e:	4770      	bx	lr

08002f70 <USART_ReceiveData>:
{
  /* Check the parameters */
  assert_param(IS_USART_ALL_PERIPH(USARTx));
  
  /* Receive Data */
  return (uint16_t)(USARTx->DR & (uint16_t)0x01FF);
 8002f70:	8881      	ldrh	r1, [r0, #4]
}
 8002f72:	05c8      	lsls	r0, r1, #23
 8002f74:	0dc0      	lsrs	r0, r0, #23
 8002f76:	4770      	bx	lr

08002f78 <USART_SetAddress>:
  /* Check the parameters */
  assert_param(IS_USART_ALL_PERIPH(USARTx));
  assert_param(IS_USART_ADDRESS(USART_Address)); 
    
  /* Clear the USART address */
  USARTx->CR2 &= (uint16_t)~((uint16_t)USART_CR2_ADD);
 8002f78:	f8b0 c010 	ldrh.w	ip, [r0, #16]
 8002f7c:	f02c 030f 	bic.w	r3, ip, #15
 8002f80:	041a      	lsls	r2, r3, #16
 8002f82:	0c13      	lsrs	r3, r2, #16
 8002f84:	8203      	strh	r3, [r0, #16]
  /* Set the USART address node */
  USARTx->CR2 |= USART_Address;
 8002f86:	f8b0 c010 	ldrh.w	ip, [r0, #16]
 8002f8a:	fa1f f28c 	uxth.w	r2, ip
 8002f8e:	ea41 0302 	orr.w	r3, r1, r2
 8002f92:	8203      	strh	r3, [r0, #16]
}
 8002f94:	4770      	bx	lr
 8002f96:	bf00      	nop

08002f98 <USART_ReceiverWakeUpCmd>:
{
  /* Check the parameters */
  assert_param(IS_USART_ALL_PERIPH(USARTx));
  assert_param(IS_FUNCTIONAL_STATE(NewState)); 
  
  if (NewState != DISABLE)
 8002f98:	b939      	cbnz	r1, 8002faa <USART_ReceiverWakeUpCmd+0x12>
    USARTx->CR1 |= USART_CR1_RWU;
  }
  else
  {
    /* Disable the USART mute mode by clearing the RWU bit in the CR1 register */
    USARTx->CR1 &= (uint16_t)~((uint16_t)USART_CR1_RWU);
 8002f9a:	f8b0 c00c 	ldrh.w	ip, [r0, #12]
 8002f9e:	f02c 0202 	bic.w	r2, ip, #2
 8002fa2:	0411      	lsls	r1, r2, #16
 8002fa4:	0c0b      	lsrs	r3, r1, #16
 8002fa6:	8183      	strh	r3, [r0, #12]
 8002fa8:	4770      	bx	lr
  assert_param(IS_FUNCTIONAL_STATE(NewState)); 
  
  if (NewState != DISABLE)
  {
    /* Enable the USART mute mode  by setting the RWU bit in the CR1 register */
    USARTx->CR1 |= USART_CR1_RWU;
 8002faa:	8982      	ldrh	r2, [r0, #12]
 8002fac:	b291      	uxth	r1, r2
 8002fae:	f041 0302 	orr.w	r3, r1, #2
 8002fb2:	8183      	strh	r3, [r0, #12]
 8002fb4:	4770      	bx	lr
 8002fb6:	bf00      	nop

08002fb8 <USART_WakeUpConfig>:
{
  /* Check the parameters */
  assert_param(IS_USART_ALL_PERIPH(USARTx));
  assert_param(IS_USART_WAKEUP(USART_WakeUp));
  
  USARTx->CR1 &= (uint16_t)~((uint16_t)USART_CR1_WAKE);
 8002fb8:	f8b0 c00c 	ldrh.w	ip, [r0, #12]
 8002fbc:	f42c 6300 	bic.w	r3, ip, #2048	; 0x800
 8002fc0:	041a      	lsls	r2, r3, #16
 8002fc2:	0c13      	lsrs	r3, r2, #16
 8002fc4:	8183      	strh	r3, [r0, #12]
  USARTx->CR1 |= USART_WakeUp;
 8002fc6:	f8b0 c00c 	ldrh.w	ip, [r0, #12]
 8002fca:	fa1f f28c 	uxth.w	r2, ip
 8002fce:	ea41 0302 	orr.w	r3, r1, r2
 8002fd2:	8183      	strh	r3, [r0, #12]
}
 8002fd4:	4770      	bx	lr
 8002fd6:	bf00      	nop

08002fd8 <USART_LINBreakDetectLengthConfig>:
{
  /* Check the parameters */
  assert_param(IS_USART_ALL_PERIPH(USARTx));
  assert_param(IS_USART_LIN_BREAK_DETECT_LENGTH(USART_LINBreakDetectLength));
  
  USARTx->CR2 &= (uint16_t)~((uint16_t)USART_CR2_LBDL);
 8002fd8:	f8b0 c010 	ldrh.w	ip, [r0, #16]
 8002fdc:	f02c 0320 	bic.w	r3, ip, #32
 8002fe0:	041a      	lsls	r2, r3, #16
 8002fe2:	0c13      	lsrs	r3, r2, #16
 8002fe4:	8203      	strh	r3, [r0, #16]
  USARTx->CR2 |= USART_LINBreakDetectLength;  
 8002fe6:	f8b0 c010 	ldrh.w	ip, [r0, #16]
 8002fea:	fa1f f28c 	uxth.w	r2, ip
 8002fee:	ea41 0302 	orr.w	r3, r1, r2
 8002ff2:	8203      	strh	r3, [r0, #16]
}
 8002ff4:	4770      	bx	lr
 8002ff6:	bf00      	nop

08002ff8 <USART_LINCmd>:
{
  /* Check the parameters */
  assert_param(IS_USART_ALL_PERIPH(USARTx));
  assert_param(IS_FUNCTIONAL_STATE(NewState));
  
  if (NewState != DISABLE)
 8002ff8:	b939      	cbnz	r1, 800300a <USART_LINCmd+0x12>
    USARTx->CR2 |= USART_CR2_LINEN;
  }
  else
  {
    /* Disable the LIN mode by clearing the LINEN bit in the CR2 register */
    USARTx->CR2 &= (uint16_t)~((uint16_t)USART_CR2_LINEN);
 8002ffa:	f8b0 c010 	ldrh.w	ip, [r0, #16]
 8002ffe:	f42c 4280 	bic.w	r2, ip, #16384	; 0x4000
 8003002:	0411      	lsls	r1, r2, #16
 8003004:	0c0b      	lsrs	r3, r1, #16
 8003006:	8203      	strh	r3, [r0, #16]
 8003008:	4770      	bx	lr
  assert_param(IS_FUNCTIONAL_STATE(NewState));
  
  if (NewState != DISABLE)
  {
    /* Enable the LIN mode by setting the LINEN bit in the CR2 register */
    USARTx->CR2 |= USART_CR2_LINEN;
 800300a:	8a02      	ldrh	r2, [r0, #16]
 800300c:	b291      	uxth	r1, r2
 800300e:	f441 4380 	orr.w	r3, r1, #16384	; 0x4000
 8003012:	8203      	strh	r3, [r0, #16]
 8003014:	4770      	bx	lr
 8003016:	bf00      	nop

08003018 <USART_SendBreak>:
{
  /* Check the parameters */
  assert_param(IS_USART_ALL_PERIPH(USARTx));
  
  /* Send break characters */
  USARTx->CR1 |= USART_CR1_SBK;
 8003018:	8982      	ldrh	r2, [r0, #12]
 800301a:	b291      	uxth	r1, r2
 800301c:	f041 0301 	orr.w	r3, r1, #1
 8003020:	8183      	strh	r3, [r0, #12]
}
 8003022:	4770      	bx	lr

08003024 <USART_HalfDuplexCmd>:
{
  /* Check the parameters */
  assert_param(IS_USART_ALL_PERIPH(USARTx));
  assert_param(IS_FUNCTIONAL_STATE(NewState));
  
  if (NewState != DISABLE)
 8003024:	b939      	cbnz	r1, 8003036 <USART_HalfDuplexCmd+0x12>
    USARTx->CR3 |= USART_CR3_HDSEL;
  }
  else
  {
    /* Disable the Half-Duplex mode by clearing the HDSEL bit in the CR3 register */
    USARTx->CR3 &= (uint16_t)~((uint16_t)USART_CR3_HDSEL);
 8003026:	f8b0 c014 	ldrh.w	ip, [r0, #20]
 800302a:	f02c 0208 	bic.w	r2, ip, #8
 800302e:	0411      	lsls	r1, r2, #16
 8003030:	0c0b      	lsrs	r3, r1, #16
 8003032:	8283      	strh	r3, [r0, #20]
 8003034:	4770      	bx	lr
  assert_param(IS_FUNCTIONAL_STATE(NewState));
  
  if (NewState != DISABLE)
  {
    /* Enable the Half-Duplex mode by setting the HDSEL bit in the CR3 register */
    USARTx->CR3 |= USART_CR3_HDSEL;
 8003036:	8a82      	ldrh	r2, [r0, #20]
 8003038:	b291      	uxth	r1, r2
 800303a:	f041 0308 	orr.w	r3, r1, #8
 800303e:	8283      	strh	r3, [r0, #20]
 8003040:	4770      	bx	lr
 8003042:	bf00      	nop

08003044 <USART_SetGuardTime>:
{    
  /* Check the parameters */
  assert_param(IS_USART_1236_PERIPH(USARTx));
  
  /* Clear the USART Guard time */
  USARTx->GTPR &= USART_GTPR_PSC;
 8003044:	8b02      	ldrh	r2, [r0, #24]
 8003046:	b2d3      	uxtb	r3, r2
 8003048:	8303      	strh	r3, [r0, #24]
  /* Set the USART guard time */
  USARTx->GTPR |= (uint16_t)((uint16_t)USART_GuardTime << 0x08);
 800304a:	f8b0 c018 	ldrh.w	ip, [r0, #24]
 800304e:	fa1f f28c 	uxth.w	r2, ip
 8003052:	ea42 2301 	orr.w	r3, r2, r1, lsl #8
 8003056:	8303      	strh	r3, [r0, #24]
}
 8003058:	4770      	bx	lr
 800305a:	bf00      	nop

0800305c <USART_SmartCardCmd>:
void USART_SmartCardCmd(USART_TypeDef* USARTx, FunctionalState NewState)
{
  /* Check the parameters */
  assert_param(IS_USART_1236_PERIPH(USARTx));
  assert_param(IS_FUNCTIONAL_STATE(NewState));
  if (NewState != DISABLE)
 800305c:	b939      	cbnz	r1, 800306e <USART_SmartCardCmd+0x12>
    USARTx->CR3 |= USART_CR3_SCEN;
  }
  else
  {
    /* Disable the SC mode by clearing the SCEN bit in the CR3 register */
    USARTx->CR3 &= (uint16_t)~((uint16_t)USART_CR3_SCEN);
 800305e:	f8b0 c014 	ldrh.w	ip, [r0, #20]
 8003062:	f02c 0220 	bic.w	r2, ip, #32
 8003066:	0411      	lsls	r1, r2, #16
 8003068:	0c0b      	lsrs	r3, r1, #16
 800306a:	8283      	strh	r3, [r0, #20]
 800306c:	4770      	bx	lr
  assert_param(IS_USART_1236_PERIPH(USARTx));
  assert_param(IS_FUNCTIONAL_STATE(NewState));
  if (NewState != DISABLE)
  {
    /* Enable the SC mode by setting the SCEN bit in the CR3 register */
    USARTx->CR3 |= USART_CR3_SCEN;
 800306e:	8a82      	ldrh	r2, [r0, #20]
 8003070:	b291      	uxth	r1, r2
 8003072:	f041 0320 	orr.w	r3, r1, #32
 8003076:	8283      	strh	r3, [r0, #20]
 8003078:	4770      	bx	lr
 800307a:	bf00      	nop

0800307c <USART_SmartCardNACKCmd>:
void USART_SmartCardNACKCmd(USART_TypeDef* USARTx, FunctionalState NewState)
{
  /* Check the parameters */
  assert_param(IS_USART_1236_PERIPH(USARTx)); 
  assert_param(IS_FUNCTIONAL_STATE(NewState));
  if (NewState != DISABLE)
 800307c:	b939      	cbnz	r1, 800308e <USART_SmartCardNACKCmd+0x12>
    USARTx->CR3 |= USART_CR3_NACK;
  }
  else
  {
    /* Disable the NACK transmission by clearing the NACK bit in the CR3 register */
    USARTx->CR3 &= (uint16_t)~((uint16_t)USART_CR3_NACK);
 800307e:	f8b0 c014 	ldrh.w	ip, [r0, #20]
 8003082:	f02c 0210 	bic.w	r2, ip, #16
 8003086:	0411      	lsls	r1, r2, #16
 8003088:	0c0b      	lsrs	r3, r1, #16
 800308a:	8283      	strh	r3, [r0, #20]
 800308c:	4770      	bx	lr
  assert_param(IS_USART_1236_PERIPH(USARTx)); 
  assert_param(IS_FUNCTIONAL_STATE(NewState));
  if (NewState != DISABLE)
  {
    /* Enable the NACK transmission by setting the NACK bit in the CR3 register */
    USARTx->CR3 |= USART_CR3_NACK;
 800308e:	8a82      	ldrh	r2, [r0, #20]
 8003090:	b291      	uxth	r1, r2
 8003092:	f041 0310 	orr.w	r3, r1, #16
 8003096:	8283      	strh	r3, [r0, #20]
 8003098:	4770      	bx	lr
 800309a:	bf00      	nop

0800309c <USART_IrDAConfig>:
{
  /* Check the parameters */
  assert_param(IS_USART_ALL_PERIPH(USARTx));
  assert_param(IS_USART_IRDA_MODE(USART_IrDAMode));
    
  USARTx->CR3 &= (uint16_t)~((uint16_t)USART_CR3_IRLP);
 800309c:	f8b0 c014 	ldrh.w	ip, [r0, #20]
 80030a0:	f02c 0304 	bic.w	r3, ip, #4
 80030a4:	041a      	lsls	r2, r3, #16
 80030a6:	0c13      	lsrs	r3, r2, #16
 80030a8:	8283      	strh	r3, [r0, #20]
  USARTx->CR3 |= USART_IrDAMode;
 80030aa:	f8b0 c014 	ldrh.w	ip, [r0, #20]
 80030ae:	fa1f f28c 	uxth.w	r2, ip
 80030b2:	ea41 0302 	orr.w	r3, r1, r2
 80030b6:	8283      	strh	r3, [r0, #20]
}
 80030b8:	4770      	bx	lr
 80030ba:	bf00      	nop

080030bc <USART_IrDACmd>:
{
  /* Check the parameters */
  assert_param(IS_USART_ALL_PERIPH(USARTx));
  assert_param(IS_FUNCTIONAL_STATE(NewState));
    
  if (NewState != DISABLE)
 80030bc:	b939      	cbnz	r1, 80030ce <USART_IrDACmd+0x12>
    USARTx->CR3 |= USART_CR3_IREN;
  }
  else
  {
    /* Disable the IrDA mode by clearing the IREN bit in the CR3 register */
    USARTx->CR3 &= (uint16_t)~((uint16_t)USART_CR3_IREN);
 80030be:	f8b0 c014 	ldrh.w	ip, [r0, #20]
 80030c2:	f02c 0202 	bic.w	r2, ip, #2
 80030c6:	0411      	lsls	r1, r2, #16
 80030c8:	0c0b      	lsrs	r3, r1, #16
 80030ca:	8283      	strh	r3, [r0, #20]
 80030cc:	4770      	bx	lr
  assert_param(IS_FUNCTIONAL_STATE(NewState));
    
  if (NewState != DISABLE)
  {
    /* Enable the IrDA mode by setting the IREN bit in the CR3 register */
    USARTx->CR3 |= USART_CR3_IREN;
 80030ce:	8a82      	ldrh	r2, [r0, #20]
 80030d0:	b291      	uxth	r1, r2
 80030d2:	f041 0302 	orr.w	r3, r1, #2
 80030d6:	8283      	strh	r3, [r0, #20]
 80030d8:	4770      	bx	lr
 80030da:	bf00      	nop

080030dc <USART_DMACmd>:
  /* Check the parameters */
  assert_param(IS_USART_ALL_PERIPH(USARTx));
  assert_param(IS_USART_DMAREQ(USART_DMAReq));  
  assert_param(IS_FUNCTIONAL_STATE(NewState)); 

  if (NewState != DISABLE)
 80030dc:	b932      	cbnz	r2, 80030ec <USART_DMACmd+0x10>
  }
  else
  {
    /* Disable the DMA transfer for selected requests by clearing the DMAT and/or
       DMAR bits in the USART CR3 register */
    USARTx->CR3 &= (uint16_t)~USART_DMAReq;
 80030de:	8a83      	ldrh	r3, [r0, #20]
 80030e0:	fa1f fc83 	uxth.w	ip, r3
 80030e4:	ea2c 0101 	bic.w	r1, ip, r1
 80030e8:	8281      	strh	r1, [r0, #20]
 80030ea:	4770      	bx	lr

  if (NewState != DISABLE)
  {
    /* Enable the DMA transfer for selected requests by setting the DMAT and/or
       DMAR bits in the USART CR3 register */
    USARTx->CR3 |= USART_DMAReq;
 80030ec:	8a82      	ldrh	r2, [r0, #20]
 80030ee:	b293      	uxth	r3, r2
 80030f0:	4319      	orrs	r1, r3
 80030f2:	8281      	strh	r1, [r0, #20]
 80030f4:	4770      	bx	lr
 80030f6:	bf00      	nop

080030f8 <USART_ITConfig>:
  /* Get the USART register index */
  usartreg = (((uint8_t)USART_IT) >> 0x05);

  /* Get the interrupt position */
  itpos = USART_IT & IT_MASK;
  itmask = (((uint32_t)0x01) << itpos);
 80030f8:	f001 031f 	and.w	r3, r1, #31
 80030fc:	f04f 0c01 	mov.w	ip, #1
  } 
    
  usartxbase = (uint32_t)USARTx;

  /* Get the USART register index */
  usartreg = (((uint8_t)USART_IT) >> 0x05);
 8003100:	f3c1 1142 	ubfx	r1, r1, #5, #3

  /* Get the interrupt position */
  itpos = USART_IT & IT_MASK;
  itmask = (((uint32_t)0x01) << itpos);
    
  if (usartreg == 0x01) /* The IT is in CR1 register */
 8003104:	4561      	cmp	r1, ip
  /* Get the USART register index */
  usartreg = (((uint8_t)USART_IT) >> 0x05);

  /* Get the interrupt position */
  itpos = USART_IT & IT_MASK;
  itmask = (((uint32_t)0x01) << itpos);
 8003106:	fa0c f303 	lsl.w	r3, ip, r3
    
  if (usartreg == 0x01) /* The IT is in CR1 register */
 800310a:	d00d      	beq.n	8003128 <USART_ITConfig+0x30>
  {
    usartxbase += 0x0C;
  }
  else if (usartreg == 0x02) /* The IT is in CR2 register */
 800310c:	2902      	cmp	r1, #2
 800310e:	d00d      	beq.n	800312c <USART_ITConfig+0x34>
  {
    usartxbase += 0x10;
  }
  else /* The IT is in CR3 register */
  {
    usartxbase += 0x14; 
 8003110:	3014      	adds	r0, #20
  }
  if (NewState != DISABLE)
 8003112:	b922      	cbnz	r2, 800311e <USART_ITConfig+0x26>
  {
    *(__IO uint32_t*)usartxbase  |= itmask;
  }
  else
  {
    *(__IO uint32_t*)usartxbase &= ~itmask;
 8003114:	6801      	ldr	r1, [r0, #0]
 8003116:	ea21 0303 	bic.w	r3, r1, r3
 800311a:	6003      	str	r3, [r0, #0]
 800311c:	4770      	bx	lr
  {
    usartxbase += 0x14; 
  }
  if (NewState != DISABLE)
  {
    *(__IO uint32_t*)usartxbase  |= itmask;
 800311e:	6802      	ldr	r2, [r0, #0]
 8003120:	ea42 0103 	orr.w	r1, r2, r3
 8003124:	6001      	str	r1, [r0, #0]
 8003126:	4770      	bx	lr
  itpos = USART_IT & IT_MASK;
  itmask = (((uint32_t)0x01) << itpos);
    
  if (usartreg == 0x01) /* The IT is in CR1 register */
  {
    usartxbase += 0x0C;
 8003128:	300c      	adds	r0, #12
 800312a:	e7f2      	b.n	8003112 <USART_ITConfig+0x1a>
  }
  else if (usartreg == 0x02) /* The IT is in CR2 register */
  {
    usartxbase += 0x10;
 800312c:	3010      	adds	r0, #16
 800312e:	e7f0      	b.n	8003112 <USART_ITConfig+0x1a>

08003130 <USART_GetFlagStatus>:
  if (USART_FLAG == USART_FLAG_CTS)
  {
    assert_param(IS_USART_1236_PERIPH(USARTx));
  } 
    
  if ((USARTx->SR & USART_FLAG) != (uint16_t)RESET)
 8003130:	8803      	ldrh	r3, [r0, #0]
 8003132:	4219      	tst	r1, r3
  else
  {
    bitstatus = RESET;
  }
  return bitstatus;
}
 8003134:	bf0c      	ite	eq
 8003136:	2000      	moveq	r0, #0
 8003138:	2001      	movne	r0, #1
 800313a:	4770      	bx	lr

0800313c <USART_ClearFlag>:
  if ((USART_FLAG & USART_FLAG_CTS) == USART_FLAG_CTS)
  {
    assert_param(IS_USART_1236_PERIPH(USARTx));
  } 
       
  USARTx->SR = (uint16_t)~USART_FLAG;
 800313c:	43ca      	mvns	r2, r1
 800313e:	b291      	uxth	r1, r2
 8003140:	8001      	strh	r1, [r0, #0]
}
 8003142:	4770      	bx	lr

08003144 <USART_GetITStatus>:
    
  /* Get the USART register index */
  usartreg = (((uint8_t)USART_IT) >> 0x05);
  /* Get the interrupt position */
  itmask = USART_IT & IT_MASK;
  itmask = (uint32_t)0x01 << itmask;
 8003144:	f04f 0c01 	mov.w	ip, #1
  {
    assert_param(IS_USART_1236_PERIPH(USARTx));
  } 
    
  /* Get the USART register index */
  usartreg = (((uint8_t)USART_IT) >> 0x05);
 8003148:	f3c1 1342 	ubfx	r3, r1, #5, #3
  /* Get the interrupt position */
  itmask = USART_IT & IT_MASK;
  itmask = (uint32_t)0x01 << itmask;
 800314c:	f001 021f 	and.w	r2, r1, #31
  
  if (usartreg == 0x01) /* The IT  is in CR1 register */
 8003150:	4563      	cmp	r3, ip
    
  /* Get the USART register index */
  usartreg = (((uint8_t)USART_IT) >> 0x05);
  /* Get the interrupt position */
  itmask = USART_IT & IT_MASK;
  itmask = (uint32_t)0x01 << itmask;
 8003152:	fa0c f202 	lsl.w	r2, ip, r2
  
  if (usartreg == 0x01) /* The IT  is in CR1 register */
 8003156:	d019      	beq.n	800318c <USART_GetITStatus+0x48>
  {
    itmask &= USARTx->CR1;
  }
  else if (usartreg == 0x02) /* The IT  is in CR2 register */
 8003158:	2b02      	cmp	r3, #2
  {
    itmask &= USARTx->CR2;
 800315a:	bf0c      	ite	eq
 800315c:	f8b0 c010 	ldrheq.w	ip, [r0, #16]
  }
  else /* The IT  is in CR3 register */
  {
    itmask &= USARTx->CR3;
 8003160:	f8b0 c014 	ldrhne.w	ip, [r0, #20]
 8003164:	fa1f fc8c 	uxth.w	ip, ip
 8003168:	ea02 020c 	and.w	r2, r2, ip
  }
  
  bitpos = USART_IT >> 0x08;
  bitpos = (uint32_t)0x01 << bitpos;
 800316c:	2301      	movs	r3, #1
 800316e:	0a09      	lsrs	r1, r1, #8
 8003170:	fa13 f101 	lsls.w	r1, r3, r1
  bitpos &= USARTx->SR;
 8003174:	8803      	ldrh	r3, [r0, #0]
 8003176:	b298      	uxth	r0, r3
 8003178:	4201      	tst	r1, r0
 800317a:	bf0c      	ite	eq
 800317c:	2100      	moveq	r1, #0
 800317e:	2101      	movne	r1, #1
  {
    bitstatus = RESET;
  }
  
  return bitstatus;  
}
 8003180:	2a00      	cmp	r2, #0
 8003182:	bf0c      	ite	eq
 8003184:	2000      	moveq	r0, #0
 8003186:	f001 0001 	andne.w	r0, r1, #1
 800318a:	4770      	bx	lr
  itmask = USART_IT & IT_MASK;
  itmask = (uint32_t)0x01 << itmask;
  
  if (usartreg == 0x01) /* The IT  is in CR1 register */
  {
    itmask &= USARTx->CR1;
 800318c:	8983      	ldrh	r3, [r0, #12]
 800318e:	fa1f fc83 	uxth.w	ip, r3
 8003192:	ea02 020c 	and.w	r2, r2, ip
 8003196:	e7e9      	b.n	800316c <USART_GetITStatus+0x28>

08003198 <USART_ClearITPendingBit>:
    assert_param(IS_USART_1236_PERIPH(USARTx));
  } 
    
  bitpos = USART_IT >> 0x08;
  itmask = ((uint16_t)0x01 << (uint16_t)bitpos);
  USARTx->SR = (uint16_t)~itmask;
 8003198:	0a09      	lsrs	r1, r1, #8
 800319a:	2301      	movs	r3, #1
 800319c:	fa13 f201 	lsls.w	r2, r3, r1
 80031a0:	43d1      	mvns	r1, r2
 80031a2:	b28b      	uxth	r3, r1
 80031a4:	8003      	strh	r3, [r0, #0]
}
 80031a6:	4770      	bx	lr

080031a8 <USART_Init>:
  {
    assert_param(IS_USART_1236_PERIPH(USARTx));
  }

/*---------------------------- USART CR2 Configuration -----------------------*/
  tmpreg = USARTx->CR2;
 80031a8:	f8b0 c010 	ldrh.w	ip, [r0, #16]
  * @param  USART_InitStruct: pointer to a USART_InitTypeDef structure that contains
  *         the configuration information for the specified USART peripheral.
  * @retval None
  */
void USART_Init(USART_TypeDef* USARTx, USART_InitTypeDef* USART_InitStruct)
{
 80031ac:	b530      	push	{r4, r5, lr}

/*---------------------------- USART CR2 Configuration -----------------------*/
  tmpreg = USARTx->CR2;

  /* Clear STOP[13:12] bits */
  tmpreg &= (uint32_t)~((uint32_t)USART_CR2_STOP);
 80031ae:	f42c 5240 	bic.w	r2, ip, #12288	; 0x3000
  * @param  USART_InitStruct: pointer to a USART_InitTypeDef structure that contains
  *         the configuration information for the specified USART peripheral.
  * @retval None
  */
void USART_Init(USART_TypeDef* USARTx, USART_InitTypeDef* USART_InitStruct)
{
 80031b2:	4604      	mov	r4, r0
 80031b4:	460d      	mov	r5, r1

/*---------------------------- USART CR2 Configuration -----------------------*/
  tmpreg = USARTx->CR2;

  /* Clear STOP[13:12] bits */
  tmpreg &= (uint32_t)~((uint32_t)USART_CR2_STOP);
 80031b6:	0410      	lsls	r0, r2, #16
  /* Configure the USART Stop Bits, Clock, CPOL, CPHA and LastBit :
      Set STOP[13:12] bits according to USART_StopBits value */
  tmpreg |= (uint32_t)USART_InitStruct->USART_StopBits;
  
  /* Write to USART CR2 */
  USARTx->CR2 = (uint16_t)tmpreg;
 80031b8:	88c9      	ldrh	r1, [r1, #6]

/*---------------------------- USART CR2 Configuration -----------------------*/
  tmpreg = USARTx->CR2;

  /* Clear STOP[13:12] bits */
  tmpreg &= (uint32_t)~((uint32_t)USART_CR2_STOP);
 80031ba:	0c03      	lsrs	r3, r0, #16
  /* Configure the USART Stop Bits, Clock, CPOL, CPHA and LastBit :
      Set STOP[13:12] bits according to USART_StopBits value */
  tmpreg |= (uint32_t)USART_InitStruct->USART_StopBits;
  
  /* Write to USART CR2 */
  USARTx->CR2 = (uint16_t)tmpreg;
 80031bc:	430b      	orrs	r3, r1
 80031be:	8223      	strh	r3, [r4, #16]

/*---------------------------- USART CR1 Configuration -----------------------*/
  tmpreg = USARTx->CR1;
 80031c0:	89a2      	ldrh	r2, [r4, #12]
     Set TE and RE bits according to USART_Mode value */
  tmpreg |= (uint32_t)USART_InitStruct->USART_WordLength | USART_InitStruct->USART_Parity |
            USART_InitStruct->USART_Mode;

  /* Write to USART CR1 */
  USARTx->CR1 = (uint16_t)tmpreg;
 80031c2:	8928      	ldrh	r0, [r5, #8]
 80031c4:	f8b5 e004 	ldrh.w	lr, [r5, #4]
 80031c8:	8969      	ldrh	r1, [r5, #10]

/*---------------------------- USART CR1 Configuration -----------------------*/
  tmpreg = USARTx->CR1;

  /* Clear M, PCE, PS, TE and RE bits */
  tmpreg &= (uint32_t)~((uint32_t)CR1_CLEAR_MASK);
 80031ca:	f422 5cb0 	bic.w	ip, r2, #5632	; 0x1600
 80031ce:	f02c 030c 	bic.w	r3, ip, #12
     Set TE and RE bits according to USART_Mode value */
  tmpreg |= (uint32_t)USART_InitStruct->USART_WordLength | USART_InitStruct->USART_Parity |
            USART_InitStruct->USART_Mode;

  /* Write to USART CR1 */
  USARTx->CR1 = (uint16_t)tmpreg;
 80031d2:	ea40 020e 	orr.w	r2, r0, lr
 80031d6:	430a      	orrs	r2, r1

/*---------------------------- USART CR1 Configuration -----------------------*/
  tmpreg = USARTx->CR1;

  /* Clear M, PCE, PS, TE and RE bits */
  tmpreg &= (uint32_t)~((uint32_t)CR1_CLEAR_MASK);
 80031d8:	0419      	lsls	r1, r3, #16
 80031da:	0c0b      	lsrs	r3, r1, #16
     Set TE and RE bits according to USART_Mode value */
  tmpreg |= (uint32_t)USART_InitStruct->USART_WordLength | USART_InitStruct->USART_Parity |
            USART_InitStruct->USART_Mode;

  /* Write to USART CR1 */
  USARTx->CR1 = (uint16_t)tmpreg;
 80031dc:	b290      	uxth	r0, r2
 80031de:	ea40 0e03 	orr.w	lr, r0, r3
 80031e2:	f8a4 e00c 	strh.w	lr, [r4, #12]

/*---------------------------- USART CR3 Configuration -----------------------*/  
  tmpreg = USARTx->CR3;
 80031e6:	f8b4 c014 	ldrh.w	ip, [r4, #20]
  /* Configure the USART HFC : 
      Set CTSE and RTSE bits according to USART_HardwareFlowControl value */
  tmpreg |= USART_InitStruct->USART_HardwareFlowControl;

  /* Write to USART CR3 */
  USARTx->CR3 = (uint16_t)tmpreg;
 80031ea:	89a8      	ldrh	r0, [r5, #12]

/*---------------------------- USART CR3 Configuration -----------------------*/  
  tmpreg = USARTx->CR3;

  /* Clear CTSE and RTSE bits */
  tmpreg &= (uint32_t)~((uint32_t)CR3_CLEAR_MASK);
 80031ec:	f42c 7140 	bic.w	r1, ip, #768	; 0x300
 80031f0:	040a      	lsls	r2, r1, #16
 80031f2:	0c13      	lsrs	r3, r2, #16
  /* Configure the USART HFC : 
      Set CTSE and RTSE bits according to USART_HardwareFlowControl value */
  tmpreg |= USART_InitStruct->USART_HardwareFlowControl;

  /* Write to USART CR3 */
  USARTx->CR3 = (uint16_t)tmpreg;
 80031f4:	4303      	orrs	r3, r0
  * @param  USART_InitStruct: pointer to a USART_InitTypeDef structure that contains
  *         the configuration information for the specified USART peripheral.
  * @retval None
  */
void USART_Init(USART_TypeDef* USARTx, USART_InitTypeDef* USART_InitStruct)
{
 80031f6:	b085      	sub	sp, #20
  /* Configure the USART HFC : 
      Set CTSE and RTSE bits according to USART_HardwareFlowControl value */
  tmpreg |= USART_InitStruct->USART_HardwareFlowControl;

  /* Write to USART CR3 */
  USARTx->CR3 = (uint16_t)tmpreg;
 80031f8:	82a3      	strh	r3, [r4, #20]

/*---------------------------- USART BRR Configuration -----------------------*/
  /* Configure the USART Baud Rate */
  RCC_GetClocksFreq(&RCC_ClocksStatus);
 80031fa:	4668      	mov	r0, sp
 80031fc:	f7fe fc16 	bl	8001a2c <RCC_GetClocksFreq>

  if ((USARTx == USART1) || (USARTx == USART6))
 8003200:	f241 0100 	movw	r1, #4096	; 0x1000
 8003204:	f2c4 0101 	movt	r1, #16385	; 0x4001
 8003208:	f241 4000 	movw	r0, #5120	; 0x1400
 800320c:	f2c4 0001 	movt	r0, #16385	; 0x4001
 8003210:	428c      	cmp	r4, r1
 8003212:	bf14      	ite	ne
 8003214:	2200      	movne	r2, #0
 8003216:	2201      	moveq	r2, #1
 8003218:	4284      	cmp	r4, r0
 800321a:	bf14      	ite	ne
 800321c:	4613      	movne	r3, r2
 800321e:	f042 0301 	orreq.w	r3, r2, #1
 8003222:	2b00      	cmp	r3, #0
 8003224:	d02a      	beq.n	800327c <USART_Init+0xd4>
  {
    apbclock = RCC_ClocksStatus.PCLK1_Frequency;
  }
  
  /* Determine the integer part */
  if ((USARTx->CR1 & USART_CR1_OVER8) != 0)
 8003226:	89a0      	ldrh	r0, [r4, #12]
  /* Configure the USART Baud Rate */
  RCC_GetClocksFreq(&RCC_ClocksStatus);

  if ((USARTx == USART1) || (USARTx == USART6))
  {
    apbclock = RCC_ClocksStatus.PCLK2_Frequency;
 8003228:	9b03      	ldr	r3, [sp, #12]
  {
    apbclock = RCC_ClocksStatus.PCLK1_Frequency;
  }
  
  /* Determine the integer part */
  if ((USARTx->CR1 & USART_CR1_OVER8) != 0)
 800322a:	b201      	sxth	r1, r0
  {
    /* Integer part computing in case Oversampling mode is 8 Samples */
    integerdivider = ((25 * apbclock) / (2 * (USART_InitStruct->USART_BaudRate)));    
 800322c:	eb03 0e83 	add.w	lr, r3, r3, lsl #2
  {
    apbclock = RCC_ClocksStatus.PCLK1_Frequency;
  }
  
  /* Determine the integer part */
  if ((USARTx->CR1 & USART_CR1_OVER8) != 0)
 8003230:	2900      	cmp	r1, #0
  {
    /* Integer part computing in case Oversampling mode is 8 Samples */
    integerdivider = ((25 * apbclock) / (2 * (USART_InitStruct->USART_BaudRate)));    
 8003232:	682a      	ldr	r2, [r5, #0]
 8003234:	eb0e 038e 	add.w	r3, lr, lr, lsl #2
  {
    apbclock = RCC_ClocksStatus.PCLK1_Frequency;
  }
  
  /* Determine the integer part */
  if ((USARTx->CR1 & USART_CR1_OVER8) != 0)
 8003238:	db2a      	blt.n	8003290 <USART_Init+0xe8>
    integerdivider = ((25 * apbclock) / (2 * (USART_InitStruct->USART_BaudRate)));    
  }
  else /* if ((USARTx->CR1 & USART_CR1_OVER8) == 0) */
  {
    /* Integer part computing in case Oversampling mode is 16 Samples */
    integerdivider = ((25 * apbclock) / (4 * (USART_InitStruct->USART_BaudRate)));    
 800323a:	0090      	lsls	r0, r2, #2
 800323c:	fbb3 f1f0 	udiv	r1, r3, r0
  }
  tmpreg = (integerdivider / 100) << 4;
 8003240:	f248 531f 	movw	r3, #34079	; 0x851f
 8003244:	f2c5 13eb 	movt	r3, #20971	; 0x51eb
 8003248:	fba3 0201 	umull	r0, r2, r3, r1

  /* Determine the fractional part */
  fractionaldivider = integerdivider - (100 * (tmpreg >> 4));

  /* Implement the fractional part in the register */
  if ((USARTx->CR1 & USART_CR1_OVER8) != 0)
 800324c:	89a0      	ldrh	r0, [r4, #12]
  else /* if ((USARTx->CR1 & USART_CR1_OVER8) == 0) */
  {
    /* Integer part computing in case Oversampling mode is 16 Samples */
    integerdivider = ((25 * apbclock) / (4 * (USART_InitStruct->USART_BaudRate)));    
  }
  tmpreg = (integerdivider / 100) << 4;
 800324e:	0952      	lsrs	r2, r2, #5

  /* Determine the fractional part */
  fractionaldivider = integerdivider - (100 * (tmpreg >> 4));

  /* Implement the fractional part in the register */
  if ((USARTx->CR1 & USART_CR1_OVER8) != 0)
 8003250:	fa0f fe80 	sxth.w	lr, r0
    integerdivider = ((25 * apbclock) / (4 * (USART_InitStruct->USART_BaudRate)));    
  }
  tmpreg = (integerdivider / 100) << 4;

  /* Determine the fractional part */
  fractionaldivider = integerdivider - (100 * (tmpreg >> 4));
 8003254:	f04f 0c64 	mov.w	ip, #100	; 0x64
 8003258:	fb02 111c 	mls	r1, r2, ip, r1
 800325c:	0112      	lsls	r2, r2, #4

  /* Implement the fractional part in the register */
  if ((USARTx->CR1 & USART_CR1_OVER8) != 0)
 800325e:	f1be 0f00 	cmp.w	lr, #0
 8003262:	db19      	blt.n	8003298 <USART_Init+0xf0>
  {
    tmpreg |= ((((fractionaldivider * 8) + 50) / 100)) & ((uint8_t)0x07);
  }
  else /* if ((USARTx->CR1 & USART_CR1_OVER8) == 0) */
  {
    tmpreg |= ((((fractionaldivider * 16) + 50) / 100)) & ((uint8_t)0x0F);
 8003264:	0109      	lsls	r1, r1, #4
 8003266:	3132      	adds	r1, #50	; 0x32
 8003268:	fba3 0301 	umull	r0, r3, r3, r1
 800326c:	f3c3 1c43 	ubfx	ip, r3, #5, #4
 8003270:	ea4c 0202 	orr.w	r2, ip, r2
  }
  
  /* Write to USART BRR register */
  USARTx->BRR = (uint16_t)tmpreg;
 8003274:	b290      	uxth	r0, r2
 8003276:	8120      	strh	r0, [r4, #8]
}
 8003278:	b005      	add	sp, #20
 800327a:	bd30      	pop	{r4, r5, pc}
  {
    apbclock = RCC_ClocksStatus.PCLK1_Frequency;
  }
  
  /* Determine the integer part */
  if ((USARTx->CR1 & USART_CR1_OVER8) != 0)
 800327c:	89a0      	ldrh	r0, [r4, #12]
  {
    apbclock = RCC_ClocksStatus.PCLK2_Frequency;
  }
  else
  {
    apbclock = RCC_ClocksStatus.PCLK1_Frequency;
 800327e:	9b02      	ldr	r3, [sp, #8]
  }
  
  /* Determine the integer part */
  if ((USARTx->CR1 & USART_CR1_OVER8) != 0)
 8003280:	b201      	sxth	r1, r0
  {
    /* Integer part computing in case Oversampling mode is 8 Samples */
    integerdivider = ((25 * apbclock) / (2 * (USART_InitStruct->USART_BaudRate)));    
 8003282:	eb03 0e83 	add.w	lr, r3, r3, lsl #2
  {
    apbclock = RCC_ClocksStatus.PCLK1_Frequency;
  }
  
  /* Determine the integer part */
  if ((USARTx->CR1 & USART_CR1_OVER8) != 0)
 8003286:	2900      	cmp	r1, #0
  {
    /* Integer part computing in case Oversampling mode is 8 Samples */
    integerdivider = ((25 * apbclock) / (2 * (USART_InitStruct->USART_BaudRate)));    
 8003288:	682a      	ldr	r2, [r5, #0]
 800328a:	eb0e 038e 	add.w	r3, lr, lr, lsl #2
  {
    apbclock = RCC_ClocksStatus.PCLK1_Frequency;
  }
  
  /* Determine the integer part */
  if ((USARTx->CR1 & USART_CR1_OVER8) != 0)
 800328e:	dad4      	bge.n	800323a <USART_Init+0x92>
  {
    /* Integer part computing in case Oversampling mode is 8 Samples */
    integerdivider = ((25 * apbclock) / (2 * (USART_InitStruct->USART_BaudRate)));    
 8003290:	0052      	lsls	r2, r2, #1
 8003292:	fbb3 f1f2 	udiv	r1, r3, r2
 8003296:	e7d3      	b.n	8003240 <USART_Init+0x98>
  fractionaldivider = integerdivider - (100 * (tmpreg >> 4));

  /* Implement the fractional part in the register */
  if ((USARTx->CR1 & USART_CR1_OVER8) != 0)
  {
    tmpreg |= ((((fractionaldivider * 8) + 50) / 100)) & ((uint8_t)0x07);
 8003298:	00c9      	lsls	r1, r1, #3
 800329a:	3132      	adds	r1, #50	; 0x32
 800329c:	fba3 0e01 	umull	r0, lr, r3, r1
 80032a0:	f3ce 1342 	ubfx	r3, lr, #5, #3
 80032a4:	ea43 0202 	orr.w	r2, r3, r2
 80032a8:	e7e4      	b.n	8003274 <USART_Init+0xcc>
 80032aa:	bf00      	nop

080032ac <USART_DeInit>:
void USART_DeInit(USART_TypeDef* USARTx)
{
  /* Check the parameters */
  assert_param(IS_USART_ALL_PERIPH(USARTx));

  if (USARTx == USART1)
 80032ac:	f241 0300 	movw	r3, #4096	; 0x1000
 80032b0:	f2c4 0301 	movt	r3, #16385	; 0x4001
 80032b4:	4298      	cmp	r0, r3
  * @param  USARTx: where x can be 1, 2, 3, 4, 5 or 6 to select the USART or 
  *         UART peripheral.
  * @retval None
  */
void USART_DeInit(USART_TypeDef* USARTx)
{
 80032b6:	b510      	push	{r4, lr}
  /* Check the parameters */
  assert_param(IS_USART_ALL_PERIPH(USARTx));

  if (USARTx == USART1)
 80032b8:	d028      	beq.n	800330c <USART_DeInit+0x60>
  {
    RCC_APB2PeriphResetCmd(RCC_APB2Periph_USART1, ENABLE);
    RCC_APB2PeriphResetCmd(RCC_APB2Periph_USART1, DISABLE);
  }
  else if (USARTx == USART2)
 80032ba:	f244 4100 	movw	r1, #17408	; 0x4400
 80032be:	f2c4 0100 	movt	r1, #16384	; 0x4000
 80032c2:	4288      	cmp	r0, r1
 80032c4:	d02c      	beq.n	8003320 <USART_DeInit+0x74>
  {
    RCC_APB1PeriphResetCmd(RCC_APB1Periph_USART2, ENABLE);
    RCC_APB1PeriphResetCmd(RCC_APB1Periph_USART2, DISABLE);
  }
  else if (USARTx == USART3)
 80032c6:	f644 0200 	movw	r2, #18432	; 0x4800
 80032ca:	f2c4 0200 	movt	r2, #16384	; 0x4000
 80032ce:	4290      	cmp	r0, r2
 80032d0:	d032      	beq.n	8003338 <USART_DeInit+0x8c>
  {
    RCC_APB1PeriphResetCmd(RCC_APB1Periph_USART3, ENABLE);
    RCC_APB1PeriphResetCmd(RCC_APB1Periph_USART3, DISABLE);
  }    
  else if (USARTx == UART4)
 80032d2:	f644 4c00 	movw	ip, #19456	; 0x4c00
 80032d6:	f2c4 0c00 	movt	ip, #16384	; 0x4000
 80032da:	4560      	cmp	r0, ip
 80032dc:	d038      	beq.n	8003350 <USART_DeInit+0xa4>
  {
    RCC_APB1PeriphResetCmd(RCC_APB1Periph_UART4, ENABLE);
    RCC_APB1PeriphResetCmd(RCC_APB1Periph_UART4, DISABLE);
  }
  else if (USARTx == UART5)
 80032de:	f245 0300 	movw	r3, #20480	; 0x5000
 80032e2:	f2c4 0300 	movt	r3, #16384	; 0x4000
 80032e6:	4298      	cmp	r0, r3
 80032e8:	d03e      	beq.n	8003368 <USART_DeInit+0xbc>
    RCC_APB1PeriphResetCmd(RCC_APB1Periph_UART5, ENABLE);
    RCC_APB1PeriphResetCmd(RCC_APB1Periph_UART5, DISABLE);
  }     
  else
  {
    if (USARTx == USART6)
 80032ea:	f241 4100 	movw	r1, #5120	; 0x1400
 80032ee:	f2c4 0101 	movt	r1, #16385	; 0x4001
 80032f2:	4288      	cmp	r0, r1
 80032f4:	d000      	beq.n	80032f8 <USART_DeInit+0x4c>
 80032f6:	bd10      	pop	{r4, pc}
    { 
      RCC_APB2PeriphResetCmd(RCC_APB2Periph_USART6, ENABLE);
 80032f8:	2020      	movs	r0, #32
 80032fa:	2101      	movs	r1, #1
 80032fc:	f7fe fcc4 	bl	8001c88 <RCC_APB2PeriphResetCmd>
      RCC_APB2PeriphResetCmd(RCC_APB2Periph_USART6, DISABLE);
 8003300:	2020      	movs	r0, #32
 8003302:	2100      	movs	r1, #0
    }
  }
}
 8003304:	e8bd 4010 	ldmia.w	sp!, {r4, lr}
  else
  {
    if (USARTx == USART6)
    { 
      RCC_APB2PeriphResetCmd(RCC_APB2Periph_USART6, ENABLE);
      RCC_APB2PeriphResetCmd(RCC_APB2Periph_USART6, DISABLE);
 8003308:	f7fe bcbe 	b.w	8001c88 <RCC_APB2PeriphResetCmd>
  /* Check the parameters */
  assert_param(IS_USART_ALL_PERIPH(USARTx));

  if (USARTx == USART1)
  {
    RCC_APB2PeriphResetCmd(RCC_APB2Periph_USART1, ENABLE);
 800330c:	2010      	movs	r0, #16
 800330e:	2101      	movs	r1, #1
 8003310:	f7fe fcba 	bl	8001c88 <RCC_APB2PeriphResetCmd>
    RCC_APB2PeriphResetCmd(RCC_APB2Periph_USART1, DISABLE);
 8003314:	2010      	movs	r0, #16
 8003316:	2100      	movs	r1, #0
    { 
      RCC_APB2PeriphResetCmd(RCC_APB2Periph_USART6, ENABLE);
      RCC_APB2PeriphResetCmd(RCC_APB2Periph_USART6, DISABLE);
    }
  }
}
 8003318:	e8bd 4010 	ldmia.w	sp!, {r4, lr}
  assert_param(IS_USART_ALL_PERIPH(USARTx));

  if (USARTx == USART1)
  {
    RCC_APB2PeriphResetCmd(RCC_APB2Periph_USART1, ENABLE);
    RCC_APB2PeriphResetCmd(RCC_APB2Periph_USART1, DISABLE);
 800331c:	f7fe bcb4 	b.w	8001c88 <RCC_APB2PeriphResetCmd>
  }
  else if (USARTx == USART2)
  {
    RCC_APB1PeriphResetCmd(RCC_APB1Periph_USART2, ENABLE);
 8003320:	2101      	movs	r1, #1
 8003322:	f44f 3000 	mov.w	r0, #131072	; 0x20000
 8003326:	f7fe fc9d 	bl	8001c64 <RCC_APB1PeriphResetCmd>
    RCC_APB1PeriphResetCmd(RCC_APB1Periph_USART2, DISABLE);
 800332a:	f44f 3000 	mov.w	r0, #131072	; 0x20000
 800332e:	2100      	movs	r1, #0
    { 
      RCC_APB2PeriphResetCmd(RCC_APB2Periph_USART6, ENABLE);
      RCC_APB2PeriphResetCmd(RCC_APB2Periph_USART6, DISABLE);
    }
  }
}
 8003330:	e8bd 4010 	ldmia.w	sp!, {r4, lr}
    RCC_APB2PeriphResetCmd(RCC_APB2Periph_USART1, DISABLE);
  }
  else if (USARTx == USART2)
  {
    RCC_APB1PeriphResetCmd(RCC_APB1Periph_USART2, ENABLE);
    RCC_APB1PeriphResetCmd(RCC_APB1Periph_USART2, DISABLE);
 8003334:	f7fe bc96 	b.w	8001c64 <RCC_APB1PeriphResetCmd>
  }
  else if (USARTx == USART3)
  {
    RCC_APB1PeriphResetCmd(RCC_APB1Periph_USART3, ENABLE);
 8003338:	2101      	movs	r1, #1
 800333a:	f44f 2080 	mov.w	r0, #262144	; 0x40000
 800333e:	f7fe fc91 	bl	8001c64 <RCC_APB1PeriphResetCmd>
    RCC_APB1PeriphResetCmd(RCC_APB1Periph_USART3, DISABLE);
 8003342:	f44f 2080 	mov.w	r0, #262144	; 0x40000
 8003346:	2100      	movs	r1, #0
    { 
      RCC_APB2PeriphResetCmd(RCC_APB2Periph_USART6, ENABLE);
      RCC_APB2PeriphResetCmd(RCC_APB2Periph_USART6, DISABLE);
    }
  }
}
 8003348:	e8bd 4010 	ldmia.w	sp!, {r4, lr}
    RCC_APB1PeriphResetCmd(RCC_APB1Periph_USART2, DISABLE);
  }
  else if (USARTx == USART3)
  {
    RCC_APB1PeriphResetCmd(RCC_APB1Periph_USART3, ENABLE);
    RCC_APB1PeriphResetCmd(RCC_APB1Periph_USART3, DISABLE);
 800334c:	f7fe bc8a 	b.w	8001c64 <RCC_APB1PeriphResetCmd>
  }    
  else if (USARTx == UART4)
  {
    RCC_APB1PeriphResetCmd(RCC_APB1Periph_UART4, ENABLE);
 8003350:	2101      	movs	r1, #1
 8003352:	f44f 2000 	mov.w	r0, #524288	; 0x80000
 8003356:	f7fe fc85 	bl	8001c64 <RCC_APB1PeriphResetCmd>
    RCC_APB1PeriphResetCmd(RCC_APB1Periph_UART4, DISABLE);
 800335a:	f44f 2000 	mov.w	r0, #524288	; 0x80000
 800335e:	2100      	movs	r1, #0
    { 
      RCC_APB2PeriphResetCmd(RCC_APB2Periph_USART6, ENABLE);
      RCC_APB2PeriphResetCmd(RCC_APB2Periph_USART6, DISABLE);
    }
  }
}
 8003360:	e8bd 4010 	ldmia.w	sp!, {r4, lr}
    RCC_APB1PeriphResetCmd(RCC_APB1Periph_USART3, DISABLE);
  }    
  else if (USARTx == UART4)
  {
    RCC_APB1PeriphResetCmd(RCC_APB1Periph_UART4, ENABLE);
    RCC_APB1PeriphResetCmd(RCC_APB1Periph_UART4, DISABLE);
 8003364:	f7fe bc7e 	b.w	8001c64 <RCC_APB1PeriphResetCmd>
  }
  else if (USARTx == UART5)
  {
    RCC_APB1PeriphResetCmd(RCC_APB1Periph_UART5, ENABLE);
 8003368:	2101      	movs	r1, #1
 800336a:	f44f 1080 	mov.w	r0, #1048576	; 0x100000
 800336e:	f7fe fc79 	bl	8001c64 <RCC_APB1PeriphResetCmd>
    RCC_APB1PeriphResetCmd(RCC_APB1Periph_UART5, DISABLE);
 8003372:	f44f 1080 	mov.w	r0, #1048576	; 0x100000
 8003376:	2100      	movs	r1, #0
    { 
      RCC_APB2PeriphResetCmd(RCC_APB2Periph_USART6, ENABLE);
      RCC_APB2PeriphResetCmd(RCC_APB2Periph_USART6, DISABLE);
    }
  }
}
 8003378:	e8bd 4010 	ldmia.w	sp!, {r4, lr}
    RCC_APB1PeriphResetCmd(RCC_APB1Periph_UART4, DISABLE);
  }
  else if (USARTx == UART5)
  {
    RCC_APB1PeriphResetCmd(RCC_APB1Periph_UART5, ENABLE);
    RCC_APB1PeriphResetCmd(RCC_APB1Periph_UART5, DISABLE);
 800337c:	f7fe bc72 	b.w	8001c64 <RCC_APB1PeriphResetCmd>

08003380 <main>:
#include "gpio.h"
//#include "delay.h"
#include "systick.h"
#include "usart.h"

int main(void) {
 8003380:	b510      	push	{r4, lr}
 8003382:	b09a      	sub	sp, #104	; 0x68
	uint16_t count = 0;
	uint32_t dval = 900;
	uint32_t intval = 24;
	char tmp[92];
	
	SysTick_Start();
 8003384:	f7fd f874 	bl	8000470 <SysTick_Start>

	usart_begin(USART1, PB7, PB6, 19200);
 8003388:	f241 0000 	movw	r0, #4096	; 0x1000
 800338c:	f240 2206 	movw	r2, #518	; 0x206
 8003390:	f44f 4396 	mov.w	r3, #19200	; 0x4b00
 8003394:	f2c4 0001 	movt	r0, #16385	; 0x4001
 8003398:	f240 2107 	movw	r1, #519	; 0x207
 800339c:	f7fd fc62 	bl	8000c64 <usart_begin>
	usart_print(USART1, "Happy are those who know they are spiritually poor; \n");
 80033a0:	f241 0000 	movw	r0, #4096	; 0x1000
 80033a4:	f647 1108 	movw	r1, #30984	; 0x7908
 80033a8:	f2c4 0001 	movt	r0, #16385	; 0x4001
 80033ac:	f6c0 0100 	movt	r1, #2048	; 0x800
 80033b0:	f7fd fa92 	bl	80008d8 <usart_print>
	usart_print(USART1, "The kingdom of heaven belongs to them!\n");
 80033b4:	f241 0000 	movw	r0, #4096	; 0x1000
 80033b8:	f647 1140 	movw	r1, #31040	; 0x7940
 80033bc:	f2c4 0001 	movt	r0, #16385	; 0x4001
 80033c0:	f6c0 0100 	movt	r1, #2048	; 0x800
 80033c4:	f7fd fa88 	bl	80008d8 <usart_print>
//	sprintf(tmp, "port = %d\n", Serial3.port());
//	usart3_print(tmp);
	usart_print(USART1, "How many eyes does Mississipi river have?\n");
 80033c8:	f241 0000 	movw	r0, #4096	; 0x1000
 80033cc:	f647 1168 	movw	r1, #31080	; 0x7968
 80033d0:	f6c0 0100 	movt	r1, #2048	; 0x800
 80033d4:	f2c4 0001 	movt	r0, #16385	; 0x4001
 80033d8:	f7fd fa7e 	bl	80008d8 <usart_print>
	usart_flush(USART1);
 80033dc:	f241 0000 	movw	r0, #4096	; 0x1000
 80033e0:	f2c4 0001 	movt	r0, #16385	; 0x4001
 80033e4:	f7fd fb18 	bl	8000a18 <usart_flush>

	GPIOMode(GPIOD, (GPIO_Pin_12 | GPIO_Pin_13 | GPIO_Pin_14 | GPIO_Pin_15),
 80033e8:	f640 4000 	movw	r0, #3072	; 0xc00
 80033ec:	2400      	movs	r4, #0
 80033ee:	f2c4 0002 	movt	r0, #16386	; 0x4002
 80033f2:	f44f 4170 	mov.w	r1, #61440	; 0xf000
 80033f6:	2201      	movs	r2, #1
 80033f8:	2302      	movs	r3, #2
 80033fa:	9401      	str	r4, [sp, #4]
 80033fc:	9400      	str	r4, [sp, #0]
 80033fe:	f7fc ff35 	bl	800026c <GPIOMode>
 8003402:	ac03      	add	r4, sp, #12
	pinMode(PD15, OUTPUT);
	| GPIO_Pin_13 | GPIO_Pin_14 | GPIO_Pin_15),
			GPIO_Mode_OUT, GPIO_Speed_50MHz, GPIO_OType_PP, GPIO_PuPd_NOPULL);
*/
	while (1) {
		digitalWrite(PD12, SET);
 8003404:	2101      	movs	r1, #1
 8003406:	f240 400c 	movw	r0, #1036	; 0x40c
 800340a:	f7fc fff9 	bl	8000400 <digitalWrite>
		digitalWrite(PD13, RESET);
 800340e:	2100      	movs	r1, #0
 8003410:	f240 400d 	movw	r0, #1037	; 0x40d
 8003414:	f7fc fff4 	bl	8000400 <digitalWrite>
		digitalWrite(PD14, RESET);
 8003418:	2100      	movs	r1, #0
 800341a:	f240 400e 	movw	r0, #1038	; 0x40e
 800341e:	f7fc ffef 	bl	8000400 <digitalWrite>
		digitalWrite(PD15, RESET);
 8003422:	2100      	movs	r1, #0
 8003424:	f240 400f 	movw	r0, #1039	; 0x40f
 8003428:	f7fc ffea 	bl	8000400 <digitalWrite>
		SysTick_delay(intval);
 800342c:	2018      	movs	r0, #24
 800342e:	f7fd f80f 	bl	8000450 <SysTick_delay>
		digitalWrite(PD12, RESET);
 8003432:	2100      	movs	r1, #0
 8003434:	f240 400c 	movw	r0, #1036	; 0x40c
 8003438:	f7fc ffe2 	bl	8000400 <digitalWrite>
		digitalWrite(PD13, SET);
 800343c:	2101      	movs	r1, #1
 800343e:	f240 400d 	movw	r0, #1037	; 0x40d
 8003442:	f7fc ffdd 	bl	8000400 <digitalWrite>
		digitalWrite(PD14, RESET);
 8003446:	2100      	movs	r1, #0
 8003448:	f240 400e 	movw	r0, #1038	; 0x40e
 800344c:	f7fc ffd8 	bl	8000400 <digitalWrite>
		digitalWrite(PD15, RESET);
 8003450:	2100      	movs	r1, #0
 8003452:	f240 400f 	movw	r0, #1039	; 0x40f
 8003456:	f7fc ffd3 	bl	8000400 <digitalWrite>
		SysTick_delay(intval);
 800345a:	2018      	movs	r0, #24
 800345c:	f7fc fff8 	bl	8000450 <SysTick_delay>
		digitalWrite(PD12, RESET);
 8003460:	2100      	movs	r1, #0
 8003462:	f240 400c 	movw	r0, #1036	; 0x40c
 8003466:	f7fc ffcb 	bl	8000400 <digitalWrite>
		digitalWrite(PD13, RESET);
 800346a:	2100      	movs	r1, #0
 800346c:	f240 400d 	movw	r0, #1037	; 0x40d
 8003470:	f7fc ffc6 	bl	8000400 <digitalWrite>
		digitalWrite(PD14, SET);
 8003474:	2101      	movs	r1, #1
 8003476:	f240 400e 	movw	r0, #1038	; 0x40e
 800347a:	f7fc ffc1 	bl	8000400 <digitalWrite>
		digitalWrite(PD15, RESET);
 800347e:	2100      	movs	r1, #0
 8003480:	f240 400f 	movw	r0, #1039	; 0x40f
 8003484:	f7fc ffbc 	bl	8000400 <digitalWrite>
		SysTick_delay(intval);
 8003488:	2018      	movs	r0, #24
 800348a:	f7fc ffe1 	bl	8000450 <SysTick_delay>
		digitalWrite(PD12, RESET);
 800348e:	2100      	movs	r1, #0
 8003490:	f240 400c 	movw	r0, #1036	; 0x40c
 8003494:	f7fc ffb4 	bl	8000400 <digitalWrite>
		digitalWrite(PD13, RESET);
 8003498:	f240 400d 	movw	r0, #1037	; 0x40d
 800349c:	2100      	movs	r1, #0
 800349e:	f7fc ffaf 	bl	8000400 <digitalWrite>
		digitalWrite(PD14, RESET);
 80034a2:	2100      	movs	r1, #0
 80034a4:	f240 400e 	movw	r0, #1038	; 0x40e
 80034a8:	f7fc ffaa 	bl	8000400 <digitalWrite>
		digitalWrite(PD15, SET);
 80034ac:	2101      	movs	r1, #1
 80034ae:	f240 400f 	movw	r0, #1039	; 0x40f
 80034b2:	f7fc ffa5 	bl	8000400 <digitalWrite>
		SysTick_delay(intval);
 80034b6:	2018      	movs	r0, #24
 80034b8:	f7fc ffca 	bl	8000450 <SysTick_delay>
		//
		digitalWrite(PD12, SET);
 80034bc:	2101      	movs	r1, #1
 80034be:	f240 400c 	movw	r0, #1036	; 0x40c
 80034c2:	f7fc ff9d 	bl	8000400 <digitalWrite>
		digitalWrite(PD13, RESET);
 80034c6:	2100      	movs	r1, #0
 80034c8:	f240 400d 	movw	r0, #1037	; 0x40d
 80034cc:	f7fc ff98 	bl	8000400 <digitalWrite>
		digitalWrite(PD14, RESET);
 80034d0:	2100      	movs	r1, #0
 80034d2:	f240 400e 	movw	r0, #1038	; 0x40e
 80034d6:	f7fc ff93 	bl	8000400 <digitalWrite>
		digitalWrite(PD15, RESET);
 80034da:	2100      	movs	r1, #0
 80034dc:	f240 400f 	movw	r0, #1039	; 0x40f
 80034e0:	f7fc ff8e 	bl	8000400 <digitalWrite>
		SysTick_delay(dval);
 80034e4:	f44f 7061 	mov.w	r0, #900	; 0x384
 80034e8:	f7fc ffb2 	bl	8000450 <SysTick_delay>
		*/
		count++;
//		uint16_t h, t;
//		h = tx_head();
//		t = tx_tail();
		sprintf(tmp, /*"head =% 4d, tail =% 4d,*/ "%04X\n", SysTick_count());
 80034ec:	f7fc ffba 	bl	8000464 <SysTick_count>
 80034f0:	f647 1194 	movw	r1, #31124	; 0x7994
 80034f4:	4602      	mov	r2, r0
 80034f6:	f6c0 0100 	movt	r1, #2048	; 0x800
 80034fa:	4620      	mov	r0, r4
 80034fc:	f001 f9a0 	bl	8004840 <sprintf>
		usart_print(USART1, tmp);
 8003500:	f241 0000 	movw	r0, #4096	; 0x1000
 8003504:	f2c4 0001 	movt	r0, #16385	; 0x4001
 8003508:	4621      	mov	r1, r4
 800350a:	f7fd f9e5 	bl	80008d8 <usart_print>
 800350e:	e779      	b.n	8003404 <main+0x84>

08003510 <_close>:
	}
}

int _close(int file) {
	return -1;
}
 8003510:	f04f 30ff 	mov.w	r0, #4294967295
 8003514:	4770      	bx	lr
 8003516:	bf00      	nop

08003518 <_execve>:
/*
 execve
 Transfer control to a new process. Minimal implementation (for a system without processes):
 */
int _execve(char *name, char **argv, char **env) {
	errno = ENOMEM;
 8003518:	f640 433c 	movw	r3, #3132	; 0xc3c
 800351c:	f2c2 0300 	movt	r3, #8192	; 0x2000
 8003520:	220c      	movs	r2, #12
 8003522:	601a      	str	r2, [r3, #0]
	return -1;
}
 8003524:	f04f 30ff 	mov.w	r0, #4294967295
 8003528:	4770      	bx	lr
 800352a:	bf00      	nop

0800352c <_fork>:
 fork
 Create a new process. Minimal implementation (for a system without processes):
 */

int _fork() {
	errno = EAGAIN;
 800352c:	f640 433c 	movw	r3, #3132	; 0xc3c
 8003530:	f2c2 0300 	movt	r3, #8192	; 0x2000
 8003534:	220b      	movs	r2, #11
 8003536:	601a      	str	r2, [r3, #0]
	return -1;
}
 8003538:	f04f 30ff 	mov.w	r0, #4294967295
 800353c:	4770      	bx	lr
 800353e:	bf00      	nop

08003540 <_fstat>:
 Status of an open file. For consistency with other minimal implementations in these examples,
 all files are regarded as character special devices.
 The `sys/stat.h' header file required is distributed in the `include' subdirectory for this C library.
 */
int _fstat(int file, struct stat *st) {
	st->st_mode = S_IFCHR;
 8003540:	f44f 5300 	mov.w	r3, #8192	; 0x2000
 8003544:	604b      	str	r3, [r1, #4]
	return 0;
}
 8003546:	2000      	movs	r0, #0
 8003548:	4770      	bx	lr
 800354a:	bf00      	nop

0800354c <_getpid>:
 Process-ID; this is sometimes used to generate strings unlikely to conflict with other processes. Minimal implementation, for a system without processes:
 */

int _getpid() {
	return 1;
}
 800354c:	2001      	movs	r0, #1
 800354e:	4770      	bx	lr

08003550 <_isatty>:
/*
 isatty
 Query whether output stream is a terminal. For consistency with the other minimal implementations,
 */
int _isatty(int file) {
	switch (file) {
 8003550:	2802      	cmp	r0, #2
 8003552:	d801      	bhi.n	8003558 <_isatty+0x8>
 8003554:	2001      	movs	r0, #1
 8003556:	4770      	bx	lr
	case STDERR_FILENO:
	case STDIN_FILENO:
		return 1;
	default:
		//errno = ENOTTY;
		errno = EBADF;
 8003558:	f640 433c 	movw	r3, #3132	; 0xc3c
 800355c:	f2c2 0300 	movt	r3, #8192	; 0x2000
 8003560:	2209      	movs	r2, #9
 8003562:	601a      	str	r2, [r3, #0]
 8003564:	2000      	movs	r0, #0
		return 0;
	}
}
 8003566:	4770      	bx	lr

08003568 <_kill>:
/*
 kill
 Send a signal. Minimal implementation:
 */
int _kill(int pid, int sig) {
	errno = EINVAL;
 8003568:	f640 433c 	movw	r3, #3132	; 0xc3c
 800356c:	f2c2 0300 	movt	r3, #8192	; 0x2000
 8003570:	2216      	movs	r2, #22
 8003572:	601a      	str	r2, [r3, #0]
	return (-1);
}
 8003574:	f04f 30ff 	mov.w	r0, #4294967295
 8003578:	4770      	bx	lr
 800357a:	bf00      	nop

0800357c <_link>:
 link
 Establish a new name for an existing file. Minimal implementation:
 */

int _link(char *old, char *new) {
	errno = EMLINK;
 800357c:	f640 433c 	movw	r3, #3132	; 0xc3c
 8003580:	f2c2 0300 	movt	r3, #8192	; 0x2000
 8003584:	221f      	movs	r2, #31
 8003586:	601a      	str	r2, [r3, #0]
	return -1;
}
 8003588:	f04f 30ff 	mov.w	r0, #4294967295
 800358c:	4770      	bx	lr
 800358e:	bf00      	nop

08003590 <_lseek>:
 lseek
 Set position in a file. Minimal implementation:
 */
int _lseek(int file, int ptr, int dir) {
	return 0;
}
 8003590:	2000      	movs	r0, #0
 8003592:	4770      	bx	lr

08003594 <_read>:
 */

int _read(int file, char *ptr, int len) {
	int n;
	int num = 0;
	switch (file) {
 8003594:	4603      	mov	r3, r0
 8003596:	b140      	cbz	r0, 80035aa <_read+0x16>
					*ptr++ = c;
					num++;
				}
				break;
				default:
				errno = EBADF;
 8003598:	f640 433c 	movw	r3, #3132	; 0xc3c
 800359c:	f2c2 0300 	movt	r3, #8192	; 0x2000
 80035a0:	2209      	movs	r2, #9
 80035a2:	601a      	str	r2, [r3, #0]
 80035a4:	f04f 30ff 	mov.w	r0, #4294967295
				return -1;
			}
	return num;
}
 80035a8:	4770      	bx	lr
int _read(int file, char *ptr, int len) {
	int n;
	int num = 0;
	switch (file) {
	case STDIN_FILENO:
		for (n = 0; n < len; n++) {
 80035aa:	2a00      	cmp	r2, #0
#if   STDIN_USART == 1
			while ((USART1->SR & USART_FLAG_RXNE) == (uint16_t)RESET) {}
 80035ac:	bfc4      	itt	gt
 80035ae:	f241 0000 	movwgt	r0, #4096	; 0x1000
 80035b2:	f2c4 0001 	movtgt	r0, #16385	; 0x4001
int _read(int file, char *ptr, int len) {
	int n;
	int num = 0;
	switch (file) {
	case STDIN_FILENO:
		for (n = 0; n < len; n++) {
 80035b6:	dd0b      	ble.n	80035d0 <_read+0x3c>
#if   STDIN_USART == 1
			while ((USART1->SR & USART_FLAG_RXNE) == (uint16_t)RESET) {}
 80035b8:	f8b0 c000 	ldrh.w	ip, [r0]
 80035bc:	f01c 0f20 	tst.w	ip, #32
 80035c0:	d0fa      	beq.n	80035b8 <_read+0x24>
			char c = (char)(USART1->DR & (uint16_t)0x01FF);
 80035c2:	f8b0 c004 	ldrh.w	ip, [r0, #4]
		char c = (char) (USART2->DR & (uint16_t) 0x01FF);
#elif STDIN_USART == 3
					while ((USART3->SR & USART_FLAG_RXNE) == (uint16_t)RESET) {}
					char c = (char)(USART3->DR & (uint16_t)0x01FF);
#endif
					*ptr++ = c;
 80035c6:	f801 c003 	strb.w	ip, [r1, r3]
					num++;
 80035ca:	3301      	adds	r3, #1
int _read(int file, char *ptr, int len) {
	int n;
	int num = 0;
	switch (file) {
	case STDIN_FILENO:
		for (n = 0; n < len; n++) {
 80035cc:	4293      	cmp	r3, r2
 80035ce:	d1f3      	bne.n	80035b8 <_read+0x24>
 80035d0:	4618      	mov	r0, r3
 80035d2:	4770      	bx	lr

080035d4 <_stat>:
 Status of a file (by name). Minimal implementation:
 int    _EXFUN(stat,( const char *__path, struct stat *__sbuf ));
 */

int _stat(const char *filepath, struct stat *st) {
	st->st_mode = S_IFCHR;
 80035d4:	f44f 5300 	mov.w	r3, #8192	; 0x2000
 80035d8:	604b      	str	r3, [r1, #4]
	return 0;
}
 80035da:	2000      	movs	r0, #0
 80035dc:	4770      	bx	lr
 80035de:	bf00      	nop

080035e0 <_times>:
 Timing information for current process. Minimal implementation:
 */

clock_t _times(struct tms *buf) {
	return -1;
}
 80035e0:	f04f 30ff 	mov.w	r0, #4294967295
 80035e4:	4770      	bx	lr
 80035e6:	bf00      	nop

080035e8 <_unlink>:
/*
 unlink
 Remove a file's directory entry. Minimal implementation:
 */
int _unlink(char *name) {
	errno = ENOENT;
 80035e8:	f640 433c 	movw	r3, #3132	; 0xc3c
 80035ec:	f2c2 0300 	movt	r3, #8192	; 0x2000
 80035f0:	2202      	movs	r2, #2
 80035f2:	601a      	str	r2, [r3, #0]
	return -1;
}
 80035f4:	f04f 30ff 	mov.w	r0, #4294967295
 80035f8:	4770      	bx	lr
 80035fa:	bf00      	nop

080035fc <_wait>:
/*
 wait
 Wait for a child process. Minimal implementation:
 */
int _wait(int *status) {
	errno = ECHILD;
 80035fc:	f640 433c 	movw	r3, #3132	; 0xc3c
 8003600:	f2c2 0300 	movt	r3, #8192	; 0x2000
 8003604:	220a      	movs	r2, #10
 8003606:	601a      	str	r2, [r3, #0]
	return -1;
}
 8003608:	f04f 30ff 	mov.w	r0, #4294967295
 800360c:	4770      	bx	lr
 800360e:	bf00      	nop

08003610 <_write>:
 Write a character to a file. `libc' subroutines will use this system routine for output to all files, including stdout
 Returns -1 on error or number of bytes sent
 */
int _write(int file, char *ptr, int len) {
	int n;
	switch (file) {
 8003610:	2801      	cmp	r0, #1
/*
 write
 Write a character to a file. `libc' subroutines will use this system routine for output to all files, including stdout
 Returns -1 on error or number of bytes sent
 */
int _write(int file, char *ptr, int len) {
 8003612:	b410      	push	{r4}
	int n;
	switch (file) {
 8003614:	d00c      	beq.n	8003630 <_write+0x20>
 8003616:	2802      	cmp	r0, #2
 8003618:	d01e      	beq.n	8003658 <_write+0x48>
					USART3->DR = (*ptr++ & (uint16_t)0x01FF);
#endif
				}
				break;
				default:
				errno = EBADF;
 800361a:	f640 413c 	movw	r1, #3132	; 0xc3c
 800361e:	2209      	movs	r2, #9
 8003620:	f2c2 0100 	movt	r1, #8192	; 0x2000
 8003624:	600a      	str	r2, [r1, #0]
 8003626:	f04f 32ff 	mov.w	r2, #4294967295
				return -1;
			}
	return len;
}
 800362a:	4610      	mov	r0, r2
 800362c:	bc10      	pop	{r4}
 800362e:	4770      	bx	lr
 */
int _write(int file, char *ptr, int len) {
	int n;
	switch (file) {
	case STDOUT_FILENO: /*stdout*/
		for (n = 0; n < len; n++) {
 8003630:	2a00      	cmp	r2, #0
 8003632:	ddfa      	ble.n	800362a <_write+0x1a>
#if STDOUT_USART == 1
			while ((USART1->SR & USART_FLAG_TC) == (uint16_t)RESET) {}
 8003634:	f241 0400 	movw	r4, #4096	; 0x1000
 8003638:	f2c4 0401 	movt	r4, #16385	; 0x4001
 */
int _write(int file, char *ptr, int len) {
	int n;
	switch (file) {
	case STDOUT_FILENO: /*stdout*/
		for (n = 0; n < len; n++) {
 800363c:	f04f 0c00 	mov.w	ip, #0
#if STDOUT_USART == 1
			while ((USART1->SR & USART_FLAG_TC) == (uint16_t)RESET) {}
 8003640:	8823      	ldrh	r3, [r4, #0]
 8003642:	f013 0f40 	tst.w	r3, #64	; 0x40
 8003646:	d0fb      	beq.n	8003640 <_write+0x30>
			USART1->DR = (*ptr++ & (uint16_t)0x01FF);
 8003648:	f811 000c 	ldrb.w	r0, [r1, ip]
 */
int _write(int file, char *ptr, int len) {
	int n;
	switch (file) {
	case STDOUT_FILENO: /*stdout*/
		for (n = 0; n < len; n++) {
 800364c:	f10c 0c01 	add.w	ip, ip, #1
 8003650:	4594      	cmp	ip, r2
#if STDOUT_USART == 1
			while ((USART1->SR & USART_FLAG_TC) == (uint16_t)RESET) {}
			USART1->DR = (*ptr++ & (uint16_t)0x01FF);
 8003652:	80a0      	strh	r0, [r4, #4]
 */
int _write(int file, char *ptr, int len) {
	int n;
	switch (file) {
	case STDOUT_FILENO: /*stdout*/
		for (n = 0; n < len; n++) {
 8003654:	d1f4      	bne.n	8003640 <_write+0x30>
 8003656:	e7e8      	b.n	800362a <_write+0x1a>
					USART3->DR = (*ptr++ & (uint16_t)0x01FF);
#endif
				}
				break;
				case STDERR_FILENO: /* stderr */
				for (n = 0; n < len; n++) {
 8003658:	2a00      	cmp	r2, #0
#if STDERR_USART == 1
					while ((USART1->SR & USART_FLAG_TC) == (uint16_t)RESET) {}
 800365a:	bfc2      	ittt	gt
 800365c:	f241 0400 	movwgt	r4, #4096	; 0x1000
 8003660:	f2c4 0401 	movtgt	r4, #16385	; 0x4001
 */
int _write(int file, char *ptr, int len) {
	int n;
	switch (file) {
	case STDOUT_FILENO: /*stdout*/
		for (n = 0; n < len; n++) {
 8003664:	f04f 0c00 	movgt.w	ip, #0
					USART3->DR = (*ptr++ & (uint16_t)0x01FF);
#endif
				}
				break;
				case STDERR_FILENO: /* stderr */
				for (n = 0; n < len; n++) {
 8003668:	dddf      	ble.n	800362a <_write+0x1a>
#if STDERR_USART == 1
					while ((USART1->SR & USART_FLAG_TC) == (uint16_t)RESET) {}
 800366a:	8823      	ldrh	r3, [r4, #0]
 800366c:	f013 0f40 	tst.w	r3, #64	; 0x40
 8003670:	d0fb      	beq.n	800366a <_write+0x5a>
					USART1->DR = (*ptr++ & (uint16_t)0x01FF);
 8003672:	f811 000c 	ldrb.w	r0, [r1, ip]
					USART3->DR = (*ptr++ & (uint16_t)0x01FF);
#endif
				}
				break;
				case STDERR_FILENO: /* stderr */
				for (n = 0; n < len; n++) {
 8003676:	f10c 0c01 	add.w	ip, ip, #1
 800367a:	4594      	cmp	ip, r2
#if STDERR_USART == 1
					while ((USART1->SR & USART_FLAG_TC) == (uint16_t)RESET) {}
					USART1->DR = (*ptr++ & (uint16_t)0x01FF);
 800367c:	80a0      	strh	r0, [r4, #4]
					USART3->DR = (*ptr++ & (uint16_t)0x01FF);
#endif
				}
				break;
				case STDERR_FILENO: /* stderr */
				for (n = 0; n < len; n++) {
 800367e:	d1f4      	bne.n	800366a <_write+0x5a>
 8003680:	e7d3      	b.n	800362a <_write+0x1a>
 8003682:	bf00      	nop

08003684 <_sbrk>:
/*
 sbrk
 Increase program data space.
 Malloc and related functions depend on this
 */
caddr_t _sbrk(int incr) {
 8003684:	b508      	push	{r3, lr}

	extern char _ebss; // Defined by the linker
	static char *heap_end;
	char *prev_heap_end;

	if (heap_end == 0) {
 8003686:	f240 53c8 	movw	r3, #1480	; 0x5c8
 800368a:	f2c2 0300 	movt	r3, #8192	; 0x2000
 800368e:	681a      	ldr	r2, [r3, #0]
 8003690:	b1d2      	cbz	r2, 80036c8 <_sbrk+0x44>
 */
__attribute__( ( always_inline ) ) static __INLINE uint32_t __get_MSP(void)
{
  register uint32_t result;

  __ASM volatile ("MRS %0, msp\n" : "=r" (result) );
 8003692:	f3ef 8108 	mrs	r1, MSP
		heap_end = &_ebss;
	}
	prev_heap_end = heap_end;

	char * stack = (char*) __get_MSP();
	if (heap_end + incr > stack) {
 8003696:	1810      	adds	r0, r2, r0
 8003698:	4281      	cmp	r1, r0
		errno = ENOMEM;
		return (caddr_t) -1;
		//abort ();
	}

	heap_end += incr;
 800369a:	bf28      	it	cs
 800369c:	6018      	strcs	r0, [r3, #0]
		heap_end = &_ebss;
	}
	prev_heap_end = heap_end;

	char * stack = (char*) __get_MSP();
	if (heap_end + incr > stack) {
 800369e:	d301      	bcc.n	80036a4 <_sbrk+0x20>
	}

	heap_end += incr;
	return (caddr_t) prev_heap_end;

}
 80036a0:	4610      	mov	r0, r2
 80036a2:	bd08      	pop	{r3, pc}
	}
	prev_heap_end = heap_end;

	char * stack = (char*) __get_MSP();
	if (heap_end + incr > stack) {
		_write(STDERR_FILENO, "Heap and stack collision\n", 25);
 80036a4:	f647 119c 	movw	r1, #31132	; 0x799c
 80036a8:	2219      	movs	r2, #25
 80036aa:	f6c0 0100 	movt	r1, #2048	; 0x800
 80036ae:	2002      	movs	r0, #2
 80036b0:	f7ff ffae 	bl	8003610 <_write>
		errno = ENOMEM;
 80036b4:	f640 433c 	movw	r3, #3132	; 0xc3c
 80036b8:	220c      	movs	r2, #12
 80036ba:	f2c2 0300 	movt	r3, #8192	; 0x2000
 80036be:	601a      	str	r2, [r3, #0]
 80036c0:	f04f 32ff 	mov.w	r2, #4294967295
	}

	heap_end += incr;
	return (caddr_t) prev_heap_end;

}
 80036c4:	4610      	mov	r0, r2
 80036c6:	bd08      	pop	{r3, pc}
	extern char _ebss; // Defined by the linker
	static char *heap_end;
	char *prev_heap_end;

	if (heap_end == 0) {
		heap_end = &_ebss;
 80036c8:	f640 4240 	movw	r2, #3136	; 0xc40
 80036cc:	f2c2 0200 	movt	r2, #8192	; 0x2000
 80036d0:	601a      	str	r2, [r3, #0]
 80036d2:	e7de      	b.n	8003692 <_sbrk+0xe>

080036d4 <_exit>:
char **environ = __env;

int _write(int file, char *ptr, int len);

void _exit(int status) {
	_write(1, "exit", 4);
 80036d4:	f647 11b8 	movw	r1, #31160	; 0x79b8
 80036d8:	b508      	push	{r3, lr}
 80036da:	f6c0 0100 	movt	r1, #2048	; 0x800
 80036de:	2001      	movs	r0, #1
 80036e0:	2204      	movs	r2, #4
 80036e2:	f7ff ff95 	bl	8003610 <_write>
 80036e6:	e7fe      	b.n	80036e6 <_exit+0x12>
 80036e8:	08007b90 	.word	0x08007b90
 80036ec:	20000000 	.word	0x20000000
 80036f0:	200005c8 	.word	0x200005c8
 80036f4:	200005c8 	.word	0x200005c8
 80036f8:	20000c40 	.word	0x20000c40

080036fc <NMI_Handler>:
  * @param  None
  * @retval None
  */
void NMI_Handler(void)
{
}
 80036fc:	4770      	bx	lr
 80036fe:	bf00      	nop

08003700 <HardFault_Handler>:
  * @brief  This function handles Hard Fault exception.
  * @param  None
  * @retval None
  */
void HardFault_Handler(void)
{
 8003700:	e7fe      	b.n	8003700 <HardFault_Handler>
 8003702:	bf00      	nop

08003704 <MemManage_Handler>:
  * @brief  This function handles Memory Manage exception.
  * @param  None
  * @retval None
  */
void MemManage_Handler(void)
{
 8003704:	e7fe      	b.n	8003704 <MemManage_Handler>
 8003706:	bf00      	nop

08003708 <BusFault_Handler>:
  * @brief  This function handles Bus Fault exception.
  * @param  None
  * @retval None
  */
void BusFault_Handler(void)
{
 8003708:	e7fe      	b.n	8003708 <BusFault_Handler>
 800370a:	bf00      	nop

0800370c <UsageFault_Handler>:
  * @brief  This function handles Usage Fault exception.
  * @param  None
  * @retval None
  */
void UsageFault_Handler(void)
{
 800370c:	e7fe      	b.n	800370c <UsageFault_Handler>
 800370e:	bf00      	nop

08003710 <SVC_Handler>:
  * @param  None
  * @retval None
  */
void SVC_Handler(void)
{
}
 8003710:	4770      	bx	lr
 8003712:	bf00      	nop

08003714 <DebugMon_Handler>:
  * @param  None
  * @retval None
  */
void DebugMon_Handler(void)
{
}
 8003714:	4770      	bx	lr
 8003716:	bf00      	nop

08003718 <PendSV_Handler>:
  * @param  None
  * @retval None
  */
void PendSV_Handler(void)
{
}
 8003718:	4770      	bx	lr
 800371a:	bf00      	nop

0800371c <SystemInit>:
    SCB->CPACR |= ((3UL << 10*2)|(3UL << 11*2));  /* set CP10 and CP11 Full Access */
  #endif

  /* Reset the RCC clock configuration to the default reset state ------------*/
  /* Set HSION bit */
  RCC->CR |= (uint32_t)0x00000001;
 800371c:	f643 0300 	movw	r3, #14336	; 0x3800
 8003720:	f2c4 0302 	movt	r3, #16386	; 0x4002
 8003724:	6818      	ldr	r0, [r3, #0]

  /* Reset CFGR register */
  RCC->CFGR = 0x00000000;
 8003726:	2100      	movs	r1, #0
    SCB->CPACR |= ((3UL << 10*2)|(3UL << 11*2));  /* set CP10 and CP11 Full Access */
  #endif

  /* Reset the RCC clock configuration to the default reset state ------------*/
  /* Set HSION bit */
  RCC->CR |= (uint32_t)0x00000001;
 8003728:	f040 0201 	orr.w	r2, r0, #1
 800372c:	601a      	str	r2, [r3, #0]

  /* Reset CFGR register */
  RCC->CFGR = 0x00000000;
 800372e:	6099      	str	r1, [r3, #8]

  /* Reset HSEON, CSSON and PLLON bits */
  RCC->CR &= (uint32_t)0xFEF6FFFF;
 8003730:	6818      	ldr	r0, [r3, #0]

  /* Reset PLLCFGR register */
  RCC->PLLCFGR = 0x24003010;
 8003732:	f243 0210 	movw	r2, #12304	; 0x3010

  /* Reset CFGR register */
  RCC->CFGR = 0x00000000;

  /* Reset HSEON, CSSON and PLLON bits */
  RCC->CR &= (uint32_t)0xFEF6FFFF;
 8003736:	f020 7c84 	bic.w	ip, r0, #17301504	; 0x1080000
 800373a:	f42c 3080 	bic.w	r0, ip, #65536	; 0x10000

  /* Reset PLLCFGR register */
  RCC->PLLCFGR = 0x24003010;
 800373e:	f2c2 4200 	movt	r2, #9216	; 0x2400

  /* Reset CFGR register */
  RCC->CFGR = 0x00000000;

  /* Reset HSEON, CSSON and PLLON bits */
  RCC->CR &= (uint32_t)0xFEF6FFFF;
 8003742:	6018      	str	r0, [r3, #0]

  /* Reset PLLCFGR register */
  RCC->PLLCFGR = 0x24003010;
 8003744:	605a      	str	r2, [r3, #4]

  /* Reset HSEBYP bit */
  RCC->CR &= (uint32_t)0xFFFBFFFF;
 8003746:	6818      	ldr	r0, [r3, #0]
  *         SystemFrequency variable.
  * @param  None
  * @retval None
  */
void SystemInit(void)
{
 8003748:	b082      	sub	sp, #8

  /* Reset PLLCFGR register */
  RCC->PLLCFGR = 0x24003010;

  /* Reset HSEBYP bit */
  RCC->CR &= (uint32_t)0xFFFBFFFF;
 800374a:	f420 2080 	bic.w	r0, r0, #262144	; 0x40000
 800374e:	6018      	str	r0, [r3, #0]

  /* Disable all interrupts */
  RCC->CIR = 0x00000000;
 8003750:	60d9      	str	r1, [r3, #12]
static void SetSysClock(void)
{
/******************************************************************************/
/*            PLL (clocked by HSE) used as System clock source                */
/******************************************************************************/
  __IO uint32_t StartUpCounter = 0, HSEStatus = 0;
 8003752:	9101      	str	r1, [sp, #4]
 8003754:	9100      	str	r1, [sp, #0]
  
  /* Enable HSE */
  RCC->CR |= ((uint32_t)RCC_CR_HSEON);
 8003756:	6818      	ldr	r0, [r3, #0]
 
  /* Wait till HSE is ready and if Time out is reached exit */
  do
  {
    HSEStatus = RCC->CR & RCC_CR_HSERDY;
 8003758:	461a      	mov	r2, r3
/*            PLL (clocked by HSE) used as System clock source                */
/******************************************************************************/
  __IO uint32_t StartUpCounter = 0, HSEStatus = 0;
  
  /* Enable HSE */
  RCC->CR |= ((uint32_t)RCC_CR_HSEON);
 800375a:	f440 3180 	orr.w	r1, r0, #65536	; 0x10000
 800375e:	6019      	str	r1, [r3, #0]
 
  /* Wait till HSE is ready and if Time out is reached exit */
  do
  {
    HSEStatus = RCC->CR & RCC_CR_HSERDY;
 8003760:	6811      	ldr	r1, [r2, #0]
 8003762:	f401 3300 	and.w	r3, r1, #131072	; 0x20000
 8003766:	9300      	str	r3, [sp, #0]
    StartUpCounter++;
 8003768:	9801      	ldr	r0, [sp, #4]
 800376a:	1c41      	adds	r1, r0, #1
 800376c:	9101      	str	r1, [sp, #4]
  } while((HSEStatus == 0) && (StartUpCounter != HSE_STARTUP_TIMEOUT));
 800376e:	9b00      	ldr	r3, [sp, #0]
 8003770:	b91b      	cbnz	r3, 800377a <SystemInit+0x5e>
 8003772:	9801      	ldr	r0, [sp, #4]
 8003774:	f5b0 6fa0 	cmp.w	r0, #1280	; 0x500
 8003778:	d1f2      	bne.n	8003760 <SystemInit+0x44>

  if ((RCC->CR & RCC_CR_HSERDY) != RESET)
 800377a:	f643 0100 	movw	r1, #14336	; 0x3800
 800377e:	f2c4 0102 	movt	r1, #16386	; 0x4002
 8003782:	680b      	ldr	r3, [r1, #0]
 8003784:	f413 3200 	ands.w	r2, r3, #131072	; 0x20000
  {
    HSEStatus = (uint32_t)0x01;
  }
  else
  {
    HSEStatus = (uint32_t)0x00;
 8003788:	bf08      	it	eq
 800378a:	9200      	streq	r2, [sp, #0]
  {
    HSEStatus = RCC->CR & RCC_CR_HSERDY;
    StartUpCounter++;
  } while((HSEStatus == 0) && (StartUpCounter != HSE_STARTUP_TIMEOUT));

  if ((RCC->CR & RCC_CR_HSERDY) != RESET)
 800378c:	d001      	beq.n	8003792 <SystemInit+0x76>
  {
    HSEStatus = (uint32_t)0x01;
 800378e:	2001      	movs	r0, #1
 8003790:	9000      	str	r0, [sp, #0]
  else
  {
    HSEStatus = (uint32_t)0x00;
  }

  if (HSEStatus == (uint32_t)0x01)
 8003792:	9a00      	ldr	r2, [sp, #0]
 8003794:	2a01      	cmp	r2, #1
 8003796:	d008      	beq.n	80037aa <SystemInit+0x8e>

  /* Configure the Vector Table location add offset address ------------------*/
#ifdef VECT_TAB_SRAM
  SCB->VTOR = SRAM_BASE | VECT_TAB_OFFSET; /* Vector Table Relocation in Internal SRAM */
#else
  SCB->VTOR = FLASH_BASE | VECT_TAB_OFFSET; /* Vector Table Relocation in Internal FLASH */
 8003798:	f64e 5000 	movw	r0, #60672	; 0xed00
 800379c:	f2ce 0000 	movt	r0, #57344	; 0xe000
 80037a0:	f04f 6100 	mov.w	r1, #134217728	; 0x8000000
 80037a4:	6081      	str	r1, [r0, #8]
#endif
}
 80037a6:	b002      	add	sp, #8
 80037a8:	4770      	bx	lr
  }

  if (HSEStatus == (uint32_t)0x01)
  {
    /* Select regulator voltage output Scale 1 mode, System frequency up to 168 MHz */
    RCC->APB1ENR |= RCC_APB1ENR_PWREN;
 80037aa:	f643 0300 	movw	r3, #14336	; 0x3800
 80037ae:	f2c4 0302 	movt	r3, #16386	; 0x4002
 80037b2:	6c19      	ldr	r1, [r3, #64]	; 0x40
    PWR->CR |= PWR_CR_VOS;
 80037b4:	f247 0200 	movw	r2, #28672	; 0x7000
  }

  if (HSEStatus == (uint32_t)0x01)
  {
    /* Select regulator voltage output Scale 1 mode, System frequency up to 168 MHz */
    RCC->APB1ENR |= RCC_APB1ENR_PWREN;
 80037b8:	f041 5080 	orr.w	r0, r1, #268435456	; 0x10000000
 80037bc:	6418      	str	r0, [r3, #64]	; 0x40
    PWR->CR |= PWR_CR_VOS;
 80037be:	f2c4 0200 	movt	r2, #16384	; 0x4000
 80037c2:	6811      	ldr	r1, [r2, #0]
    
    /* PCLK1 = HCLK / 4*/
    RCC->CFGR |= RCC_CFGR_PPRE1_DIV4;

    /* Configure the main PLL */
    RCC->PLLCFGR = PLL_M | (PLL_N << 6) | (((PLL_P >> 1) -1) << 16) |
 80037c4:	f245 4019 	movw	r0, #21529	; 0x5419

  if (HSEStatus == (uint32_t)0x01)
  {
    /* Select regulator voltage output Scale 1 mode, System frequency up to 168 MHz */
    RCC->APB1ENR |= RCC_APB1ENR_PWREN;
    PWR->CR |= PWR_CR_VOS;
 80037c8:	f441 4180 	orr.w	r1, r1, #16384	; 0x4000
 80037cc:	6011      	str	r1, [r2, #0]

    /* HCLK = SYSCLK / 1*/
    RCC->CFGR |= RCC_CFGR_HPRE_DIV1;
 80037ce:	6899      	ldr	r1, [r3, #8]
    
    /* PCLK1 = HCLK / 4*/
    RCC->CFGR |= RCC_CFGR_PPRE1_DIV4;

    /* Configure the main PLL */
    RCC->PLLCFGR = PLL_M | (PLL_N << 6) | (((PLL_P >> 1) -1) << 16) |
 80037d0:	f2c0 7040 	movt	r0, #1856	; 0x740
    /* Select regulator voltage output Scale 1 mode, System frequency up to 168 MHz */
    RCC->APB1ENR |= RCC_APB1ENR_PWREN;
    PWR->CR |= PWR_CR_VOS;

    /* HCLK = SYSCLK / 1*/
    RCC->CFGR |= RCC_CFGR_HPRE_DIV1;
 80037d4:	6099      	str	r1, [r3, #8]
      
    /* PCLK2 = HCLK / 2*/
    RCC->CFGR |= RCC_CFGR_PPRE2_DIV2;
 80037d6:	689a      	ldr	r2, [r3, #8]

    /* Enable the main PLL */
    RCC->CR |= RCC_CR_PLLON;

    /* Wait till the main PLL is ready */
    while((RCC->CR & RCC_CR_PLLRDY) == 0)
 80037d8:	4619      	mov	r1, r3

    /* HCLK = SYSCLK / 1*/
    RCC->CFGR |= RCC_CFGR_HPRE_DIV1;
      
    /* PCLK2 = HCLK / 2*/
    RCC->CFGR |= RCC_CFGR_PPRE2_DIV2;
 80037da:	f442 4200 	orr.w	r2, r2, #32768	; 0x8000
 80037de:	609a      	str	r2, [r3, #8]
    
    /* PCLK1 = HCLK / 4*/
    RCC->CFGR |= RCC_CFGR_PPRE1_DIV4;
 80037e0:	689a      	ldr	r2, [r3, #8]
 80037e2:	f442 52a0 	orr.w	r2, r2, #5120	; 0x1400
 80037e6:	609a      	str	r2, [r3, #8]

    /* Configure the main PLL */
    RCC->PLLCFGR = PLL_M | (PLL_N << 6) | (((PLL_P >> 1) -1) << 16) |
 80037e8:	6058      	str	r0, [r3, #4]
                   (RCC_PLLCFGR_PLLSRC_HSE) | (PLL_Q << 24);

    /* Enable the main PLL */
    RCC->CR |= RCC_CR_PLLON;
 80037ea:	681a      	ldr	r2, [r3, #0]
 80037ec:	f042 7080 	orr.w	r0, r2, #16777216	; 0x1000000
 80037f0:	6018      	str	r0, [r3, #0]

    /* Wait till the main PLL is ready */
    while((RCC->CR & RCC_CR_PLLRDY) == 0)
 80037f2:	680a      	ldr	r2, [r1, #0]
 80037f4:	f643 0300 	movw	r3, #14336	; 0x3800
 80037f8:	f012 7f00 	tst.w	r2, #33554432	; 0x2000000
 80037fc:	f2c4 0302 	movt	r3, #16386	; 0x4002
 8003800:	d0f7      	beq.n	80037f2 <SystemInit+0xd6>
    {
    }
   
    /* Configure Flash prefetch, Instruction cache, Data cache and wait state */
    FLASH->ACR = FLASH_ACR_ICEN |FLASH_ACR_DCEN |FLASH_ACR_LATENCY_5WS;
 8003802:	f643 4200 	movw	r2, #15360	; 0x3c00
 8003806:	f2c4 0202 	movt	r2, #16386	; 0x4002
 800380a:	f240 6005 	movw	r0, #1541	; 0x605
 800380e:	6010      	str	r0, [r2, #0]

    /* Select the main PLL as system clock source */
    RCC->CFGR &= (uint32_t)((uint32_t)~(RCC_CFGR_SW));
 8003810:	6899      	ldr	r1, [r3, #8]
    RCC->CFGR |= RCC_CFGR_SW_PLL;

    /* Wait till the main PLL is used as system clock source */
    while ((RCC->CFGR & (uint32_t)RCC_CFGR_SWS ) != RCC_CFGR_SWS_PLL);
 8003812:	461a      	mov	r2, r3
   
    /* Configure Flash prefetch, Instruction cache, Data cache and wait state */
    FLASH->ACR = FLASH_ACR_ICEN |FLASH_ACR_DCEN |FLASH_ACR_LATENCY_5WS;

    /* Select the main PLL as system clock source */
    RCC->CFGR &= (uint32_t)((uint32_t)~(RCC_CFGR_SW));
 8003814:	f021 0003 	bic.w	r0, r1, #3
 8003818:	6098      	str	r0, [r3, #8]
    RCC->CFGR |= RCC_CFGR_SW_PLL;
 800381a:	6899      	ldr	r1, [r3, #8]
 800381c:	f041 0002 	orr.w	r0, r1, #2
 8003820:	6098      	str	r0, [r3, #8]

    /* Wait till the main PLL is used as system clock source */
    while ((RCC->CFGR & (uint32_t)RCC_CFGR_SWS ) != RCC_CFGR_SWS_PLL);
 8003822:	6893      	ldr	r3, [r2, #8]
 8003824:	f003 0c0c 	and.w	ip, r3, #12
 8003828:	f1bc 0f08 	cmp.w	ip, #8
 800382c:	d1f9      	bne.n	8003822 <SystemInit+0x106>
 800382e:	e7b3      	b.n	8003798 <SystemInit+0x7c>

08003830 <SystemCoreClockUpdate>:
void SystemCoreClockUpdate(void)
{
  uint32_t tmp = 0, pllvco = 0, pllp = 2, pllsource = 0, pllm = 2;
  
  /* Get SYSCLK source -------------------------------------------------------*/
  tmp = RCC->CFGR & RCC_CFGR_SWS;
 8003830:	f643 0300 	movw	r3, #14336	; 0x3800
 8003834:	f2c4 0302 	movt	r3, #16386	; 0x4002
 8003838:	689a      	ldr	r2, [r3, #8]

  switch (tmp)
 800383a:	f002 020c 	and.w	r2, r2, #12
 800383e:	2a04      	cmp	r2, #4
 8003840:	d016      	beq.n	8003870 <SystemCoreClockUpdate+0x40>
 8003842:	2a08      	cmp	r2, #8
 8003844:	d01e      	beq.n	8003884 <SystemCoreClockUpdate+0x54>

      pllp = (((RCC->PLLCFGR & RCC_PLLCFGR_PLLP) >>16) + 1 ) *2;
      SystemCoreClock = pllvco/pllp;
      break;
    default:
      SystemCoreClock = HSI_VALUE;
 8003846:	f240 03a0 	movw	r3, #160	; 0xa0
 800384a:	f242 4100 	movw	r1, #9216	; 0x2400
 800384e:	f2c0 01f4 	movt	r1, #244	; 0xf4
 8003852:	f2c2 0300 	movt	r3, #8192	; 0x2000
 8003856:	6019      	str	r1, [r3, #0]
      break;
  }
  /* Compute HCLK frequency --------------------------------------------------*/
  /* Get HCLK prescaler */
  tmp = AHBPrescTable[((RCC->CFGR & RCC_CFGR_HPRE) >> 4)];
 8003858:	f643 0000 	movw	r0, #14336	; 0x3800
 800385c:	f2c4 0002 	movt	r0, #16386	; 0x4002
 8003860:	6882      	ldr	r2, [r0, #8]
 8003862:	f3c2 1003 	ubfx	r0, r2, #4, #4
 8003866:	18c2      	adds	r2, r0, r3
 8003868:	7910      	ldrb	r0, [r2, #4]
  /* HCLK frequency */
  SystemCoreClock >>= tmp;
 800386a:	40c1      	lsrs	r1, r0
 800386c:	6019      	str	r1, [r3, #0]
}
 800386e:	4770      	bx	lr
  {
    case 0x00:  /* HSI used as system clock source */
      SystemCoreClock = HSI_VALUE;
      break;
    case 0x04:  /* HSE used as system clock source */
      SystemCoreClock = HSE_VALUE;
 8003870:	f240 03a0 	movw	r3, #160	; 0xa0
 8003874:	f241 2100 	movw	r1, #4608	; 0x1200
 8003878:	f2c0 017a 	movt	r1, #122	; 0x7a
 800387c:	f2c2 0300 	movt	r3, #8192	; 0x2000
 8003880:	6019      	str	r1, [r3, #0]
      break;
 8003882:	e7e9      	b.n	8003858 <SystemCoreClockUpdate+0x28>
    case 0x08:  /* PLL used as system clock source */

      /* PLL_VCO = (HSE_VALUE or HSI_VALUE / PLL_M) * PLL_N
         SYSCLK = PLL_VCO / PLL_P
         */    
      pllsource = (RCC->PLLCFGR & RCC_PLLCFGR_PLLSRC) >> 22;
 8003884:	6858      	ldr	r0, [r3, #4]
      pllm = RCC->PLLCFGR & RCC_PLLCFGR_PLLM;
 8003886:	685a      	ldr	r2, [r3, #4]
      
      if (pllsource != 0)
 8003888:	f410 0f80 	tst.w	r0, #4194304	; 0x400000
      {
        /* HSE used as PLL clock source */
        pllvco = (HSE_VALUE / pllm) * ((RCC->PLLCFGR & RCC_PLLCFGR_PLLN) >> 6);
 800388c:	6859      	ldr	r1, [r3, #4]
 800388e:	bf15      	itete	ne
 8003890:	f241 2300 	movwne	r3, #4608	; 0x1200
      }
      else
      {
        /* HSI used as PLL clock source */
        pllvco = (HSI_VALUE / pllm) * ((RCC->PLLCFGR & RCC_PLLCFGR_PLLN) >> 6);      
 8003894:	f242 4300 	movweq	r3, #9216	; 0x2400
      pllm = RCC->PLLCFGR & RCC_PLLCFGR_PLLM;
      
      if (pllsource != 0)
      {
        /* HSE used as PLL clock source */
        pllvco = (HSE_VALUE / pllm) * ((RCC->PLLCFGR & RCC_PLLCFGR_PLLN) >> 6);
 8003898:	f2c0 037a 	movtne	r3, #122	; 0x7a
      }
      else
      {
        /* HSI used as PLL clock source */
        pllvco = (HSI_VALUE / pllm) * ((RCC->PLLCFGR & RCC_PLLCFGR_PLLN) >> 6);      
 800389c:	f2c0 03f4 	movteq	r3, #244	; 0xf4

      /* PLL_VCO = (HSE_VALUE or HSI_VALUE / PLL_M) * PLL_N
         SYSCLK = PLL_VCO / PLL_P
         */    
      pllsource = (RCC->PLLCFGR & RCC_PLLCFGR_PLLSRC) >> 22;
      pllm = RCC->PLLCFGR & RCC_PLLCFGR_PLLM;
 80038a0:	f002 0c3f 	and.w	ip, r2, #63	; 0x3f
        pllvco = (HSE_VALUE / pllm) * ((RCC->PLLCFGR & RCC_PLLCFGR_PLLN) >> 6);
      }
      else
      {
        /* HSI used as PLL clock source */
        pllvco = (HSI_VALUE / pllm) * ((RCC->PLLCFGR & RCC_PLLCFGR_PLLN) >> 6);      
 80038a4:	fbb3 f2fc 	udiv	r2, r3, ip
      }

      pllp = (((RCC->PLLCFGR & RCC_PLLCFGR_PLLP) >>16) + 1 ) *2;
 80038a8:	f643 0300 	movw	r3, #14336	; 0x3800
 80038ac:	f2c4 0302 	movt	r3, #16386	; 0x4002
        pllvco = (HSE_VALUE / pllm) * ((RCC->PLLCFGR & RCC_PLLCFGR_PLLN) >> 6);
      }
      else
      {
        /* HSI used as PLL clock source */
        pllvco = (HSI_VALUE / pllm) * ((RCC->PLLCFGR & RCC_PLLCFGR_PLLN) >> 6);      
 80038b0:	f3c1 1c88 	ubfx	ip, r1, #6, #9
 80038b4:	fb02 f10c 	mul.w	r1, r2, ip
      }

      pllp = (((RCC->PLLCFGR & RCC_PLLCFGR_PLLP) >>16) + 1 ) *2;
 80038b8:	685a      	ldr	r2, [r3, #4]
      SystemCoreClock = pllvco/pllp;
 80038ba:	f240 03a0 	movw	r3, #160	; 0xa0
 80038be:	f3c2 4001 	ubfx	r0, r2, #16, #2
 80038c2:	1c42      	adds	r2, r0, #1
 80038c4:	0050      	lsls	r0, r2, #1
 80038c6:	fbb1 f1f0 	udiv	r1, r1, r0
 80038ca:	f2c2 0300 	movt	r3, #8192	; 0x2000
 80038ce:	6019      	str	r1, [r3, #0]
      break;
 80038d0:	e7c2      	b.n	8003858 <SystemCoreClockUpdate+0x28>
 80038d2:	bf00      	nop
 80038d4:	0000      	lsls	r0, r0, #0
	...

080038d8 <__aeabi_uidiv>:
 80038d8:	1e4a      	subs	r2, r1, #1
 80038da:	bf08      	it	eq
 80038dc:	4770      	bxeq	lr
 80038de:	f0c0 8124 	bcc.w	8003b2a <__aeabi_uidiv+0x252>
 80038e2:	4288      	cmp	r0, r1
 80038e4:	f240 8116 	bls.w	8003b14 <__aeabi_uidiv+0x23c>
 80038e8:	4211      	tst	r1, r2
 80038ea:	f000 8117 	beq.w	8003b1c <__aeabi_uidiv+0x244>
 80038ee:	fab0 f380 	clz	r3, r0
 80038f2:	fab1 f281 	clz	r2, r1
 80038f6:	eba2 0303 	sub.w	r3, r2, r3
 80038fa:	f1c3 031f 	rsb	r3, r3, #31
 80038fe:	a204      	add	r2, pc, #16	; (adr r2, 8003910 <__aeabi_uidiv+0x38>)
 8003900:	eb02 1303 	add.w	r3, r2, r3, lsl #4
 8003904:	f04f 0200 	mov.w	r2, #0
 8003908:	469f      	mov	pc, r3
 800390a:	bf00      	nop
 800390c:	f3af 8000 	nop.w
 8003910:	ebb0 7fc1 	cmp.w	r0, r1, lsl #31
 8003914:	bf00      	nop
 8003916:	eb42 0202 	adc.w	r2, r2, r2
 800391a:	bf28      	it	cs
 800391c:	eba0 70c1 	subcs.w	r0, r0, r1, lsl #31
 8003920:	ebb0 7f81 	cmp.w	r0, r1, lsl #30
 8003924:	bf00      	nop
 8003926:	eb42 0202 	adc.w	r2, r2, r2
 800392a:	bf28      	it	cs
 800392c:	eba0 7081 	subcs.w	r0, r0, r1, lsl #30
 8003930:	ebb0 7f41 	cmp.w	r0, r1, lsl #29
 8003934:	bf00      	nop
 8003936:	eb42 0202 	adc.w	r2, r2, r2
 800393a:	bf28      	it	cs
 800393c:	eba0 7041 	subcs.w	r0, r0, r1, lsl #29
 8003940:	ebb0 7f01 	cmp.w	r0, r1, lsl #28
 8003944:	bf00      	nop
 8003946:	eb42 0202 	adc.w	r2, r2, r2
 800394a:	bf28      	it	cs
 800394c:	eba0 7001 	subcs.w	r0, r0, r1, lsl #28
 8003950:	ebb0 6fc1 	cmp.w	r0, r1, lsl #27
 8003954:	bf00      	nop
 8003956:	eb42 0202 	adc.w	r2, r2, r2
 800395a:	bf28      	it	cs
 800395c:	eba0 60c1 	subcs.w	r0, r0, r1, lsl #27
 8003960:	ebb0 6f81 	cmp.w	r0, r1, lsl #26
 8003964:	bf00      	nop
 8003966:	eb42 0202 	adc.w	r2, r2, r2
 800396a:	bf28      	it	cs
 800396c:	eba0 6081 	subcs.w	r0, r0, r1, lsl #26
 8003970:	ebb0 6f41 	cmp.w	r0, r1, lsl #25
 8003974:	bf00      	nop
 8003976:	eb42 0202 	adc.w	r2, r2, r2
 800397a:	bf28      	it	cs
 800397c:	eba0 6041 	subcs.w	r0, r0, r1, lsl #25
 8003980:	ebb0 6f01 	cmp.w	r0, r1, lsl #24
 8003984:	bf00      	nop
 8003986:	eb42 0202 	adc.w	r2, r2, r2
 800398a:	bf28      	it	cs
 800398c:	eba0 6001 	subcs.w	r0, r0, r1, lsl #24
 8003990:	ebb0 5fc1 	cmp.w	r0, r1, lsl #23
 8003994:	bf00      	nop
 8003996:	eb42 0202 	adc.w	r2, r2, r2
 800399a:	bf28      	it	cs
 800399c:	eba0 50c1 	subcs.w	r0, r0, r1, lsl #23
 80039a0:	ebb0 5f81 	cmp.w	r0, r1, lsl #22
 80039a4:	bf00      	nop
 80039a6:	eb42 0202 	adc.w	r2, r2, r2
 80039aa:	bf28      	it	cs
 80039ac:	eba0 5081 	subcs.w	r0, r0, r1, lsl #22
 80039b0:	ebb0 5f41 	cmp.w	r0, r1, lsl #21
 80039b4:	bf00      	nop
 80039b6:	eb42 0202 	adc.w	r2, r2, r2
 80039ba:	bf28      	it	cs
 80039bc:	eba0 5041 	subcs.w	r0, r0, r1, lsl #21
 80039c0:	ebb0 5f01 	cmp.w	r0, r1, lsl #20
 80039c4:	bf00      	nop
 80039c6:	eb42 0202 	adc.w	r2, r2, r2
 80039ca:	bf28      	it	cs
 80039cc:	eba0 5001 	subcs.w	r0, r0, r1, lsl #20
 80039d0:	ebb0 4fc1 	cmp.w	r0, r1, lsl #19
 80039d4:	bf00      	nop
 80039d6:	eb42 0202 	adc.w	r2, r2, r2
 80039da:	bf28      	it	cs
 80039dc:	eba0 40c1 	subcs.w	r0, r0, r1, lsl #19
 80039e0:	ebb0 4f81 	cmp.w	r0, r1, lsl #18
 80039e4:	bf00      	nop
 80039e6:	eb42 0202 	adc.w	r2, r2, r2
 80039ea:	bf28      	it	cs
 80039ec:	eba0 4081 	subcs.w	r0, r0, r1, lsl #18
 80039f0:	ebb0 4f41 	cmp.w	r0, r1, lsl #17
 80039f4:	bf00      	nop
 80039f6:	eb42 0202 	adc.w	r2, r2, r2
 80039fa:	bf28      	it	cs
 80039fc:	eba0 4041 	subcs.w	r0, r0, r1, lsl #17
 8003a00:	ebb0 4f01 	cmp.w	r0, r1, lsl #16
 8003a04:	bf00      	nop
 8003a06:	eb42 0202 	adc.w	r2, r2, r2
 8003a0a:	bf28      	it	cs
 8003a0c:	eba0 4001 	subcs.w	r0, r0, r1, lsl #16
 8003a10:	ebb0 3fc1 	cmp.w	r0, r1, lsl #15
 8003a14:	bf00      	nop
 8003a16:	eb42 0202 	adc.w	r2, r2, r2
 8003a1a:	bf28      	it	cs
 8003a1c:	eba0 30c1 	subcs.w	r0, r0, r1, lsl #15
 8003a20:	ebb0 3f81 	cmp.w	r0, r1, lsl #14
 8003a24:	bf00      	nop
 8003a26:	eb42 0202 	adc.w	r2, r2, r2
 8003a2a:	bf28      	it	cs
 8003a2c:	eba0 3081 	subcs.w	r0, r0, r1, lsl #14
 8003a30:	ebb0 3f41 	cmp.w	r0, r1, lsl #13
 8003a34:	bf00      	nop
 8003a36:	eb42 0202 	adc.w	r2, r2, r2
 8003a3a:	bf28      	it	cs
 8003a3c:	eba0 3041 	subcs.w	r0, r0, r1, lsl #13
 8003a40:	ebb0 3f01 	cmp.w	r0, r1, lsl #12
 8003a44:	bf00      	nop
 8003a46:	eb42 0202 	adc.w	r2, r2, r2
 8003a4a:	bf28      	it	cs
 8003a4c:	eba0 3001 	subcs.w	r0, r0, r1, lsl #12
 8003a50:	ebb0 2fc1 	cmp.w	r0, r1, lsl #11
 8003a54:	bf00      	nop
 8003a56:	eb42 0202 	adc.w	r2, r2, r2
 8003a5a:	bf28      	it	cs
 8003a5c:	eba0 20c1 	subcs.w	r0, r0, r1, lsl #11
 8003a60:	ebb0 2f81 	cmp.w	r0, r1, lsl #10
 8003a64:	bf00      	nop
 8003a66:	eb42 0202 	adc.w	r2, r2, r2
 8003a6a:	bf28      	it	cs
 8003a6c:	eba0 2081 	subcs.w	r0, r0, r1, lsl #10
 8003a70:	ebb0 2f41 	cmp.w	r0, r1, lsl #9
 8003a74:	bf00      	nop
 8003a76:	eb42 0202 	adc.w	r2, r2, r2
 8003a7a:	bf28      	it	cs
 8003a7c:	eba0 2041 	subcs.w	r0, r0, r1, lsl #9
 8003a80:	ebb0 2f01 	cmp.w	r0, r1, lsl #8
 8003a84:	bf00      	nop
 8003a86:	eb42 0202 	adc.w	r2, r2, r2
 8003a8a:	bf28      	it	cs
 8003a8c:	eba0 2001 	subcs.w	r0, r0, r1, lsl #8
 8003a90:	ebb0 1fc1 	cmp.w	r0, r1, lsl #7
 8003a94:	bf00      	nop
 8003a96:	eb42 0202 	adc.w	r2, r2, r2
 8003a9a:	bf28      	it	cs
 8003a9c:	eba0 10c1 	subcs.w	r0, r0, r1, lsl #7
 8003aa0:	ebb0 1f81 	cmp.w	r0, r1, lsl #6
 8003aa4:	bf00      	nop
 8003aa6:	eb42 0202 	adc.w	r2, r2, r2
 8003aaa:	bf28      	it	cs
 8003aac:	eba0 1081 	subcs.w	r0, r0, r1, lsl #6
 8003ab0:	ebb0 1f41 	cmp.w	r0, r1, lsl #5
 8003ab4:	bf00      	nop
 8003ab6:	eb42 0202 	adc.w	r2, r2, r2
 8003aba:	bf28      	it	cs
 8003abc:	eba0 1041 	subcs.w	r0, r0, r1, lsl #5
 8003ac0:	ebb0 1f01 	cmp.w	r0, r1, lsl #4
 8003ac4:	bf00      	nop
 8003ac6:	eb42 0202 	adc.w	r2, r2, r2
 8003aca:	bf28      	it	cs
 8003acc:	eba0 1001 	subcs.w	r0, r0, r1, lsl #4
 8003ad0:	ebb0 0fc1 	cmp.w	r0, r1, lsl #3
 8003ad4:	bf00      	nop
 8003ad6:	eb42 0202 	adc.w	r2, r2, r2
 8003ada:	bf28      	it	cs
 8003adc:	eba0 00c1 	subcs.w	r0, r0, r1, lsl #3
 8003ae0:	ebb0 0f81 	cmp.w	r0, r1, lsl #2
 8003ae4:	bf00      	nop
 8003ae6:	eb42 0202 	adc.w	r2, r2, r2
 8003aea:	bf28      	it	cs
 8003aec:	eba0 0081 	subcs.w	r0, r0, r1, lsl #2
 8003af0:	ebb0 0f41 	cmp.w	r0, r1, lsl #1
 8003af4:	bf00      	nop
 8003af6:	eb42 0202 	adc.w	r2, r2, r2
 8003afa:	bf28      	it	cs
 8003afc:	eba0 0041 	subcs.w	r0, r0, r1, lsl #1
 8003b00:	ebb0 0f01 	cmp.w	r0, r1
 8003b04:	bf00      	nop
 8003b06:	eb42 0202 	adc.w	r2, r2, r2
 8003b0a:	bf28      	it	cs
 8003b0c:	eba0 0001 	subcs.w	r0, r0, r1
 8003b10:	4610      	mov	r0, r2
 8003b12:	4770      	bx	lr
 8003b14:	bf0c      	ite	eq
 8003b16:	2001      	moveq	r0, #1
 8003b18:	2000      	movne	r0, #0
 8003b1a:	4770      	bx	lr
 8003b1c:	fab1 f281 	clz	r2, r1
 8003b20:	f1c2 021f 	rsb	r2, r2, #31
 8003b24:	fa20 f002 	lsr.w	r0, r0, r2
 8003b28:	4770      	bx	lr
 8003b2a:	b108      	cbz	r0, 8003b30 <__aeabi_uidiv+0x258>
 8003b2c:	f04f 30ff 	mov.w	r0, #4294967295
 8003b30:	f000 b966 	b.w	8003e00 <__aeabi_idiv0>

08003b34 <__aeabi_uidivmod>:
 8003b34:	2900      	cmp	r1, #0
 8003b36:	d0f8      	beq.n	8003b2a <__aeabi_uidiv+0x252>
 8003b38:	e92d 4003 	stmdb	sp!, {r0, r1, lr}
 8003b3c:	f7ff fecc 	bl	80038d8 <__aeabi_uidiv>
 8003b40:	e8bd 4006 	ldmia.w	sp!, {r1, r2, lr}
 8003b44:	fb02 f300 	mul.w	r3, r2, r0
 8003b48:	eba1 0103 	sub.w	r1, r1, r3
 8003b4c:	4770      	bx	lr
 8003b4e:	bf00      	nop

08003b50 <__aeabi_idiv>:
 8003b50:	2900      	cmp	r1, #0
 8003b52:	f000 813e 	beq.w	8003dd2 <.divsi3_nodiv0+0x27c>

08003b56 <.divsi3_nodiv0>:
 8003b56:	ea80 0c01 	eor.w	ip, r0, r1
 8003b5a:	bf48      	it	mi
 8003b5c:	4249      	negmi	r1, r1
 8003b5e:	1e4a      	subs	r2, r1, #1
 8003b60:	f000 811f 	beq.w	8003da2 <.divsi3_nodiv0+0x24c>
 8003b64:	1c03      	adds	r3, r0, #0
 8003b66:	bf48      	it	mi
 8003b68:	4243      	negmi	r3, r0
 8003b6a:	428b      	cmp	r3, r1
 8003b6c:	f240 811e 	bls.w	8003dac <.divsi3_nodiv0+0x256>
 8003b70:	4211      	tst	r1, r2
 8003b72:	f000 8123 	beq.w	8003dbc <.divsi3_nodiv0+0x266>
 8003b76:	fab3 f283 	clz	r2, r3
 8003b7a:	fab1 f081 	clz	r0, r1
 8003b7e:	eba0 0202 	sub.w	r2, r0, r2
 8003b82:	f1c2 021f 	rsb	r2, r2, #31
 8003b86:	a004      	add	r0, pc, #16	; (adr r0, 8003b98 <.divsi3_nodiv0+0x42>)
 8003b88:	eb00 1202 	add.w	r2, r0, r2, lsl #4
 8003b8c:	f04f 0000 	mov.w	r0, #0
 8003b90:	4697      	mov	pc, r2
 8003b92:	bf00      	nop
 8003b94:	f3af 8000 	nop.w
 8003b98:	ebb3 7fc1 	cmp.w	r3, r1, lsl #31
 8003b9c:	bf00      	nop
 8003b9e:	eb40 0000 	adc.w	r0, r0, r0
 8003ba2:	bf28      	it	cs
 8003ba4:	eba3 73c1 	subcs.w	r3, r3, r1, lsl #31
 8003ba8:	ebb3 7f81 	cmp.w	r3, r1, lsl #30
 8003bac:	bf00      	nop
 8003bae:	eb40 0000 	adc.w	r0, r0, r0
 8003bb2:	bf28      	it	cs
 8003bb4:	eba3 7381 	subcs.w	r3, r3, r1, lsl #30
 8003bb8:	ebb3 7f41 	cmp.w	r3, r1, lsl #29
 8003bbc:	bf00      	nop
 8003bbe:	eb40 0000 	adc.w	r0, r0, r0
 8003bc2:	bf28      	it	cs
 8003bc4:	eba3 7341 	subcs.w	r3, r3, r1, lsl #29
 8003bc8:	ebb3 7f01 	cmp.w	r3, r1, lsl #28
 8003bcc:	bf00      	nop
 8003bce:	eb40 0000 	adc.w	r0, r0, r0
 8003bd2:	bf28      	it	cs
 8003bd4:	eba3 7301 	subcs.w	r3, r3, r1, lsl #28
 8003bd8:	ebb3 6fc1 	cmp.w	r3, r1, lsl #27
 8003bdc:	bf00      	nop
 8003bde:	eb40 0000 	adc.w	r0, r0, r0
 8003be2:	bf28      	it	cs
 8003be4:	eba3 63c1 	subcs.w	r3, r3, r1, lsl #27
 8003be8:	ebb3 6f81 	cmp.w	r3, r1, lsl #26
 8003bec:	bf00      	nop
 8003bee:	eb40 0000 	adc.w	r0, r0, r0
 8003bf2:	bf28      	it	cs
 8003bf4:	eba3 6381 	subcs.w	r3, r3, r1, lsl #26
 8003bf8:	ebb3 6f41 	cmp.w	r3, r1, lsl #25
 8003bfc:	bf00      	nop
 8003bfe:	eb40 0000 	adc.w	r0, r0, r0
 8003c02:	bf28      	it	cs
 8003c04:	eba3 6341 	subcs.w	r3, r3, r1, lsl #25
 8003c08:	ebb3 6f01 	cmp.w	r3, r1, lsl #24
 8003c0c:	bf00      	nop
 8003c0e:	eb40 0000 	adc.w	r0, r0, r0
 8003c12:	bf28      	it	cs
 8003c14:	eba3 6301 	subcs.w	r3, r3, r1, lsl #24
 8003c18:	ebb3 5fc1 	cmp.w	r3, r1, lsl #23
 8003c1c:	bf00      	nop
 8003c1e:	eb40 0000 	adc.w	r0, r0, r0
 8003c22:	bf28      	it	cs
 8003c24:	eba3 53c1 	subcs.w	r3, r3, r1, lsl #23
 8003c28:	ebb3 5f81 	cmp.w	r3, r1, lsl #22
 8003c2c:	bf00      	nop
 8003c2e:	eb40 0000 	adc.w	r0, r0, r0
 8003c32:	bf28      	it	cs
 8003c34:	eba3 5381 	subcs.w	r3, r3, r1, lsl #22
 8003c38:	ebb3 5f41 	cmp.w	r3, r1, lsl #21
 8003c3c:	bf00      	nop
 8003c3e:	eb40 0000 	adc.w	r0, r0, r0
 8003c42:	bf28      	it	cs
 8003c44:	eba3 5341 	subcs.w	r3, r3, r1, lsl #21
 8003c48:	ebb3 5f01 	cmp.w	r3, r1, lsl #20
 8003c4c:	bf00      	nop
 8003c4e:	eb40 0000 	adc.w	r0, r0, r0
 8003c52:	bf28      	it	cs
 8003c54:	eba3 5301 	subcs.w	r3, r3, r1, lsl #20
 8003c58:	ebb3 4fc1 	cmp.w	r3, r1, lsl #19
 8003c5c:	bf00      	nop
 8003c5e:	eb40 0000 	adc.w	r0, r0, r0
 8003c62:	bf28      	it	cs
 8003c64:	eba3 43c1 	subcs.w	r3, r3, r1, lsl #19
 8003c68:	ebb3 4f81 	cmp.w	r3, r1, lsl #18
 8003c6c:	bf00      	nop
 8003c6e:	eb40 0000 	adc.w	r0, r0, r0
 8003c72:	bf28      	it	cs
 8003c74:	eba3 4381 	subcs.w	r3, r3, r1, lsl #18
 8003c78:	ebb3 4f41 	cmp.w	r3, r1, lsl #17
 8003c7c:	bf00      	nop
 8003c7e:	eb40 0000 	adc.w	r0, r0, r0
 8003c82:	bf28      	it	cs
 8003c84:	eba3 4341 	subcs.w	r3, r3, r1, lsl #17
 8003c88:	ebb3 4f01 	cmp.w	r3, r1, lsl #16
 8003c8c:	bf00      	nop
 8003c8e:	eb40 0000 	adc.w	r0, r0, r0
 8003c92:	bf28      	it	cs
 8003c94:	eba3 4301 	subcs.w	r3, r3, r1, lsl #16
 8003c98:	ebb3 3fc1 	cmp.w	r3, r1, lsl #15
 8003c9c:	bf00      	nop
 8003c9e:	eb40 0000 	adc.w	r0, r0, r0
 8003ca2:	bf28      	it	cs
 8003ca4:	eba3 33c1 	subcs.w	r3, r3, r1, lsl #15
 8003ca8:	ebb3 3f81 	cmp.w	r3, r1, lsl #14
 8003cac:	bf00      	nop
 8003cae:	eb40 0000 	adc.w	r0, r0, r0
 8003cb2:	bf28      	it	cs
 8003cb4:	eba3 3381 	subcs.w	r3, r3, r1, lsl #14
 8003cb8:	ebb3 3f41 	cmp.w	r3, r1, lsl #13
 8003cbc:	bf00      	nop
 8003cbe:	eb40 0000 	adc.w	r0, r0, r0
 8003cc2:	bf28      	it	cs
 8003cc4:	eba3 3341 	subcs.w	r3, r3, r1, lsl #13
 8003cc8:	ebb3 3f01 	cmp.w	r3, r1, lsl #12
 8003ccc:	bf00      	nop
 8003cce:	eb40 0000 	adc.w	r0, r0, r0
 8003cd2:	bf28      	it	cs
 8003cd4:	eba3 3301 	subcs.w	r3, r3, r1, lsl #12
 8003cd8:	ebb3 2fc1 	cmp.w	r3, r1, lsl #11
 8003cdc:	bf00      	nop
 8003cde:	eb40 0000 	adc.w	r0, r0, r0
 8003ce2:	bf28      	it	cs
 8003ce4:	eba3 23c1 	subcs.w	r3, r3, r1, lsl #11
 8003ce8:	ebb3 2f81 	cmp.w	r3, r1, lsl #10
 8003cec:	bf00      	nop
 8003cee:	eb40 0000 	adc.w	r0, r0, r0
 8003cf2:	bf28      	it	cs
 8003cf4:	eba3 2381 	subcs.w	r3, r3, r1, lsl #10
 8003cf8:	ebb3 2f41 	cmp.w	r3, r1, lsl #9
 8003cfc:	bf00      	nop
 8003cfe:	eb40 0000 	adc.w	r0, r0, r0
 8003d02:	bf28      	it	cs
 8003d04:	eba3 2341 	subcs.w	r3, r3, r1, lsl #9
 8003d08:	ebb3 2f01 	cmp.w	r3, r1, lsl #8
 8003d0c:	bf00      	nop
 8003d0e:	eb40 0000 	adc.w	r0, r0, r0
 8003d12:	bf28      	it	cs
 8003d14:	eba3 2301 	subcs.w	r3, r3, r1, lsl #8
 8003d18:	ebb3 1fc1 	cmp.w	r3, r1, lsl #7
 8003d1c:	bf00      	nop
 8003d1e:	eb40 0000 	adc.w	r0, r0, r0
 8003d22:	bf28      	it	cs
 8003d24:	eba3 13c1 	subcs.w	r3, r3, r1, lsl #7
 8003d28:	ebb3 1f81 	cmp.w	r3, r1, lsl #6
 8003d2c:	bf00      	nop
 8003d2e:	eb40 0000 	adc.w	r0, r0, r0
 8003d32:	bf28      	it	cs
 8003d34:	eba3 1381 	subcs.w	r3, r3, r1, lsl #6
 8003d38:	ebb3 1f41 	cmp.w	r3, r1, lsl #5
 8003d3c:	bf00      	nop
 8003d3e:	eb40 0000 	adc.w	r0, r0, r0
 8003d42:	bf28      	it	cs
 8003d44:	eba3 1341 	subcs.w	r3, r3, r1, lsl #5
 8003d48:	ebb3 1f01 	cmp.w	r3, r1, lsl #4
 8003d4c:	bf00      	nop
 8003d4e:	eb40 0000 	adc.w	r0, r0, r0
 8003d52:	bf28      	it	cs
 8003d54:	eba3 1301 	subcs.w	r3, r3, r1, lsl #4
 8003d58:	ebb3 0fc1 	cmp.w	r3, r1, lsl #3
 8003d5c:	bf00      	nop
 8003d5e:	eb40 0000 	adc.w	r0, r0, r0
 8003d62:	bf28      	it	cs
 8003d64:	eba3 03c1 	subcs.w	r3, r3, r1, lsl #3
 8003d68:	ebb3 0f81 	cmp.w	r3, r1, lsl #2
 8003d6c:	bf00      	nop
 8003d6e:	eb40 0000 	adc.w	r0, r0, r0
 8003d72:	bf28      	it	cs
 8003d74:	eba3 0381 	subcs.w	r3, r3, r1, lsl #2
 8003d78:	ebb3 0f41 	cmp.w	r3, r1, lsl #1
 8003d7c:	bf00      	nop
 8003d7e:	eb40 0000 	adc.w	r0, r0, r0
 8003d82:	bf28      	it	cs
 8003d84:	eba3 0341 	subcs.w	r3, r3, r1, lsl #1
 8003d88:	ebb3 0f01 	cmp.w	r3, r1
 8003d8c:	bf00      	nop
 8003d8e:	eb40 0000 	adc.w	r0, r0, r0
 8003d92:	bf28      	it	cs
 8003d94:	eba3 0301 	subcs.w	r3, r3, r1
 8003d98:	f1bc 0f00 	cmp.w	ip, #0
 8003d9c:	bf48      	it	mi
 8003d9e:	4240      	negmi	r0, r0
 8003da0:	4770      	bx	lr
 8003da2:	ea9c 0f00 	teq	ip, r0
 8003da6:	bf48      	it	mi
 8003da8:	4240      	negmi	r0, r0
 8003daa:	4770      	bx	lr
 8003dac:	bf38      	it	cc
 8003dae:	2000      	movcc	r0, #0
 8003db0:	bf04      	itt	eq
 8003db2:	ea4f 70ec 	moveq.w	r0, ip, asr #31
 8003db6:	f040 0001 	orreq.w	r0, r0, #1
 8003dba:	4770      	bx	lr
 8003dbc:	fab1 f281 	clz	r2, r1
 8003dc0:	f1c2 021f 	rsb	r2, r2, #31
 8003dc4:	f1bc 0f00 	cmp.w	ip, #0
 8003dc8:	fa23 f002 	lsr.w	r0, r3, r2
 8003dcc:	bf48      	it	mi
 8003dce:	4240      	negmi	r0, r0
 8003dd0:	4770      	bx	lr
 8003dd2:	2800      	cmp	r0, #0
 8003dd4:	bfc8      	it	gt
 8003dd6:	f06f 4000 	mvngt.w	r0, #2147483648	; 0x80000000
 8003dda:	bfb8      	it	lt
 8003ddc:	f04f 4000 	movlt.w	r0, #2147483648	; 0x80000000
 8003de0:	f000 b80e 	b.w	8003e00 <__aeabi_idiv0>

08003de4 <__aeabi_idivmod>:
 8003de4:	2900      	cmp	r1, #0
 8003de6:	d0f4      	beq.n	8003dd2 <.divsi3_nodiv0+0x27c>
 8003de8:	e92d 4003 	stmdb	sp!, {r0, r1, lr}
 8003dec:	f7ff feb3 	bl	8003b56 <.divsi3_nodiv0>
 8003df0:	e8bd 4006 	ldmia.w	sp!, {r1, r2, lr}
 8003df4:	fb02 f300 	mul.w	r3, r2, r0
 8003df8:	eba1 0103 	sub.w	r1, r1, r3
 8003dfc:	4770      	bx	lr
 8003dfe:	bf00      	nop

08003e00 <__aeabi_idiv0>:
 8003e00:	4770      	bx	lr
 8003e02:	bf00      	nop

08003e04 <__aeabi_drsub>:
 8003e04:	f081 4100 	eor.w	r1, r1, #2147483648	; 0x80000000
 8003e08:	e002      	b.n	8003e10 <__adddf3>
 8003e0a:	bf00      	nop

08003e0c <__aeabi_dsub>:
 8003e0c:	f083 4300 	eor.w	r3, r3, #2147483648	; 0x80000000

08003e10 <__adddf3>:
 8003e10:	b530      	push	{r4, r5, lr}
 8003e12:	ea4f 0441 	mov.w	r4, r1, lsl #1
 8003e16:	ea4f 0543 	mov.w	r5, r3, lsl #1
 8003e1a:	ea94 0f05 	teq	r4, r5
 8003e1e:	bf08      	it	eq
 8003e20:	ea90 0f02 	teqeq	r0, r2
 8003e24:	bf1f      	itttt	ne
 8003e26:	ea54 0c00 	orrsne.w	ip, r4, r0
 8003e2a:	ea55 0c02 	orrsne.w	ip, r5, r2
 8003e2e:	ea7f 5c64 	mvnsne.w	ip, r4, asr #21
 8003e32:	ea7f 5c65 	mvnsne.w	ip, r5, asr #21
 8003e36:	f000 80e2 	beq.w	8003ffe <__adddf3+0x1ee>
 8003e3a:	ea4f 5454 	mov.w	r4, r4, lsr #21
 8003e3e:	ebd4 5555 	rsbs	r5, r4, r5, lsr #21
 8003e42:	bfb8      	it	lt
 8003e44:	426d      	neglt	r5, r5
 8003e46:	dd0c      	ble.n	8003e62 <__adddf3+0x52>
 8003e48:	442c      	add	r4, r5
 8003e4a:	ea80 0202 	eor.w	r2, r0, r2
 8003e4e:	ea81 0303 	eor.w	r3, r1, r3
 8003e52:	ea82 0000 	eor.w	r0, r2, r0
 8003e56:	ea83 0101 	eor.w	r1, r3, r1
 8003e5a:	ea80 0202 	eor.w	r2, r0, r2
 8003e5e:	ea81 0303 	eor.w	r3, r1, r3
 8003e62:	2d36      	cmp	r5, #54	; 0x36
 8003e64:	bf88      	it	hi
 8003e66:	bd30      	pophi	{r4, r5, pc}
 8003e68:	f011 4f00 	tst.w	r1, #2147483648	; 0x80000000
 8003e6c:	ea4f 3101 	mov.w	r1, r1, lsl #12
 8003e70:	f44f 1c80 	mov.w	ip, #1048576	; 0x100000
 8003e74:	ea4c 3111 	orr.w	r1, ip, r1, lsr #12
 8003e78:	d002      	beq.n	8003e80 <__adddf3+0x70>
 8003e7a:	4240      	negs	r0, r0
 8003e7c:	eb61 0141 	sbc.w	r1, r1, r1, lsl #1
 8003e80:	f013 4f00 	tst.w	r3, #2147483648	; 0x80000000
 8003e84:	ea4f 3303 	mov.w	r3, r3, lsl #12
 8003e88:	ea4c 3313 	orr.w	r3, ip, r3, lsr #12
 8003e8c:	d002      	beq.n	8003e94 <__adddf3+0x84>
 8003e8e:	4252      	negs	r2, r2
 8003e90:	eb63 0343 	sbc.w	r3, r3, r3, lsl #1
 8003e94:	ea94 0f05 	teq	r4, r5
 8003e98:	f000 80a7 	beq.w	8003fea <__adddf3+0x1da>
 8003e9c:	f1a4 0401 	sub.w	r4, r4, #1
 8003ea0:	f1d5 0e20 	rsbs	lr, r5, #32
 8003ea4:	db0d      	blt.n	8003ec2 <__adddf3+0xb2>
 8003ea6:	fa02 fc0e 	lsl.w	ip, r2, lr
 8003eaa:	fa22 f205 	lsr.w	r2, r2, r5
 8003eae:	1880      	adds	r0, r0, r2
 8003eb0:	f141 0100 	adc.w	r1, r1, #0
 8003eb4:	fa03 f20e 	lsl.w	r2, r3, lr
 8003eb8:	1880      	adds	r0, r0, r2
 8003eba:	fa43 f305 	asr.w	r3, r3, r5
 8003ebe:	4159      	adcs	r1, r3
 8003ec0:	e00e      	b.n	8003ee0 <__adddf3+0xd0>
 8003ec2:	f1a5 0520 	sub.w	r5, r5, #32
 8003ec6:	f10e 0e20 	add.w	lr, lr, #32
 8003eca:	2a01      	cmp	r2, #1
 8003ecc:	fa03 fc0e 	lsl.w	ip, r3, lr
 8003ed0:	bf28      	it	cs
 8003ed2:	f04c 0c02 	orrcs.w	ip, ip, #2
 8003ed6:	fa43 f305 	asr.w	r3, r3, r5
 8003eda:	18c0      	adds	r0, r0, r3
 8003edc:	eb51 71e3 	adcs.w	r1, r1, r3, asr #31
 8003ee0:	f001 4500 	and.w	r5, r1, #2147483648	; 0x80000000
 8003ee4:	d507      	bpl.n	8003ef6 <__adddf3+0xe6>
 8003ee6:	f04f 0e00 	mov.w	lr, #0
 8003eea:	f1dc 0c00 	rsbs	ip, ip, #0
 8003eee:	eb7e 0000 	sbcs.w	r0, lr, r0
 8003ef2:	eb6e 0101 	sbc.w	r1, lr, r1
 8003ef6:	f5b1 1f80 	cmp.w	r1, #1048576	; 0x100000
 8003efa:	d31b      	bcc.n	8003f34 <__adddf3+0x124>
 8003efc:	f5b1 1f00 	cmp.w	r1, #2097152	; 0x200000
 8003f00:	d30c      	bcc.n	8003f1c <__adddf3+0x10c>
 8003f02:	0849      	lsrs	r1, r1, #1
 8003f04:	ea5f 0030 	movs.w	r0, r0, rrx
 8003f08:	ea4f 0c3c 	mov.w	ip, ip, rrx
 8003f0c:	f104 0401 	add.w	r4, r4, #1
 8003f10:	ea4f 5244 	mov.w	r2, r4, lsl #21
 8003f14:	f512 0f80 	cmn.w	r2, #4194304	; 0x400000
 8003f18:	f080 809a 	bcs.w	8004050 <__adddf3+0x240>
 8003f1c:	f1bc 4f00 	cmp.w	ip, #2147483648	; 0x80000000
 8003f20:	bf08      	it	eq
 8003f22:	ea5f 0c50 	movseq.w	ip, r0, lsr #1
 8003f26:	f150 0000 	adcs.w	r0, r0, #0
 8003f2a:	eb41 5104 	adc.w	r1, r1, r4, lsl #20
 8003f2e:	ea41 0105 	orr.w	r1, r1, r5
 8003f32:	bd30      	pop	{r4, r5, pc}
 8003f34:	ea5f 0c4c 	movs.w	ip, ip, lsl #1
 8003f38:	4140      	adcs	r0, r0
 8003f3a:	eb41 0101 	adc.w	r1, r1, r1
 8003f3e:	f411 1f80 	tst.w	r1, #1048576	; 0x100000
 8003f42:	f1a4 0401 	sub.w	r4, r4, #1
 8003f46:	d1e9      	bne.n	8003f1c <__adddf3+0x10c>
 8003f48:	f091 0f00 	teq	r1, #0
 8003f4c:	bf04      	itt	eq
 8003f4e:	4601      	moveq	r1, r0
 8003f50:	2000      	moveq	r0, #0
 8003f52:	fab1 f381 	clz	r3, r1
 8003f56:	bf08      	it	eq
 8003f58:	3320      	addeq	r3, #32
 8003f5a:	f1a3 030b 	sub.w	r3, r3, #11
 8003f5e:	f1b3 0220 	subs.w	r2, r3, #32
 8003f62:	da0c      	bge.n	8003f7e <__adddf3+0x16e>
 8003f64:	320c      	adds	r2, #12
 8003f66:	dd08      	ble.n	8003f7a <__adddf3+0x16a>
 8003f68:	f102 0c14 	add.w	ip, r2, #20
 8003f6c:	f1c2 020c 	rsb	r2, r2, #12
 8003f70:	fa01 f00c 	lsl.w	r0, r1, ip
 8003f74:	fa21 f102 	lsr.w	r1, r1, r2
 8003f78:	e00c      	b.n	8003f94 <__adddf3+0x184>
 8003f7a:	f102 0214 	add.w	r2, r2, #20
 8003f7e:	bfd8      	it	le
 8003f80:	f1c2 0c20 	rsble	ip, r2, #32
 8003f84:	fa01 f102 	lsl.w	r1, r1, r2
 8003f88:	fa20 fc0c 	lsr.w	ip, r0, ip
 8003f8c:	bfdc      	itt	le
 8003f8e:	ea41 010c 	orrle.w	r1, r1, ip
 8003f92:	4090      	lslle	r0, r2
 8003f94:	1ae4      	subs	r4, r4, r3
 8003f96:	bfa2      	ittt	ge
 8003f98:	eb01 5104 	addge.w	r1, r1, r4, lsl #20
 8003f9c:	4329      	orrge	r1, r5
 8003f9e:	bd30      	popge	{r4, r5, pc}
 8003fa0:	ea6f 0404 	mvn.w	r4, r4
 8003fa4:	3c1f      	subs	r4, #31
 8003fa6:	da1c      	bge.n	8003fe2 <__adddf3+0x1d2>
 8003fa8:	340c      	adds	r4, #12
 8003faa:	dc0e      	bgt.n	8003fca <__adddf3+0x1ba>
 8003fac:	f104 0414 	add.w	r4, r4, #20
 8003fb0:	f1c4 0220 	rsb	r2, r4, #32
 8003fb4:	fa20 f004 	lsr.w	r0, r0, r4
 8003fb8:	fa01 f302 	lsl.w	r3, r1, r2
 8003fbc:	ea40 0003 	orr.w	r0, r0, r3
 8003fc0:	fa21 f304 	lsr.w	r3, r1, r4
 8003fc4:	ea45 0103 	orr.w	r1, r5, r3
 8003fc8:	bd30      	pop	{r4, r5, pc}
 8003fca:	f1c4 040c 	rsb	r4, r4, #12
 8003fce:	f1c4 0220 	rsb	r2, r4, #32
 8003fd2:	fa20 f002 	lsr.w	r0, r0, r2
 8003fd6:	fa01 f304 	lsl.w	r3, r1, r4
 8003fda:	ea40 0003 	orr.w	r0, r0, r3
 8003fde:	4629      	mov	r1, r5
 8003fe0:	bd30      	pop	{r4, r5, pc}
 8003fe2:	fa21 f004 	lsr.w	r0, r1, r4
 8003fe6:	4629      	mov	r1, r5
 8003fe8:	bd30      	pop	{r4, r5, pc}
 8003fea:	f094 0f00 	teq	r4, #0
 8003fee:	f483 1380 	eor.w	r3, r3, #1048576	; 0x100000
 8003ff2:	bf06      	itte	eq
 8003ff4:	f481 1180 	eoreq.w	r1, r1, #1048576	; 0x100000
 8003ff8:	3401      	addeq	r4, #1
 8003ffa:	3d01      	subne	r5, #1
 8003ffc:	e74e      	b.n	8003e9c <__adddf3+0x8c>
 8003ffe:	ea7f 5c64 	mvns.w	ip, r4, asr #21
 8004002:	bf18      	it	ne
 8004004:	ea7f 5c65 	mvnsne.w	ip, r5, asr #21
 8004008:	d029      	beq.n	800405e <__adddf3+0x24e>
 800400a:	ea94 0f05 	teq	r4, r5
 800400e:	bf08      	it	eq
 8004010:	ea90 0f02 	teqeq	r0, r2
 8004014:	d005      	beq.n	8004022 <__adddf3+0x212>
 8004016:	ea54 0c00 	orrs.w	ip, r4, r0
 800401a:	bf04      	itt	eq
 800401c:	4619      	moveq	r1, r3
 800401e:	4610      	moveq	r0, r2
 8004020:	bd30      	pop	{r4, r5, pc}
 8004022:	ea91 0f03 	teq	r1, r3
 8004026:	bf1e      	ittt	ne
 8004028:	2100      	movne	r1, #0
 800402a:	2000      	movne	r0, #0
 800402c:	bd30      	popne	{r4, r5, pc}
 800402e:	ea5f 5c54 	movs.w	ip, r4, lsr #21
 8004032:	d105      	bne.n	8004040 <__adddf3+0x230>
 8004034:	0040      	lsls	r0, r0, #1
 8004036:	4149      	adcs	r1, r1
 8004038:	bf28      	it	cs
 800403a:	f041 4100 	orrcs.w	r1, r1, #2147483648	; 0x80000000
 800403e:	bd30      	pop	{r4, r5, pc}
 8004040:	f514 0480 	adds.w	r4, r4, #4194304	; 0x400000
 8004044:	bf3c      	itt	cc
 8004046:	f501 1180 	addcc.w	r1, r1, #1048576	; 0x100000
 800404a:	bd30      	popcc	{r4, r5, pc}
 800404c:	f001 4500 	and.w	r5, r1, #2147483648	; 0x80000000
 8004050:	f045 41fe 	orr.w	r1, r5, #2130706432	; 0x7f000000
 8004054:	f441 0170 	orr.w	r1, r1, #15728640	; 0xf00000
 8004058:	f04f 0000 	mov.w	r0, #0
 800405c:	bd30      	pop	{r4, r5, pc}
 800405e:	ea7f 5c64 	mvns.w	ip, r4, asr #21
 8004062:	bf1a      	itte	ne
 8004064:	4619      	movne	r1, r3
 8004066:	4610      	movne	r0, r2
 8004068:	ea7f 5c65 	mvnseq.w	ip, r5, asr #21
 800406c:	bf1c      	itt	ne
 800406e:	460b      	movne	r3, r1
 8004070:	4602      	movne	r2, r0
 8004072:	ea50 3401 	orrs.w	r4, r0, r1, lsl #12
 8004076:	bf06      	itte	eq
 8004078:	ea52 3503 	orrseq.w	r5, r2, r3, lsl #12
 800407c:	ea91 0f03 	teqeq	r1, r3
 8004080:	f441 2100 	orrne.w	r1, r1, #524288	; 0x80000
 8004084:	bd30      	pop	{r4, r5, pc}
 8004086:	bf00      	nop

08004088 <__aeabi_ui2d>:
 8004088:	f090 0f00 	teq	r0, #0
 800408c:	bf04      	itt	eq
 800408e:	2100      	moveq	r1, #0
 8004090:	4770      	bxeq	lr
 8004092:	b530      	push	{r4, r5, lr}
 8004094:	f44f 6480 	mov.w	r4, #1024	; 0x400
 8004098:	f104 0432 	add.w	r4, r4, #50	; 0x32
 800409c:	f04f 0500 	mov.w	r5, #0
 80040a0:	f04f 0100 	mov.w	r1, #0
 80040a4:	e750      	b.n	8003f48 <__adddf3+0x138>
 80040a6:	bf00      	nop

080040a8 <__aeabi_i2d>:
 80040a8:	f090 0f00 	teq	r0, #0
 80040ac:	bf04      	itt	eq
 80040ae:	2100      	moveq	r1, #0
 80040b0:	4770      	bxeq	lr
 80040b2:	b530      	push	{r4, r5, lr}
 80040b4:	f44f 6480 	mov.w	r4, #1024	; 0x400
 80040b8:	f104 0432 	add.w	r4, r4, #50	; 0x32
 80040bc:	f010 4500 	ands.w	r5, r0, #2147483648	; 0x80000000
 80040c0:	bf48      	it	mi
 80040c2:	4240      	negmi	r0, r0
 80040c4:	f04f 0100 	mov.w	r1, #0
 80040c8:	e73e      	b.n	8003f48 <__adddf3+0x138>
 80040ca:	bf00      	nop

080040cc <__aeabi_f2d>:
 80040cc:	0042      	lsls	r2, r0, #1
 80040ce:	ea4f 01e2 	mov.w	r1, r2, asr #3
 80040d2:	ea4f 0131 	mov.w	r1, r1, rrx
 80040d6:	ea4f 7002 	mov.w	r0, r2, lsl #28
 80040da:	bf1f      	itttt	ne
 80040dc:	f012 437f 	andsne.w	r3, r2, #4278190080	; 0xff000000
 80040e0:	f093 4f7f 	teqne	r3, #4278190080	; 0xff000000
 80040e4:	f081 5160 	eorne.w	r1, r1, #939524096	; 0x38000000
 80040e8:	4770      	bxne	lr
 80040ea:	f092 0f00 	teq	r2, #0
 80040ee:	bf14      	ite	ne
 80040f0:	f093 4f7f 	teqne	r3, #4278190080	; 0xff000000
 80040f4:	4770      	bxeq	lr
 80040f6:	b530      	push	{r4, r5, lr}
 80040f8:	f44f 7460 	mov.w	r4, #896	; 0x380
 80040fc:	f001 4500 	and.w	r5, r1, #2147483648	; 0x80000000
 8004100:	f021 4100 	bic.w	r1, r1, #2147483648	; 0x80000000
 8004104:	e720      	b.n	8003f48 <__adddf3+0x138>
 8004106:	bf00      	nop

08004108 <__aeabi_ul2d>:
 8004108:	ea50 0201 	orrs.w	r2, r0, r1
 800410c:	bf08      	it	eq
 800410e:	4770      	bxeq	lr
 8004110:	b530      	push	{r4, r5, lr}
 8004112:	f04f 0500 	mov.w	r5, #0
 8004116:	e00a      	b.n	800412e <__aeabi_l2d+0x16>

08004118 <__aeabi_l2d>:
 8004118:	ea50 0201 	orrs.w	r2, r0, r1
 800411c:	bf08      	it	eq
 800411e:	4770      	bxeq	lr
 8004120:	b530      	push	{r4, r5, lr}
 8004122:	f011 4500 	ands.w	r5, r1, #2147483648	; 0x80000000
 8004126:	d502      	bpl.n	800412e <__aeabi_l2d+0x16>
 8004128:	4240      	negs	r0, r0
 800412a:	eb61 0141 	sbc.w	r1, r1, r1, lsl #1
 800412e:	f44f 6480 	mov.w	r4, #1024	; 0x400
 8004132:	f104 0432 	add.w	r4, r4, #50	; 0x32
 8004136:	ea5f 5c91 	movs.w	ip, r1, lsr #22
 800413a:	f43f aedc 	beq.w	8003ef6 <__adddf3+0xe6>
 800413e:	f04f 0203 	mov.w	r2, #3
 8004142:	ea5f 0cdc 	movs.w	ip, ip, lsr #3
 8004146:	bf18      	it	ne
 8004148:	3203      	addne	r2, #3
 800414a:	ea5f 0cdc 	movs.w	ip, ip, lsr #3
 800414e:	bf18      	it	ne
 8004150:	3203      	addne	r2, #3
 8004152:	eb02 02dc 	add.w	r2, r2, ip, lsr #3
 8004156:	f1c2 0320 	rsb	r3, r2, #32
 800415a:	fa00 fc03 	lsl.w	ip, r0, r3
 800415e:	fa20 f002 	lsr.w	r0, r0, r2
 8004162:	fa01 fe03 	lsl.w	lr, r1, r3
 8004166:	ea40 000e 	orr.w	r0, r0, lr
 800416a:	fa21 f102 	lsr.w	r1, r1, r2
 800416e:	4414      	add	r4, r2
 8004170:	e6c1      	b.n	8003ef6 <__adddf3+0xe6>
 8004172:	bf00      	nop

08004174 <__aeabi_dmul>:
 8004174:	b570      	push	{r4, r5, r6, lr}
 8004176:	f04f 0cff 	mov.w	ip, #255	; 0xff
 800417a:	f44c 6ce0 	orr.w	ip, ip, #1792	; 0x700
 800417e:	ea1c 5411 	ands.w	r4, ip, r1, lsr #20
 8004182:	bf1d      	ittte	ne
 8004184:	ea1c 5513 	andsne.w	r5, ip, r3, lsr #20
 8004188:	ea94 0f0c 	teqne	r4, ip
 800418c:	ea95 0f0c 	teqne	r5, ip
 8004190:	f000 f8de 	bleq	8004350 <__aeabi_dmul+0x1dc>
 8004194:	442c      	add	r4, r5
 8004196:	ea81 0603 	eor.w	r6, r1, r3
 800419a:	ea21 514c 	bic.w	r1, r1, ip, lsl #21
 800419e:	ea23 534c 	bic.w	r3, r3, ip, lsl #21
 80041a2:	ea50 3501 	orrs.w	r5, r0, r1, lsl #12
 80041a6:	bf18      	it	ne
 80041a8:	ea52 3503 	orrsne.w	r5, r2, r3, lsl #12
 80041ac:	f441 1180 	orr.w	r1, r1, #1048576	; 0x100000
 80041b0:	f443 1380 	orr.w	r3, r3, #1048576	; 0x100000
 80041b4:	d038      	beq.n	8004228 <__aeabi_dmul+0xb4>
 80041b6:	fba0 ce02 	umull	ip, lr, r0, r2
 80041ba:	f04f 0500 	mov.w	r5, #0
 80041be:	fbe1 e502 	umlal	lr, r5, r1, r2
 80041c2:	f006 4200 	and.w	r2, r6, #2147483648	; 0x80000000
 80041c6:	fbe0 e503 	umlal	lr, r5, r0, r3
 80041ca:	f04f 0600 	mov.w	r6, #0
 80041ce:	fbe1 5603 	umlal	r5, r6, r1, r3
 80041d2:	f09c 0f00 	teq	ip, #0
 80041d6:	bf18      	it	ne
 80041d8:	f04e 0e01 	orrne.w	lr, lr, #1
 80041dc:	f1a4 04ff 	sub.w	r4, r4, #255	; 0xff
 80041e0:	f5b6 7f00 	cmp.w	r6, #512	; 0x200
 80041e4:	f564 7440 	sbc.w	r4, r4, #768	; 0x300
 80041e8:	d204      	bcs.n	80041f4 <__aeabi_dmul+0x80>
 80041ea:	ea5f 0e4e 	movs.w	lr, lr, lsl #1
 80041ee:	416d      	adcs	r5, r5
 80041f0:	eb46 0606 	adc.w	r6, r6, r6
 80041f4:	ea42 21c6 	orr.w	r1, r2, r6, lsl #11
 80041f8:	ea41 5155 	orr.w	r1, r1, r5, lsr #21
 80041fc:	ea4f 20c5 	mov.w	r0, r5, lsl #11
 8004200:	ea40 505e 	orr.w	r0, r0, lr, lsr #21
 8004204:	ea4f 2ece 	mov.w	lr, lr, lsl #11
 8004208:	f1b4 0cfd 	subs.w	ip, r4, #253	; 0xfd
 800420c:	bf88      	it	hi
 800420e:	f5bc 6fe0 	cmphi.w	ip, #1792	; 0x700
 8004212:	d81e      	bhi.n	8004252 <__aeabi_dmul+0xde>
 8004214:	f1be 4f00 	cmp.w	lr, #2147483648	; 0x80000000
 8004218:	bf08      	it	eq
 800421a:	ea5f 0e50 	movseq.w	lr, r0, lsr #1
 800421e:	f150 0000 	adcs.w	r0, r0, #0
 8004222:	eb41 5104 	adc.w	r1, r1, r4, lsl #20
 8004226:	bd70      	pop	{r4, r5, r6, pc}
 8004228:	f006 4600 	and.w	r6, r6, #2147483648	; 0x80000000
 800422c:	ea46 0101 	orr.w	r1, r6, r1
 8004230:	ea40 0002 	orr.w	r0, r0, r2
 8004234:	ea81 0103 	eor.w	r1, r1, r3
 8004238:	ebb4 045c 	subs.w	r4, r4, ip, lsr #1
 800423c:	bfc2      	ittt	gt
 800423e:	ebd4 050c 	rsbsgt	r5, r4, ip
 8004242:	ea41 5104 	orrgt.w	r1, r1, r4, lsl #20
 8004246:	bd70      	popgt	{r4, r5, r6, pc}
 8004248:	f441 1180 	orr.w	r1, r1, #1048576	; 0x100000
 800424c:	f04f 0e00 	mov.w	lr, #0
 8004250:	3c01      	subs	r4, #1
 8004252:	f300 80ab 	bgt.w	80043ac <__aeabi_dmul+0x238>
 8004256:	f114 0f36 	cmn.w	r4, #54	; 0x36
 800425a:	bfde      	ittt	le
 800425c:	2000      	movle	r0, #0
 800425e:	f001 4100 	andle.w	r1, r1, #2147483648	; 0x80000000
 8004262:	bd70      	pople	{r4, r5, r6, pc}
 8004264:	f1c4 0400 	rsb	r4, r4, #0
 8004268:	3c20      	subs	r4, #32
 800426a:	da35      	bge.n	80042d8 <__aeabi_dmul+0x164>
 800426c:	340c      	adds	r4, #12
 800426e:	dc1b      	bgt.n	80042a8 <__aeabi_dmul+0x134>
 8004270:	f104 0414 	add.w	r4, r4, #20
 8004274:	f1c4 0520 	rsb	r5, r4, #32
 8004278:	fa00 f305 	lsl.w	r3, r0, r5
 800427c:	fa20 f004 	lsr.w	r0, r0, r4
 8004280:	fa01 f205 	lsl.w	r2, r1, r5
 8004284:	ea40 0002 	orr.w	r0, r0, r2
 8004288:	f001 4200 	and.w	r2, r1, #2147483648	; 0x80000000
 800428c:	f021 4100 	bic.w	r1, r1, #2147483648	; 0x80000000
 8004290:	eb10 70d3 	adds.w	r0, r0, r3, lsr #31
 8004294:	fa21 f604 	lsr.w	r6, r1, r4
 8004298:	eb42 0106 	adc.w	r1, r2, r6
 800429c:	ea5e 0e43 	orrs.w	lr, lr, r3, lsl #1
 80042a0:	bf08      	it	eq
 80042a2:	ea20 70d3 	biceq.w	r0, r0, r3, lsr #31
 80042a6:	bd70      	pop	{r4, r5, r6, pc}
 80042a8:	f1c4 040c 	rsb	r4, r4, #12
 80042ac:	f1c4 0520 	rsb	r5, r4, #32
 80042b0:	fa00 f304 	lsl.w	r3, r0, r4
 80042b4:	fa20 f005 	lsr.w	r0, r0, r5
 80042b8:	fa01 f204 	lsl.w	r2, r1, r4
 80042bc:	ea40 0002 	orr.w	r0, r0, r2
 80042c0:	f001 4100 	and.w	r1, r1, #2147483648	; 0x80000000
 80042c4:	eb10 70d3 	adds.w	r0, r0, r3, lsr #31
 80042c8:	f141 0100 	adc.w	r1, r1, #0
 80042cc:	ea5e 0e43 	orrs.w	lr, lr, r3, lsl #1
 80042d0:	bf08      	it	eq
 80042d2:	ea20 70d3 	biceq.w	r0, r0, r3, lsr #31
 80042d6:	bd70      	pop	{r4, r5, r6, pc}
 80042d8:	f1c4 0520 	rsb	r5, r4, #32
 80042dc:	fa00 f205 	lsl.w	r2, r0, r5
 80042e0:	ea4e 0e02 	orr.w	lr, lr, r2
 80042e4:	fa20 f304 	lsr.w	r3, r0, r4
 80042e8:	fa01 f205 	lsl.w	r2, r1, r5
 80042ec:	ea43 0302 	orr.w	r3, r3, r2
 80042f0:	fa21 f004 	lsr.w	r0, r1, r4
 80042f4:	f001 4100 	and.w	r1, r1, #2147483648	; 0x80000000
 80042f8:	fa21 f204 	lsr.w	r2, r1, r4
 80042fc:	ea20 0002 	bic.w	r0, r0, r2
 8004300:	eb00 70d3 	add.w	r0, r0, r3, lsr #31
 8004304:	ea5e 0e43 	orrs.w	lr, lr, r3, lsl #1
 8004308:	bf08      	it	eq
 800430a:	ea20 70d3 	biceq.w	r0, r0, r3, lsr #31
 800430e:	bd70      	pop	{r4, r5, r6, pc}
 8004310:	f094 0f00 	teq	r4, #0
 8004314:	d10f      	bne.n	8004336 <__aeabi_dmul+0x1c2>
 8004316:	f001 4600 	and.w	r6, r1, #2147483648	; 0x80000000
 800431a:	0040      	lsls	r0, r0, #1
 800431c:	eb41 0101 	adc.w	r1, r1, r1
 8004320:	f411 1f80 	tst.w	r1, #1048576	; 0x100000
 8004324:	bf08      	it	eq
 8004326:	3c01      	subeq	r4, #1
 8004328:	d0f7      	beq.n	800431a <__aeabi_dmul+0x1a6>
 800432a:	ea41 0106 	orr.w	r1, r1, r6
 800432e:	f095 0f00 	teq	r5, #0
 8004332:	bf18      	it	ne
 8004334:	4770      	bxne	lr
 8004336:	f003 4600 	and.w	r6, r3, #2147483648	; 0x80000000
 800433a:	0052      	lsls	r2, r2, #1
 800433c:	eb43 0303 	adc.w	r3, r3, r3
 8004340:	f413 1f80 	tst.w	r3, #1048576	; 0x100000
 8004344:	bf08      	it	eq
 8004346:	3d01      	subeq	r5, #1
 8004348:	d0f7      	beq.n	800433a <__aeabi_dmul+0x1c6>
 800434a:	ea43 0306 	orr.w	r3, r3, r6
 800434e:	4770      	bx	lr
 8004350:	ea94 0f0c 	teq	r4, ip
 8004354:	ea0c 5513 	and.w	r5, ip, r3, lsr #20
 8004358:	bf18      	it	ne
 800435a:	ea95 0f0c 	teqne	r5, ip
 800435e:	d00c      	beq.n	800437a <__aeabi_dmul+0x206>
 8004360:	ea50 0641 	orrs.w	r6, r0, r1, lsl #1
 8004364:	bf18      	it	ne
 8004366:	ea52 0643 	orrsne.w	r6, r2, r3, lsl #1
 800436a:	d1d1      	bne.n	8004310 <__aeabi_dmul+0x19c>
 800436c:	ea81 0103 	eor.w	r1, r1, r3
 8004370:	f001 4100 	and.w	r1, r1, #2147483648	; 0x80000000
 8004374:	f04f 0000 	mov.w	r0, #0
 8004378:	bd70      	pop	{r4, r5, r6, pc}
 800437a:	ea50 0641 	orrs.w	r6, r0, r1, lsl #1
 800437e:	bf06      	itte	eq
 8004380:	4610      	moveq	r0, r2
 8004382:	4619      	moveq	r1, r3
 8004384:	ea52 0643 	orrsne.w	r6, r2, r3, lsl #1
 8004388:	d019      	beq.n	80043be <__aeabi_dmul+0x24a>
 800438a:	ea94 0f0c 	teq	r4, ip
 800438e:	d102      	bne.n	8004396 <__aeabi_dmul+0x222>
 8004390:	ea50 3601 	orrs.w	r6, r0, r1, lsl #12
 8004394:	d113      	bne.n	80043be <__aeabi_dmul+0x24a>
 8004396:	ea95 0f0c 	teq	r5, ip
 800439a:	d105      	bne.n	80043a8 <__aeabi_dmul+0x234>
 800439c:	ea52 3603 	orrs.w	r6, r2, r3, lsl #12
 80043a0:	bf1c      	itt	ne
 80043a2:	4610      	movne	r0, r2
 80043a4:	4619      	movne	r1, r3
 80043a6:	d10a      	bne.n	80043be <__aeabi_dmul+0x24a>
 80043a8:	ea81 0103 	eor.w	r1, r1, r3
 80043ac:	f001 4100 	and.w	r1, r1, #2147483648	; 0x80000000
 80043b0:	f041 41fe 	orr.w	r1, r1, #2130706432	; 0x7f000000
 80043b4:	f441 0170 	orr.w	r1, r1, #15728640	; 0xf00000
 80043b8:	f04f 0000 	mov.w	r0, #0
 80043bc:	bd70      	pop	{r4, r5, r6, pc}
 80043be:	f041 41fe 	orr.w	r1, r1, #2130706432	; 0x7f000000
 80043c2:	f441 0178 	orr.w	r1, r1, #16252928	; 0xf80000
 80043c6:	bd70      	pop	{r4, r5, r6, pc}

080043c8 <__aeabi_ddiv>:
 80043c8:	b570      	push	{r4, r5, r6, lr}
 80043ca:	f04f 0cff 	mov.w	ip, #255	; 0xff
 80043ce:	f44c 6ce0 	orr.w	ip, ip, #1792	; 0x700
 80043d2:	ea1c 5411 	ands.w	r4, ip, r1, lsr #20
 80043d6:	bf1d      	ittte	ne
 80043d8:	ea1c 5513 	andsne.w	r5, ip, r3, lsr #20
 80043dc:	ea94 0f0c 	teqne	r4, ip
 80043e0:	ea95 0f0c 	teqne	r5, ip
 80043e4:	f000 f8a7 	bleq	8004536 <__aeabi_ddiv+0x16e>
 80043e8:	eba4 0405 	sub.w	r4, r4, r5
 80043ec:	ea81 0e03 	eor.w	lr, r1, r3
 80043f0:	ea52 3503 	orrs.w	r5, r2, r3, lsl #12
 80043f4:	ea4f 3101 	mov.w	r1, r1, lsl #12
 80043f8:	f000 8088 	beq.w	800450c <__aeabi_ddiv+0x144>
 80043fc:	ea4f 3303 	mov.w	r3, r3, lsl #12
 8004400:	f04f 5580 	mov.w	r5, #268435456	; 0x10000000
 8004404:	ea45 1313 	orr.w	r3, r5, r3, lsr #4
 8004408:	ea43 6312 	orr.w	r3, r3, r2, lsr #24
 800440c:	ea4f 2202 	mov.w	r2, r2, lsl #8
 8004410:	ea45 1511 	orr.w	r5, r5, r1, lsr #4
 8004414:	ea45 6510 	orr.w	r5, r5, r0, lsr #24
 8004418:	ea4f 2600 	mov.w	r6, r0, lsl #8
 800441c:	f00e 4100 	and.w	r1, lr, #2147483648	; 0x80000000
 8004420:	429d      	cmp	r5, r3
 8004422:	bf08      	it	eq
 8004424:	4296      	cmpeq	r6, r2
 8004426:	f144 04fd 	adc.w	r4, r4, #253	; 0xfd
 800442a:	f504 7440 	add.w	r4, r4, #768	; 0x300
 800442e:	d202      	bcs.n	8004436 <__aeabi_ddiv+0x6e>
 8004430:	085b      	lsrs	r3, r3, #1
 8004432:	ea4f 0232 	mov.w	r2, r2, rrx
 8004436:	1ab6      	subs	r6, r6, r2
 8004438:	eb65 0503 	sbc.w	r5, r5, r3
 800443c:	085b      	lsrs	r3, r3, #1
 800443e:	ea4f 0232 	mov.w	r2, r2, rrx
 8004442:	f44f 1080 	mov.w	r0, #1048576	; 0x100000
 8004446:	f44f 2c00 	mov.w	ip, #524288	; 0x80000
 800444a:	ebb6 0e02 	subs.w	lr, r6, r2
 800444e:	eb75 0e03 	sbcs.w	lr, r5, r3
 8004452:	bf22      	ittt	cs
 8004454:	1ab6      	subcs	r6, r6, r2
 8004456:	4675      	movcs	r5, lr
 8004458:	ea40 000c 	orrcs.w	r0, r0, ip
 800445c:	085b      	lsrs	r3, r3, #1
 800445e:	ea4f 0232 	mov.w	r2, r2, rrx
 8004462:	ebb6 0e02 	subs.w	lr, r6, r2
 8004466:	eb75 0e03 	sbcs.w	lr, r5, r3
 800446a:	bf22      	ittt	cs
 800446c:	1ab6      	subcs	r6, r6, r2
 800446e:	4675      	movcs	r5, lr
 8004470:	ea40 005c 	orrcs.w	r0, r0, ip, lsr #1
 8004474:	085b      	lsrs	r3, r3, #1
 8004476:	ea4f 0232 	mov.w	r2, r2, rrx
 800447a:	ebb6 0e02 	subs.w	lr, r6, r2
 800447e:	eb75 0e03 	sbcs.w	lr, r5, r3
 8004482:	bf22      	ittt	cs
 8004484:	1ab6      	subcs	r6, r6, r2
 8004486:	4675      	movcs	r5, lr
 8004488:	ea40 009c 	orrcs.w	r0, r0, ip, lsr #2
 800448c:	085b      	lsrs	r3, r3, #1
 800448e:	ea4f 0232 	mov.w	r2, r2, rrx
 8004492:	ebb6 0e02 	subs.w	lr, r6, r2
 8004496:	eb75 0e03 	sbcs.w	lr, r5, r3
 800449a:	bf22      	ittt	cs
 800449c:	1ab6      	subcs	r6, r6, r2
 800449e:	4675      	movcs	r5, lr
 80044a0:	ea40 00dc 	orrcs.w	r0, r0, ip, lsr #3
 80044a4:	ea55 0e06 	orrs.w	lr, r5, r6
 80044a8:	d018      	beq.n	80044dc <__aeabi_ddiv+0x114>
 80044aa:	ea4f 1505 	mov.w	r5, r5, lsl #4
 80044ae:	ea45 7516 	orr.w	r5, r5, r6, lsr #28
 80044b2:	ea4f 1606 	mov.w	r6, r6, lsl #4
 80044b6:	ea4f 03c3 	mov.w	r3, r3, lsl #3
 80044ba:	ea43 7352 	orr.w	r3, r3, r2, lsr #29
 80044be:	ea4f 02c2 	mov.w	r2, r2, lsl #3
 80044c2:	ea5f 1c1c 	movs.w	ip, ip, lsr #4
 80044c6:	d1c0      	bne.n	800444a <__aeabi_ddiv+0x82>
 80044c8:	f411 1f80 	tst.w	r1, #1048576	; 0x100000
 80044cc:	d10b      	bne.n	80044e6 <__aeabi_ddiv+0x11e>
 80044ce:	ea41 0100 	orr.w	r1, r1, r0
 80044d2:	f04f 0000 	mov.w	r0, #0
 80044d6:	f04f 4c00 	mov.w	ip, #2147483648	; 0x80000000
 80044da:	e7b6      	b.n	800444a <__aeabi_ddiv+0x82>
 80044dc:	f411 1f80 	tst.w	r1, #1048576	; 0x100000
 80044e0:	bf04      	itt	eq
 80044e2:	4301      	orreq	r1, r0
 80044e4:	2000      	moveq	r0, #0
 80044e6:	f1b4 0cfd 	subs.w	ip, r4, #253	; 0xfd
 80044ea:	bf88      	it	hi
 80044ec:	f5bc 6fe0 	cmphi.w	ip, #1792	; 0x700
 80044f0:	f63f aeaf 	bhi.w	8004252 <__aeabi_dmul+0xde>
 80044f4:	ebb5 0c03 	subs.w	ip, r5, r3
 80044f8:	bf04      	itt	eq
 80044fa:	ebb6 0c02 	subseq.w	ip, r6, r2
 80044fe:	ea5f 0c50 	movseq.w	ip, r0, lsr #1
 8004502:	f150 0000 	adcs.w	r0, r0, #0
 8004506:	eb41 5104 	adc.w	r1, r1, r4, lsl #20
 800450a:	bd70      	pop	{r4, r5, r6, pc}
 800450c:	f00e 4e00 	and.w	lr, lr, #2147483648	; 0x80000000
 8004510:	ea4e 3111 	orr.w	r1, lr, r1, lsr #12
 8004514:	eb14 045c 	adds.w	r4, r4, ip, lsr #1
 8004518:	bfc2      	ittt	gt
 800451a:	ebd4 050c 	rsbsgt	r5, r4, ip
 800451e:	ea41 5104 	orrgt.w	r1, r1, r4, lsl #20
 8004522:	bd70      	popgt	{r4, r5, r6, pc}
 8004524:	f441 1180 	orr.w	r1, r1, #1048576	; 0x100000
 8004528:	f04f 0e00 	mov.w	lr, #0
 800452c:	3c01      	subs	r4, #1
 800452e:	e690      	b.n	8004252 <__aeabi_dmul+0xde>
 8004530:	ea45 0e06 	orr.w	lr, r5, r6
 8004534:	e68d      	b.n	8004252 <__aeabi_dmul+0xde>
 8004536:	ea0c 5513 	and.w	r5, ip, r3, lsr #20
 800453a:	ea94 0f0c 	teq	r4, ip
 800453e:	bf08      	it	eq
 8004540:	ea95 0f0c 	teqeq	r5, ip
 8004544:	f43f af3b 	beq.w	80043be <__aeabi_dmul+0x24a>
 8004548:	ea94 0f0c 	teq	r4, ip
 800454c:	d10a      	bne.n	8004564 <__aeabi_ddiv+0x19c>
 800454e:	ea50 3401 	orrs.w	r4, r0, r1, lsl #12
 8004552:	f47f af34 	bne.w	80043be <__aeabi_dmul+0x24a>
 8004556:	ea95 0f0c 	teq	r5, ip
 800455a:	f47f af25 	bne.w	80043a8 <__aeabi_dmul+0x234>
 800455e:	4610      	mov	r0, r2
 8004560:	4619      	mov	r1, r3
 8004562:	e72c      	b.n	80043be <__aeabi_dmul+0x24a>
 8004564:	ea95 0f0c 	teq	r5, ip
 8004568:	d106      	bne.n	8004578 <__aeabi_ddiv+0x1b0>
 800456a:	ea52 3503 	orrs.w	r5, r2, r3, lsl #12
 800456e:	f43f aefd 	beq.w	800436c <__aeabi_dmul+0x1f8>
 8004572:	4610      	mov	r0, r2
 8004574:	4619      	mov	r1, r3
 8004576:	e722      	b.n	80043be <__aeabi_dmul+0x24a>
 8004578:	ea50 0641 	orrs.w	r6, r0, r1, lsl #1
 800457c:	bf18      	it	ne
 800457e:	ea52 0643 	orrsne.w	r6, r2, r3, lsl #1
 8004582:	f47f aec5 	bne.w	8004310 <__aeabi_dmul+0x19c>
 8004586:	ea50 0441 	orrs.w	r4, r0, r1, lsl #1
 800458a:	f47f af0d 	bne.w	80043a8 <__aeabi_dmul+0x234>
 800458e:	ea52 0543 	orrs.w	r5, r2, r3, lsl #1
 8004592:	f47f aeeb 	bne.w	800436c <__aeabi_dmul+0x1f8>
 8004596:	e712      	b.n	80043be <__aeabi_dmul+0x24a>

08004598 <__gedf2>:
 8004598:	f04f 3cff 	mov.w	ip, #4294967295
 800459c:	e006      	b.n	80045ac <__cmpdf2+0x4>
 800459e:	bf00      	nop

080045a0 <__ledf2>:
 80045a0:	f04f 0c01 	mov.w	ip, #1
 80045a4:	e002      	b.n	80045ac <__cmpdf2+0x4>
 80045a6:	bf00      	nop

080045a8 <__cmpdf2>:
 80045a8:	f04f 0c01 	mov.w	ip, #1
 80045ac:	f84d cd04 	str.w	ip, [sp, #-4]!
 80045b0:	ea4f 0c41 	mov.w	ip, r1, lsl #1
 80045b4:	ea7f 5c6c 	mvns.w	ip, ip, asr #21
 80045b8:	ea4f 0c43 	mov.w	ip, r3, lsl #1
 80045bc:	bf18      	it	ne
 80045be:	ea7f 5c6c 	mvnsne.w	ip, ip, asr #21
 80045c2:	d01b      	beq.n	80045fc <__cmpdf2+0x54>
 80045c4:	b001      	add	sp, #4
 80045c6:	ea50 0c41 	orrs.w	ip, r0, r1, lsl #1
 80045ca:	bf0c      	ite	eq
 80045cc:	ea52 0c43 	orrseq.w	ip, r2, r3, lsl #1
 80045d0:	ea91 0f03 	teqne	r1, r3
 80045d4:	bf02      	ittt	eq
 80045d6:	ea90 0f02 	teqeq	r0, r2
 80045da:	2000      	moveq	r0, #0
 80045dc:	4770      	bxeq	lr
 80045de:	f110 0f00 	cmn.w	r0, #0
 80045e2:	ea91 0f03 	teq	r1, r3
 80045e6:	bf58      	it	pl
 80045e8:	4299      	cmppl	r1, r3
 80045ea:	bf08      	it	eq
 80045ec:	4290      	cmpeq	r0, r2
 80045ee:	bf2c      	ite	cs
 80045f0:	17d8      	asrcs	r0, r3, #31
 80045f2:	ea6f 70e3 	mvncc.w	r0, r3, asr #31
 80045f6:	f040 0001 	orr.w	r0, r0, #1
 80045fa:	4770      	bx	lr
 80045fc:	ea4f 0c41 	mov.w	ip, r1, lsl #1
 8004600:	ea7f 5c6c 	mvns.w	ip, ip, asr #21
 8004604:	d102      	bne.n	800460c <__cmpdf2+0x64>
 8004606:	ea50 3c01 	orrs.w	ip, r0, r1, lsl #12
 800460a:	d107      	bne.n	800461c <__cmpdf2+0x74>
 800460c:	ea4f 0c43 	mov.w	ip, r3, lsl #1
 8004610:	ea7f 5c6c 	mvns.w	ip, ip, asr #21
 8004614:	d1d6      	bne.n	80045c4 <__cmpdf2+0x1c>
 8004616:	ea52 3c03 	orrs.w	ip, r2, r3, lsl #12
 800461a:	d0d3      	beq.n	80045c4 <__cmpdf2+0x1c>
 800461c:	f85d 0b04 	ldr.w	r0, [sp], #4
 8004620:	4770      	bx	lr
 8004622:	bf00      	nop

08004624 <__aeabi_cdrcmple>:
 8004624:	4684      	mov	ip, r0
 8004626:	4610      	mov	r0, r2
 8004628:	4662      	mov	r2, ip
 800462a:	468c      	mov	ip, r1
 800462c:	4619      	mov	r1, r3
 800462e:	4663      	mov	r3, ip
 8004630:	e000      	b.n	8004634 <__aeabi_cdcmpeq>
 8004632:	bf00      	nop

08004634 <__aeabi_cdcmpeq>:
 8004634:	b501      	push	{r0, lr}
 8004636:	f7ff ffb7 	bl	80045a8 <__cmpdf2>
 800463a:	2800      	cmp	r0, #0
 800463c:	bf48      	it	mi
 800463e:	f110 0f00 	cmnmi.w	r0, #0
 8004642:	bd01      	pop	{r0, pc}

08004644 <__aeabi_dcmpeq>:
 8004644:	f84d ed08 	str.w	lr, [sp, #-8]!
 8004648:	f7ff fff4 	bl	8004634 <__aeabi_cdcmpeq>
 800464c:	bf0c      	ite	eq
 800464e:	2001      	moveq	r0, #1
 8004650:	2000      	movne	r0, #0
 8004652:	f85d fb08 	ldr.w	pc, [sp], #8
 8004656:	bf00      	nop

08004658 <__aeabi_dcmplt>:
 8004658:	f84d ed08 	str.w	lr, [sp, #-8]!
 800465c:	f7ff ffea 	bl	8004634 <__aeabi_cdcmpeq>
 8004660:	bf34      	ite	cc
 8004662:	2001      	movcc	r0, #1
 8004664:	2000      	movcs	r0, #0
 8004666:	f85d fb08 	ldr.w	pc, [sp], #8
 800466a:	bf00      	nop

0800466c <__aeabi_dcmple>:
 800466c:	f84d ed08 	str.w	lr, [sp, #-8]!
 8004670:	f7ff ffe0 	bl	8004634 <__aeabi_cdcmpeq>
 8004674:	bf94      	ite	ls
 8004676:	2001      	movls	r0, #1
 8004678:	2000      	movhi	r0, #0
 800467a:	f85d fb08 	ldr.w	pc, [sp], #8
 800467e:	bf00      	nop

08004680 <__aeabi_dcmpge>:
 8004680:	f84d ed08 	str.w	lr, [sp, #-8]!
 8004684:	f7ff ffce 	bl	8004624 <__aeabi_cdrcmple>
 8004688:	bf94      	ite	ls
 800468a:	2001      	movls	r0, #1
 800468c:	2000      	movhi	r0, #0
 800468e:	f85d fb08 	ldr.w	pc, [sp], #8
 8004692:	bf00      	nop

08004694 <__aeabi_dcmpgt>:
 8004694:	f84d ed08 	str.w	lr, [sp, #-8]!
 8004698:	f7ff ffc4 	bl	8004624 <__aeabi_cdrcmple>
 800469c:	bf34      	ite	cc
 800469e:	2001      	movcc	r0, #1
 80046a0:	2000      	movcs	r0, #0
 80046a2:	f85d fb08 	ldr.w	pc, [sp], #8
 80046a6:	bf00      	nop

080046a8 <__aeabi_d2iz>:
 80046a8:	ea4f 0241 	mov.w	r2, r1, lsl #1
 80046ac:	f512 1200 	adds.w	r2, r2, #2097152	; 0x200000
 80046b0:	d215      	bcs.n	80046de <__aeabi_d2iz+0x36>
 80046b2:	d511      	bpl.n	80046d8 <__aeabi_d2iz+0x30>
 80046b4:	f46f 7378 	mvn.w	r3, #992	; 0x3e0
 80046b8:	ebb3 5262 	subs.w	r2, r3, r2, asr #21
 80046bc:	d912      	bls.n	80046e4 <__aeabi_d2iz+0x3c>
 80046be:	ea4f 23c1 	mov.w	r3, r1, lsl #11
 80046c2:	f043 4300 	orr.w	r3, r3, #2147483648	; 0x80000000
 80046c6:	ea43 5350 	orr.w	r3, r3, r0, lsr #21
 80046ca:	f011 4f00 	tst.w	r1, #2147483648	; 0x80000000
 80046ce:	fa23 f002 	lsr.w	r0, r3, r2
 80046d2:	bf18      	it	ne
 80046d4:	4240      	negne	r0, r0
 80046d6:	4770      	bx	lr
 80046d8:	f04f 0000 	mov.w	r0, #0
 80046dc:	4770      	bx	lr
 80046de:	ea50 3001 	orrs.w	r0, r0, r1, lsl #12
 80046e2:	d105      	bne.n	80046f0 <__aeabi_d2iz+0x48>
 80046e4:	f011 4000 	ands.w	r0, r1, #2147483648	; 0x80000000
 80046e8:	bf08      	it	eq
 80046ea:	f06f 4000 	mvneq.w	r0, #2147483648	; 0x80000000
 80046ee:	4770      	bx	lr
 80046f0:	f04f 0000 	mov.w	r0, #0
 80046f4:	4770      	bx	lr
 80046f6:	bf00      	nop

080046f8 <Reset_Handler>:
 80046f8:	2100      	movs	r1, #0
 80046fa:	e003      	b.n	8004704 <LoopCopyDataInit>

080046fc <CopyDataInit>:
 80046fc:	4b0a      	ldr	r3, [pc, #40]	; (8004728 <LoopFillZerobss+0x10>)
 80046fe:	585b      	ldr	r3, [r3, r1]
 8004700:	5043      	str	r3, [r0, r1]
 8004702:	3104      	adds	r1, #4

08004704 <LoopCopyDataInit>:
 8004704:	4809      	ldr	r0, [pc, #36]	; (800472c <LoopFillZerobss+0x14>)
 8004706:	4b0a      	ldr	r3, [pc, #40]	; (8004730 <LoopFillZerobss+0x18>)
 8004708:	1842      	adds	r2, r0, r1
 800470a:	429a      	cmp	r2, r3
 800470c:	d3f6      	bcc.n	80046fc <CopyDataInit>
 800470e:	4a09      	ldr	r2, [pc, #36]	; (8004734 <LoopFillZerobss+0x1c>)
 8004710:	e002      	b.n	8004718 <LoopFillZerobss>

08004712 <FillZerobss>:
 8004712:	2300      	movs	r3, #0
 8004714:	f842 3b04 	str.w	r3, [r2], #4

08004718 <LoopFillZerobss>:
 8004718:	4b07      	ldr	r3, [pc, #28]	; (8004738 <LoopFillZerobss+0x20>)
 800471a:	429a      	cmp	r2, r3
 800471c:	d3f9      	bcc.n	8004712 <FillZerobss>
 800471e:	f7fe fffd 	bl	800371c <SystemInit>
 8004722:	f7fe fe2d 	bl	8003380 <main>
 8004726:	4770      	bx	lr
 8004728:	08007b90 	.word	0x08007b90
 800472c:	20000000 	.word	0x20000000
 8004730:	200005c8 	.word	0x200005c8
 8004734:	200005c8 	.word	0x200005c8
 8004738:	20000c40 	.word	0x20000c40

0800473c <ADC_IRQHandler>:
 800473c:	e7fe      	b.n	800473c <ADC_IRQHandler>
	...

08004740 <_wrapup_reent>:
 8004740:	b570      	push	{r4, r5, r6, lr}
 8004742:	4604      	mov	r4, r0
 8004744:	b908      	cbnz	r0, 800474a <_wrapup_reent+0xa>
 8004746:	4b09      	ldr	r3, [pc, #36]	; (800476c <_wrapup_reent+0x2c>)
 8004748:	681c      	ldr	r4, [r3, #0]
 800474a:	f104 0348 	add.w	r3, r4, #72	; 0x48
 800474e:	685d      	ldr	r5, [r3, #4]
 8004750:	1c6e      	adds	r6, r5, #1
 8004752:	eb03 0686 	add.w	r6, r3, r6, lsl #2
 8004756:	e001      	b.n	800475c <_wrapup_reent+0x1c>
 8004758:	6873      	ldr	r3, [r6, #4]
 800475a:	4798      	blx	r3
 800475c:	3e04      	subs	r6, #4
 800475e:	3d01      	subs	r5, #1
 8004760:	d5fa      	bpl.n	8004758 <_wrapup_reent+0x18>
 8004762:	6aa3      	ldr	r3, [r4, #40]	; 0x28
 8004764:	b10b      	cbz	r3, 800476a <_wrapup_reent+0x2a>
 8004766:	4620      	mov	r0, r4
 8004768:	4798      	blx	r3
 800476a:	bd70      	pop	{r4, r5, r6, pc}
 800476c:	200001a4 	.word	0x200001a4

08004770 <cleanup_glue>:
 8004770:	b570      	push	{r4, r5, r6, lr}
 8004772:	460c      	mov	r4, r1
 8004774:	6809      	ldr	r1, [r1, #0]
 8004776:	4605      	mov	r5, r0
 8004778:	b109      	cbz	r1, 800477e <cleanup_glue+0xe>
 800477a:	f7ff fff9 	bl	8004770 <cleanup_glue>
 800477e:	4628      	mov	r0, r5
 8004780:	4621      	mov	r1, r4
 8004782:	e8bd 4070 	ldmia.w	sp!, {r4, r5, r6, lr}
 8004786:	f001 bf37 	b.w	80065f8 <_free_r>
	...

0800478c <_reclaim_reent>:
 800478c:	4b2b      	ldr	r3, [pc, #172]	; (800483c <_reclaim_reent+0xb0>)
 800478e:	b570      	push	{r4, r5, r6, lr}
 8004790:	4604      	mov	r4, r0
 8004792:	681b      	ldr	r3, [r3, #0]
 8004794:	4298      	cmp	r0, r3
 8004796:	d04f      	beq.n	8004838 <_reclaim_reent+0xac>
 8004798:	6a43      	ldr	r3, [r0, #36]	; 0x24
 800479a:	b1ab      	cbz	r3, 80047c8 <_reclaim_reent+0x3c>
 800479c:	68db      	ldr	r3, [r3, #12]
 800479e:	b19b      	cbz	r3, 80047c8 <_reclaim_reent+0x3c>
 80047a0:	2500      	movs	r5, #0
 80047a2:	6a63      	ldr	r3, [r4, #36]	; 0x24
 80047a4:	68db      	ldr	r3, [r3, #12]
 80047a6:	5959      	ldr	r1, [r3, r5]
 80047a8:	e004      	b.n	80047b4 <_reclaim_reent+0x28>
 80047aa:	680e      	ldr	r6, [r1, #0]
 80047ac:	4620      	mov	r0, r4
 80047ae:	f001 ff23 	bl	80065f8 <_free_r>
 80047b2:	4631      	mov	r1, r6
 80047b4:	2900      	cmp	r1, #0
 80047b6:	d1f8      	bne.n	80047aa <_reclaim_reent+0x1e>
 80047b8:	3504      	adds	r5, #4
 80047ba:	2d3c      	cmp	r5, #60	; 0x3c
 80047bc:	d1f1      	bne.n	80047a2 <_reclaim_reent+0x16>
 80047be:	6a63      	ldr	r3, [r4, #36]	; 0x24
 80047c0:	4620      	mov	r0, r4
 80047c2:	68d9      	ldr	r1, [r3, #12]
 80047c4:	f001 ff18 	bl	80065f8 <_free_r>
 80047c8:	6a63      	ldr	r3, [r4, #36]	; 0x24
 80047ca:	6819      	ldr	r1, [r3, #0]
 80047cc:	b111      	cbz	r1, 80047d4 <_reclaim_reent+0x48>
 80047ce:	4620      	mov	r0, r4
 80047d0:	f001 ff12 	bl	80065f8 <_free_r>
 80047d4:	6961      	ldr	r1, [r4, #20]
 80047d6:	b111      	cbz	r1, 80047de <_reclaim_reent+0x52>
 80047d8:	4620      	mov	r0, r4
 80047da:	f001 ff0d 	bl	80065f8 <_free_r>
 80047de:	6a61      	ldr	r1, [r4, #36]	; 0x24
 80047e0:	b111      	cbz	r1, 80047e8 <_reclaim_reent+0x5c>
 80047e2:	4620      	mov	r0, r4
 80047e4:	f001 ff08 	bl	80065f8 <_free_r>
 80047e8:	6ba1      	ldr	r1, [r4, #56]	; 0x38
 80047ea:	b111      	cbz	r1, 80047f2 <_reclaim_reent+0x66>
 80047ec:	4620      	mov	r0, r4
 80047ee:	f001 ff03 	bl	80065f8 <_free_r>
 80047f2:	6be1      	ldr	r1, [r4, #60]	; 0x3c
 80047f4:	b111      	cbz	r1, 80047fc <_reclaim_reent+0x70>
 80047f6:	4620      	mov	r0, r4
 80047f8:	f001 fefe 	bl	80065f8 <_free_r>
 80047fc:	6c21      	ldr	r1, [r4, #64]	; 0x40
 80047fe:	b111      	cbz	r1, 8004806 <_reclaim_reent+0x7a>
 8004800:	4620      	mov	r0, r4
 8004802:	f001 fef9 	bl	80065f8 <_free_r>
 8004806:	6ca3      	ldr	r3, [r4, #72]	; 0x48
 8004808:	f8d3 1088 	ldr.w	r1, [r3, #136]	; 0x88
 800480c:	b111      	cbz	r1, 8004814 <_reclaim_reent+0x88>
 800480e:	4620      	mov	r0, r4
 8004810:	f001 fef2 	bl	80065f8 <_free_r>
 8004814:	6b61      	ldr	r1, [r4, #52]	; 0x34
 8004816:	b111      	cbz	r1, 800481e <_reclaim_reent+0x92>
 8004818:	4620      	mov	r0, r4
 800481a:	f001 feed 	bl	80065f8 <_free_r>
 800481e:	69a3      	ldr	r3, [r4, #24]
 8004820:	b153      	cbz	r3, 8004838 <_reclaim_reent+0xac>
 8004822:	6aa3      	ldr	r3, [r4, #40]	; 0x28
 8004824:	4620      	mov	r0, r4
 8004826:	4798      	blx	r3
 8004828:	f8d4 10d8 	ldr.w	r1, [r4, #216]	; 0xd8
 800482c:	b121      	cbz	r1, 8004838 <_reclaim_reent+0xac>
 800482e:	4620      	mov	r0, r4
 8004830:	e8bd 4070 	ldmia.w	sp!, {r4, r5, r6, lr}
 8004834:	f7ff bf9c 	b.w	8004770 <cleanup_glue>
 8004838:	bd70      	pop	{r4, r5, r6, pc}
 800483a:	bf00      	nop
 800483c:	200001a4 	.word	0x200001a4

08004840 <sprintf>:
 8004840:	b40e      	push	{r1, r2, r3}
 8004842:	f44f 7102 	mov.w	r1, #520	; 0x208
 8004846:	b500      	push	{lr}
 8004848:	b09c      	sub	sp, #112	; 0x70
 800484a:	ab1d      	add	r3, sp, #116	; 0x74
 800484c:	f8ad 1010 	strh.w	r1, [sp, #16]
 8004850:	f06f 4100 	mvn.w	r1, #2147483648	; 0x80000000
 8004854:	9103      	str	r1, [sp, #12]
 8004856:	9106      	str	r1, [sp, #24]
 8004858:	f04f 31ff 	mov.w	r1, #4294967295
 800485c:	f8ad 1012 	strh.w	r1, [sp, #18]
 8004860:	4908      	ldr	r1, [pc, #32]	; (8004884 <sprintf+0x44>)
 8004862:	f853 2b04 	ldr.w	r2, [r3], #4
 8004866:	9001      	str	r0, [sp, #4]
 8004868:	9005      	str	r0, [sp, #20]
 800486a:	6808      	ldr	r0, [r1, #0]
 800486c:	a901      	add	r1, sp, #4
 800486e:	931b      	str	r3, [sp, #108]	; 0x6c
 8004870:	f000 f8a4 	bl	80049bc <_svfprintf_r>
 8004874:	9b01      	ldr	r3, [sp, #4]
 8004876:	2200      	movs	r2, #0
 8004878:	701a      	strb	r2, [r3, #0]
 800487a:	b01c      	add	sp, #112	; 0x70
 800487c:	f85d eb04 	ldr.w	lr, [sp], #4
 8004880:	b003      	add	sp, #12
 8004882:	4770      	bx	lr
 8004884:	200001a4 	.word	0x200001a4

08004888 <_sprintf_r>:
 8004888:	b40c      	push	{r2, r3}
 800488a:	f44f 7c02 	mov.w	ip, #520	; 0x208
 800488e:	b500      	push	{lr}
 8004890:	b09d      	sub	sp, #116	; 0x74
 8004892:	ab1e      	add	r3, sp, #120	; 0x78
 8004894:	9101      	str	r1, [sp, #4]
 8004896:	f853 2b04 	ldr.w	r2, [r3], #4
 800489a:	9105      	str	r1, [sp, #20]
 800489c:	f06f 4100 	mvn.w	r1, #2147483648	; 0x80000000
 80048a0:	9103      	str	r1, [sp, #12]
 80048a2:	9106      	str	r1, [sp, #24]
 80048a4:	f04f 31ff 	mov.w	r1, #4294967295
 80048a8:	f8ad 1012 	strh.w	r1, [sp, #18]
 80048ac:	a901      	add	r1, sp, #4
 80048ae:	931b      	str	r3, [sp, #108]	; 0x6c
 80048b0:	f8ad c010 	strh.w	ip, [sp, #16]
 80048b4:	f000 f882 	bl	80049bc <_svfprintf_r>
 80048b8:	9b01      	ldr	r3, [sp, #4]
 80048ba:	2200      	movs	r2, #0
 80048bc:	701a      	strb	r2, [r3, #0]
 80048be:	b01d      	add	sp, #116	; 0x74
 80048c0:	f85d eb04 	ldr.w	lr, [sp], #4
 80048c4:	b002      	add	sp, #8
 80048c6:	4770      	bx	lr

080048c8 <__sprint_r>:
 80048c8:	e92d 4ff7 	stmdb	sp!, {r0, r1, r2, r4, r5, r6, r7, r8, r9, sl, fp, lr}
 80048cc:	4682      	mov	sl, r0
 80048ce:	6890      	ldr	r0, [r2, #8]
 80048d0:	460c      	mov	r4, r1
 80048d2:	4615      	mov	r5, r2
 80048d4:	f8d2 b000 	ldr.w	fp, [r2]
 80048d8:	b118      	cbz	r0, 80048e2 <__sprint_r+0x1a>
 80048da:	2300      	movs	r3, #0
 80048dc:	9301      	str	r3, [sp, #4]
 80048de:	461e      	mov	r6, r3
 80048e0:	e008      	b.n	80048f4 <__sprint_r+0x2c>
 80048e2:	6050      	str	r0, [r2, #4]
 80048e4:	e068      	b.n	80049b8 <__sprint_r+0xf0>
 80048e6:	f8db 3000 	ldr.w	r3, [fp]
 80048ea:	f8db 6004 	ldr.w	r6, [fp, #4]
 80048ee:	f10b 0b08 	add.w	fp, fp, #8
 80048f2:	9301      	str	r3, [sp, #4]
 80048f4:	2e00      	cmp	r6, #0
 80048f6:	d0f6      	beq.n	80048e6 <__sprint_r+0x1e>
 80048f8:	68a7      	ldr	r7, [r4, #8]
 80048fa:	42be      	cmp	r6, r7
 80048fc:	d349      	bcc.n	8004992 <__sprint_r+0xca>
 80048fe:	89a3      	ldrh	r3, [r4, #12]
 8004900:	f413 6f90 	tst.w	r3, #1152	; 0x480
 8004904:	d043      	beq.n	800498e <__sprint_r+0xc6>
 8004906:	6822      	ldr	r2, [r4, #0]
 8004908:	4650      	mov	r0, sl
 800490a:	6921      	ldr	r1, [r4, #16]
 800490c:	ebc1 0902 	rsb	r9, r1, r2
 8004910:	6962      	ldr	r2, [r4, #20]
 8004912:	eb02 0842 	add.w	r8, r2, r2, lsl #1
 8004916:	f109 0201 	add.w	r2, r9, #1
 800491a:	1992      	adds	r2, r2, r6
 800491c:	eb08 78d8 	add.w	r8, r8, r8, lsr #31
 8004920:	ea4f 0868 	mov.w	r8, r8, asr #1
 8004924:	4590      	cmp	r8, r2
 8004926:	bf38      	it	cc
 8004928:	4690      	movcc	r8, r2
 800492a:	f413 6f80 	tst.w	r3, #1024	; 0x400
 800492e:	d00f      	beq.n	8004950 <__sprint_r+0x88>
 8004930:	4641      	mov	r1, r8
 8004932:	f001 ff73 	bl	800681c <_malloc_r>
 8004936:	4607      	mov	r7, r0
 8004938:	b198      	cbz	r0, 8004962 <__sprint_r+0x9a>
 800493a:	6921      	ldr	r1, [r4, #16]
 800493c:	464a      	mov	r2, r9
 800493e:	f002 f98a 	bl	8006c56 <memcpy>
 8004942:	89a3      	ldrh	r3, [r4, #12]
 8004944:	f423 6390 	bic.w	r3, r3, #1152	; 0x480
 8004948:	f043 0380 	orr.w	r3, r3, #128	; 0x80
 800494c:	81a3      	strh	r3, [r4, #12]
 800494e:	e015      	b.n	800497c <__sprint_r+0xb4>
 8004950:	4642      	mov	r2, r8
 8004952:	f002 fde7 	bl	8007524 <_realloc_r>
 8004956:	4607      	mov	r7, r0
 8004958:	b980      	cbnz	r0, 800497c <__sprint_r+0xb4>
 800495a:	4650      	mov	r0, sl
 800495c:	6921      	ldr	r1, [r4, #16]
 800495e:	f001 fe4b 	bl	80065f8 <_free_r>
 8004962:	230c      	movs	r3, #12
 8004964:	f8ca 3000 	str.w	r3, [sl]
 8004968:	89a3      	ldrh	r3, [r4, #12]
 800496a:	f04f 30ff 	mov.w	r0, #4294967295
 800496e:	f043 0340 	orr.w	r3, r3, #64	; 0x40
 8004972:	81a3      	strh	r3, [r4, #12]
 8004974:	2300      	movs	r3, #0
 8004976:	60ab      	str	r3, [r5, #8]
 8004978:	606b      	str	r3, [r5, #4]
 800497a:	e01d      	b.n	80049b8 <__sprint_r+0xf0>
 800497c:	6127      	str	r7, [r4, #16]
 800497e:	444f      	add	r7, r9
 8004980:	6027      	str	r7, [r4, #0]
 8004982:	4637      	mov	r7, r6
 8004984:	ebc9 0308 	rsb	r3, r9, r8
 8004988:	f8c4 8014 	str.w	r8, [r4, #20]
 800498c:	60a3      	str	r3, [r4, #8]
 800498e:	42be      	cmp	r6, r7
 8004990:	d200      	bcs.n	8004994 <__sprint_r+0xcc>
 8004992:	4637      	mov	r7, r6
 8004994:	463a      	mov	r2, r7
 8004996:	6820      	ldr	r0, [r4, #0]
 8004998:	9901      	ldr	r1, [sp, #4]
 800499a:	f002 f969 	bl	8006c70 <memmove>
 800499e:	68a3      	ldr	r3, [r4, #8]
 80049a0:	1bdb      	subs	r3, r3, r7
 80049a2:	60a3      	str	r3, [r4, #8]
 80049a4:	6823      	ldr	r3, [r4, #0]
 80049a6:	19df      	adds	r7, r3, r7
 80049a8:	68ab      	ldr	r3, [r5, #8]
 80049aa:	6027      	str	r7, [r4, #0]
 80049ac:	1b9e      	subs	r6, r3, r6
 80049ae:	60ae      	str	r6, [r5, #8]
 80049b0:	2e00      	cmp	r6, #0
 80049b2:	d198      	bne.n	80048e6 <__sprint_r+0x1e>
 80049b4:	4630      	mov	r0, r6
 80049b6:	606e      	str	r6, [r5, #4]
 80049b8:	e8bd 8ffe 	ldmia.w	sp!, {r1, r2, r3, r4, r5, r6, r7, r8, r9, sl, fp, pc}

080049bc <_svfprintf_r>:
 80049bc:	e92d 4ff0 	stmdb	sp!, {r4, r5, r6, r7, r8, r9, sl, fp, lr}
 80049c0:	b0bd      	sub	sp, #244	; 0xf4
 80049c2:	460f      	mov	r7, r1
 80049c4:	461d      	mov	r5, r3
 80049c6:	4680      	mov	r8, r0
 80049c8:	4616      	mov	r6, r2
 80049ca:	f001 fee9 	bl	80067a0 <_localeconv_r>
 80049ce:	89bb      	ldrh	r3, [r7, #12]
 80049d0:	f013 0f80 	tst.w	r3, #128	; 0x80
 80049d4:	6800      	ldr	r0, [r0, #0]
 80049d6:	9010      	str	r0, [sp, #64]	; 0x40
 80049d8:	d010      	beq.n	80049fc <_svfprintf_r+0x40>
 80049da:	693b      	ldr	r3, [r7, #16]
 80049dc:	b973      	cbnz	r3, 80049fc <_svfprintf_r+0x40>
 80049de:	4640      	mov	r0, r8
 80049e0:	2140      	movs	r1, #64	; 0x40
 80049e2:	f001 ff1b 	bl	800681c <_malloc_r>
 80049e6:	6038      	str	r0, [r7, #0]
 80049e8:	6138      	str	r0, [r7, #16]
 80049ea:	b928      	cbnz	r0, 80049f8 <_svfprintf_r+0x3c>
 80049ec:	230c      	movs	r3, #12
 80049ee:	3801      	subs	r0, #1
 80049f0:	f8c8 3000 	str.w	r3, [r8]
 80049f4:	f000 bf5b 	b.w	80058ae <_svfprintf_r+0xef2>
 80049f8:	2340      	movs	r3, #64	; 0x40
 80049fa:	617b      	str	r3, [r7, #20]
 80049fc:	2200      	movs	r2, #0
 80049fe:	2100      	movs	r1, #0
 8004a00:	2300      	movs	r3, #0
 8004a02:	ac15      	add	r4, sp, #84	; 0x54
 8004a04:	9131      	str	r1, [sp, #196]	; 0xc4
 8004a06:	942f      	str	r4, [sp, #188]	; 0xbc
 8004a08:	9130      	str	r1, [sp, #192]	; 0xc0
 8004a0a:	920c      	str	r2, [sp, #48]	; 0x30
 8004a0c:	930f      	str	r3, [sp, #60]	; 0x3c
 8004a0e:	9609      	str	r6, [sp, #36]	; 0x24
 8004a10:	9208      	str	r2, [sp, #32]
 8004a12:	9211      	str	r2, [sp, #68]	; 0x44
 8004a14:	9212      	str	r2, [sp, #72]	; 0x48
 8004a16:	920e      	str	r2, [sp, #56]	; 0x38
 8004a18:	9e09      	ldr	r6, [sp, #36]	; 0x24
 8004a1a:	e000      	b.n	8004a1e <_svfprintf_r+0x62>
 8004a1c:	3601      	adds	r6, #1
 8004a1e:	7833      	ldrb	r3, [r6, #0]
 8004a20:	b10b      	cbz	r3, 8004a26 <_svfprintf_r+0x6a>
 8004a22:	2b25      	cmp	r3, #37	; 0x25
 8004a24:	d1fa      	bne.n	8004a1c <_svfprintf_r+0x60>
 8004a26:	9909      	ldr	r1, [sp, #36]	; 0x24
 8004a28:	ebb6 0a01 	subs.w	sl, r6, r1
 8004a2c:	d018      	beq.n	8004a60 <_svfprintf_r+0xa4>
 8004a2e:	f8c4 a004 	str.w	sl, [r4, #4]
 8004a32:	9b31      	ldr	r3, [sp, #196]	; 0xc4
 8004a34:	6021      	str	r1, [r4, #0]
 8004a36:	4453      	add	r3, sl
 8004a38:	9331      	str	r3, [sp, #196]	; 0xc4
 8004a3a:	9b30      	ldr	r3, [sp, #192]	; 0xc0
 8004a3c:	3301      	adds	r3, #1
 8004a3e:	9330      	str	r3, [sp, #192]	; 0xc0
 8004a40:	2b07      	cmp	r3, #7
 8004a42:	dc01      	bgt.n	8004a48 <_svfprintf_r+0x8c>
 8004a44:	3408      	adds	r4, #8
 8004a46:	e008      	b.n	8004a5a <_svfprintf_r+0x9e>
 8004a48:	4640      	mov	r0, r8
 8004a4a:	4639      	mov	r1, r7
 8004a4c:	aa2f      	add	r2, sp, #188	; 0xbc
 8004a4e:	f7ff ff3b 	bl	80048c8 <__sprint_r>
 8004a52:	2800      	cmp	r0, #0
 8004a54:	f040 8723 	bne.w	800589e <_svfprintf_r+0xee2>
 8004a58:	ac15      	add	r4, sp, #84	; 0x54
 8004a5a:	9a0e      	ldr	r2, [sp, #56]	; 0x38
 8004a5c:	4452      	add	r2, sl
 8004a5e:	920e      	str	r2, [sp, #56]	; 0x38
 8004a60:	7833      	ldrb	r3, [r6, #0]
 8004a62:	2b00      	cmp	r3, #0
 8004a64:	f000 8714 	beq.w	8005890 <_svfprintf_r+0xed4>
 8004a68:	2300      	movs	r3, #0
 8004a6a:	3601      	adds	r6, #1
 8004a6c:	9609      	str	r6, [sp, #36]	; 0x24
 8004a6e:	461e      	mov	r6, r3
 8004a70:	f88d 30ef 	strb.w	r3, [sp, #239]	; 0xef
 8004a74:	f04f 3cff 	mov.w	ip, #4294967295
 8004a78:	930a      	str	r3, [sp, #40]	; 0x28
 8004a7a:	4632      	mov	r2, r6
 8004a7c:	9b09      	ldr	r3, [sp, #36]	; 0x24
 8004a7e:	e001      	b.n	8004a84 <_svfprintf_r+0xc8>
 8004a80:	4629      	mov	r1, r5
 8004a82:	460d      	mov	r5, r1
 8004a84:	f813 ab01 	ldrb.w	sl, [r3], #1
 8004a88:	f1aa 0120 	sub.w	r1, sl, #32
 8004a8c:	2958      	cmp	r1, #88	; 0x58
 8004a8e:	f200 8367 	bhi.w	8005160 <_svfprintf_r+0x7a4>
 8004a92:	e8df f011 	tbh	[pc, r1, lsl #1]
 8004a96:	005f      	.short	0x005f
 8004a98:	03650365 	.word	0x03650365
 8004a9c:	03650065 	.word	0x03650065
 8004aa0:	03650365 	.word	0x03650365
 8004aa4:	03650365 	.word	0x03650365
 8004aa8:	00680365 	.word	0x00680365
 8004aac:	03650070 	.word	0x03650070
 8004ab0:	0074005d 	.word	0x0074005d
 8004ab4:	00910365 	.word	0x00910365
 8004ab8:	00940094 	.word	0x00940094
 8004abc:	00940094 	.word	0x00940094
 8004ac0:	00940094 	.word	0x00940094
 8004ac4:	00940094 	.word	0x00940094
 8004ac8:	03650094 	.word	0x03650094
 8004acc:	03650365 	.word	0x03650365
 8004ad0:	03650365 	.word	0x03650365
 8004ad4:	03650365 	.word	0x03650365
 8004ad8:	03650365 	.word	0x03650365
 8004adc:	00b50365 	.word	0x00b50365
 8004ae0:	036500d7 	.word	0x036500d7
 8004ae4:	036500d7 	.word	0x036500d7
 8004ae8:	03650365 	.word	0x03650365
 8004aec:	00a10365 	.word	0x00a10365
 8004af0:	03650365 	.word	0x03650365
 8004af4:	0365026f 	.word	0x0365026f
 8004af8:	03650365 	.word	0x03650365
 8004afc:	03650365 	.word	0x03650365
 8004b00:	036502c4 	.word	0x036502c4
 8004b04:	00590365 	.word	0x00590365
 8004b08:	03650365 	.word	0x03650365
 8004b0c:	03650365 	.word	0x03650365
 8004b10:	03650365 	.word	0x03650365
 8004b14:	03650365 	.word	0x03650365
 8004b18:	03650365 	.word	0x03650365
 8004b1c:	00ba00aa 	.word	0x00ba00aa
 8004b20:	00d700d7 	.word	0x00d700d7
 8004b24:	00a400d7 	.word	0x00a400d7
 8004b28:	036500ba 	.word	0x036500ba
 8004b2c:	00a70365 	.word	0x00a70365
 8004b30:	02590365 	.word	0x02590365
 8004b34:	028b0274 	.word	0x028b0274
 8004b38:	036500a7 	.word	0x036500a7
 8004b3c:	0365029c 	.word	0x0365029c
 8004b40:	036502c9 	.word	0x036502c9
 8004b44:	02de0365 	.word	0x02de0365
 8004b48:	9309      	str	r3, [sp, #36]	; 0x24
 8004b4a:	920a      	str	r2, [sp, #40]	; 0x28
 8004b4c:	49a1      	ldr	r1, [pc, #644]	; (8004dd4 <_svfprintf_r+0x418>)
 8004b4e:	e283      	b.n	8005058 <_svfprintf_r+0x69c>
 8004b50:	4629      	mov	r1, r5
 8004b52:	e00d      	b.n	8004b70 <_svfprintf_r+0x1b4>
 8004b54:	f89d 10ef 	ldrb.w	r1, [sp, #239]	; 0xef
 8004b58:	2900      	cmp	r1, #0
 8004b5a:	d191      	bne.n	8004a80 <_svfprintf_r+0xc4>
 8004b5c:	3120      	adds	r1, #32
 8004b5e:	e00b      	b.n	8004b78 <_svfprintf_r+0x1bc>
 8004b60:	f046 0601 	orr.w	r6, r6, #1
 8004b64:	e78c      	b.n	8004a80 <_svfprintf_r+0xc4>
 8004b66:	682a      	ldr	r2, [r5, #0]
 8004b68:	1d29      	adds	r1, r5, #4
 8004b6a:	2a00      	cmp	r2, #0
 8004b6c:	da89      	bge.n	8004a82 <_svfprintf_r+0xc6>
 8004b6e:	4252      	negs	r2, r2
 8004b70:	f046 0604 	orr.w	r6, r6, #4
 8004b74:	e785      	b.n	8004a82 <_svfprintf_r+0xc6>
 8004b76:	212b      	movs	r1, #43	; 0x2b
 8004b78:	f88d 10ef 	strb.w	r1, [sp, #239]	; 0xef
 8004b7c:	e780      	b.n	8004a80 <_svfprintf_r+0xc4>
 8004b7e:	f813 ab01 	ldrb.w	sl, [r3], #1
 8004b82:	f1ba 0f2a 	cmp.w	sl, #42	; 0x2a
 8004b86:	d003      	beq.n	8004b90 <_svfprintf_r+0x1d4>
 8004b88:	4619      	mov	r1, r3
 8004b8a:	f04f 0c00 	mov.w	ip, #0
 8004b8e:	e00a      	b.n	8004ba6 <_svfprintf_r+0x1ea>
 8004b90:	f8d5 c000 	ldr.w	ip, [r5]
 8004b94:	1d29      	adds	r1, r5, #4
 8004b96:	ea4c 7cec 	orr.w	ip, ip, ip, asr #31
 8004b9a:	e772      	b.n	8004a82 <_svfprintf_r+0xc6>
 8004b9c:	230a      	movs	r3, #10
 8004b9e:	f811 ac01 	ldrb.w	sl, [r1, #-1]
 8004ba2:	fb03 0c0c 	mla	ip, r3, ip, r0
 8004ba6:	f1aa 0030 	sub.w	r0, sl, #48	; 0x30
 8004baa:	460b      	mov	r3, r1
 8004bac:	3101      	adds	r1, #1
 8004bae:	2809      	cmp	r0, #9
 8004bb0:	d9f4      	bls.n	8004b9c <_svfprintf_r+0x1e0>
 8004bb2:	ea4c 7cec 	orr.w	ip, ip, ip, asr #31
 8004bb6:	e767      	b.n	8004a88 <_svfprintf_r+0xcc>
 8004bb8:	f046 0680 	orr.w	r6, r6, #128	; 0x80
 8004bbc:	e760      	b.n	8004a80 <_svfprintf_r+0xc4>
 8004bbe:	2200      	movs	r2, #0
 8004bc0:	210a      	movs	r1, #10
 8004bc2:	f1aa 0a30 	sub.w	sl, sl, #48	; 0x30
 8004bc6:	fb01 a202 	mla	r2, r1, r2, sl
 8004bca:	f813 ab01 	ldrb.w	sl, [r3], #1
 8004bce:	f1aa 0130 	sub.w	r1, sl, #48	; 0x30
 8004bd2:	2909      	cmp	r1, #9
 8004bd4:	d9f4      	bls.n	8004bc0 <_svfprintf_r+0x204>
 8004bd6:	e757      	b.n	8004a88 <_svfprintf_r+0xcc>
 8004bd8:	f046 0608 	orr.w	r6, r6, #8
 8004bdc:	e750      	b.n	8004a80 <_svfprintf_r+0xc4>
 8004bde:	f046 0640 	orr.w	r6, r6, #64	; 0x40
 8004be2:	e74d      	b.n	8004a80 <_svfprintf_r+0xc4>
 8004be4:	f046 0610 	orr.w	r6, r6, #16
 8004be8:	e74a      	b.n	8004a80 <_svfprintf_r+0xc4>
 8004bea:	9309      	str	r3, [sp, #36]	; 0x24
 8004bec:	f04f 0c00 	mov.w	ip, #0
 8004bf0:	682b      	ldr	r3, [r5, #0]
 8004bf2:	3504      	adds	r5, #4
 8004bf4:	920a      	str	r2, [sp, #40]	; 0x28
 8004bf6:	f88d c0ef 	strb.w	ip, [sp, #239]	; 0xef
 8004bfa:	f88d 3094 	strb.w	r3, [sp, #148]	; 0x94
 8004bfe:	e2bb      	b.n	8005178 <_svfprintf_r+0x7bc>
 8004c00:	9309      	str	r3, [sp, #36]	; 0x24
 8004c02:	f046 0610 	orr.w	r6, r6, #16
 8004c06:	920a      	str	r2, [sp, #40]	; 0x28
 8004c08:	e001      	b.n	8004c0e <_svfprintf_r+0x252>
 8004c0a:	9309      	str	r3, [sp, #36]	; 0x24
 8004c0c:	920a      	str	r2, [sp, #40]	; 0x28
 8004c0e:	f016 0f10 	tst.w	r6, #16
 8004c12:	d003      	beq.n	8004c1c <_svfprintf_r+0x260>
 8004c14:	f8d5 b000 	ldr.w	fp, [r5]
 8004c18:	3504      	adds	r5, #4
 8004c1a:	e009      	b.n	8004c30 <_svfprintf_r+0x274>
 8004c1c:	f8d5 b000 	ldr.w	fp, [r5]
 8004c20:	f016 0f40 	tst.w	r6, #64	; 0x40
 8004c24:	f105 0304 	add.w	r3, r5, #4
 8004c28:	461d      	mov	r5, r3
 8004c2a:	bf18      	it	ne
 8004c2c:	fa0f fb8b 	sxthne.w	fp, fp
 8004c30:	f1bb 0f00 	cmp.w	fp, #0
 8004c34:	da04      	bge.n	8004c40 <_svfprintf_r+0x284>
 8004c36:	f1cb 0b00 	rsb	fp, fp, #0
 8004c3a:	232d      	movs	r3, #45	; 0x2d
 8004c3c:	f88d 30ef 	strb.w	r3, [sp, #239]	; 0xef
 8004c40:	2201      	movs	r2, #1
 8004c42:	e22c      	b.n	800509e <_svfprintf_r+0x6e2>
 8004c44:	9309      	str	r3, [sp, #36]	; 0x24
 8004c46:	1deb      	adds	r3, r5, #7
 8004c48:	f016 0f08 	tst.w	r6, #8
 8004c4c:	f023 0307 	bic.w	r3, r3, #7
 8004c50:	920a      	str	r2, [sp, #40]	; 0x28
 8004c52:	f103 0508 	add.w	r5, r3, #8
 8004c56:	bf0b      	itete	eq
 8004c58:	6818      	ldreq	r0, [r3, #0]
 8004c5a:	681a      	ldrne	r2, [r3, #0]
 8004c5c:	900c      	streq	r0, [sp, #48]	; 0x30
 8004c5e:	920c      	strne	r2, [sp, #48]	; 0x30
 8004c60:	685b      	ldr	r3, [r3, #4]
 8004c62:	980c      	ldr	r0, [sp, #48]	; 0x30
 8004c64:	f8cd c018 	str.w	ip, [sp, #24]
 8004c68:	930f      	str	r3, [sp, #60]	; 0x3c
 8004c6a:	990f      	ldr	r1, [sp, #60]	; 0x3c
 8004c6c:	f002 fdd4 	bl	8007818 <__isinfd>
 8004c70:	f8dd c018 	ldr.w	ip, [sp, #24]
 8004c74:	4603      	mov	r3, r0
 8004c76:	b1a8      	cbz	r0, 8004ca4 <_svfprintf_r+0x2e8>
 8004c78:	980c      	ldr	r0, [sp, #48]	; 0x30
 8004c7a:	2200      	movs	r2, #0
 8004c7c:	990f      	ldr	r1, [sp, #60]	; 0x3c
 8004c7e:	2300      	movs	r3, #0
 8004c80:	f7ff fcea 	bl	8004658 <__aeabi_dcmplt>
 8004c84:	b110      	cbz	r0, 8004c8c <_svfprintf_r+0x2d0>
 8004c86:	232d      	movs	r3, #45	; 0x2d
 8004c88:	f88d 30ef 	strb.w	r3, [sp, #239]	; 0xef
 8004c8c:	4b52      	ldr	r3, [pc, #328]	; (8004dd8 <_svfprintf_r+0x41c>)
 8004c8e:	f026 0680 	bic.w	r6, r6, #128	; 0x80
 8004c92:	4a52      	ldr	r2, [pc, #328]	; (8004ddc <_svfprintf_r+0x420>)
 8004c94:	f04f 0b03 	mov.w	fp, #3
 8004c98:	f1ba 0f47 	cmp.w	sl, #71	; 0x47
 8004c9c:	bfcc      	ite	gt
 8004c9e:	4691      	movgt	r9, r2
 8004ca0:	4699      	movle	r9, r3
 8004ca2:	e270      	b.n	8005186 <_svfprintf_r+0x7ca>
 8004ca4:	980c      	ldr	r0, [sp, #48]	; 0x30
 8004ca6:	990f      	ldr	r1, [sp, #60]	; 0x3c
 8004ca8:	9307      	str	r3, [sp, #28]
 8004caa:	f8cd c018 	str.w	ip, [sp, #24]
 8004cae:	f002 fdc4 	bl	800783a <__isnand>
 8004cb2:	9b07      	ldr	r3, [sp, #28]
 8004cb4:	f8dd c018 	ldr.w	ip, [sp, #24]
 8004cb8:	b158      	cbz	r0, 8004cd2 <_svfprintf_r+0x316>
 8004cba:	4a49      	ldr	r2, [pc, #292]	; (8004de0 <_svfprintf_r+0x424>)
 8004cbc:	f026 0680 	bic.w	r6, r6, #128	; 0x80
 8004cc0:	4948      	ldr	r1, [pc, #288]	; (8004de4 <_svfprintf_r+0x428>)
 8004cc2:	f04f 0b03 	mov.w	fp, #3
 8004cc6:	f1ba 0f47 	cmp.w	sl, #71	; 0x47
 8004cca:	bfcc      	ite	gt
 8004ccc:	4689      	movgt	r9, r1
 8004cce:	4691      	movle	r9, r2
 8004cd0:	e1a3      	b.n	800501a <_svfprintf_r+0x65e>
 8004cd2:	f1bc 3fff 	cmp.w	ip, #4294967295
 8004cd6:	d102      	bne.n	8004cde <_svfprintf_r+0x322>
 8004cd8:	f10c 0c07 	add.w	ip, ip, #7
 8004cdc:	e00a      	b.n	8004cf4 <_svfprintf_r+0x338>
 8004cde:	f1ba 0f67 	cmp.w	sl, #103	; 0x67
 8004ce2:	d002      	beq.n	8004cea <_svfprintf_r+0x32e>
 8004ce4:	f1ba 0f47 	cmp.w	sl, #71	; 0x47
 8004ce8:	d104      	bne.n	8004cf4 <_svfprintf_r+0x338>
 8004cea:	f1bc 0f00 	cmp.w	ip, #0
 8004cee:	bf08      	it	eq
 8004cf0:	f04f 0c01 	moveq.w	ip, #1
 8004cf4:	9b0f      	ldr	r3, [sp, #60]	; 0x3c
 8004cf6:	f446 7680 	orr.w	r6, r6, #256	; 0x100
 8004cfa:	9a0c      	ldr	r2, [sp, #48]	; 0x30
 8004cfc:	e9cd 2332 	strd	r2, r3, [sp, #200]	; 0xc8
 8004d00:	9b33      	ldr	r3, [sp, #204]	; 0xcc
 8004d02:	2b00      	cmp	r3, #0
 8004d04:	db04      	blt.n	8004d10 <_svfprintf_r+0x354>
 8004d06:	990f      	ldr	r1, [sp, #60]	; 0x3c
 8004d08:	2200      	movs	r2, #0
 8004d0a:	920d      	str	r2, [sp, #52]	; 0x34
 8004d0c:	910b      	str	r1, [sp, #44]	; 0x2c
 8004d0e:	e005      	b.n	8004d1c <_svfprintf_r+0x360>
 8004d10:	9b0f      	ldr	r3, [sp, #60]	; 0x3c
 8004d12:	202d      	movs	r0, #45	; 0x2d
 8004d14:	900d      	str	r0, [sp, #52]	; 0x34
 8004d16:	f103 4300 	add.w	r3, r3, #2147483648	; 0x80000000
 8004d1a:	930b      	str	r3, [sp, #44]	; 0x2c
 8004d1c:	f1ba 0f66 	cmp.w	sl, #102	; 0x66
 8004d20:	d00e      	beq.n	8004d40 <_svfprintf_r+0x384>
 8004d22:	f1ba 0f46 	cmp.w	sl, #70	; 0x46
 8004d26:	d00b      	beq.n	8004d40 <_svfprintf_r+0x384>
 8004d28:	f1ba 0f65 	cmp.w	sl, #101	; 0x65
 8004d2c:	d004      	beq.n	8004d38 <_svfprintf_r+0x37c>
 8004d2e:	f1ba 0f45 	cmp.w	sl, #69	; 0x45
 8004d32:	d001      	beq.n	8004d38 <_svfprintf_r+0x37c>
 8004d34:	46e3      	mov	fp, ip
 8004d36:	e001      	b.n	8004d3c <_svfprintf_r+0x380>
 8004d38:	f10c 0b01 	add.w	fp, ip, #1
 8004d3c:	2302      	movs	r3, #2
 8004d3e:	e001      	b.n	8004d44 <_svfprintf_r+0x388>
 8004d40:	46e3      	mov	fp, ip
 8004d42:	2303      	movs	r3, #3
 8004d44:	9300      	str	r3, [sp, #0]
 8004d46:	4640      	mov	r0, r8
 8004d48:	ab3a      	add	r3, sp, #232	; 0xe8
 8004d4a:	9a0c      	ldr	r2, [sp, #48]	; 0x30
 8004d4c:	9302      	str	r3, [sp, #8]
 8004d4e:	ab39      	add	r3, sp, #228	; 0xe4
 8004d50:	9303      	str	r3, [sp, #12]
 8004d52:	ab38      	add	r3, sp, #224	; 0xe0
 8004d54:	9304      	str	r3, [sp, #16]
 8004d56:	9b0b      	ldr	r3, [sp, #44]	; 0x2c
 8004d58:	f8cd c018 	str.w	ip, [sp, #24]
 8004d5c:	f8cd b004 	str.w	fp, [sp, #4]
 8004d60:	f000 fe3a 	bl	80059d8 <_dtoa_r>
 8004d64:	f1ba 0f67 	cmp.w	sl, #103	; 0x67
 8004d68:	f8dd c018 	ldr.w	ip, [sp, #24]
 8004d6c:	4681      	mov	r9, r0
 8004d6e:	d002      	beq.n	8004d76 <_svfprintf_r+0x3ba>
 8004d70:	f1ba 0f47 	cmp.w	sl, #71	; 0x47
 8004d74:	d102      	bne.n	8004d7c <_svfprintf_r+0x3c0>
 8004d76:	f016 0f01 	tst.w	r6, #1
 8004d7a:	d03d      	beq.n	8004df8 <_svfprintf_r+0x43c>
 8004d7c:	f1ba 0f66 	cmp.w	sl, #102	; 0x66
 8004d80:	eb09 010b 	add.w	r1, r9, fp
 8004d84:	9108      	str	r1, [sp, #32]
 8004d86:	d002      	beq.n	8004d8e <_svfprintf_r+0x3d2>
 8004d88:	f1ba 0f46 	cmp.w	sl, #70	; 0x46
 8004d8c:	d115      	bne.n	8004dba <_svfprintf_r+0x3fe>
 8004d8e:	f899 3000 	ldrb.w	r3, [r9]
 8004d92:	2b30      	cmp	r3, #48	; 0x30
 8004d94:	d10d      	bne.n	8004db2 <_svfprintf_r+0x3f6>
 8004d96:	980c      	ldr	r0, [sp, #48]	; 0x30
 8004d98:	2200      	movs	r2, #0
 8004d9a:	990b      	ldr	r1, [sp, #44]	; 0x2c
 8004d9c:	2300      	movs	r3, #0
 8004d9e:	f8cd c018 	str.w	ip, [sp, #24]
 8004da2:	f7ff fc4f 	bl	8004644 <__aeabi_dcmpeq>
 8004da6:	f8dd c018 	ldr.w	ip, [sp, #24]
 8004daa:	b910      	cbnz	r0, 8004db2 <_svfprintf_r+0x3f6>
 8004dac:	f1cb 0301 	rsb	r3, fp, #1
 8004db0:	933a      	str	r3, [sp, #232]	; 0xe8
 8004db2:	9a08      	ldr	r2, [sp, #32]
 8004db4:	9b3a      	ldr	r3, [sp, #232]	; 0xe8
 8004db6:	18d2      	adds	r2, r2, r3
 8004db8:	9208      	str	r2, [sp, #32]
 8004dba:	980c      	ldr	r0, [sp, #48]	; 0x30
 8004dbc:	2200      	movs	r2, #0
 8004dbe:	990b      	ldr	r1, [sp, #44]	; 0x2c
 8004dc0:	2300      	movs	r3, #0
 8004dc2:	f8cd c018 	str.w	ip, [sp, #24]
 8004dc6:	f7ff fc3d 	bl	8004644 <__aeabi_dcmpeq>
 8004dca:	f8dd c018 	ldr.w	ip, [sp, #24]
 8004dce:	b178      	cbz	r0, 8004df0 <_svfprintf_r+0x434>
 8004dd0:	9b08      	ldr	r3, [sp, #32]
 8004dd2:	e00c      	b.n	8004dee <_svfprintf_r+0x432>
 8004dd4:	080079d0 	.word	0x080079d0
 8004dd8:	080079e1 	.word	0x080079e1
 8004ddc:	080079e5 	.word	0x080079e5
 8004de0:	080079e9 	.word	0x080079e9
 8004de4:	080079ed 	.word	0x080079ed
 8004de8:	2230      	movs	r2, #48	; 0x30
 8004dea:	f803 2b01 	strb.w	r2, [r3], #1
 8004dee:	9338      	str	r3, [sp, #224]	; 0xe0
 8004df0:	9b38      	ldr	r3, [sp, #224]	; 0xe0
 8004df2:	9808      	ldr	r0, [sp, #32]
 8004df4:	4283      	cmp	r3, r0
 8004df6:	d3f7      	bcc.n	8004de8 <_svfprintf_r+0x42c>
 8004df8:	9b38      	ldr	r3, [sp, #224]	; 0xe0
 8004dfa:	f1ba 0f67 	cmp.w	sl, #103	; 0x67
 8004dfe:	ebc9 0303 	rsb	r3, r9, r3
 8004e02:	9308      	str	r3, [sp, #32]
 8004e04:	d002      	beq.n	8004e0c <_svfprintf_r+0x450>
 8004e06:	f1ba 0f47 	cmp.w	sl, #71	; 0x47
 8004e0a:	d108      	bne.n	8004e1e <_svfprintf_r+0x462>
 8004e0c:	9b3a      	ldr	r3, [sp, #232]	; 0xe8
 8004e0e:	f113 0f03 	cmn.w	r3, #3
 8004e12:	db01      	blt.n	8004e18 <_svfprintf_r+0x45c>
 8004e14:	4563      	cmp	r3, ip
 8004e16:	dd79      	ble.n	8004f0c <_svfprintf_r+0x550>
 8004e18:	f1aa 0a02 	sub.w	sl, sl, #2
 8004e1c:	e002      	b.n	8004e24 <_svfprintf_r+0x468>
 8004e1e:	f1ba 0f65 	cmp.w	sl, #101	; 0x65
 8004e22:	dc53      	bgt.n	8004ecc <_svfprintf_r+0x510>
 8004e24:	9b3a      	ldr	r3, [sp, #232]	; 0xe8
 8004e26:	f88d a0d8 	strb.w	sl, [sp, #216]	; 0xd8
 8004e2a:	f103 3bff 	add.w	fp, r3, #4294967295
 8004e2e:	f8cd b0e8 	str.w	fp, [sp, #232]	; 0xe8
 8004e32:	f1bb 0f00 	cmp.w	fp, #0
 8004e36:	da03      	bge.n	8004e40 <_svfprintf_r+0x484>
 8004e38:	f1cb 0b00 	rsb	fp, fp, #0
 8004e3c:	232d      	movs	r3, #45	; 0x2d
 8004e3e:	e000      	b.n	8004e42 <_svfprintf_r+0x486>
 8004e40:	232b      	movs	r3, #43	; 0x2b
 8004e42:	f1bb 0f09 	cmp.w	fp, #9
 8004e46:	f88d 30d9 	strb.w	r3, [sp, #217]	; 0xd9
 8004e4a:	dd2a      	ble.n	8004ea2 <_svfprintf_r+0x4e6>
 8004e4c:	f10d 02d7 	add.w	r2, sp, #215	; 0xd7
 8004e50:	46ac      	mov	ip, r5
 8004e52:	4615      	mov	r5, r2
 8004e54:	4658      	mov	r0, fp
 8004e56:	210a      	movs	r1, #10
 8004e58:	9207      	str	r2, [sp, #28]
 8004e5a:	f8cd c018 	str.w	ip, [sp, #24]
 8004e5e:	f7fe ffc1 	bl	8003de4 <__aeabi_idivmod>
 8004e62:	4658      	mov	r0, fp
 8004e64:	3130      	adds	r1, #48	; 0x30
 8004e66:	f805 1d01 	strb.w	r1, [r5, #-1]!
 8004e6a:	210a      	movs	r1, #10
 8004e6c:	f7fe fe70 	bl	8003b50 <__aeabi_idiv>
 8004e70:	9a07      	ldr	r2, [sp, #28]
 8004e72:	f8dd c018 	ldr.w	ip, [sp, #24]
 8004e76:	2809      	cmp	r0, #9
 8004e78:	4683      	mov	fp, r0
 8004e7a:	dceb      	bgt.n	8004e54 <_svfprintf_r+0x498>
 8004e7c:	462b      	mov	r3, r5
 8004e7e:	f100 0b30 	add.w	fp, r0, #48	; 0x30
 8004e82:	1e59      	subs	r1, r3, #1
 8004e84:	4665      	mov	r5, ip
 8004e86:	f803 bc01 	strb.w	fp, [r3, #-1]
 8004e8a:	f10d 03da 	add.w	r3, sp, #218	; 0xda
 8004e8e:	e003      	b.n	8004e98 <_svfprintf_r+0x4dc>
 8004e90:	f811 0b01 	ldrb.w	r0, [r1], #1
 8004e94:	f803 0c01 	strb.w	r0, [r3, #-1]
 8004e98:	4618      	mov	r0, r3
 8004e9a:	3301      	adds	r3, #1
 8004e9c:	4291      	cmp	r1, r2
 8004e9e:	d3f7      	bcc.n	8004e90 <_svfprintf_r+0x4d4>
 8004ea0:	e006      	b.n	8004eb0 <_svfprintf_r+0x4f4>
 8004ea2:	a837      	add	r0, sp, #220	; 0xdc
 8004ea4:	2330      	movs	r3, #48	; 0x30
 8004ea6:	449b      	add	fp, r3
 8004ea8:	f88d 30da 	strb.w	r3, [sp, #218]	; 0xda
 8004eac:	f88d b0db 	strb.w	fp, [sp, #219]	; 0xdb
 8004eb0:	9908      	ldr	r1, [sp, #32]
 8004eb2:	ab36      	add	r3, sp, #216	; 0xd8
 8004eb4:	1ac3      	subs	r3, r0, r3
 8004eb6:	9312      	str	r3, [sp, #72]	; 0x48
 8004eb8:	2901      	cmp	r1, #1
 8004eba:	eb03 0b01 	add.w	fp, r3, r1
 8004ebe:	dc02      	bgt.n	8004ec6 <_svfprintf_r+0x50a>
 8004ec0:	f016 0f01 	tst.w	r6, #1
 8004ec4:	d038      	beq.n	8004f38 <_svfprintf_r+0x57c>
 8004ec6:	f10b 0b01 	add.w	fp, fp, #1
 8004eca:	e035      	b.n	8004f38 <_svfprintf_r+0x57c>
 8004ecc:	f1ba 0f66 	cmp.w	sl, #102	; 0x66
 8004ed0:	d11c      	bne.n	8004f0c <_svfprintf_r+0x550>
 8004ed2:	f8dd b0e8 	ldr.w	fp, [sp, #232]	; 0xe8
 8004ed6:	f1bb 0f00 	cmp.w	fp, #0
 8004eda:	dd09      	ble.n	8004ef0 <_svfprintf_r+0x534>
 8004edc:	f1bc 0f00 	cmp.w	ip, #0
 8004ee0:	d102      	bne.n	8004ee8 <_svfprintf_r+0x52c>
 8004ee2:	f016 0f01 	tst.w	r6, #1
 8004ee6:	d027      	beq.n	8004f38 <_svfprintf_r+0x57c>
 8004ee8:	f10b 0b01 	add.w	fp, fp, #1
 8004eec:	44e3      	add	fp, ip
 8004eee:	e00a      	b.n	8004f06 <_svfprintf_r+0x54a>
 8004ef0:	f1bc 0f00 	cmp.w	ip, #0
 8004ef4:	d105      	bne.n	8004f02 <_svfprintf_r+0x546>
 8004ef6:	f016 0f01 	tst.w	r6, #1
 8004efa:	d102      	bne.n	8004f02 <_svfprintf_r+0x546>
 8004efc:	f04f 0b01 	mov.w	fp, #1
 8004f00:	e01a      	b.n	8004f38 <_svfprintf_r+0x57c>
 8004f02:	f10c 0b02 	add.w	fp, ip, #2
 8004f06:	f04f 0a66 	mov.w	sl, #102	; 0x66
 8004f0a:	e015      	b.n	8004f38 <_svfprintf_r+0x57c>
 8004f0c:	f8dd b0e8 	ldr.w	fp, [sp, #232]	; 0xe8
 8004f10:	9a08      	ldr	r2, [sp, #32]
 8004f12:	4593      	cmp	fp, r2
 8004f14:	db05      	blt.n	8004f22 <_svfprintf_r+0x566>
 8004f16:	f016 0f01 	tst.w	r6, #1
 8004f1a:	bf18      	it	ne
 8004f1c:	f10b 0b01 	addne.w	fp, fp, #1
 8004f20:	e008      	b.n	8004f34 <_svfprintf_r+0x578>
 8004f22:	f1bb 0f00 	cmp.w	fp, #0
 8004f26:	9b08      	ldr	r3, [sp, #32]
 8004f28:	bfcc      	ite	gt
 8004f2a:	f04f 0b01 	movgt.w	fp, #1
 8004f2e:	f1cb 0b02 	rsble	fp, fp, #2
 8004f32:	449b      	add	fp, r3
 8004f34:	f04f 0a67 	mov.w	sl, #103	; 0x67
 8004f38:	980d      	ldr	r0, [sp, #52]	; 0x34
 8004f3a:	b908      	cbnz	r0, 8004f40 <_svfprintf_r+0x584>
 8004f3c:	4684      	mov	ip, r0
 8004f3e:	e124      	b.n	800518a <_svfprintf_r+0x7ce>
 8004f40:	232d      	movs	r3, #45	; 0x2d
 8004f42:	f88d 30ef 	strb.w	r3, [sp, #239]	; 0xef
 8004f46:	e11e      	b.n	8005186 <_svfprintf_r+0x7ca>
 8004f48:	f016 0f10 	tst.w	r6, #16
 8004f4c:	9309      	str	r3, [sp, #36]	; 0x24
 8004f4e:	d004      	beq.n	8004f5a <_svfprintf_r+0x59e>
 8004f50:	682b      	ldr	r3, [r5, #0]
 8004f52:	3504      	adds	r5, #4
 8004f54:	990e      	ldr	r1, [sp, #56]	; 0x38
 8004f56:	6019      	str	r1, [r3, #0]
 8004f58:	e55e      	b.n	8004a18 <_svfprintf_r+0x5c>
 8004f5a:	f016 0f40 	tst.w	r6, #64	; 0x40
 8004f5e:	682a      	ldr	r2, [r5, #0]
 8004f60:	f105 0304 	add.w	r3, r5, #4
 8004f64:	bf18      	it	ne
 8004f66:	980e      	ldrne	r0, [sp, #56]	; 0x38
 8004f68:	461d      	mov	r5, r3
 8004f6a:	bf0a      	itet	eq
 8004f6c:	990e      	ldreq	r1, [sp, #56]	; 0x38
 8004f6e:	8010      	strhne	r0, [r2, #0]
 8004f70:	6011      	streq	r1, [r2, #0]
 8004f72:	e551      	b.n	8004a18 <_svfprintf_r+0x5c>
 8004f74:	9309      	str	r3, [sp, #36]	; 0x24
 8004f76:	f046 0610 	orr.w	r6, r6, #16
 8004f7a:	920a      	str	r2, [sp, #40]	; 0x28
 8004f7c:	e001      	b.n	8004f82 <_svfprintf_r+0x5c6>
 8004f7e:	9309      	str	r3, [sp, #36]	; 0x24
 8004f80:	920a      	str	r2, [sp, #40]	; 0x28
 8004f82:	f016 0110 	ands.w	r1, r6, #16
 8004f86:	d004      	beq.n	8004f92 <_svfprintf_r+0x5d6>
 8004f88:	f8d5 b000 	ldr.w	fp, [r5]
 8004f8c:	2200      	movs	r2, #0
 8004f8e:	3504      	adds	r5, #4
 8004f90:	e082      	b.n	8005098 <_svfprintf_r+0x6dc>
 8004f92:	f8d5 b000 	ldr.w	fp, [r5]
 8004f96:	f016 0240 	ands.w	r2, r6, #64	; 0x40
 8004f9a:	f105 0304 	add.w	r3, r5, #4
 8004f9e:	bf1b      	ittet	ne
 8004fa0:	460a      	movne	r2, r1
 8004fa2:	461d      	movne	r5, r3
 8004fa4:	461d      	moveq	r5, r3
 8004fa6:	fa1f fb8b 	uxthne.w	fp, fp
 8004faa:	e075      	b.n	8005098 <_svfprintf_r+0x6dc>
 8004fac:	920a      	str	r2, [sp, #40]	; 0x28
 8004fae:	f04f 0a78 	mov.w	sl, #120	; 0x78
 8004fb2:	4a9d      	ldr	r2, [pc, #628]	; (8005228 <_svfprintf_r+0x86c>)
 8004fb4:	f046 0602 	orr.w	r6, r6, #2
 8004fb8:	f8d5 b000 	ldr.w	fp, [r5]
 8004fbc:	3504      	adds	r5, #4
 8004fbe:	9309      	str	r3, [sp, #36]	; 0x24
 8004fc0:	2330      	movs	r3, #48	; 0x30
 8004fc2:	f88d a0ed 	strb.w	sl, [sp, #237]	; 0xed
 8004fc6:	f88d 30ec 	strb.w	r3, [sp, #236]	; 0xec
 8004fca:	9211      	str	r2, [sp, #68]	; 0x44
 8004fcc:	e063      	b.n	8005096 <_svfprintf_r+0x6da>
 8004fce:	9309      	str	r3, [sp, #36]	; 0x24
 8004fd0:	2300      	movs	r3, #0
 8004fd2:	1d28      	adds	r0, r5, #4
 8004fd4:	f88d 30ef 	strb.w	r3, [sp, #239]	; 0xef
 8004fd8:	459c      	cmp	ip, r3
 8004fda:	f8d5 9000 	ldr.w	r9, [r5]
 8004fde:	900b      	str	r0, [sp, #44]	; 0x2c
 8004fe0:	920a      	str	r2, [sp, #40]	; 0x28
 8004fe2:	4648      	mov	r0, r9
 8004fe4:	db13      	blt.n	800500e <_svfprintf_r+0x652>
 8004fe6:	4619      	mov	r1, r3
 8004fe8:	4662      	mov	r2, ip
 8004fea:	9307      	str	r3, [sp, #28]
 8004fec:	f8cd c018 	str.w	ip, [sp, #24]
 8004ff0:	f001 fe26 	bl	8006c40 <memchr>
 8004ff4:	9b07      	ldr	r3, [sp, #28]
 8004ff6:	f8dd c018 	ldr.w	ip, [sp, #24]
 8004ffa:	2800      	cmp	r0, #0
 8004ffc:	f000 80c1 	beq.w	8005182 <_svfprintf_r+0x7c6>
 8005000:	ebc9 0b00 	rsb	fp, r9, r0
 8005004:	45e3      	cmp	fp, ip
 8005006:	f300 80bc 	bgt.w	8005182 <_svfprintf_r+0x7c6>
 800500a:	9d0b      	ldr	r5, [sp, #44]	; 0x2c
 800500c:	e005      	b.n	800501a <_svfprintf_r+0x65e>
 800500e:	9307      	str	r3, [sp, #28]
 8005010:	f002 fc3d 	bl	800788e <strlen>
 8005014:	9d0b      	ldr	r5, [sp, #44]	; 0x2c
 8005016:	9b07      	ldr	r3, [sp, #28]
 8005018:	4683      	mov	fp, r0
 800501a:	469c      	mov	ip, r3
 800501c:	e0b5      	b.n	800518a <_svfprintf_r+0x7ce>
 800501e:	9309      	str	r3, [sp, #36]	; 0x24
 8005020:	f046 0610 	orr.w	r6, r6, #16
 8005024:	920a      	str	r2, [sp, #40]	; 0x28
 8005026:	e001      	b.n	800502c <_svfprintf_r+0x670>
 8005028:	9309      	str	r3, [sp, #36]	; 0x24
 800502a:	920a      	str	r2, [sp, #40]	; 0x28
 800502c:	f016 0f10 	tst.w	r6, #16
 8005030:	d003      	beq.n	800503a <_svfprintf_r+0x67e>
 8005032:	f8d5 b000 	ldr.w	fp, [r5]
 8005036:	3504      	adds	r5, #4
 8005038:	e009      	b.n	800504e <_svfprintf_r+0x692>
 800503a:	f8d5 b000 	ldr.w	fp, [r5]
 800503e:	f016 0f40 	tst.w	r6, #64	; 0x40
 8005042:	f105 0304 	add.w	r3, r5, #4
 8005046:	461d      	mov	r5, r3
 8005048:	bf18      	it	ne
 800504a:	fa1f fb8b 	uxthne.w	fp, fp
 800504e:	2201      	movs	r2, #1
 8005050:	e022      	b.n	8005098 <_svfprintf_r+0x6dc>
 8005052:	4975      	ldr	r1, [pc, #468]	; (8005228 <_svfprintf_r+0x86c>)
 8005054:	9309      	str	r3, [sp, #36]	; 0x24
 8005056:	920a      	str	r2, [sp, #40]	; 0x28
 8005058:	f016 0f10 	tst.w	r6, #16
 800505c:	9111      	str	r1, [sp, #68]	; 0x44
 800505e:	d003      	beq.n	8005068 <_svfprintf_r+0x6ac>
 8005060:	f8d5 b000 	ldr.w	fp, [r5]
 8005064:	3504      	adds	r5, #4
 8005066:	e009      	b.n	800507c <_svfprintf_r+0x6c0>
 8005068:	f8d5 b000 	ldr.w	fp, [r5]
 800506c:	f016 0f40 	tst.w	r6, #64	; 0x40
 8005070:	f105 0304 	add.w	r3, r5, #4
 8005074:	461d      	mov	r5, r3
 8005076:	bf18      	it	ne
 8005078:	fa1f fb8b 	uxthne.w	fp, fp
 800507c:	f016 0f01 	tst.w	r6, #1
 8005080:	d009      	beq.n	8005096 <_svfprintf_r+0x6da>
 8005082:	f1bb 0f00 	cmp.w	fp, #0
 8005086:	d006      	beq.n	8005096 <_svfprintf_r+0x6da>
 8005088:	f046 0602 	orr.w	r6, r6, #2
 800508c:	2330      	movs	r3, #48	; 0x30
 800508e:	f88d a0ed 	strb.w	sl, [sp, #237]	; 0xed
 8005092:	f88d 30ec 	strb.w	r3, [sp, #236]	; 0xec
 8005096:	2202      	movs	r2, #2
 8005098:	2300      	movs	r3, #0
 800509a:	f88d 30ef 	strb.w	r3, [sp, #239]	; 0xef
 800509e:	f1bc 0f00 	cmp.w	ip, #0
 80050a2:	ab2f      	add	r3, sp, #188	; 0xbc
 80050a4:	bfa8      	it	ge
 80050a6:	f026 0680 	bicge.w	r6, r6, #128	; 0x80
 80050aa:	f1bb 0f00 	cmp.w	fp, #0
 80050ae:	d102      	bne.n	80050b6 <_svfprintf_r+0x6fa>
 80050b0:	f1bc 0f00 	cmp.w	ip, #0
 80050b4:	d046      	beq.n	8005144 <_svfprintf_r+0x788>
 80050b6:	2a01      	cmp	r2, #1
 80050b8:	d002      	beq.n	80050c0 <_svfprintf_r+0x704>
 80050ba:	2a02      	cmp	r2, #2
 80050bc:	d103      	bne.n	80050c6 <_svfprintf_r+0x70a>
 80050be:	e035      	b.n	800512c <_svfprintf_r+0x770>
 80050c0:	4699      	mov	r9, r3
 80050c2:	950b      	str	r5, [sp, #44]	; 0x2c
 80050c4:	e025      	b.n	8005112 <_svfprintf_r+0x756>
 80050c6:	4619      	mov	r1, r3
 80050c8:	f00b 0207 	and.w	r2, fp, #7
 80050cc:	3230      	adds	r2, #48	; 0x30
 80050ce:	ea5f 0bdb 	movs.w	fp, fp, lsr #3
 80050d2:	f801 2d01 	strb.w	r2, [r1, #-1]!
 80050d6:	d1f7      	bne.n	80050c8 <_svfprintf_r+0x70c>
 80050d8:	f016 0f01 	tst.w	r6, #1
 80050dc:	4689      	mov	r9, r1
 80050de:	d03c      	beq.n	800515a <_svfprintf_r+0x79e>
 80050e0:	2a30      	cmp	r2, #48	; 0x30
 80050e2:	d03a      	beq.n	800515a <_svfprintf_r+0x79e>
 80050e4:	2230      	movs	r2, #48	; 0x30
 80050e6:	f809 2d01 	strb.w	r2, [r9, #-1]!
 80050ea:	e036      	b.n	800515a <_svfprintf_r+0x79e>
 80050ec:	4658      	mov	r0, fp
 80050ee:	210a      	movs	r1, #10
 80050f0:	9307      	str	r3, [sp, #28]
 80050f2:	f8cd c018 	str.w	ip, [sp, #24]
 80050f6:	f7fe fd1d 	bl	8003b34 <__aeabi_uidivmod>
 80050fa:	4658      	mov	r0, fp
 80050fc:	3130      	adds	r1, #48	; 0x30
 80050fe:	f809 1c01 	strb.w	r1, [r9, #-1]
 8005102:	210a      	movs	r1, #10
 8005104:	46a9      	mov	r9, r5
 8005106:	f7fe fbe7 	bl	80038d8 <__aeabi_uidiv>
 800510a:	f8dd c018 	ldr.w	ip, [sp, #24]
 800510e:	9b07      	ldr	r3, [sp, #28]
 8005110:	4683      	mov	fp, r0
 8005112:	f1bb 0f09 	cmp.w	fp, #9
 8005116:	f109 35ff 	add.w	r5, r9, #4294967295
 800511a:	d8e7      	bhi.n	80050ec <_svfprintf_r+0x730>
 800511c:	462a      	mov	r2, r5
 800511e:	f10b 0b30 	add.w	fp, fp, #48	; 0x30
 8005122:	9d0b      	ldr	r5, [sp, #44]	; 0x2c
 8005124:	4691      	mov	r9, r2
 8005126:	f882 b000 	strb.w	fp, [r2]
 800512a:	e016      	b.n	800515a <_svfprintf_r+0x79e>
 800512c:	461a      	mov	r2, r3
 800512e:	9811      	ldr	r0, [sp, #68]	; 0x44
 8005130:	f00b 010f 	and.w	r1, fp, #15
 8005134:	ea5f 1b1b 	movs.w	fp, fp, lsr #4
 8005138:	5c41      	ldrb	r1, [r0, r1]
 800513a:	f802 1d01 	strb.w	r1, [r2, #-1]!
 800513e:	d1f6      	bne.n	800512e <_svfprintf_r+0x772>
 8005140:	4691      	mov	r9, r2
 8005142:	e00a      	b.n	800515a <_svfprintf_r+0x79e>
 8005144:	b942      	cbnz	r2, 8005158 <_svfprintf_r+0x79c>
 8005146:	f016 0f01 	tst.w	r6, #1
 800514a:	d005      	beq.n	8005158 <_svfprintf_r+0x79c>
 800514c:	3230      	adds	r2, #48	; 0x30
 800514e:	f10d 09bb 	add.w	r9, sp, #187	; 0xbb
 8005152:	f88d 20bb 	strb.w	r2, [sp, #187]	; 0xbb
 8005156:	e000      	b.n	800515a <_svfprintf_r+0x79e>
 8005158:	4699      	mov	r9, r3
 800515a:	ebc9 0b03 	rsb	fp, r9, r3
 800515e:	e014      	b.n	800518a <_svfprintf_r+0x7ce>
 8005160:	9309      	str	r3, [sp, #36]	; 0x24
 8005162:	920a      	str	r2, [sp, #40]	; 0x28
 8005164:	f1ba 0f00 	cmp.w	sl, #0
 8005168:	f000 8392 	beq.w	8005890 <_svfprintf_r+0xed4>
 800516c:	f04f 0c00 	mov.w	ip, #0
 8005170:	f88d a094 	strb.w	sl, [sp, #148]	; 0x94
 8005174:	f88d c0ef 	strb.w	ip, [sp, #239]	; 0xef
 8005178:	f10d 0994 	add.w	r9, sp, #148	; 0x94
 800517c:	f04f 0b01 	mov.w	fp, #1
 8005180:	e003      	b.n	800518a <_svfprintf_r+0x7ce>
 8005182:	9d0b      	ldr	r5, [sp, #44]	; 0x2c
 8005184:	46e3      	mov	fp, ip
 8005186:	f04f 0c00 	mov.w	ip, #0
 800518a:	f89d 30ef 	ldrb.w	r3, [sp, #239]	; 0xef
 800518e:	45e3      	cmp	fp, ip
 8005190:	bfac      	ite	ge
 8005192:	4659      	movge	r1, fp
 8005194:	4661      	movlt	r1, ip
 8005196:	910b      	str	r1, [sp, #44]	; 0x2c
 8005198:	b10b      	cbz	r3, 800519e <_svfprintf_r+0x7e2>
 800519a:	3101      	adds	r1, #1
 800519c:	910b      	str	r1, [sp, #44]	; 0x2c
 800519e:	f016 0202 	ands.w	r2, r6, #2
 80051a2:	9213      	str	r2, [sp, #76]	; 0x4c
 80051a4:	d002      	beq.n	80051ac <_svfprintf_r+0x7f0>
 80051a6:	9b0b      	ldr	r3, [sp, #44]	; 0x2c
 80051a8:	3302      	adds	r3, #2
 80051aa:	930b      	str	r3, [sp, #44]	; 0x2c
 80051ac:	f016 0084 	ands.w	r0, r6, #132	; 0x84
 80051b0:	900d      	str	r0, [sp, #52]	; 0x34
 80051b2:	d14a      	bne.n	800524a <_svfprintf_r+0x88e>
 80051b4:	990a      	ldr	r1, [sp, #40]	; 0x28
 80051b6:	9a0b      	ldr	r2, [sp, #44]	; 0x2c
 80051b8:	1a8b      	subs	r3, r1, r2
 80051ba:	2b00      	cmp	r3, #0
 80051bc:	dc1c      	bgt.n	80051f8 <_svfprintf_r+0x83c>
 80051be:	e044      	b.n	800524a <_svfprintf_r+0x88e>
 80051c0:	601a      	str	r2, [r3, #0]
 80051c2:	2210      	movs	r2, #16
 80051c4:	605a      	str	r2, [r3, #4]
 80051c6:	9a31      	ldr	r2, [sp, #196]	; 0xc4
 80051c8:	3210      	adds	r2, #16
 80051ca:	9231      	str	r2, [sp, #196]	; 0xc4
 80051cc:	9a30      	ldr	r2, [sp, #192]	; 0xc0
 80051ce:	3201      	adds	r2, #1
 80051d0:	9230      	str	r2, [sp, #192]	; 0xc0
 80051d2:	2a07      	cmp	r2, #7
 80051d4:	dc01      	bgt.n	80051da <_svfprintf_r+0x81e>
 80051d6:	3308      	adds	r3, #8
 80051d8:	e00c      	b.n	80051f4 <_svfprintf_r+0x838>
 80051da:	4640      	mov	r0, r8
 80051dc:	4639      	mov	r1, r7
 80051de:	aa2f      	add	r2, sp, #188	; 0xbc
 80051e0:	f8cd c018 	str.w	ip, [sp, #24]
 80051e4:	f7ff fb70 	bl	80048c8 <__sprint_r>
 80051e8:	f8dd c018 	ldr.w	ip, [sp, #24]
 80051ec:	2800      	cmp	r0, #0
 80051ee:	f040 8356 	bne.w	800589e <_svfprintf_r+0xee2>
 80051f2:	ab15      	add	r3, sp, #84	; 0x54
 80051f4:	3d10      	subs	r5, #16
 80051f6:	e003      	b.n	8005200 <_svfprintf_r+0x844>
 80051f8:	4622      	mov	r2, r4
 80051fa:	462c      	mov	r4, r5
 80051fc:	461d      	mov	r5, r3
 80051fe:	4613      	mov	r3, r2
 8005200:	2d10      	cmp	r5, #16
 8005202:	4a0a      	ldr	r2, [pc, #40]	; (800522c <_svfprintf_r+0x870>)
 8005204:	dcdc      	bgt.n	80051c0 <_svfprintf_r+0x804>
 8005206:	4619      	mov	r1, r3
 8005208:	462b      	mov	r3, r5
 800520a:	4625      	mov	r5, r4
 800520c:	460c      	mov	r4, r1
 800520e:	604b      	str	r3, [r1, #4]
 8005210:	600a      	str	r2, [r1, #0]
 8005212:	9a31      	ldr	r2, [sp, #196]	; 0xc4
 8005214:	18d3      	adds	r3, r2, r3
 8005216:	9331      	str	r3, [sp, #196]	; 0xc4
 8005218:	9b30      	ldr	r3, [sp, #192]	; 0xc0
 800521a:	3301      	adds	r3, #1
 800521c:	9330      	str	r3, [sp, #192]	; 0xc0
 800521e:	2b07      	cmp	r3, #7
 8005220:	dc06      	bgt.n	8005230 <_svfprintf_r+0x874>
 8005222:	3408      	adds	r4, #8
 8005224:	e011      	b.n	800524a <_svfprintf_r+0x88e>
 8005226:	bf00      	nop
 8005228:	080079f1 	.word	0x080079f1
 800522c:	08007a04 	.word	0x08007a04
 8005230:	4640      	mov	r0, r8
 8005232:	4639      	mov	r1, r7
 8005234:	aa2f      	add	r2, sp, #188	; 0xbc
 8005236:	f8cd c018 	str.w	ip, [sp, #24]
 800523a:	f7ff fb45 	bl	80048c8 <__sprint_r>
 800523e:	f8dd c018 	ldr.w	ip, [sp, #24]
 8005242:	2800      	cmp	r0, #0
 8005244:	f040 832b 	bne.w	800589e <_svfprintf_r+0xee2>
 8005248:	ac15      	add	r4, sp, #84	; 0x54
 800524a:	f89d 30ef 	ldrb.w	r3, [sp, #239]	; 0xef
 800524e:	b1db      	cbz	r3, 8005288 <_svfprintf_r+0x8cc>
 8005250:	f10d 03ef 	add.w	r3, sp, #239	; 0xef
 8005254:	6023      	str	r3, [r4, #0]
 8005256:	2301      	movs	r3, #1
 8005258:	6063      	str	r3, [r4, #4]
 800525a:	9b31      	ldr	r3, [sp, #196]	; 0xc4
 800525c:	3301      	adds	r3, #1
 800525e:	9331      	str	r3, [sp, #196]	; 0xc4
 8005260:	9b30      	ldr	r3, [sp, #192]	; 0xc0
 8005262:	3301      	adds	r3, #1
 8005264:	9330      	str	r3, [sp, #192]	; 0xc0
 8005266:	2b07      	cmp	r3, #7
 8005268:	dc01      	bgt.n	800526e <_svfprintf_r+0x8b2>
 800526a:	3408      	adds	r4, #8
 800526c:	e00c      	b.n	8005288 <_svfprintf_r+0x8cc>
 800526e:	4640      	mov	r0, r8
 8005270:	4639      	mov	r1, r7
 8005272:	aa2f      	add	r2, sp, #188	; 0xbc
 8005274:	f8cd c018 	str.w	ip, [sp, #24]
 8005278:	f7ff fb26 	bl	80048c8 <__sprint_r>
 800527c:	f8dd c018 	ldr.w	ip, [sp, #24]
 8005280:	2800      	cmp	r0, #0
 8005282:	f040 830c 	bne.w	800589e <_svfprintf_r+0xee2>
 8005286:	ac15      	add	r4, sp, #84	; 0x54
 8005288:	9b13      	ldr	r3, [sp, #76]	; 0x4c
 800528a:	b1d3      	cbz	r3, 80052c2 <_svfprintf_r+0x906>
 800528c:	ab3b      	add	r3, sp, #236	; 0xec
 800528e:	6023      	str	r3, [r4, #0]
 8005290:	2302      	movs	r3, #2
 8005292:	6063      	str	r3, [r4, #4]
 8005294:	9b31      	ldr	r3, [sp, #196]	; 0xc4
 8005296:	3302      	adds	r3, #2
 8005298:	9331      	str	r3, [sp, #196]	; 0xc4
 800529a:	9b30      	ldr	r3, [sp, #192]	; 0xc0
 800529c:	3301      	adds	r3, #1
 800529e:	9330      	str	r3, [sp, #192]	; 0xc0
 80052a0:	2b07      	cmp	r3, #7
 80052a2:	dc01      	bgt.n	80052a8 <_svfprintf_r+0x8ec>
 80052a4:	3408      	adds	r4, #8
 80052a6:	e00c      	b.n	80052c2 <_svfprintf_r+0x906>
 80052a8:	4640      	mov	r0, r8
 80052aa:	4639      	mov	r1, r7
 80052ac:	aa2f      	add	r2, sp, #188	; 0xbc
 80052ae:	f8cd c018 	str.w	ip, [sp, #24]
 80052b2:	f7ff fb09 	bl	80048c8 <__sprint_r>
 80052b6:	f8dd c018 	ldr.w	ip, [sp, #24]
 80052ba:	2800      	cmp	r0, #0
 80052bc:	f040 82ef 	bne.w	800589e <_svfprintf_r+0xee2>
 80052c0:	ac15      	add	r4, sp, #84	; 0x54
 80052c2:	980d      	ldr	r0, [sp, #52]	; 0x34
 80052c4:	2880      	cmp	r0, #128	; 0x80
 80052c6:	d141      	bne.n	800534c <_svfprintf_r+0x990>
 80052c8:	990a      	ldr	r1, [sp, #40]	; 0x28
 80052ca:	9a0b      	ldr	r2, [sp, #44]	; 0x2c
 80052cc:	1a89      	subs	r1, r1, r2
 80052ce:	910d      	str	r1, [sp, #52]	; 0x34
 80052d0:	2900      	cmp	r1, #0
 80052d2:	dc1a      	bgt.n	800530a <_svfprintf_r+0x94e>
 80052d4:	e03a      	b.n	800534c <_svfprintf_r+0x990>
 80052d6:	6013      	str	r3, [r2, #0]
 80052d8:	2310      	movs	r3, #16
 80052da:	6053      	str	r3, [r2, #4]
 80052dc:	9b31      	ldr	r3, [sp, #196]	; 0xc4
 80052de:	3310      	adds	r3, #16
 80052e0:	9331      	str	r3, [sp, #196]	; 0xc4
 80052e2:	9b30      	ldr	r3, [sp, #192]	; 0xc0
 80052e4:	3301      	adds	r3, #1
 80052e6:	9330      	str	r3, [sp, #192]	; 0xc0
 80052e8:	2b07      	cmp	r3, #7
 80052ea:	dc01      	bgt.n	80052f0 <_svfprintf_r+0x934>
 80052ec:	3208      	adds	r2, #8
 80052ee:	e008      	b.n	8005302 <_svfprintf_r+0x946>
 80052f0:	4640      	mov	r0, r8
 80052f2:	4639      	mov	r1, r7
 80052f4:	aa2f      	add	r2, sp, #188	; 0xbc
 80052f6:	f7ff fae7 	bl	80048c8 <__sprint_r>
 80052fa:	2800      	cmp	r0, #0
 80052fc:	f040 82cf 	bne.w	800589e <_svfprintf_r+0xee2>
 8005300:	aa15      	add	r2, sp, #84	; 0x54
 8005302:	9b0d      	ldr	r3, [sp, #52]	; 0x34
 8005304:	3b10      	subs	r3, #16
 8005306:	930d      	str	r3, [sp, #52]	; 0x34
 8005308:	e001      	b.n	800530e <_svfprintf_r+0x952>
 800530a:	4622      	mov	r2, r4
 800530c:	4664      	mov	r4, ip
 800530e:	980d      	ldr	r0, [sp, #52]	; 0x34
 8005310:	4b8c      	ldr	r3, [pc, #560]	; (8005544 <_svfprintf_r+0xb88>)
 8005312:	2810      	cmp	r0, #16
 8005314:	dcdf      	bgt.n	80052d6 <_svfprintf_r+0x91a>
 8005316:	6050      	str	r0, [r2, #4]
 8005318:	46a4      	mov	ip, r4
 800531a:	6013      	str	r3, [r2, #0]
 800531c:	4614      	mov	r4, r2
 800531e:	9b31      	ldr	r3, [sp, #196]	; 0xc4
 8005320:	181b      	adds	r3, r3, r0
 8005322:	9331      	str	r3, [sp, #196]	; 0xc4
 8005324:	9b30      	ldr	r3, [sp, #192]	; 0xc0
 8005326:	3301      	adds	r3, #1
 8005328:	9330      	str	r3, [sp, #192]	; 0xc0
 800532a:	2b07      	cmp	r3, #7
 800532c:	dc01      	bgt.n	8005332 <_svfprintf_r+0x976>
 800532e:	3408      	adds	r4, #8
 8005330:	e00c      	b.n	800534c <_svfprintf_r+0x990>
 8005332:	4640      	mov	r0, r8
 8005334:	4639      	mov	r1, r7
 8005336:	aa2f      	add	r2, sp, #188	; 0xbc
 8005338:	f8cd c018 	str.w	ip, [sp, #24]
 800533c:	f7ff fac4 	bl	80048c8 <__sprint_r>
 8005340:	f8dd c018 	ldr.w	ip, [sp, #24]
 8005344:	2800      	cmp	r0, #0
 8005346:	f040 82aa 	bne.w	800589e <_svfprintf_r+0xee2>
 800534a:	ac15      	add	r4, sp, #84	; 0x54
 800534c:	ebcb 0c0c 	rsb	ip, fp, ip
 8005350:	f1bc 0f00 	cmp.w	ip, #0
 8005354:	dc18      	bgt.n	8005388 <_svfprintf_r+0x9cc>
 8005356:	e036      	b.n	80053c6 <_svfprintf_r+0xa0a>
 8005358:	6013      	str	r3, [r2, #0]
 800535a:	2310      	movs	r3, #16
 800535c:	6053      	str	r3, [r2, #4]
 800535e:	9b31      	ldr	r3, [sp, #196]	; 0xc4
 8005360:	3310      	adds	r3, #16
 8005362:	9331      	str	r3, [sp, #196]	; 0xc4
 8005364:	9b30      	ldr	r3, [sp, #192]	; 0xc0
 8005366:	3301      	adds	r3, #1
 8005368:	9330      	str	r3, [sp, #192]	; 0xc0
 800536a:	2b07      	cmp	r3, #7
 800536c:	dc01      	bgt.n	8005372 <_svfprintf_r+0x9b6>
 800536e:	3208      	adds	r2, #8
 8005370:	e008      	b.n	8005384 <_svfprintf_r+0x9c8>
 8005372:	4640      	mov	r0, r8
 8005374:	4639      	mov	r1, r7
 8005376:	aa2f      	add	r2, sp, #188	; 0xbc
 8005378:	f7ff faa6 	bl	80048c8 <__sprint_r>
 800537c:	2800      	cmp	r0, #0
 800537e:	f040 828e 	bne.w	800589e <_svfprintf_r+0xee2>
 8005382:	aa15      	add	r2, sp, #84	; 0x54
 8005384:	3d10      	subs	r5, #16
 8005386:	e002      	b.n	800538e <_svfprintf_r+0x9d2>
 8005388:	4622      	mov	r2, r4
 800538a:	462c      	mov	r4, r5
 800538c:	4665      	mov	r5, ip
 800538e:	2d10      	cmp	r5, #16
 8005390:	4b6c      	ldr	r3, [pc, #432]	; (8005544 <_svfprintf_r+0xb88>)
 8005392:	dce1      	bgt.n	8005358 <_svfprintf_r+0x99c>
 8005394:	46ac      	mov	ip, r5
 8005396:	f8c2 c004 	str.w	ip, [r2, #4]
 800539a:	6013      	str	r3, [r2, #0]
 800539c:	4625      	mov	r5, r4
 800539e:	9b31      	ldr	r3, [sp, #196]	; 0xc4
 80053a0:	4614      	mov	r4, r2
 80053a2:	4463      	add	r3, ip
 80053a4:	9331      	str	r3, [sp, #196]	; 0xc4
 80053a6:	9b30      	ldr	r3, [sp, #192]	; 0xc0
 80053a8:	3301      	adds	r3, #1
 80053aa:	9330      	str	r3, [sp, #192]	; 0xc0
 80053ac:	2b07      	cmp	r3, #7
 80053ae:	dc01      	bgt.n	80053b4 <_svfprintf_r+0x9f8>
 80053b0:	3408      	adds	r4, #8
 80053b2:	e008      	b.n	80053c6 <_svfprintf_r+0xa0a>
 80053b4:	4640      	mov	r0, r8
 80053b6:	4639      	mov	r1, r7
 80053b8:	aa2f      	add	r2, sp, #188	; 0xbc
 80053ba:	f7ff fa85 	bl	80048c8 <__sprint_r>
 80053be:	2800      	cmp	r0, #0
 80053c0:	f040 826d 	bne.w	800589e <_svfprintf_r+0xee2>
 80053c4:	ac15      	add	r4, sp, #84	; 0x54
 80053c6:	f416 7f80 	tst.w	r6, #256	; 0x100
 80053ca:	d106      	bne.n	80053da <_svfprintf_r+0xa1e>
 80053cc:	f8c4 b004 	str.w	fp, [r4, #4]
 80053d0:	9b31      	ldr	r3, [sp, #196]	; 0xc4
 80053d2:	f8c4 9000 	str.w	r9, [r4]
 80053d6:	445b      	add	r3, fp
 80053d8:	e202      	b.n	80057e0 <_svfprintf_r+0xe24>
 80053da:	f1ba 0f65 	cmp.w	sl, #101	; 0x65
 80053de:	f340 8176 	ble.w	80056ce <_svfprintf_r+0xd12>
 80053e2:	980c      	ldr	r0, [sp, #48]	; 0x30
 80053e4:	2200      	movs	r2, #0
 80053e6:	990f      	ldr	r1, [sp, #60]	; 0x3c
 80053e8:	2300      	movs	r3, #0
 80053ea:	f7ff f92b 	bl	8004644 <__aeabi_dcmpeq>
 80053ee:	2800      	cmp	r0, #0
 80053f0:	d05b      	beq.n	80054aa <_svfprintf_r+0xaee>
 80053f2:	4b55      	ldr	r3, [pc, #340]	; (8005548 <_svfprintf_r+0xb8c>)
 80053f4:	6023      	str	r3, [r4, #0]
 80053f6:	2301      	movs	r3, #1
 80053f8:	6063      	str	r3, [r4, #4]
 80053fa:	9b31      	ldr	r3, [sp, #196]	; 0xc4
 80053fc:	3301      	adds	r3, #1
 80053fe:	9331      	str	r3, [sp, #196]	; 0xc4
 8005400:	9b30      	ldr	r3, [sp, #192]	; 0xc0
 8005402:	3301      	adds	r3, #1
 8005404:	9330      	str	r3, [sp, #192]	; 0xc0
 8005406:	2b07      	cmp	r3, #7
 8005408:	dc02      	bgt.n	8005410 <_svfprintf_r+0xa54>
 800540a:	f104 0108 	add.w	r1, r4, #8
 800540e:	e008      	b.n	8005422 <_svfprintf_r+0xa66>
 8005410:	4640      	mov	r0, r8
 8005412:	4639      	mov	r1, r7
 8005414:	aa2f      	add	r2, sp, #188	; 0xbc
 8005416:	f7ff fa57 	bl	80048c8 <__sprint_r>
 800541a:	2800      	cmp	r0, #0
 800541c:	f040 823f 	bne.w	800589e <_svfprintf_r+0xee2>
 8005420:	a915      	add	r1, sp, #84	; 0x54
 8005422:	9b3a      	ldr	r3, [sp, #232]	; 0xe8
 8005424:	9a08      	ldr	r2, [sp, #32]
 8005426:	4293      	cmp	r3, r2
 8005428:	db03      	blt.n	8005432 <_svfprintf_r+0xa76>
 800542a:	f016 0f01 	tst.w	r6, #1
 800542e:	f000 81e8 	beq.w	8005802 <_svfprintf_r+0xe46>
 8005432:	9b10      	ldr	r3, [sp, #64]	; 0x40
 8005434:	600b      	str	r3, [r1, #0]
 8005436:	2301      	movs	r3, #1
 8005438:	604b      	str	r3, [r1, #4]
 800543a:	9b31      	ldr	r3, [sp, #196]	; 0xc4
 800543c:	3301      	adds	r3, #1
 800543e:	9331      	str	r3, [sp, #196]	; 0xc4
 8005440:	9b30      	ldr	r3, [sp, #192]	; 0xc0
 8005442:	3301      	adds	r3, #1
 8005444:	9330      	str	r3, [sp, #192]	; 0xc0
 8005446:	2b07      	cmp	r3, #7
 8005448:	dc01      	bgt.n	800544e <_svfprintf_r+0xa92>
 800544a:	3108      	adds	r1, #8
 800544c:	e008      	b.n	8005460 <_svfprintf_r+0xaa4>
 800544e:	4640      	mov	r0, r8
 8005450:	4639      	mov	r1, r7
 8005452:	aa2f      	add	r2, sp, #188	; 0xbc
 8005454:	f7ff fa38 	bl	80048c8 <__sprint_r>
 8005458:	2800      	cmp	r0, #0
 800545a:	f040 8220 	bne.w	800589e <_svfprintf_r+0xee2>
 800545e:	a915      	add	r1, sp, #84	; 0x54
 8005460:	9808      	ldr	r0, [sp, #32]
 8005462:	1e44      	subs	r4, r0, #1
 8005464:	2c00      	cmp	r4, #0
 8005466:	dc17      	bgt.n	8005498 <_svfprintf_r+0xadc>
 8005468:	e1cb      	b.n	8005802 <_svfprintf_r+0xe46>
 800546a:	600b      	str	r3, [r1, #0]
 800546c:	2310      	movs	r3, #16
 800546e:	604b      	str	r3, [r1, #4]
 8005470:	9b31      	ldr	r3, [sp, #196]	; 0xc4
 8005472:	3310      	adds	r3, #16
 8005474:	9331      	str	r3, [sp, #196]	; 0xc4
 8005476:	9b30      	ldr	r3, [sp, #192]	; 0xc0
 8005478:	3301      	adds	r3, #1
 800547a:	9330      	str	r3, [sp, #192]	; 0xc0
 800547c:	2b07      	cmp	r3, #7
 800547e:	dc01      	bgt.n	8005484 <_svfprintf_r+0xac8>
 8005480:	3108      	adds	r1, #8
 8005482:	e008      	b.n	8005496 <_svfprintf_r+0xada>
 8005484:	4640      	mov	r0, r8
 8005486:	4639      	mov	r1, r7
 8005488:	aa2f      	add	r2, sp, #188	; 0xbc
 800548a:	f7ff fa1d 	bl	80048c8 <__sprint_r>
 800548e:	2800      	cmp	r0, #0
 8005490:	f040 8205 	bne.w	800589e <_svfprintf_r+0xee2>
 8005494:	a915      	add	r1, sp, #84	; 0x54
 8005496:	3c10      	subs	r4, #16
 8005498:	2c10      	cmp	r4, #16
 800549a:	4b2a      	ldr	r3, [pc, #168]	; (8005544 <_svfprintf_r+0xb88>)
 800549c:	dce5      	bgt.n	800546a <_svfprintf_r+0xaae>
 800549e:	604c      	str	r4, [r1, #4]
 80054a0:	600b      	str	r3, [r1, #0]
 80054a2:	9b31      	ldr	r3, [sp, #196]	; 0xc4
 80054a4:	191c      	adds	r4, r3, r4
 80054a6:	9431      	str	r4, [sp, #196]	; 0xc4
 80054a8:	e109      	b.n	80056be <_svfprintf_r+0xd02>
 80054aa:	9b3a      	ldr	r3, [sp, #232]	; 0xe8
 80054ac:	2b00      	cmp	r3, #0
 80054ae:	dc75      	bgt.n	800559c <_svfprintf_r+0xbe0>
 80054b0:	4b25      	ldr	r3, [pc, #148]	; (8005548 <_svfprintf_r+0xb8c>)
 80054b2:	6023      	str	r3, [r4, #0]
 80054b4:	2301      	movs	r3, #1
 80054b6:	6063      	str	r3, [r4, #4]
 80054b8:	9b31      	ldr	r3, [sp, #196]	; 0xc4
 80054ba:	3301      	adds	r3, #1
 80054bc:	9331      	str	r3, [sp, #196]	; 0xc4
 80054be:	9b30      	ldr	r3, [sp, #192]	; 0xc0
 80054c0:	3301      	adds	r3, #1
 80054c2:	9330      	str	r3, [sp, #192]	; 0xc0
 80054c4:	2b07      	cmp	r3, #7
 80054c6:	dc02      	bgt.n	80054ce <_svfprintf_r+0xb12>
 80054c8:	f104 0108 	add.w	r1, r4, #8
 80054cc:	e008      	b.n	80054e0 <_svfprintf_r+0xb24>
 80054ce:	4640      	mov	r0, r8
 80054d0:	4639      	mov	r1, r7
 80054d2:	aa2f      	add	r2, sp, #188	; 0xbc
 80054d4:	f7ff f9f8 	bl	80048c8 <__sprint_r>
 80054d8:	2800      	cmp	r0, #0
 80054da:	f040 81e0 	bne.w	800589e <_svfprintf_r+0xee2>
 80054de:	a915      	add	r1, sp, #84	; 0x54
 80054e0:	9b3a      	ldr	r3, [sp, #232]	; 0xe8
 80054e2:	b92b      	cbnz	r3, 80054f0 <_svfprintf_r+0xb34>
 80054e4:	9a08      	ldr	r2, [sp, #32]
 80054e6:	b91a      	cbnz	r2, 80054f0 <_svfprintf_r+0xb34>
 80054e8:	f016 0f01 	tst.w	r6, #1
 80054ec:	f000 8189 	beq.w	8005802 <_svfprintf_r+0xe46>
 80054f0:	9b10      	ldr	r3, [sp, #64]	; 0x40
 80054f2:	600b      	str	r3, [r1, #0]
 80054f4:	2301      	movs	r3, #1
 80054f6:	604b      	str	r3, [r1, #4]
 80054f8:	9b31      	ldr	r3, [sp, #196]	; 0xc4
 80054fa:	3301      	adds	r3, #1
 80054fc:	9331      	str	r3, [sp, #196]	; 0xc4
 80054fe:	9b30      	ldr	r3, [sp, #192]	; 0xc0
 8005500:	3301      	adds	r3, #1
 8005502:	9330      	str	r3, [sp, #192]	; 0xc0
 8005504:	2b07      	cmp	r3, #7
 8005506:	dc01      	bgt.n	800550c <_svfprintf_r+0xb50>
 8005508:	3108      	adds	r1, #8
 800550a:	e008      	b.n	800551e <_svfprintf_r+0xb62>
 800550c:	4640      	mov	r0, r8
 800550e:	4639      	mov	r1, r7
 8005510:	aa2f      	add	r2, sp, #188	; 0xbc
 8005512:	f7ff f9d9 	bl	80048c8 <__sprint_r>
 8005516:	2800      	cmp	r0, #0
 8005518:	f040 81c1 	bne.w	800589e <_svfprintf_r+0xee2>
 800551c:	a915      	add	r1, sp, #84	; 0x54
 800551e:	9c3a      	ldr	r4, [sp, #232]	; 0xe8
 8005520:	4264      	negs	r4, r4
 8005522:	2c00      	cmp	r4, #0
 8005524:	dc1c      	bgt.n	8005560 <_svfprintf_r+0xba4>
 8005526:	e033      	b.n	8005590 <_svfprintf_r+0xbd4>
 8005528:	600b      	str	r3, [r1, #0]
 800552a:	2310      	movs	r3, #16
 800552c:	604b      	str	r3, [r1, #4]
 800552e:	9b31      	ldr	r3, [sp, #196]	; 0xc4
 8005530:	3310      	adds	r3, #16
 8005532:	9331      	str	r3, [sp, #196]	; 0xc4
 8005534:	9b30      	ldr	r3, [sp, #192]	; 0xc0
 8005536:	3301      	adds	r3, #1
 8005538:	9330      	str	r3, [sp, #192]	; 0xc0
 800553a:	2b07      	cmp	r3, #7
 800553c:	dc06      	bgt.n	800554c <_svfprintf_r+0xb90>
 800553e:	3108      	adds	r1, #8
 8005540:	e00d      	b.n	800555e <_svfprintf_r+0xba2>
 8005542:	bf00      	nop
 8005544:	080079c0 	.word	0x080079c0
 8005548:	08007a02 	.word	0x08007a02
 800554c:	4640      	mov	r0, r8
 800554e:	4639      	mov	r1, r7
 8005550:	aa2f      	add	r2, sp, #188	; 0xbc
 8005552:	f7ff f9b9 	bl	80048c8 <__sprint_r>
 8005556:	2800      	cmp	r0, #0
 8005558:	f040 81a1 	bne.w	800589e <_svfprintf_r+0xee2>
 800555c:	a915      	add	r1, sp, #84	; 0x54
 800555e:	3c10      	subs	r4, #16
 8005560:	2c10      	cmp	r4, #16
 8005562:	4b97      	ldr	r3, [pc, #604]	; (80057c0 <_svfprintf_r+0xe04>)
 8005564:	dce0      	bgt.n	8005528 <_svfprintf_r+0xb6c>
 8005566:	604c      	str	r4, [r1, #4]
 8005568:	600b      	str	r3, [r1, #0]
 800556a:	9b31      	ldr	r3, [sp, #196]	; 0xc4
 800556c:	191c      	adds	r4, r3, r4
 800556e:	9b30      	ldr	r3, [sp, #192]	; 0xc0
 8005570:	9431      	str	r4, [sp, #196]	; 0xc4
 8005572:	3301      	adds	r3, #1
 8005574:	9330      	str	r3, [sp, #192]	; 0xc0
 8005576:	2b07      	cmp	r3, #7
 8005578:	dc01      	bgt.n	800557e <_svfprintf_r+0xbc2>
 800557a:	3108      	adds	r1, #8
 800557c:	e008      	b.n	8005590 <_svfprintf_r+0xbd4>
 800557e:	4640      	mov	r0, r8
 8005580:	4639      	mov	r1, r7
 8005582:	aa2f      	add	r2, sp, #188	; 0xbc
 8005584:	f7ff f9a0 	bl	80048c8 <__sprint_r>
 8005588:	2800      	cmp	r0, #0
 800558a:	f040 8188 	bne.w	800589e <_svfprintf_r+0xee2>
 800558e:	a915      	add	r1, sp, #84	; 0x54
 8005590:	9808      	ldr	r0, [sp, #32]
 8005592:	f8c1 9000 	str.w	r9, [r1]
 8005596:	6048      	str	r0, [r1, #4]
 8005598:	9b31      	ldr	r3, [sp, #196]	; 0xc4
 800559a:	e08e      	b.n	80056ba <_svfprintf_r+0xcfe>
 800559c:	9908      	ldr	r1, [sp, #32]
 800559e:	f8c4 9000 	str.w	r9, [r4]
 80055a2:	428b      	cmp	r3, r1
 80055a4:	db54      	blt.n	8005650 <_svfprintf_r+0xc94>
 80055a6:	6061      	str	r1, [r4, #4]
 80055a8:	9b31      	ldr	r3, [sp, #196]	; 0xc4
 80055aa:	185b      	adds	r3, r3, r1
 80055ac:	9331      	str	r3, [sp, #196]	; 0xc4
 80055ae:	9b30      	ldr	r3, [sp, #192]	; 0xc0
 80055b0:	3301      	adds	r3, #1
 80055b2:	9330      	str	r3, [sp, #192]	; 0xc0
 80055b4:	2b07      	cmp	r3, #7
 80055b6:	dc02      	bgt.n	80055be <_svfprintf_r+0xc02>
 80055b8:	f104 0108 	add.w	r1, r4, #8
 80055bc:	e008      	b.n	80055d0 <_svfprintf_r+0xc14>
 80055be:	4640      	mov	r0, r8
 80055c0:	4639      	mov	r1, r7
 80055c2:	aa2f      	add	r2, sp, #188	; 0xbc
 80055c4:	f7ff f980 	bl	80048c8 <__sprint_r>
 80055c8:	2800      	cmp	r0, #0
 80055ca:	f040 8168 	bne.w	800589e <_svfprintf_r+0xee2>
 80055ce:	a915      	add	r1, sp, #84	; 0x54
 80055d0:	9c3a      	ldr	r4, [sp, #232]	; 0xe8
 80055d2:	9a08      	ldr	r2, [sp, #32]
 80055d4:	1aa4      	subs	r4, r4, r2
 80055d6:	2c00      	cmp	r4, #0
 80055d8:	dc17      	bgt.n	800560a <_svfprintf_r+0xc4e>
 80055da:	e02e      	b.n	800563a <_svfprintf_r+0xc7e>
 80055dc:	600b      	str	r3, [r1, #0]
 80055de:	2310      	movs	r3, #16
 80055e0:	604b      	str	r3, [r1, #4]
 80055e2:	9b31      	ldr	r3, [sp, #196]	; 0xc4
 80055e4:	3310      	adds	r3, #16
 80055e6:	9331      	str	r3, [sp, #196]	; 0xc4
 80055e8:	9b30      	ldr	r3, [sp, #192]	; 0xc0
 80055ea:	3301      	adds	r3, #1
 80055ec:	9330      	str	r3, [sp, #192]	; 0xc0
 80055ee:	2b07      	cmp	r3, #7
 80055f0:	dc01      	bgt.n	80055f6 <_svfprintf_r+0xc3a>
 80055f2:	3108      	adds	r1, #8
 80055f4:	e008      	b.n	8005608 <_svfprintf_r+0xc4c>
 80055f6:	4640      	mov	r0, r8
 80055f8:	4639      	mov	r1, r7
 80055fa:	aa2f      	add	r2, sp, #188	; 0xbc
 80055fc:	f7ff f964 	bl	80048c8 <__sprint_r>
 8005600:	2800      	cmp	r0, #0
 8005602:	f040 814c 	bne.w	800589e <_svfprintf_r+0xee2>
 8005606:	a915      	add	r1, sp, #84	; 0x54
 8005608:	3c10      	subs	r4, #16
 800560a:	2c10      	cmp	r4, #16
 800560c:	4b6c      	ldr	r3, [pc, #432]	; (80057c0 <_svfprintf_r+0xe04>)
 800560e:	dce5      	bgt.n	80055dc <_svfprintf_r+0xc20>
 8005610:	604c      	str	r4, [r1, #4]
 8005612:	600b      	str	r3, [r1, #0]
 8005614:	9b31      	ldr	r3, [sp, #196]	; 0xc4
 8005616:	191c      	adds	r4, r3, r4
 8005618:	9b30      	ldr	r3, [sp, #192]	; 0xc0
 800561a:	9431      	str	r4, [sp, #196]	; 0xc4
 800561c:	3301      	adds	r3, #1
 800561e:	9330      	str	r3, [sp, #192]	; 0xc0
 8005620:	2b07      	cmp	r3, #7
 8005622:	dc01      	bgt.n	8005628 <_svfprintf_r+0xc6c>
 8005624:	3108      	adds	r1, #8
 8005626:	e008      	b.n	800563a <_svfprintf_r+0xc7e>
 8005628:	4640      	mov	r0, r8
 800562a:	4639      	mov	r1, r7
 800562c:	aa2f      	add	r2, sp, #188	; 0xbc
 800562e:	f7ff f94b 	bl	80048c8 <__sprint_r>
 8005632:	2800      	cmp	r0, #0
 8005634:	f040 8133 	bne.w	800589e <_svfprintf_r+0xee2>
 8005638:	a915      	add	r1, sp, #84	; 0x54
 800563a:	f016 0f01 	tst.w	r6, #1
 800563e:	f000 80e0 	beq.w	8005802 <_svfprintf_r+0xe46>
 8005642:	9b10      	ldr	r3, [sp, #64]	; 0x40
 8005644:	600b      	str	r3, [r1, #0]
 8005646:	2301      	movs	r3, #1
 8005648:	604b      	str	r3, [r1, #4]
 800564a:	9b31      	ldr	r3, [sp, #196]	; 0xc4
 800564c:	3301      	adds	r3, #1
 800564e:	e035      	b.n	80056bc <_svfprintf_r+0xd00>
 8005650:	6063      	str	r3, [r4, #4]
 8005652:	9a31      	ldr	r2, [sp, #196]	; 0xc4
 8005654:	18d3      	adds	r3, r2, r3
 8005656:	9331      	str	r3, [sp, #196]	; 0xc4
 8005658:	9b30      	ldr	r3, [sp, #192]	; 0xc0
 800565a:	3301      	adds	r3, #1
 800565c:	9330      	str	r3, [sp, #192]	; 0xc0
 800565e:	2b07      	cmp	r3, #7
 8005660:	dc02      	bgt.n	8005668 <_svfprintf_r+0xcac>
 8005662:	f104 0108 	add.w	r1, r4, #8
 8005666:	e008      	b.n	800567a <_svfprintf_r+0xcbe>
 8005668:	4640      	mov	r0, r8
 800566a:	4639      	mov	r1, r7
 800566c:	aa2f      	add	r2, sp, #188	; 0xbc
 800566e:	f7ff f92b 	bl	80048c8 <__sprint_r>
 8005672:	2800      	cmp	r0, #0
 8005674:	f040 8113 	bne.w	800589e <_svfprintf_r+0xee2>
 8005678:	a915      	add	r1, sp, #84	; 0x54
 800567a:	2301      	movs	r3, #1
 800567c:	9c3a      	ldr	r4, [sp, #232]	; 0xe8
 800567e:	604b      	str	r3, [r1, #4]
 8005680:	9b31      	ldr	r3, [sp, #196]	; 0xc4
 8005682:	9810      	ldr	r0, [sp, #64]	; 0x40
 8005684:	3301      	adds	r3, #1
 8005686:	9331      	str	r3, [sp, #196]	; 0xc4
 8005688:	9b30      	ldr	r3, [sp, #192]	; 0xc0
 800568a:	6008      	str	r0, [r1, #0]
 800568c:	3301      	adds	r3, #1
 800568e:	9330      	str	r3, [sp, #192]	; 0xc0
 8005690:	2b07      	cmp	r3, #7
 8005692:	dc01      	bgt.n	8005698 <_svfprintf_r+0xcdc>
 8005694:	3108      	adds	r1, #8
 8005696:	e008      	b.n	80056aa <_svfprintf_r+0xcee>
 8005698:	4640      	mov	r0, r8
 800569a:	4639      	mov	r1, r7
 800569c:	aa2f      	add	r2, sp, #188	; 0xbc
 800569e:	f7ff f913 	bl	80048c8 <__sprint_r>
 80056a2:	2800      	cmp	r0, #0
 80056a4:	f040 80fb 	bne.w	800589e <_svfprintf_r+0xee2>
 80056a8:	a915      	add	r1, sp, #84	; 0x54
 80056aa:	9b3a      	ldr	r3, [sp, #232]	; 0xe8
 80056ac:	444c      	add	r4, r9
 80056ae:	9808      	ldr	r0, [sp, #32]
 80056b0:	600c      	str	r4, [r1, #0]
 80056b2:	1ac2      	subs	r2, r0, r3
 80056b4:	604a      	str	r2, [r1, #4]
 80056b6:	9a31      	ldr	r2, [sp, #196]	; 0xc4
 80056b8:	1ad3      	subs	r3, r2, r3
 80056ba:	181b      	adds	r3, r3, r0
 80056bc:	9331      	str	r3, [sp, #196]	; 0xc4
 80056be:	9b30      	ldr	r3, [sp, #192]	; 0xc0
 80056c0:	3301      	adds	r3, #1
 80056c2:	9330      	str	r3, [sp, #192]	; 0xc0
 80056c4:	2b07      	cmp	r3, #7
 80056c6:	f300 8094 	bgt.w	80057f2 <_svfprintf_r+0xe36>
 80056ca:	3108      	adds	r1, #8
 80056cc:	e099      	b.n	8005802 <_svfprintf_r+0xe46>
 80056ce:	9908      	ldr	r1, [sp, #32]
 80056d0:	2901      	cmp	r1, #1
 80056d2:	dc02      	bgt.n	80056da <_svfprintf_r+0xd1e>
 80056d4:	f016 0f01 	tst.w	r6, #1
 80056d8:	d063      	beq.n	80057a2 <_svfprintf_r+0xde6>
 80056da:	2301      	movs	r3, #1
 80056dc:	6063      	str	r3, [r4, #4]
 80056de:	9b31      	ldr	r3, [sp, #196]	; 0xc4
 80056e0:	f8c4 9000 	str.w	r9, [r4]
 80056e4:	3301      	adds	r3, #1
 80056e6:	9331      	str	r3, [sp, #196]	; 0xc4
 80056e8:	9b30      	ldr	r3, [sp, #192]	; 0xc0
 80056ea:	3301      	adds	r3, #1
 80056ec:	9330      	str	r3, [sp, #192]	; 0xc0
 80056ee:	2b07      	cmp	r3, #7
 80056f0:	dc01      	bgt.n	80056f6 <_svfprintf_r+0xd3a>
 80056f2:	3408      	adds	r4, #8
 80056f4:	e008      	b.n	8005708 <_svfprintf_r+0xd4c>
 80056f6:	4640      	mov	r0, r8
 80056f8:	4639      	mov	r1, r7
 80056fa:	aa2f      	add	r2, sp, #188	; 0xbc
 80056fc:	f7ff f8e4 	bl	80048c8 <__sprint_r>
 8005700:	2800      	cmp	r0, #0
 8005702:	f040 80cc 	bne.w	800589e <_svfprintf_r+0xee2>
 8005706:	ac15      	add	r4, sp, #84	; 0x54
 8005708:	2301      	movs	r3, #1
 800570a:	6063      	str	r3, [r4, #4]
 800570c:	9b31      	ldr	r3, [sp, #196]	; 0xc4
 800570e:	9a10      	ldr	r2, [sp, #64]	; 0x40
 8005710:	3301      	adds	r3, #1
 8005712:	9331      	str	r3, [sp, #196]	; 0xc4
 8005714:	9b30      	ldr	r3, [sp, #192]	; 0xc0
 8005716:	6022      	str	r2, [r4, #0]
 8005718:	3301      	adds	r3, #1
 800571a:	9330      	str	r3, [sp, #192]	; 0xc0
 800571c:	2b07      	cmp	r3, #7
 800571e:	dc01      	bgt.n	8005724 <_svfprintf_r+0xd68>
 8005720:	3408      	adds	r4, #8
 8005722:	e008      	b.n	8005736 <_svfprintf_r+0xd7a>
 8005724:	4640      	mov	r0, r8
 8005726:	4639      	mov	r1, r7
 8005728:	aa2f      	add	r2, sp, #188	; 0xbc
 800572a:	f7ff f8cd 	bl	80048c8 <__sprint_r>
 800572e:	2800      	cmp	r0, #0
 8005730:	f040 80b5 	bne.w	800589e <_svfprintf_r+0xee2>
 8005734:	ac15      	add	r4, sp, #84	; 0x54
 8005736:	990f      	ldr	r1, [sp, #60]	; 0x3c
 8005738:	2300      	movs	r3, #0
 800573a:	980c      	ldr	r0, [sp, #48]	; 0x30
 800573c:	2200      	movs	r2, #0
 800573e:	f7fe ff81 	bl	8004644 <__aeabi_dcmpeq>
 8005742:	9908      	ldr	r1, [sp, #32]
 8005744:	1e4b      	subs	r3, r1, #1
 8005746:	b930      	cbnz	r0, 8005756 <_svfprintf_r+0xd9a>
 8005748:	6063      	str	r3, [r4, #4]
 800574a:	f109 0201 	add.w	r2, r9, #1
 800574e:	6022      	str	r2, [r4, #0]
 8005750:	9a31      	ldr	r2, [sp, #196]	; 0xc4
 8005752:	18d3      	adds	r3, r2, r3
 8005754:	e02b      	b.n	80057ae <_svfprintf_r+0xdf2>
 8005756:	f1b3 0a00 	subs.w	sl, r3, #0
 800575a:	dc18      	bgt.n	800578e <_svfprintf_r+0xdd2>
 800575c:	e03a      	b.n	80057d4 <_svfprintf_r+0xe18>
 800575e:	6023      	str	r3, [r4, #0]
 8005760:	2310      	movs	r3, #16
 8005762:	6063      	str	r3, [r4, #4]
 8005764:	9b31      	ldr	r3, [sp, #196]	; 0xc4
 8005766:	3310      	adds	r3, #16
 8005768:	9331      	str	r3, [sp, #196]	; 0xc4
 800576a:	9b30      	ldr	r3, [sp, #192]	; 0xc0
 800576c:	3301      	adds	r3, #1
 800576e:	9330      	str	r3, [sp, #192]	; 0xc0
 8005770:	2b07      	cmp	r3, #7
 8005772:	dc01      	bgt.n	8005778 <_svfprintf_r+0xdbc>
 8005774:	3408      	adds	r4, #8
 8005776:	e008      	b.n	800578a <_svfprintf_r+0xdce>
 8005778:	4640      	mov	r0, r8
 800577a:	4639      	mov	r1, r7
 800577c:	aa2f      	add	r2, sp, #188	; 0xbc
 800577e:	f7ff f8a3 	bl	80048c8 <__sprint_r>
 8005782:	2800      	cmp	r0, #0
 8005784:	f040 808b 	bne.w	800589e <_svfprintf_r+0xee2>
 8005788:	ac15      	add	r4, sp, #84	; 0x54
 800578a:	f1aa 0a10 	sub.w	sl, sl, #16
 800578e:	f1ba 0f10 	cmp.w	sl, #16
 8005792:	4b0b      	ldr	r3, [pc, #44]	; (80057c0 <_svfprintf_r+0xe04>)
 8005794:	dce3      	bgt.n	800575e <_svfprintf_r+0xda2>
 8005796:	f8c4 a004 	str.w	sl, [r4, #4]
 800579a:	6023      	str	r3, [r4, #0]
 800579c:	9b31      	ldr	r3, [sp, #196]	; 0xc4
 800579e:	4453      	add	r3, sl
 80057a0:	e005      	b.n	80057ae <_svfprintf_r+0xdf2>
 80057a2:	2301      	movs	r3, #1
 80057a4:	6063      	str	r3, [r4, #4]
 80057a6:	9b31      	ldr	r3, [sp, #196]	; 0xc4
 80057a8:	f8c4 9000 	str.w	r9, [r4]
 80057ac:	3301      	adds	r3, #1
 80057ae:	9331      	str	r3, [sp, #196]	; 0xc4
 80057b0:	9b30      	ldr	r3, [sp, #192]	; 0xc0
 80057b2:	3301      	adds	r3, #1
 80057b4:	9330      	str	r3, [sp, #192]	; 0xc0
 80057b6:	2b07      	cmp	r3, #7
 80057b8:	dc04      	bgt.n	80057c4 <_svfprintf_r+0xe08>
 80057ba:	3408      	adds	r4, #8
 80057bc:	e00a      	b.n	80057d4 <_svfprintf_r+0xe18>
 80057be:	bf00      	nop
 80057c0:	080079c0 	.word	0x080079c0
 80057c4:	4640      	mov	r0, r8
 80057c6:	4639      	mov	r1, r7
 80057c8:	aa2f      	add	r2, sp, #188	; 0xbc
 80057ca:	f7ff f87d 	bl	80048c8 <__sprint_r>
 80057ce:	2800      	cmp	r0, #0
 80057d0:	d165      	bne.n	800589e <_svfprintf_r+0xee2>
 80057d2:	ac15      	add	r4, sp, #84	; 0x54
 80057d4:	9a12      	ldr	r2, [sp, #72]	; 0x48
 80057d6:	ab36      	add	r3, sp, #216	; 0xd8
 80057d8:	6023      	str	r3, [r4, #0]
 80057da:	6062      	str	r2, [r4, #4]
 80057dc:	9b31      	ldr	r3, [sp, #196]	; 0xc4
 80057de:	189b      	adds	r3, r3, r2
 80057e0:	9331      	str	r3, [sp, #196]	; 0xc4
 80057e2:	9b30      	ldr	r3, [sp, #192]	; 0xc0
 80057e4:	3301      	adds	r3, #1
 80057e6:	9330      	str	r3, [sp, #192]	; 0xc0
 80057e8:	2b07      	cmp	r3, #7
 80057ea:	dc02      	bgt.n	80057f2 <_svfprintf_r+0xe36>
 80057ec:	f104 0108 	add.w	r1, r4, #8
 80057f0:	e007      	b.n	8005802 <_svfprintf_r+0xe46>
 80057f2:	4640      	mov	r0, r8
 80057f4:	4639      	mov	r1, r7
 80057f6:	aa2f      	add	r2, sp, #188	; 0xbc
 80057f8:	f7ff f866 	bl	80048c8 <__sprint_r>
 80057fc:	2800      	cmp	r0, #0
 80057fe:	d14e      	bne.n	800589e <_svfprintf_r+0xee2>
 8005800:	a915      	add	r1, sp, #84	; 0x54
 8005802:	f016 0f04 	tst.w	r6, #4
 8005806:	d02e      	beq.n	8005866 <_svfprintf_r+0xeaa>
 8005808:	9b0a      	ldr	r3, [sp, #40]	; 0x28
 800580a:	980b      	ldr	r0, [sp, #44]	; 0x2c
 800580c:	1a1e      	subs	r6, r3, r0
 800580e:	2e00      	cmp	r6, #0
 8005810:	dc16      	bgt.n	8005840 <_svfprintf_r+0xe84>
 8005812:	e028      	b.n	8005866 <_svfprintf_r+0xeaa>
 8005814:	2310      	movs	r3, #16
 8005816:	604b      	str	r3, [r1, #4]
 8005818:	9b31      	ldr	r3, [sp, #196]	; 0xc4
 800581a:	600a      	str	r2, [r1, #0]
 800581c:	3310      	adds	r3, #16
 800581e:	9331      	str	r3, [sp, #196]	; 0xc4
 8005820:	9b30      	ldr	r3, [sp, #192]	; 0xc0
 8005822:	3301      	adds	r3, #1
 8005824:	9330      	str	r3, [sp, #192]	; 0xc0
 8005826:	2b07      	cmp	r3, #7
 8005828:	dc01      	bgt.n	800582e <_svfprintf_r+0xe72>
 800582a:	3108      	adds	r1, #8
 800582c:	e007      	b.n	800583e <_svfprintf_r+0xe82>
 800582e:	4640      	mov	r0, r8
 8005830:	4639      	mov	r1, r7
 8005832:	aa2f      	add	r2, sp, #188	; 0xbc
 8005834:	f7ff f848 	bl	80048c8 <__sprint_r>
 8005838:	2800      	cmp	r0, #0
 800583a:	d130      	bne.n	800589e <_svfprintf_r+0xee2>
 800583c:	a915      	add	r1, sp, #84	; 0x54
 800583e:	3e10      	subs	r6, #16
 8005840:	2e10      	cmp	r6, #16
 8005842:	4a1d      	ldr	r2, [pc, #116]	; (80058b8 <_svfprintf_r+0xefc>)
 8005844:	dce6      	bgt.n	8005814 <_svfprintf_r+0xe58>
 8005846:	604e      	str	r6, [r1, #4]
 8005848:	9b31      	ldr	r3, [sp, #196]	; 0xc4
 800584a:	600a      	str	r2, [r1, #0]
 800584c:	199e      	adds	r6, r3, r6
 800584e:	9b30      	ldr	r3, [sp, #192]	; 0xc0
 8005850:	9631      	str	r6, [sp, #196]	; 0xc4
 8005852:	3301      	adds	r3, #1
 8005854:	9330      	str	r3, [sp, #192]	; 0xc0
 8005856:	2b07      	cmp	r3, #7
 8005858:	dd05      	ble.n	8005866 <_svfprintf_r+0xeaa>
 800585a:	4640      	mov	r0, r8
 800585c:	4639      	mov	r1, r7
 800585e:	aa2f      	add	r2, sp, #188	; 0xbc
 8005860:	f7ff f832 	bl	80048c8 <__sprint_r>
 8005864:	b9d8      	cbnz	r0, 800589e <_svfprintf_r+0xee2>
 8005866:	990e      	ldr	r1, [sp, #56]	; 0x38
 8005868:	9b0b      	ldr	r3, [sp, #44]	; 0x2c
 800586a:	9a0a      	ldr	r2, [sp, #40]	; 0x28
 800586c:	4293      	cmp	r3, r2
 800586e:	bfac      	ite	ge
 8005870:	18c9      	addge	r1, r1, r3
 8005872:	1889      	addlt	r1, r1, r2
 8005874:	9b31      	ldr	r3, [sp, #196]	; 0xc4
 8005876:	910e      	str	r1, [sp, #56]	; 0x38
 8005878:	b12b      	cbz	r3, 8005886 <_svfprintf_r+0xeca>
 800587a:	4640      	mov	r0, r8
 800587c:	4639      	mov	r1, r7
 800587e:	aa2f      	add	r2, sp, #188	; 0xbc
 8005880:	f7ff f822 	bl	80048c8 <__sprint_r>
 8005884:	b958      	cbnz	r0, 800589e <_svfprintf_r+0xee2>
 8005886:	2300      	movs	r3, #0
 8005888:	ac15      	add	r4, sp, #84	; 0x54
 800588a:	9330      	str	r3, [sp, #192]	; 0xc0
 800588c:	f7ff b8c4 	b.w	8004a18 <_svfprintf_r+0x5c>
 8005890:	9b31      	ldr	r3, [sp, #196]	; 0xc4
 8005892:	b123      	cbz	r3, 800589e <_svfprintf_r+0xee2>
 8005894:	4640      	mov	r0, r8
 8005896:	4639      	mov	r1, r7
 8005898:	aa2f      	add	r2, sp, #188	; 0xbc
 800589a:	f7ff f815 	bl	80048c8 <__sprint_r>
 800589e:	89bb      	ldrh	r3, [r7, #12]
 80058a0:	980e      	ldr	r0, [sp, #56]	; 0x38
 80058a2:	f003 0340 	and.w	r3, r3, #64	; 0x40
 80058a6:	2b00      	cmp	r3, #0
 80058a8:	bf18      	it	ne
 80058aa:	f04f 30ff 	movne.w	r0, #4294967295
 80058ae:	900e      	str	r0, [sp, #56]	; 0x38
 80058b0:	980e      	ldr	r0, [sp, #56]	; 0x38
 80058b2:	b03d      	add	sp, #244	; 0xf4
 80058b4:	e8bd 8ff0 	ldmia.w	sp!, {r4, r5, r6, r7, r8, r9, sl, fp, pc}
 80058b8:	08007a04 	.word	0x08007a04

080058bc <quorem>:
 80058bc:	e92d 4ff7 	stmdb	sp!, {r0, r1, r2, r4, r5, r6, r7, r8, r9, sl, fp, lr}
 80058c0:	690b      	ldr	r3, [r1, #16]
 80058c2:	6902      	ldr	r2, [r0, #16]
 80058c4:	4604      	mov	r4, r0
 80058c6:	468a      	mov	sl, r1
 80058c8:	429a      	cmp	r2, r3
 80058ca:	da01      	bge.n	80058d0 <quorem+0x14>
 80058cc:	2000      	movs	r0, #0
 80058ce:	e07e      	b.n	80059ce <quorem+0x112>
 80058d0:	1e5d      	subs	r5, r3, #1
 80058d2:	3303      	adds	r3, #3
 80058d4:	f101 0814 	add.w	r8, r1, #20
 80058d8:	f100 0614 	add.w	r6, r0, #20
 80058dc:	009b      	lsls	r3, r3, #2
 80058de:	18ca      	adds	r2, r1, r3
 80058e0:	18c3      	adds	r3, r0, r3
 80058e2:	f102 0b04 	add.w	fp, r2, #4
 80058e6:	f103 0904 	add.w	r9, r3, #4
 80058ea:	6851      	ldr	r1, [r2, #4]
 80058ec:	6858      	ldr	r0, [r3, #4]
 80058ee:	3101      	adds	r1, #1
 80058f0:	f7fd fff2 	bl	80038d8 <__aeabi_uidiv>
 80058f4:	4607      	mov	r7, r0
 80058f6:	2800      	cmp	r0, #0
 80058f8:	d036      	beq.n	8005968 <quorem+0xac>
 80058fa:	2300      	movs	r3, #0
 80058fc:	9401      	str	r4, [sp, #4]
 80058fe:	4619      	mov	r1, r3
 8005900:	461a      	mov	r2, r3
 8005902:	f858 0003 	ldr.w	r0, [r8, r3]
 8005906:	f836 e003 	ldrh.w	lr, [r6, r3]
 800590a:	fa1f fc80 	uxth.w	ip, r0
 800590e:	4472      	add	r2, lr
 8005910:	0c00      	lsrs	r0, r0, #16
 8005912:	4378      	muls	r0, r7
 8005914:	fb0c 1c07 	mla	ip, ip, r7, r1
 8005918:	eb00 401c 	add.w	r0, r0, ip, lsr #16
 800591c:	fa1f fc8c 	uxth.w	ip, ip
 8005920:	ebcc 0c02 	rsb	ip, ip, r2
 8005924:	58f2      	ldr	r2, [r6, r3]
 8005926:	0c01      	lsrs	r1, r0, #16
 8005928:	b280      	uxth	r0, r0
 800592a:	ebc0 4012 	rsb	r0, r0, r2, lsr #16
 800592e:	eb00 402c 	add.w	r0, r0, ip, asr #16
 8005932:	fa1f fc8c 	uxth.w	ip, ip
 8005936:	1402      	asrs	r2, r0, #16
 8005938:	ea4c 4000 	orr.w	r0, ip, r0, lsl #16
 800593c:	50f0      	str	r0, [r6, r3]
 800593e:	3304      	adds	r3, #4
 8005940:	eb03 0008 	add.w	r0, r3, r8
 8005944:	4558      	cmp	r0, fp
 8005946:	d9dc      	bls.n	8005902 <quorem+0x46>
 8005948:	9c01      	ldr	r4, [sp, #4]
 800594a:	eb04 0385 	add.w	r3, r4, r5, lsl #2
 800594e:	695b      	ldr	r3, [r3, #20]
 8005950:	b113      	cbz	r3, 8005958 <quorem+0x9c>
 8005952:	e009      	b.n	8005968 <quorem+0xac>
 8005954:	3d01      	subs	r5, #1
 8005956:	e000      	b.n	800595a <quorem+0x9e>
 8005958:	464b      	mov	r3, r9
 800595a:	3b04      	subs	r3, #4
 800595c:	42b3      	cmp	r3, r6
 800595e:	d902      	bls.n	8005966 <quorem+0xaa>
 8005960:	681a      	ldr	r2, [r3, #0]
 8005962:	2a00      	cmp	r2, #0
 8005964:	d0f6      	beq.n	8005954 <quorem+0x98>
 8005966:	6125      	str	r5, [r4, #16]
 8005968:	4620      	mov	r0, r4
 800596a:	4651      	mov	r1, sl
 800596c:	f001 f9f1 	bl	8006d52 <__mcmp>
 8005970:	2800      	cmp	r0, #0
 8005972:	db2b      	blt.n	80059cc <quorem+0x110>
 8005974:	2300      	movs	r3, #0
 8005976:	3701      	adds	r7, #1
 8005978:	461a      	mov	r2, r3
 800597a:	f858 c003 	ldr.w	ip, [r8, r3]
 800597e:	58f1      	ldr	r1, [r6, r3]
 8005980:	fa1f f08c 	uxth.w	r0, ip
 8005984:	ea4f 4c1c 	mov.w	ip, ip, lsr #16
 8005988:	fa1f fa81 	uxth.w	sl, r1
 800598c:	ebcc 4111 	rsb	r1, ip, r1, lsr #16
 8005990:	ebc0 000a 	rsb	r0, r0, sl
 8005994:	1880      	adds	r0, r0, r2
 8005996:	eb01 4120 	add.w	r1, r1, r0, asr #16
 800599a:	b280      	uxth	r0, r0
 800599c:	140a      	asrs	r2, r1, #16
 800599e:	ea40 4101 	orr.w	r1, r0, r1, lsl #16
 80059a2:	50f1      	str	r1, [r6, r3]
 80059a4:	3304      	adds	r3, #4
 80059a6:	eb03 0108 	add.w	r1, r3, r8
 80059aa:	4559      	cmp	r1, fp
 80059ac:	d9e5      	bls.n	800597a <quorem+0xbe>
 80059ae:	1d2a      	adds	r2, r5, #4
 80059b0:	eb04 0282 	add.w	r2, r4, r2, lsl #2
 80059b4:	1d13      	adds	r3, r2, #4
 80059b6:	6852      	ldr	r2, [r2, #4]
 80059b8:	b10a      	cbz	r2, 80059be <quorem+0x102>
 80059ba:	e007      	b.n	80059cc <quorem+0x110>
 80059bc:	3d01      	subs	r5, #1
 80059be:	3b04      	subs	r3, #4
 80059c0:	42b3      	cmp	r3, r6
 80059c2:	d902      	bls.n	80059ca <quorem+0x10e>
 80059c4:	681a      	ldr	r2, [r3, #0]
 80059c6:	2a00      	cmp	r2, #0
 80059c8:	d0f8      	beq.n	80059bc <quorem+0x100>
 80059ca:	6125      	str	r5, [r4, #16]
 80059cc:	4638      	mov	r0, r7
 80059ce:	e8bd 8ffe 	ldmia.w	sp!, {r1, r2, r3, r4, r5, r6, r7, r8, r9, sl, fp, pc}
 80059d2:	0000      	lsls	r0, r0, #0
 80059d4:	0000      	lsls	r0, r0, #0
	...

080059d8 <_dtoa_r>:
 80059d8:	e92d 4ff0 	stmdb	sp!, {r4, r5, r6, r7, r8, r9, sl, fp, lr}
 80059dc:	4604      	mov	r4, r0
 80059de:	b09b      	sub	sp, #108	; 0x6c
 80059e0:	4610      	mov	r0, r2
 80059e2:	6a66      	ldr	r6, [r4, #36]	; 0x24
 80059e4:	4619      	mov	r1, r3
 80059e6:	9d27      	ldr	r5, [sp, #156]	; 0x9c
 80059e8:	e9cd 0104 	strd	r0, r1, [sp, #16]
 80059ec:	b93e      	cbnz	r6, 80059fe <_dtoa_r+0x26>
 80059ee:	2010      	movs	r0, #16
 80059f0:	f000 ff0c 	bl	800680c <malloc>
 80059f4:	6260      	str	r0, [r4, #36]	; 0x24
 80059f6:	6046      	str	r6, [r0, #4]
 80059f8:	6086      	str	r6, [r0, #8]
 80059fa:	6006      	str	r6, [r0, #0]
 80059fc:	60c6      	str	r6, [r0, #12]
 80059fe:	6a63      	ldr	r3, [r4, #36]	; 0x24
 8005a00:	6819      	ldr	r1, [r3, #0]
 8005a02:	b161      	cbz	r1, 8005a1e <_dtoa_r+0x46>
 8005a04:	685a      	ldr	r2, [r3, #4]
 8005a06:	4620      	mov	r0, r4
 8005a08:	604a      	str	r2, [r1, #4]
 8005a0a:	2201      	movs	r2, #1
 8005a0c:	685b      	ldr	r3, [r3, #4]
 8005a0e:	fa12 f303 	lsls.w	r3, r2, r3
 8005a12:	608b      	str	r3, [r1, #8]
 8005a14:	f001 fab1 	bl	8006f7a <_Bfree>
 8005a18:	6a63      	ldr	r3, [r4, #36]	; 0x24
 8005a1a:	2200      	movs	r2, #0
 8005a1c:	601a      	str	r2, [r3, #0]
 8005a1e:	9b05      	ldr	r3, [sp, #20]
 8005a20:	2b00      	cmp	r3, #0
 8005a22:	da05      	bge.n	8005a30 <_dtoa_r+0x58>
 8005a24:	2201      	movs	r2, #1
 8005a26:	f023 4300 	bic.w	r3, r3, #2147483648	; 0x80000000
 8005a2a:	602a      	str	r2, [r5, #0]
 8005a2c:	9305      	str	r3, [sp, #20]
 8005a2e:	e001      	b.n	8005a34 <_dtoa_r+0x5c>
 8005a30:	2300      	movs	r3, #0
 8005a32:	602b      	str	r3, [r5, #0]
 8005a34:	9e05      	ldr	r6, [sp, #20]
 8005a36:	4b98      	ldr	r3, [pc, #608]	; (8005c98 <_dtoa_r+0x2c0>)
 8005a38:	4a97      	ldr	r2, [pc, #604]	; (8005c98 <_dtoa_r+0x2c0>)
 8005a3a:	ea06 0303 	and.w	r3, r6, r3
 8005a3e:	4293      	cmp	r3, r2
 8005a40:	d11a      	bne.n	8005a78 <_dtoa_r+0xa0>
 8005a42:	9926      	ldr	r1, [sp, #152]	; 0x98
 8005a44:	f242 730f 	movw	r3, #9999	; 0x270f
 8005a48:	9a04      	ldr	r2, [sp, #16]
 8005a4a:	600b      	str	r3, [r1, #0]
 8005a4c:	b932      	cbnz	r2, 8005a5c <_dtoa_r+0x84>
 8005a4e:	f026 467f 	bic.w	r6, r6, #4278190080	; 0xff000000
 8005a52:	f426 0670 	bic.w	r6, r6, #15728640	; 0xf00000
 8005a56:	b90e      	cbnz	r6, 8005a5c <_dtoa_r+0x84>
 8005a58:	4890      	ldr	r0, [pc, #576]	; (8005c9c <_dtoa_r+0x2c4>)
 8005a5a:	e000      	b.n	8005a5e <_dtoa_r+0x86>
 8005a5c:	4890      	ldr	r0, [pc, #576]	; (8005ca0 <_dtoa_r+0x2c8>)
 8005a5e:	9b28      	ldr	r3, [sp, #160]	; 0xa0
 8005a60:	2b00      	cmp	r3, #0
 8005a62:	f000 8577 	beq.w	8006554 <_dtoa_r+0xb7c>
 8005a66:	78c2      	ldrb	r2, [r0, #3]
 8005a68:	1cc3      	adds	r3, r0, #3
 8005a6a:	b10a      	cbz	r2, 8005a70 <_dtoa_r+0x98>
 8005a6c:	f100 0308 	add.w	r3, r0, #8
 8005a70:	9928      	ldr	r1, [sp, #160]	; 0xa0
 8005a72:	600b      	str	r3, [r1, #0]
 8005a74:	f000 bd6e 	b.w	8006554 <_dtoa_r+0xb7c>
 8005a78:	e9dd 2304 	ldrd	r2, r3, [sp, #16]
 8005a7c:	4610      	mov	r0, r2
 8005a7e:	4619      	mov	r1, r3
 8005a80:	e9cd 2310 	strd	r2, r3, [sp, #64]	; 0x40
 8005a84:	2200      	movs	r2, #0
 8005a86:	2300      	movs	r3, #0
 8005a88:	f7fe fddc 	bl	8004644 <__aeabi_dcmpeq>
 8005a8c:	b168      	cbz	r0, 8005aaa <_dtoa_r+0xd2>
 8005a8e:	9826      	ldr	r0, [sp, #152]	; 0x98
 8005a90:	2301      	movs	r3, #1
 8005a92:	9928      	ldr	r1, [sp, #160]	; 0xa0
 8005a94:	6003      	str	r3, [r0, #0]
 8005a96:	b911      	cbnz	r1, 8005a9e <_dtoa_r+0xc6>
 8005a98:	4882      	ldr	r0, [pc, #520]	; (8005ca4 <_dtoa_r+0x2cc>)
 8005a9a:	f000 bd5b 	b.w	8006554 <_dtoa_r+0xb7c>
 8005a9e:	4882      	ldr	r0, [pc, #520]	; (8005ca8 <_dtoa_r+0x2d0>)
 8005aa0:	9a28      	ldr	r2, [sp, #160]	; 0xa0
 8005aa2:	6010      	str	r0, [r2, #0]
 8005aa4:	3801      	subs	r0, #1
 8005aa6:	f000 bd55 	b.w	8006554 <_dtoa_r+0xb7c>
 8005aaa:	ab18      	add	r3, sp, #96	; 0x60
 8005aac:	4620      	mov	r0, r4
 8005aae:	9300      	str	r3, [sp, #0]
 8005ab0:	ab19      	add	r3, sp, #100	; 0x64
 8005ab2:	9301      	str	r3, [sp, #4]
 8005ab4:	0d35      	lsrs	r5, r6, #20
 8005ab6:	e9dd 2310 	ldrd	r2, r3, [sp, #64]	; 0x40
 8005aba:	f001 faa8 	bl	800700e <__d2b>
 8005abe:	056d      	lsls	r5, r5, #21
 8005ac0:	0d6d      	lsrs	r5, r5, #21
 8005ac2:	4680      	mov	r8, r0
 8005ac4:	b17d      	cbz	r5, 8005ae6 <_dtoa_r+0x10e>
 8005ac6:	e9dd 0110 	ldrd	r0, r1, [sp, #64]	; 0x40
 8005aca:	f5a5 757e 	sub.w	r5, r5, #1016	; 0x3f8
 8005ace:	3d07      	subs	r5, #7
 8005ad0:	f021 437f 	bic.w	r3, r1, #4278190080	; 0xff000000
 8005ad4:	f423 0370 	bic.w	r3, r3, #15728640	; 0xf00000
 8005ad8:	f043 517e 	orr.w	r1, r3, #1065353216	; 0x3f800000
 8005adc:	2300      	movs	r3, #0
 8005ade:	f441 01e0 	orr.w	r1, r1, #7340032	; 0x700000
 8005ae2:	9317      	str	r3, [sp, #92]	; 0x5c
 8005ae4:	e01f      	b.n	8005b26 <_dtoa_r+0x14e>
 8005ae6:	9b18      	ldr	r3, [sp, #96]	; 0x60
 8005ae8:	9819      	ldr	r0, [sp, #100]	; 0x64
 8005aea:	18c0      	adds	r0, r0, r3
 8005aec:	f500 6086 	add.w	r0, r0, #1072	; 0x430
 8005af0:	1c85      	adds	r5, r0, #2
 8005af2:	2d20      	cmp	r5, #32
 8005af4:	dd09      	ble.n	8005b0a <_dtoa_r+0x132>
 8005af6:	f8dd c010 	ldr.w	ip, [sp, #16]
 8005afa:	381e      	subs	r0, #30
 8005afc:	f1c5 0340 	rsb	r3, r5, #64	; 0x40
 8005b00:	409e      	lsls	r6, r3
 8005b02:	fa2c f000 	lsr.w	r0, ip, r0
 8005b06:	4330      	orrs	r0, r6
 8005b08:	e004      	b.n	8005b14 <_dtoa_r+0x13c>
 8005b0a:	9904      	ldr	r1, [sp, #16]
 8005b0c:	f1c5 0020 	rsb	r0, r5, #32
 8005b10:	fa11 f000 	lsls.w	r0, r1, r0
 8005b14:	f7fe fab8 	bl	8004088 <__aeabi_ui2d>
 8005b18:	f5a5 6586 	sub.w	r5, r5, #1072	; 0x430
 8005b1c:	3d03      	subs	r5, #3
 8005b1e:	2201      	movs	r2, #1
 8005b20:	9217      	str	r2, [sp, #92]	; 0x5c
 8005b22:	f1a1 71f8 	sub.w	r1, r1, #32505856	; 0x1f00000
 8005b26:	2200      	movs	r2, #0
 8005b28:	4b60      	ldr	r3, [pc, #384]	; (8005cac <_dtoa_r+0x2d4>)
 8005b2a:	f7fe f96f 	bl	8003e0c <__aeabi_dsub>
 8005b2e:	a354      	add	r3, pc, #336	; (adr r3, 8005c80 <_dtoa_r+0x2a8>)
 8005b30:	e9d3 2300 	ldrd	r2, r3, [r3]
 8005b34:	f7fe fb1e 	bl	8004174 <__aeabi_dmul>
 8005b38:	a353      	add	r3, pc, #332	; (adr r3, 8005c88 <_dtoa_r+0x2b0>)
 8005b3a:	e9d3 2300 	ldrd	r2, r3, [r3]
 8005b3e:	f7fe f967 	bl	8003e10 <__adddf3>
 8005b42:	4606      	mov	r6, r0
 8005b44:	4628      	mov	r0, r5
 8005b46:	460f      	mov	r7, r1
 8005b48:	f7fe faae 	bl	80040a8 <__aeabi_i2d>
 8005b4c:	a350      	add	r3, pc, #320	; (adr r3, 8005c90 <_dtoa_r+0x2b8>)
 8005b4e:	e9d3 2300 	ldrd	r2, r3, [r3]
 8005b52:	f7fe fb0f 	bl	8004174 <__aeabi_dmul>
 8005b56:	4602      	mov	r2, r0
 8005b58:	460b      	mov	r3, r1
 8005b5a:	4630      	mov	r0, r6
 8005b5c:	4639      	mov	r1, r7
 8005b5e:	f7fe f957 	bl	8003e10 <__adddf3>
 8005b62:	4682      	mov	sl, r0
 8005b64:	468b      	mov	fp, r1
 8005b66:	f7fe fd9f 	bl	80046a8 <__aeabi_d2iz>
 8005b6a:	4659      	mov	r1, fp
 8005b6c:	2200      	movs	r2, #0
 8005b6e:	2300      	movs	r3, #0
 8005b70:	4606      	mov	r6, r0
 8005b72:	4650      	mov	r0, sl
 8005b74:	f7fe fd70 	bl	8004658 <__aeabi_dcmplt>
 8005b78:	b150      	cbz	r0, 8005b90 <_dtoa_r+0x1b8>
 8005b7a:	4630      	mov	r0, r6
 8005b7c:	f7fe fa94 	bl	80040a8 <__aeabi_i2d>
 8005b80:	4602      	mov	r2, r0
 8005b82:	460b      	mov	r3, r1
 8005b84:	4650      	mov	r0, sl
 8005b86:	4659      	mov	r1, fp
 8005b88:	f7fe fd5c 	bl	8004644 <__aeabi_dcmpeq>
 8005b8c:	b900      	cbnz	r0, 8005b90 <_dtoa_r+0x1b8>
 8005b8e:	3e01      	subs	r6, #1
 8005b90:	2e16      	cmp	r6, #22
 8005b92:	d902      	bls.n	8005b9a <_dtoa_r+0x1c2>
 8005b94:	2301      	movs	r3, #1
 8005b96:	9316      	str	r3, [sp, #88]	; 0x58
 8005b98:	e00e      	b.n	8005bb8 <_dtoa_r+0x1e0>
 8005b9a:	4b45      	ldr	r3, [pc, #276]	; (8005cb0 <_dtoa_r+0x2d8>)
 8005b9c:	e9dd 0110 	ldrd	r0, r1, [sp, #64]	; 0x40
 8005ba0:	eb03 03c6 	add.w	r3, r3, r6, lsl #3
 8005ba4:	e9d3 2300 	ldrd	r2, r3, [r3]
 8005ba8:	f7fe fd56 	bl	8004658 <__aeabi_dcmplt>
 8005bac:	b908      	cbnz	r0, 8005bb2 <_dtoa_r+0x1da>
 8005bae:	9016      	str	r0, [sp, #88]	; 0x58
 8005bb0:	e002      	b.n	8005bb8 <_dtoa_r+0x1e0>
 8005bb2:	3e01      	subs	r6, #1
 8005bb4:	2100      	movs	r1, #0
 8005bb6:	9116      	str	r1, [sp, #88]	; 0x58
 8005bb8:	9b19      	ldr	r3, [sp, #100]	; 0x64
 8005bba:	f103 3bff 	add.w	fp, r3, #4294967295
 8005bbe:	ebbb 0b05 	subs.w	fp, fp, r5
 8005bc2:	d404      	bmi.n	8005bce <_dtoa_r+0x1f6>
 8005bc4:	f8cd b018 	str.w	fp, [sp, #24]
 8005bc8:	f04f 0b00 	mov.w	fp, #0
 8005bcc:	e003      	b.n	8005bd6 <_dtoa_r+0x1fe>
 8005bce:	f1cb 0b00 	rsb	fp, fp, #0
 8005bd2:	2200      	movs	r2, #0
 8005bd4:	9206      	str	r2, [sp, #24]
 8005bd6:	2e00      	cmp	r6, #0
 8005bd8:	db06      	blt.n	8005be8 <_dtoa_r+0x210>
 8005bda:	9b06      	ldr	r3, [sp, #24]
 8005bdc:	f04f 0a00 	mov.w	sl, #0
 8005be0:	9613      	str	r6, [sp, #76]	; 0x4c
 8005be2:	199b      	adds	r3, r3, r6
 8005be4:	9306      	str	r3, [sp, #24]
 8005be6:	e005      	b.n	8005bf4 <_dtoa_r+0x21c>
 8005be8:	ebc6 0b0b 	rsb	fp, r6, fp
 8005bec:	f1c6 0a00 	rsb	sl, r6, #0
 8005bf0:	2000      	movs	r0, #0
 8005bf2:	9013      	str	r0, [sp, #76]	; 0x4c
 8005bf4:	9924      	ldr	r1, [sp, #144]	; 0x90
 8005bf6:	2909      	cmp	r1, #9
 8005bf8:	d815      	bhi.n	8005c26 <_dtoa_r+0x24e>
 8005bfa:	2905      	cmp	r1, #5
 8005bfc:	dc01      	bgt.n	8005c02 <_dtoa_r+0x22a>
 8005bfe:	2701      	movs	r7, #1
 8005c00:	e003      	b.n	8005c0a <_dtoa_r+0x232>
 8005c02:	9a24      	ldr	r2, [sp, #144]	; 0x90
 8005c04:	2700      	movs	r7, #0
 8005c06:	3a04      	subs	r2, #4
 8005c08:	9224      	str	r2, [sp, #144]	; 0x90
 8005c0a:	9824      	ldr	r0, [sp, #144]	; 0x90
 8005c0c:	1e83      	subs	r3, r0, #2
 8005c0e:	2b03      	cmp	r3, #3
 8005c10:	d80c      	bhi.n	8005c2c <_dtoa_r+0x254>
 8005c12:	e8df f003 	tbb	[pc, r3]
 8005c16:	2415      	.short	0x2415
 8005c18:	0205      	.short	0x0205
 8005c1a:	2201      	movs	r2, #1
 8005c1c:	920d      	str	r2, [sp, #52]	; 0x34
 8005c1e:	e020      	b.n	8005c62 <_dtoa_r+0x28a>
 8005c20:	2301      	movs	r3, #1
 8005c22:	930d      	str	r3, [sp, #52]	; 0x34
 8005c24:	e00e      	b.n	8005c44 <_dtoa_r+0x26c>
 8005c26:	2701      	movs	r7, #1
 8005c28:	2000      	movs	r0, #0
 8005c2a:	9024      	str	r0, [sp, #144]	; 0x90
 8005c2c:	f04f 32ff 	mov.w	r2, #4294967295
 8005c30:	2101      	movs	r1, #1
 8005c32:	2000      	movs	r0, #0
 8005c34:	910d      	str	r1, [sp, #52]	; 0x34
 8005c36:	920e      	str	r2, [sp, #56]	; 0x38
 8005c38:	4691      	mov	r9, r2
 8005c3a:	2312      	movs	r3, #18
 8005c3c:	9025      	str	r0, [sp, #148]	; 0x94
 8005c3e:	e018      	b.n	8005c72 <_dtoa_r+0x29a>
 8005c40:	2100      	movs	r1, #0
 8005c42:	910d      	str	r1, [sp, #52]	; 0x34
 8005c44:	9a25      	ldr	r2, [sp, #148]	; 0x94
 8005c46:	2a00      	cmp	r2, #0
 8005c48:	dc04      	bgt.n	8005c54 <_dtoa_r+0x27c>
 8005c4a:	2301      	movs	r3, #1
 8005c4c:	930e      	str	r3, [sp, #56]	; 0x38
 8005c4e:	4699      	mov	r9, r3
 8005c50:	9325      	str	r3, [sp, #148]	; 0x94
 8005c52:	e00e      	b.n	8005c72 <_dtoa_r+0x29a>
 8005c54:	9825      	ldr	r0, [sp, #148]	; 0x94
 8005c56:	4681      	mov	r9, r0
 8005c58:	4603      	mov	r3, r0
 8005c5a:	900e      	str	r0, [sp, #56]	; 0x38
 8005c5c:	e009      	b.n	8005c72 <_dtoa_r+0x29a>
 8005c5e:	2100      	movs	r1, #0
 8005c60:	910d      	str	r1, [sp, #52]	; 0x34
 8005c62:	9a25      	ldr	r2, [sp, #148]	; 0x94
 8005c64:	18b2      	adds	r2, r6, r2
 8005c66:	920e      	str	r2, [sp, #56]	; 0x38
 8005c68:	1c53      	adds	r3, r2, #1
 8005c6a:	2b00      	cmp	r3, #0
 8005c6c:	4699      	mov	r9, r3
 8005c6e:	bfd8      	it	le
 8005c70:	2301      	movle	r3, #1
 8005c72:	6a61      	ldr	r1, [r4, #36]	; 0x24
 8005c74:	2200      	movs	r2, #0
 8005c76:	604a      	str	r2, [r1, #4]
 8005c78:	3204      	adds	r2, #4
 8005c7a:	e01f      	b.n	8005cbc <_dtoa_r+0x2e4>
 8005c7c:	f3af 8000 	nop.w
 8005c80:	636f4361 	.word	0x636f4361
 8005c84:	3fd287a7 	.word	0x3fd287a7
 8005c88:	8b60c8b3 	.word	0x8b60c8b3
 8005c8c:	3fc68a28 	.word	0x3fc68a28
 8005c90:	509f79fb 	.word	0x509f79fb
 8005c94:	3fd34413 	.word	0x3fd34413
 8005c98:	7ff00000 	.word	0x7ff00000
 8005c9c:	08007a14 	.word	0x08007a14
 8005ca0:	08007a1d 	.word	0x08007a1d
 8005ca4:	08007a02 	.word	0x08007a02
 8005ca8:	08007a03 	.word	0x08007a03
 8005cac:	3ff80000 	.word	0x3ff80000
 8005cb0:	08007a78 	.word	0x08007a78
 8005cb4:	6869      	ldr	r1, [r5, #4]
 8005cb6:	0052      	lsls	r2, r2, #1
 8005cb8:	3101      	adds	r1, #1
 8005cba:	6069      	str	r1, [r5, #4]
 8005cbc:	f102 0114 	add.w	r1, r2, #20
 8005cc0:	6a65      	ldr	r5, [r4, #36]	; 0x24
 8005cc2:	4299      	cmp	r1, r3
 8005cc4:	d9f6      	bls.n	8005cb4 <_dtoa_r+0x2dc>
 8005cc6:	4620      	mov	r0, r4
 8005cc8:	6869      	ldr	r1, [r5, #4]
 8005cca:	f001 f96d 	bl	8006fa8 <_Balloc>
 8005cce:	6a63      	ldr	r3, [r4, #36]	; 0x24
 8005cd0:	f1b9 0f0e 	cmp.w	r9, #14
 8005cd4:	6028      	str	r0, [r5, #0]
 8005cd6:	681b      	ldr	r3, [r3, #0]
 8005cd8:	930c      	str	r3, [sp, #48]	; 0x30
 8005cda:	f200 8180 	bhi.w	8005fde <_dtoa_r+0x606>
 8005cde:	2f00      	cmp	r7, #0
 8005ce0:	f000 817d 	beq.w	8005fde <_dtoa_r+0x606>
 8005ce4:	2e00      	cmp	r6, #0
 8005ce6:	dd3d      	ble.n	8005d64 <_dtoa_r+0x38c>
 8005ce8:	f006 020f 	and.w	r2, r6, #15
 8005cec:	4b8b      	ldr	r3, [pc, #556]	; (8005f1c <_dtoa_r+0x544>)
 8005cee:	1137      	asrs	r7, r6, #4
 8005cf0:	eb03 03c2 	add.w	r3, r3, r2, lsl #3
 8005cf4:	f017 0f10 	tst.w	r7, #16
 8005cf8:	e9d3 0100 	ldrd	r0, r1, [r3]
 8005cfc:	e9cd 0108 	strd	r0, r1, [sp, #32]
 8005d00:	d101      	bne.n	8005d06 <_dtoa_r+0x32e>
 8005d02:	2502      	movs	r5, #2
 8005d04:	e00d      	b.n	8005d22 <_dtoa_r+0x34a>
 8005d06:	4b86      	ldr	r3, [pc, #536]	; (8005f20 <_dtoa_r+0x548>)
 8005d08:	f007 070f 	and.w	r7, r7, #15
 8005d0c:	e9dd 0110 	ldrd	r0, r1, [sp, #64]	; 0x40
 8005d10:	2503      	movs	r5, #3
 8005d12:	e9d3 2308 	ldrd	r2, r3, [r3, #32]
 8005d16:	f7fe fb57 	bl	80043c8 <__aeabi_ddiv>
 8005d1a:	4602      	mov	r2, r0
 8005d1c:	460b      	mov	r3, r1
 8005d1e:	e9cd 2304 	strd	r2, r3, [sp, #16]
 8005d22:	f8df c1fc 	ldr.w	ip, [pc, #508]	; 8005f20 <_dtoa_r+0x548>
 8005d26:	f8cd 8028 	str.w	r8, [sp, #40]	; 0x28
 8005d2a:	46b0      	mov	r8, r6
 8005d2c:	e9dd 0108 	ldrd	r0, r1, [sp, #32]
 8005d30:	4666      	mov	r6, ip
 8005d32:	e009      	b.n	8005d48 <_dtoa_r+0x370>
 8005d34:	f017 0f01 	tst.w	r7, #1
 8005d38:	d004      	beq.n	8005d44 <_dtoa_r+0x36c>
 8005d3a:	e9d6 2300 	ldrd	r2, r3, [r6]
 8005d3e:	3501      	adds	r5, #1
 8005d40:	f7fe fa18 	bl	8004174 <__aeabi_dmul>
 8005d44:	107f      	asrs	r7, r7, #1
 8005d46:	3608      	adds	r6, #8
 8005d48:	2f00      	cmp	r7, #0
 8005d4a:	d1f3      	bne.n	8005d34 <_dtoa_r+0x35c>
 8005d4c:	e9cd 0108 	strd	r0, r1, [sp, #32]
 8005d50:	4646      	mov	r6, r8
 8005d52:	e9dd 0104 	ldrd	r0, r1, [sp, #16]
 8005d56:	e9dd 2308 	ldrd	r2, r3, [sp, #32]
 8005d5a:	f8dd 8028 	ldr.w	r8, [sp, #40]	; 0x28
 8005d5e:	f7fe fb33 	bl	80043c8 <__aeabi_ddiv>
 8005d62:	e026      	b.n	8005db2 <_dtoa_r+0x3da>
 8005d64:	4277      	negs	r7, r6
 8005d66:	b90f      	cbnz	r7, 8005d6c <_dtoa_r+0x394>
 8005d68:	2502      	movs	r5, #2
 8005d6a:	e026      	b.n	8005dba <_dtoa_r+0x3e2>
 8005d6c:	f007 020f 	and.w	r2, r7, #15
 8005d70:	4b6a      	ldr	r3, [pc, #424]	; (8005f1c <_dtoa_r+0x544>)
 8005d72:	e9dd 0110 	ldrd	r0, r1, [sp, #64]	; 0x40
 8005d76:	113f      	asrs	r7, r7, #4
 8005d78:	eb03 03c2 	add.w	r3, r3, r2, lsl #3
 8005d7c:	2502      	movs	r5, #2
 8005d7e:	e9d3 2300 	ldrd	r2, r3, [r3]
 8005d82:	f7fe f9f7 	bl	8004174 <__aeabi_dmul>
 8005d86:	f8df c198 	ldr.w	ip, [pc, #408]	; 8005f20 <_dtoa_r+0x548>
 8005d8a:	f8cd 8010 	str.w	r8, [sp, #16]
 8005d8e:	46b0      	mov	r8, r6
 8005d90:	4666      	mov	r6, ip
 8005d92:	e009      	b.n	8005da8 <_dtoa_r+0x3d0>
 8005d94:	f017 0f01 	tst.w	r7, #1
 8005d98:	d004      	beq.n	8005da4 <_dtoa_r+0x3cc>
 8005d9a:	e9d6 2300 	ldrd	r2, r3, [r6]
 8005d9e:	3501      	adds	r5, #1
 8005da0:	f7fe f9e8 	bl	8004174 <__aeabi_dmul>
 8005da4:	107f      	asrs	r7, r7, #1
 8005da6:	3608      	adds	r6, #8
 8005da8:	2f00      	cmp	r7, #0
 8005daa:	d1f3      	bne.n	8005d94 <_dtoa_r+0x3bc>
 8005dac:	4646      	mov	r6, r8
 8005dae:	f8dd 8010 	ldr.w	r8, [sp, #16]
 8005db2:	4602      	mov	r2, r0
 8005db4:	460b      	mov	r3, r1
 8005db6:	e9cd 2304 	strd	r2, r3, [sp, #16]
 8005dba:	9b16      	ldr	r3, [sp, #88]	; 0x58
 8005dbc:	b1f3      	cbz	r3, 8005dfc <_dtoa_r+0x424>
 8005dbe:	e9dd 0104 	ldrd	r0, r1, [sp, #16]
 8005dc2:	2200      	movs	r2, #0
 8005dc4:	4b57      	ldr	r3, [pc, #348]	; (8005f24 <_dtoa_r+0x54c>)
 8005dc6:	e9cd 010a 	strd	r0, r1, [sp, #40]	; 0x28
 8005dca:	f7fe fc45 	bl	8004658 <__aeabi_dcmplt>
 8005dce:	b1a8      	cbz	r0, 8005dfc <_dtoa_r+0x424>
 8005dd0:	f1b9 0f00 	cmp.w	r9, #0
 8005dd4:	d012      	beq.n	8005dfc <_dtoa_r+0x424>
 8005dd6:	990e      	ldr	r1, [sp, #56]	; 0x38
 8005dd8:	2900      	cmp	r1, #0
 8005dda:	f340 80fc 	ble.w	8005fd6 <_dtoa_r+0x5fe>
 8005dde:	1e72      	subs	r2, r6, #1
 8005de0:	4b51      	ldr	r3, [pc, #324]	; (8005f28 <_dtoa_r+0x550>)
 8005de2:	9208      	str	r2, [sp, #32]
 8005de4:	2200      	movs	r2, #0
 8005de6:	e9dd 010a 	ldrd	r0, r1, [sp, #40]	; 0x28
 8005dea:	3501      	adds	r5, #1
 8005dec:	f7fe f9c2 	bl	8004174 <__aeabi_dmul>
 8005df0:	9f0e      	ldr	r7, [sp, #56]	; 0x38
 8005df2:	4602      	mov	r2, r0
 8005df4:	460b      	mov	r3, r1
 8005df6:	e9cd 2304 	strd	r2, r3, [sp, #16]
 8005dfa:	e001      	b.n	8005e00 <_dtoa_r+0x428>
 8005dfc:	464f      	mov	r7, r9
 8005dfe:	9608      	str	r6, [sp, #32]
 8005e00:	4628      	mov	r0, r5
 8005e02:	f7fe f951 	bl	80040a8 <__aeabi_i2d>
 8005e06:	e9dd 2304 	ldrd	r2, r3, [sp, #16]
 8005e0a:	f7fe f9b3 	bl	8004174 <__aeabi_dmul>
 8005e0e:	2200      	movs	r2, #0
 8005e10:	4b46      	ldr	r3, [pc, #280]	; (8005f2c <_dtoa_r+0x554>)
 8005e12:	f7fd fffd 	bl	8003e10 <__adddf3>
 8005e16:	460b      	mov	r3, r1
 8005e18:	4602      	mov	r2, r0
 8005e1a:	e9cd 230a 	strd	r2, r3, [sp, #40]	; 0x28
 8005e1e:	9b0b      	ldr	r3, [sp, #44]	; 0x2c
 8005e20:	f1a3 7550 	sub.w	r5, r3, #54525952	; 0x3400000
 8005e24:	950b      	str	r5, [sp, #44]	; 0x2c
 8005e26:	b9ef      	cbnz	r7, 8005e64 <_dtoa_r+0x48c>
 8005e28:	e9dd 0104 	ldrd	r0, r1, [sp, #16]
 8005e2c:	2200      	movs	r2, #0
 8005e2e:	4b40      	ldr	r3, [pc, #256]	; (8005f30 <_dtoa_r+0x558>)
 8005e30:	f7fd ffec 	bl	8003e0c <__aeabi_dsub>
 8005e34:	f8dd c028 	ldr.w	ip, [sp, #40]	; 0x28
 8005e38:	462b      	mov	r3, r5
 8005e3a:	4662      	mov	r2, ip
 8005e3c:	e9cd 0104 	strd	r0, r1, [sp, #16]
 8005e40:	f7fe fc28 	bl	8004694 <__aeabi_dcmpgt>
 8005e44:	2800      	cmp	r0, #0
 8005e46:	f040 8254 	bne.w	80062f2 <_dtoa_r+0x91a>
 8005e4a:	f8dd c028 	ldr.w	ip, [sp, #40]	; 0x28
 8005e4e:	f105 4300 	add.w	r3, r5, #2147483648	; 0x80000000
 8005e52:	e9dd 0104 	ldrd	r0, r1, [sp, #16]
 8005e56:	4662      	mov	r2, ip
 8005e58:	f7fe fbfe 	bl	8004658 <__aeabi_dcmplt>
 8005e5c:	2800      	cmp	r0, #0
 8005e5e:	f040 823e 	bne.w	80062de <_dtoa_r+0x906>
 8005e62:	e0b8      	b.n	8005fd6 <_dtoa_r+0x5fe>
 8005e64:	980d      	ldr	r0, [sp, #52]	; 0x34
 8005e66:	1e7a      	subs	r2, r7, #1
 8005e68:	4b2c      	ldr	r3, [pc, #176]	; (8005f1c <_dtoa_r+0x544>)
 8005e6a:	2800      	cmp	r0, #0
 8005e6c:	d064      	beq.n	8005f38 <_dtoa_r+0x560>
 8005e6e:	eb03 03c2 	add.w	r3, r3, r2, lsl #3
 8005e72:	2000      	movs	r0, #0
 8005e74:	492f      	ldr	r1, [pc, #188]	; (8005f34 <_dtoa_r+0x55c>)
 8005e76:	e9d3 2300 	ldrd	r2, r3, [r3]
 8005e7a:	f7fe faa5 	bl	80043c8 <__aeabi_ddiv>
 8005e7e:	e9dd 230a 	ldrd	r2, r3, [sp, #40]	; 0x28
 8005e82:	f7fd ffc3 	bl	8003e0c <__aeabi_dsub>
 8005e86:	9d0c      	ldr	r5, [sp, #48]	; 0x30
 8005e88:	e9cd 0114 	strd	r0, r1, [sp, #80]	; 0x50
 8005e8c:	2100      	movs	r1, #0
 8005e8e:	910a      	str	r1, [sp, #40]	; 0x28
 8005e90:	e9dd 0104 	ldrd	r0, r1, [sp, #16]
 8005e94:	3501      	adds	r5, #1
 8005e96:	f7fe fc07 	bl	80046a8 <__aeabi_d2iz>
 8005e9a:	9003      	str	r0, [sp, #12]
 8005e9c:	f7fe f904 	bl	80040a8 <__aeabi_i2d>
 8005ea0:	4602      	mov	r2, r0
 8005ea2:	460b      	mov	r3, r1
 8005ea4:	e9dd 0104 	ldrd	r0, r1, [sp, #16]
 8005ea8:	f7fd ffb0 	bl	8003e0c <__aeabi_dsub>
 8005eac:	9b0c      	ldr	r3, [sp, #48]	; 0x30
 8005eae:	9a0a      	ldr	r2, [sp, #40]	; 0x28
 8005eb0:	f8dd c00c 	ldr.w	ip, [sp, #12]
 8005eb4:	f10c 0c30 	add.w	ip, ip, #48	; 0x30
 8005eb8:	e9cd 0104 	strd	r0, r1, [sp, #16]
 8005ebc:	f803 c002 	strb.w	ip, [r3, r2]
 8005ec0:	e9dd 2314 	ldrd	r2, r3, [sp, #80]	; 0x50
 8005ec4:	f7fe fbc8 	bl	8004658 <__aeabi_dcmplt>
 8005ec8:	2800      	cmp	r0, #0
 8005eca:	f040 8334 	bne.w	8006536 <_dtoa_r+0xb5e>
 8005ece:	e9dd 2304 	ldrd	r2, r3, [sp, #16]
 8005ed2:	2000      	movs	r0, #0
 8005ed4:	4913      	ldr	r1, [pc, #76]	; (8005f24 <_dtoa_r+0x54c>)
 8005ed6:	f7fd ff99 	bl	8003e0c <__aeabi_dsub>
 8005eda:	e9dd 2314 	ldrd	r2, r3, [sp, #80]	; 0x50
 8005ede:	f7fe fbbb 	bl	8004658 <__aeabi_dcmplt>
 8005ee2:	2800      	cmp	r0, #0
 8005ee4:	f040 80e0 	bne.w	80060a8 <_dtoa_r+0x6d0>
 8005ee8:	f8dd c028 	ldr.w	ip, [sp, #40]	; 0x28
 8005eec:	f10c 0c01 	add.w	ip, ip, #1
 8005ef0:	f8cd c028 	str.w	ip, [sp, #40]	; 0x28
 8005ef4:	45bc      	cmp	ip, r7
 8005ef6:	da6e      	bge.n	8005fd6 <_dtoa_r+0x5fe>
 8005ef8:	e9dd 0114 	ldrd	r0, r1, [sp, #80]	; 0x50
 8005efc:	2200      	movs	r2, #0
 8005efe:	4b0a      	ldr	r3, [pc, #40]	; (8005f28 <_dtoa_r+0x550>)
 8005f00:	f7fe f938 	bl	8004174 <__aeabi_dmul>
 8005f04:	2200      	movs	r2, #0
 8005f06:	4b08      	ldr	r3, [pc, #32]	; (8005f28 <_dtoa_r+0x550>)
 8005f08:	e9cd 0114 	strd	r0, r1, [sp, #80]	; 0x50
 8005f0c:	e9dd 0104 	ldrd	r0, r1, [sp, #16]
 8005f10:	f7fe f930 	bl	8004174 <__aeabi_dmul>
 8005f14:	e9cd 0104 	strd	r0, r1, [sp, #16]
 8005f18:	e7ba      	b.n	8005e90 <_dtoa_r+0x4b8>
 8005f1a:	bf00      	nop
 8005f1c:	08007a78 	.word	0x08007a78
 8005f20:	08007b40 	.word	0x08007b40
 8005f24:	3ff00000 	.word	0x3ff00000
 8005f28:	40240000 	.word	0x40240000
 8005f2c:	401c0000 	.word	0x401c0000
 8005f30:	40140000 	.word	0x40140000
 8005f34:	3fe00000 	.word	0x3fe00000
 8005f38:	eb03 03c2 	add.w	r3, r3, r2, lsl #3
 8005f3c:	e9d3 0100 	ldrd	r0, r1, [r3]
 8005f40:	e9dd 230a 	ldrd	r2, r3, [sp, #40]	; 0x28
 8005f44:	f7fe f916 	bl	8004174 <__aeabi_dmul>
 8005f48:	9d0d      	ldr	r5, [sp, #52]	; 0x34
 8005f4a:	e9cd 010a 	strd	r0, r1, [sp, #40]	; 0x28
 8005f4e:	e9dd 0104 	ldrd	r0, r1, [sp, #16]
 8005f52:	f7fe fba9 	bl	80046a8 <__aeabi_d2iz>
 8005f56:	9003      	str	r0, [sp, #12]
 8005f58:	f7fe f8a6 	bl	80040a8 <__aeabi_i2d>
 8005f5c:	4602      	mov	r2, r0
 8005f5e:	460b      	mov	r3, r1
 8005f60:	e9dd 0104 	ldrd	r0, r1, [sp, #16]
 8005f64:	f7fd ff52 	bl	8003e0c <__aeabi_dsub>
 8005f68:	9a0c      	ldr	r2, [sp, #48]	; 0x30
 8005f6a:	f8dd c00c 	ldr.w	ip, [sp, #12]
 8005f6e:	f10c 0c30 	add.w	ip, ip, #48	; 0x30
 8005f72:	e9cd 0104 	strd	r0, r1, [sp, #16]
 8005f76:	f802 c005 	strb.w	ip, [r2, r5]
 8005f7a:	3501      	adds	r5, #1
 8005f7c:	42bd      	cmp	r5, r7
 8005f7e:	d123      	bne.n	8005fc8 <_dtoa_r+0x5f0>
 8005f80:	4b89      	ldr	r3, [pc, #548]	; (80061a8 <_dtoa_r+0x7d0>)
 8005f82:	1955      	adds	r5, r2, r5
 8005f84:	e9dd 010a 	ldrd	r0, r1, [sp, #40]	; 0x28
 8005f88:	2200      	movs	r2, #0
 8005f8a:	f7fd ff41 	bl	8003e10 <__adddf3>
 8005f8e:	4602      	mov	r2, r0
 8005f90:	460b      	mov	r3, r1
 8005f92:	e9dd 0104 	ldrd	r0, r1, [sp, #16]
 8005f96:	f7fe fb7d 	bl	8004694 <__aeabi_dcmpgt>
 8005f9a:	2800      	cmp	r0, #0
 8005f9c:	f040 8084 	bne.w	80060a8 <_dtoa_r+0x6d0>
 8005fa0:	e9dd 230a 	ldrd	r2, r3, [sp, #40]	; 0x28
 8005fa4:	2000      	movs	r0, #0
 8005fa6:	4980      	ldr	r1, [pc, #512]	; (80061a8 <_dtoa_r+0x7d0>)
 8005fa8:	f7fd ff30 	bl	8003e0c <__aeabi_dsub>
 8005fac:	4602      	mov	r2, r0
 8005fae:	460b      	mov	r3, r1
 8005fb0:	e9dd 0104 	ldrd	r0, r1, [sp, #16]
 8005fb4:	f7fe fb50 	bl	8004658 <__aeabi_dcmplt>
 8005fb8:	b168      	cbz	r0, 8005fd6 <_dtoa_r+0x5fe>
 8005fba:	462b      	mov	r3, r5
 8005fbc:	461d      	mov	r5, r3
 8005fbe:	f813 2d01 	ldrb.w	r2, [r3, #-1]!
 8005fc2:	2a30      	cmp	r2, #48	; 0x30
 8005fc4:	d0fa      	beq.n	8005fbc <_dtoa_r+0x5e4>
 8005fc6:	e2b6      	b.n	8006536 <_dtoa_r+0xb5e>
 8005fc8:	2200      	movs	r2, #0
 8005fca:	4b78      	ldr	r3, [pc, #480]	; (80061ac <_dtoa_r+0x7d4>)
 8005fcc:	f7fe f8d2 	bl	8004174 <__aeabi_dmul>
 8005fd0:	e9cd 0104 	strd	r0, r1, [sp, #16]
 8005fd4:	e7bb      	b.n	8005f4e <_dtoa_r+0x576>
 8005fd6:	e9dd 0110 	ldrd	r0, r1, [sp, #64]	; 0x40
 8005fda:	e9cd 0104 	strd	r0, r1, [sp, #16]
 8005fde:	9a18      	ldr	r2, [sp, #96]	; 0x60
 8005fe0:	2a00      	cmp	r2, #0
 8005fe2:	db7a      	blt.n	80060da <_dtoa_r+0x702>
 8005fe4:	2e0e      	cmp	r6, #14
 8005fe6:	dc78      	bgt.n	80060da <_dtoa_r+0x702>
 8005fe8:	4b71      	ldr	r3, [pc, #452]	; (80061b0 <_dtoa_r+0x7d8>)
 8005fea:	eb03 03c6 	add.w	r3, r3, r6, lsl #3
 8005fee:	e9d3 0100 	ldrd	r0, r1, [r3]
 8005ff2:	e9cd 0106 	strd	r0, r1, [sp, #24]
 8005ff6:	9925      	ldr	r1, [sp, #148]	; 0x94
 8005ff8:	2900      	cmp	r1, #0
 8005ffa:	da13      	bge.n	8006024 <_dtoa_r+0x64c>
 8005ffc:	f1b9 0f00 	cmp.w	r9, #0
 8006000:	dc10      	bgt.n	8006024 <_dtoa_r+0x64c>
 8006002:	f040 816c 	bne.w	80062de <_dtoa_r+0x906>
 8006006:	2200      	movs	r2, #0
 8006008:	4b6a      	ldr	r3, [pc, #424]	; (80061b4 <_dtoa_r+0x7dc>)
 800600a:	e9dd 0106 	ldrd	r0, r1, [sp, #24]
 800600e:	f7fe f8b1 	bl	8004174 <__aeabi_dmul>
 8006012:	e9dd 2304 	ldrd	r2, r3, [sp, #16]
 8006016:	f7fe fb33 	bl	8004680 <__aeabi_dcmpge>
 800601a:	2800      	cmp	r0, #0
 800601c:	f040 815f 	bne.w	80062de <_dtoa_r+0x906>
 8006020:	46ca      	mov	sl, r9
 8006022:	e168      	b.n	80062f6 <_dtoa_r+0x91e>
 8006024:	9d0c      	ldr	r5, [sp, #48]	; 0x30
 8006026:	2701      	movs	r7, #1
 8006028:	e9dd 2306 	ldrd	r2, r3, [sp, #24]
 800602c:	e9dd 0104 	ldrd	r0, r1, [sp, #16]
 8006030:	f7fe f9ca 	bl	80043c8 <__aeabi_ddiv>
 8006034:	f7fe fb38 	bl	80046a8 <__aeabi_d2iz>
 8006038:	4682      	mov	sl, r0
 800603a:	f7fe f835 	bl	80040a8 <__aeabi_i2d>
 800603e:	e9dd 2306 	ldrd	r2, r3, [sp, #24]
 8006042:	f7fe f897 	bl	8004174 <__aeabi_dmul>
 8006046:	460b      	mov	r3, r1
 8006048:	4602      	mov	r2, r0
 800604a:	e9dd 0104 	ldrd	r0, r1, [sp, #16]
 800604e:	f7fd fedd 	bl	8003e0c <__aeabi_dsub>
 8006052:	454f      	cmp	r7, r9
 8006054:	f10a 0330 	add.w	r3, sl, #48	; 0x30
 8006058:	e9cd 0104 	strd	r0, r1, [sp, #16]
 800605c:	f805 3b01 	strb.w	r3, [r5], #1
 8006060:	d12c      	bne.n	80060bc <_dtoa_r+0x6e4>
 8006062:	e9dd 2304 	ldrd	r2, r3, [sp, #16]
 8006066:	f7fd fed3 	bl	8003e10 <__adddf3>
 800606a:	e9dd 2306 	ldrd	r2, r3, [sp, #24]
 800606e:	e9cd 0104 	strd	r0, r1, [sp, #16]
 8006072:	f7fe fb0f 	bl	8004694 <__aeabi_dcmpgt>
 8006076:	b9c0      	cbnz	r0, 80060aa <_dtoa_r+0x6d2>
 8006078:	e9dd 0104 	ldrd	r0, r1, [sp, #16]
 800607c:	e9dd 2306 	ldrd	r2, r3, [sp, #24]
 8006080:	f7fe fae0 	bl	8004644 <__aeabi_dcmpeq>
 8006084:	2800      	cmp	r0, #0
 8006086:	f000 8255 	beq.w	8006534 <_dtoa_r+0xb5c>
 800608a:	f01a 0f01 	tst.w	sl, #1
 800608e:	d10c      	bne.n	80060aa <_dtoa_r+0x6d2>
 8006090:	e250      	b.n	8006534 <_dtoa_r+0xb5c>
 8006092:	980c      	ldr	r0, [sp, #48]	; 0x30
 8006094:	4283      	cmp	r3, r0
 8006096:	d001      	beq.n	800609c <_dtoa_r+0x6c4>
 8006098:	461d      	mov	r5, r3
 800609a:	e006      	b.n	80060aa <_dtoa_r+0x6d2>
 800609c:	990c      	ldr	r1, [sp, #48]	; 0x30
 800609e:	2330      	movs	r3, #48	; 0x30
 80060a0:	3601      	adds	r6, #1
 80060a2:	700b      	strb	r3, [r1, #0]
 80060a4:	9b0c      	ldr	r3, [sp, #48]	; 0x30
 80060a6:	e005      	b.n	80060b4 <_dtoa_r+0x6dc>
 80060a8:	9e08      	ldr	r6, [sp, #32]
 80060aa:	f815 2c01 	ldrb.w	r2, [r5, #-1]
 80060ae:	1e6b      	subs	r3, r5, #1
 80060b0:	2a39      	cmp	r2, #57	; 0x39
 80060b2:	d0ee      	beq.n	8006092 <_dtoa_r+0x6ba>
 80060b4:	781a      	ldrb	r2, [r3, #0]
 80060b6:	3201      	adds	r2, #1
 80060b8:	701a      	strb	r2, [r3, #0]
 80060ba:	e23b      	b.n	8006534 <_dtoa_r+0xb5c>
 80060bc:	2200      	movs	r2, #0
 80060be:	4b3b      	ldr	r3, [pc, #236]	; (80061ac <_dtoa_r+0x7d4>)
 80060c0:	f7fe f858 	bl	8004174 <__aeabi_dmul>
 80060c4:	2200      	movs	r2, #0
 80060c6:	2300      	movs	r3, #0
 80060c8:	e9cd 0104 	strd	r0, r1, [sp, #16]
 80060cc:	f7fe faba 	bl	8004644 <__aeabi_dcmpeq>
 80060d0:	2800      	cmp	r0, #0
 80060d2:	f040 822f 	bne.w	8006534 <_dtoa_r+0xb5c>
 80060d6:	3701      	adds	r7, #1
 80060d8:	e7a6      	b.n	8006028 <_dtoa_r+0x650>
 80060da:	9b0d      	ldr	r3, [sp, #52]	; 0x34
 80060dc:	b91b      	cbnz	r3, 80060e6 <_dtoa_r+0x70e>
 80060de:	4653      	mov	r3, sl
 80060e0:	465d      	mov	r5, fp
 80060e2:	9f0d      	ldr	r7, [sp, #52]	; 0x34
 80060e4:	e031      	b.n	800614a <_dtoa_r+0x772>
 80060e6:	9824      	ldr	r0, [sp, #144]	; 0x90
 80060e8:	2801      	cmp	r0, #1
 80060ea:	dc0b      	bgt.n	8006104 <_dtoa_r+0x72c>
 80060ec:	9917      	ldr	r1, [sp, #92]	; 0x5c
 80060ee:	b119      	cbz	r1, 80060f8 <_dtoa_r+0x720>
 80060f0:	f502 6286 	add.w	r2, r2, #1072	; 0x430
 80060f4:	3203      	adds	r2, #3
 80060f6:	e002      	b.n	80060fe <_dtoa_r+0x726>
 80060f8:	9a19      	ldr	r2, [sp, #100]	; 0x64
 80060fa:	f1c2 0236 	rsb	r2, r2, #54	; 0x36
 80060fe:	4653      	mov	r3, sl
 8006100:	465d      	mov	r5, fp
 8006102:	e015      	b.n	8006130 <_dtoa_r+0x758>
 8006104:	f109 33ff 	add.w	r3, r9, #4294967295
 8006108:	459a      	cmp	sl, r3
 800610a:	db02      	blt.n	8006112 <_dtoa_r+0x73a>
 800610c:	ebc3 030a 	rsb	r3, r3, sl
 8006110:	e006      	b.n	8006120 <_dtoa_r+0x748>
 8006112:	9a13      	ldr	r2, [sp, #76]	; 0x4c
 8006114:	ebca 0303 	rsb	r3, sl, r3
 8006118:	449a      	add	sl, r3
 800611a:	18d2      	adds	r2, r2, r3
 800611c:	2300      	movs	r3, #0
 800611e:	9213      	str	r2, [sp, #76]	; 0x4c
 8006120:	f1b9 0f00 	cmp.w	r9, #0
 8006124:	bfa7      	ittee	ge
 8006126:	465d      	movge	r5, fp
 8006128:	464a      	movge	r2, r9
 800612a:	ebc9 050b 	rsblt	r5, r9, fp
 800612e:	2200      	movlt	r2, #0
 8006130:	f8dd c018 	ldr.w	ip, [sp, #24]
 8006134:	4620      	mov	r0, r4
 8006136:	2101      	movs	r1, #1
 8006138:	9302      	str	r3, [sp, #8]
 800613a:	4494      	add	ip, r2
 800613c:	4493      	add	fp, r2
 800613e:	f8cd c018 	str.w	ip, [sp, #24]
 8006142:	f001 f910 	bl	8007366 <__i2b>
 8006146:	9b02      	ldr	r3, [sp, #8]
 8006148:	4607      	mov	r7, r0
 800614a:	b15d      	cbz	r5, 8006164 <_dtoa_r+0x78c>
 800614c:	9806      	ldr	r0, [sp, #24]
 800614e:	2800      	cmp	r0, #0
 8006150:	dd08      	ble.n	8006164 <_dtoa_r+0x78c>
 8006152:	4602      	mov	r2, r0
 8006154:	42aa      	cmp	r2, r5
 8006156:	bfa8      	it	ge
 8006158:	462a      	movge	r2, r5
 800615a:	ebc2 0b0b 	rsb	fp, r2, fp
 800615e:	1aad      	subs	r5, r5, r2
 8006160:	1a80      	subs	r0, r0, r2
 8006162:	9006      	str	r0, [sp, #24]
 8006164:	f1ba 0f00 	cmp.w	sl, #0
 8006168:	dd2c      	ble.n	80061c4 <_dtoa_r+0x7ec>
 800616a:	990d      	ldr	r1, [sp, #52]	; 0x34
 800616c:	b321      	cbz	r1, 80061b8 <_dtoa_r+0x7e0>
 800616e:	2b00      	cmp	r3, #0
 8006170:	dd14      	ble.n	800619c <_dtoa_r+0x7c4>
 8006172:	461a      	mov	r2, r3
 8006174:	4639      	mov	r1, r7
 8006176:	4620      	mov	r0, r4
 8006178:	9302      	str	r3, [sp, #8]
 800617a:	f001 f93f 	bl	80073fc <__pow5mult>
 800617e:	4642      	mov	r2, r8
 8006180:	4607      	mov	r7, r0
 8006182:	4620      	mov	r0, r4
 8006184:	4639      	mov	r1, r7
 8006186:	f001 f85d 	bl	8007244 <__multiply>
 800618a:	4641      	mov	r1, r8
 800618c:	4602      	mov	r2, r0
 800618e:	4620      	mov	r0, r4
 8006190:	9203      	str	r2, [sp, #12]
 8006192:	f000 fef2 	bl	8006f7a <_Bfree>
 8006196:	9a03      	ldr	r2, [sp, #12]
 8006198:	9b02      	ldr	r3, [sp, #8]
 800619a:	4690      	mov	r8, r2
 800619c:	ebba 0203 	subs.w	r2, sl, r3
 80061a0:	d010      	beq.n	80061c4 <_dtoa_r+0x7ec>
 80061a2:	4620      	mov	r0, r4
 80061a4:	4641      	mov	r1, r8
 80061a6:	e00a      	b.n	80061be <_dtoa_r+0x7e6>
 80061a8:	3fe00000 	.word	0x3fe00000
 80061ac:	40240000 	.word	0x40240000
 80061b0:	08007a78 	.word	0x08007a78
 80061b4:	40140000 	.word	0x40140000
 80061b8:	4620      	mov	r0, r4
 80061ba:	4641      	mov	r1, r8
 80061bc:	4652      	mov	r2, sl
 80061be:	f001 f91d 	bl	80073fc <__pow5mult>
 80061c2:	4680      	mov	r8, r0
 80061c4:	2101      	movs	r1, #1
 80061c6:	4620      	mov	r0, r4
 80061c8:	f001 f8cd 	bl	8007366 <__i2b>
 80061cc:	9a13      	ldr	r2, [sp, #76]	; 0x4c
 80061ce:	2a00      	cmp	r2, #0
 80061d0:	4682      	mov	sl, r0
 80061d2:	dd04      	ble.n	80061de <_dtoa_r+0x806>
 80061d4:	4651      	mov	r1, sl
 80061d6:	4620      	mov	r0, r4
 80061d8:	f001 f910 	bl	80073fc <__pow5mult>
 80061dc:	4682      	mov	sl, r0
 80061de:	9b24      	ldr	r3, [sp, #144]	; 0x90
 80061e0:	2b01      	cmp	r3, #1
 80061e2:	dc13      	bgt.n	800620c <_dtoa_r+0x834>
 80061e4:	9804      	ldr	r0, [sp, #16]
 80061e6:	b988      	cbnz	r0, 800620c <_dtoa_r+0x834>
 80061e8:	9a05      	ldr	r2, [sp, #20]
 80061ea:	f022 437f 	bic.w	r3, r2, #4278190080	; 0xff000000
 80061ee:	f423 0370 	bic.w	r3, r3, #15728640	; 0xf00000
 80061f2:	b95b      	cbnz	r3, 800620c <_dtoa_r+0x834>
 80061f4:	4b8a      	ldr	r3, [pc, #552]	; (8006420 <_dtoa_r+0xa48>)
 80061f6:	ea02 0303 	and.w	r3, r2, r3
 80061fa:	b13b      	cbz	r3, 800620c <_dtoa_r+0x834>
 80061fc:	9906      	ldr	r1, [sp, #24]
 80061fe:	2201      	movs	r2, #1
 8006200:	f10b 0b01 	add.w	fp, fp, #1
 8006204:	9208      	str	r2, [sp, #32]
 8006206:	3101      	adds	r1, #1
 8006208:	9106      	str	r1, [sp, #24]
 800620a:	e001      	b.n	8006210 <_dtoa_r+0x838>
 800620c:	2300      	movs	r3, #0
 800620e:	9308      	str	r3, [sp, #32]
 8006210:	9813      	ldr	r0, [sp, #76]	; 0x4c
 8006212:	b908      	cbnz	r0, 8006218 <_dtoa_r+0x840>
 8006214:	2301      	movs	r3, #1
 8006216:	e008      	b.n	800622a <_dtoa_r+0x852>
 8006218:	f8da 3010 	ldr.w	r3, [sl, #16]
 800621c:	eb0a 0383 	add.w	r3, sl, r3, lsl #2
 8006220:	6918      	ldr	r0, [r3, #16]
 8006222:	f000 fd44 	bl	8006cae <__hi0bits>
 8006226:	f1c0 0320 	rsb	r3, r0, #32
 800622a:	9906      	ldr	r1, [sp, #24]
 800622c:	185b      	adds	r3, r3, r1
 800622e:	f013 031f 	ands.w	r3, r3, #31
 8006232:	d00a      	beq.n	800624a <_dtoa_r+0x872>
 8006234:	f1c3 0320 	rsb	r3, r3, #32
 8006238:	2b04      	cmp	r3, #4
 800623a:	dd05      	ble.n	8006248 <_dtoa_r+0x870>
 800623c:	3b04      	subs	r3, #4
 800623e:	18c9      	adds	r1, r1, r3
 8006240:	449b      	add	fp, r3
 8006242:	18ed      	adds	r5, r5, r3
 8006244:	9106      	str	r1, [sp, #24]
 8006246:	e006      	b.n	8006256 <_dtoa_r+0x87e>
 8006248:	d005      	beq.n	8006256 <_dtoa_r+0x87e>
 800624a:	331c      	adds	r3, #28
 800624c:	9a06      	ldr	r2, [sp, #24]
 800624e:	449b      	add	fp, r3
 8006250:	18ed      	adds	r5, r5, r3
 8006252:	18d2      	adds	r2, r2, r3
 8006254:	9206      	str	r2, [sp, #24]
 8006256:	f1bb 0f00 	cmp.w	fp, #0
 800625a:	dd05      	ble.n	8006268 <_dtoa_r+0x890>
 800625c:	4641      	mov	r1, r8
 800625e:	4620      	mov	r0, r4
 8006260:	465a      	mov	r2, fp
 8006262:	f000 ff9d 	bl	80071a0 <__lshift>
 8006266:	4680      	mov	r8, r0
 8006268:	9b06      	ldr	r3, [sp, #24]
 800626a:	2b00      	cmp	r3, #0
 800626c:	dd05      	ble.n	800627a <_dtoa_r+0x8a2>
 800626e:	4651      	mov	r1, sl
 8006270:	4620      	mov	r0, r4
 8006272:	461a      	mov	r2, r3
 8006274:	f000 ff94 	bl	80071a0 <__lshift>
 8006278:	4682      	mov	sl, r0
 800627a:	9816      	ldr	r0, [sp, #88]	; 0x58
 800627c:	b1c0      	cbz	r0, 80062b0 <_dtoa_r+0x8d8>
 800627e:	4640      	mov	r0, r8
 8006280:	4651      	mov	r1, sl
 8006282:	f000 fd66 	bl	8006d52 <__mcmp>
 8006286:	2800      	cmp	r0, #0
 8006288:	da12      	bge.n	80062b0 <_dtoa_r+0x8d8>
 800628a:	4641      	mov	r1, r8
 800628c:	4620      	mov	r0, r4
 800628e:	220a      	movs	r2, #10
 8006290:	2300      	movs	r3, #0
 8006292:	f001 f871 	bl	8007378 <__multadd>
 8006296:	990d      	ldr	r1, [sp, #52]	; 0x34
 8006298:	3e01      	subs	r6, #1
 800629a:	4680      	mov	r8, r0
 800629c:	b131      	cbz	r1, 80062ac <_dtoa_r+0x8d4>
 800629e:	4639      	mov	r1, r7
 80062a0:	4620      	mov	r0, r4
 80062a2:	220a      	movs	r2, #10
 80062a4:	2300      	movs	r3, #0
 80062a6:	f001 f867 	bl	8007378 <__multadd>
 80062aa:	4607      	mov	r7, r0
 80062ac:	f8dd 9038 	ldr.w	r9, [sp, #56]	; 0x38
 80062b0:	f1b9 0f00 	cmp.w	r9, #0
 80062b4:	dc29      	bgt.n	800630a <_dtoa_r+0x932>
 80062b6:	9a24      	ldr	r2, [sp, #144]	; 0x90
 80062b8:	2a02      	cmp	r2, #2
 80062ba:	dd26      	ble.n	800630a <_dtoa_r+0x932>
 80062bc:	f1b9 0f00 	cmp.w	r9, #0
 80062c0:	d110      	bne.n	80062e4 <_dtoa_r+0x90c>
 80062c2:	4651      	mov	r1, sl
 80062c4:	2205      	movs	r2, #5
 80062c6:	464b      	mov	r3, r9
 80062c8:	4620      	mov	r0, r4
 80062ca:	f001 f855 	bl	8007378 <__multadd>
 80062ce:	4682      	mov	sl, r0
 80062d0:	4640      	mov	r0, r8
 80062d2:	4651      	mov	r1, sl
 80062d4:	f000 fd3d 	bl	8006d52 <__mcmp>
 80062d8:	2800      	cmp	r0, #0
 80062da:	dc0d      	bgt.n	80062f8 <_dtoa_r+0x920>
 80062dc:	e002      	b.n	80062e4 <_dtoa_r+0x90c>
 80062de:	f04f 0a00 	mov.w	sl, #0
 80062e2:	4657      	mov	r7, sl
 80062e4:	9b25      	ldr	r3, [sp, #148]	; 0x94
 80062e6:	2000      	movs	r0, #0
 80062e8:	9d0c      	ldr	r5, [sp, #48]	; 0x30
 80062ea:	43db      	mvns	r3, r3
 80062ec:	9004      	str	r0, [sp, #16]
 80062ee:	9308      	str	r3, [sp, #32]
 80062f0:	e10f      	b.n	8006512 <_dtoa_r+0xb3a>
 80062f2:	9e08      	ldr	r6, [sp, #32]
 80062f4:	46ba      	mov	sl, r7
 80062f6:	4657      	mov	r7, sl
 80062f8:	9d0c      	ldr	r5, [sp, #48]	; 0x30
 80062fa:	2331      	movs	r3, #49	; 0x31
 80062fc:	3601      	adds	r6, #1
 80062fe:	2100      	movs	r1, #0
 8006300:	f805 3b01 	strb.w	r3, [r5], #1
 8006304:	9608      	str	r6, [sp, #32]
 8006306:	9104      	str	r1, [sp, #16]
 8006308:	e103      	b.n	8006512 <_dtoa_r+0xb3a>
 800630a:	9a0d      	ldr	r2, [sp, #52]	; 0x34
 800630c:	2a00      	cmp	r2, #0
 800630e:	f000 80b5 	beq.w	800647c <_dtoa_r+0xaa4>
 8006312:	2d00      	cmp	r5, #0
 8006314:	dd05      	ble.n	8006322 <_dtoa_r+0x94a>
 8006316:	4639      	mov	r1, r7
 8006318:	4620      	mov	r0, r4
 800631a:	462a      	mov	r2, r5
 800631c:	f000 ff40 	bl	80071a0 <__lshift>
 8006320:	4607      	mov	r7, r0
 8006322:	9b08      	ldr	r3, [sp, #32]
 8006324:	b90b      	cbnz	r3, 800632a <_dtoa_r+0x952>
 8006326:	4638      	mov	r0, r7
 8006328:	e011      	b.n	800634e <_dtoa_r+0x976>
 800632a:	6879      	ldr	r1, [r7, #4]
 800632c:	4620      	mov	r0, r4
 800632e:	f000 fe3b 	bl	8006fa8 <_Balloc>
 8006332:	693a      	ldr	r2, [r7, #16]
 8006334:	f107 010c 	add.w	r1, r7, #12
 8006338:	3202      	adds	r2, #2
 800633a:	0092      	lsls	r2, r2, #2
 800633c:	4605      	mov	r5, r0
 800633e:	300c      	adds	r0, #12
 8006340:	f000 fc89 	bl	8006c56 <memcpy>
 8006344:	4620      	mov	r0, r4
 8006346:	4629      	mov	r1, r5
 8006348:	2201      	movs	r2, #1
 800634a:	f000 ff29 	bl	80071a0 <__lshift>
 800634e:	9d0c      	ldr	r5, [sp, #48]	; 0x30
 8006350:	2201      	movs	r2, #1
 8006352:	9904      	ldr	r1, [sp, #16]
 8006354:	9704      	str	r7, [sp, #16]
 8006356:	4607      	mov	r7, r0
 8006358:	f001 0101 	and.w	r1, r1, #1
 800635c:	9208      	str	r2, [sp, #32]
 800635e:	910e      	str	r1, [sp, #56]	; 0x38
 8006360:	9606      	str	r6, [sp, #24]
 8006362:	f8cd 903c 	str.w	r9, [sp, #60]	; 0x3c
 8006366:	4651      	mov	r1, sl
 8006368:	4640      	mov	r0, r8
 800636a:	f7ff faa7 	bl	80058bc <quorem>
 800636e:	9904      	ldr	r1, [sp, #16]
 8006370:	f100 0630 	add.w	r6, r0, #48	; 0x30
 8006374:	4640      	mov	r0, r8
 8006376:	f000 fcec 	bl	8006d52 <__mcmp>
 800637a:	4651      	mov	r1, sl
 800637c:	463a      	mov	r2, r7
 800637e:	900d      	str	r0, [sp, #52]	; 0x34
 8006380:	4620      	mov	r0, r4
 8006382:	f000 fea5 	bl	80070d0 <__mdiff>
 8006386:	68c3      	ldr	r3, [r0, #12]
 8006388:	4681      	mov	r9, r0
 800638a:	b113      	cbz	r3, 8006392 <_dtoa_r+0x9ba>
 800638c:	f04f 0b01 	mov.w	fp, #1
 8006390:	e004      	b.n	800639c <_dtoa_r+0x9c4>
 8006392:	4640      	mov	r0, r8
 8006394:	4649      	mov	r1, r9
 8006396:	f000 fcdc 	bl	8006d52 <__mcmp>
 800639a:	4683      	mov	fp, r0
 800639c:	4620      	mov	r0, r4
 800639e:	4649      	mov	r1, r9
 80063a0:	f000 fdeb 	bl	8006f7a <_Bfree>
 80063a4:	f1bb 0f00 	cmp.w	fp, #0
 80063a8:	d10b      	bne.n	80063c2 <_dtoa_r+0x9ea>
 80063aa:	9b24      	ldr	r3, [sp, #144]	; 0x90
 80063ac:	b94b      	cbnz	r3, 80063c2 <_dtoa_r+0x9ea>
 80063ae:	980e      	ldr	r0, [sp, #56]	; 0x38
 80063b0:	b938      	cbnz	r0, 80063c2 <_dtoa_r+0x9ea>
 80063b2:	4633      	mov	r3, r6
 80063b4:	9e06      	ldr	r6, [sp, #24]
 80063b6:	2b39      	cmp	r3, #57	; 0x39
 80063b8:	d029      	beq.n	800640e <_dtoa_r+0xa36>
 80063ba:	990d      	ldr	r1, [sp, #52]	; 0x34
 80063bc:	2900      	cmp	r1, #0
 80063be:	dc2a      	bgt.n	8006416 <_dtoa_r+0xa3e>
 80063c0:	e02a      	b.n	8006418 <_dtoa_r+0xa40>
 80063c2:	9a0d      	ldr	r2, [sp, #52]	; 0x34
 80063c4:	2a00      	cmp	r2, #0
 80063c6:	db04      	blt.n	80063d2 <_dtoa_r+0x9fa>
 80063c8:	d11a      	bne.n	8006400 <_dtoa_r+0xa28>
 80063ca:	9b24      	ldr	r3, [sp, #144]	; 0x90
 80063cc:	b9c3      	cbnz	r3, 8006400 <_dtoa_r+0xa28>
 80063ce:	980e      	ldr	r0, [sp, #56]	; 0x38
 80063d0:	b9b0      	cbnz	r0, 8006400 <_dtoa_r+0xa28>
 80063d2:	f1bb 0f00 	cmp.w	fp, #0
 80063d6:	4633      	mov	r3, r6
 80063d8:	9e06      	ldr	r6, [sp, #24]
 80063da:	dd1d      	ble.n	8006418 <_dtoa_r+0xa40>
 80063dc:	4641      	mov	r1, r8
 80063de:	2201      	movs	r2, #1
 80063e0:	4620      	mov	r0, r4
 80063e2:	9302      	str	r3, [sp, #8]
 80063e4:	f000 fedc 	bl	80071a0 <__lshift>
 80063e8:	4651      	mov	r1, sl
 80063ea:	4680      	mov	r8, r0
 80063ec:	f000 fcb1 	bl	8006d52 <__mcmp>
 80063f0:	9b02      	ldr	r3, [sp, #8]
 80063f2:	2800      	cmp	r0, #0
 80063f4:	dc09      	bgt.n	800640a <_dtoa_r+0xa32>
 80063f6:	d10f      	bne.n	8006418 <_dtoa_r+0xa40>
 80063f8:	f013 0f01 	tst.w	r3, #1
 80063fc:	d00c      	beq.n	8006418 <_dtoa_r+0xa40>
 80063fe:	e004      	b.n	800640a <_dtoa_r+0xa32>
 8006400:	f1bb 0f00 	cmp.w	fp, #0
 8006404:	dd0e      	ble.n	8006424 <_dtoa_r+0xa4c>
 8006406:	4633      	mov	r3, r6
 8006408:	9e06      	ldr	r6, [sp, #24]
 800640a:	2b39      	cmp	r3, #57	; 0x39
 800640c:	d103      	bne.n	8006416 <_dtoa_r+0xa3e>
 800640e:	2339      	movs	r3, #57	; 0x39
 8006410:	f805 3b01 	strb.w	r3, [r5], #1
 8006414:	e06e      	b.n	80064f4 <_dtoa_r+0xb1c>
 8006416:	3301      	adds	r3, #1
 8006418:	f805 3b01 	strb.w	r3, [r5], #1
 800641c:	e078      	b.n	8006510 <_dtoa_r+0xb38>
 800641e:	bf00      	nop
 8006420:	7ff00000 	.word	0x7ff00000
 8006424:	f805 6b01 	strb.w	r6, [r5], #1
 8006428:	9a08      	ldr	r2, [sp, #32]
 800642a:	990f      	ldr	r1, [sp, #60]	; 0x3c
 800642c:	428a      	cmp	r2, r1
 800642e:	d041      	beq.n	80064b4 <_dtoa_r+0xadc>
 8006430:	2300      	movs	r3, #0
 8006432:	4641      	mov	r1, r8
 8006434:	220a      	movs	r2, #10
 8006436:	4620      	mov	r0, r4
 8006438:	f000 ff9e 	bl	8007378 <__multadd>
 800643c:	9b04      	ldr	r3, [sp, #16]
 800643e:	42bb      	cmp	r3, r7
 8006440:	4680      	mov	r8, r0
 8006442:	4620      	mov	r0, r4
 8006444:	d106      	bne.n	8006454 <_dtoa_r+0xa7c>
 8006446:	4619      	mov	r1, r3
 8006448:	220a      	movs	r2, #10
 800644a:	2300      	movs	r3, #0
 800644c:	f000 ff94 	bl	8007378 <__multadd>
 8006450:	9004      	str	r0, [sp, #16]
 8006452:	e00b      	b.n	800646c <_dtoa_r+0xa94>
 8006454:	9904      	ldr	r1, [sp, #16]
 8006456:	220a      	movs	r2, #10
 8006458:	2300      	movs	r3, #0
 800645a:	f000 ff8d 	bl	8007378 <__multadd>
 800645e:	4639      	mov	r1, r7
 8006460:	220a      	movs	r2, #10
 8006462:	2300      	movs	r3, #0
 8006464:	9004      	str	r0, [sp, #16]
 8006466:	4620      	mov	r0, r4
 8006468:	f000 ff86 	bl	8007378 <__multadd>
 800646c:	f8dd c020 	ldr.w	ip, [sp, #32]
 8006470:	4607      	mov	r7, r0
 8006472:	f10c 0c01 	add.w	ip, ip, #1
 8006476:	f8cd c020 	str.w	ip, [sp, #32]
 800647a:	e774      	b.n	8006366 <_dtoa_r+0x98e>
 800647c:	9d0c      	ldr	r5, [sp, #48]	; 0x30
 800647e:	f8dd b034 	ldr.w	fp, [sp, #52]	; 0x34
 8006482:	4640      	mov	r0, r8
 8006484:	4651      	mov	r1, sl
 8006486:	f7ff fa19 	bl	80058bc <quorem>
 800648a:	3501      	adds	r5, #1
 800648c:	f100 0330 	add.w	r3, r0, #48	; 0x30
 8006490:	980c      	ldr	r0, [sp, #48]	; 0x30
 8006492:	f800 300b 	strb.w	r3, [r0, fp]
 8006496:	f10b 0b01 	add.w	fp, fp, #1
 800649a:	45cb      	cmp	fp, r9
 800649c:	da07      	bge.n	80064ae <_dtoa_r+0xad6>
 800649e:	4641      	mov	r1, r8
 80064a0:	4620      	mov	r0, r4
 80064a2:	220a      	movs	r2, #10
 80064a4:	2300      	movs	r3, #0
 80064a6:	f000 ff67 	bl	8007378 <__multadd>
 80064aa:	4680      	mov	r8, r0
 80064ac:	e7e9      	b.n	8006482 <_dtoa_r+0xaaa>
 80064ae:	2100      	movs	r1, #0
 80064b0:	9104      	str	r1, [sp, #16]
 80064b2:	e001      	b.n	80064b8 <_dtoa_r+0xae0>
 80064b4:	4633      	mov	r3, r6
 80064b6:	9e06      	ldr	r6, [sp, #24]
 80064b8:	4641      	mov	r1, r8
 80064ba:	2201      	movs	r2, #1
 80064bc:	4620      	mov	r0, r4
 80064be:	9302      	str	r3, [sp, #8]
 80064c0:	f000 fe6e 	bl	80071a0 <__lshift>
 80064c4:	4651      	mov	r1, sl
 80064c6:	4680      	mov	r8, r0
 80064c8:	f000 fc43 	bl	8006d52 <__mcmp>
 80064cc:	9b02      	ldr	r3, [sp, #8]
 80064ce:	2800      	cmp	r0, #0
 80064d0:	dc10      	bgt.n	80064f4 <_dtoa_r+0xb1c>
 80064d2:	d102      	bne.n	80064da <_dtoa_r+0xb02>
 80064d4:	f013 0f01 	tst.w	r3, #1
 80064d8:	d10c      	bne.n	80064f4 <_dtoa_r+0xb1c>
 80064da:	462b      	mov	r3, r5
 80064dc:	e012      	b.n	8006504 <_dtoa_r+0xb2c>
 80064de:	9a0c      	ldr	r2, [sp, #48]	; 0x30
 80064e0:	4293      	cmp	r3, r2
 80064e2:	d001      	beq.n	80064e8 <_dtoa_r+0xb10>
 80064e4:	461d      	mov	r5, r3
 80064e6:	e005      	b.n	80064f4 <_dtoa_r+0xb1c>
 80064e8:	980c      	ldr	r0, [sp, #48]	; 0x30
 80064ea:	3601      	adds	r6, #1
 80064ec:	2331      	movs	r3, #49	; 0x31
 80064ee:	9608      	str	r6, [sp, #32]
 80064f0:	7003      	strb	r3, [r0, #0]
 80064f2:	e00e      	b.n	8006512 <_dtoa_r+0xb3a>
 80064f4:	f815 2c01 	ldrb.w	r2, [r5, #-1]
 80064f8:	1e6b      	subs	r3, r5, #1
 80064fa:	2a39      	cmp	r2, #57	; 0x39
 80064fc:	d0ef      	beq.n	80064de <_dtoa_r+0xb06>
 80064fe:	3201      	adds	r2, #1
 8006500:	701a      	strb	r2, [r3, #0]
 8006502:	e005      	b.n	8006510 <_dtoa_r+0xb38>
 8006504:	f813 2c01 	ldrb.w	r2, [r3, #-1]
 8006508:	461d      	mov	r5, r3
 800650a:	3b01      	subs	r3, #1
 800650c:	2a30      	cmp	r2, #48	; 0x30
 800650e:	d0f9      	beq.n	8006504 <_dtoa_r+0xb2c>
 8006510:	9608      	str	r6, [sp, #32]
 8006512:	4620      	mov	r0, r4
 8006514:	4651      	mov	r1, sl
 8006516:	f000 fd30 	bl	8006f7a <_Bfree>
 800651a:	b167      	cbz	r7, 8006536 <_dtoa_r+0xb5e>
 800651c:	9904      	ldr	r1, [sp, #16]
 800651e:	b121      	cbz	r1, 800652a <_dtoa_r+0xb52>
 8006520:	42b9      	cmp	r1, r7
 8006522:	d002      	beq.n	800652a <_dtoa_r+0xb52>
 8006524:	4620      	mov	r0, r4
 8006526:	f000 fd28 	bl	8006f7a <_Bfree>
 800652a:	4620      	mov	r0, r4
 800652c:	4639      	mov	r1, r7
 800652e:	f000 fd24 	bl	8006f7a <_Bfree>
 8006532:	e000      	b.n	8006536 <_dtoa_r+0xb5e>
 8006534:	9608      	str	r6, [sp, #32]
 8006536:	4620      	mov	r0, r4
 8006538:	4641      	mov	r1, r8
 800653a:	f000 fd1e 	bl	8006f7a <_Bfree>
 800653e:	2300      	movs	r3, #0
 8006540:	702b      	strb	r3, [r5, #0]
 8006542:	9826      	ldr	r0, [sp, #152]	; 0x98
 8006544:	9a08      	ldr	r2, [sp, #32]
 8006546:	9928      	ldr	r1, [sp, #160]	; 0xa0
 8006548:	1c53      	adds	r3, r2, #1
 800654a:	6003      	str	r3, [r0, #0]
 800654c:	b109      	cbz	r1, 8006552 <_dtoa_r+0xb7a>
 800654e:	9a28      	ldr	r2, [sp, #160]	; 0xa0
 8006550:	6015      	str	r5, [r2, #0]
 8006552:	980c      	ldr	r0, [sp, #48]	; 0x30
 8006554:	b01b      	add	sp, #108	; 0x6c
 8006556:	e8bd 8ff0 	ldmia.w	sp!, {r4, r5, r6, r7, r8, r9, sl, fp, pc}
 800655a:	bf00      	nop
 800655c:	f3af 8000 	nop.w

08006560 <_malloc_trim_r>:
 8006560:	b5f8      	push	{r3, r4, r5, r6, r7, lr}
 8006562:	4e22      	ldr	r6, [pc, #136]	; (80065ec <_malloc_trim_r+0x8c>)
 8006564:	460d      	mov	r5, r1
 8006566:	4604      	mov	r4, r0
 8006568:	f000 fb9f 	bl	8006caa <__malloc_lock>
 800656c:	68b3      	ldr	r3, [r6, #8]
 800656e:	685f      	ldr	r7, [r3, #4]
 8006570:	f027 0703 	bic.w	r7, r7, #3
 8006574:	f507 637e 	add.w	r3, r7, #4064	; 0xfe0
 8006578:	330f      	adds	r3, #15
 800657a:	1b5d      	subs	r5, r3, r5
 800657c:	0b2d      	lsrs	r5, r5, #12
 800657e:	3d01      	subs	r5, #1
 8006580:	032d      	lsls	r5, r5, #12
 8006582:	f5b5 5f80 	cmp.w	r5, #4096	; 0x1000
 8006586:	db1e      	blt.n	80065c6 <_malloc_trim_r+0x66>
 8006588:	2100      	movs	r1, #0
 800658a:	4620      	mov	r0, r4
 800658c:	f001 f962 	bl	8007854 <_sbrk_r>
 8006590:	68b3      	ldr	r3, [r6, #8]
 8006592:	18fb      	adds	r3, r7, r3
 8006594:	4298      	cmp	r0, r3
 8006596:	d116      	bne.n	80065c6 <_malloc_trim_r+0x66>
 8006598:	4269      	negs	r1, r5
 800659a:	4620      	mov	r0, r4
 800659c:	f001 f95a 	bl	8007854 <_sbrk_r>
 80065a0:	f1b0 3fff 	cmp.w	r0, #4294967295
 80065a4:	d114      	bne.n	80065d0 <_malloc_trim_r+0x70>
 80065a6:	2100      	movs	r1, #0
 80065a8:	4620      	mov	r0, r4
 80065aa:	f001 f953 	bl	8007854 <_sbrk_r>
 80065ae:	68b3      	ldr	r3, [r6, #8]
 80065b0:	1ac2      	subs	r2, r0, r3
 80065b2:	2a0f      	cmp	r2, #15
 80065b4:	dd07      	ble.n	80065c6 <_malloc_trim_r+0x66>
 80065b6:	490e      	ldr	r1, [pc, #56]	; (80065f0 <_malloc_trim_r+0x90>)
 80065b8:	f042 0201 	orr.w	r2, r2, #1
 80065bc:	6809      	ldr	r1, [r1, #0]
 80065be:	1a40      	subs	r0, r0, r1
 80065c0:	490c      	ldr	r1, [pc, #48]	; (80065f4 <_malloc_trim_r+0x94>)
 80065c2:	6008      	str	r0, [r1, #0]
 80065c4:	605a      	str	r2, [r3, #4]
 80065c6:	4620      	mov	r0, r4
 80065c8:	f000 fb70 	bl	8006cac <__malloc_unlock>
 80065cc:	2000      	movs	r0, #0
 80065ce:	bdf8      	pop	{r3, r4, r5, r6, r7, pc}
 80065d0:	68b3      	ldr	r3, [r6, #8]
 80065d2:	1b7f      	subs	r7, r7, r5
 80065d4:	f047 0701 	orr.w	r7, r7, #1
 80065d8:	4620      	mov	r0, r4
 80065da:	605f      	str	r7, [r3, #4]
 80065dc:	4b05      	ldr	r3, [pc, #20]	; (80065f4 <_malloc_trim_r+0x94>)
 80065de:	681a      	ldr	r2, [r3, #0]
 80065e0:	1b55      	subs	r5, r2, r5
 80065e2:	601d      	str	r5, [r3, #0]
 80065e4:	f000 fb62 	bl	8006cac <__malloc_unlock>
 80065e8:	2001      	movs	r0, #1
 80065ea:	bdf8      	pop	{r3, r4, r5, r6, r7, pc}
 80065ec:	200001b8 	.word	0x200001b8
 80065f0:	200005c4 	.word	0x200005c4
 80065f4:	200005e8 	.word	0x200005e8

080065f8 <_free_r>:
 80065f8:	e92d 41f0 	stmdb	sp!, {r4, r5, r6, r7, r8, lr}
 80065fc:	4604      	mov	r4, r0
 80065fe:	460d      	mov	r5, r1
 8006600:	2900      	cmp	r1, #0
 8006602:	f000 80bd 	beq.w	8006780 <_free_r+0x188>
 8006606:	f000 fb50 	bl	8006caa <__malloc_lock>
 800660a:	f1a5 0308 	sub.w	r3, r5, #8
 800660e:	485d      	ldr	r0, [pc, #372]	; (8006784 <_free_r+0x18c>)
 8006610:	685f      	ldr	r7, [r3, #4]
 8006612:	f027 0201 	bic.w	r2, r7, #1
 8006616:	f8d0 c008 	ldr.w	ip, [r0, #8]
 800661a:	1899      	adds	r1, r3, r2
 800661c:	f007 0701 	and.w	r7, r7, #1
 8006620:	4561      	cmp	r1, ip
 8006622:	684e      	ldr	r6, [r1, #4]
 8006624:	f026 0603 	bic.w	r6, r6, #3
 8006628:	d118      	bne.n	800665c <_free_r+0x64>
 800662a:	18b2      	adds	r2, r6, r2
 800662c:	b93f      	cbnz	r7, 800663e <_free_r+0x46>
 800662e:	f855 1c08 	ldr.w	r1, [r5, #-8]
 8006632:	1a5b      	subs	r3, r3, r1
 8006634:	1852      	adds	r2, r2, r1
 8006636:	689d      	ldr	r5, [r3, #8]
 8006638:	68d9      	ldr	r1, [r3, #12]
 800663a:	60e9      	str	r1, [r5, #12]
 800663c:	608d      	str	r5, [r1, #8]
 800663e:	f042 0101 	orr.w	r1, r2, #1
 8006642:	6083      	str	r3, [r0, #8]
 8006644:	6059      	str	r1, [r3, #4]
 8006646:	4b50      	ldr	r3, [pc, #320]	; (8006788 <_free_r+0x190>)
 8006648:	681b      	ldr	r3, [r3, #0]
 800664a:	429a      	cmp	r2, r3
 800664c:	f0c0 8093 	bcc.w	8006776 <_free_r+0x17e>
 8006650:	4b4e      	ldr	r3, [pc, #312]	; (800678c <_free_r+0x194>)
 8006652:	4620      	mov	r0, r4
 8006654:	6819      	ldr	r1, [r3, #0]
 8006656:	f7ff ff83 	bl	8006560 <_malloc_trim_r>
 800665a:	e08c      	b.n	8006776 <_free_r+0x17e>
 800665c:	604e      	str	r6, [r1, #4]
 800665e:	b10f      	cbz	r7, 8006664 <_free_r+0x6c>
 8006660:	2500      	movs	r5, #0
 8006662:	e011      	b.n	8006688 <_free_r+0x90>
 8006664:	f855 5c08 	ldr.w	r5, [r5, #-8]
 8006668:	f100 0c08 	add.w	ip, r0, #8
 800666c:	1b5b      	subs	r3, r3, r5
 800666e:	1952      	adds	r2, r2, r5
 8006670:	689d      	ldr	r5, [r3, #8]
 8006672:	4565      	cmp	r5, ip
 8006674:	d101      	bne.n	800667a <_free_r+0x82>
 8006676:	2501      	movs	r5, #1
 8006678:	e006      	b.n	8006688 <_free_r+0x90>
 800667a:	f8d3 c00c 	ldr.w	ip, [r3, #12]
 800667e:	f8c5 c00c 	str.w	ip, [r5, #12]
 8006682:	f8cc 5008 	str.w	r5, [ip, #8]
 8006686:	463d      	mov	r5, r7
 8006688:	198f      	adds	r7, r1, r6
 800668a:	687f      	ldr	r7, [r7, #4]
 800668c:	f017 0f01 	tst.w	r7, #1
 8006690:	d10f      	bne.n	80066b2 <_free_r+0xba>
 8006692:	1992      	adds	r2, r2, r6
 8006694:	b94d      	cbnz	r5, 80066aa <_free_r+0xb2>
 8006696:	688e      	ldr	r6, [r1, #8]
 8006698:	4f3d      	ldr	r7, [pc, #244]	; (8006790 <_free_r+0x198>)
 800669a:	42be      	cmp	r6, r7
 800669c:	d105      	bne.n	80066aa <_free_r+0xb2>
 800669e:	60f3      	str	r3, [r6, #12]
 80066a0:	3501      	adds	r5, #1
 80066a2:	60b3      	str	r3, [r6, #8]
 80066a4:	60de      	str	r6, [r3, #12]
 80066a6:	609e      	str	r6, [r3, #8]
 80066a8:	e003      	b.n	80066b2 <_free_r+0xba>
 80066aa:	68ce      	ldr	r6, [r1, #12]
 80066ac:	6889      	ldr	r1, [r1, #8]
 80066ae:	60ce      	str	r6, [r1, #12]
 80066b0:	60b1      	str	r1, [r6, #8]
 80066b2:	f042 0101 	orr.w	r1, r2, #1
 80066b6:	509a      	str	r2, [r3, r2]
 80066b8:	6059      	str	r1, [r3, #4]
 80066ba:	2d00      	cmp	r5, #0
 80066bc:	d15b      	bne.n	8006776 <_free_r+0x17e>
 80066be:	f5b2 7f00 	cmp.w	r2, #512	; 0x200
 80066c2:	d211      	bcs.n	80066e8 <_free_r+0xf0>
 80066c4:	08d2      	lsrs	r2, r2, #3
 80066c6:	f04f 0c01 	mov.w	ip, #1
 80066ca:	6845      	ldr	r5, [r0, #4]
 80066cc:	1091      	asrs	r1, r2, #2
 80066ce:	fa0c f101 	lsl.w	r1, ip, r1
 80066d2:	ea45 0101 	orr.w	r1, r5, r1
 80066d6:	6041      	str	r1, [r0, #4]
 80066d8:	eb00 00c2 	add.w	r0, r0, r2, lsl #3
 80066dc:	60d8      	str	r0, [r3, #12]
 80066de:	6882      	ldr	r2, [r0, #8]
 80066e0:	609a      	str	r2, [r3, #8]
 80066e2:	60d3      	str	r3, [r2, #12]
 80066e4:	6083      	str	r3, [r0, #8]
 80066e6:	e046      	b.n	8006776 <_free_r+0x17e>
 80066e8:	ea4f 2c52 	mov.w	ip, r2, lsr #9
 80066ec:	f1bc 0f04 	cmp.w	ip, #4
 80066f0:	d804      	bhi.n	80066fc <_free_r+0x104>
 80066f2:	ea4f 1c92 	mov.w	ip, r2, lsr #6
 80066f6:	f10c 0c38 	add.w	ip, ip, #56	; 0x38
 80066fa:	e01f      	b.n	800673c <_free_r+0x144>
 80066fc:	f1bc 0f14 	cmp.w	ip, #20
 8006700:	d802      	bhi.n	8006708 <_free_r+0x110>
 8006702:	f10c 0c5b 	add.w	ip, ip, #91	; 0x5b
 8006706:	e019      	b.n	800673c <_free_r+0x144>
 8006708:	f1bc 0f54 	cmp.w	ip, #84	; 0x54
 800670c:	d804      	bhi.n	8006718 <_free_r+0x120>
 800670e:	ea4f 3c12 	mov.w	ip, r2, lsr #12
 8006712:	f10c 0c6e 	add.w	ip, ip, #110	; 0x6e
 8006716:	e011      	b.n	800673c <_free_r+0x144>
 8006718:	f5bc 7faa 	cmp.w	ip, #340	; 0x154
 800671c:	d804      	bhi.n	8006728 <_free_r+0x130>
 800671e:	ea4f 3cd2 	mov.w	ip, r2, lsr #15
 8006722:	f10c 0c77 	add.w	ip, ip, #119	; 0x77
 8006726:	e009      	b.n	800673c <_free_r+0x144>
 8006728:	f240 5154 	movw	r1, #1364	; 0x554
 800672c:	458c      	cmp	ip, r1
 800672e:	bf96      	itet	ls
 8006730:	ea4f 4c92 	movls.w	ip, r2, lsr #18
 8006734:	f04f 0c7e 	movhi.w	ip, #126	; 0x7e
 8006738:	f10c 0c7c 	addls.w	ip, ip, #124	; 0x7c
 800673c:	eb00 05cc 	add.w	r5, r0, ip, lsl #3
 8006740:	68a9      	ldr	r1, [r5, #8]
 8006742:	42a9      	cmp	r1, r5
 8006744:	d10d      	bne.n	8006762 <_free_r+0x16a>
 8006746:	2201      	movs	r2, #1
 8006748:	ea4f 0cac 	mov.w	ip, ip, asr #2
 800674c:	fa02 fc0c 	lsl.w	ip, r2, ip
 8006750:	6842      	ldr	r2, [r0, #4]
 8006752:	ea42 020c 	orr.w	r2, r2, ip
 8006756:	6042      	str	r2, [r0, #4]
 8006758:	460a      	mov	r2, r1
 800675a:	e008      	b.n	800676e <_free_r+0x176>
 800675c:	6889      	ldr	r1, [r1, #8]
 800675e:	42a9      	cmp	r1, r5
 8006760:	d004      	beq.n	800676c <_free_r+0x174>
 8006762:	6848      	ldr	r0, [r1, #4]
 8006764:	f020 0003 	bic.w	r0, r0, #3
 8006768:	4282      	cmp	r2, r0
 800676a:	d3f7      	bcc.n	800675c <_free_r+0x164>
 800676c:	68ca      	ldr	r2, [r1, #12]
 800676e:	60da      	str	r2, [r3, #12]
 8006770:	6099      	str	r1, [r3, #8]
 8006772:	60cb      	str	r3, [r1, #12]
 8006774:	6093      	str	r3, [r2, #8]
 8006776:	4620      	mov	r0, r4
 8006778:	e8bd 41f0 	ldmia.w	sp!, {r4, r5, r6, r7, r8, lr}
 800677c:	f000 ba96 	b.w	8006cac <__malloc_unlock>
 8006780:	e8bd 81f0 	ldmia.w	sp!, {r4, r5, r6, r7, r8, pc}
 8006784:	200001b8 	.word	0x200001b8
 8006788:	200005c0 	.word	0x200005c0
 800678c:	200005e4 	.word	0x200005e4
 8006790:	200001c0 	.word	0x200001c0

08006794 <__locale_charset>:
 8006794:	4b01      	ldr	r3, [pc, #4]	; (800679c <__locale_charset+0x8>)
 8006796:	6818      	ldr	r0, [r3, #0]
 8006798:	4770      	bx	lr
 800679a:	bf00      	nop
 800679c:	08007a28 	.word	0x08007a28

080067a0 <_localeconv_r>:
 80067a0:	4800      	ldr	r0, [pc, #0]	; (80067a4 <_localeconv_r+0x4>)
 80067a2:	4770      	bx	lr
 80067a4:	08007a2c 	.word	0x08007a2c

080067a8 <localeconv>:
 80067a8:	4800      	ldr	r0, [pc, #0]	; (80067ac <localeconv+0x4>)
 80067aa:	4770      	bx	lr
 80067ac:	08007a2c 	.word	0x08007a2c

080067b0 <_setlocale_r>:
 80067b0:	b570      	push	{r4, r5, r6, lr}
 80067b2:	4605      	mov	r5, r0
 80067b4:	460e      	mov	r6, r1
 80067b6:	4614      	mov	r4, r2
 80067b8:	b90a      	cbnz	r2, 80067be <_setlocale_r+0xe>
 80067ba:	4809      	ldr	r0, [pc, #36]	; (80067e0 <_setlocale_r+0x30>)
 80067bc:	bd70      	pop	{r4, r5, r6, pc}
 80067be:	4610      	mov	r0, r2
 80067c0:	4907      	ldr	r1, [pc, #28]	; (80067e0 <_setlocale_r+0x30>)
 80067c2:	f001 f859 	bl	8007878 <strcmp>
 80067c6:	b130      	cbz	r0, 80067d6 <_setlocale_r+0x26>
 80067c8:	4620      	mov	r0, r4
 80067ca:	4906      	ldr	r1, [pc, #24]	; (80067e4 <_setlocale_r+0x34>)
 80067cc:	f001 f854 	bl	8007878 <strcmp>
 80067d0:	b108      	cbz	r0, 80067d6 <_setlocale_r+0x26>
 80067d2:	2000      	movs	r0, #0
 80067d4:	bd70      	pop	{r4, r5, r6, pc}
 80067d6:	61ee      	str	r6, [r5, #28]
 80067d8:	622c      	str	r4, [r5, #32]
 80067da:	4801      	ldr	r0, [pc, #4]	; (80067e0 <_setlocale_r+0x30>)
 80067dc:	bd70      	pop	{r4, r5, r6, pc}
 80067de:	bf00      	nop
 80067e0:	08007a21 	.word	0x08007a21
 80067e4:	08007a5d 	.word	0x08007a5d

080067e8 <setlocale>:
 80067e8:	460a      	mov	r2, r1
 80067ea:	4903      	ldr	r1, [pc, #12]	; (80067f8 <setlocale+0x10>)
 80067ec:	4603      	mov	r3, r0
 80067ee:	6808      	ldr	r0, [r1, #0]
 80067f0:	4619      	mov	r1, r3
 80067f2:	f7ff bfdd 	b.w	80067b0 <_setlocale_r>
 80067f6:	bf00      	nop
 80067f8:	200001a4 	.word	0x200001a4

080067fc <free>:
 80067fc:	4b02      	ldr	r3, [pc, #8]	; (8006808 <free+0xc>)
 80067fe:	4601      	mov	r1, r0
 8006800:	6818      	ldr	r0, [r3, #0]
 8006802:	f7ff bef9 	b.w	80065f8 <_free_r>
 8006806:	bf00      	nop
 8006808:	200001a4 	.word	0x200001a4

0800680c <malloc>:
 800680c:	4b02      	ldr	r3, [pc, #8]	; (8006818 <malloc+0xc>)
 800680e:	4601      	mov	r1, r0
 8006810:	6818      	ldr	r0, [r3, #0]
 8006812:	f000 b803 	b.w	800681c <_malloc_r>
 8006816:	bf00      	nop
 8006818:	200001a4 	.word	0x200001a4

0800681c <_malloc_r>:
 800681c:	e92d 47f0 	stmdb	sp!, {r4, r5, r6, r7, r8, r9, sl, lr}
 8006820:	f101 040b 	add.w	r4, r1, #11
 8006824:	2c16      	cmp	r4, #22
 8006826:	4606      	mov	r6, r0
 8006828:	d801      	bhi.n	800682e <_malloc_r+0x12>
 800682a:	2410      	movs	r4, #16
 800682c:	e002      	b.n	8006834 <_malloc_r+0x18>
 800682e:	f034 0407 	bics.w	r4, r4, #7
 8006832:	d401      	bmi.n	8006838 <_malloc_r+0x1c>
 8006834:	428c      	cmp	r4, r1
 8006836:	d202      	bcs.n	800683e <_malloc_r+0x22>
 8006838:	230c      	movs	r3, #12
 800683a:	6033      	str	r3, [r6, #0]
 800683c:	e1e3      	b.n	8006c06 <_malloc_r+0x3ea>
 800683e:	4630      	mov	r0, r6
 8006840:	f000 fa33 	bl	8006caa <__malloc_lock>
 8006844:	f5b4 7ffc 	cmp.w	r4, #504	; 0x1f8
 8006848:	d215      	bcs.n	8006876 <_malloc_r+0x5a>
 800684a:	08e1      	lsrs	r1, r4, #3
 800684c:	4b9b      	ldr	r3, [pc, #620]	; (8006abc <_malloc_r+0x2a0>)
 800684e:	eb03 03c1 	add.w	r3, r3, r1, lsl #3
 8006852:	68dd      	ldr	r5, [r3, #12]
 8006854:	429d      	cmp	r5, r3
 8006856:	d104      	bne.n	8006862 <_malloc_r+0x46>
 8006858:	f105 0308 	add.w	r3, r5, #8
 800685c:	68dd      	ldr	r5, [r3, #12]
 800685e:	429d      	cmp	r5, r3
 8006860:	d007      	beq.n	8006872 <_malloc_r+0x56>
 8006862:	68ea      	ldr	r2, [r5, #12]
 8006864:	68a9      	ldr	r1, [r5, #8]
 8006866:	686b      	ldr	r3, [r5, #4]
 8006868:	60ca      	str	r2, [r1, #12]
 800686a:	f023 0303 	bic.w	r3, r3, #3
 800686e:	6091      	str	r1, [r2, #8]
 8006870:	e05b      	b.n	800692a <_malloc_r+0x10e>
 8006872:	3102      	adds	r1, #2
 8006874:	e03c      	b.n	80068f0 <_malloc_r+0xd4>
 8006876:	0a61      	lsrs	r1, r4, #9
 8006878:	d101      	bne.n	800687e <_malloc_r+0x62>
 800687a:	08e1      	lsrs	r1, r4, #3
 800687c:	e01b      	b.n	80068b6 <_malloc_r+0x9a>
 800687e:	2904      	cmp	r1, #4
 8006880:	d802      	bhi.n	8006888 <_malloc_r+0x6c>
 8006882:	09a1      	lsrs	r1, r4, #6
 8006884:	3138      	adds	r1, #56	; 0x38
 8006886:	e016      	b.n	80068b6 <_malloc_r+0x9a>
 8006888:	2914      	cmp	r1, #20
 800688a:	d801      	bhi.n	8006890 <_malloc_r+0x74>
 800688c:	315b      	adds	r1, #91	; 0x5b
 800688e:	e012      	b.n	80068b6 <_malloc_r+0x9a>
 8006890:	2954      	cmp	r1, #84	; 0x54
 8006892:	d802      	bhi.n	800689a <_malloc_r+0x7e>
 8006894:	0b21      	lsrs	r1, r4, #12
 8006896:	316e      	adds	r1, #110	; 0x6e
 8006898:	e00d      	b.n	80068b6 <_malloc_r+0x9a>
 800689a:	f5b1 7faa 	cmp.w	r1, #340	; 0x154
 800689e:	d802      	bhi.n	80068a6 <_malloc_r+0x8a>
 80068a0:	0be1      	lsrs	r1, r4, #15
 80068a2:	3177      	adds	r1, #119	; 0x77
 80068a4:	e007      	b.n	80068b6 <_malloc_r+0x9a>
 80068a6:	f240 5354 	movw	r3, #1364	; 0x554
 80068aa:	4299      	cmp	r1, r3
 80068ac:	d901      	bls.n	80068b2 <_malloc_r+0x96>
 80068ae:	217e      	movs	r1, #126	; 0x7e
 80068b0:	e001      	b.n	80068b6 <_malloc_r+0x9a>
 80068b2:	0ca1      	lsrs	r1, r4, #18
 80068b4:	317c      	adds	r1, #124	; 0x7c
 80068b6:	4881      	ldr	r0, [pc, #516]	; (8006abc <_malloc_r+0x2a0>)
 80068b8:	eb00 00c1 	add.w	r0, r0, r1, lsl #3
 80068bc:	68c5      	ldr	r5, [r0, #12]
 80068be:	e014      	b.n	80068ea <_malloc_r+0xce>
 80068c0:	686a      	ldr	r2, [r5, #4]
 80068c2:	f022 0203 	bic.w	r2, r2, #3
 80068c6:	1b13      	subs	r3, r2, r4
 80068c8:	2b0f      	cmp	r3, #15
 80068ca:	dd01      	ble.n	80068d0 <_malloc_r+0xb4>
 80068cc:	3901      	subs	r1, #1
 80068ce:	e00e      	b.n	80068ee <_malloc_r+0xd2>
 80068d0:	2b00      	cmp	r3, #0
 80068d2:	68eb      	ldr	r3, [r5, #12]
 80068d4:	db08      	blt.n	80068e8 <_malloc_r+0xcc>
 80068d6:	68a9      	ldr	r1, [r5, #8]
 80068d8:	60cb      	str	r3, [r1, #12]
 80068da:	6099      	str	r1, [r3, #8]
 80068dc:	18ab      	adds	r3, r5, r2
 80068de:	685a      	ldr	r2, [r3, #4]
 80068e0:	f042 0201 	orr.w	r2, r2, #1
 80068e4:	605a      	str	r2, [r3, #4]
 80068e6:	e199      	b.n	8006c1c <_malloc_r+0x400>
 80068e8:	461d      	mov	r5, r3
 80068ea:	4285      	cmp	r5, r0
 80068ec:	d1e8      	bne.n	80068c0 <_malloc_r+0xa4>
 80068ee:	3101      	adds	r1, #1
 80068f0:	4f72      	ldr	r7, [pc, #456]	; (8006abc <_malloc_r+0x2a0>)
 80068f2:	f107 0208 	add.w	r2, r7, #8
 80068f6:	6895      	ldr	r5, [r2, #8]
 80068f8:	4295      	cmp	r5, r2
 80068fa:	d077      	beq.n	80069ec <_malloc_r+0x1d0>
 80068fc:	686b      	ldr	r3, [r5, #4]
 80068fe:	f023 0303 	bic.w	r3, r3, #3
 8006902:	1b18      	subs	r0, r3, r4
 8006904:	280f      	cmp	r0, #15
 8006906:	dd0c      	ble.n	8006922 <_malloc_r+0x106>
 8006908:	192b      	adds	r3, r5, r4
 800690a:	f044 0401 	orr.w	r4, r4, #1
 800690e:	60d3      	str	r3, [r2, #12]
 8006910:	6093      	str	r3, [r2, #8]
 8006912:	606c      	str	r4, [r5, #4]
 8006914:	60da      	str	r2, [r3, #12]
 8006916:	609a      	str	r2, [r3, #8]
 8006918:	f040 0201 	orr.w	r2, r0, #1
 800691c:	5018      	str	r0, [r3, r0]
 800691e:	605a      	str	r2, [r3, #4]
 8006920:	e17c      	b.n	8006c1c <_malloc_r+0x400>
 8006922:	2800      	cmp	r0, #0
 8006924:	60d2      	str	r2, [r2, #12]
 8006926:	6092      	str	r2, [r2, #8]
 8006928:	db01      	blt.n	800692e <_malloc_r+0x112>
 800692a:	18eb      	adds	r3, r5, r3
 800692c:	e7d7      	b.n	80068de <_malloc_r+0xc2>
 800692e:	f5b3 7f00 	cmp.w	r3, #512	; 0x200
 8006932:	d212      	bcs.n	800695a <_malloc_r+0x13e>
 8006934:	08db      	lsrs	r3, r3, #3
 8006936:	f04f 0c01 	mov.w	ip, #1
 800693a:	1098      	asrs	r0, r3, #2
 800693c:	fa0c f000 	lsl.w	r0, ip, r0
 8006940:	f8d7 c004 	ldr.w	ip, [r7, #4]
 8006944:	ea4c 0000 	orr.w	r0, ip, r0
 8006948:	6078      	str	r0, [r7, #4]
 800694a:	eb07 07c3 	add.w	r7, r7, r3, lsl #3
 800694e:	60ef      	str	r7, [r5, #12]
 8006950:	68bb      	ldr	r3, [r7, #8]
 8006952:	60ab      	str	r3, [r5, #8]
 8006954:	60dd      	str	r5, [r3, #12]
 8006956:	60bd      	str	r5, [r7, #8]
 8006958:	e048      	b.n	80069ec <_malloc_r+0x1d0>
 800695a:	ea4f 2c53 	mov.w	ip, r3, lsr #9
 800695e:	f1bc 0f04 	cmp.w	ip, #4
 8006962:	d804      	bhi.n	800696e <_malloc_r+0x152>
 8006964:	ea4f 1c93 	mov.w	ip, r3, lsr #6
 8006968:	f10c 0c38 	add.w	ip, ip, #56	; 0x38
 800696c:	e01f      	b.n	80069ae <_malloc_r+0x192>
 800696e:	f1bc 0f14 	cmp.w	ip, #20
 8006972:	d802      	bhi.n	800697a <_malloc_r+0x15e>
 8006974:	f10c 0c5b 	add.w	ip, ip, #91	; 0x5b
 8006978:	e019      	b.n	80069ae <_malloc_r+0x192>
 800697a:	f1bc 0f54 	cmp.w	ip, #84	; 0x54
 800697e:	d804      	bhi.n	800698a <_malloc_r+0x16e>
 8006980:	ea4f 3c13 	mov.w	ip, r3, lsr #12
 8006984:	f10c 0c6e 	add.w	ip, ip, #110	; 0x6e
 8006988:	e011      	b.n	80069ae <_malloc_r+0x192>
 800698a:	f5bc 7faa 	cmp.w	ip, #340	; 0x154
 800698e:	d804      	bhi.n	800699a <_malloc_r+0x17e>
 8006990:	ea4f 3cd3 	mov.w	ip, r3, lsr #15
 8006994:	f10c 0c77 	add.w	ip, ip, #119	; 0x77
 8006998:	e009      	b.n	80069ae <_malloc_r+0x192>
 800699a:	f240 5054 	movw	r0, #1364	; 0x554
 800699e:	4584      	cmp	ip, r0
 80069a0:	bf96      	itet	ls
 80069a2:	ea4f 4c93 	movls.w	ip, r3, lsr #18
 80069a6:	f04f 0c7e 	movhi.w	ip, #126	; 0x7e
 80069aa:	f10c 0c7c 	addls.w	ip, ip, #124	; 0x7c
 80069ae:	4f43      	ldr	r7, [pc, #268]	; (8006abc <_malloc_r+0x2a0>)
 80069b0:	eb07 0ecc 	add.w	lr, r7, ip, lsl #3
 80069b4:	f8de 0008 	ldr.w	r0, [lr, #8]
 80069b8:	4570      	cmp	r0, lr
 80069ba:	d10d      	bne.n	80069d8 <_malloc_r+0x1bc>
 80069bc:	2301      	movs	r3, #1
 80069be:	ea4f 0cac 	mov.w	ip, ip, asr #2
 80069c2:	fa03 fc0c 	lsl.w	ip, r3, ip
 80069c6:	687b      	ldr	r3, [r7, #4]
 80069c8:	ea43 030c 	orr.w	r3, r3, ip
 80069cc:	607b      	str	r3, [r7, #4]
 80069ce:	4603      	mov	r3, r0
 80069d0:	e008      	b.n	80069e4 <_malloc_r+0x1c8>
 80069d2:	6880      	ldr	r0, [r0, #8]
 80069d4:	4570      	cmp	r0, lr
 80069d6:	d004      	beq.n	80069e2 <_malloc_r+0x1c6>
 80069d8:	6847      	ldr	r7, [r0, #4]
 80069da:	f027 0c03 	bic.w	ip, r7, #3
 80069de:	4563      	cmp	r3, ip
 80069e0:	d3f7      	bcc.n	80069d2 <_malloc_r+0x1b6>
 80069e2:	68c3      	ldr	r3, [r0, #12]
 80069e4:	60eb      	str	r3, [r5, #12]
 80069e6:	60a8      	str	r0, [r5, #8]
 80069e8:	60c5      	str	r5, [r0, #12]
 80069ea:	609d      	str	r5, [r3, #8]
 80069ec:	4f33      	ldr	r7, [pc, #204]	; (8006abc <_malloc_r+0x2a0>)
 80069ee:	2001      	movs	r0, #1
 80069f0:	108b      	asrs	r3, r1, #2
 80069f2:	fa10 f303 	lsls.w	r3, r0, r3
 80069f6:	6878      	ldr	r0, [r7, #4]
 80069f8:	4283      	cmp	r3, r0
 80069fa:	d861      	bhi.n	8006ac0 <_malloc_r+0x2a4>
 80069fc:	4203      	tst	r3, r0
 80069fe:	d105      	bne.n	8006a0c <_malloc_r+0x1f0>
 8006a00:	f021 0103 	bic.w	r1, r1, #3
 8006a04:	005b      	lsls	r3, r3, #1
 8006a06:	3104      	adds	r1, #4
 8006a08:	4203      	tst	r3, r0
 8006a0a:	d0fb      	beq.n	8006a04 <_malloc_r+0x1e8>
 8006a0c:	eb07 0ac1 	add.w	sl, r7, r1, lsl #3
 8006a10:	468c      	mov	ip, r1
 8006a12:	46d6      	mov	lr, sl
 8006a14:	f8de 500c 	ldr.w	r5, [lr, #12]
 8006a18:	e02a      	b.n	8006a70 <_malloc_r+0x254>
 8006a1a:	6868      	ldr	r0, [r5, #4]
 8006a1c:	f020 0803 	bic.w	r8, r0, #3
 8006a20:	ebc4 0008 	rsb	r0, r4, r8
 8006a24:	280f      	cmp	r0, #15
 8006a26:	dd11      	ble.n	8006a4c <_malloc_r+0x230>
 8006a28:	192b      	adds	r3, r5, r4
 8006a2a:	68e9      	ldr	r1, [r5, #12]
 8006a2c:	f044 0401 	orr.w	r4, r4, #1
 8006a30:	606c      	str	r4, [r5, #4]
 8006a32:	f855 4f08 	ldr.w	r4, [r5, #8]!
 8006a36:	5018      	str	r0, [r3, r0]
 8006a38:	60e1      	str	r1, [r4, #12]
 8006a3a:	608c      	str	r4, [r1, #8]
 8006a3c:	60d3      	str	r3, [r2, #12]
 8006a3e:	6093      	str	r3, [r2, #8]
 8006a40:	60da      	str	r2, [r3, #12]
 8006a42:	609a      	str	r2, [r3, #8]
 8006a44:	f040 0201 	orr.w	r2, r0, #1
 8006a48:	605a      	str	r2, [r3, #4]
 8006a4a:	e00c      	b.n	8006a66 <_malloc_r+0x24a>
 8006a4c:	2800      	cmp	r0, #0
 8006a4e:	68e8      	ldr	r0, [r5, #12]
 8006a50:	db0d      	blt.n	8006a6e <_malloc_r+0x252>
 8006a52:	eb05 0308 	add.w	r3, r5, r8
 8006a56:	685a      	ldr	r2, [r3, #4]
 8006a58:	f042 0201 	orr.w	r2, r2, #1
 8006a5c:	605a      	str	r2, [r3, #4]
 8006a5e:	f855 3f08 	ldr.w	r3, [r5, #8]!
 8006a62:	60d8      	str	r0, [r3, #12]
 8006a64:	6083      	str	r3, [r0, #8]
 8006a66:	4630      	mov	r0, r6
 8006a68:	f000 f920 	bl	8006cac <__malloc_unlock>
 8006a6c:	e0da      	b.n	8006c24 <_malloc_r+0x408>
 8006a6e:	4605      	mov	r5, r0
 8006a70:	4575      	cmp	r5, lr
 8006a72:	d1d2      	bne.n	8006a1a <_malloc_r+0x1fe>
 8006a74:	f10c 0c01 	add.w	ip, ip, #1
 8006a78:	f01c 0f03 	tst.w	ip, #3
 8006a7c:	d002      	beq.n	8006a84 <_malloc_r+0x268>
 8006a7e:	f10e 0e08 	add.w	lr, lr, #8
 8006a82:	e7c7      	b.n	8006a14 <_malloc_r+0x1f8>
 8006a84:	4650      	mov	r0, sl
 8006a86:	f011 0f03 	tst.w	r1, #3
 8006a8a:	d104      	bne.n	8006a96 <_malloc_r+0x27a>
 8006a8c:	6879      	ldr	r1, [r7, #4]
 8006a8e:	ea21 0103 	bic.w	r1, r1, r3
 8006a92:	6079      	str	r1, [r7, #4]
 8006a94:	e006      	b.n	8006aa4 <_malloc_r+0x288>
 8006a96:	4605      	mov	r5, r0
 8006a98:	f855 0908 	ldr.w	r0, [r5], #-8
 8006a9c:	42a8      	cmp	r0, r5
 8006a9e:	d101      	bne.n	8006aa4 <_malloc_r+0x288>
 8006aa0:	3901      	subs	r1, #1
 8006aa2:	e7f0      	b.n	8006a86 <_malloc_r+0x26a>
 8006aa4:	6878      	ldr	r0, [r7, #4]
 8006aa6:	005b      	lsls	r3, r3, #1
 8006aa8:	4283      	cmp	r3, r0
 8006aaa:	d809      	bhi.n	8006ac0 <_malloc_r+0x2a4>
 8006aac:	b143      	cbz	r3, 8006ac0 <_malloc_r+0x2a4>
 8006aae:	4661      	mov	r1, ip
 8006ab0:	e001      	b.n	8006ab6 <_malloc_r+0x29a>
 8006ab2:	3104      	adds	r1, #4
 8006ab4:	005b      	lsls	r3, r3, #1
 8006ab6:	4203      	tst	r3, r0
 8006ab8:	d1a8      	bne.n	8006a0c <_malloc_r+0x1f0>
 8006aba:	e7fa      	b.n	8006ab2 <_malloc_r+0x296>
 8006abc:	200001b8 	.word	0x200001b8
 8006ac0:	f8d7 8008 	ldr.w	r8, [r7, #8]
 8006ac4:	f8d8 3004 	ldr.w	r3, [r8, #4]
 8006ac8:	f023 0903 	bic.w	r9, r3, #3
 8006acc:	45a1      	cmp	r9, r4
 8006ace:	d304      	bcc.n	8006ada <_malloc_r+0x2be>
 8006ad0:	ebc4 0309 	rsb	r3, r4, r9
 8006ad4:	2b0f      	cmp	r3, #15
 8006ad6:	f300 8098 	bgt.w	8006c0a <_malloc_r+0x3ee>
 8006ada:	4b54      	ldr	r3, [pc, #336]	; (8006c2c <_malloc_r+0x410>)
 8006adc:	681b      	ldr	r3, [r3, #0]
 8006ade:	f103 0a10 	add.w	sl, r3, #16
 8006ae2:	4b53      	ldr	r3, [pc, #332]	; (8006c30 <_malloc_r+0x414>)
 8006ae4:	44a2      	add	sl, r4
 8006ae6:	681b      	ldr	r3, [r3, #0]
 8006ae8:	f1b3 3fff 	cmp.w	r3, #4294967295
 8006aec:	d007      	beq.n	8006afe <_malloc_r+0x2e2>
 8006aee:	f50a 6a7e 	add.w	sl, sl, #4064	; 0xfe0
 8006af2:	f10a 0a1f 	add.w	sl, sl, #31
 8006af6:	f42a 6a7e 	bic.w	sl, sl, #4064	; 0xfe0
 8006afa:	f02a 0a1f 	bic.w	sl, sl, #31
 8006afe:	4630      	mov	r0, r6
 8006b00:	4651      	mov	r1, sl
 8006b02:	f000 fea7 	bl	8007854 <_sbrk_r>
 8006b06:	f1b0 3fff 	cmp.w	r0, #4294967295
 8006b0a:	4605      	mov	r5, r0
 8006b0c:	d06f      	beq.n	8006bee <_malloc_r+0x3d2>
 8006b0e:	eb08 0309 	add.w	r3, r8, r9
 8006b12:	4298      	cmp	r0, r3
 8006b14:	d201      	bcs.n	8006b1a <_malloc_r+0x2fe>
 8006b16:	45b8      	cmp	r8, r7
 8006b18:	d169      	bne.n	8006bee <_malloc_r+0x3d2>
 8006b1a:	4a46      	ldr	r2, [pc, #280]	; (8006c34 <_malloc_r+0x418>)
 8006b1c:	429d      	cmp	r5, r3
 8006b1e:	6811      	ldr	r1, [r2, #0]
 8006b20:	4451      	add	r1, sl
 8006b22:	6011      	str	r1, [r2, #0]
 8006b24:	d108      	bne.n	8006b38 <_malloc_r+0x31c>
 8006b26:	052a      	lsls	r2, r5, #20
 8006b28:	0d12      	lsrs	r2, r2, #20
 8006b2a:	b92a      	cbnz	r2, 8006b38 <_malloc_r+0x31c>
 8006b2c:	68bb      	ldr	r3, [r7, #8]
 8006b2e:	44ca      	add	sl, r9
 8006b30:	f04a 0201 	orr.w	r2, sl, #1
 8006b34:	605a      	str	r2, [r3, #4]
 8006b36:	e04e      	b.n	8006bd6 <_malloc_r+0x3ba>
 8006b38:	4a3d      	ldr	r2, [pc, #244]	; (8006c30 <_malloc_r+0x414>)
 8006b3a:	6810      	ldr	r0, [r2, #0]
 8006b3c:	f1b0 3fff 	cmp.w	r0, #4294967295
 8006b40:	d101      	bne.n	8006b46 <_malloc_r+0x32a>
 8006b42:	6015      	str	r5, [r2, #0]
 8006b44:	e003      	b.n	8006b4e <_malloc_r+0x332>
 8006b46:	4a3b      	ldr	r2, [pc, #236]	; (8006c34 <_malloc_r+0x418>)
 8006b48:	1949      	adds	r1, r1, r5
 8006b4a:	1acb      	subs	r3, r1, r3
 8006b4c:	6013      	str	r3, [r2, #0]
 8006b4e:	f015 0307 	ands.w	r3, r5, #7
 8006b52:	4630      	mov	r0, r6
 8006b54:	bf1c      	itt	ne
 8006b56:	f1c3 0308 	rsbne	r3, r3, #8
 8006b5a:	18ed      	addne	r5, r5, r3
 8006b5c:	f503 5380 	add.w	r3, r3, #4096	; 0x1000
 8006b60:	44aa      	add	sl, r5
 8006b62:	ea4f 5a0a 	mov.w	sl, sl, lsl #20
 8006b66:	ea4f 5a1a 	mov.w	sl, sl, lsr #20
 8006b6a:	ebca 0a03 	rsb	sl, sl, r3
 8006b6e:	4651      	mov	r1, sl
 8006b70:	f000 fe70 	bl	8007854 <_sbrk_r>
 8006b74:	4b2f      	ldr	r3, [pc, #188]	; (8006c34 <_malloc_r+0x418>)
 8006b76:	60bd      	str	r5, [r7, #8]
 8006b78:	681a      	ldr	r2, [r3, #0]
 8006b7a:	f1b0 3fff 	cmp.w	r0, #4294967295
 8006b7e:	bf04      	itt	eq
 8006b80:	4628      	moveq	r0, r5
 8006b82:	f04f 0a00 	moveq.w	sl, #0
 8006b86:	1b40      	subs	r0, r0, r5
 8006b88:	45b8      	cmp	r8, r7
 8006b8a:	4450      	add	r0, sl
 8006b8c:	4452      	add	r2, sl
 8006b8e:	f040 0001 	orr.w	r0, r0, #1
 8006b92:	601a      	str	r2, [r3, #0]
 8006b94:	6068      	str	r0, [r5, #4]
 8006b96:	d01e      	beq.n	8006bd6 <_malloc_r+0x3ba>
 8006b98:	f1b9 0f0f 	cmp.w	r9, #15
 8006b9c:	d802      	bhi.n	8006ba4 <_malloc_r+0x388>
 8006b9e:	2301      	movs	r3, #1
 8006ba0:	606b      	str	r3, [r5, #4]
 8006ba2:	e024      	b.n	8006bee <_malloc_r+0x3d2>
 8006ba4:	f1a9 090c 	sub.w	r9, r9, #12
 8006ba8:	2205      	movs	r2, #5
 8006baa:	f029 0907 	bic.w	r9, r9, #7
 8006bae:	eb08 0309 	add.w	r3, r8, r9
 8006bb2:	f1b9 0f0f 	cmp.w	r9, #15
 8006bb6:	605a      	str	r2, [r3, #4]
 8006bb8:	609a      	str	r2, [r3, #8]
 8006bba:	f8d8 3004 	ldr.w	r3, [r8, #4]
 8006bbe:	f003 0301 	and.w	r3, r3, #1
 8006bc2:	ea49 0303 	orr.w	r3, r9, r3
 8006bc6:	f8c8 3004 	str.w	r3, [r8, #4]
 8006bca:	d904      	bls.n	8006bd6 <_malloc_r+0x3ba>
 8006bcc:	4630      	mov	r0, r6
 8006bce:	f108 0108 	add.w	r1, r8, #8
 8006bd2:	f7ff fd11 	bl	80065f8 <_free_r>
 8006bd6:	4b17      	ldr	r3, [pc, #92]	; (8006c34 <_malloc_r+0x418>)
 8006bd8:	4a17      	ldr	r2, [pc, #92]	; (8006c38 <_malloc_r+0x41c>)
 8006bda:	681b      	ldr	r3, [r3, #0]
 8006bdc:	6811      	ldr	r1, [r2, #0]
 8006bde:	428b      	cmp	r3, r1
 8006be0:	bf88      	it	hi
 8006be2:	6013      	strhi	r3, [r2, #0]
 8006be4:	4a15      	ldr	r2, [pc, #84]	; (8006c3c <_malloc_r+0x420>)
 8006be6:	6811      	ldr	r1, [r2, #0]
 8006be8:	428b      	cmp	r3, r1
 8006bea:	bf88      	it	hi
 8006bec:	6013      	strhi	r3, [r2, #0]
 8006bee:	68bb      	ldr	r3, [r7, #8]
 8006bf0:	685b      	ldr	r3, [r3, #4]
 8006bf2:	f023 0303 	bic.w	r3, r3, #3
 8006bf6:	42a3      	cmp	r3, r4
 8006bf8:	d302      	bcc.n	8006c00 <_malloc_r+0x3e4>
 8006bfa:	1b1b      	subs	r3, r3, r4
 8006bfc:	2b0f      	cmp	r3, #15
 8006bfe:	dc04      	bgt.n	8006c0a <_malloc_r+0x3ee>
 8006c00:	4630      	mov	r0, r6
 8006c02:	f000 f853 	bl	8006cac <__malloc_unlock>
 8006c06:	2500      	movs	r5, #0
 8006c08:	e00c      	b.n	8006c24 <_malloc_r+0x408>
 8006c0a:	68bd      	ldr	r5, [r7, #8]
 8006c0c:	f044 0201 	orr.w	r2, r4, #1
 8006c10:	f043 0301 	orr.w	r3, r3, #1
 8006c14:	192c      	adds	r4, r5, r4
 8006c16:	60bc      	str	r4, [r7, #8]
 8006c18:	606a      	str	r2, [r5, #4]
 8006c1a:	6063      	str	r3, [r4, #4]
 8006c1c:	4630      	mov	r0, r6
 8006c1e:	3508      	adds	r5, #8
 8006c20:	f000 f844 	bl	8006cac <__malloc_unlock>
 8006c24:	4628      	mov	r0, r5
 8006c26:	e8bd 87f0 	ldmia.w	sp!, {r4, r5, r6, r7, r8, r9, sl, pc}
 8006c2a:	bf00      	nop
 8006c2c:	200005e4 	.word	0x200005e4
 8006c30:	200005c4 	.word	0x200005c4
 8006c34:	200005e8 	.word	0x200005e8
 8006c38:	200005e0 	.word	0x200005e0
 8006c3c:	200005dc 	.word	0x200005dc

08006c40 <memchr>:
 8006c40:	b2c9      	uxtb	r1, r1
 8006c42:	e004      	b.n	8006c4e <memchr+0xe>
 8006c44:	7803      	ldrb	r3, [r0, #0]
 8006c46:	3a01      	subs	r2, #1
 8006c48:	428b      	cmp	r3, r1
 8006c4a:	d003      	beq.n	8006c54 <memchr+0x14>
 8006c4c:	3001      	adds	r0, #1
 8006c4e:	2a00      	cmp	r2, #0
 8006c50:	d1f8      	bne.n	8006c44 <memchr+0x4>
 8006c52:	4610      	mov	r0, r2
 8006c54:	4770      	bx	lr

08006c56 <memcpy>:
 8006c56:	1882      	adds	r2, r0, r2
 8006c58:	2300      	movs	r3, #0
 8006c5a:	e004      	b.n	8006c66 <memcpy+0x10>
 8006c5c:	f811 c003 	ldrb.w	ip, [r1, r3]
 8006c60:	f800 c003 	strb.w	ip, [r0, r3]
 8006c64:	3301      	adds	r3, #1
 8006c66:	eb03 0c00 	add.w	ip, r3, r0
 8006c6a:	4594      	cmp	ip, r2
 8006c6c:	d3f6      	bcc.n	8006c5c <memcpy+0x6>
 8006c6e:	4770      	bx	lr

08006c70 <memmove>:
 8006c70:	4281      	cmp	r1, r0
 8006c72:	b510      	push	{r4, lr}
 8006c74:	d215      	bcs.n	8006ca2 <memmove+0x32>
 8006c76:	eb01 0c02 	add.w	ip, r1, r2
 8006c7a:	4560      	cmp	r0, ip
 8006c7c:	d211      	bcs.n	8006ca2 <memmove+0x32>
 8006c7e:	1881      	adds	r1, r0, r2
 8006c80:	2300      	movs	r3, #0
 8006c82:	e003      	b.n	8006c8c <memmove+0x1c>
 8006c84:	f81c 4003 	ldrb.w	r4, [ip, r3]
 8006c88:	3a01      	subs	r2, #1
 8006c8a:	54cc      	strb	r4, [r1, r3]
 8006c8c:	3b01      	subs	r3, #1
 8006c8e:	2a00      	cmp	r2, #0
 8006c90:	d1f8      	bne.n	8006c84 <memmove+0x14>
 8006c92:	bd10      	pop	{r4, pc}
 8006c94:	f811 c003 	ldrb.w	ip, [r1, r3]
 8006c98:	3a01      	subs	r2, #1
 8006c9a:	f800 c003 	strb.w	ip, [r0, r3]
 8006c9e:	3301      	adds	r3, #1
 8006ca0:	e000      	b.n	8006ca4 <memmove+0x34>
 8006ca2:	2300      	movs	r3, #0
 8006ca4:	2a00      	cmp	r2, #0
 8006ca6:	d1f5      	bne.n	8006c94 <memmove+0x24>
 8006ca8:	bd10      	pop	{r4, pc}

08006caa <__malloc_lock>:
 8006caa:	4770      	bx	lr

08006cac <__malloc_unlock>:
 8006cac:	4770      	bx	lr

08006cae <__hi0bits>:
 8006cae:	0c02      	lsrs	r2, r0, #16
 8006cb0:	4603      	mov	r3, r0
 8006cb2:	0412      	lsls	r2, r2, #16
 8006cb4:	b10a      	cbz	r2, 8006cba <__hi0bits+0xc>
 8006cb6:	2000      	movs	r0, #0
 8006cb8:	e001      	b.n	8006cbe <__hi0bits+0x10>
 8006cba:	0403      	lsls	r3, r0, #16
 8006cbc:	2010      	movs	r0, #16
 8006cbe:	f013 4f7f 	tst.w	r3, #4278190080	; 0xff000000
 8006cc2:	d101      	bne.n	8006cc8 <__hi0bits+0x1a>
 8006cc4:	3008      	adds	r0, #8
 8006cc6:	021b      	lsls	r3, r3, #8
 8006cc8:	f013 4f70 	tst.w	r3, #4026531840	; 0xf0000000
 8006ccc:	d101      	bne.n	8006cd2 <__hi0bits+0x24>
 8006cce:	3004      	adds	r0, #4
 8006cd0:	011b      	lsls	r3, r3, #4
 8006cd2:	f013 4f40 	tst.w	r3, #3221225472	; 0xc0000000
 8006cd6:	d101      	bne.n	8006cdc <__hi0bits+0x2e>
 8006cd8:	3002      	adds	r0, #2
 8006cda:	009b      	lsls	r3, r3, #2
 8006cdc:	2b00      	cmp	r3, #0
 8006cde:	db05      	blt.n	8006cec <__hi0bits+0x3e>
 8006ce0:	f013 4f80 	tst.w	r3, #1073741824	; 0x40000000
 8006ce4:	d101      	bne.n	8006cea <__hi0bits+0x3c>
 8006ce6:	2020      	movs	r0, #32
 8006ce8:	4770      	bx	lr
 8006cea:	3001      	adds	r0, #1
 8006cec:	4770      	bx	lr

08006cee <__lo0bits>:
 8006cee:	6803      	ldr	r3, [r0, #0]
 8006cf0:	4602      	mov	r2, r0
 8006cf2:	f013 0007 	ands.w	r0, r3, #7
 8006cf6:	d00f      	beq.n	8006d18 <__lo0bits+0x2a>
 8006cf8:	f013 0f01 	tst.w	r3, #1
 8006cfc:	d001      	beq.n	8006d02 <__lo0bits+0x14>
 8006cfe:	2000      	movs	r0, #0
 8006d00:	4770      	bx	lr
 8006d02:	f013 0f02 	tst.w	r3, #2
 8006d06:	d003      	beq.n	8006d10 <__lo0bits+0x22>
 8006d08:	085b      	lsrs	r3, r3, #1
 8006d0a:	2001      	movs	r0, #1
 8006d0c:	6013      	str	r3, [r2, #0]
 8006d0e:	4770      	bx	lr
 8006d10:	089b      	lsrs	r3, r3, #2
 8006d12:	2002      	movs	r0, #2
 8006d14:	6013      	str	r3, [r2, #0]
 8006d16:	4770      	bx	lr
 8006d18:	b299      	uxth	r1, r3
 8006d1a:	b909      	cbnz	r1, 8006d20 <__lo0bits+0x32>
 8006d1c:	0c1b      	lsrs	r3, r3, #16
 8006d1e:	2010      	movs	r0, #16
 8006d20:	f013 0fff 	tst.w	r3, #255	; 0xff
 8006d24:	d101      	bne.n	8006d2a <__lo0bits+0x3c>
 8006d26:	3008      	adds	r0, #8
 8006d28:	0a1b      	lsrs	r3, r3, #8
 8006d2a:	f013 0f0f 	tst.w	r3, #15
 8006d2e:	d101      	bne.n	8006d34 <__lo0bits+0x46>
 8006d30:	3004      	adds	r0, #4
 8006d32:	091b      	lsrs	r3, r3, #4
 8006d34:	f013 0f03 	tst.w	r3, #3
 8006d38:	d101      	bne.n	8006d3e <__lo0bits+0x50>
 8006d3a:	3002      	adds	r0, #2
 8006d3c:	089b      	lsrs	r3, r3, #2
 8006d3e:	f013 0f01 	tst.w	r3, #1
 8006d42:	d104      	bne.n	8006d4e <__lo0bits+0x60>
 8006d44:	085b      	lsrs	r3, r3, #1
 8006d46:	d101      	bne.n	8006d4c <__lo0bits+0x5e>
 8006d48:	2020      	movs	r0, #32
 8006d4a:	4770      	bx	lr
 8006d4c:	3001      	adds	r0, #1
 8006d4e:	6013      	str	r3, [r2, #0]
 8006d50:	4770      	bx	lr

08006d52 <__mcmp>:
 8006d52:	4603      	mov	r3, r0
 8006d54:	690a      	ldr	r2, [r1, #16]
 8006d56:	6900      	ldr	r0, [r0, #16]
 8006d58:	b510      	push	{r4, lr}
 8006d5a:	1a80      	subs	r0, r0, r2
 8006d5c:	d117      	bne.n	8006d8e <__mcmp+0x3c>
 8006d5e:	3204      	adds	r2, #4
 8006d60:	f103 0c14 	add.w	ip, r3, #20
 8006d64:	0092      	lsls	r2, r2, #2
 8006d66:	1889      	adds	r1, r1, r2
 8006d68:	189b      	adds	r3, r3, r2
 8006d6a:	3104      	adds	r1, #4
 8006d6c:	3304      	adds	r3, #4
 8006d6e:	f853 4c04 	ldr.w	r4, [r3, #-4]
 8006d72:	f851 2c04 	ldr.w	r2, [r1, #-4]
 8006d76:	4294      	cmp	r4, r2
 8006d78:	d005      	beq.n	8006d86 <__mcmp+0x34>
 8006d7a:	d301      	bcc.n	8006d80 <__mcmp+0x2e>
 8006d7c:	2001      	movs	r0, #1
 8006d7e:	bd10      	pop	{r4, pc}
 8006d80:	f04f 30ff 	mov.w	r0, #4294967295
 8006d84:	bd10      	pop	{r4, pc}
 8006d86:	3b04      	subs	r3, #4
 8006d88:	3904      	subs	r1, #4
 8006d8a:	4563      	cmp	r3, ip
 8006d8c:	d8ef      	bhi.n	8006d6e <__mcmp+0x1c>
 8006d8e:	bd10      	pop	{r4, pc}

08006d90 <__ulp>:
 8006d90:	4b0f      	ldr	r3, [pc, #60]	; (8006dd0 <__ulp+0x40>)
 8006d92:	ea01 0303 	and.w	r3, r1, r3
 8006d96:	f1a3 7350 	sub.w	r3, r3, #54525952	; 0x3400000
 8006d9a:	2b00      	cmp	r3, #0
 8006d9c:	dd01      	ble.n	8006da2 <__ulp+0x12>
 8006d9e:	4619      	mov	r1, r3
 8006da0:	e007      	b.n	8006db2 <__ulp+0x22>
 8006da2:	425b      	negs	r3, r3
 8006da4:	151b      	asrs	r3, r3, #20
 8006da6:	2b13      	cmp	r3, #19
 8006da8:	dc05      	bgt.n	8006db6 <__ulp+0x26>
 8006daa:	f44f 2200 	mov.w	r2, #524288	; 0x80000
 8006dae:	fa52 f103 	asrs.w	r1, r2, r3
 8006db2:	2000      	movs	r0, #0
 8006db4:	4770      	bx	lr
 8006db6:	3b14      	subs	r3, #20
 8006db8:	2b1e      	cmp	r3, #30
 8006dba:	dd01      	ble.n	8006dc0 <__ulp+0x30>
 8006dbc:	2301      	movs	r3, #1
 8006dbe:	e004      	b.n	8006dca <__ulp+0x3a>
 8006dc0:	2201      	movs	r2, #1
 8006dc2:	f1c3 031f 	rsb	r3, r3, #31
 8006dc6:	fa12 f303 	lsls.w	r3, r2, r3
 8006dca:	2100      	movs	r1, #0
 8006dcc:	4618      	mov	r0, r3
 8006dce:	4770      	bx	lr
 8006dd0:	7ff00000 	.word	0x7ff00000

08006dd4 <__b2d>:
 8006dd4:	6903      	ldr	r3, [r0, #16]
 8006dd6:	e92d 41f0 	stmdb	sp!, {r4, r5, r6, r7, r8, lr}
 8006dda:	3304      	adds	r3, #4
 8006ddc:	f100 0614 	add.w	r6, r0, #20
 8006de0:	4688      	mov	r8, r1
 8006de2:	f850 5023 	ldr.w	r5, [r0, r3, lsl #2]
 8006de6:	eb00 0483 	add.w	r4, r0, r3, lsl #2
 8006dea:	4627      	mov	r7, r4
 8006dec:	4628      	mov	r0, r5
 8006dee:	f7ff ff5e 	bl	8006cae <__hi0bits>
 8006df2:	280a      	cmp	r0, #10
 8006df4:	f1c0 0320 	rsb	r3, r0, #32
 8006df8:	f8c8 3000 	str.w	r3, [r8]
 8006dfc:	dc14      	bgt.n	8006e28 <__b2d+0x54>
 8006dfe:	42b4      	cmp	r4, r6
 8006e00:	f1c0 010b 	rsb	r1, r0, #11
 8006e04:	d801      	bhi.n	8006e0a <__b2d+0x36>
 8006e06:	2400      	movs	r4, #0
 8006e08:	e001      	b.n	8006e0e <__b2d+0x3a>
 8006e0a:	f854 4c04 	ldr.w	r4, [r4, #-4]
 8006e0e:	fa25 fc01 	lsr.w	ip, r5, r1
 8006e12:	3015      	adds	r0, #21
 8006e14:	f04c 537e 	orr.w	r3, ip, #1065353216	; 0x3f800000
 8006e18:	fa34 f101 	lsrs.w	r1, r4, r1
 8006e1c:	4085      	lsls	r5, r0
 8006e1e:	f443 03e0 	orr.w	r3, r3, #7340032	; 0x700000
 8006e22:	ea41 0205 	orr.w	r2, r1, r5
 8006e26:	e025      	b.n	8006e74 <__b2d+0xa0>
 8006e28:	42b4      	cmp	r4, r6
 8006e2a:	d801      	bhi.n	8006e30 <__b2d+0x5c>
 8006e2c:	2100      	movs	r1, #0
 8006e2e:	e002      	b.n	8006e36 <__b2d+0x62>
 8006e30:	f857 1c04 	ldr.w	r1, [r7, #-4]
 8006e34:	3c04      	subs	r4, #4
 8006e36:	380b      	subs	r0, #11
 8006e38:	d017      	beq.n	8006e6a <__b2d+0x96>
 8006e3a:	42b4      	cmp	r4, r6
 8006e3c:	f1c0 0c20 	rsb	ip, r0, #32
 8006e40:	d801      	bhi.n	8006e46 <__b2d+0x72>
 8006e42:	2400      	movs	r4, #0
 8006e44:	e001      	b.n	8006e4a <__b2d+0x76>
 8006e46:	f854 4c04 	ldr.w	r4, [r4, #-4]
 8006e4a:	4085      	lsls	r5, r0
 8006e4c:	fa21 f60c 	lsr.w	r6, r1, ip
 8006e50:	f045 557e 	orr.w	r5, r5, #1065353216	; 0x3f800000
 8006e54:	fa24 fc0c 	lsr.w	ip, r4, ip
 8006e58:	f445 05e0 	orr.w	r5, r5, #7340032	; 0x700000
 8006e5c:	fa11 f000 	lsls.w	r0, r1, r0
 8006e60:	ea45 0306 	orr.w	r3, r5, r6
 8006e64:	ea4c 0200 	orr.w	r2, ip, r0
 8006e68:	e004      	b.n	8006e74 <__b2d+0xa0>
 8006e6a:	f045 537e 	orr.w	r3, r5, #1065353216	; 0x3f800000
 8006e6e:	460a      	mov	r2, r1
 8006e70:	f443 03e0 	orr.w	r3, r3, #7340032	; 0x700000
 8006e74:	4610      	mov	r0, r2
 8006e76:	4619      	mov	r1, r3
 8006e78:	e8bd 81f0 	ldmia.w	sp!, {r4, r5, r6, r7, r8, pc}

08006e7c <__ratio>:
 8006e7c:	b5f7      	push	{r0, r1, r2, r4, r5, r6, r7, lr}
 8006e7e:	460e      	mov	r6, r1
 8006e80:	a901      	add	r1, sp, #4
 8006e82:	4607      	mov	r7, r0
 8006e84:	f7ff ffa6 	bl	8006dd4 <__b2d>
 8006e88:	4604      	mov	r4, r0
 8006e8a:	460d      	mov	r5, r1
 8006e8c:	4630      	mov	r0, r6
 8006e8e:	4669      	mov	r1, sp
 8006e90:	f7ff ffa0 	bl	8006dd4 <__b2d>
 8006e94:	693f      	ldr	r7, [r7, #16]
 8006e96:	4602      	mov	r2, r0
 8006e98:	460b      	mov	r3, r1
 8006e9a:	9801      	ldr	r0, [sp, #4]
 8006e9c:	9900      	ldr	r1, [sp, #0]
 8006e9e:	1a40      	subs	r0, r0, r1
 8006ea0:	6931      	ldr	r1, [r6, #16]
 8006ea2:	1a79      	subs	r1, r7, r1
 8006ea4:	eb00 1141 	add.w	r1, r0, r1, lsl #5
 8006ea8:	2900      	cmp	r1, #0
 8006eaa:	dd02      	ble.n	8006eb2 <__ratio+0x36>
 8006eac:	eb05 5501 	add.w	r5, r5, r1, lsl #20
 8006eb0:	e002      	b.n	8006eb8 <__ratio+0x3c>
 8006eb2:	4249      	negs	r1, r1
 8006eb4:	eb03 5301 	add.w	r3, r3, r1, lsl #20
 8006eb8:	4620      	mov	r0, r4
 8006eba:	4629      	mov	r1, r5
 8006ebc:	f7fd fa84 	bl	80043c8 <__aeabi_ddiv>
 8006ec0:	b003      	add	sp, #12
 8006ec2:	bdf0      	pop	{r4, r5, r6, r7, pc}

08006ec4 <_mprec_log10>:
 8006ec4:	2817      	cmp	r0, #23
 8006ec6:	b510      	push	{r4, lr}
 8006ec8:	4604      	mov	r4, r0
 8006eca:	dc05      	bgt.n	8006ed8 <_mprec_log10+0x14>
 8006ecc:	4b07      	ldr	r3, [pc, #28]	; (8006eec <_mprec_log10+0x28>)
 8006ece:	eb03 04c0 	add.w	r4, r3, r0, lsl #3
 8006ed2:	e9d4 0100 	ldrd	r0, r1, [r4]
 8006ed6:	bd10      	pop	{r4, pc}
 8006ed8:	4905      	ldr	r1, [pc, #20]	; (8006ef0 <_mprec_log10+0x2c>)
 8006eda:	2000      	movs	r0, #0
 8006edc:	2200      	movs	r2, #0
 8006ede:	4b05      	ldr	r3, [pc, #20]	; (8006ef4 <_mprec_log10+0x30>)
 8006ee0:	f7fd f948 	bl	8004174 <__aeabi_dmul>
 8006ee4:	3c01      	subs	r4, #1
 8006ee6:	d1f9      	bne.n	8006edc <_mprec_log10+0x18>
 8006ee8:	bd10      	pop	{r4, pc}
 8006eea:	bf00      	nop
 8006eec:	08007a78 	.word	0x08007a78
 8006ef0:	3ff00000 	.word	0x3ff00000
 8006ef4:	40240000 	.word	0x40240000

08006ef8 <__copybits>:
 8006ef8:	f101 3cff 	add.w	ip, r1, #4294967295
 8006efc:	6913      	ldr	r3, [r2, #16]
 8006efe:	f102 0114 	add.w	r1, r2, #20
 8006f02:	ea4f 1c6c 	mov.w	ip, ip, asr #5
 8006f06:	f10c 0c01 	add.w	ip, ip, #1
 8006f0a:	eb02 0283 	add.w	r2, r2, r3, lsl #2
 8006f0e:	3214      	adds	r2, #20
 8006f10:	eb00 0c8c 	add.w	ip, r0, ip, lsl #2
 8006f14:	e003      	b.n	8006f1e <__copybits+0x26>
 8006f16:	f851 3b04 	ldr.w	r3, [r1], #4
 8006f1a:	f840 3c04 	str.w	r3, [r0, #-4]
 8006f1e:	4603      	mov	r3, r0
 8006f20:	3004      	adds	r0, #4
 8006f22:	4291      	cmp	r1, r2
 8006f24:	d3f7      	bcc.n	8006f16 <__copybits+0x1e>
 8006f26:	e002      	b.n	8006f2e <__copybits+0x36>
 8006f28:	2200      	movs	r2, #0
 8006f2a:	f843 2b04 	str.w	r2, [r3], #4
 8006f2e:	4563      	cmp	r3, ip
 8006f30:	d3fa      	bcc.n	8006f28 <__copybits+0x30>
 8006f32:	4770      	bx	lr

08006f34 <__any_on>:
 8006f34:	6902      	ldr	r2, [r0, #16]
 8006f36:	114b      	asrs	r3, r1, #5
 8006f38:	b510      	push	{r4, lr}
 8006f3a:	4293      	cmp	r3, r2
 8006f3c:	f100 0c14 	add.w	ip, r0, #20
 8006f40:	dd01      	ble.n	8006f46 <__any_on+0x12>
 8006f42:	4613      	mov	r3, r2
 8006f44:	e00c      	b.n	8006f60 <__any_on+0x2c>
 8006f46:	da0b      	bge.n	8006f60 <__any_on+0x2c>
 8006f48:	f011 011f 	ands.w	r1, r1, #31
 8006f4c:	d008      	beq.n	8006f60 <__any_on+0x2c>
 8006f4e:	eb00 0283 	add.w	r2, r0, r3, lsl #2
 8006f52:	6952      	ldr	r2, [r2, #20]
 8006f54:	fa32 f401 	lsrs.w	r4, r2, r1
 8006f58:	fa14 f101 	lsls.w	r1, r4, r1
 8006f5c:	4291      	cmp	r1, r2
 8006f5e:	d10a      	bne.n	8006f76 <__any_on+0x42>
 8006f60:	eb00 0383 	add.w	r3, r0, r3, lsl #2
 8006f64:	3314      	adds	r3, #20
 8006f66:	e002      	b.n	8006f6e <__any_on+0x3a>
 8006f68:	f853 2d04 	ldr.w	r2, [r3, #-4]!
 8006f6c:	b91a      	cbnz	r2, 8006f76 <__any_on+0x42>
 8006f6e:	4563      	cmp	r3, ip
 8006f70:	d8fa      	bhi.n	8006f68 <__any_on+0x34>
 8006f72:	2000      	movs	r0, #0
 8006f74:	bd10      	pop	{r4, pc}
 8006f76:	2001      	movs	r0, #1
 8006f78:	bd10      	pop	{r4, pc}

08006f7a <_Bfree>:
 8006f7a:	b570      	push	{r4, r5, r6, lr}
 8006f7c:	6a45      	ldr	r5, [r0, #36]	; 0x24
 8006f7e:	4604      	mov	r4, r0
 8006f80:	460e      	mov	r6, r1
 8006f82:	b93d      	cbnz	r5, 8006f94 <_Bfree+0x1a>
 8006f84:	2010      	movs	r0, #16
 8006f86:	f7ff fc41 	bl	800680c <malloc>
 8006f8a:	6260      	str	r0, [r4, #36]	; 0x24
 8006f8c:	6045      	str	r5, [r0, #4]
 8006f8e:	6085      	str	r5, [r0, #8]
 8006f90:	6005      	str	r5, [r0, #0]
 8006f92:	60c5      	str	r5, [r0, #12]
 8006f94:	b13e      	cbz	r6, 8006fa6 <_Bfree+0x2c>
 8006f96:	6a63      	ldr	r3, [r4, #36]	; 0x24
 8006f98:	6872      	ldr	r2, [r6, #4]
 8006f9a:	68db      	ldr	r3, [r3, #12]
 8006f9c:	f853 1022 	ldr.w	r1, [r3, r2, lsl #2]
 8006fa0:	6031      	str	r1, [r6, #0]
 8006fa2:	f843 6022 	str.w	r6, [r3, r2, lsl #2]
 8006fa6:	bd70      	pop	{r4, r5, r6, pc}

08006fa8 <_Balloc>:
 8006fa8:	b570      	push	{r4, r5, r6, lr}
 8006faa:	6a46      	ldr	r6, [r0, #36]	; 0x24
 8006fac:	4604      	mov	r4, r0
 8006fae:	460d      	mov	r5, r1
 8006fb0:	b93e      	cbnz	r6, 8006fc2 <_Balloc+0x1a>
 8006fb2:	2010      	movs	r0, #16
 8006fb4:	f7ff fc2a 	bl	800680c <malloc>
 8006fb8:	6260      	str	r0, [r4, #36]	; 0x24
 8006fba:	6046      	str	r6, [r0, #4]
 8006fbc:	6086      	str	r6, [r0, #8]
 8006fbe:	6006      	str	r6, [r0, #0]
 8006fc0:	60c6      	str	r6, [r0, #12]
 8006fc2:	6a66      	ldr	r6, [r4, #36]	; 0x24
 8006fc4:	68f3      	ldr	r3, [r6, #12]
 8006fc6:	b943      	cbnz	r3, 8006fda <_Balloc+0x32>
 8006fc8:	4620      	mov	r0, r4
 8006fca:	2104      	movs	r1, #4
 8006fcc:	2210      	movs	r2, #16
 8006fce:	f000 fc66 	bl	800789e <_calloc_r>
 8006fd2:	6a63      	ldr	r3, [r4, #36]	; 0x24
 8006fd4:	60f0      	str	r0, [r6, #12]
 8006fd6:	68db      	ldr	r3, [r3, #12]
 8006fd8:	b1bb      	cbz	r3, 800700a <_Balloc+0x62>
 8006fda:	6a63      	ldr	r3, [r4, #36]	; 0x24
 8006fdc:	68da      	ldr	r2, [r3, #12]
 8006fde:	f852 3025 	ldr.w	r3, [r2, r5, lsl #2]
 8006fe2:	b11b      	cbz	r3, 8006fec <_Balloc+0x44>
 8006fe4:	6819      	ldr	r1, [r3, #0]
 8006fe6:	f842 1025 	str.w	r1, [r2, r5, lsl #2]
 8006fea:	e00b      	b.n	8007004 <_Balloc+0x5c>
 8006fec:	2101      	movs	r1, #1
 8006fee:	4620      	mov	r0, r4
 8006ff0:	fa11 f605 	lsls.w	r6, r1, r5
 8006ff4:	1d72      	adds	r2, r6, #5
 8006ff6:	0092      	lsls	r2, r2, #2
 8006ff8:	f000 fc51 	bl	800789e <_calloc_r>
 8006ffc:	4603      	mov	r3, r0
 8006ffe:	b120      	cbz	r0, 800700a <_Balloc+0x62>
 8007000:	6045      	str	r5, [r0, #4]
 8007002:	6086      	str	r6, [r0, #8]
 8007004:	2200      	movs	r2, #0
 8007006:	611a      	str	r2, [r3, #16]
 8007008:	60da      	str	r2, [r3, #12]
 800700a:	4618      	mov	r0, r3
 800700c:	bd70      	pop	{r4, r5, r6, pc}

0800700e <__d2b>:
 800700e:	e92d 45f7 	stmdb	sp!, {r0, r1, r2, r4, r5, r6, r7, r8, sl, lr}
 8007012:	2101      	movs	r1, #1
 8007014:	461f      	mov	r7, r3
 8007016:	4616      	mov	r6, r2
 8007018:	9d0a      	ldr	r5, [sp, #40]	; 0x28
 800701a:	9c0b      	ldr	r4, [sp, #44]	; 0x2c
 800701c:	f7ff ffc4 	bl	8006fa8 <_Balloc>
 8007020:	f027 4200 	bic.w	r2, r7, #2147483648	; 0x80000000
 8007024:	f027 437f 	bic.w	r3, r7, #4278190080	; 0xff000000
 8007028:	f423 0370 	bic.w	r3, r3, #15728640	; 0xf00000
 800702c:	4617      	mov	r7, r2
 800702e:	ea5f 5a12 	movs.w	sl, r2, lsr #20
 8007032:	9300      	str	r3, [sp, #0]
 8007034:	bf1c      	itt	ne
 8007036:	f443 1380 	orrne.w	r3, r3, #1048576	; 0x100000
 800703a:	9300      	strne	r3, [sp, #0]
 800703c:	4680      	mov	r8, r0
 800703e:	b1fe      	cbz	r6, 8007080 <__d2b+0x72>
 8007040:	a802      	add	r0, sp, #8
 8007042:	f840 6d04 	str.w	r6, [r0, #-4]!
 8007046:	f7ff fe52 	bl	8006cee <__lo0bits>
 800704a:	9a01      	ldr	r2, [sp, #4]
 800704c:	4603      	mov	r3, r0
 800704e:	b158      	cbz	r0, 8007068 <__d2b+0x5a>
 8007050:	9900      	ldr	r1, [sp, #0]
 8007052:	f1c0 0020 	rsb	r0, r0, #32
 8007056:	fa11 f000 	lsls.w	r0, r1, r0
 800705a:	40d9      	lsrs	r1, r3
 800705c:	ea40 0202 	orr.w	r2, r0, r2
 8007060:	f8c8 2014 	str.w	r2, [r8, #20]
 8007064:	9100      	str	r1, [sp, #0]
 8007066:	e001      	b.n	800706c <__d2b+0x5e>
 8007068:	f8c8 2014 	str.w	r2, [r8, #20]
 800706c:	9e00      	ldr	r6, [sp, #0]
 800706e:	f8c8 6018 	str.w	r6, [r8, #24]
 8007072:	2e00      	cmp	r6, #0
 8007074:	bf14      	ite	ne
 8007076:	2602      	movne	r6, #2
 8007078:	2601      	moveq	r6, #1
 800707a:	f8c8 6010 	str.w	r6, [r8, #16]
 800707e:	e00a      	b.n	8007096 <__d2b+0x88>
 8007080:	4668      	mov	r0, sp
 8007082:	2601      	movs	r6, #1
 8007084:	f7ff fe33 	bl	8006cee <__lo0bits>
 8007088:	9b00      	ldr	r3, [sp, #0]
 800708a:	f8c8 6010 	str.w	r6, [r8, #16]
 800708e:	f8c8 3014 	str.w	r3, [r8, #20]
 8007092:	f100 0320 	add.w	r3, r0, #32
 8007096:	f1ba 0f00 	cmp.w	sl, #0
 800709a:	d00a      	beq.n	80070b2 <__d2b+0xa4>
 800709c:	f5aa 6a86 	sub.w	sl, sl, #1072	; 0x430
 80070a0:	f1aa 0a03 	sub.w	sl, sl, #3
 80070a4:	eb0a 0203 	add.w	r2, sl, r3
 80070a8:	f1c3 0335 	rsb	r3, r3, #53	; 0x35
 80070ac:	602a      	str	r2, [r5, #0]
 80070ae:	6023      	str	r3, [r4, #0]
 80070b0:	e00b      	b.n	80070ca <__d2b+0xbc>
 80070b2:	f5a3 6386 	sub.w	r3, r3, #1072	; 0x430
 80070b6:	3b02      	subs	r3, #2
 80070b8:	602b      	str	r3, [r5, #0]
 80070ba:	eb08 0386 	add.w	r3, r8, r6, lsl #2
 80070be:	0176      	lsls	r6, r6, #5
 80070c0:	6918      	ldr	r0, [r3, #16]
 80070c2:	f7ff fdf4 	bl	8006cae <__hi0bits>
 80070c6:	1a36      	subs	r6, r6, r0
 80070c8:	6026      	str	r6, [r4, #0]
 80070ca:	4640      	mov	r0, r8
 80070cc:	e8bd 85fe 	ldmia.w	sp!, {r1, r2, r3, r4, r5, r6, r7, r8, sl, pc}

080070d0 <__mdiff>:
 80070d0:	e92d 47f0 	stmdb	sp!, {r4, r5, r6, r7, r8, r9, sl, lr}
 80070d4:	4605      	mov	r5, r0
 80070d6:	460c      	mov	r4, r1
 80070d8:	4608      	mov	r0, r1
 80070da:	4611      	mov	r1, r2
 80070dc:	4616      	mov	r6, r2
 80070de:	f7ff fe38 	bl	8006d52 <__mcmp>
 80070e2:	1e07      	subs	r7, r0, #0
 80070e4:	d108      	bne.n	80070f8 <__mdiff+0x28>
 80070e6:	4628      	mov	r0, r5
 80070e8:	4639      	mov	r1, r7
 80070ea:	f7ff ff5d 	bl	8006fa8 <_Balloc>
 80070ee:	2301      	movs	r3, #1
 80070f0:	6147      	str	r7, [r0, #20]
 80070f2:	6103      	str	r3, [r0, #16]
 80070f4:	e8bd 87f0 	ldmia.w	sp!, {r4, r5, r6, r7, r8, r9, sl, pc}
 80070f8:	da04      	bge.n	8007104 <__mdiff+0x34>
 80070fa:	4623      	mov	r3, r4
 80070fc:	2701      	movs	r7, #1
 80070fe:	4634      	mov	r4, r6
 8007100:	461e      	mov	r6, r3
 8007102:	e000      	b.n	8007106 <__mdiff+0x36>
 8007104:	2700      	movs	r7, #0
 8007106:	6861      	ldr	r1, [r4, #4]
 8007108:	4628      	mov	r0, r5
 800710a:	f7ff ff4d 	bl	8006fa8 <_Balloc>
 800710e:	6931      	ldr	r1, [r6, #16]
 8007110:	6922      	ldr	r2, [r4, #16]
 8007112:	f104 0314 	add.w	r3, r4, #20
 8007116:	f106 0514 	add.w	r5, r6, #20
 800711a:	f04f 0c00 	mov.w	ip, #0
 800711e:	eb06 0681 	add.w	r6, r6, r1, lsl #2
 8007122:	eb04 0482 	add.w	r4, r4, r2, lsl #2
 8007126:	f106 0a14 	add.w	sl, r6, #20
 800712a:	3414      	adds	r4, #20
 800712c:	f100 0114 	add.w	r1, r0, #20
 8007130:	60c7      	str	r7, [r0, #12]
 8007132:	f855 6b04 	ldr.w	r6, [r5], #4
 8007136:	f853 7b04 	ldr.w	r7, [r3], #4
 800713a:	fa1f f886 	uxth.w	r8, r6
 800713e:	0c36      	lsrs	r6, r6, #16
 8007140:	fa1f f987 	uxth.w	r9, r7
 8007144:	ebc6 4717 	rsb	r7, r6, r7, lsr #16
 8007148:	ebc8 0809 	rsb	r8, r8, r9
 800714c:	4555      	cmp	r5, sl
 800714e:	44e0      	add	r8, ip
 8007150:	eb07 4728 	add.w	r7, r7, r8, asr #16
 8007154:	fa1f f888 	uxth.w	r8, r8
 8007158:	ea4f 4c27 	mov.w	ip, r7, asr #16
 800715c:	ea48 4707 	orr.w	r7, r8, r7, lsl #16
 8007160:	f841 7b04 	str.w	r7, [r1], #4
 8007164:	d3e5      	bcc.n	8007132 <__mdiff+0x62>
 8007166:	e00d      	b.n	8007184 <__mdiff+0xb4>
 8007168:	f853 5b04 	ldr.w	r5, [r3], #4
 800716c:	b2ae      	uxth	r6, r5
 800716e:	0c2d      	lsrs	r5, r5, #16
 8007170:	4466      	add	r6, ip
 8007172:	eb05 4526 	add.w	r5, r5, r6, asr #16
 8007176:	b2b6      	uxth	r6, r6
 8007178:	ea4f 4c25 	mov.w	ip, r5, asr #16
 800717c:	ea46 4505 	orr.w	r5, r6, r5, lsl #16
 8007180:	f841 5c04 	str.w	r5, [r1, #-4]
 8007184:	460d      	mov	r5, r1
 8007186:	3104      	adds	r1, #4
 8007188:	42a3      	cmp	r3, r4
 800718a:	d3ed      	bcc.n	8007168 <__mdiff+0x98>
 800718c:	462b      	mov	r3, r5
 800718e:	e000      	b.n	8007192 <__mdiff+0xc2>
 8007190:	3a01      	subs	r2, #1
 8007192:	f853 1d04 	ldr.w	r1, [r3, #-4]!
 8007196:	2900      	cmp	r1, #0
 8007198:	d0fa      	beq.n	8007190 <__mdiff+0xc0>
 800719a:	6102      	str	r2, [r0, #16]
 800719c:	e8bd 87f0 	ldmia.w	sp!, {r4, r5, r6, r7, r8, r9, sl, pc}

080071a0 <__lshift>:
 80071a0:	e92d 45f8 	stmdb	sp!, {r3, r4, r5, r6, r7, r8, sl, lr}
 80071a4:	460c      	mov	r4, r1
 80071a6:	ea4f 1a62 	mov.w	sl, r2, asr #5
 80071aa:	4605      	mov	r5, r0
 80071ac:	6926      	ldr	r6, [r4, #16]
 80071ae:	4690      	mov	r8, r2
 80071b0:	6849      	ldr	r1, [r1, #4]
 80071b2:	3601      	adds	r6, #1
 80071b4:	68a3      	ldr	r3, [r4, #8]
 80071b6:	4456      	add	r6, sl
 80071b8:	e001      	b.n	80071be <__lshift+0x1e>
 80071ba:	3101      	adds	r1, #1
 80071bc:	005b      	lsls	r3, r3, #1
 80071be:	429e      	cmp	r6, r3
 80071c0:	dcfb      	bgt.n	80071ba <__lshift+0x1a>
 80071c2:	4628      	mov	r0, r5
 80071c4:	f7ff fef0 	bl	8006fa8 <_Balloc>
 80071c8:	2300      	movs	r3, #0
 80071ca:	4607      	mov	r7, r0
 80071cc:	f100 0114 	add.w	r1, r0, #20
 80071d0:	e003      	b.n	80071da <__lshift+0x3a>
 80071d2:	3301      	adds	r3, #1
 80071d4:	2200      	movs	r2, #0
 80071d6:	f841 2c04 	str.w	r2, [r1, #-4]
 80071da:	460a      	mov	r2, r1
 80071dc:	3104      	adds	r1, #4
 80071de:	4553      	cmp	r3, sl
 80071e0:	dbf7      	blt.n	80071d2 <__lshift+0x32>
 80071e2:	6920      	ldr	r0, [r4, #16]
 80071e4:	f104 0314 	add.w	r3, r4, #20
 80071e8:	eb04 0080 	add.w	r0, r4, r0, lsl #2
 80071ec:	3014      	adds	r0, #20
 80071ee:	f018 081f 	ands.w	r8, r8, #31
 80071f2:	d014      	beq.n	800721e <__lshift+0x7e>
 80071f4:	f1c8 0c20 	rsb	ip, r8, #32
 80071f8:	2100      	movs	r1, #0
 80071fa:	f8d3 e000 	ldr.w	lr, [r3]
 80071fe:	fa0e fe08 	lsl.w	lr, lr, r8
 8007202:	ea41 010e 	orr.w	r1, r1, lr
 8007206:	f842 1b04 	str.w	r1, [r2], #4
 800720a:	f853 1b04 	ldr.w	r1, [r3], #4
 800720e:	4283      	cmp	r3, r0
 8007210:	fa21 f10c 	lsr.w	r1, r1, ip
 8007214:	d3f1      	bcc.n	80071fa <__lshift+0x5a>
 8007216:	6011      	str	r1, [r2, #0]
 8007218:	b159      	cbz	r1, 8007232 <__lshift+0x92>
 800721a:	3601      	adds	r6, #1
 800721c:	e009      	b.n	8007232 <__lshift+0x92>
 800721e:	f853 1008 	ldr.w	r1, [r3, r8]
 8007222:	f842 1008 	str.w	r1, [r2, r8]
 8007226:	f108 0804 	add.w	r8, r8, #4
 800722a:	eb08 0103 	add.w	r1, r8, r3
 800722e:	4281      	cmp	r1, r0
 8007230:	d3f5      	bcc.n	800721e <__lshift+0x7e>
 8007232:	4628      	mov	r0, r5
 8007234:	3e01      	subs	r6, #1
 8007236:	4621      	mov	r1, r4
 8007238:	613e      	str	r6, [r7, #16]
 800723a:	f7ff fe9e 	bl	8006f7a <_Bfree>
 800723e:	4638      	mov	r0, r7
 8007240:	e8bd 85f8 	ldmia.w	sp!, {r3, r4, r5, r6, r7, r8, sl, pc}

08007244 <__multiply>:
 8007244:	e92d 4ff0 	stmdb	sp!, {r4, r5, r6, r7, r8, r9, sl, fp, lr}
 8007248:	4616      	mov	r6, r2
 800724a:	690a      	ldr	r2, [r1, #16]
 800724c:	b087      	sub	sp, #28
 800724e:	6933      	ldr	r3, [r6, #16]
 8007250:	460d      	mov	r5, r1
 8007252:	429a      	cmp	r2, r3
 8007254:	da01      	bge.n	800725a <__multiply+0x16>
 8007256:	4635      	mov	r5, r6
 8007258:	460e      	mov	r6, r1
 800725a:	f8d5 8010 	ldr.w	r8, [r5, #16]
 800725e:	6937      	ldr	r7, [r6, #16]
 8007260:	68ab      	ldr	r3, [r5, #8]
 8007262:	6869      	ldr	r1, [r5, #4]
 8007264:	eb07 0408 	add.w	r4, r7, r8
 8007268:	429c      	cmp	r4, r3
 800726a:	bfc8      	it	gt
 800726c:	3101      	addgt	r1, #1
 800726e:	f7ff fe9b 	bl	8006fa8 <_Balloc>
 8007272:	f100 0c14 	add.w	ip, r0, #20
 8007276:	eb00 0384 	add.w	r3, r0, r4, lsl #2
 800727a:	3314      	adds	r3, #20
 800727c:	9304      	str	r3, [sp, #16]
 800727e:	4663      	mov	r3, ip
 8007280:	e002      	b.n	8007288 <__multiply+0x44>
 8007282:	2200      	movs	r2, #0
 8007284:	f843 2b04 	str.w	r2, [r3], #4
 8007288:	9a04      	ldr	r2, [sp, #16]
 800728a:	4293      	cmp	r3, r2
 800728c:	d3f9      	bcc.n	8007282 <__multiply+0x3e>
 800728e:	f105 0314 	add.w	r3, r5, #20
 8007292:	f106 0114 	add.w	r1, r6, #20
 8007296:	eb05 0588 	add.w	r5, r5, r8, lsl #2
 800729a:	eb06 0687 	add.w	r6, r6, r7, lsl #2
 800729e:	9302      	str	r3, [sp, #8]
 80072a0:	3514      	adds	r5, #20
 80072a2:	3614      	adds	r6, #20
 80072a4:	9503      	str	r5, [sp, #12]
 80072a6:	9605      	str	r6, [sp, #20]
 80072a8:	2300      	movs	r3, #0
 80072aa:	e049      	b.n	8007340 <__multiply+0xfc>
 80072ac:	5acf      	ldrh	r7, [r1, r3]
 80072ae:	b30f      	cbz	r7, 80072f4 <__multiply+0xb0>
 80072b0:	9e02      	ldr	r6, [sp, #8]
 80072b2:	4642      	mov	r2, r8
 80072b4:	2500      	movs	r5, #0
 80072b6:	9301      	str	r3, [sp, #4]
 80072b8:	f856 ab04 	ldr.w	sl, [r6], #4
 80072bc:	6813      	ldr	r3, [r2, #0]
 80072be:	fa1f fb8a 	uxth.w	fp, sl
 80072c2:	ea4f 4a1a 	mov.w	sl, sl, lsr #16
 80072c6:	fa1f f983 	uxth.w	r9, r3
 80072ca:	fb07 990b 	mla	r9, r7, fp, r9
 80072ce:	44a9      	add	r9, r5
 80072d0:	0c1d      	lsrs	r5, r3, #16
 80072d2:	9b03      	ldr	r3, [sp, #12]
 80072d4:	fb07 5a0a 	mla	sl, r7, sl, r5
 80072d8:	429e      	cmp	r6, r3
 80072da:	eb0a 4a19 	add.w	sl, sl, r9, lsr #16
 80072de:	fa1f f989 	uxth.w	r9, r9
 80072e2:	ea49 490a 	orr.w	r9, r9, sl, lsl #16
 80072e6:	ea4f 451a 	mov.w	r5, sl, lsr #16
 80072ea:	f842 9b04 	str.w	r9, [r2], #4
 80072ee:	d3e3      	bcc.n	80072b8 <__multiply+0x74>
 80072f0:	9b01      	ldr	r3, [sp, #4]
 80072f2:	6015      	str	r5, [r2, #0]
 80072f4:	58ca      	ldr	r2, [r1, r3]
 80072f6:	ea5f 4a12 	movs.w	sl, r2, lsr #16
 80072fa:	d020      	beq.n	800733e <__multiply+0xfa>
 80072fc:	f85c 5003 	ldr.w	r5, [ip, r3]
 8007300:	4642      	mov	r2, r8
 8007302:	9e02      	ldr	r6, [sp, #8]
 8007304:	2700      	movs	r7, #0
 8007306:	f8b6 9000 	ldrh.w	r9, [r6]
 800730a:	b2ad      	uxth	r5, r5
 800730c:	f8b2 8002 	ldrh.w	r8, [r2, #2]
 8007310:	fb0a 8809 	mla	r8, sl, r9, r8
 8007314:	4447      	add	r7, r8
 8007316:	ea45 4507 	orr.w	r5, r5, r7, lsl #16
 800731a:	6015      	str	r5, [r2, #0]
 800731c:	f856 5b04 	ldr.w	r5, [r6], #4
 8007320:	ea4f 4815 	mov.w	r8, r5, lsr #16
 8007324:	f852 5f04 	ldr.w	r5, [r2, #4]!
 8007328:	b2ad      	uxth	r5, r5
 800732a:	fb0a 5508 	mla	r5, sl, r8, r5
 800732e:	f8dd 800c 	ldr.w	r8, [sp, #12]
 8007332:	eb05 4517 	add.w	r5, r5, r7, lsr #16
 8007336:	0c2f      	lsrs	r7, r5, #16
 8007338:	4546      	cmp	r6, r8
 800733a:	d3e4      	bcc.n	8007306 <__multiply+0xc2>
 800733c:	6015      	str	r5, [r2, #0]
 800733e:	3304      	adds	r3, #4
 8007340:	9d05      	ldr	r5, [sp, #20]
 8007342:	185a      	adds	r2, r3, r1
 8007344:	eb03 080c 	add.w	r8, r3, ip
 8007348:	42aa      	cmp	r2, r5
 800734a:	d3af      	bcc.n	80072ac <__multiply+0x68>
 800734c:	9b04      	ldr	r3, [sp, #16]
 800734e:	e000      	b.n	8007352 <__multiply+0x10e>
 8007350:	3c01      	subs	r4, #1
 8007352:	2c00      	cmp	r4, #0
 8007354:	dd03      	ble.n	800735e <__multiply+0x11a>
 8007356:	f853 2d04 	ldr.w	r2, [r3, #-4]!
 800735a:	2a00      	cmp	r2, #0
 800735c:	d0f8      	beq.n	8007350 <__multiply+0x10c>
 800735e:	6104      	str	r4, [r0, #16]
 8007360:	b007      	add	sp, #28
 8007362:	e8bd 8ff0 	ldmia.w	sp!, {r4, r5, r6, r7, r8, r9, sl, fp, pc}

08007366 <__i2b>:
 8007366:	b510      	push	{r4, lr}
 8007368:	460c      	mov	r4, r1
 800736a:	2101      	movs	r1, #1
 800736c:	f7ff fe1c 	bl	8006fa8 <_Balloc>
 8007370:	2201      	movs	r2, #1
 8007372:	6144      	str	r4, [r0, #20]
 8007374:	6102      	str	r2, [r0, #16]
 8007376:	bd10      	pop	{r4, pc}

08007378 <__multadd>:
 8007378:	e92d 41f0 	stmdb	sp!, {r4, r5, r6, r7, r8, lr}
 800737c:	461f      	mov	r7, r3
 800737e:	2300      	movs	r3, #0
 8007380:	4605      	mov	r5, r0
 8007382:	460c      	mov	r4, r1
 8007384:	690e      	ldr	r6, [r1, #16]
 8007386:	f101 0014 	add.w	r0, r1, #20
 800738a:	4619      	mov	r1, r3
 800738c:	f850 c003 	ldr.w	ip, [r0, r3]
 8007390:	3101      	adds	r1, #1
 8007392:	fa1f f88c 	uxth.w	r8, ip
 8007396:	ea4f 4c1c 	mov.w	ip, ip, lsr #16
 800739a:	fb08 7802 	mla	r8, r8, r2, r7
 800739e:	fb0c fc02 	mul.w	ip, ip, r2
 80073a2:	eb0c 4c18 	add.w	ip, ip, r8, lsr #16
 80073a6:	fa1f f888 	uxth.w	r8, r8
 80073aa:	ea4f 471c 	mov.w	r7, ip, lsr #16
 80073ae:	eb08 4c0c 	add.w	ip, r8, ip, lsl #16
 80073b2:	f840 c003 	str.w	ip, [r0, r3]
 80073b6:	3304      	adds	r3, #4
 80073b8:	42b1      	cmp	r1, r6
 80073ba:	dbe7      	blt.n	800738c <__multadd+0x14>
 80073bc:	b1d7      	cbz	r7, 80073f4 <__multadd+0x7c>
 80073be:	68a3      	ldr	r3, [r4, #8]
 80073c0:	429e      	cmp	r6, r3
 80073c2:	db12      	blt.n	80073ea <__multadd+0x72>
 80073c4:	6861      	ldr	r1, [r4, #4]
 80073c6:	4628      	mov	r0, r5
 80073c8:	3101      	adds	r1, #1
 80073ca:	f7ff fded 	bl	8006fa8 <_Balloc>
 80073ce:	6922      	ldr	r2, [r4, #16]
 80073d0:	f104 010c 	add.w	r1, r4, #12
 80073d4:	3202      	adds	r2, #2
 80073d6:	0092      	lsls	r2, r2, #2
 80073d8:	4680      	mov	r8, r0
 80073da:	300c      	adds	r0, #12
 80073dc:	f7ff fc3b 	bl	8006c56 <memcpy>
 80073e0:	4621      	mov	r1, r4
 80073e2:	4628      	mov	r0, r5
 80073e4:	4644      	mov	r4, r8
 80073e6:	f7ff fdc8 	bl	8006f7a <_Bfree>
 80073ea:	eb04 0386 	add.w	r3, r4, r6, lsl #2
 80073ee:	3601      	adds	r6, #1
 80073f0:	6126      	str	r6, [r4, #16]
 80073f2:	615f      	str	r7, [r3, #20]
 80073f4:	4620      	mov	r0, r4
 80073f6:	e8bd 81f0 	ldmia.w	sp!, {r4, r5, r6, r7, r8, pc}
	...

080073fc <__pow5mult>:
 80073fc:	f012 0303 	ands.w	r3, r2, #3
 8007400:	e92d 41f0 	stmdb	sp!, {r4, r5, r6, r7, r8, lr}
 8007404:	4604      	mov	r4, r0
 8007406:	460f      	mov	r7, r1
 8007408:	4615      	mov	r5, r2
 800740a:	d007      	beq.n	800741c <__pow5mult+0x20>
 800740c:	4a23      	ldr	r2, [pc, #140]	; (800749c <__pow5mult+0xa0>)
 800740e:	3b01      	subs	r3, #1
 8007410:	f852 2023 	ldr.w	r2, [r2, r3, lsl #2]
 8007414:	2300      	movs	r3, #0
 8007416:	f7ff ffaf 	bl	8007378 <__multadd>
 800741a:	4607      	mov	r7, r0
 800741c:	10ad      	asrs	r5, r5, #2
 800741e:	d039      	beq.n	8007494 <__pow5mult+0x98>
 8007420:	6a66      	ldr	r6, [r4, #36]	; 0x24
 8007422:	b93e      	cbnz	r6, 8007434 <__pow5mult+0x38>
 8007424:	2010      	movs	r0, #16
 8007426:	f7ff f9f1 	bl	800680c <malloc>
 800742a:	6260      	str	r0, [r4, #36]	; 0x24
 800742c:	6046      	str	r6, [r0, #4]
 800742e:	6086      	str	r6, [r0, #8]
 8007430:	6006      	str	r6, [r0, #0]
 8007432:	60c6      	str	r6, [r0, #12]
 8007434:	f8d4 8024 	ldr.w	r8, [r4, #36]	; 0x24
 8007438:	f8d8 6008 	ldr.w	r6, [r8, #8]
 800743c:	b966      	cbnz	r6, 8007458 <__pow5mult+0x5c>
 800743e:	4620      	mov	r0, r4
 8007440:	f240 2171 	movw	r1, #625	; 0x271
 8007444:	f7ff ff8f 	bl	8007366 <__i2b>
 8007448:	2300      	movs	r3, #0
 800744a:	f8c8 0008 	str.w	r0, [r8, #8]
 800744e:	4606      	mov	r6, r0
 8007450:	6003      	str	r3, [r0, #0]
 8007452:	e001      	b.n	8007458 <__pow5mult+0x5c>
 8007454:	4640      	mov	r0, r8
 8007456:	4606      	mov	r6, r0
 8007458:	f015 0f01 	tst.w	r5, #1
 800745c:	d00a      	beq.n	8007474 <__pow5mult+0x78>
 800745e:	4639      	mov	r1, r7
 8007460:	4632      	mov	r2, r6
 8007462:	4620      	mov	r0, r4
 8007464:	f7ff feee 	bl	8007244 <__multiply>
 8007468:	4639      	mov	r1, r7
 800746a:	4680      	mov	r8, r0
 800746c:	4620      	mov	r0, r4
 800746e:	f7ff fd84 	bl	8006f7a <_Bfree>
 8007472:	4647      	mov	r7, r8
 8007474:	106d      	asrs	r5, r5, #1
 8007476:	d00d      	beq.n	8007494 <__pow5mult+0x98>
 8007478:	f8d6 8000 	ldr.w	r8, [r6]
 800747c:	f1b8 0f00 	cmp.w	r8, #0
 8007480:	d1e8      	bne.n	8007454 <__pow5mult+0x58>
 8007482:	4620      	mov	r0, r4
 8007484:	4631      	mov	r1, r6
 8007486:	4632      	mov	r2, r6
 8007488:	f7ff fedc 	bl	8007244 <__multiply>
 800748c:	6030      	str	r0, [r6, #0]
 800748e:	f8c0 8000 	str.w	r8, [r0]
 8007492:	e7e0      	b.n	8007456 <__pow5mult+0x5a>
 8007494:	4638      	mov	r0, r7
 8007496:	e8bd 81f0 	ldmia.w	sp!, {r4, r5, r6, r7, r8, pc}
 800749a:	bf00      	nop
 800749c:	08007a6c 	.word	0x08007a6c

080074a0 <__s2b>:
 80074a0:	e92d 45f8 	stmdb	sp!, {r3, r4, r5, r6, r7, r8, sl, lr}
 80074a4:	4606      	mov	r6, r0
 80074a6:	460f      	mov	r7, r1
 80074a8:	f103 0008 	add.w	r0, r3, #8
 80074ac:	2109      	movs	r1, #9
 80074ae:	4698      	mov	r8, r3
 80074b0:	4614      	mov	r4, r2
 80074b2:	f7fc fb4d 	bl	8003b50 <__aeabi_idiv>
 80074b6:	2100      	movs	r1, #0
 80074b8:	2301      	movs	r3, #1
 80074ba:	e001      	b.n	80074c0 <__s2b+0x20>
 80074bc:	005b      	lsls	r3, r3, #1
 80074be:	3101      	adds	r1, #1
 80074c0:	4298      	cmp	r0, r3
 80074c2:	dcfb      	bgt.n	80074bc <__s2b+0x1c>
 80074c4:	4630      	mov	r0, r6
 80074c6:	f7ff fd6f 	bl	8006fa8 <_Balloc>
 80074ca:	9b08      	ldr	r3, [sp, #32]
 80074cc:	6143      	str	r3, [r0, #20]
 80074ce:	2301      	movs	r3, #1
 80074d0:	2c09      	cmp	r4, #9
 80074d2:	4601      	mov	r1, r0
 80074d4:	6103      	str	r3, [r0, #16]
 80074d6:	dd11      	ble.n	80074fc <__s2b+0x5c>
 80074d8:	f107 0a09 	add.w	sl, r7, #9
 80074dc:	2509      	movs	r5, #9
 80074de:	5d7b      	ldrb	r3, [r7, r5]
 80074e0:	220a      	movs	r2, #10
 80074e2:	4630      	mov	r0, r6
 80074e4:	3501      	adds	r5, #1
 80074e6:	3b30      	subs	r3, #48	; 0x30
 80074e8:	f7ff ff46 	bl	8007378 <__multadd>
 80074ec:	42a5      	cmp	r5, r4
 80074ee:	4601      	mov	r1, r0
 80074f0:	dbf5      	blt.n	80074de <__s2b+0x3e>
 80074f2:	eb0a 0504 	add.w	r5, sl, r4
 80074f6:	4627      	mov	r7, r4
 80074f8:	3d08      	subs	r5, #8
 80074fa:	e002      	b.n	8007502 <__s2b+0x62>
 80074fc:	f107 050a 	add.w	r5, r7, #10
 8007500:	2709      	movs	r7, #9
 8007502:	463c      	mov	r4, r7
 8007504:	e008      	b.n	8007518 <__s2b+0x78>
 8007506:	1beb      	subs	r3, r5, r7
 8007508:	4630      	mov	r0, r6
 800750a:	220a      	movs	r2, #10
 800750c:	5d1b      	ldrb	r3, [r3, r4]
 800750e:	3401      	adds	r4, #1
 8007510:	3b30      	subs	r3, #48	; 0x30
 8007512:	f7ff ff31 	bl	8007378 <__multadd>
 8007516:	4601      	mov	r1, r0
 8007518:	4544      	cmp	r4, r8
 800751a:	dbf4      	blt.n	8007506 <__s2b+0x66>
 800751c:	4608      	mov	r0, r1
 800751e:	e8bd 85f8 	ldmia.w	sp!, {r3, r4, r5, r6, r7, r8, sl, pc}
	...

08007524 <_realloc_r>:
 8007524:	e92d 4ff7 	stmdb	sp!, {r0, r1, r2, r4, r5, r6, r7, r8, r9, sl, fp, lr}
 8007528:	4682      	mov	sl, r0
 800752a:	4617      	mov	r7, r2
 800752c:	460e      	mov	r6, r1
 800752e:	b929      	cbnz	r1, 800753c <_realloc_r+0x18>
 8007530:	4611      	mov	r1, r2
 8007532:	b003      	add	sp, #12
 8007534:	e8bd 4ff0 	ldmia.w	sp!, {r4, r5, r6, r7, r8, r9, sl, fp, lr}
 8007538:	f7ff b970 	b.w	800681c <_malloc_r>
 800753c:	f107 050b 	add.w	r5, r7, #11
 8007540:	f7ff fbb3 	bl	8006caa <__malloc_lock>
 8007544:	f1a6 0908 	sub.w	r9, r6, #8
 8007548:	2d16      	cmp	r5, #22
 800754a:	f8d9 2004 	ldr.w	r2, [r9, #4]
 800754e:	d801      	bhi.n	8007554 <_realloc_r+0x30>
 8007550:	2510      	movs	r5, #16
 8007552:	e002      	b.n	800755a <_realloc_r+0x36>
 8007554:	f035 0507 	bics.w	r5, r5, #7
 8007558:	d401      	bmi.n	800755e <_realloc_r+0x3a>
 800755a:	42bd      	cmp	r5, r7
 800755c:	d204      	bcs.n	8007568 <_realloc_r+0x44>
 800755e:	230c      	movs	r3, #12
 8007560:	2700      	movs	r7, #0
 8007562:	f8ca 3000 	str.w	r3, [sl]
 8007566:	e153      	b.n	8007810 <_realloc_r+0x2ec>
 8007568:	f022 0b03 	bic.w	fp, r2, #3
 800756c:	45ab      	cmp	fp, r5
 800756e:	f280 8123 	bge.w	80077b8 <_realloc_r+0x294>
 8007572:	4b9e      	ldr	r3, [pc, #632]	; (80077ec <_realloc_r+0x2c8>)
 8007574:	eb09 010b 	add.w	r1, r9, fp
 8007578:	f8d3 c008 	ldr.w	ip, [r3, #8]
 800757c:	4561      	cmp	r1, ip
 800757e:	d007      	beq.n	8007590 <_realloc_r+0x6c>
 8007580:	6848      	ldr	r0, [r1, #4]
 8007582:	f020 0001 	bic.w	r0, r0, #1
 8007586:	1808      	adds	r0, r1, r0
 8007588:	6840      	ldr	r0, [r0, #4]
 800758a:	f010 0f01 	tst.w	r0, #1
 800758e:	d125      	bne.n	80075dc <_realloc_r+0xb8>
 8007590:	6848      	ldr	r0, [r1, #4]
 8007592:	4561      	cmp	r1, ip
 8007594:	f020 0003 	bic.w	r0, r0, #3
 8007598:	eb00 080b 	add.w	r8, r0, fp
 800759c:	d117      	bne.n	80075ce <_realloc_r+0xaa>
 800759e:	f105 0e10 	add.w	lr, r5, #16
 80075a2:	45f0      	cmp	r8, lr
 80075a4:	db1c      	blt.n	80075e0 <_realloc_r+0xbc>
 80075a6:	eb09 0205 	add.w	r2, r9, r5
 80075aa:	ebc5 0808 	rsb	r8, r5, r8
 80075ae:	609a      	str	r2, [r3, #8]
 80075b0:	f048 0301 	orr.w	r3, r8, #1
 80075b4:	6053      	str	r3, [r2, #4]
 80075b6:	4650      	mov	r0, sl
 80075b8:	f8d9 3004 	ldr.w	r3, [r9, #4]
 80075bc:	4637      	mov	r7, r6
 80075be:	f003 0301 	and.w	r3, r3, #1
 80075c2:	431d      	orrs	r5, r3
 80075c4:	f8c9 5004 	str.w	r5, [r9, #4]
 80075c8:	f7ff fb70 	bl	8006cac <__malloc_unlock>
 80075cc:	e120      	b.n	8007810 <_realloc_r+0x2ec>
 80075ce:	45a8      	cmp	r8, r5
 80075d0:	db06      	blt.n	80075e0 <_realloc_r+0xbc>
 80075d2:	68cb      	ldr	r3, [r1, #12]
 80075d4:	688a      	ldr	r2, [r1, #8]
 80075d6:	60d3      	str	r3, [r2, #12]
 80075d8:	609a      	str	r2, [r3, #8]
 80075da:	e0ee      	b.n	80077ba <_realloc_r+0x296>
 80075dc:	2000      	movs	r0, #0
 80075de:	4601      	mov	r1, r0
 80075e0:	f012 0f01 	tst.w	r2, #1
 80075e4:	f040 809b 	bne.w	800771e <_realloc_r+0x1fa>
 80075e8:	f856 4c08 	ldr.w	r4, [r6, #-8]
 80075ec:	ebc4 0409 	rsb	r4, r4, r9
 80075f0:	6862      	ldr	r2, [r4, #4]
 80075f2:	f022 0203 	bic.w	r2, r2, #3
 80075f6:	2900      	cmp	r1, #0
 80075f8:	d056      	beq.n	80076a8 <_realloc_r+0x184>
 80075fa:	4561      	cmp	r1, ip
 80075fc:	eb02 080b 	add.w	r8, r2, fp
 8007600:	4480      	add	r8, r0
 8007602:	d14a      	bne.n	800769a <_realloc_r+0x176>
 8007604:	f105 0110 	add.w	r1, r5, #16
 8007608:	4588      	cmp	r8, r1
 800760a:	db4d      	blt.n	80076a8 <_realloc_r+0x184>
 800760c:	4627      	mov	r7, r4
 800760e:	68e2      	ldr	r2, [r4, #12]
 8007610:	f857 1f08 	ldr.w	r1, [r7, #8]!
 8007614:	60ca      	str	r2, [r1, #12]
 8007616:	6091      	str	r1, [r2, #8]
 8007618:	f1ab 0204 	sub.w	r2, fp, #4
 800761c:	2a24      	cmp	r2, #36	; 0x24
 800761e:	d829      	bhi.n	8007674 <_realloc_r+0x150>
 8007620:	2a13      	cmp	r2, #19
 8007622:	4639      	mov	r1, r7
 8007624:	d91b      	bls.n	800765e <_realloc_r+0x13a>
 8007626:	4630      	mov	r0, r6
 8007628:	f850 1b04 	ldr.w	r1, [r0], #4
 800762c:	60a1      	str	r1, [r4, #8]
 800762e:	6871      	ldr	r1, [r6, #4]
 8007630:	1d06      	adds	r6, r0, #4
 8007632:	2a1b      	cmp	r2, #27
 8007634:	60e1      	str	r1, [r4, #12]
 8007636:	f104 0110 	add.w	r1, r4, #16
 800763a:	d910      	bls.n	800765e <_realloc_r+0x13a>
 800763c:	6841      	ldr	r1, [r0, #4]
 800763e:	1d30      	adds	r0, r6, #4
 8007640:	6121      	str	r1, [r4, #16]
 8007642:	6871      	ldr	r1, [r6, #4]
 8007644:	1d06      	adds	r6, r0, #4
 8007646:	2a24      	cmp	r2, #36	; 0x24
 8007648:	6161      	str	r1, [r4, #20]
 800764a:	f104 0118 	add.w	r1, r4, #24
 800764e:	d106      	bne.n	800765e <_realloc_r+0x13a>
 8007650:	6842      	ldr	r2, [r0, #4]
 8007652:	f104 0120 	add.w	r1, r4, #32
 8007656:	61a2      	str	r2, [r4, #24]
 8007658:	6872      	ldr	r2, [r6, #4]
 800765a:	3608      	adds	r6, #8
 800765c:	61e2      	str	r2, [r4, #28]
 800765e:	4630      	mov	r0, r6
 8007660:	460a      	mov	r2, r1
 8007662:	f850 cb04 	ldr.w	ip, [r0], #4
 8007666:	f842 cb04 	str.w	ip, [r2], #4
 800766a:	6876      	ldr	r6, [r6, #4]
 800766c:	604e      	str	r6, [r1, #4]
 800766e:	6841      	ldr	r1, [r0, #4]
 8007670:	6051      	str	r1, [r2, #4]
 8007672:	e005      	b.n	8007680 <_realloc_r+0x15c>
 8007674:	4638      	mov	r0, r7
 8007676:	4631      	mov	r1, r6
 8007678:	9301      	str	r3, [sp, #4]
 800767a:	f7ff faf9 	bl	8006c70 <memmove>
 800767e:	9b01      	ldr	r3, [sp, #4]
 8007680:	1962      	adds	r2, r4, r5
 8007682:	ebc5 0808 	rsb	r8, r5, r8
 8007686:	609a      	str	r2, [r3, #8]
 8007688:	f048 0301 	orr.w	r3, r8, #1
 800768c:	6053      	str	r3, [r2, #4]
 800768e:	6863      	ldr	r3, [r4, #4]
 8007690:	f003 0301 	and.w	r3, r3, #1
 8007694:	431d      	orrs	r5, r3
 8007696:	6065      	str	r5, [r4, #4]
 8007698:	e08a      	b.n	80077b0 <_realloc_r+0x28c>
 800769a:	45a8      	cmp	r8, r5
 800769c:	db04      	blt.n	80076a8 <_realloc_r+0x184>
 800769e:	68cb      	ldr	r3, [r1, #12]
 80076a0:	688a      	ldr	r2, [r1, #8]
 80076a2:	60d3      	str	r3, [r2, #12]
 80076a4:	609a      	str	r2, [r3, #8]
 80076a6:	e003      	b.n	80076b0 <_realloc_r+0x18c>
 80076a8:	eb02 080b 	add.w	r8, r2, fp
 80076ac:	45a8      	cmp	r8, r5
 80076ae:	db36      	blt.n	800771e <_realloc_r+0x1fa>
 80076b0:	4620      	mov	r0, r4
 80076b2:	68e3      	ldr	r3, [r4, #12]
 80076b4:	f850 2f08 	ldr.w	r2, [r0, #8]!
 80076b8:	60d3      	str	r3, [r2, #12]
 80076ba:	609a      	str	r2, [r3, #8]
 80076bc:	f1ab 0204 	sub.w	r2, fp, #4
 80076c0:	2a24      	cmp	r2, #36	; 0x24
 80076c2:	d828      	bhi.n	8007716 <_realloc_r+0x1f2>
 80076c4:	2a13      	cmp	r2, #19
 80076c6:	d91b      	bls.n	8007700 <_realloc_r+0x1dc>
 80076c8:	4633      	mov	r3, r6
 80076ca:	f104 0010 	add.w	r0, r4, #16
 80076ce:	f853 1b04 	ldr.w	r1, [r3], #4
 80076d2:	60a1      	str	r1, [r4, #8]
 80076d4:	6871      	ldr	r1, [r6, #4]
 80076d6:	1d1e      	adds	r6, r3, #4
 80076d8:	2a1b      	cmp	r2, #27
 80076da:	60e1      	str	r1, [r4, #12]
 80076dc:	d910      	bls.n	8007700 <_realloc_r+0x1dc>
 80076de:	685b      	ldr	r3, [r3, #4]
 80076e0:	f104 0018 	add.w	r0, r4, #24
 80076e4:	6123      	str	r3, [r4, #16]
 80076e6:	1d33      	adds	r3, r6, #4
 80076e8:	6871      	ldr	r1, [r6, #4]
 80076ea:	1d1e      	adds	r6, r3, #4
 80076ec:	2a24      	cmp	r2, #36	; 0x24
 80076ee:	6161      	str	r1, [r4, #20]
 80076f0:	d106      	bne.n	8007700 <_realloc_r+0x1dc>
 80076f2:	685b      	ldr	r3, [r3, #4]
 80076f4:	f104 0020 	add.w	r0, r4, #32
 80076f8:	61a3      	str	r3, [r4, #24]
 80076fa:	6873      	ldr	r3, [r6, #4]
 80076fc:	3608      	adds	r6, #8
 80076fe:	61e3      	str	r3, [r4, #28]
 8007700:	4632      	mov	r2, r6
 8007702:	4603      	mov	r3, r0
 8007704:	f852 1b04 	ldr.w	r1, [r2], #4
 8007708:	f843 1b04 	str.w	r1, [r3], #4
 800770c:	6871      	ldr	r1, [r6, #4]
 800770e:	6041      	str	r1, [r0, #4]
 8007710:	6852      	ldr	r2, [r2, #4]
 8007712:	605a      	str	r2, [r3, #4]
 8007714:	e052      	b.n	80077bc <_realloc_r+0x298>
 8007716:	4631      	mov	r1, r6
 8007718:	f7ff faaa 	bl	8006c70 <memmove>
 800771c:	e04e      	b.n	80077bc <_realloc_r+0x298>
 800771e:	4639      	mov	r1, r7
 8007720:	4650      	mov	r0, sl
 8007722:	f7ff f87b 	bl	800681c <_malloc_r>
 8007726:	4607      	mov	r7, r0
 8007728:	2800      	cmp	r0, #0
 800772a:	d041      	beq.n	80077b0 <_realloc_r+0x28c>
 800772c:	f8d9 2004 	ldr.w	r2, [r9, #4]
 8007730:	f1a0 0308 	sub.w	r3, r0, #8
 8007734:	f022 0201 	bic.w	r2, r2, #1
 8007738:	444a      	add	r2, r9
 800773a:	4293      	cmp	r3, r2
 800773c:	d104      	bne.n	8007748 <_realloc_r+0x224>
 800773e:	685b      	ldr	r3, [r3, #4]
 8007740:	f023 0803 	bic.w	r8, r3, #3
 8007744:	44d8      	add	r8, fp
 8007746:	e038      	b.n	80077ba <_realloc_r+0x296>
 8007748:	f1ab 0204 	sub.w	r2, fp, #4
 800774c:	4631      	mov	r1, r6
 800774e:	2a24      	cmp	r2, #36	; 0x24
 8007750:	d828      	bhi.n	80077a4 <_realloc_r+0x280>
 8007752:	2a13      	cmp	r2, #19
 8007754:	4603      	mov	r3, r0
 8007756:	d91a      	bls.n	800778e <_realloc_r+0x26a>
 8007758:	4634      	mov	r4, r6
 800775a:	f854 3b04 	ldr.w	r3, [r4], #4
 800775e:	1d21      	adds	r1, r4, #4
 8007760:	f840 3b04 	str.w	r3, [r0], #4
 8007764:	6873      	ldr	r3, [r6, #4]
 8007766:	607b      	str	r3, [r7, #4]
 8007768:	1d03      	adds	r3, r0, #4
 800776a:	2a1b      	cmp	r2, #27
 800776c:	d90f      	bls.n	800778e <_realloc_r+0x26a>
 800776e:	6864      	ldr	r4, [r4, #4]
 8007770:	6044      	str	r4, [r0, #4]
 8007772:	1d0c      	adds	r4, r1, #4
 8007774:	6849      	ldr	r1, [r1, #4]
 8007776:	1d18      	adds	r0, r3, #4
 8007778:	6059      	str	r1, [r3, #4]
 800777a:	1d03      	adds	r3, r0, #4
 800777c:	1d21      	adds	r1, r4, #4
 800777e:	2a24      	cmp	r2, #36	; 0x24
 8007780:	d105      	bne.n	800778e <_realloc_r+0x26a>
 8007782:	6862      	ldr	r2, [r4, #4]
 8007784:	6042      	str	r2, [r0, #4]
 8007786:	684a      	ldr	r2, [r1, #4]
 8007788:	3108      	adds	r1, #8
 800778a:	605a      	str	r2, [r3, #4]
 800778c:	3308      	adds	r3, #8
 800778e:	4608      	mov	r0, r1
 8007790:	461a      	mov	r2, r3
 8007792:	f850 4b04 	ldr.w	r4, [r0], #4
 8007796:	f842 4b04 	str.w	r4, [r2], #4
 800779a:	6849      	ldr	r1, [r1, #4]
 800779c:	6059      	str	r1, [r3, #4]
 800779e:	6843      	ldr	r3, [r0, #4]
 80077a0:	6053      	str	r3, [r2, #4]
 80077a2:	e001      	b.n	80077a8 <_realloc_r+0x284>
 80077a4:	f7ff fa64 	bl	8006c70 <memmove>
 80077a8:	4650      	mov	r0, sl
 80077aa:	4631      	mov	r1, r6
 80077ac:	f7fe ff24 	bl	80065f8 <_free_r>
 80077b0:	4650      	mov	r0, sl
 80077b2:	f7ff fa7b 	bl	8006cac <__malloc_unlock>
 80077b6:	e02b      	b.n	8007810 <_realloc_r+0x2ec>
 80077b8:	46d8      	mov	r8, fp
 80077ba:	464c      	mov	r4, r9
 80077bc:	ebc5 0308 	rsb	r3, r5, r8
 80077c0:	6862      	ldr	r2, [r4, #4]
 80077c2:	2b0f      	cmp	r3, #15
 80077c4:	d914      	bls.n	80077f0 <_realloc_r+0x2cc>
 80077c6:	1961      	adds	r1, r4, r5
 80077c8:	f002 0201 	and.w	r2, r2, #1
 80077cc:	4315      	orrs	r5, r2
 80077ce:	f043 0201 	orr.w	r2, r3, #1
 80077d2:	18cb      	adds	r3, r1, r3
 80077d4:	6065      	str	r5, [r4, #4]
 80077d6:	604a      	str	r2, [r1, #4]
 80077d8:	4650      	mov	r0, sl
 80077da:	685a      	ldr	r2, [r3, #4]
 80077dc:	3108      	adds	r1, #8
 80077de:	f042 0201 	orr.w	r2, r2, #1
 80077e2:	605a      	str	r2, [r3, #4]
 80077e4:	f7fe ff08 	bl	80065f8 <_free_r>
 80077e8:	e00d      	b.n	8007806 <_realloc_r+0x2e2>
 80077ea:	bf00      	nop
 80077ec:	200001b8 	.word	0x200001b8
 80077f0:	eb04 0308 	add.w	r3, r4, r8
 80077f4:	f002 0201 	and.w	r2, r2, #1
 80077f8:	ea48 0202 	orr.w	r2, r8, r2
 80077fc:	6062      	str	r2, [r4, #4]
 80077fe:	685a      	ldr	r2, [r3, #4]
 8007800:	f042 0201 	orr.w	r2, r2, #1
 8007804:	605a      	str	r2, [r3, #4]
 8007806:	4650      	mov	r0, sl
 8007808:	f104 0708 	add.w	r7, r4, #8
 800780c:	f7ff fa4e 	bl	8006cac <__malloc_unlock>
 8007810:	4638      	mov	r0, r7
 8007812:	b003      	add	sp, #12
 8007814:	e8bd 8ff0 	ldmia.w	sp!, {r4, r5, r6, r7, r8, r9, sl, fp, pc}

08007818 <__isinfd>:
 8007818:	460b      	mov	r3, r1
 800781a:	4241      	negs	r1, r0
 800781c:	4301      	orrs	r1, r0
 800781e:	f023 4200 	bic.w	r2, r3, #2147483648	; 0x80000000
 8007822:	ea42 73d1 	orr.w	r3, r2, r1, lsr #31
 8007826:	f1c3 43fe 	rsb	r3, r3, #2130706432	; 0x7f000000
 800782a:	f503 0370 	add.w	r3, r3, #15728640	; 0xf00000
 800782e:	4258      	negs	r0, r3
 8007830:	ea40 0303 	orr.w	r3, r0, r3
 8007834:	17d8      	asrs	r0, r3, #31
 8007836:	3001      	adds	r0, #1
 8007838:	4770      	bx	lr

0800783a <__isnand>:
 800783a:	4602      	mov	r2, r0
 800783c:	4240      	negs	r0, r0
 800783e:	4310      	orrs	r0, r2
 8007840:	f021 4300 	bic.w	r3, r1, #2147483648	; 0x80000000
 8007844:	ea43 70d0 	orr.w	r0, r3, r0, lsr #31
 8007848:	f1c0 40fe 	rsb	r0, r0, #2130706432	; 0x7f000000
 800784c:	f500 0070 	add.w	r0, r0, #15728640	; 0xf00000
 8007850:	0fc0      	lsrs	r0, r0, #31
 8007852:	4770      	bx	lr

08007854 <_sbrk_r>:
 8007854:	b538      	push	{r3, r4, r5, lr}
 8007856:	4c07      	ldr	r4, [pc, #28]	; (8007874 <_sbrk_r+0x20>)
 8007858:	4605      	mov	r5, r0
 800785a:	4608      	mov	r0, r1
 800785c:	2300      	movs	r3, #0
 800785e:	6023      	str	r3, [r4, #0]
 8007860:	f7fb ff10 	bl	8003684 <_sbrk>
 8007864:	f1b0 3fff 	cmp.w	r0, #4294967295
 8007868:	d102      	bne.n	8007870 <_sbrk_r+0x1c>
 800786a:	6823      	ldr	r3, [r4, #0]
 800786c:	b103      	cbz	r3, 8007870 <_sbrk_r+0x1c>
 800786e:	602b      	str	r3, [r5, #0]
 8007870:	bd38      	pop	{r3, r4, r5, pc}
 8007872:	bf00      	nop
 8007874:	20000c3c 	.word	0x20000c3c

08007878 <strcmp>:
 8007878:	f810 2b01 	ldrb.w	r2, [r0], #1
 800787c:	f811 3b01 	ldrb.w	r3, [r1], #1
 8007880:	2a01      	cmp	r2, #1
 8007882:	bf28      	it	cs
 8007884:	429a      	cmpcs	r2, r3
 8007886:	d0f7      	beq.n	8007878 <strcmp>
 8007888:	eba2 0003 	sub.w	r0, r2, r3
 800788c:	4770      	bx	lr

0800788e <strlen>:
 800788e:	4603      	mov	r3, r0
 8007890:	43c0      	mvns	r0, r0
 8007892:	f813 2b01 	ldrb.w	r2, [r3], #1
 8007896:	2a00      	cmp	r2, #0
 8007898:	d1fb      	bne.n	8007892 <strlen+0x4>
 800789a:	18c0      	adds	r0, r0, r3
 800789c:	4770      	bx	lr

0800789e <_calloc_r>:
 800789e:	b510      	push	{r4, lr}
 80078a0:	4351      	muls	r1, r2
 80078a2:	f7fe ffbb 	bl	800681c <_malloc_r>
 80078a6:	4604      	mov	r4, r0
 80078a8:	b318      	cbz	r0, 80078f2 <_calloc_r+0x54>
 80078aa:	f850 2c04 	ldr.w	r2, [r0, #-4]
 80078ae:	f022 0203 	bic.w	r2, r2, #3
 80078b2:	3a04      	subs	r2, #4
 80078b4:	2a24      	cmp	r2, #36	; 0x24
 80078b6:	d819      	bhi.n	80078ec <_calloc_r+0x4e>
 80078b8:	2a13      	cmp	r2, #19
 80078ba:	4603      	mov	r3, r0
 80078bc:	d90f      	bls.n	80078de <_calloc_r+0x40>
 80078be:	2100      	movs	r1, #0
 80078c0:	f840 1b04 	str.w	r1, [r0], #4
 80078c4:	1d03      	adds	r3, r0, #4
 80078c6:	2a1b      	cmp	r2, #27
 80078c8:	6061      	str	r1, [r4, #4]
 80078ca:	d908      	bls.n	80078de <_calloc_r+0x40>
 80078cc:	6041      	str	r1, [r0, #4]
 80078ce:	1d18      	adds	r0, r3, #4
 80078d0:	6059      	str	r1, [r3, #4]
 80078d2:	1d03      	adds	r3, r0, #4
 80078d4:	2a24      	cmp	r2, #36	; 0x24
 80078d6:	d102      	bne.n	80078de <_calloc_r+0x40>
 80078d8:	6041      	str	r1, [r0, #4]
 80078da:	6059      	str	r1, [r3, #4]
 80078dc:	3308      	adds	r3, #8
 80078de:	461a      	mov	r2, r3
 80078e0:	2100      	movs	r1, #0
 80078e2:	f842 1b04 	str.w	r1, [r2], #4
 80078e6:	6059      	str	r1, [r3, #4]
 80078e8:	6051      	str	r1, [r2, #4]
 80078ea:	e002      	b.n	80078f2 <_calloc_r+0x54>
 80078ec:	2100      	movs	r1, #0
 80078ee:	f000 f802 	bl	80078f6 <memset>
 80078f2:	4620      	mov	r0, r4
 80078f4:	bd10      	pop	{r4, pc}

080078f6 <memset>:
 80078f6:	b2c9      	uxtb	r1, r1
 80078f8:	1882      	adds	r2, r0, r2
 80078fa:	4603      	mov	r3, r0
 80078fc:	e001      	b.n	8007902 <memset+0xc>
 80078fe:	f803 1b01 	strb.w	r1, [r3], #1
 8007902:	4293      	cmp	r3, r2
 8007904:	d3fb      	bcc.n	80078fe <memset+0x8>
 8007906:	4770      	bx	lr
 8007908:	70706148 	.word	0x70706148
 800790c:	72612079 	.word	0x72612079
 8007910:	68742065 	.word	0x68742065
 8007914:	2065736f 	.word	0x2065736f
 8007918:	206f6877 	.word	0x206f6877
 800791c:	776f6e6b 	.word	0x776f6e6b
 8007920:	65687420 	.word	0x65687420
 8007924:	72612079 	.word	0x72612079
 8007928:	70732065 	.word	0x70732065
 800792c:	74697269 	.word	0x74697269
 8007930:	6c6c6175 	.word	0x6c6c6175
 8007934:	6f702079 	.word	0x6f702079
 8007938:	203b726f 	.word	0x203b726f
 800793c:	0000000a 	.word	0x0000000a
 8007940:	20656854 	.word	0x20656854
 8007944:	676e696b 	.word	0x676e696b
 8007948:	206d6f64 	.word	0x206d6f64
 800794c:	6820666f 	.word	0x6820666f
 8007950:	65766165 	.word	0x65766165
 8007954:	6562206e 	.word	0x6562206e
 8007958:	676e6f6c 	.word	0x676e6f6c
 800795c:	6f742073 	.word	0x6f742073
 8007960:	65687420 	.word	0x65687420
 8007964:	000a216d 	.word	0x000a216d
 8007968:	20776f48 	.word	0x20776f48
 800796c:	796e616d 	.word	0x796e616d
 8007970:	65796520 	.word	0x65796520
 8007974:	6f642073 	.word	0x6f642073
 8007978:	4d207365 	.word	0x4d207365
 800797c:	69737369 	.word	0x69737369
 8007980:	70697373 	.word	0x70697373
 8007984:	69722069 	.word	0x69722069
 8007988:	20726576 	.word	0x20726576
 800798c:	65766168 	.word	0x65766168
 8007990:	00000a3f 	.word	0x00000a3f
 8007994:	58343025 	.word	0x58343025
 8007998:	0000000a 	.word	0x0000000a
 800799c:	70616548 	.word	0x70616548
 80079a0:	646e6120 	.word	0x646e6120
 80079a4:	61747320 	.word	0x61747320
 80079a8:	63206b63 	.word	0x63206b63
 80079ac:	696c6c6f 	.word	0x696c6c6f
 80079b0:	6e6f6973 	.word	0x6e6f6973
 80079b4:	0000000a 	.word	0x0000000a
 80079b8:	74697865 	.word	0x74697865
 80079bc:	00000000 	.word	0x00000000

080079c0 <zeroes.3596>:
 80079c0:	30303030 30303030 30303030 30303030     0000000000000000
 80079d0:	33323130 37363534 42413938 46454443     0123456789ABCDEF
 80079e0:	464e4900 666e6900 4e414e00 6e616e00     .INF.inf.NAN.nan
 80079f0:	32313000 36353433 61393837 65646362     .0123456789abcde
 8007a00:	00300066                                f.0.

08007a04 <blanks.3595>:
 8007a04:	20202020 20202020 20202020 20202020                     
 8007a14:	69666e49 7974696e 4e614e00 00004300     Infinity.NaN.C..

08007a24 <_global_impure_ptr>:
 8007a24:	200000b4                                ... 

08007a28 <charset>:
 8007a28:	08007a5e                                ^z..

08007a2c <lconv>:
 8007a2c:	08007a5c 08007a5d 08007a5d 08007a5d     \z..]z..]z..]z..
 8007a3c:	08007a5d 08007a5d 08007a5d 08007a5d     ]z..]z..]z..]z..
 8007a4c:	08007a5d 08007a5d ffffffff ffffffff     ]z..]z..........
 8007a5c:	5349002e 38382d4f 312d3935 00000000     ..ISO-8859-1....

08007a6c <p05.2463>:
 8007a6c:	00000005 00000019 0000007d              ........}...

08007a78 <__mprec_tens>:
 8007a78:	00000000 3ff00000 00000000 40240000     .......?......$@
 8007a88:	00000000 40590000 00000000 408f4000     ......Y@.....@.@
 8007a98:	00000000 40c38800 00000000 40f86a00     .......@.....j.@
 8007aa8:	00000000 412e8480 00000000 416312d0     .......A......cA
 8007ab8:	00000000 4197d784 00000000 41cdcd65     .......A....e..A
 8007ac8:	20000000 4202a05f e8000000 42374876     ... _..B....vH7B
 8007ad8:	a2000000 426d1a94 e5400000 42a2309c     ......mB..@..0.B
 8007ae8:	1e900000 42d6bcc4 26340000 430c6bf5     .......B..4&.k.C
 8007af8:	37e08000 4341c379 85d8a000 43763457     ...7y.AC....W4vC
 8007b08:	674ec800 43abc16d 60913d00 43e158e4     ..Ngm..C.=.`.X.C
 8007b18:	78b58c40 4415af1d d6e2ef50 444b1ae4     @..x...DP.....KD
 8007b28:	064dd592 4480f0cf c7e14af6 44b52d02     ..M....D.J...-.D
 8007b38:	79d99db4 44ea7843                       ...yCx.D

08007b40 <__mprec_bigtens>:
 8007b40:	37e08000 4341c379 b5056e17 4693b8b5     ...7y.AC.n.....F
 8007b50:	e93ff9f5 4d384f03 f9301d32 5a827748     ..?..O8M2.0.Hw.Z
 8007b60:	7f73bf3c 75154fdd                       <.s..O.u

08007b68 <__mprec_tinytens>:
 8007b68:	97d889bc 3c9cd2b2 d5a8a733 3949f623     .......<3...#.I9
 8007b78:	44f4a73d 32a50ffd cf8c979d 255bba08     =..D...2......[%
 8007b88:	64ac6f43 0ac80628                       Co.d(...
