ARM GAS  /var/folders/5n/p_75w94d66l9ssrldxqdhh700000gn/T//ccRl90lX.s 			page 1


   1              	# 1 "cmsis/device/startup_stm32f10x_md.s"
   1              	/* File: startup_ARMCM3.S
   1              	...
   0              	
   2              	 * Purpose: startup file for Cortex-M3 devices. Should use with 
   3              	 *   GCC for ARM Embedded Processors
   4              	 * Version: V1.2
   5              	 * Date: 15 Nov 2011
   6              	 * 
   7              	 * Copyright (c) 2011, ARM Limited
   8              	 * All rights reserved.
   9              	 * 
  10              	 * Redistribution and use in source and binary forms, with or without
  11              	 * modification, are permitted provided that the following conditions are met:
  12              	    * Redistributions of source code must retain the above copyright
  13              	      notice, this list of conditions and the following disclaimer.
  14              	    * Redistributions in binary form must reproduce the above copyright
  15              	      notice, this list of conditions and the following disclaimer in the
  16              	      documentation and/or other materials provided with the distribution.
  17              	    * Neither the name of the ARM Limited nor the
  18              	      names of its contributors may be used to endorse or promote products
  19              	      derived from this software without specific prior written permission.
  20              	 * 
  21              	 * THIS SOFTWARE IS PROVIDED BY THE COPYRIGHT HOLDERS AND CONTRIBUTORS "AS IS" AND
  22              	 * ANY EXPRESS OR IMPLIED WARRANTIES, INCLUDING, BUT NOT LIMITED TO, THE IMPLIED
  23              	 * WARRANTIES OF MERCHANTABILITY AND FITNESS FOR A PARTICULAR PURPOSE ARE
  24              	 * DISCLAIMED. IN NO EVENT SHALL ARM LIMITED BE LIABLE FOR ANY
  25              	 * DIRECT, INDIRECT, INCIDENTAL, SPECIAL, EXEMPLARY, OR CONSEQUENTIAL DAMAGES
  26              	 * (INCLUDING, BUT NOT LIMITED TO, PROCUREMENT OF SUBSTITUTE GOODS OR SERVICES;
  27              	 * LOSS OF USE, DATA, OR PROFITS; OR BUSINESS INTERRUPTION) HOWEVER CAUSED AND
  28              	 * ON ANY THEORY OF LIABILITY, WHETHER IN CONTRACT, STRICT LIABILITY, OR TORT
  29              	 * (INCLUDING NEGLIGENCE OR OTHERWISE) ARISING IN ANY WAY OUT OF THE USE OF THIS
  30              	 * SOFTWARE, EVEN IF ADVISED OF THE POSSIBILITY OF SUCH DAMAGE.
  31              	 *******************************************************************************
  32              	 * History:
  33              	 *
  34              	 * 12.06.2012  mifi  Expand for stm32f103cb.
  35              	 *                   Added external interrupts.
  36              	 *                   Added clearing of BSS segment.
  37              	 ******************************************************************************/
  38              	    .syntax unified
  39              	    .arch armv7-m
  40              	
  41              	    .section .stack
  42              	    .align 3
  43              	#ifdef __STACK_SIZE
  44              	    .equ    Stack_Size, __STACK_SIZE
  45              	#else
  46              	    .equ    Stack_Size, 0xc00
  47              	#endif
  48              	    .globl    __StackTop
  49              	    .globl    __StackLimit
  50              	__StackLimit:
  51 0000 00000000 	    .space    Stack_Size
  51      00000000 
  51      00000000 
  51      00000000 
ARM GAS  /var/folders/5n/p_75w94d66l9ssrldxqdhh700000gn/T//ccRl90lX.s 			page 2


  51      00000000 
  52              	    .size __StackLimit, . - __StackLimit
  53              	__StackTop:
  54              	    .size __StackTop, . - __StackTop
  55              	
  56              	    .section .heap
  57              	    .align 3
  58              	#ifdef __HEAP_SIZE
  59              	    .equ    Heap_Size, __HEAP_SIZE
  60              	#else
  61              	    .equ    Heap_Size, 0x800
  62              	#endif
  63              	    .globl    __HeapBase
  64              	    .globl    __HeapLimit
  65              	__HeapBase:
  66 0000 00000000 	    .space    Heap_Size
  66      00000000 
  66      00000000 
  66      00000000 
  66      00000000 
  67              	    .size __HeapBase, . - __HeapBase
  68              	__HeapLimit:
  69              	    .size __HeapLimit, . - __HeapLimit
  70              	    
  71              	    .section .isr_vector
  72              	    .align 2
  73              	    .globl __isr_vector
  74              	__isr_vector:
  75 0000 00000000 	    .long    __StackTop            /* Top of Stack */
  76 0004 00000000 	    .long    Reset_Handler         /* Reset Handler */
  77 0008 00000000 	    .long    NMI_Handler           /* NMI Handler */
  78 000c 00000000 	    .long    HardFault_Handler     /* Hard Fault Handler */
  79 0010 00000000 	    .long    MemManage_Handler     /* MPU Fault Handler */
  80 0014 00000000 	    .long    BusFault_Handler      /* Bus Fault Handler */
  81 0018 00000000 	    .long    UsageFault_Handler    /* Usage Fault Handler */
  82 001c 00000000 	    .long    0                     /* Reserved */
  83 0020 00000000 	    .long    0                     /* Reserved */
  84 0024 00000000 	    .long    0                     /* Reserved */
  85 0028 00000000 	    .long    0                     /* Reserved */
  86 002c 00000000 	    .long    SVC_Handler           /* SVCall Handler */
  87 0030 00000000 	    .long    DebugMon_Handler      /* Debug Monitor Handler */
  88 0034 00000000 	    .long    0                     /* Reserved */
  89 0038 00000000 	    .long    PendSV_Handler        /* PendSV Handler */
  90 003c 00000000 	    .long    SysTick_Handler       /* SysTick Handler */
  91              	
  92              	    /* External interrupts */
  93 0040 00000000 	    .long    WWDG_IRQHandler
  94 0044 00000000 	    .long    PVD_IRQHandler
  95 0048 00000000 	    .long    TAMPER_IRQHandler
  96 004c 00000000 	    .long    RTC_IRQHandler
  97 0050 00000000 	    .long    FLASH_IRQHandler
  98 0054 00000000 	    .long    RCC_IRQHandler
  99 0058 00000000 	    .long    EXTI0_IRQHandler
 100 005c 00000000 	    .long    EXTI1_IRQHandler
 101 0060 00000000 	    .long    EXTI2_IRQHandler
 102 0064 00000000 	    .long    EXTI3_IRQHandler
 103 0068 00000000 	    .long    EXTI4_IRQHandler
ARM GAS  /var/folders/5n/p_75w94d66l9ssrldxqdhh700000gn/T//ccRl90lX.s 			page 3


 104 006c 00000000 	    .long    DMA1_Channel1_IRQHandler
 105 0070 00000000 	    .long    DMA1_Channel2_IRQHandler
 106 0074 00000000 	    .long    DMA1_Channel3_IRQHandler
 107 0078 00000000 	    .long    DMA1_Channel4_IRQHandler
 108 007c 00000000 	    .long    DMA1_Channel5_IRQHandler
 109 0080 00000000 	    .long    DMA1_Channel6_IRQHandler
 110 0084 00000000 	    .long    DMA1_Channel7_IRQHandler
 111 0088 00000000 	    .long    ADC1_2_IRQHandler
 112 008c 00000000 	    .long    USB_HP_CAN1_TX_IRQHandler
 113 0090 00000000 	    .long    USB_LP_CAN1_RX0_IRQHandler
 114 0094 00000000 	    .long    CAN1_RX1_IRQHandler
 115 0098 00000000 	    .long    CAN1_SCE_IRQHandler
 116 009c 00000000 	    .long    EXTI9_5_IRQHandler
 117 00a0 00000000 	    .long    TIM1_BRK_IRQHandler
 118 00a4 00000000 	    .long    TIM1_UP_IRQHandler
 119 00a8 00000000 	    .long    TIM1_TRG_COM_IRQHandler
 120 00ac 00000000 	    .long    TIM1_CC_IRQHandler
 121 00b0 00000000 	    .long    TIM2_IRQHandler
 122 00b4 00000000 	    .long    TIM3_IRQHandler
 123 00b8 00000000 	    .long    TIM4_IRQHandler
 124 00bc 00000000 	    .long    I2C1_EV_IRQHandler
 125 00c0 00000000 	    .long    I2C1_ER_IRQHandler
 126 00c4 00000000 	    .long    I2C2_EV_IRQHandler
 127 00c8 00000000 	    .long    I2C2_ER_IRQHandler
 128 00cc 00000000 	    .long    SPI1_IRQHandler
 129 00d0 00000000 	    .long    SPI2_IRQHandler
 130 00d4 00000000 	    .long    USART1_IRQHandler
 131 00d8 00000000 	    .long    USART2_IRQHandler
 132 00dc 00000000 	    .long    USART3_IRQHandler
 133 00e0 00000000 	    .long    EXTI15_10_IRQHandler
 134 00e4 00000000 	    .long    RTCAlarm_IRQHandler
 135 00e8 00000000 	    .long    USBWakeUp_IRQHandler 
 136 00ec 00000000 	    .long    0
 137 00f0 00000000 	    .long    0
 138 00f4 00000000 	    .long    0
 139 00f8 00000000 	    .long    0
 140 00fc 00000000 	    .long    0
 141 0100 00000000 	    .long    0
 142 0104 00000000 	    .long    0
 143              	#if 0    
 144              	    .long    BootRAM          /* @0x108. This is for boot in RAM mode for */
 145              	                              /* STM32F10x Medium Density devices.        */
 146              	#endif                              
 147              	    
 148              	    .size    __isr_vector, . - __isr_vector
 149              	
 150              	    .text
 151              	    .thumb
 152              	    .thumb_func
 153              	    .align 2
 154              	    .globl    Reset_Handler
 155              	    .type    Reset_Handler, %function
 156              	Reset_Handler:
 157              	/*     
 158              	 * Loop to copy data from read only memory to RAM. The ranges
 159              	 * of copy from/to are specified by following symbols evaluated in 
 160              	 * linker script.
ARM GAS  /var/folders/5n/p_75w94d66l9ssrldxqdhh700000gn/T//ccRl90lX.s 			page 4


 161              	 * __etext: End of code section, i.e., begin of data sections to copy from.
 162              	 * __data_start__/__data_end__: RAM address range that data should be
 163              	 * copied to. Both must be aligned to 4 bytes boundary.
 164              	 */
 165              	
 166 0000 0D49     	    ldr    r1, =__etext
 167 0002 0E4A     	    ldr    r2, =__data_start__
 168 0004 0E4B     	    ldr    r3, =__data_end__
 169              	
 170              	#if 0
 171              	/* 
 172              	 * Here are two copies of loop implemenations. First one favors code size
 173              	 * and the second one favors performance. Default uses the first one. 
 174              	 * Change to "#if 0" to use the second one 
 175              	 */
 176              	.flash_to_ram_loop:
 177              	    cmp    r2, r3
 178              	    ittt   lt
 179              	    ldrlt  r0, [r1], #4
 180              	    strlt  r0, [r2], #4
 181              	    blt    .flash_to_ram_loop
 182              	#else
 183 0006 9B1A     	    subs   r3, r2
 184 0008 40F30580 	    ble    .flash_to_ram_loop_end    
 185              	.flash_to_ram_loop:
 186 000c 043B     	    subs   r3, #4
 187 000e C858     	    ldr    r0, [r1, r3]
 188 0010 D050     	    str    r0, [r2, r3]
 189 0012 3FF7FBAF 	    bgt    .flash_to_ram_loop
 190              	.flash_to_ram_loop_end:
 191              	#endif
 192              	
 193              	#ifndef __NO_SYSTEM_INIT
 194 0016 0B48     	    ldr    r0, =SystemInit
 195 0018 8047     	    blx    r0
 196              	#endif
 197              	
 198              	/*
 199              	 * Clear the BSS segment 
 200              	 */
 201 001a 0B48     	    ldr    r0, =0
 202 001c 0B49     	    ldr    r1, =__bss_start__
 203 001e 0C4A     	    ldr    r2, =__bss_end__
 204              	
 205              	clear_bss_loop:
 206 0020 9142     	    cmp    r1, r2
 207 0022 00F00480 	    beq    clear_bss_loop_end
 208 0026 41F8040B 	    str    r0, [r1], #4
 209 002a FFF7F9BF 	    b      clear_bss_loop
 210              	clear_bss_loop_end:
 211              	
 212              	/*
 213              	 * Jump to main
 214              	 */
 215 002e 0948     	    ldr    r0, =main
 216 0030 0047     	    bx     r0
 217              	
ARM GAS  /var/folders/5n/p_75w94d66l9ssrldxqdhh700000gn/T//ccRl90lX.s 			page 5


 218              	/*
 219              	 * Exit loop
 220              	 */    
 221              	exit_loop:
 222 0032 00BF     	    nop
 223 0034 FFF7FDBF 	    b      exit_loop    
 224              	    
 225 0038 00000000 	    .pool
 225      00000000 
 225      00000000 
 225      00000000 
 225      00000000 
 226              	    .size Reset_Handler, . - Reset_Handler
 227              	    
 228              	/*    Macro to define default handlers. Default handler
 229              	 *    will be weak symbol and just dead loops. They can be
 230              	 *    overwritten by other handlers */
 231              	    .macro    def_default_handler    handler_name
 232              	    .align 1
 233              	    .thumb_func
 234              	    .weak    \handler_name
 235              	    .type    \handler_name, %function
 236              	\handler_name :
 237              	    b    .
 238              	    .size    \handler_name, . - \handler_name
 239              	    .endm
 240              	    
 241              	    def_default_handler    NMI_Handler
 241              	>  .align 1
 241              	>  .thumb_func
 241              	>  .weak NMI_Handler
 241              	>  .type NMI_Handler,%function
 241              	> NMI_Handler:
 241 0058 FEE7     	>  b .
 241              	>  .size NMI_Handler,.-NMI_Handler
 242              	    def_default_handler    HardFault_Handler
 242              	>  .align 1
 242              	>  .thumb_func
 242              	>  .weak HardFault_Handler
 242              	>  .type HardFault_Handler,%function
 242              	> HardFault_Handler:
 242 005a FEE7     	>  b .
 242              	>  .size HardFault_Handler,.-HardFault_Handler
 243              	    def_default_handler    MemManage_Handler
 243              	>  .align 1
 243              	>  .thumb_func
 243              	>  .weak MemManage_Handler
 243              	>  .type MemManage_Handler,%function
 243              	> MemManage_Handler:
 243 005c FEE7     	>  b .
 243              	>  .size MemManage_Handler,.-MemManage_Handler
 244              	    def_default_handler    BusFault_Handler
 244              	>  .align 1
 244              	>  .thumb_func
 244              	>  .weak BusFault_Handler
 244              	>  .type BusFault_Handler,%function
 244              	> BusFault_Handler:
ARM GAS  /var/folders/5n/p_75w94d66l9ssrldxqdhh700000gn/T//ccRl90lX.s 			page 6


 244 005e FEE7     	>  b .
 244              	>  .size BusFault_Handler,.-BusFault_Handler
 245              	    def_default_handler    UsageFault_Handler
 245              	>  .align 1
 245              	>  .thumb_func
 245              	>  .weak UsageFault_Handler
 245              	>  .type UsageFault_Handler,%function
 245              	> UsageFault_Handler:
 245 0060 FEE7     	>  b .
 245              	>  .size UsageFault_Handler,.-UsageFault_Handler
 246              	    def_default_handler    SVC_Handler
 246              	>  .align 1
 246              	>  .thumb_func
 246              	>  .weak SVC_Handler
 246              	>  .type SVC_Handler,%function
 246              	> SVC_Handler:
 246 0062 FEE7     	>  b .
 246              	>  .size SVC_Handler,.-SVC_Handler
 247              	    def_default_handler    DebugMon_Handler
 247              	>  .align 1
 247              	>  .thumb_func
 247              	>  .weak DebugMon_Handler
 247              	>  .type DebugMon_Handler,%function
 247              	> DebugMon_Handler:
 247 0064 FEE7     	>  b .
 247              	>  .size DebugMon_Handler,.-DebugMon_Handler
 248              	    def_default_handler    PendSV_Handler
 248              	>  .align 1
 248              	>  .thumb_func
 248              	>  .weak PendSV_Handler
 248              	>  .type PendSV_Handler,%function
 248              	> PendSV_Handler:
 248 0066 FEE7     	>  b .
 248              	>  .size PendSV_Handler,.-PendSV_Handler
 249              	    def_default_handler    SysTick_Handler
 249              	>  .align 1
 249              	>  .thumb_func
 249              	>  .weak SysTick_Handler
 249              	>  .type SysTick_Handler,%function
 249              	> SysTick_Handler:
 249 0068 FEE7     	>  b .
 249              	>  .size SysTick_Handler,.-SysTick_Handler
 250              	    
 251              	    /* External interrupts */
 252              	    def_default_handler    WWDG_IRQHandler
 252              	>  .align 1
 252              	>  .thumb_func
 252              	>  .weak WWDG_IRQHandler
 252              	>  .type WWDG_IRQHandler,%function
 252              	> WWDG_IRQHandler:
 252 006a FEE7     	>  b .
 252              	>  .size WWDG_IRQHandler,.-WWDG_IRQHandler
 253              	    def_default_handler    PVD_IRQHandler
 253              	>  .align 1
 253              	>  .thumb_func
 253              	>  .weak PVD_IRQHandler
 253              	>  .type PVD_IRQHandler,%function
ARM GAS  /var/folders/5n/p_75w94d66l9ssrldxqdhh700000gn/T//ccRl90lX.s 			page 7


 253              	> PVD_IRQHandler:
 253 006c FEE7     	>  b .
 253              	>  .size PVD_IRQHandler,.-PVD_IRQHandler
 254              	    def_default_handler    TAMPER_IRQHandler
 254              	>  .align 1
 254              	>  .thumb_func
 254              	>  .weak TAMPER_IRQHandler
 254              	>  .type TAMPER_IRQHandler,%function
 254              	> TAMPER_IRQHandler:
 254 006e FEE7     	>  b .
 254              	>  .size TAMPER_IRQHandler,.-TAMPER_IRQHandler
 255              	    def_default_handler    RTC_IRQHandler
 255              	>  .align 1
 255              	>  .thumb_func
 255              	>  .weak RTC_IRQHandler
 255              	>  .type RTC_IRQHandler,%function
 255              	> RTC_IRQHandler:
 255 0070 FEE7     	>  b .
 255              	>  .size RTC_IRQHandler,.-RTC_IRQHandler
 256              	    def_default_handler    FLASH_IRQHandler
 256              	>  .align 1
 256              	>  .thumb_func
 256              	>  .weak FLASH_IRQHandler
 256              	>  .type FLASH_IRQHandler,%function
 256              	> FLASH_IRQHandler:
 256 0072 FEE7     	>  b .
 256              	>  .size FLASH_IRQHandler,.-FLASH_IRQHandler
 257              	    def_default_handler    RCC_IRQHandler
 257              	>  .align 1
 257              	>  .thumb_func
 257              	>  .weak RCC_IRQHandler
 257              	>  .type RCC_IRQHandler,%function
 257              	> RCC_IRQHandler:
 257 0074 FEE7     	>  b .
 257              	>  .size RCC_IRQHandler,.-RCC_IRQHandler
 258              	    def_default_handler    EXTI0_IRQHandler
 258              	>  .align 1
 258              	>  .thumb_func
 258              	>  .weak EXTI0_IRQHandler
 258              	>  .type EXTI0_IRQHandler,%function
 258              	> EXTI0_IRQHandler:
 258 0076 FEE7     	>  b .
 258              	>  .size EXTI0_IRQHandler,.-EXTI0_IRQHandler
 259              	    def_default_handler    EXTI1_IRQHandler
 259              	>  .align 1
 259              	>  .thumb_func
 259              	>  .weak EXTI1_IRQHandler
 259              	>  .type EXTI1_IRQHandler,%function
 259              	> EXTI1_IRQHandler:
 259 0078 FEE7     	>  b .
 259              	>  .size EXTI1_IRQHandler,.-EXTI1_IRQHandler
 260              	    def_default_handler    EXTI2_IRQHandler
 260              	>  .align 1
 260              	>  .thumb_func
 260              	>  .weak EXTI2_IRQHandler
 260              	>  .type EXTI2_IRQHandler,%function
 260              	> EXTI2_IRQHandler:
ARM GAS  /var/folders/5n/p_75w94d66l9ssrldxqdhh700000gn/T//ccRl90lX.s 			page 8


 260 007a FEE7     	>  b .
 260              	>  .size EXTI2_IRQHandler,.-EXTI2_IRQHandler
 261              	    def_default_handler    EXTI3_IRQHandler
 261              	>  .align 1
 261              	>  .thumb_func
 261              	>  .weak EXTI3_IRQHandler
 261              	>  .type EXTI3_IRQHandler,%function
 261              	> EXTI3_IRQHandler:
 261 007c FEE7     	>  b .
 261              	>  .size EXTI3_IRQHandler,.-EXTI3_IRQHandler
 262              	    def_default_handler    EXTI4_IRQHandler
 262              	>  .align 1
 262              	>  .thumb_func
 262              	>  .weak EXTI4_IRQHandler
 262              	>  .type EXTI4_IRQHandler,%function
 262              	> EXTI4_IRQHandler:
 262 007e FEE7     	>  b .
 262              	>  .size EXTI4_IRQHandler,.-EXTI4_IRQHandler
 263              	    def_default_handler    DMA1_Channel1_IRQHandler
 263              	>  .align 1
 263              	>  .thumb_func
 263              	>  .weak DMA1_Channel1_IRQHandler
 263              	>  .type DMA1_Channel1_IRQHandler,%function
 263              	> DMA1_Channel1_IRQHandler:
 263 0080 FEE7     	>  b .
 263              	>  .size DMA1_Channel1_IRQHandler,.-DMA1_Channel1_IRQHandler
 264              	    def_default_handler    DMA1_Channel2_IRQHandler
 264              	>  .align 1
 264              	>  .thumb_func
 264              	>  .weak DMA1_Channel2_IRQHandler
 264              	>  .type DMA1_Channel2_IRQHandler,%function
 264              	> DMA1_Channel2_IRQHandler:
 264 0082 FEE7     	>  b .
 264              	>  .size DMA1_Channel2_IRQHandler,.-DMA1_Channel2_IRQHandler
 265              	    def_default_handler    DMA1_Channel3_IRQHandler
 265              	>  .align 1
 265              	>  .thumb_func
 265              	>  .weak DMA1_Channel3_IRQHandler
 265              	>  .type DMA1_Channel3_IRQHandler,%function
 265              	> DMA1_Channel3_IRQHandler:
 265 0084 FEE7     	>  b .
 265              	>  .size DMA1_Channel3_IRQHandler,.-DMA1_Channel3_IRQHandler
 266              	    def_default_handler    DMA1_Channel4_IRQHandler
 266              	>  .align 1
 266              	>  .thumb_func
 266              	>  .weak DMA1_Channel4_IRQHandler
 266              	>  .type DMA1_Channel4_IRQHandler,%function
 266              	> DMA1_Channel4_IRQHandler:
 266 0086 FEE7     	>  b .
 266              	>  .size DMA1_Channel4_IRQHandler,.-DMA1_Channel4_IRQHandler
 267              	    def_default_handler    DMA1_Channel5_IRQHandler
 267              	>  .align 1
 267              	>  .thumb_func
 267              	>  .weak DMA1_Channel5_IRQHandler
 267              	>  .type DMA1_Channel5_IRQHandler,%function
 267              	> DMA1_Channel5_IRQHandler:
 267 0088 FEE7     	>  b .
ARM GAS  /var/folders/5n/p_75w94d66l9ssrldxqdhh700000gn/T//ccRl90lX.s 			page 9


 267              	>  .size DMA1_Channel5_IRQHandler,.-DMA1_Channel5_IRQHandler
 268              	    def_default_handler    DMA1_Channel6_IRQHandler
 268              	>  .align 1
 268              	>  .thumb_func
 268              	>  .weak DMA1_Channel6_IRQHandler
 268              	>  .type DMA1_Channel6_IRQHandler,%function
 268              	> DMA1_Channel6_IRQHandler:
 268 008a FEE7     	>  b .
 268              	>  .size DMA1_Channel6_IRQHandler,.-DMA1_Channel6_IRQHandler
 269              	    def_default_handler    DMA1_Channel7_IRQHandler
 269              	>  .align 1
 269              	>  .thumb_func
 269              	>  .weak DMA1_Channel7_IRQHandler
 269              	>  .type DMA1_Channel7_IRQHandler,%function
 269              	> DMA1_Channel7_IRQHandler:
 269 008c FEE7     	>  b .
 269              	>  .size DMA1_Channel7_IRQHandler,.-DMA1_Channel7_IRQHandler
 270              	    def_default_handler    ADC1_2_IRQHandler
 270              	>  .align 1
 270              	>  .thumb_func
 270              	>  .weak ADC1_2_IRQHandler
 270              	>  .type ADC1_2_IRQHandler,%function
 270              	> ADC1_2_IRQHandler:
 270 008e FEE7     	>  b .
 270              	>  .size ADC1_2_IRQHandler,.-ADC1_2_IRQHandler
 271              	    def_default_handler    USB_HP_CAN1_TX_IRQHandler
 271              	>  .align 1
 271              	>  .thumb_func
 271              	>  .weak USB_HP_CAN1_TX_IRQHandler
 271              	>  .type USB_HP_CAN1_TX_IRQHandler,%function
 271              	> USB_HP_CAN1_TX_IRQHandler:
 271 0090 FEE7     	>  b .
 271              	>  .size USB_HP_CAN1_TX_IRQHandler,.-USB_HP_CAN1_TX_IRQHandler
 272              	    def_default_handler    USB_LP_CAN1_RX0_IRQHandler
 272              	>  .align 1
 272              	>  .thumb_func
 272              	>  .weak USB_LP_CAN1_RX0_IRQHandler
 272              	>  .type USB_LP_CAN1_RX0_IRQHandler,%function
 272              	> USB_LP_CAN1_RX0_IRQHandler:
 272 0092 FEE7     	>  b .
 272              	>  .size USB_LP_CAN1_RX0_IRQHandler,.-USB_LP_CAN1_RX0_IRQHandler
 273              	    def_default_handler    CAN1_RX1_IRQHandler
 273              	>  .align 1
 273              	>  .thumb_func
 273              	>  .weak CAN1_RX1_IRQHandler
 273              	>  .type CAN1_RX1_IRQHandler,%function
 273              	> CAN1_RX1_IRQHandler:
 273 0094 FEE7     	>  b .
 273              	>  .size CAN1_RX1_IRQHandler,.-CAN1_RX1_IRQHandler
 274              	    def_default_handler    CAN1_SCE_IRQHandler
 274              	>  .align 1
 274              	>  .thumb_func
 274              	>  .weak CAN1_SCE_IRQHandler
 274              	>  .type CAN1_SCE_IRQHandler,%function
 274              	> CAN1_SCE_IRQHandler:
 274 0096 FEE7     	>  b .
 274              	>  .size CAN1_SCE_IRQHandler,.-CAN1_SCE_IRQHandler
ARM GAS  /var/folders/5n/p_75w94d66l9ssrldxqdhh700000gn/T//ccRl90lX.s 			page 10


 275              	    def_default_handler    EXTI9_5_IRQHandler
 275              	>  .align 1
 275              	>  .thumb_func
 275              	>  .weak EXTI9_5_IRQHandler
 275              	>  .type EXTI9_5_IRQHandler,%function
 275              	> EXTI9_5_IRQHandler:
 275 0098 FEE7     	>  b .
 275              	>  .size EXTI9_5_IRQHandler,.-EXTI9_5_IRQHandler
 276              	    def_default_handler    TIM1_BRK_IRQHandler
 276              	>  .align 1
 276              	>  .thumb_func
 276              	>  .weak TIM1_BRK_IRQHandler
 276              	>  .type TIM1_BRK_IRQHandler,%function
 276              	> TIM1_BRK_IRQHandler:
 276 009a FEE7     	>  b .
 276              	>  .size TIM1_BRK_IRQHandler,.-TIM1_BRK_IRQHandler
 277              	    def_default_handler    TIM1_UP_IRQHandler
 277              	>  .align 1
 277              	>  .thumb_func
 277              	>  .weak TIM1_UP_IRQHandler
 277              	>  .type TIM1_UP_IRQHandler,%function
 277              	> TIM1_UP_IRQHandler:
 277 009c FEE7     	>  b .
 277              	>  .size TIM1_UP_IRQHandler,.-TIM1_UP_IRQHandler
 278              	    def_default_handler    TIM1_TRG_COM_IRQHandler
 278              	>  .align 1
 278              	>  .thumb_func
 278              	>  .weak TIM1_TRG_COM_IRQHandler
 278              	>  .type TIM1_TRG_COM_IRQHandler,%function
 278              	> TIM1_TRG_COM_IRQHandler:
 278 009e FEE7     	>  b .
 278              	>  .size TIM1_TRG_COM_IRQHandler,.-TIM1_TRG_COM_IRQHandler
 279              	    def_default_handler    TIM1_CC_IRQHandler
 279              	>  .align 1
 279              	>  .thumb_func
 279              	>  .weak TIM1_CC_IRQHandler
 279              	>  .type TIM1_CC_IRQHandler,%function
 279              	> TIM1_CC_IRQHandler:
 279 00a0 FEE7     	>  b .
 279              	>  .size TIM1_CC_IRQHandler,.-TIM1_CC_IRQHandler
 280              	    def_default_handler    TIM2_IRQHandler
 280              	>  .align 1
 280              	>  .thumb_func
 280              	>  .weak TIM2_IRQHandler
 280              	>  .type TIM2_IRQHandler,%function
 280              	> TIM2_IRQHandler:
 280 00a2 FEE7     	>  b .
 280              	>  .size TIM2_IRQHandler,.-TIM2_IRQHandler
 281              	    def_default_handler    TIM3_IRQHandler
 281              	>  .align 1
 281              	>  .thumb_func
 281              	>  .weak TIM3_IRQHandler
 281              	>  .type TIM3_IRQHandler,%function
 281              	> TIM3_IRQHandler:
 281 00a4 FEE7     	>  b .
 281              	>  .size TIM3_IRQHandler,.-TIM3_IRQHandler
 282              	    def_default_handler    TIM4_IRQHandler
ARM GAS  /var/folders/5n/p_75w94d66l9ssrldxqdhh700000gn/T//ccRl90lX.s 			page 11


 282              	>  .align 1
 282              	>  .thumb_func
 282              	>  .weak TIM4_IRQHandler
 282              	>  .type TIM4_IRQHandler,%function
 282              	> TIM4_IRQHandler:
 282 00a6 FEE7     	>  b .
 282              	>  .size TIM4_IRQHandler,.-TIM4_IRQHandler
 283              	    def_default_handler    I2C1_EV_IRQHandler
 283              	>  .align 1
 283              	>  .thumb_func
 283              	>  .weak I2C1_EV_IRQHandler
 283              	>  .type I2C1_EV_IRQHandler,%function
 283              	> I2C1_EV_IRQHandler:
 283 00a8 FEE7     	>  b .
 283              	>  .size I2C1_EV_IRQHandler,.-I2C1_EV_IRQHandler
 284              	    def_default_handler    I2C1_ER_IRQHandler
 284              	>  .align 1
 284              	>  .thumb_func
 284              	>  .weak I2C1_ER_IRQHandler
 284              	>  .type I2C1_ER_IRQHandler,%function
 284              	> I2C1_ER_IRQHandler:
 284 00aa FEE7     	>  b .
 284              	>  .size I2C1_ER_IRQHandler,.-I2C1_ER_IRQHandler
 285              	    def_default_handler    I2C2_EV_IRQHandler
 285              	>  .align 1
 285              	>  .thumb_func
 285              	>  .weak I2C2_EV_IRQHandler
 285              	>  .type I2C2_EV_IRQHandler,%function
 285              	> I2C2_EV_IRQHandler:
 285 00ac FEE7     	>  b .
 285              	>  .size I2C2_EV_IRQHandler,.-I2C2_EV_IRQHandler
 286              	    def_default_handler    I2C2_ER_IRQHandler
 286              	>  .align 1
 286              	>  .thumb_func
 286              	>  .weak I2C2_ER_IRQHandler
 286              	>  .type I2C2_ER_IRQHandler,%function
 286              	> I2C2_ER_IRQHandler:
 286 00ae FEE7     	>  b .
 286              	>  .size I2C2_ER_IRQHandler,.-I2C2_ER_IRQHandler
 287              	    def_default_handler    SPI1_IRQHandler
 287              	>  .align 1
 287              	>  .thumb_func
 287              	>  .weak SPI1_IRQHandler
 287              	>  .type SPI1_IRQHandler,%function
 287              	> SPI1_IRQHandler:
 287 00b0 FEE7     	>  b .
 287              	>  .size SPI1_IRQHandler,.-SPI1_IRQHandler
 288              	    def_default_handler    SPI2_IRQHandler
 288              	>  .align 1
 288              	>  .thumb_func
 288              	>  .weak SPI2_IRQHandler
 288              	>  .type SPI2_IRQHandler,%function
 288              	> SPI2_IRQHandler:
 288 00b2 FEE7     	>  b .
 288              	>  .size SPI2_IRQHandler,.-SPI2_IRQHandler
 289              	    def_default_handler    USART1_IRQHandler
 289              	>  .align 1
ARM GAS  /var/folders/5n/p_75w94d66l9ssrldxqdhh700000gn/T//ccRl90lX.s 			page 12


 289              	>  .thumb_func
 289              	>  .weak USART1_IRQHandler
 289              	>  .type USART1_IRQHandler,%function
 289              	> USART1_IRQHandler:
 289 00b4 FEE7     	>  b .
 289              	>  .size USART1_IRQHandler,.-USART1_IRQHandler
 290              	    def_default_handler    USART2_IRQHandler
 290              	>  .align 1
 290              	>  .thumb_func
 290              	>  .weak USART2_IRQHandler
 290              	>  .type USART2_IRQHandler,%function
 290              	> USART2_IRQHandler:
 290 00b6 FEE7     	>  b .
 290              	>  .size USART2_IRQHandler,.-USART2_IRQHandler
 291              	    def_default_handler    USART3_IRQHandler
 291              	>  .align 1
 291              	>  .thumb_func
 291              	>  .weak USART3_IRQHandler
 291              	>  .type USART3_IRQHandler,%function
 291              	> USART3_IRQHandler:
 291 00b8 FEE7     	>  b .
 291              	>  .size USART3_IRQHandler,.-USART3_IRQHandler
 292              	    def_default_handler    EXTI15_10_IRQHandler
 292              	>  .align 1
 292              	>  .thumb_func
 292              	>  .weak EXTI15_10_IRQHandler
 292              	>  .type EXTI15_10_IRQHandler,%function
 292              	> EXTI15_10_IRQHandler:
 292 00ba FEE7     	>  b .
 292              	>  .size EXTI15_10_IRQHandler,.-EXTI15_10_IRQHandler
 293              	    def_default_handler    RTCAlarm_IRQHandler
 293              	>  .align 1
 293              	>  .thumb_func
 293              	>  .weak RTCAlarm_IRQHandler
 293              	>  .type RTCAlarm_IRQHandler,%function
 293              	> RTCAlarm_IRQHandler:
 293 00bc FEE7     	>  b .
 293              	>  .size RTCAlarm_IRQHandler,.-RTCAlarm_IRQHandler
 294              	    def_default_handler    USBWakeUp_IRQHandler 
 294              	>  .align 1
 294              	>  .thumb_func
 294              	>  .weak USBWakeUp_IRQHandler
 294              	>  .type USBWakeUp_IRQHandler,%function
 294              	> USBWakeUp_IRQHandler:
 294 00be FEE7     	>  b .
 294              	>  .size USBWakeUp_IRQHandler,.-USBWakeUp_IRQHandler
 295              	    
 296              	    .end
ARM GAS  /var/folders/5n/p_75w94d66l9ssrldxqdhh700000gn/T//ccRl90lX.s 			page 13


DEFINED SYMBOLS
cmsis/device/startup_stm32f10x_md.s:42     .stack:0000000000000000 $d
cmsis/device/startup_stm32f10x_md.s:46     *ABS*:0000000000000c00 Stack_Size
cmsis/device/startup_stm32f10x_md.s:53     .stack:0000000000000c00 __StackTop
cmsis/device/startup_stm32f10x_md.s:50     .stack:0000000000000000 __StackLimit
cmsis/device/startup_stm32f10x_md.s:57     .heap:0000000000000000 $d
cmsis/device/startup_stm32f10x_md.s:61     *ABS*:0000000000000800 Heap_Size
cmsis/device/startup_stm32f10x_md.s:65     .heap:0000000000000000 __HeapBase
cmsis/device/startup_stm32f10x_md.s:68     .heap:0000000000000800 __HeapLimit
cmsis/device/startup_stm32f10x_md.s:72     .isr_vector:0000000000000000 $d
cmsis/device/startup_stm32f10x_md.s:74     .isr_vector:0000000000000000 __isr_vector
cmsis/device/startup_stm32f10x_md.s:156    .text:0000000000000000 Reset_Handler
cmsis/device/startup_stm32f10x_md.s:241    .text:0000000000000058 NMI_Handler
cmsis/device/startup_stm32f10x_md.s:242    .text:000000000000005a HardFault_Handler
cmsis/device/startup_stm32f10x_md.s:243    .text:000000000000005c MemManage_Handler
cmsis/device/startup_stm32f10x_md.s:244    .text:000000000000005e BusFault_Handler
cmsis/device/startup_stm32f10x_md.s:245    .text:0000000000000060 UsageFault_Handler
cmsis/device/startup_stm32f10x_md.s:246    .text:0000000000000062 SVC_Handler
cmsis/device/startup_stm32f10x_md.s:247    .text:0000000000000064 DebugMon_Handler
cmsis/device/startup_stm32f10x_md.s:248    .text:0000000000000066 PendSV_Handler
cmsis/device/startup_stm32f10x_md.s:249    .text:0000000000000068 SysTick_Handler
cmsis/device/startup_stm32f10x_md.s:252    .text:000000000000006a WWDG_IRQHandler
cmsis/device/startup_stm32f10x_md.s:253    .text:000000000000006c PVD_IRQHandler
cmsis/device/startup_stm32f10x_md.s:254    .text:000000000000006e TAMPER_IRQHandler
cmsis/device/startup_stm32f10x_md.s:255    .text:0000000000000070 RTC_IRQHandler
cmsis/device/startup_stm32f10x_md.s:256    .text:0000000000000072 FLASH_IRQHandler
cmsis/device/startup_stm32f10x_md.s:257    .text:0000000000000074 RCC_IRQHandler
cmsis/device/startup_stm32f10x_md.s:258    .text:0000000000000076 EXTI0_IRQHandler
cmsis/device/startup_stm32f10x_md.s:259    .text:0000000000000078 EXTI1_IRQHandler
cmsis/device/startup_stm32f10x_md.s:260    .text:000000000000007a EXTI2_IRQHandler
cmsis/device/startup_stm32f10x_md.s:261    .text:000000000000007c EXTI3_IRQHandler
cmsis/device/startup_stm32f10x_md.s:262    .text:000000000000007e EXTI4_IRQHandler
cmsis/device/startup_stm32f10x_md.s:263    .text:0000000000000080 DMA1_Channel1_IRQHandler
cmsis/device/startup_stm32f10x_md.s:264    .text:0000000000000082 DMA1_Channel2_IRQHandler
cmsis/device/startup_stm32f10x_md.s:265    .text:0000000000000084 DMA1_Channel3_IRQHandler
cmsis/device/startup_stm32f10x_md.s:266    .text:0000000000000086 DMA1_Channel4_IRQHandler
cmsis/device/startup_stm32f10x_md.s:267    .text:0000000000000088 DMA1_Channel5_IRQHandler
cmsis/device/startup_stm32f10x_md.s:268    .text:000000000000008a DMA1_Channel6_IRQHandler
cmsis/device/startup_stm32f10x_md.s:269    .text:000000000000008c DMA1_Channel7_IRQHandler
cmsis/device/startup_stm32f10x_md.s:270    .text:000000000000008e ADC1_2_IRQHandler
cmsis/device/startup_stm32f10x_md.s:271    .text:0000000000000090 USB_HP_CAN1_TX_IRQHandler
cmsis/device/startup_stm32f10x_md.s:272    .text:0000000000000092 USB_LP_CAN1_RX0_IRQHandler
cmsis/device/startup_stm32f10x_md.s:273    .text:0000000000000094 CAN1_RX1_IRQHandler
cmsis/device/startup_stm32f10x_md.s:274    .text:0000000000000096 CAN1_SCE_IRQHandler
cmsis/device/startup_stm32f10x_md.s:275    .text:0000000000000098 EXTI9_5_IRQHandler
cmsis/device/startup_stm32f10x_md.s:276    .text:000000000000009a TIM1_BRK_IRQHandler
cmsis/device/startup_stm32f10x_md.s:277    .text:000000000000009c TIM1_UP_IRQHandler
cmsis/device/startup_stm32f10x_md.s:278    .text:000000000000009e TIM1_TRG_COM_IRQHandler
cmsis/device/startup_stm32f10x_md.s:279    .text:00000000000000a0 TIM1_CC_IRQHandler
cmsis/device/startup_stm32f10x_md.s:280    .text:00000000000000a2 TIM2_IRQHandler
cmsis/device/startup_stm32f10x_md.s:281    .text:00000000000000a4 TIM3_IRQHandler
cmsis/device/startup_stm32f10x_md.s:282    .text:00000000000000a6 TIM4_IRQHandler
cmsis/device/startup_stm32f10x_md.s:283    .text:00000000000000a8 I2C1_EV_IRQHandler
cmsis/device/startup_stm32f10x_md.s:284    .text:00000000000000aa I2C1_ER_IRQHandler
cmsis/device/startup_stm32f10x_md.s:285    .text:00000000000000ac I2C2_EV_IRQHandler
cmsis/device/startup_stm32f10x_md.s:286    .text:00000000000000ae I2C2_ER_IRQHandler
cmsis/device/startup_stm32f10x_md.s:287    .text:00000000000000b0 SPI1_IRQHandler
ARM GAS  /var/folders/5n/p_75w94d66l9ssrldxqdhh700000gn/T//ccRl90lX.s 			page 14


cmsis/device/startup_stm32f10x_md.s:288    .text:00000000000000b2 SPI2_IRQHandler
cmsis/device/startup_stm32f10x_md.s:289    .text:00000000000000b4 USART1_IRQHandler
cmsis/device/startup_stm32f10x_md.s:290    .text:00000000000000b6 USART2_IRQHandler
cmsis/device/startup_stm32f10x_md.s:291    .text:00000000000000b8 USART3_IRQHandler
cmsis/device/startup_stm32f10x_md.s:292    .text:00000000000000ba EXTI15_10_IRQHandler
cmsis/device/startup_stm32f10x_md.s:293    .text:00000000000000bc RTCAlarm_IRQHandler
cmsis/device/startup_stm32f10x_md.s:294    .text:00000000000000be USBWakeUp_IRQHandler
cmsis/device/startup_stm32f10x_md.s:153    .text:0000000000000000 $t
cmsis/device/startup_stm32f10x_md.s:190    .text:0000000000000016 .flash_to_ram_loop_end
cmsis/device/startup_stm32f10x_md.s:185    .text:000000000000000c .flash_to_ram_loop
cmsis/device/startup_stm32f10x_md.s:205    .text:0000000000000020 clear_bss_loop
cmsis/device/startup_stm32f10x_md.s:210    .text:000000000000002e clear_bss_loop_end
cmsis/device/startup_stm32f10x_md.s:221    .text:0000000000000032 exit_loop
cmsis/device/startup_stm32f10x_md.s:225    .text:0000000000000038 $d
cmsis/device/startup_stm32f10x_md.s:241    .text:0000000000000058 $t
                   .debug_aranges:000000000000000c $d

UNDEFINED SYMBOLS
__etext
__data_start__
__data_end__
SystemInit
__bss_start__
__bss_end__
main
