ARM GAS  /var/folders/5n/p_75w94d66l9ssrldxqdhh700000gn/T//ccP7NkEl.s 			page 1


   1              		.syntax unified
   2              		.cpu cortex-m4
   3              		.fpu softvfp
   4              		.eabi_attribute 20, 1	@ Tag_ABI_FP_denormal
   5              		.eabi_attribute 21, 1	@ Tag_ABI_FP_exceptions
   6              		.eabi_attribute 23, 3	@ Tag_ABI_FP_number_model
   7              		.eabi_attribute 24, 1	@ Tag_ABI_align8_needed
   8              		.eabi_attribute 25, 1	@ Tag_ABI_align8_preserved
   9              		.eabi_attribute 26, 1	@ Tag_ABI_enum_size
  10              		.eabi_attribute 30, 6	@ Tag_ABI_optimization_goals
  11              		.eabi_attribute 34, 1	@ Tag_CPU_unaligned_access
  12              		.eabi_attribute 18, 4	@ Tag_ABI_PCS_wchar_t
  13              		.file	"system_stm32f10x.c"
  14              	@ GNU C (GCC) version 4.7.1 (arm-none-eabi)
  15              	@	compiled by GNU C version 4.6.3, GMP version 5.0.4, MPFR version 3.1.0-p3, MPC version 0.9
  16              	@ warning: GMP header version 5.0.4 differs from library version 5.0.2.
  17              	@ warning: MPFR header version 3.1.0-p3 differs from library version 3.0.1.
  18              	@ GGC heuristics: --param ggc-min-expand=100 --param ggc-min-heapsize=131072
  19              	@ 渡されたオプション:  -I . -I ./inc -I ./cmsis/core
  20              	@ -I ./cmsis/device -imultilib thumb -MD cmsis/device/system_stm32f10x.d
  21              	@ -MF .dep/system_stm32f10x.o.d -MP -MQ cmsis/device/system_stm32f10x.o
  22              	@ -D__USES_INITFINI__ -D STM32F10X_MD -D _DEBUG=1 -D RUN_FROM_FLASH=1
  23              	@ cmsis/device/system_stm32f10x.c -mthumb -mcpu=cortex-m4 -mfloat-abi=soft
  24              	@ -mfpu=fpv4-sp-d16 -auxbase-strip cmsis/device/system_stm32f10x.o
  25              	@ -gdwarf-2 -O0 -Wall -Wstrict-prototypes -fverbose-asm
  26              	@ 有効オプション:  -fauto-inc-dec -fbranch-count-reg -fcommon
  27              	@ -fdebug-types-section -fdelete-null-pointer-checks -fdwarf2-cfi-asm
  28              	@ -fearly-inlining -feliminate-unused-debug-types -ffunction-cse -fgcse-lm
  29              	@ -fgnu-runtime -fident -finline-atomics -fira-share-save-slots
  30              	@ -fira-share-spill-slots -fivopts -fkeep-static-consts
  31              	@ -fleading-underscore -fmath-errno -fmerge-debug-strings
  32              	@ -fmove-loop-invariants -fpeephole -fprefetch-loop-arrays
  33              	@ -freg-struct-return -fsched-critical-path-heuristic
  34              	@ -fsched-dep-count-heuristic -fsched-group-heuristic -fsched-interblock
  35              	@ -fsched-last-insn-heuristic -fsched-rank-heuristic -fsched-spec
  36              	@ -fsched-spec-insn-heuristic -fsched-stalled-insns-dep -fshow-column
  37              	@ -fsigned-zeros -fsplit-ivs-in-unroller -fstrict-volatile-bitfields
  38              	@ -ftrapping-math -ftree-cselim -ftree-forwprop -ftree-loop-if-convert
  39              	@ -ftree-loop-im -ftree-loop-ivcanon -ftree-loop-optimize
  40              	@ -ftree-parallelize-loops= -ftree-phiprop -ftree-pta -ftree-reassoc
  41              	@ -ftree-scev-cprop -ftree-slp-vectorize -ftree-vect-loop-version
  42              	@ -funit-at-a-time -fverbose-asm -fzero-initialized-in-bss -mlittle-endian
  43              	@ -msched-prolog -mthumb -munaligned-access -mvectorize-with-neon-quad
  44              	
  45              		.text
  46              	.Ltext0:
  47              		.cfi_sections	.debug_frame
  48              		.global	SystemCoreClock
  49              		.data
  50              		.align	2
  51              		.type	SystemCoreClock, %object
  52              		.size	SystemCoreClock, 4
  53              	SystemCoreClock:
  54 0000 00A24A04 		.word	72000000
  55              		.global	AHBPrescTable
  56              		.align	2
  57              		.type	AHBPrescTable, %object
ARM GAS  /var/folders/5n/p_75w94d66l9ssrldxqdhh700000gn/T//ccP7NkEl.s 			page 2


  58              		.size	AHBPrescTable, 16
  59              	AHBPrescTable:
  60 0004 00       		.byte	0
  61 0005 00       		.byte	0
  62 0006 00       		.byte	0
  63 0007 00       		.byte	0
  64 0008 00       		.byte	0
  65 0009 00       		.byte	0
  66 000a 00       		.byte	0
  67 000b 00       		.byte	0
  68 000c 01       		.byte	1
  69 000d 02       		.byte	2
  70 000e 03       		.byte	3
  71 000f 04       		.byte	4
  72 0010 06       		.byte	6
  73 0011 07       		.byte	7
  74 0012 08       		.byte	8
  75 0013 09       		.byte	9
  76              		.text
  77              		.align	2
  78              		.global	SystemInit
  79              		.thumb
  80              		.thumb_func
  81              		.type	SystemInit, %function
  82              	SystemInit:
  83              	.LFB55:
  84              		.file 1 "cmsis/device/system_stm32f10x.c"
   1:cmsis/device/system_stm32f10x.c **** /**
   2:cmsis/device/system_stm32f10x.c ****   ******************************************************************************
   3:cmsis/device/system_stm32f10x.c ****   * @file    system_stm32f10x.c
   4:cmsis/device/system_stm32f10x.c ****   * @author  MCD Application Team
   5:cmsis/device/system_stm32f10x.c ****   * @version V3.5.0
   6:cmsis/device/system_stm32f10x.c ****   * @date    11-March-2011
   7:cmsis/device/system_stm32f10x.c ****   * @brief   CMSIS Cortex-M3 Device Peripheral Access Layer System Source File.
   8:cmsis/device/system_stm32f10x.c ****   * 
   9:cmsis/device/system_stm32f10x.c ****   * 1.  This file provides two functions and one global variable to be called from 
  10:cmsis/device/system_stm32f10x.c ****   *     user application:
  11:cmsis/device/system_stm32f10x.c ****   *      - SystemInit(): Setups the system clock (System clock source, PLL Multiplier
  12:cmsis/device/system_stm32f10x.c ****   *                      factors, AHB/APBx prescalers and Flash settings). 
  13:cmsis/device/system_stm32f10x.c ****   *                      This function is called at startup just after reset and 
  14:cmsis/device/system_stm32f10x.c ****   *                      before branch to main program. This call is made inside
  15:cmsis/device/system_stm32f10x.c ****   *                      the "startup_stm32f10x_xx.s" file.
  16:cmsis/device/system_stm32f10x.c ****   *
  17:cmsis/device/system_stm32f10x.c ****   *      - SystemCoreClock variable: Contains the core clock (HCLK), it can be used
  18:cmsis/device/system_stm32f10x.c ****   *                                  by the user application to setup the SysTick 
  19:cmsis/device/system_stm32f10x.c ****   *                                  timer or configure other parameters.
  20:cmsis/device/system_stm32f10x.c ****   *                                     
  21:cmsis/device/system_stm32f10x.c ****   *      - SystemCoreClockUpdate(): Updates the variable SystemCoreClock and must
  22:cmsis/device/system_stm32f10x.c ****   *                                 be called whenever the core clock is changed
  23:cmsis/device/system_stm32f10x.c ****   *                                 during program execution.
  24:cmsis/device/system_stm32f10x.c ****   *
  25:cmsis/device/system_stm32f10x.c ****   * 2. After each device reset the HSI (8 MHz) is used as system clock source.
  26:cmsis/device/system_stm32f10x.c ****   *    Then SystemInit() function is called, in "startup_stm32f10x_xx.s" file, to
  27:cmsis/device/system_stm32f10x.c ****   *    configure the system clock before to branch to main program.
  28:cmsis/device/system_stm32f10x.c ****   *
  29:cmsis/device/system_stm32f10x.c ****   * 3. If the system clock source selected by user fails to startup, the SystemInit()
  30:cmsis/device/system_stm32f10x.c ****   *    function will do nothing and HSI still used as system clock source. User can 
ARM GAS  /var/folders/5n/p_75w94d66l9ssrldxqdhh700000gn/T//ccP7NkEl.s 			page 3


  31:cmsis/device/system_stm32f10x.c ****   *    add some code to deal with this issue inside the SetSysClock() function.
  32:cmsis/device/system_stm32f10x.c ****   *
  33:cmsis/device/system_stm32f10x.c ****   * 4. The default value of HSE crystal is set to 8 MHz (or 25 MHz, depedning on
  34:cmsis/device/system_stm32f10x.c ****   *    the product used), refer to "HSE_VALUE" define in "stm32f10x.h" file. 
  35:cmsis/device/system_stm32f10x.c ****   *    When HSE is used as system clock source, directly or through PLL, and you
  36:cmsis/device/system_stm32f10x.c ****   *    are using different crystal you have to adapt the HSE value to your own
  37:cmsis/device/system_stm32f10x.c ****   *    configuration.
  38:cmsis/device/system_stm32f10x.c ****   *        
  39:cmsis/device/system_stm32f10x.c ****   ******************************************************************************
  40:cmsis/device/system_stm32f10x.c ****   * @attention
  41:cmsis/device/system_stm32f10x.c ****   *
  42:cmsis/device/system_stm32f10x.c ****   * THE PRESENT FIRMWARE WHICH IS FOR GUIDANCE ONLY AIMS AT PROVIDING CUSTOMERS
  43:cmsis/device/system_stm32f10x.c ****   * WITH CODING INFORMATION REGARDING THEIR PRODUCTS IN ORDER FOR THEM TO SAVE
  44:cmsis/device/system_stm32f10x.c ****   * TIME. AS A RESULT, STMICROELECTRONICS SHALL NOT BE HELD LIABLE FOR ANY
  45:cmsis/device/system_stm32f10x.c ****   * DIRECT, INDIRECT OR CONSEQUENTIAL DAMAGES WITH RESPECT TO ANY CLAIMS ARISING
  46:cmsis/device/system_stm32f10x.c ****   * FROM THE CONTENT OF SUCH FIRMWARE AND/OR THE USE MADE BY CUSTOMERS OF THE
  47:cmsis/device/system_stm32f10x.c ****   * CODING INFORMATION CONTAINED HEREIN IN CONNECTION WITH THEIR PRODUCTS.
  48:cmsis/device/system_stm32f10x.c ****   *
  49:cmsis/device/system_stm32f10x.c ****   * <h2><center>&copy; COPYRIGHT 2011 STMicroelectronics</center></h2>
  50:cmsis/device/system_stm32f10x.c ****   ******************************************************************************
  51:cmsis/device/system_stm32f10x.c ****   */
  52:cmsis/device/system_stm32f10x.c **** 
  53:cmsis/device/system_stm32f10x.c **** /** @addtogroup CMSIS
  54:cmsis/device/system_stm32f10x.c ****   * @{
  55:cmsis/device/system_stm32f10x.c ****   */
  56:cmsis/device/system_stm32f10x.c **** 
  57:cmsis/device/system_stm32f10x.c **** /** @addtogroup stm32f10x_system
  58:cmsis/device/system_stm32f10x.c ****   * @{
  59:cmsis/device/system_stm32f10x.c ****   */  
  60:cmsis/device/system_stm32f10x.c ****   
  61:cmsis/device/system_stm32f10x.c **** /** @addtogroup STM32F10x_System_Private_Includes
  62:cmsis/device/system_stm32f10x.c ****   * @{
  63:cmsis/device/system_stm32f10x.c ****   */
  64:cmsis/device/system_stm32f10x.c **** 
  65:cmsis/device/system_stm32f10x.c **** #include "stm32f10x.h"
  66:cmsis/device/system_stm32f10x.c **** 
  67:cmsis/device/system_stm32f10x.c **** /**
  68:cmsis/device/system_stm32f10x.c ****   * @}
  69:cmsis/device/system_stm32f10x.c ****   */
  70:cmsis/device/system_stm32f10x.c **** 
  71:cmsis/device/system_stm32f10x.c **** /** @addtogroup STM32F10x_System_Private_TypesDefinitions
  72:cmsis/device/system_stm32f10x.c ****   * @{
  73:cmsis/device/system_stm32f10x.c ****   */
  74:cmsis/device/system_stm32f10x.c **** 
  75:cmsis/device/system_stm32f10x.c **** /**
  76:cmsis/device/system_stm32f10x.c ****   * @}
  77:cmsis/device/system_stm32f10x.c ****   */
  78:cmsis/device/system_stm32f10x.c **** 
  79:cmsis/device/system_stm32f10x.c **** /** @addtogroup STM32F10x_System_Private_Defines
  80:cmsis/device/system_stm32f10x.c ****   * @{
  81:cmsis/device/system_stm32f10x.c ****   */
  82:cmsis/device/system_stm32f10x.c **** 
  83:cmsis/device/system_stm32f10x.c **** /*!< Uncomment the line corresponding to the desired System clock (SYSCLK)
  84:cmsis/device/system_stm32f10x.c ****    frequency (after reset the HSI is used as SYSCLK source)
  85:cmsis/device/system_stm32f10x.c ****    
  86:cmsis/device/system_stm32f10x.c ****    IMPORTANT NOTE:
  87:cmsis/device/system_stm32f10x.c ****    ============== 
ARM GAS  /var/folders/5n/p_75w94d66l9ssrldxqdhh700000gn/T//ccP7NkEl.s 			page 4


  88:cmsis/device/system_stm32f10x.c ****    1. After each device reset the HSI is used as System clock source.
  89:cmsis/device/system_stm32f10x.c **** 
  90:cmsis/device/system_stm32f10x.c ****    2. Please make sure that the selected System clock doesn't exceed your device's
  91:cmsis/device/system_stm32f10x.c ****       maximum frequency.
  92:cmsis/device/system_stm32f10x.c ****       
  93:cmsis/device/system_stm32f10x.c ****    3. If none of the define below is enabled, the HSI is used as System clock
  94:cmsis/device/system_stm32f10x.c ****     source.
  95:cmsis/device/system_stm32f10x.c **** 
  96:cmsis/device/system_stm32f10x.c ****    4. The System clock configuration functions provided within this file assume that:
  97:cmsis/device/system_stm32f10x.c ****         - For Low, Medium and High density Value line devices an external 8MHz 
  98:cmsis/device/system_stm32f10x.c ****           crystal is used to drive the System clock.
  99:cmsis/device/system_stm32f10x.c ****         - For Low, Medium and High density devices an external 8MHz crystal is
 100:cmsis/device/system_stm32f10x.c ****           used to drive the System clock.
 101:cmsis/device/system_stm32f10x.c ****         - For Connectivity line devices an external 25MHz crystal is used to drive
 102:cmsis/device/system_stm32f10x.c ****           the System clock.
 103:cmsis/device/system_stm32f10x.c ****      If you are using different crystal you have to adapt those functions accordingly.
 104:cmsis/device/system_stm32f10x.c ****     */
 105:cmsis/device/system_stm32f10x.c ****     
 106:cmsis/device/system_stm32f10x.c **** #if defined (STM32F10X_LD_VL) || (defined STM32F10X_MD_VL) || (defined STM32F10X_HD_VL)
 107:cmsis/device/system_stm32f10x.c **** /* #define SYSCLK_FREQ_HSE    HSE_VALUE */
 108:cmsis/device/system_stm32f10x.c ****  #define SYSCLK_FREQ_24MHz  24000000
 109:cmsis/device/system_stm32f10x.c **** #else
 110:cmsis/device/system_stm32f10x.c **** /* #define SYSCLK_FREQ_HSE    HSE_VALUE */
 111:cmsis/device/system_stm32f10x.c **** /* #define SYSCLK_FREQ_24MHz  24000000 */ 
 112:cmsis/device/system_stm32f10x.c **** /* #define SYSCLK_FREQ_36MHz  36000000 */
 113:cmsis/device/system_stm32f10x.c **** /* #define SYSCLK_FREQ_48MHz  48000000 */
 114:cmsis/device/system_stm32f10x.c **** /* #define SYSCLK_FREQ_56MHz  56000000 */
 115:cmsis/device/system_stm32f10x.c **** #define SYSCLK_FREQ_72MHz  72000000
 116:cmsis/device/system_stm32f10x.c **** #endif
 117:cmsis/device/system_stm32f10x.c **** 
 118:cmsis/device/system_stm32f10x.c **** /*!< Uncomment the following line if you need to use external SRAM mounted
 119:cmsis/device/system_stm32f10x.c ****      on STM3210E-EVAL board (STM32 High density and XL-density devices) or on 
 120:cmsis/device/system_stm32f10x.c ****      STM32100E-EVAL board (STM32 High-density value line devices) as data memory */ 
 121:cmsis/device/system_stm32f10x.c **** #if defined (STM32F10X_HD) || (defined STM32F10X_XL) || (defined STM32F10X_HD_VL)
 122:cmsis/device/system_stm32f10x.c **** /* #define DATA_IN_ExtSRAM */
 123:cmsis/device/system_stm32f10x.c **** #endif
 124:cmsis/device/system_stm32f10x.c **** 
 125:cmsis/device/system_stm32f10x.c **** /*!< Uncomment the following line if you need to relocate your vector Table in
 126:cmsis/device/system_stm32f10x.c ****      Internal SRAM. */ 
 127:cmsis/device/system_stm32f10x.c **** /* #define VECT_TAB_SRAM */
 128:cmsis/device/system_stm32f10x.c **** #define VECT_TAB_OFFSET  0x0 /*!< Vector Table base offset field. 
 129:cmsis/device/system_stm32f10x.c ****                                   This value must be a multiple of 0x200. */
 130:cmsis/device/system_stm32f10x.c **** 
 131:cmsis/device/system_stm32f10x.c **** 
 132:cmsis/device/system_stm32f10x.c **** /**
 133:cmsis/device/system_stm32f10x.c ****   * @}
 134:cmsis/device/system_stm32f10x.c ****   */
 135:cmsis/device/system_stm32f10x.c **** 
 136:cmsis/device/system_stm32f10x.c **** /** @addtogroup STM32F10x_System_Private_Macros
 137:cmsis/device/system_stm32f10x.c ****   * @{
 138:cmsis/device/system_stm32f10x.c ****   */
 139:cmsis/device/system_stm32f10x.c **** 
 140:cmsis/device/system_stm32f10x.c **** /**
 141:cmsis/device/system_stm32f10x.c ****   * @}
 142:cmsis/device/system_stm32f10x.c ****   */
 143:cmsis/device/system_stm32f10x.c **** 
 144:cmsis/device/system_stm32f10x.c **** /** @addtogroup STM32F10x_System_Private_Variables
ARM GAS  /var/folders/5n/p_75w94d66l9ssrldxqdhh700000gn/T//ccP7NkEl.s 			page 5


 145:cmsis/device/system_stm32f10x.c ****   * @{
 146:cmsis/device/system_stm32f10x.c ****   */
 147:cmsis/device/system_stm32f10x.c **** 
 148:cmsis/device/system_stm32f10x.c **** /*******************************************************************************
 149:cmsis/device/system_stm32f10x.c **** *  Clock Definitions
 150:cmsis/device/system_stm32f10x.c **** *******************************************************************************/
 151:cmsis/device/system_stm32f10x.c **** #ifdef SYSCLK_FREQ_HSE
 152:cmsis/device/system_stm32f10x.c ****   uint32_t SystemCoreClock         = SYSCLK_FREQ_HSE;        /*!< System Clock Frequency (Core Cloc
 153:cmsis/device/system_stm32f10x.c **** #elif defined SYSCLK_FREQ_24MHz
 154:cmsis/device/system_stm32f10x.c ****   uint32_t SystemCoreClock         = SYSCLK_FREQ_24MHz;        /*!< System Clock Frequency (Core Cl
 155:cmsis/device/system_stm32f10x.c **** #elif defined SYSCLK_FREQ_36MHz
 156:cmsis/device/system_stm32f10x.c ****   uint32_t SystemCoreClock         = SYSCLK_FREQ_36MHz;        /*!< System Clock Frequency (Core Cl
 157:cmsis/device/system_stm32f10x.c **** #elif defined SYSCLK_FREQ_48MHz
 158:cmsis/device/system_stm32f10x.c ****   uint32_t SystemCoreClock         = SYSCLK_FREQ_48MHz;        /*!< System Clock Frequency (Core Cl
 159:cmsis/device/system_stm32f10x.c **** #elif defined SYSCLK_FREQ_56MHz
 160:cmsis/device/system_stm32f10x.c ****   uint32_t SystemCoreClock         = SYSCLK_FREQ_56MHz;        /*!< System Clock Frequency (Core Cl
 161:cmsis/device/system_stm32f10x.c **** #elif defined SYSCLK_FREQ_72MHz
 162:cmsis/device/system_stm32f10x.c ****   uint32_t SystemCoreClock         = SYSCLK_FREQ_72MHz;        /*!< System Clock Frequency (Core Cl
 163:cmsis/device/system_stm32f10x.c **** #else /*!< HSI Selected as System Clock source */
 164:cmsis/device/system_stm32f10x.c ****   uint32_t SystemCoreClock         = HSI_VALUE;        /*!< System Clock Frequency (Core Clock) */
 165:cmsis/device/system_stm32f10x.c **** #endif
 166:cmsis/device/system_stm32f10x.c **** 
 167:cmsis/device/system_stm32f10x.c **** __I uint8_t AHBPrescTable[16] = {0, 0, 0, 0, 0, 0, 0, 0, 1, 2, 3, 4, 6, 7, 8, 9};
 168:cmsis/device/system_stm32f10x.c **** /**
 169:cmsis/device/system_stm32f10x.c ****   * @}
 170:cmsis/device/system_stm32f10x.c ****   */
 171:cmsis/device/system_stm32f10x.c **** 
 172:cmsis/device/system_stm32f10x.c **** /** @addtogroup STM32F10x_System_Private_FunctionPrototypes
 173:cmsis/device/system_stm32f10x.c ****   * @{
 174:cmsis/device/system_stm32f10x.c ****   */
 175:cmsis/device/system_stm32f10x.c **** 
 176:cmsis/device/system_stm32f10x.c **** static void SetSysClock(void);
 177:cmsis/device/system_stm32f10x.c **** 
 178:cmsis/device/system_stm32f10x.c **** #ifdef SYSCLK_FREQ_HSE
 179:cmsis/device/system_stm32f10x.c ****   static void SetSysClockToHSE(void);
 180:cmsis/device/system_stm32f10x.c **** #elif defined SYSCLK_FREQ_24MHz
 181:cmsis/device/system_stm32f10x.c ****   static void SetSysClockTo24(void);
 182:cmsis/device/system_stm32f10x.c **** #elif defined SYSCLK_FREQ_36MHz
 183:cmsis/device/system_stm32f10x.c ****   static void SetSysClockTo36(void);
 184:cmsis/device/system_stm32f10x.c **** #elif defined SYSCLK_FREQ_48MHz
 185:cmsis/device/system_stm32f10x.c ****   static void SetSysClockTo48(void);
 186:cmsis/device/system_stm32f10x.c **** #elif defined SYSCLK_FREQ_56MHz
 187:cmsis/device/system_stm32f10x.c ****   static void SetSysClockTo56(void);  
 188:cmsis/device/system_stm32f10x.c **** #elif defined SYSCLK_FREQ_72MHz
 189:cmsis/device/system_stm32f10x.c ****   static void SetSysClockTo72(void);
 190:cmsis/device/system_stm32f10x.c **** #endif
 191:cmsis/device/system_stm32f10x.c **** 
 192:cmsis/device/system_stm32f10x.c **** #ifdef DATA_IN_ExtSRAM
 193:cmsis/device/system_stm32f10x.c ****   static void SystemInit_ExtMemCtl(void); 
 194:cmsis/device/system_stm32f10x.c **** #endif /* DATA_IN_ExtSRAM */
 195:cmsis/device/system_stm32f10x.c **** 
 196:cmsis/device/system_stm32f10x.c **** /**
 197:cmsis/device/system_stm32f10x.c ****   * @}
 198:cmsis/device/system_stm32f10x.c ****   */
 199:cmsis/device/system_stm32f10x.c **** 
 200:cmsis/device/system_stm32f10x.c **** /** @addtogroup STM32F10x_System_Private_Functions
 201:cmsis/device/system_stm32f10x.c ****   * @{
ARM GAS  /var/folders/5n/p_75w94d66l9ssrldxqdhh700000gn/T//ccP7NkEl.s 			page 6


 202:cmsis/device/system_stm32f10x.c ****   */
 203:cmsis/device/system_stm32f10x.c **** 
 204:cmsis/device/system_stm32f10x.c **** /**
 205:cmsis/device/system_stm32f10x.c ****   * @brief  Setup the microcontroller system
 206:cmsis/device/system_stm32f10x.c ****   *         Initialize the Embedded Flash Interface, the PLL and update the 
 207:cmsis/device/system_stm32f10x.c ****   *         SystemCoreClock variable.
 208:cmsis/device/system_stm32f10x.c ****   * @note   This function should be used only after reset.
 209:cmsis/device/system_stm32f10x.c ****   * @param  None
 210:cmsis/device/system_stm32f10x.c ****   * @retval None
 211:cmsis/device/system_stm32f10x.c ****   */
 212:cmsis/device/system_stm32f10x.c **** void SystemInit (void)
 213:cmsis/device/system_stm32f10x.c **** {
  85              		.loc 1 213 0
  86              		.cfi_startproc
  87              		@ args = 0, pretend = 0, frame = 0
  88              		@ frame_needed = 1, uses_anonymous_args = 0
  89 0000 80B5     		push	{r7, lr}	@
  90              	.LCFI0:
  91              		.cfi_def_cfa_offset 8
  92              		.cfi_offset 7, -8
  93              		.cfi_offset 14, -4
  94 0002 00AF     		add	r7, sp, #0	@,,
  95              	.LCFI1:
  96              		.cfi_def_cfa_register 7
 214:cmsis/device/system_stm32f10x.c ****   /* Reset the RCC clock configuration to the default reset state(for debug purpose) */
 215:cmsis/device/system_stm32f10x.c ****   /* Set HSION bit */
 216:cmsis/device/system_stm32f10x.c ****   RCC->CR |= (uint32_t)0x00000001;
  97              		.loc 1 216 0
  98 0004 4FF48053 		mov	r3, #4096	@ D.5138,
  99 0008 C4F20203 		movt	r3, 16386	@ D.5138,
 100 000c 4FF48052 		mov	r2, #4096	@ D.5139,
 101 0010 C4F20202 		movt	r2, 16386	@ D.5139,
 102 0014 1268     		ldr	r2, [r2, #0]	@ D.5140, D.5139_2->CR
 103 0016 42F00102 		orr	r2, r2, #1	@ D.5141, D.5140,
 104 001a 1A60     		str	r2, [r3, #0]	@ D.5141, D.5138_1->CR
 217:cmsis/device/system_stm32f10x.c **** 
 218:cmsis/device/system_stm32f10x.c ****   /* Reset SW, HPRE, PPRE1, PPRE2, ADCPRE and MCO bits */
 219:cmsis/device/system_stm32f10x.c **** #ifndef STM32F10X_CL
 220:cmsis/device/system_stm32f10x.c ****   RCC->CFGR &= (uint32_t)0xF8FF0000;
 105              		.loc 1 220 0
 106 001c 4FF48052 		mov	r2, #4096	@ D.5142,
 107 0020 C4F20202 		movt	r2, 16386	@ D.5142,
 108 0024 4FF48053 		mov	r3, #4096	@ D.5143,
 109 0028 C4F20203 		movt	r3, 16386	@ D.5143,
 110 002c 5968     		ldr	r1, [r3, #4]	@ D.5144, D.5143_6->CFGR
 111 002e 4FF00003 		mov	r3, #0	@ D.5145,
 112 0032 CFF6FF03 		movt	r3, 63743	@ D.5145,
 113 0036 0B40     		ands	r3, r3, r1	@, D.5145, D.5145, D.5144
 114 0038 5360     		str	r3, [r2, #4]	@ D.5145, D.5142_5->CFGR
 221:cmsis/device/system_stm32f10x.c **** #else
 222:cmsis/device/system_stm32f10x.c ****   RCC->CFGR &= (uint32_t)0xF0FF0000;
 223:cmsis/device/system_stm32f10x.c **** #endif /* STM32F10X_CL */   
 224:cmsis/device/system_stm32f10x.c ****   
 225:cmsis/device/system_stm32f10x.c ****   /* Reset HSEON, CSSON and PLLON bits */
 226:cmsis/device/system_stm32f10x.c ****   RCC->CR &= (uint32_t)0xFEF6FFFF;
 115              		.loc 1 226 0
 116 003a 4FF48053 		mov	r3, #4096	@ D.5146,
ARM GAS  /var/folders/5n/p_75w94d66l9ssrldxqdhh700000gn/T//ccP7NkEl.s 			page 7


 117 003e C4F20203 		movt	r3, 16386	@ D.5146,
 118 0042 4FF48052 		mov	r2, #4096	@ D.5147,
 119 0046 C4F20202 		movt	r2, 16386	@ D.5147,
 120 004a 1268     		ldr	r2, [r2, #0]	@ D.5148, D.5147_10->CR
 121 004c 22F08472 		bic	r2, r2, #17301504	@ D.5149, D.5148,
 122 0050 22F48032 		bic	r2, r2, #65536	@ D.5149, D.5149,
 123 0054 1A60     		str	r2, [r3, #0]	@ D.5149, D.5146_9->CR
 227:cmsis/device/system_stm32f10x.c **** 
 228:cmsis/device/system_stm32f10x.c ****   /* Reset HSEBYP bit */
 229:cmsis/device/system_stm32f10x.c ****   RCC->CR &= (uint32_t)0xFFFBFFFF;
 124              		.loc 1 229 0
 125 0056 4FF48053 		mov	r3, #4096	@ D.5150,
 126 005a C4F20203 		movt	r3, 16386	@ D.5150,
 127 005e 4FF48052 		mov	r2, #4096	@ D.5151,
 128 0062 C4F20202 		movt	r2, 16386	@ D.5151,
 129 0066 1268     		ldr	r2, [r2, #0]	@ D.5152, D.5151_14->CR
 130 0068 22F48022 		bic	r2, r2, #262144	@ D.5153, D.5152,
 131 006c 1A60     		str	r2, [r3, #0]	@ D.5153, D.5150_13->CR
 230:cmsis/device/system_stm32f10x.c **** 
 231:cmsis/device/system_stm32f10x.c ****   /* Reset PLLSRC, PLLXTPRE, PLLMUL and USBPRE/OTGFSPRE bits */
 232:cmsis/device/system_stm32f10x.c ****   RCC->CFGR &= (uint32_t)0xFF80FFFF;
 132              		.loc 1 232 0
 133 006e 4FF48053 		mov	r3, #4096	@ D.5154,
 134 0072 C4F20203 		movt	r3, 16386	@ D.5154,
 135 0076 4FF48052 		mov	r2, #4096	@ D.5155,
 136 007a C4F20202 		movt	r2, 16386	@ D.5155,
 137 007e 5268     		ldr	r2, [r2, #4]	@ D.5156, D.5155_18->CFGR
 138 0080 22F4FE02 		bic	r2, r2, #8323072	@ D.5157, D.5156,
 139 0084 5A60     		str	r2, [r3, #4]	@ D.5157, D.5154_17->CFGR
 233:cmsis/device/system_stm32f10x.c **** 
 234:cmsis/device/system_stm32f10x.c **** #ifdef STM32F10X_CL
 235:cmsis/device/system_stm32f10x.c ****   /* Reset PLL2ON and PLL3ON bits */
 236:cmsis/device/system_stm32f10x.c ****   RCC->CR &= (uint32_t)0xEBFFFFFF;
 237:cmsis/device/system_stm32f10x.c **** 
 238:cmsis/device/system_stm32f10x.c ****   /* Disable all interrupts and clear pending bits  */
 239:cmsis/device/system_stm32f10x.c ****   RCC->CIR = 0x00FF0000;
 240:cmsis/device/system_stm32f10x.c **** 
 241:cmsis/device/system_stm32f10x.c ****   /* Reset CFGR2 register */
 242:cmsis/device/system_stm32f10x.c ****   RCC->CFGR2 = 0x00000000;
 243:cmsis/device/system_stm32f10x.c **** #elif defined (STM32F10X_LD_VL) || defined (STM32F10X_MD_VL) || (defined STM32F10X_HD_VL)
 244:cmsis/device/system_stm32f10x.c ****   /* Disable all interrupts and clear pending bits  */
 245:cmsis/device/system_stm32f10x.c ****   RCC->CIR = 0x009F0000;
 246:cmsis/device/system_stm32f10x.c **** 
 247:cmsis/device/system_stm32f10x.c ****   /* Reset CFGR2 register */
 248:cmsis/device/system_stm32f10x.c ****   RCC->CFGR2 = 0x00000000;      
 249:cmsis/device/system_stm32f10x.c **** #else
 250:cmsis/device/system_stm32f10x.c ****   /* Disable all interrupts and clear pending bits  */
 251:cmsis/device/system_stm32f10x.c ****   RCC->CIR = 0x009F0000;
 140              		.loc 1 251 0
 141 0086 4FF48053 		mov	r3, #4096	@ D.5158,
 142 008a C4F20203 		movt	r3, 16386	@ D.5158,
 143 008e 4FF41F02 		mov	r2, #10420224	@ tmp156,
 144 0092 9A60     		str	r2, [r3, #8]	@ tmp156, D.5158_21->CIR
 252:cmsis/device/system_stm32f10x.c **** #endif /* STM32F10X_CL */
 253:cmsis/device/system_stm32f10x.c ****     
 254:cmsis/device/system_stm32f10x.c **** #if defined (STM32F10X_HD) || (defined STM32F10X_XL) || (defined STM32F10X_HD_VL)
 255:cmsis/device/system_stm32f10x.c ****   #ifdef DATA_IN_ExtSRAM
ARM GAS  /var/folders/5n/p_75w94d66l9ssrldxqdhh700000gn/T//ccP7NkEl.s 			page 8


 256:cmsis/device/system_stm32f10x.c ****     SystemInit_ExtMemCtl(); 
 257:cmsis/device/system_stm32f10x.c ****   #endif /* DATA_IN_ExtSRAM */
 258:cmsis/device/system_stm32f10x.c **** #endif 
 259:cmsis/device/system_stm32f10x.c **** 
 260:cmsis/device/system_stm32f10x.c ****   /* Configure the System clock frequency, HCLK, PCLK2 and PCLK1 prescalers */
 261:cmsis/device/system_stm32f10x.c ****   /* Configure the Flash Latency cycles and enable prefetch buffer */
 262:cmsis/device/system_stm32f10x.c ****   SetSysClock();
 145              		.loc 1 262 0
 146 0094 00F0ACF8 		bl	SetSysClock	@
 263:cmsis/device/system_stm32f10x.c **** 
 264:cmsis/device/system_stm32f10x.c **** #ifdef VECT_TAB_SRAM
 265:cmsis/device/system_stm32f10x.c ****   SCB->VTOR = SRAM_BASE | VECT_TAB_OFFSET; /* Vector Table Relocation in Internal SRAM. */
 266:cmsis/device/system_stm32f10x.c **** #else
 267:cmsis/device/system_stm32f10x.c ****   SCB->VTOR = FLASH_BASE | VECT_TAB_OFFSET; /* Vector Table Relocation in Internal FLASH. */
 147              		.loc 1 267 0
 148 0098 4FF46D43 		mov	r3, #60672	@ D.5159,
 149 009c CEF20003 		movt	r3, 57344	@ D.5159,
 150 00a0 4FF00062 		mov	r2, #134217728	@ tmp157,
 151 00a4 9A60     		str	r2, [r3, #8]	@ tmp157, D.5159_22->VTOR
 268:cmsis/device/system_stm32f10x.c **** #endif 
 269:cmsis/device/system_stm32f10x.c **** }
 152              		.loc 1 269 0
 153 00a6 80BD     		pop	{r7, pc}	@
 154              		.cfi_endproc
 155              	.LFE55:
 156              		.size	SystemInit, .-SystemInit
 157              		.align	2
 158              		.global	SystemCoreClockUpdate
 159              		.thumb
 160              		.thumb_func
 161              		.type	SystemCoreClockUpdate, %function
 162              	SystemCoreClockUpdate:
 163              	.LFB56:
 270:cmsis/device/system_stm32f10x.c **** 
 271:cmsis/device/system_stm32f10x.c **** /**
 272:cmsis/device/system_stm32f10x.c ****   * @brief  Update SystemCoreClock variable according to Clock Register Values.
 273:cmsis/device/system_stm32f10x.c ****   *         The SystemCoreClock variable contains the core clock (HCLK), it can
 274:cmsis/device/system_stm32f10x.c ****   *         be used by the user application to setup the SysTick timer or configure
 275:cmsis/device/system_stm32f10x.c ****   *         other parameters.
 276:cmsis/device/system_stm32f10x.c ****   *           
 277:cmsis/device/system_stm32f10x.c ****   * @note   Each time the core clock (HCLK) changes, this function must be called
 278:cmsis/device/system_stm32f10x.c ****   *         to update SystemCoreClock variable value. Otherwise, any configuration
 279:cmsis/device/system_stm32f10x.c ****   *         based on this variable will be incorrect.         
 280:cmsis/device/system_stm32f10x.c ****   *     
 281:cmsis/device/system_stm32f10x.c ****   * @note   - The system frequency computed by this function is not the real 
 282:cmsis/device/system_stm32f10x.c ****   *           frequency in the chip. It is calculated based on the predefined 
 283:cmsis/device/system_stm32f10x.c ****   *           constant and the selected clock source:
 284:cmsis/device/system_stm32f10x.c ****   *             
 285:cmsis/device/system_stm32f10x.c ****   *           - If SYSCLK source is HSI, SystemCoreClock will contain the HSI_VALUE(*)
 286:cmsis/device/system_stm32f10x.c ****   *                                              
 287:cmsis/device/system_stm32f10x.c ****   *           - If SYSCLK source is HSE, SystemCoreClock will contain the HSE_VALUE(**)
 288:cmsis/device/system_stm32f10x.c ****   *                          
 289:cmsis/device/system_stm32f10x.c ****   *           - If SYSCLK source is PLL, SystemCoreClock will contain the HSE_VALUE(**) 
 290:cmsis/device/system_stm32f10x.c ****   *             or HSI_VALUE(*) multiplied by the PLL factors.
 291:cmsis/device/system_stm32f10x.c ****   *         
 292:cmsis/device/system_stm32f10x.c ****   *         (*) HSI_VALUE is a constant defined in stm32f1xx.h file (default value
 293:cmsis/device/system_stm32f10x.c ****   *             8 MHz) but the real value may vary depending on the variations
ARM GAS  /var/folders/5n/p_75w94d66l9ssrldxqdhh700000gn/T//ccP7NkEl.s 			page 9


 294:cmsis/device/system_stm32f10x.c ****   *             in voltage and temperature.   
 295:cmsis/device/system_stm32f10x.c ****   *    
 296:cmsis/device/system_stm32f10x.c ****   *         (**) HSE_VALUE is a constant defined in stm32f1xx.h file (default value
 297:cmsis/device/system_stm32f10x.c ****   *              8 MHz or 25 MHz, depedning on the product used), user has to ensure
 298:cmsis/device/system_stm32f10x.c ****   *              that HSE_VALUE is same as the real frequency of the crystal used.
 299:cmsis/device/system_stm32f10x.c ****   *              Otherwise, this function may have wrong result.
 300:cmsis/device/system_stm32f10x.c ****   *                
 301:cmsis/device/system_stm32f10x.c ****   *         - The result of this function could be not correct when using fractional
 302:cmsis/device/system_stm32f10x.c ****   *           value for HSE crystal.
 303:cmsis/device/system_stm32f10x.c ****   * @param  None
 304:cmsis/device/system_stm32f10x.c ****   * @retval None
 305:cmsis/device/system_stm32f10x.c ****   */
 306:cmsis/device/system_stm32f10x.c **** void SystemCoreClockUpdate (void)
 307:cmsis/device/system_stm32f10x.c **** {
 164              		.loc 1 307 0
 165              		.cfi_startproc
 166              		@ args = 0, pretend = 0, frame = 16
 167              		@ frame_needed = 1, uses_anonymous_args = 0
 168              		@ link register save eliminated.
 169 00a8 80B4     		push	{r7}	@
 170              	.LCFI2:
 171              		.cfi_def_cfa_offset 4
 172              		.cfi_offset 7, -4
 173 00aa 85B0     		sub	sp, sp, #20	@,,
 174              	.LCFI3:
 175              		.cfi_def_cfa_offset 24
 176 00ac 00AF     		add	r7, sp, #0	@,,
 177              	.LCFI4:
 178              		.cfi_def_cfa_register 7
 308:cmsis/device/system_stm32f10x.c ****   uint32_t tmp = 0, pllmull = 0, pllsource = 0;
 179              		.loc 1 308 0
 180 00ae 4FF00003 		mov	r3, #0	@ tmp155,
 181 00b2 FB60     		str	r3, [r7, #12]	@ tmp155, tmp
 182 00b4 4FF00003 		mov	r3, #0	@ tmp156,
 183 00b8 BB60     		str	r3, [r7, #8]	@ tmp156, pllmull
 184 00ba 4FF00003 		mov	r3, #0	@ tmp157,
 185 00be 7B60     		str	r3, [r7, #4]	@ tmp157, pllsource
 309:cmsis/device/system_stm32f10x.c **** 
 310:cmsis/device/system_stm32f10x.c **** #ifdef  STM32F10X_CL
 311:cmsis/device/system_stm32f10x.c ****   uint32_t prediv1source = 0, prediv1factor = 0, prediv2factor = 0, pll2mull = 0;
 312:cmsis/device/system_stm32f10x.c **** #endif /* STM32F10X_CL */
 313:cmsis/device/system_stm32f10x.c **** 
 314:cmsis/device/system_stm32f10x.c **** #if defined (STM32F10X_LD_VL) || defined (STM32F10X_MD_VL) || (defined STM32F10X_HD_VL)
 315:cmsis/device/system_stm32f10x.c ****   uint32_t prediv1factor = 0;
 316:cmsis/device/system_stm32f10x.c **** #endif /* STM32F10X_LD_VL or STM32F10X_MD_VL or STM32F10X_HD_VL */
 317:cmsis/device/system_stm32f10x.c ****     
 318:cmsis/device/system_stm32f10x.c ****   /* Get SYSCLK source -------------------------------------------------------*/
 319:cmsis/device/system_stm32f10x.c ****   tmp = RCC->CFGR & RCC_CFGR_SWS;
 186              		.loc 1 319 0
 187 00c0 4FF48053 		mov	r3, #4096	@ D.5111,
 188 00c4 C4F20203 		movt	r3, 16386	@ D.5111,
 189 00c8 5B68     		ldr	r3, [r3, #4]	@ D.5112, D.5111_4->CFGR
 190 00ca 03F00C03 		and	r3, r3, #12	@ tmp158, D.5112,
 191 00ce FB60     		str	r3, [r7, #12]	@ tmp158, tmp
 320:cmsis/device/system_stm32f10x.c ****   
 321:cmsis/device/system_stm32f10x.c ****   switch (tmp)
 192              		.loc 1 321 0
ARM GAS  /var/folders/5n/p_75w94d66l9ssrldxqdhh700000gn/T//ccP7NkEl.s 			page 10


 193 00d0 FB68     		ldr	r3, [r7, #12]	@ tmp159, tmp
 194 00d2 042B     		cmp	r3, #4	@ tmp159,
 195 00d4 0DD0     		beq	.L5	@,
 196 00d6 082B     		cmp	r3, #8	@ tmp159,
 197 00d8 15D0     		beq	.L6	@,
 198 00da 002B     		cmp	r3, #0	@ tmp159,
 199 00dc 5CD1     		bne	.L11	@,
 200              	.L4:
 322:cmsis/device/system_stm32f10x.c ****   {
 323:cmsis/device/system_stm32f10x.c ****     case 0x00:  /* HSI used as system clock */
 324:cmsis/device/system_stm32f10x.c ****       SystemCoreClock = HSI_VALUE;
 201              		.loc 1 324 0
 202 00de 40F20003 		movw	r3, #:lower16:SystemCoreClock	@ tmp160,
 203 00e2 C0F20003 		movt	r3, #:upper16:SystemCoreClock	@ tmp160,
 204 00e6 4FF49052 		mov	r2, #4608	@ tmp161,
 205 00ea C0F27A02 		movt	r2, 122	@ tmp161,
 206 00ee 1A60     		str	r2, [r3, #0]	@ tmp161, SystemCoreClock
 325:cmsis/device/system_stm32f10x.c ****       break;
 207              		.loc 1 325 0
 208 00f0 5CE0     		b	.L7	@
 209              	.L5:
 326:cmsis/device/system_stm32f10x.c ****     case 0x04:  /* HSE used as system clock */
 327:cmsis/device/system_stm32f10x.c ****       SystemCoreClock = HSE_VALUE;
 210              		.loc 1 327 0
 211 00f2 40F20003 		movw	r3, #:lower16:SystemCoreClock	@ tmp162,
 212 00f6 C0F20003 		movt	r3, #:upper16:SystemCoreClock	@ tmp162,
 213 00fa 4FF49052 		mov	r2, #4608	@ tmp163,
 214 00fe C0F27A02 		movt	r2, 122	@ tmp163,
 215 0102 1A60     		str	r2, [r3, #0]	@ tmp163, SystemCoreClock
 328:cmsis/device/system_stm32f10x.c ****       break;
 216              		.loc 1 328 0
 217 0104 52E0     		b	.L7	@
 218              	.L6:
 329:cmsis/device/system_stm32f10x.c ****     case 0x08:  /* PLL used as system clock */
 330:cmsis/device/system_stm32f10x.c **** 
 331:cmsis/device/system_stm32f10x.c ****       /* Get PLL clock source and multiplication factor ----------------------*/
 332:cmsis/device/system_stm32f10x.c ****       pllmull = RCC->CFGR & RCC_CFGR_PLLMULL;
 219              		.loc 1 332 0
 220 0106 4FF48053 		mov	r3, #4096	@ D.5113,
 221 010a C4F20203 		movt	r3, 16386	@ D.5113,
 222 010e 5B68     		ldr	r3, [r3, #4]	@ D.5114, D.5113_7->CFGR
 223 0110 03F47013 		and	r3, r3, #3932160	@ tmp164, D.5114,
 224 0114 BB60     		str	r3, [r7, #8]	@ tmp164, pllmull
 333:cmsis/device/system_stm32f10x.c ****       pllsource = RCC->CFGR & RCC_CFGR_PLLSRC;
 225              		.loc 1 333 0
 226 0116 4FF48053 		mov	r3, #4096	@ D.5115,
 227 011a C4F20203 		movt	r3, 16386	@ D.5115,
 228 011e 5B68     		ldr	r3, [r3, #4]	@ D.5116, D.5115_10->CFGR
 229 0120 03F48033 		and	r3, r3, #65536	@ tmp165, D.5116,
 230 0124 7B60     		str	r3, [r7, #4]	@ tmp165, pllsource
 334:cmsis/device/system_stm32f10x.c ****       
 335:cmsis/device/system_stm32f10x.c **** #ifndef STM32F10X_CL      
 336:cmsis/device/system_stm32f10x.c ****       pllmull = ( pllmull >> 18) + 2;
 231              		.loc 1 336 0
 232 0126 BB68     		ldr	r3, [r7, #8]	@ tmp166, pllmull
 233 0128 4FEA9343 		lsr	r3, r3, #18	@ D.5117, tmp166,
 234 012c 03F10203 		add	r3, r3, #2	@ tmp167, D.5117,
ARM GAS  /var/folders/5n/p_75w94d66l9ssrldxqdhh700000gn/T//ccP7NkEl.s 			page 11


 235 0130 BB60     		str	r3, [r7, #8]	@ tmp167, pllmull
 337:cmsis/device/system_stm32f10x.c ****       
 338:cmsis/device/system_stm32f10x.c ****       if (pllsource == 0x00)
 236              		.loc 1 338 0
 237 0132 7B68     		ldr	r3, [r7, #4]	@ tmp168, pllsource
 238 0134 002B     		cmp	r3, #0	@ tmp168,
 239 0136 0CD1     		bne	.L8	@,
 339:cmsis/device/system_stm32f10x.c ****       {
 340:cmsis/device/system_stm32f10x.c ****         /* HSI oscillator clock divided by 2 selected as PLL clock entry */
 341:cmsis/device/system_stm32f10x.c ****         SystemCoreClock = (HSI_VALUE >> 1) * pllmull;
 240              		.loc 1 341 0
 241 0138 BA68     		ldr	r2, [r7, #8]	@ tmp169, pllmull
 242 013a 4FF41063 		mov	r3, #2304	@ tmp170,
 243 013e C0F23D03 		movt	r3, 61	@ tmp170,
 244 0142 03FB02F2 		mul	r2, r3, r2	@ SystemCoreClock.6, tmp170, tmp169
 245 0146 40F20003 		movw	r3, #:lower16:SystemCoreClock	@ tmp171,
 246 014a C0F20003 		movt	r3, #:upper16:SystemCoreClock	@ tmp171,
 247 014e 1A60     		str	r2, [r3, #0]	@ SystemCoreClock.6, SystemCoreClock
 342:cmsis/device/system_stm32f10x.c ****       }
 343:cmsis/device/system_stm32f10x.c ****       else
 344:cmsis/device/system_stm32f10x.c ****       {
 345:cmsis/device/system_stm32f10x.c ****  #if defined (STM32F10X_LD_VL) || defined (STM32F10X_MD_VL) || (defined STM32F10X_HD_VL)
 346:cmsis/device/system_stm32f10x.c ****        prediv1factor = (RCC->CFGR2 & RCC_CFGR2_PREDIV1) + 1;
 347:cmsis/device/system_stm32f10x.c ****        /* HSE oscillator clock selected as PREDIV1 clock entry */
 348:cmsis/device/system_stm32f10x.c ****        SystemCoreClock = (HSE_VALUE / prediv1factor) * pllmull; 
 349:cmsis/device/system_stm32f10x.c ****  #else
 350:cmsis/device/system_stm32f10x.c ****         /* HSE selected as PLL clock entry */
 351:cmsis/device/system_stm32f10x.c ****         if ((RCC->CFGR & RCC_CFGR_PLLXTPRE) != (uint32_t)RESET)
 352:cmsis/device/system_stm32f10x.c ****         {/* HSE oscillator clock divided by 2 */
 353:cmsis/device/system_stm32f10x.c ****           SystemCoreClock = (HSE_VALUE >> 1) * pllmull;
 354:cmsis/device/system_stm32f10x.c ****         }
 355:cmsis/device/system_stm32f10x.c ****         else
 356:cmsis/device/system_stm32f10x.c ****         {
 357:cmsis/device/system_stm32f10x.c ****           SystemCoreClock = HSE_VALUE * pllmull;
 358:cmsis/device/system_stm32f10x.c ****         }
 359:cmsis/device/system_stm32f10x.c ****  #endif
 360:cmsis/device/system_stm32f10x.c ****       }
 361:cmsis/device/system_stm32f10x.c **** #else
 362:cmsis/device/system_stm32f10x.c ****       pllmull = pllmull >> 18;
 363:cmsis/device/system_stm32f10x.c ****       
 364:cmsis/device/system_stm32f10x.c ****       if (pllmull != 0x0D)
 365:cmsis/device/system_stm32f10x.c ****       {
 366:cmsis/device/system_stm32f10x.c ****          pllmull += 2;
 367:cmsis/device/system_stm32f10x.c ****       }
 368:cmsis/device/system_stm32f10x.c ****       else
 369:cmsis/device/system_stm32f10x.c ****       { /* PLL multiplication factor = PLL input clock * 6.5 */
 370:cmsis/device/system_stm32f10x.c ****         pllmull = 13 / 2; 
 371:cmsis/device/system_stm32f10x.c ****       }
 372:cmsis/device/system_stm32f10x.c ****             
 373:cmsis/device/system_stm32f10x.c ****       if (pllsource == 0x00)
 374:cmsis/device/system_stm32f10x.c ****       {
 375:cmsis/device/system_stm32f10x.c ****         /* HSI oscillator clock divided by 2 selected as PLL clock entry */
 376:cmsis/device/system_stm32f10x.c ****         SystemCoreClock = (HSI_VALUE >> 1) * pllmull;
 377:cmsis/device/system_stm32f10x.c ****       }
 378:cmsis/device/system_stm32f10x.c ****       else
 379:cmsis/device/system_stm32f10x.c ****       {/* PREDIV1 selected as PLL clock entry */
 380:cmsis/device/system_stm32f10x.c ****         
ARM GAS  /var/folders/5n/p_75w94d66l9ssrldxqdhh700000gn/T//ccP7NkEl.s 			page 12


 381:cmsis/device/system_stm32f10x.c ****         /* Get PREDIV1 clock source and division factor */
 382:cmsis/device/system_stm32f10x.c ****         prediv1source = RCC->CFGR2 & RCC_CFGR2_PREDIV1SRC;
 383:cmsis/device/system_stm32f10x.c ****         prediv1factor = (RCC->CFGR2 & RCC_CFGR2_PREDIV1) + 1;
 384:cmsis/device/system_stm32f10x.c ****         
 385:cmsis/device/system_stm32f10x.c ****         if (prediv1source == 0)
 386:cmsis/device/system_stm32f10x.c ****         { 
 387:cmsis/device/system_stm32f10x.c ****           /* HSE oscillator clock selected as PREDIV1 clock entry */
 388:cmsis/device/system_stm32f10x.c ****           SystemCoreClock = (HSE_VALUE / prediv1factor) * pllmull;          
 389:cmsis/device/system_stm32f10x.c ****         }
 390:cmsis/device/system_stm32f10x.c ****         else
 391:cmsis/device/system_stm32f10x.c ****         {/* PLL2 clock selected as PREDIV1 clock entry */
 392:cmsis/device/system_stm32f10x.c ****           
 393:cmsis/device/system_stm32f10x.c ****           /* Get PREDIV2 division factor and PLL2 multiplication factor */
 394:cmsis/device/system_stm32f10x.c ****           prediv2factor = ((RCC->CFGR2 & RCC_CFGR2_PREDIV2) >> 4) + 1;
 395:cmsis/device/system_stm32f10x.c ****           pll2mull = ((RCC->CFGR2 & RCC_CFGR2_PLL2MUL) >> 8 ) + 2; 
 396:cmsis/device/system_stm32f10x.c ****           SystemCoreClock = (((HSE_VALUE / prediv2factor) * pll2mull) / prediv1factor) * pllmull;  
 397:cmsis/device/system_stm32f10x.c ****         }
 398:cmsis/device/system_stm32f10x.c ****       }
 399:cmsis/device/system_stm32f10x.c **** #endif /* STM32F10X_CL */ 
 400:cmsis/device/system_stm32f10x.c ****       break;
 248              		.loc 1 400 0
 249 0150 2CE0     		b	.L7	@
 250              	.L8:
 351:cmsis/device/system_stm32f10x.c ****         if ((RCC->CFGR & RCC_CFGR_PLLXTPRE) != (uint32_t)RESET)
 251              		.loc 1 351 0
 252 0152 4FF48053 		mov	r3, #4096	@ D.5122,
 253 0156 C4F20203 		movt	r3, 16386	@ D.5122,
 254 015a 5B68     		ldr	r3, [r3, #4]	@ D.5123, D.5122_16->CFGR
 255 015c 03F40033 		and	r3, r3, #131072	@ D.5124, D.5123,
 256 0160 002B     		cmp	r3, #0	@ D.5124,
 257 0162 0CD0     		beq	.L10	@,
 353:cmsis/device/system_stm32f10x.c ****           SystemCoreClock = (HSE_VALUE >> 1) * pllmull;
 258              		.loc 1 353 0
 259 0164 BA68     		ldr	r2, [r7, #8]	@ tmp172, pllmull
 260 0166 4FF41063 		mov	r3, #2304	@ tmp173,
 261 016a C0F23D03 		movt	r3, 61	@ tmp173,
 262 016e 03FB02F2 		mul	r2, r3, r2	@ SystemCoreClock.7, tmp173, tmp172
 263 0172 40F20003 		movw	r3, #:lower16:SystemCoreClock	@ tmp174,
 264 0176 C0F20003 		movt	r3, #:upper16:SystemCoreClock	@ tmp174,
 265 017a 1A60     		str	r2, [r3, #0]	@ SystemCoreClock.7, SystemCoreClock
 266              		.loc 1 400 0
 267 017c 16E0     		b	.L7	@
 268              	.L10:
 357:cmsis/device/system_stm32f10x.c ****           SystemCoreClock = HSE_VALUE * pllmull;
 269              		.loc 1 357 0
 270 017e BA68     		ldr	r2, [r7, #8]	@ tmp175, pllmull
 271 0180 4FF49053 		mov	r3, #4608	@ tmp176,
 272 0184 C0F27A03 		movt	r3, 122	@ tmp176,
 273 0188 03FB02F2 		mul	r2, r3, r2	@ SystemCoreClock.8, tmp176, tmp175
 274 018c 40F20003 		movw	r3, #:lower16:SystemCoreClock	@ tmp177,
 275 0190 C0F20003 		movt	r3, #:upper16:SystemCoreClock	@ tmp177,
 276 0194 1A60     		str	r2, [r3, #0]	@ SystemCoreClock.8, SystemCoreClock
 277              		.loc 1 400 0
 278 0196 09E0     		b	.L7	@
 279              	.L11:
 401:cmsis/device/system_stm32f10x.c **** 
 402:cmsis/device/system_stm32f10x.c ****     default:
ARM GAS  /var/folders/5n/p_75w94d66l9ssrldxqdhh700000gn/T//ccP7NkEl.s 			page 13


 403:cmsis/device/system_stm32f10x.c ****       SystemCoreClock = HSI_VALUE;
 280              		.loc 1 403 0
 281 0198 40F20003 		movw	r3, #:lower16:SystemCoreClock	@ tmp178,
 282 019c C0F20003 		movt	r3, #:upper16:SystemCoreClock	@ tmp178,
 283 01a0 4FF49052 		mov	r2, #4608	@ tmp179,
 284 01a4 C0F27A02 		movt	r2, 122	@ tmp179,
 285 01a8 1A60     		str	r2, [r3, #0]	@ tmp179, SystemCoreClock
 404:cmsis/device/system_stm32f10x.c ****       break;
 286              		.loc 1 404 0
 287 01aa 00BF     		nop
 288              	.L7:
 405:cmsis/device/system_stm32f10x.c ****   }
 406:cmsis/device/system_stm32f10x.c ****   
 407:cmsis/device/system_stm32f10x.c ****   /* Compute HCLK clock frequency ----------------*/
 408:cmsis/device/system_stm32f10x.c ****   /* Get HCLK prescaler */
 409:cmsis/device/system_stm32f10x.c ****   tmp = AHBPrescTable[((RCC->CFGR & RCC_CFGR_HPRE) >> 4)];
 289              		.loc 1 409 0
 290 01ac 4FF48053 		mov	r3, #4096	@ D.5130,
 291 01b0 C4F20203 		movt	r3, 16386	@ D.5130,
 292 01b4 5B68     		ldr	r3, [r3, #4]	@ D.5131, D.5130_21->CFGR
 293 01b6 03F0F003 		and	r3, r3, #240	@ D.5132, D.5131,
 294 01ba 4FEA1312 		lsr	r2, r3, #4	@ D.5133, D.5132,
 295 01be 40F20003 		movw	r3, #:lower16:AHBPrescTable	@ tmp180,
 296 01c2 C0F20003 		movt	r3, #:upper16:AHBPrescTable	@ tmp180,
 297 01c6 9B5C     		ldrb	r3, [r3, r2]	@ tmp182, AHBPrescTable
 298 01c8 DBB2     		uxtb	r3, r3	@ D.5134, tmp182
 299 01ca FB60     		str	r3, [r7, #12]	@ D.5134, tmp
 410:cmsis/device/system_stm32f10x.c ****   /* HCLK clock frequency */
 411:cmsis/device/system_stm32f10x.c ****   SystemCoreClock >>= tmp;  
 300              		.loc 1 411 0
 301 01cc 40F20003 		movw	r3, #:lower16:SystemCoreClock	@ tmp183,
 302 01d0 C0F20003 		movt	r3, #:upper16:SystemCoreClock	@ tmp183,
 303 01d4 1A68     		ldr	r2, [r3, #0]	@ SystemCoreClock.9, SystemCoreClock
 304 01d6 FB68     		ldr	r3, [r7, #12]	@ tmp.10, tmp
 305 01d8 22FA03F2 		lsr	r2, r2, r3	@ SystemCoreClock.11, SystemCoreClock.9, tmp.10
 306 01dc 40F20003 		movw	r3, #:lower16:SystemCoreClock	@ tmp184,
 307 01e0 C0F20003 		movt	r3, #:upper16:SystemCoreClock	@ tmp184,
 308 01e4 1A60     		str	r2, [r3, #0]	@ SystemCoreClock.11, SystemCoreClock
 412:cmsis/device/system_stm32f10x.c **** }
 309              		.loc 1 412 0
 310 01e6 07F11407 		add	r7, r7, #20	@,,
 311 01ea BD46     		mov	sp, r7
 312 01ec 80BC     		pop	{r7}
 313 01ee 7047     		bx	lr
 314              		.cfi_endproc
 315              	.LFE56:
 316              		.size	SystemCoreClockUpdate, .-SystemCoreClockUpdate
 317              		.align	2
 318              		.thumb
 319              		.thumb_func
 320              		.type	SetSysClock, %function
 321              	SetSysClock:
 322              	.LFB57:
 413:cmsis/device/system_stm32f10x.c **** 
 414:cmsis/device/system_stm32f10x.c **** /**
 415:cmsis/device/system_stm32f10x.c ****   * @brief  Configures the System clock frequency, HCLK, PCLK2 and PCLK1 prescalers.
 416:cmsis/device/system_stm32f10x.c ****   * @param  None
ARM GAS  /var/folders/5n/p_75w94d66l9ssrldxqdhh700000gn/T//ccP7NkEl.s 			page 14


 417:cmsis/device/system_stm32f10x.c ****   * @retval None
 418:cmsis/device/system_stm32f10x.c ****   */
 419:cmsis/device/system_stm32f10x.c **** static void SetSysClock(void)
 420:cmsis/device/system_stm32f10x.c **** {
 323              		.loc 1 420 0
 324              		.cfi_startproc
 325              		@ args = 0, pretend = 0, frame = 0
 326              		@ frame_needed = 1, uses_anonymous_args = 0
 327 01f0 80B5     		push	{r7, lr}	@
 328              	.LCFI5:
 329              		.cfi_def_cfa_offset 8
 330              		.cfi_offset 7, -8
 331              		.cfi_offset 14, -4
 332 01f2 00AF     		add	r7, sp, #0	@,,
 333              	.LCFI6:
 334              		.cfi_def_cfa_register 7
 421:cmsis/device/system_stm32f10x.c **** #ifdef SYSCLK_FREQ_HSE
 422:cmsis/device/system_stm32f10x.c ****   SetSysClockToHSE();
 423:cmsis/device/system_stm32f10x.c **** #elif defined SYSCLK_FREQ_24MHz
 424:cmsis/device/system_stm32f10x.c ****   SetSysClockTo24();
 425:cmsis/device/system_stm32f10x.c **** #elif defined SYSCLK_FREQ_36MHz
 426:cmsis/device/system_stm32f10x.c ****   SetSysClockTo36();
 427:cmsis/device/system_stm32f10x.c **** #elif defined SYSCLK_FREQ_48MHz
 428:cmsis/device/system_stm32f10x.c ****   SetSysClockTo48();
 429:cmsis/device/system_stm32f10x.c **** #elif defined SYSCLK_FREQ_56MHz
 430:cmsis/device/system_stm32f10x.c ****   SetSysClockTo56();  
 431:cmsis/device/system_stm32f10x.c **** #elif defined SYSCLK_FREQ_72MHz
 432:cmsis/device/system_stm32f10x.c ****   SetSysClockTo72();
 335              		.loc 1 432 0
 336 01f4 00F002F8 		bl	SetSysClockTo72	@
 433:cmsis/device/system_stm32f10x.c **** #endif
 434:cmsis/device/system_stm32f10x.c ****  
 435:cmsis/device/system_stm32f10x.c ****  /* If none of the define above is enabled, the HSI is used as System clock
 436:cmsis/device/system_stm32f10x.c ****     source (default after reset) */ 
 437:cmsis/device/system_stm32f10x.c **** }
 337              		.loc 1 437 0
 338 01f8 80BD     		pop	{r7, pc}	@
 339              		.cfi_endproc
 340              	.LFE57:
 341              		.size	SetSysClock, .-SetSysClock
 342 01fa 00BF     		.align	2
 343              		.thumb
 344              		.thumb_func
 345              		.type	SetSysClockTo72, %function
 346              	SetSysClockTo72:
 347              	.LFB58:
 438:cmsis/device/system_stm32f10x.c **** 
 439:cmsis/device/system_stm32f10x.c **** /**
 440:cmsis/device/system_stm32f10x.c ****   * @brief  Setup the external memory controller. Called in startup_stm32f10x.s 
 441:cmsis/device/system_stm32f10x.c ****   *          before jump to __main
 442:cmsis/device/system_stm32f10x.c ****   * @param  None
 443:cmsis/device/system_stm32f10x.c ****   * @retval None
 444:cmsis/device/system_stm32f10x.c ****   */ 
 445:cmsis/device/system_stm32f10x.c **** #ifdef DATA_IN_ExtSRAM
 446:cmsis/device/system_stm32f10x.c **** /**
 447:cmsis/device/system_stm32f10x.c ****   * @brief  Setup the external memory controller. 
 448:cmsis/device/system_stm32f10x.c ****   *         Called in startup_stm32f10x_xx.s/.c before jump to main.
ARM GAS  /var/folders/5n/p_75w94d66l9ssrldxqdhh700000gn/T//ccP7NkEl.s 			page 15


 449:cmsis/device/system_stm32f10x.c ****   * 	      This function configures the external SRAM mounted on STM3210E-EVAL
 450:cmsis/device/system_stm32f10x.c ****   *         board (STM32 High density devices). This SRAM will be used as program
 451:cmsis/device/system_stm32f10x.c ****   *         data memory (including heap and stack).
 452:cmsis/device/system_stm32f10x.c ****   * @param  None
 453:cmsis/device/system_stm32f10x.c ****   * @retval None
 454:cmsis/device/system_stm32f10x.c ****   */ 
 455:cmsis/device/system_stm32f10x.c **** void SystemInit_ExtMemCtl(void) 
 456:cmsis/device/system_stm32f10x.c **** {
 457:cmsis/device/system_stm32f10x.c **** /*!< FSMC Bank1 NOR/SRAM3 is used for the STM3210E-EVAL, if another Bank is 
 458:cmsis/device/system_stm32f10x.c ****   required, then adjust the Register Addresses */
 459:cmsis/device/system_stm32f10x.c **** 
 460:cmsis/device/system_stm32f10x.c ****   /* Enable FSMC clock */
 461:cmsis/device/system_stm32f10x.c ****   RCC->AHBENR = 0x00000114;
 462:cmsis/device/system_stm32f10x.c ****   
 463:cmsis/device/system_stm32f10x.c ****   /* Enable GPIOD, GPIOE, GPIOF and GPIOG clocks */  
 464:cmsis/device/system_stm32f10x.c ****   RCC->APB2ENR = 0x000001E0;
 465:cmsis/device/system_stm32f10x.c ****   
 466:cmsis/device/system_stm32f10x.c **** /* ---------------  SRAM Data lines, NOE and NWE configuration ---------------*/
 467:cmsis/device/system_stm32f10x.c **** /*----------------  SRAM Address lines configuration -------------------------*/
 468:cmsis/device/system_stm32f10x.c **** /*----------------  NOE and NWE configuration --------------------------------*/  
 469:cmsis/device/system_stm32f10x.c **** /*----------------  NE3 configuration ----------------------------------------*/
 470:cmsis/device/system_stm32f10x.c **** /*----------------  NBL0, NBL1 configuration ---------------------------------*/
 471:cmsis/device/system_stm32f10x.c ****   
 472:cmsis/device/system_stm32f10x.c ****   GPIOD->CRL = 0x44BB44BB;  
 473:cmsis/device/system_stm32f10x.c ****   GPIOD->CRH = 0xBBBBBBBB;
 474:cmsis/device/system_stm32f10x.c **** 
 475:cmsis/device/system_stm32f10x.c ****   GPIOE->CRL = 0xB44444BB;  
 476:cmsis/device/system_stm32f10x.c ****   GPIOE->CRH = 0xBBBBBBBB;
 477:cmsis/device/system_stm32f10x.c **** 
 478:cmsis/device/system_stm32f10x.c ****   GPIOF->CRL = 0x44BBBBBB;  
 479:cmsis/device/system_stm32f10x.c ****   GPIOF->CRH = 0xBBBB4444;
 480:cmsis/device/system_stm32f10x.c **** 
 481:cmsis/device/system_stm32f10x.c ****   GPIOG->CRL = 0x44BBBBBB;  
 482:cmsis/device/system_stm32f10x.c ****   GPIOG->CRH = 0x44444B44;
 483:cmsis/device/system_stm32f10x.c ****    
 484:cmsis/device/system_stm32f10x.c **** /*----------------  FSMC Configuration ---------------------------------------*/  
 485:cmsis/device/system_stm32f10x.c **** /*----------------  Enable FSMC Bank1_SRAM Bank ------------------------------*/
 486:cmsis/device/system_stm32f10x.c ****   
 487:cmsis/device/system_stm32f10x.c ****   FSMC_Bank1->BTCR[4] = 0x00001011;
 488:cmsis/device/system_stm32f10x.c ****   FSMC_Bank1->BTCR[5] = 0x00000200;
 489:cmsis/device/system_stm32f10x.c **** }
 490:cmsis/device/system_stm32f10x.c **** #endif /* DATA_IN_ExtSRAM */
 491:cmsis/device/system_stm32f10x.c **** 
 492:cmsis/device/system_stm32f10x.c **** #ifdef SYSCLK_FREQ_HSE
 493:cmsis/device/system_stm32f10x.c **** /**
 494:cmsis/device/system_stm32f10x.c ****   * @brief  Selects HSE as System clock source and configure HCLK, PCLK2
 495:cmsis/device/system_stm32f10x.c ****   *         and PCLK1 prescalers.
 496:cmsis/device/system_stm32f10x.c ****   * @note   This function should be used only after reset.
 497:cmsis/device/system_stm32f10x.c ****   * @param  None
 498:cmsis/device/system_stm32f10x.c ****   * @retval None
 499:cmsis/device/system_stm32f10x.c ****   */
 500:cmsis/device/system_stm32f10x.c **** static void SetSysClockToHSE(void)
 501:cmsis/device/system_stm32f10x.c **** {
 502:cmsis/device/system_stm32f10x.c ****   __IO uint32_t StartUpCounter = 0, HSEStatus = 0;
 503:cmsis/device/system_stm32f10x.c ****   
 504:cmsis/device/system_stm32f10x.c ****   /* SYSCLK, HCLK, PCLK2 and PCLK1 configuration ---------------------------*/    
 505:cmsis/device/system_stm32f10x.c ****   /* Enable HSE */    
ARM GAS  /var/folders/5n/p_75w94d66l9ssrldxqdhh700000gn/T//ccP7NkEl.s 			page 16


 506:cmsis/device/system_stm32f10x.c ****   RCC->CR |= ((uint32_t)RCC_CR_HSEON);
 507:cmsis/device/system_stm32f10x.c ****  
 508:cmsis/device/system_stm32f10x.c ****   /* Wait till HSE is ready and if Time out is reached exit */
 509:cmsis/device/system_stm32f10x.c ****   do
 510:cmsis/device/system_stm32f10x.c ****   {
 511:cmsis/device/system_stm32f10x.c ****     HSEStatus = RCC->CR & RCC_CR_HSERDY;
 512:cmsis/device/system_stm32f10x.c ****     StartUpCounter++;  
 513:cmsis/device/system_stm32f10x.c ****   } while((HSEStatus == 0) && (StartUpCounter != HSE_STARTUP_TIMEOUT));
 514:cmsis/device/system_stm32f10x.c **** 
 515:cmsis/device/system_stm32f10x.c ****   if ((RCC->CR & RCC_CR_HSERDY) != RESET)
 516:cmsis/device/system_stm32f10x.c ****   {
 517:cmsis/device/system_stm32f10x.c ****     HSEStatus = (uint32_t)0x01;
 518:cmsis/device/system_stm32f10x.c ****   }
 519:cmsis/device/system_stm32f10x.c ****   else
 520:cmsis/device/system_stm32f10x.c ****   {
 521:cmsis/device/system_stm32f10x.c ****     HSEStatus = (uint32_t)0x00;
 522:cmsis/device/system_stm32f10x.c ****   }  
 523:cmsis/device/system_stm32f10x.c **** 
 524:cmsis/device/system_stm32f10x.c ****   if (HSEStatus == (uint32_t)0x01)
 525:cmsis/device/system_stm32f10x.c ****   {
 526:cmsis/device/system_stm32f10x.c **** 
 527:cmsis/device/system_stm32f10x.c **** #if !defined STM32F10X_LD_VL && !defined STM32F10X_MD_VL && !defined STM32F10X_HD_VL
 528:cmsis/device/system_stm32f10x.c ****     /* Enable Prefetch Buffer */
 529:cmsis/device/system_stm32f10x.c ****     FLASH->ACR |= FLASH_ACR_PRFTBE;
 530:cmsis/device/system_stm32f10x.c **** 
 531:cmsis/device/system_stm32f10x.c ****     /* Flash 0 wait state */
 532:cmsis/device/system_stm32f10x.c ****     FLASH->ACR &= (uint32_t)((uint32_t)~FLASH_ACR_LATENCY);
 533:cmsis/device/system_stm32f10x.c **** 
 534:cmsis/device/system_stm32f10x.c **** #ifndef STM32F10X_CL
 535:cmsis/device/system_stm32f10x.c ****     FLASH->ACR |= (uint32_t)FLASH_ACR_LATENCY_0;
 536:cmsis/device/system_stm32f10x.c **** #else
 537:cmsis/device/system_stm32f10x.c ****     if (HSE_VALUE <= 24000000)
 538:cmsis/device/system_stm32f10x.c **** 	{
 539:cmsis/device/system_stm32f10x.c ****       FLASH->ACR |= (uint32_t)FLASH_ACR_LATENCY_0;
 540:cmsis/device/system_stm32f10x.c **** 	}
 541:cmsis/device/system_stm32f10x.c **** 	else
 542:cmsis/device/system_stm32f10x.c **** 	{
 543:cmsis/device/system_stm32f10x.c ****       FLASH->ACR |= (uint32_t)FLASH_ACR_LATENCY_1;
 544:cmsis/device/system_stm32f10x.c **** 	}
 545:cmsis/device/system_stm32f10x.c **** #endif /* STM32F10X_CL */
 546:cmsis/device/system_stm32f10x.c **** #endif
 547:cmsis/device/system_stm32f10x.c ****  
 548:cmsis/device/system_stm32f10x.c ****     /* HCLK = SYSCLK */
 549:cmsis/device/system_stm32f10x.c ****     RCC->CFGR |= (uint32_t)RCC_CFGR_HPRE_DIV1;
 550:cmsis/device/system_stm32f10x.c ****       
 551:cmsis/device/system_stm32f10x.c ****     /* PCLK2 = HCLK */
 552:cmsis/device/system_stm32f10x.c ****     RCC->CFGR |= (uint32_t)RCC_CFGR_PPRE2_DIV1;
 553:cmsis/device/system_stm32f10x.c ****     
 554:cmsis/device/system_stm32f10x.c ****     /* PCLK1 = HCLK */
 555:cmsis/device/system_stm32f10x.c ****     RCC->CFGR |= (uint32_t)RCC_CFGR_PPRE1_DIV1;
 556:cmsis/device/system_stm32f10x.c ****     
 557:cmsis/device/system_stm32f10x.c ****     /* Select HSE as system clock source */
 558:cmsis/device/system_stm32f10x.c ****     RCC->CFGR &= (uint32_t)((uint32_t)~(RCC_CFGR_SW));
 559:cmsis/device/system_stm32f10x.c ****     RCC->CFGR |= (uint32_t)RCC_CFGR_SW_HSE;    
 560:cmsis/device/system_stm32f10x.c **** 
 561:cmsis/device/system_stm32f10x.c ****     /* Wait till HSE is used as system clock source */
 562:cmsis/device/system_stm32f10x.c ****     while ((RCC->CFGR & (uint32_t)RCC_CFGR_SWS) != (uint32_t)0x04)
ARM GAS  /var/folders/5n/p_75w94d66l9ssrldxqdhh700000gn/T//ccP7NkEl.s 			page 17


 563:cmsis/device/system_stm32f10x.c ****     {
 564:cmsis/device/system_stm32f10x.c ****     }
 565:cmsis/device/system_stm32f10x.c ****   }
 566:cmsis/device/system_stm32f10x.c ****   else
 567:cmsis/device/system_stm32f10x.c ****   { /* If HSE fails to start-up, the application will have wrong clock 
 568:cmsis/device/system_stm32f10x.c ****          configuration. User can add here some code to deal with this error */
 569:cmsis/device/system_stm32f10x.c ****   }  
 570:cmsis/device/system_stm32f10x.c **** }
 571:cmsis/device/system_stm32f10x.c **** #elif defined SYSCLK_FREQ_24MHz
 572:cmsis/device/system_stm32f10x.c **** /**
 573:cmsis/device/system_stm32f10x.c ****   * @brief  Sets System clock frequency to 24MHz and configure HCLK, PCLK2 
 574:cmsis/device/system_stm32f10x.c ****   *         and PCLK1 prescalers.
 575:cmsis/device/system_stm32f10x.c ****   * @note   This function should be used only after reset.
 576:cmsis/device/system_stm32f10x.c ****   * @param  None
 577:cmsis/device/system_stm32f10x.c ****   * @retval None
 578:cmsis/device/system_stm32f10x.c ****   */
 579:cmsis/device/system_stm32f10x.c **** static void SetSysClockTo24(void)
 580:cmsis/device/system_stm32f10x.c **** {
 581:cmsis/device/system_stm32f10x.c ****   __IO uint32_t StartUpCounter = 0, HSEStatus = 0;
 582:cmsis/device/system_stm32f10x.c ****   
 583:cmsis/device/system_stm32f10x.c ****   /* SYSCLK, HCLK, PCLK2 and PCLK1 configuration ---------------------------*/    
 584:cmsis/device/system_stm32f10x.c ****   /* Enable HSE */    
 585:cmsis/device/system_stm32f10x.c ****   RCC->CR |= ((uint32_t)RCC_CR_HSEON);
 586:cmsis/device/system_stm32f10x.c ****  
 587:cmsis/device/system_stm32f10x.c ****   /* Wait till HSE is ready and if Time out is reached exit */
 588:cmsis/device/system_stm32f10x.c ****   do
 589:cmsis/device/system_stm32f10x.c ****   {
 590:cmsis/device/system_stm32f10x.c ****     HSEStatus = RCC->CR & RCC_CR_HSERDY;
 591:cmsis/device/system_stm32f10x.c ****     StartUpCounter++;  
 592:cmsis/device/system_stm32f10x.c ****   } while((HSEStatus == 0) && (StartUpCounter != HSE_STARTUP_TIMEOUT));
 593:cmsis/device/system_stm32f10x.c **** 
 594:cmsis/device/system_stm32f10x.c ****   if ((RCC->CR & RCC_CR_HSERDY) != RESET)
 595:cmsis/device/system_stm32f10x.c ****   {
 596:cmsis/device/system_stm32f10x.c ****     HSEStatus = (uint32_t)0x01;
 597:cmsis/device/system_stm32f10x.c ****   }
 598:cmsis/device/system_stm32f10x.c ****   else
 599:cmsis/device/system_stm32f10x.c ****   {
 600:cmsis/device/system_stm32f10x.c ****     HSEStatus = (uint32_t)0x00;
 601:cmsis/device/system_stm32f10x.c ****   }  
 602:cmsis/device/system_stm32f10x.c **** 
 603:cmsis/device/system_stm32f10x.c ****   if (HSEStatus == (uint32_t)0x01)
 604:cmsis/device/system_stm32f10x.c ****   {
 605:cmsis/device/system_stm32f10x.c **** #if !defined STM32F10X_LD_VL && !defined STM32F10X_MD_VL && !defined STM32F10X_HD_VL 
 606:cmsis/device/system_stm32f10x.c ****     /* Enable Prefetch Buffer */
 607:cmsis/device/system_stm32f10x.c ****     FLASH->ACR |= FLASH_ACR_PRFTBE;
 608:cmsis/device/system_stm32f10x.c **** 
 609:cmsis/device/system_stm32f10x.c ****     /* Flash 0 wait state */
 610:cmsis/device/system_stm32f10x.c ****     FLASH->ACR &= (uint32_t)((uint32_t)~FLASH_ACR_LATENCY);
 611:cmsis/device/system_stm32f10x.c ****     FLASH->ACR |= (uint32_t)FLASH_ACR_LATENCY_0;    
 612:cmsis/device/system_stm32f10x.c **** #endif
 613:cmsis/device/system_stm32f10x.c ****  
 614:cmsis/device/system_stm32f10x.c ****     /* HCLK = SYSCLK */
 615:cmsis/device/system_stm32f10x.c ****     RCC->CFGR |= (uint32_t)RCC_CFGR_HPRE_DIV1;
 616:cmsis/device/system_stm32f10x.c ****       
 617:cmsis/device/system_stm32f10x.c ****     /* PCLK2 = HCLK */
 618:cmsis/device/system_stm32f10x.c ****     RCC->CFGR |= (uint32_t)RCC_CFGR_PPRE2_DIV1;
 619:cmsis/device/system_stm32f10x.c ****     
ARM GAS  /var/folders/5n/p_75w94d66l9ssrldxqdhh700000gn/T//ccP7NkEl.s 			page 18


 620:cmsis/device/system_stm32f10x.c ****     /* PCLK1 = HCLK */
 621:cmsis/device/system_stm32f10x.c ****     RCC->CFGR |= (uint32_t)RCC_CFGR_PPRE1_DIV1;
 622:cmsis/device/system_stm32f10x.c ****     
 623:cmsis/device/system_stm32f10x.c **** #ifdef STM32F10X_CL
 624:cmsis/device/system_stm32f10x.c ****     /* Configure PLLs ------------------------------------------------------*/
 625:cmsis/device/system_stm32f10x.c ****     /* PLL configuration: PLLCLK = PREDIV1 * 6 = 24 MHz */ 
 626:cmsis/device/system_stm32f10x.c ****     RCC->CFGR &= (uint32_t)~(RCC_CFGR_PLLXTPRE | RCC_CFGR_PLLSRC | RCC_CFGR_PLLMULL);
 627:cmsis/device/system_stm32f10x.c ****     RCC->CFGR |= (uint32_t)(RCC_CFGR_PLLXTPRE_PREDIV1 | RCC_CFGR_PLLSRC_PREDIV1 | 
 628:cmsis/device/system_stm32f10x.c ****                             RCC_CFGR_PLLMULL6); 
 629:cmsis/device/system_stm32f10x.c **** 
 630:cmsis/device/system_stm32f10x.c ****     /* PLL2 configuration: PLL2CLK = (HSE / 5) * 8 = 40 MHz */
 631:cmsis/device/system_stm32f10x.c ****     /* PREDIV1 configuration: PREDIV1CLK = PLL2 / 10 = 4 MHz */       
 632:cmsis/device/system_stm32f10x.c ****     RCC->CFGR2 &= (uint32_t)~(RCC_CFGR2_PREDIV2 | RCC_CFGR2_PLL2MUL |
 633:cmsis/device/system_stm32f10x.c ****                               RCC_CFGR2_PREDIV1 | RCC_CFGR2_PREDIV1SRC);
 634:cmsis/device/system_stm32f10x.c ****     RCC->CFGR2 |= (uint32_t)(RCC_CFGR2_PREDIV2_DIV5 | RCC_CFGR2_PLL2MUL8 |
 635:cmsis/device/system_stm32f10x.c ****                              RCC_CFGR2_PREDIV1SRC_PLL2 | RCC_CFGR2_PREDIV1_DIV10);
 636:cmsis/device/system_stm32f10x.c ****   
 637:cmsis/device/system_stm32f10x.c ****     /* Enable PLL2 */
 638:cmsis/device/system_stm32f10x.c ****     RCC->CR |= RCC_CR_PLL2ON;
 639:cmsis/device/system_stm32f10x.c ****     /* Wait till PLL2 is ready */
 640:cmsis/device/system_stm32f10x.c ****     while((RCC->CR & RCC_CR_PLL2RDY) == 0)
 641:cmsis/device/system_stm32f10x.c ****     {
 642:cmsis/device/system_stm32f10x.c ****     }   
 643:cmsis/device/system_stm32f10x.c **** #elif defined (STM32F10X_LD_VL) || defined (STM32F10X_MD_VL) || defined (STM32F10X_HD_VL)
 644:cmsis/device/system_stm32f10x.c ****     /*  PLL configuration:  = (HSE / 2) * 6 = 24 MHz */
 645:cmsis/device/system_stm32f10x.c ****     RCC->CFGR &= (uint32_t)((uint32_t)~(RCC_CFGR_PLLSRC | RCC_CFGR_PLLXTPRE | RCC_CFGR_PLLMULL));
 646:cmsis/device/system_stm32f10x.c ****     RCC->CFGR |= (uint32_t)(RCC_CFGR_PLLSRC_PREDIV1 | RCC_CFGR_PLLXTPRE_PREDIV1_Div2 | RCC_CFGR_PLL
 647:cmsis/device/system_stm32f10x.c **** #else    
 648:cmsis/device/system_stm32f10x.c ****     /*  PLL configuration:  = (HSE / 2) * 6 = 24 MHz */
 649:cmsis/device/system_stm32f10x.c ****     RCC->CFGR &= (uint32_t)((uint32_t)~(RCC_CFGR_PLLSRC | RCC_CFGR_PLLXTPRE | RCC_CFGR_PLLMULL));
 650:cmsis/device/system_stm32f10x.c ****     RCC->CFGR |= (uint32_t)(RCC_CFGR_PLLSRC_HSE | RCC_CFGR_PLLXTPRE_HSE_Div2 | RCC_CFGR_PLLMULL6);
 651:cmsis/device/system_stm32f10x.c **** #endif /* STM32F10X_CL */
 652:cmsis/device/system_stm32f10x.c **** 
 653:cmsis/device/system_stm32f10x.c ****     /* Enable PLL */
 654:cmsis/device/system_stm32f10x.c ****     RCC->CR |= RCC_CR_PLLON;
 655:cmsis/device/system_stm32f10x.c **** 
 656:cmsis/device/system_stm32f10x.c ****     /* Wait till PLL is ready */
 657:cmsis/device/system_stm32f10x.c ****     while((RCC->CR & RCC_CR_PLLRDY) == 0)
 658:cmsis/device/system_stm32f10x.c ****     {
 659:cmsis/device/system_stm32f10x.c ****     }
 660:cmsis/device/system_stm32f10x.c **** 
 661:cmsis/device/system_stm32f10x.c ****     /* Select PLL as system clock source */
 662:cmsis/device/system_stm32f10x.c ****     RCC->CFGR &= (uint32_t)((uint32_t)~(RCC_CFGR_SW));
 663:cmsis/device/system_stm32f10x.c ****     RCC->CFGR |= (uint32_t)RCC_CFGR_SW_PLL;    
 664:cmsis/device/system_stm32f10x.c **** 
 665:cmsis/device/system_stm32f10x.c ****     /* Wait till PLL is used as system clock source */
 666:cmsis/device/system_stm32f10x.c ****     while ((RCC->CFGR & (uint32_t)RCC_CFGR_SWS) != (uint32_t)0x08)
 667:cmsis/device/system_stm32f10x.c ****     {
 668:cmsis/device/system_stm32f10x.c ****     }
 669:cmsis/device/system_stm32f10x.c ****   }
 670:cmsis/device/system_stm32f10x.c ****   else
 671:cmsis/device/system_stm32f10x.c ****   { /* If HSE fails to start-up, the application will have wrong clock 
 672:cmsis/device/system_stm32f10x.c ****          configuration. User can add here some code to deal with this error */
 673:cmsis/device/system_stm32f10x.c ****   } 
 674:cmsis/device/system_stm32f10x.c **** }
 675:cmsis/device/system_stm32f10x.c **** #elif defined SYSCLK_FREQ_36MHz
 676:cmsis/device/system_stm32f10x.c **** /**
ARM GAS  /var/folders/5n/p_75w94d66l9ssrldxqdhh700000gn/T//ccP7NkEl.s 			page 19


 677:cmsis/device/system_stm32f10x.c ****   * @brief  Sets System clock frequency to 36MHz and configure HCLK, PCLK2 
 678:cmsis/device/system_stm32f10x.c ****   *         and PCLK1 prescalers. 
 679:cmsis/device/system_stm32f10x.c ****   * @note   This function should be used only after reset.
 680:cmsis/device/system_stm32f10x.c ****   * @param  None
 681:cmsis/device/system_stm32f10x.c ****   * @retval None
 682:cmsis/device/system_stm32f10x.c ****   */
 683:cmsis/device/system_stm32f10x.c **** static void SetSysClockTo36(void)
 684:cmsis/device/system_stm32f10x.c **** {
 685:cmsis/device/system_stm32f10x.c ****   __IO uint32_t StartUpCounter = 0, HSEStatus = 0;
 686:cmsis/device/system_stm32f10x.c ****   
 687:cmsis/device/system_stm32f10x.c ****   /* SYSCLK, HCLK, PCLK2 and PCLK1 configuration ---------------------------*/    
 688:cmsis/device/system_stm32f10x.c ****   /* Enable HSE */    
 689:cmsis/device/system_stm32f10x.c ****   RCC->CR |= ((uint32_t)RCC_CR_HSEON);
 690:cmsis/device/system_stm32f10x.c ****  
 691:cmsis/device/system_stm32f10x.c ****   /* Wait till HSE is ready and if Time out is reached exit */
 692:cmsis/device/system_stm32f10x.c ****   do
 693:cmsis/device/system_stm32f10x.c ****   {
 694:cmsis/device/system_stm32f10x.c ****     HSEStatus = RCC->CR & RCC_CR_HSERDY;
 695:cmsis/device/system_stm32f10x.c ****     StartUpCounter++;  
 696:cmsis/device/system_stm32f10x.c ****   } while((HSEStatus == 0) && (StartUpCounter != HSE_STARTUP_TIMEOUT));
 697:cmsis/device/system_stm32f10x.c **** 
 698:cmsis/device/system_stm32f10x.c ****   if ((RCC->CR & RCC_CR_HSERDY) != RESET)
 699:cmsis/device/system_stm32f10x.c ****   {
 700:cmsis/device/system_stm32f10x.c ****     HSEStatus = (uint32_t)0x01;
 701:cmsis/device/system_stm32f10x.c ****   }
 702:cmsis/device/system_stm32f10x.c ****   else
 703:cmsis/device/system_stm32f10x.c ****   {
 704:cmsis/device/system_stm32f10x.c ****     HSEStatus = (uint32_t)0x00;
 705:cmsis/device/system_stm32f10x.c ****   }  
 706:cmsis/device/system_stm32f10x.c **** 
 707:cmsis/device/system_stm32f10x.c ****   if (HSEStatus == (uint32_t)0x01)
 708:cmsis/device/system_stm32f10x.c ****   {
 709:cmsis/device/system_stm32f10x.c ****     /* Enable Prefetch Buffer */
 710:cmsis/device/system_stm32f10x.c ****     FLASH->ACR |= FLASH_ACR_PRFTBE;
 711:cmsis/device/system_stm32f10x.c **** 
 712:cmsis/device/system_stm32f10x.c ****     /* Flash 1 wait state */
 713:cmsis/device/system_stm32f10x.c ****     FLASH->ACR &= (uint32_t)((uint32_t)~FLASH_ACR_LATENCY);
 714:cmsis/device/system_stm32f10x.c ****     FLASH->ACR |= (uint32_t)FLASH_ACR_LATENCY_1;    
 715:cmsis/device/system_stm32f10x.c ****  
 716:cmsis/device/system_stm32f10x.c ****     /* HCLK = SYSCLK */
 717:cmsis/device/system_stm32f10x.c ****     RCC->CFGR |= (uint32_t)RCC_CFGR_HPRE_DIV1;
 718:cmsis/device/system_stm32f10x.c ****       
 719:cmsis/device/system_stm32f10x.c ****     /* PCLK2 = HCLK */
 720:cmsis/device/system_stm32f10x.c ****     RCC->CFGR |= (uint32_t)RCC_CFGR_PPRE2_DIV1;
 721:cmsis/device/system_stm32f10x.c ****     
 722:cmsis/device/system_stm32f10x.c ****     /* PCLK1 = HCLK */
 723:cmsis/device/system_stm32f10x.c ****     RCC->CFGR |= (uint32_t)RCC_CFGR_PPRE1_DIV1;
 724:cmsis/device/system_stm32f10x.c ****     
 725:cmsis/device/system_stm32f10x.c **** #ifdef STM32F10X_CL
 726:cmsis/device/system_stm32f10x.c ****     /* Configure PLLs ------------------------------------------------------*/
 727:cmsis/device/system_stm32f10x.c ****     
 728:cmsis/device/system_stm32f10x.c ****     /* PLL configuration: PLLCLK = PREDIV1 * 9 = 36 MHz */ 
 729:cmsis/device/system_stm32f10x.c ****     RCC->CFGR &= (uint32_t)~(RCC_CFGR_PLLXTPRE | RCC_CFGR_PLLSRC | RCC_CFGR_PLLMULL);
 730:cmsis/device/system_stm32f10x.c ****     RCC->CFGR |= (uint32_t)(RCC_CFGR_PLLXTPRE_PREDIV1 | RCC_CFGR_PLLSRC_PREDIV1 | 
 731:cmsis/device/system_stm32f10x.c ****                             RCC_CFGR_PLLMULL9); 
 732:cmsis/device/system_stm32f10x.c **** 
 733:cmsis/device/system_stm32f10x.c **** 	/*!< PLL2 configuration: PLL2CLK = (HSE / 5) * 8 = 40 MHz */
ARM GAS  /var/folders/5n/p_75w94d66l9ssrldxqdhh700000gn/T//ccP7NkEl.s 			page 20


 734:cmsis/device/system_stm32f10x.c ****     /* PREDIV1 configuration: PREDIV1CLK = PLL2 / 10 = 4 MHz */
 735:cmsis/device/system_stm32f10x.c ****         
 736:cmsis/device/system_stm32f10x.c ****     RCC->CFGR2 &= (uint32_t)~(RCC_CFGR2_PREDIV2 | RCC_CFGR2_PLL2MUL |
 737:cmsis/device/system_stm32f10x.c ****                               RCC_CFGR2_PREDIV1 | RCC_CFGR2_PREDIV1SRC);
 738:cmsis/device/system_stm32f10x.c ****     RCC->CFGR2 |= (uint32_t)(RCC_CFGR2_PREDIV2_DIV5 | RCC_CFGR2_PLL2MUL8 |
 739:cmsis/device/system_stm32f10x.c ****                              RCC_CFGR2_PREDIV1SRC_PLL2 | RCC_CFGR2_PREDIV1_DIV10);
 740:cmsis/device/system_stm32f10x.c ****   
 741:cmsis/device/system_stm32f10x.c ****     /* Enable PLL2 */
 742:cmsis/device/system_stm32f10x.c ****     RCC->CR |= RCC_CR_PLL2ON;
 743:cmsis/device/system_stm32f10x.c ****     /* Wait till PLL2 is ready */
 744:cmsis/device/system_stm32f10x.c ****     while((RCC->CR & RCC_CR_PLL2RDY) == 0)
 745:cmsis/device/system_stm32f10x.c ****     {
 746:cmsis/device/system_stm32f10x.c ****     }
 747:cmsis/device/system_stm32f10x.c ****     
 748:cmsis/device/system_stm32f10x.c **** #else    
 749:cmsis/device/system_stm32f10x.c ****     /*  PLL configuration: PLLCLK = (HSE / 2) * 9 = 36 MHz */
 750:cmsis/device/system_stm32f10x.c ****     RCC->CFGR &= (uint32_t)((uint32_t)~(RCC_CFGR_PLLSRC | RCC_CFGR_PLLXTPRE | RCC_CFGR_PLLMULL));
 751:cmsis/device/system_stm32f10x.c ****     RCC->CFGR |= (uint32_t)(RCC_CFGR_PLLSRC_HSE | RCC_CFGR_PLLXTPRE_HSE_Div2 | RCC_CFGR_PLLMULL9);
 752:cmsis/device/system_stm32f10x.c **** #endif /* STM32F10X_CL */
 753:cmsis/device/system_stm32f10x.c **** 
 754:cmsis/device/system_stm32f10x.c ****     /* Enable PLL */
 755:cmsis/device/system_stm32f10x.c ****     RCC->CR |= RCC_CR_PLLON;
 756:cmsis/device/system_stm32f10x.c **** 
 757:cmsis/device/system_stm32f10x.c ****     /* Wait till PLL is ready */
 758:cmsis/device/system_stm32f10x.c ****     while((RCC->CR & RCC_CR_PLLRDY) == 0)
 759:cmsis/device/system_stm32f10x.c ****     {
 760:cmsis/device/system_stm32f10x.c ****     }
 761:cmsis/device/system_stm32f10x.c **** 
 762:cmsis/device/system_stm32f10x.c ****     /* Select PLL as system clock source */
 763:cmsis/device/system_stm32f10x.c ****     RCC->CFGR &= (uint32_t)((uint32_t)~(RCC_CFGR_SW));
 764:cmsis/device/system_stm32f10x.c ****     RCC->CFGR |= (uint32_t)RCC_CFGR_SW_PLL;    
 765:cmsis/device/system_stm32f10x.c **** 
 766:cmsis/device/system_stm32f10x.c ****     /* Wait till PLL is used as system clock source */
 767:cmsis/device/system_stm32f10x.c ****     while ((RCC->CFGR & (uint32_t)RCC_CFGR_SWS) != (uint32_t)0x08)
 768:cmsis/device/system_stm32f10x.c ****     {
 769:cmsis/device/system_stm32f10x.c ****     }
 770:cmsis/device/system_stm32f10x.c ****   }
 771:cmsis/device/system_stm32f10x.c ****   else
 772:cmsis/device/system_stm32f10x.c ****   { /* If HSE fails to start-up, the application will have wrong clock 
 773:cmsis/device/system_stm32f10x.c ****          configuration. User can add here some code to deal with this error */
 774:cmsis/device/system_stm32f10x.c ****   } 
 775:cmsis/device/system_stm32f10x.c **** }
 776:cmsis/device/system_stm32f10x.c **** #elif defined SYSCLK_FREQ_48MHz
 777:cmsis/device/system_stm32f10x.c **** /**
 778:cmsis/device/system_stm32f10x.c ****   * @brief  Sets System clock frequency to 48MHz and configure HCLK, PCLK2 
 779:cmsis/device/system_stm32f10x.c ****   *         and PCLK1 prescalers. 
 780:cmsis/device/system_stm32f10x.c ****   * @note   This function should be used only after reset.
 781:cmsis/device/system_stm32f10x.c ****   * @param  None
 782:cmsis/device/system_stm32f10x.c ****   * @retval None
 783:cmsis/device/system_stm32f10x.c ****   */
 784:cmsis/device/system_stm32f10x.c **** static void SetSysClockTo48(void)
 785:cmsis/device/system_stm32f10x.c **** {
 786:cmsis/device/system_stm32f10x.c ****   __IO uint32_t StartUpCounter = 0, HSEStatus = 0;
 787:cmsis/device/system_stm32f10x.c ****   
 788:cmsis/device/system_stm32f10x.c ****   /* SYSCLK, HCLK, PCLK2 and PCLK1 configuration ---------------------------*/    
 789:cmsis/device/system_stm32f10x.c ****   /* Enable HSE */    
 790:cmsis/device/system_stm32f10x.c ****   RCC->CR |= ((uint32_t)RCC_CR_HSEON);
ARM GAS  /var/folders/5n/p_75w94d66l9ssrldxqdhh700000gn/T//ccP7NkEl.s 			page 21


 791:cmsis/device/system_stm32f10x.c ****  
 792:cmsis/device/system_stm32f10x.c ****   /* Wait till HSE is ready and if Time out is reached exit */
 793:cmsis/device/system_stm32f10x.c ****   do
 794:cmsis/device/system_stm32f10x.c ****   {
 795:cmsis/device/system_stm32f10x.c ****     HSEStatus = RCC->CR & RCC_CR_HSERDY;
 796:cmsis/device/system_stm32f10x.c ****     StartUpCounter++;  
 797:cmsis/device/system_stm32f10x.c ****   } while((HSEStatus == 0) && (StartUpCounter != HSE_STARTUP_TIMEOUT));
 798:cmsis/device/system_stm32f10x.c **** 
 799:cmsis/device/system_stm32f10x.c ****   if ((RCC->CR & RCC_CR_HSERDY) != RESET)
 800:cmsis/device/system_stm32f10x.c ****   {
 801:cmsis/device/system_stm32f10x.c ****     HSEStatus = (uint32_t)0x01;
 802:cmsis/device/system_stm32f10x.c ****   }
 803:cmsis/device/system_stm32f10x.c ****   else
 804:cmsis/device/system_stm32f10x.c ****   {
 805:cmsis/device/system_stm32f10x.c ****     HSEStatus = (uint32_t)0x00;
 806:cmsis/device/system_stm32f10x.c ****   }  
 807:cmsis/device/system_stm32f10x.c **** 
 808:cmsis/device/system_stm32f10x.c ****   if (HSEStatus == (uint32_t)0x01)
 809:cmsis/device/system_stm32f10x.c ****   {
 810:cmsis/device/system_stm32f10x.c ****     /* Enable Prefetch Buffer */
 811:cmsis/device/system_stm32f10x.c ****     FLASH->ACR |= FLASH_ACR_PRFTBE;
 812:cmsis/device/system_stm32f10x.c **** 
 813:cmsis/device/system_stm32f10x.c ****     /* Flash 1 wait state */
 814:cmsis/device/system_stm32f10x.c ****     FLASH->ACR &= (uint32_t)((uint32_t)~FLASH_ACR_LATENCY);
 815:cmsis/device/system_stm32f10x.c ****     FLASH->ACR |= (uint32_t)FLASH_ACR_LATENCY_1;    
 816:cmsis/device/system_stm32f10x.c ****  
 817:cmsis/device/system_stm32f10x.c ****     /* HCLK = SYSCLK */
 818:cmsis/device/system_stm32f10x.c ****     RCC->CFGR |= (uint32_t)RCC_CFGR_HPRE_DIV1;
 819:cmsis/device/system_stm32f10x.c ****       
 820:cmsis/device/system_stm32f10x.c ****     /* PCLK2 = HCLK */
 821:cmsis/device/system_stm32f10x.c ****     RCC->CFGR |= (uint32_t)RCC_CFGR_PPRE2_DIV1;
 822:cmsis/device/system_stm32f10x.c ****     
 823:cmsis/device/system_stm32f10x.c ****     /* PCLK1 = HCLK */
 824:cmsis/device/system_stm32f10x.c ****     RCC->CFGR |= (uint32_t)RCC_CFGR_PPRE1_DIV2;
 825:cmsis/device/system_stm32f10x.c ****     
 826:cmsis/device/system_stm32f10x.c **** #ifdef STM32F10X_CL
 827:cmsis/device/system_stm32f10x.c ****     /* Configure PLLs ------------------------------------------------------*/
 828:cmsis/device/system_stm32f10x.c ****     /* PLL2 configuration: PLL2CLK = (HSE / 5) * 8 = 40 MHz */
 829:cmsis/device/system_stm32f10x.c ****     /* PREDIV1 configuration: PREDIV1CLK = PLL2 / 5 = 8 MHz */
 830:cmsis/device/system_stm32f10x.c ****         
 831:cmsis/device/system_stm32f10x.c ****     RCC->CFGR2 &= (uint32_t)~(RCC_CFGR2_PREDIV2 | RCC_CFGR2_PLL2MUL |
 832:cmsis/device/system_stm32f10x.c ****                               RCC_CFGR2_PREDIV1 | RCC_CFGR2_PREDIV1SRC);
 833:cmsis/device/system_stm32f10x.c ****     RCC->CFGR2 |= (uint32_t)(RCC_CFGR2_PREDIV2_DIV5 | RCC_CFGR2_PLL2MUL8 |
 834:cmsis/device/system_stm32f10x.c ****                              RCC_CFGR2_PREDIV1SRC_PLL2 | RCC_CFGR2_PREDIV1_DIV5);
 835:cmsis/device/system_stm32f10x.c ****   
 836:cmsis/device/system_stm32f10x.c ****     /* Enable PLL2 */
 837:cmsis/device/system_stm32f10x.c ****     RCC->CR |= RCC_CR_PLL2ON;
 838:cmsis/device/system_stm32f10x.c ****     /* Wait till PLL2 is ready */
 839:cmsis/device/system_stm32f10x.c ****     while((RCC->CR & RCC_CR_PLL2RDY) == 0)
 840:cmsis/device/system_stm32f10x.c ****     {
 841:cmsis/device/system_stm32f10x.c ****     }
 842:cmsis/device/system_stm32f10x.c ****     
 843:cmsis/device/system_stm32f10x.c ****    
 844:cmsis/device/system_stm32f10x.c ****     /* PLL configuration: PLLCLK = PREDIV1 * 6 = 48 MHz */ 
 845:cmsis/device/system_stm32f10x.c ****     RCC->CFGR &= (uint32_t)~(RCC_CFGR_PLLXTPRE | RCC_CFGR_PLLSRC | RCC_CFGR_PLLMULL);
 846:cmsis/device/system_stm32f10x.c ****     RCC->CFGR |= (uint32_t)(RCC_CFGR_PLLXTPRE_PREDIV1 | RCC_CFGR_PLLSRC_PREDIV1 | 
 847:cmsis/device/system_stm32f10x.c ****                             RCC_CFGR_PLLMULL6); 
ARM GAS  /var/folders/5n/p_75w94d66l9ssrldxqdhh700000gn/T//ccP7NkEl.s 			page 22


 848:cmsis/device/system_stm32f10x.c **** #else    
 849:cmsis/device/system_stm32f10x.c ****     /*  PLL configuration: PLLCLK = HSE * 6 = 48 MHz */
 850:cmsis/device/system_stm32f10x.c ****     RCC->CFGR &= (uint32_t)((uint32_t)~(RCC_CFGR_PLLSRC | RCC_CFGR_PLLXTPRE | RCC_CFGR_PLLMULL));
 851:cmsis/device/system_stm32f10x.c ****     RCC->CFGR |= (uint32_t)(RCC_CFGR_PLLSRC_HSE | RCC_CFGR_PLLMULL6);
 852:cmsis/device/system_stm32f10x.c **** #endif /* STM32F10X_CL */
 853:cmsis/device/system_stm32f10x.c **** 
 854:cmsis/device/system_stm32f10x.c ****     /* Enable PLL */
 855:cmsis/device/system_stm32f10x.c ****     RCC->CR |= RCC_CR_PLLON;
 856:cmsis/device/system_stm32f10x.c **** 
 857:cmsis/device/system_stm32f10x.c ****     /* Wait till PLL is ready */
 858:cmsis/device/system_stm32f10x.c ****     while((RCC->CR & RCC_CR_PLLRDY) == 0)
 859:cmsis/device/system_stm32f10x.c ****     {
 860:cmsis/device/system_stm32f10x.c ****     }
 861:cmsis/device/system_stm32f10x.c **** 
 862:cmsis/device/system_stm32f10x.c ****     /* Select PLL as system clock source */
 863:cmsis/device/system_stm32f10x.c ****     RCC->CFGR &= (uint32_t)((uint32_t)~(RCC_CFGR_SW));
 864:cmsis/device/system_stm32f10x.c ****     RCC->CFGR |= (uint32_t)RCC_CFGR_SW_PLL;    
 865:cmsis/device/system_stm32f10x.c **** 
 866:cmsis/device/system_stm32f10x.c ****     /* Wait till PLL is used as system clock source */
 867:cmsis/device/system_stm32f10x.c ****     while ((RCC->CFGR & (uint32_t)RCC_CFGR_SWS) != (uint32_t)0x08)
 868:cmsis/device/system_stm32f10x.c ****     {
 869:cmsis/device/system_stm32f10x.c ****     }
 870:cmsis/device/system_stm32f10x.c ****   }
 871:cmsis/device/system_stm32f10x.c ****   else
 872:cmsis/device/system_stm32f10x.c ****   { /* If HSE fails to start-up, the application will have wrong clock 
 873:cmsis/device/system_stm32f10x.c ****          configuration. User can add here some code to deal with this error */
 874:cmsis/device/system_stm32f10x.c ****   } 
 875:cmsis/device/system_stm32f10x.c **** }
 876:cmsis/device/system_stm32f10x.c **** 
 877:cmsis/device/system_stm32f10x.c **** #elif defined SYSCLK_FREQ_56MHz
 878:cmsis/device/system_stm32f10x.c **** /**
 879:cmsis/device/system_stm32f10x.c ****   * @brief  Sets System clock frequency to 56MHz and configure HCLK, PCLK2 
 880:cmsis/device/system_stm32f10x.c ****   *         and PCLK1 prescalers. 
 881:cmsis/device/system_stm32f10x.c ****   * @note   This function should be used only after reset.
 882:cmsis/device/system_stm32f10x.c ****   * @param  None
 883:cmsis/device/system_stm32f10x.c ****   * @retval None
 884:cmsis/device/system_stm32f10x.c ****   */
 885:cmsis/device/system_stm32f10x.c **** static void SetSysClockTo56(void)
 886:cmsis/device/system_stm32f10x.c **** {
 887:cmsis/device/system_stm32f10x.c ****   __IO uint32_t StartUpCounter = 0, HSEStatus = 0;
 888:cmsis/device/system_stm32f10x.c ****   
 889:cmsis/device/system_stm32f10x.c ****   /* SYSCLK, HCLK, PCLK2 and PCLK1 configuration ---------------------------*/   
 890:cmsis/device/system_stm32f10x.c ****   /* Enable HSE */    
 891:cmsis/device/system_stm32f10x.c ****   RCC->CR |= ((uint32_t)RCC_CR_HSEON);
 892:cmsis/device/system_stm32f10x.c ****  
 893:cmsis/device/system_stm32f10x.c ****   /* Wait till HSE is ready and if Time out is reached exit */
 894:cmsis/device/system_stm32f10x.c ****   do
 895:cmsis/device/system_stm32f10x.c ****   {
 896:cmsis/device/system_stm32f10x.c ****     HSEStatus = RCC->CR & RCC_CR_HSERDY;
 897:cmsis/device/system_stm32f10x.c ****     StartUpCounter++;  
 898:cmsis/device/system_stm32f10x.c ****   } while((HSEStatus == 0) && (StartUpCounter != HSE_STARTUP_TIMEOUT));
 899:cmsis/device/system_stm32f10x.c **** 
 900:cmsis/device/system_stm32f10x.c ****   if ((RCC->CR & RCC_CR_HSERDY) != RESET)
 901:cmsis/device/system_stm32f10x.c ****   {
 902:cmsis/device/system_stm32f10x.c ****     HSEStatus = (uint32_t)0x01;
 903:cmsis/device/system_stm32f10x.c ****   }
 904:cmsis/device/system_stm32f10x.c ****   else
ARM GAS  /var/folders/5n/p_75w94d66l9ssrldxqdhh700000gn/T//ccP7NkEl.s 			page 23


 905:cmsis/device/system_stm32f10x.c ****   {
 906:cmsis/device/system_stm32f10x.c ****     HSEStatus = (uint32_t)0x00;
 907:cmsis/device/system_stm32f10x.c ****   }  
 908:cmsis/device/system_stm32f10x.c **** 
 909:cmsis/device/system_stm32f10x.c ****   if (HSEStatus == (uint32_t)0x01)
 910:cmsis/device/system_stm32f10x.c ****   {
 911:cmsis/device/system_stm32f10x.c ****     /* Enable Prefetch Buffer */
 912:cmsis/device/system_stm32f10x.c ****     FLASH->ACR |= FLASH_ACR_PRFTBE;
 913:cmsis/device/system_stm32f10x.c **** 
 914:cmsis/device/system_stm32f10x.c ****     /* Flash 2 wait state */
 915:cmsis/device/system_stm32f10x.c ****     FLASH->ACR &= (uint32_t)((uint32_t)~FLASH_ACR_LATENCY);
 916:cmsis/device/system_stm32f10x.c ****     FLASH->ACR |= (uint32_t)FLASH_ACR_LATENCY_2;    
 917:cmsis/device/system_stm32f10x.c ****  
 918:cmsis/device/system_stm32f10x.c ****     /* HCLK = SYSCLK */
 919:cmsis/device/system_stm32f10x.c ****     RCC->CFGR |= (uint32_t)RCC_CFGR_HPRE_DIV1;
 920:cmsis/device/system_stm32f10x.c ****       
 921:cmsis/device/system_stm32f10x.c ****     /* PCLK2 = HCLK */
 922:cmsis/device/system_stm32f10x.c ****     RCC->CFGR |= (uint32_t)RCC_CFGR_PPRE2_DIV1;
 923:cmsis/device/system_stm32f10x.c ****     
 924:cmsis/device/system_stm32f10x.c ****     /* PCLK1 = HCLK */
 925:cmsis/device/system_stm32f10x.c ****     RCC->CFGR |= (uint32_t)RCC_CFGR_PPRE1_DIV2;
 926:cmsis/device/system_stm32f10x.c **** 
 927:cmsis/device/system_stm32f10x.c **** #ifdef STM32F10X_CL
 928:cmsis/device/system_stm32f10x.c ****     /* Configure PLLs ------------------------------------------------------*/
 929:cmsis/device/system_stm32f10x.c ****     /* PLL2 configuration: PLL2CLK = (HSE / 5) * 8 = 40 MHz */
 930:cmsis/device/system_stm32f10x.c ****     /* PREDIV1 configuration: PREDIV1CLK = PLL2 / 5 = 8 MHz */
 931:cmsis/device/system_stm32f10x.c ****         
 932:cmsis/device/system_stm32f10x.c ****     RCC->CFGR2 &= (uint32_t)~(RCC_CFGR2_PREDIV2 | RCC_CFGR2_PLL2MUL |
 933:cmsis/device/system_stm32f10x.c ****                               RCC_CFGR2_PREDIV1 | RCC_CFGR2_PREDIV1SRC);
 934:cmsis/device/system_stm32f10x.c ****     RCC->CFGR2 |= (uint32_t)(RCC_CFGR2_PREDIV2_DIV5 | RCC_CFGR2_PLL2MUL8 |
 935:cmsis/device/system_stm32f10x.c ****                              RCC_CFGR2_PREDIV1SRC_PLL2 | RCC_CFGR2_PREDIV1_DIV5);
 936:cmsis/device/system_stm32f10x.c ****   
 937:cmsis/device/system_stm32f10x.c ****     /* Enable PLL2 */
 938:cmsis/device/system_stm32f10x.c ****     RCC->CR |= RCC_CR_PLL2ON;
 939:cmsis/device/system_stm32f10x.c ****     /* Wait till PLL2 is ready */
 940:cmsis/device/system_stm32f10x.c ****     while((RCC->CR & RCC_CR_PLL2RDY) == 0)
 941:cmsis/device/system_stm32f10x.c ****     {
 942:cmsis/device/system_stm32f10x.c ****     }
 943:cmsis/device/system_stm32f10x.c ****     
 944:cmsis/device/system_stm32f10x.c ****    
 945:cmsis/device/system_stm32f10x.c ****     /* PLL configuration: PLLCLK = PREDIV1 * 7 = 56 MHz */ 
 946:cmsis/device/system_stm32f10x.c ****     RCC->CFGR &= (uint32_t)~(RCC_CFGR_PLLXTPRE | RCC_CFGR_PLLSRC | RCC_CFGR_PLLMULL);
 947:cmsis/device/system_stm32f10x.c ****     RCC->CFGR |= (uint32_t)(RCC_CFGR_PLLXTPRE_PREDIV1 | RCC_CFGR_PLLSRC_PREDIV1 | 
 948:cmsis/device/system_stm32f10x.c ****                             RCC_CFGR_PLLMULL7); 
 949:cmsis/device/system_stm32f10x.c **** #else     
 950:cmsis/device/system_stm32f10x.c ****     /* PLL configuration: PLLCLK = HSE * 7 = 56 MHz */
 951:cmsis/device/system_stm32f10x.c ****     RCC->CFGR &= (uint32_t)((uint32_t)~(RCC_CFGR_PLLSRC | RCC_CFGR_PLLXTPRE | RCC_CFGR_PLLMULL));
 952:cmsis/device/system_stm32f10x.c ****     RCC->CFGR |= (uint32_t)(RCC_CFGR_PLLSRC_HSE | RCC_CFGR_PLLMULL7);
 953:cmsis/device/system_stm32f10x.c **** 
 954:cmsis/device/system_stm32f10x.c **** #endif /* STM32F10X_CL */
 955:cmsis/device/system_stm32f10x.c **** 
 956:cmsis/device/system_stm32f10x.c ****     /* Enable PLL */
 957:cmsis/device/system_stm32f10x.c ****     RCC->CR |= RCC_CR_PLLON;
 958:cmsis/device/system_stm32f10x.c **** 
 959:cmsis/device/system_stm32f10x.c ****     /* Wait till PLL is ready */
 960:cmsis/device/system_stm32f10x.c ****     while((RCC->CR & RCC_CR_PLLRDY) == 0)
 961:cmsis/device/system_stm32f10x.c ****     {
ARM GAS  /var/folders/5n/p_75w94d66l9ssrldxqdhh700000gn/T//ccP7NkEl.s 			page 24


 962:cmsis/device/system_stm32f10x.c ****     }
 963:cmsis/device/system_stm32f10x.c **** 
 964:cmsis/device/system_stm32f10x.c ****     /* Select PLL as system clock source */
 965:cmsis/device/system_stm32f10x.c ****     RCC->CFGR &= (uint32_t)((uint32_t)~(RCC_CFGR_SW));
 966:cmsis/device/system_stm32f10x.c ****     RCC->CFGR |= (uint32_t)RCC_CFGR_SW_PLL;    
 967:cmsis/device/system_stm32f10x.c **** 
 968:cmsis/device/system_stm32f10x.c ****     /* Wait till PLL is used as system clock source */
 969:cmsis/device/system_stm32f10x.c ****     while ((RCC->CFGR & (uint32_t)RCC_CFGR_SWS) != (uint32_t)0x08)
 970:cmsis/device/system_stm32f10x.c ****     {
 971:cmsis/device/system_stm32f10x.c ****     }
 972:cmsis/device/system_stm32f10x.c ****   }
 973:cmsis/device/system_stm32f10x.c ****   else
 974:cmsis/device/system_stm32f10x.c ****   { /* If HSE fails to start-up, the application will have wrong clock 
 975:cmsis/device/system_stm32f10x.c ****          configuration. User can add here some code to deal with this error */
 976:cmsis/device/system_stm32f10x.c ****   } 
 977:cmsis/device/system_stm32f10x.c **** }
 978:cmsis/device/system_stm32f10x.c **** 
 979:cmsis/device/system_stm32f10x.c **** #elif defined SYSCLK_FREQ_72MHz
 980:cmsis/device/system_stm32f10x.c **** /**
 981:cmsis/device/system_stm32f10x.c ****   * @brief  Sets System clock frequency to 72MHz and configure HCLK, PCLK2 
 982:cmsis/device/system_stm32f10x.c ****   *         and PCLK1 prescalers. 
 983:cmsis/device/system_stm32f10x.c ****   * @note   This function should be used only after reset.
 984:cmsis/device/system_stm32f10x.c ****   * @param  None
 985:cmsis/device/system_stm32f10x.c ****   * @retval None
 986:cmsis/device/system_stm32f10x.c ****   */
 987:cmsis/device/system_stm32f10x.c **** static void SetSysClockTo72(void)
 988:cmsis/device/system_stm32f10x.c **** {
 348              		.loc 1 988 0
 349              		.cfi_startproc
 350              		@ args = 0, pretend = 0, frame = 8
 351              		@ frame_needed = 1, uses_anonymous_args = 0
 352              		@ link register save eliminated.
 353 01fc 80B4     		push	{r7}	@
 354              	.LCFI7:
 355              		.cfi_def_cfa_offset 4
 356              		.cfi_offset 7, -4
 357 01fe 83B0     		sub	sp, sp, #12	@,,
 358              	.LCFI8:
 359              		.cfi_def_cfa_offset 16
 360 0200 00AF     		add	r7, sp, #0	@,,
 361              	.LCFI9:
 362              		.cfi_def_cfa_register 7
 989:cmsis/device/system_stm32f10x.c ****   __IO uint32_t StartUpCounter = 0, HSEStatus = 0;
 363              		.loc 1 989 0
 364 0202 4FF00003 		mov	r3, #0	@ tmp197,
 365 0206 7B60     		str	r3, [r7, #4]	@ tmp197, StartUpCounter
 366 0208 4FF00003 		mov	r3, #0	@ tmp198,
 367 020c 3B60     		str	r3, [r7, #0]	@ tmp198, HSEStatus
 990:cmsis/device/system_stm32f10x.c ****   
 991:cmsis/device/system_stm32f10x.c ****   /* SYSCLK, HCLK, PCLK2 and PCLK1 configuration ---------------------------*/    
 992:cmsis/device/system_stm32f10x.c ****   /* Enable HSE */    
 993:cmsis/device/system_stm32f10x.c ****   RCC->CR |= ((uint32_t)RCC_CR_HSEON);
 368              		.loc 1 993 0
 369 020e 4FF48053 		mov	r3, #4096	@ D.5041,
 370 0212 C4F20203 		movt	r3, 16386	@ D.5041,
 371 0216 4FF48052 		mov	r2, #4096	@ D.5042,
 372 021a C4F20202 		movt	r2, 16386	@ D.5042,
ARM GAS  /var/folders/5n/p_75w94d66l9ssrldxqdhh700000gn/T//ccP7NkEl.s 			page 25


 373 021e 1268     		ldr	r2, [r2, #0]	@ D.5043, D.5042_2->CR
 374 0220 42F48032 		orr	r2, r2, #65536	@ D.5044, D.5043,
 375 0224 1A60     		str	r2, [r3, #0]	@ D.5044, D.5041_1->CR
 376              	.L15:
 994:cmsis/device/system_stm32f10x.c ****  
 995:cmsis/device/system_stm32f10x.c ****   /* Wait till HSE is ready and if Time out is reached exit */
 996:cmsis/device/system_stm32f10x.c ****   do
 997:cmsis/device/system_stm32f10x.c ****   {
 998:cmsis/device/system_stm32f10x.c ****     HSEStatus = RCC->CR & RCC_CR_HSERDY;
 377              		.loc 1 998 0 discriminator 1
 378 0226 4FF48053 		mov	r3, #4096	@ D.5045,
 379 022a C4F20203 		movt	r3, 16386	@ D.5045,
 380 022e 1B68     		ldr	r3, [r3, #0]	@ D.5046, D.5045_5->CR
 381 0230 03F40033 		and	r3, r3, #131072	@ HSEStatus.0, D.5046,
 382 0234 3B60     		str	r3, [r7, #0]	@ HSEStatus.0, HSEStatus
 999:cmsis/device/system_stm32f10x.c ****     StartUpCounter++;  
 383              		.loc 1 999 0 discriminator 1
 384 0236 7B68     		ldr	r3, [r7, #4]	@ StartUpCounter.1, StartUpCounter
 385 0238 03F10103 		add	r3, r3, #1	@ StartUpCounter.2, StartUpCounter.1,
 386 023c 7B60     		str	r3, [r7, #4]	@ StartUpCounter.2, StartUpCounter
1000:cmsis/device/system_stm32f10x.c ****   } while((HSEStatus == 0) && (StartUpCounter != HSE_STARTUP_TIMEOUT));
 387              		.loc 1 1000 0 discriminator 1
 388 023e 3B68     		ldr	r3, [r7, #0]	@ HSEStatus.3, HSEStatus
 389 0240 002B     		cmp	r3, #0	@ HSEStatus.3,
 390 0242 03D1     		bne	.L14	@,
 391 0244 7B68     		ldr	r3, [r7, #4]	@ StartUpCounter.4, StartUpCounter
 392 0246 B3F5A06F 		cmp	r3, #1280	@ StartUpCounter.4,
 393 024a ECD1     		bne	.L15	@,
 394              	.L14:
1001:cmsis/device/system_stm32f10x.c **** 
1002:cmsis/device/system_stm32f10x.c ****   if ((RCC->CR & RCC_CR_HSERDY) != RESET)
 395              		.loc 1 1002 0
 396 024c 4FF48053 		mov	r3, #4096	@ D.5053,
 397 0250 C4F20203 		movt	r3, 16386	@ D.5053,
 398 0254 1B68     		ldr	r3, [r3, #0]	@ D.5054, D.5053_12->CR
 399 0256 03F40033 		and	r3, r3, #131072	@ D.5055, D.5054,
 400 025a 002B     		cmp	r3, #0	@ D.5055,
 401 025c 03D0     		beq	.L16	@,
1003:cmsis/device/system_stm32f10x.c ****   {
1004:cmsis/device/system_stm32f10x.c ****     HSEStatus = (uint32_t)0x01;
 402              		.loc 1 1004 0
 403 025e 4FF00103 		mov	r3, #1	@ tmp199,
 404 0262 3B60     		str	r3, [r7, #0]	@ tmp199, HSEStatus
 405 0264 02E0     		b	.L17	@
 406              	.L16:
1005:cmsis/device/system_stm32f10x.c ****   }
1006:cmsis/device/system_stm32f10x.c ****   else
1007:cmsis/device/system_stm32f10x.c ****   {
1008:cmsis/device/system_stm32f10x.c ****     HSEStatus = (uint32_t)0x00;
 407              		.loc 1 1008 0
 408 0266 4FF00003 		mov	r3, #0	@ tmp200,
 409 026a 3B60     		str	r3, [r7, #0]	@ tmp200, HSEStatus
 410              	.L17:
1009:cmsis/device/system_stm32f10x.c ****   }  
1010:cmsis/device/system_stm32f10x.c **** 
1011:cmsis/device/system_stm32f10x.c ****   if (HSEStatus == (uint32_t)0x01)
 411              		.loc 1 1011 0
ARM GAS  /var/folders/5n/p_75w94d66l9ssrldxqdhh700000gn/T//ccP7NkEl.s 			page 26


 412 026c 3B68     		ldr	r3, [r7, #0]	@ HSEStatus.5, HSEStatus
 413 026e 012B     		cmp	r3, #1	@ HSEStatus.5,
 414 0270 40F09480 		bne	.L13	@,
1012:cmsis/device/system_stm32f10x.c ****   {
1013:cmsis/device/system_stm32f10x.c ****     /* Enable Prefetch Buffer */
1014:cmsis/device/system_stm32f10x.c ****     FLASH->ACR |= FLASH_ACR_PRFTBE;
 415              		.loc 1 1014 0
 416 0274 4FF40053 		mov	r3, #8192	@ D.5062,
 417 0278 C4F20203 		movt	r3, 16386	@ D.5062,
 418 027c 4FF40052 		mov	r2, #8192	@ D.5063,
 419 0280 C4F20202 		movt	r2, 16386	@ D.5063,
 420 0284 1268     		ldr	r2, [r2, #0]	@ D.5064, D.5063_17->ACR
 421 0286 42F01002 		orr	r2, r2, #16	@ D.5065, D.5064,
 422 028a 1A60     		str	r2, [r3, #0]	@ D.5065, D.5062_16->ACR
1015:cmsis/device/system_stm32f10x.c **** 
1016:cmsis/device/system_stm32f10x.c ****     /* Flash 2 wait state */
1017:cmsis/device/system_stm32f10x.c ****     FLASH->ACR &= (uint32_t)((uint32_t)~FLASH_ACR_LATENCY);
 423              		.loc 1 1017 0
 424 028c 4FF40053 		mov	r3, #8192	@ D.5066,
 425 0290 C4F20203 		movt	r3, 16386	@ D.5066,
 426 0294 4FF40052 		mov	r2, #8192	@ D.5067,
 427 0298 C4F20202 		movt	r2, 16386	@ D.5067,
 428 029c 1268     		ldr	r2, [r2, #0]	@ D.5068, D.5067_21->ACR
 429 029e 22F00302 		bic	r2, r2, #3	@ D.5069, D.5068,
 430 02a2 1A60     		str	r2, [r3, #0]	@ D.5069, D.5066_20->ACR
1018:cmsis/device/system_stm32f10x.c ****     FLASH->ACR |= (uint32_t)FLASH_ACR_LATENCY_2;    
 431              		.loc 1 1018 0
 432 02a4 4FF40053 		mov	r3, #8192	@ D.5070,
 433 02a8 C4F20203 		movt	r3, 16386	@ D.5070,
 434 02ac 4FF40052 		mov	r2, #8192	@ D.5071,
 435 02b0 C4F20202 		movt	r2, 16386	@ D.5071,
 436 02b4 1268     		ldr	r2, [r2, #0]	@ D.5072, D.5071_25->ACR
 437 02b6 42F00202 		orr	r2, r2, #2	@ D.5073, D.5072,
 438 02ba 1A60     		str	r2, [r3, #0]	@ D.5073, D.5070_24->ACR
1019:cmsis/device/system_stm32f10x.c **** 
1020:cmsis/device/system_stm32f10x.c ****  
1021:cmsis/device/system_stm32f10x.c ****     /* HCLK = SYSCLK */
1022:cmsis/device/system_stm32f10x.c ****     RCC->CFGR |= (uint32_t)RCC_CFGR_HPRE_DIV1;
 439              		.loc 1 1022 0
 440 02bc 4FF48053 		mov	r3, #4096	@ D.5074,
 441 02c0 C4F20203 		movt	r3, 16386	@ D.5074,
 442 02c4 4FF48052 		mov	r2, #4096	@ D.5075,
 443 02c8 C4F20202 		movt	r2, 16386	@ D.5075,
 444 02cc 5268     		ldr	r2, [r2, #4]	@ D.5076, D.5075_29->CFGR
 445 02ce 5A60     		str	r2, [r3, #4]	@ D.5076, D.5074_28->CFGR
1023:cmsis/device/system_stm32f10x.c ****       
1024:cmsis/device/system_stm32f10x.c ****     /* PCLK2 = HCLK */
1025:cmsis/device/system_stm32f10x.c ****     RCC->CFGR |= (uint32_t)RCC_CFGR_PPRE2_DIV1;
 446              		.loc 1 1025 0
 447 02d0 4FF48053 		mov	r3, #4096	@ D.5077,
 448 02d4 C4F20203 		movt	r3, 16386	@ D.5077,
 449 02d8 4FF48052 		mov	r2, #4096	@ D.5078,
 450 02dc C4F20202 		movt	r2, 16386	@ D.5078,
 451 02e0 5268     		ldr	r2, [r2, #4]	@ D.5079, D.5078_32->CFGR
 452 02e2 5A60     		str	r2, [r3, #4]	@ D.5079, D.5077_31->CFGR
1026:cmsis/device/system_stm32f10x.c ****     
1027:cmsis/device/system_stm32f10x.c ****     /* PCLK1 = HCLK */
ARM GAS  /var/folders/5n/p_75w94d66l9ssrldxqdhh700000gn/T//ccP7NkEl.s 			page 27


1028:cmsis/device/system_stm32f10x.c ****     RCC->CFGR |= (uint32_t)RCC_CFGR_PPRE1_DIV2;
 453              		.loc 1 1028 0
 454 02e4 4FF48053 		mov	r3, #4096	@ D.5080,
 455 02e8 C4F20203 		movt	r3, 16386	@ D.5080,
 456 02ec 4FF48052 		mov	r2, #4096	@ D.5081,
 457 02f0 C4F20202 		movt	r2, 16386	@ D.5081,
 458 02f4 5268     		ldr	r2, [r2, #4]	@ D.5082, D.5081_35->CFGR
 459 02f6 42F48062 		orr	r2, r2, #1024	@ D.5083, D.5082,
 460 02fa 5A60     		str	r2, [r3, #4]	@ D.5083, D.5080_34->CFGR
1029:cmsis/device/system_stm32f10x.c **** 
1030:cmsis/device/system_stm32f10x.c **** #ifdef STM32F10X_CL
1031:cmsis/device/system_stm32f10x.c ****     /* Configure PLLs ------------------------------------------------------*/
1032:cmsis/device/system_stm32f10x.c ****     /* PLL2 configuration: PLL2CLK = (HSE / 5) * 8 = 40 MHz */
1033:cmsis/device/system_stm32f10x.c ****     /* PREDIV1 configuration: PREDIV1CLK = PLL2 / 5 = 8 MHz */
1034:cmsis/device/system_stm32f10x.c ****         
1035:cmsis/device/system_stm32f10x.c ****     RCC->CFGR2 &= (uint32_t)~(RCC_CFGR2_PREDIV2 | RCC_CFGR2_PLL2MUL |
1036:cmsis/device/system_stm32f10x.c ****                               RCC_CFGR2_PREDIV1 | RCC_CFGR2_PREDIV1SRC);
1037:cmsis/device/system_stm32f10x.c ****     RCC->CFGR2 |= (uint32_t)(RCC_CFGR2_PREDIV2_DIV5 | RCC_CFGR2_PLL2MUL8 |
1038:cmsis/device/system_stm32f10x.c ****                              RCC_CFGR2_PREDIV1SRC_PLL2 | RCC_CFGR2_PREDIV1_DIV5);
1039:cmsis/device/system_stm32f10x.c ****   
1040:cmsis/device/system_stm32f10x.c ****     /* Enable PLL2 */
1041:cmsis/device/system_stm32f10x.c ****     RCC->CR |= RCC_CR_PLL2ON;
1042:cmsis/device/system_stm32f10x.c ****     /* Wait till PLL2 is ready */
1043:cmsis/device/system_stm32f10x.c ****     while((RCC->CR & RCC_CR_PLL2RDY) == 0)
1044:cmsis/device/system_stm32f10x.c ****     {
1045:cmsis/device/system_stm32f10x.c ****     }
1046:cmsis/device/system_stm32f10x.c ****     
1047:cmsis/device/system_stm32f10x.c ****    
1048:cmsis/device/system_stm32f10x.c ****     /* PLL configuration: PLLCLK = PREDIV1 * 9 = 72 MHz */ 
1049:cmsis/device/system_stm32f10x.c ****     RCC->CFGR &= (uint32_t)~(RCC_CFGR_PLLXTPRE | RCC_CFGR_PLLSRC | RCC_CFGR_PLLMULL);
1050:cmsis/device/system_stm32f10x.c ****     RCC->CFGR |= (uint32_t)(RCC_CFGR_PLLXTPRE_PREDIV1 | RCC_CFGR_PLLSRC_PREDIV1 | 
1051:cmsis/device/system_stm32f10x.c ****                             RCC_CFGR_PLLMULL9); 
1052:cmsis/device/system_stm32f10x.c **** #else    
1053:cmsis/device/system_stm32f10x.c ****     /*  PLL configuration: PLLCLK = HSE * 9 = 72 MHz */
1054:cmsis/device/system_stm32f10x.c ****     RCC->CFGR &= (uint32_t)((uint32_t)~(RCC_CFGR_PLLSRC | RCC_CFGR_PLLXTPRE |
 461              		.loc 1 1054 0
 462 02fc 4FF48053 		mov	r3, #4096	@ D.5084,
 463 0300 C4F20203 		movt	r3, 16386	@ D.5084,
 464 0304 4FF48052 		mov	r2, #4096	@ D.5085,
 465 0308 C4F20202 		movt	r2, 16386	@ D.5085,
 466 030c 5268     		ldr	r2, [r2, #4]	@ D.5086, D.5085_39->CFGR
 467 030e 22F47C12 		bic	r2, r2, #4128768	@ D.5087, D.5086,
 468 0312 5A60     		str	r2, [r3, #4]	@ D.5087, D.5084_38->CFGR
1055:cmsis/device/system_stm32f10x.c ****                                         RCC_CFGR_PLLMULL));
1056:cmsis/device/system_stm32f10x.c ****     RCC->CFGR |= (uint32_t)(RCC_CFGR_PLLSRC_HSE | RCC_CFGR_PLLMULL9);
 469              		.loc 1 1056 0
 470 0314 4FF48053 		mov	r3, #4096	@ D.5088,
 471 0318 C4F20203 		movt	r3, 16386	@ D.5088,
 472 031c 4FF48052 		mov	r2, #4096	@ D.5089,
 473 0320 C4F20202 		movt	r2, 16386	@ D.5089,
 474 0324 5268     		ldr	r2, [r2, #4]	@ D.5090, D.5089_43->CFGR
 475 0326 42F4E812 		orr	r2, r2, #1900544	@ D.5091, D.5090,
 476 032a 5A60     		str	r2, [r3, #4]	@ D.5091, D.5088_42->CFGR
1057:cmsis/device/system_stm32f10x.c **** #endif /* STM32F10X_CL */
1058:cmsis/device/system_stm32f10x.c **** 
1059:cmsis/device/system_stm32f10x.c ****     /* Enable PLL */
1060:cmsis/device/system_stm32f10x.c ****     RCC->CR |= RCC_CR_PLLON;
ARM GAS  /var/folders/5n/p_75w94d66l9ssrldxqdhh700000gn/T//ccP7NkEl.s 			page 28


 477              		.loc 1 1060 0
 478 032c 4FF48053 		mov	r3, #4096	@ D.5092,
 479 0330 C4F20203 		movt	r3, 16386	@ D.5092,
 480 0334 4FF48052 		mov	r2, #4096	@ D.5093,
 481 0338 C4F20202 		movt	r2, 16386	@ D.5093,
 482 033c 1268     		ldr	r2, [r2, #0]	@ D.5094, D.5093_47->CR
 483 033e 42F08072 		orr	r2, r2, #16777216	@ D.5095, D.5094,
 484 0342 1A60     		str	r2, [r3, #0]	@ D.5095, D.5092_46->CR
1061:cmsis/device/system_stm32f10x.c **** 
1062:cmsis/device/system_stm32f10x.c ****     /* Wait till PLL is ready */
1063:cmsis/device/system_stm32f10x.c ****     while((RCC->CR & RCC_CR_PLLRDY) == 0)
 485              		.loc 1 1063 0
 486 0344 00BF     		nop
 487              	.L19:
 488              		.loc 1 1063 0 is_stmt 0 discriminator 1
 489 0346 4FF48053 		mov	r3, #4096	@ D.5096,
 490 034a C4F20203 		movt	r3, 16386	@ D.5096,
 491 034e 1B68     		ldr	r3, [r3, #0]	@ D.5097, D.5096_50->CR
 492 0350 03F00073 		and	r3, r3, #33554432	@ D.5098, D.5097,
 493 0354 002B     		cmp	r3, #0	@ D.5098,
 494 0356 F6D0     		beq	.L19	@,
1064:cmsis/device/system_stm32f10x.c ****     {
1065:cmsis/device/system_stm32f10x.c ****     }
1066:cmsis/device/system_stm32f10x.c ****     
1067:cmsis/device/system_stm32f10x.c ****     /* Select PLL as system clock source */
1068:cmsis/device/system_stm32f10x.c ****     RCC->CFGR &= (uint32_t)((uint32_t)~(RCC_CFGR_SW));
 495              		.loc 1 1068 0 is_stmt 1
 496 0358 4FF48053 		mov	r3, #4096	@ D.5099,
 497 035c C4F20203 		movt	r3, 16386	@ D.5099,
 498 0360 4FF48052 		mov	r2, #4096	@ D.5100,
 499 0364 C4F20202 		movt	r2, 16386	@ D.5100,
 500 0368 5268     		ldr	r2, [r2, #4]	@ D.5101, D.5100_54->CFGR
 501 036a 22F00302 		bic	r2, r2, #3	@ D.5102, D.5101,
 502 036e 5A60     		str	r2, [r3, #4]	@ D.5102, D.5099_53->CFGR
1069:cmsis/device/system_stm32f10x.c ****     RCC->CFGR |= (uint32_t)RCC_CFGR_SW_PLL;    
 503              		.loc 1 1069 0
 504 0370 4FF48053 		mov	r3, #4096	@ D.5103,
 505 0374 C4F20203 		movt	r3, 16386	@ D.5103,
 506 0378 4FF48052 		mov	r2, #4096	@ D.5104,
 507 037c C4F20202 		movt	r2, 16386	@ D.5104,
 508 0380 5268     		ldr	r2, [r2, #4]	@ D.5105, D.5104_58->CFGR
 509 0382 42F00202 		orr	r2, r2, #2	@ D.5106, D.5105,
 510 0386 5A60     		str	r2, [r3, #4]	@ D.5106, D.5103_57->CFGR
1070:cmsis/device/system_stm32f10x.c **** 
1071:cmsis/device/system_stm32f10x.c ****     /* Wait till PLL is used as system clock source */
1072:cmsis/device/system_stm32f10x.c ****     while ((RCC->CFGR & (uint32_t)RCC_CFGR_SWS) != (uint32_t)0x08)
 511              		.loc 1 1072 0
 512 0388 00BF     		nop
 513              	.L20:
 514              		.loc 1 1072 0 is_stmt 0 discriminator 1
 515 038a 4FF48053 		mov	r3, #4096	@ D.5107,
 516 038e C4F20203 		movt	r3, 16386	@ D.5107,
 517 0392 5B68     		ldr	r3, [r3, #4]	@ D.5108, D.5107_61->CFGR
 518 0394 03F00C03 		and	r3, r3, #12	@ D.5109, D.5108,
 519 0398 082B     		cmp	r3, #8	@ D.5109,
 520 039a F6D1     		bne	.L20	@,
 521              	.L13:
ARM GAS  /var/folders/5n/p_75w94d66l9ssrldxqdhh700000gn/T//ccP7NkEl.s 			page 29


1073:cmsis/device/system_stm32f10x.c ****     {
1074:cmsis/device/system_stm32f10x.c ****     }
1075:cmsis/device/system_stm32f10x.c ****   }
1076:cmsis/device/system_stm32f10x.c ****   else
1077:cmsis/device/system_stm32f10x.c ****   { /* If HSE fails to start-up, the application will have wrong clock 
1078:cmsis/device/system_stm32f10x.c ****          configuration. User can add here some code to deal with this error */
1079:cmsis/device/system_stm32f10x.c ****   }
1080:cmsis/device/system_stm32f10x.c **** }
 522              		.loc 1 1080 0 is_stmt 1
 523 039c 07F10C07 		add	r7, r7, #12	@,,
 524 03a0 BD46     		mov	sp, r7
 525 03a2 80BC     		pop	{r7}
 526 03a4 7047     		bx	lr
 527              		.cfi_endproc
 528              	.LFE58:
 529              		.size	SetSysClockTo72, .-SetSysClockTo72
 530              	.Letext0:
 531              		.file 2 "/usr/local/cross/lib/gcc/arm-none-eabi/4.7.1/../../../../arm-none-eabi/include/stdint.h"
 532              		.file 3 "./cmsis/core/core_cm3.h"
 533              		.file 4 "cmsis/device/stm32f10x.h"