ARM GAS  /var/folders/5n/p_75w94d66l9ssrldxqdhh700000gn/T//ccmhGqes.s 			page 1


   1              		.syntax unified
   2              		.cpu cortex-m4
   3              		.fpu softvfp
   4              		.eabi_attribute 20, 1
   5              		.eabi_attribute 21, 1
   6              		.eabi_attribute 23, 3
   7              		.eabi_attribute 24, 1
   8              		.eabi_attribute 25, 1
   9              		.eabi_attribute 26, 1
  10              		.eabi_attribute 30, 2
  11              		.eabi_attribute 18, 4
  12              		.thumb
  13              		.file	"api_msg.c"
  14              		.text
  15              	.Ltext0:
  16              		.cfi_sections	.debug_frame
  17              		.section	.text.setup_tcp,"ax",%progbits
  18              		.align	2
  19              		.p2align 4,,15
  20              		.thumb
  21              		.thumb_func
  22              		.type	setup_tcp, %function
  23              	setup_tcp:
  24              	.LFB13:
  25              		.file 1 "../../ext/lwip/src/api/api_msg.c"
  26              		.loc 1 414 0
  27              		.cfi_startproc
  28              		@ args = 0, pretend = 0, frame = 0
  29              		@ frame_needed = 0, uses_anonymous_args = 0
  30              	.LVL0:
  31 0000 10B5     		push	{r4, lr}
  32              	.LCFI0:
  33              		.cfi_def_cfa_offset 8
  34              		.cfi_offset 14, -4
  35              		.cfi_offset 4, -8
  36              		.loc 1 417 0
  37 0002 4468     		ldr	r4, [r0, #4]
  38              	.LVL1:
  39              		.loc 1 418 0
  40 0004 0146     		mov	r1, r0
  41 0006 2046     		mov	r0, r4
  42              	.LVL2:
  43 0008 FFF7FEFF 		bl	tcp_arg
  44              	.LVL3:
  45              		.loc 1 419 0
  46 000c 40F20001 		movw	r1, #:lower16:recv_tcp
  47 0010 2046     		mov	r0, r4
  48 0012 C0F20001 		movt	r1, #:upper16:recv_tcp
  49 0016 FFF7FEFF 		bl	tcp_recv
  50              		.loc 1 420 0
  51 001a 40F20001 		movw	r1, #:lower16:sent_tcp
  52 001e 2046     		mov	r0, r4
  53 0020 C0F20001 		movt	r1, #:upper16:sent_tcp
  54 0024 FFF7FEFF 		bl	tcp_sent
  55              		.loc 1 421 0
  56 0028 40F20001 		movw	r1, #:lower16:poll_tcp
  57 002c 2046     		mov	r0, r4
ARM GAS  /var/folders/5n/p_75w94d66l9ssrldxqdhh700000gn/T//ccmhGqes.s 			page 2


  58 002e C0F20001 		movt	r1, #:upper16:poll_tcp
  59 0032 0422     		movs	r2, #4
  60 0034 FFF7FEFF 		bl	tcp_poll
  61              		.loc 1 422 0
  62 0038 40F20001 		movw	r1, #:lower16:err_tcp
  63 003c 2046     		mov	r0, r4
  64 003e C0F20001 		movt	r1, #:upper16:err_tcp
  65              		.loc 1 423 0
  66 0042 BDE81040 		pop	{r4, lr}
  67              		.loc 1 422 0
  68 0046 FFF7FEBF 		b	tcp_err
  69              		.cfi_endproc
  70              	.LFE13:
  71              		.size	setup_tcp, .-setup_tcp
  72 004a 00BFAFF3 		.section	.text.do_connected,"ax",%progbits
  72      0080
  73              		.align	2
  74              		.p2align 4,,15
  75              		.thumb
  76              		.thumb_func
  77              		.type	do_connected, %function
  78              	do_connected:
  79              	.LFB23:
  80              		.loc 1 926 0
  81              		.cfi_startproc
  82              		@ args = 0, pretend = 0, frame = 0
  83              		@ frame_needed = 0, uses_anonymous_args = 0
  84              	.LVL4:
  85 0000 38B5     		push	{r3, r4, r5, lr}
  86              	.LCFI1:
  87              		.cfi_def_cfa_offset 16
  88              		.cfi_offset 14, -4
  89              		.cfi_offset 5, -8
  90              		.cfi_offset 4, -12
  91              		.cfi_offset 3, -16
  92              		.loc 1 934 0
  93 0002 0446     		mov	r4, r0
  94              		.loc 1 926 0
  95 0004 1546     		mov	r5, r2
  96              		.loc 1 934 0
  97 0006 0028     		cmp	r0, #0
  98 0008 3BD0     		beq	.L10
  99              	.LVL5:
 100              		.loc 1 938 0
 101 000a 4378     		ldrb	r3, [r0, #1]	@ zero_extendqisi2
 102 000c 032B     		cmp	r3, #3
 103 000e 01D0     		beq	.L4
 104              		.loc 1 938 0 is_stmt 0 discriminator 1
 105 0010 FFF7FEFF 		bl	port_halt
 106              	.LVL6:
 107              	.L4:
 108              		.loc 1 939 0 is_stmt 1
 109 0014 636A     		ldr	r3, [r4, #36]
 110 0016 5BB3     		cbz	r3, .L13
 111              	.L5:
 112              		.loc 1 943 0
 113 0018 1D71     		strb	r5, [r3, #4]
ARM GAS  /var/folders/5n/p_75w94d66l9ssrldxqdhh700000gn/T//ccmhGqes.s 			page 3


 114              	.L6:
 115              		.loc 1 945 0
 116 001a 2378     		ldrb	r3, [r4, #0]	@ zero_extendqisi2
 117 001c 002D     		cmp	r5, #0
 118 001e 08BF     		it	eq
 119 0020 102B     		cmpeq	r3, #16
 120 0022 21D0     		beq	.L14
 121              	.L7:
 122              		.loc 1 948 0
 123 0024 227F     		ldrb	r2, [r4, #28]	@ zero_extendqisi2
 124 0026 12F0040F 		tst	r2, #4
 125              		.loc 1 950 0
 126 002a 4FF00003 		mov	r3, #0
 127              		.loc 1 949 0
 128 002e 22F00402 		bic	r2, r2, #4
 129              		.loc 1 948 0
 130 0032 14BF     		ite	ne
 131 0034 0025     		movne	r5, #0
 132 0036 0125     		moveq	r5, #1
 133              	.LVL7:
 134              		.loc 1 949 0
 135 0038 2277     		strb	r2, [r4, #28]
 136              		.loc 1 950 0
 137 003a 6362     		str	r3, [r4, #36]
 138              		.loc 1 951 0
 139 003c 6370     		strb	r3, [r4, #1]
 140              		.loc 1 952 0
 141 003e 6DB1     		cbz	r5, .L15
 142              	.L8:
 143              		.loc 1 955 0
 144 0040 A36A     		ldr	r3, [r4, #40]
 145 0042 1BB1     		cbz	r3, .L9
 146              		.loc 1 955 0 is_stmt 0 discriminator 1
 147 0044 2046     		mov	r0, r4
 148 0046 0221     		movs	r1, #2
 149 0048 0022     		movs	r2, #0
 150 004a 9847     		blx	r3
 151              	.L9:
 152              		.loc 1 957 0 is_stmt 1
 153 004c 25B1     		cbz	r5, .L3
 154              		.loc 1 958 0
 155 004e 04F10C00 		add	r0, r4, #12
 156 0052 FFF7FEFF 		bl	sys_sem_signal
 157              		.loc 1 960 0
 158 0056 0025     		movs	r5, #0
 159              	.LVL8:
 160              	.L3:
 161              		.loc 1 961 0
 162 0058 68B2     		sxtb	r0, r5
 163 005a 38BD     		pop	{r3, r4, r5, pc}
 164              	.LVL9:
 165              	.L15:
 166              		.loc 1 953 0
 167 005c 94F90830 		ldrsb	r3, [r4, #8]
 168 0060 0933     		adds	r3, r3, #9
 169 0062 A8BF     		it	ge
 170 0064 2572     		strbge	r5, [r4, #8]
ARM GAS  /var/folders/5n/p_75w94d66l9ssrldxqdhh700000gn/T//ccmhGqes.s 			page 4


 171 0066 EBE7     		b	.L8
 172              	.LVL10:
 173              	.L14:
 174              		.loc 1 946 0
 175 0068 2046     		mov	r0, r4
 176 006a FFF7FEFF 		bl	setup_tcp
 177 006e D9E7     		b	.L7
 178              	.L13:
 179              		.loc 1 939 0 discriminator 1
 180 0070 237F     		ldrb	r3, [r4, #28]	@ zero_extendqisi2
 181 0072 5B07     		lsls	r3, r3, #29
 182 0074 D1D4     		bmi	.L6
 183              		.loc 1 939 0 is_stmt 0 discriminator 2
 184 0076 FFF7FEFF 		bl	port_halt
 185              		.loc 1 942 0 is_stmt 1 discriminator 2
 186 007a 636A     		ldr	r3, [r4, #36]
 187 007c 002B     		cmp	r3, #0
 188 007e CCD0     		beq	.L6
 189 0080 CAE7     		b	.L5
 190              	.LVL11:
 191              	.L10:
 192              		.loc 1 935 0
 193 0082 FA25     		movs	r5, #250
 194 0084 E8E7     		b	.L3
 195              		.cfi_endproc
 196              	.LFE23:
 197              		.size	do_connected, .-do_connected
 198 0086 00BFAFF3 		.section	.text.do_close_internal,"ax",%progbits
 198      0080AFF3 
 198      0080
 199              		.align	2
 200              		.p2align 4,,15
 201              		.thumb
 202              		.thumb_func
 203              		.type	do_close_internal, %function
 204              	do_close_internal:
 205              	.LFB20:
 206              		.loc 1 736 0
 207              		.cfi_startproc
 208              		@ args = 0, pretend = 0, frame = 0
 209              		@ frame_needed = 0, uses_anonymous_args = 0
 210              	.LVL12:
 211 0000 2DE9F047 		push	{r4, r5, r6, r7, r8, r9, sl, lr}
 212              	.LCFI2:
 213              		.cfi_def_cfa_offset 32
 214              		.cfi_offset 14, -4
 215              		.cfi_offset 10, -8
 216              		.cfi_offset 9, -12
 217              		.cfi_offset 8, -16
 218              		.cfi_offset 7, -20
 219              		.cfi_offset 6, -24
 220              		.cfi_offset 5, -28
 221              		.cfi_offset 4, -32
 222              		.loc 1 740 0
 223 0004 0446     		mov	r4, r0
 224 0006 0028     		cmp	r0, #0
 225 0008 00F0A980 		beq	.L34
ARM GAS  /var/folders/5n/p_75w94d66l9ssrldxqdhh700000gn/T//ccmhGqes.s 			page 5


 226              	.LVL13:
 227              	.L17:
 228              		.loc 1 741 0
 229 000c 2378     		ldrb	r3, [r4, #0]	@ zero_extendqisi2
 230 000e 102B     		cmp	r3, #16
 231 0010 01D0     		beq	.L18
 232              		.loc 1 741 0 is_stmt 0 discriminator 1
 233 0012 FFF7FEFF 		bl	port_halt
 234              	.L18:
 235              		.loc 1 742 0 is_stmt 1
 236 0016 6378     		ldrb	r3, [r4, #1]	@ zero_extendqisi2
 237 0018 042B     		cmp	r3, #4
 238 001a 01D0     		beq	.L19
 239              		.loc 1 742 0 is_stmt 0 discriminator 1
 240 001c FFF7FEFF 		bl	port_halt
 241              	.L19:
 242              		.loc 1 743 0 is_stmt 1
 243 0020 6368     		ldr	r3, [r4, #4]
 244 0022 002B     		cmp	r3, #0
 245 0024 00F09480 		beq	.L35
 246              	.L20:
 247              		.loc 1 744 0
 248 0028 636A     		ldr	r3, [r4, #36]
 249 002a 002B     		cmp	r3, #0
 250 002c 00F09380 		beq	.L36
 251              	.L21:
 252              		.loc 1 746 0
 253 0030 1D7A     		ldrb	r5, [r3, #8]	@ zero_extendqisi2
 254              	.LVL14:
 255              		.loc 1 750 0
 256 0032 A5F10302 		sub	r2, r5, #3
 257 0036 5642     		rsbs	r6, r2, #0
 258              		.loc 1 747 0
 259 0038 05F00108 		and	r8, r5, #1
 260              		.loc 1 748 0
 261 003c 05F00207 		and	r7, r5, #2
 262              		.loc 1 750 0
 263 0040 46EB0206 		adc	r6, r6, r2
 264              		.loc 1 747 0
 265 0044 5FFA88F9 		uxtb	r9, r8
 266              	.LVL15:
 267              		.loc 1 748 0
 268 0048 5FFA87FA 		uxtb	sl, r7
 269              	.LVL16:
 270              		.loc 1 753 0
 271 004c 002E     		cmp	r6, #0
 272 004e 6ED1     		bne	.L37
 273              		.loc 1 756 0
 274 0050 6068     		ldr	r0, [r4, #4]
 275 0052 037C     		ldrb	r3, [r0, #16]	@ zero_extendqisi2
 276 0054 012B     		cmp	r3, #1
 277 0056 72D0     		beq	.L38
 278              	.L23:
 279              		.loc 1 760 0
 280 0058 B9F1000F 		cmp	r9, #0
 281 005c 5BD1     		bne	.L39
 282              		.loc 1 764 0
ARM GAS  /var/folders/5n/p_75w94d66l9ssrldxqdhh700000gn/T//ccmhGqes.s 			page 6


 283 005e BAF1000F 		cmp	sl, #0
 284 0062 43D1     		bne	.L40
 285              	.L26:
 286              		.loc 1 767 0
 287 0064 002E     		cmp	r6, #0
 288 0066 47D1     		bne	.L41
 289              	.L24:
 290              		.loc 1 773 0
 291 0068 032D     		cmp	r5, #3
 292 006a 50D0     		beq	.L42
 293              	.L27:
 294              		.loc 1 776 0
 295 006c 3A46     		mov	r2, r7
 296 006e 4146     		mov	r1, r8
 297 0070 FFF7FEFF 		bl	tcp_shutdown
 298 0074 0246     		mov	r2, r0
 299              	.LVL17:
 300              	.L28:
 301              		.loc 1 778 0
 302 0076 002A     		cmp	r2, #0
 303 0078 22D1     		bne	.L29
 304              		.loc 1 780 0
 305 007a 636A     		ldr	r3, [r4, #36]
 306 007c 1A71     		strb	r2, [r3, #4]
 307              		.loc 1 781 0
 308 007e 6262     		str	r2, [r4, #36]
 309              		.loc 1 782 0
 310 0080 6270     		strb	r2, [r4, #1]
 311              		.loc 1 784 0
 312 0082 6260     		str	r2, [r4, #4]
 313              		.loc 1 787 0
 314 0084 26B1     		cbz	r6, .L30
 315              		.loc 1 788 0
 316 0086 A36A     		ldr	r3, [r4, #40]
 317 0088 13B1     		cbz	r3, .L30
 318              		.loc 1 788 0 is_stmt 0 discriminator 1
 319 008a 2046     		mov	r0, r4
 320 008c 0421     		movs	r1, #4
 321 008e 9847     		blx	r3
 322              	.LVL18:
 323              	.L30:
 324              		.loc 1 790 0 is_stmt 1
 325 0090 B9F1000F 		cmp	r9, #0
 326 0094 05D0     		beq	.L31
 327              		.loc 1 791 0
 328 0096 A36A     		ldr	r3, [r4, #40]
 329 0098 1BB1     		cbz	r3, .L31
 330              		.loc 1 791 0 is_stmt 0 discriminator 1
 331 009a 0021     		movs	r1, #0
 332 009c 2046     		mov	r0, r4
 333 009e 0A46     		mov	r2, r1
 334 00a0 9847     		blx	r3
 335              	.L31:
 336              		.loc 1 793 0 is_stmt 1
 337 00a2 BAF1000F 		cmp	sl, #0
 338 00a6 05D0     		beq	.L32
 339              		.loc 1 794 0
ARM GAS  /var/folders/5n/p_75w94d66l9ssrldxqdhh700000gn/T//ccmhGqes.s 			page 7


 340 00a8 A36A     		ldr	r3, [r4, #40]
 341 00aa 1BB1     		cbz	r3, .L32
 342              		.loc 1 794 0 is_stmt 0 discriminator 1
 343 00ac 2046     		mov	r0, r4
 344 00ae 0221     		movs	r1, #2
 345 00b0 0022     		movs	r2, #0
 346 00b2 9847     		blx	r3
 347              	.L32:
 348              		.loc 1 797 0 is_stmt 1
 349 00b4 04F10C00 		add	r0, r4, #12
 350              		.loc 1 810 0
 351 00b8 BDE8F047 		pop	{r4, r5, r6, r7, r8, r9, sl, lr}
 352              		.loc 1 797 0
 353 00bc FFF7FEBF 		b	sys_sem_signal
 354              	.LVL19:
 355              	.L29:
 356              		.loc 1 801 0
 357 00c0 6068     		ldr	r0, [r4, #4]
 358 00c2 037C     		ldrb	r3, [r0, #16]	@ zero_extendqisi2
 359 00c4 012B     		cmp	r3, #1
 360 00c6 3FD0     		beq	.L43
 361              	.LVL20:
 362              	.L33:
 363              		.loc 1 802 0
 364 00c8 2649     		ldr	r1, .L44
 365 00ca FFF7FEFF 		bl	tcp_sent
 366              		.loc 1 803 0
 367 00ce 6068     		ldr	r0, [r4, #4]
 368 00d0 2549     		ldr	r1, .L44+4
 369 00d2 0422     		movs	r2, #4
 370 00d4 FFF7FEFF 		bl	tcp_poll
 371              		.loc 1 804 0
 372 00d8 6068     		ldr	r0, [r4, #4]
 373 00da 2449     		ldr	r1, .L44+8
 374 00dc FFF7FEFF 		bl	tcp_err
 375              		.loc 1 805 0
 376 00e0 6068     		ldr	r0, [r4, #4]
 377 00e2 2146     		mov	r1, r4
 378              		.loc 1 810 0
 379 00e4 BDE8F047 		pop	{r4, r5, r6, r7, r8, r9, sl, lr}
 380              		.loc 1 805 0
 381 00e8 FFF7FEBF 		b	tcp_arg
 382              	.L40:
 383              		.loc 1 765 0
 384 00ec 0021     		movs	r1, #0
 385 00ee FFF7FEFF 		bl	tcp_sent
 386 00f2 6068     		ldr	r0, [r4, #4]
 387              		.loc 1 767 0
 388 00f4 002E     		cmp	r6, #0
 389 00f6 B7D0     		beq	.L24
 390              	.L41:
 391              		.loc 1 768 0
 392 00f8 0021     		movs	r1, #0
 393 00fa 0422     		movs	r2, #4
 394 00fc FFF7FEFF 		bl	tcp_poll
 395              		.loc 1 769 0
 396 0100 6068     		ldr	r0, [r4, #4]
ARM GAS  /var/folders/5n/p_75w94d66l9ssrldxqdhh700000gn/T//ccmhGqes.s 			page 8


 397 0102 0021     		movs	r1, #0
 398 0104 FFF7FEFF 		bl	tcp_err
 399              		.loc 1 773 0
 400 0108 032D     		cmp	r5, #3
 401              		.loc 1 769 0
 402 010a 6068     		ldr	r0, [r4, #4]
 403              		.loc 1 773 0
 404 010c AED1     		bne	.L27
 405              	.L42:
 406              		.loc 1 774 0
 407 010e FFF7FEFF 		bl	tcp_close
 408 0112 0246     		mov	r2, r0
 409              	.LVL21:
 410 0114 AFE7     		b	.L28
 411              	.LVL22:
 412              	.L39:
 413              		.loc 1 761 0
 414 0116 0021     		movs	r1, #0
 415 0118 FFF7FEFF 		bl	tcp_recv
 416              		.loc 1 762 0
 417 011c 6068     		ldr	r0, [r4, #4]
 418 011e 0021     		movs	r1, #0
 419 0120 FFF7FEFF 		bl	tcp_accept
 420 0124 6068     		ldr	r0, [r4, #4]
 421              		.loc 1 764 0
 422 0126 BAF1000F 		cmp	sl, #0
 423 012a 9BD0     		beq	.L26
 424 012c DEE7     		b	.L40
 425              	.L37:
 426              		.loc 1 754 0
 427 012e 6068     		ldr	r0, [r4, #4]
 428 0130 0021     		movs	r1, #0
 429 0132 FFF7FEFF 		bl	tcp_arg
 430              		.loc 1 756 0
 431 0136 6068     		ldr	r0, [r4, #4]
 432 0138 037C     		ldrb	r3, [r0, #16]	@ zero_extendqisi2
 433 013a 012B     		cmp	r3, #1
 434 013c 8CD1     		bne	.L23
 435              	.L38:
 436              		.loc 1 757 0
 437 013e 0021     		movs	r1, #0
 438 0140 FFF7FEFF 		bl	tcp_accept
 439 0144 6068     		ldr	r0, [r4, #4]
 440 0146 8FE7     		b	.L24
 441              	.LVL23:
 442              	.L43:
 443              		.loc 1 801 0 discriminator 1
 444 0148 FFF7FEFF 		bl	port_halt
 445              	.LVL24:
 446 014c 6068     		ldr	r0, [r4, #4]
 447 014e BBE7     		b	.L33
 448              	.LVL25:
 449              	.L35:
 450              		.loc 1 743 0 discriminator 1
 451 0150 FFF7FEFF 		bl	port_halt
 452 0154 68E7     		b	.L20
 453              	.L36:
ARM GAS  /var/folders/5n/p_75w94d66l9ssrldxqdhh700000gn/T//ccmhGqes.s 			page 9


 454              		.loc 1 744 0 discriminator 1
 455 0156 FFF7FEFF 		bl	port_halt
 456 015a 636A     		ldr	r3, [r4, #36]
 457 015c 68E7     		b	.L21
 458              	.L34:
 459              		.loc 1 740 0 discriminator 1
 460 015e FFF7FEFF 		bl	port_halt
 461 0162 53E7     		b	.L17
 462              	.L45:
 463              		.align	2
 464              	.L44:
 465 0164 00000000 		.word	sent_tcp
 466 0168 00000000 		.word	poll_tcp
 467 016c 00000000 		.word	err_tcp
 468              		.cfi_endproc
 469              	.LFE20:
 470              		.size	do_close_internal, .-do_close_internal
 471              		.section	.text.err_tcp,"ax",%progbits
 472              		.align	2
 473              		.p2align 4,,15
 474              		.thumb
 475              		.thumb_func
 476              		.type	err_tcp, %function
 477              	err_tcp:
 478              	.LFB12:
 479              		.loc 1 348 0
 480              		.cfi_startproc
 481              		@ args = 0, pretend = 0, frame = 0
 482              		@ frame_needed = 0, uses_anonymous_args = 0
 483              	.LVL26:
 484 0000 F8B5     		push	{r3, r4, r5, r6, r7, lr}
 485              	.LCFI3:
 486              		.cfi_def_cfa_offset 24
 487              		.cfi_offset 14, -4
 488              		.cfi_offset 7, -8
 489              		.cfi_offset 6, -12
 490              		.cfi_offset 5, -16
 491              		.cfi_offset 4, -20
 492              		.cfi_offset 3, -24
 493              		.loc 1 354 0
 494 0002 0446     		mov	r4, r0
 495              		.loc 1 348 0
 496 0004 0F46     		mov	r7, r1
 497              		.loc 1 354 0
 498 0006 0028     		cmp	r0, #0
 499 0008 4DD0     		beq	.L56
 500              	.LVL27:
 501              	.L47:
 502              		.loc 1 369 0
 503 000a A36A     		ldr	r3, [r4, #40]
 504              		.loc 1 364 0
 505 000c 6678     		ldrb	r6, [r4, #1]	@ zero_extendqisi2
 506              	.LVL28:
 507              		.loc 1 360 0
 508 000e 2772     		strb	r7, [r4, #8]
 509              		.loc 1 356 0
 510 0010 0025     		movs	r5, #0
ARM GAS  /var/folders/5n/p_75w94d66l9ssrldxqdhh700000gn/T//ccmhGqes.s 			page 10


 511 0012 6560     		str	r5, [r4, #4]
 512              		.loc 1 365 0
 513 0014 6570     		strb	r5, [r4, #1]
 514              		.loc 1 369 0
 515 0016 7BB1     		cbz	r3, .L49
 516              		.loc 1 369 0 is_stmt 0 discriminator 1
 517 0018 2046     		mov	r0, r4
 518 001a 0421     		movs	r1, #4
 519 001c 2A46     		mov	r2, r5
 520 001e 9847     		blx	r3
 521              		.loc 1 372 0 is_stmt 1 discriminator 1
 522 0020 A36A     		ldr	r3, [r4, #40]
 523 0022 4BB1     		cbz	r3, .L49
 524 0024 2046     		mov	r0, r4
 525 0026 2946     		mov	r1, r5
 526 0028 2A46     		mov	r2, r5
 527 002a 9847     		blx	r3
 528              		.loc 1 373 0 discriminator 1
 529 002c A36A     		ldr	r3, [r4, #40]
 530 002e 1BB1     		cbz	r3, .L49
 531 0030 2046     		mov	r0, r4
 532 0032 0221     		movs	r1, #2
 533 0034 2A46     		mov	r2, r5
 534 0036 9847     		blx	r3
 535              	.L49:
 536              		.loc 1 376 0
 537 0038 04F11005 		add	r5, r4, #16
 538 003c 2846     		mov	r0, r5
 539 003e FFF7FEFF 		bl	sys_mbox_valid
 540 0042 0028     		cmp	r0, #0
 541 0044 2AD1     		bne	.L57
 542              	.L50:
 543              		.loc 1 381 0
 544 0046 04F11405 		add	r5, r4, #20
 545 004a 2846     		mov	r0, r5
 546 004c FFF7FEFF 		bl	sys_mbox_valid
 547 0050 0028     		cmp	r0, #0
 548 0052 1ED1     		bne	.L58
 549              	.L51:
 550              		.loc 1 386 0
 551 0054 012E     		cmp	r6, #1
 552 0056 18BF     		it	ne
 553 0058 042E     		cmpne	r6, #4
 554 005a 08D0     		beq	.L52
 555              		.loc 1 386 0 is_stmt 0 discriminator 1
 556 005c 032E     		cmp	r6, #3
 557 005e 06D0     		beq	.L52
 558              		.loc 1 402 0 is_stmt 1
 559 0060 636A     		ldr	r3, [r4, #36]
 560 0062 002B     		cmp	r3, #0
 561 0064 14D0     		beq	.L46
 562              		.loc 1 404 0 discriminator 1
 563 0066 BDE8F840 		pop	{r3, r4, r5, r6, r7, lr}
 564              		.loc 1 402 0 discriminator 1
 565 006a FFF7FEBF 		b	port_halt
 566              	.L52:
 567              	.LBB3:
ARM GAS  /var/folders/5n/p_75w94d66l9ssrldxqdhh700000gn/T//ccmhGqes.s 			page 11


 568              		.loc 1 390 0
 569 006e 237F     		ldrb	r3, [r4, #28]	@ zero_extendqisi2
 570              	.LVL29:
 571              		.loc 1 391 0
 572 0070 23F00402 		bic	r2, r3, #4
 573              		.loc 1 393 0
 574 0074 5907     		lsls	r1, r3, #29
 575              		.loc 1 391 0
 576 0076 2277     		strb	r2, [r4, #28]
 577              		.loc 1 393 0
 578 0078 0AD4     		bmi	.L46
 579              		.loc 1 395 0
 580 007a 636A     		ldr	r3, [r4, #36]
 581              	.LVL30:
 582 007c B3B1     		cbz	r3, .L59
 583              	.L55:
 584              		.loc 1 396 0
 585 007e 1F71     		strb	r7, [r3, #4]
 586              		.loc 1 399 0
 587 0080 04F10C00 		add	r0, r4, #12
 588              		.loc 1 397 0
 589 0084 0023     		movs	r3, #0
 590 0086 6362     		str	r3, [r4, #36]
 591              	.LBE3:
 592              		.loc 1 404 0
 593 0088 BDE8F840 		pop	{r3, r4, r5, r6, r7, lr}
 594              	.LBB4:
 595              		.loc 1 399 0
 596 008c FFF7FEBF 		b	sys_sem_signal
 597              	.L46:
 598 0090 F8BD     		pop	{r3, r4, r5, r6, r7, pc}
 599              	.L58:
 600              	.LBE4:
 601              		.loc 1 383 0
 602 0092 2846     		mov	r0, r5
 603 0094 0021     		movs	r1, #0
 604 0096 FFF7FEFF 		bl	sys_mbox_trypost
 605 009a DBE7     		b	.L51
 606              	.L57:
 607              		.loc 1 378 0
 608 009c 2846     		mov	r0, r5
 609 009e 0021     		movs	r1, #0
 610 00a0 FFF7FEFF 		bl	sys_mbox_trypost
 611 00a4 CFE7     		b	.L50
 612              	.LVL31:
 613              	.L56:
 614              		.loc 1 354 0 discriminator 1
 615 00a6 FFF7FEFF 		bl	port_halt
 616              	.LVL32:
 617 00aa AEE7     		b	.L47
 618              	.LVL33:
 619              	.L59:
 620              	.LBB5:
 621              		.loc 1 395 0 discriminator 1
 622 00ac FFF7FEFF 		bl	port_halt
 623 00b0 636A     		ldr	r3, [r4, #36]
 624 00b2 E4E7     		b	.L55
ARM GAS  /var/folders/5n/p_75w94d66l9ssrldxqdhh700000gn/T//ccmhGqes.s 			page 12


 625              	.LBE5:
 626              		.cfi_endproc
 627              	.LFE12:
 628              		.size	err_tcp, .-err_tcp
 629 00b4 AFF30080 		.section	.text.do_writemore,"ax",%progbits
 629      AFF30080 
 629      AFF30080 
 630              		.align	2
 631              		.p2align 4,,15
 632              		.thumb
 633              		.thumb_func
 634              		.type	do_writemore, %function
 635              	do_writemore:
 636              	.LFB29:
 637              		.loc 1 1195 0
 638              		.cfi_startproc
 639              		@ args = 0, pretend = 0, frame = 0
 640              		@ frame_needed = 0, uses_anonymous_args = 0
 641              	.LVL34:
 642 0000 2DE9F047 		push	{r4, r5, r6, r7, r8, r9, sl, lr}
 643              	.LCFI4:
 644              		.cfi_def_cfa_offset 32
 645              		.cfi_offset 14, -4
 646              		.cfi_offset 10, -8
 647              		.cfi_offset 9, -12
 648              		.cfi_offset 8, -16
 649              		.cfi_offset 7, -20
 650              		.cfi_offset 6, -24
 651              		.cfi_offset 5, -28
 652              		.cfi_offset 4, -32
 653              		.loc 1 1201 0
 654 0004 037F     		ldrb	r3, [r0, #28]	@ zero_extendqisi2
 655 0006 13F0020F 		tst	r3, #2
 656              		.loc 1 1195 0
 657 000a 0446     		mov	r4, r0
 658              		.loc 1 1201 0
 659 000c 436A     		ldr	r3, [r0, #36]
 660 000e 68D0     		beq	.L61
 661 0010 0126     		movs	r6, #1
 662 0012 1F7C     		ldrb	r7, [r3, #16]	@ zero_extendqisi2
 663 0014 B246     		mov	sl, r6
 664              	.L62:
 665              	.LVL35:
 666              		.loc 1 1206 0 discriminator 3
 667 0016 6278     		ldrb	r2, [r4, #1]	@ zero_extendqisi2
 668 0018 012A     		cmp	r2, #1
 669 001a 02D0     		beq	.L63
 670              		.loc 1 1206 0 is_stmt 0 discriminator 1
 671 001c FFF7FEFF 		bl	port_halt
 672              	.LVL36:
 673 0020 636A     		ldr	r3, [r4, #36]
 674              	.L63:
 675              		.loc 1 1207 0 is_stmt 1
 676 0022 002B     		cmp	r3, #0
 677 0024 00F09180 		beq	.L85
 678              	.L64:
 679              		.loc 1 1208 0
ARM GAS  /var/folders/5n/p_75w94d66l9ssrldxqdhh700000gn/T//ccmhGqes.s 			page 13


 680 0028 6368     		ldr	r3, [r4, #4]
 681 002a 002B     		cmp	r3, #0
 682 002c 00F09080 		beq	.L86
 683              	.L65:
 684              		.loc 1 1209 0
 685 0030 626A     		ldr	r2, [r4, #36]
 686 0032 D4F82080 		ldr	r8, [r4, #32]
 687 0036 D368     		ldr	r3, [r2, #12]
 688 0038 9845     		cmp	r8, r3
 689 003a 57D2     		bcs	.L87
 690              	.L66:
 691              		.loc 1 1223 0
 692 003c 6068     		ldr	r0, [r4, #4]
 693              		.loc 1 1212 0
 694 003e D2F80890 		ldr	r9, [r2, #8]
 695              	.LVL37:
 696              		.loc 1 1223 0
 697 0042 B0F86E20 		ldrh	r2, [r0, #110]
 698              	.LVL38:
 699              		.loc 1 1214 0
 700 0046 4FF6FF75 		movw	r5, #65535
 701              		.loc 1 1213 0
 702 004a C8EB0301 		rsb	r1, r8, r3
 703              	.LVL39:
 704              		.loc 1 1214 0
 705 004e A942     		cmp	r1, r5
 706              		.loc 1 1221 0
 707 0050 94BF     		ite	ls
 708 0052 8DB2     		uxthls	r5, r1
 709              		.loc 1 1219 0
 710 0054 47F00207 		orrhi	r7, r7, #2
 711              	.LVL40:
 712              		.loc 1 1224 0
 713 0058 9542     		cmp	r5, r2
 714              		.loc 1 1230 0
 715 005a 84BF     		itt	hi
 716 005c 47F00207 		orrhi	r7, r7, #2
 717              	.LVL41:
 718 0060 1546     		movhi	r5, r2
 719              	.LVL42:
 720              		.loc 1 1232 0
 721 0062 BAF1000F 		cmp	sl, #0
 722 0066 1AD0     		beq	.L71
 723              		.loc 1 1232 0 is_stmt 0 discriminator 1
 724 0068 9D42     		cmp	r5, r3
 725 006a 18D2     		bcs	.L71
 726              		.loc 1 1232 0
 727 006c 4FF00108 		mov	r8, #1
 728              	.LVL43:
 729 0070 FF27     		movs	r7, #255
 730              	.LVL44:
 731              		.loc 1 1240 0 is_stmt 1
 732 0072 18EA060F 		tst	r8, r6
 733 0076 26D1     		bne	.L88
 734              	.LVL45:
 735              	.L74:
 736              		.loc 1 1251 0
ARM GAS  /var/folders/5n/p_75w94d66l9ssrldxqdhh700000gn/T//ccmhGqes.s 			page 14


 737 0078 7B1C     		adds	r3, r7, #1
 738 007a DBB2     		uxtb	r3, r3
 739 007c 012B     		cmp	r3, #1
 740 007e 46D9     		bls	.L89
 741              	.L76:
 742              		.loc 1 1267 0
 743 0080 B8F1000F 		cmp	r8, #0
 744 0084 39D1     		bne	.L84
 745              	.LVL46:
 746              	.L80:
 747              		.loc 1 1288 0
 748 0086 626A     		ldr	r2, [r4, #36]
 749              		.loc 1 1289 0
 750 0088 0023     		movs	r3, #0
 751              		.loc 1 1288 0
 752 008a 1771     		strb	r7, [r2, #4]
 753              		.loc 1 1295 0
 754 008c 04F10C00 		add	r0, r4, #12
 755              		.loc 1 1289 0
 756 0090 6362     		str	r3, [r4, #36]
 757              		.loc 1 1290 0
 758 0092 6370     		strb	r3, [r4, #1]
 759              		.loc 1 1295 0
 760 0094 FFF7FEFF 		bl	sys_sem_signal
 761              		.loc 1 1303 0
 762 0098 0020     		movs	r0, #0
 763 009a BDE8F087 		pop	{r4, r5, r6, r7, r8, r9, sl, pc}
 764              	.LVL47:
 765              	.L71:
 766              		.loc 1 1237 0
 767 009e 05EB0802 		add	r2, r5, r8
 768              	.LVL48:
 769 00a2 9A42     		cmp	r2, r3
 770 00a4 2FD8     		bhi	.L90
 771              	.LVL49:
 772              	.L73:
 773              		.loc 1 1238 0
 774 00a6 09EB0801 		add	r1, r9, r8
 775 00aa 3B46     		mov	r3, r7
 776 00ac 2A46     		mov	r2, r5
 777 00ae FFF7FEFF 		bl	tcp_write
 778 00b2 0746     		mov	r7, r0
 779              	.LVL50:
 780 00b4 A0F1FF30 		sub	r0, r0, #-1
 781              	.LVL51:
 782 00b8 D0F10008 		rsbs	r8, r0, #0
 783              	.LVL52:
 784 00bc 48EB0008 		adc	r8, r8, r0
 785              		.loc 1 1240 0
 786 00c0 18EA060F 		tst	r8, r6
 787 00c4 D8D0     		beq	.L74
 788              	.LVL53:
 789              	.L88:
 790              		.loc 1 1246 0
 791 00c6 227F     		ldrb	r2, [r4, #28]	@ zero_extendqisi2
 792              		.loc 1 1248 0
 793 00c8 A36A     		ldr	r3, [r4, #40]
ARM GAS  /var/folders/5n/p_75w94d66l9ssrldxqdhh700000gn/T//ccmhGqes.s 			page 15


 794              		.loc 1 1246 0
 795 00ca 42F01002 		orr	r2, r2, #16
 796 00ce 2277     		strb	r2, [r4, #28]
 797              		.loc 1 1243 0
 798 00d0 F927     		movs	r7, #249
 799              		.loc 1 1248 0
 800 00d2 002B     		cmp	r3, #0
 801 00d4 D7D0     		beq	.L80
 802              		.loc 1 1248 0 is_stmt 0 discriminator 1
 803 00d6 2046     		mov	r0, r4
 804 00d8 0321     		movs	r1, #3
 805 00da 2A46     		mov	r2, r5
 806 00dc 9847     		blx	r3
 807              		.loc 1 1243 0 is_stmt 1 discriminator 1
 808 00de F927     		movs	r7, #249
 809 00e0 D1E7     		b	.L80
 810              	.LVL54:
 811              	.L61:
 812              		.loc 1 1202 0 discriminator 2
 813 00e2 1F7C     		ldrb	r7, [r3, #16]	@ zero_extendqisi2
 814 00e4 C7F3800A 		ubfx	sl, r7, #2, #1
 815 00e8 5646     		mov	r6, sl
 816 00ea 94E7     		b	.L62
 817              	.LVL55:
 818              	.L87:
 819              		.loc 1 1209 0 discriminator 1
 820 00ec FFF7FEFF 		bl	port_halt
 821 00f0 626A     		ldr	r2, [r4, #36]
 822 00f2 D4F82080 		ldr	r8, [r4, #32]
 823 00f6 D368     		ldr	r3, [r2, #12]
 824 00f8 A0E7     		b	.L66
 825              	.LVL56:
 826              	.L84:
 827              		.loc 1 1273 0
 828 00fa 6068     		ldr	r0, [r4, #4]
 829 00fc FFF7FEFF 		bl	tcp_output
 830              	.LVL57:
 831              		.loc 1 1303 0
 832 0100 0020     		movs	r0, #0
 833 0102 BDE8F087 		pop	{r4, r5, r6, r7, r8, r9, sl, pc}
 834              	.LVL58:
 835              	.L90:
 836              		.loc 1 1237 0 discriminator 1
 837 0106 FFF7FEFF 		bl	port_halt
 838              	.LVL59:
 839 010a 6068     		ldr	r0, [r4, #4]
 840 010c CBE7     		b	.L73
 841              	.LVL60:
 842              	.L89:
 843              		.loc 1 1252 0 discriminator 1
 844 010e 6368     		ldr	r3, [r4, #4]
 845              		.loc 1 1251 0 discriminator 1
 846 0110 B3F86E20 		ldrh	r2, [r3, #110]
 847 0114 802A     		cmp	r2, #128
 848 0116 10D9     		bls	.L77
 849              		.loc 1 1252 0
 850 0118 B3F87030 		ldrh	r3, [r3, #112]
ARM GAS  /var/folders/5n/p_75w94d66l9ssrldxqdhh700000gn/T//ccmhGqes.s 			page 16


 851 011c 6BB9     		cbnz	r3, .L77
 852              	.L78:
 853              		.loc 1 1259 0
 854 011e 002F     		cmp	r7, #0
 855 0120 AED1     		bne	.L76
 856              		.loc 1 1260 0
 857 0122 226A     		ldr	r2, [r4, #32]
 858              		.loc 1 1261 0
 859 0124 636A     		ldr	r3, [r4, #36]
 860              		.loc 1 1260 0
 861 0126 AD18     		adds	r5, r5, r2
 862              	.LVL61:
 863 0128 2562     		str	r5, [r4, #32]
 864              		.loc 1 1261 0
 865 012a DB68     		ldr	r3, [r3, #12]
 866 012c 9D42     		cmp	r5, r3
 867 012e E4D1     		bne	.L84
 868              	.LVL62:
 869              		.loc 1 1264 0
 870 0130 2762     		str	r7, [r4, #32]
 871              		.loc 1 1266 0
 872 0132 6068     		ldr	r0, [r4, #4]
 873 0134 FFF7FEFF 		bl	tcp_output
 874              	.LVL63:
 875 0138 A5E7     		b	.L80
 876              	.LVL64:
 877              	.L77:
 878              		.loc 1 1256 0
 879 013a A36A     		ldr	r3, [r4, #40]
 880 013c 002B     		cmp	r3, #0
 881 013e EED0     		beq	.L78
 882              		.loc 1 1256 0 is_stmt 0 discriminator 1
 883 0140 2046     		mov	r0, r4
 884 0142 0321     		movs	r1, #3
 885 0144 2A46     		mov	r2, r5
 886 0146 9847     		blx	r3
 887 0148 E9E7     		b	.L78
 888              	.LVL65:
 889              	.L85:
 890              		.loc 1 1207 0 is_stmt 1 discriminator 1
 891 014a FFF7FEFF 		bl	port_halt
 892 014e 6BE7     		b	.L64
 893              	.L86:
 894              		.loc 1 1208 0 discriminator 1
 895 0150 FFF7FEFF 		bl	port_halt
 896 0154 6CE7     		b	.L65
 897              		.cfi_endproc
 898              	.LFE29:
 899              		.size	do_writemore, .-do_writemore
 900 0156 00BFAFF3 		.section	.text.recv_tcp,"ax",%progbits
 900      0080AFF3 
 900      0080
 901              		.align	2
 902              		.p2align 4,,15
 903              		.thumb
 904              		.thumb_func
 905              		.type	recv_tcp, %function
ARM GAS  /var/folders/5n/p_75w94d66l9ssrldxqdhh700000gn/T//ccmhGqes.s 			page 17


 906              	recv_tcp:
 907              	.LFB9:
 908              		.loc 1 217 0
 909              		.cfi_startproc
 910              		@ args = 0, pretend = 0, frame = 0
 911              		@ frame_needed = 0, uses_anonymous_args = 0
 912              	.LVL66:
 913 0000 2DE9F843 		push	{r3, r4, r5, r6, r7, r8, r9, lr}
 914              	.LCFI5:
 915              		.cfi_def_cfa_offset 32
 916              		.cfi_offset 14, -4
 917              		.cfi_offset 9, -8
 918              		.cfi_offset 8, -12
 919              		.cfi_offset 7, -16
 920              		.cfi_offset 6, -20
 921              		.cfi_offset 5, -24
 922              		.cfi_offset 4, -28
 923              		.cfi_offset 3, -32
 924              		.loc 1 222 0
 925 0004 0D46     		mov	r5, r1
 926              		.loc 1 217 0
 927 0006 0446     		mov	r4, r0
 928 0008 1646     		mov	r6, r2
 929 000a 9946     		mov	r9, r3
 930              		.loc 1 222 0
 931 000c 0029     		cmp	r1, #0
 932 000e 31D0     		beq	.L104
 933              	.LVL67:
 934              	.L92:
 935              		.loc 1 223 0
 936 0010 002C     		cmp	r4, #0
 937 0012 36D0     		beq	.L105
 938              	.L93:
 939              	.LVL68:
 940              		.loc 1 225 0
 941 0014 6368     		ldr	r3, [r4, #4]
 942 0016 AB42     		cmp	r3, r5
 943 0018 01D0     		beq	.L94
 944              		.loc 1 225 0 is_stmt 0 discriminator 1
 945 001a FFF7FEFF 		bl	port_halt
 946              	.L94:
 947              		.loc 1 230 0 is_stmt 1
 948 001e 04F11008 		add	r8, r4, #16
 949 0022 4046     		mov	r0, r8
 950 0024 FFF7FEFF 		bl	sys_mbox_valid
 951 0028 0746     		mov	r7, r0
 952 002a 58B9     		cbnz	r0, .L95
 953              		.loc 1 232 0
 954 002c 3EB1     		cbz	r6, .L96
 955              		.loc 1 233 0
 956 002e 3189     		ldrh	r1, [r6, #8]
 957 0030 2846     		mov	r0, r5
 958 0032 FFF7FEFF 		bl	tcp_recved
 959              		.loc 1 234 0
 960 0036 3046     		mov	r0, r6
 961 0038 FFF7FEFF 		bl	pbuf_free
 962              		.loc 1 236 0
ARM GAS  /var/folders/5n/p_75w94d66l9ssrldxqdhh700000gn/T//ccmhGqes.s 			page 18


 963 003c 3E46     		mov	r6, r7
 964              	.LVL69:
 965              	.L96:
 966              		.loc 1 263 0
 967 003e 70B2     		sxtb	r0, r6
 968 0040 BDE8F883 		pop	{r3, r4, r5, r6, r7, r8, r9, pc}
 969              	.LVL70:
 970              	.L95:
 971              	.LBB8:
 972              	.LBB9:
 973              		.loc 1 243 0
 974 0044 94F90830 		ldrsb	r3, [r4, #8]
 975 0048 0933     		adds	r3, r3, #9
 976 004a A8BF     		it	ge
 977 004c 84F80890 		strbge	r9, [r4, #8]
 978              		.loc 1 248 0
 979 0050 3546     		mov	r5, r6
 980              	.LVL71:
 981              		.loc 1 245 0
 982 0052 06B1     		cbz	r6, .L98
 983              		.loc 1 246 0
 984 0054 3589     		ldrh	r5, [r6, #8]
 985              	.LVL72:
 986              	.L98:
 987              		.loc 1 251 0
 988 0056 3146     		mov	r1, r6
 989 0058 4046     		mov	r0, r8
 990 005a FFF7FEFF 		bl	sys_mbox_trypost
 991 005e 0646     		mov	r6, r0
 992              	.LVL73:
 993 0060 90B9     		cbnz	r0, .L102
 994              		.loc 1 259 0
 995 0062 A36A     		ldr	r3, [r4, #40]
 996 0064 4BB1     		cbz	r3, .L103
 997 0066 2046     		mov	r0, r4
 998 0068 3146     		mov	r1, r6
 999 006a 2A46     		mov	r2, r5
 1000 006c 9847     		blx	r3
 1001              	.LBE9:
 1002              	.LBE8:
 1003              		.loc 1 263 0
 1004 006e 70B2     		sxtb	r0, r6
 1005 0070 BDE8F883 		pop	{r3, r4, r5, r6, r7, r8, r9, pc}
 1006              	.LVL74:
 1007              	.L104:
 1008              		.loc 1 222 0 discriminator 1
 1009 0074 FFF7FEFF 		bl	port_halt
 1010              	.LVL75:
 1011 0078 CAE7     		b	.L92
 1012              	.LVL76:
 1013              	.L103:
 1014              	.LBB12:
 1015              	.LBB10:
 1016              		.loc 1 262 0
 1017 007a 1E46     		mov	r6, r3
 1018              	.LBE10:
 1019              	.LBE12:
ARM GAS  /var/folders/5n/p_75w94d66l9ssrldxqdhh700000gn/T//ccmhGqes.s 			page 19


 1020              		.loc 1 263 0
 1021 007c 70B2     		sxtb	r0, r6
 1022 007e BDE8F883 		pop	{r3, r4, r5, r6, r7, r8, r9, pc}
 1023              	.LVL77:
 1024              	.L105:
 1025              		.loc 1 223 0 discriminator 1
 1026 0082 FFF7FEFF 		bl	port_halt
 1027 0086 C5E7     		b	.L93
 1028              	.LVL78:
 1029              	.L102:
 1030              	.LBB13:
 1031              	.LBB11:
 1032              		.loc 1 253 0
 1033 0088 FF26     		movs	r6, #255
 1034 008a D8E7     		b	.L96
 1035              	.LBE11:
 1036              	.LBE13:
 1037              		.cfi_endproc
 1038              	.LFE9:
 1039              		.size	recv_tcp, .-recv_tcp
 1040 008c AFF30080 		.section	.text.poll_tcp,"ax",%progbits
 1041              		.align	2
 1042              		.p2align 4,,15
 1043              		.thumb
 1044              		.thumb_func
 1045              		.type	poll_tcp, %function
 1046              	poll_tcp:
 1047              	.LFB10:
 1048              		.loc 1 278 0
 1049              		.cfi_startproc
 1050              		@ args = 0, pretend = 0, frame = 0
 1051              		@ frame_needed = 0, uses_anonymous_args = 0
 1052              	.LVL79:
 1053 0000 10B5     		push	{r4, lr}
 1054              	.LCFI6:
 1055              		.cfi_def_cfa_offset 8
 1056              		.cfi_offset 14, -4
 1057              		.cfi_offset 4, -8
 1058              		.loc 1 282 0
 1059 0002 0446     		mov	r4, r0
 1060 0004 10B3     		cbz	r0, .L111
 1061              	.LVL80:
 1062              	.L107:
 1063              		.loc 1 284 0
 1064 0006 6378     		ldrb	r3, [r4, #1]	@ zero_extendqisi2
 1065 0008 012B     		cmp	r3, #1
 1066 000a 17D0     		beq	.L112
 1067              		.loc 1 286 0
 1068 000c 042B     		cmp	r3, #4
 1069 000e 19D0     		beq	.L113
 1070              	.L109:
 1071              		.loc 1 292 0
 1072 0010 217F     		ldrb	r1, [r4, #28]	@ zero_extendqisi2
 1073 0012 CB06     		lsls	r3, r1, #27
 1074 0014 10D5     		bpl	.L110
 1075              		.loc 1 295 0
 1076 0016 6368     		ldr	r3, [r4, #4]
ARM GAS  /var/folders/5n/p_75w94d66l9ssrldxqdhh700000gn/T//ccmhGqes.s 			page 20


 1077 0018 73B1     		cbz	r3, .L110
 1078              		.loc 1 295 0 is_stmt 0 discriminator 1
 1079 001a B3F86E20 		ldrh	r2, [r3, #110]
 1080 001e 802A     		cmp	r2, #128
 1081 0020 0AD9     		bls	.L110
 1082 0022 B3F87020 		ldrh	r2, [r3, #112]
 1083 0026 3AB9     		cbnz	r2, .L110
 1084              		.loc 1 298 0 is_stmt 1
 1085 0028 A36A     		ldr	r3, [r4, #40]
 1086              		.loc 1 297 0
 1087 002a 21F01001 		bic	r1, r1, #16
 1088 002e 2177     		strb	r1, [r4, #28]
 1089              		.loc 1 298 0
 1090 0030 13B1     		cbz	r3, .L110
 1091              	.LVL81:
 1092              	.LBB16:
 1093              	.LBB17:
 1094 0032 2046     		mov	r0, r4
 1095 0034 0221     		movs	r1, #2
 1096 0036 9847     		blx	r3
 1097              	.LVL82:
 1098              	.L110:
 1099              	.LBE17:
 1100              	.LBE16:
 1101              		.loc 1 303 0
 1102 0038 0020     		movs	r0, #0
 1103 003a 10BD     		pop	{r4, pc}
 1104              	.L112:
 1105              		.loc 1 285 0
 1106 003c 2046     		mov	r0, r4
 1107 003e FFF7FEFF 		bl	do_writemore
 1108 0042 E5E7     		b	.L109
 1109              	.L113:
 1110              		.loc 1 287 0
 1111 0044 2046     		mov	r0, r4
 1112 0046 FFF7FEFF 		bl	do_close_internal
 1113 004a E1E7     		b	.L109
 1114              	.LVL83:
 1115              	.L111:
 1116              		.loc 1 282 0 discriminator 1
 1117 004c FFF7FEFF 		bl	port_halt
 1118              	.LVL84:
 1119 0050 D9E7     		b	.L107
 1120              		.cfi_endproc
 1121              	.LFE10:
 1122              		.size	poll_tcp, .-poll_tcp
 1123              		.section	.text.sent_tcp,"ax",%progbits
 1124              		.align	2
 1125              		.p2align 4,,15
 1126              		.thumb
 1127              		.thumb_func
 1128              		.type	sent_tcp, %function
 1129              	sent_tcp:
 1130              	.LFB11:
 1131              		.loc 1 314 0
 1132              		.cfi_startproc
 1133              		@ args = 0, pretend = 0, frame = 0
ARM GAS  /var/folders/5n/p_75w94d66l9ssrldxqdhh700000gn/T//ccmhGqes.s 			page 21


 1134              		@ frame_needed = 0, uses_anonymous_args = 0
 1135              	.LVL85:
 1136 0000 38B5     		push	{r3, r4, r5, lr}
 1137              	.LCFI7:
 1138              		.cfi_def_cfa_offset 16
 1139              		.cfi_offset 14, -4
 1140              		.cfi_offset 5, -8
 1141              		.cfi_offset 4, -12
 1142              		.cfi_offset 3, -16
 1143              		.loc 1 318 0
 1144 0002 0446     		mov	r4, r0
 1145              		.loc 1 314 0
 1146 0004 1546     		mov	r5, r2
 1147              		.loc 1 318 0
 1148 0006 08B3     		cbz	r0, .L119
 1149              	.LVL86:
 1150              	.L115:
 1151              		.loc 1 320 0
 1152 0008 6378     		ldrb	r3, [r4, #1]	@ zero_extendqisi2
 1153 000a 012B     		cmp	r3, #1
 1154 000c 16D0     		beq	.L120
 1155              		.loc 1 322 0
 1156 000e 042B     		cmp	r3, #4
 1157 0010 18D0     		beq	.L121
 1158              	.L117:
 1159              		.loc 1 329 0
 1160 0012 6368     		ldr	r3, [r4, #4]
 1161 0014 83B1     		cbz	r3, .L118
 1162              		.loc 1 329 0 is_stmt 0 discriminator 1
 1163 0016 B3F86E20 		ldrh	r2, [r3, #110]
 1164 001a 802A     		cmp	r2, #128
 1165 001c 0CD9     		bls	.L118
 1166 001e B3F87030 		ldrh	r3, [r3, #112]
 1167 0022 4BB9     		cbnz	r3, .L118
 1168              		.loc 1 331 0 is_stmt 1
 1169 0024 227F     		ldrb	r2, [r4, #28]	@ zero_extendqisi2
 1170              		.loc 1 332 0
 1171 0026 A36A     		ldr	r3, [r4, #40]
 1172              		.loc 1 331 0
 1173 0028 22F01002 		bic	r2, r2, #16
 1174 002c 2277     		strb	r2, [r4, #28]
 1175              		.loc 1 332 0
 1176 002e 1BB1     		cbz	r3, .L118
 1177              	.LVL87:
 1178              	.LBB20:
 1179              	.LBB21:
 1180 0030 2046     		mov	r0, r4
 1181 0032 0221     		movs	r1, #2
 1182 0034 2A46     		mov	r2, r5
 1183 0036 9847     		blx	r3
 1184              	.LVL88:
 1185              	.L118:
 1186              	.LBE21:
 1187              	.LBE20:
 1188              		.loc 1 337 0
 1189 0038 0020     		movs	r0, #0
 1190 003a 38BD     		pop	{r3, r4, r5, pc}
ARM GAS  /var/folders/5n/p_75w94d66l9ssrldxqdhh700000gn/T//ccmhGqes.s 			page 22


 1191              	.L120:
 1192              		.loc 1 321 0
 1193 003c 2046     		mov	r0, r4
 1194 003e FFF7FEFF 		bl	do_writemore
 1195 0042 E6E7     		b	.L117
 1196              	.L121:
 1197              		.loc 1 323 0
 1198 0044 2046     		mov	r0, r4
 1199 0046 FFF7FEFF 		bl	do_close_internal
 1200 004a E2E7     		b	.L117
 1201              	.LVL89:
 1202              	.L119:
 1203              		.loc 1 318 0 discriminator 1
 1204 004c FFF7FEFF 		bl	port_halt
 1205              	.LVL90:
 1206 0050 DAE7     		b	.L115
 1207              		.cfi_endproc
 1208              	.LFE11:
 1209              		.size	sent_tcp, .-sent_tcp
 1210 0052 00BFAFF3 		.section	.text.recv_udp,"ax",%progbits
 1210      0080AFF3 
 1210      0080AFF3 
 1210      0080
 1211              		.align	2
 1212              		.p2align 4,,15
 1213              		.thumb
 1214              		.thumb_func
 1215              		.type	recv_udp, %function
 1216              	recv_udp:
 1217              	.LFB8:
 1218              		.loc 1 146 0
 1219              		.cfi_startproc
 1220              		@ args = 4, pretend = 0, frame = 8
 1221              		@ frame_needed = 0, uses_anonymous_args = 0
 1222              	.LVL91:
 1223 0000 2DE9F043 		push	{r4, r5, r6, r7, r8, r9, lr}
 1224              	.LCFI8:
 1225              		.cfi_def_cfa_offset 28
 1226              		.cfi_offset 14, -4
 1227              		.cfi_offset 9, -8
 1228              		.cfi_offset 8, -12
 1229              		.cfi_offset 7, -16
 1230              		.cfi_offset 6, -20
 1231              		.cfi_offset 5, -24
 1232              		.cfi_offset 4, -28
 1233 0004 83B0     		sub	sp, sp, #12
 1234              	.LCFI9:
 1235              		.cfi_def_cfa_offset 40
 1236              		.loc 1 146 0
 1237 0006 0446     		mov	r4, r0
 1238 0008 1546     		mov	r5, r2
 1239 000a 9846     		mov	r8, r3
 1240 000c BDF82890 		ldrh	r9, [sp, #40]
 1241              		.loc 1 155 0
 1242 0010 0029     		cmp	r1, #0
 1243 0012 32D0     		beq	.L133
 1244              	.LVL92:
ARM GAS  /var/folders/5n/p_75w94d66l9ssrldxqdhh700000gn/T//ccmhGqes.s 			page 23


 1245              	.L123:
 1246              		.loc 1 156 0
 1247 0014 002C     		cmp	r4, #0
 1248 0016 3BD0     		beq	.L134
 1249              	.L124:
 1250              	.LVL93:
 1251              		.loc 1 158 0
 1252 0018 6368     		ldr	r3, [r4, #4]
 1253 001a 8B42     		cmp	r3, r1
 1254 001c 01D0     		beq	.L125
 1255              		.loc 1 158 0 is_stmt 0 discriminator 1
 1256 001e FFF7FEFF 		bl	port_halt
 1257              	.L125:
 1258              		.loc 1 165 0 is_stmt 1
 1259 0022 04F11007 		add	r7, r4, #16
 1260 0026 3846     		mov	r0, r7
 1261 0028 FFF7FEFF 		bl	sys_mbox_valid
 1262 002c 28B9     		cbnz	r0, .L126
 1263              	.L132:
 1264              	.LBB24:
 1265              	.LBB25:
 1266              		.loc 1 173 0
 1267 002e 2846     		mov	r0, r5
 1268              	.LBE25:
 1269              	.LBE24:
 1270              		.loc 1 205 0
 1271 0030 03B0     		add	sp, sp, #12
 1272 0032 BDE8F043 		pop	{r4, r5, r6, r7, r8, r9, lr}
 1273              	.LBB29:
 1274              	.LBB26:
 1275              		.loc 1 173 0
 1276 0036 FFF7FEBF 		b	pbuf_free
 1277              	.L126:
 1278              	.LVL94:
 1279              		.loc 1 171 0
 1280 003a 0720     		movs	r0, #7
 1281 003c FFF7FEFF 		bl	memp_malloc
 1282              	.LVL95:
 1283              		.loc 1 172 0
 1284 0040 0646     		mov	r6, r0
 1285 0042 0028     		cmp	r0, #0
 1286 0044 F3D0     		beq	.L132
 1287              		.loc 1 176 0
 1288 0046 0560     		str	r5, [r0, #0]
 1289              		.loc 1 177 0
 1290 0048 4560     		str	r5, [r0, #4]
 1291              		.loc 1 178 0
 1292 004a 4346     		mov	r3, r8
 1293 004c B8F1000F 		cmp	r8, #0
 1294 0050 01D0     		beq	.L128
 1295 0052 D8F80030 		ldr	r3, [r8, #0]
 1296              	.L128:
 1297              		.loc 1 195 0
 1298 0056 3146     		mov	r1, r6
 1299              		.loc 1 178 0
 1300 0058 B360     		str	r3, [r6, #8]
 1301              		.loc 1 179 0
ARM GAS  /var/folders/5n/p_75w94d66l9ssrldxqdhh700000gn/T//ccmhGqes.s 			page 24


 1302 005a A6F80C90 		strh	r9, [r6, #12]	@ movhi
 1303              		.loc 1 195 0
 1304 005e 3846     		mov	r0, r7
 1305              	.LVL96:
 1306              		.loc 1 194 0
 1307 0060 2D89     		ldrh	r5, [r5, #8]
 1308              	.LVL97:
 1309              		.loc 1 195 0
 1310 0062 FFF7FEFF 		bl	sys_mbox_trypost
 1311              	.LVL98:
 1312 0066 0146     		mov	r1, r0
 1313 0068 60B9     		cbnz	r0, .L135
 1314              		.loc 1 203 0
 1315 006a A36A     		ldr	r3, [r4, #40]
 1316 006c 13B1     		cbz	r3, .L122
 1317 006e 2046     		mov	r0, r4
 1318 0070 2A46     		mov	r2, r5
 1319 0072 9847     		blx	r3
 1320              	.L122:
 1321              	.LBE26:
 1322              	.LBE29:
 1323              		.loc 1 205 0
 1324 0074 03B0     		add	sp, sp, #12
 1325 0076 BDE8F083 		pop	{r4, r5, r6, r7, r8, r9, pc}
 1326              	.LVL99:
 1327              	.L133:
 1328              		.loc 1 155 0 discriminator 1
 1329 007a 0191     		str	r1, [sp, #4]
 1330 007c FFF7FEFF 		bl	port_halt
 1331              	.LVL100:
 1332 0080 0199     		ldr	r1, [sp, #4]
 1333 0082 C7E7     		b	.L123
 1334              	.LVL101:
 1335              	.L135:
 1336              	.LBB30:
 1337              	.LBB27:
 1338              		.loc 1 196 0
 1339 0084 3046     		mov	r0, r6
 1340              	.LBE27:
 1341              	.LBE30:
 1342              		.loc 1 205 0
 1343 0086 03B0     		add	sp, sp, #12
 1344 0088 BDE8F043 		pop	{r4, r5, r6, r7, r8, r9, lr}
 1345              	.LBB31:
 1346              	.LBB28:
 1347              		.loc 1 196 0
 1348 008c FFF7FEBF 		b	netbuf_delete
 1349              	.LVL102:
 1350              	.L134:
 1351              	.LBE28:
 1352              	.LBE31:
 1353              		.loc 1 156 0 discriminator 1
 1354 0090 0191     		str	r1, [sp, #4]
 1355 0092 FFF7FEFF 		bl	port_halt
 1356 0096 0199     		ldr	r1, [sp, #4]
 1357 0098 BEE7     		b	.L124
 1358              		.cfi_endproc
ARM GAS  /var/folders/5n/p_75w94d66l9ssrldxqdhh700000gn/T//ccmhGqes.s 			page 25


 1359              	.LFE8:
 1360              		.size	recv_udp, .-recv_udp
 1361 009a 00BFAFF3 		.section	.text.recv_raw,"ax",%progbits
 1361      0080
 1362              		.align	2
 1363              		.p2align 4,,15
 1364              		.thumb
 1365              		.thumb_func
 1366              		.type	recv_raw, %function
 1367              	recv_raw:
 1368              	.LFB7:
 1369              		.loc 1 80 0
 1370              		.cfi_startproc
 1371              		@ args = 0, pretend = 0, frame = 0
 1372              		@ frame_needed = 0, uses_anonymous_args = 0
 1373              	.LVL103:
 1374 0000 2DE9F041 		push	{r4, r5, r6, r7, r8, lr}
 1375              	.LCFI10:
 1376              		.cfi_def_cfa_offset 24
 1377              		.cfi_offset 14, -4
 1378              		.cfi_offset 8, -8
 1379              		.cfi_offset 7, -12
 1380              		.cfi_offset 6, -16
 1381              		.cfi_offset 5, -20
 1382              		.cfi_offset 4, -24
 1383              		.loc 1 88 0
 1384 0004 0446     		mov	r4, r0
 1385              		.loc 1 80 0
 1386 0006 0F46     		mov	r7, r1
 1387 0008 1646     		mov	r6, r2
 1388              		.loc 1 88 0
 1389 000a 28B1     		cbz	r0, .L137
 1390              		.loc 1 88 0 is_stmt 0 discriminator 1
 1391 000c 00F11005 		add	r5, r0, #16
 1392 0010 2846     		mov	r0, r5
 1393              	.LVL104:
 1394 0012 FFF7FEFF 		bl	sys_mbox_valid
 1395              	.LVL105:
 1396 0016 10B9     		cbnz	r0, .L143
 1397              	.LVL106:
 1398              	.L137:
 1399              		.loc 1 133 0 is_stmt 1
 1400 0018 0020     		movs	r0, #0
 1401 001a BDE8F081 		pop	{r4, r5, r6, r7, r8, pc}
 1402              	.LVL107:
 1403              	.L143:
 1404              	.LBB36:
 1405              	.LBB37:
 1406              		.loc 1 97 0
 1407 001e 0320     		movs	r0, #3
 1408 0020 3189     		ldrh	r1, [r6, #8]
 1409 0022 0022     		movs	r2, #0
 1410 0024 FFF7FEFF 		bl	pbuf_alloc
 1411              	.LVL108:
 1412              		.loc 1 98 0
 1413 0028 8046     		mov	r8, r0
 1414 002a 0028     		cmp	r0, #0
ARM GAS  /var/folders/5n/p_75w94d66l9ssrldxqdhh700000gn/T//ccmhGqes.s 			page 26


 1415 002c F4D0     		beq	.L137
 1416              		.loc 1 99 0
 1417 002e 3146     		mov	r1, r6
 1418 0030 FFF7FEFF 		bl	pbuf_copy
 1419              	.LVL109:
 1420 0034 F0B9     		cbnz	r0, .L140
 1421              	.LBB38:
 1422              		.loc 1 107 0
 1423 0036 0720     		movs	r0, #7
 1424 0038 FFF7FEFF 		bl	memp_malloc
 1425              	.LVL110:
 1426              		.loc 1 108 0
 1427 003c 0646     		mov	r6, r0
 1428              	.LVL111:
 1429 003e C8B1     		cbz	r0, .L140
 1430              		.loc 1 115 0
 1431 0040 104B     		ldr	r3, .L145
 1432              		.loc 1 113 0
 1433 0042 C6F80080 		str	r8, [r6, #0]
 1434              		.loc 1 115 0
 1435 0046 1B68     		ldr	r3, [r3, #0]
 1436              		.loc 1 114 0
 1437 0048 C6F80480 		str	r8, [r6, #4]
 1438              		.loc 1 115 0
 1439 004c B360     		str	r3, [r6, #8]
 1440              		.loc 1 116 0
 1441 004e 3B7C     		ldrb	r3, [r7, #16]	@ zero_extendqisi2
 1442              		.loc 1 118 0
 1443 0050 B8F80870 		ldrh	r7, [r8, #8]
 1444              	.LVL112:
 1445              		.loc 1 116 0
 1446 0054 B381     		strh	r3, [r6, #12]	@ movhi
 1447              		.loc 1 119 0
 1448 0056 3146     		mov	r1, r6
 1449 0058 2846     		mov	r0, r5
 1450              	.LVL113:
 1451 005a FFF7FEFF 		bl	sys_mbox_trypost
 1452              	.LVL114:
 1453 005e 0146     		mov	r1, r0
 1454 0060 60B9     		cbnz	r0, .L144
 1455              		.loc 1 127 0
 1456 0062 A36A     		ldr	r3, [r4, #40]
 1457 0064 002B     		cmp	r3, #0
 1458 0066 D7D0     		beq	.L137
 1459 0068 2046     		mov	r0, r4
 1460 006a 3A46     		mov	r2, r7
 1461 006c 9847     		blx	r3
 1462              	.LBE38:
 1463              	.LBE37:
 1464              	.LBE36:
 1465              		.loc 1 133 0
 1466 006e 0020     		movs	r0, #0
 1467 0070 BDE8F081 		pop	{r4, r5, r6, r7, r8, pc}
 1468              	.LVL115:
 1469              	.L140:
 1470              	.LBB41:
 1471              	.LBB40:
ARM GAS  /var/folders/5n/p_75w94d66l9ssrldxqdhh700000gn/T//ccmhGqes.s 			page 27


 1472              	.LBB39:
 1473              		.loc 1 109 0
 1474 0074 4046     		mov	r0, r8
 1475 0076 FFF7FEFF 		bl	pbuf_free
 1476 007a CDE7     		b	.L137
 1477              	.LVL116:
 1478              	.L144:
 1479              		.loc 1 120 0
 1480 007c 3046     		mov	r0, r6
 1481 007e FFF7FEFF 		bl	netbuf_delete
 1482 0082 C9E7     		b	.L137
 1483              	.L146:
 1484              		.align	2
 1485              	.L145:
 1486 0084 00000000 		.word	current_iphdr_src
 1487              	.LBE39:
 1488              	.LBE40:
 1489              	.LBE41:
 1490              		.cfi_endproc
 1491              	.LFE7:
 1492              		.size	recv_raw, .-recv_raw
 1493 0088 AFF30080 		.section	.text.do_newconn,"ax",%progbits
 1493      AFF30080 
 1494              		.align	2
 1495              		.p2align 4,,15
 1496              		.global	do_newconn
 1497              		.thumb
 1498              		.thumb_func
 1499              		.type	do_newconn, %function
 1500              	do_newconn:
 1501              	.LFB16:
 1502              		.loc 1 541 0
 1503              		.cfi_startproc
 1504              		@ args = 0, pretend = 0, frame = 0
 1505              		@ frame_needed = 0, uses_anonymous_args = 0
 1506              	.LVL117:
 1507 0000 38B5     		push	{r3, r4, r5, lr}
 1508              	.LCFI11:
 1509              		.cfi_def_cfa_offset 16
 1510              		.cfi_offset 14, -4
 1511              		.cfi_offset 5, -8
 1512              		.cfi_offset 4, -12
 1513              		.cfi_offset 3, -16
 1514              		.loc 1 542 0
 1515 0002 0023     		movs	r3, #0
 1516              		.loc 1 543 0
 1517 0004 0568     		ldr	r5, [r0, #0]
 1518              		.loc 1 542 0
 1519 0006 0371     		strb	r3, [r0, #4]
 1520              		.loc 1 543 0
 1521 0008 6B68     		ldr	r3, [r5, #4]
 1522              		.loc 1 541 0
 1523 000a 0446     		mov	r4, r0
 1524              		.loc 1 543 0
 1525 000c 2BB1     		cbz	r3, .L159
 1526              	.LVL118:
 1527              	.L148:
ARM GAS  /var/folders/5n/p_75w94d66l9ssrldxqdhh700000gn/T//ccmhGqes.s 			page 28


 1528              		.loc 1 550 0
 1529 000e 05F10C00 		add	r0, r5, #12
 1530              		.loc 1 551 0
 1531 0012 BDE83840 		pop	{r3, r4, r5, lr}
 1532              		.loc 1 550 0
 1533 0016 FFF7FEBF 		b	sys_sem_signal
 1534              	.L159:
 1535              	.LVL119:
 1536              	.LBB44:
 1537              	.LBB45:
 1538              		.loc 1 487 0
 1539 001a 2B78     		ldrb	r3, [r5, #0]	@ zero_extendqisi2
 1540 001c 03F0F003 		and	r3, r3, #240
 1541 0020 202B     		cmp	r3, #32
 1542 0022 1ED0     		beq	.L151
 1543 0024 402B     		cmp	r3, #64
 1544 0026 0FD0     		beq	.L152
 1545 0028 102B     		cmp	r3, #16
 1546 002a 02D0     		beq	.L160
 1547              		.loc 1 528 0
 1548 002c FA23     		movs	r3, #250
 1549 002e 0371     		strb	r3, [r0, #4]
 1550 0030 EDE7     		b	.L148
 1551              	.L160:
 1552              		.loc 1 518 0
 1553 0032 FFF7FEFF 		bl	tcp_new
 1554 0036 6860     		str	r0, [r5, #4]
 1555              		.loc 1 519 0
 1556 0038 2568     		ldr	r5, [r4, #0]
 1557 003a 6B68     		ldr	r3, [r5, #4]
 1558 003c 23B3     		cbz	r3, .L158
 1559              		.loc 1 523 0
 1560 003e 2846     		mov	r0, r5
 1561 0040 FFF7FEFF 		bl	setup_tcp
 1562 0044 2568     		ldr	r5, [r4, #0]
 1563 0046 E2E7     		b	.L148
 1564              	.L152:
 1565              		.loc 1 490 0
 1566 0048 007A     		ldrb	r0, [r0, #8]	@ zero_extendqisi2
 1567 004a FFF7FEFF 		bl	raw_new
 1568 004e 6860     		str	r0, [r5, #4]
 1569              		.loc 1 491 0
 1570 0050 2568     		ldr	r5, [r4, #0]
 1571 0052 6868     		ldr	r0, [r5, #4]
 1572 0054 C0B1     		cbz	r0, .L158
 1573              		.loc 1 495 0
 1574 0056 2A46     		mov	r2, r5
 1575 0058 0D49     		ldr	r1, .L161
 1576 005a FFF7FEFF 		bl	raw_recv
 1577 005e 2568     		ldr	r5, [r4, #0]
 1578 0060 D5E7     		b	.L148
 1579              	.L151:
 1580              		.loc 1 500 0
 1581 0062 FFF7FEFF 		bl	udp_new
 1582 0066 6860     		str	r0, [r5, #4]
 1583              		.loc 1 501 0
 1584 0068 2568     		ldr	r5, [r4, #0]
ARM GAS  /var/folders/5n/p_75w94d66l9ssrldxqdhh700000gn/T//ccmhGqes.s 			page 29


 1585 006a 6868     		ldr	r0, [r5, #4]
 1586 006c 60B1     		cbz	r0, .L158
 1587              		.loc 1 510 0
 1588 006e 2B78     		ldrb	r3, [r5, #0]	@ zero_extendqisi2
 1589 0070 222B     		cmp	r3, #34
 1590 0072 03D1     		bne	.L155
 1591              		.loc 1 511 0
 1592 0074 0123     		movs	r3, #1
 1593 0076 0374     		strb	r3, [r0, #16]
 1594 0078 2568     		ldr	r5, [r4, #0]
 1595 007a 6868     		ldr	r0, [r5, #4]
 1596              	.L155:
 1597              		.loc 1 513 0
 1598 007c 2A46     		mov	r2, r5
 1599 007e 0549     		ldr	r1, .L161+4
 1600 0080 FFF7FEFF 		bl	udp_recv
 1601 0084 2568     		ldr	r5, [r4, #0]
 1602 0086 C2E7     		b	.L148
 1603              	.L158:
 1604              		.loc 1 520 0
 1605 0088 FF23     		movs	r3, #255
 1606 008a 2371     		strb	r3, [r4, #4]
 1607 008c BFE7     		b	.L148
 1608              	.L162:
 1609 008e 00BF     		.align	2
 1610              	.L161:
 1611 0090 00000000 		.word	recv_raw
 1612 0094 00000000 		.word	recv_udp
 1613              	.LBE45:
 1614              	.LBE44:
 1615              		.cfi_endproc
 1616              	.LFE16:
 1617              		.size	do_newconn, .-do_newconn
 1618 0098 AFF30080 		.section	.text.netconn_alloc,"ax",%progbits
 1618      AFF30080 
 1619              		.align	2
 1620              		.p2align 4,,15
 1621              		.global	netconn_alloc
 1622              		.thumb
 1623              		.thumb_func
 1624              		.type	netconn_alloc, %function
 1625              	netconn_alloc:
 1626              	.LFB17:
 1627              		.loc 1 565 0
 1628              		.cfi_startproc
 1629              		@ args = 0, pretend = 0, frame = 0
 1630              		@ frame_needed = 0, uses_anonymous_args = 0
 1631              	.LVL120:
 1632 0000 2DE9F041 		push	{r4, r5, r6, r7, r8, lr}
 1633              	.LCFI12:
 1634              		.cfi_def_cfa_offset 24
 1635              		.cfi_offset 14, -4
 1636              		.cfi_offset 8, -8
 1637              		.cfi_offset 7, -12
 1638              		.cfi_offset 6, -16
 1639              		.cfi_offset 5, -20
 1640              		.cfi_offset 4, -24
ARM GAS  /var/folders/5n/p_75w94d66l9ssrldxqdhh700000gn/T//ccmhGqes.s 			page 30


 1641              		.loc 1 565 0
 1642 0004 0546     		mov	r5, r0
 1643              		.loc 1 569 0
 1644 0006 0820     		movs	r0, #8
 1645              	.LVL121:
 1646              		.loc 1 565 0
 1647 0008 0F46     		mov	r7, r1
 1648              		.loc 1 569 0
 1649 000a FFF7FEFF 		bl	memp_malloc
 1650              	.LVL122:
 1651              		.loc 1 570 0
 1652 000e 0446     		mov	r4, r0
 1653 0010 60B3     		cbz	r0, .L164
 1654              		.loc 1 582 0
 1655 0012 05F0F003 		and	r3, r5, #240
 1656              		.loc 1 574 0
 1657 0016 0022     		movs	r2, #0
 1658              		.loc 1 582 0
 1659 0018 202B     		cmp	r3, #32
 1660              		.loc 1 574 0
 1661 001a 0272     		strb	r2, [r0, #8]
 1662              		.loc 1 575 0
 1663 001c 0570     		strb	r5, [r0, #0]
 1664              		.loc 1 576 0
 1665 001e 4260     		str	r2, [r0, #4]
 1666              		.loc 1 582 0
 1667 0020 27D0     		beq	.L167
 1668 0022 402B     		cmp	r3, #64
 1669 0024 25D0     		beq	.L167
 1670 0026 102B     		cmp	r3, #16
 1671 0028 26D0     		beq	.L172
 1672              		.loc 1 599 0 discriminator 1
 1673 002a FFF7FEFF 		bl	port_halt
 1674              	.LVL123:
 1675              	.L166:
 1676              		.loc 1 604 0
 1677 002e 04F10C06 		add	r6, r4, #12
 1678 0032 3046     		mov	r0, r6
 1679 0034 0021     		movs	r1, #0
 1680 0036 FFF7FEFF 		bl	sys_sem_new
 1681 003a 0546     		mov	r5, r0
 1682 003c F8B9     		cbnz	r0, .L173
 1683              		.loc 1 608 0
 1684 003e 4146     		mov	r1, r8
 1685 0040 04F11000 		add	r0, r4, #16
 1686 0044 FFF7FEFF 		bl	sys_mbox_new
 1687 0048 8046     		mov	r8, r0
 1688              	.LVL124:
 1689 004a F0B9     		cbnz	r0, .L174
 1690              		.loc 1 615 0
 1691 004c 04F11400 		add	r0, r4, #20
 1692 0050 FFF7FEFF 		bl	sys_mbox_set_invalid
 1693              		.loc 1 620 0
 1694 0054 4FF0FF33 		mov	r3, #-1
 1695              		.loc 1 617 0
 1696 0058 84F80180 		strb	r8, [r4, #1]
 1697              		.loc 1 620 0
ARM GAS  /var/folders/5n/p_75w94d66l9ssrldxqdhh700000gn/T//ccmhGqes.s 			page 31


 1698 005c A361     		str	r3, [r4, #24]
 1699              		.loc 1 622 0
 1700 005e A762     		str	r7, [r4, #40]
 1701              		.loc 1 624 0
 1702 0060 C4F82480 		str	r8, [r4, #36]
 1703              		.loc 1 625 0
 1704 0064 C4F82080 		str	r8, [r4, #32]
 1705              		.loc 1 634 0
 1706 0068 84F81C80 		strb	r8, [r4, #28]
 1707              	.LVL125:
 1708              	.L164:
 1709              		.loc 1 636 0
 1710 006c 2046     		mov	r0, r4
 1711 006e BDE8F081 		pop	{r4, r5, r6, r7, r8, pc}
 1712              	.LVL126:
 1713              	.L167:
 1714              		.loc 1 585 0
 1715 0072 4FF00408 		mov	r8, #4
 1716 0076 DAE7     		b	.L166
 1717              	.L172:
 1718              		.loc 1 595 0
 1719 0078 4FF02808 		mov	r8, #40
 1720 007c D7E7     		b	.L166
 1721              	.LVL127:
 1722              	.L173:
 1723              		.loc 1 605 0
 1724 007e 2146     		mov	r1, r4
 1725 0080 0820     		movs	r0, #8
 1726 0082 FFF7FEFF 		bl	memp_free
 1727              		.loc 1 606 0
 1728 0086 0024     		movs	r4, #0
 1729              	.LVL128:
 1730 0088 F0E7     		b	.L164
 1731              	.LVL129:
 1732              	.L174:
 1733              		.loc 1 609 0
 1734 008a 3046     		mov	r0, r6
 1735 008c FFF7FEFF 		bl	sys_sem_free
 1736              		.loc 1 610 0
 1737 0090 2146     		mov	r1, r4
 1738 0092 0820     		movs	r0, #8
 1739 0094 FFF7FEFF 		bl	memp_free
 1740              		.loc 1 611 0
 1741 0098 2C46     		mov	r4, r5
 1742 009a E7E7     		b	.L164
 1743              		.cfi_endproc
 1744              	.LFE17:
 1745              		.size	netconn_alloc, .-netconn_alloc
 1746 009c AFF30080 		.section	.text.netconn_free,"ax",%progbits
 1747              		.align	2
 1748              		.p2align 4,,15
 1749              		.global	netconn_free
 1750              		.thumb
 1751              		.thumb_func
 1752              		.type	netconn_free, %function
 1753              	netconn_free:
 1754              	.LFB18:
ARM GAS  /var/folders/5n/p_75w94d66l9ssrldxqdhh700000gn/T//ccmhGqes.s 			page 32


 1755              		.loc 1 646 0
 1756              		.cfi_startproc
 1757              		@ args = 0, pretend = 0, frame = 0
 1758              		@ frame_needed = 0, uses_anonymous_args = 0
 1759              	.LVL130:
 1760 0000 38B5     		push	{r3, r4, r5, lr}
 1761              	.LCFI13:
 1762              		.cfi_def_cfa_offset 16
 1763              		.cfi_offset 14, -4
 1764              		.cfi_offset 5, -8
 1765              		.cfi_offset 4, -12
 1766              		.cfi_offset 3, -16
 1767              		.loc 1 647 0
 1768 0002 4368     		ldr	r3, [r0, #4]
 1769              		.loc 1 646 0
 1770 0004 0446     		mov	r4, r0
 1771              		.loc 1 647 0
 1772 0006 0BB1     		cbz	r3, .L176
 1773              		.loc 1 647 0 is_stmt 0 discriminator 1
 1774 0008 FFF7FEFF 		bl	port_halt
 1775              	.LVL131:
 1776              	.L176:
 1777              		.loc 1 648 0 is_stmt 1
 1778 000c 04F11000 		add	r0, r4, #16
 1779 0010 FFF7FEFF 		bl	sys_mbox_valid
 1780 0014 A0B9     		cbnz	r0, .L179
 1781              	.L177:
 1782              		.loc 1 651 0
 1783 0016 04F11400 		add	r0, r4, #20
 1784 001a FFF7FEFF 		bl	sys_mbox_valid
 1785 001e 08B1     		cbz	r0, .L178
 1786              		.loc 1 651 0 is_stmt 0 discriminator 1
 1787 0020 FFF7FEFF 		bl	port_halt
 1788              	.L178:
 1789              		.loc 1 655 0 is_stmt 1
 1790 0024 04F10C05 		add	r5, r4, #12
 1791 0028 2846     		mov	r0, r5
 1792 002a FFF7FEFF 		bl	sys_sem_free
 1793              		.loc 1 656 0
 1794 002e 2846     		mov	r0, r5
 1795 0030 FFF7FEFF 		bl	sys_sem_set_invalid
 1796              		.loc 1 658 0
 1797 0034 0820     		movs	r0, #8
 1798 0036 2146     		mov	r1, r4
 1799              		.loc 1 659 0
 1800 0038 BDE83840 		pop	{r3, r4, r5, lr}
 1801              		.loc 1 658 0
 1802 003c FFF7FEBF 		b	memp_free
 1803              	.L179:
 1804              		.loc 1 648 0 discriminator 1
 1805 0040 FFF7FEFF 		bl	port_halt
 1806 0044 E7E7     		b	.L177
 1807              		.cfi_endproc
 1808              	.LFE18:
 1809              		.size	netconn_free, .-netconn_free
 1810 0046 00BFAFF3 		.section	.text.netconn_drain,"ax",%progbits
 1810      0080AFF3 
ARM GAS  /var/folders/5n/p_75w94d66l9ssrldxqdhh700000gn/T//ccmhGqes.s 			page 33


 1810      0080
 1811              		.align	2
 1812              		.p2align 4,,15
 1813              		.thumb
 1814              		.thumb_func
 1815              		.type	netconn_drain, %function
 1816              	netconn_drain:
 1817              	.LFB19:
 1818              		.loc 1 671 0
 1819              		.cfi_startproc
 1820              		@ args = 0, pretend = 0, frame = 8
 1821              		@ frame_needed = 0, uses_anonymous_args = 0
 1822              	.LVL132:
 1823 0000 2DE9F041 		push	{r4, r5, r6, r7, r8, lr}
 1824              	.LCFI14:
 1825              		.cfi_def_cfa_offset 24
 1826              		.cfi_offset 14, -4
 1827              		.cfi_offset 8, -8
 1828              		.cfi_offset 7, -12
 1829              		.cfi_offset 6, -16
 1830              		.cfi_offset 5, -20
 1831              		.cfi_offset 4, -24
 1832              		.loc 1 680 0
 1833 0004 00F11006 		add	r6, r0, #16
 1834              		.loc 1 671 0
 1835 0008 0446     		mov	r4, r0
 1836 000a 82B0     		sub	sp, sp, #8
 1837              	.LCFI15:
 1838              		.cfi_def_cfa_offset 32
 1839              		.loc 1 680 0
 1840 000c 3046     		mov	r0, r6
 1841              	.LVL133:
 1842 000e FFF7FEFF 		bl	sys_mbox_valid
 1843 0012 00B3     		cbz	r0, .L182
 1844 0014 01AD     		add	r5, sp, #4
 1845              	.LVL134:
 1846              	.L196:
 1847              		.loc 1 681 0 discriminator 1
 1848 0016 2946     		mov	r1, r5
 1849 0018 3046     		mov	r0, r6
 1850 001a FFF7FEFF 		bl	sys_arch_mbox_tryfetch
 1851 001e 0130     		adds	r0, r0, #1
 1852 0020 13D0     		beq	.L197
 1853              		.loc 1 683 0
 1854 0022 2378     		ldrb	r3, [r4, #0]	@ zero_extendqisi2
 1855 0024 102B     		cmp	r3, #16
 1856 0026 0CD1     		bne	.L183
 1857              		.loc 1 684 0
 1858 0028 019F     		ldr	r7, [sp, #4]
 1859 002a 002F     		cmp	r7, #0
 1860 002c F3D0     		beq	.L196
 1861              	.LVL135:
 1862              		.loc 1 687 0
 1863 002e 6368     		ldr	r3, [r4, #4]
 1864              		.loc 1 688 0
 1865 0030 1846     		mov	r0, r3
 1866              		.loc 1 687 0
ARM GAS  /var/folders/5n/p_75w94d66l9ssrldxqdhh700000gn/T//ccmhGqes.s 			page 34


 1867 0032 13B1     		cbz	r3, .L185
 1868              		.loc 1 688 0
 1869 0034 3989     		ldrh	r1, [r7, #8]
 1870 0036 FFF7FEFF 		bl	tcp_recved
 1871              	.LVL136:
 1872              	.L185:
 1873              		.loc 1 690 0
 1874 003a 3846     		mov	r0, r7
 1875 003c FFF7FEFF 		bl	pbuf_free
 1876 0040 E9E7     		b	.L196
 1877              	.LVL137:
 1878              	.L183:
 1879              		.loc 1 695 0
 1880 0042 0198     		ldr	r0, [sp, #4]
 1881 0044 FFF7FEFF 		bl	netbuf_delete
 1882 0048 E5E7     		b	.L196
 1883              	.L197:
 1884              		.loc 1 698 0
 1885 004a 3046     		mov	r0, r6
 1886 004c FFF7FEFF 		bl	sys_mbox_free
 1887              		.loc 1 699 0
 1888 0050 3046     		mov	r0, r6
 1889 0052 FFF7FEFF 		bl	sys_mbox_set_invalid
 1890              	.L182:
 1891              		.loc 1 704 0
 1892 0056 04F11406 		add	r6, r4, #20
 1893 005a 3046     		mov	r0, r6
 1894 005c FFF7FEFF 		bl	sys_mbox_valid
 1895 0060 28B3     		cbz	r0, .L180
 1896 0062 01AD     		add	r5, sp, #4
 1897              	.LBB46:
 1898              		.loc 1 716 0
 1899 0064 0027     		movs	r7, #0
 1900 0066 16E0     		b	.L187
 1901              	.L191:
 1902              		.loc 1 709 0
 1903 0068 6368     		ldr	r3, [r4, #4]
 1904              		.loc 1 706 0
 1905 006a DDF80480 		ldr	r8, [sp, #4]
 1906              	.LVL138:
 1907              		.loc 1 709 0
 1908 006e 23B1     		cbz	r3, .L189
 1909              		.loc 1 710 0
 1910 0070 1B7C     		ldrb	r3, [r3, #16]	@ zero_extendqisi2
 1911 0072 012B     		cmp	r3, #1
 1912 0074 01D0     		beq	.L189
 1913              		.loc 1 710 0 is_stmt 0 discriminator 1
 1914 0076 FFF7FEFF 		bl	port_halt
 1915              	.LVL139:
 1916              	.L189:
 1917              		.loc 1 713 0 is_stmt 1
 1918 007a 4046     		mov	r0, r8
 1919 007c FFF7C0FF 		bl	netconn_drain
 1920              		.loc 1 714 0
 1921 0080 D8F80430 		ldr	r3, [r8, #4]
 1922              		.loc 1 715 0
 1923 0084 1846     		mov	r0, r3
ARM GAS  /var/folders/5n/p_75w94d66l9ssrldxqdhh700000gn/T//ccmhGqes.s 			page 35


 1924              		.loc 1 714 0
 1925 0086 1BB1     		cbz	r3, .L190
 1926              		.loc 1 715 0
 1927 0088 FFF7FEFF 		bl	tcp_abort
 1928              		.loc 1 716 0
 1929 008c C8F80470 		str	r7, [r8, #4]
 1930              	.L190:
 1931              		.loc 1 718 0
 1932 0090 4046     		mov	r0, r8
 1933 0092 FFF7FEFF 		bl	netconn_free
 1934              	.LVL140:
 1935              	.L187:
 1936              	.LBE46:
 1937              		.loc 1 705 0 discriminator 1
 1938 0096 2946     		mov	r1, r5
 1939 0098 3046     		mov	r0, r6
 1940 009a FFF7FEFF 		bl	sys_arch_mbox_tryfetch
 1941 009e 0130     		adds	r0, r0, #1
 1942 00a0 E2D1     		bne	.L191
 1943              		.loc 1 720 0
 1944 00a2 3046     		mov	r0, r6
 1945 00a4 FFF7FEFF 		bl	sys_mbox_free
 1946              		.loc 1 721 0
 1947 00a8 3046     		mov	r0, r6
 1948 00aa FFF7FEFF 		bl	sys_mbox_set_invalid
 1949              	.L180:
 1950              		.loc 1 724 0
 1951 00ae 02B0     		add	sp, sp, #8
 1952 00b0 BDE8F081 		pop	{r4, r5, r6, r7, r8, pc}
 1953              		.cfi_endproc
 1954              	.LFE19:
 1955              		.size	netconn_drain, .-netconn_drain
 1956 00b4 AFF30080 		.section	.text.accept_function,"ax",%progbits
 1956      AFF30080 
 1956      AFF30080 
 1957              		.align	2
 1958              		.p2align 4,,15
 1959              		.thumb
 1960              		.thumb_func
 1961              		.type	accept_function, %function
 1962              	accept_function:
 1963              	.LFB14:
 1964              		.loc 1 433 0
 1965              		.cfi_startproc
 1966              		@ args = 0, pretend = 0, frame = 0
 1967              		@ frame_needed = 0, uses_anonymous_args = 0
 1968              	.LVL141:
 1969 0000 2DE9F041 		push	{r4, r5, r6, r7, r8, lr}
 1970              	.LCFI16:
 1971              		.cfi_def_cfa_offset 24
 1972              		.cfi_offset 14, -4
 1973              		.cfi_offset 8, -8
 1974              		.cfi_offset 7, -12
 1975              		.cfi_offset 6, -16
 1976              		.cfi_offset 5, -20
 1977              		.cfi_offset 4, -24
 1978              		.loc 1 439 0
ARM GAS  /var/folders/5n/p_75w94d66l9ssrldxqdhh700000gn/T//ccmhGqes.s 			page 36


 1979 0004 00F11405 		add	r5, r0, #20
 1980              		.loc 1 433 0
 1981 0008 0446     		mov	r4, r0
 1982              	.LVL142:
 1983              		.loc 1 439 0
 1984 000a 2846     		mov	r0, r5
 1985              	.LVL143:
 1986              		.loc 1 433 0
 1987 000c 0E46     		mov	r6, r1
 1988 000e 9046     		mov	r8, r2
 1989              		.loc 1 439 0
 1990 0010 FFF7FEFF 		bl	sys_mbox_valid
 1991              	.LVL144:
 1992 0014 E8B1     		cbz	r0, .L201
 1993              		.loc 1 446 0
 1994 0016 2078     		ldrb	r0, [r4, #0]	@ zero_extendqisi2
 1995 0018 A16A     		ldr	r1, [r4, #40]
 1996 001a FFF7FEFF 		bl	netconn_alloc
 1997              	.LVL145:
 1998              		.loc 1 447 0
 1999 001e 0746     		mov	r7, r0
 2000 0020 C8B1     		cbz	r0, .L202
 2001              		.loc 1 450 0
 2002 0022 4660     		str	r6, [r0, #4]
 2003              		.loc 1 451 0
 2004 0024 FFF7FEFF 		bl	setup_tcp
 2005              	.LVL146:
 2006              		.loc 1 456 0
 2007 0028 2846     		mov	r0, r5
 2008              		.loc 1 454 0
 2009 002a 87F80880 		strb	r8, [r7, #8]
 2010              		.loc 1 456 0
 2011 002e 3946     		mov	r1, r7
 2012 0030 FFF7FEFF 		bl	sys_mbox_trypost
 2013 0034 0546     		mov	r5, r0
 2014              	.LVL147:
 2015 0036 80B9     		cbnz	r0, .L204
 2016              		.loc 1 467 0
 2017 0038 A36A     		ldr	r3, [r4, #40]
 2018 003a 33B1     		cbz	r3, .L203
 2019              		.loc 1 467 0 is_stmt 0 discriminator 1
 2020 003c 2046     		mov	r0, r4
 2021 003e 2946     		mov	r1, r5
 2022 0040 2A46     		mov	r2, r5
 2023 0042 9847     		blx	r3
 2024              	.LVL148:
 2025              	.L199:
 2026              		.loc 1 471 0 is_stmt 1
 2027 0044 68B2     		sxtb	r0, r5
 2028 0046 BDE8F081 		pop	{r4, r5, r6, r7, r8, pc}
 2029              	.LVL149:
 2030              	.L203:
 2031              		.loc 1 470 0
 2032 004a 1D46     		mov	r5, r3
 2033              		.loc 1 471 0
 2034 004c 68B2     		sxtb	r0, r5
 2035 004e BDE8F081 		pop	{r4, r5, r6, r7, r8, pc}
ARM GAS  /var/folders/5n/p_75w94d66l9ssrldxqdhh700000gn/T//ccmhGqes.s 			page 37


 2036              	.LVL150:
 2037              	.L201:
 2038              		.loc 1 441 0
 2039 0052 FA25     		movs	r5, #250
 2040 0054 F6E7     		b	.L199
 2041              	.LVL151:
 2042              	.L202:
 2043              		.loc 1 448 0
 2044 0056 FF25     		movs	r5, #255
 2045 0058 F4E7     		b	.L199
 2046              	.LVL152:
 2047              	.L204:
 2048              		.loc 1 459 0
 2049 005a 0023     		movs	r3, #0
 2050              		.loc 1 461 0
 2051 005c 07F11004 		add	r4, r7, #16
 2052              	.LVL153:
 2053              		.loc 1 459 0
 2054 0060 7B60     		str	r3, [r7, #4]
 2055              		.loc 1 461 0
 2056 0062 2046     		mov	r0, r4
 2057 0064 FFF7FEFF 		bl	sys_mbox_free
 2058              		.loc 1 462 0
 2059 0068 2046     		mov	r0, r4
 2060 006a FFF7FEFF 		bl	sys_mbox_set_invalid
 2061              		.loc 1 463 0
 2062 006e 3846     		mov	r0, r7
 2063 0070 FFF7FEFF 		bl	netconn_free
 2064              		.loc 1 464 0
 2065 0074 FF25     		movs	r5, #255
 2066 0076 E5E7     		b	.L199
 2067              		.cfi_endproc
 2068              	.LFE14:
 2069              		.size	accept_function, .-accept_function
 2070 0078 AFF30080 		.section	.text.do_delconn,"ax",%progbits
 2070      AFF30080 
 2071              		.align	2
 2072              		.p2align 4,,15
 2073              		.global	do_delconn
 2074              		.thumb
 2075              		.thumb_func
 2076              		.type	do_delconn, %function
 2077              	do_delconn:
 2078              	.LFB21:
 2079              		.loc 1 821 0
 2080              		.cfi_startproc
 2081              		@ args = 0, pretend = 0, frame = 0
 2082              		@ frame_needed = 0, uses_anonymous_args = 0
 2083              	.LVL154:
 2084              		.loc 1 823 0
 2085 0000 0268     		ldr	r2, [r0, #0]
 2086 0002 5378     		ldrb	r3, [r2, #1]	@ zero_extendqisi2
 2087 0004 022B     		cmp	r3, #2
 2088 0006 18BF     		it	ne
 2089 0008 002B     		cmpne	r3, #0
 2090              		.loc 1 821 0
 2091 000a 10B5     		push	{r4, lr}
ARM GAS  /var/folders/5n/p_75w94d66l9ssrldxqdhh700000gn/T//ccmhGqes.s 			page 38


 2092              	.LCFI17:
 2093              		.cfi_def_cfa_offset 8
 2094              		.cfi_offset 14, -4
 2095              		.cfi_offset 4, -8
 2096              		.loc 1 821 0
 2097 000c 0446     		mov	r4, r0
 2098              		.loc 1 823 0
 2099 000e 10D0     		beq	.L206
 2100              		.loc 1 824 0
 2101 0010 032B     		cmp	r3, #3
 2102 0012 48D0     		beq	.L207
 2103              		.loc 1 827 0
 2104 0014 1378     		ldrb	r3, [r2, #0]	@ zero_extendqisi2
 2105 0016 102B     		cmp	r3, #16
 2106 0018 02D0     		beq	.L208
 2107              		.loc 1 827 0 is_stmt 0 discriminator 1
 2108 001a FFF7FEFF 		bl	port_halt
 2109              	.LVL155:
 2110 001e 2268     		ldr	r2, [r4, #0]
 2111              	.L208:
 2112              		.loc 1 828 0 is_stmt 1
 2113 0020 FB23     		movs	r3, #251
 2114 0022 2371     		strb	r3, [r4, #4]
 2115              	.L209:
 2116              		.loc 1 873 0
 2117 0024 02F10C00 		add	r0, r2, #12
 2118 0028 FFF7FEFF 		bl	sys_sem_valid
 2119 002c 0028     		cmp	r0, #0
 2120 002e 2AD1     		bne	.L219
 2121              	.L205:
 2122 0030 10BD     		pop	{r4, pc}
 2123              	.L206:
 2124              		.loc 1 830 0
 2125 0032 032B     		cmp	r3, #3
 2126 0034 37D0     		beq	.L207
 2127              	.L210:
 2128              		.loc 1 833 0
 2129 0036 1046     		mov	r0, r2
 2130 0038 FFF7FEFF 		bl	netconn_drain
 2131              		.loc 1 835 0
 2132 003c 2268     		ldr	r2, [r4, #0]
 2133 003e 5068     		ldr	r0, [r2, #4]
 2134 0040 58B1     		cbz	r0, .L211
 2135              		.loc 1 837 0
 2136 0042 1378     		ldrb	r3, [r2, #0]	@ zero_extendqisi2
 2137 0044 03F0F003 		and	r3, r3, #240
 2138 0048 202B     		cmp	r3, #32
 2139 004a 22D0     		beq	.L214
 2140 004c 402B     		cmp	r3, #64
 2141 004e 40D0     		beq	.L215
 2142 0050 102B     		cmp	r3, #16
 2143 0052 2FD0     		beq	.L220
 2144              		.loc 1 864 0
 2145 0054 0023     		movs	r3, #0
 2146 0056 5360     		str	r3, [r2, #4]
 2147 0058 2268     		ldr	r2, [r4, #0]
 2148              	.L211:
ARM GAS  /var/folders/5n/p_75w94d66l9ssrldxqdhh700000gn/T//ccmhGqes.s 			page 39


 2149              		.loc 1 870 0
 2150 005a 936A     		ldr	r3, [r2, #40]
 2151 005c 002B     		cmp	r3, #0
 2152 005e E1D0     		beq	.L209
 2153              		.loc 1 870 0 is_stmt 0 discriminator 1
 2154 0060 0021     		movs	r1, #0
 2155 0062 1046     		mov	r0, r2
 2156 0064 0A46     		mov	r2, r1
 2157 0066 9847     		blx	r3
 2158              		.loc 1 871 0 is_stmt 1 discriminator 1
 2159 0068 2268     		ldr	r2, [r4, #0]
 2160 006a 936A     		ldr	r3, [r2, #40]
 2161 006c 002B     		cmp	r3, #0
 2162 006e D9D0     		beq	.L209
 2163 0070 1046     		mov	r0, r2
 2164 0072 0221     		movs	r1, #2
 2165 0074 0022     		movs	r2, #0
 2166 0076 9847     		blx	r3
 2167 0078 2268     		ldr	r2, [r4, #0]
 2168              		.loc 1 873 0 discriminator 1
 2169 007a 02F10C00 		add	r0, r2, #12
 2170 007e FFF7FEFF 		bl	sys_sem_valid
 2171 0082 0028     		cmp	r0, #0
 2172 0084 D4D0     		beq	.L205
 2173              	.L219:
 2174              		.loc 1 874 0
 2175 0086 2068     		ldr	r0, [r4, #0]
 2176 0088 0C30     		adds	r0, r0, #12
 2177              		.loc 1 876 0
 2178 008a BDE81040 		pop	{r4, lr}
 2179              		.loc 1 874 0
 2180 008e FFF7FEBF 		b	sys_sem_signal
 2181              	.L214:
 2182              		.loc 1 845 0
 2183 0092 0023     		movs	r3, #0
 2184 0094 C361     		str	r3, [r0, #28]
 2185              		.loc 1 846 0
 2186 0096 5068     		ldr	r0, [r2, #4]
 2187 0098 FFF7FEFF 		bl	udp_remove
 2188 009c 2268     		ldr	r2, [r4, #0]
 2189              		.loc 1 864 0
 2190 009e 0023     		movs	r3, #0
 2191 00a0 5360     		str	r3, [r2, #4]
 2192 00a2 2268     		ldr	r2, [r4, #0]
 2193 00a4 D9E7     		b	.L211
 2194              	.L207:
 2195              		.loc 1 830 0 discriminator 1
 2196 00a6 137F     		ldrb	r3, [r2, #28]	@ zero_extendqisi2
 2197 00a8 5907     		lsls	r1, r3, #29
 2198 00aa C4D4     		bmi	.L210
 2199              		.loc 1 830 0 is_stmt 0 discriminator 2
 2200 00ac FFF7FEFF 		bl	port_halt
 2201 00b0 2268     		ldr	r2, [r4, #0]
 2202 00b2 C0E7     		b	.L210
 2203              	.L220:
 2204              		.loc 1 851 0 is_stmt 1
 2205 00b4 536A     		ldr	r3, [r2, #36]
ARM GAS  /var/folders/5n/p_75w94d66l9ssrldxqdhh700000gn/T//ccmhGqes.s 			page 40


 2206 00b6 9BB1     		cbz	r3, .L221
 2207              	.L216:
 2208              		.loc 1 851 0 is_stmt 0 discriminator 1
 2209 00b8 FFF7FEFF 		bl	port_halt
 2210 00bc 2268     		ldr	r2, [r4, #0]
 2211              	.L217:
 2212              		.loc 1 853 0 is_stmt 1
 2213 00be 0423     		movs	r3, #4
 2214 00c0 5370     		strb	r3, [r2, #1]
 2215              		.loc 1 856 0
 2216 00c2 1046     		mov	r0, r2
 2217              		.loc 1 854 0
 2218 00c4 0323     		movs	r3, #3
 2219 00c6 2372     		strb	r3, [r4, #8]
 2220              		.loc 1 855 0
 2221 00c8 5462     		str	r4, [r2, #36]
 2222              		.loc 1 876 0
 2223 00ca BDE81040 		pop	{r4, lr}
 2224              		.loc 1 856 0
 2225 00ce FFF7FEBF 		b	do_close_internal
 2226              	.L215:
 2227              		.loc 1 840 0
 2228 00d2 FFF7FEFF 		bl	raw_remove
 2229 00d6 2268     		ldr	r2, [r4, #0]
 2230              		.loc 1 864 0
 2231 00d8 0023     		movs	r3, #0
 2232 00da 5360     		str	r3, [r2, #4]
 2233 00dc 2268     		ldr	r2, [r4, #0]
 2234 00de BCE7     		b	.L211
 2235              	.L221:
 2236              		.loc 1 851 0 discriminator 2
 2237 00e0 136A     		ldr	r3, [r2, #32]
 2238 00e2 002B     		cmp	r3, #0
 2239 00e4 E8D1     		bne	.L216
 2240 00e6 EAE7     		b	.L217
 2241              		.cfi_endproc
 2242              	.LFE21:
 2243              		.size	do_delconn, .-do_delconn
 2244 00e8 AFF30080 		.section	.text.do_bind,"ax",%progbits
 2244      AFF30080 
 2245              		.align	2
 2246              		.p2align 4,,15
 2247              		.global	do_bind
 2248              		.thumb
 2249              		.thumb_func
 2250              		.type	do_bind, %function
 2251              	do_bind:
 2252              	.LFB22:
 2253              		.loc 1 887 0
 2254              		.cfi_startproc
 2255              		@ args = 0, pretend = 0, frame = 0
 2256              		@ frame_needed = 0, uses_anonymous_args = 0
 2257              	.LVL156:
 2258 0000 10B5     		push	{r4, lr}
 2259              	.LCFI18:
 2260              		.cfi_def_cfa_offset 8
 2261              		.cfi_offset 14, -4
ARM GAS  /var/folders/5n/p_75w94d66l9ssrldxqdhh700000gn/T//ccmhGqes.s 			page 41


 2262              		.cfi_offset 4, -8
 2263              		.loc 1 888 0
 2264 0002 0368     		ldr	r3, [r0, #0]
 2265 0004 1A7A     		ldrb	r2, [r3, #8]	@ zero_extendqisi2
 2266 0006 51B2     		sxtb	r1, r2
 2267 0008 0931     		adds	r1, r1, #9
 2268              		.loc 1 887 0
 2269 000a 0446     		mov	r4, r0
 2270              		.loc 1 889 0
 2271 000c B8BF     		it	lt
 2272 000e 0271     		strblt	r2, [r0, #4]
 2273              		.loc 1 888 0
 2274 0010 0CDB     		blt	.L224
 2275              		.loc 1 891 0
 2276 0012 FA22     		movs	r2, #250
 2277 0014 0271     		strb	r2, [r0, #4]
 2278              		.loc 1 892 0
 2279 0016 5868     		ldr	r0, [r3, #4]
 2280              	.LVL157:
 2281 0018 40B1     		cbz	r0, .L224
 2282              		.loc 1 893 0
 2283 001a 1A78     		ldrb	r2, [r3, #0]	@ zero_extendqisi2
 2284 001c 02F0F002 		and	r2, r2, #240
 2285 0020 202A     		cmp	r2, #32
 2286 0022 09D0     		beq	.L226
 2287 0024 402A     		cmp	r2, #64
 2288 0026 15D0     		beq	.L227
 2289 0028 102A     		cmp	r2, #16
 2290 002a 0CD0     		beq	.L228
 2291              	.L224:
 2292              		.loc 1 914 0
 2293 002c 03F10C00 		add	r0, r3, #12
 2294              		.loc 1 915 0
 2295 0030 BDE81040 		pop	{r4, lr}
 2296              		.loc 1 914 0
 2297 0034 FFF7FEBF 		b	sys_sem_signal
 2298              	.L226:
 2299              		.loc 1 901 0
 2300 0038 A168     		ldr	r1, [r4, #8]
 2301 003a A289     		ldrh	r2, [r4, #12]
 2302 003c FFF7FEFF 		bl	udp_bind
 2303 0040 2368     		ldr	r3, [r4, #0]
 2304 0042 2071     		strb	r0, [r4, #4]
 2305              		.loc 1 902 0
 2306 0044 F2E7     		b	.L224
 2307              	.L228:
 2308              		.loc 1 906 0
 2309 0046 A168     		ldr	r1, [r4, #8]
 2310 0048 A289     		ldrh	r2, [r4, #12]
 2311 004a FFF7FEFF 		bl	tcp_bind
 2312 004e 2368     		ldr	r3, [r4, #0]
 2313 0050 2071     		strb	r0, [r4, #4]
 2314              		.loc 1 907 0
 2315 0052 EBE7     		b	.L224
 2316              	.L227:
 2317              		.loc 1 896 0
 2318 0054 A168     		ldr	r1, [r4, #8]
ARM GAS  /var/folders/5n/p_75w94d66l9ssrldxqdhh700000gn/T//ccmhGqes.s 			page 42


 2319 0056 FFF7FEFF 		bl	raw_bind
 2320 005a 2368     		ldr	r3, [r4, #0]
 2321 005c 2071     		strb	r0, [r4, #4]
 2322              		.loc 1 897 0
 2323 005e E5E7     		b	.L224
 2324              		.cfi_endproc
 2325              	.LFE22:
 2326              		.size	do_bind, .-do_bind
 2327              		.section	.text.do_connect,"ax",%progbits
 2328              		.align	2
 2329              		.p2align 4,,15
 2330              		.global	do_connect
 2331              		.thumb
 2332              		.thumb_func
 2333              		.type	do_connect, %function
 2334              	do_connect:
 2335              	.LFB24:
 2336              		.loc 1 973 0
 2337              		.cfi_startproc
 2338              		@ args = 0, pretend = 0, frame = 0
 2339              		@ frame_needed = 0, uses_anonymous_args = 0
 2340              	.LVL158:
 2341 0000 10B5     		push	{r4, lr}
 2342              	.LCFI19:
 2343              		.cfi_def_cfa_offset 8
 2344              		.cfi_offset 14, -4
 2345              		.cfi_offset 4, -8
 2346              		.loc 1 974 0
 2347 0002 0368     		ldr	r3, [r0, #0]
 2348              		.loc 1 973 0
 2349 0004 0446     		mov	r4, r0
 2350              		.loc 1 974 0
 2351 0006 5868     		ldr	r0, [r3, #4]
 2352              	.LVL159:
 2353 0008 0028     		cmp	r0, #0
 2354 000a 3FD0     		beq	.L241
 2355              		.loc 1 978 0
 2356 000c 1A78     		ldrb	r2, [r3, #0]	@ zero_extendqisi2
 2357 000e 02F0F002 		and	r2, r2, #240
 2358 0012 202A     		cmp	r2, #32
 2359 0014 19D0     		beq	.L234
 2360 0016 402A     		cmp	r2, #64
 2361 0018 0CD0     		beq	.L235
 2362 001a 102A     		cmp	r2, #16
 2363 001c 10D0     		beq	.L242
 2364              		.loc 1 1015 0 discriminator 1
 2365 001e FFF7FEFF 		bl	port_halt
 2366 0022 FA22     		movs	r2, #250
 2367 0024 2368     		ldr	r3, [r4, #0]
 2368 0026 2271     		strb	r2, [r4, #4]
 2369              	.L231:
 2370              		.loc 1 1019 0
 2371 0028 03F10C00 		add	r0, r3, #12
 2372              		.loc 1 1020 0
 2373 002c BDE81040 		pop	{r4, lr}
 2374              		.loc 1 1019 0
 2375 0030 FFF7FEBF 		b	sys_sem_signal
ARM GAS  /var/folders/5n/p_75w94d66l9ssrldxqdhh700000gn/T//ccmhGqes.s 			page 43


 2376              	.L235:
 2377              		.loc 1 981 0
 2378 0034 A168     		ldr	r1, [r4, #8]
 2379 0036 FFF7FEFF 		bl	raw_connect
 2380 003a 2368     		ldr	r3, [r4, #0]
 2381 003c 2071     		strb	r0, [r4, #4]
 2382              		.loc 1 982 0
 2383 003e F3E7     		b	.L231
 2384              	.L242:
 2385              		.loc 1 992 0
 2386 0040 5A78     		ldrb	r2, [r3, #1]	@ zero_extendqisi2
 2387 0042 4AB1     		cbz	r2, .L236
 2388              		.loc 1 993 0
 2389 0044 F722     		movs	r2, #247
 2390 0046 2271     		strb	r2, [r4, #4]
 2391 0048 EEE7     		b	.L231
 2392              	.L234:
 2393              		.loc 1 986 0
 2394 004a A168     		ldr	r1, [r4, #8]
 2395 004c A289     		ldrh	r2, [r4, #12]
 2396 004e FFF7FEFF 		bl	udp_connect
 2397 0052 2368     		ldr	r3, [r4, #0]
 2398 0054 2071     		strb	r0, [r4, #4]
 2399              		.loc 1 987 0
 2400 0056 E7E7     		b	.L231
 2401              	.L236:
 2402              		.loc 1 995 0
 2403 0058 1846     		mov	r0, r3
 2404 005a FFF7FEFF 		bl	setup_tcp
 2405              		.loc 1 996 0
 2406 005e 2368     		ldr	r3, [r4, #0]
 2407 0060 A168     		ldr	r1, [r4, #8]
 2408 0062 5868     		ldr	r0, [r3, #4]
 2409 0064 A289     		ldrh	r2, [r4, #12]
 2410 0066 0E4B     		ldr	r3, .L243
 2411 0068 FFF7FEFF 		bl	tcp_connect
 2412              	.LBB47:
 2413              		.loc 1 999 0
 2414 006c 2368     		ldr	r3, [r4, #0]
 2415              	.LBE47:
 2416              		.loc 1 996 0
 2417 006e 2071     		strb	r0, [r4, #4]
 2418              		.loc 1 998 0
 2419 0070 0028     		cmp	r0, #0
 2420 0072 D9D1     		bne	.L231
 2421              	.LBB48:
 2422              		.loc 1 999 0
 2423 0074 1A7F     		ldrb	r2, [r3, #28]	@ zero_extendqisi2
 2424              	.LVL160:
 2425              		.loc 1 1000 0
 2426 0076 0321     		movs	r1, #3
 2427              		.loc 1 1001 0
 2428 0078 9007     		lsls	r0, r2, #30
 2429              		.loc 1 1000 0
 2430 007a 5970     		strb	r1, [r3, #1]
 2431              		.loc 1 1001 0
 2432 007c 09D5     		bpl	.L238
ARM GAS  /var/folders/5n/p_75w94d66l9ssrldxqdhh700000gn/T//ccmhGqes.s 			page 44


 2433              		.loc 1 1001 0 is_stmt 0 discriminator 1
 2434 007e 42F00402 		orr	r2, r2, #4
 2435              	.LVL161:
 2436 0082 1A77     		strb	r2, [r3, #28]
 2437              		.loc 1 1003 0 is_stmt 1 discriminator 1
 2438 0084 FB23     		movs	r3, #251
 2439 0086 2371     		strb	r3, [r4, #4]
 2440 0088 2368     		ldr	r3, [r4, #0]
 2441 008a CDE7     		b	.L231
 2442              	.L241:
 2443              	.LBE48:
 2444              		.loc 1 976 0
 2445 008c F422     		movs	r2, #244
 2446 008e 2271     		strb	r2, [r4, #4]
 2447 0090 CAE7     		b	.L231
 2448              	.LVL162:
 2449              	.L238:
 2450              	.LBB49:
 2451              		.loc 1 1001 0 discriminator 2
 2452 0092 22F00402 		bic	r2, r2, #4
 2453              	.LVL163:
 2454 0096 1A77     		strb	r2, [r3, #28]
 2455              		.loc 1 1005 0 discriminator 2
 2456 0098 2368     		ldr	r3, [r4, #0]
 2457 009a 5C62     		str	r4, [r3, #36]
 2458              	.LBE49:
 2459              		.loc 1 1020 0 discriminator 2
 2460 009c 10BD     		pop	{r4, pc}
 2461              	.L244:
 2462 009e 00BF     		.align	2
 2463              	.L243:
 2464 00a0 00000000 		.word	do_connected
 2465              		.cfi_endproc
 2466              	.LFE24:
 2467              		.size	do_connect, .-do_connect
 2468 00a4 AFF30080 		.section	.text.do_disconnect,"ax",%progbits
 2468      AFF30080 
 2468      AFF30080 
 2469              		.align	2
 2470              		.p2align 4,,15
 2471              		.global	do_disconnect
 2472              		.thumb
 2473              		.thumb_func
 2474              		.type	do_disconnect, %function
 2475              	do_disconnect:
 2476              	.LFB25:
 2477              		.loc 1 1031 0
 2478              		.cfi_startproc
 2479              		@ args = 0, pretend = 0, frame = 0
 2480              		@ frame_needed = 0, uses_anonymous_args = 0
 2481              	.LVL164:
 2482 0000 10B5     		push	{r4, lr}
 2483              	.LCFI20:
 2484              		.cfi_def_cfa_offset 8
 2485              		.cfi_offset 14, -4
 2486              		.cfi_offset 4, -8
 2487              		.loc 1 1031 0
ARM GAS  /var/folders/5n/p_75w94d66l9ssrldxqdhh700000gn/T//ccmhGqes.s 			page 45


 2488 0002 0446     		mov	r4, r0
 2489              		.loc 1 1033 0
 2490 0004 0068     		ldr	r0, [r0, #0]
 2491              	.LVL165:
 2492 0006 0378     		ldrb	r3, [r0, #0]	@ zero_extendqisi2
 2493 0008 03F0F003 		and	r3, r3, #240
 2494 000c 202B     		cmp	r3, #32
 2495 000e 06D0     		beq	.L248
 2496              		.loc 1 1039 0
 2497 0010 FA23     		movs	r3, #250
 2498 0012 2371     		strb	r3, [r4, #4]
 2499              	.L247:
 2500              		.loc 1 1041 0
 2501 0014 0C30     		adds	r0, r0, #12
 2502              		.loc 1 1042 0
 2503 0016 BDE81040 		pop	{r4, lr}
 2504              		.loc 1 1041 0
 2505 001a FFF7FEBF 		b	sys_sem_signal
 2506              	.L248:
 2507              		.loc 1 1034 0
 2508 001e 4068     		ldr	r0, [r0, #4]
 2509 0020 FFF7FEFF 		bl	udp_disconnect
 2510              		.loc 1 1035 0
 2511 0024 0023     		movs	r3, #0
 2512 0026 2371     		strb	r3, [r4, #4]
 2513 0028 2068     		ldr	r0, [r4, #0]
 2514 002a F3E7     		b	.L247
 2515              		.cfi_endproc
 2516              	.LFE25:
 2517              		.size	do_disconnect, .-do_disconnect
 2518 002c AFF30080 		.section	.text.do_listen,"ax",%progbits
 2519              		.align	2
 2520              		.p2align 4,,15
 2521              		.global	do_listen
 2522              		.thumb
 2523              		.thumb_func
 2524              		.type	do_listen, %function
 2525              	do_listen:
 2526              	.LFB26:
 2527              		.loc 1 1053 0
 2528              		.cfi_startproc
 2529              		@ args = 0, pretend = 0, frame = 0
 2530              		@ frame_needed = 0, uses_anonymous_args = 0
 2531              	.LVL166:
 2532 0000 38B5     		push	{r3, r4, r5, lr}
 2533              	.LCFI21:
 2534              		.cfi_def_cfa_offset 16
 2535              		.cfi_offset 14, -4
 2536              		.cfi_offset 5, -8
 2537              		.cfi_offset 4, -12
 2538              		.cfi_offset 3, -16
 2539              		.loc 1 1054 0
 2540 0002 0368     		ldr	r3, [r0, #0]
 2541 0004 1A7A     		ldrb	r2, [r3, #8]	@ zero_extendqisi2
 2542 0006 51B2     		sxtb	r1, r2
 2543 0008 0931     		adds	r1, r1, #9
 2544              		.loc 1 1053 0
ARM GAS  /var/folders/5n/p_75w94d66l9ssrldxqdhh700000gn/T//ccmhGqes.s 			page 46


 2545 000a 0446     		mov	r4, r0
 2546              		.loc 1 1055 0
 2547 000c B8BF     		it	lt
 2548 000e 0271     		strblt	r2, [r0, #4]
 2549              		.loc 1 1054 0
 2550 0010 06DB     		blt	.L251
 2551              		.loc 1 1057 0
 2552 0012 F322     		movs	r2, #243
 2553 0014 0271     		strb	r2, [r0, #4]
 2554              		.loc 1 1058 0
 2555 0016 5868     		ldr	r0, [r3, #4]
 2556              	.LVL167:
 2557 0018 10B1     		cbz	r0, .L251
 2558              		.loc 1 1059 0
 2559 001a 1A78     		ldrb	r2, [r3, #0]	@ zero_extendqisi2
 2560 001c 102A     		cmp	r2, #16
 2561 001e 05D0     		beq	.L257
 2562              	.L251:
 2563              		.loc 1 1095 0
 2564 0020 03F10C00 		add	r0, r3, #12
 2565              		.loc 1 1096 0
 2566 0024 BDE83840 		pop	{r3, r4, r5, lr}
 2567              		.loc 1 1095 0
 2568 0028 FFF7FEBF 		b	sys_sem_signal
 2569              	.L257:
 2570              		.loc 1 1060 0
 2571 002c 5A78     		ldrb	r2, [r3, #1]	@ zero_extendqisi2
 2572 002e 002A     		cmp	r2, #0
 2573 0030 F6D1     		bne	.L251
 2574              	.LBB50:
 2575              		.loc 1 1064 0
 2576 0032 FF21     		movs	r1, #255
 2577 0034 FFF7FEFF 		bl	tcp_listen_with_backlog
 2578              	.LVL168:
 2579              		.loc 1 1066 0
 2580 0038 0546     		mov	r5, r0
 2581 003a 0028     		cmp	r0, #0
 2582 003c 34D0     		beq	.L258
 2583              		.loc 1 1071 0
 2584 003e 2068     		ldr	r0, [r4, #0]
 2585              	.LVL169:
 2586 0040 1030     		adds	r0, r0, #16
 2587 0042 FFF7FEFF 		bl	sys_mbox_valid
 2588 0046 B8B9     		cbnz	r0, .L259
 2589              	.L253:
 2590              		.loc 1 1077 0
 2591 0048 2068     		ldr	r0, [r4, #0]
 2592              		.loc 1 1076 0
 2593 004a 0023     		movs	r3, #0
 2594 004c 2371     		strb	r3, [r4, #4]
 2595              		.loc 1 1077 0
 2596 004e 1430     		adds	r0, r0, #20
 2597 0050 FFF7FEFF 		bl	sys_mbox_valid
 2598 0054 48B1     		cbz	r0, .L254
 2599 0056 2079     		ldrb	r0, [r4, #4]	@ zero_extendqisi2
 2600              	.L255:
 2601              		.loc 1 1080 0
ARM GAS  /var/folders/5n/p_75w94d66l9ssrldxqdhh700000gn/T//ccmhGqes.s 			page 47


 2602 0058 B8B1     		cbz	r0, .L260
 2603              		.loc 1 1087 0
 2604 005a 2846     		mov	r0, r5
 2605 005c FFF7FEFF 		bl	tcp_close
 2606              		.loc 1 1088 0
 2607 0060 2368     		ldr	r3, [r4, #0]
 2608 0062 0022     		movs	r2, #0
 2609 0064 5A60     		str	r2, [r3, #4]
 2610 0066 2368     		ldr	r3, [r4, #0]
 2611 0068 DAE7     		b	.L251
 2612              	.L254:
 2613              		.loc 1 1078 0
 2614 006a 2068     		ldr	r0, [r4, #0]
 2615 006c 0421     		movs	r1, #4
 2616 006e 1430     		adds	r0, r0, #20
 2617 0070 FFF7FEFF 		bl	sys_mbox_new
 2618 0074 2071     		strb	r0, [r4, #4]
 2619 0076 EFE7     		b	.L255
 2620              	.L259:
 2621              		.loc 1 1073 0
 2622 0078 2068     		ldr	r0, [r4, #0]
 2623 007a 1030     		adds	r0, r0, #16
 2624 007c FFF7FEFF 		bl	sys_mbox_free
 2625              		.loc 1 1074 0
 2626 0080 2068     		ldr	r0, [r4, #0]
 2627 0082 1030     		adds	r0, r0, #16
 2628 0084 FFF7FEFF 		bl	sys_mbox_set_invalid
 2629 0088 DEE7     		b	.L253
 2630              	.L260:
 2631              		.loc 1 1081 0
 2632 008a 2368     		ldr	r3, [r4, #0]
 2633              		.loc 1 1082 0
 2634 008c 5D60     		str	r5, [r3, #4]
 2635              		.loc 1 1083 0
 2636 008e 2168     		ldr	r1, [r4, #0]
 2637              		.loc 1 1081 0
 2638 0090 0222     		movs	r2, #2
 2639              		.loc 1 1083 0
 2640 0092 4868     		ldr	r0, [r1, #4]
 2641              		.loc 1 1081 0
 2642 0094 5A70     		strb	r2, [r3, #1]
 2643              		.loc 1 1083 0
 2644 0096 FFF7FEFF 		bl	tcp_arg
 2645              		.loc 1 1084 0
 2646 009a 2368     		ldr	r3, [r4, #0]
 2647 009c 0449     		ldr	r1, .L261
 2648 009e 5868     		ldr	r0, [r3, #4]
 2649 00a0 FFF7FEFF 		bl	tcp_accept
 2650 00a4 2368     		ldr	r3, [r4, #0]
 2651 00a6 BBE7     		b	.L251
 2652              	.L258:
 2653              		.loc 1 1068 0
 2654 00a8 FF23     		movs	r3, #255
 2655 00aa 2371     		strb	r3, [r4, #4]
 2656 00ac 2368     		ldr	r3, [r4, #0]
 2657 00ae B7E7     		b	.L251
 2658              	.L262:
ARM GAS  /var/folders/5n/p_75w94d66l9ssrldxqdhh700000gn/T//ccmhGqes.s 			page 48


 2659              		.align	2
 2660              	.L261:
 2661 00b0 00000000 		.word	accept_function
 2662              	.LBE50:
 2663              		.cfi_endproc
 2664              	.LFE26:
 2665              		.size	do_listen, .-do_listen
 2666 00b4 AFF30080 		.section	.text.do_send,"ax",%progbits
 2666      AFF30080 
 2666      AFF30080 
 2667              		.align	2
 2668              		.p2align 4,,15
 2669              		.global	do_send
 2670              		.thumb
 2671              		.thumb_func
 2672              		.type	do_send, %function
 2673              	do_send:
 2674              	.LFB27:
 2675              		.loc 1 1107 0
 2676              		.cfi_startproc
 2677              		@ args = 0, pretend = 0, frame = 0
 2678              		@ frame_needed = 0, uses_anonymous_args = 0
 2679              	.LVL170:
 2680 0000 10B5     		push	{r4, lr}
 2681              	.LCFI22:
 2682              		.cfi_def_cfa_offset 8
 2683              		.cfi_offset 14, -4
 2684              		.cfi_offset 4, -8
 2685              		.loc 1 1108 0
 2686 0002 0368     		ldr	r3, [r0, #0]
 2687 0004 1A7A     		ldrb	r2, [r3, #8]	@ zero_extendqisi2
 2688 0006 51B2     		sxtb	r1, r2
 2689 0008 0931     		adds	r1, r1, #9
 2690              		.loc 1 1107 0
 2691 000a 0446     		mov	r4, r0
 2692              		.loc 1 1109 0
 2693 000c B8BF     		it	lt
 2694 000e 0271     		strblt	r2, [r0, #4]
 2695              		.loc 1 1108 0
 2696 0010 0ADB     		blt	.L265
 2697              		.loc 1 1111 0
 2698 0012 F322     		movs	r2, #243
 2699 0014 0271     		strb	r2, [r0, #4]
 2700              		.loc 1 1112 0
 2701 0016 5868     		ldr	r0, [r3, #4]
 2702              	.LVL171:
 2703 0018 30B1     		cbz	r0, .L265
 2704              		.loc 1 1113 0
 2705 001a 1A78     		ldrb	r2, [r3, #0]	@ zero_extendqisi2
 2706 001c 02F0F002 		and	r2, r2, #240
 2707 0020 202A     		cmp	r2, #32
 2708 0022 07D0     		beq	.L266
 2709 0024 402A     		cmp	r2, #64
 2710 0026 11D0     		beq	.L272
 2711              	.L265:
 2712              		.loc 1 1148 0
 2713 0028 03F10C00 		add	r0, r3, #12
ARM GAS  /var/folders/5n/p_75w94d66l9ssrldxqdhh700000gn/T//ccmhGqes.s 			page 49


 2714              		.loc 1 1149 0
 2715 002c BDE81040 		pop	{r4, lr}
 2716              		.loc 1 1148 0
 2717 0030 FFF7FEBF 		b	sys_sem_signal
 2718              	.L266:
 2719              		.loc 1 1135 0
 2720 0034 A368     		ldr	r3, [r4, #8]
 2721 0036 13F10802 		adds	r2, r3, #8
 2722 003a 01D0     		beq	.L270
 2723              		.loc 1 1135 0 is_stmt 0 discriminator 1
 2724 003c 9968     		ldr	r1, [r3, #8]
 2725 003e 89B9     		cbnz	r1, .L271
 2726              	.L270:
 2727              		.loc 1 1136 0 is_stmt 1
 2728 0040 1968     		ldr	r1, [r3, #0]
 2729 0042 FFF7FEFF 		bl	udp_send
 2730 0046 2368     		ldr	r3, [r4, #0]
 2731 0048 2071     		strb	r0, [r4, #4]
 2732 004a EDE7     		b	.L265
 2733              	.L272:
 2734              		.loc 1 1116 0
 2735 004c A368     		ldr	r3, [r4, #8]
 2736 004e 13F10802 		adds	r2, r3, #8
 2737 0052 01D0     		beq	.L268
 2738              		.loc 1 1116 0 is_stmt 0 discriminator 1
 2739 0054 9968     		ldr	r1, [r3, #8]
 2740 0056 61B9     		cbnz	r1, .L269
 2741              	.L268:
 2742              		.loc 1 1117 0 is_stmt 1
 2743 0058 1968     		ldr	r1, [r3, #0]
 2744 005a FFF7FEFF 		bl	raw_send
 2745 005e 2368     		ldr	r3, [r4, #0]
 2746 0060 2071     		strb	r0, [r4, #4]
 2747 0062 E1E7     		b	.L265
 2748              	.L271:
 2749              		.loc 1 1138 0
 2750 0064 1968     		ldr	r1, [r3, #0]
 2751 0066 9B89     		ldrh	r3, [r3, #12]
 2752 0068 FFF7FEFF 		bl	udp_sendto
 2753 006c 2368     		ldr	r3, [r4, #0]
 2754 006e 2071     		strb	r0, [r4, #4]
 2755 0070 DAE7     		b	.L265
 2756              	.L269:
 2757              		.loc 1 1119 0
 2758 0072 1968     		ldr	r1, [r3, #0]
 2759 0074 FFF7FEFF 		bl	raw_sendto
 2760 0078 2368     		ldr	r3, [r4, #0]
 2761 007a 2071     		strb	r0, [r4, #4]
 2762 007c D4E7     		b	.L265
 2763              		.cfi_endproc
 2764              	.LFE27:
 2765              		.size	do_send, .-do_send
 2766 007e 00BF     		.section	.text.do_recv,"ax",%progbits
 2767              		.align	2
 2768              		.p2align 4,,15
 2769              		.global	do_recv
 2770              		.thumb
ARM GAS  /var/folders/5n/p_75w94d66l9ssrldxqdhh700000gn/T//ccmhGqes.s 			page 50


 2771              		.thumb_func
 2772              		.type	do_recv, %function
 2773              	do_recv:
 2774              	.LFB28:
 2775              		.loc 1 1160 0
 2776              		.cfi_startproc
 2777              		@ args = 0, pretend = 0, frame = 0
 2778              		@ frame_needed = 0, uses_anonymous_args = 0
 2779              	.LVL172:
 2780 0000 F8B5     		push	{r3, r4, r5, r6, r7, lr}
 2781              	.LCFI23:
 2782              		.cfi_def_cfa_offset 24
 2783              		.cfi_offset 14, -4
 2784              		.cfi_offset 7, -8
 2785              		.cfi_offset 6, -12
 2786              		.cfi_offset 5, -16
 2787              		.cfi_offset 4, -20
 2788              		.cfi_offset 3, -24
 2789              		.loc 1 1161 0
 2790 0002 0022     		movs	r2, #0
 2791              		.loc 1 1162 0
 2792 0004 0368     		ldr	r3, [r0, #0]
 2793              		.loc 1 1161 0
 2794 0006 0271     		strb	r2, [r0, #4]
 2795              		.loc 1 1160 0
 2796 0008 0646     		mov	r6, r0
 2797              		.loc 1 1162 0
 2798 000a 5868     		ldr	r0, [r3, #4]
 2799              	.LVL173:
 2800 000c 10B1     		cbz	r0, .L274
 2801              		.loc 1 1163 0
 2802 000e 1A78     		ldrb	r2, [r3, #0]	@ zero_extendqisi2
 2803 0010 102A     		cmp	r2, #16
 2804 0012 05D0     		beq	.L279
 2805              	.L274:
 2806              		.loc 1 1179 0
 2807 0014 03F10C00 		add	r0, r3, #12
 2808              		.loc 1 1180 0
 2809 0018 BDE8F840 		pop	{r3, r4, r5, r6, r7, lr}
 2810              		.loc 1 1179 0
 2811 001c FFF7FEBF 		b	sys_sem_signal
 2812              	.L279:
 2813              	.LBB51:
 2814              		.loc 1 1170 0
 2815 0020 B468     		ldr	r4, [r6, #8]
 2816              	.LVL174:
 2817              	.LBB52:
 2818              		.loc 1 1172 0
 2819 0022 4FF6FF77 		movw	r7, #65535
 2820 0026 00E0     		b	.L277
 2821              	.LVL175:
 2822              	.L280:
 2823              	.LBE52:
 2824              		.loc 1 1175 0
 2825 0028 5868     		ldr	r0, [r3, #4]
 2826              	.LVL176:
 2827              	.L277:
ARM GAS  /var/folders/5n/p_75w94d66l9ssrldxqdhh700000gn/T//ccmhGqes.s 			page 51


 2828              	.LBB53:
 2829              		.loc 1 1172 0
 2830 002a BC42     		cmp	r4, r7
 2831 002c 95BF     		itete	ls
 2832 002e A1B2     		uxthls	r1, r4
 2833 0030 4FF6FF75 		movwhi	r5, #65535
 2834 0034 0D46     		movls	r5, r1
 2835 0036 2946     		movhi	r1, r5
 2836              	.LVL177:
 2837              		.loc 1 1173 0
 2838 0038 FFF7FEFF 		bl	tcp_recved
 2839              	.LVL178:
 2840              	.LBE53:
 2841              		.loc 1 1175 0
 2842 003c 641B     		subs	r4, r4, r5
 2843              	.LVL179:
 2844 003e 3368     		ldr	r3, [r6, #0]
 2845 0040 F2D1     		bne	.L280
 2846 0042 E7E7     		b	.L274
 2847              	.LBE51:
 2848              		.cfi_endproc
 2849              	.LFE28:
 2850              		.size	do_recv, .-do_recv
 2851 0044 AFF30080 		.section	.text.do_write,"ax",%progbits
 2851      AFF30080 
 2851      AFF30080 
 2852              		.align	2
 2853              		.p2align 4,,15
 2854              		.global	do_write
 2855              		.thumb
 2856              		.thumb_func
 2857              		.type	do_write, %function
 2858              	do_write:
 2859              	.LFB30:
 2860              		.loc 1 1314 0
 2861              		.cfi_startproc
 2862              		@ args = 0, pretend = 0, frame = 8
 2863              		@ frame_needed = 0, uses_anonymous_args = 0
 2864              	.LVL180:
 2865 0000 00B5     		push	{lr}
 2866              	.LCFI24:
 2867              		.cfi_def_cfa_offset 4
 2868              		.cfi_offset 14, -4
 2869              		.loc 1 1315 0
 2870 0002 0368     		ldr	r3, [r0, #0]
 2871 0004 1A7A     		ldrb	r2, [r3, #8]	@ zero_extendqisi2
 2872 0006 51B2     		sxtb	r1, r2
 2873 0008 0931     		adds	r1, r1, #9
 2874              		.loc 1 1314 0
 2875 000a 83B0     		sub	sp, sp, #12
 2876              	.LCFI25:
 2877              		.cfi_def_cfa_offset 16
 2878              		.loc 1 1315 0
 2879 000c 03DB     		blt	.L290
 2880              		.loc 1 1318 0
 2881 000e 1A78     		ldrb	r2, [r3, #0]	@ zero_extendqisi2
 2882 0010 102A     		cmp	r2, #16
ARM GAS  /var/folders/5n/p_75w94d66l9ssrldxqdhh700000gn/T//ccmhGqes.s 			page 52


 2883 0012 08D0     		beq	.L291
 2884              		.loc 1 1354 0
 2885 0014 FA22     		movs	r2, #250
 2886              	.L290:
 2887 0016 0271     		strb	r2, [r0, #4]
 2888              	.L283:
 2889              		.loc 1 1358 0
 2890 0018 03F10C00 		add	r0, r3, #12
 2891              	.LVL181:
 2892              		.loc 1 1359 0
 2893 001c 03B0     		add	sp, sp, #12
 2894 001e 5DF804EB 		pop	{lr}
 2895              		.loc 1 1358 0
 2896 0022 FFF7FEBF 		b	sys_sem_signal
 2897              	.LVL182:
 2898              	.L291:
 2899              		.loc 1 1320 0
 2900 0026 5A78     		ldrb	r2, [r3, #1]	@ zero_extendqisi2
 2901 0028 12B1     		cbz	r2, .L285
 2902              		.loc 1 1322 0
 2903 002a FB22     		movs	r2, #251
 2904 002c 0271     		strb	r2, [r0, #4]
 2905 002e F3E7     		b	.L283
 2906              	.L285:
 2907              		.loc 1 1323 0
 2908 0030 5A68     		ldr	r2, [r3, #4]
 2909 0032 E2B1     		cbz	r2, .L286
 2910              		.loc 1 1326 0
 2911 0034 5A6A     		ldr	r2, [r3, #36]
 2912              		.loc 1 1324 0
 2913 0036 0121     		movs	r1, #1
 2914 0038 5970     		strb	r1, [r3, #1]
 2915              		.loc 1 1326 0
 2916 003a A2B1     		cbz	r2, .L292
 2917              	.L287:
 2918              		.loc 1 1326 0 is_stmt 0 discriminator 1
 2919 003c 0190     		str	r0, [sp, #4]
 2920 003e FFF7FEFF 		bl	port_halt
 2921              	.LVL183:
 2922 0042 0198     		ldr	r0, [sp, #4]
 2923              	.L288:
 2924              		.loc 1 1328 0 is_stmt 1
 2925 0044 C368     		ldr	r3, [r0, #12]
 2926 0046 4BB1     		cbz	r3, .L293
 2927              	.L289:
 2928              		.loc 1 1329 0
 2929 0048 0368     		ldr	r3, [r0, #0]
 2930              		.loc 1 1330 0
 2931 004a 0022     		movs	r2, #0
 2932              		.loc 1 1329 0
 2933 004c 5862     		str	r0, [r3, #36]
 2934              		.loc 1 1341 0
 2935 004e 1846     		mov	r0, r3
 2936              		.loc 1 1330 0
 2937 0050 1A62     		str	r2, [r3, #32]
 2938              		.loc 1 1359 0
 2939 0052 03B0     		add	sp, sp, #12
ARM GAS  /var/folders/5n/p_75w94d66l9ssrldxqdhh700000gn/T//ccmhGqes.s 			page 53


 2940 0054 5DF804EB 		pop	{lr}
 2941              		.loc 1 1341 0
 2942 0058 FFF7FEBF 		b	do_writemore
 2943              	.L293:
 2944              		.loc 1 1328 0 discriminator 1
 2945 005c 0190     		str	r0, [sp, #4]
 2946 005e FFF7FEFF 		bl	port_halt
 2947 0062 0198     		ldr	r0, [sp, #4]
 2948 0064 F0E7     		b	.L289
 2949              	.LVL184:
 2950              	.L292:
 2951              		.loc 1 1326 0 discriminator 2
 2952 0066 1B6A     		ldr	r3, [r3, #32]
 2953 0068 002B     		cmp	r3, #0
 2954 006a EBD0     		beq	.L288
 2955 006c E6E7     		b	.L287
 2956              	.L286:
 2957              		.loc 1 1347 0
 2958 006e F322     		movs	r2, #243
 2959 0070 0271     		strb	r2, [r0, #4]
 2960 0072 D1E7     		b	.L283
 2961              		.cfi_endproc
 2962              	.LFE30:
 2963              		.size	do_write, .-do_write
 2964 0074 AFF30080 		.section	.text.do_getaddr,"ax",%progbits
 2964      AFF30080 
 2964      AFF30080 
 2965              		.align	2
 2966              		.p2align 4,,15
 2967              		.global	do_getaddr
 2968              		.thumb
 2969              		.thumb_func
 2970              		.type	do_getaddr, %function
 2971              	do_getaddr:
 2972              	.LFB31:
 2973              		.loc 1 1369 0
 2974              		.cfi_startproc
 2975              		@ args = 0, pretend = 0, frame = 0
 2976              		@ frame_needed = 0, uses_anonymous_args = 0
 2977              	.LVL185:
 2978 0000 10B5     		push	{r4, lr}
 2979              	.LCFI26:
 2980              		.cfi_def_cfa_offset 8
 2981              		.cfi_offset 14, -4
 2982              		.cfi_offset 4, -8
 2983              		.loc 1 1369 0
 2984 0002 0446     		mov	r4, r0
 2985              		.loc 1 1370 0
 2986 0004 0068     		ldr	r0, [r0, #0]
 2987              	.LVL186:
 2988 0006 4368     		ldr	r3, [r0, #4]
 2989 0008 E3B1     		cbz	r3, .L295
 2990              		.loc 1 1371 0
 2991 000a 217C     		ldrb	r1, [r4, #16]	@ zero_extendqisi2
 2992 000c A268     		ldr	r2, [r4, #8]
 2993 000e A1B9     		cbnz	r1, .L309
 2994              		.loc 1 1371 0 is_stmt 0 discriminator 2
ARM GAS  /var/folders/5n/p_75w94d66l9ssrldxqdhh700000gn/T//ccmhGqes.s 			page 54


 2995 0010 5B68     		ldr	r3, [r3, #4]
 2996 0012 1360     		str	r3, [r2, #0]
 2997              	.L297:
 2998              		.loc 1 1374 0 is_stmt 1
 2999 0014 0023     		movs	r3, #0
 3000 0016 2371     		strb	r3, [r4, #4]
 3001              		.loc 1 1375 0
 3002 0018 0378     		ldrb	r3, [r0, #0]	@ zero_extendqisi2
 3003 001a 03F0F003 		and	r3, r3, #240
 3004 001e 202B     		cmp	r3, #32
 3005 0020 1AD0     		beq	.L300
 3006 0022 402B     		cmp	r3, #64
 3007 0024 0CD0     		beq	.L301
 3008 0026 102B     		cmp	r3, #16
 3009 0028 0FD0     		beq	.L310
 3010              		.loc 1 1405 0 discriminator 1
 3011 002a FFF7FEFF 		bl	port_halt
 3012 002e 2068     		ldr	r0, [r4, #0]
 3013              	.L303:
 3014              		.loc 1 1411 0
 3015 0030 0C30     		adds	r0, r0, #12
 3016              		.loc 1 1412 0
 3017 0032 BDE81040 		pop	{r4, lr}
 3018              		.loc 1 1411 0
 3019 0036 FFF7FEBF 		b	sys_sem_signal
 3020              	.L309:
 3021              		.loc 1 1371 0 discriminator 1
 3022 003a 1B68     		ldr	r3, [r3, #0]
 3023 003c 1360     		str	r3, [r2, #0]
 3024 003e E9E7     		b	.L297
 3025              	.L301:
 3026              		.loc 1 1378 0
 3027 0040 237C     		ldrb	r3, [r4, #16]	@ zero_extendqisi2
 3028 0042 9BB9     		cbnz	r3, .L311
 3029              	.L295:
 3030              		.loc 1 1409 0
 3031 0044 F323     		movs	r3, #243
 3032 0046 2371     		strb	r3, [r4, #4]
 3033 0048 F2E7     		b	.L303
 3034              	.L310:
 3035              		.loc 1 1401 0
 3036 004a 227C     		ldrb	r2, [r4, #16]	@ zero_extendqisi2
 3037 004c E368     		ldr	r3, [r4, #12]
 3038 004e 92B9     		cbnz	r2, .L312
 3039              		.loc 1 1401 0 is_stmt 0 discriminator 2
 3040 0050 4268     		ldr	r2, [r0, #4]
 3041 0052 D28B     		ldrh	r2, [r2, #30]
 3042              	.L307:
 3043              		.loc 1 1401 0 discriminator 3
 3044 0054 1A80     		strh	r2, [r3, #0]	@ movhi
 3045              		.loc 1 1402 0 is_stmt 1 discriminator 3
 3046 0056 EBE7     		b	.L303
 3047              	.L300:
 3048              		.loc 1 1388 0
 3049 0058 237C     		ldrb	r3, [r4, #16]	@ zero_extendqisi2
 3050 005a 7BB9     		cbnz	r3, .L313
 3051              		.loc 1 1391 0
ARM GAS  /var/folders/5n/p_75w94d66l9ssrldxqdhh700000gn/T//ccmhGqes.s 			page 55


 3052 005c 4368     		ldr	r3, [r0, #4]
 3053 005e 1A7C     		ldrb	r2, [r3, #16]	@ zero_extendqisi2
 3054 0060 5207     		lsls	r2, r2, #29
 3055 0062 EFD5     		bpl	.L295
 3056              		.loc 1 1394 0
 3057 0064 E268     		ldr	r2, [r4, #12]
 3058 0066 9B8A     		ldrh	r3, [r3, #20]
 3059 0068 1380     		strh	r3, [r2, #0]	@ movhi
 3060 006a E1E7     		b	.L303
 3061              	.L311:
 3062              		.loc 1 1379 0
 3063 006c 4268     		ldr	r2, [r0, #4]
 3064 006e E368     		ldr	r3, [r4, #12]
 3065 0070 127C     		ldrb	r2, [r2, #16]	@ zero_extendqisi2
 3066 0072 1A80     		strh	r2, [r3, #0]	@ movhi
 3067 0074 DCE7     		b	.L303
 3068              	.L312:
 3069              		.loc 1 1401 0 discriminator 1
 3070 0076 4268     		ldr	r2, [r0, #4]
 3071 0078 928B     		ldrh	r2, [r2, #28]
 3072 007a EBE7     		b	.L307
 3073              	.L313:
 3074              		.loc 1 1389 0
 3075 007c 4268     		ldr	r2, [r0, #4]
 3076 007e E368     		ldr	r3, [r4, #12]
 3077 0080 528A     		ldrh	r2, [r2, #18]
 3078 0082 1A80     		strh	r2, [r3, #0]	@ movhi
 3079 0084 D4E7     		b	.L303
 3080              		.cfi_endproc
 3081              	.LFE31:
 3082              		.size	do_getaddr, .-do_getaddr
 3083 0086 00BFAFF3 		.section	.text.do_close,"ax",%progbits
 3083      0080AFF3 
 3083      0080
 3084              		.align	2
 3085              		.p2align 4,,15
 3086              		.global	do_close
 3087              		.thumb
 3088              		.thumb_func
 3089              		.type	do_close, %function
 3090              	do_close:
 3091              	.LFB32:
 3092              		.loc 1 1422 0
 3093              		.cfi_startproc
 3094              		@ args = 0, pretend = 0, frame = 0
 3095              		@ frame_needed = 0, uses_anonymous_args = 0
 3096              	.LVL187:
 3097 0000 10B5     		push	{r4, lr}
 3098              	.LCFI27:
 3099              		.cfi_def_cfa_offset 8
 3100              		.cfi_offset 14, -4
 3101              		.cfi_offset 4, -8
 3102              		.loc 1 1422 0
 3103 0002 0446     		mov	r4, r0
 3104              		.loc 1 1425 0
 3105 0004 0068     		ldr	r0, [r0, #0]
 3106              	.LVL188:
ARM GAS  /var/folders/5n/p_75w94d66l9ssrldxqdhh700000gn/T//ccmhGqes.s 			page 56


 3107 0006 4378     		ldrb	r3, [r0, #1]	@ zero_extendqisi2
 3108 0008 022B     		cmp	r3, #2
 3109 000a 18BF     		it	ne
 3110 000c 002B     		cmpne	r3, #0
 3111 000e 0CD0     		beq	.L315
 3112              		.loc 1 1427 0
 3113 0010 0378     		ldrb	r3, [r0, #0]	@ zero_extendqisi2
 3114 0012 102B     		cmp	r3, #16
 3115 0014 02D0     		beq	.L316
 3116              		.loc 1 1427 0 is_stmt 0 discriminator 1
 3117 0016 FFF7FEFF 		bl	port_halt
 3118 001a 2068     		ldr	r0, [r4, #0]
 3119              	.L316:
 3120              		.loc 1 1428 0 is_stmt 1
 3121 001c FB23     		movs	r3, #251
 3122 001e 2371     		strb	r3, [r4, #4]
 3123              	.L317:
 3124              		.loc 1 1451 0
 3125 0020 0C30     		adds	r0, r0, #12
 3126              		.loc 1 1452 0
 3127 0022 BDE81040 		pop	{r4, lr}
 3128              		.loc 1 1451 0
 3129 0026 FFF7FEBF 		b	sys_sem_signal
 3130              	.L315:
 3131              		.loc 1 1429 0
 3132 002a 4268     		ldr	r2, [r0, #4]
 3133 002c 12B1     		cbz	r2, .L318
 3134              		.loc 1 1429 0 is_stmt 0 discriminator 1
 3135 002e 0278     		ldrb	r2, [r0, #0]	@ zero_extendqisi2
 3136 0030 102A     		cmp	r2, #16
 3137 0032 02D0     		beq	.L324
 3138              	.L318:
 3139              		.loc 1 1449 0 is_stmt 1
 3140 0034 FA23     		movs	r3, #250
 3141 0036 2371     		strb	r3, [r4, #4]
 3142 0038 F2E7     		b	.L317
 3143              	.L324:
 3144              		.loc 1 1430 0
 3145 003a 227A     		ldrb	r2, [r4, #8]	@ zero_extendqisi2
 3146 003c 032A     		cmp	r2, #3
 3147 003e 13D0     		beq	.L319
 3148              		.loc 1 1430 0 is_stmt 0 discriminator 1
 3149 0040 022B     		cmp	r3, #2
 3150 0042 15D0     		beq	.L325
 3151              		.loc 1 1434 0 is_stmt 1
 3152 0044 D107     		lsls	r1, r2, #31
 3153 0046 0FD4     		bmi	.L319
 3154              	.L321:
 3155              		.loc 1 1438 0
 3156 0048 436A     		ldr	r3, [r0, #36]
 3157 004a 4BB1     		cbz	r3, .L326
 3158              	.L322:
 3159              		.loc 1 1438 0 is_stmt 0 discriminator 1
 3160 004c FFF7FEFF 		bl	port_halt
 3161 0050 2068     		ldr	r0, [r4, #0]
 3162              	.L323:
 3163              		.loc 1 1440 0 is_stmt 1
ARM GAS  /var/folders/5n/p_75w94d66l9ssrldxqdhh700000gn/T//ccmhGqes.s 			page 57


 3164 0052 0423     		movs	r3, #4
 3165 0054 4370     		strb	r3, [r0, #1]
 3166              		.loc 1 1441 0
 3167 0056 4462     		str	r4, [r0, #36]
 3168              		.loc 1 1452 0
 3169 0058 BDE81040 		pop	{r4, lr}
 3170              		.loc 1 1442 0
 3171 005c FFF7FEBF 		b	do_close_internal
 3172              	.L326:
 3173              		.loc 1 1438 0 discriminator 2
 3174 0060 036A     		ldr	r3, [r0, #32]
 3175 0062 002B     		cmp	r3, #0
 3176 0064 F2D1     		bne	.L322
 3177 0066 F4E7     		b	.L323
 3178              	.L319:
 3179              		.loc 1 1436 0
 3180 0068 FFF7FEFF 		bl	netconn_drain
 3181 006c 2068     		ldr	r0, [r4, #0]
 3182 006e EBE7     		b	.L321
 3183              	.L325:
 3184              		.loc 1 1432 0
 3185 0070 F323     		movs	r3, #243
 3186 0072 2371     		strb	r3, [r4, #4]
 3187              		.loc 1 1430 0
 3188 0074 D4E7     		b	.L317
 3189              		.cfi_endproc
 3190              	.LFE32:
 3191              		.size	do_close, .-do_close
 3192 0076 00BFAFF3 		.text
 3192      0080AFF3 
 3192      0080
 3193              	.Letext0:
 3194              		.file 2 "/usr/local/summon/lib/gcc/arm-none-eabi/4.6.2/include/stddef.h"
 3195              		.file 3 "/usr/local/summon/lib/gcc/arm-none-eabi/4.6.2/../../../../arm-none-eabi/include/stdint.h"
 3196              		.file 4 "../../os/ports/GCC/ARMCMx/chtypes.h"
 3197              		.file 5 "../../os/kernel/include/chlists.h"
 3198              		.file 6 "../../os/kernel/include/chthreads.h"
 3199              		.file 7 "../../os/ports/GCC/ARMCMx/chcore_v7m.h"
 3200              		.file 8 "../../os/kernel/include/chsem.h"
 3201              		.file 9 "../../os/kernel/include/chmtx.h"
 3202              		.file 10 "../../os/kernel/include/chmboxes.h"
 3203              		.file 11 "../../os/various/lwip_bindings/arch/cc.h"
 3204              		.file 12 "../../ext/lwip/src/include/ipv4/lwip/ip_addr.h"
 3205              		.file 13 "../../ext/lwip/src/include/lwip/err.h"
 3206              		.file 14 "../../os/various/lwip_bindings/arch/sys_arch.h"
 3207              		.file 15 "../../ext/lwip/src/include/lwip/pbuf.h"
 3208              		.file 16 "../../ext/lwip/src/include/lwip/netbuf.h"
 3209              		.file 17 "../../ext/lwip/src/include/lwip/api.h"
 3210              		.file 18 "../../ext/lwip/src/include/ipv4/lwip/ip.h"
 3211              		.file 19 "../../ext/lwip/src/include/lwip/tcp.h"
 3212              		.file 20 "../../ext/lwip/src/include/lwip/udp.h"
 3213              		.file 21 "../../ext/lwip/src/include/lwip/raw.h"
 3214              		.file 22 "../../ext/lwip/src/include/lwip/api_msg.h"
 3215              		.file 23 "../../ext/lwip/src/include/lwip/memp.h"
 3216              		.section	.debug_info,"",%progbits
 3217              	.Ldebug_info0:
 3218 0000 341A0000 		.4byte	0x1a34
ARM GAS  /var/folders/5n/p_75w94d66l9ssrldxqdhh700000gn/T//ccmhGqes.s 			page 58


 3219 0004 0200     		.2byte	0x2
 3220 0006 00000000 		.4byte	.Ldebug_abbrev0
 3221 000a 04       		.byte	0x4
 3222 000b 01       		.uleb128 0x1
 3223 000c 20040000 		.4byte	.LASF262
 3224 0010 01       		.byte	0x1
 3225 0011 D00A0000 		.4byte	.LASF263
 3226 0015 84050000 		.4byte	.LASF264
 3227 0019 00000000 		.4byte	0
 3228 001d 00000000 		.4byte	0
 3229 0021 30010000 		.4byte	.Ldebug_ranges0+0x130
 3230 0025 00000000 		.4byte	.Ldebug_line0
 3231 0029 02       		.uleb128 0x2
 3232 002a 04       		.byte	0x4
 3233 002b 05       		.byte	0x5
 3234 002c 696E7400 		.ascii	"int\000"
 3235 0030 03       		.uleb128 0x3
 3236 0031 D8020000 		.4byte	.LASF1
 3237 0035 02       		.byte	0x2
 3238 0036 D4       		.byte	0xd4
 3239 0037 3B000000 		.4byte	0x3b
 3240 003b 04       		.uleb128 0x4
 3241 003c 04       		.byte	0x4
 3242 003d 07       		.byte	0x7
 3243 003e CE000000 		.4byte	.LASF0
 3244 0042 03       		.uleb128 0x3
 3245 0043 D3010000 		.4byte	.LASF2
 3246 0047 03       		.byte	0x3
 3247 0048 29       		.byte	0x29
 3248 0049 4D000000 		.4byte	0x4d
 3249 004d 04       		.uleb128 0x4
 3250 004e 01       		.byte	0x1
 3251 004f 06       		.byte	0x6
 3252 0050 1B0A0000 		.4byte	.LASF3
 3253 0054 03       		.uleb128 0x3
 3254 0055 96040000 		.4byte	.LASF4
 3255 0059 03       		.byte	0x3
 3256 005a 2A       		.byte	0x2a
 3257 005b 5F000000 		.4byte	0x5f
 3258 005f 04       		.uleb128 0x4
 3259 0060 01       		.byte	0x1
 3260 0061 08       		.byte	0x8
 3261 0062 02090000 		.4byte	.LASF5
 3262 0066 03       		.uleb128 0x3
 3263 0067 18020000 		.4byte	.LASF6
 3264 006b 03       		.byte	0x3
 3265 006c 35       		.byte	0x35
 3266 006d 71000000 		.4byte	0x71
 3267 0071 04       		.uleb128 0x4
 3268 0072 02       		.byte	0x2
 3269 0073 05       		.byte	0x5
 3270 0074 F0060000 		.4byte	.LASF7
 3271 0078 03       		.uleb128 0x3
 3272 0079 77060000 		.4byte	.LASF8
 3273 007d 03       		.byte	0x3
 3274 007e 36       		.byte	0x36
 3275 007f 83000000 		.4byte	0x83
ARM GAS  /var/folders/5n/p_75w94d66l9ssrldxqdhh700000gn/T//ccmhGqes.s 			page 59


 3276 0083 04       		.uleb128 0x4
 3277 0084 02       		.byte	0x2
 3278 0085 07       		.byte	0x7
 3279 0086 2F0A0000 		.4byte	.LASF9
 3280 008a 03       		.uleb128 0x3
 3281 008b A5080000 		.4byte	.LASF10
 3282 008f 03       		.byte	0x3
 3283 0090 4F       		.byte	0x4f
 3284 0091 95000000 		.4byte	0x95
 3285 0095 04       		.uleb128 0x4
 3286 0096 04       		.byte	0x4
 3287 0097 05       		.byte	0x5
 3288 0098 27070000 		.4byte	.LASF11
 3289 009c 03       		.uleb128 0x3
 3290 009d CA010000 		.4byte	.LASF12
 3291 00a1 03       		.byte	0x3
 3292 00a2 50       		.byte	0x50
 3293 00a3 A7000000 		.4byte	0xa7
 3294 00a7 04       		.uleb128 0x4
 3295 00a8 04       		.byte	0x4
 3296 00a9 07       		.byte	0x7
 3297 00aa 5B080000 		.4byte	.LASF13
 3298 00ae 04       		.uleb128 0x4
 3299 00af 08       		.byte	0x8
 3300 00b0 05       		.byte	0x5
 3301 00b1 14050000 		.4byte	.LASF14
 3302 00b5 04       		.uleb128 0x4
 3303 00b6 08       		.byte	0x8
 3304 00b7 07       		.byte	0x7
 3305 00b8 28020000 		.4byte	.LASF15
 3306 00bc 03       		.uleb128 0x3
 3307 00bd 63060000 		.4byte	.LASF16
 3308 00c1 04       		.byte	0x4
 3309 00c2 28       		.byte	0x28
 3310 00c3 54000000 		.4byte	0x54
 3311 00c7 03       		.uleb128 0x3
 3312 00c8 69040000 		.4byte	.LASF17
 3313 00cc 04       		.byte	0x4
 3314 00cd 29       		.byte	0x29
 3315 00ce 54000000 		.4byte	0x54
 3316 00d2 03       		.uleb128 0x3
 3317 00d3 53080000 		.4byte	.LASF18
 3318 00d7 04       		.byte	0x4
 3319 00d8 2A       		.byte	0x2a
 3320 00d9 54000000 		.4byte	0x54
 3321 00dd 03       		.uleb128 0x3
 3322 00de 08060000 		.4byte	.LASF19
 3323 00e2 04       		.byte	0x4
 3324 00e3 2B       		.byte	0x2b
 3325 00e4 54000000 		.4byte	0x54
 3326 00e8 03       		.uleb128 0x3
 3327 00e9 10020000 		.4byte	.LASF20
 3328 00ed 04       		.byte	0x4
 3329 00ee 2C       		.byte	0x2c
 3330 00ef 9C000000 		.4byte	0x9c
 3331 00f3 03       		.uleb128 0x3
 3332 00f4 3D050000 		.4byte	.LASF21
ARM GAS  /var/folders/5n/p_75w94d66l9ssrldxqdhh700000gn/T//ccmhGqes.s 			page 60


 3333 00f8 04       		.byte	0x4
 3334 00f9 2D       		.byte	0x2d
 3335 00fa 8A000000 		.4byte	0x8a
 3336 00fe 03       		.uleb128 0x3
 3337 00ff DF010000 		.4byte	.LASF22
 3338 0103 04       		.byte	0x4
 3339 0104 2F       		.byte	0x2f
 3340 0105 9C000000 		.4byte	0x9c
 3341 0109 03       		.uleb128 0x3
 3342 010a 8D000000 		.4byte	.LASF23
 3343 010e 04       		.byte	0x4
 3344 010f 31       		.byte	0x31
 3345 0110 9C000000 		.4byte	0x9c
 3346 0114 03       		.uleb128 0x3
 3347 0115 61020000 		.4byte	.LASF24
 3348 0119 04       		.byte	0x4
 3349 011a 32       		.byte	0x32
 3350 011b 8A000000 		.4byte	0x8a
 3351 011f 03       		.uleb128 0x3
 3352 0120 5C040000 		.4byte	.LASF25
 3353 0124 05       		.byte	0x5
 3354 0125 23       		.byte	0x23
 3355 0126 2A010000 		.4byte	0x12a
 3356 012a 05       		.uleb128 0x5
 3357 012b 5C040000 		.4byte	.LASF25
 3358 012f 48       		.byte	0x48
 3359 0130 06       		.byte	0x6
 3360 0131 57       		.byte	0x57
 3361 0132 4F020000 		.4byte	0x24f
 3362 0136 06       		.uleb128 0x6
 3363 0137 72070000 		.4byte	.LASF26
 3364 013b 06       		.byte	0x6
 3365 013c 58       		.byte	0x58
 3366 013d 74020000 		.4byte	0x274
 3367 0141 02       		.byte	0x2
 3368 0142 23       		.byte	0x23
 3369 0143 00       		.uleb128 0
 3370 0144 06       		.uleb128 0x6
 3371 0145 41080000 		.4byte	.LASF27
 3372 0149 06       		.byte	0x6
 3373 014a 5A       		.byte	0x5a
 3374 014b 74020000 		.4byte	0x274
 3375 014f 02       		.byte	0x2
 3376 0150 23       		.byte	0x23
 3377 0151 04       		.uleb128 0x4
 3378 0152 06       		.uleb128 0x6
 3379 0153 66000000 		.4byte	.LASF28
 3380 0157 06       		.byte	0x6
 3381 0158 5C       		.byte	0x5c
 3382 0159 E8000000 		.4byte	0xe8
 3383 015d 02       		.byte	0x2
 3384 015e 23       		.byte	0x23
 3385 015f 08       		.uleb128 0x8
 3386 0160 06       		.uleb128 0x6
 3387 0161 8F070000 		.4byte	.LASF29
 3388 0165 06       		.byte	0x6
 3389 0166 5D       		.byte	0x5d
ARM GAS  /var/folders/5n/p_75w94d66l9ssrldxqdhh700000gn/T//ccmhGqes.s 			page 61


 3390 0167 42030000 		.4byte	0x342
 3391 016b 02       		.byte	0x2
 3392 016c 23       		.byte	0x23
 3393 016d 0C       		.uleb128 0xc
 3394 016e 06       		.uleb128 0x6
 3395 016f 72020000 		.4byte	.LASF30
 3396 0173 06       		.byte	0x6
 3397 0174 5F       		.byte	0x5f
 3398 0175 74020000 		.4byte	0x274
 3399 0179 02       		.byte	0x2
 3400 017a 23       		.byte	0x23
 3401 017b 10       		.uleb128 0x10
 3402 017c 06       		.uleb128 0x6
 3403 017d 81040000 		.4byte	.LASF31
 3404 0181 06       		.byte	0x6
 3405 0182 60       		.byte	0x60
 3406 0183 74020000 		.4byte	0x274
 3407 0187 02       		.byte	0x2
 3408 0188 23       		.byte	0x23
 3409 0189 14       		.uleb128 0x14
 3410 018a 06       		.uleb128 0x6
 3411 018b CE030000 		.4byte	.LASF32
 3412 018f 06       		.byte	0x6
 3413 0190 67       		.byte	0x67
 3414 0191 89040000 		.4byte	0x489
 3415 0195 02       		.byte	0x2
 3416 0196 23       		.byte	0x23
 3417 0197 18       		.uleb128 0x18
 3418 0198 06       		.uleb128 0x6
 3419 0199 89040000 		.4byte	.LASF33
 3420 019d 06       		.byte	0x6
 3421 019e 72       		.byte	0x72
 3422 019f C7000000 		.4byte	0xc7
 3423 01a3 02       		.byte	0x2
 3424 01a4 23       		.byte	0x23
 3425 01a5 1C       		.uleb128 0x1c
 3426 01a6 06       		.uleb128 0x6
 3427 01a7 7C050000 		.4byte	.LASF34
 3428 01ab 06       		.byte	0x6
 3429 01ac 76       		.byte	0x76
 3430 01ad BC000000 		.4byte	0xbc
 3431 01b1 02       		.byte	0x2
 3432 01b2 23       		.byte	0x23
 3433 01b3 1D       		.uleb128 0x1d
 3434 01b4 06       		.uleb128 0x6
 3435 01b5 38090000 		.4byte	.LASF35
 3436 01b9 06       		.byte	0x6
 3437 01ba 7B       		.byte	0x7b
 3438 01bb D2000000 		.4byte	0xd2
 3439 01bf 02       		.byte	0x2
 3440 01c0 23       		.byte	0x23
 3441 01c1 1E       		.uleb128 0x1e
 3442 01c2 06       		.uleb128 0x6
 3443 01c3 A3090000 		.4byte	.LASF36
 3444 01c7 06       		.byte	0x6
 3445 01c8 81       		.byte	0x81
 3446 01c9 DD000000 		.4byte	0xdd
ARM GAS  /var/folders/5n/p_75w94d66l9ssrldxqdhh700000gn/T//ccmhGqes.s 			page 62


 3447 01cd 02       		.byte	0x2
 3448 01ce 23       		.byte	0x23
 3449 01cf 1F       		.uleb128 0x1f
 3450 01d0 06       		.uleb128 0x6
 3451 01d1 40000000 		.4byte	.LASF37
 3452 01d5 06       		.byte	0x6
 3453 01d6 88       		.byte	0x88
 3454 01d7 65030000 		.4byte	0x365
 3455 01db 02       		.byte	0x2
 3456 01dc 23       		.byte	0x23
 3457 01dd 20       		.uleb128 0x20
 3458 01de 07       		.uleb128 0x7
 3459 01df 705F7500 		.ascii	"p_u\000"
 3460 01e3 06       		.byte	0x6
 3461 01e4 AD       		.byte	0xad
 3462 01e5 54040000 		.4byte	0x454
 3463 01e9 02       		.byte	0x2
 3464 01ea 23       		.byte	0x23
 3465 01eb 24       		.uleb128 0x24
 3466 01ec 06       		.uleb128 0x6
 3467 01ed 0C000000 		.4byte	.LASF38
 3468 01f1 06       		.byte	0x6
 3469 01f2 B2       		.byte	0xb2
 3470 01f3 9C020000 		.4byte	0x29c
 3471 01f7 02       		.byte	0x2
 3472 01f8 23       		.byte	0x23
 3473 01f9 28       		.uleb128 0x28
 3474 01fa 06       		.uleb128 0x6
 3475 01fb C3000000 		.4byte	.LASF39
 3476 01ff 06       		.byte	0x6
 3477 0200 B8       		.byte	0xb8
 3478 0201 7A020000 		.4byte	0x27a
 3479 0205 02       		.byte	0x2
 3480 0206 23       		.byte	0x23
 3481 0207 2C       		.uleb128 0x2c
 3482 0208 06       		.uleb128 0x6
 3483 0209 55060000 		.4byte	.LASF40
 3484 020d 06       		.byte	0x6
 3485 020e BC       		.byte	0xbc
 3486 020f F3000000 		.4byte	0xf3
 3487 0213 02       		.byte	0x2
 3488 0214 23       		.byte	0x23
 3489 0215 34       		.uleb128 0x34
 3490 0216 06       		.uleb128 0x6
 3491 0217 0C070000 		.4byte	.LASF41
 3492 021b 06       		.byte	0x6
 3493 021c C2       		.byte	0xc2
 3494 021d FE000000 		.4byte	0xfe
 3495 0221 02       		.byte	0x2
 3496 0222 23       		.byte	0x23
 3497 0223 38       		.uleb128 0x38
 3498 0224 06       		.uleb128 0x6
 3499 0225 C1040000 		.4byte	.LASF42
 3500 0229 06       		.byte	0x6
 3501 022a C9       		.byte	0xc9
 3502 022b 9B040000 		.4byte	0x49b
 3503 022f 02       		.byte	0x2
ARM GAS  /var/folders/5n/p_75w94d66l9ssrldxqdhh700000gn/T//ccmhGqes.s 			page 63


 3504 0230 23       		.byte	0x23
 3505 0231 3C       		.uleb128 0x3c
 3506 0232 06       		.uleb128 0x6
 3507 0233 CC060000 		.4byte	.LASF43
 3508 0237 06       		.byte	0x6
 3509 0238 CD       		.byte	0xcd
 3510 0239 E8000000 		.4byte	0xe8
 3511 023d 02       		.byte	0x2
 3512 023e 23       		.byte	0x23
 3513 023f 40       		.uleb128 0x40
 3514 0240 06       		.uleb128 0x6
 3515 0241 B9040000 		.4byte	.LASF44
 3516 0245 06       		.byte	0x6
 3517 0246 D3       		.byte	0xd3
 3518 0247 B2020000 		.4byte	0x2b2
 3519 024b 02       		.byte	0x2
 3520 024c 23       		.byte	0x23
 3521 024d 44       		.uleb128 0x44
 3522 024e 00       		.byte	0
 3523 024f 08       		.uleb128 0x8
 3524 0250 08       		.byte	0x8
 3525 0251 05       		.byte	0x5
 3526 0252 5A       		.byte	0x5a
 3527 0253 74020000 		.4byte	0x274
 3528 0257 06       		.uleb128 0x6
 3529 0258 72070000 		.4byte	.LASF26
 3530 025c 05       		.byte	0x5
 3531 025d 5B       		.byte	0x5b
 3532 025e 74020000 		.4byte	0x274
 3533 0262 02       		.byte	0x2
 3534 0263 23       		.byte	0x23
 3535 0264 00       		.uleb128 0
 3536 0265 06       		.uleb128 0x6
 3537 0266 41080000 		.4byte	.LASF27
 3538 026a 05       		.byte	0x5
 3539 026b 5D       		.byte	0x5d
 3540 026c 74020000 		.4byte	0x274
 3541 0270 02       		.byte	0x2
 3542 0271 23       		.byte	0x23
 3543 0272 04       		.uleb128 0x4
 3544 0273 00       		.byte	0
 3545 0274 09       		.uleb128 0x9
 3546 0275 04       		.byte	0x4
 3547 0276 1F010000 		.4byte	0x11f
 3548 027a 03       		.uleb128 0x3
 3549 027b 05040000 		.4byte	.LASF45
 3550 027f 05       		.byte	0x5
 3551 0280 5F       		.byte	0x5f
 3552 0281 4F020000 		.4byte	0x24f
 3553 0285 08       		.uleb128 0x8
 3554 0286 04       		.byte	0x4
 3555 0287 05       		.byte	0x5
 3556 0288 64       		.byte	0x64
 3557 0289 9C020000 		.4byte	0x29c
 3558 028d 06       		.uleb128 0x6
 3559 028e 72070000 		.4byte	.LASF26
 3560 0292 05       		.byte	0x5
ARM GAS  /var/folders/5n/p_75w94d66l9ssrldxqdhh700000gn/T//ccmhGqes.s 			page 64


 3561 0293 66       		.byte	0x66
 3562 0294 74020000 		.4byte	0x274
 3563 0298 02       		.byte	0x2
 3564 0299 23       		.byte	0x23
 3565 029a 00       		.uleb128 0
 3566 029b 00       		.byte	0
 3567 029c 03       		.uleb128 0x3
 3568 029d 00000000 		.4byte	.LASF46
 3569 02a1 05       		.byte	0x5
 3570 02a2 69       		.byte	0x69
 3571 02a3 85020000 		.4byte	0x285
 3572 02a7 03       		.uleb128 0x3
 3573 02a8 5D000000 		.4byte	.LASF47
 3574 02ac 07       		.byte	0x7
 3575 02ad DE       		.byte	0xde
 3576 02ae B2020000 		.4byte	0x2b2
 3577 02b2 0A       		.uleb128 0xa
 3578 02b3 04       		.byte	0x4
 3579 02b4 0B       		.uleb128 0xb
 3580 02b5 92060000 		.4byte	.LASF48
 3581 02b9 24       		.byte	0x24
 3582 02ba 07       		.byte	0x7
 3583 02bb 0501     		.2byte	0x105
 3584 02bd 42030000 		.4byte	0x342
 3585 02c1 0C       		.uleb128 0xc
 3586 02c2 723400   		.ascii	"r4\000"
 3587 02c5 07       		.byte	0x7
 3588 02c6 1801     		.2byte	0x118
 3589 02c8 A7020000 		.4byte	0x2a7
 3590 02cc 02       		.byte	0x2
 3591 02cd 23       		.byte	0x23
 3592 02ce 00       		.uleb128 0
 3593 02cf 0C       		.uleb128 0xc
 3594 02d0 723500   		.ascii	"r5\000"
 3595 02d3 07       		.byte	0x7
 3596 02d4 1901     		.2byte	0x119
 3597 02d6 A7020000 		.4byte	0x2a7
 3598 02da 02       		.byte	0x2
 3599 02db 23       		.byte	0x23
 3600 02dc 04       		.uleb128 0x4
 3601 02dd 0C       		.uleb128 0xc
 3602 02de 723600   		.ascii	"r6\000"
 3603 02e1 07       		.byte	0x7
 3604 02e2 1A01     		.2byte	0x11a
 3605 02e4 A7020000 		.4byte	0x2a7
 3606 02e8 02       		.byte	0x2
 3607 02e9 23       		.byte	0x23
 3608 02ea 08       		.uleb128 0x8
 3609 02eb 0C       		.uleb128 0xc
 3610 02ec 723700   		.ascii	"r7\000"
 3611 02ef 07       		.byte	0x7
 3612 02f0 1B01     		.2byte	0x11b
 3613 02f2 A7020000 		.4byte	0x2a7
 3614 02f6 02       		.byte	0x2
 3615 02f7 23       		.byte	0x23
 3616 02f8 0C       		.uleb128 0xc
 3617 02f9 0C       		.uleb128 0xc
ARM GAS  /var/folders/5n/p_75w94d66l9ssrldxqdhh700000gn/T//ccmhGqes.s 			page 65


 3618 02fa 723800   		.ascii	"r8\000"
 3619 02fd 07       		.byte	0x7
 3620 02fe 1C01     		.2byte	0x11c
 3621 0300 A7020000 		.4byte	0x2a7
 3622 0304 02       		.byte	0x2
 3623 0305 23       		.byte	0x23
 3624 0306 10       		.uleb128 0x10
 3625 0307 0C       		.uleb128 0xc
 3626 0308 723900   		.ascii	"r9\000"
 3627 030b 07       		.byte	0x7
 3628 030c 1D01     		.2byte	0x11d
 3629 030e A7020000 		.4byte	0x2a7
 3630 0312 02       		.byte	0x2
 3631 0313 23       		.byte	0x23
 3632 0314 14       		.uleb128 0x14
 3633 0315 0C       		.uleb128 0xc
 3634 0316 72313000 		.ascii	"r10\000"
 3635 031a 07       		.byte	0x7
 3636 031b 1E01     		.2byte	0x11e
 3637 031d A7020000 		.4byte	0x2a7
 3638 0321 02       		.byte	0x2
 3639 0322 23       		.byte	0x23
 3640 0323 18       		.uleb128 0x18
 3641 0324 0C       		.uleb128 0xc
 3642 0325 72313100 		.ascii	"r11\000"
 3643 0329 07       		.byte	0x7
 3644 032a 1F01     		.2byte	0x11f
 3645 032c A7020000 		.4byte	0x2a7
 3646 0330 02       		.byte	0x2
 3647 0331 23       		.byte	0x23
 3648 0332 1C       		.uleb128 0x1c
 3649 0333 0C       		.uleb128 0xc
 3650 0334 6C7200   		.ascii	"lr\000"
 3651 0337 07       		.byte	0x7
 3652 0338 2001     		.2byte	0x120
 3653 033a A7020000 		.4byte	0x2a7
 3654 033e 02       		.byte	0x2
 3655 033f 23       		.byte	0x23
 3656 0340 20       		.uleb128 0x20
 3657 0341 00       		.byte	0
 3658 0342 0B       		.uleb128 0xb
 3659 0343 55050000 		.4byte	.LASF49
 3660 0347 04       		.byte	0x4
 3661 0348 07       		.byte	0x7
 3662 0349 2A01     		.2byte	0x12a
 3663 034b 5F030000 		.4byte	0x35f
 3664 034f 0C       		.uleb128 0xc
 3665 0350 72313300 		.ascii	"r13\000"
 3666 0354 07       		.byte	0x7
 3667 0355 2B01     		.2byte	0x12b
 3668 0357 5F030000 		.4byte	0x35f
 3669 035b 02       		.byte	0x2
 3670 035c 23       		.byte	0x23
 3671 035d 00       		.uleb128 0
 3672 035e 00       		.byte	0
 3673 035f 09       		.uleb128 0x9
 3674 0360 04       		.byte	0x4
ARM GAS  /var/folders/5n/p_75w94d66l9ssrldxqdhh700000gn/T//ccmhGqes.s 			page 66


 3675 0361 B4020000 		.4byte	0x2b4
 3676 0365 0D       		.uleb128 0xd
 3677 0366 09010000 		.4byte	0x109
 3678 036a 05       		.uleb128 0x5
 3679 036b E3070000 		.4byte	.LASF50
 3680 036f 0C       		.byte	0xc
 3681 0370 08       		.byte	0x8
 3682 0371 25       		.byte	0x25
 3683 0372 93030000 		.4byte	0x393
 3684 0376 06       		.uleb128 0x6
 3685 0377 9F000000 		.4byte	.LASF51
 3686 037b 08       		.byte	0x8
 3687 037c 26       		.byte	0x26
 3688 037d 7A020000 		.4byte	0x27a
 3689 0381 02       		.byte	0x2
 3690 0382 23       		.byte	0x23
 3691 0383 00       		.uleb128 0
 3692 0384 06       		.uleb128 0x6
 3693 0385 AB010000 		.4byte	.LASF52
 3694 0389 08       		.byte	0x8
 3695 038a 28       		.byte	0x28
 3696 038b 14010000 		.4byte	0x114
 3697 038f 02       		.byte	0x2
 3698 0390 23       		.byte	0x23
 3699 0391 08       		.uleb128 0x8
 3700 0392 00       		.byte	0
 3701 0393 03       		.uleb128 0x3
 3702 0394 E3070000 		.4byte	.LASF50
 3703 0398 08       		.byte	0x8
 3704 0399 29       		.byte	0x29
 3705 039a 6A030000 		.4byte	0x36a
 3706 039e 05       		.uleb128 0x5
 3707 039f 72030000 		.4byte	.LASF53
 3708 03a3 10       		.byte	0x10
 3709 03a4 09       		.byte	0x9
 3710 03a5 25       		.byte	0x25
 3711 03a6 D5030000 		.4byte	0x3d5
 3712 03aa 06       		.uleb128 0x6
 3713 03ab 17070000 		.4byte	.LASF54
 3714 03af 09       		.byte	0x9
 3715 03b0 26       		.byte	0x26
 3716 03b1 7A020000 		.4byte	0x27a
 3717 03b5 02       		.byte	0x2
 3718 03b6 23       		.byte	0x23
 3719 03b7 00       		.uleb128 0
 3720 03b8 06       		.uleb128 0x6
 3721 03b9 97000000 		.4byte	.LASF55
 3722 03bd 09       		.byte	0x9
 3723 03be 28       		.byte	0x28
 3724 03bf 74020000 		.4byte	0x274
 3725 03c3 02       		.byte	0x2
 3726 03c4 23       		.byte	0x23
 3727 03c5 08       		.uleb128 0x8
 3728 03c6 06       		.uleb128 0x6
 3729 03c7 0C0A0000 		.4byte	.LASF56
 3730 03cb 09       		.byte	0x9
 3731 03cc 2A       		.byte	0x2a
ARM GAS  /var/folders/5n/p_75w94d66l9ssrldxqdhh700000gn/T//ccmhGqes.s 			page 67


 3732 03cd D5030000 		.4byte	0x3d5
 3733 03d1 02       		.byte	0x2
 3734 03d2 23       		.byte	0x23
 3735 03d3 0C       		.uleb128 0xc
 3736 03d4 00       		.byte	0
 3737 03d5 09       		.uleb128 0x9
 3738 03d6 04       		.byte	0x4
 3739 03d7 9E030000 		.4byte	0x39e
 3740 03db 03       		.uleb128 0x3
 3741 03dc 72030000 		.4byte	.LASF53
 3742 03e0 09       		.byte	0x9
 3743 03e1 2C       		.byte	0x2c
 3744 03e2 9E030000 		.4byte	0x39e
 3745 03e6 08       		.uleb128 0x8
 3746 03e7 28       		.byte	0x28
 3747 03e8 0A       		.byte	0xa
 3748 03e9 2C       		.byte	0x2c
 3749 03ea 43040000 		.4byte	0x443
 3750 03ee 06       		.uleb128 0x6
 3751 03ef 6D080000 		.4byte	.LASF57
 3752 03f3 0A       		.byte	0xa
 3753 03f4 2D       		.byte	0x2d
 3754 03f5 43040000 		.4byte	0x443
 3755 03f9 02       		.byte	0x2
 3756 03fa 23       		.byte	0x23
 3757 03fb 00       		.uleb128 0
 3758 03fc 06       		.uleb128 0x6
 3759 03fd F5050000 		.4byte	.LASF58
 3760 0401 0A       		.byte	0xa
 3761 0402 2F       		.byte	0x2f
 3762 0403 43040000 		.4byte	0x443
 3763 0407 02       		.byte	0x2
 3764 0408 23       		.byte	0x23
 3765 0409 04       		.uleb128 0x4
 3766 040a 06       		.uleb128 0x6
 3767 040b FA060000 		.4byte	.LASF59
 3768 040f 0A       		.byte	0xa
 3769 0410 31       		.byte	0x31
 3770 0411 43040000 		.4byte	0x443
 3771 0415 02       		.byte	0x2
 3772 0416 23       		.byte	0x23
 3773 0417 08       		.uleb128 0x8
 3774 0418 06       		.uleb128 0x6
 3775 0419 0E030000 		.4byte	.LASF60
 3776 041d 0A       		.byte	0xa
 3777 041e 32       		.byte	0x32
 3778 041f 43040000 		.4byte	0x443
 3779 0423 02       		.byte	0x2
 3780 0424 23       		.byte	0x23
 3781 0425 0C       		.uleb128 0xc
 3782 0426 06       		.uleb128 0x6
 3783 0427 9E040000 		.4byte	.LASF61
 3784 042b 0A       		.byte	0xa
 3785 042c 33       		.byte	0x33
 3786 042d 93030000 		.4byte	0x393
 3787 0431 02       		.byte	0x2
 3788 0432 23       		.byte	0x23
ARM GAS  /var/folders/5n/p_75w94d66l9ssrldxqdhh700000gn/T//ccmhGqes.s 			page 68


 3789 0433 10       		.uleb128 0x10
 3790 0434 06       		.uleb128 0x6
 3791 0435 78030000 		.4byte	.LASF62
 3792 0439 0A       		.byte	0xa
 3793 043a 35       		.byte	0x35
 3794 043b 93030000 		.4byte	0x393
 3795 043f 02       		.byte	0x2
 3796 0440 23       		.byte	0x23
 3797 0441 1C       		.uleb128 0x1c
 3798 0442 00       		.byte	0
 3799 0443 09       		.uleb128 0x9
 3800 0444 04       		.byte	0x4
 3801 0445 F3000000 		.4byte	0xf3
 3802 0449 03       		.uleb128 0x3
 3803 044a 80010000 		.4byte	.LASF63
 3804 044e 0A       		.byte	0xa
 3805 044f 37       		.byte	0x37
 3806 0450 E6030000 		.4byte	0x3e6
 3807 0454 0E       		.uleb128 0xe
 3808 0455 04       		.byte	0x4
 3809 0456 06       		.byte	0x6
 3810 0457 8F       		.byte	0x8f
 3811 0458 89040000 		.4byte	0x489
 3812 045c 0F       		.uleb128 0xf
 3813 045d DF020000 		.4byte	.LASF64
 3814 0461 06       		.byte	0x6
 3815 0462 96       		.byte	0x96
 3816 0463 F3000000 		.4byte	0xf3
 3817 0467 0F       		.uleb128 0xf
 3818 0468 C70A0000 		.4byte	.LASF65
 3819 046c 06       		.byte	0x6
 3820 046d 9D       		.byte	0x9d
 3821 046e F3000000 		.4byte	0xf3
 3822 0472 0F       		.uleb128 0xf
 3823 0473 29010000 		.4byte	.LASF66
 3824 0477 06       		.byte	0x6
 3825 0478 A4       		.byte	0xa4
 3826 0479 B2020000 		.4byte	0x2b2
 3827 047d 0F       		.uleb128 0xf
 3828 047e 62010000 		.4byte	.LASF67
 3829 0482 06       		.byte	0x6
 3830 0483 AB       		.byte	0xab
 3831 0484 FE000000 		.4byte	0xfe
 3832 0488 00       		.byte	0
 3833 0489 09       		.uleb128 0x9
 3834 048a 04       		.byte	0x4
 3835 048b 8F040000 		.4byte	0x48f
 3836 048f 10       		.uleb128 0x10
 3837 0490 94040000 		.4byte	0x494
 3838 0494 04       		.uleb128 0x4
 3839 0495 01       		.byte	0x1
 3840 0496 08       		.byte	0x8
 3841 0497 12040000 		.4byte	.LASF68
 3842 049b 09       		.uleb128 0x9
 3843 049c 04       		.byte	0x4
 3844 049d DB030000 		.4byte	0x3db
 3845 04a1 03       		.uleb128 0x3
ARM GAS  /var/folders/5n/p_75w94d66l9ssrldxqdhh700000gn/T//ccmhGqes.s 			page 69


 3846 04a2 5D050000 		.4byte	.LASF69
 3847 04a6 0B       		.byte	0xb
 3848 04a7 3C       		.byte	0x3c
 3849 04a8 54000000 		.4byte	0x54
 3850 04ac 03       		.uleb128 0x3
 3851 04ad 52030000 		.4byte	.LASF70
 3852 04b1 0B       		.byte	0xb
 3853 04b2 3D       		.byte	0x3d
 3854 04b3 42000000 		.4byte	0x42
 3855 04b7 03       		.uleb128 0x3
 3856 04b8 23010000 		.4byte	.LASF71
 3857 04bc 0B       		.byte	0xb
 3858 04bd 3E       		.byte	0x3e
 3859 04be 78000000 		.4byte	0x78
 3860 04c2 03       		.uleb128 0x3
 3861 04c3 9F080000 		.4byte	.LASF72
 3862 04c7 0B       		.byte	0xb
 3863 04c8 3F       		.byte	0x3f
 3864 04c9 66000000 		.4byte	0x66
 3865 04cd 03       		.uleb128 0x3
 3866 04ce EA060000 		.4byte	.LASF73
 3867 04d2 0B       		.byte	0xb
 3868 04d3 40       		.byte	0x40
 3869 04d4 9C000000 		.4byte	0x9c
 3870 04d8 05       		.uleb128 0x5
 3871 04d9 FA0A0000 		.4byte	.LASF74
 3872 04dd 04       		.byte	0x4
 3873 04de 0C       		.byte	0xc
 3874 04df 2C       		.byte	0x2c
 3875 04e0 F3040000 		.4byte	0x4f3
 3876 04e4 06       		.uleb128 0x6
 3877 04e5 BA090000 		.4byte	.LASF75
 3878 04e9 0C       		.byte	0xc
 3879 04ea 2D       		.byte	0x2d
 3880 04eb CD040000 		.4byte	0x4cd
 3881 04ef 02       		.byte	0x2
 3882 04f0 23       		.byte	0x23
 3883 04f1 00       		.uleb128 0
 3884 04f2 00       		.byte	0
 3885 04f3 03       		.uleb128 0x3
 3886 04f4 880A0000 		.4byte	.LASF76
 3887 04f8 0C       		.byte	0xc
 3888 04f9 40       		.byte	0x40
 3889 04fa D8040000 		.4byte	0x4d8
 3890 04fe 03       		.uleb128 0x3
 3891 04ff 0F010000 		.4byte	.LASF77
 3892 0503 0D       		.byte	0xd
 3893 0504 2F       		.byte	0x2f
 3894 0505 AC040000 		.4byte	0x4ac
 3895 0509 03       		.uleb128 0x3
 3896 050a 2E030000 		.4byte	.LASF78
 3897 050e 0E       		.byte	0xe
 3898 050f 3C       		.byte	0x3c
 3899 0510 14050000 		.4byte	0x514
 3900 0514 09       		.uleb128 0x9
 3901 0515 04       		.byte	0x4
 3902 0516 93030000 		.4byte	0x393
ARM GAS  /var/folders/5n/p_75w94d66l9ssrldxqdhh700000gn/T//ccmhGqes.s 			page 70


 3903 051a 03       		.uleb128 0x3
 3904 051b 48080000 		.4byte	.LASF79
 3905 051f 0E       		.byte	0xe
 3906 0520 3D       		.byte	0x3d
 3907 0521 25050000 		.4byte	0x525
 3908 0525 09       		.uleb128 0x9
 3909 0526 04       		.byte	0x4
 3910 0527 49040000 		.4byte	0x449
 3911 052b 11       		.uleb128 0x11
 3912 052c 01       		.byte	0x1
 3913 052d 0F       		.byte	0xf
 3914 052e 32       		.byte	0x32
 3915 052f 4C050000 		.4byte	0x54c
 3916 0533 12       		.uleb128 0x12
 3917 0534 B1010000 		.4byte	.LASF80
 3918 0538 00       		.sleb128 0
 3919 0539 12       		.uleb128 0x12
 3920 053a EE020000 		.4byte	.LASF81
 3921 053e 01       		.sleb128 1
 3922 053f 12       		.uleb128 0x12
 3923 0540 2D060000 		.4byte	.LASF82
 3924 0544 02       		.sleb128 2
 3925 0545 12       		.uleb128 0x12
 3926 0546 7E000000 		.4byte	.LASF83
 3927 054a 03       		.sleb128 3
 3928 054b 00       		.byte	0
 3929 054c 11       		.uleb128 0x11
 3930 054d 01       		.byte	0x1
 3931 054e 0F       		.byte	0xf
 3932 054f 39       		.byte	0x39
 3933 0550 6D050000 		.4byte	0x56d
 3934 0554 12       		.uleb128 0x12
 3935 0555 6D000000 		.4byte	.LASF84
 3936 0559 00       		.sleb128 0
 3937 055a 12       		.uleb128 0x12
 3938 055b A40A0000 		.4byte	.LASF85
 3939 055f 01       		.sleb128 1
 3940 0560 12       		.uleb128 0x12
 3941 0561 97020000 		.4byte	.LASF86
 3942 0565 02       		.sleb128 2
 3943 0566 12       		.uleb128 0x12
 3944 0567 1C030000 		.4byte	.LASF87
 3945 056b 03       		.sleb128 3
 3946 056c 00       		.byte	0
 3947 056d 05       		.uleb128 0x5
 3948 056e 09030000 		.4byte	.LASF88
 3949 0572 10       		.byte	0x10
 3950 0573 0F       		.byte	0xf
 3951 0574 49       		.byte	0x49
 3952 0575 DC050000 		.4byte	0x5dc
 3953 0579 06       		.uleb128 0x6
 3954 057a E9000000 		.4byte	.LASF89
 3955 057e 0F       		.byte	0xf
 3956 057f 4B       		.byte	0x4b
 3957 0580 DC050000 		.4byte	0x5dc
 3958 0584 02       		.byte	0x2
 3959 0585 23       		.byte	0x23
ARM GAS  /var/folders/5n/p_75w94d66l9ssrldxqdhh700000gn/T//ccmhGqes.s 			page 71


 3960 0586 00       		.uleb128 0
 3961 0587 06       		.uleb128 0x6
 3962 0588 E6020000 		.4byte	.LASF90
 3963 058c 0F       		.byte	0xf
 3964 058d 4E       		.byte	0x4e
 3965 058e B2020000 		.4byte	0x2b2
 3966 0592 02       		.byte	0x2
 3967 0593 23       		.byte	0x23
 3968 0594 04       		.uleb128 0x4
 3969 0595 06       		.uleb128 0x6
 3970 0596 C9020000 		.4byte	.LASF91
 3971 059a 0F       		.byte	0xf
 3972 059b 57       		.byte	0x57
 3973 059c B7040000 		.4byte	0x4b7
 3974 05a0 02       		.byte	0x2
 3975 05a1 23       		.byte	0x23
 3976 05a2 08       		.uleb128 0x8
 3977 05a3 07       		.uleb128 0x7
 3978 05a4 6C656E00 		.ascii	"len\000"
 3979 05a8 0F       		.byte	0xf
 3980 05a9 5A       		.byte	0x5a
 3981 05aa B7040000 		.4byte	0x4b7
 3982 05ae 02       		.byte	0x2
 3983 05af 23       		.byte	0x23
 3984 05b0 0A       		.uleb128 0xa
 3985 05b1 06       		.uleb128 0x6
 3986 05b2 FD080000 		.4byte	.LASF92
 3987 05b6 0F       		.byte	0xf
 3988 05b7 5D       		.byte	0x5d
 3989 05b8 A1040000 		.4byte	0x4a1
 3990 05bc 02       		.byte	0x2
 3991 05bd 23       		.byte	0x23
 3992 05be 0C       		.uleb128 0xc
 3993 05bf 06       		.uleb128 0x6
 3994 05c0 87000000 		.4byte	.LASF93
 3995 05c4 0F       		.byte	0xf
 3996 05c5 60       		.byte	0x60
 3997 05c6 A1040000 		.4byte	0x4a1
 3998 05ca 02       		.byte	0x2
 3999 05cb 23       		.byte	0x23
 4000 05cc 0D       		.uleb128 0xd
 4001 05cd 07       		.uleb128 0x7
 4002 05ce 72656600 		.ascii	"ref\000"
 4003 05d2 0F       		.byte	0xf
 4004 05d3 67       		.byte	0x67
 4005 05d4 B7040000 		.4byte	0x4b7
 4006 05d8 02       		.byte	0x2
 4007 05d9 23       		.byte	0x23
 4008 05da 0E       		.uleb128 0xe
 4009 05db 00       		.byte	0
 4010 05dc 09       		.uleb128 0x9
 4011 05dd 04       		.byte	0x4
 4012 05de 6D050000 		.4byte	0x56d
 4013 05e2 09       		.uleb128 0x9
 4014 05e3 04       		.byte	0x4
 4015 05e4 F3040000 		.4byte	0x4f3
 4016 05e8 05       		.uleb128 0x5
ARM GAS  /var/folders/5n/p_75w94d66l9ssrldxqdhh700000gn/T//ccmhGqes.s 			page 72


 4017 05e9 ED070000 		.4byte	.LASF94
 4018 05ed 10       		.byte	0x10
 4019 05ee 10       		.byte	0x10
 4020 05ef 30       		.byte	0x30
 4021 05f0 2B060000 		.4byte	0x62b
 4022 05f4 07       		.uleb128 0x7
 4023 05f5 7000     		.ascii	"p\000"
 4024 05f7 10       		.byte	0x10
 4025 05f8 31       		.byte	0x31
 4026 05f9 DC050000 		.4byte	0x5dc
 4027 05fd 02       		.byte	0x2
 4028 05fe 23       		.byte	0x23
 4029 05ff 00       		.uleb128 0
 4030 0600 07       		.uleb128 0x7
 4031 0601 70747200 		.ascii	"ptr\000"
 4032 0605 10       		.byte	0x10
 4033 0606 31       		.byte	0x31
 4034 0607 DC050000 		.4byte	0x5dc
 4035 060b 02       		.byte	0x2
 4036 060c 23       		.byte	0x23
 4037 060d 04       		.uleb128 0x4
 4038 060e 06       		.uleb128 0x6
 4039 060f BA090000 		.4byte	.LASF75
 4040 0613 10       		.byte	0x10
 4041 0614 32       		.byte	0x32
 4042 0615 F3040000 		.4byte	0x4f3
 4043 0619 02       		.byte	0x2
 4044 061a 23       		.byte	0x23
 4045 061b 08       		.uleb128 0x8
 4046 061c 06       		.uleb128 0x6
 4047 061d AD080000 		.4byte	.LASF95
 4048 0621 10       		.byte	0x10
 4049 0622 33       		.byte	0x33
 4050 0623 B7040000 		.4byte	0x4b7
 4051 0627 02       		.byte	0x2
 4052 0628 23       		.byte	0x23
 4053 0629 0C       		.uleb128 0xc
 4054 062a 00       		.byte	0
 4055 062b 13       		.uleb128 0x13
 4056 062c A1060000 		.4byte	.LASF102
 4057 0630 01       		.byte	0x1
 4058 0631 11       		.byte	0x11
 4059 0632 53       		.byte	0x53
 4060 0633 5D060000 		.4byte	0x65d
 4061 0637 12       		.uleb128 0x12
 4062 0638 3F020000 		.4byte	.LASF96
 4063 063c 00       		.sleb128 0
 4064 063d 12       		.uleb128 0x12
 4065 063e 5C090000 		.4byte	.LASF97
 4066 0642 10       		.sleb128 16
 4067 0643 12       		.uleb128 0x12
 4068 0644 B4020000 		.4byte	.LASF98
 4069 0648 20       		.sleb128 32
 4070 0649 12       		.uleb128 0x12
 4071 064a 550A0000 		.4byte	.LASF99
 4072 064e 21       		.sleb128 33
 4073 064f 12       		.uleb128 0x12
ARM GAS  /var/folders/5n/p_75w94d66l9ssrldxqdhh700000gn/T//ccmhGqes.s 			page 73


 4074 0650 FB000000 		.4byte	.LASF100
 4075 0654 22       		.sleb128 34
 4076 0655 12       		.uleb128 0x12
 4077 0656 420A0000 		.4byte	.LASF101
 4078 065a C000     		.sleb128 64
 4079 065c 00       		.byte	0
 4080 065d 13       		.uleb128 0x13
 4081 065e 9D010000 		.4byte	.LASF103
 4082 0662 01       		.byte	0x1
 4083 0663 11       		.byte	0x11
 4084 0664 61       		.byte	0x61
 4085 0665 88060000 		.4byte	0x688
 4086 0669 12       		.uleb128 0x12
 4087 066a 80060000 		.4byte	.LASF104
 4088 066e 00       		.sleb128 0
 4089 066f 12       		.uleb128 0x12
 4090 0670 DB000000 		.4byte	.LASF105
 4091 0674 01       		.sleb128 1
 4092 0675 12       		.uleb128 0x12
 4093 0676 80090000 		.4byte	.LASF106
 4094 067a 02       		.sleb128 2
 4095 067b 12       		.uleb128 0x12
 4096 067c AE060000 		.4byte	.LASF107
 4097 0680 03       		.sleb128 3
 4098 0681 12       		.uleb128 0x12
 4099 0682 FE090000 		.4byte	.LASF108
 4100 0686 04       		.sleb128 4
 4101 0687 00       		.byte	0
 4102 0688 13       		.uleb128 0x13
 4103 0689 C6080000 		.4byte	.LASF109
 4104 068d 01       		.byte	0x1
 4105 068e 11       		.byte	0x11
 4106 068f 6A       		.byte	0x6a
 4107 0690 B3060000 		.4byte	0x6b3
 4108 0694 12       		.uleb128 0x12
 4109 0695 A0020000 		.4byte	.LASF110
 4110 0699 00       		.sleb128 0
 4111 069a 12       		.uleb128 0x12
 4112 069b B9030000 		.4byte	.LASF111
 4113 069f 01       		.sleb128 1
 4114 06a0 12       		.uleb128 0x12
 4115 06a1 84030000 		.4byte	.LASF112
 4116 06a5 02       		.sleb128 2
 4117 06a6 12       		.uleb128 0x12
 4118 06a7 3F090000 		.4byte	.LASF113
 4119 06ab 03       		.sleb128 3
 4120 06ac 12       		.uleb128 0x12
 4121 06ad FE010000 		.4byte	.LASF114
 4122 06b1 04       		.sleb128 4
 4123 06b2 00       		.byte	0
 4124 06b3 03       		.uleb128 0x3
 4125 06b4 D2080000 		.4byte	.LASF115
 4126 06b8 11       		.byte	0x11
 4127 06b9 83       		.byte	0x83
 4128 06ba BE060000 		.4byte	0x6be
 4129 06be 09       		.uleb128 0x9
 4130 06bf 04       		.byte	0x4
ARM GAS  /var/folders/5n/p_75w94d66l9ssrldxqdhh700000gn/T//ccmhGqes.s 			page 74


 4131 06c0 C4060000 		.4byte	0x6c4
 4132 06c4 14       		.uleb128 0x14
 4133 06c5 01       		.byte	0x1
 4134 06c6 DA060000 		.4byte	0x6da
 4135 06ca 15       		.uleb128 0x15
 4136 06cb DA060000 		.4byte	0x6da
 4137 06cf 15       		.uleb128 0x15
 4138 06d0 88060000 		.4byte	0x688
 4139 06d4 15       		.uleb128 0x15
 4140 06d5 B7040000 		.4byte	0x4b7
 4141 06d9 00       		.byte	0
 4142 06da 09       		.uleb128 0x9
 4143 06db 04       		.byte	0x4
 4144 06dc E0060000 		.4byte	0x6e0
 4145 06e0 05       		.uleb128 0x5
 4146 06e1 920A0000 		.4byte	.LASF116
 4147 06e5 2C       		.byte	0x2c
 4148 06e6 11       		.byte	0x11
 4149 06e7 86       		.byte	0x86
 4150 06e8 95070000 		.4byte	0x795
 4151 06ec 06       		.uleb128 0x6
 4152 06ed FD080000 		.4byte	.LASF92
 4153 06f1 11       		.byte	0x11
 4154 06f2 88       		.byte	0x88
 4155 06f3 2B060000 		.4byte	0x62b
 4156 06f7 02       		.byte	0x2
 4157 06f8 23       		.byte	0x23
 4158 06f9 00       		.uleb128 0
 4159 06fa 06       		.uleb128 0x6
 4160 06fb BF090000 		.4byte	.LASF117
 4161 06ff 11       		.byte	0x11
 4162 0700 8A       		.byte	0x8a
 4163 0701 5D060000 		.4byte	0x65d
 4164 0705 02       		.byte	0x2
 4165 0706 23       		.byte	0x23
 4166 0707 01       		.uleb128 0x1
 4167 0708 07       		.uleb128 0x7
 4168 0709 70636200 		.ascii	"pcb\000"
 4169 070d 11       		.byte	0x11
 4170 070e 91       		.byte	0x91
 4171 070f 95070000 		.4byte	0x795
 4172 0713 02       		.byte	0x2
 4173 0714 23       		.byte	0x23
 4174 0715 04       		.uleb128 0x4
 4175 0716 06       		.uleb128 0x6
 4176 0717 38030000 		.4byte	.LASF118
 4177 071b 11       		.byte	0x11
 4178 071c 93       		.byte	0x93
 4179 071d FE040000 		.4byte	0x4fe
 4180 0721 02       		.byte	0x2
 4181 0722 23       		.byte	0x23
 4182 0723 08       		.uleb128 0x8
 4183 0724 06       		.uleb128 0x6
 4184 0725 7B0A0000 		.4byte	.LASF119
 4185 0729 11       		.byte	0x11
 4186 072a 95       		.byte	0x95
 4187 072b 09050000 		.4byte	0x509
ARM GAS  /var/folders/5n/p_75w94d66l9ssrldxqdhh700000gn/T//ccmhGqes.s 			page 75


 4188 072f 02       		.byte	0x2
 4189 0730 23       		.byte	0x23
 4190 0731 0C       		.uleb128 0xc
 4191 0732 06       		.uleb128 0x6
 4192 0733 B2000000 		.4byte	.LASF120
 4193 0737 11       		.byte	0x11
 4194 0738 98       		.byte	0x98
 4195 0739 1A050000 		.4byte	0x51a
 4196 073d 02       		.byte	0x2
 4197 073e 23       		.byte	0x23
 4198 073f 10       		.uleb128 0x10
 4199 0740 06       		.uleb128 0x6
 4200 0741 D6040000 		.4byte	.LASF121
 4201 0745 11       		.byte	0x11
 4202 0746 9C       		.byte	0x9c
 4203 0747 1A050000 		.4byte	0x51a
 4204 074b 02       		.byte	0x2
 4205 074c 23       		.byte	0x23
 4206 074d 14       		.uleb128 0x14
 4207 074e 06       		.uleb128 0x6
 4208 074f C8070000 		.4byte	.LASF122
 4209 0753 11       		.byte	0x11
 4210 0754 A0       		.byte	0xa0
 4211 0755 29000000 		.4byte	0x29
 4212 0759 02       		.byte	0x2
 4213 075a 23       		.byte	0x23
 4214 075b 18       		.uleb128 0x18
 4215 075c 06       		.uleb128 0x6
 4216 075d 87000000 		.4byte	.LASF93
 4217 0761 11       		.byte	0x11
 4218 0762 B1       		.byte	0xb1
 4219 0763 A1040000 		.4byte	0x4a1
 4220 0767 02       		.byte	0x2
 4221 0768 23       		.byte	0x23
 4222 0769 1C       		.uleb128 0x1c
 4223 076a 06       		.uleb128 0x6
 4224 076b AD090000 		.4byte	.LASF123
 4225 076f 11       		.byte	0x11
 4226 0770 B5       		.byte	0xb5
 4227 0771 30000000 		.4byte	0x30
 4228 0775 02       		.byte	0x2
 4229 0776 23       		.byte	0x23
 4230 0777 20       		.uleb128 0x20
 4231 0778 06       		.uleb128 0x6
 4232 0779 55070000 		.4byte	.LASF124
 4233 077d 11       		.byte	0x11
 4234 077e B9       		.byte	0xb9
 4235 077f AC0C0000 		.4byte	0xcac
 4236 0783 02       		.byte	0x2
 4237 0784 23       		.byte	0x23
 4238 0785 24       		.uleb128 0x24
 4239 0786 06       		.uleb128 0x6
 4240 0787 C5090000 		.4byte	.LASF125
 4241 078b 11       		.byte	0x11
 4242 078c BC       		.byte	0xbc
 4243 078d B3060000 		.4byte	0x6b3
 4244 0791 02       		.byte	0x2
ARM GAS  /var/folders/5n/p_75w94d66l9ssrldxqdhh700000gn/T//ccmhGqes.s 			page 76


 4245 0792 23       		.byte	0x23
 4246 0793 28       		.uleb128 0x28
 4247 0794 00       		.byte	0
 4248 0795 0E       		.uleb128 0xe
 4249 0796 04       		.byte	0x4
 4250 0797 11       		.byte	0x11
 4251 0798 8C       		.byte	0x8c
 4252 0799 C9070000 		.4byte	0x7c9
 4253 079d 16       		.uleb128 0x16
 4254 079e 697000   		.ascii	"ip\000"
 4255 07a1 11       		.byte	0x11
 4256 07a2 8D       		.byte	0x8d
 4257 07a3 1C080000 		.4byte	0x81c
 4258 07a7 16       		.uleb128 0x16
 4259 07a8 74637000 		.ascii	"tcp\000"
 4260 07ac 11       		.byte	0x11
 4261 07ad 8E       		.byte	0x8e
 4262 07ae 310B0000 		.4byte	0xb31
 4263 07b2 16       		.uleb128 0x16
 4264 07b3 75647000 		.ascii	"udp\000"
 4265 07b7 11       		.byte	0x11
 4266 07b8 8F       		.byte	0x8f
 4267 07b9 DE0B0000 		.4byte	0xbde
 4268 07bd 16       		.uleb128 0x16
 4269 07be 72617700 		.ascii	"raw\000"
 4270 07c2 11       		.byte	0x11
 4271 07c3 90       		.byte	0x90
 4272 07c4 6F0C0000 		.4byte	0xc6f
 4273 07c8 00       		.byte	0
 4274 07c9 05       		.uleb128 0x5
 4275 07ca 55090000 		.4byte	.LASF126
 4276 07ce 0C       		.byte	0xc
 4277 07cf 12       		.byte	0x12
 4278 07d0 59       		.byte	0x59
 4279 07d1 1C080000 		.4byte	0x81c
 4280 07d5 06       		.uleb128 0x6
 4281 07d6 86070000 		.4byte	.LASF127
 4282 07da 12       		.byte	0x12
 4283 07db 5B       		.byte	0x5b
 4284 07dc F3040000 		.4byte	0x4f3
 4285 07e0 02       		.byte	0x2
 4286 07e1 23       		.byte	0x23
 4287 07e2 00       		.uleb128 0
 4288 07e3 06       		.uleb128 0x6
 4289 07e4 710A0000 		.4byte	.LASF128
 4290 07e8 12       		.byte	0x12
 4291 07e9 5B       		.byte	0x5b
 4292 07ea F3040000 		.4byte	0x4f3
 4293 07ee 02       		.byte	0x2
 4294 07ef 23       		.byte	0x23
 4295 07f0 04       		.uleb128 0x4
 4296 07f1 06       		.uleb128 0x6
 4297 07f2 47000000 		.4byte	.LASF129
 4298 07f6 12       		.byte	0x12
 4299 07f7 5B       		.byte	0x5b
 4300 07f8 A1040000 		.4byte	0x4a1
 4301 07fc 02       		.byte	0x2
ARM GAS  /var/folders/5n/p_75w94d66l9ssrldxqdhh700000gn/T//ccmhGqes.s 			page 77


 4302 07fd 23       		.byte	0x23
 4303 07fe 08       		.uleb128 0x8
 4304 07ff 07       		.uleb128 0x7
 4305 0800 746F7300 		.ascii	"tos\000"
 4306 0804 12       		.byte	0x12
 4307 0805 5B       		.byte	0x5b
 4308 0806 A1040000 		.4byte	0x4a1
 4309 080a 02       		.byte	0x2
 4310 080b 23       		.byte	0x23
 4311 080c 09       		.uleb128 0x9
 4312 080d 07       		.uleb128 0x7
 4313 080e 74746C00 		.ascii	"ttl\000"
 4314 0812 12       		.byte	0x12
 4315 0813 5B       		.byte	0x5b
 4316 0814 A1040000 		.4byte	0x4a1
 4317 0818 02       		.byte	0x2
 4318 0819 23       		.byte	0x23
 4319 081a 0A       		.uleb128 0xa
 4320 081b 00       		.byte	0
 4321 081c 09       		.uleb128 0x9
 4322 081d 04       		.byte	0x4
 4323 081e C9070000 		.4byte	0x7c9
 4324 0822 05       		.uleb128 0x5
 4325 0823 270A0000 		.4byte	.LASF130
 4326 0827 A4       		.byte	0xa4
 4327 0828 13       		.byte	0x13
 4328 0829 A9       		.byte	0xa9
 4329 082a 310B0000 		.4byte	0xb31
 4330 082e 06       		.uleb128 0x6
 4331 082f 86070000 		.4byte	.LASF127
 4332 0833 13       		.byte	0x13
 4333 0834 AB       		.byte	0xab
 4334 0835 F3040000 		.4byte	0x4f3
 4335 0839 02       		.byte	0x2
 4336 083a 23       		.byte	0x23
 4337 083b 00       		.uleb128 0
 4338 083c 06       		.uleb128 0x6
 4339 083d 710A0000 		.4byte	.LASF128
 4340 0841 13       		.byte	0x13
 4341 0842 AB       		.byte	0xab
 4342 0843 F3040000 		.4byte	0x4f3
 4343 0847 02       		.byte	0x2
 4344 0848 23       		.byte	0x23
 4345 0849 04       		.uleb128 0x4
 4346 084a 06       		.uleb128 0x6
 4347 084b 47000000 		.4byte	.LASF129
 4348 084f 13       		.byte	0x13
 4349 0850 AB       		.byte	0xab
 4350 0851 A1040000 		.4byte	0x4a1
 4351 0855 02       		.byte	0x2
 4352 0856 23       		.byte	0x23
 4353 0857 08       		.uleb128 0x8
 4354 0858 07       		.uleb128 0x7
 4355 0859 746F7300 		.ascii	"tos\000"
 4356 085d 13       		.byte	0x13
 4357 085e AB       		.byte	0xab
 4358 085f A1040000 		.4byte	0x4a1
ARM GAS  /var/folders/5n/p_75w94d66l9ssrldxqdhh700000gn/T//ccmhGqes.s 			page 78


 4359 0863 02       		.byte	0x2
 4360 0864 23       		.byte	0x23
 4361 0865 09       		.uleb128 0x9
 4362 0866 07       		.uleb128 0x7
 4363 0867 74746C00 		.ascii	"ttl\000"
 4364 086b 13       		.byte	0x13
 4365 086c AB       		.byte	0xab
 4366 086d A1040000 		.4byte	0x4a1
 4367 0871 02       		.byte	0x2
 4368 0872 23       		.byte	0x23
 4369 0873 0A       		.uleb128 0xa
 4370 0874 06       		.uleb128 0x6
 4371 0875 E9000000 		.4byte	.LASF89
 4372 0879 13       		.byte	0x13
 4373 087a AD       		.byte	0xad
 4374 087b 310B0000 		.4byte	0xb31
 4375 087f 02       		.byte	0x2
 4376 0880 23       		.byte	0x23
 4377 0881 0C       		.uleb128 0xc
 4378 0882 06       		.uleb128 0x6
 4379 0883 BF090000 		.4byte	.LASF117
 4380 0887 13       		.byte	0x13
 4381 0888 AD       		.byte	0xad
 4382 0889 EA0E0000 		.4byte	0xeea
 4383 088d 02       		.byte	0x2
 4384 088e 23       		.byte	0x23
 4385 088f 10       		.uleb128 0x10
 4386 0890 06       		.uleb128 0x6
 4387 0891 EA030000 		.4byte	.LASF131
 4388 0895 13       		.byte	0x13
 4389 0896 AD       		.byte	0xad
 4390 0897 A1040000 		.4byte	0x4a1
 4391 089b 02       		.byte	0x2
 4392 089c 23       		.byte	0x23
 4393 089d 11       		.uleb128 0x11
 4394 089e 06       		.uleb128 0x6
 4395 089f 8F090000 		.4byte	.LASF132
 4396 08a3 13       		.byte	0x13
 4397 08a4 AD       		.byte	0xad
 4398 08a5 B2020000 		.4byte	0x2b2
 4399 08a9 02       		.byte	0x2
 4400 08aa 23       		.byte	0x23
 4401 08ab 14       		.uleb128 0x14
 4402 08ac 06       		.uleb128 0x6
 4403 08ad EF030000 		.4byte	.LASF133
 4404 08b1 13       		.byte	0x13
 4405 08b2 AD       		.byte	0xad
 4406 08b3 110E0000 		.4byte	0xe11
 4407 08b7 02       		.byte	0x2
 4408 08b8 23       		.byte	0x23
 4409 08b9 18       		.uleb128 0x18
 4410 08ba 06       		.uleb128 0x6
 4411 08bb A7000000 		.4byte	.LASF134
 4412 08bf 13       		.byte	0x13
 4413 08c0 AD       		.byte	0xad
 4414 08c1 B7040000 		.4byte	0x4b7
 4415 08c5 02       		.byte	0x2
ARM GAS  /var/folders/5n/p_75w94d66l9ssrldxqdhh700000gn/T//ccmhGqes.s 			page 79


 4416 08c6 23       		.byte	0x23
 4417 08c7 1C       		.uleb128 0x1c
 4418 08c8 06       		.uleb128 0x6
 4419 08c9 E4050000 		.4byte	.LASF135
 4420 08cd 13       		.byte	0x13
 4421 08ce B0       		.byte	0xb0
 4422 08cf B7040000 		.4byte	0x4b7
 4423 08d3 02       		.byte	0x2
 4424 08d4 23       		.byte	0x23
 4425 08d5 1E       		.uleb128 0x1e
 4426 08d6 06       		.uleb128 0x6
 4427 08d7 87000000 		.4byte	.LASF93
 4428 08db 13       		.byte	0x13
 4429 08dc B2       		.byte	0xb2
 4430 08dd A1040000 		.4byte	0x4a1
 4431 08e1 02       		.byte	0x2
 4432 08e2 23       		.byte	0x23
 4433 08e3 20       		.uleb128 0x20
 4434 08e4 06       		.uleb128 0x6
 4435 08e5 7A020000 		.4byte	.LASF136
 4436 08e9 13       		.byte	0x13
 4437 08ea BF       		.byte	0xbf
 4438 08eb CD040000 		.4byte	0x4cd
 4439 08ef 02       		.byte	0x2
 4440 08f0 23       		.byte	0x23
 4441 08f1 24       		.uleb128 0x24
 4442 08f2 06       		.uleb128 0x6
 4443 08f3 41070000 		.4byte	.LASF137
 4444 08f7 13       		.byte	0x13
 4445 08f8 C0       		.byte	0xc0
 4446 08f9 B7040000 		.4byte	0x4b7
 4447 08fd 02       		.byte	0x2
 4448 08fe 23       		.byte	0x23
 4449 08ff 28       		.uleb128 0x28
 4450 0900 06       		.uleb128 0x6
 4451 0901 FC050000 		.4byte	.LASF138
 4452 0905 13       		.byte	0x13
 4453 0906 C1       		.byte	0xc1
 4454 0907 B7040000 		.4byte	0x4b7
 4455 090b 02       		.byte	0x2
 4456 090c 23       		.byte	0x23
 4457 090d 2A       		.uleb128 0x2a
 4458 090e 06       		.uleb128 0x6
 4459 090f 39010000 		.4byte	.LASF139
 4460 0913 13       		.byte	0x13
 4461 0914 C2       		.byte	0xc2
 4462 0915 CD040000 		.4byte	0x4cd
 4463 0919 02       		.byte	0x2
 4464 091a 23       		.byte	0x23
 4465 091b 2C       		.uleb128 0x2c
 4466 091c 07       		.uleb128 0x7
 4467 091d 746D7200 		.ascii	"tmr\000"
 4468 0921 13       		.byte	0x13
 4469 0922 C5       		.byte	0xc5
 4470 0923 CD040000 		.4byte	0x4cd
 4471 0927 02       		.byte	0x2
 4472 0928 23       		.byte	0x23
ARM GAS  /var/folders/5n/p_75w94d66l9ssrldxqdhh700000gn/T//ccmhGqes.s 			page 80


 4473 0929 30       		.uleb128 0x30
 4474 092a 06       		.uleb128 0x6
 4475 092b 76000000 		.4byte	.LASF140
 4476 092f 13       		.byte	0x13
 4477 0930 C6       		.byte	0xc6
 4478 0931 A1040000 		.4byte	0x4a1
 4479 0935 02       		.byte	0x2
 4480 0936 23       		.byte	0x23
 4481 0937 34       		.uleb128 0x34
 4482 0938 06       		.uleb128 0x6
 4483 0939 1F080000 		.4byte	.LASF141
 4484 093d 13       		.byte	0x13
 4485 093e C6       		.byte	0xc6
 4486 093f A1040000 		.4byte	0x4a1
 4487 0943 02       		.byte	0x2
 4488 0944 23       		.byte	0x23
 4489 0945 35       		.uleb128 0x35
 4490 0946 06       		.uleb128 0x6
 4491 0947 67020000 		.4byte	.LASF142
 4492 094b 13       		.byte	0x13
 4493 094c C9       		.byte	0xc9
 4494 094d C2040000 		.4byte	0x4c2
 4495 0951 02       		.byte	0x2
 4496 0952 23       		.byte	0x23
 4497 0953 36       		.uleb128 0x36
 4498 0954 07       		.uleb128 0x7
 4499 0955 6D737300 		.ascii	"mss\000"
 4500 0959 13       		.byte	0x13
 4501 095a CB       		.byte	0xcb
 4502 095b B7040000 		.4byte	0x4b7
 4503 095f 02       		.byte	0x2
 4504 0960 23       		.byte	0x23
 4505 0961 38       		.uleb128 0x38
 4506 0962 06       		.uleb128 0x6
 4507 0963 49070000 		.4byte	.LASF143
 4508 0967 13       		.byte	0x13
 4509 0968 CE       		.byte	0xce
 4510 0969 CD040000 		.4byte	0x4cd
 4511 096d 02       		.byte	0x2
 4512 096e 23       		.byte	0x23
 4513 096f 3C       		.uleb128 0x3c
 4514 0970 06       		.uleb128 0x6
 4515 0971 B3030000 		.4byte	.LASF144
 4516 0975 13       		.byte	0x13
 4517 0976 CF       		.byte	0xcf
 4518 0977 CD040000 		.4byte	0x4cd
 4519 097b 02       		.byte	0x2
 4520 097c 23       		.byte	0x23
 4521 097d 40       		.uleb128 0x40
 4522 097e 07       		.uleb128 0x7
 4523 097f 736100   		.ascii	"sa\000"
 4524 0982 13       		.byte	0x13
 4525 0983 D0       		.byte	0xd0
 4526 0984 C2040000 		.4byte	0x4c2
 4527 0988 02       		.byte	0x2
 4528 0989 23       		.byte	0x23
 4529 098a 44       		.uleb128 0x44
ARM GAS  /var/folders/5n/p_75w94d66l9ssrldxqdhh700000gn/T//ccmhGqes.s 			page 81


 4530 098b 07       		.uleb128 0x7
 4531 098c 737600   		.ascii	"sv\000"
 4532 098f 13       		.byte	0x13
 4533 0990 D0       		.byte	0xd0
 4534 0991 C2040000 		.4byte	0x4c2
 4535 0995 02       		.byte	0x2
 4536 0996 23       		.byte	0x23
 4537 0997 46       		.uleb128 0x46
 4538 0998 07       		.uleb128 0x7
 4539 0999 72746F00 		.ascii	"rto\000"
 4540 099d 13       		.byte	0x13
 4541 099e D2       		.byte	0xd2
 4542 099f C2040000 		.4byte	0x4c2
 4543 09a3 02       		.byte	0x2
 4544 09a4 23       		.byte	0x23
 4545 09a5 48       		.uleb128 0x48
 4546 09a6 06       		.uleb128 0x6
 4547 09a7 C20A0000 		.4byte	.LASF145
 4548 09ab 13       		.byte	0x13
 4549 09ac D3       		.byte	0xd3
 4550 09ad A1040000 		.4byte	0x4a1
 4551 09b1 02       		.byte	0x2
 4552 09b2 23       		.byte	0x23
 4553 09b3 4A       		.uleb128 0x4a
 4554 09b4 06       		.uleb128 0x6
 4555 09b5 41030000 		.4byte	.LASF146
 4556 09b9 13       		.byte	0x13
 4557 09ba D6       		.byte	0xd6
 4558 09bb CD040000 		.4byte	0x4cd
 4559 09bf 02       		.byte	0x2
 4560 09c0 23       		.byte	0x23
 4561 09c1 4C       		.uleb128 0x4c
 4562 09c2 06       		.uleb128 0x6
 4563 09c3 D5030000 		.4byte	.LASF147
 4564 09c7 13       		.byte	0x13
 4565 09c8 D7       		.byte	0xd7
 4566 09c9 A1040000 		.4byte	0x4a1
 4567 09cd 02       		.byte	0x2
 4568 09ce 23       		.byte	0x23
 4569 09cf 50       		.uleb128 0x50
 4570 09d0 06       		.uleb128 0x6
 4571 09d1 DA010000 		.4byte	.LASF148
 4572 09d5 13       		.byte	0x13
 4573 09d6 DA       		.byte	0xda
 4574 09d7 B7040000 		.4byte	0x4b7
 4575 09db 02       		.byte	0x2
 4576 09dc 23       		.byte	0x23
 4577 09dd 52       		.uleb128 0x52
 4578 09de 06       		.uleb128 0x6
 4579 09df 0E080000 		.4byte	.LASF149
 4580 09e3 13       		.byte	0x13
 4581 09e4 DB       		.byte	0xdb
 4582 09e5 B7040000 		.4byte	0x4b7
 4583 09e9 02       		.byte	0x2
 4584 09ea 23       		.byte	0x23
 4585 09eb 54       		.uleb128 0x54
 4586 09ec 06       		.uleb128 0x6
ARM GAS  /var/folders/5n/p_75w94d66l9ssrldxqdhh700000gn/T//ccmhGqes.s 			page 82


 4587 09ed CF070000 		.4byte	.LASF150
 4588 09f1 13       		.byte	0x13
 4589 09f2 DE       		.byte	0xde
 4590 09f3 CD040000 		.4byte	0x4cd
 4591 09f7 02       		.byte	0x2
 4592 09f8 23       		.byte	0x23
 4593 09f9 58       		.uleb128 0x58
 4594 09fa 06       		.uleb128 0x6
 4595 09fb 99060000 		.4byte	.LASF151
 4596 09ff 13       		.byte	0x13
 4597 0a00 DF       		.byte	0xdf
 4598 0a01 B7040000 		.4byte	0x4b7
 4599 0a05 02       		.byte	0x2
 4600 0a06 23       		.byte	0x23
 4601 0a07 5C       		.uleb128 0x5c
 4602 0a08 06       		.uleb128 0x6
 4603 0a09 A9040000 		.4byte	.LASF152
 4604 0a0d 13       		.byte	0x13
 4605 0a0e E0       		.byte	0xe0
 4606 0a0f CD040000 		.4byte	0x4cd
 4607 0a13 02       		.byte	0x2
 4608 0a14 23       		.byte	0x23
 4609 0a15 60       		.uleb128 0x60
 4610 0a16 06       		.uleb128 0x6
 4611 0a17 B1040000 		.4byte	.LASF153
 4612 0a1b 13       		.byte	0x13
 4613 0a1c E0       		.byte	0xe0
 4614 0a1d CD040000 		.4byte	0x4cd
 4615 0a21 02       		.byte	0x2
 4616 0a22 23       		.byte	0x23
 4617 0a23 64       		.uleb128 0x64
 4618 0a24 06       		.uleb128 0x6
 4619 0a25 F0040000 		.4byte	.LASF154
 4620 0a29 13       		.byte	0x13
 4621 0a2a E2       		.byte	0xe2
 4622 0a2b CD040000 		.4byte	0x4cd
 4623 0a2f 02       		.byte	0x2
 4624 0a30 23       		.byte	0x23
 4625 0a31 68       		.uleb128 0x68
 4626 0a32 06       		.uleb128 0x6
 4627 0a33 4B040000 		.4byte	.LASF155
 4628 0a37 13       		.byte	0x13
 4629 0a38 E4       		.byte	0xe4
 4630 0a39 B7040000 		.4byte	0x4b7
 4631 0a3d 02       		.byte	0x2
 4632 0a3e 23       		.byte	0x23
 4633 0a3f 6C       		.uleb128 0x6c
 4634 0a40 06       		.uleb128 0x6
 4635 0a41 17080000 		.4byte	.LASF156
 4636 0a45 13       		.byte	0x13
 4637 0a46 E6       		.byte	0xe6
 4638 0a47 B7040000 		.4byte	0x4b7
 4639 0a4b 02       		.byte	0x2
 4640 0a4c 23       		.byte	0x23
 4641 0a4d 6E       		.uleb128 0x6e
 4642 0a4e 06       		.uleb128 0x6
 4643 0a4f CE090000 		.4byte	.LASF157
ARM GAS  /var/folders/5n/p_75w94d66l9ssrldxqdhh700000gn/T//ccmhGqes.s 			page 83


 4644 0a53 13       		.byte	0x13
 4645 0a54 E8       		.byte	0xe8
 4646 0a55 B7040000 		.4byte	0x4b7
 4647 0a59 02       		.byte	0x2
 4648 0a5a 23       		.byte	0x23
 4649 0a5b 70       		.uleb128 0x70
 4650 0a5c 06       		.uleb128 0x6
 4651 0a5d A3070000 		.4byte	.LASF158
 4652 0a61 13       		.byte	0x13
 4653 0a62 EC       		.byte	0xec
 4654 0a63 B7040000 		.4byte	0x4b7
 4655 0a67 02       		.byte	0x2
 4656 0a68 23       		.byte	0x23
 4657 0a69 72       		.uleb128 0x72
 4658 0a6a 06       		.uleb128 0x6
 4659 0a6b 3A070000 		.4byte	.LASF159
 4660 0a6f 13       		.byte	0x13
 4661 0a70 F0       		.byte	0xf0
 4662 0a71 3F0F0000 		.4byte	0xf3f
 4663 0a75 02       		.byte	0x2
 4664 0a76 23       		.byte	0x23
 4665 0a77 74       		.uleb128 0x74
 4666 0a78 06       		.uleb128 0x6
 4667 0a79 30090000 		.4byte	.LASF160
 4668 0a7d 13       		.byte	0x13
 4669 0a7e F1       		.byte	0xf1
 4670 0a7f 3F0F0000 		.4byte	0xf3f
 4671 0a83 02       		.byte	0x2
 4672 0a84 23       		.byte	0x23
 4673 0a85 78       		.uleb128 0x78
 4674 0a86 06       		.uleb128 0x6
 4675 0a87 BE060000 		.4byte	.LASF161
 4676 0a8b 13       		.byte	0x13
 4677 0a8c F3       		.byte	0xf3
 4678 0a8d 3F0F0000 		.4byte	0xf3f
 4679 0a91 02       		.byte	0x2
 4680 0a92 23       		.byte	0x23
 4681 0a93 7C       		.uleb128 0x7c
 4682 0a94 06       		.uleb128 0x6
 4683 0a95 B2080000 		.4byte	.LASF162
 4684 0a99 13       		.byte	0x13
 4685 0a9a F6       		.byte	0xf6
 4686 0a9b DC050000 		.4byte	0x5dc
 4687 0a9f 03       		.byte	0x3
 4688 0aa0 23       		.byte	0x23
 4689 0aa1 8001     		.uleb128 0x80
 4690 0aa3 06       		.uleb128 0x6
 4691 0aa4 91040000 		.4byte	.LASF163
 4692 0aa8 13       		.byte	0x13
 4693 0aa9 FA       		.byte	0xfa
 4694 0aaa 6C0E0000 		.4byte	0xe6c
 4695 0aae 03       		.byte	0x3
 4696 0aaf 23       		.byte	0x23
 4697 0ab0 8401     		.uleb128 0x84
 4698 0ab2 06       		.uleb128 0x6
 4699 0ab3 6D020000 		.4byte	.LASF164
 4700 0ab7 13       		.byte	0x13
ARM GAS  /var/folders/5n/p_75w94d66l9ssrldxqdhh700000gn/T//ccmhGqes.s 			page 84


 4701 0ab8 FC       		.byte	0xfc
 4702 0ab9 3C0E0000 		.4byte	0xe3c
 4703 0abd 03       		.byte	0x3
 4704 0abe 23       		.byte	0x23
 4705 0abf 8801     		.uleb128 0x88
 4706 0ac1 06       		.uleb128 0x6
 4707 0ac2 F6020000 		.4byte	.LASF165
 4708 0ac6 13       		.byte	0x13
 4709 0ac7 FE       		.byte	0xfe
 4710 0ac8 DF0E0000 		.4byte	0xedf
 4711 0acc 03       		.byte	0x3
 4712 0acd 23       		.byte	0x23
 4713 0ace 8C01     		.uleb128 0x8c
 4714 0ad0 17       		.uleb128 0x17
 4715 0ad1 00040000 		.4byte	.LASF166
 4716 0ad5 13       		.byte	0x13
 4717 0ad6 0001     		.2byte	0x100
 4718 0ad8 970E0000 		.4byte	0xe97
 4719 0adc 03       		.byte	0x3
 4720 0add 23       		.byte	0x23
 4721 0ade 9001     		.uleb128 0x90
 4722 0ae0 17       		.uleb128 0x17
 4723 0ae1 8D060000 		.4byte	.LASF167
 4724 0ae5 13       		.byte	0x13
 4725 0ae6 0201     		.2byte	0x102
 4726 0ae8 BD0E0000 		.4byte	0xebd
 4727 0aec 03       		.byte	0x3
 4728 0aed 23       		.byte	0x23
 4729 0aee 9401     		.uleb128 0x94
 4730 0af0 17       		.uleb128 0x17
 4731 0af1 76090000 		.4byte	.LASF168
 4732 0af5 13       		.byte	0x13
 4733 0af6 0B01     		.2byte	0x10b
 4734 0af8 CD040000 		.4byte	0x4cd
 4735 0afc 03       		.byte	0x3
 4736 0afd 23       		.byte	0x23
 4737 0afe 9801     		.uleb128 0x98
 4738 0b00 17       		.uleb128 0x17
 4739 0b01 650A0000 		.4byte	.LASF169
 4740 0b05 13       		.byte	0x13
 4741 0b06 1201     		.2byte	0x112
 4742 0b08 CD040000 		.4byte	0x4cd
 4743 0b0c 03       		.byte	0x3
 4744 0b0d 23       		.byte	0x23
 4745 0b0e 9C01     		.uleb128 0x9c
 4746 0b10 17       		.uleb128 0x17
 4747 0b11 2D050000 		.4byte	.LASF170
 4748 0b15 13       		.byte	0x13
 4749 0b16 1401     		.2byte	0x114
 4750 0b18 A1040000 		.4byte	0x4a1
 4751 0b1c 03       		.byte	0x3
 4752 0b1d 23       		.byte	0x23
 4753 0b1e A001     		.uleb128 0xa0
 4754 0b20 17       		.uleb128 0x17
 4755 0b21 72010000 		.4byte	.LASF171
 4756 0b25 13       		.byte	0x13
 4757 0b26 1701     		.2byte	0x117
ARM GAS  /var/folders/5n/p_75w94d66l9ssrldxqdhh700000gn/T//ccmhGqes.s 			page 85


 4758 0b28 A1040000 		.4byte	0x4a1
 4759 0b2c 03       		.byte	0x3
 4760 0b2d 23       		.byte	0x23
 4761 0b2e A101     		.uleb128 0xa1
 4762 0b30 00       		.byte	0
 4763 0b31 09       		.uleb128 0x9
 4764 0b32 04       		.byte	0x4
 4765 0b33 22080000 		.4byte	0x822
 4766 0b37 05       		.uleb128 0x5
 4767 0b38 16000000 		.4byte	.LASF172
 4768 0b3c 20       		.byte	0x20
 4769 0b3d 14       		.byte	0x14
 4770 0b3e 5B       		.byte	0x5b
 4771 0b3f DE0B0000 		.4byte	0xbde
 4772 0b43 06       		.uleb128 0x6
 4773 0b44 86070000 		.4byte	.LASF127
 4774 0b48 14       		.byte	0x14
 4775 0b49 5D       		.byte	0x5d
 4776 0b4a F3040000 		.4byte	0x4f3
 4777 0b4e 02       		.byte	0x2
 4778 0b4f 23       		.byte	0x23
 4779 0b50 00       		.uleb128 0
 4780 0b51 06       		.uleb128 0x6
 4781 0b52 710A0000 		.4byte	.LASF128
 4782 0b56 14       		.byte	0x14
 4783 0b57 5D       		.byte	0x5d
 4784 0b58 F3040000 		.4byte	0x4f3
 4785 0b5c 02       		.byte	0x2
 4786 0b5d 23       		.byte	0x23
 4787 0b5e 04       		.uleb128 0x4
 4788 0b5f 06       		.uleb128 0x6
 4789 0b60 47000000 		.4byte	.LASF129
 4790 0b64 14       		.byte	0x14
 4791 0b65 5D       		.byte	0x5d
 4792 0b66 A1040000 		.4byte	0x4a1
 4793 0b6a 02       		.byte	0x2
 4794 0b6b 23       		.byte	0x23
 4795 0b6c 08       		.uleb128 0x8
 4796 0b6d 07       		.uleb128 0x7
 4797 0b6e 746F7300 		.ascii	"tos\000"
 4798 0b72 14       		.byte	0x14
 4799 0b73 5D       		.byte	0x5d
 4800 0b74 A1040000 		.4byte	0x4a1
 4801 0b78 02       		.byte	0x2
 4802 0b79 23       		.byte	0x23
 4803 0b7a 09       		.uleb128 0x9
 4804 0b7b 07       		.uleb128 0x7
 4805 0b7c 74746C00 		.ascii	"ttl\000"
 4806 0b80 14       		.byte	0x14
 4807 0b81 5D       		.byte	0x5d
 4808 0b82 A1040000 		.4byte	0x4a1
 4809 0b86 02       		.byte	0x2
 4810 0b87 23       		.byte	0x23
 4811 0b88 0A       		.uleb128 0xa
 4812 0b89 06       		.uleb128 0x6
 4813 0b8a E9000000 		.4byte	.LASF89
 4814 0b8e 14       		.byte	0x14
ARM GAS  /var/folders/5n/p_75w94d66l9ssrldxqdhh700000gn/T//ccmhGqes.s 			page 86


 4815 0b8f 61       		.byte	0x61
 4816 0b90 DE0B0000 		.4byte	0xbde
 4817 0b94 02       		.byte	0x2
 4818 0b95 23       		.byte	0x23
 4819 0b96 0C       		.uleb128 0xc
 4820 0b97 06       		.uleb128 0x6
 4821 0b98 87000000 		.4byte	.LASF93
 4822 0b9c 14       		.byte	0x14
 4823 0b9d 63       		.byte	0x63
 4824 0b9e A1040000 		.4byte	0x4a1
 4825 0ba2 02       		.byte	0x2
 4826 0ba3 23       		.byte	0x23
 4827 0ba4 10       		.uleb128 0x10
 4828 0ba5 06       		.uleb128 0x6
 4829 0ba6 A7000000 		.4byte	.LASF134
 4830 0baa 14       		.byte	0x14
 4831 0bab 65       		.byte	0x65
 4832 0bac B7040000 		.4byte	0x4b7
 4833 0bb0 02       		.byte	0x2
 4834 0bb1 23       		.byte	0x23
 4835 0bb2 12       		.uleb128 0x12
 4836 0bb3 06       		.uleb128 0x6
 4837 0bb4 E4050000 		.4byte	.LASF135
 4838 0bb8 14       		.byte	0x14
 4839 0bb9 65       		.byte	0x65
 4840 0bba B7040000 		.4byte	0x4b7
 4841 0bbe 02       		.byte	0x2
 4842 0bbf 23       		.byte	0x23
 4843 0bc0 14       		.uleb128 0x14
 4844 0bc1 06       		.uleb128 0x6
 4845 0bc2 6D020000 		.4byte	.LASF164
 4846 0bc6 14       		.byte	0x14
 4847 0bc7 72       		.byte	0x72
 4848 0bc8 E00D0000 		.4byte	0xde0
 4849 0bcc 02       		.byte	0x2
 4850 0bcd 23       		.byte	0x23
 4851 0bce 18       		.uleb128 0x18
 4852 0bcf 06       		.uleb128 0x6
 4853 0bd0 88010000 		.4byte	.LASF173
 4854 0bd4 14       		.byte	0x14
 4855 0bd5 74       		.byte	0x74
 4856 0bd6 B2020000 		.4byte	0x2b2
 4857 0bda 02       		.byte	0x2
 4858 0bdb 23       		.byte	0x23
 4859 0bdc 1C       		.uleb128 0x1c
 4860 0bdd 00       		.byte	0
 4861 0bde 09       		.uleb128 0x9
 4862 0bdf 04       		.byte	0x4
 4863 0be0 370B0000 		.4byte	0xb37
 4864 0be4 05       		.uleb128 0x5
 4865 0be5 BB000000 		.4byte	.LASF174
 4866 0be9 1C       		.byte	0x1c
 4867 0bea 15       		.byte	0x15
 4868 0beb 3F       		.byte	0x3f
 4869 0bec 6F0C0000 		.4byte	0xc6f
 4870 0bf0 06       		.uleb128 0x6
 4871 0bf1 86070000 		.4byte	.LASF127
ARM GAS  /var/folders/5n/p_75w94d66l9ssrldxqdhh700000gn/T//ccmhGqes.s 			page 87


 4872 0bf5 15       		.byte	0x15
 4873 0bf6 41       		.byte	0x41
 4874 0bf7 F3040000 		.4byte	0x4f3
 4875 0bfb 02       		.byte	0x2
 4876 0bfc 23       		.byte	0x23
 4877 0bfd 00       		.uleb128 0
 4878 0bfe 06       		.uleb128 0x6
 4879 0bff 710A0000 		.4byte	.LASF128
 4880 0c03 15       		.byte	0x15
 4881 0c04 41       		.byte	0x41
 4882 0c05 F3040000 		.4byte	0x4f3
 4883 0c09 02       		.byte	0x2
 4884 0c0a 23       		.byte	0x23
 4885 0c0b 04       		.uleb128 0x4
 4886 0c0c 06       		.uleb128 0x6
 4887 0c0d 47000000 		.4byte	.LASF129
 4888 0c11 15       		.byte	0x15
 4889 0c12 41       		.byte	0x41
 4890 0c13 A1040000 		.4byte	0x4a1
 4891 0c17 02       		.byte	0x2
 4892 0c18 23       		.byte	0x23
 4893 0c19 08       		.uleb128 0x8
 4894 0c1a 07       		.uleb128 0x7
 4895 0c1b 746F7300 		.ascii	"tos\000"
 4896 0c1f 15       		.byte	0x15
 4897 0c20 41       		.byte	0x41
 4898 0c21 A1040000 		.4byte	0x4a1
 4899 0c25 02       		.byte	0x2
 4900 0c26 23       		.byte	0x23
 4901 0c27 09       		.uleb128 0x9
 4902 0c28 07       		.uleb128 0x7
 4903 0c29 74746C00 		.ascii	"ttl\000"
 4904 0c2d 15       		.byte	0x15
 4905 0c2e 41       		.byte	0x41
 4906 0c2f A1040000 		.4byte	0x4a1
 4907 0c33 02       		.byte	0x2
 4908 0c34 23       		.byte	0x23
 4909 0c35 0A       		.uleb128 0xa
 4910 0c36 06       		.uleb128 0x6
 4911 0c37 E9000000 		.4byte	.LASF89
 4912 0c3b 15       		.byte	0x15
 4913 0c3c 43       		.byte	0x43
 4914 0c3d 6F0C0000 		.4byte	0xc6f
 4915 0c41 02       		.byte	0x2
 4916 0c42 23       		.byte	0x23
 4917 0c43 0C       		.uleb128 0xc
 4918 0c44 06       		.uleb128 0x6
 4919 0c45 59010000 		.4byte	.LASF175
 4920 0c49 15       		.byte	0x15
 4921 0c4a 45       		.byte	0x45
 4922 0c4b A1040000 		.4byte	0x4a1
 4923 0c4f 02       		.byte	0x2
 4924 0c50 23       		.byte	0x23
 4925 0c51 10       		.uleb128 0x10
 4926 0c52 06       		.uleb128 0x6
 4927 0c53 6D020000 		.4byte	.LASF164
 4928 0c57 15       		.byte	0x15
ARM GAS  /var/folders/5n/p_75w94d66l9ssrldxqdhh700000gn/T//ccmhGqes.s 			page 88


 4929 0c58 48       		.byte	0x48
 4930 0c59 450F0000 		.4byte	0xf45
 4931 0c5d 02       		.byte	0x2
 4932 0c5e 23       		.byte	0x23
 4933 0c5f 14       		.uleb128 0x14
 4934 0c60 06       		.uleb128 0x6
 4935 0c61 88010000 		.4byte	.LASF173
 4936 0c65 15       		.byte	0x15
 4937 0c66 4A       		.byte	0x4a
 4938 0c67 B2020000 		.4byte	0x2b2
 4939 0c6b 02       		.byte	0x2
 4940 0c6c 23       		.byte	0x23
 4941 0c6d 18       		.uleb128 0x18
 4942 0c6e 00       		.byte	0
 4943 0c6f 09       		.uleb128 0x9
 4944 0c70 04       		.byte	0x4
 4945 0c71 E40B0000 		.4byte	0xbe4
 4946 0c75 05       		.uleb128 0x5
 4947 0c76 99030000 		.4byte	.LASF176
 4948 0c7a 14       		.byte	0x14
 4949 0c7b 16       		.byte	0x16
 4950 0c7c 3E       		.byte	0x3e
 4951 0c7d AC0C0000 		.4byte	0xcac
 4952 0c81 06       		.uleb128 0x6
 4953 0c82 17030000 		.4byte	.LASF177
 4954 0c86 16       		.byte	0x16
 4955 0c87 41       		.byte	0x41
 4956 0c88 DA060000 		.4byte	0x6da
 4957 0c8c 02       		.byte	0x2
 4958 0c8d 23       		.byte	0x23
 4959 0c8e 00       		.uleb128 0
 4960 0c8f 07       		.uleb128 0x7
 4961 0c90 65727200 		.ascii	"err\000"
 4962 0c94 16       		.byte	0x16
 4963 0c95 43       		.byte	0x43
 4964 0c96 FE040000 		.4byte	0x4fe
 4965 0c9a 02       		.byte	0x2
 4966 0c9b 23       		.byte	0x23
 4967 0c9c 04       		.uleb128 0x4
 4968 0c9d 07       		.uleb128 0x7
 4969 0c9e 6D736700 		.ascii	"msg\000"
 4970 0ca2 16       		.byte	0x16
 4971 0ca3 72       		.byte	0x72
 4972 0ca4 8F0D0000 		.4byte	0xd8f
 4973 0ca8 02       		.byte	0x2
 4974 0ca9 23       		.byte	0x23
 4975 0caa 08       		.uleb128 0x8
 4976 0cab 00       		.byte	0
 4977 0cac 09       		.uleb128 0x9
 4978 0cad 04       		.byte	0x4
 4979 0cae 750C0000 		.4byte	0xc75
 4980 0cb2 08       		.uleb128 0x8
 4981 0cb3 01       		.byte	0x1
 4982 0cb4 16       		.byte	0x16
 4983 0cb5 49       		.byte	0x49
 4984 0cb6 C90C0000 		.4byte	0xcc9
 4985 0cba 06       		.uleb128 0x6
ARM GAS  /var/folders/5n/p_75w94d66l9ssrldxqdhh700000gn/T//ccmhGqes.s 			page 89


 4986 0cbb 63040000 		.4byte	.LASF178
 4987 0cbf 16       		.byte	0x16
 4988 0cc0 4A       		.byte	0x4a
 4989 0cc1 A1040000 		.4byte	0x4a1
 4990 0cc5 02       		.byte	0x2
 4991 0cc6 23       		.byte	0x23
 4992 0cc7 00       		.uleb128 0
 4993 0cc8 00       		.byte	0
 4994 0cc9 08       		.uleb128 0x8
 4995 0cca 08       		.byte	0x8
 4996 0ccb 16       		.byte	0x16
 4997 0ccc 4D       		.byte	0x4d
 4998 0ccd EE0C0000 		.4byte	0xcee
 4999 0cd1 06       		.uleb128 0x6
 5000 0cd2 D1020000 		.4byte	.LASF179
 5001 0cd6 16       		.byte	0x16
 5002 0cd7 4E       		.byte	0x4e
 5003 0cd8 E2050000 		.4byte	0x5e2
 5004 0cdc 02       		.byte	0x2
 5005 0cdd 23       		.byte	0x23
 5006 0cde 00       		.uleb128 0
 5007 0cdf 06       		.uleb128 0x6
 5008 0ce0 AD080000 		.4byte	.LASF95
 5009 0ce4 16       		.byte	0x16
 5010 0ce5 4F       		.byte	0x4f
 5011 0ce6 B7040000 		.4byte	0x4b7
 5012 0cea 02       		.byte	0x2
 5013 0ceb 23       		.byte	0x23
 5014 0cec 04       		.uleb128 0x4
 5015 0ced 00       		.byte	0
 5016 0cee 08       		.uleb128 0x8
 5017 0cef 0C       		.byte	0xc
 5018 0cf0 16       		.byte	0x16
 5019 0cf1 52       		.byte	0x52
 5020 0cf2 210D0000 		.4byte	0xd21
 5021 0cf6 06       		.uleb128 0x6
 5022 0cf7 D1020000 		.4byte	.LASF179
 5023 0cfb 16       		.byte	0x16
 5024 0cfc 53       		.byte	0x53
 5025 0cfd E2050000 		.4byte	0x5e2
 5026 0d01 02       		.byte	0x2
 5027 0d02 23       		.byte	0x23
 5028 0d03 00       		.uleb128 0
 5029 0d04 06       		.uleb128 0x6
 5030 0d05 AD080000 		.4byte	.LASF95
 5031 0d09 16       		.byte	0x16
 5032 0d0a 54       		.byte	0x54
 5033 0d0b 210D0000 		.4byte	0xd21
 5034 0d0f 02       		.byte	0x2
 5035 0d10 23       		.byte	0x23
 5036 0d11 04       		.uleb128 0x4
 5037 0d12 06       		.uleb128 0x6
 5038 0d13 15010000 		.4byte	.LASF180
 5039 0d17 16       		.byte	0x16
 5040 0d18 55       		.byte	0x55
 5041 0d19 A1040000 		.4byte	0x4a1
 5042 0d1d 02       		.byte	0x2
ARM GAS  /var/folders/5n/p_75w94d66l9ssrldxqdhh700000gn/T//ccmhGqes.s 			page 90


 5043 0d1e 23       		.byte	0x23
 5044 0d1f 08       		.uleb128 0x8
 5045 0d20 00       		.byte	0
 5046 0d21 09       		.uleb128 0x9
 5047 0d22 04       		.byte	0x4
 5048 0d23 B7040000 		.4byte	0x4b7
 5049 0d27 08       		.uleb128 0x8
 5050 0d28 0C       		.byte	0xc
 5051 0d29 16       		.byte	0x16
 5052 0d2a 58       		.byte	0x58
 5053 0d2b 5A0D0000 		.4byte	0xd5a
 5054 0d2f 06       		.uleb128 0x6
 5055 0d30 5B060000 		.4byte	.LASF181
 5056 0d34 16       		.byte	0x16
 5057 0d35 59       		.byte	0x59
 5058 0d36 5A0D0000 		.4byte	0xd5a
 5059 0d3a 02       		.byte	0x2
 5060 0d3b 23       		.byte	0x23
 5061 0d3c 00       		.uleb128 0
 5062 0d3d 07       		.uleb128 0x7
 5063 0d3e 6C656E00 		.ascii	"len\000"
 5064 0d42 16       		.byte	0x16
 5065 0d43 5A       		.byte	0x5a
 5066 0d44 30000000 		.4byte	0x30
 5067 0d48 02       		.byte	0x2
 5068 0d49 23       		.byte	0x23
 5069 0d4a 04       		.uleb128 0x4
 5070 0d4b 06       		.uleb128 0x6
 5071 0d4c 03070000 		.4byte	.LASF182
 5072 0d50 16       		.byte	0x16
 5073 0d51 5B       		.byte	0x5b
 5074 0d52 A1040000 		.4byte	0x4a1
 5075 0d56 02       		.byte	0x2
 5076 0d57 23       		.byte	0x23
 5077 0d58 08       		.uleb128 0x8
 5078 0d59 00       		.byte	0
 5079 0d5a 09       		.uleb128 0x9
 5080 0d5b 04       		.byte	0x4
 5081 0d5c 600D0000 		.4byte	0xd60
 5082 0d60 18       		.uleb128 0x18
 5083 0d61 08       		.uleb128 0x8
 5084 0d62 04       		.byte	0x4
 5085 0d63 16       		.byte	0x16
 5086 0d64 5E       		.byte	0x5e
 5087 0d65 780D0000 		.4byte	0xd78
 5088 0d69 07       		.uleb128 0x7
 5089 0d6a 6C656E00 		.ascii	"len\000"
 5090 0d6e 16       		.byte	0x16
 5091 0d6f 5F       		.byte	0x5f
 5092 0d70 CD040000 		.4byte	0x4cd
 5093 0d74 02       		.byte	0x2
 5094 0d75 23       		.byte	0x23
 5095 0d76 00       		.uleb128 0
 5096 0d77 00       		.byte	0
 5097 0d78 08       		.uleb128 0x8
 5098 0d79 01       		.byte	0x1
 5099 0d7a 16       		.byte	0x16
ARM GAS  /var/folders/5n/p_75w94d66l9ssrldxqdhh700000gn/T//ccmhGqes.s 			page 91


 5100 0d7b 62       		.byte	0x62
 5101 0d7c 8F0D0000 		.4byte	0xd8f
 5102 0d80 06       		.uleb128 0x6
 5103 0d81 71090000 		.4byte	.LASF183
 5104 0d85 16       		.byte	0x16
 5105 0d86 63       		.byte	0x63
 5106 0d87 A1040000 		.4byte	0x4a1
 5107 0d8b 02       		.byte	0x2
 5108 0d8c 23       		.byte	0x23
 5109 0d8d 00       		.uleb128 0
 5110 0d8e 00       		.byte	0
 5111 0d8f 0E       		.uleb128 0xe
 5112 0d90 0C       		.byte	0xc
 5113 0d91 16       		.byte	0x16
 5114 0d92 45       		.byte	0x45
 5115 0d93 DA0D0000 		.4byte	0xdda
 5116 0d97 16       		.uleb128 0x16
 5117 0d98 6200     		.ascii	"b\000"
 5118 0d9a 16       		.byte	0x16
 5119 0d9b 47       		.byte	0x47
 5120 0d9c DA0D0000 		.4byte	0xdda
 5121 0da0 16       		.uleb128 0x16
 5122 0da1 6E00     		.ascii	"n\000"
 5123 0da3 16       		.byte	0x16
 5124 0da4 4B       		.byte	0x4b
 5125 0da5 B20C0000 		.4byte	0xcb2
 5126 0da9 16       		.uleb128 0x16
 5127 0daa 626300   		.ascii	"bc\000"
 5128 0dad 16       		.byte	0x16
 5129 0dae 50       		.byte	0x50
 5130 0daf C90C0000 		.4byte	0xcc9
 5131 0db3 16       		.uleb128 0x16
 5132 0db4 616400   		.ascii	"ad\000"
 5133 0db7 16       		.byte	0x16
 5134 0db8 56       		.byte	0x56
 5135 0db9 EE0C0000 		.4byte	0xcee
 5136 0dbd 16       		.uleb128 0x16
 5137 0dbe 7700     		.ascii	"w\000"
 5138 0dc0 16       		.byte	0x16
 5139 0dc1 5C       		.byte	0x5c
 5140 0dc2 270D0000 		.4byte	0xd27
 5141 0dc6 16       		.uleb128 0x16
 5142 0dc7 7200     		.ascii	"r\000"
 5143 0dc9 16       		.byte	0x16
 5144 0dca 60       		.byte	0x60
 5145 0dcb 610D0000 		.4byte	0xd61
 5146 0dcf 16       		.uleb128 0x16
 5147 0dd0 736400   		.ascii	"sd\000"
 5148 0dd3 16       		.byte	0x16
 5149 0dd4 64       		.byte	0x64
 5150 0dd5 780D0000 		.4byte	0xd78
 5151 0dd9 00       		.byte	0
 5152 0dda 09       		.uleb128 0x9
 5153 0ddb 04       		.byte	0x4
 5154 0ddc E8050000 		.4byte	0x5e8
 5155 0de0 03       		.uleb128 0x3
 5156 0de1 DE060000 		.4byte	.LASF184
ARM GAS  /var/folders/5n/p_75w94d66l9ssrldxqdhh700000gn/T//ccmhGqes.s 			page 92


 5157 0de5 14       		.byte	0x14
 5158 0de6 57       		.byte	0x57
 5159 0de7 EB0D0000 		.4byte	0xdeb
 5160 0deb 09       		.uleb128 0x9
 5161 0dec 04       		.byte	0x4
 5162 0ded F10D0000 		.4byte	0xdf1
 5163 0df1 14       		.uleb128 0x14
 5164 0df2 01       		.byte	0x1
 5165 0df3 110E0000 		.4byte	0xe11
 5166 0df7 15       		.uleb128 0x15
 5167 0df8 B2020000 		.4byte	0x2b2
 5168 0dfc 15       		.uleb128 0x15
 5169 0dfd DE0B0000 		.4byte	0xbde
 5170 0e01 15       		.uleb128 0x15
 5171 0e02 DC050000 		.4byte	0x5dc
 5172 0e06 15       		.uleb128 0x15
 5173 0e07 E2050000 		.4byte	0x5e2
 5174 0e0b 15       		.uleb128 0x15
 5175 0e0c B7040000 		.4byte	0x4b7
 5176 0e10 00       		.byte	0
 5177 0e11 03       		.uleb128 0x3
 5178 0e12 A5030000 		.4byte	.LASF185
 5179 0e16 13       		.byte	0x13
 5180 0e17 3D       		.byte	0x3d
 5181 0e18 1C0E0000 		.4byte	0xe1c
 5182 0e1c 09       		.uleb128 0x9
 5183 0e1d 04       		.byte	0x4
 5184 0e1e 220E0000 		.4byte	0xe22
 5185 0e22 19       		.uleb128 0x19
 5186 0e23 01       		.byte	0x1
 5187 0e24 FE040000 		.4byte	0x4fe
 5188 0e28 3C0E0000 		.4byte	0xe3c
 5189 0e2c 15       		.uleb128 0x15
 5190 0e2d B2020000 		.4byte	0x2b2
 5191 0e31 15       		.uleb128 0x15
 5192 0e32 310B0000 		.4byte	0xb31
 5193 0e36 15       		.uleb128 0x15
 5194 0e37 FE040000 		.4byte	0x4fe
 5195 0e3b 00       		.byte	0
 5196 0e3c 03       		.uleb128 0x3
 5197 0e3d 21060000 		.4byte	.LASF186
 5198 0e41 13       		.byte	0x13
 5199 0e42 49       		.byte	0x49
 5200 0e43 470E0000 		.4byte	0xe47
 5201 0e47 09       		.uleb128 0x9
 5202 0e48 04       		.byte	0x4
 5203 0e49 4D0E0000 		.4byte	0xe4d
 5204 0e4d 19       		.uleb128 0x19
 5205 0e4e 01       		.byte	0x1
 5206 0e4f FE040000 		.4byte	0x4fe
 5207 0e53 6C0E0000 		.4byte	0xe6c
 5208 0e57 15       		.uleb128 0x15
 5209 0e58 B2020000 		.4byte	0x2b2
 5210 0e5c 15       		.uleb128 0x15
 5211 0e5d 310B0000 		.4byte	0xb31
 5212 0e61 15       		.uleb128 0x15
 5213 0e62 DC050000 		.4byte	0x5dc
ARM GAS  /var/folders/5n/p_75w94d66l9ssrldxqdhh700000gn/T//ccmhGqes.s 			page 93


 5214 0e66 15       		.uleb128 0x15
 5215 0e67 FE040000 		.4byte	0x4fe
 5216 0e6b 00       		.byte	0
 5217 0e6c 03       		.uleb128 0x3
 5218 0e6d 91010000 		.4byte	.LASF187
 5219 0e71 13       		.byte	0x13
 5220 0e72 57       		.byte	0x57
 5221 0e73 770E0000 		.4byte	0xe77
 5222 0e77 09       		.uleb128 0x9
 5223 0e78 04       		.byte	0x4
 5224 0e79 7D0E0000 		.4byte	0xe7d
 5225 0e7d 19       		.uleb128 0x19
 5226 0e7e 01       		.byte	0x1
 5227 0e7f FE040000 		.4byte	0x4fe
 5228 0e83 970E0000 		.4byte	0xe97
 5229 0e87 15       		.uleb128 0x15
 5230 0e88 B2020000 		.4byte	0x2b2
 5231 0e8c 15       		.uleb128 0x15
 5232 0e8d 310B0000 		.4byte	0xb31
 5233 0e91 15       		.uleb128 0x15
 5234 0e92 B7040000 		.4byte	0x4b7
 5235 0e96 00       		.byte	0
 5236 0e97 03       		.uleb128 0x3
 5237 0e98 6B060000 		.4byte	.LASF188
 5238 0e9c 13       		.byte	0x13
 5239 0e9d 63       		.byte	0x63
 5240 0e9e A20E0000 		.4byte	0xea2
 5241 0ea2 09       		.uleb128 0x9
 5242 0ea3 04       		.byte	0x4
 5243 0ea4 A80E0000 		.4byte	0xea8
 5244 0ea8 19       		.uleb128 0x19
 5245 0ea9 01       		.byte	0x1
 5246 0eaa FE040000 		.4byte	0x4fe
 5247 0eae BD0E0000 		.4byte	0xebd
 5248 0eb2 15       		.uleb128 0x15
 5249 0eb3 B2020000 		.4byte	0x2b2
 5250 0eb7 15       		.uleb128 0x15
 5251 0eb8 310B0000 		.4byte	0xb31
 5252 0ebc 00       		.byte	0
 5253 0ebd 03       		.uleb128 0x3
 5254 0ebe CB040000 		.4byte	.LASF189
 5255 0ec2 13       		.byte	0x13
 5256 0ec3 6F       		.byte	0x6f
 5257 0ec4 C80E0000 		.4byte	0xec8
 5258 0ec8 09       		.uleb128 0x9
 5259 0ec9 04       		.byte	0x4
 5260 0eca CE0E0000 		.4byte	0xece
 5261 0ece 14       		.uleb128 0x14
 5262 0ecf 01       		.byte	0x1
 5263 0ed0 DF0E0000 		.4byte	0xedf
 5264 0ed4 15       		.uleb128 0x15
 5265 0ed5 B2020000 		.4byte	0x2b2
 5266 0ed9 15       		.uleb128 0x15
 5267 0eda FE040000 		.4byte	0x4fe
 5268 0ede 00       		.byte	0
 5269 0edf 03       		.uleb128 0x3
 5270 0ee0 61030000 		.4byte	.LASF190
ARM GAS  /var/folders/5n/p_75w94d66l9ssrldxqdhh700000gn/T//ccmhGqes.s 			page 94


 5271 0ee4 13       		.byte	0x13
 5272 0ee5 7D       		.byte	0x7d
 5273 0ee6 1C0E0000 		.4byte	0xe1c
 5274 0eea 13       		.uleb128 0x13
 5275 0eeb 9A0A0000 		.4byte	.LASF191
 5276 0eef 01       		.byte	0x1
 5277 0ef0 13       		.byte	0x13
 5278 0ef1 7F       		.byte	0x7f
 5279 0ef2 390F0000 		.4byte	0xf39
 5280 0ef6 12       		.uleb128 0x12
 5281 0ef7 D7060000 		.4byte	.LASF192
 5282 0efb 00       		.sleb128 0
 5283 0efc 12       		.uleb128 0x12
 5284 0efd 9C090000 		.4byte	.LASF193
 5285 0f01 01       		.sleb128 1
 5286 0f02 12       		.uleb128 0x12
 5287 0f03 68090000 		.4byte	.LASF194
 5288 0f07 02       		.sleb128 2
 5289 0f08 12       		.uleb128 0x12
 5290 0f09 F10A0000 		.4byte	.LASF195
 5291 0f0d 03       		.sleb128 3
 5292 0f0e 12       		.uleb128 0x12
 5293 0f0f D7070000 		.4byte	.LASF196
 5294 0f13 04       		.sleb128 4
 5295 0f14 12       		.uleb128 0x12
 5296 0f15 1A090000 		.4byte	.LASF197
 5297 0f19 05       		.sleb128 5
 5298 0f1a 12       		.uleb128 0x12
 5299 0f1b 25090000 		.4byte	.LASF198
 5300 0f1f 06       		.sleb128 6
 5301 0f20 12       		.uleb128 0x12
 5302 0f21 51040000 		.4byte	.LASF199
 5303 0f25 07       		.sleb128 7
 5304 0f26 12       		.uleb128 0x12
 5305 0f27 26030000 		.4byte	.LASF200
 5306 0f2b 08       		.sleb128 8
 5307 0f2c 12       		.uleb128 0x12
 5308 0f2d C0020000 		.4byte	.LASF201
 5309 0f31 09       		.sleb128 9
 5310 0f32 12       		.uleb128 0x12
 5311 0f33 4B050000 		.4byte	.LASF202
 5312 0f37 0A       		.sleb128 10
 5313 0f38 00       		.byte	0
 5314 0f39 1A       		.uleb128 0x1a
 5315 0f3a 20020000 		.4byte	.LASF265
 5316 0f3e 01       		.byte	0x1
 5317 0f3f 09       		.uleb128 0x9
 5318 0f40 04       		.byte	0x4
 5319 0f41 390F0000 		.4byte	0xf39
 5320 0f45 03       		.uleb128 0x3
 5321 0f46 70050000 		.4byte	.LASF203
 5322 0f4a 15       		.byte	0x15
 5323 0f4b 3C       		.byte	0x3c
 5324 0f4c 500F0000 		.4byte	0xf50
 5325 0f50 09       		.uleb128 0x9
 5326 0f51 04       		.byte	0x4
 5327 0f52 560F0000 		.4byte	0xf56
ARM GAS  /var/folders/5n/p_75w94d66l9ssrldxqdhh700000gn/T//ccmhGqes.s 			page 95


 5328 0f56 19       		.uleb128 0x19
 5329 0f57 01       		.byte	0x1
 5330 0f58 A1040000 		.4byte	0x4a1
 5331 0f5c 750F0000 		.4byte	0xf75
 5332 0f60 15       		.uleb128 0x15
 5333 0f61 B2020000 		.4byte	0x2b2
 5334 0f65 15       		.uleb128 0x15
 5335 0f66 6F0C0000 		.4byte	0xc6f
 5336 0f6a 15       		.uleb128 0x15
 5337 0f6b DC050000 		.4byte	0x5dc
 5338 0f6f 15       		.uleb128 0x15
 5339 0f70 E2050000 		.4byte	0x5e2
 5340 0f74 00       		.byte	0
 5341 0f75 11       		.uleb128 0x11
 5342 0f76 01       		.byte	0x1
 5343 0f77 17       		.byte	0x17
 5344 0f78 2B       		.byte	0x2b
 5345 0f79 D80F0000 		.4byte	0xfd8
 5346 0f7d 12       		.uleb128 0x12
 5347 0f7e 2C080000 		.4byte	.LASF204
 5348 0f82 00       		.sleb128 0
 5349 0f83 12       		.uleb128 0x12
 5350 0f84 79070000 		.4byte	.LASF205
 5351 0f88 01       		.sleb128 1
 5352 0f89 12       		.uleb128 0x12
 5353 0f8a 89080000 		.4byte	.LASF206
 5354 0f8e 02       		.sleb128 2
 5355 0f8f 12       		.uleb128 0x12
 5356 0f90 2C000000 		.4byte	.LASF207
 5357 0f94 03       		.sleb128 3
 5358 0f95 12       		.uleb128 0x12
 5359 0f96 F0080000 		.4byte	.LASF208
 5360 0f9a 04       		.sleb128 4
 5361 0f9b 12       		.uleb128 0x12
 5362 0f9c 12060000 		.4byte	.LASF209
 5363 0fa0 05       		.sleb128 5
 5364 0fa1 12       		.uleb128 0x12
 5365 0fa2 F4070000 		.4byte	.LASF210
 5366 0fa6 06       		.sleb128 6
 5367 0fa7 12       		.uleb128 0x12
 5368 0fa8 08050000 		.4byte	.LASF211
 5369 0fac 07       		.sleb128 7
 5370 0fad 12       		.uleb128 0x12
 5371 0fae B50A0000 		.4byte	.LASF212
 5372 0fb2 08       		.sleb128 8
 5373 0fb3 12       		.uleb128 0x12
 5374 0fb4 EB010000 		.4byte	.LASF213
 5375 0fb8 09       		.sleb128 9
 5376 0fb9 12       		.uleb128 0x12
 5377 0fba 82020000 		.4byte	.LASF214
 5378 0fbe 0A       		.sleb128 10
 5379 0fbf 12       		.uleb128 0x12
 5380 0fc0 61070000 		.4byte	.LASF215
 5381 0fc4 0B       		.sleb128 11
 5382 0fc5 12       		.uleb128 0x12
 5383 0fc6 F6030000 		.4byte	.LASF216
 5384 0fca 0C       		.sleb128 12
ARM GAS  /var/folders/5n/p_75w94d66l9ssrldxqdhh700000gn/T//ccmhGqes.s 			page 96


 5385 0fcb 12       		.uleb128 0x12
 5386 0fcc 72040000 		.4byte	.LASF217
 5387 0fd0 0D       		.sleb128 13
 5388 0fd1 12       		.uleb128 0x12
 5389 0fd2 49030000 		.4byte	.LASF218
 5390 0fd6 0E       		.sleb128 14
 5391 0fd7 00       		.byte	0
 5392 0fd8 1B       		.uleb128 0x1b
 5393 0fd9 00030000 		.4byte	.LASF219
 5394 0fdd 01       		.byte	0x1
 5395 0fde D8       		.byte	0xd8
 5396 0fdf 01       		.byte	0x1
 5397 0fe0 FE040000 		.4byte	0x4fe
 5398 0fe4 01       		.byte	0x1
 5399 0fe5 2A100000 		.4byte	0x102a
 5400 0fe9 1C       		.uleb128 0x1c
 5401 0fea 61726700 		.ascii	"arg\000"
 5402 0fee 01       		.byte	0x1
 5403 0fef D8       		.byte	0xd8
 5404 0ff0 B2020000 		.4byte	0x2b2
 5405 0ff4 1C       		.uleb128 0x1c
 5406 0ff5 70636200 		.ascii	"pcb\000"
 5407 0ff9 01       		.byte	0x1
 5408 0ffa D8       		.byte	0xd8
 5409 0ffb 310B0000 		.4byte	0xb31
 5410 0fff 1C       		.uleb128 0x1c
 5411 1000 7000     		.ascii	"p\000"
 5412 1002 01       		.byte	0x1
 5413 1003 D8       		.byte	0xd8
 5414 1004 DC050000 		.4byte	0x5dc
 5415 1008 1C       		.uleb128 0x1c
 5416 1009 65727200 		.ascii	"err\000"
 5417 100d 01       		.byte	0x1
 5418 100e D8       		.byte	0xd8
 5419 100f FE040000 		.4byte	0x4fe
 5420 1013 1D       		.uleb128 0x1d
 5421 1014 17030000 		.4byte	.LASF177
 5422 1018 01       		.byte	0x1
 5423 1019 DA       		.byte	0xda
 5424 101a DA060000 		.4byte	0x6da
 5425 101e 1E       		.uleb128 0x1e
 5426 101f 6C656E00 		.ascii	"len\000"
 5427 1023 01       		.byte	0x1
 5428 1024 DB       		.byte	0xdb
 5429 1025 B7040000 		.4byte	0x4b7
 5430 1029 00       		.byte	0
 5431 102a 1F       		.uleb128 0x1f
 5432 102b 69010000 		.4byte	.LASF220
 5433 102f 01       		.byte	0x1
 5434 1030 1501     		.2byte	0x115
 5435 1032 01       		.byte	0x1
 5436 1033 FE040000 		.4byte	0x4fe
 5437 1037 01       		.byte	0x1
 5438 1038 61100000 		.4byte	0x1061
 5439 103c 20       		.uleb128 0x20
 5440 103d 61726700 		.ascii	"arg\000"
 5441 1041 01       		.byte	0x1
ARM GAS  /var/folders/5n/p_75w94d66l9ssrldxqdhh700000gn/T//ccmhGqes.s 			page 97


 5442 1042 1501     		.2byte	0x115
 5443 1044 B2020000 		.4byte	0x2b2
 5444 1048 20       		.uleb128 0x20
 5445 1049 70636200 		.ascii	"pcb\000"
 5446 104d 01       		.byte	0x1
 5447 104e 1501     		.2byte	0x115
 5448 1050 310B0000 		.4byte	0xb31
 5449 1054 21       		.uleb128 0x21
 5450 1055 17030000 		.4byte	.LASF177
 5451 1059 01       		.byte	0x1
 5452 105a 1701     		.2byte	0x117
 5453 105c DA060000 		.4byte	0x6da
 5454 1060 00       		.byte	0
 5455 1061 1F       		.uleb128 0x1f
 5456 1062 30010000 		.4byte	.LASF221
 5457 1066 01       		.byte	0x1
 5458 1067 3901     		.2byte	0x139
 5459 1069 01       		.byte	0x1
 5460 106a FE040000 		.4byte	0x4fe
 5461 106e 01       		.byte	0x1
 5462 106f A4100000 		.4byte	0x10a4
 5463 1073 20       		.uleb128 0x20
 5464 1074 61726700 		.ascii	"arg\000"
 5465 1078 01       		.byte	0x1
 5466 1079 3901     		.2byte	0x139
 5467 107b B2020000 		.4byte	0x2b2
 5468 107f 20       		.uleb128 0x20
 5469 1080 70636200 		.ascii	"pcb\000"
 5470 1084 01       		.byte	0x1
 5471 1085 3901     		.2byte	0x139
 5472 1087 310B0000 		.4byte	0xb31
 5473 108b 20       		.uleb128 0x20
 5474 108c 6C656E00 		.ascii	"len\000"
 5475 1090 01       		.byte	0x1
 5476 1091 3901     		.2byte	0x139
 5477 1093 B7040000 		.4byte	0x4b7
 5478 1097 21       		.uleb128 0x21
 5479 1098 17030000 		.4byte	.LASF177
 5480 109c 01       		.byte	0x1
 5481 109d 3B01     		.2byte	0x13b
 5482 109f DA060000 		.4byte	0x6da
 5483 10a3 00       		.byte	0
 5484 10a4 22       		.uleb128 0x22
 5485 10a5 96080000 		.4byte	.LASF238
 5486 10a9 01       		.byte	0x1
 5487 10aa 90       		.byte	0x90
 5488 10ab 01       		.byte	0x1
 5489 10ac 01       		.byte	0x1
 5490 10ad 08110000 		.4byte	0x1108
 5491 10b1 1C       		.uleb128 0x1c
 5492 10b2 61726700 		.ascii	"arg\000"
 5493 10b6 01       		.byte	0x1
 5494 10b7 90       		.byte	0x90
 5495 10b8 B2020000 		.4byte	0x2b2
 5496 10bc 1C       		.uleb128 0x1c
 5497 10bd 70636200 		.ascii	"pcb\000"
 5498 10c1 01       		.byte	0x1
ARM GAS  /var/folders/5n/p_75w94d66l9ssrldxqdhh700000gn/T//ccmhGqes.s 			page 98


 5499 10c2 90       		.byte	0x90
 5500 10c3 DE0B0000 		.4byte	0xbde
 5501 10c7 1C       		.uleb128 0x1c
 5502 10c8 7000     		.ascii	"p\000"
 5503 10ca 01       		.byte	0x1
 5504 10cb 90       		.byte	0x90
 5505 10cc DC050000 		.4byte	0x5dc
 5506 10d0 23       		.uleb128 0x23
 5507 10d1 BA090000 		.4byte	.LASF75
 5508 10d5 01       		.byte	0x1
 5509 10d6 91       		.byte	0x91
 5510 10d7 E2050000 		.4byte	0x5e2
 5511 10db 23       		.uleb128 0x23
 5512 10dc AD080000 		.4byte	.LASF95
 5513 10e0 01       		.byte	0x1
 5514 10e1 91       		.byte	0x91
 5515 10e2 B7040000 		.4byte	0x4b7
 5516 10e6 1E       		.uleb128 0x1e
 5517 10e7 62756600 		.ascii	"buf\000"
 5518 10eb 01       		.byte	0x1
 5519 10ec 93       		.byte	0x93
 5520 10ed DA0D0000 		.4byte	0xdda
 5521 10f1 1D       		.uleb128 0x1d
 5522 10f2 17030000 		.4byte	.LASF177
 5523 10f6 01       		.byte	0x1
 5524 10f7 94       		.byte	0x94
 5525 10f8 DA060000 		.4byte	0x6da
 5526 10fc 1E       		.uleb128 0x1e
 5527 10fd 6C656E00 		.ascii	"len\000"
 5528 1101 01       		.byte	0x1
 5529 1102 95       		.byte	0x95
 5530 1103 B7040000 		.4byte	0x4b7
 5531 1107 00       		.byte	0
 5532 1108 1B       		.uleb128 0x1b
 5533 1109 42040000 		.4byte	.LASF222
 5534 110d 01       		.byte	0x1
 5535 110e 4E       		.byte	0x4e
 5536 110f 01       		.byte	0x1
 5537 1110 A1040000 		.4byte	0x4a1
 5538 1114 01       		.byte	0x1
 5539 1115 70110000 		.4byte	0x1170
 5540 1119 1C       		.uleb128 0x1c
 5541 111a 61726700 		.ascii	"arg\000"
 5542 111e 01       		.byte	0x1
 5543 111f 4E       		.byte	0x4e
 5544 1120 B2020000 		.4byte	0x2b2
 5545 1124 1C       		.uleb128 0x1c
 5546 1125 70636200 		.ascii	"pcb\000"
 5547 1129 01       		.byte	0x1
 5548 112a 4E       		.byte	0x4e
 5549 112b 6F0C0000 		.4byte	0xc6f
 5550 112f 1C       		.uleb128 0x1c
 5551 1130 7000     		.ascii	"p\000"
 5552 1132 01       		.byte	0x1
 5553 1133 4E       		.byte	0x4e
 5554 1134 DC050000 		.4byte	0x5dc
 5555 1138 23       		.uleb128 0x23
ARM GAS  /var/folders/5n/p_75w94d66l9ssrldxqdhh700000gn/T//ccmhGqes.s 			page 99


 5556 1139 BA090000 		.4byte	.LASF75
 5557 113d 01       		.byte	0x1
 5558 113e 4F       		.byte	0x4f
 5559 113f E2050000 		.4byte	0x5e2
 5560 1143 1E       		.uleb128 0x1e
 5561 1144 7100     		.ascii	"q\000"
 5562 1146 01       		.byte	0x1
 5563 1147 51       		.byte	0x51
 5564 1148 DC050000 		.4byte	0x5dc
 5565 114c 1E       		.uleb128 0x1e
 5566 114d 62756600 		.ascii	"buf\000"
 5567 1151 01       		.byte	0x1
 5568 1152 52       		.byte	0x52
 5569 1153 DA0D0000 		.4byte	0xdda
 5570 1157 1D       		.uleb128 0x1d
 5571 1158 17030000 		.4byte	.LASF177
 5572 115c 01       		.byte	0x1
 5573 115d 53       		.byte	0x53
 5574 115e DA060000 		.4byte	0x6da
 5575 1162 24       		.uleb128 0x24
 5576 1163 1E       		.uleb128 0x1e
 5577 1164 6C656E00 		.ascii	"len\000"
 5578 1168 01       		.byte	0x1
 5579 1169 6A       		.byte	0x6a
 5580 116a B7040000 		.4byte	0x4b7
 5581 116e 00       		.byte	0
 5582 116f 00       		.byte	0
 5583 1170 25       		.uleb128 0x25
 5584 1171 DA050000 		.4byte	.LASF224
 5585 1175 01       		.byte	0x1
 5586 1176 9D01     		.2byte	0x19d
 5587 1178 01       		.byte	0x1
 5588 1179 00000000 		.4byte	.LFB13
 5589 117d 4A000000 		.4byte	.LFE13
 5590 1181 00000000 		.4byte	.LLST0
 5591 1185 AA110000 		.4byte	0x11aa
 5592 1189 26       		.uleb128 0x26
 5593 118a 17030000 		.4byte	.LASF177
 5594 118e 01       		.byte	0x1
 5595 118f 9D01     		.2byte	0x19d
 5596 1191 DA060000 		.4byte	0x6da
 5597 1195 20000000 		.4byte	.LLST1
 5598 1199 27       		.uleb128 0x27
 5599 119a 70636200 		.ascii	"pcb\000"
 5600 119e 01       		.byte	0x1
 5601 119f 9F01     		.2byte	0x19f
 5602 11a1 310B0000 		.4byte	0xb31
 5603 11a5 33000000 		.4byte	.LLST2
 5604 11a9 00       		.byte	0
 5605 11aa 28       		.uleb128 0x28
 5606 11ab E3080000 		.4byte	.LASF232
 5607 11af 01       		.byte	0x1
 5608 11b0 9D03     		.2byte	0x39d
 5609 11b2 01       		.byte	0x1
 5610 11b3 FE040000 		.4byte	0x4fe
 5611 11b7 00000000 		.4byte	.LFB23
 5612 11bb 86000000 		.4byte	.LFE23
ARM GAS  /var/folders/5n/p_75w94d66l9ssrldxqdhh700000gn/T//ccmhGqes.s 			page 100


 5613 11bf 5E000000 		.4byte	.LLST3
 5614 11c3 18120000 		.4byte	0x1218
 5615 11c7 29       		.uleb128 0x29
 5616 11c8 61726700 		.ascii	"arg\000"
 5617 11cc 01       		.byte	0x1
 5618 11cd 9D03     		.2byte	0x39d
 5619 11cf B2020000 		.4byte	0x2b2
 5620 11d3 7E000000 		.4byte	.LLST4
 5621 11d7 29       		.uleb128 0x29
 5622 11d8 70636200 		.ascii	"pcb\000"
 5623 11dc 01       		.byte	0x1
 5624 11dd 9D03     		.2byte	0x39d
 5625 11df 310B0000 		.4byte	0xb31
 5626 11e3 9C000000 		.4byte	.LLST5
 5627 11e7 29       		.uleb128 0x29
 5628 11e8 65727200 		.ascii	"err\000"
 5629 11ec 01       		.byte	0x1
 5630 11ed 9D03     		.2byte	0x39d
 5631 11ef FE040000 		.4byte	0x4fe
 5632 11f3 BA000000 		.4byte	.LLST6
 5633 11f7 2A       		.uleb128 0x2a
 5634 11f8 17030000 		.4byte	.LASF177
 5635 11fc 01       		.byte	0x1
 5636 11fd 9F03     		.2byte	0x39f
 5637 11ff DA060000 		.4byte	0x6da
 5638 1203 D8000000 		.4byte	.LLST7
 5639 1207 2A       		.uleb128 0x2a
 5640 1208 E0090000 		.4byte	.LASF223
 5641 120c 01       		.byte	0x1
 5642 120d A003     		.2byte	0x3a0
 5643 120f 29000000 		.4byte	0x29
 5644 1213 F6000000 		.4byte	.LLST8
 5645 1217 00       		.byte	0
 5646 1218 25       		.uleb128 0x25
 5647 1219 77080000 		.4byte	.LASF225
 5648 121d 01       		.byte	0x1
 5649 121e DF02     		.2byte	0x2df
 5650 1220 01       		.byte	0x1
 5651 1221 00000000 		.4byte	.LFB20
 5652 1225 70010000 		.4byte	.LFE20
 5653 1229 14010000 		.4byte	.LLST9
 5654 122d 8E120000 		.4byte	0x128e
 5655 1231 26       		.uleb128 0x26
 5656 1232 17030000 		.4byte	.LASF177
 5657 1236 01       		.byte	0x1
 5658 1237 DF02     		.2byte	0x2df
 5659 1239 DA060000 		.4byte	0x6da
 5660 123d 34010000 		.4byte	.LLST10
 5661 1241 27       		.uleb128 0x27
 5662 1242 65727200 		.ascii	"err\000"
 5663 1246 01       		.byte	0x1
 5664 1247 E102     		.2byte	0x2e1
 5665 1249 FE040000 		.4byte	0x4fe
 5666 124d 52010000 		.4byte	.LLST11
 5667 1251 2A       		.uleb128 0x2a
 5668 1252 71090000 		.4byte	.LASF183
 5669 1256 01       		.byte	0x1
ARM GAS  /var/folders/5n/p_75w94d66l9ssrldxqdhh700000gn/T//ccmhGqes.s 			page 101


 5670 1257 E202     		.2byte	0x2e2
 5671 1259 A1040000 		.4byte	0x4a1
 5672 125d 86010000 		.4byte	.LLST12
 5673 1261 2A       		.uleb128 0x2a
 5674 1262 AD0A0000 		.4byte	.LASF226
 5675 1266 01       		.byte	0x1
 5676 1267 E202     		.2byte	0x2e2
 5677 1269 A1040000 		.4byte	0x4a1
 5678 126d 99010000 		.4byte	.LLST13
 5679 1271 2A       		.uleb128 0x2a
 5680 1272 1B010000 		.4byte	.LASF227
 5681 1276 01       		.byte	0x1
 5682 1277 E202     		.2byte	0x2e2
 5683 1279 A1040000 		.4byte	0x4a1
 5684 127d AC010000 		.4byte	.LLST14
 5685 1281 21       		.uleb128 0x21
 5686 1282 37060000 		.4byte	.LASF228
 5687 1286 01       		.byte	0x1
 5688 1287 E202     		.2byte	0x2e2
 5689 1289 A1040000 		.4byte	0x4a1
 5690 128d 00       		.byte	0
 5691 128e 25       		.uleb128 0x25
 5692 128f 43050000 		.4byte	.LASF229
 5693 1293 01       		.byte	0x1
 5694 1294 5B01     		.2byte	0x15b
 5695 1296 01       		.byte	0x1
 5696 1297 00000000 		.4byte	.LFB12
 5697 129b B4000000 		.4byte	.LFE12
 5698 129f BF010000 		.4byte	.LLST15
 5699 12a3 FE120000 		.4byte	0x12fe
 5700 12a7 29       		.uleb128 0x29
 5701 12a8 61726700 		.ascii	"arg\000"
 5702 12ac 01       		.byte	0x1
 5703 12ad 5B01     		.2byte	0x15b
 5704 12af B2020000 		.4byte	0x2b2
 5705 12b3 DF010000 		.4byte	.LLST16
 5706 12b7 29       		.uleb128 0x29
 5707 12b8 65727200 		.ascii	"err\000"
 5708 12bc 01       		.byte	0x1
 5709 12bd 5B01     		.2byte	0x15b
 5710 12bf FE040000 		.4byte	0x4fe
 5711 12c3 FD010000 		.4byte	.LLST17
 5712 12c7 2A       		.uleb128 0x2a
 5713 12c8 17030000 		.4byte	.LASF177
 5714 12cc 01       		.byte	0x1
 5715 12cd 5D01     		.2byte	0x15d
 5716 12cf DA060000 		.4byte	0x6da
 5717 12d3 DF010000 		.4byte	.LLST16
 5718 12d7 2A       		.uleb128 0x2a
 5719 12d8 C0010000 		.4byte	.LASF230
 5720 12dc 01       		.byte	0x1
 5721 12dd 5E01     		.2byte	0x15e
 5722 12df 5D060000 		.4byte	0x65d
 5723 12e3 1B020000 		.4byte	.LLST19
 5724 12e7 2B       		.uleb128 0x2b
 5725 12e8 00000000 		.4byte	.Ldebug_ranges0+0
 5726 12ec 2A       		.uleb128 0x2a
ARM GAS  /var/folders/5n/p_75w94d66l9ssrldxqdhh700000gn/T//ccmhGqes.s 			page 102


 5727 12ed 3D060000 		.4byte	.LASF231
 5728 12f1 01       		.byte	0x1
 5729 12f2 8601     		.2byte	0x186
 5730 12f4 29000000 		.4byte	0x29
 5731 12f8 39020000 		.4byte	.LLST20
 5732 12fc 00       		.byte	0
 5733 12fd 00       		.byte	0
 5734 12fe 28       		.uleb128 0x28
 5735 12ff 4C010000 		.4byte	.LASF233
 5736 1303 01       		.byte	0x1
 5737 1304 AA04     		.2byte	0x4aa
 5738 1306 01       		.byte	0x1
 5739 1307 FE040000 		.4byte	0x4fe
 5740 130b 00000000 		.4byte	.LFB29
 5741 130f 56010000 		.4byte	.LFE29
 5742 1313 56020000 		.4byte	.LLST21
 5743 1317 AC130000 		.4byte	0x13ac
 5744 131b 26       		.uleb128 0x26
 5745 131c 17030000 		.4byte	.LASF177
 5746 1320 01       		.byte	0x1
 5747 1321 AA04     		.2byte	0x4aa
 5748 1323 DA060000 		.4byte	0x6da
 5749 1327 76020000 		.4byte	.LLST22
 5750 132b 27       		.uleb128 0x27
 5751 132c 65727200 		.ascii	"err\000"
 5752 1330 01       		.byte	0x1
 5753 1331 AC04     		.2byte	0x4ac
 5754 1333 FE040000 		.4byte	0x4fe
 5755 1337 94020000 		.4byte	.LLST23
 5756 133b 2A       		.uleb128 0x2a
 5757 133c 5B060000 		.4byte	.LASF181
 5758 1340 01       		.byte	0x1
 5759 1341 AD04     		.2byte	0x4ad
 5760 1343 B2020000 		.4byte	0x2b2
 5761 1347 1F030000 		.4byte	.LLST24
 5762 134b 27       		.uleb128 0x27
 5763 134c 6C656E00 		.ascii	"len\000"
 5764 1350 01       		.byte	0x1
 5765 1351 AE04     		.2byte	0x4ae
 5766 1353 B7040000 		.4byte	0x4b7
 5767 1357 68030000 		.4byte	.LLST25
 5768 135b 2A       		.uleb128 0x2a
 5769 135c 30070000 		.4byte	.LASF234
 5770 1360 01       		.byte	0x1
 5771 1361 AE04     		.2byte	0x4ae
 5772 1363 B7040000 		.4byte	0x4b7
 5773 1367 B4030000 		.4byte	.LLST26
 5774 136b 2A       		.uleb128 0x2a
 5775 136c E1040000 		.4byte	.LASF235
 5776 1370 01       		.byte	0x1
 5777 1371 AF04     		.2byte	0x4af
 5778 1373 A1040000 		.4byte	0x4a1
 5779 1377 D2030000 		.4byte	.LLST27
 5780 137b 2A       		.uleb128 0x2a
 5781 137c 50070000 		.4byte	.LASF236
 5782 1380 01       		.byte	0x1
 5783 1381 B004     		.2byte	0x4b0
ARM GAS  /var/folders/5n/p_75w94d66l9ssrldxqdhh700000gn/T//ccmhGqes.s 			page 103


 5784 1383 30000000 		.4byte	0x30
 5785 1387 22040000 		.4byte	.LLST28
 5786 138b 2A       		.uleb128 0x2a
 5787 138c 57030000 		.4byte	.LASF237
 5788 1390 01       		.byte	0x1
 5789 1391 B104     		.2byte	0x4b1
 5790 1393 A1040000 		.4byte	0x4a1
 5791 1397 4B040000 		.4byte	.LLST29
 5792 139b 2A       		.uleb128 0x2a
 5793 139c 03070000 		.4byte	.LASF182
 5794 13a0 01       		.byte	0x1
 5795 13a1 B304     		.2byte	0x4b3
 5796 13a3 A1040000 		.4byte	0x4a1
 5797 13a7 69040000 		.4byte	.LLST30
 5798 13ab 00       		.byte	0
 5799 13ac 2C       		.uleb128 0x2c
 5800 13ad D80F0000 		.4byte	0xfd8
 5801 13b1 00000000 		.4byte	.LFB9
 5802 13b5 8C000000 		.4byte	.LFE9
 5803 13b9 A8040000 		.4byte	.LLST31
 5804 13bd 38140000 		.4byte	0x1438
 5805 13c1 2D       		.uleb128 0x2d
 5806 13c2 E90F0000 		.4byte	0xfe9
 5807 13c6 C8040000 		.4byte	.LLST32
 5808 13ca 2D       		.uleb128 0x2d
 5809 13cb F40F0000 		.4byte	0xff4
 5810 13cf E6040000 		.4byte	.LLST33
 5811 13d3 2D       		.uleb128 0x2d
 5812 13d4 FF0F0000 		.4byte	0xfff
 5813 13d8 30050000 		.4byte	.LLST34
 5814 13dc 2D       		.uleb128 0x2d
 5815 13dd 08100000 		.4byte	0x1008
 5816 13e1 7A050000 		.4byte	.LLST35
 5817 13e5 2E       		.uleb128 0x2e
 5818 13e6 13100000 		.4byte	0x1013
 5819 13ea 98050000 		.4byte	.LLST36
 5820 13ee 2F       		.uleb128 0x2f
 5821 13ef 1E100000 		.4byte	0x101e
 5822 13f3 30       		.uleb128 0x30
 5823 13f4 D80F0000 		.4byte	0xfd8
 5824 13f8 44000000 		.4byte	.LBB8
 5825 13fc 20000000 		.4byte	.Ldebug_ranges0+0x20
 5826 1400 01       		.byte	0x1
 5827 1401 D8       		.byte	0xd8
 5828 1402 2D       		.uleb128 0x2d
 5829 1403 08100000 		.4byte	0x1008
 5830 1407 C1050000 		.4byte	.LLST37
 5831 140b 2D       		.uleb128 0x2d
 5832 140c FF0F0000 		.4byte	0xfff
 5833 1410 EA050000 		.4byte	.LLST38
 5834 1414 2D       		.uleb128 0x2d
 5835 1415 E90F0000 		.4byte	0xfe9
 5836 1419 FD050000 		.4byte	.LLST39
 5837 141d 2B       		.uleb128 0x2b
 5838 141e 40000000 		.4byte	.Ldebug_ranges0+0x40
 5839 1422 2F       		.uleb128 0x2f
 5840 1423 13100000 		.4byte	0x1013
ARM GAS  /var/folders/5n/p_75w94d66l9ssrldxqdhh700000gn/T//ccmhGqes.s 			page 104


 5841 1427 2E       		.uleb128 0x2e
 5842 1428 1E100000 		.4byte	0x101e
 5843 142c 26060000 		.4byte	.LLST40
 5844 1430 31       		.uleb128 0x31
 5845 1431 F40F0000 		.4byte	0xff4
 5846 1435 00       		.byte	0
 5847 1436 00       		.byte	0
 5848 1437 00       		.byte	0
 5849 1438 2C       		.uleb128 0x2c
 5850 1439 2A100000 		.4byte	0x102a
 5851 143d 00000000 		.4byte	.LFB10
 5852 1441 52000000 		.4byte	.LFE10
 5853 1445 4F060000 		.4byte	.LLST41
 5854 1449 97140000 		.4byte	0x1497
 5855 144d 2D       		.uleb128 0x2d
 5856 144e 3C100000 		.4byte	0x103c
 5857 1452 6F060000 		.4byte	.LLST42
 5858 1456 2D       		.uleb128 0x2d
 5859 1457 48100000 		.4byte	0x1048
 5860 145b 8D060000 		.4byte	.LLST43
 5861 145f 2E       		.uleb128 0x2e
 5862 1460 54100000 		.4byte	0x1054
 5863 1464 6F060000 		.4byte	.LLST42
 5864 1468 32       		.uleb128 0x32
 5865 1469 2A100000 		.4byte	0x102a
 5866 146d 32000000 		.4byte	.LBB16
 5867 1471 38000000 		.4byte	.LBE16
 5868 1475 01       		.byte	0x1
 5869 1476 1501     		.2byte	0x115
 5870 1478 2D       		.uleb128 0x2d
 5871 1479 3C100000 		.4byte	0x103c
 5872 147d AB060000 		.4byte	.LLST45
 5873 1481 33       		.uleb128 0x33
 5874 1482 32000000 		.4byte	.LBB17
 5875 1486 38000000 		.4byte	.LBE17
 5876 148a 2F       		.uleb128 0x2f
 5877 148b 54100000 		.4byte	0x1054
 5878 148f 31       		.uleb128 0x31
 5879 1490 48100000 		.4byte	0x1048
 5880 1494 00       		.byte	0
 5881 1495 00       		.byte	0
 5882 1496 00       		.byte	0
 5883 1497 2C       		.uleb128 0x2c
 5884 1498 61100000 		.4byte	0x1061
 5885 149c 00000000 		.4byte	.LFB11
 5886 14a0 52000000 		.4byte	.LFE11
 5887 14a4 BE060000 		.4byte	.LLST46
 5888 14a8 08150000 		.4byte	0x1508
 5889 14ac 2D       		.uleb128 0x2d
 5890 14ad 73100000 		.4byte	0x1073
 5891 14b1 DE060000 		.4byte	.LLST47
 5892 14b5 2D       		.uleb128 0x2d
 5893 14b6 7F100000 		.4byte	0x107f
 5894 14ba FC060000 		.4byte	.LLST48
 5895 14be 2D       		.uleb128 0x2d
 5896 14bf 8B100000 		.4byte	0x108b
 5897 14c3 1A070000 		.4byte	.LLST49
ARM GAS  /var/folders/5n/p_75w94d66l9ssrldxqdhh700000gn/T//ccmhGqes.s 			page 105


 5898 14c7 2E       		.uleb128 0x2e
 5899 14c8 97100000 		.4byte	0x1097
 5900 14cc DE060000 		.4byte	.LLST47
 5901 14d0 32       		.uleb128 0x32
 5902 14d1 61100000 		.4byte	0x1061
 5903 14d5 30000000 		.4byte	.LBB20
 5904 14d9 38000000 		.4byte	.LBE20
 5905 14dd 01       		.byte	0x1
 5906 14de 3901     		.2byte	0x139
 5907 14e0 2D       		.uleb128 0x2d
 5908 14e1 8B100000 		.4byte	0x108b
 5909 14e5 38070000 		.4byte	.LLST51
 5910 14e9 2D       		.uleb128 0x2d
 5911 14ea 73100000 		.4byte	0x1073
 5912 14ee 4B070000 		.4byte	.LLST52
 5913 14f2 33       		.uleb128 0x33
 5914 14f3 30000000 		.4byte	.LBB21
 5915 14f7 38000000 		.4byte	.LBE21
 5916 14fb 2F       		.uleb128 0x2f
 5917 14fc 97100000 		.4byte	0x1097
 5918 1500 31       		.uleb128 0x31
 5919 1501 7F100000 		.4byte	0x107f
 5920 1505 00       		.byte	0
 5921 1506 00       		.byte	0
 5922 1507 00       		.byte	0
 5923 1508 2C       		.uleb128 0x2c
 5924 1509 A4100000 		.4byte	0x10a4
 5925 150d 00000000 		.4byte	.LFB8
 5926 1511 9A000000 		.4byte	.LFE8
 5927 1515 5E070000 		.4byte	.LLST53
 5928 1519 B3150000 		.4byte	0x15b3
 5929 151d 2D       		.uleb128 0x2d
 5930 151e B1100000 		.4byte	0x10b1
 5931 1522 8A070000 		.4byte	.LLST54
 5932 1526 2D       		.uleb128 0x2d
 5933 1527 BC100000 		.4byte	0x10bc
 5934 152b A8070000 		.4byte	.LLST55
 5935 152f 2D       		.uleb128 0x2d
 5936 1530 C7100000 		.4byte	0x10c7
 5937 1534 C6070000 		.4byte	.LLST56
 5938 1538 2D       		.uleb128 0x2d
 5939 1539 D0100000 		.4byte	0x10d0
 5940 153d 11080000 		.4byte	.LLST57
 5941 1541 34       		.uleb128 0x34
 5942 1542 DB100000 		.4byte	0x10db
 5943 1546 02       		.byte	0x2
 5944 1547 91       		.byte	0x91
 5945 1548 00       		.sleb128 0
 5946 1549 2F       		.uleb128 0x2f
 5947 154a E6100000 		.4byte	0x10e6
 5948 154e 2E       		.uleb128 0x2e
 5949 154f F1100000 		.4byte	0x10f1
 5950 1553 2F080000 		.4byte	.LLST58
 5951 1557 2F       		.uleb128 0x2f
 5952 1558 FC100000 		.4byte	0x10fc
 5953 155c 30       		.uleb128 0x30
 5954 155d A4100000 		.4byte	0x10a4
ARM GAS  /var/folders/5n/p_75w94d66l9ssrldxqdhh700000gn/T//ccmhGqes.s 			page 106


 5955 1561 2E000000 		.4byte	.LBB24
 5956 1565 60000000 		.4byte	.Ldebug_ranges0+0x60
 5957 1569 01       		.byte	0x1
 5958 156a 90       		.byte	0x90
 5959 156b 2D       		.uleb128 0x2d
 5960 156c DB100000 		.4byte	0x10db
 5961 1570 4D080000 		.4byte	.LLST59
 5962 1574 2D       		.uleb128 0x2d
 5963 1575 D0100000 		.4byte	0x10d0
 5964 1579 6B080000 		.4byte	.LLST60
 5965 157d 2D       		.uleb128 0x2d
 5966 157e C7100000 		.4byte	0x10c7
 5967 1582 89080000 		.4byte	.LLST61
 5968 1586 2D       		.uleb128 0x2d
 5969 1587 B1100000 		.4byte	0x10b1
 5970 158b A8080000 		.4byte	.LLST62
 5971 158f 2B       		.uleb128 0x2b
 5972 1590 88000000 		.4byte	.Ldebug_ranges0+0x88
 5973 1594 2E       		.uleb128 0x2e
 5974 1595 E6100000 		.4byte	0x10e6
 5975 1599 C6080000 		.4byte	.LLST63
 5976 159d 2F       		.uleb128 0x2f
 5977 159e F1100000 		.4byte	0x10f1
 5978 15a2 2E       		.uleb128 0x2e
 5979 15a3 FC100000 		.4byte	0x10fc
 5980 15a7 EF080000 		.4byte	.LLST64
 5981 15ab 31       		.uleb128 0x31
 5982 15ac BC100000 		.4byte	0x10bc
 5983 15b0 00       		.byte	0
 5984 15b1 00       		.byte	0
 5985 15b2 00       		.byte	0
 5986 15b3 2C       		.uleb128 0x2c
 5987 15b4 08110000 		.4byte	0x1108
 5988 15b8 00000000 		.4byte	.LFB7
 5989 15bc 88000000 		.4byte	.LFE7
 5990 15c0 0D090000 		.4byte	.LLST65
 5991 15c4 5A160000 		.4byte	0x165a
 5992 15c8 2D       		.uleb128 0x2d
 5993 15c9 19110000 		.4byte	0x1119
 5994 15cd 2D090000 		.4byte	.LLST66
 5995 15d1 2D       		.uleb128 0x2d
 5996 15d2 24110000 		.4byte	0x1124
 5997 15d6 4B090000 		.4byte	.LLST67
 5998 15da 2D       		.uleb128 0x2d
 5999 15db 2F110000 		.4byte	0x112f
 6000 15df 7F090000 		.4byte	.LLST68
 6001 15e3 2D       		.uleb128 0x2d
 6002 15e4 38110000 		.4byte	0x1138
 6003 15e8 A8090000 		.4byte	.LLST69
 6004 15ec 2F       		.uleb128 0x2f
 6005 15ed 43110000 		.4byte	0x1143
 6006 15f1 2F       		.uleb128 0x2f
 6007 15f2 4C110000 		.4byte	0x114c
 6008 15f6 2E       		.uleb128 0x2e
 6009 15f7 57110000 		.4byte	0x1157
 6010 15fb 2D090000 		.4byte	.LLST66
 6011 15ff 30       		.uleb128 0x30
ARM GAS  /var/folders/5n/p_75w94d66l9ssrldxqdhh700000gn/T//ccmhGqes.s 			page 107


 6012 1600 08110000 		.4byte	0x1108
 6013 1604 1E000000 		.4byte	.LBB36
 6014 1608 B0000000 		.4byte	.Ldebug_ranges0+0xb0
 6015 160c 01       		.byte	0x1
 6016 160d 4E       		.byte	0x4e
 6017 160e 2D       		.uleb128 0x2d
 6018 160f 2F110000 		.4byte	0x112f
 6019 1613 BB090000 		.4byte	.LLST71
 6020 1617 2D       		.uleb128 0x2d
 6021 1618 24110000 		.4byte	0x1124
 6022 161c CE090000 		.4byte	.LLST72
 6023 1620 34       		.uleb128 0x34
 6024 1621 19110000 		.4byte	0x1119
 6025 1625 01       		.byte	0x1
 6026 1626 54       		.byte	0x54
 6027 1627 2B       		.uleb128 0x2b
 6028 1628 C8000000 		.4byte	.Ldebug_ranges0+0xc8
 6029 162c 2E       		.uleb128 0x2e
 6030 162d 43110000 		.4byte	0x1143
 6031 1631 EC090000 		.4byte	.LLST73
 6032 1635 2E       		.uleb128 0x2e
 6033 1636 4C110000 		.4byte	0x114c
 6034 163a 0A0A0000 		.4byte	.LLST74
 6035 163e 2F       		.uleb128 0x2f
 6036 163f 57110000 		.4byte	0x1157
 6037 1643 31       		.uleb128 0x31
 6038 1644 38110000 		.4byte	0x1138
 6039 1648 2B       		.uleb128 0x2b
 6040 1649 E0000000 		.4byte	.Ldebug_ranges0+0xe0
 6041 164d 2E       		.uleb128 0x2e
 6042 164e 63110000 		.4byte	0x1163
 6043 1652 3E0A0000 		.4byte	.LLST75
 6044 1656 00       		.byte	0
 6045 1657 00       		.byte	0
 6046 1658 00       		.byte	0
 6047 1659 00       		.byte	0
 6048 165a 35       		.uleb128 0x35
 6049 165b ED090000 		.4byte	.LASF239
 6050 165f 01       		.byte	0x1
 6051 1660 E201     		.2byte	0x1e2
 6052 1662 01       		.byte	0x1
 6053 1663 01       		.byte	0x1
 6054 1664 75160000 		.4byte	0x1675
 6055 1668 20       		.uleb128 0x20
 6056 1669 6D736700 		.ascii	"msg\000"
 6057 166d 01       		.byte	0x1
 6058 166e E201     		.2byte	0x1e2
 6059 1670 AC0C0000 		.4byte	0xcac
 6060 1674 00       		.byte	0
 6061 1675 36       		.uleb128 0x36
 6062 1676 01       		.byte	0x1
 6063 1677 BD070000 		.4byte	.LASF241
 6064 167b 01       		.byte	0x1
 6065 167c 1C02     		.2byte	0x21c
 6066 167e 01       		.byte	0x1
 6067 167f 00000000 		.4byte	.LFB16
 6068 1683 98000000 		.4byte	.LFE16
ARM GAS  /var/folders/5n/p_75w94d66l9ssrldxqdhh700000gn/T//ccmhGqes.s 			page 108


 6069 1687 5C0A0000 		.4byte	.LLST76
 6070 168b B8160000 		.4byte	0x16b8
 6071 168f 29       		.uleb128 0x29
 6072 1690 6D736700 		.ascii	"msg\000"
 6073 1694 01       		.byte	0x1
 6074 1695 1C02     		.2byte	0x21c
 6075 1697 AC0C0000 		.4byte	0xcac
 6076 169b 7C0A0000 		.4byte	.LLST77
 6077 169f 32       		.uleb128 0x32
 6078 16a0 5A160000 		.4byte	0x165a
 6079 16a4 1A000000 		.4byte	.LBB44
 6080 16a8 98000000 		.4byte	.LBE44
 6081 16ac 01       		.byte	0x1
 6082 16ad 2002     		.2byte	0x220
 6083 16af 34       		.uleb128 0x34
 6084 16b0 68160000 		.4byte	0x1668
 6085 16b4 01       		.byte	0x1
 6086 16b5 54       		.byte	0x54
 6087 16b6 00       		.byte	0
 6088 16b7 00       		.byte	0
 6089 16b8 37       		.uleb128 0x37
 6090 16b9 01       		.byte	0x1
 6091 16ba 95070000 		.4byte	.LASF266
 6092 16be 01       		.byte	0x1
 6093 16bf 3402     		.2byte	0x234
 6094 16c1 01       		.byte	0x1
 6095 16c2 DA060000 		.4byte	0x6da
 6096 16c6 00000000 		.4byte	.LFB17
 6097 16ca 9C000000 		.4byte	.LFE17
 6098 16ce 9A0A0000 		.4byte	.LLST78
 6099 16d2 15170000 		.4byte	0x1715
 6100 16d6 29       		.uleb128 0x29
 6101 16d7 7400     		.ascii	"t\000"
 6102 16d9 01       		.byte	0x1
 6103 16da 3402     		.2byte	0x234
 6104 16dc 2B060000 		.4byte	0x62b
 6105 16e0 BA0A0000 		.4byte	.LLST79
 6106 16e4 26       		.uleb128 0x26
 6107 16e5 C5090000 		.4byte	.LASF125
 6108 16e9 01       		.byte	0x1
 6109 16ea 3402     		.2byte	0x234
 6110 16ec B3060000 		.4byte	0x6b3
 6111 16f0 CD0A0000 		.4byte	.LLST80
 6112 16f4 2A       		.uleb128 0x2a
 6113 16f5 17030000 		.4byte	.LASF177
 6114 16f9 01       		.byte	0x1
 6115 16fa 3602     		.2byte	0x236
 6116 16fc DA060000 		.4byte	0x6da
 6117 1700 EB0A0000 		.4byte	.LLST81
 6118 1704 2A       		.uleb128 0x2a
 6119 1705 F0050000 		.4byte	.LASF240
 6120 1709 01       		.byte	0x1
 6121 170a 3702     		.2byte	0x237
 6122 170c 29000000 		.4byte	0x29
 6123 1710 2C0B0000 		.4byte	.LLST82
 6124 1714 00       		.byte	0
 6125 1715 36       		.uleb128 0x36
ARM GAS  /var/folders/5n/p_75w94d66l9ssrldxqdhh700000gn/T//ccmhGqes.s 			page 109


 6126 1716 01       		.byte	0x1
 6127 1717 DD030000 		.4byte	.LASF242
 6128 171b 01       		.byte	0x1
 6129 171c 8502     		.2byte	0x285
 6130 171e 01       		.byte	0x1
 6131 171f 00000000 		.4byte	.LFB18
 6132 1723 46000000 		.4byte	.LFE18
 6133 1727 4A0B0000 		.4byte	.LLST83
 6134 172b 40170000 		.4byte	0x1740
 6135 172f 26       		.uleb128 0x26
 6136 1730 17030000 		.4byte	.LASF177
 6137 1734 01       		.byte	0x1
 6138 1735 8502     		.2byte	0x285
 6139 1737 DA060000 		.4byte	0x6da
 6140 173b 6A0B0000 		.4byte	.LLST84
 6141 173f 00       		.byte	0
 6142 1740 25       		.uleb128 0x25
 6143 1741 62050000 		.4byte	.LASF243
 6144 1745 01       		.byte	0x1
 6145 1746 9E02     		.2byte	0x29e
 6146 1748 01       		.byte	0x1
 6147 1749 00000000 		.4byte	.LFB19
 6148 174d B4000000 		.4byte	.LFE19
 6149 1751 880B0000 		.4byte	.LLST85
 6150 1755 A1170000 		.4byte	0x17a1
 6151 1759 26       		.uleb128 0x26
 6152 175a 17030000 		.4byte	.LASF177
 6153 175e 01       		.byte	0x1
 6154 175f 9E02     		.2byte	0x29e
 6155 1761 DA060000 		.4byte	0x6da
 6156 1765 B40B0000 		.4byte	.LLST86
 6157 1769 38       		.uleb128 0x38
 6158 176a 6D656D00 		.ascii	"mem\000"
 6159 176e 01       		.byte	0x1
 6160 176f A002     		.2byte	0x2a0
 6161 1771 B2020000 		.4byte	0x2b2
 6162 1775 02       		.byte	0x2
 6163 1776 91       		.byte	0x91
 6164 1777 64       		.sleb128 -28
 6165 1778 27       		.uleb128 0x27
 6166 1779 7000     		.ascii	"p\000"
 6167 177b 01       		.byte	0x1
 6168 177c A202     		.2byte	0x2a2
 6169 177e DC050000 		.4byte	0x5dc
 6170 1782 D20B0000 		.4byte	.LLST87
 6171 1786 33       		.uleb128 0x33
 6172 1787 64000000 		.4byte	.LBB46
 6173 178b 96000000 		.4byte	.LBE46
 6174 178f 2A       		.uleb128 0x2a
 6175 1790 130A0000 		.4byte	.LASF244
 6176 1794 01       		.byte	0x1
 6177 1795 C202     		.2byte	0x2c2
 6178 1797 DA060000 		.4byte	0x6da
 6179 179b F10B0000 		.4byte	.LLST88
 6180 179f 00       		.byte	0
 6181 17a0 00       		.byte	0
 6182 17a1 28       		.uleb128 0x28
ARM GAS  /var/folders/5n/p_75w94d66l9ssrldxqdhh700000gn/T//ccmhGqes.s 			page 110


 6183 17a2 F8040000 		.4byte	.LASF245
 6184 17a6 01       		.byte	0x1
 6185 17a7 B001     		.2byte	0x1b0
 6186 17a9 01       		.byte	0x1
 6187 17aa FE040000 		.4byte	0x4fe
 6188 17ae 00000000 		.4byte	.LFB14
 6189 17b2 78000000 		.4byte	.LFE14
 6190 17b6 100C0000 		.4byte	.LLST89
 6191 17ba 0F180000 		.4byte	0x180f
 6192 17be 29       		.uleb128 0x29
 6193 17bf 61726700 		.ascii	"arg\000"
 6194 17c3 01       		.byte	0x1
 6195 17c4 B001     		.2byte	0x1b0
 6196 17c6 B2020000 		.4byte	0x2b2
 6197 17ca 300C0000 		.4byte	.LLST90
 6198 17ce 26       		.uleb128 0x26
 6199 17cf BF080000 		.4byte	.LASF246
 6200 17d3 01       		.byte	0x1
 6201 17d4 B001     		.2byte	0x1b0
 6202 17d6 310B0000 		.4byte	0xb31
 6203 17da 590C0000 		.4byte	.LLST91
 6204 17de 29       		.uleb128 0x29
 6205 17df 65727200 		.ascii	"err\000"
 6206 17e3 01       		.byte	0x1
 6207 17e4 B001     		.2byte	0x1b0
 6208 17e6 FE040000 		.4byte	0x4fe
 6209 17ea 770C0000 		.4byte	.LLST92
 6210 17ee 2A       		.uleb128 0x2a
 6211 17ef 130A0000 		.4byte	.LASF244
 6212 17f3 01       		.byte	0x1
 6213 17f4 B201     		.2byte	0x1b2
 6214 17f6 DA060000 		.4byte	0x6da
 6215 17fa 8A0C0000 		.4byte	.LLST93
 6216 17fe 2A       		.uleb128 0x2a
 6217 17ff 17030000 		.4byte	.LASF177
 6218 1803 01       		.byte	0x1
 6219 1804 B301     		.2byte	0x1b3
 6220 1806 DA060000 		.4byte	0x6da
 6221 180a C90C0000 		.4byte	.LLST94
 6222 180e 00       		.byte	0
 6223 180f 36       		.uleb128 0x36
 6224 1810 01       		.byte	0x1
 6225 1811 52000000 		.4byte	.LASF247
 6226 1815 01       		.byte	0x1
 6227 1816 3403     		.2byte	0x334
 6228 1818 01       		.byte	0x1
 6229 1819 00000000 		.4byte	.LFB21
 6230 181d E8000000 		.4byte	.LFE21
 6231 1821 F20C0000 		.4byte	.LLST95
 6232 1825 3A180000 		.4byte	0x183a
 6233 1829 29       		.uleb128 0x29
 6234 182a 6D736700 		.ascii	"msg\000"
 6235 182e 01       		.byte	0x1
 6236 182f 3403     		.2byte	0x334
 6237 1831 AC0C0000 		.4byte	0xcac
 6238 1835 120D0000 		.4byte	.LLST96
 6239 1839 00       		.byte	0
ARM GAS  /var/folders/5n/p_75w94d66l9ssrldxqdhh700000gn/T//ccmhGqes.s 			page 111


 6240 183a 36       		.uleb128 0x36
 6241 183b 01       		.byte	0x1
 6242 183c C4060000 		.4byte	.LASF248
 6243 1840 01       		.byte	0x1
 6244 1841 7603     		.2byte	0x376
 6245 1843 01       		.byte	0x1
 6246 1844 00000000 		.4byte	.LFB22
 6247 1848 60000000 		.4byte	.LFE22
 6248 184c 300D0000 		.4byte	.LLST97
 6249 1850 65180000 		.4byte	0x1865
 6250 1854 29       		.uleb128 0x29
 6251 1855 6D736700 		.ascii	"msg\000"
 6252 1859 01       		.byte	0x1
 6253 185a 7603     		.2byte	0x376
 6254 185c AC0C0000 		.4byte	0xcac
 6255 1860 500D0000 		.4byte	.LLST98
 6256 1864 00       		.byte	0
 6257 1865 36       		.uleb128 0x36
 6258 1866 01       		.byte	0x1
 6259 1867 22050000 		.4byte	.LASF249
 6260 186b 01       		.byte	0x1
 6261 186c CC03     		.2byte	0x3cc
 6262 186e 01       		.byte	0x1
 6263 186f 00000000 		.4byte	.LFB24
 6264 1873 A4000000 		.4byte	.LFE24
 6265 1877 6E0D0000 		.4byte	.LLST99
 6266 187b A6180000 		.4byte	0x18a6
 6267 187f 29       		.uleb128 0x29
 6268 1880 6D736700 		.ascii	"msg\000"
 6269 1884 01       		.byte	0x1
 6270 1885 CC03     		.2byte	0x3cc
 6271 1887 AC0C0000 		.4byte	0xcac
 6272 188b 8E0D0000 		.4byte	.LLST100
 6273 188f 2B       		.uleb128 0x2b
 6274 1890 F8000000 		.4byte	.Ldebug_ranges0+0xf8
 6275 1894 2A       		.uleb128 0x2a
 6276 1895 EE000000 		.4byte	.LASF250
 6277 1899 01       		.byte	0x1
 6278 189a E703     		.2byte	0x3e7
 6279 189c A1040000 		.4byte	0x4a1
 6280 18a0 AC0D0000 		.4byte	.LLST101
 6281 18a4 00       		.byte	0
 6282 18a5 00       		.byte	0
 6283 18a6 36       		.uleb128 0x36
 6284 18a7 01       		.byte	0x1
 6285 18a8 1E000000 		.4byte	.LASF251
 6286 18ac 01       		.byte	0x1
 6287 18ad 0604     		.2byte	0x406
 6288 18af 01       		.byte	0x1
 6289 18b0 00000000 		.4byte	.LFB25
 6290 18b4 2C000000 		.4byte	.LFE25
 6291 18b8 DE0D0000 		.4byte	.LLST102
 6292 18bc D1180000 		.4byte	0x18d1
 6293 18c0 29       		.uleb128 0x29
 6294 18c1 6D736700 		.ascii	"msg\000"
 6295 18c5 01       		.byte	0x1
 6296 18c6 0604     		.2byte	0x406
ARM GAS  /var/folders/5n/p_75w94d66l9ssrldxqdhh700000gn/T//ccmhGqes.s 			page 112


 6297 18c8 AC0C0000 		.4byte	0xcac
 6298 18cc FE0D0000 		.4byte	.LLST103
 6299 18d0 00       		.byte	0
 6300 18d1 36       		.uleb128 0x36
 6301 18d2 01       		.byte	0x1
 6302 18d3 10090000 		.4byte	.LASF252
 6303 18d7 01       		.byte	0x1
 6304 18d8 1C04     		.2byte	0x41c
 6305 18da 01       		.byte	0x1
 6306 18db 00000000 		.4byte	.LFB26
 6307 18df B4000000 		.4byte	.LFE26
 6308 18e3 1C0E0000 		.4byte	.LLST104
 6309 18e7 16190000 		.4byte	0x1916
 6310 18eb 29       		.uleb128 0x29
 6311 18ec 6D736700 		.ascii	"msg\000"
 6312 18f0 01       		.byte	0x1
 6313 18f1 1C04     		.2byte	0x41c
 6314 18f3 AC0C0000 		.4byte	0xcac
 6315 18f7 3C0E0000 		.4byte	.LLST105
 6316 18fb 33       		.uleb128 0x33
 6317 18fc 32000000 		.4byte	.LBB50
 6318 1900 B4000000 		.4byte	.LBE50
 6319 1904 2A       		.uleb128 0x2a
 6320 1905 DB090000 		.4byte	.LASF253
 6321 1909 01       		.byte	0x1
 6322 190a 2804     		.2byte	0x428
 6323 190c 310B0000 		.4byte	0xb31
 6324 1910 5A0E0000 		.4byte	.LLST106
 6325 1914 00       		.byte	0
 6326 1915 00       		.byte	0
 6327 1916 36       		.uleb128 0x36
 6328 1917 01       		.byte	0x1
 6329 1918 1F070000 		.4byte	.LASF254
 6330 191c 01       		.byte	0x1
 6331 191d 5204     		.2byte	0x452
 6332 191f 01       		.byte	0x1
 6333 1920 00000000 		.4byte	.LFB27
 6334 1924 7E000000 		.4byte	.LFE27
 6335 1928 780E0000 		.4byte	.LLST107
 6336 192c 41190000 		.4byte	0x1941
 6337 1930 29       		.uleb128 0x29
 6338 1931 6D736700 		.ascii	"msg\000"
 6339 1935 01       		.byte	0x1
 6340 1936 5204     		.2byte	0x452
 6341 1938 AC0C0000 		.4byte	0xcac
 6342 193c 980E0000 		.4byte	.LLST108
 6343 1940 00       		.byte	0
 6344 1941 36       		.uleb128 0x36
 6345 1942 01       		.byte	0x1
 6346 1943 39080000 		.4byte	.LASF255
 6347 1947 01       		.byte	0x1
 6348 1948 8704     		.2byte	0x487
 6349 194a 01       		.byte	0x1
 6350 194b 00000000 		.4byte	.LFB28
 6351 194f 44000000 		.4byte	.LFE28
 6352 1953 B60E0000 		.4byte	.LLST109
 6353 1957 9C190000 		.4byte	0x199c
ARM GAS  /var/folders/5n/p_75w94d66l9ssrldxqdhh700000gn/T//ccmhGqes.s 			page 113


 6354 195b 29       		.uleb128 0x29
 6355 195c 6D736700 		.ascii	"msg\000"
 6356 1960 01       		.byte	0x1
 6357 1961 8704     		.2byte	0x487
 6358 1963 AC0C0000 		.4byte	0xcac
 6359 1967 D60E0000 		.4byte	.LLST110
 6360 196b 33       		.uleb128 0x33
 6361 196c 20000000 		.4byte	.LBB51
 6362 1970 44000000 		.4byte	.LBE51
 6363 1974 2A       		.uleb128 0x2a
 6364 1975 B3070000 		.4byte	.LASF256
 6365 1979 01       		.byte	0x1
 6366 197a 9204     		.2byte	0x492
 6367 197c CD040000 		.4byte	0x4cd
 6368 1980 F40E0000 		.4byte	.LLST111
 6369 1984 2B       		.uleb128 0x2b
 6370 1985 18010000 		.4byte	.Ldebug_ranges0+0x118
 6371 1989 2A       		.uleb128 0x2a
 6372 198a 4E0A0000 		.4byte	.LASF257
 6373 198e 01       		.byte	0x1
 6374 198f 9404     		.2byte	0x494
 6375 1991 B7040000 		.4byte	0x4b7
 6376 1995 2E0F0000 		.4byte	.LLST112
 6377 1999 00       		.byte	0
 6378 199a 00       		.byte	0
 6379 199b 00       		.byte	0
 6380 199c 36       		.uleb128 0x36
 6381 199d 01       		.byte	0x1
 6382 199e 17040000 		.4byte	.LASF258
 6383 19a2 01       		.byte	0x1
 6384 19a3 2105     		.2byte	0x521
 6385 19a5 01       		.byte	0x1
 6386 19a6 00000000 		.4byte	.LFB30
 6387 19aa 74000000 		.4byte	.LFE30
 6388 19ae 410F0000 		.4byte	.LLST113
 6389 19b2 C7190000 		.4byte	0x19c7
 6390 19b6 29       		.uleb128 0x29
 6391 19b7 6D736700 		.ascii	"msg\000"
 6392 19bb 01       		.byte	0x1
 6393 19bc 2105     		.2byte	0x521
 6394 19be AC0C0000 		.4byte	0xcac
 6395 19c2 6D0F0000 		.4byte	.LLST114
 6396 19c6 00       		.byte	0
 6397 19c7 36       		.uleb128 0x36
 6398 19c8 01       		.byte	0x1
 6399 19c9 03080000 		.4byte	.LASF259
 6400 19cd 01       		.byte	0x1
 6401 19ce 5805     		.2byte	0x558
 6402 19d0 01       		.byte	0x1
 6403 19d1 00000000 		.4byte	.LFB31
 6404 19d5 86000000 		.4byte	.LFE31
 6405 19d9 960F0000 		.4byte	.LLST115
 6406 19dd F2190000 		.4byte	0x19f2
 6407 19e1 29       		.uleb128 0x29
 6408 19e2 6D736700 		.ascii	"msg\000"
 6409 19e6 01       		.byte	0x1
 6410 19e7 5805     		.2byte	0x558
ARM GAS  /var/folders/5n/p_75w94d66l9ssrldxqdhh700000gn/T//ccmhGqes.s 			page 114


 6411 19e9 AC0C0000 		.4byte	0xcac
 6412 19ed B60F0000 		.4byte	.LLST116
 6413 19f1 00       		.byte	0
 6414 19f2 36       		.uleb128 0x36
 6415 19f3 01       		.byte	0x1
 6416 19f4 F5090000 		.4byte	.LASF260
 6417 19f8 01       		.byte	0x1
 6418 19f9 8D05     		.2byte	0x58d
 6419 19fb 01       		.byte	0x1
 6420 19fc 00000000 		.4byte	.LFB32
 6421 1a00 76000000 		.4byte	.LFE32
 6422 1a04 D40F0000 		.4byte	.LLST117
 6423 1a08 1D1A0000 		.4byte	0x1a1d
 6424 1a0c 29       		.uleb128 0x29
 6425 1a0d 6D736700 		.ascii	"msg\000"
 6426 1a11 01       		.byte	0x1
 6427 1a12 8D05     		.2byte	0x58d
 6428 1a14 AC0C0000 		.4byte	0xcac
 6429 1a18 F40F0000 		.4byte	.LLST118
 6430 1a1c 00       		.byte	0
 6431 1a1d 39       		.uleb128 0x39
 6432 1a1e 4F020000 		.4byte	.LASF261
 6433 1a22 12       		.byte	0x12
 6434 1a23 A7       		.byte	0xa7
 6435 1a24 F3040000 		.4byte	0x4f3
 6436 1a28 01       		.byte	0x1
 6437 1a29 01       		.byte	0x1
 6438 1a2a 39       		.uleb128 0x39
 6439 1a2b 4F020000 		.4byte	.LASF261
 6440 1a2f 12       		.byte	0x12
 6441 1a30 A7       		.byte	0xa7
 6442 1a31 F3040000 		.4byte	0x4f3
 6443 1a35 01       		.byte	0x1
 6444 1a36 01       		.byte	0x1
 6445 1a37 00       		.byte	0
 6446              		.section	.debug_abbrev,"",%progbits
 6447              	.Ldebug_abbrev0:
 6448 0000 01       		.uleb128 0x1
 6449 0001 11       		.uleb128 0x11
 6450 0002 01       		.byte	0x1
 6451 0003 25       		.uleb128 0x25
 6452 0004 0E       		.uleb128 0xe
 6453 0005 13       		.uleb128 0x13
 6454 0006 0B       		.uleb128 0xb
 6455 0007 03       		.uleb128 0x3
 6456 0008 0E       		.uleb128 0xe
 6457 0009 1B       		.uleb128 0x1b
 6458 000a 0E       		.uleb128 0xe
 6459 000b 11       		.uleb128 0x11
 6460 000c 01       		.uleb128 0x1
 6461 000d 52       		.uleb128 0x52
 6462 000e 01       		.uleb128 0x1
 6463 000f 55       		.uleb128 0x55
 6464 0010 06       		.uleb128 0x6
 6465 0011 10       		.uleb128 0x10
 6466 0012 06       		.uleb128 0x6
 6467 0013 00       		.byte	0
ARM GAS  /var/folders/5n/p_75w94d66l9ssrldxqdhh700000gn/T//ccmhGqes.s 			page 115


 6468 0014 00       		.byte	0
 6469 0015 02       		.uleb128 0x2
 6470 0016 24       		.uleb128 0x24
 6471 0017 00       		.byte	0
 6472 0018 0B       		.uleb128 0xb
 6473 0019 0B       		.uleb128 0xb
 6474 001a 3E       		.uleb128 0x3e
 6475 001b 0B       		.uleb128 0xb
 6476 001c 03       		.uleb128 0x3
 6477 001d 08       		.uleb128 0x8
 6478 001e 00       		.byte	0
 6479 001f 00       		.byte	0
 6480 0020 03       		.uleb128 0x3
 6481 0021 16       		.uleb128 0x16
 6482 0022 00       		.byte	0
 6483 0023 03       		.uleb128 0x3
 6484 0024 0E       		.uleb128 0xe
 6485 0025 3A       		.uleb128 0x3a
 6486 0026 0B       		.uleb128 0xb
 6487 0027 3B       		.uleb128 0x3b
 6488 0028 0B       		.uleb128 0xb
 6489 0029 49       		.uleb128 0x49
 6490 002a 13       		.uleb128 0x13
 6491 002b 00       		.byte	0
 6492 002c 00       		.byte	0
 6493 002d 04       		.uleb128 0x4
 6494 002e 24       		.uleb128 0x24
 6495 002f 00       		.byte	0
 6496 0030 0B       		.uleb128 0xb
 6497 0031 0B       		.uleb128 0xb
 6498 0032 3E       		.uleb128 0x3e
 6499 0033 0B       		.uleb128 0xb
 6500 0034 03       		.uleb128 0x3
 6501 0035 0E       		.uleb128 0xe
 6502 0036 00       		.byte	0
 6503 0037 00       		.byte	0
 6504 0038 05       		.uleb128 0x5
 6505 0039 13       		.uleb128 0x13
 6506 003a 01       		.byte	0x1
 6507 003b 03       		.uleb128 0x3
 6508 003c 0E       		.uleb128 0xe
 6509 003d 0B       		.uleb128 0xb
 6510 003e 0B       		.uleb128 0xb
 6511 003f 3A       		.uleb128 0x3a
 6512 0040 0B       		.uleb128 0xb
 6513 0041 3B       		.uleb128 0x3b
 6514 0042 0B       		.uleb128 0xb
 6515 0043 01       		.uleb128 0x1
 6516 0044 13       		.uleb128 0x13
 6517 0045 00       		.byte	0
 6518 0046 00       		.byte	0
 6519 0047 06       		.uleb128 0x6
 6520 0048 0D       		.uleb128 0xd
 6521 0049 00       		.byte	0
 6522 004a 03       		.uleb128 0x3
 6523 004b 0E       		.uleb128 0xe
 6524 004c 3A       		.uleb128 0x3a
ARM GAS  /var/folders/5n/p_75w94d66l9ssrldxqdhh700000gn/T//ccmhGqes.s 			page 116


 6525 004d 0B       		.uleb128 0xb
 6526 004e 3B       		.uleb128 0x3b
 6527 004f 0B       		.uleb128 0xb
 6528 0050 49       		.uleb128 0x49
 6529 0051 13       		.uleb128 0x13
 6530 0052 38       		.uleb128 0x38
 6531 0053 0A       		.uleb128 0xa
 6532 0054 00       		.byte	0
 6533 0055 00       		.byte	0
 6534 0056 07       		.uleb128 0x7
 6535 0057 0D       		.uleb128 0xd
 6536 0058 00       		.byte	0
 6537 0059 03       		.uleb128 0x3
 6538 005a 08       		.uleb128 0x8
 6539 005b 3A       		.uleb128 0x3a
 6540 005c 0B       		.uleb128 0xb
 6541 005d 3B       		.uleb128 0x3b
 6542 005e 0B       		.uleb128 0xb
 6543 005f 49       		.uleb128 0x49
 6544 0060 13       		.uleb128 0x13
 6545 0061 38       		.uleb128 0x38
 6546 0062 0A       		.uleb128 0xa
 6547 0063 00       		.byte	0
 6548 0064 00       		.byte	0
 6549 0065 08       		.uleb128 0x8
 6550 0066 13       		.uleb128 0x13
 6551 0067 01       		.byte	0x1
 6552 0068 0B       		.uleb128 0xb
 6553 0069 0B       		.uleb128 0xb
 6554 006a 3A       		.uleb128 0x3a
 6555 006b 0B       		.uleb128 0xb
 6556 006c 3B       		.uleb128 0x3b
 6557 006d 0B       		.uleb128 0xb
 6558 006e 01       		.uleb128 0x1
 6559 006f 13       		.uleb128 0x13
 6560 0070 00       		.byte	0
 6561 0071 00       		.byte	0
 6562 0072 09       		.uleb128 0x9
 6563 0073 0F       		.uleb128 0xf
 6564 0074 00       		.byte	0
 6565 0075 0B       		.uleb128 0xb
 6566 0076 0B       		.uleb128 0xb
 6567 0077 49       		.uleb128 0x49
 6568 0078 13       		.uleb128 0x13
 6569 0079 00       		.byte	0
 6570 007a 00       		.byte	0
 6571 007b 0A       		.uleb128 0xa
 6572 007c 0F       		.uleb128 0xf
 6573 007d 00       		.byte	0
 6574 007e 0B       		.uleb128 0xb
 6575 007f 0B       		.uleb128 0xb
 6576 0080 00       		.byte	0
 6577 0081 00       		.byte	0
 6578 0082 0B       		.uleb128 0xb
 6579 0083 13       		.uleb128 0x13
 6580 0084 01       		.byte	0x1
 6581 0085 03       		.uleb128 0x3
ARM GAS  /var/folders/5n/p_75w94d66l9ssrldxqdhh700000gn/T//ccmhGqes.s 			page 117


 6582 0086 0E       		.uleb128 0xe
 6583 0087 0B       		.uleb128 0xb
 6584 0088 0B       		.uleb128 0xb
 6585 0089 3A       		.uleb128 0x3a
 6586 008a 0B       		.uleb128 0xb
 6587 008b 3B       		.uleb128 0x3b
 6588 008c 05       		.uleb128 0x5
 6589 008d 01       		.uleb128 0x1
 6590 008e 13       		.uleb128 0x13
 6591 008f 00       		.byte	0
 6592 0090 00       		.byte	0
 6593 0091 0C       		.uleb128 0xc
 6594 0092 0D       		.uleb128 0xd
 6595 0093 00       		.byte	0
 6596 0094 03       		.uleb128 0x3
 6597 0095 08       		.uleb128 0x8
 6598 0096 3A       		.uleb128 0x3a
 6599 0097 0B       		.uleb128 0xb
 6600 0098 3B       		.uleb128 0x3b
 6601 0099 05       		.uleb128 0x5
 6602 009a 49       		.uleb128 0x49
 6603 009b 13       		.uleb128 0x13
 6604 009c 38       		.uleb128 0x38
 6605 009d 0A       		.uleb128 0xa
 6606 009e 00       		.byte	0
 6607 009f 00       		.byte	0
 6608 00a0 0D       		.uleb128 0xd
 6609 00a1 35       		.uleb128 0x35
 6610 00a2 00       		.byte	0
 6611 00a3 49       		.uleb128 0x49
 6612 00a4 13       		.uleb128 0x13
 6613 00a5 00       		.byte	0
 6614 00a6 00       		.byte	0
 6615 00a7 0E       		.uleb128 0xe
 6616 00a8 17       		.uleb128 0x17
 6617 00a9 01       		.byte	0x1
 6618 00aa 0B       		.uleb128 0xb
 6619 00ab 0B       		.uleb128 0xb
 6620 00ac 3A       		.uleb128 0x3a
 6621 00ad 0B       		.uleb128 0xb
 6622 00ae 3B       		.uleb128 0x3b
 6623 00af 0B       		.uleb128 0xb
 6624 00b0 01       		.uleb128 0x1
 6625 00b1 13       		.uleb128 0x13
 6626 00b2 00       		.byte	0
 6627 00b3 00       		.byte	0
 6628 00b4 0F       		.uleb128 0xf
 6629 00b5 0D       		.uleb128 0xd
 6630 00b6 00       		.byte	0
 6631 00b7 03       		.uleb128 0x3
 6632 00b8 0E       		.uleb128 0xe
 6633 00b9 3A       		.uleb128 0x3a
 6634 00ba 0B       		.uleb128 0xb
 6635 00bb 3B       		.uleb128 0x3b
 6636 00bc 0B       		.uleb128 0xb
 6637 00bd 49       		.uleb128 0x49
 6638 00be 13       		.uleb128 0x13
ARM GAS  /var/folders/5n/p_75w94d66l9ssrldxqdhh700000gn/T//ccmhGqes.s 			page 118


 6639 00bf 00       		.byte	0
 6640 00c0 00       		.byte	0
 6641 00c1 10       		.uleb128 0x10
 6642 00c2 26       		.uleb128 0x26
 6643 00c3 00       		.byte	0
 6644 00c4 49       		.uleb128 0x49
 6645 00c5 13       		.uleb128 0x13
 6646 00c6 00       		.byte	0
 6647 00c7 00       		.byte	0
 6648 00c8 11       		.uleb128 0x11
 6649 00c9 04       		.uleb128 0x4
 6650 00ca 01       		.byte	0x1
 6651 00cb 0B       		.uleb128 0xb
 6652 00cc 0B       		.uleb128 0xb
 6653 00cd 3A       		.uleb128 0x3a
 6654 00ce 0B       		.uleb128 0xb
 6655 00cf 3B       		.uleb128 0x3b
 6656 00d0 0B       		.uleb128 0xb
 6657 00d1 01       		.uleb128 0x1
 6658 00d2 13       		.uleb128 0x13
 6659 00d3 00       		.byte	0
 6660 00d4 00       		.byte	0
 6661 00d5 12       		.uleb128 0x12
 6662 00d6 28       		.uleb128 0x28
 6663 00d7 00       		.byte	0
 6664 00d8 03       		.uleb128 0x3
 6665 00d9 0E       		.uleb128 0xe
 6666 00da 1C       		.uleb128 0x1c
 6667 00db 0D       		.uleb128 0xd
 6668 00dc 00       		.byte	0
 6669 00dd 00       		.byte	0
 6670 00de 13       		.uleb128 0x13
 6671 00df 04       		.uleb128 0x4
 6672 00e0 01       		.byte	0x1
 6673 00e1 03       		.uleb128 0x3
 6674 00e2 0E       		.uleb128 0xe
 6675 00e3 0B       		.uleb128 0xb
 6676 00e4 0B       		.uleb128 0xb
 6677 00e5 3A       		.uleb128 0x3a
 6678 00e6 0B       		.uleb128 0xb
 6679 00e7 3B       		.uleb128 0x3b
 6680 00e8 0B       		.uleb128 0xb
 6681 00e9 01       		.uleb128 0x1
 6682 00ea 13       		.uleb128 0x13
 6683 00eb 00       		.byte	0
 6684 00ec 00       		.byte	0
 6685 00ed 14       		.uleb128 0x14
 6686 00ee 15       		.uleb128 0x15
 6687 00ef 01       		.byte	0x1
 6688 00f0 27       		.uleb128 0x27
 6689 00f1 0C       		.uleb128 0xc
 6690 00f2 01       		.uleb128 0x1
 6691 00f3 13       		.uleb128 0x13
 6692 00f4 00       		.byte	0
 6693 00f5 00       		.byte	0
 6694 00f6 15       		.uleb128 0x15
 6695 00f7 05       		.uleb128 0x5
ARM GAS  /var/folders/5n/p_75w94d66l9ssrldxqdhh700000gn/T//ccmhGqes.s 			page 119


 6696 00f8 00       		.byte	0
 6697 00f9 49       		.uleb128 0x49
 6698 00fa 13       		.uleb128 0x13
 6699 00fb 00       		.byte	0
 6700 00fc 00       		.byte	0
 6701 00fd 16       		.uleb128 0x16
 6702 00fe 0D       		.uleb128 0xd
 6703 00ff 00       		.byte	0
 6704 0100 03       		.uleb128 0x3
 6705 0101 08       		.uleb128 0x8
 6706 0102 3A       		.uleb128 0x3a
 6707 0103 0B       		.uleb128 0xb
 6708 0104 3B       		.uleb128 0x3b
 6709 0105 0B       		.uleb128 0xb
 6710 0106 49       		.uleb128 0x49
 6711 0107 13       		.uleb128 0x13
 6712 0108 00       		.byte	0
 6713 0109 00       		.byte	0
 6714 010a 17       		.uleb128 0x17
 6715 010b 0D       		.uleb128 0xd
 6716 010c 00       		.byte	0
 6717 010d 03       		.uleb128 0x3
 6718 010e 0E       		.uleb128 0xe
 6719 010f 3A       		.uleb128 0x3a
 6720 0110 0B       		.uleb128 0xb
 6721 0111 3B       		.uleb128 0x3b
 6722 0112 05       		.uleb128 0x5
 6723 0113 49       		.uleb128 0x49
 6724 0114 13       		.uleb128 0x13
 6725 0115 38       		.uleb128 0x38
 6726 0116 0A       		.uleb128 0xa
 6727 0117 00       		.byte	0
 6728 0118 00       		.byte	0
 6729 0119 18       		.uleb128 0x18
 6730 011a 26       		.uleb128 0x26
 6731 011b 00       		.byte	0
 6732 011c 00       		.byte	0
 6733 011d 00       		.byte	0
 6734 011e 19       		.uleb128 0x19
 6735 011f 15       		.uleb128 0x15
 6736 0120 01       		.byte	0x1
 6737 0121 27       		.uleb128 0x27
 6738 0122 0C       		.uleb128 0xc
 6739 0123 49       		.uleb128 0x49
 6740 0124 13       		.uleb128 0x13
 6741 0125 01       		.uleb128 0x1
 6742 0126 13       		.uleb128 0x13
 6743 0127 00       		.byte	0
 6744 0128 00       		.byte	0
 6745 0129 1A       		.uleb128 0x1a
 6746 012a 13       		.uleb128 0x13
 6747 012b 00       		.byte	0
 6748 012c 03       		.uleb128 0x3
 6749 012d 0E       		.uleb128 0xe
 6750 012e 3C       		.uleb128 0x3c
 6751 012f 0C       		.uleb128 0xc
 6752 0130 00       		.byte	0
ARM GAS  /var/folders/5n/p_75w94d66l9ssrldxqdhh700000gn/T//ccmhGqes.s 			page 120


 6753 0131 00       		.byte	0
 6754 0132 1B       		.uleb128 0x1b
 6755 0133 2E       		.uleb128 0x2e
 6756 0134 01       		.byte	0x1
 6757 0135 03       		.uleb128 0x3
 6758 0136 0E       		.uleb128 0xe
 6759 0137 3A       		.uleb128 0x3a
 6760 0138 0B       		.uleb128 0xb
 6761 0139 3B       		.uleb128 0x3b
 6762 013a 0B       		.uleb128 0xb
 6763 013b 27       		.uleb128 0x27
 6764 013c 0C       		.uleb128 0xc
 6765 013d 49       		.uleb128 0x49
 6766 013e 13       		.uleb128 0x13
 6767 013f 20       		.uleb128 0x20
 6768 0140 0B       		.uleb128 0xb
 6769 0141 01       		.uleb128 0x1
 6770 0142 13       		.uleb128 0x13
 6771 0143 00       		.byte	0
 6772 0144 00       		.byte	0
 6773 0145 1C       		.uleb128 0x1c
 6774 0146 05       		.uleb128 0x5
 6775 0147 00       		.byte	0
 6776 0148 03       		.uleb128 0x3
 6777 0149 08       		.uleb128 0x8
 6778 014a 3A       		.uleb128 0x3a
 6779 014b 0B       		.uleb128 0xb
 6780 014c 3B       		.uleb128 0x3b
 6781 014d 0B       		.uleb128 0xb
 6782 014e 49       		.uleb128 0x49
 6783 014f 13       		.uleb128 0x13
 6784 0150 00       		.byte	0
 6785 0151 00       		.byte	0
 6786 0152 1D       		.uleb128 0x1d
 6787 0153 34       		.uleb128 0x34
 6788 0154 00       		.byte	0
 6789 0155 03       		.uleb128 0x3
 6790 0156 0E       		.uleb128 0xe
 6791 0157 3A       		.uleb128 0x3a
 6792 0158 0B       		.uleb128 0xb
 6793 0159 3B       		.uleb128 0x3b
 6794 015a 0B       		.uleb128 0xb
 6795 015b 49       		.uleb128 0x49
 6796 015c 13       		.uleb128 0x13
 6797 015d 00       		.byte	0
 6798 015e 00       		.byte	0
 6799 015f 1E       		.uleb128 0x1e
 6800 0160 34       		.uleb128 0x34
 6801 0161 00       		.byte	0
 6802 0162 03       		.uleb128 0x3
 6803 0163 08       		.uleb128 0x8
 6804 0164 3A       		.uleb128 0x3a
 6805 0165 0B       		.uleb128 0xb
 6806 0166 3B       		.uleb128 0x3b
 6807 0167 0B       		.uleb128 0xb
 6808 0168 49       		.uleb128 0x49
 6809 0169 13       		.uleb128 0x13
ARM GAS  /var/folders/5n/p_75w94d66l9ssrldxqdhh700000gn/T//ccmhGqes.s 			page 121


 6810 016a 00       		.byte	0
 6811 016b 00       		.byte	0
 6812 016c 1F       		.uleb128 0x1f
 6813 016d 2E       		.uleb128 0x2e
 6814 016e 01       		.byte	0x1
 6815 016f 03       		.uleb128 0x3
 6816 0170 0E       		.uleb128 0xe
 6817 0171 3A       		.uleb128 0x3a
 6818 0172 0B       		.uleb128 0xb
 6819 0173 3B       		.uleb128 0x3b
 6820 0174 05       		.uleb128 0x5
 6821 0175 27       		.uleb128 0x27
 6822 0176 0C       		.uleb128 0xc
 6823 0177 49       		.uleb128 0x49
 6824 0178 13       		.uleb128 0x13
 6825 0179 20       		.uleb128 0x20
 6826 017a 0B       		.uleb128 0xb
 6827 017b 01       		.uleb128 0x1
 6828 017c 13       		.uleb128 0x13
 6829 017d 00       		.byte	0
 6830 017e 00       		.byte	0
 6831 017f 20       		.uleb128 0x20
 6832 0180 05       		.uleb128 0x5
 6833 0181 00       		.byte	0
 6834 0182 03       		.uleb128 0x3
 6835 0183 08       		.uleb128 0x8
 6836 0184 3A       		.uleb128 0x3a
 6837 0185 0B       		.uleb128 0xb
 6838 0186 3B       		.uleb128 0x3b
 6839 0187 05       		.uleb128 0x5
 6840 0188 49       		.uleb128 0x49
 6841 0189 13       		.uleb128 0x13
 6842 018a 00       		.byte	0
 6843 018b 00       		.byte	0
 6844 018c 21       		.uleb128 0x21
 6845 018d 34       		.uleb128 0x34
 6846 018e 00       		.byte	0
 6847 018f 03       		.uleb128 0x3
 6848 0190 0E       		.uleb128 0xe
 6849 0191 3A       		.uleb128 0x3a
 6850 0192 0B       		.uleb128 0xb
 6851 0193 3B       		.uleb128 0x3b
 6852 0194 05       		.uleb128 0x5
 6853 0195 49       		.uleb128 0x49
 6854 0196 13       		.uleb128 0x13
 6855 0197 00       		.byte	0
 6856 0198 00       		.byte	0
 6857 0199 22       		.uleb128 0x22
 6858 019a 2E       		.uleb128 0x2e
 6859 019b 01       		.byte	0x1
 6860 019c 03       		.uleb128 0x3
 6861 019d 0E       		.uleb128 0xe
 6862 019e 3A       		.uleb128 0x3a
 6863 019f 0B       		.uleb128 0xb
 6864 01a0 3B       		.uleb128 0x3b
 6865 01a1 0B       		.uleb128 0xb
 6866 01a2 27       		.uleb128 0x27
ARM GAS  /var/folders/5n/p_75w94d66l9ssrldxqdhh700000gn/T//ccmhGqes.s 			page 122


 6867 01a3 0C       		.uleb128 0xc
 6868 01a4 20       		.uleb128 0x20
 6869 01a5 0B       		.uleb128 0xb
 6870 01a6 01       		.uleb128 0x1
 6871 01a7 13       		.uleb128 0x13
 6872 01a8 00       		.byte	0
 6873 01a9 00       		.byte	0
 6874 01aa 23       		.uleb128 0x23
 6875 01ab 05       		.uleb128 0x5
 6876 01ac 00       		.byte	0
 6877 01ad 03       		.uleb128 0x3
 6878 01ae 0E       		.uleb128 0xe
 6879 01af 3A       		.uleb128 0x3a
 6880 01b0 0B       		.uleb128 0xb
 6881 01b1 3B       		.uleb128 0x3b
 6882 01b2 0B       		.uleb128 0xb
 6883 01b3 49       		.uleb128 0x49
 6884 01b4 13       		.uleb128 0x13
 6885 01b5 00       		.byte	0
 6886 01b6 00       		.byte	0
 6887 01b7 24       		.uleb128 0x24
 6888 01b8 0B       		.uleb128 0xb
 6889 01b9 01       		.byte	0x1
 6890 01ba 00       		.byte	0
 6891 01bb 00       		.byte	0
 6892 01bc 25       		.uleb128 0x25
 6893 01bd 2E       		.uleb128 0x2e
 6894 01be 01       		.byte	0x1
 6895 01bf 03       		.uleb128 0x3
 6896 01c0 0E       		.uleb128 0xe
 6897 01c1 3A       		.uleb128 0x3a
 6898 01c2 0B       		.uleb128 0xb
 6899 01c3 3B       		.uleb128 0x3b
 6900 01c4 05       		.uleb128 0x5
 6901 01c5 27       		.uleb128 0x27
 6902 01c6 0C       		.uleb128 0xc
 6903 01c7 11       		.uleb128 0x11
 6904 01c8 01       		.uleb128 0x1
 6905 01c9 12       		.uleb128 0x12
 6906 01ca 01       		.uleb128 0x1
 6907 01cb 40       		.uleb128 0x40
 6908 01cc 06       		.uleb128 0x6
 6909 01cd 01       		.uleb128 0x1
 6910 01ce 13       		.uleb128 0x13
 6911 01cf 00       		.byte	0
 6912 01d0 00       		.byte	0
 6913 01d1 26       		.uleb128 0x26
 6914 01d2 05       		.uleb128 0x5
 6915 01d3 00       		.byte	0
 6916 01d4 03       		.uleb128 0x3
 6917 01d5 0E       		.uleb128 0xe
 6918 01d6 3A       		.uleb128 0x3a
 6919 01d7 0B       		.uleb128 0xb
 6920 01d8 3B       		.uleb128 0x3b
 6921 01d9 05       		.uleb128 0x5
 6922 01da 49       		.uleb128 0x49
 6923 01db 13       		.uleb128 0x13
ARM GAS  /var/folders/5n/p_75w94d66l9ssrldxqdhh700000gn/T//ccmhGqes.s 			page 123


 6924 01dc 02       		.uleb128 0x2
 6925 01dd 06       		.uleb128 0x6
 6926 01de 00       		.byte	0
 6927 01df 00       		.byte	0
 6928 01e0 27       		.uleb128 0x27
 6929 01e1 34       		.uleb128 0x34
 6930 01e2 00       		.byte	0
 6931 01e3 03       		.uleb128 0x3
 6932 01e4 08       		.uleb128 0x8
 6933 01e5 3A       		.uleb128 0x3a
 6934 01e6 0B       		.uleb128 0xb
 6935 01e7 3B       		.uleb128 0x3b
 6936 01e8 05       		.uleb128 0x5
 6937 01e9 49       		.uleb128 0x49
 6938 01ea 13       		.uleb128 0x13
 6939 01eb 02       		.uleb128 0x2
 6940 01ec 06       		.uleb128 0x6
 6941 01ed 00       		.byte	0
 6942 01ee 00       		.byte	0
 6943 01ef 28       		.uleb128 0x28
 6944 01f0 2E       		.uleb128 0x2e
 6945 01f1 01       		.byte	0x1
 6946 01f2 03       		.uleb128 0x3
 6947 01f3 0E       		.uleb128 0xe
 6948 01f4 3A       		.uleb128 0x3a
 6949 01f5 0B       		.uleb128 0xb
 6950 01f6 3B       		.uleb128 0x3b
 6951 01f7 05       		.uleb128 0x5
 6952 01f8 27       		.uleb128 0x27
 6953 01f9 0C       		.uleb128 0xc
 6954 01fa 49       		.uleb128 0x49
 6955 01fb 13       		.uleb128 0x13
 6956 01fc 11       		.uleb128 0x11
 6957 01fd 01       		.uleb128 0x1
 6958 01fe 12       		.uleb128 0x12
 6959 01ff 01       		.uleb128 0x1
 6960 0200 40       		.uleb128 0x40
 6961 0201 06       		.uleb128 0x6
 6962 0202 01       		.uleb128 0x1
 6963 0203 13       		.uleb128 0x13
 6964 0204 00       		.byte	0
 6965 0205 00       		.byte	0
 6966 0206 29       		.uleb128 0x29
 6967 0207 05       		.uleb128 0x5
 6968 0208 00       		.byte	0
 6969 0209 03       		.uleb128 0x3
 6970 020a 08       		.uleb128 0x8
 6971 020b 3A       		.uleb128 0x3a
 6972 020c 0B       		.uleb128 0xb
 6973 020d 3B       		.uleb128 0x3b
 6974 020e 05       		.uleb128 0x5
 6975 020f 49       		.uleb128 0x49
 6976 0210 13       		.uleb128 0x13
 6977 0211 02       		.uleb128 0x2
 6978 0212 06       		.uleb128 0x6
 6979 0213 00       		.byte	0
 6980 0214 00       		.byte	0
ARM GAS  /var/folders/5n/p_75w94d66l9ssrldxqdhh700000gn/T//ccmhGqes.s 			page 124


 6981 0215 2A       		.uleb128 0x2a
 6982 0216 34       		.uleb128 0x34
 6983 0217 00       		.byte	0
 6984 0218 03       		.uleb128 0x3
 6985 0219 0E       		.uleb128 0xe
 6986 021a 3A       		.uleb128 0x3a
 6987 021b 0B       		.uleb128 0xb
 6988 021c 3B       		.uleb128 0x3b
 6989 021d 05       		.uleb128 0x5
 6990 021e 49       		.uleb128 0x49
 6991 021f 13       		.uleb128 0x13
 6992 0220 02       		.uleb128 0x2
 6993 0221 06       		.uleb128 0x6
 6994 0222 00       		.byte	0
 6995 0223 00       		.byte	0
 6996 0224 2B       		.uleb128 0x2b
 6997 0225 0B       		.uleb128 0xb
 6998 0226 01       		.byte	0x1
 6999 0227 55       		.uleb128 0x55
 7000 0228 06       		.uleb128 0x6
 7001 0229 00       		.byte	0
 7002 022a 00       		.byte	0
 7003 022b 2C       		.uleb128 0x2c
 7004 022c 2E       		.uleb128 0x2e
 7005 022d 01       		.byte	0x1
 7006 022e 31       		.uleb128 0x31
 7007 022f 13       		.uleb128 0x13
 7008 0230 11       		.uleb128 0x11
 7009 0231 01       		.uleb128 0x1
 7010 0232 12       		.uleb128 0x12
 7011 0233 01       		.uleb128 0x1
 7012 0234 40       		.uleb128 0x40
 7013 0235 06       		.uleb128 0x6
 7014 0236 01       		.uleb128 0x1
 7015 0237 13       		.uleb128 0x13
 7016 0238 00       		.byte	0
 7017 0239 00       		.byte	0
 7018 023a 2D       		.uleb128 0x2d
 7019 023b 05       		.uleb128 0x5
 7020 023c 00       		.byte	0
 7021 023d 31       		.uleb128 0x31
 7022 023e 13       		.uleb128 0x13
 7023 023f 02       		.uleb128 0x2
 7024 0240 06       		.uleb128 0x6
 7025 0241 00       		.byte	0
 7026 0242 00       		.byte	0
 7027 0243 2E       		.uleb128 0x2e
 7028 0244 34       		.uleb128 0x34
 7029 0245 00       		.byte	0
 7030 0246 31       		.uleb128 0x31
 7031 0247 13       		.uleb128 0x13
 7032 0248 02       		.uleb128 0x2
 7033 0249 06       		.uleb128 0x6
 7034 024a 00       		.byte	0
 7035 024b 00       		.byte	0
 7036 024c 2F       		.uleb128 0x2f
 7037 024d 34       		.uleb128 0x34
ARM GAS  /var/folders/5n/p_75w94d66l9ssrldxqdhh700000gn/T//ccmhGqes.s 			page 125


 7038 024e 00       		.byte	0
 7039 024f 31       		.uleb128 0x31
 7040 0250 13       		.uleb128 0x13
 7041 0251 00       		.byte	0
 7042 0252 00       		.byte	0
 7043 0253 30       		.uleb128 0x30
 7044 0254 1D       		.uleb128 0x1d
 7045 0255 01       		.byte	0x1
 7046 0256 31       		.uleb128 0x31
 7047 0257 13       		.uleb128 0x13
 7048 0258 52       		.uleb128 0x52
 7049 0259 01       		.uleb128 0x1
 7050 025a 55       		.uleb128 0x55
 7051 025b 06       		.uleb128 0x6
 7052 025c 58       		.uleb128 0x58
 7053 025d 0B       		.uleb128 0xb
 7054 025e 59       		.uleb128 0x59
 7055 025f 0B       		.uleb128 0xb
 7056 0260 00       		.byte	0
 7057 0261 00       		.byte	0
 7058 0262 31       		.uleb128 0x31
 7059 0263 05       		.uleb128 0x5
 7060 0264 00       		.byte	0
 7061 0265 31       		.uleb128 0x31
 7062 0266 13       		.uleb128 0x13
 7063 0267 00       		.byte	0
 7064 0268 00       		.byte	0
 7065 0269 32       		.uleb128 0x32
 7066 026a 1D       		.uleb128 0x1d
 7067 026b 01       		.byte	0x1
 7068 026c 31       		.uleb128 0x31
 7069 026d 13       		.uleb128 0x13
 7070 026e 11       		.uleb128 0x11
 7071 026f 01       		.uleb128 0x1
 7072 0270 12       		.uleb128 0x12
 7073 0271 01       		.uleb128 0x1
 7074 0272 58       		.uleb128 0x58
 7075 0273 0B       		.uleb128 0xb
 7076 0274 59       		.uleb128 0x59
 7077 0275 05       		.uleb128 0x5
 7078 0276 00       		.byte	0
 7079 0277 00       		.byte	0
 7080 0278 33       		.uleb128 0x33
 7081 0279 0B       		.uleb128 0xb
 7082 027a 01       		.byte	0x1
 7083 027b 11       		.uleb128 0x11
 7084 027c 01       		.uleb128 0x1
 7085 027d 12       		.uleb128 0x12
 7086 027e 01       		.uleb128 0x1
 7087 027f 00       		.byte	0
 7088 0280 00       		.byte	0
 7089 0281 34       		.uleb128 0x34
 7090 0282 05       		.uleb128 0x5
 7091 0283 00       		.byte	0
 7092 0284 31       		.uleb128 0x31
 7093 0285 13       		.uleb128 0x13
 7094 0286 02       		.uleb128 0x2
ARM GAS  /var/folders/5n/p_75w94d66l9ssrldxqdhh700000gn/T//ccmhGqes.s 			page 126


 7095 0287 0A       		.uleb128 0xa
 7096 0288 00       		.byte	0
 7097 0289 00       		.byte	0
 7098 028a 35       		.uleb128 0x35
 7099 028b 2E       		.uleb128 0x2e
 7100 028c 01       		.byte	0x1
 7101 028d 03       		.uleb128 0x3
 7102 028e 0E       		.uleb128 0xe
 7103 028f 3A       		.uleb128 0x3a
 7104 0290 0B       		.uleb128 0xb
 7105 0291 3B       		.uleb128 0x3b
 7106 0292 05       		.uleb128 0x5
 7107 0293 27       		.uleb128 0x27
 7108 0294 0C       		.uleb128 0xc
 7109 0295 20       		.uleb128 0x20
 7110 0296 0B       		.uleb128 0xb
 7111 0297 01       		.uleb128 0x1
 7112 0298 13       		.uleb128 0x13
 7113 0299 00       		.byte	0
 7114 029a 00       		.byte	0
 7115 029b 36       		.uleb128 0x36
 7116 029c 2E       		.uleb128 0x2e
 7117 029d 01       		.byte	0x1
 7118 029e 3F       		.uleb128 0x3f
 7119 029f 0C       		.uleb128 0xc
 7120 02a0 03       		.uleb128 0x3
 7121 02a1 0E       		.uleb128 0xe
 7122 02a2 3A       		.uleb128 0x3a
 7123 02a3 0B       		.uleb128 0xb
 7124 02a4 3B       		.uleb128 0x3b
 7125 02a5 05       		.uleb128 0x5
 7126 02a6 27       		.uleb128 0x27
 7127 02a7 0C       		.uleb128 0xc
 7128 02a8 11       		.uleb128 0x11
 7129 02a9 01       		.uleb128 0x1
 7130 02aa 12       		.uleb128 0x12
 7131 02ab 01       		.uleb128 0x1
 7132 02ac 40       		.uleb128 0x40
 7133 02ad 06       		.uleb128 0x6
 7134 02ae 01       		.uleb128 0x1
 7135 02af 13       		.uleb128 0x13
 7136 02b0 00       		.byte	0
 7137 02b1 00       		.byte	0
 7138 02b2 37       		.uleb128 0x37
 7139 02b3 2E       		.uleb128 0x2e
 7140 02b4 01       		.byte	0x1
 7141 02b5 3F       		.uleb128 0x3f
 7142 02b6 0C       		.uleb128 0xc
 7143 02b7 03       		.uleb128 0x3
 7144 02b8 0E       		.uleb128 0xe
 7145 02b9 3A       		.uleb128 0x3a
 7146 02ba 0B       		.uleb128 0xb
 7147 02bb 3B       		.uleb128 0x3b
 7148 02bc 05       		.uleb128 0x5
 7149 02bd 27       		.uleb128 0x27
 7150 02be 0C       		.uleb128 0xc
 7151 02bf 49       		.uleb128 0x49
ARM GAS  /var/folders/5n/p_75w94d66l9ssrldxqdhh700000gn/T//ccmhGqes.s 			page 127


 7152 02c0 13       		.uleb128 0x13
 7153 02c1 11       		.uleb128 0x11
 7154 02c2 01       		.uleb128 0x1
 7155 02c3 12       		.uleb128 0x12
 7156 02c4 01       		.uleb128 0x1
 7157 02c5 40       		.uleb128 0x40
 7158 02c6 06       		.uleb128 0x6
 7159 02c7 01       		.uleb128 0x1
 7160 02c8 13       		.uleb128 0x13
 7161 02c9 00       		.byte	0
 7162 02ca 00       		.byte	0
 7163 02cb 38       		.uleb128 0x38
 7164 02cc 34       		.uleb128 0x34
 7165 02cd 00       		.byte	0
 7166 02ce 03       		.uleb128 0x3
 7167 02cf 08       		.uleb128 0x8
 7168 02d0 3A       		.uleb128 0x3a
 7169 02d1 0B       		.uleb128 0xb
 7170 02d2 3B       		.uleb128 0x3b
 7171 02d3 05       		.uleb128 0x5
 7172 02d4 49       		.uleb128 0x49
 7173 02d5 13       		.uleb128 0x13
 7174 02d6 02       		.uleb128 0x2
 7175 02d7 0A       		.uleb128 0xa
 7176 02d8 00       		.byte	0
 7177 02d9 00       		.byte	0
 7178 02da 39       		.uleb128 0x39
 7179 02db 34       		.uleb128 0x34
 7180 02dc 00       		.byte	0
 7181 02dd 03       		.uleb128 0x3
 7182 02de 0E       		.uleb128 0xe
 7183 02df 3A       		.uleb128 0x3a
 7184 02e0 0B       		.uleb128 0xb
 7185 02e1 3B       		.uleb128 0x3b
 7186 02e2 0B       		.uleb128 0xb
 7187 02e3 49       		.uleb128 0x49
 7188 02e4 13       		.uleb128 0x13
 7189 02e5 3F       		.uleb128 0x3f
 7190 02e6 0C       		.uleb128 0xc
 7191 02e7 3C       		.uleb128 0x3c
 7192 02e8 0C       		.uleb128 0xc
 7193 02e9 00       		.byte	0
 7194 02ea 00       		.byte	0
 7195 02eb 00       		.byte	0
 7196              		.section	.debug_loc,"",%progbits
 7197              	.Ldebug_loc0:
 7198              	.LLST0:
 7199 0000 00000000 		.4byte	.LFB13
 7200 0004 02000000 		.4byte	.LCFI0
 7201 0008 0200     		.2byte	0x2
 7202 000a 7D       		.byte	0x7d
 7203 000b 00       		.sleb128 0
 7204 000c 02000000 		.4byte	.LCFI0
 7205 0010 4A000000 		.4byte	.LFE13
 7206 0014 0200     		.2byte	0x2
 7207 0016 7D       		.byte	0x7d
 7208 0017 08       		.sleb128 8
ARM GAS  /var/folders/5n/p_75w94d66l9ssrldxqdhh700000gn/T//ccmhGqes.s 			page 128


 7209 0018 00000000 		.4byte	0
 7210 001c 00000000 		.4byte	0
 7211              	.LLST1:
 7212 0020 00000000 		.4byte	.LVL0
 7213 0024 08000000 		.4byte	.LVL2
 7214 0028 0100     		.2byte	0x1
 7215 002a 50       		.byte	0x50
 7216 002b 00000000 		.4byte	0
 7217 002f 00000000 		.4byte	0
 7218              	.LLST2:
 7219 0033 04000000 		.4byte	.LVL1
 7220 0037 08000000 		.4byte	.LVL2
 7221 003b 0200     		.2byte	0x2
 7222 003d 70       		.byte	0x70
 7223 003e 04       		.sleb128 4
 7224 003f 08000000 		.4byte	.LVL2
 7225 0043 0B000000 		.4byte	.LVL3-1
 7226 0047 0200     		.2byte	0x2
 7227 0049 71       		.byte	0x71
 7228 004a 04       		.sleb128 4
 7229 004b 0B000000 		.4byte	.LVL3-1
 7230 004f 4A000000 		.4byte	.LFE13
 7231 0053 0100     		.2byte	0x1
 7232 0055 54       		.byte	0x54
 7233 0056 00000000 		.4byte	0
 7234 005a 00000000 		.4byte	0
 7235              	.LLST3:
 7236 005e 00000000 		.4byte	.LFB23
 7237 0062 02000000 		.4byte	.LCFI1
 7238 0066 0200     		.2byte	0x2
 7239 0068 7D       		.byte	0x7d
 7240 0069 00       		.sleb128 0
 7241 006a 02000000 		.4byte	.LCFI1
 7242 006e 86000000 		.4byte	.LFE23
 7243 0072 0200     		.2byte	0x2
 7244 0074 7D       		.byte	0x7d
 7245 0075 10       		.sleb128 16
 7246 0076 00000000 		.4byte	0
 7247 007a 00000000 		.4byte	0
 7248              	.LLST4:
 7249 007e 00000000 		.4byte	.LVL4
 7250 0082 0A000000 		.4byte	.LVL5
 7251 0086 0100     		.2byte	0x1
 7252 0088 50       		.byte	0x50
 7253 0089 13000000 		.4byte	.LVL6-1
 7254 008d 86000000 		.4byte	.LFE23
 7255 0091 0100     		.2byte	0x1
 7256 0093 54       		.byte	0x54
 7257 0094 00000000 		.4byte	0
 7258 0098 00000000 		.4byte	0
 7259              	.LLST5:
 7260 009c 00000000 		.4byte	.LVL4
 7261 00a0 13000000 		.4byte	.LVL6-1
 7262 00a4 0100     		.2byte	0x1
 7263 00a6 51       		.byte	0x51
 7264 00a7 82000000 		.4byte	.LVL11
 7265 00ab 86000000 		.4byte	.LFE23
ARM GAS  /var/folders/5n/p_75w94d66l9ssrldxqdhh700000gn/T//ccmhGqes.s 			page 129


 7266 00af 0100     		.2byte	0x1
 7267 00b1 51       		.byte	0x51
 7268 00b2 00000000 		.4byte	0
 7269 00b6 00000000 		.4byte	0
 7270              	.LLST6:
 7271 00ba 00000000 		.4byte	.LVL4
 7272 00be 13000000 		.4byte	.LVL6-1
 7273 00c2 0100     		.2byte	0x1
 7274 00c4 52       		.byte	0x52
 7275 00c5 82000000 		.4byte	.LVL11
 7276 00c9 86000000 		.4byte	.LFE23
 7277 00cd 0100     		.2byte	0x1
 7278 00cf 52       		.byte	0x52
 7279 00d0 00000000 		.4byte	0
 7280 00d4 00000000 		.4byte	0
 7281              	.LLST7:
 7282 00d8 00000000 		.4byte	.LVL4
 7283 00dc 13000000 		.4byte	.LVL6-1
 7284 00e0 0100     		.2byte	0x1
 7285 00e2 50       		.byte	0x50
 7286 00e3 13000000 		.4byte	.LVL6-1
 7287 00e7 86000000 		.4byte	.LFE23
 7288 00eb 0100     		.2byte	0x1
 7289 00ed 54       		.byte	0x54
 7290 00ee 00000000 		.4byte	0
 7291 00f2 00000000 		.4byte	0
 7292              	.LLST8:
 7293 00f6 38000000 		.4byte	.LVL7
 7294 00fa 58000000 		.4byte	.LVL8
 7295 00fe 0100     		.2byte	0x1
 7296 0100 55       		.byte	0x55
 7297 0101 5C000000 		.4byte	.LVL9
 7298 0105 68000000 		.4byte	.LVL10
 7299 0109 0100     		.2byte	0x1
 7300 010b 55       		.byte	0x55
 7301 010c 00000000 		.4byte	0
 7302 0110 00000000 		.4byte	0
 7303              	.LLST9:
 7304 0114 00000000 		.4byte	.LFB20
 7305 0118 04000000 		.4byte	.LCFI2
 7306 011c 0200     		.2byte	0x2
 7307 011e 7D       		.byte	0x7d
 7308 011f 00       		.sleb128 0
 7309 0120 04000000 		.4byte	.LCFI2
 7310 0124 70010000 		.4byte	.LFE20
 7311 0128 0200     		.2byte	0x2
 7312 012a 7D       		.byte	0x7d
 7313 012b 20       		.sleb128 32
 7314 012c 00000000 		.4byte	0
 7315 0130 00000000 		.4byte	0
 7316              	.LLST10:
 7317 0134 00000000 		.4byte	.LVL12
 7318 0138 0C000000 		.4byte	.LVL13
 7319 013c 0100     		.2byte	0x1
 7320 013e 50       		.byte	0x50
 7321 013f 0C000000 		.4byte	.LVL13
 7322 0143 70010000 		.4byte	.LFE20
ARM GAS  /var/folders/5n/p_75w94d66l9ssrldxqdhh700000gn/T//ccmhGqes.s 			page 130


 7323 0147 0100     		.2byte	0x1
 7324 0149 54       		.byte	0x54
 7325 014a 00000000 		.4byte	0
 7326 014e 00000000 		.4byte	0
 7327              	.LLST11:
 7328 0152 76000000 		.4byte	.LVL17
 7329 0156 8F000000 		.4byte	.LVL18-1
 7330 015a 0100     		.2byte	0x1
 7331 015c 52       		.byte	0x52
 7332 015d C0000000 		.4byte	.LVL19
 7333 0161 C8000000 		.4byte	.LVL20
 7334 0165 0100     		.2byte	0x1
 7335 0167 52       		.byte	0x52
 7336 0168 14010000 		.4byte	.LVL21
 7337 016c 16010000 		.4byte	.LVL22
 7338 0170 0100     		.2byte	0x1
 7339 0172 50       		.byte	0x50
 7340 0173 48010000 		.4byte	.LVL23
 7341 0177 4B010000 		.4byte	.LVL24-1
 7342 017b 0100     		.2byte	0x1
 7343 017d 52       		.byte	0x52
 7344 017e 00000000 		.4byte	0
 7345 0182 00000000 		.4byte	0
 7346              	.LLST12:
 7347 0186 32000000 		.4byte	.LVL14
 7348 018a 50010000 		.4byte	.LVL25
 7349 018e 0100     		.2byte	0x1
 7350 0190 55       		.byte	0x55
 7351 0191 00000000 		.4byte	0
 7352 0195 00000000 		.4byte	0
 7353              	.LLST13:
 7354 0199 48000000 		.4byte	.LVL15
 7355 019d 50010000 		.4byte	.LVL25
 7356 01a1 0100     		.2byte	0x1
 7357 01a3 59       		.byte	0x59
 7358 01a4 00000000 		.4byte	0
 7359 01a8 00000000 		.4byte	0
 7360              	.LLST14:
 7361 01ac 4C000000 		.4byte	.LVL16
 7362 01b0 50010000 		.4byte	.LVL25
 7363 01b4 0100     		.2byte	0x1
 7364 01b6 5A       		.byte	0x5a
 7365 01b7 00000000 		.4byte	0
 7366 01bb 00000000 		.4byte	0
 7367              	.LLST15:
 7368 01bf 00000000 		.4byte	.LFB12
 7369 01c3 02000000 		.4byte	.LCFI3
 7370 01c7 0200     		.2byte	0x2
 7371 01c9 7D       		.byte	0x7d
 7372 01ca 00       		.sleb128 0
 7373 01cb 02000000 		.4byte	.LCFI3
 7374 01cf B4000000 		.4byte	.LFE12
 7375 01d3 0200     		.2byte	0x2
 7376 01d5 7D       		.byte	0x7d
 7377 01d6 18       		.sleb128 24
 7378 01d7 00000000 		.4byte	0
 7379 01db 00000000 		.4byte	0
ARM GAS  /var/folders/5n/p_75w94d66l9ssrldxqdhh700000gn/T//ccmhGqes.s 			page 131


 7380              	.LLST16:
 7381 01df 00000000 		.4byte	.LVL26
 7382 01e3 0A000000 		.4byte	.LVL27
 7383 01e7 0100     		.2byte	0x1
 7384 01e9 50       		.byte	0x50
 7385 01ea 0A000000 		.4byte	.LVL27
 7386 01ee B4000000 		.4byte	.LFE12
 7387 01f2 0100     		.2byte	0x1
 7388 01f4 54       		.byte	0x54
 7389 01f5 00000000 		.4byte	0
 7390 01f9 00000000 		.4byte	0
 7391              	.LLST17:
 7392 01fd 00000000 		.4byte	.LVL26
 7393 0201 0A000000 		.4byte	.LVL27
 7394 0205 0100     		.2byte	0x1
 7395 0207 51       		.byte	0x51
 7396 0208 A6000000 		.4byte	.LVL31
 7397 020c A9000000 		.4byte	.LVL32-1
 7398 0210 0100     		.2byte	0x1
 7399 0212 51       		.byte	0x51
 7400 0213 00000000 		.4byte	0
 7401 0217 00000000 		.4byte	0
 7402              	.LLST19:
 7403 021b 0E000000 		.4byte	.LVL28
 7404 021f A6000000 		.4byte	.LVL31
 7405 0223 0100     		.2byte	0x1
 7406 0225 56       		.byte	0x56
 7407 0226 AC000000 		.4byte	.LVL33
 7408 022a B4000000 		.4byte	.LFE12
 7409 022e 0100     		.2byte	0x1
 7410 0230 56       		.byte	0x56
 7411 0231 00000000 		.4byte	0
 7412 0235 00000000 		.4byte	0
 7413              	.LLST20:
 7414 0239 70000000 		.4byte	.LVL29
 7415 023d 7C000000 		.4byte	.LVL30
 7416 0241 0B00     		.2byte	0xb
 7417 0243 73       		.byte	0x73
 7418 0244 00       		.sleb128 0
 7419 0245 34       		.byte	0x34
 7420 0246 1A       		.byte	0x1a
 7421 0247 48       		.byte	0x48
 7422 0248 24       		.byte	0x24
 7423 0249 48       		.byte	0x48
 7424 024a 25       		.byte	0x25
 7425 024b 30       		.byte	0x30
 7426 024c 2E       		.byte	0x2e
 7427 024d 9F       		.byte	0x9f
 7428 024e 00000000 		.4byte	0
 7429 0252 00000000 		.4byte	0
 7430              	.LLST21:
 7431 0256 00000000 		.4byte	.LFB29
 7432 025a 04000000 		.4byte	.LCFI4
 7433 025e 0200     		.2byte	0x2
 7434 0260 7D       		.byte	0x7d
 7435 0261 00       		.sleb128 0
 7436 0262 04000000 		.4byte	.LCFI4
ARM GAS  /var/folders/5n/p_75w94d66l9ssrldxqdhh700000gn/T//ccmhGqes.s 			page 132


 7437 0266 56010000 		.4byte	.LFE29
 7438 026a 0200     		.2byte	0x2
 7439 026c 7D       		.byte	0x7d
 7440 026d 20       		.sleb128 32
 7441 026e 00000000 		.4byte	0
 7442 0272 00000000 		.4byte	0
 7443              	.LLST22:
 7444 0276 00000000 		.4byte	.LVL34
 7445 027a 1F000000 		.4byte	.LVL36-1
 7446 027e 0100     		.2byte	0x1
 7447 0280 50       		.byte	0x50
 7448 0281 1F000000 		.4byte	.LVL36-1
 7449 0285 56010000 		.4byte	.LFE29
 7450 0289 0100     		.2byte	0x1
 7451 028b 54       		.byte	0x54
 7452 028c 00000000 		.4byte	0
 7453 0290 00000000 		.4byte	0
 7454              	.LLST23:
 7455 0294 00000000 		.4byte	.LVL34
 7456 0298 72000000 		.4byte	.LVL44
 7457 029c 0200     		.2byte	0x2
 7458 029e 30       		.byte	0x30
 7459 029f 9F       		.byte	0x9f
 7460 02a0 72000000 		.4byte	.LVL44
 7461 02a4 78000000 		.4byte	.LVL45
 7462 02a8 0100     		.2byte	0x1
 7463 02aa 57       		.byte	0x57
 7464 02ab 9E000000 		.4byte	.LVL47
 7465 02af B4000000 		.4byte	.LVL50
 7466 02b3 0200     		.2byte	0x2
 7467 02b5 30       		.byte	0x30
 7468 02b6 9F       		.byte	0x9f
 7469 02b7 B4000000 		.4byte	.LVL50
 7470 02bb B8000000 		.4byte	.LVL51
 7471 02bf 0100     		.2byte	0x1
 7472 02c1 50       		.byte	0x50
 7473 02c2 B8000000 		.4byte	.LVL51
 7474 02c6 C6000000 		.4byte	.LVL53
 7475 02ca 0100     		.2byte	0x1
 7476 02cc 57       		.byte	0x57
 7477 02cd C6000000 		.4byte	.LVL53
 7478 02d1 E2000000 		.4byte	.LVL54
 7479 02d5 0300     		.2byte	0x3
 7480 02d7 09       		.byte	0x9
 7481 02d8 F9       		.byte	0xf9
 7482 02d9 9F       		.byte	0x9f
 7483 02da E2000000 		.4byte	.LVL54
 7484 02de FA000000 		.4byte	.LVL56
 7485 02e2 0200     		.2byte	0x2
 7486 02e4 30       		.byte	0x30
 7487 02e5 9F       		.byte	0x9f
 7488 02e6 00010000 		.4byte	.LVL57
 7489 02ea 06010000 		.4byte	.LVL58
 7490 02ee 0300     		.2byte	0x3
 7491 02f0 09       		.byte	0x9
 7492 02f1 FF       		.byte	0xff
 7493 02f2 9F       		.byte	0x9f
ARM GAS  /var/folders/5n/p_75w94d66l9ssrldxqdhh700000gn/T//ccmhGqes.s 			page 133


 7494 02f3 06010000 		.4byte	.LVL58
 7495 02f7 0E010000 		.4byte	.LVL60
 7496 02fb 0200     		.2byte	0x2
 7497 02fd 30       		.byte	0x30
 7498 02fe 9F       		.byte	0x9f
 7499 02ff 38010000 		.4byte	.LVL63
 7500 0303 3A010000 		.4byte	.LVL64
 7501 0307 0200     		.2byte	0x2
 7502 0309 30       		.byte	0x30
 7503 030a 9F       		.byte	0x9f
 7504 030b 4A010000 		.4byte	.LVL65
 7505 030f 56010000 		.4byte	.LFE29
 7506 0313 0200     		.2byte	0x2
 7507 0315 30       		.byte	0x30
 7508 0316 9F       		.byte	0x9f
 7509 0317 00000000 		.4byte	0
 7510 031b 00000000 		.4byte	0
 7511              	.LLST24:
 7512 031f 42000000 		.4byte	.LVL37
 7513 0323 46000000 		.4byte	.LVL38
 7514 0327 0700     		.2byte	0x7
 7515 0329 72       		.byte	0x72
 7516 032a 08       		.sleb128 8
 7517 032b 06       		.byte	0x6
 7518 032c 78       		.byte	0x78
 7519 032d 00       		.sleb128 0
 7520 032e 22       		.byte	0x22
 7521 032f 9F       		.byte	0x9f
 7522 0330 46000000 		.4byte	.LVL38
 7523 0334 70000000 		.4byte	.LVL43
 7524 0338 0600     		.2byte	0x6
 7525 033a 79       		.byte	0x79
 7526 033b 00       		.sleb128 0
 7527 033c 78       		.byte	0x78
 7528 033d 00       		.sleb128 0
 7529 033e 22       		.byte	0x22
 7530 033f 9F       		.byte	0x9f
 7531 0340 9E000000 		.4byte	.LVL47
 7532 0344 BC000000 		.4byte	.LVL52
 7533 0348 0600     		.2byte	0x6
 7534 034a 79       		.byte	0x79
 7535 034b 00       		.sleb128 0
 7536 034c 78       		.byte	0x78
 7537 034d 00       		.sleb128 0
 7538 034e 22       		.byte	0x22
 7539 034f 9F       		.byte	0x9f
 7540 0350 06010000 		.4byte	.LVL58
 7541 0354 0E010000 		.4byte	.LVL60
 7542 0358 0600     		.2byte	0x6
 7543 035a 79       		.byte	0x79
 7544 035b 00       		.sleb128 0
 7545 035c 78       		.byte	0x78
 7546 035d 00       		.sleb128 0
 7547 035e 22       		.byte	0x22
 7548 035f 9F       		.byte	0x9f
 7549 0360 00000000 		.4byte	0
 7550 0364 00000000 		.4byte	0
ARM GAS  /var/folders/5n/p_75w94d66l9ssrldxqdhh700000gn/T//ccmhGqes.s 			page 134


 7551              	.LLST25:
 7552 0368 4E000000 		.4byte	.LVL39
 7553 036c 58000000 		.4byte	.LVL40
 7554 0370 0300     		.2byte	0x3
 7555 0372 09       		.byte	0x9
 7556 0373 FF       		.byte	0xff
 7557 0374 9F       		.byte	0x9f
 7558 0375 58000000 		.4byte	.LVL40
 7559 0379 62000000 		.4byte	.LVL42
 7560 037d 0100     		.2byte	0x1
 7561 037f 52       		.byte	0x52
 7562 0380 62000000 		.4byte	.LVL42
 7563 0384 86000000 		.4byte	.LVL46
 7564 0388 0100     		.2byte	0x1
 7565 038a 55       		.byte	0x55
 7566 038b 9E000000 		.4byte	.LVL47
 7567 038f E2000000 		.4byte	.LVL54
 7568 0393 0100     		.2byte	0x1
 7569 0395 55       		.byte	0x55
 7570 0396 06010000 		.4byte	.LVL58
 7571 039a 28010000 		.4byte	.LVL61
 7572 039e 0100     		.2byte	0x1
 7573 03a0 55       		.byte	0x55
 7574 03a1 3A010000 		.4byte	.LVL64
 7575 03a5 4A010000 		.4byte	.LVL65
 7576 03a9 0100     		.2byte	0x1
 7577 03ab 55       		.byte	0x55
 7578 03ac 00000000 		.4byte	0
 7579 03b0 00000000 		.4byte	0
 7580              	.LLST26:
 7581 03b4 58000000 		.4byte	.LVL40
 7582 03b8 78000000 		.4byte	.LVL45
 7583 03bc 0100     		.2byte	0x1
 7584 03be 52       		.byte	0x52
 7585 03bf 9E000000 		.4byte	.LVL47
 7586 03c3 A2000000 		.4byte	.LVL48
 7587 03c7 0100     		.2byte	0x1
 7588 03c9 52       		.byte	0x52
 7589 03ca 00000000 		.4byte	0
 7590 03ce 00000000 		.4byte	0
 7591              	.LLST27:
 7592 03d2 00000000 		.4byte	.LVL34
 7593 03d6 86000000 		.4byte	.LVL46
 7594 03da 0200     		.2byte	0x2
 7595 03dc 30       		.byte	0x30
 7596 03dd 9F       		.byte	0x9f
 7597 03de 9E000000 		.4byte	.LVL47
 7598 03e2 C6000000 		.4byte	.LVL53
 7599 03e6 0200     		.2byte	0x2
 7600 03e8 30       		.byte	0x30
 7601 03e9 9F       		.byte	0x9f
 7602 03ea C6000000 		.4byte	.LVL53
 7603 03ee E2000000 		.4byte	.LVL54
 7604 03f2 0200     		.2byte	0x2
 7605 03f4 31       		.byte	0x31
 7606 03f5 9F       		.byte	0x9f
 7607 03f6 E2000000 		.4byte	.LVL54
ARM GAS  /var/folders/5n/p_75w94d66l9ssrldxqdhh700000gn/T//ccmhGqes.s 			page 135


 7608 03fa 30010000 		.4byte	.LVL62
 7609 03fe 0200     		.2byte	0x2
 7610 0400 30       		.byte	0x30
 7611 0401 9F       		.byte	0x9f
 7612 0402 30010000 		.4byte	.LVL62
 7613 0406 3A010000 		.4byte	.LVL64
 7614 040a 0200     		.2byte	0x2
 7615 040c 31       		.byte	0x31
 7616 040d 9F       		.byte	0x9f
 7617 040e 3A010000 		.4byte	.LVL64
 7618 0412 56010000 		.4byte	.LFE29
 7619 0416 0200     		.2byte	0x2
 7620 0418 30       		.byte	0x30
 7621 0419 9F       		.byte	0x9f
 7622 041a 00000000 		.4byte	0
 7623 041e 00000000 		.4byte	0
 7624              	.LLST28:
 7625 0422 4E000000 		.4byte	.LVL39
 7626 0426 78000000 		.4byte	.LVL45
 7627 042a 0100     		.2byte	0x1
 7628 042c 51       		.byte	0x51
 7629 042d 9E000000 		.4byte	.LVL47
 7630 0431 A6000000 		.4byte	.LVL49
 7631 0435 0100     		.2byte	0x1
 7632 0437 51       		.byte	0x51
 7633 0438 06010000 		.4byte	.LVL58
 7634 043c 09010000 		.4byte	.LVL59-1
 7635 0440 0100     		.2byte	0x1
 7636 0442 51       		.byte	0x51
 7637 0443 00000000 		.4byte	0
 7638 0447 00000000 		.4byte	0
 7639              	.LLST29:
 7640 044b 16000000 		.4byte	.LVL35
 7641 044f E2000000 		.4byte	.LVL54
 7642 0453 0100     		.2byte	0x1
 7643 0455 5A       		.byte	0x5a
 7644 0456 EC000000 		.4byte	.LVL55
 7645 045a 56010000 		.4byte	.LFE29
 7646 045e 0100     		.2byte	0x1
 7647 0460 5A       		.byte	0x5a
 7648 0461 00000000 		.4byte	0
 7649 0465 00000000 		.4byte	0
 7650              	.LLST30:
 7651 0469 16000000 		.4byte	.LVL35
 7652 046d 72000000 		.4byte	.LVL44
 7653 0471 0100     		.2byte	0x1
 7654 0473 57       		.byte	0x57
 7655 0474 9E000000 		.4byte	.LVL47
 7656 0478 B4000000 		.4byte	.LVL50
 7657 047c 0100     		.2byte	0x1
 7658 047e 57       		.byte	0x57
 7659 047f EC000000 		.4byte	.LVL55
 7660 0483 FA000000 		.4byte	.LVL56
 7661 0487 0100     		.2byte	0x1
 7662 0489 57       		.byte	0x57
 7663 048a 06010000 		.4byte	.LVL58
 7664 048e 0E010000 		.4byte	.LVL60
ARM GAS  /var/folders/5n/p_75w94d66l9ssrldxqdhh700000gn/T//ccmhGqes.s 			page 136


 7665 0492 0100     		.2byte	0x1
 7666 0494 57       		.byte	0x57
 7667 0495 4A010000 		.4byte	.LVL65
 7668 0499 56010000 		.4byte	.LFE29
 7669 049d 0100     		.2byte	0x1
 7670 049f 57       		.byte	0x57
 7671 04a0 00000000 		.4byte	0
 7672 04a4 00000000 		.4byte	0
 7673              	.LLST31:
 7674 04a8 00000000 		.4byte	.LFB9
 7675 04ac 04000000 		.4byte	.LCFI5
 7676 04b0 0200     		.2byte	0x2
 7677 04b2 7D       		.byte	0x7d
 7678 04b3 00       		.sleb128 0
 7679 04b4 04000000 		.4byte	.LCFI5
 7680 04b8 8C000000 		.4byte	.LFE9
 7681 04bc 0200     		.2byte	0x2
 7682 04be 7D       		.byte	0x7d
 7683 04bf 20       		.sleb128 32
 7684 04c0 00000000 		.4byte	0
 7685 04c4 00000000 		.4byte	0
 7686              	.LLST32:
 7687 04c8 00000000 		.4byte	.LVL66
 7688 04cc 10000000 		.4byte	.LVL67
 7689 04d0 0100     		.2byte	0x1
 7690 04d2 50       		.byte	0x50
 7691 04d3 10000000 		.4byte	.LVL67
 7692 04d7 8C000000 		.4byte	.LFE9
 7693 04db 0100     		.2byte	0x1
 7694 04dd 54       		.byte	0x54
 7695 04de 00000000 		.4byte	0
 7696 04e2 00000000 		.4byte	0
 7697              	.LLST33:
 7698 04e6 00000000 		.4byte	.LVL66
 7699 04ea 10000000 		.4byte	.LVL67
 7700 04ee 0100     		.2byte	0x1
 7701 04f0 51       		.byte	0x51
 7702 04f1 10000000 		.4byte	.LVL67
 7703 04f5 3E000000 		.4byte	.LVL69
 7704 04f9 0100     		.2byte	0x1
 7705 04fb 55       		.byte	0x55
 7706 04fc 44000000 		.4byte	.LVL70
 7707 0500 52000000 		.4byte	.LVL71
 7708 0504 0100     		.2byte	0x1
 7709 0506 55       		.byte	0x55
 7710 0507 74000000 		.4byte	.LVL74
 7711 050b 77000000 		.4byte	.LVL75-1
 7712 050f 0100     		.2byte	0x1
 7713 0511 51       		.byte	0x51
 7714 0512 77000000 		.4byte	.LVL75-1
 7715 0516 7A000000 		.4byte	.LVL76
 7716 051a 0100     		.2byte	0x1
 7717 051c 55       		.byte	0x55
 7718 051d 82000000 		.4byte	.LVL77
 7719 0521 88000000 		.4byte	.LVL78
 7720 0525 0100     		.2byte	0x1
 7721 0527 55       		.byte	0x55
ARM GAS  /var/folders/5n/p_75w94d66l9ssrldxqdhh700000gn/T//ccmhGqes.s 			page 137


 7722 0528 00000000 		.4byte	0
 7723 052c 00000000 		.4byte	0
 7724              	.LLST34:
 7725 0530 00000000 		.4byte	.LVL66
 7726 0534 10000000 		.4byte	.LVL67
 7727 0538 0100     		.2byte	0x1
 7728 053a 52       		.byte	0x52
 7729 053b 10000000 		.4byte	.LVL67
 7730 053f 3E000000 		.4byte	.LVL69
 7731 0543 0100     		.2byte	0x1
 7732 0545 56       		.byte	0x56
 7733 0546 44000000 		.4byte	.LVL70
 7734 054a 60000000 		.4byte	.LVL73
 7735 054e 0100     		.2byte	0x1
 7736 0550 56       		.byte	0x56
 7737 0551 74000000 		.4byte	.LVL74
 7738 0555 77000000 		.4byte	.LVL75-1
 7739 0559 0100     		.2byte	0x1
 7740 055b 52       		.byte	0x52
 7741 055c 77000000 		.4byte	.LVL75-1
 7742 0560 7A000000 		.4byte	.LVL76
 7743 0564 0100     		.2byte	0x1
 7744 0566 56       		.byte	0x56
 7745 0567 82000000 		.4byte	.LVL77
 7746 056b 88000000 		.4byte	.LVL78
 7747 056f 0100     		.2byte	0x1
 7748 0571 56       		.byte	0x56
 7749 0572 00000000 		.4byte	0
 7750 0576 00000000 		.4byte	0
 7751              	.LLST35:
 7752 057a 00000000 		.4byte	.LVL66
 7753 057e 10000000 		.4byte	.LVL67
 7754 0582 0100     		.2byte	0x1
 7755 0584 53       		.byte	0x53
 7756 0585 74000000 		.4byte	.LVL74
 7757 0589 77000000 		.4byte	.LVL75-1
 7758 058d 0100     		.2byte	0x1
 7759 058f 53       		.byte	0x53
 7760 0590 00000000 		.4byte	0
 7761 0594 00000000 		.4byte	0
 7762              	.LLST36:
 7763 0598 14000000 		.4byte	.LVL68
 7764 059c 74000000 		.4byte	.LVL74
 7765 05a0 0100     		.2byte	0x1
 7766 05a2 54       		.byte	0x54
 7767 05a3 7A000000 		.4byte	.LVL76
 7768 05a7 82000000 		.4byte	.LVL77
 7769 05ab 0100     		.2byte	0x1
 7770 05ad 54       		.byte	0x54
 7771 05ae 88000000 		.4byte	.LVL78
 7772 05b2 8C000000 		.4byte	.LFE9
 7773 05b6 0100     		.2byte	0x1
 7774 05b8 54       		.byte	0x54
 7775 05b9 00000000 		.4byte	0
 7776 05bd 00000000 		.4byte	0
 7777              	.LLST37:
 7778 05c1 44000000 		.4byte	.LVL70
ARM GAS  /var/folders/5n/p_75w94d66l9ssrldxqdhh700000gn/T//ccmhGqes.s 			page 138


 7779 05c5 74000000 		.4byte	.LVL74
 7780 05c9 0100     		.2byte	0x1
 7781 05cb 59       		.byte	0x59
 7782 05cc 7A000000 		.4byte	.LVL76
 7783 05d0 82000000 		.4byte	.LVL77
 7784 05d4 0100     		.2byte	0x1
 7785 05d6 59       		.byte	0x59
 7786 05d7 88000000 		.4byte	.LVL78
 7787 05db 8C000000 		.4byte	.LFE9
 7788 05df 0100     		.2byte	0x1
 7789 05e1 59       		.byte	0x59
 7790 05e2 00000000 		.4byte	0
 7791 05e6 00000000 		.4byte	0
 7792              	.LLST38:
 7793 05ea 44000000 		.4byte	.LVL70
 7794 05ee 60000000 		.4byte	.LVL73
 7795 05f2 0100     		.2byte	0x1
 7796 05f4 56       		.byte	0x56
 7797 05f5 00000000 		.4byte	0
 7798 05f9 00000000 		.4byte	0
 7799              	.LLST39:
 7800 05fd 44000000 		.4byte	.LVL70
 7801 0601 74000000 		.4byte	.LVL74
 7802 0605 0100     		.2byte	0x1
 7803 0607 54       		.byte	0x54
 7804 0608 7A000000 		.4byte	.LVL76
 7805 060c 82000000 		.4byte	.LVL77
 7806 0610 0100     		.2byte	0x1
 7807 0612 54       		.byte	0x54
 7808 0613 88000000 		.4byte	.LVL78
 7809 0617 8C000000 		.4byte	.LFE9
 7810 061b 0100     		.2byte	0x1
 7811 061d 54       		.byte	0x54
 7812 061e 00000000 		.4byte	0
 7813 0622 00000000 		.4byte	0
 7814              	.LLST40:
 7815 0626 56000000 		.4byte	.LVL72
 7816 062a 74000000 		.4byte	.LVL74
 7817 062e 0100     		.2byte	0x1
 7818 0630 55       		.byte	0x55
 7819 0631 7A000000 		.4byte	.LVL76
 7820 0635 82000000 		.4byte	.LVL77
 7821 0639 0100     		.2byte	0x1
 7822 063b 55       		.byte	0x55
 7823 063c 88000000 		.4byte	.LVL78
 7824 0640 8C000000 		.4byte	.LFE9
 7825 0644 0100     		.2byte	0x1
 7826 0646 55       		.byte	0x55
 7827 0647 00000000 		.4byte	0
 7828 064b 00000000 		.4byte	0
 7829              	.LLST41:
 7830 064f 00000000 		.4byte	.LFB10
 7831 0653 02000000 		.4byte	.LCFI6
 7832 0657 0200     		.2byte	0x2
 7833 0659 7D       		.byte	0x7d
 7834 065a 00       		.sleb128 0
 7835 065b 02000000 		.4byte	.LCFI6
ARM GAS  /var/folders/5n/p_75w94d66l9ssrldxqdhh700000gn/T//ccmhGqes.s 			page 139


 7836 065f 52000000 		.4byte	.LFE10
 7837 0663 0200     		.2byte	0x2
 7838 0665 7D       		.byte	0x7d
 7839 0666 08       		.sleb128 8
 7840 0667 00000000 		.4byte	0
 7841 066b 00000000 		.4byte	0
 7842              	.LLST42:
 7843 066f 00000000 		.4byte	.LVL79
 7844 0673 06000000 		.4byte	.LVL80
 7845 0677 0100     		.2byte	0x1
 7846 0679 50       		.byte	0x50
 7847 067a 06000000 		.4byte	.LVL80
 7848 067e 52000000 		.4byte	.LFE10
 7849 0682 0100     		.2byte	0x1
 7850 0684 54       		.byte	0x54
 7851 0685 00000000 		.4byte	0
 7852 0689 00000000 		.4byte	0
 7853              	.LLST43:
 7854 068d 00000000 		.4byte	.LVL79
 7855 0691 06000000 		.4byte	.LVL80
 7856 0695 0100     		.2byte	0x1
 7857 0697 51       		.byte	0x51
 7858 0698 4C000000 		.4byte	.LVL83
 7859 069c 4F000000 		.4byte	.LVL84-1
 7860 06a0 0100     		.2byte	0x1
 7861 06a2 51       		.byte	0x51
 7862 06a3 00000000 		.4byte	0
 7863 06a7 00000000 		.4byte	0
 7864              	.LLST45:
 7865 06ab 32000000 		.4byte	.LVL81
 7866 06af 38000000 		.4byte	.LVL82
 7867 06b3 0100     		.2byte	0x1
 7868 06b5 54       		.byte	0x54
 7869 06b6 00000000 		.4byte	0
 7870 06ba 00000000 		.4byte	0
 7871              	.LLST46:
 7872 06be 00000000 		.4byte	.LFB11
 7873 06c2 02000000 		.4byte	.LCFI7
 7874 06c6 0200     		.2byte	0x2
 7875 06c8 7D       		.byte	0x7d
 7876 06c9 00       		.sleb128 0
 7877 06ca 02000000 		.4byte	.LCFI7
 7878 06ce 52000000 		.4byte	.LFE11
 7879 06d2 0200     		.2byte	0x2
 7880 06d4 7D       		.byte	0x7d
 7881 06d5 10       		.sleb128 16
 7882 06d6 00000000 		.4byte	0
 7883 06da 00000000 		.4byte	0
 7884              	.LLST47:
 7885 06de 00000000 		.4byte	.LVL85
 7886 06e2 08000000 		.4byte	.LVL86
 7887 06e6 0100     		.2byte	0x1
 7888 06e8 50       		.byte	0x50
 7889 06e9 08000000 		.4byte	.LVL86
 7890 06ed 52000000 		.4byte	.LFE11
 7891 06f1 0100     		.2byte	0x1
 7892 06f3 54       		.byte	0x54
ARM GAS  /var/folders/5n/p_75w94d66l9ssrldxqdhh700000gn/T//ccmhGqes.s 			page 140


 7893 06f4 00000000 		.4byte	0
 7894 06f8 00000000 		.4byte	0
 7895              	.LLST48:
 7896 06fc 00000000 		.4byte	.LVL85
 7897 0700 08000000 		.4byte	.LVL86
 7898 0704 0100     		.2byte	0x1
 7899 0706 51       		.byte	0x51
 7900 0707 4C000000 		.4byte	.LVL89
 7901 070b 4F000000 		.4byte	.LVL90-1
 7902 070f 0100     		.2byte	0x1
 7903 0711 51       		.byte	0x51
 7904 0712 00000000 		.4byte	0
 7905 0716 00000000 		.4byte	0
 7906              	.LLST49:
 7907 071a 00000000 		.4byte	.LVL85
 7908 071e 08000000 		.4byte	.LVL86
 7909 0722 0100     		.2byte	0x1
 7910 0724 52       		.byte	0x52
 7911 0725 4C000000 		.4byte	.LVL89
 7912 0729 4F000000 		.4byte	.LVL90-1
 7913 072d 0100     		.2byte	0x1
 7914 072f 52       		.byte	0x52
 7915 0730 00000000 		.4byte	0
 7916 0734 00000000 		.4byte	0
 7917              	.LLST51:
 7918 0738 30000000 		.4byte	.LVL87
 7919 073c 38000000 		.4byte	.LVL88
 7920 0740 0100     		.2byte	0x1
 7921 0742 55       		.byte	0x55
 7922 0743 00000000 		.4byte	0
 7923 0747 00000000 		.4byte	0
 7924              	.LLST52:
 7925 074b 30000000 		.4byte	.LVL87
 7926 074f 38000000 		.4byte	.LVL88
 7927 0753 0100     		.2byte	0x1
 7928 0755 54       		.byte	0x54
 7929 0756 00000000 		.4byte	0
 7930 075a 00000000 		.4byte	0
 7931              	.LLST53:
 7932 075e 00000000 		.4byte	.LFB8
 7933 0762 04000000 		.4byte	.LCFI8
 7934 0766 0200     		.2byte	0x2
 7935 0768 7D       		.byte	0x7d
 7936 0769 00       		.sleb128 0
 7937 076a 04000000 		.4byte	.LCFI8
 7938 076e 06000000 		.4byte	.LCFI9
 7939 0772 0200     		.2byte	0x2
 7940 0774 7D       		.byte	0x7d
 7941 0775 1C       		.sleb128 28
 7942 0776 06000000 		.4byte	.LCFI9
 7943 077a 9A000000 		.4byte	.LFE8
 7944 077e 0200     		.2byte	0x2
 7945 0780 7D       		.byte	0x7d
 7946 0781 28       		.sleb128 40
 7947 0782 00000000 		.4byte	0
 7948 0786 00000000 		.4byte	0
 7949              	.LLST54:
ARM GAS  /var/folders/5n/p_75w94d66l9ssrldxqdhh700000gn/T//ccmhGqes.s 			page 141


 7950 078a 00000000 		.4byte	.LVL91
 7951 078e 14000000 		.4byte	.LVL92
 7952 0792 0100     		.2byte	0x1
 7953 0794 50       		.byte	0x50
 7954 0795 14000000 		.4byte	.LVL92
 7955 0799 9A000000 		.4byte	.LFE8
 7956 079d 0100     		.2byte	0x1
 7957 079f 54       		.byte	0x54
 7958 07a0 00000000 		.4byte	0
 7959 07a4 00000000 		.4byte	0
 7960              	.LLST55:
 7961 07a8 00000000 		.4byte	.LVL91
 7962 07ac 14000000 		.4byte	.LVL92
 7963 07b0 0100     		.2byte	0x1
 7964 07b2 51       		.byte	0x51
 7965 07b3 7A000000 		.4byte	.LVL99
 7966 07b7 7F000000 		.4byte	.LVL100-1
 7967 07bb 0100     		.2byte	0x1
 7968 07bd 51       		.byte	0x51
 7969 07be 00000000 		.4byte	0
 7970 07c2 00000000 		.4byte	0
 7971              	.LLST56:
 7972 07c6 00000000 		.4byte	.LVL91
 7973 07ca 14000000 		.4byte	.LVL92
 7974 07ce 0100     		.2byte	0x1
 7975 07d0 52       		.byte	0x52
 7976 07d1 14000000 		.4byte	.LVL92
 7977 07d5 62000000 		.4byte	.LVL97
 7978 07d9 0100     		.2byte	0x1
 7979 07db 55       		.byte	0x55
 7980 07dc 62000000 		.4byte	.LVL97
 7981 07e0 65000000 		.4byte	.LVL98-1
 7982 07e4 0200     		.2byte	0x2
 7983 07e6 76       		.byte	0x76
 7984 07e7 00       		.sleb128 0
 7985 07e8 7A000000 		.4byte	.LVL99
 7986 07ec 7F000000 		.4byte	.LVL100-1
 7987 07f0 0100     		.2byte	0x1
 7988 07f2 52       		.byte	0x52
 7989 07f3 7F000000 		.4byte	.LVL100-1
 7990 07f7 84000000 		.4byte	.LVL101
 7991 07fb 0100     		.2byte	0x1
 7992 07fd 55       		.byte	0x55
 7993 07fe 90000000 		.4byte	.LVL102
 7994 0802 9A000000 		.4byte	.LFE8
 7995 0806 0100     		.2byte	0x1
 7996 0808 55       		.byte	0x55
 7997 0809 00000000 		.4byte	0
 7998 080d 00000000 		.4byte	0
 7999              	.LLST57:
 8000 0811 00000000 		.4byte	.LVL91
 8001 0815 14000000 		.4byte	.LVL92
 8002 0819 0100     		.2byte	0x1
 8003 081b 53       		.byte	0x53
 8004 081c 14000000 		.4byte	.LVL92
 8005 0820 9A000000 		.4byte	.LFE8
 8006 0824 0100     		.2byte	0x1
ARM GAS  /var/folders/5n/p_75w94d66l9ssrldxqdhh700000gn/T//ccmhGqes.s 			page 142


 8007 0826 58       		.byte	0x58
 8008 0827 00000000 		.4byte	0
 8009 082b 00000000 		.4byte	0
 8010              	.LLST58:
 8011 082f 18000000 		.4byte	.LVL93
 8012 0833 7A000000 		.4byte	.LVL99
 8013 0837 0100     		.2byte	0x1
 8014 0839 54       		.byte	0x54
 8015 083a 84000000 		.4byte	.LVL101
 8016 083e 90000000 		.4byte	.LVL102
 8017 0842 0100     		.2byte	0x1
 8018 0844 54       		.byte	0x54
 8019 0845 00000000 		.4byte	0
 8020 0849 00000000 		.4byte	0
 8021              	.LLST59:
 8022 084d 3A000000 		.4byte	.LVL94
 8023 0851 7A000000 		.4byte	.LVL99
 8024 0855 0100     		.2byte	0x1
 8025 0857 59       		.byte	0x59
 8026 0858 84000000 		.4byte	.LVL101
 8027 085c 90000000 		.4byte	.LVL102
 8028 0860 0100     		.2byte	0x1
 8029 0862 59       		.byte	0x59
 8030 0863 00000000 		.4byte	0
 8031 0867 00000000 		.4byte	0
 8032              	.LLST60:
 8033 086b 3A000000 		.4byte	.LVL94
 8034 086f 7A000000 		.4byte	.LVL99
 8035 0873 0100     		.2byte	0x1
 8036 0875 58       		.byte	0x58
 8037 0876 84000000 		.4byte	.LVL101
 8038 087a 90000000 		.4byte	.LVL102
 8039 087e 0100     		.2byte	0x1
 8040 0880 58       		.byte	0x58
 8041 0881 00000000 		.4byte	0
 8042 0885 00000000 		.4byte	0
 8043              	.LLST61:
 8044 0889 3A000000 		.4byte	.LVL94
 8045 088d 62000000 		.4byte	.LVL97
 8046 0891 0100     		.2byte	0x1
 8047 0893 55       		.byte	0x55
 8048 0894 62000000 		.4byte	.LVL97
 8049 0898 65000000 		.4byte	.LVL98-1
 8050 089c 0200     		.2byte	0x2
 8051 089e 76       		.byte	0x76
 8052 089f 00       		.sleb128 0
 8053 08a0 00000000 		.4byte	0
 8054 08a4 00000000 		.4byte	0
 8055              	.LLST62:
 8056 08a8 3A000000 		.4byte	.LVL94
 8057 08ac 7A000000 		.4byte	.LVL99
 8058 08b0 0100     		.2byte	0x1
 8059 08b2 54       		.byte	0x54
 8060 08b3 84000000 		.4byte	.LVL101
 8061 08b7 90000000 		.4byte	.LVL102
 8062 08bb 0100     		.2byte	0x1
 8063 08bd 54       		.byte	0x54
ARM GAS  /var/folders/5n/p_75w94d66l9ssrldxqdhh700000gn/T//ccmhGqes.s 			page 143


 8064 08be 00000000 		.4byte	0
 8065 08c2 00000000 		.4byte	0
 8066              	.LLST63:
 8067 08c6 40000000 		.4byte	.LVL95
 8068 08ca 60000000 		.4byte	.LVL96
 8069 08ce 0100     		.2byte	0x1
 8070 08d0 50       		.byte	0x50
 8071 08d1 60000000 		.4byte	.LVL96
 8072 08d5 7A000000 		.4byte	.LVL99
 8073 08d9 0100     		.2byte	0x1
 8074 08db 56       		.byte	0x56
 8075 08dc 84000000 		.4byte	.LVL101
 8076 08e0 90000000 		.4byte	.LVL102
 8077 08e4 0100     		.2byte	0x1
 8078 08e6 56       		.byte	0x56
 8079 08e7 00000000 		.4byte	0
 8080 08eb 00000000 		.4byte	0
 8081              	.LLST64:
 8082 08ef 62000000 		.4byte	.LVL97
 8083 08f3 7A000000 		.4byte	.LVL99
 8084 08f7 0100     		.2byte	0x1
 8085 08f9 55       		.byte	0x55
 8086 08fa 84000000 		.4byte	.LVL101
 8087 08fe 90000000 		.4byte	.LVL102
 8088 0902 0100     		.2byte	0x1
 8089 0904 55       		.byte	0x55
 8090 0905 00000000 		.4byte	0
 8091 0909 00000000 		.4byte	0
 8092              	.LLST65:
 8093 090d 00000000 		.4byte	.LFB7
 8094 0911 04000000 		.4byte	.LCFI10
 8095 0915 0200     		.2byte	0x2
 8096 0917 7D       		.byte	0x7d
 8097 0918 00       		.sleb128 0
 8098 0919 04000000 		.4byte	.LCFI10
 8099 091d 88000000 		.4byte	.LFE7
 8100 0921 0200     		.2byte	0x2
 8101 0923 7D       		.byte	0x7d
 8102 0924 18       		.sleb128 24
 8103 0925 00000000 		.4byte	0
 8104 0929 00000000 		.4byte	0
 8105              	.LLST66:
 8106 092d 00000000 		.4byte	.LVL103
 8107 0931 12000000 		.4byte	.LVL104
 8108 0935 0100     		.2byte	0x1
 8109 0937 50       		.byte	0x50
 8110 0938 12000000 		.4byte	.LVL104
 8111 093c 88000000 		.4byte	.LFE7
 8112 0940 0100     		.2byte	0x1
 8113 0942 54       		.byte	0x54
 8114 0943 00000000 		.4byte	0
 8115 0947 00000000 		.4byte	0
 8116              	.LLST67:
 8117 094b 00000000 		.4byte	.LVL103
 8118 094f 15000000 		.4byte	.LVL105-1
 8119 0953 0100     		.2byte	0x1
 8120 0955 51       		.byte	0x51
ARM GAS  /var/folders/5n/p_75w94d66l9ssrldxqdhh700000gn/T//ccmhGqes.s 			page 144


 8121 0956 15000000 		.4byte	.LVL105-1
 8122 095a 18000000 		.4byte	.LVL106
 8123 095e 0100     		.2byte	0x1
 8124 0960 57       		.byte	0x57
 8125 0961 1E000000 		.4byte	.LVL107
 8126 0965 54000000 		.4byte	.LVL112
 8127 0969 0100     		.2byte	0x1
 8128 096b 57       		.byte	0x57
 8129 096c 74000000 		.4byte	.LVL115
 8130 0970 7C000000 		.4byte	.LVL116
 8131 0974 0100     		.2byte	0x1
 8132 0976 57       		.byte	0x57
 8133 0977 00000000 		.4byte	0
 8134 097b 00000000 		.4byte	0
 8135              	.LLST68:
 8136 097f 00000000 		.4byte	.LVL103
 8137 0983 15000000 		.4byte	.LVL105-1
 8138 0987 0100     		.2byte	0x1
 8139 0989 52       		.byte	0x52
 8140 098a 15000000 		.4byte	.LVL105-1
 8141 098e 18000000 		.4byte	.LVL106
 8142 0992 0100     		.2byte	0x1
 8143 0994 56       		.byte	0x56
 8144 0995 1E000000 		.4byte	.LVL107
 8145 0999 3E000000 		.4byte	.LVL111
 8146 099d 0100     		.2byte	0x1
 8147 099f 56       		.byte	0x56
 8148 09a0 00000000 		.4byte	0
 8149 09a4 00000000 		.4byte	0
 8150              	.LLST69:
 8151 09a8 00000000 		.4byte	.LVL103
 8152 09ac 15000000 		.4byte	.LVL105-1
 8153 09b0 0100     		.2byte	0x1
 8154 09b2 53       		.byte	0x53
 8155 09b3 00000000 		.4byte	0
 8156 09b7 00000000 		.4byte	0
 8157              	.LLST71:
 8158 09bb 1E000000 		.4byte	.LVL107
 8159 09bf 3E000000 		.4byte	.LVL111
 8160 09c3 0100     		.2byte	0x1
 8161 09c5 56       		.byte	0x56
 8162 09c6 00000000 		.4byte	0
 8163 09ca 00000000 		.4byte	0
 8164              	.LLST72:
 8165 09ce 1E000000 		.4byte	.LVL107
 8166 09d2 54000000 		.4byte	.LVL112
 8167 09d6 0100     		.2byte	0x1
 8168 09d8 57       		.byte	0x57
 8169 09d9 74000000 		.4byte	.LVL115
 8170 09dd 7C000000 		.4byte	.LVL116
 8171 09e1 0100     		.2byte	0x1
 8172 09e3 57       		.byte	0x57
 8173 09e4 00000000 		.4byte	0
 8174 09e8 00000000 		.4byte	0
 8175              	.LLST73:
 8176 09ec 28000000 		.4byte	.LVL108
 8177 09f0 33000000 		.4byte	.LVL109-1
ARM GAS  /var/folders/5n/p_75w94d66l9ssrldxqdhh700000gn/T//ccmhGqes.s 			page 145


 8178 09f4 0100     		.2byte	0x1
 8179 09f6 50       		.byte	0x50
 8180 09f7 33000000 		.4byte	.LVL109-1
 8181 09fb 88000000 		.4byte	.LFE7
 8182 09ff 0100     		.2byte	0x1
 8183 0a01 58       		.byte	0x58
 8184 0a02 00000000 		.4byte	0
 8185 0a06 00000000 		.4byte	0
 8186              	.LLST74:
 8187 0a0a 3C000000 		.4byte	.LVL110
 8188 0a0e 5A000000 		.4byte	.LVL113
 8189 0a12 0100     		.2byte	0x1
 8190 0a14 50       		.byte	0x50
 8191 0a15 5A000000 		.4byte	.LVL113
 8192 0a19 5D000000 		.4byte	.LVL114-1
 8193 0a1d 0100     		.2byte	0x1
 8194 0a1f 51       		.byte	0x51
 8195 0a20 5D000000 		.4byte	.LVL114-1
 8196 0a24 74000000 		.4byte	.LVL115
 8197 0a28 0100     		.2byte	0x1
 8198 0a2a 56       		.byte	0x56
 8199 0a2b 7C000000 		.4byte	.LVL116
 8200 0a2f 88000000 		.4byte	.LFE7
 8201 0a33 0100     		.2byte	0x1
 8202 0a35 56       		.byte	0x56
 8203 0a36 00000000 		.4byte	0
 8204 0a3a 00000000 		.4byte	0
 8205              	.LLST75:
 8206 0a3e 54000000 		.4byte	.LVL112
 8207 0a42 74000000 		.4byte	.LVL115
 8208 0a46 0100     		.2byte	0x1
 8209 0a48 57       		.byte	0x57
 8210 0a49 7C000000 		.4byte	.LVL116
 8211 0a4d 88000000 		.4byte	.LFE7
 8212 0a51 0100     		.2byte	0x1
 8213 0a53 57       		.byte	0x57
 8214 0a54 00000000 		.4byte	0
 8215 0a58 00000000 		.4byte	0
 8216              	.LLST76:
 8217 0a5c 00000000 		.4byte	.LFB16
 8218 0a60 02000000 		.4byte	.LCFI11
 8219 0a64 0200     		.2byte	0x2
 8220 0a66 7D       		.byte	0x7d
 8221 0a67 00       		.sleb128 0
 8222 0a68 02000000 		.4byte	.LCFI11
 8223 0a6c 98000000 		.4byte	.LFE16
 8224 0a70 0200     		.2byte	0x2
 8225 0a72 7D       		.byte	0x7d
 8226 0a73 10       		.sleb128 16
 8227 0a74 00000000 		.4byte	0
 8228 0a78 00000000 		.4byte	0
 8229              	.LLST77:
 8230 0a7c 00000000 		.4byte	.LVL117
 8231 0a80 0E000000 		.4byte	.LVL118
 8232 0a84 0100     		.2byte	0x1
 8233 0a86 50       		.byte	0x50
 8234 0a87 0E000000 		.4byte	.LVL118
ARM GAS  /var/folders/5n/p_75w94d66l9ssrldxqdhh700000gn/T//ccmhGqes.s 			page 146


 8235 0a8b 98000000 		.4byte	.LFE16
 8236 0a8f 0100     		.2byte	0x1
 8237 0a91 54       		.byte	0x54
 8238 0a92 00000000 		.4byte	0
 8239 0a96 00000000 		.4byte	0
 8240              	.LLST78:
 8241 0a9a 00000000 		.4byte	.LFB17
 8242 0a9e 04000000 		.4byte	.LCFI12
 8243 0aa2 0200     		.2byte	0x2
 8244 0aa4 7D       		.byte	0x7d
 8245 0aa5 00       		.sleb128 0
 8246 0aa6 04000000 		.4byte	.LCFI12
 8247 0aaa 9C000000 		.4byte	.LFE17
 8248 0aae 0200     		.2byte	0x2
 8249 0ab0 7D       		.byte	0x7d
 8250 0ab1 18       		.sleb128 24
 8251 0ab2 00000000 		.4byte	0
 8252 0ab6 00000000 		.4byte	0
 8253              	.LLST79:
 8254 0aba 00000000 		.4byte	.LVL120
 8255 0abe 08000000 		.4byte	.LVL121
 8256 0ac2 0100     		.2byte	0x1
 8257 0ac4 50       		.byte	0x50
 8258 0ac5 00000000 		.4byte	0
 8259 0ac9 00000000 		.4byte	0
 8260              	.LLST80:
 8261 0acd 00000000 		.4byte	.LVL120
 8262 0ad1 0D000000 		.4byte	.LVL122-1
 8263 0ad5 0100     		.2byte	0x1
 8264 0ad7 51       		.byte	0x51
 8265 0ad8 0D000000 		.4byte	.LVL122-1
 8266 0adc 9C000000 		.4byte	.LFE17
 8267 0ae0 0100     		.2byte	0x1
 8268 0ae2 57       		.byte	0x57
 8269 0ae3 00000000 		.4byte	0
 8270 0ae7 00000000 		.4byte	0
 8271              	.LLST81:
 8272 0aeb 0E000000 		.4byte	.LVL122
 8273 0aef 2D000000 		.4byte	.LVL123-1
 8274 0af3 0100     		.2byte	0x1
 8275 0af5 50       		.byte	0x50
 8276 0af6 2D000000 		.4byte	.LVL123-1
 8277 0afa 6C000000 		.4byte	.LVL125
 8278 0afe 0100     		.2byte	0x1
 8279 0b00 54       		.byte	0x54
 8280 0b01 72000000 		.4byte	.LVL126
 8281 0b05 7E000000 		.4byte	.LVL127
 8282 0b09 0100     		.2byte	0x1
 8283 0b0b 50       		.byte	0x50
 8284 0b0c 7E000000 		.4byte	.LVL127
 8285 0b10 88000000 		.4byte	.LVL128
 8286 0b14 0100     		.2byte	0x1
 8287 0b16 54       		.byte	0x54
 8288 0b17 88000000 		.4byte	.LVL128
 8289 0b1b 9C000000 		.4byte	.LFE17
 8290 0b1f 0300     		.2byte	0x3
 8291 0b21 76       		.byte	0x76
ARM GAS  /var/folders/5n/p_75w94d66l9ssrldxqdhh700000gn/T//ccmhGqes.s 			page 147


 8292 0b22 74       		.sleb128 -12
 8293 0b23 9F       		.byte	0x9f
 8294 0b24 00000000 		.4byte	0
 8295 0b28 00000000 		.4byte	0
 8296              	.LLST82:
 8297 0b2c 2E000000 		.4byte	.LVL123
 8298 0b30 4A000000 		.4byte	.LVL124
 8299 0b34 0100     		.2byte	0x1
 8300 0b36 58       		.byte	0x58
 8301 0b37 7E000000 		.4byte	.LVL127
 8302 0b3b 8A000000 		.4byte	.LVL129
 8303 0b3f 0100     		.2byte	0x1
 8304 0b41 58       		.byte	0x58
 8305 0b42 00000000 		.4byte	0
 8306 0b46 00000000 		.4byte	0
 8307              	.LLST83:
 8308 0b4a 00000000 		.4byte	.LFB18
 8309 0b4e 02000000 		.4byte	.LCFI13
 8310 0b52 0200     		.2byte	0x2
 8311 0b54 7D       		.byte	0x7d
 8312 0b55 00       		.sleb128 0
 8313 0b56 02000000 		.4byte	.LCFI13
 8314 0b5a 46000000 		.4byte	.LFE18
 8315 0b5e 0200     		.2byte	0x2
 8316 0b60 7D       		.byte	0x7d
 8317 0b61 10       		.sleb128 16
 8318 0b62 00000000 		.4byte	0
 8319 0b66 00000000 		.4byte	0
 8320              	.LLST84:
 8321 0b6a 00000000 		.4byte	.LVL130
 8322 0b6e 0B000000 		.4byte	.LVL131-1
 8323 0b72 0100     		.2byte	0x1
 8324 0b74 50       		.byte	0x50
 8325 0b75 0B000000 		.4byte	.LVL131-1
 8326 0b79 46000000 		.4byte	.LFE18
 8327 0b7d 0100     		.2byte	0x1
 8328 0b7f 54       		.byte	0x54
 8329 0b80 00000000 		.4byte	0
 8330 0b84 00000000 		.4byte	0
 8331              	.LLST85:
 8332 0b88 00000000 		.4byte	.LFB19
 8333 0b8c 04000000 		.4byte	.LCFI14
 8334 0b90 0200     		.2byte	0x2
 8335 0b92 7D       		.byte	0x7d
 8336 0b93 00       		.sleb128 0
 8337 0b94 04000000 		.4byte	.LCFI14
 8338 0b98 0C000000 		.4byte	.LCFI15
 8339 0b9c 0200     		.2byte	0x2
 8340 0b9e 7D       		.byte	0x7d
 8341 0b9f 18       		.sleb128 24
 8342 0ba0 0C000000 		.4byte	.LCFI15
 8343 0ba4 B4000000 		.4byte	.LFE19
 8344 0ba8 0200     		.2byte	0x2
 8345 0baa 7D       		.byte	0x7d
 8346 0bab 20       		.sleb128 32
 8347 0bac 00000000 		.4byte	0
 8348 0bb0 00000000 		.4byte	0
ARM GAS  /var/folders/5n/p_75w94d66l9ssrldxqdhh700000gn/T//ccmhGqes.s 			page 148


 8349              	.LLST86:
 8350 0bb4 00000000 		.4byte	.LVL132
 8351 0bb8 0E000000 		.4byte	.LVL133
 8352 0bbc 0100     		.2byte	0x1
 8353 0bbe 50       		.byte	0x50
 8354 0bbf 0E000000 		.4byte	.LVL133
 8355 0bc3 B4000000 		.4byte	.LFE19
 8356 0bc7 0100     		.2byte	0x1
 8357 0bc9 54       		.byte	0x54
 8358 0bca 00000000 		.4byte	0
 8359 0bce 00000000 		.4byte	0
 8360              	.LLST87:
 8361 0bd2 2E000000 		.4byte	.LVL135
 8362 0bd6 39000000 		.4byte	.LVL136-1
 8363 0bda 0200     		.2byte	0x2
 8364 0bdc 75       		.byte	0x75
 8365 0bdd 00       		.sleb128 0
 8366 0bde 39000000 		.4byte	.LVL136-1
 8367 0be2 42000000 		.4byte	.LVL137
 8368 0be6 0100     		.2byte	0x1
 8369 0be8 57       		.byte	0x57
 8370 0be9 00000000 		.4byte	0
 8371 0bed 00000000 		.4byte	0
 8372              	.LLST88:
 8373 0bf1 6E000000 		.4byte	.LVL138
 8374 0bf5 79000000 		.4byte	.LVL139-1
 8375 0bf9 0200     		.2byte	0x2
 8376 0bfb 75       		.byte	0x75
 8377 0bfc 00       		.sleb128 0
 8378 0bfd 79000000 		.4byte	.LVL139-1
 8379 0c01 96000000 		.4byte	.LVL140
 8380 0c05 0100     		.2byte	0x1
 8381 0c07 58       		.byte	0x58
 8382 0c08 00000000 		.4byte	0
 8383 0c0c 00000000 		.4byte	0
 8384              	.LLST89:
 8385 0c10 00000000 		.4byte	.LFB14
 8386 0c14 04000000 		.4byte	.LCFI16
 8387 0c18 0200     		.2byte	0x2
 8388 0c1a 7D       		.byte	0x7d
 8389 0c1b 00       		.sleb128 0
 8390 0c1c 04000000 		.4byte	.LCFI16
 8391 0c20 78000000 		.4byte	.LFE14
 8392 0c24 0200     		.2byte	0x2
 8393 0c26 7D       		.byte	0x7d
 8394 0c27 18       		.sleb128 24
 8395 0c28 00000000 		.4byte	0
 8396 0c2c 00000000 		.4byte	0
 8397              	.LLST90:
 8398 0c30 00000000 		.4byte	.LVL141
 8399 0c34 0C000000 		.4byte	.LVL143
 8400 0c38 0100     		.2byte	0x1
 8401 0c3a 50       		.byte	0x50
 8402 0c3b 36000000 		.4byte	.LVL147
 8403 0c3f 44000000 		.4byte	.LVL148
 8404 0c43 0100     		.2byte	0x1
 8405 0c45 54       		.byte	0x54
ARM GAS  /var/folders/5n/p_75w94d66l9ssrldxqdhh700000gn/T//ccmhGqes.s 			page 149


 8406 0c46 4A000000 		.4byte	.LVL149
 8407 0c4a 60000000 		.4byte	.LVL153
 8408 0c4e 0100     		.2byte	0x1
 8409 0c50 54       		.byte	0x54
 8410 0c51 00000000 		.4byte	0
 8411 0c55 00000000 		.4byte	0
 8412              	.LLST91:
 8413 0c59 00000000 		.4byte	.LVL141
 8414 0c5d 13000000 		.4byte	.LVL144-1
 8415 0c61 0100     		.2byte	0x1
 8416 0c63 51       		.byte	0x51
 8417 0c64 13000000 		.4byte	.LVL144-1
 8418 0c68 78000000 		.4byte	.LFE14
 8419 0c6c 0100     		.2byte	0x1
 8420 0c6e 56       		.byte	0x56
 8421 0c6f 00000000 		.4byte	0
 8422 0c73 00000000 		.4byte	0
 8423              	.LLST92:
 8424 0c77 00000000 		.4byte	.LVL141
 8425 0c7b 13000000 		.4byte	.LVL144-1
 8426 0c7f 0100     		.2byte	0x1
 8427 0c81 52       		.byte	0x52
 8428 0c82 00000000 		.4byte	0
 8429 0c86 00000000 		.4byte	0
 8430              	.LLST93:
 8431 0c8a 1E000000 		.4byte	.LVL145
 8432 0c8e 27000000 		.4byte	.LVL146-1
 8433 0c92 0100     		.2byte	0x1
 8434 0c94 50       		.byte	0x50
 8435 0c95 27000000 		.4byte	.LVL146-1
 8436 0c99 44000000 		.4byte	.LVL148
 8437 0c9d 0100     		.2byte	0x1
 8438 0c9f 57       		.byte	0x57
 8439 0ca0 4A000000 		.4byte	.LVL149
 8440 0ca4 52000000 		.4byte	.LVL150
 8441 0ca8 0100     		.2byte	0x1
 8442 0caa 57       		.byte	0x57
 8443 0cab 56000000 		.4byte	.LVL151
 8444 0caf 5A000000 		.4byte	.LVL152
 8445 0cb3 0100     		.2byte	0x1
 8446 0cb5 50       		.byte	0x50
 8447 0cb6 5A000000 		.4byte	.LVL152
 8448 0cba 78000000 		.4byte	.LFE14
 8449 0cbe 0100     		.2byte	0x1
 8450 0cc0 57       		.byte	0x57
 8451 0cc1 00000000 		.4byte	0
 8452 0cc5 00000000 		.4byte	0
 8453              	.LLST94:
 8454 0cc9 0A000000 		.4byte	.LVL142
 8455 0ccd 0C000000 		.4byte	.LVL143
 8456 0cd1 0100     		.2byte	0x1
 8457 0cd3 50       		.byte	0x50
 8458 0cd4 0C000000 		.4byte	.LVL143
 8459 0cd8 44000000 		.4byte	.LVL148
 8460 0cdc 0100     		.2byte	0x1
 8461 0cde 54       		.byte	0x54
 8462 0cdf 4A000000 		.4byte	.LVL149
ARM GAS  /var/folders/5n/p_75w94d66l9ssrldxqdhh700000gn/T//ccmhGqes.s 			page 150


 8463 0ce3 60000000 		.4byte	.LVL153
 8464 0ce7 0100     		.2byte	0x1
 8465 0ce9 54       		.byte	0x54
 8466 0cea 00000000 		.4byte	0
 8467 0cee 00000000 		.4byte	0
 8468              	.LLST95:
 8469 0cf2 00000000 		.4byte	.LFB21
 8470 0cf6 0C000000 		.4byte	.LCFI17
 8471 0cfa 0200     		.2byte	0x2
 8472 0cfc 7D       		.byte	0x7d
 8473 0cfd 00       		.sleb128 0
 8474 0cfe 0C000000 		.4byte	.LCFI17
 8475 0d02 E8000000 		.4byte	.LFE21
 8476 0d06 0200     		.2byte	0x2
 8477 0d08 7D       		.byte	0x7d
 8478 0d09 08       		.sleb128 8
 8479 0d0a 00000000 		.4byte	0
 8480 0d0e 00000000 		.4byte	0
 8481              	.LLST96:
 8482 0d12 00000000 		.4byte	.LVL154
 8483 0d16 1D000000 		.4byte	.LVL155-1
 8484 0d1a 0100     		.2byte	0x1
 8485 0d1c 50       		.byte	0x50
 8486 0d1d 1D000000 		.4byte	.LVL155-1
 8487 0d21 E8000000 		.4byte	.LFE21
 8488 0d25 0100     		.2byte	0x1
 8489 0d27 54       		.byte	0x54
 8490 0d28 00000000 		.4byte	0
 8491 0d2c 00000000 		.4byte	0
 8492              	.LLST97:
 8493 0d30 00000000 		.4byte	.LFB22
 8494 0d34 02000000 		.4byte	.LCFI18
 8495 0d38 0200     		.2byte	0x2
 8496 0d3a 7D       		.byte	0x7d
 8497 0d3b 00       		.sleb128 0
 8498 0d3c 02000000 		.4byte	.LCFI18
 8499 0d40 60000000 		.4byte	.LFE22
 8500 0d44 0200     		.2byte	0x2
 8501 0d46 7D       		.byte	0x7d
 8502 0d47 08       		.sleb128 8
 8503 0d48 00000000 		.4byte	0
 8504 0d4c 00000000 		.4byte	0
 8505              	.LLST98:
 8506 0d50 00000000 		.4byte	.LVL156
 8507 0d54 18000000 		.4byte	.LVL157
 8508 0d58 0100     		.2byte	0x1
 8509 0d5a 50       		.byte	0x50
 8510 0d5b 18000000 		.4byte	.LVL157
 8511 0d5f 60000000 		.4byte	.LFE22
 8512 0d63 0100     		.2byte	0x1
 8513 0d65 54       		.byte	0x54
 8514 0d66 00000000 		.4byte	0
 8515 0d6a 00000000 		.4byte	0
 8516              	.LLST99:
 8517 0d6e 00000000 		.4byte	.LFB24
 8518 0d72 02000000 		.4byte	.LCFI19
 8519 0d76 0200     		.2byte	0x2
ARM GAS  /var/folders/5n/p_75w94d66l9ssrldxqdhh700000gn/T//ccmhGqes.s 			page 151


 8520 0d78 7D       		.byte	0x7d
 8521 0d79 00       		.sleb128 0
 8522 0d7a 02000000 		.4byte	.LCFI19
 8523 0d7e A4000000 		.4byte	.LFE24
 8524 0d82 0200     		.2byte	0x2
 8525 0d84 7D       		.byte	0x7d
 8526 0d85 08       		.sleb128 8
 8527 0d86 00000000 		.4byte	0
 8528 0d8a 00000000 		.4byte	0
 8529              	.LLST100:
 8530 0d8e 00000000 		.4byte	.LVL158
 8531 0d92 08000000 		.4byte	.LVL159
 8532 0d96 0100     		.2byte	0x1
 8533 0d98 50       		.byte	0x50
 8534 0d99 08000000 		.4byte	.LVL159
 8535 0d9d A4000000 		.4byte	.LFE24
 8536 0da1 0100     		.2byte	0x1
 8537 0da3 54       		.byte	0x54
 8538 0da4 00000000 		.4byte	0
 8539 0da8 00000000 		.4byte	0
 8540              	.LLST101:
 8541 0dac 76000000 		.4byte	.LVL160
 8542 0db0 82000000 		.4byte	.LVL161
 8543 0db4 0B00     		.2byte	0xb
 8544 0db6 72       		.byte	0x72
 8545 0db7 00       		.sleb128 0
 8546 0db8 32       		.byte	0x32
 8547 0db9 1A       		.byte	0x1a
 8548 0dba 48       		.byte	0x48
 8549 0dbb 24       		.byte	0x24
 8550 0dbc 48       		.byte	0x48
 8551 0dbd 25       		.byte	0x25
 8552 0dbe 30       		.byte	0x30
 8553 0dbf 2E       		.byte	0x2e
 8554 0dc0 9F       		.byte	0x9f
 8555 0dc1 92000000 		.4byte	.LVL162
 8556 0dc5 96000000 		.4byte	.LVL163
 8557 0dc9 0B00     		.2byte	0xb
 8558 0dcb 72       		.byte	0x72
 8559 0dcc 00       		.sleb128 0
 8560 0dcd 32       		.byte	0x32
 8561 0dce 1A       		.byte	0x1a
 8562 0dcf 48       		.byte	0x48
 8563 0dd0 24       		.byte	0x24
 8564 0dd1 48       		.byte	0x48
 8565 0dd2 25       		.byte	0x25
 8566 0dd3 30       		.byte	0x30
 8567 0dd4 2E       		.byte	0x2e
 8568 0dd5 9F       		.byte	0x9f
 8569 0dd6 00000000 		.4byte	0
 8570 0dda 00000000 		.4byte	0
 8571              	.LLST102:
 8572 0dde 00000000 		.4byte	.LFB25
 8573 0de2 02000000 		.4byte	.LCFI20
 8574 0de6 0200     		.2byte	0x2
 8575 0de8 7D       		.byte	0x7d
 8576 0de9 00       		.sleb128 0
ARM GAS  /var/folders/5n/p_75w94d66l9ssrldxqdhh700000gn/T//ccmhGqes.s 			page 152


 8577 0dea 02000000 		.4byte	.LCFI20
 8578 0dee 2C000000 		.4byte	.LFE25
 8579 0df2 0200     		.2byte	0x2
 8580 0df4 7D       		.byte	0x7d
 8581 0df5 08       		.sleb128 8
 8582 0df6 00000000 		.4byte	0
 8583 0dfa 00000000 		.4byte	0
 8584              	.LLST103:
 8585 0dfe 00000000 		.4byte	.LVL164
 8586 0e02 06000000 		.4byte	.LVL165
 8587 0e06 0100     		.2byte	0x1
 8588 0e08 50       		.byte	0x50
 8589 0e09 06000000 		.4byte	.LVL165
 8590 0e0d 2C000000 		.4byte	.LFE25
 8591 0e11 0100     		.2byte	0x1
 8592 0e13 54       		.byte	0x54
 8593 0e14 00000000 		.4byte	0
 8594 0e18 00000000 		.4byte	0
 8595              	.LLST104:
 8596 0e1c 00000000 		.4byte	.LFB26
 8597 0e20 02000000 		.4byte	.LCFI21
 8598 0e24 0200     		.2byte	0x2
 8599 0e26 7D       		.byte	0x7d
 8600 0e27 00       		.sleb128 0
 8601 0e28 02000000 		.4byte	.LCFI21
 8602 0e2c B4000000 		.4byte	.LFE26
 8603 0e30 0200     		.2byte	0x2
 8604 0e32 7D       		.byte	0x7d
 8605 0e33 10       		.sleb128 16
 8606 0e34 00000000 		.4byte	0
 8607 0e38 00000000 		.4byte	0
 8608              	.LLST105:
 8609 0e3c 00000000 		.4byte	.LVL166
 8610 0e40 18000000 		.4byte	.LVL167
 8611 0e44 0100     		.2byte	0x1
 8612 0e46 50       		.byte	0x50
 8613 0e47 18000000 		.4byte	.LVL167
 8614 0e4b B4000000 		.4byte	.LFE26
 8615 0e4f 0100     		.2byte	0x1
 8616 0e51 54       		.byte	0x54
 8617 0e52 00000000 		.4byte	0
 8618 0e56 00000000 		.4byte	0
 8619              	.LLST106:
 8620 0e5a 38000000 		.4byte	.LVL168
 8621 0e5e 40000000 		.4byte	.LVL169
 8622 0e62 0100     		.2byte	0x1
 8623 0e64 50       		.byte	0x50
 8624 0e65 40000000 		.4byte	.LVL169
 8625 0e69 B4000000 		.4byte	.LFE26
 8626 0e6d 0100     		.2byte	0x1
 8627 0e6f 55       		.byte	0x55
 8628 0e70 00000000 		.4byte	0
 8629 0e74 00000000 		.4byte	0
 8630              	.LLST107:
 8631 0e78 00000000 		.4byte	.LFB27
 8632 0e7c 02000000 		.4byte	.LCFI22
 8633 0e80 0200     		.2byte	0x2
ARM GAS  /var/folders/5n/p_75w94d66l9ssrldxqdhh700000gn/T//ccmhGqes.s 			page 153


 8634 0e82 7D       		.byte	0x7d
 8635 0e83 00       		.sleb128 0
 8636 0e84 02000000 		.4byte	.LCFI22
 8637 0e88 7E000000 		.4byte	.LFE27
 8638 0e8c 0200     		.2byte	0x2
 8639 0e8e 7D       		.byte	0x7d
 8640 0e8f 08       		.sleb128 8
 8641 0e90 00000000 		.4byte	0
 8642 0e94 00000000 		.4byte	0
 8643              	.LLST108:
 8644 0e98 00000000 		.4byte	.LVL170
 8645 0e9c 18000000 		.4byte	.LVL171
 8646 0ea0 0100     		.2byte	0x1
 8647 0ea2 50       		.byte	0x50
 8648 0ea3 18000000 		.4byte	.LVL171
 8649 0ea7 7E000000 		.4byte	.LFE27
 8650 0eab 0100     		.2byte	0x1
 8651 0ead 54       		.byte	0x54
 8652 0eae 00000000 		.4byte	0
 8653 0eb2 00000000 		.4byte	0
 8654              	.LLST109:
 8655 0eb6 00000000 		.4byte	.LFB28
 8656 0eba 02000000 		.4byte	.LCFI23
 8657 0ebe 0200     		.2byte	0x2
 8658 0ec0 7D       		.byte	0x7d
 8659 0ec1 00       		.sleb128 0
 8660 0ec2 02000000 		.4byte	.LCFI23
 8661 0ec6 44000000 		.4byte	.LFE28
 8662 0eca 0200     		.2byte	0x2
 8663 0ecc 7D       		.byte	0x7d
 8664 0ecd 18       		.sleb128 24
 8665 0ece 00000000 		.4byte	0
 8666 0ed2 00000000 		.4byte	0
 8667              	.LLST110:
 8668 0ed6 00000000 		.4byte	.LVL172
 8669 0eda 0C000000 		.4byte	.LVL173
 8670 0ede 0100     		.2byte	0x1
 8671 0ee0 50       		.byte	0x50
 8672 0ee1 0C000000 		.4byte	.LVL173
 8673 0ee5 44000000 		.4byte	.LFE28
 8674 0ee9 0100     		.2byte	0x1
 8675 0eeb 56       		.byte	0x56
 8676 0eec 00000000 		.4byte	0
 8677 0ef0 00000000 		.4byte	0
 8678              	.LLST111:
 8679 0ef4 22000000 		.4byte	.LVL174
 8680 0ef8 28000000 		.4byte	.LVL175
 8681 0efc 0200     		.2byte	0x2
 8682 0efe 76       		.byte	0x76
 8683 0eff 08       		.sleb128 8
 8684 0f00 28000000 		.4byte	.LVL175
 8685 0f04 3C000000 		.4byte	.LVL178
 8686 0f08 0100     		.2byte	0x1
 8687 0f0a 54       		.byte	0x54
 8688 0f0b 3C000000 		.4byte	.LVL178
 8689 0f0f 3E000000 		.4byte	.LVL179
 8690 0f13 0600     		.2byte	0x6
ARM GAS  /var/folders/5n/p_75w94d66l9ssrldxqdhh700000gn/T//ccmhGqes.s 			page 154


 8691 0f15 74       		.byte	0x74
 8692 0f16 00       		.sleb128 0
 8693 0f17 75       		.byte	0x75
 8694 0f18 00       		.sleb128 0
 8695 0f19 1C       		.byte	0x1c
 8696 0f1a 9F       		.byte	0x9f
 8697 0f1b 3E000000 		.4byte	.LVL179
 8698 0f1f 44000000 		.4byte	.LFE28
 8699 0f23 0100     		.2byte	0x1
 8700 0f25 54       		.byte	0x54
 8701 0f26 00000000 		.4byte	0
 8702 0f2a 00000000 		.4byte	0
 8703              	.LLST112:
 8704 0f2e 38000000 		.4byte	.LVL177
 8705 0f32 3B000000 		.4byte	.LVL178-1
 8706 0f36 0100     		.2byte	0x1
 8707 0f38 51       		.byte	0x51
 8708 0f39 00000000 		.4byte	0
 8709 0f3d 00000000 		.4byte	0
 8710              	.LLST113:
 8711 0f41 00000000 		.4byte	.LFB30
 8712 0f45 02000000 		.4byte	.LCFI24
 8713 0f49 0200     		.2byte	0x2
 8714 0f4b 7D       		.byte	0x7d
 8715 0f4c 00       		.sleb128 0
 8716 0f4d 02000000 		.4byte	.LCFI24
 8717 0f51 0C000000 		.4byte	.LCFI25
 8718 0f55 0200     		.2byte	0x2
 8719 0f57 7D       		.byte	0x7d
 8720 0f58 04       		.sleb128 4
 8721 0f59 0C000000 		.4byte	.LCFI25
 8722 0f5d 74000000 		.4byte	.LFE30
 8723 0f61 0200     		.2byte	0x2
 8724 0f63 7D       		.byte	0x7d
 8725 0f64 10       		.sleb128 16
 8726 0f65 00000000 		.4byte	0
 8727 0f69 00000000 		.4byte	0
 8728              	.LLST114:
 8729 0f6d 00000000 		.4byte	.LVL180
 8730 0f71 1C000000 		.4byte	.LVL181
 8731 0f75 0100     		.2byte	0x1
 8732 0f77 50       		.byte	0x50
 8733 0f78 26000000 		.4byte	.LVL182
 8734 0f7c 41000000 		.4byte	.LVL183-1
 8735 0f80 0100     		.2byte	0x1
 8736 0f82 50       		.byte	0x50
 8737 0f83 66000000 		.4byte	.LVL184
 8738 0f87 74000000 		.4byte	.LFE30
 8739 0f8b 0100     		.2byte	0x1
 8740 0f8d 50       		.byte	0x50
 8741 0f8e 00000000 		.4byte	0
 8742 0f92 00000000 		.4byte	0
 8743              	.LLST115:
 8744 0f96 00000000 		.4byte	.LFB31
 8745 0f9a 02000000 		.4byte	.LCFI26
 8746 0f9e 0200     		.2byte	0x2
 8747 0fa0 7D       		.byte	0x7d
ARM GAS  /var/folders/5n/p_75w94d66l9ssrldxqdhh700000gn/T//ccmhGqes.s 			page 155


 8748 0fa1 00       		.sleb128 0
 8749 0fa2 02000000 		.4byte	.LCFI26
 8750 0fa6 86000000 		.4byte	.LFE31
 8751 0faa 0200     		.2byte	0x2
 8752 0fac 7D       		.byte	0x7d
 8753 0fad 08       		.sleb128 8
 8754 0fae 00000000 		.4byte	0
 8755 0fb2 00000000 		.4byte	0
 8756              	.LLST116:
 8757 0fb6 00000000 		.4byte	.LVL185
 8758 0fba 06000000 		.4byte	.LVL186
 8759 0fbe 0100     		.2byte	0x1
 8760 0fc0 50       		.byte	0x50
 8761 0fc1 06000000 		.4byte	.LVL186
 8762 0fc5 86000000 		.4byte	.LFE31
 8763 0fc9 0100     		.2byte	0x1
 8764 0fcb 54       		.byte	0x54
 8765 0fcc 00000000 		.4byte	0
 8766 0fd0 00000000 		.4byte	0
 8767              	.LLST117:
 8768 0fd4 00000000 		.4byte	.LFB32
 8769 0fd8 02000000 		.4byte	.LCFI27
 8770 0fdc 0200     		.2byte	0x2
 8771 0fde 7D       		.byte	0x7d
 8772 0fdf 00       		.sleb128 0
 8773 0fe0 02000000 		.4byte	.LCFI27
 8774 0fe4 76000000 		.4byte	.LFE32
 8775 0fe8 0200     		.2byte	0x2
 8776 0fea 7D       		.byte	0x7d
 8777 0feb 08       		.sleb128 8
 8778 0fec 00000000 		.4byte	0
 8779 0ff0 00000000 		.4byte	0
 8780              	.LLST118:
 8781 0ff4 00000000 		.4byte	.LVL187
 8782 0ff8 06000000 		.4byte	.LVL188
 8783 0ffc 0100     		.2byte	0x1
 8784 0ffe 50       		.byte	0x50
 8785 0fff 06000000 		.4byte	.LVL188
 8786 1003 76000000 		.4byte	.LFE32
 8787 1007 0100     		.2byte	0x1
 8788 1009 54       		.byte	0x54
 8789 100a 00000000 		.4byte	0
 8790 100e 00000000 		.4byte	0
 8791              		.section	.debug_aranges,"",%progbits
 8792 0000 DC000000 		.4byte	0xdc
 8793 0004 0200     		.2byte	0x2
 8794 0006 00000000 		.4byte	.Ldebug_info0
 8795 000a 04       		.byte	0x4
 8796 000b 00       		.byte	0
 8797 000c 0000     		.2byte	0
 8798 000e 0000     		.2byte	0
 8799 0010 00000000 		.4byte	.LFB13
 8800 0014 4A000000 		.4byte	.LFE13-.LFB13
 8801 0018 00000000 		.4byte	.LFB23
 8802 001c 86000000 		.4byte	.LFE23-.LFB23
 8803 0020 00000000 		.4byte	.LFB20
 8804 0024 70010000 		.4byte	.LFE20-.LFB20
ARM GAS  /var/folders/5n/p_75w94d66l9ssrldxqdhh700000gn/T//ccmhGqes.s 			page 156


 8805 0028 00000000 		.4byte	.LFB12
 8806 002c B4000000 		.4byte	.LFE12-.LFB12
 8807 0030 00000000 		.4byte	.LFB29
 8808 0034 56010000 		.4byte	.LFE29-.LFB29
 8809 0038 00000000 		.4byte	.LFB9
 8810 003c 8C000000 		.4byte	.LFE9-.LFB9
 8811 0040 00000000 		.4byte	.LFB10
 8812 0044 52000000 		.4byte	.LFE10-.LFB10
 8813 0048 00000000 		.4byte	.LFB11
 8814 004c 52000000 		.4byte	.LFE11-.LFB11
 8815 0050 00000000 		.4byte	.LFB8
 8816 0054 9A000000 		.4byte	.LFE8-.LFB8
 8817 0058 00000000 		.4byte	.LFB7
 8818 005c 88000000 		.4byte	.LFE7-.LFB7
 8819 0060 00000000 		.4byte	.LFB16
 8820 0064 98000000 		.4byte	.LFE16-.LFB16
 8821 0068 00000000 		.4byte	.LFB17
 8822 006c 9C000000 		.4byte	.LFE17-.LFB17
 8823 0070 00000000 		.4byte	.LFB18
 8824 0074 46000000 		.4byte	.LFE18-.LFB18
 8825 0078 00000000 		.4byte	.LFB19
 8826 007c B4000000 		.4byte	.LFE19-.LFB19
 8827 0080 00000000 		.4byte	.LFB14
 8828 0084 78000000 		.4byte	.LFE14-.LFB14
 8829 0088 00000000 		.4byte	.LFB21
 8830 008c E8000000 		.4byte	.LFE21-.LFB21
 8831 0090 00000000 		.4byte	.LFB22
 8832 0094 60000000 		.4byte	.LFE22-.LFB22
 8833 0098 00000000 		.4byte	.LFB24
 8834 009c A4000000 		.4byte	.LFE24-.LFB24
 8835 00a0 00000000 		.4byte	.LFB25
 8836 00a4 2C000000 		.4byte	.LFE25-.LFB25
 8837 00a8 00000000 		.4byte	.LFB26
 8838 00ac B4000000 		.4byte	.LFE26-.LFB26
 8839 00b0 00000000 		.4byte	.LFB27
 8840 00b4 7E000000 		.4byte	.LFE27-.LFB27
 8841 00b8 00000000 		.4byte	.LFB28
 8842 00bc 44000000 		.4byte	.LFE28-.LFB28
 8843 00c0 00000000 		.4byte	.LFB30
 8844 00c4 74000000 		.4byte	.LFE30-.LFB30
 8845 00c8 00000000 		.4byte	.LFB31
 8846 00cc 86000000 		.4byte	.LFE31-.LFB31
 8847 00d0 00000000 		.4byte	.LFB32
 8848 00d4 76000000 		.4byte	.LFE32-.LFB32
 8849 00d8 00000000 		.4byte	0
 8850 00dc 00000000 		.4byte	0
 8851              		.section	.debug_ranges,"",%progbits
 8852              	.Ldebug_ranges0:
 8853 0000 6E000000 		.4byte	.LBB3
 8854 0004 88000000 		.4byte	.LBE3
 8855 0008 8C000000 		.4byte	.LBB4
 8856 000c 92000000 		.4byte	.LBE4
 8857 0010 AC000000 		.4byte	.LBB5
 8858 0014 B4000000 		.4byte	.LBE5
 8859 0018 00000000 		.4byte	0
 8860 001c 00000000 		.4byte	0
 8861 0020 44000000 		.4byte	.LBB8
ARM GAS  /var/folders/5n/p_75w94d66l9ssrldxqdhh700000gn/T//ccmhGqes.s 			page 157


 8862 0024 6E000000 		.4byte	.LBE8
 8863 0028 7A000000 		.4byte	.LBB12
 8864 002c 7C000000 		.4byte	.LBE12
 8865 0030 88000000 		.4byte	.LBB13
 8866 0034 8C000000 		.4byte	.LBE13
 8867 0038 00000000 		.4byte	0
 8868 003c 00000000 		.4byte	0
 8869 0040 44000000 		.4byte	.LBB9
 8870 0044 6E000000 		.4byte	.LBE9
 8871 0048 7A000000 		.4byte	.LBB10
 8872 004c 7C000000 		.4byte	.LBE10
 8873 0050 88000000 		.4byte	.LBB11
 8874 0054 8C000000 		.4byte	.LBE11
 8875 0058 00000000 		.4byte	0
 8876 005c 00000000 		.4byte	0
 8877 0060 2E000000 		.4byte	.LBB24
 8878 0064 30000000 		.4byte	.LBE24
 8879 0068 36000000 		.4byte	.LBB29
 8880 006c 74000000 		.4byte	.LBE29
 8881 0070 84000000 		.4byte	.LBB30
 8882 0074 86000000 		.4byte	.LBE30
 8883 0078 8C000000 		.4byte	.LBB31
 8884 007c 90000000 		.4byte	.LBE31
 8885 0080 00000000 		.4byte	0
 8886 0084 00000000 		.4byte	0
 8887 0088 2E000000 		.4byte	.LBB25
 8888 008c 30000000 		.4byte	.LBE25
 8889 0090 36000000 		.4byte	.LBB26
 8890 0094 74000000 		.4byte	.LBE26
 8891 0098 84000000 		.4byte	.LBB27
 8892 009c 86000000 		.4byte	.LBE27
 8893 00a0 8C000000 		.4byte	.LBB28
 8894 00a4 90000000 		.4byte	.LBE28
 8895 00a8 00000000 		.4byte	0
 8896 00ac 00000000 		.4byte	0
 8897 00b0 1E000000 		.4byte	.LBB36
 8898 00b4 6E000000 		.4byte	.LBE36
 8899 00b8 74000000 		.4byte	.LBB41
 8900 00bc 88000000 		.4byte	.LBE41
 8901 00c0 00000000 		.4byte	0
 8902 00c4 00000000 		.4byte	0
 8903 00c8 1E000000 		.4byte	.LBB37
 8904 00cc 6E000000 		.4byte	.LBE37
 8905 00d0 74000000 		.4byte	.LBB40
 8906 00d4 88000000 		.4byte	.LBE40
 8907 00d8 00000000 		.4byte	0
 8908 00dc 00000000 		.4byte	0
 8909 00e0 36000000 		.4byte	.LBB38
 8910 00e4 6E000000 		.4byte	.LBE38
 8911 00e8 74000000 		.4byte	.LBB39
 8912 00ec 88000000 		.4byte	.LBE39
 8913 00f0 00000000 		.4byte	0
 8914 00f4 00000000 		.4byte	0
 8915 00f8 6C000000 		.4byte	.LBB47
 8916 00fc 6E000000 		.4byte	.LBE47
 8917 0100 74000000 		.4byte	.LBB48
 8918 0104 8C000000 		.4byte	.LBE48
ARM GAS  /var/folders/5n/p_75w94d66l9ssrldxqdhh700000gn/T//ccmhGqes.s 			page 158


 8919 0108 92000000 		.4byte	.LBB49
 8920 010c 9C000000 		.4byte	.LBE49
 8921 0110 00000000 		.4byte	0
 8922 0114 00000000 		.4byte	0
 8923 0118 22000000 		.4byte	.LBB52
 8924 011c 28000000 		.4byte	.LBE52
 8925 0120 2A000000 		.4byte	.LBB53
 8926 0124 3C000000 		.4byte	.LBE53
 8927 0128 00000000 		.4byte	0
 8928 012c 00000000 		.4byte	0
 8929 0130 00000000 		.4byte	.LFB13
 8930 0134 4A000000 		.4byte	.LFE13
 8931 0138 00000000 		.4byte	.LFB23
 8932 013c 86000000 		.4byte	.LFE23
 8933 0140 00000000 		.4byte	.LFB20
 8934 0144 70010000 		.4byte	.LFE20
 8935 0148 00000000 		.4byte	.LFB12
 8936 014c B4000000 		.4byte	.LFE12
 8937 0150 00000000 		.4byte	.LFB29
 8938 0154 56010000 		.4byte	.LFE29
 8939 0158 00000000 		.4byte	.LFB9
 8940 015c 8C000000 		.4byte	.LFE9
 8941 0160 00000000 		.4byte	.LFB10
 8942 0164 52000000 		.4byte	.LFE10
 8943 0168 00000000 		.4byte	.LFB11
 8944 016c 52000000 		.4byte	.LFE11
 8945 0170 00000000 		.4byte	.LFB8
 8946 0174 9A000000 		.4byte	.LFE8
 8947 0178 00000000 		.4byte	.LFB7
 8948 017c 88000000 		.4byte	.LFE7
 8949 0180 00000000 		.4byte	.LFB16
 8950 0184 98000000 		.4byte	.LFE16
 8951 0188 00000000 		.4byte	.LFB17
 8952 018c 9C000000 		.4byte	.LFE17
 8953 0190 00000000 		.4byte	.LFB18
 8954 0194 46000000 		.4byte	.LFE18
 8955 0198 00000000 		.4byte	.LFB19
 8956 019c B4000000 		.4byte	.LFE19
 8957 01a0 00000000 		.4byte	.LFB14
 8958 01a4 78000000 		.4byte	.LFE14
 8959 01a8 00000000 		.4byte	.LFB21
 8960 01ac E8000000 		.4byte	.LFE21
 8961 01b0 00000000 		.4byte	.LFB22
 8962 01b4 60000000 		.4byte	.LFE22
 8963 01b8 00000000 		.4byte	.LFB24
 8964 01bc A4000000 		.4byte	.LFE24
 8965 01c0 00000000 		.4byte	.LFB25
 8966 01c4 2C000000 		.4byte	.LFE25
 8967 01c8 00000000 		.4byte	.LFB26
 8968 01cc B4000000 		.4byte	.LFE26
 8969 01d0 00000000 		.4byte	.LFB27
 8970 01d4 7E000000 		.4byte	.LFE27
 8971 01d8 00000000 		.4byte	.LFB28
 8972 01dc 44000000 		.4byte	.LFE28
 8973 01e0 00000000 		.4byte	.LFB30
 8974 01e4 74000000 		.4byte	.LFE30
 8975 01e8 00000000 		.4byte	.LFB31
ARM GAS  /var/folders/5n/p_75w94d66l9ssrldxqdhh700000gn/T//ccmhGqes.s 			page 159


 8976 01ec 86000000 		.4byte	.LFE31
 8977 01f0 00000000 		.4byte	.LFB32
 8978 01f4 76000000 		.4byte	.LFE32
 8979 01f8 00000000 		.4byte	0
 8980 01fc 00000000 		.4byte	0
 8981              		.section	.debug_line,"",%progbits
 8982              	.Ldebug_line0:
 8983 0000 31090000 		.section	.debug_str,"MS",%progbits,1
 8983      02005202 
 8983      00000201 
 8983      FB0E0D00 
 8983      01010101 
 8984              	.LASF46:
 8985 0000 54687265 		.ascii	"ThreadsList\000"
 8985      6164734C 
 8985      69737400 
 8986              	.LASF38:
 8987 000c 705F7761 		.ascii	"p_waiting\000"
 8987      6974696E 
 8987      6700
 8988              	.LASF172:
 8989 0016 7564705F 		.ascii	"udp_pcb\000"
 8989      70636200 
 8990              	.LASF251:
 8991 001e 646F5F64 		.ascii	"do_disconnect\000"
 8991      6973636F 
 8991      6E6E6563 
 8991      7400
 8992              	.LASF207:
 8993 002c 4D454D50 		.ascii	"MEMP_TCP_PCB_LISTEN\000"
 8993      5F544350 
 8993      5F504342 
 8993      5F4C4953 
 8993      54454E00 
 8994              	.LASF37:
 8995 0040 705F7469 		.ascii	"p_time\000"
 8995      6D6500
 8996              	.LASF129:
 8997 0047 736F5F6F 		.ascii	"so_options\000"
 8997      7074696F 
 8997      6E7300
 8998              	.LASF247:
 8999 0052 646F5F64 		.ascii	"do_delconn\000"
 8999      656C636F 
 8999      6E6E00
 9000              	.LASF47:
 9001 005d 72656761 		.ascii	"regarm_t\000"
 9001      726D5F74 
 9001      00
 9002              	.LASF28:
 9003 0066 705F7072 		.ascii	"p_prio\000"
 9003      696F00
 9004              	.LASF84:
 9005 006d 50425546 		.ascii	"PBUF_RAM\000"
 9005      5F52414D 
 9005      00
 9006              	.LASF140:
ARM GAS  /var/folders/5n/p_75w94d66l9ssrldxqdhh700000gn/T//ccmhGqes.s 			page 160


 9007 0076 706F6C6C 		.ascii	"polltmr\000"
 9007      746D7200 
 9008              	.LASF83:
 9009 007e 50425546 		.ascii	"PBUF_RAW\000"
 9009      5F524157 
 9009      00
 9010              	.LASF93:
 9011 0087 666C6167 		.ascii	"flags\000"
 9011      7300
 9012              	.LASF23:
 9013 008d 73797374 		.ascii	"systime_t\000"
 9013      696D655F 
 9013      7400
 9014              	.LASF55:
 9015 0097 6D5F6F77 		.ascii	"m_owner\000"
 9015      6E657200 
 9016              	.LASF51:
 9017 009f 735F7175 		.ascii	"s_queue\000"
 9017      65756500 
 9018              	.LASF134:
 9019 00a7 6C6F6361 		.ascii	"local_port\000"
 9019      6C5F706F 
 9019      727400
 9020              	.LASF120:
 9021 00b2 72656376 		.ascii	"recvmbox\000"
 9021      6D626F78 
 9021      00
 9022              	.LASF174:
 9023 00bb 7261775F 		.ascii	"raw_pcb\000"
 9023      70636200 
 9024              	.LASF39:
 9025 00c3 705F6D73 		.ascii	"p_msgqueue\000"
 9025      67717565 
 9025      756500
 9026              	.LASF0:
 9027 00ce 756E7369 		.ascii	"unsigned int\000"
 9027      676E6564 
 9027      20696E74 
 9027      00
 9028              	.LASF105:
 9029 00db 4E455443 		.ascii	"NETCONN_WRITE\000"
 9029      4F4E4E5F 
 9029      57524954 
 9029      4500
 9030              	.LASF89:
 9031 00e9 6E657874 		.ascii	"next\000"
 9031      00
 9032              	.LASF250:
 9033 00ee 6E6F6E5F 		.ascii	"non_blocking\000"
 9033      626C6F63 
 9033      6B696E67 
 9033      00
 9034              	.LASF100:
 9035 00fb 4E455443 		.ascii	"NETCONN_UDPNOCHKSUM\000"
 9035      4F4E4E5F 
 9035      5544504E 
 9035      4F43484B 
ARM GAS  /var/folders/5n/p_75w94d66l9ssrldxqdhh700000gn/T//ccmhGqes.s 			page 161


 9035      53554D00 
 9036              	.LASF77:
 9037 010f 6572725F 		.ascii	"err_t\000"
 9037      7400
 9038              	.LASF180:
 9039 0115 6C6F6361 		.ascii	"local\000"
 9039      6C00
 9040              	.LASF227:
 9041 011b 73687574 		.ascii	"shut_tx\000"
 9041      5F747800 
 9042              	.LASF71:
 9043 0123 7531365F 		.ascii	"u16_t\000"
 9043      7400
 9044              	.LASF66:
 9045 0129 77746F62 		.ascii	"wtobjp\000"
 9045      6A7000
 9046              	.LASF221:
 9047 0130 73656E74 		.ascii	"sent_tcp\000"
 9047      5F746370 
 9047      00
 9048              	.LASF139:
 9049 0139 7263765F 		.ascii	"rcv_ann_right_edge\000"
 9049      616E6E5F 
 9049      72696768 
 9049      745F6564 
 9049      676500
 9050              	.LASF233:
 9051 014c 646F5F77 		.ascii	"do_writemore\000"
 9051      72697465 
 9051      6D6F7265 
 9051      00
 9052              	.LASF175:
 9053 0159 70726F74 		.ascii	"protocol\000"
 9053      6F636F6C 
 9053      00
 9054              	.LASF67:
 9055 0162 65776D61 		.ascii	"ewmask\000"
 9055      736B00
 9056              	.LASF220:
 9057 0169 706F6C6C 		.ascii	"poll_tcp\000"
 9057      5F746370 
 9057      00
 9058              	.LASF171:
 9059 0172 6B656570 		.ascii	"keep_cnt_sent\000"
 9059      5F636E74 
 9059      5F73656E 
 9059      7400
 9060              	.LASF63:
 9061 0180 4D61696C 		.ascii	"Mailbox\000"
 9061      626F7800 
 9062              	.LASF173:
 9063 0188 72656376 		.ascii	"recv_arg\000"
 9063      5F617267 
 9063      00
 9064              	.LASF187:
 9065 0191 7463705F 		.ascii	"tcp_sent_fn\000"
 9065      73656E74 
ARM GAS  /var/folders/5n/p_75w94d66l9ssrldxqdhh700000gn/T//ccmhGqes.s 			page 162


 9065      5F666E00 
 9066              	.LASF103:
 9067 019d 6E657463 		.ascii	"netconn_state\000"
 9067      6F6E6E5F 
 9067      73746174 
 9067      6500
 9068              	.LASF52:
 9069 01ab 735F636E 		.ascii	"s_cnt\000"
 9069      7400
 9070              	.LASF80:
 9071 01b1 50425546 		.ascii	"PBUF_TRANSPORT\000"
 9071      5F545241 
 9071      4E53504F 
 9071      525400
 9072              	.LASF230:
 9073 01c0 6F6C645F 		.ascii	"old_state\000"
 9073      73746174 
 9073      6500
 9074              	.LASF12:
 9075 01ca 75696E74 		.ascii	"uint32_t\000"
 9075      33325F74 
 9075      00
 9076              	.LASF2:
 9077 01d3 696E7438 		.ascii	"int8_t\000"
 9077      5F7400
 9078              	.LASF148:
 9079 01da 63776E64 		.ascii	"cwnd\000"
 9079      00
 9080              	.LASF22:
 9081 01df 6576656E 		.ascii	"eventmask_t\000"
 9081      746D6173 
 9081      6B5F7400 
 9082              	.LASF213:
 9083 01eb 4D454D50 		.ascii	"MEMP_TCPIP_MSG_API\000"
 9083      5F544350 
 9083      49505F4D 
 9083      53475F41 
 9083      504900
 9084              	.LASF114:
 9085 01fe 4E455443 		.ascii	"NETCONN_EVT_ERROR\000"
 9085      4F4E4E5F 
 9085      4556545F 
 9085      4552524F 
 9085      5200
 9086              	.LASF20:
 9087 0210 74707269 		.ascii	"tprio_t\000"
 9087      6F5F7400 
 9088              	.LASF6:
 9089 0218 696E7431 		.ascii	"int16_t\000"
 9089      365F7400 
 9090              	.LASF265:
 9091 0220 7463705F 		.ascii	"tcp_seg\000"
 9091      73656700 
 9092              	.LASF15:
 9093 0228 6C6F6E67 		.ascii	"long long unsigned int\000"
 9093      206C6F6E 
 9093      6720756E 
ARM GAS  /var/folders/5n/p_75w94d66l9ssrldxqdhh700000gn/T//ccmhGqes.s 			page 163


 9093      7369676E 
 9093      65642069 
 9094              	.LASF96:
 9095 023f 4E455443 		.ascii	"NETCONN_INVALID\000"
 9095      4F4E4E5F 
 9095      494E5641 
 9095      4C494400 
 9096              	.LASF261:
 9097 024f 63757272 		.ascii	"current_iphdr_src\000"
 9097      656E745F 
 9097      69706864 
 9097      725F7372 
 9097      6300
 9098              	.LASF24:
 9099 0261 636E745F 		.ascii	"cnt_t\000"
 9099      7400
 9100              	.LASF142:
 9101 0267 7274696D 		.ascii	"rtime\000"
 9101      6500
 9102              	.LASF164:
 9103 026d 72656376 		.ascii	"recv\000"
 9103      00
 9104              	.LASF30:
 9105 0272 705F6E65 		.ascii	"p_newer\000"
 9105      77657200 
 9106              	.LASF136:
 9107 027a 7263765F 		.ascii	"rcv_nxt\000"
 9107      6E787400 
 9108              	.LASF214:
 9109 0282 4D454D50 		.ascii	"MEMP_TCPIP_MSG_INPKT\000"
 9109      5F544350 
 9109      49505F4D 
 9109      53475F49 
 9109      4E504B54 
 9110              	.LASF86:
 9111 0297 50425546 		.ascii	"PBUF_REF\000"
 9111      5F524546 
 9111      00
 9112              	.LASF110:
 9113 02a0 4E455443 		.ascii	"NETCONN_EVT_RCVPLUS\000"
 9113      4F4E4E5F 
 9113      4556545F 
 9113      52435650 
 9113      4C555300 
 9114              	.LASF98:
 9115 02b4 4E455443 		.ascii	"NETCONN_UDP\000"
 9115      4F4E4E5F 
 9115      55445000 
 9116              	.LASF201:
 9117 02c0 4C415354 		.ascii	"LAST_ACK\000"
 9117      5F41434B 
 9117      00
 9118              	.LASF91:
 9119 02c9 746F745F 		.ascii	"tot_len\000"
 9119      6C656E00 
 9120              	.LASF179:
 9121 02d1 69706164 		.ascii	"ipaddr\000"
ARM GAS  /var/folders/5n/p_75w94d66l9ssrldxqdhh700000gn/T//ccmhGqes.s 			page 164


 9121      647200
 9122              	.LASF1:
 9123 02d8 73697A65 		.ascii	"size_t\000"
 9123      5F7400
 9124              	.LASF64:
 9125 02df 7264796D 		.ascii	"rdymsg\000"
 9125      736700
 9126              	.LASF90:
 9127 02e6 7061796C 		.ascii	"payload\000"
 9127      6F616400 
 9128              	.LASF81:
 9129 02ee 50425546 		.ascii	"PBUF_IP\000"
 9129      5F495000 
 9130              	.LASF165:
 9131 02f6 636F6E6E 		.ascii	"connected\000"
 9131      65637465 
 9131      6400
 9132              	.LASF219:
 9133 0300 72656376 		.ascii	"recv_tcp\000"
 9133      5F746370 
 9133      00
 9134              	.LASF88:
 9135 0309 70627566 		.ascii	"pbuf\000"
 9135      00
 9136              	.LASF60:
 9137 030e 6D625F72 		.ascii	"mb_rdptr\000"
 9137      64707472 
 9137      00
 9138              	.LASF177:
 9139 0317 636F6E6E 		.ascii	"conn\000"
 9139      00
 9140              	.LASF87:
 9141 031c 50425546 		.ascii	"PBUF_POOL\000"
 9141      5F504F4F 
 9141      4C00
 9142              	.LASF200:
 9143 0326 434C4F53 		.ascii	"CLOSING\000"
 9143      494E4700 
 9144              	.LASF78:
 9145 032e 7379735F 		.ascii	"sys_sem_t\000"
 9145      73656D5F 
 9145      7400
 9146              	.LASF118:
 9147 0338 6C617374 		.ascii	"last_err\000"
 9147      5F657272 
 9147      00
 9148              	.LASF146:
 9149 0341 6C617374 		.ascii	"lastack\000"
 9149      61636B00 
 9150              	.LASF218:
 9151 0349 4D454D50 		.ascii	"MEMP_MAX\000"
 9151      5F4D4158 
 9151      00
 9152              	.LASF70:
 9153 0352 73385F74 		.ascii	"s8_t\000"
 9153      00
 9154              	.LASF237:
ARM GAS  /var/folders/5n/p_75w94d66l9ssrldxqdhh700000gn/T//ccmhGqes.s 			page 165


 9155 0357 646F6E74 		.ascii	"dontblock\000"
 9155      626C6F63 
 9155      6B00
 9156              	.LASF190:
 9157 0361 7463705F 		.ascii	"tcp_connected_fn\000"
 9157      636F6E6E 
 9157      65637465 
 9157      645F666E 
 9157      00
 9158              	.LASF53:
 9159 0372 4D757465 		.ascii	"Mutex\000"
 9159      7800
 9160              	.LASF62:
 9161 0378 6D625F65 		.ascii	"mb_emptysem\000"
 9161      6D707479 
 9161      73656D00 
 9162              	.LASF112:
 9163 0384 4E455443 		.ascii	"NETCONN_EVT_SENDPLUS\000"
 9163      4F4E4E5F 
 9163      4556545F 
 9163      53454E44 
 9163      504C5553 
 9164              	.LASF176:
 9165 0399 6170695F 		.ascii	"api_msg_msg\000"
 9165      6D73675F 
 9165      6D736700 
 9166              	.LASF185:
 9167 03a5 7463705F 		.ascii	"tcp_accept_fn\000"
 9167      61636365 
 9167      70745F66 
 9167      6E00
 9168              	.LASF144:
 9169 03b3 72747365 		.ascii	"rtseq\000"
 9169      7100
 9170              	.LASF111:
 9171 03b9 4E455443 		.ascii	"NETCONN_EVT_RCVMINUS\000"
 9171      4F4E4E5F 
 9171      4556545F 
 9171      5243564D 
 9171      494E5553 
 9172              	.LASF32:
 9173 03ce 705F6E61 		.ascii	"p_name\000"
 9173      6D6500
 9174              	.LASF147:
 9175 03d5 64757061 		.ascii	"dupacks\000"
 9175      636B7300 
 9176              	.LASF242:
 9177 03dd 6E657463 		.ascii	"netconn_free\000"
 9177      6F6E6E5F 
 9177      66726565 
 9177      00
 9178              	.LASF131:
 9179 03ea 7072696F 		.ascii	"prio\000"
 9179      00
 9180              	.LASF133:
 9181 03ef 61636365 		.ascii	"accept\000"
 9181      707400
ARM GAS  /var/folders/5n/p_75w94d66l9ssrldxqdhh700000gn/T//ccmhGqes.s 			page 166


 9182              	.LASF216:
 9183 03f6 4D454D50 		.ascii	"MEMP_PBUF\000"
 9183      5F504255 
 9183      4600
 9184              	.LASF166:
 9185 0400 706F6C6C 		.ascii	"poll\000"
 9185      00
 9186              	.LASF45:
 9187 0405 54687265 		.ascii	"ThreadsQueue\000"
 9187      61647351 
 9187      75657565 
 9187      00
 9188              	.LASF68:
 9189 0412 63686172 		.ascii	"char\000"
 9189      00
 9190              	.LASF258:
 9191 0417 646F5F77 		.ascii	"do_write\000"
 9191      72697465 
 9191      00
 9192              	.LASF262:
 9193 0420 474E5520 		.ascii	"GNU C 4.6.2 20111004 (prerelease)\000"
 9193      4320342E 
 9193      362E3220 
 9193      32303131 
 9193      31303034 
 9194              	.LASF222:
 9195 0442 72656376 		.ascii	"recv_raw\000"
 9195      5F726177 
 9195      00
 9196              	.LASF155:
 9197 044b 61636B65 		.ascii	"acked\000"
 9197      6400
 9198              	.LASF199:
 9199 0451 434C4F53 		.ascii	"CLOSE_WAIT\000"
 9199      455F5741 
 9199      495400
 9200              	.LASF25:
 9201 045c 54687265 		.ascii	"Thread\000"
 9201      616400
 9202              	.LASF178:
 9203 0463 70726F74 		.ascii	"proto\000"
 9203      6F00
 9204              	.LASF17:
 9205 0469 74737461 		.ascii	"tstate_t\000"
 9205      74655F74 
 9205      00
 9206              	.LASF217:
 9207 0472 4D454D50 		.ascii	"MEMP_PBUF_POOL\000"
 9207      5F504255 
 9207      465F504F 
 9207      4F4C00
 9208              	.LASF31:
 9209 0481 705F6F6C 		.ascii	"p_older\000"
 9209      64657200 
 9210              	.LASF33:
 9211 0489 705F7374 		.ascii	"p_state\000"
 9211      61746500 
ARM GAS  /var/folders/5n/p_75w94d66l9ssrldxqdhh700000gn/T//ccmhGqes.s 			page 167


 9212              	.LASF163:
 9213 0491 73656E74 		.ascii	"sent\000"
 9213      00
 9214              	.LASF4:
 9215 0496 75696E74 		.ascii	"uint8_t\000"
 9215      385F7400 
 9216              	.LASF61:
 9217 049e 6D625F66 		.ascii	"mb_fullsem\000"
 9217      756C6C73 
 9217      656D00
 9218              	.LASF152:
 9219 04a9 736E645F 		.ascii	"snd_wl1\000"
 9219      776C3100 
 9220              	.LASF153:
 9221 04b1 736E645F 		.ascii	"snd_wl2\000"
 9221      776C3200 
 9222              	.LASF44:
 9223 04b9 705F6D70 		.ascii	"p_mpool\000"
 9223      6F6F6C00 
 9224              	.LASF42:
 9225 04c1 705F6D74 		.ascii	"p_mtxlist\000"
 9225      786C6973 
 9225      7400
 9226              	.LASF189:
 9227 04cb 7463705F 		.ascii	"tcp_err_fn\000"
 9227      6572725F 
 9227      666E00
 9228              	.LASF121:
 9229 04d6 61636365 		.ascii	"acceptmbox\000"
 9229      70746D62 
 9229      6F7800
 9230              	.LASF235:
 9231 04e1 77726974 		.ascii	"write_finished\000"
 9231      655F6669 
 9231      6E697368 
 9231      656400
 9232              	.LASF154:
 9233 04f0 736E645F 		.ascii	"snd_lbb\000"
 9233      6C626200 
 9234              	.LASF245:
 9235 04f8 61636365 		.ascii	"accept_function\000"
 9235      70745F66 
 9235      756E6374 
 9235      696F6E00 
 9236              	.LASF211:
 9237 0508 4D454D50 		.ascii	"MEMP_NETBUF\000"
 9237      5F4E4554 
 9237      42554600 
 9238              	.LASF14:
 9239 0514 6C6F6E67 		.ascii	"long long int\000"
 9239      206C6F6E 
 9239      6720696E 
 9239      7400
 9240              	.LASF249:
 9241 0522 646F5F63 		.ascii	"do_connect\000"
 9241      6F6E6E65 
 9241      637400
ARM GAS  /var/folders/5n/p_75w94d66l9ssrldxqdhh700000gn/T//ccmhGqes.s 			page 168


 9242              	.LASF170:
 9243 052d 70657273 		.ascii	"persist_backoff\000"
 9243      6973745F 
 9243      6261636B 
 9243      6F666600 
 9244              	.LASF21:
 9245 053d 6D73675F 		.ascii	"msg_t\000"
 9245      7400
 9246              	.LASF229:
 9247 0543 6572725F 		.ascii	"err_tcp\000"
 9247      74637000 
 9248              	.LASF202:
 9249 054b 54494D45 		.ascii	"TIME_WAIT\000"
 9249      5F574149 
 9249      5400
 9250              	.LASF49:
 9251 0555 636F6E74 		.ascii	"context\000"
 9251      65787400 
 9252              	.LASF69:
 9253 055d 75385F74 		.ascii	"u8_t\000"
 9253      00
 9254              	.LASF243:
 9255 0562 6E657463 		.ascii	"netconn_drain\000"
 9255      6F6E6E5F 
 9255      64726169 
 9255      6E00
 9256              	.LASF203:
 9257 0570 7261775F 		.ascii	"raw_recv_fn\000"
 9257      72656376 
 9257      5F666E00 
 9258              	.LASF34:
 9259 057c 705F666C 		.ascii	"p_flags\000"
 9259      61677300 
 9260              	.LASF264:
 9261 0584 2F557365 		.ascii	"/Users/sin/Documents/Eclipse/Workspace/mabl-ChibiOS"
 9261      72732F73 
 9261      696E2F44 
 9261      6F63756D 
 9261      656E7473 
 9262 05b7 2D322E35 		.ascii	"-2.5.1/demos/ARMCM4-STM32F407-LWIP\000"
 9262      2E312F64 
 9262      656D6F73 
 9262      2F41524D 
 9262      434D342D 
 9263              	.LASF224:
 9264 05da 73657475 		.ascii	"setup_tcp\000"
 9264      705F7463 
 9264      7000
 9265              	.LASF135:
 9266 05e4 72656D6F 		.ascii	"remote_port\000"
 9266      74655F70 
 9266      6F727400 
 9267              	.LASF240:
 9268 05f0 73697A65 		.ascii	"size\000"
 9268      00
 9269              	.LASF58:
 9270 05f5 6D625F74 		.ascii	"mb_top\000"
ARM GAS  /var/folders/5n/p_75w94d66l9ssrldxqdhh700000gn/T//ccmhGqes.s 			page 169


 9270      6F7000
 9271              	.LASF138:
 9272 05fc 7263765F 		.ascii	"rcv_ann_wnd\000"
 9272      616E6E5F 
 9272      776E6400 
 9273              	.LASF19:
 9274 0608 74736C69 		.ascii	"tslices_t\000"
 9274      6365735F 
 9274      7400
 9275              	.LASF209:
 9276 0612 4D454D50 		.ascii	"MEMP_REASSDATA\000"
 9276      5F524541 
 9276      53534441 
 9276      544100
 9277              	.LASF186:
 9278 0621 7463705F 		.ascii	"tcp_recv_fn\000"
 9278      72656376 
 9278      5F666E00 
 9279              	.LASF82:
 9280 062d 50425546 		.ascii	"PBUF_LINK\000"
 9280      5F4C494E 
 9280      4B00
 9281              	.LASF228:
 9282 0637 636C6F73 		.ascii	"close\000"
 9282      6500
 9283              	.LASF231:
 9284 063d 7761735F 		.ascii	"was_nonblocking_connect\000"
 9284      6E6F6E62 
 9284      6C6F636B 
 9284      696E675F 
 9284      636F6E6E 
 9285              	.LASF40:
 9286 0655 705F6D73 		.ascii	"p_msg\000"
 9286      6700
 9287              	.LASF181:
 9288 065b 64617461 		.ascii	"dataptr\000"
 9288      70747200 
 9289              	.LASF16:
 9290 0663 746D6F64 		.ascii	"tmode_t\000"
 9290      655F7400 
 9291              	.LASF188:
 9292 066b 7463705F 		.ascii	"tcp_poll_fn\000"
 9292      706F6C6C 
 9292      5F666E00 
 9293              	.LASF8:
 9294 0677 75696E74 		.ascii	"uint16_t\000"
 9294      31365F74 
 9294      00
 9295              	.LASF104:
 9296 0680 4E455443 		.ascii	"NETCONN_NONE\000"
 9296      4F4E4E5F 
 9296      4E4F4E45 
 9296      00
 9297              	.LASF167:
 9298 068d 65727266 		.ascii	"errf\000"
 9298      00
 9299              	.LASF48:
ARM GAS  /var/folders/5n/p_75w94d66l9ssrldxqdhh700000gn/T//ccmhGqes.s 			page 170


 9300 0692 696E7463 		.ascii	"intctx\000"
 9300      747800
 9301              	.LASF151:
 9302 0699 736E645F 		.ascii	"snd_wnd\000"
 9302      776E6400 
 9303              	.LASF102:
 9304 06a1 6E657463 		.ascii	"netconn_type\000"
 9304      6F6E6E5F 
 9304      74797065 
 9304      00
 9305              	.LASF107:
 9306 06ae 4E455443 		.ascii	"NETCONN_CONNECT\000"
 9306      4F4E4E5F 
 9306      434F4E4E 
 9306      45435400 
 9307              	.LASF161:
 9308 06be 6F6F7365 		.ascii	"ooseq\000"
 9308      7100
 9309              	.LASF248:
 9310 06c4 646F5F62 		.ascii	"do_bind\000"
 9310      696E6400 
 9311              	.LASF43:
 9312 06cc 705F7265 		.ascii	"p_realprio\000"
 9312      616C7072 
 9312      696F00
 9313              	.LASF192:
 9314 06d7 434C4F53 		.ascii	"CLOSED\000"
 9314      454400
 9315              	.LASF184:
 9316 06de 7564705F 		.ascii	"udp_recv_fn\000"
 9316      72656376 
 9316      5F666E00 
 9317              	.LASF73:
 9318 06ea 7533325F 		.ascii	"u32_t\000"
 9318      7400
 9319              	.LASF7:
 9320 06f0 73686F72 		.ascii	"short int\000"
 9320      7420696E 
 9320      7400
 9321              	.LASF59:
 9322 06fa 6D625F77 		.ascii	"mb_wrptr\000"
 9322      72707472 
 9322      00
 9323              	.LASF182:
 9324 0703 61706966 		.ascii	"apiflags\000"
 9324      6C616773 
 9324      00
 9325              	.LASF41:
 9326 070c 705F6570 		.ascii	"p_epending\000"
 9326      656E6469 
 9326      6E6700
 9327              	.LASF54:
 9328 0717 6D5F7175 		.ascii	"m_queue\000"
 9328      65756500 
 9329              	.LASF254:
 9330 071f 646F5F73 		.ascii	"do_send\000"
 9330      656E6400 
ARM GAS  /var/folders/5n/p_75w94d66l9ssrldxqdhh700000gn/T//ccmhGqes.s 			page 171


 9331              	.LASF11:
 9332 0727 6C6F6E67 		.ascii	"long int\000"
 9332      20696E74 
 9332      00
 9333              	.LASF234:
 9334 0730 61766169 		.ascii	"available\000"
 9334      6C61626C 
 9334      6500
 9335              	.LASF159:
 9336 073a 756E7365 		.ascii	"unsent\000"
 9336      6E7400
 9337              	.LASF137:
 9338 0741 7263765F 		.ascii	"rcv_wnd\000"
 9338      776E6400 
 9339              	.LASF143:
 9340 0749 72747465 		.ascii	"rttest\000"
 9340      737400
 9341              	.LASF236:
 9342 0750 64696666 		.ascii	"diff\000"
 9342      00
 9343              	.LASF124:
 9344 0755 63757272 		.ascii	"current_msg\000"
 9344      656E745F 
 9344      6D736700 
 9345              	.LASF215:
 9346 0761 4D454D50 		.ascii	"MEMP_SYS_TIMEOUT\000"
 9346      5F535953 
 9346      5F54494D 
 9346      454F5554 
 9346      00
 9347              	.LASF26:
 9348 0772 705F6E65 		.ascii	"p_next\000"
 9348      787400
 9349              	.LASF205:
 9350 0779 4D454D50 		.ascii	"MEMP_UDP_PCB\000"
 9350      5F554450 
 9350      5F504342 
 9350      00
 9351              	.LASF127:
 9352 0786 6C6F6361 		.ascii	"local_ip\000"
 9352      6C5F6970 
 9352      00
 9353              	.LASF29:
 9354 078f 705F6374 		.ascii	"p_ctx\000"
 9354      7800
 9355              	.LASF266:
 9356 0795 6E657463 		.ascii	"netconn_alloc\000"
 9356      6F6E6E5F 
 9356      616C6C6F 
 9356      6300
 9357              	.LASF158:
 9358 07a3 756E7365 		.ascii	"unsent_oversize\000"
 9358      6E745F6F 
 9358      76657273 
 9358      697A6500 
 9359              	.LASF256:
 9360 07b3 72656D61 		.ascii	"remaining\000"
ARM GAS  /var/folders/5n/p_75w94d66l9ssrldxqdhh700000gn/T//ccmhGqes.s 			page 172


 9360      696E696E 
 9360      6700
 9361              	.LASF241:
 9362 07bd 646F5F6E 		.ascii	"do_newconn\000"
 9362      6577636F 
 9362      6E6E00
 9363              	.LASF122:
 9364 07c8 736F636B 		.ascii	"socket\000"
 9364      657400
 9365              	.LASF150:
 9366 07cf 736E645F 		.ascii	"snd_nxt\000"
 9366      6E787400 
 9367              	.LASF196:
 9368 07d7 45535441 		.ascii	"ESTABLISHED\000"
 9368      424C4953 
 9368      48454400 
 9369              	.LASF50:
 9370 07e3 53656D61 		.ascii	"Semaphore\000"
 9370      70686F72 
 9370      6500
 9371              	.LASF94:
 9372 07ed 6E657462 		.ascii	"netbuf\000"
 9372      756600
 9373              	.LASF210:
 9374 07f4 4D454D50 		.ascii	"MEMP_FRAG_PBUF\000"
 9374      5F465241 
 9374      475F5042 
 9374      554600
 9375              	.LASF259:
 9376 0803 646F5F67 		.ascii	"do_getaddr\000"
 9376      65746164 
 9376      647200
 9377              	.LASF149:
 9378 080e 73737468 		.ascii	"ssthresh\000"
 9378      72657368 
 9378      00
 9379              	.LASF156:
 9380 0817 736E645F 		.ascii	"snd_buf\000"
 9380      62756600 
 9381              	.LASF141:
 9382 081f 706F6C6C 		.ascii	"pollinterval\000"
 9382      696E7465 
 9382      7276616C 
 9382      00
 9383              	.LASF204:
 9384 082c 4D454D50 		.ascii	"MEMP_RAW_PCB\000"
 9384      5F524157 
 9384      5F504342 
 9384      00
 9385              	.LASF255:
 9386 0839 646F5F72 		.ascii	"do_recv\000"
 9386      65637600 
 9387              	.LASF27:
 9388 0841 705F7072 		.ascii	"p_prev\000"
 9388      657600
 9389              	.LASF79:
 9390 0848 7379735F 		.ascii	"sys_mbox_t\000"
ARM GAS  /var/folders/5n/p_75w94d66l9ssrldxqdhh700000gn/T//ccmhGqes.s 			page 173


 9390      6D626F78 
 9390      5F7400
 9391              	.LASF18:
 9392 0853 74726566 		.ascii	"trefs_t\000"
 9392      735F7400 
 9393              	.LASF13:
 9394 085b 6C6F6E67 		.ascii	"long unsigned int\000"
 9394      20756E73 
 9394      69676E65 
 9394      6420696E 
 9394      7400
 9395              	.LASF57:
 9396 086d 6D625F62 		.ascii	"mb_buffer\000"
 9396      75666665 
 9396      7200
 9397              	.LASF225:
 9398 0877 646F5F63 		.ascii	"do_close_internal\000"
 9398      6C6F7365 
 9398      5F696E74 
 9398      65726E61 
 9398      6C00
 9399              	.LASF206:
 9400 0889 4D454D50 		.ascii	"MEMP_TCP_PCB\000"
 9400      5F544350 
 9400      5F504342 
 9400      00
 9401              	.LASF238:
 9402 0896 72656376 		.ascii	"recv_udp\000"
 9402      5F756470 
 9402      00
 9403              	.LASF72:
 9404 089f 7331365F 		.ascii	"s16_t\000"
 9404      7400
 9405              	.LASF10:
 9406 08a5 696E7433 		.ascii	"int32_t\000"
 9406      325F7400 
 9407              	.LASF95:
 9408 08ad 706F7274 		.ascii	"port\000"
 9408      00
 9409              	.LASF162:
 9410 08b2 72656675 		.ascii	"refused_data\000"
 9410      7365645F 
 9410      64617461 
 9410      00
 9411              	.LASF246:
 9412 08bf 6E657770 		.ascii	"newpcb\000"
 9412      636200
 9413              	.LASF109:
 9414 08c6 6E657463 		.ascii	"netconn_evt\000"
 9414      6F6E6E5F 
 9414      65767400 
 9415              	.LASF115:
 9416 08d2 6E657463 		.ascii	"netconn_callback\000"
 9416      6F6E6E5F 
 9416      63616C6C 
 9416      6261636B 
 9416      00
ARM GAS  /var/folders/5n/p_75w94d66l9ssrldxqdhh700000gn/T//ccmhGqes.s 			page 174


 9417              	.LASF232:
 9418 08e3 646F5F63 		.ascii	"do_connected\000"
 9418      6F6E6E65 
 9418      63746564 
 9418      00
 9419              	.LASF208:
 9420 08f0 4D454D50 		.ascii	"MEMP_TCP_SEG\000"
 9420      5F544350 
 9420      5F534547 
 9420      00
 9421              	.LASF92:
 9422 08fd 74797065 		.ascii	"type\000"
 9422      00
 9423              	.LASF5:
 9424 0902 756E7369 		.ascii	"unsigned char\000"
 9424      676E6564 
 9424      20636861 
 9424      7200
 9425              	.LASF252:
 9426 0910 646F5F6C 		.ascii	"do_listen\000"
 9426      69737465 
 9426      6E00
 9427              	.LASF197:
 9428 091a 46494E5F 		.ascii	"FIN_WAIT_1\000"
 9428      57414954 
 9428      5F3100
 9429              	.LASF198:
 9430 0925 46494E5F 		.ascii	"FIN_WAIT_2\000"
 9430      57414954 
 9430      5F3200
 9431              	.LASF160:
 9432 0930 756E6163 		.ascii	"unacked\000"
 9432      6B656400 
 9433              	.LASF35:
 9434 0938 705F7265 		.ascii	"p_refs\000"
 9434      667300
 9435              	.LASF113:
 9436 093f 4E455443 		.ascii	"NETCONN_EVT_SENDMINUS\000"
 9436      4F4E4E5F 
 9436      4556545F 
 9436      53454E44 
 9436      4D494E55 
 9437              	.LASF126:
 9438 0955 69705F70 		.ascii	"ip_pcb\000"
 9438      636200
 9439              	.LASF97:
 9440 095c 4E455443 		.ascii	"NETCONN_TCP\000"
 9440      4F4E4E5F 
 9440      54435000 
 9441              	.LASF194:
 9442 0968 53594E5F 		.ascii	"SYN_SENT\000"
 9442      53454E54 
 9442      00
 9443              	.LASF183:
 9444 0971 73687574 		.ascii	"shut\000"
 9444      00
 9445              	.LASF168:
ARM GAS  /var/folders/5n/p_75w94d66l9ssrldxqdhh700000gn/T//ccmhGqes.s 			page 175


 9446 0976 6B656570 		.ascii	"keep_idle\000"
 9446      5F69646C 
 9446      6500
 9447              	.LASF106:
 9448 0980 4E455443 		.ascii	"NETCONN_LISTEN\000"
 9448      4F4E4E5F 
 9448      4C495354 
 9448      454E00
 9449              	.LASF132:
 9450 098f 63616C6C 		.ascii	"callback_arg\000"
 9450      6261636B 
 9450      5F617267 
 9450      00
 9451              	.LASF193:
 9452 099c 4C495354 		.ascii	"LISTEN\000"
 9452      454E00
 9453              	.LASF36:
 9454 09a3 705F7072 		.ascii	"p_preempt\000"
 9454      65656D70 
 9454      7400
 9455              	.LASF123:
 9456 09ad 77726974 		.ascii	"write_offset\000"
 9456      655F6F66 
 9456      66736574 
 9456      00
 9457              	.LASF75:
 9458 09ba 61646472 		.ascii	"addr\000"
 9458      00
 9459              	.LASF117:
 9460 09bf 73746174 		.ascii	"state\000"
 9460      6500
 9461              	.LASF125:
 9462 09c5 63616C6C 		.ascii	"callback\000"
 9462      6261636B 
 9462      00
 9463              	.LASF157:
 9464 09ce 736E645F 		.ascii	"snd_queuelen\000"
 9464      71756575 
 9464      656C656E 
 9464      00
 9465              	.LASF253:
 9466 09db 6C706362 		.ascii	"lpcb\000"
 9466      00
 9467              	.LASF223:
 9468 09e0 7761735F 		.ascii	"was_blocking\000"
 9468      626C6F63 
 9468      6B696E67 
 9468      00
 9469              	.LASF239:
 9470 09ed 7063625F 		.ascii	"pcb_new\000"
 9470      6E657700 
 9471              	.LASF260:
 9472 09f5 646F5F63 		.ascii	"do_close\000"
 9472      6C6F7365 
 9472      00
 9473              	.LASF108:
 9474 09fe 4E455443 		.ascii	"NETCONN_CLOSE\000"
ARM GAS  /var/folders/5n/p_75w94d66l9ssrldxqdhh700000gn/T//ccmhGqes.s 			page 176


 9474      4F4E4E5F 
 9474      434C4F53 
 9474      4500
 9475              	.LASF56:
 9476 0a0c 6D5F6E65 		.ascii	"m_next\000"
 9476      787400
 9477              	.LASF244:
 9478 0a13 6E657763 		.ascii	"newconn\000"
 9478      6F6E6E00 
 9479              	.LASF3:
 9480 0a1b 7369676E 		.ascii	"signed char\000"
 9480      65642063 
 9480      68617200 
 9481              	.LASF130:
 9482 0a27 7463705F 		.ascii	"tcp_pcb\000"
 9482      70636200 
 9483              	.LASF9:
 9484 0a2f 73686F72 		.ascii	"short unsigned int\000"
 9484      7420756E 
 9484      7369676E 
 9484      65642069 
 9484      6E7400
 9485              	.LASF101:
 9486 0a42 4E455443 		.ascii	"NETCONN_RAW\000"
 9486      4F4E4E5F 
 9486      52415700 
 9487              	.LASF257:
 9488 0a4e 72656376 		.ascii	"recved\000"
 9488      656400
 9489              	.LASF99:
 9490 0a55 4E455443 		.ascii	"NETCONN_UDPLITE\000"
 9490      4F4E4E5F 
 9490      5544504C 
 9490      49544500 
 9491              	.LASF169:
 9492 0a65 70657273 		.ascii	"persist_cnt\000"
 9492      6973745F 
 9492      636E7400 
 9493              	.LASF128:
 9494 0a71 72656D6F 		.ascii	"remote_ip\000"
 9494      74655F69 
 9494      7000
 9495              	.LASF119:
 9496 0a7b 6F705F63 		.ascii	"op_completed\000"
 9496      6F6D706C 
 9496      65746564 
 9496      00
 9497              	.LASF76:
 9498 0a88 69705F61 		.ascii	"ip_addr_t\000"
 9498      6464725F 
 9498      7400
 9499              	.LASF116:
 9500 0a92 6E657463 		.ascii	"netconn\000"
 9500      6F6E6E00 
 9501              	.LASF191:
 9502 0a9a 7463705F 		.ascii	"tcp_state\000"
 9502      73746174 
ARM GAS  /var/folders/5n/p_75w94d66l9ssrldxqdhh700000gn/T//ccmhGqes.s 			page 177


 9502      6500
 9503              	.LASF85:
 9504 0aa4 50425546 		.ascii	"PBUF_ROM\000"
 9504      5F524F4D 
 9504      00
 9505              	.LASF226:
 9506 0aad 73687574 		.ascii	"shut_rx\000"
 9506      5F727800 
 9507              	.LASF212:
 9508 0ab5 4D454D50 		.ascii	"MEMP_NETCONN\000"
 9508      5F4E4554 
 9508      434F4E4E 
 9508      00
 9509              	.LASF145:
 9510 0ac2 6E727478 		.ascii	"nrtx\000"
 9510      00
 9511              	.LASF65:
 9512 0ac7 65786974 		.ascii	"exitcode\000"
 9512      636F6465 
 9512      00
 9513              	.LASF263:
 9514 0ad0 2E2E2F2E 		.ascii	"../../ext/lwip/src/api/api_msg.c\000"
 9514      2E2F6578 
 9514      742F6C77 
 9514      69702F73 
 9514      72632F61 
 9515              	.LASF195:
 9516 0af1 53594E5F 		.ascii	"SYN_RCVD\000"
 9516      52435644 
 9516      00
 9517              	.LASF74:
 9518 0afa 69705F61 		.ascii	"ip_addr\000"
 9518      64647200 
 9519              		.ident	"GCC: (Linaro GCC 4.6-2011.10) 4.6.2 20111004 (prerelease)"
ARM GAS  /var/folders/5n/p_75w94d66l9ssrldxqdhh700000gn/T//ccmhGqes.s 			page 178


DEFINED SYMBOLS
                            *ABS*:0000000000000000 api_msg.c
/var/folders/5n/p_75w94d66l9ssrldxqdhh700000gn/T//ccmhGqes.s:18     .text.setup_tcp:0000000000000000 $t
/var/folders/5n/p_75w94d66l9ssrldxqdhh700000gn/T//ccmhGqes.s:23     .text.setup_tcp:0000000000000000 setup_tcp
/var/folders/5n/p_75w94d66l9ssrldxqdhh700000gn/T//ccmhGqes.s:906    .text.recv_tcp:0000000000000000 recv_tcp
/var/folders/5n/p_75w94d66l9ssrldxqdhh700000gn/T//ccmhGqes.s:1129   .text.sent_tcp:0000000000000000 sent_tcp
/var/folders/5n/p_75w94d66l9ssrldxqdhh700000gn/T//ccmhGqes.s:1046   .text.poll_tcp:0000000000000000 poll_tcp
/var/folders/5n/p_75w94d66l9ssrldxqdhh700000gn/T//ccmhGqes.s:477    .text.err_tcp:0000000000000000 err_tcp
/var/folders/5n/p_75w94d66l9ssrldxqdhh700000gn/T//ccmhGqes.s:73     .text.do_connected:0000000000000000 $t
/var/folders/5n/p_75w94d66l9ssrldxqdhh700000gn/T//ccmhGqes.s:78     .text.do_connected:0000000000000000 do_connected
/var/folders/5n/p_75w94d66l9ssrldxqdhh700000gn/T//ccmhGqes.s:199    .text.do_close_internal:0000000000000000 $t
/var/folders/5n/p_75w94d66l9ssrldxqdhh700000gn/T//ccmhGqes.s:204    .text.do_close_internal:0000000000000000 do_close_internal
/var/folders/5n/p_75w94d66l9ssrldxqdhh700000gn/T//ccmhGqes.s:465    .text.do_close_internal:0000000000000164 $d
/var/folders/5n/p_75w94d66l9ssrldxqdhh700000gn/T//ccmhGqes.s:472    .text.err_tcp:0000000000000000 $t
/var/folders/5n/p_75w94d66l9ssrldxqdhh700000gn/T//ccmhGqes.s:630    .text.do_writemore:0000000000000000 $t
/var/folders/5n/p_75w94d66l9ssrldxqdhh700000gn/T//ccmhGqes.s:635    .text.do_writemore:0000000000000000 do_writemore
/var/folders/5n/p_75w94d66l9ssrldxqdhh700000gn/T//ccmhGqes.s:901    .text.recv_tcp:0000000000000000 $t
/var/folders/5n/p_75w94d66l9ssrldxqdhh700000gn/T//ccmhGqes.s:1041   .text.poll_tcp:0000000000000000 $t
/var/folders/5n/p_75w94d66l9ssrldxqdhh700000gn/T//ccmhGqes.s:1124   .text.sent_tcp:0000000000000000 $t
/var/folders/5n/p_75w94d66l9ssrldxqdhh700000gn/T//ccmhGqes.s:1211   .text.recv_udp:0000000000000000 $t
/var/folders/5n/p_75w94d66l9ssrldxqdhh700000gn/T//ccmhGqes.s:1216   .text.recv_udp:0000000000000000 recv_udp
/var/folders/5n/p_75w94d66l9ssrldxqdhh700000gn/T//ccmhGqes.s:1362   .text.recv_raw:0000000000000000 $t
/var/folders/5n/p_75w94d66l9ssrldxqdhh700000gn/T//ccmhGqes.s:1367   .text.recv_raw:0000000000000000 recv_raw
/var/folders/5n/p_75w94d66l9ssrldxqdhh700000gn/T//ccmhGqes.s:1486   .text.recv_raw:0000000000000084 $d
/var/folders/5n/p_75w94d66l9ssrldxqdhh700000gn/T//ccmhGqes.s:1494   .text.do_newconn:0000000000000000 $t
/var/folders/5n/p_75w94d66l9ssrldxqdhh700000gn/T//ccmhGqes.s:1500   .text.do_newconn:0000000000000000 do_newconn
/var/folders/5n/p_75w94d66l9ssrldxqdhh700000gn/T//ccmhGqes.s:1611   .text.do_newconn:0000000000000090 $d
/var/folders/5n/p_75w94d66l9ssrldxqdhh700000gn/T//ccmhGqes.s:1619   .text.netconn_alloc:0000000000000000 $t
/var/folders/5n/p_75w94d66l9ssrldxqdhh700000gn/T//ccmhGqes.s:1625   .text.netconn_alloc:0000000000000000 netconn_alloc
/var/folders/5n/p_75w94d66l9ssrldxqdhh700000gn/T//ccmhGqes.s:1747   .text.netconn_free:0000000000000000 $t
/var/folders/5n/p_75w94d66l9ssrldxqdhh700000gn/T//ccmhGqes.s:1753   .text.netconn_free:0000000000000000 netconn_free
/var/folders/5n/p_75w94d66l9ssrldxqdhh700000gn/T//ccmhGqes.s:1811   .text.netconn_drain:0000000000000000 $t
/var/folders/5n/p_75w94d66l9ssrldxqdhh700000gn/T//ccmhGqes.s:1816   .text.netconn_drain:0000000000000000 netconn_drain
/var/folders/5n/p_75w94d66l9ssrldxqdhh700000gn/T//ccmhGqes.s:1957   .text.accept_function:0000000000000000 $t
/var/folders/5n/p_75w94d66l9ssrldxqdhh700000gn/T//ccmhGqes.s:1962   .text.accept_function:0000000000000000 accept_function
/var/folders/5n/p_75w94d66l9ssrldxqdhh700000gn/T//ccmhGqes.s:2071   .text.do_delconn:0000000000000000 $t
/var/folders/5n/p_75w94d66l9ssrldxqdhh700000gn/T//ccmhGqes.s:2077   .text.do_delconn:0000000000000000 do_delconn
/var/folders/5n/p_75w94d66l9ssrldxqdhh700000gn/T//ccmhGqes.s:2245   .text.do_bind:0000000000000000 $t
/var/folders/5n/p_75w94d66l9ssrldxqdhh700000gn/T//ccmhGqes.s:2251   .text.do_bind:0000000000000000 do_bind
/var/folders/5n/p_75w94d66l9ssrldxqdhh700000gn/T//ccmhGqes.s:2328   .text.do_connect:0000000000000000 $t
/var/folders/5n/p_75w94d66l9ssrldxqdhh700000gn/T//ccmhGqes.s:2334   .text.do_connect:0000000000000000 do_connect
/var/folders/5n/p_75w94d66l9ssrldxqdhh700000gn/T//ccmhGqes.s:2464   .text.do_connect:00000000000000a0 $d
/var/folders/5n/p_75w94d66l9ssrldxqdhh700000gn/T//ccmhGqes.s:2469   .text.do_disconnect:0000000000000000 $t
/var/folders/5n/p_75w94d66l9ssrldxqdhh700000gn/T//ccmhGqes.s:2475   .text.do_disconnect:0000000000000000 do_disconnect
/var/folders/5n/p_75w94d66l9ssrldxqdhh700000gn/T//ccmhGqes.s:2519   .text.do_listen:0000000000000000 $t
/var/folders/5n/p_75w94d66l9ssrldxqdhh700000gn/T//ccmhGqes.s:2525   .text.do_listen:0000000000000000 do_listen
/var/folders/5n/p_75w94d66l9ssrldxqdhh700000gn/T//ccmhGqes.s:2661   .text.do_listen:00000000000000b0 $d
/var/folders/5n/p_75w94d66l9ssrldxqdhh700000gn/T//ccmhGqes.s:2667   .text.do_send:0000000000000000 $t
/var/folders/5n/p_75w94d66l9ssrldxqdhh700000gn/T//ccmhGqes.s:2673   .text.do_send:0000000000000000 do_send
/var/folders/5n/p_75w94d66l9ssrldxqdhh700000gn/T//ccmhGqes.s:2767   .text.do_recv:0000000000000000 $t
/var/folders/5n/p_75w94d66l9ssrldxqdhh700000gn/T//ccmhGqes.s:2773   .text.do_recv:0000000000000000 do_recv
/var/folders/5n/p_75w94d66l9ssrldxqdhh700000gn/T//ccmhGqes.s:2852   .text.do_write:0000000000000000 $t
/var/folders/5n/p_75w94d66l9ssrldxqdhh700000gn/T//ccmhGqes.s:2858   .text.do_write:0000000000000000 do_write
/var/folders/5n/p_75w94d66l9ssrldxqdhh700000gn/T//ccmhGqes.s:2965   .text.do_getaddr:0000000000000000 $t
/var/folders/5n/p_75w94d66l9ssrldxqdhh700000gn/T//ccmhGqes.s:2971   .text.do_getaddr:0000000000000000 do_getaddr
/var/folders/5n/p_75w94d66l9ssrldxqdhh700000gn/T//ccmhGqes.s:3084   .text.do_close:0000000000000000 $t
/var/folders/5n/p_75w94d66l9ssrldxqdhh700000gn/T//ccmhGqes.s:3090   .text.do_close:0000000000000000 do_close
ARM GAS  /var/folders/5n/p_75w94d66l9ssrldxqdhh700000gn/T//ccmhGqes.s 			page 179


                     .debug_frame:0000000000000010 $d
/var/folders/5n/p_75w94d66l9ssrldxqdhh700000gn/T//ccmhGqes.s:1493   .text.recv_raw:0000000000000088 $t
/var/folders/5n/p_75w94d66l9ssrldxqdhh700000gn/T//ccmhGqes.s:1618   .text.do_newconn:0000000000000098 $t
/var/folders/5n/p_75w94d66l9ssrldxqdhh700000gn/T//ccmhGqes.s:2468   .text.do_connect:00000000000000a4 $t
/var/folders/5n/p_75w94d66l9ssrldxqdhh700000gn/T//ccmhGqes.s:2666   .text.do_listen:00000000000000b4 $t

UNDEFINED SYMBOLS
tcp_arg
tcp_recv
tcp_sent
tcp_poll
tcp_err
port_halt
sys_sem_signal
tcp_shutdown
tcp_close
tcp_accept
sys_mbox_valid
sys_mbox_trypost
tcp_write
tcp_output
tcp_recved
pbuf_free
memp_malloc
netbuf_delete
pbuf_alloc
pbuf_copy
current_iphdr_src
tcp_new
raw_new
raw_recv
udp_new
udp_recv
sys_sem_new
sys_mbox_new
sys_mbox_set_invalid
memp_free
sys_sem_free
sys_sem_set_invalid
sys_arch_mbox_tryfetch
sys_mbox_free
tcp_abort
sys_sem_valid
udp_remove
raw_remove
udp_bind
tcp_bind
raw_bind
raw_connect
udp_connect
tcp_connect
udp_disconnect
tcp_listen_with_backlog
udp_send
raw_send
udp_sendto
raw_sendto
ARM GAS  /var/folders/5n/p_75w94d66l9ssrldxqdhh700000gn/T//ccmhGqes.s 			page 180


