ARM GAS  /var/folders/5n/p_75w94d66l9ssrldxqdhh700000gn/T//ccmhGqes.s 			page 1


   1              		.syntax unified
   2              		.cpu cortex-m4
   3              		.fpu softvfp
   4              		.eabi_attribute 20, 1
   5              		.eabi_attribute 21, 1
   6              		.eabi_attribute 23, 3
   7              		.eabi_attribute 24, 1
   8              		.eabi_attribute 25, 1
   9              		.eabi_attribute 26, 1
  10              		.eabi_attribute 30, 2
  11              		.eabi_attribute 18, 4
  12              		.thumb
  13              		.file	"api_msg.c"
  14              		.text
  15              	.Ltext0:
  16              		.cfi_sections	.debug_frame
  17              		.section	.text.setup_tcp,"ax",%progbits
  18              		.align	2
  19              		.p2align 4,,15
  20              		.thumb
  21              		.thumb_func
  22              		.type	setup_tcp, %function
  23              	setup_tcp:
  24              	.LFB13:
  25              		.file 1 "../../ext/lwip/src/api/api_msg.c"
  26              		.loc 1 414 0
  27              		.cfi_startproc
  28              		@ args = 0, pretend = 0, frame = 0
  29              		@ frame_needed = 0, uses_anonymous_args = 0
  30              	.LVL0:
  31 0000 10B5     		push	{r4, lr}
  32              	.LCFI0:
  33              		.cfi_def_cfa_offset 8
  34              		.cfi_offset 14, -4
  35              		.cfi_offset 4, -8
  36              		.loc 1 417 0
  37 0002 4468     		ldr	r4, [r0, #4]
  38              	.LVL1:
  39              		.loc 1 418 0
  40 0004 0146     		mov	r1, r0
  41 0006 2046     		mov	r0, r4
  42              	.LVL2:
  43 0008 FFF7FEFF 		bl	tcp_arg
  44              	.LVL3:
  45              		.loc 1 419 0
  46 000c 40F20001 		movw	r1, #:lower16:recv_tcp
  47 0010 2046     		mov	r0, r4
  48 0012 C0F20001 		movt	r1, #:upper16:recv_tcp
  49 0016 FFF7FEFF 		bl	tcp_recv
  50              		.loc 1 420 0
  51 001a 40F20001 		movw	r1, #:lower16:sent_tcp
  52 001e 2046     		mov	r0, r4
  53 0020 C0F20001 		movt	r1, #:upper16:sent_tcp
  54 0024 FFF7FEFF 		bl	tcp_sent
  55              		.loc 1 421 0
  56 0028 40F20001 		movw	r1, #:lower16:poll_tcp
  57 002c 2046     		mov	r0, r4
ARM GAS  /var/folders/5n/p_75w94d66l9ssrldxqdhh700000gn/T//ccmhGqes.s 			page 2


  58 002e C0F20001 		movt	r1, #:upper16:poll_tcp
  59 0032 0422     		movs	r2, #4
  60 0034 FFF7FEFF 		bl	tcp_poll
  61              		.loc 1 422 0
  62 0038 40F20001 		movw	r1, #:lower16:err_tcp
  63 003c 2046     		mov	r0, r4
  64 003e C0F20001 		movt	r1, #:upper16:err_tcp
  65              		.loc 1 423 0
  66 0042 BDE81040 		pop	{r4, lr}
  67              		.loc 1 422 0
  68 0046 FFF7FEBF 		b	tcp_err
  69              		.cfi_endproc
  70              	.LFE13:
  71              		.size	setup_tcp, .-setup_tcp
  72 004a 00BFAFF3 		.section	.text.do_connected,"ax",%progbits
  72      0080
  73              		.align	2
  74              		.p2align 4,,15
  75              		.thumb
  76              		.thumb_func
  77              		.type	do_connected, %function
  78              	do_connected:
  79              	.LFB23:
  80              		.loc 1 926 0
  81              		.cfi_startproc
  82              		@ args = 0, pretend = 0, frame = 0
  83              		@ frame_needed = 0, uses_anonymous_args = 0
  84              	.LVL4:
  85 0000 38B5     		push	{r3, r4, r5, lr}
  86              	.LCFI1:
  87              		.cfi_def_cfa_offset 16
  88              		.cfi_offset 14, -4
  89              		.cfi_offset 5, -8
  90              		.cfi_offset 4, -12
  91              		.cfi_offset 3, -16
  92              		.loc 1 934 0
  93 0002 0446     		mov	r4, r0
  94              		.loc 1 926 0
  95 0004 1546     		mov	r5, r2
  96              		.loc 1 934 0
  97 0006 0028     		cmp	r0, #0
  98 0008 3BD0     		beq	.L10
  99              	.LVL5:
 100              		.loc 1 938 0
 101 000a 4378     		ldrb	r3, [r0, #1]	@ zero_extendqisi2
 102 000c 032B     		cmp	r3, #3
 103 000e 01D0     		beq	.L4
 104              		.loc 1 938 0 is_stmt 0 discriminator 1
 105 0010 FFF7FEFF 		bl	port_halt
 106              	.LVL6:
 107              	.L4:
 108              		.loc 1 939 0 is_stmt 1
 109 0014 636A     		ldr	r3, [r4, #36]
 110 0016 5BB3     		cbz	r3, .L13
 111              	.L5:
 112              		.loc 1 943 0
 113 0018 1D71     		strb	r5, [r3, #4]
ARM GAS  /var/folders/5n/p_75w94d66l9ssrldxqdhh700000gn/T//ccmhGqes.s 			page 3


 114              	.L6:
 115              		.loc 1 945 0
 116 001a 2378     		ldrb	r3, [r4, #0]	@ zero_extendqisi2
 117 001c 002D     		cmp	r5, #0
 118 001e 08BF     		it	eq
 119 0020 102B     		cmpeq	r3, #16
 120 0022 21D0     		beq	.L14
 121              	.L7:
 122              		.loc 1 948 0
 123 0024 227F     		ldrb	r2, [r4, #28]	@ zero_extendqisi2
 124 0026 12F0040F 		tst	r2, #4
 125              		.loc 1 950 0
 126 002a 4FF00003 		mov	r3, #0
 127              		.loc 1 949 0
 128 002e 22F00402 		bic	r2, r2, #4
 129              		.loc 1 948 0
 130 0032 14BF     		ite	ne
 131 0034 0025     		movne	r5, #0
 132 0036 0125     		moveq	r5, #1
 133              	.LVL7:
 134              		.loc 1 949 0
 135 0038 2277     		strb	r2, [r4, #28]
 136              		.loc 1 950 0
 137 003a 6362     		str	r3, [r4, #36]
 138              		.loc 1 951 0
 139 003c 6370     		strb	r3, [r4, #1]
 140              		.loc 1 952 0
 141 003e 6DB1     		cbz	r5, .L15
 142              	.L8:
 143              		.loc 1 955 0
 144 0040 A36A     		ldr	r3, [r4, #40]
 145 0042 1BB1     		cbz	r3, .L9
 146              		.loc 1 955 0 is_stmt 0 discriminator 1
 147 0044 2046     		mov	r0, r4
 148 0046 0221     		movs	r1, #2
 149 0048 0022     		movs	r2, #0
 150 004a 9847     		blx	r3
 151              	.L9:
 152              		.loc 1 957 0 is_stmt 1
 153 004c 25B1     		cbz	r5, .L3
 154              		.loc 1 958 0
 155 004e 04F10C00 		add	r0, r4, #12
 156 0052 FFF7FEFF 		bl	sys_sem_signal
 157              		.loc 1 960 0
 158 0056 0025     		movs	r5, #0
 159              	.LVL8:
 160              	.L3:
 161              		.loc 1 961 0
 162 0058 68B2     		sxtb	r0, r5
 163 005a 38BD     		pop	{r3, r4, r5, pc}
 164              	.LVL9:
 165              	.L15:
 166              		.loc 1 953 0
 167 005c 94F90830 		ldrsb	r3, [r4, #8]
 168 0060 0933     		adds	r3, r3, #9
 169 0062 A8BF     		it	ge
 170 0064 2572     		strbge	r5, [r4, #8]
ARM GAS  /var/folders/5n/p_75w94d66l9ssrldxqdhh700000gn/T//ccmhGqes.s 			page 4


 171 0066 EBE7     		b	.L8
 172              	.LVL10:
 173              	.L14:
 174              		.loc 1 946 0
 175 0068 2046     		mov	r0, r4
 176 006a FFF7FEFF 		bl	setup_tcp
 177 006e D9E7     		b	.L7
 178              	.L13:
 179              		.loc 1 939 0 discriminator 1
 180 0070 237F     		ldrb	r3, [r4, #28]	@ zero_extendqisi2
 181 0072 5B07     		lsls	r3, r3, #29
 182 0074 D1D4     		bmi	.L6
 183              		.loc 1 939 0 is_stmt 0 discriminator 2
 184 0076 FFF7FEFF 		bl	port_halt
 185              		.loc 1 942 0 is_stmt 1 discriminator 2
 186 007a 636A     		ldr	r3, [r4, #36]
 187 007c 002B     		cmp	r3, #0
 188 007e CCD0     		beq	.L6
 189 0080 CAE7     		b	.L5
 190              	.LVL11:
 191              	.L10:
 192              		.loc 1 935 0
 193 0082 FA25     		movs	r5, #250
 194 0084 E8E7     		b	.L3
 195              		.cfi_endproc
 196              	.LFE23:
 197              		.size	do_connected, .-do_connected
 198 0086 00BFAFF3 		.section	.text.do_close_internal,"ax",%progbits
 198      0080AFF3 
 198      0080
 199              		.align	2
 200              		.p2align 4,,15
 201              		.thumb
 202              		.thumb_func
 203              		.type	do_close_internal, %function
 204              	do_close_internal:
 205              	.LFB20:
 206              		.loc 1 736 0
 207              		.cfi_startproc
 208              		@ args = 0, pretend = 0, frame = 0
 209              		@ frame_needed = 0, uses_anonymous_args = 0
 210              	.LVL12:
 211 0000 2DE9F047 		push	{r4, r5, r6, r7, r8, r9, sl, lr}
 212              	.LCFI2:
 213              		.cfi_def_cfa_offset 32
 214              		.cfi_offset 14, -4
 215              		.cfi_offset 10, -8
 216              		.cfi_offset 9, -12
 217              		.cfi_offset 8, -16
 218              		.cfi_offset 7, -20
 219              		.cfi_offset 6, -24
 220              		.cfi_offset 5, -28
 221              		.cfi_offset 4, -32
 222              		.loc 1 740 0
 223 0004 0446     		mov	r4, r0
 224 0006 0028     		cmp	r0, #0
 225 0008 00F0A980 		beq	.L34
ARM GAS  /var/folders/5n/p_75w94d66l9ssrldxqdhh700000gn/T//ccmhGqes.s 			page 5


 226              	.LVL13:
 227              	.L17:
 228              		.loc 1 741 0
 229 000c 2378     		ldrb	r3, [r4, #0]	@ zero_extendqisi2
 230 000e 102B     		cmp	r3, #16
 231 0010 01D0     		beq	.L18
 232              		.loc 1 741 0 is_stmt 0 discriminator 1
 233 0012 FFF7FEFF 		bl	port_halt
 234              	.L18:
 235              		.loc 1 742 0 is_stmt 1
 236 0016 6378     		ldrb	r3, [r4, #1]	@ zero_extendqisi2
 237 0018 042B     		cmp	r3, #4
 238 001a 01D0     		beq	.L19
 239              		.loc 1 742 0 is_stmt 0 discriminator 1
 240 001c FFF7FEFF 		bl	port_halt
 241              	.L19:
 242              		.loc 1 743 0 is_stmt 1
 243 0020 6368     		ldr	r3, [r4, #4]
 244 0022 002B     		cmp	r3, #0
 245 0024 00F09480 		beq	.L35
 246              	.L20:
 247              		.loc 1 744 0
 248 0028 636A     		ldr	r3, [r4, #36]
 249 002a 002B     		cmp	r3, #0
 250 002c 00F09380 		beq	.L36
 251              	.L21:
 252              		.loc 1 746 0
 253 0030 1D7A     		ldrb	r5, [r3, #8]	@ zero_extendqisi2
 254              	.LVL14:
 255              		.loc 1 750 0
 256 0032 A5F10302 		sub	r2, r5, #3
 257 0036 5642     		rsbs	r6, r2, #0
 258              		.loc 1 747 0
 259 0038 05F00108 		and	r8, r5, #1
 260              		.loc 1 748 0
 261 003c 05F00207 		and	r7, r5, #2
 262              		.loc 1 750 0
 263 0040 46EB0206 		adc	r6, r6, r2
 264              		.loc 1 747 0
 265 0044 5FFA88F9 		uxtb	r9, r8
 266              	.LVL15:
 267              		.loc 1 748 0
 268 0048 5FFA87FA 		uxtb	sl, r7
 269              	.LVL16:
 270              		.loc 1 753 0
 271 004c 002E     		cmp	r6, #0
 272 004e 6ED1     		bne	.L37
 273              		.loc 1 756 0
 274 0050 6068     		ldr	r0, [r4, #4]
 275 0052 037C     		ldrb	r3, [r0, #16]	@ zero_extendqisi2
 276 0054 012B     		cmp	r3, #1
 277 0056 72D0     		beq	.L38
 278              	.L23:
 279              		.loc 1 760 0
 280 0058 B9F1000F 		cmp	r9, #0
 281 005c 5BD1     		bne	.L39
 282              		.loc 1 764 0
ARM GAS  /var/folders/5n/p_75w94d66l9ssrldxqdhh700000gn/T//ccmhGqes.s 			page 6


 283 005e BAF1000F 		cmp	sl, #0
 284 0062 43D1     		bne	.L40
 285              	.L26:
 286              		.loc 1 767 0
 287 0064 002E     		cmp	r6, #0
 288 0066 47D1     		bne	.L41
 289              	.L24:
 290              		.loc 1 773 0
 291 0068 032D     		cmp	r5, #3
 292 006a 50D0     		beq	.L42
 293              	.L27:
 294              		.loc 1 776 0
 295 006c 3A46     		mov	r2, r7
 296 006e 4146     		mov	r1, r8
 297 0070 FFF7FEFF 		bl	tcp_shutdown
 298 0074 0246     		mov	r2, r0
 299              	.LVL17:
 300              	.L28:
 301              		.loc 1 778 0
 302 0076 002A     		cmp	r2, #0
 303 0078 22D1     		bne	.L29
 304              		.loc 1 780 0
 305 007a 636A     		ldr	r3, [r4, #36]
 306 007c 1A71     		strb	r2, [r3, #4]
 307              		.loc 1 781 0
 308 007e 6262     		str	r2, [r4, #36]
 309              		.loc 1 782 0
 310 0080 6270     		strb	r2, [r4, #1]
 311              		.loc 1 784 0
 312 0082 6260     		str	r2, [r4, #4]
 313              		.loc 1 787 0
 314 0084 26B1     		cbz	r6, .L30
 315              		.loc 1 788 0
 316 0086 A36A     		ldr	r3, [r4, #40]
 317 0088 13B1     		cbz	r3, .L30
 318              		.loc 1 788 0 is_stmt 0 discriminator 1
 319 008a 2046     		mov	r0, r4
 320 008c 0421     		movs	r1, #4
 321 008e 9847     		blx	r3
 322              	.LVL18:
 323              	.L30:
 324              		.loc 1 790 0 is_stmt 1
 325 0090 B9F1000F 		cmp	r9, #0
 326 0094 05D0     		beq	.L31
 327              		.loc 1 791 0
 328 0096 A36A     		ldr	r3, [r4, #40]
 329 0098 1BB1     		cbz	r3, .L31
 330              		.loc 1 791 0 is_stmt 0 discriminator 1
 331 009a 0021     		movs	r1, #0
 332 009c 2046     		mov	r0, r4
 333 009e 0A46     		mov	r2, r1
 334 00a0 9847     		blx	r3
 335              	.L31:
 336              		.loc 1 793 0 is_stmt 1
 337 00a2 BAF1000F 		cmp	sl, #0
 338 00a6 05D0     		beq	.L32
 339              		.loc 1 794 0
ARM GAS  /var/folders/5n/p_75w94d66l9ssrldxqdhh700000gn/T//ccmhGqes.s 			page 7


 340 00a8 A36A     		ldr	r3, [r4, #40]
 341 00aa 1BB1     		cbz	r3, .L32
 342              		.loc 1 794 0 is_stmt 0 discriminator 1
 343 00ac 2046     		mov	r0, r4
 344 00ae 0221     		movs	r1, #2
 345 00b0 0022     		movs	r2, #0
 346 00b2 9847     		blx	r3
 347              	.L32:
 348              		.loc 1 797 0 is_stmt 1
 349 00b4 04F10C00 		add	r0, r4, #12
 350              		.loc 1 810 0
 351 00b8 BDE8F047 		pop	{r4, r5, r6, r7, r8, r9, sl, lr}
 352              		.loc 1 797 0
 353 00bc FFF7FEBF 		b	sys_sem_signal
 354              	.LVL19:
 355              	.L29:
 356              		.loc 1 801 0
 357 00c0 6068     		ldr	r0, [r4, #4]
 358 00c2 037C     		ldrb	r3, [r0, #16]	@ zero_extendqisi2
 359 00c4 012B     		cmp	r3, #1
 360 00c6 3FD0     		beq	.L43
 361              	.LVL20:
 362              	.L33:
 363              		.loc 1 802 0
 364 00c8 2649     		ldr	r1, .L44
 365 00ca FFF7FEFF 		bl	tcp_sent
 366              		.loc 1 803 0
 367 00ce 6068     		ldr	r0, [r4, #4]
 368 00d0 2549     		ldr	r1, .L44+4
 369 00d2 0422     		movs	r2, #4
 370 00d4 FFF7FEFF 		bl	tcp_poll
 371              		.loc 1 804 0
 372 00d8 6068     		ldr	r0, [r4, #4]
 373 00da 2449     		ldr	r1, .L44+8
 374 00dc FFF7FEFF 		bl	tcp_err
 375              		.loc 1 805 0
 376 00e0 6068     		ldr	r0, [r4, #4]
 377 00e2 2146     		mov	r1, r4
 378              		.loc 1 810 0
 379 00e4 BDE8F047 		pop	{r4, r5, r6, r7, r8, r9, sl, lr}
 380              		.loc 1 805 0
 381 00e8 FFF7FEBF 		b	tcp_arg
 382              	.L40:
 383              		.loc 1 765 0
 384 00ec 0021     		movs	r1, #0
 385 00ee FFF7FEFF 		bl	tcp_sent
 386 00f2 6068     		ldr	r0, [r4, #4]
 387              		.loc 1 767 0
 388 00f4 002E     		cmp	r6, #0
 389 00f6 B7D0     		beq	.L24
 390              	.L41:
 391              		.loc 1 768 0
 392 00f8 0021     		movs	r1, #0
 393 00fa 0422     		movs	r2, #4
 394 00fc FFF7FEFF 		bl	tcp_poll
 395              		.loc 1 769 0
 396 0100 6068     		ldr	r0, [r4, #4]
ARM GAS  /var/folders/5n/p_75w94d66l9ssrldxqdhh700000gn/T//ccmhGqes.s 			page 8


 397 0102 0021     		movs	r1, #0
 398 0104 FFF7FEFF 		bl	tcp_err
 399              		.loc 1 773 0
 400 0108 032D     		cmp	r5, #3
 401              		.loc 1 769 0
 402 010a 6068     		ldr	r0, [r4, #4]
 403              		.loc 1 773 0
 404 010c AED1     		bne	.L27
 405              	.L42:
 406              		.loc 1 774 0
 407 010e FFF7FEFF 		bl	tcp_close
 408 0112 0246     		mov	r2, r0
 409              	.LVL21:
 410 0114 AFE7     		b	.L28
 411              	.LVL22:
 412              	.L39:
 413              		.loc 1 761 0
 414 0116 0021     		movs	r1, #0
 415 0118 FFF7FEFF 		bl	tcp_recv
 416              		.loc 1 762 0
 417 011c 6068     		ldr	r0, [r4, #4]
 418 011e 0021     		movs	r1, #0
 419 0120 FFF7FEFF 		bl	tcp_accept
 420 0124 6068     		ldr	r0, [r4, #4]
 421              		.loc 1 764 0
 422 0126 BAF1000F 		cmp	sl, #0
 423 012a 9BD0     		beq	.L26
 424 012c DEE7     		b	.L40
 425              	.L37:
 426              		.loc 1 754 0
 427 012e 6068     		ldr	r0, [r4, #4]
 428 0130 0021     		movs	r1, #0
 429 0132 FFF7FEFF 		bl	tcp_arg
 430              		.loc 1 756 0
 431 0136 6068     		ldr	r0, [r4, #4]
 432 0138 037C     		ldrb	r3, [r0, #16]	@ zero_extendqisi2
 433 013a 012B     		cmp	r3, #1
 434 013c 8CD1     		bne	.L23
 435              	.L38:
 436              		.loc 1 757 0
 437 013e 0021     		movs	r1, #0
 438 0140 FFF7FEFF 		bl	tcp_accept
 439 0144 6068     		ldr	r0, [r4, #4]
 440 0146 8FE7     		b	.L24
 441              	.LVL23:
 442              	.L43:
 443              		.loc 1 801 0 discriminator 1
 444 0148 FFF7FEFF 		bl	port_halt
 445              	.LVL24:
 446 014c 6068     		ldr	r0, [r4, #4]
 447 014e BBE7     		b	.L33
 448              	.LVL25:
 449              	.L35:
 450              		.loc 1 743 0 discriminator 1
 451 0150 FFF7FEFF 		bl	port_halt
 452 0154 68E7     		b	.L20
 453              	.L36:
ARM GAS  /var/folders/5n/p_75w94d66l9ssrldxqdhh700000gn/T//ccmhGqes.s 			page 9


 454              		.loc 1 744 0 discriminator 1
 455 0156 FFF7FEFF 		bl	port_halt
 456 015a 636A     		ldr	r3, [r4, #36]
 457 015c 68E7     		b	.L21
 458              	.L34:
 459              		.loc 1 740 0 discriminator 1
 460 015e FFF7FEFF 		bl	port_halt
 461 0162 53E7     		b	.L17
 462              	.L45:
 463              		.align	2
 464              	.L44:
 465 0164 00000000 		.word	sent_tcp
 466 0168 00000000 		.word	poll_tcp
 467 016c 00000000 		.word	err_tcp
 468              		.cfi_endproc
 469              	.LFE20:
 470              		.size	do_close_internal, .-do_close_internal
 471              		.section	.text.err_tcp,"ax",%progbits
 472              		.align	2
 473              		.p2align 4,,15
 474              		.thumb
 475              		.thumb_func
 476              		.type	err_tcp, %function
 477              	err_tcp:
 478              	.LFB12:
 479              		.loc 1 348 0
 480              		.cfi_startproc
 481              		@ args = 0, pretend = 0, frame = 0
 482              		@ frame_needed = 0, uses_anonymous_args = 0
 483              	.LVL26:
 484 0000 F8B5     		push	{r3, r4, r5, r6, r7, lr}
 485              	.LCFI3:
 486              		.cfi_def_cfa_offset 24
 487              		.cfi_offset 14, -4
 488              		.cfi_offset 7, -8
 489              		.cfi_offset 6, -12
 490              		.cfi_offset 5, -16
 491              		.cfi_offset 4, -20
 492              		.cfi_offset 3, -24
 493              		.loc 1 354 0
 494 0002 0446     		mov	r4, r0
 495              		.loc 1 348 0
 496 0004 0F46     		mov	r7, r1
 497              		.loc 1 354 0
 498 0006 0028     		cmp	r0, #0
 499 0008 4DD0     		beq	.L56
 500              	.LVL27:
 501              	.L47:
 502              		.loc 1 369 0
 503 000a A36A     		ldr	r3, [r4, #40]
 504              		.loc 1 364 0
 505 000c 6678     		ldrb	r6, [r4, #1]	@ zero_extendqisi2
 506              	.LVL28:
 507              		.loc 1 360 0
 508 000e 2772     		strb	r7, [r4, #8]
 509              		.loc 1 356 0
 510 0010 0025     		movs	r5, #0
ARM GAS  /var/folders/5n/p_75w94d66l9ssrldxqdhh700000gn/T//ccmhGqes.s 			page 10


 511 0012 6560     		str	r5, [r4, #4]
 512              		.loc 1 365 0
 513 0014 6570     		strb	r5, [r4, #1]
 514              		.loc 1 369 0
 515 0016 7BB1     		cbz	r3, .L49
 516              		.loc 1 369 0 is_stmt 0 discriminator 1
 517 0018 2046     		mov	r0, r4
 518 001a 0421     		movs	r1, #4
 519 001c 2A46     		mov	r2, r5
 520 001e 9847     		blx	r3
 521              		.loc 1 372 0 is_stmt 1 discriminator 1
 522 0020 A36A     		ldr	r3, [r4, #40]
 523 0022 4BB1     		cbz	r3, .L49
 524 0024 2046     		mov	r0, r4
 525 0026 2946     		mov	r1, r5
 526 0028 2A46     		mov	r2, r5
 527 002a 9847     		blx	r3
 528              		.loc 1 373 0 discriminator 1
 529 002c A36A     		ldr	r3, [r4, #40]
 530 002e 1BB1     		cbz	r3, .L49
 531 0030 2046     		mov	r0, r4
 532 0032 0221     		movs	r1, #2
 533 0034 2A46     		mov	r2, r5
 534 0036 9847     		blx	r3
 535              	.L49:
 536              		.loc 1 376 0
 537 0038 04F11005 		add	r5, r4, #16
 538 003c 2846     		mov	r0, r5
 539 003e FFF7FEFF 		bl	sys_mbox_valid
 540 0042 0028     		cmp	r0, #0
 541 0044 2AD1     		bne	.L57
 542              	.L50:
 543              		.loc 1 381 0
 544 0046 04F11405 		add	r5, r4, #20
 545 004a 2846     		mov	r0, r5
 546 004c FFF7FEFF 		bl	sys_mbox_valid
 547 0050 0028     		cmp	r0, #0
 548 0052 1ED1     		bne	.L58
 549              	.L51:
 550              		.loc 1 386 0
 551 0054 012E     		cmp	r6, #1
 552 0056 18BF     		it	ne
 553 0058 042E     		cmpne	r6, #4
 554 005a 08D0     		beq	.L52
 555              		.loc 1 386 0 is_stmt 0 discriminator 1
 556 005c 032E     		cmp	r6, #3
 557 005e 06D0     		beq	.L52
 558              		.loc 1 402 0 is_stmt 1
 559 0060 636A     		ldr	r3, [r4, #36]
 560 0062 002B     		cmp	r3, #0
 561 0064 14D0     		beq	.L46
 562              		.loc 1 404 0 discriminator 1
 563 0066 BDE8F840 		pop	{r3, r4, r5, r6, r7, lr}
 564              		.loc 1 402 0 discriminator 1
 565 006a FFF7FEBF 		b	port_halt
 566              	.L52:
 567              	.LBB3:
ARM GAS  /var/folders/5n/p_75w94d66l9ssrldxqdhh700000gn/T//ccmhGqes.s 			page 11


 568              		.loc 1 390 0
 569 006e 237F     		ldrb	r3, [r4, #28]	@ zero_extendqisi2
 570              	.LVL29:
 571              		.loc 1 391 0
 572 0070 23F00402 		bic	r2, r3, #4
 573              		.loc 1 393 0
 574 0074 5907     		lsls	r1, r3, #29
 575              		.loc 1 391 0
 576 0076 2277     		strb	r2, [r4, #28]
 577              		.loc 1 393 0
 578 0078 0AD4     		bmi	.L46
 579              		.loc 1 395 0
 580 007a 636A     		ldr	r3, [r4, #36]
 581              	.LVL30:
 582 007c B3B1     		cbz	r3, .L59
 583              	.L55:
 584              		.loc 1 396 0
 585 007e 1F71     		strb	r7, [r3, #4]
 586              		.loc 1 399 0
 587 0080 04F10C00 		add	r0, r4, #12
 588              		.loc 1 397 0
 589 0084 0023     		movs	r3, #0
 590 0086 6362     		str	r3, [r4, #36]
 591              	.LBE3:
 592              		.loc 1 404 0
 593 0088 BDE8F840 		pop	{r3, r4, r5, r6, r7, lr}
 594              	.LBB4:
 595              		.loc 1 399 0
 596 008c FFF7FEBF 		b	sys_sem_signal
 597              	.L46:
 598 0090 F8BD     		pop	{r3, r4, r5, r6, r7, pc}
 599              	.L58:
 600              	.LBE4:
 601              		.loc 1 383 0
 602 0092 2846     		mov	r0, r5
 603 0094 0021     		movs	r1, #0
 604 0096 FFF7FEFF 		bl	sys_mbox_trypost
 605 009a DBE7     		b	.L51
 606              	.L57:
 607              		.loc 1 378 0
 608 009c 2846     		mov	r0, r5
 609 009e 0021     		movs	r1, #0
 610 00a0 FFF7FEFF 		bl	sys_mbox_trypost
 611 00a4 CFE7     		b	.L50
 612              	.LVL31:
 613              	.L56:
 614              		.loc 1 354 0 discriminator 1
 615 00a6 FFF7FEFF 		bl	port_halt
 616              	.LVL32:
 617 00aa AEE7     		b	.L47
 618              	.LVL33:
 619              	.L59:
 620              	.LBB5:
 621              		.loc 1 395 0 discriminator 1
 622 00ac FFF7FEFF 		bl	port_halt
 623 00b0 636A     		ldr	r3, [r4, #36]
 624 00b2 E4E7     		b	.L55
ARM GAS  /var/folders/5n/p_75w94d66l9ssrldxqdhh700000gn/T//ccmhGqes.s 			page 12


 625              	.LBE5:
 626              		.cfi_endproc
 627              	.LFE12:
 628              		.size	err_tcp, .-err_tcp
 629 00b4 AFF30080 		.section	.text.do_writemore,"ax",%progbits
 629      AFF30080 
 629      AFF30080 
 630              		.align	2
 631              		.p2align 4,,15
 632              		.thumb
 633              		.thumb_func
 634              		.type	do_writemore, %function
 635              	do_writemore:
 636              	.LFB29:
 637              		.loc 1 1195 0
 638              		.cfi_startproc
 639              		@ args = 0, pretend = 0, frame = 0
 640              		@ frame_needed = 0, uses_anonymous_args = 0
 641              	.LVL34:
 642 0000 2DE9F047 		push	{r4, r5, r6, r7, r8, r9, sl, lr}
 643              	.LCFI4:
 644              		.cfi_def_cfa_offset 32
 645              		.cfi_offset 14, -4
 646              		.cfi_offset 10, -8
 647              		.cfi_offset 9, -12
 648              		.cfi_offset 8, -16
 649              		.cfi_offset 7, -20
 650              		.cfi_offset 6, -24
 651              		.cfi_offset 5, -28
 652              		.cfi_offset 4, -32
 653              		.loc 1 1201 0
 654 0004 037F     		ldrb	r3, [r0, #28]	@ zero_extendqisi2
 655 0006 13F0020F 		tst	r3, #2
 656              		.loc 1 1195 0
 657 000a 0446     		mov	r4, r0
 658              		.loc 1 1201 0
 659 000c 436A     		ldr	r3, [r0, #36]
 660 000e 68D0     		beq	.L61
 661 0010 0126     		movs	r6, #1
 662 0012 1F7C     		ldrb	r7, [r3, #16]	@ zero_extendqisi2
 663 0014 B246     		mov	sl, r6
 664              	.L62:
 665              	.LVL35:
 666              		.loc 1 1206 0 discriminator 3
 667 0016 6278     		ldrb	r2, [r4, #1]	@ zero_extendqisi2
 668 0018 012A     		cmp	r2, #1
 669 001a 02D0     		beq	.L63
 670              		.loc 1 1206 0 is_stmt 0 discriminator 1
 671 001c FFF7FEFF 		bl	port_halt
 672              	.LVL36:
 673 0020 636A     		ldr	r3, [r4, #36]
 674              	.L63:
 675              		.loc 1 1207 0 is_stmt 1
 676 0022 002B     		cmp	r3, #0
 677 0024 00F09180 		beq	.L85
 678              	.L64:
 679              		.loc 1 1208 0
ARM GAS  /var/folders/5n/p_75w94d66l9ssrldxqdhh700000gn/T//ccmhGqes.s 			page 13


 680 0028 6368     		ldr	r3, [r4, #4]
 681 002a 002B     		cmp	r3, #0
 682 002c 00F09080 		beq	.L86
 683              	.L65:
 684              		.loc 1 1209 0
 685 0030 626A     		ldr	r2, [r4, #36]
 686 0032 D4F82080 		ldr	r8, [r4, #32]
 687 0036 D368     		ldr	r3, [r2, #12]
 688 0038 9845     		cmp	r8, r3
 689 003a 57D2     		bcs	.L87
 690              	.L66:
 691              		.loc 1 1223 0
 692 003c 6068     		ldr	r0, [r4, #4]
 693              		.loc 1 1212 0
 694 003e D2F80890 		ldr	r9, [r2, #8]
 695              	.LVL37:
 696              		.loc 1 1223 0
 697 0042 B0F86E20 		ldrh	r2, [r0, #110]
 698              	.LVL38:
 699              		.loc 1 1214 0
 700 0046 4FF6FF75 		movw	r5, #65535
 701              		.loc 1 1213 0
 702 004a C8EB0301 		rsb	r1, r8, r3
 703              	.LVL39:
 704              		.loc 1 1214 0
 705 004e A942     		cmp	r1, r5
 706              		.loc 1 1221 0
 707 0050 94BF     		ite	ls
 708 0052 8DB2     		uxthls	r5, r1
 709              		.loc 1 1219 0
 710 0054 47F00207 		orrhi	r7, r7, #2
 711              	.LVL40:
 712              		.loc 1 1224 0
 713 0058 9542     		cmp	r5, r2
 714              		.loc 1 1230 0
 715 005a 84BF     		itt	hi
 716 005c 47F00207 		orrhi	r7, r7, #2
 717              	.LVL41:
 718 0060 1546     		movhi	r5, r2
 719              	.LVL42:
 720              		.loc 1 1232 0
 721 0062 BAF1000F 		cmp	sl, #0
 722 0066 1AD0     		beq	.L71
 723              		.loc 1 1232 0 is_stmt 0 discriminator 1
 724 0068 9D42     		cmp	r5, r3
 725 006a 18D2     		bcs	.L71
 726              		.loc 1 1232 0
 727 006c 4FF00108 		mov	r8, #1
 728              	.LVL43:
 729 0070 FF27     		movs	r7, #255
 730              	.LVL44:
 731              		.loc 1 1240 0 is_stmt 1
 732 0072 18EA060F 		tst	r8, r6
 733 0076 26D1     		bne	.L88
 734              	.LVL45:
 735              	.L74:
 736              		.loc 1 1251 0
ARM GAS  /var/folders/5n/p_75w94d66l9ssrldxqdhh700000gn/T//ccmhGqes.s 			page 14


 737 0078 7B1C     		adds	r3, r7, #1
 738 007a DBB2     		uxtb	r3, r3
 739 007c 012B     		cmp	r3, #1
 740 007e 46D9     		bls	.L89
 741              	.L76:
 742              		.loc 1 1267 0
 743 0080 B8F1000F 		cmp	r8, #0
 744 0084 39D1     		bne	.L84
 745              	.LVL46:
 746              	.L80:
 747              		.loc 1 1288 0
 748 0086 626A     		ldr	r2, [r4, #36]
 749              		.loc 1 1289 0
 750 0088 0023     		movs	r3, #0
 751              		.loc 1 1288 0
 752 008a 1771     		strb	r7, [r2, #4]
 753              		.loc 1 1295 0
 754 008c 04F10C00 		add	r0, r4, #12
 755              		.loc 1 1289 0
 756 0090 6362     		str	r3, [r4, #36]
 757              		.loc 1 1290 0
 758 0092 6370     		strb	r3, [r4, #1]
 759              		.loc 1 1295 0
 760 0094 FFF7FEFF 		bl	sys_sem_signal
 761              		.loc 1 1303 0
 762 0098 0020     		movs	r0, #0
 763 009a BDE8F087 		pop	{r4, r5, r6, r7, r8, r9, sl, pc}
 764              	.LVL47:
 765              	.L71:
 766              		.loc 1 1237 0
 767 009e 05EB0802 		add	r2, r5, r8
 768              	.LVL48:
 769 00a2 9A42     		cmp	r2, r3
 770 00a4 2FD8     		bhi	.L90
 771              	.LVL49:
 772              	.L73:
 773              		.loc 1 1238 0
 774 00a6 09EB0801 		add	r1, r9, r8
 775 00aa 3B46     		mov	r3, r7
 776 00ac 2A46     		mov	r2, r5
 777 00ae FFF7FEFF 		bl	tcp_write
 778 00b2 0746     		mov	r7, r0
 779              	.LVL50:
 780 00b4 A0F1FF30 		sub	r0, r0, #-1
 781              	.LVL51:
 782 00b8 D0F10008 		rsbs	r8, r0, #0
 783              	.LVL52:
 784 00bc 48EB0008 		adc	r8, r8, r0
 785              		.loc 1 1240 0
 786 00c0 18EA060F 		tst	r8, r6
 787 00c4 D8D0     		beq	.L74
 788              	.LVL53:
 789              	.L88:
 790              		.loc 1 1246 0
 791 00c6 227F     		ldrb	r2, [r4, #28]	@ zero_extendqisi2
 792              		.loc 1 1248 0
 793 00c8 A36A     		ldr	r3, [r4, #40]
ARM GAS  /var/folders/5n/p_75w94d66l9ssrldxqdhh700000gn/T//ccmhGqes.s 			page 15


 794              		.loc 1 1246 0
 795 00ca 42F01002 		orr	r2, r2, #16
 796 00ce 2277     		strb	r2, [r4, #28]
 797              		.loc 1 1243 0
 798 00d0 F927     		movs	r7, #249
 799              		.loc 1 1248 0
 800 00d2 002B     		cmp	r3, #0
 801 00d4 D7D0     		beq	.L80
 802              		.loc 1 1248 0 is_stmt 0 discriminator 1
 803 00d6 2046     		mov	r0, r4
 804 00d8 0321     		movs	r1, #3
 805 00da 2A46     		mov	r2, r5
 806 00dc 9847     		blx	r3
 807              		.loc 1 1243 0 is_stmt 1 discriminator 1
 808 00de F927     		movs	r7, #249
 809 00e0 D1E7     		b	.L80
 810              	.LVL54:
 811              	.L61:
 812              		.loc 1 1202 0 discriminator 2
 813 00e2 1F7C     		ldrb	r7, [r3, #16]	@ zero_extendqisi2
 814 00e4 C7F3800A 		ubfx	sl, r7, #2, #1
 815 00e8 5646     		mov	r6, sl
 816 00ea 94E7     		b	.L62
 817              	.LVL55:
 818              	.L87:
 819              		.loc 1 1209 0 discriminator 1
 820 00ec FFF7FEFF 		bl	port_halt
 821 00f0 626A     		ldr	r2, [r4, #36]
 822 00f2 D4F82080 		ldr	r8, [r4, #32]
 823 00f6 D368     		ldr	r3, [r2, #12]
 824 00f8 A0E7     		b	.L66
 825              	.LVL56:
 826              	.L84:
 827              		.loc 1 1273 0
 828 00fa 6068     		ldr	r0, [r4, #4]
 829 00fc FFF7FEFF 		bl	tcp_output
 830              	.LVL57:
 831              		.loc 1 1303 0
 832 0100 0020     		movs	r0, #0
 833 0102 BDE8F087 		pop	{r4, r5, r6, r7, r8, r9, sl, pc}
 834              	.LVL58:
 835              	.L90:
 836              		.loc 1 1237 0 discriminator 1
 837 0106 FFF7FEFF 		bl	port_halt
 838              	.LVL59:
 839 010a 6068     		ldr	r0, [r4, #4]
 840 010c CBE7     		b	.L73
 841              	.LVL60:
 842              	.L89:
 843              		.loc 1 1252 0 discriminator 1
 844 010e 6368     		ldr	r3, [r4, #4]
 845              		.loc 1 1251 0 discriminator 1
 846 0110 B3F86E20 		ldrh	r2, [r3, #110]
 847 0114 802A     		cmp	r2, #128
 848 0116 10D9     		bls	.L77
 849              		.loc 1 1252 0
 850 0118 B3F87030 		ldrh	r3, [r3, #112]
ARM GAS  /var/folders/5n/p_75w94d66l9ssrldxqdhh700000gn/T//ccmhGqes.s 			page 16


 851 011c 6BB9     		cbnz	r3, .L77
 852              	.L78:
 853              		.loc 1 1259 0
 854 011e 002F     		cmp	r7, #0
 855 0120 AED1     		bne	.L76
 856              		.loc 1 1260 0
 857 0122 226A     		ldr	r2, [r4, #32]
 858              		.loc 1 1261 0
 859 0124 636A     		ldr	r3, [r4, #36]
 860              		.loc 1 1260 0
 861 0126 AD18     		adds	r5, r5, r2
 862              	.LVL61:
 863 0128 2562     		str	r5, [r4, #32]
 864              		.loc 1 1261 0
 865 012a DB68     		ldr	r3, [r3, #12]
 866 012c 9D42     		cmp	r5, r3
 867 012e E4D1     		bne	.L84
 868              	.LVL62:
 869              		.loc 1 1264 0
 870 0130 2762     		str	r7, [r4, #32]
 871              		.loc 1 1266 0
 872 0132 6068     		ldr	r0, [r4, #4]
 873 0134 FFF7FEFF 		bl	tcp_output
 874              	.LVL63:
 875 0138 A5E7     		b	.L80
 876              	.LVL64:
 877              	.L77:
 878              		.loc 1 1256 0
 879 013a A36A     		ldr	r3, [r4, #40]
 880 013c 002B     		cmp	r3, #0
 881 013e EED0     		beq	.L78
 882              		.loc 1 1256 0 is_stmt 0 discriminator 1
 883 0140 2046     		mov	r0, r4
 884 0142 0321     		movs	r1, #3
 885 0144 2A46     		mov	r2, r5
 886 0146 9847     		blx	r3
 887 0148 E9E7     		b	.L78
 888              	.LVL65:
 889              	.L85:
 890              		.loc 1 1207 0 is_stmt 1 discriminator 1
 891 014a FFF7FEFF 		bl	port_halt
 892 014e 6BE7     		b	.L64
 893              	.L86:
 894              		.loc 1 1208 0 discriminator 1
 895 0150 FFF7FEFF 		bl	port_halt
 896 0154 6CE7     		b	.L65
 897              		.cfi_endproc
 898              	.LFE29:
 899              		.size	do_writemore, .-do_writemore
 900 0156 00BFAFF3 		.section	.text.recv_tcp,"ax",%progbits
 900      0080AFF3 
 900      0080
 901              		.align	2
 902              		.p2align 4,,15
 903              		.thumb
 904              		.thumb_func
 905              		.type	recv_tcp, %function
ARM GAS  /var/folders/5n/p_75w94d66l9ssrldxqdhh700000gn/T//ccmhGqes.s 			page 17


 906              	recv_tcp:
 907              	.LFB9:
 908              		.loc 1 217 0
 909              		.cfi_startproc
 910              		@ args = 0, pretend = 0, frame = 0
 911              		@ frame_needed = 0, uses_anonymous_args = 0
 912              	.LVL66:
 913 0000 2DE9F843 		push	{r3, r4, r5, r6, r7, r8, r9, lr}
 914              	.LCFI5:
 915              		.cfi_def_cfa_offset 32
 916              		.cfi_offset 14, -4
 917              		.cfi_offset 9, -8
 918              		.cfi_offset 8, -12
 919              		.cfi_offset 7, -16
 920              		.cfi_offset 6, -20
 921              		.cfi_offset 5, -24
 922              		.cfi_offset 4, -28
 923              		.cfi_offset 3, -32
 924              		.loc 1 222 0
 925 0004 0D46     		mov	r5, r1
 926              		.loc 1 217 0
 927 0006 0446     		mov	r4, r0
 928 0008 1646     		mov	r6, r2
 929 000a 9946     		mov	r9, r3
 930              		.loc 1 222 0
 931 000c 0029     		cmp	r1, #0
 932 000e 31D0     		beq	.L104
 933              	.LVL67:
 934              	.L92:
 935              		.loc 1 223 0
 936 0010 002C     		cmp	r4, #0
 937 0012 36D0     		beq	.L105
 938              	.L93:
 939              	.LVL68:
 940              		.loc 1 225 0
 941 0014 6368     		ldr	r3, [r4, #4]
 942 0016 AB42     		cmp	r3, r5
 943 0018 01D0     		beq	.L94
 944              		.loc 1 225 0 is_stmt 0 discriminator 1
 945 001a FFF7FEFF 		bl	port_halt
 946              	.L94:
 947              		.loc 1 230 0 is_stmt 1
 948 001e 04F11008 		add	r8, r4, #16
 949 0022 4046     		mov	r0, r8
 950 0024 FFF7FEFF 		bl	sys_mbox_valid
 951 0028 0746     		mov	r7, r0
 952 002a 58B9     		cbnz	r0, .L95
 953              		.loc 1 232 0
 954 002c 3EB1     		cbz	r6, .L96
 955              		.loc 1 233 0
 956 002e 3189     		ldrh	r1, [r6, #8]
 957 0030 2846     		mov	r0, r5
 958 0032 FFF7FEFF 		bl	tcp_recved
 959              		.loc 1 234 0
 960 0036 3046     		mov	r0, r6
 961 0038 FFF7FEFF 		bl	pbuf_free
 962              		.loc 1 236 0
ARM GAS  /var/folders/5n/p_75w94d66l9ssrldxqdhh700000gn/T//ccmhGqes.s 			page 18


 963 003c 3E46     		mov	r6, r7
 964              	.LVL69:
 965              	.L96:
 966              		.loc 1 263 0
 967 003e 70B2     		sxtb	r0, r6
 968 0040 BDE8F883 		pop	{r3, r4, r5, r6, r7, r8, r9, pc}
 969              	.LVL70:
 970              	.L95:
 971              	.LBB8:
 972              	.LBB9:
 973              		.loc 1 243 0
 974 0044 94F90830 		ldrsb	r3, [r4, #8]
 975 0048 0933     		adds	r3, r3, #9
 976 004a A8BF     		it	ge
 977 004c 84F80890 		strbge	r9, [r4, #8]
 978              		.loc 1 248 0
 979 0050 3546     		mov	r5, r6
 980              	.LVL71:
 981              		.loc 1 245 0
 982 0052 06B1     		cbz	r6, .L98
 983              		.loc 1 246 0
 984 0054 3589     		ldrh	r5, [r6, #8]
 985              	.LVL72:
 986              	.L98:
 987              		.loc 1 251 0
 988 0056 3146     		mov	r1, r6
 989 0058 4046     		mov	r0, r8
 990 005a FFF7FEFF 		bl	sys_mbox_trypost
 991 005e 0646     		mov	r6, r0
 992              	.LVL73:
 993 0060 90B9     		cbnz	r0, .L102
 994              		.loc 1 259 0
 995 0062 A36A     		ldr	r3, [r4, #40]
 996 0064 4BB1     		cbz	r3, .L103
 997 0066 2046     		mov	r0, r4
 998 0068 3146     		mov	r1, r6
 999 006a 2A46     		mov	r2, r5
 1000 006c 9847     		blx	r3
 1001              	.LBE9:
 1002              	.LBE8:
 1003              		.loc 1 263 0
 1004 006e 70B2     		sxtb	r0, r6
 1005 0070 BDE8F883 		pop	{r3, r4, r5, r6, r7, r8, r9, pc}
 1006              	.LVL74:
 1007              	.L104:
 1008              		.loc 1 222 0 discriminator 1
 1009 0074 FFF7FEFF 		bl	port_halt
 1010              	.LVL75:
 1011 0078 CAE7     		b	.L92
 1012              	.LVL76:
 1013              	.L103:
 1014              	.LBB12:
 1015              	.LBB10:
 1016              		.loc 1 262 0
 1017 007a 1E46     		mov	r6, r3
 1018              	.LBE10:
 1019              	.LBE12:
ARM GAS  /var/folders/5n/p_75w94d66l9ssrldxqdhh700000gn/T//ccmhGqes.s 			page 19


 1020              		.loc 1 263 0
 1021 007c 70B2     		sxtb	r0, r6
 1022 007e BDE8F883 		pop	{r3, r4, r5, r6, r7, r8, r9, pc}
 1023              	.LVL77:
 1024              	.L105:
 1025              		.loc 1 223 0 discriminator 1
 1026 0082 FFF7FEFF 		bl	port_halt
 1027 0086 C5E7     		b	.L93
 1028              	.LVL78:
 1029              	.L102:
 1030              	.LBB13:
 1031              	.LBB11:
 1032              		.loc 1 253 0
 1033 0088 FF26     		movs	r6, #255
 1034 008a D8E7     		b	.L96
 1035              	.LBE11:
 1036              	.LBE13:
 1037              		.cfi_endproc
 1038              	.LFE9:
 1039              		.size	recv_tcp, .-recv_tcp
 1040 008c AFF30080 		.section	.text.poll_tcp,"ax",%progbits
 1041              		.align	2
 1042              		.p2align 4,,15
 1043              		.thumb
 1044              		.thumb_func
 1045              		.type	poll_tcp, %function
 1046              	poll_tcp:
 1047              	.LFB10:
 1048              		.loc 1 278 0
 1049              		.cfi_startproc
 1050              		@ args = 0, pretend = 0, frame = 0
 1051              		@ frame_needed = 0, uses_anonymous_args = 0
 1052              	.LVL79:
 1053 0000 10B5     		push	{r4, lr}
 1054              	.LCFI6:
 1055              		.cfi_def_cfa_offset 8
 1056              		.cfi_offset 14, -4
 1057              		.cfi_offset 4, -8
 1058              		.loc 1 282 0
 1059 0002 0446     		mov	r4, r0
 1060 0004 10B3     		cbz	r0, .L111
 1061              	.LVL80:
 1062              	.L107:
 1063              		.loc 1 284 0
 1064 0006 6378     		ldrb	r3, [r4, #1]	@ zero_extendqisi2
 1065 0008 012B     		cmp	r3, #1
 1066 000a 17D0     		beq	.L112
 1067              		.loc 1 286 0
 1068 000c 042B     		cmp	r3, #4
 1069 000e 19D0     		beq	.L113
 1070              	.L109:
 1071              		.loc 1 292 0
 1072 0010 217F     		ldrb	r1, [r4, #28]	@ zero_extendqisi2
 1073 0012 CB06     		lsls	r3, r1, #27
 1074 0014 10D5     		bpl	.L110
 1075              		.loc 1 295 0
 1076 0016 6368     		ldr	r3, [r4, #4]
ARM GAS  /var/folders/5n/p_75w94d66l9ssrldxqdhh700000gn/T//ccmhGqes.s 			page 20


 1077 0018 73B1     		cbz	r3, .L110
 1078              		.loc 1 295 0 is_stmt 0 discriminator 1
 1079 001a B3F86E20 		ldrh	r2, [r3, #110]
 1080 001e 802A     		cmp	r2, #128
 1081 0020 0AD9     		bls	.L110
 1082 0022 B3F87020 		ldrh	r2, [r3, #112]
 1083 0026 3AB9     		cbnz	r2, .L110
 1084              		.loc 1 298 0 is_stmt 1
 1085 0028 A36A     		ldr	r3, [r4, #40]
 1086              		.loc 1 297 0
 1087 002a 21F01001 		bic	r1, r1, #16
 1088 002e 2177     		strb	r1, [r4, #28]
 1089              		.loc 1 298 0
 1090 0030 13B1     		cbz	r3, .L110
 1091              	.LVL81:
 1092              	.LBB16:
 1093              	.LBB17:
 1094 0032 2046     		mov	r0, r4
 1095 0034 0221     		movs	r1, #2
 1096 0036 9847     		blx	r3
 1097              	.LVL82:
 1098              	.L110:
 1099              	.LBE17:
 1100              	.LBE16:
 1101              		.loc 1 303 0
 1102 0038 0020     		movs	r0, #0
 1103 003a 10BD     		pop	{r4, pc}
 1104              	.L112:
 1105              		.loc 1 285 0
 1106 003c 2046     		mov	r0, r4
 1107 003e FFF7FEFF 		bl	do_writemore
 1108 0042 E5E7     		b	.L109
 1109              	.L113:
 1110              		.loc 1 287 0
 1111 0044 2046     		mov	r0, r4
 1112 0046 FFF7FEFF 		bl	do_close_internal
 1113 004a E1E7     		b	.L109
 1114              	.LVL83:
 1115              	.L111:
 1116              		.loc 1 282 0 discriminator 1
 1117 004c FFF7FEFF 		bl	port_halt
 1118              	.LVL84:
 1119 0050 D9E7     		b	.L107
 1120              		.cfi_endproc
 1121              	.LFE10:
 1122              		.size	poll_tcp, .-poll_tcp
 1123              		.section	.text.sent_tcp,"ax",%progbits
 1124              		.align	2
 1125              		.p2align 4,,15
 1126              		.thumb
 1127              		.thumb_func
 1128              		.type	sent_tcp, %function
 1129              	sent_tcp:
 1130              	.LFB11:
 1131              		.loc 1 314 0
 1132              		.cfi_startproc
 1133              		@ args = 0, pretend = 0, frame = 0
ARM GAS  /var/folders/5n/p_75w94d66l9ssrldxqdhh700000gn/T//ccmhGqes.s 			page 21


 1134              		@ frame_needed = 0, uses_anonymous_args = 0
 1135              	.LVL85:
 1136 0000 38B5     		push	{r3, r4, r5, lr}
 1137              	.LCFI7:
 1138              		.cfi_def_cfa_offset 16
 1139              		.cfi_offset 14, -4
 1140              		.cfi_offset 5, -8
 1141              		.cfi_offset 4, -12
 1142              		.cfi_offset 3, -16
 1143              		.loc 1 318 0
 1144 0002 0446     		mov	r4, r0
 1145              		.loc 1 314 0
 1146 0004 1546     		mov	r5, r2
 1147              		.loc 1 318 0
 1148 0006 08B3     		cbz	r0, .L119
 1149              	.LVL86:
 1150              	.L115:
 1151              		.loc 1 320 0
 1152 0008 6378     		ldrb	r3, [r4, #1]	@ zero_extendqisi2
 1153 000a 012B     		cmp	r3, #1
 1154 000c 16D0     		beq	.L120
 1155              		.loc 1 322 0
 1156 000e 042B     		cmp	r3, #4
 1157 0010 18D0     		beq	.L121
 1158              	.L117:
 1159              		.loc 1 329 0
 1160 0012 6368     		ldr	r3, [r4, #4]
 1161 0014 83B1     		cbz	r3, .L118
 1162              		.loc 1 329 0 is_stmt 0 discriminator 1
 1163 0016 B3F86E20 		ldrh	r2, [r3, #110]
 1164 001a 802A     		cmp	r2, #128
 1165 001c 0CD9     		bls	.L118
 1166 001e B3F87030 		ldrh	r3, [r3, #112]
 1167 0022 4BB9     		cbnz	r3, .L118
 1168              		.loc 1 331 0 is_stmt 1
 1169 0024 227F     		ldrb	r2, [r4, #28]	@ zero_extendqisi2
 1170              		.loc 1 332 0
 1171 0026 A36A     		ldr	r3, [r4, #40]
 1172              		.loc 1 331 0
 1173 0028 22F01002 		bic	r2, r2, #16
 1174 002c 2277     		strb	r2, [r4, #28]
 1175              		.loc 1 332 0
 1176 002e 1BB1     		cbz	r3, .L118
 1177              	.LVL87:
 1178              	.LBB20:
 1179              	.LBB21:
 1180 0030 2046     		mov	r0, r4
 1181 0032 0221     		movs	r1, #2
 1182 0034 2A46     		mov	r2, r5
 1183 0036 9847     		blx	r3
 1184              	.LVL88:
 1185              	.L118:
 1186              	.LBE21:
 1187              	.LBE20:
 1188              		.loc 1 337 0
 1189 0038 0020     		movs	r0, #0
 1190 003a 38BD     		pop	{r3, r4, r5, pc}
ARM GAS  /var/folders/5n/p_75w94d66l9ssrldxqdhh700000gn/T//ccmhGqes.s 			page 22


 1191              	.L120:
 1192              		.loc 1 321 0
 1193 003c 2046     		mov	r0, r4
 1194 003e FFF7FEFF 		bl	do_writemore
 1195 0042 E6E7     		b	.L117
 1196              	.L121:
 1197              		.loc 1 323 0
 1198 0044 2046     		mov	r0, r4
 1199 0046 FFF7FEFF 		bl	do_close_internal
 1200 004a E2E7     		b	.L117
 1201              	.LVL89:
 1202              	.L119:
 1203              		.loc 1 318 0 discriminator 1
 1204 004c FFF7FEFF 		bl	port_halt
 1205              	.LVL90:
 1206 0050 DAE7     		b	.L115
 1207              		.cfi_endproc
 1208              	.LFE11:
 1209              		.size	sent_tcp, .-sent_tcp
 1210 0052 00BFAFF3 		.section	.text.recv_udp,"ax",%progbits
 1210      0080AFF3 
 1210      0080AFF3 
 1210      0080
 1211              		.align	2
 1212              		.p2align 4,,15
 1213              		.thumb
 1214              		.thumb_func
 1215              		.type	recv_udp, %function
 1216              	recv_udp:
 1217              	.LFB8:
 1218              		.loc 1 146 0
 1219              		.cfi_startproc
 1220              		@ args = 4, pretend = 0, frame = 8
 1221              		@ frame_needed = 0, uses_anonymous_args = 0
 1222              	.LVL91:
 1223 0000 2DE9F043 		push	{r4, r5, r6, r7, r8, r9, lr}
 1224              	.LCFI8:
 1225              		.cfi_def_cfa_offset 28
 1226              		.cfi_offset 14, -4
 1227              		.cfi_offset 9, -8
 1228              		.cfi_offset 8, -12
 1229              		.cfi_offset 7, -16
 1230              		.cfi_offset 6, -20
 1231              		.cfi_offset 5, -24
 1232              		.cfi_offset 4, -28
 1233 0004 83B0     		sub	sp, sp, #12
 1234              	.LCFI9:
 1235              		.cfi_def_cfa_offset 40
 1236              		.loc 1 146 0
 1237 0006 0446     		mov	r4, r0
 1238 0008 1546     		mov	r5, r2
 1239 000a 9846     		mov	r8, r3
 1240 000c BDF82890 		ldrh	r9, [sp, #40]
 1241              		.loc 1 155 0
 1242 0010 0029     		cmp	r1, #0
 1243 0012 32D0     		beq	.L133
 1244              	.LVL92:
ARM GAS  /var/folders/5n/p_75w94d66l9ssrldxqdhh700000gn/T//ccmhGqes.s 			page 23


 1245              	.L123:
 1246              		.loc 1 156 0
 1247 0014 002C     		cmp	r4, #0
 1248 0016 3BD0     		beq	.L134
 1249              	.L124:
 1250              	.LVL93:
 1251              		.loc 1 158 0
 1252 0018 6368     		ldr	r3, [r4, #4]
 1253 001a 8B42     		cmp	r3, r1
 1254 001c 01D0     		beq	.L125
 1255              		.loc 1 158 0 is_stmt 0 discriminator 1
 1256 001e FFF7FEFF 		bl	port_halt
 1257              	.L125:
 1258              		.loc 1 165 0 is_stmt 1
 1259 0022 04F11007 		add	r7, r4, #16
 1260 0026 3846     		mov	r0, r7
 1261 0028 FFF7FEFF 		bl	sys_mbox_valid
 1262 002c 28B9     		cbnz	r0, .L126
 1263              	.L132:
 1264              	.LBB24:
 1265              	.LBB25:
 1266              		.loc 1 173 0
 1267 002e 2846     		mov	r0, r5
 1268              	.LBE25:
 1269              	.LBE24:
 1270              		.loc 1 205 0
 1271 0030 03B0     		add	sp, sp, #12
 1272 0032 BDE8F043 		pop	{r4, r5, r6, r7, r8, r9, lr}
 1273              	.LBB29:
 1274              	.LBB26:
 1275              		.loc 1 173 0
 1276 0036 FFF7FEBF 		b	pbuf_free
 1277              	.L126:
 1278              	.LVL94:
 1279              		.loc 1 171 0
 1280 003a 0720     		movs	r0, #7
 1281 003c FFF7FEFF 		bl	memp_malloc
 1282              	.LVL95:
 1283              		.loc 1 172 0
 1284 0040 0646     		mov	r6, r0
 1285 0042 0028     		cmp	r0, #0
 1286 0044 F3D0     		beq	.L132
 1287              		.loc 1 176 0
 1288 0046 0560     		str	r5, [r0, #0]
 1289              		.loc 1 177 0
 1290 0048 4560     		str	r5, [r0, #4]
 1291              		.loc 1 178 0
 1292 004a 4346     		mov	r3, r8
 1293 004c B8F1000F 		cmp	r8, #0
 1294 0050 01D0     		beq	.L128
 1295 0052 D8F80030 		ldr	r3, [r8, #0]
 1296              	.L128:
 1297              		.loc 1 195 0
 1298 0056 3146     		mov	r1, r6
 1299              		.loc 1 178 0
 1300 0058 B360     		str	r3, [r6, #8]
 1301              		.loc 1 179 0
ARM GAS  /var/folders/5n/p_75w94d66l9ssrldxqdhh700000gn/T//ccmhGqes.s 			page 24


 1302 005a A6F80C90 		strh	r9, [r6, #12]	@ movhi
 1303              		.loc 1 195 0
 1304 005e 3846     		mov	r0, r7
 1305              	.LVL96:
 1306              		.loc 1 194 0
 1307 0060 2D89     		ldrh	r5, [r5, #8]
 1308              	.LVL97:
 1309              		.loc 1 195 0
 1310 0062 FFF7FEFF 		bl	sys_mbox_trypost
 1311              	.LVL98:
 1312 0066 0146     		mov	r1, r0
 1313 0068 60B9     		cbnz	r0, .L135
 1314              		.loc 1 203 0
 1315 006a A36A     		ldr	r3, [r4, #40]
 1316 006c 13B1     		cbz	r3, .L122
 1317 006e 2046     		mov	r0, r4
 1318 0070 2A46     		mov	r2, r5
 1319 0072 9847     		blx	r3
 1320              	.L122:
 1321              	.LBE26:
 1322              	.LBE29:
 1323              		.loc 1 205 0
 1324 0074 03B0     		add	sp, sp, #12
 1325 0076 BDE8F083 		pop	{r4, r5, r6, r7, r8, r9, pc}
 1326              	.LVL99:
 1327              	.L133:
 1328              		.loc 1 155 0 discriminator 1
 1329 007a 0191     		str	r1, [sp, #4]
 1330 007c FFF7FEFF 		bl	port_halt
 1331              	.LVL100:
 1332 0080 0199     		ldr	r1, [sp, #4]
 1333 0082 C7E7     		b	.L123
 1334              	.LVL101:
 1335              	.L135:
 1336              	.LBB30:
 1337              	.LBB27:
 1338              		.loc 1 196 0
 1339 0084 3046     		mov	r0, r6
 1340              	.LBE27:
 1341              	.LBE30:
 1342              		.loc 1 205 0
 1343 0086 03B0     		add	sp, sp, #12
 1344 0088 BDE8F043 		pop	{r4, r5, r6, r7, r8, r9, lr}
 1345              	.LBB31:
 1346              	.LBB28:
 1347              		.loc 1 196 0
 1348 008c FFF7FEBF 		b	netbuf_delete
 1349              	.LVL102:
 1350              	.L134:
 1351              	.LBE28:
 1352              	.LBE31:
 1353              		.loc 1 156 0 discriminator 1
 1354 0090 0191     		str	r1, [sp, #4]
 1355 0092 FFF7FEFF 		bl	port_halt
 1356 0096 0199     		ldr	r1, [sp, #4]
 1357 0098 BEE7     		b	.L124
 1358              		.cfi_endproc
ARM GAS  /var/folders/5n/p_75w94d66l9ssrldxqdhh700000gn/T//ccmhGqes.s 			page 25


 1359              	.LFE8:
 1360              		.size	recv_udp, .-recv_udp
 1361 009a 00BFAFF3 		.section	.text.recv_raw,"ax",%progbits
 1361      0080
 1362              		.align	2
 1363              		.p2align 4,,15
 1364              		.thumb
 1365              		.thumb_func
 1366              		.type	recv_raw, %function
 1367              	recv_raw:
 1368              	.LFB7:
 1369              		.loc 1 80 0
 1370              		.cfi_startproc
 1371              		@ args = 0, pretend = 0, frame = 0
 1372              		@ frame_needed = 0, uses_anonymous_args = 0
 1373              	.LVL103:
 1374 0000 2DE9F041 		push	{r4, r5, r6, r7, r8, lr}
 1375              	.LCFI10:
 1376              		.cfi_def_cfa_offset 24
 1377              		.cfi_offset 14, -4
 1378              		.cfi_offset 8, -8
 1379              		.cfi_offset 7, -12
 1380              		.cfi_offset 6, -16
 1381              		.cfi_offset 5, -20
 1382              		.cfi_offset 4, -24
 1383              		.loc 1 88 0
 1384 0004 0446     		mov	r4, r0
 1385              		.loc 1 80 0
 1386 0006 0F46     		mov	r7, r1
 1387 0008 1646     		mov	r6, r2
 1388              		.loc 1 88 0
 1389 000a 28B1     		cbz	r0, .L137
 1390              		.loc 1 88 0 is_stmt 0 discriminator 1
 1391 000c 00F11005 		add	r5, r0, #16
 1392 0010 2846     		mov	r0, r5
 1393              	.LVL104:
 1394 0012 FFF7FEFF 		bl	sys_mbox_valid
 1395              	.LVL105:
 1396 0016 10B9     		cbnz	r0, .L143
 1397              	.LVL106:
 1398              	.L137:
 1399              		.loc 1 133 0 is_stmt 1
 1400 0018 0020     		movs	r0, #0
 1401 001a BDE8F081 		pop	{r4, r5, r6, r7, r8, pc}
 1402              	.LVL107:
 1403              	.L143:
 1404              	.LBB36:
 1405              	.LBB37:
 1406              		.loc 1 97 0
 1407 001e 0320     		movs	r0, #3
 1408 0020 3189     		ldrh	r1, [r6, #8]
 1409 0022 0022     		movs	r2, #0
 1410 0024 FFF7FEFF 		bl	pbuf_alloc
 1411              	.LVL108:
 1412              		.loc 1 98 0
 1413 0028 8046     		mov	r8, r0
 1414 002a 0028     		cmp	r0, #0
ARM GAS  /var/folders/5n/p_75w94d66l9ssrldxqdhh700000gn/T//ccmhGqes.s 			page 26


 1415 002c F4D0     		beq	.L137
 1416              		.loc 1 99 0
 1417 002e 3146     		mov	r1, r6
 1418 0030 FFF7FEFF 		bl	pbuf_copy
 1419              	.LVL109:
 1420 0034 F0B9     		cbnz	r0, .L140
 1421              	.LBB38:
 1422              		.loc 1 107 0
 1423 0036 0720     		movs	r0, #7
 1424 0038 FFF7FEFF 		bl	memp_malloc
 1425              	.LVL110:
 1426              		.loc 1 108 0
 1427 003c 0646     		mov	r6, r0
 1428              	.LVL111:
 1429 003e C8B1     		cbz	r0, .L140
 1430              		.loc 1 115 0
 1431 0040 104B     		ldr	r3, .L145
 1432              		.loc 1 113 0
 1433 0042 C6F80080 		str	r8, [r6, #0]
 1434              		.loc 1 115 0
 1435 0046 1B68     		ldr	r3, [r3, #0]
 1436              		.loc 1 114 0
 1437 0048 C6F80480 		str	r8, [r6, #4]
 1438              		.loc 1 115 0
 1439 004c B360     		str	r3, [r6, #8]
 1440              		.loc 1 116 0
 1441 004e 3B7C     		ldrb	r3, [r7, #16]	@ zero_extendqisi2
 1442              		.loc 1 118 0
 1443 0050 B8F80870 		ldrh	r7, [r8, #8]
 1444              	.LVL112:
 1445              		.loc 1 116 0
 1446 0054 B381     		strh	r3, [r6, #12]	@ movhi
 1447              		.loc 1 119 0
 1448 0056 3146     		mov	r1, r6
 1449 0058 2846     		mov	r0, r5
 1450              	.LVL113:
 1451 005a FFF7FEFF 		bl	sys_mbox_trypost
 1452              	.LVL114:
 1453 005e 0146     		mov	r1, r0
 1454 0060 60B9     		cbnz	r0, .L144
 1455              		.loc 1 127 0
 1456 0062 A36A     		ldr	r3, [r4, #40]
 1457 0064 002B     		cmp	r3, #0
 1458 0066 D7D0     		beq	.L137
 1459 0068 2046     		mov	r0, r4
 1460 006a 3A46     		mov	r2, r7
 1461 006c 9847     		blx	r3
 1462              	.LBE38:
 1463              	.LBE37:
 1464              	.LBE36:
 1465              		.loc 1 133 0
 1466 006e 0020     		movs	r0, #0
 1467 0070 BDE8F081 		pop	{r4, r5, r6, r7, r8, pc}
 1468              	.LVL115:
 1469              	.L140:
 1470              	.LBB41:
 1471              	.LBB40:
ARM GAS  /var/folders/5n/p_75w94d66l9ssrldxqdhh700000gn/T//ccmhGqes.s 			page 27


 1472              	.LBB39:
 1473              		.loc 1 109 0
 1474 0074 4046     		mov	r0, r8
 1475 0076 FFF7FEFF 		bl	pbuf_free
 1476 007a CDE7     		b	.L137
 1477              	.LVL116:
 1478              	.L144:
 1479              		.loc 1 120 0
 1480 007c 3046     		mov	r0, r6
 1481 007e FFF7FEFF 		bl	netbuf_delete
 1482 0082 C9E7     		b	.L137
 1483              	.L146:
 1484              		.align	2
 1485              	.L145:
 1486 0084 00000000 		.word	current_iphdr_src
 1487              	.LBE39:
 1488              	.LBE40:
 1489              	.LBE41:
 1490              		.cfi_endproc
 1491              	.LFE7:
 1492              		.size	recv_raw, .-recv_raw
 1493 0088 AFF30080 		.section	.text.do_newconn,"ax",%progbits
 1493      AFF30080 
 1494              		.align	2
 1495              		.p2align 4,,15
 1496              		.global	do_newconn
 1497              		.thumb
 1498              		.thumb_func
 1499              		.type	do_newconn, %function
 1500              	do_newconn:
 1501              	.LFB16:
 1502              		.loc 1 541 0
 1503              		.cfi_startproc
 1504              		@ args = 0, pretend = 0, frame = 0
 1505              		@ frame_needed = 0, uses_anonymous_args = 0
 1506              	.LVL117:
 1507 0000 38B5     		push	{r3, r4, r5, lr}
 1508              	.LCFI11:
 1509              		.cfi_def_cfa_offset 16
 1510              		.cfi_offset 14, -4
 1511              		.cfi_offset 5, -8
 1512              		.cfi_offset 4, -12
 1513              		.cfi_offset 3, -16
 1514              		.loc 1 542 0
 1515 0002 0023     		movs	r3, #0
 1516              		.loc 1 543 0
 1517 0004 0568     		ldr	r5, [r0, #0]
 1518              		.loc 1 542 0
 1519 0006 0371     		strb	r3, [r0, #4]
 1520              		.loc 1 543 0
 1521 0008 6B68     		ldr	r3, [r5, #4]
 1522              		.loc 1 541 0
 1523 000a 0446     		mov	r4, r0
 1524              		.loc 1 543 0
 1525 000c 2BB1     		cbz	r3, .L159
 1526              	.LVL118:
 1527              	.L148:
ARM GAS  /var/folders/5n/p_75w94d66l9ssrldxqdhh700000gn/T//ccmhGqes.s 			page 28


 1528              		.loc 1 550 0
 1529 000e 05F10C00 		add	r0, r5, #12
 1530              		.loc 1 551 0
 1531 0012 BDE83840 		pop	{r3, r4, r5, lr}
 1532              		.loc 1 550 0
 1533 0016 FFF7FEBF 		b	sys_sem_signal
 1534              	.L159:
 1535              	.LVL119:
 1536              	.LBB44:
 1537              	.LBB45:
 1538              		.loc 1 487 0
 1539 001a 2B78     		ldrb	r3, [r5, #0]	@ zero_extendqisi2
 1540 001c 03F0F003 		and	r3, r3, #240
 1541 0020 202B     		cmp	r3, #32
 1542 0022 1ED0     		beq	.L151
 1543 0024 402B     		cmp	r3, #64
 1544 0026 0FD0     		beq	.L152
 1545 0028 102B     		cmp	r3, #16
 1546 002a 02D0     		beq	.L160
 1547              		.loc 1 528 0
 1548 002c FA23     		movs	r3, #250
 1549 002e 0371     		strb	r3, [r0, #4]
 1550 0030 EDE7     		b	.L148
 1551              	.L160:
 1552              		.loc 1 518 0
 1553 0032 FFF7FEFF 		bl	tcp_new
 1554 0036 6860     		str	r0, [r5, #4]
 1555              		.loc 1 519 0
 1556 0038 2568     		ldr	r5, [r4, #0]
 1557 003a 6B68     		ldr	r3, [r5, #4]
 1558 003c 23B3     		cbz	r3, .L158
 1559              		.loc 1 523 0
 1560 003e 2846     		mov	r0, r5
 1561 0040 FFF7FEFF 		bl	setup_tcp
 1562 0044 2568     		ldr	r5, [r4, #0]
 1563 0046 E2E7     		b	.L148
 1564              	.L152:
 1565              		.loc 1 490 0
 1566 0048 007A     		ldrb	r0, [r0, #8]	@ zero_extendqisi2
 1567 004a FFF7FEFF 		bl	raw_new
 1568 004e 6860     		str	r0, [r5, #4]
 1569              		.loc 1 491 0
 1570 0050 2568     		ldr	r5, [r4, #0]
 1571 0052 6868     		ldr	r0, [r5, #4]
 1572 0054 C0B1     		cbz	r0, .L158
 1573              		.loc 1 495 0
 1574 0056 2A46     		mov	r2, r5
 1575 0058 0D49     		ldr	r1, .L161
 1576 005a FFF7FEFF 		bl	raw_recv
 1577 005e 2568     		ldr	r5, [r4, #0]
 1578 0060 D5E7     		b	.L148
 1579              	.L151:
 1580              		.loc 1 500 0
 1581 0062 FFF7FEFF 		bl	udp_new
 1582 0066 6860     		str	r0, [r5, #4]
 1583              		.loc 1 501 0
 1584 0068 2568     		ldr	r5, [r4, #0]
ARM GAS  /var/folders/5n/p_75w94d66l9ssrldxqdhh700000gn/T//ccmhGqes.s 			page 29


 1585 006a 6868     		ldr	r0, [r5, #4]
 1586 006c 60B1     		cbz	r0, .L158
 1587              		.loc 1 510 0
 1588 006e 2B78     		ldrb	r3, [r5, #0]	@ zero_extendqisi2
 1589 0070 222B     		cmp	r3, #34
 1590 0072 03D1     		bne	.L155
 1591              		.loc 1 511 0
 1592 0074 0123     		movs	r3, #1
 1593 0076 0374     		strb	r3, [r0, #16]
 1594 0078 2568     		ldr	r5, [r4, #0]
 1595 007a 6868     		ldr	r0, [r5, #4]
 1596              	.L155:
 1597              		.loc 1 513 0
 1598 007c 2A46     		mov	r2, r5
 1599 007e 0549     		ldr	r1, .L161+4
 1600 0080 FFF7FEFF 		bl	udp_recv
 1601 0084 2568     		ldr	r5, [r4, #0]
 1602 0086 C2E7     		b	.L148
 1603              	.L158:
 1604              		.loc 1 520 0
 1605 0088 FF23     		movs	r3, #255
 1606 008a 2371     		strb	r3, [r4, #4]
 1607 008c BFE7     		b	.L148
 1608              	.L162:
 1609 008e 00BF     		.align	2
 1610              	.L161:
 1611 0090 00000000 		.word	recv_raw
 1612 0094 00000000 		.word	recv_udp
 1613              	.LBE45:
 1614              	.LBE44:
 1615              		.cfi_endproc
 1616              	.LFE16:
 1617              		.size	do_newconn, .-do_newconn
 1618 0098 AFF30080 		.section	.text.netconn_alloc,"ax",%progbits
 1618      AFF30080 
 1619              		.align	2
 1620              		.p2align 4,,15
 1621              		.global	netconn_alloc
 1622              		.thumb
 1623              		.thumb_func
 1624              		.type	netconn_alloc, %function
 1625              	netconn_alloc:
 1626              	.LFB17:
 1627              		.loc 1 565 0
 1628              		.cfi_startproc
 1629              		@ args = 0, pretend = 0, frame = 0
 1630              		@ frame_needed = 0, uses_anonymous_args = 0
 1631              	.LVL120:
 1632 0000 2DE9F041 		push	{r4, r5, r6, r7, r8, lr}
 1633              	.LCFI12:
 1634              		.cfi_def_cfa_offset 24
 1635              		.cfi_offset 14, -4
 1636              		.cfi_offset 8, -8
 1637              		.cfi_offset 7, -12
 1638              		.cfi_offset 6, -16
 1639              		.cfi_offset 5, -20
 1640              		.cfi_offset 4, -24
ARM GAS  /var/folders/5n/p_75w94d66l9ssrldxqdhh700000gn/T//ccmhGqes.s 			page 30


 1641              		.loc 1 565 0
 1642 0004 0546     		mov	r5, r0
 1643              		.loc 1 569 0
 1644 0006 0820     		movs	r0, #8
 1645              	.LVL121:
 1646              		.loc 1 565 0
 1647 0008 0F46     		mov	r7, r1
 1648              		.loc 1 569 0
 1649 000a FFF7FEFF 		bl	memp_malloc
 1650              	.LVL122:
 1651              		.loc 1 570 0
 1652 000e 0446     		mov	r4, r0
 1653 0010 60B3     		cbz	r0, .L164
 1654              		.loc 1 582 0
 1655 0012 05F0F003 		and	r3, r5, #240
 1656              		.loc 1 574 0
 1657 0016 0022     		movs	r2, #0
 1658              		.loc 1 582 0
 1659 0018 202B     		cmp	r3, #32
 1660              		.loc 1 574 0
 1661 001a 0272     		strb	r2, [r0, #8]
 1662              		.loc 1 575 0
 1663 001c 0570     		strb	r5, [r0, #0]
 1664              		.loc 1 576 0
 1665 001e 4260     		str	r2, [r0, #4]
 1666              		.loc 1 582 0
 1667 0020 27D0     		beq	.L167
 1668 0022 402B     		cmp	r3, #64
 1669 0024 25D0     		beq	.L167
 1670 0026 102B     		cmp	r3, #16
 1671 0028 26D0     		beq	.L172
 1672              		.loc 1 599 0 discriminator 1
 1673 002a FFF7FEFF 		bl	port_halt
 1674              	.LVL123:
 1675              	.L166:
 1676              		.loc 1 604 0
 1677 002e 04F10C06 		add	r6, r4, #12
 1678 0032 3046     		mov	r0, r6
 1679 0034 0021     		movs	r1, #0
 1680 0036 FFF7FEFF 		bl	sys_sem_new
 1681 003a 0546     		mov	r5, r0
 1682 003c F8B9     		cbnz	r0, .L173
 1683              		.loc 1 608 0
 1684 003e 4146     		mov	r1, r8
 1685 0040 04F11000 		add	r0, r4, #16
 1686 0044 FFF7FEFF 		bl	sys_mbox_new
 1687 0048 8046     		mov	r8, r0
 1688              	.LVL124:
 1689 004a F0B9     		cbnz	r0, .L174
 1690              		.loc 1 615 0
 1691 004c 04F11400 		add	r0, r4, #20
 1692 0050 FFF7FEFF 		bl	sys_mbox_set_invalid
 1693              		.loc 1 620 0
 1694 0054 4FF0FF33 		mov	r3, #-1
 1695              		.loc 1 617 0
 1696 0058 84F80180 		strb	r8, [r4, #1]
 1697              		.loc 1 620 0
ARM GAS  /var/folders/5n/p_75w94d66l9ssrldxqdhh700000gn/T//ccmhGqes.s 			page 31


 1698 005c A361     		str	r3, [r4, #24]
 1699              		.loc 1 622 0
 1700 005e A762     		str	r7, [r4, #40]
 1701              		.loc 1 624 0
 1702 0060 C4F82480 		str	r8, [r4, #36]
 1703              		.loc 1 625 0
 1704 0064 C4F82080 		str	r8, [r4, #32]
 1705              		.loc 1 634 0
 1706 0068 84F81C80 		strb	r8, [r4, #28]
 1707              	.LVL125:
 1708              	.L164:
 1709              		.loc 1 636 0
 1710 006c 2046     		mov	r0, r4
 1711 006e BDE8F081 		pop	{r4, r5, r6, r7, r8, pc}
 1712              	.LVL126:
 1713              	.L167:
 1714              		.loc 1 585 0
 1715 0072 4FF00408 		mov	r8, #4
 1716 0076 DAE7     		b	.L166
 1717              	.L172:
 1718              		.loc 1 595 0
 1719 0078 4FF02808 		mov	r8, #40
 1720 007c D7E7     		b	.L166
 1721              	.LVL127:
 1722              	.L173:
 1723              		.loc 1 605 0
 1724 007e 2146     		mov	r1, r4
 1725 0080 0820     		movs	r0, #8
 1726 0082 FFF7FEFF 		bl	memp_free
 1727              		.loc 1 606 0
 1728 0086 0024     		movs	r4, #0
 1729              	.LVL128:
 1730 0088 F0E7     		b	.L164
 1731              	.LVL129:
 1732              	.L174:
 1733              		.loc 1 609 0
 1734 008a 3046     		mov	r0, r6
 1735 008c FFF7FEFF 		bl	sys_sem_free
 1736              		.loc 1 610 0
 1737 0090 2146     		mov	r1, r4
 1738 0092 0820     		movs	r0, #8
 1739 0094 FFF7FEFF 		bl	memp_free
 1740              		.loc 1 611 0
 1741 0098 2C46     		mov	r4, r5
 1742 009a E7E7     		b	.L164
 1743              		.cfi_endproc
 1744              	.LFE17:
 1745              		.size	netconn_alloc, .-netconn_alloc
 1746 009c AFF30080 		.section	.text.netconn_free,"ax",%progbits
 1747              		.align	2
 1748              		.p2align 4,,15
 1749              		.global	netconn_free
 1750              		.thumb
 1751              		.thumb_func
 1752              		.type	netconn_free, %function
 1753              	netconn_free:
 1754              	.LFB18:
ARM GAS  /var/folders/5n/p_75w94d66l9ssrldxqdhh700000gn/T//ccmhGqes.s 			page 32


 1755              		.loc 1 646 0
 1756              		.cfi_startproc
 1757              		@ args = 0, pretend = 0, frame = 0
 1758              		@ frame_needed = 0, uses_anonymous_args = 0
 1759              	.LVL130:
 1760 0000 38B5     		push	{r3, r4, r5, lr}
 1761              	.LCFI13:
 1762              		.cfi_def_cfa_offset 16
 1763              		.cfi_offset 14, -4
 1764              		.cfi_offset 5, -8
 1765              		.cfi_offset 4, -12
 1766              		.cfi_offset 3, -16
 1767              		.loc 1 647 0
 1768 0002 4368     		ldr	r3, [r0, #4]
 1769              		.loc 1 646 0
 1770 0004 0446     		mov	r4, r0
 1771              		.loc 1 647 0
 1772 0006 0BB1     		cbz	r3, .L176
 1773              		.loc 1 647 0 is_stmt 0 discriminator 1
 1774 0008 FFF7FEFF 		bl	port_halt
 1775              	.LVL131:
 1776              	.L176:
 1777              		.loc 1 648 0 is_stmt 1
 1778 000c 04F11000 		add	r0, r4, #16
 1779 0010 FFF7FEFF 		bl	sys_mbox_valid
 1780 0014 A0B9     		cbnz	r0, .L179
 1781              	.L177:
 1782              		.loc 1 651 0
 1783 0016 04F11400 		add	r0, r4, #20
 1784 001a FFF7FEFF 		bl	sys_mbox_valid
 1785 001e 08B1     		cbz	r0, .L178
 1786              		.loc 1 651 0 is_stmt 0 discriminator 1
 1787 0020 FFF7FEFF 		bl	port_halt
 1788              	.L178:
 1789              		.loc 1 655 0 is_stmt 1
 1790 0024 04F10C05 		add	r5, r4, #12
 1791 0028 2846     		mov	r0, r5
 1792 002a FFF7FEFF 		bl	sys_sem_free
 1793              		.loc 1 656 0
 1794 002e 2846     		mov	r0, r5
 1795 0030 FFF7FEFF 		bl	sys_sem_set_invalid
 1796              		.loc 1 658 0
 1797 0034 0820     		movs	r0, #8
 1798 0036 2146     		mov	r1, r4
 1799              		.loc 1 659 0
 1800 0038 BDE83840 		pop	{r3, r4, r5, lr}
 1801              		.loc 1 658 0
 1802 003c FFF7FEBF 		b	memp_free
 1803              	.L179:
 1804              		.loc 1 648 0 discriminator 1
 1805 0040 FFF7FEFF 		bl	port_halt
 1806 0044 E7E7     		b	.L177
 1807              		.cfi_endproc
 1808              	.LFE18:
 1809              		.size	netconn_free, .-netconn_free
 1810 0046 00BFAFF3 		.section	.text.netconn_drain,"ax",%progbits
 1810      0080AFF3 
ARM GAS  /var/folders/5n/p_75w94d66l9ssrldxqdhh700000gn/T//ccmhGqes.s 			page 33


 1810      0080
 1811              		.align	2
 1812              		.p2align 4,,15
 1813              		.thumb
 1814              		.thumb_func
 1815              		.type	netconn_drain, %function
 1816              	netconn_drain:
 1817              	.LFB19:
 1818              		.loc 1 671 0
 1819              		.cfi_startproc
 1820              		@ args = 0, pretend = 0, frame = 8
 1821              		@ frame_needed = 0, uses_anonymous_args = 0
 1822              	.LVL132:
 1823 0000 2DE9F041 		push	{r4, r5, r6, r7, r8, lr}
 1824              	.LCFI14:
 1825              		.cfi_def_cfa_offset 24
 1826              		.cfi_offset 14, -4
 1827              		.cfi_offset 8, -8
 1828              		.cfi_offset 7, -12
 1829              		.cfi_offset 6, -16
 1830              		.cfi_offset 5, -20
 1831              		.cfi_offset 4, -24
 1832              		.loc 1 680 0
 1833 0004 00F11006 		add	r6, r0, #16
 1834              		.loc 1 671 0
 1835 0008 0446     		mov	r4, r0
 1836 000a 82B0     		sub	sp, sp, #8
 1837              	.LCFI15:
 1838              		.cfi_def_cfa_offset 32
 1839              		.loc 1 680 0
 1840 000c 3046     		mov	r0, r6
 1841              	.LVL133:
 1842 000e FFF7FEFF 		bl	sys_mbox_valid
 1843 0012 00B3     		cbz	r0, .L182
 1844 0014 01AD     		add	r5, sp, #4
 1845              	.LVL134:
 1846              	.L196:
 1847              		.loc 1 681 0 discriminator 1
 1848 0016 2946     		mov	r1, r5
 1849 0018 3046     		mov	r0, r6
 1850 001a FFF7FEFF 		bl	sys_arch_mbox_tryfetch
 1851 001e 0130     		adds	r0, r0, #1
 1852 0020 13D0     		beq	.L197
 1853              		.loc 1 683 0
 1854 0022 2378     		ldrb	r3, [r4, #0]	@ zero_extendqisi2
 1855 0024 102B     		cmp	r3, #16
 1856 0026 0CD1     		bne	.L183
 1857              		.loc 1 684 0
 1858 0028 019F     		ldr	r7, [sp, #4]
 1859 002a 002F     		cmp	r7, #0
 1860 002c F3D0     		beq	.L196
 1861              	.LVL135:
 1862              		.loc 1 687 0
 1863 002e 6368     		ldr	r3, [r4, #4]
 1864              		.loc 1 688 0
 1865 0030 1846     		mov	r0, r3
 1866              		.loc 1 687 0
ARM GAS  /var/folders/5n/p_75w94d66l9ssrldxqdhh700000gn/T//ccmhGqes.s 			page 34


 1867 0032 13B1     		cbz	r3, .L185
 1868              		.loc 1 688 0
 1869 0034 3989     		ldrh	r1, [r7, #8]
 1870 0036 FFF7FEFF 		bl	tcp_recved
 1871              	.LVL136:
 1872              	.L185:
 1873              		.loc 1 690 0
 1874 003a 3846     		mov	r0, r7
 1875 003c FFF7FEFF 		bl	pbuf_free
 1876 0040 E9E7     		b	.L196
 1877              	.LVL137:
 1878              	.L183:
 1879              		.loc 1 695 0
 1880 0042 0198     		ldr	r0, [sp, #4]
 1881 0044 FFF7FEFF 		bl	netbuf_delete
 1882 0048 E5E7     		b	.L196
 1883              	.L197:
 1884              		.loc 1 698 0
 1885 004a 3046     		mov	r0, r6
 1886 004c FFF7FEFF 		bl	sys_mbox_free
 1887              		.loc 1 699 0
 1888 0050 3046     		mov	r0, r6
 1889 0052 FFF7FEFF 		bl	sys_mbox_set_invalid
 1890              	.L182:
 1891              		.loc 1 704 0
 1892 0056 04F11406 		add	r6, r4, #20
 1893 005a 3046     		mov	r0, r6
 1894 005c FFF7FEFF 		bl	sys_mbox_valid
 1895 0060 28B3     		cbz	r0, .L180
 1896 0062 01AD     		add	r5, sp, #4
 1897              	.LBB46:
 1898              		.loc 1 716 0
 1899 0064 0027     		movs	r7, #0
 1900 0066 16E0     		b	.L187
 1901              	.L191:
 1902              		.loc 1 709 0
 1903 0068 6368     		ldr	r3, [r4, #4]
 1904              		.loc 1 706 0
 1905 006a DDF80480 		ldr	r8, [sp, #4]
 1906              	.LVL138:
 1907              		.loc 1 709 0
 1908 006e 23B1     		cbz	r3, .L189
 1909              		.loc 1 710 0
 1910 0070 1B7C     		ldrb	r3, [r3, #16]	@ zero_extendqisi2
 1911 0072 012B     		cmp	r3, #1
 1912 0074 01D0     		beq	.L189
 1913              		.loc 1 710 0 is_stmt 0 discriminator 1
 1914 0076 FFF7FEFF 		bl	port_halt
 1915              	.LVL139:
 1916              	.L189:
 1917              		.loc 1 713 0 is_stmt 1
 1918 007a 4046     		mov	r0, r8
 1919 007c FFF7C0FF 		bl	netconn_drain
 1920              		.loc 1 714 0
 1921 0080 D8F80430 		ldr	r3, [r8, #4]
 1922              		.loc 1 715 0
 1923 0084 1846     		mov	r0, r3
ARM GAS  /var/folders/5n/p_75w94d66l9ssrldxqdhh700000gn/T//ccmhGqes.s 			page 35


 1924              		.loc 1 714 0
 1925 0086 1BB1     		cbz	r3, .L190
 1926              		.loc 1 715 0
 1927 0088 FFF7FEFF 		bl	tcp_abort
 1928              		.loc 1 716 0
 1929 008c C8F80470 		str	r7, [r8, #4]
 1930              	.L190:
 1931              		.loc 1 718 0
 1932 0090 4046     		mov	r0, r8
 1933 0092 FFF7FEFF 		bl	netconn_free
 1934              	.LVL140:
 1935              	.L187:
 1936              	.LBE46:
 1937              		.loc 1 705 0 discriminator 1
 1938 0096 2946     		mov	r1, r5
 1939 0098 3046     		mov	r0, r6
 1940 009a FFF7FEFF 		bl	sys_arch_mbox_tryfetch
 1941 009e 0130     		adds	r0, r0, #1
 1942 00a0 E2D1     		bne	.L191
 1943              		.loc 1 720 0
 1944 00a2 3046     		mov	r0, r6
 1945 00a4 FFF7FEFF 		bl	sys_mbox_free
 1946              		.loc 1 721 0
 1947 00a8 3046     		mov	r0, r6
 1948 00aa FFF7FEFF 		bl	sys_mbox_set_invalid
 1949              	.L180:
 1950              		.loc 1 724 0
 1951 00ae 02B0     		add	sp, sp, #8
 1952 00b0 BDE8F081 		pop	{r4, r5, r6, r7, r8, pc}
 1953              		.cfi_endproc
 1954              	.LFE19:
 1955              		.size	netconn_drain, .-netconn_drain
 1956 00b4 AFF30080 		.section	.text.accept_function,"ax",%progbits
 1956      AFF30080 
 1956      AFF30080 
 1957              		.align	2
 1958              		.p2align 4,,15
 1959              		.thumb
 1960              		.thumb_func
 1961              		.type	accept_function, %function
 1962              	accept_function:
 1963              	.LFB14:
 1964              		.loc 1 433 0
 1965              		.cfi_startproc
 1966              		@ args = 0, pretend = 0, frame = 0
 1967              		@ frame_needed = 0, uses_anonymous_args = 0
 1968              	.LVL141:
 1969 0000 2DE9F041 		push	{r4, r5, r6, r7, r8, lr}
 1970              	.LCFI16:
 1971              		.cfi_def_cfa_offset 24
 1972              		.cfi_offset 14, -4
 1973              		.cfi_offset 8, -8
 1974              		.cfi_offset 7, -12
 1975              		.cfi_offset 6, -16
 1976              		.cfi_offset 5, -20
 1977              		.cfi_offset 4, -24
 1978              		.loc 1 439 0
ARM GAS  /var/folders/5n/p_75w94d66l9ssrldxqdhh700000gn/T//ccmhGqes.s 			page 36


 1979 0004 00F11405 		add	r5, r0, #20
 1980              		.loc 1 433 0
 1981 0008 0446     		mov	r4, r0
 1982              	.LVL142:
 1983              		.loc 1 439 0
 1984 000a 2846     		mov	r0, r5
 1985              	.LVL143:
 1986              		.loc 1 433 0
 1987 000c 0E46     		mov	r6, r1
 1988 000e 9046     		mov	r8, r2
 1989              		.loc 1 439 0
 1990 0010 FFF7FEFF 		bl	sys_mbox_valid
 1991              	.LVL144:
 1992 0014 E8B1     		cbz	r0, .L201
 1993              		.loc 1 446 0
 1994 0016 2078     		ldrb	r0, [r4, #0]	@ zero_extendqisi2
 1995 0018 A16A     		ldr	r1, [r4, #40]
 1996 001a FFF7FEFF 		bl	netconn_alloc
 1997              	.LVL145:
 1998              		.loc 1 447 0
 1999 001e 0746     		mov	r7, r0
 2000 0020 C8B1     		cbz	r0, .L202
 2001              		.loc 1 450 0
 2002 0022 4660     		str	r6, [r0, #4]
 2003              		.loc 1 451 0
 2004 0024 FFF7FEFF 		bl	setup_tcp
 2005              	.LVL146:
 2006              		.loc 1 456 0
 2007 0028 2846     		mov	r0, r5
 2008              		.loc 1 454 0
 2009 002a 87F80880 		strb	r8, [r7, #8]
 2010              		.loc 1 456 0
 2011 002e 3946     		mov	r1, r7
 2012 0030 FFF7FEFF 		bl	sys_mbox_trypost
 2013 0034 0546     		mov	r5, r0
 2014              	.LVL147:
 2015 0036 80B9     		cbnz	r0, .L204
 2016              		.loc 1 467 0
 2017 0038 A36A     		ldr	r3, [r4, #40]
 2018 003a 33B1     		cbz	r3, .L203
 2019              		.loc 1 467 0 is_stmt 0 discriminator 1
 2020 003c 2046     		mov	r0, r4
 2021 003e 2946     		mov	r1, r5
 2022 0040 2A46     		mov	r2, r5
 2023 0042 9847     		blx	r3
 2024              	.LVL148:
 2025              	.L199:
 2026              		.loc 1 471 0 is_stmt 1
 2027 0044 68B2     		sxtb	r0, r5
 2028 0046 BDE8F081 		pop	{r4, r5, r6, r7, r8, pc}
 2029              	.LVL149:
 2030              	.L203:
 2031              		.loc 1 470 0
 2032 004a 1D46     		mov	r5, r3
 2033              		.loc 1 471 0
 2034 004c 68B2     		sxtb	r0, r5
 2035 004e BDE8F081 		pop	{r4, r5, r6, r7, r8, pc}
ARM GAS  /var/folders/5n/p_75w94d66l9ssrldxqdhh700000gn/T//ccmhGqes.s 			page 37


 2036              	.LVL150:
 2037              	.L201:
 2038              		.loc 1 441 0
 2039 0052 FA25     		movs	r5, #250
 2040 0054 F6E7     		b	.L199
 2041              	.LVL151:
 2042              	.L202:
 2043              		.loc 1 448 0
 2044 0056 FF25     		movs	r5, #255
 2045 0058 F4E7     		b	.L199
 2046              	.LVL152:
 2047              	.L204:
 2048              		.loc 1 459 0
 2049 005a 0023     		movs	r3, #0
 2050              		.loc 1 461 0
 2051 005c 07F11004 		add	r4, r7, #16
 2052              	.LVL153:
 2053              		.loc 1 459 0
 2054 0060 7B60     		str	r3, [r7, #4]
 2055              		.loc 1 461 0
 2056 0062 2046     		mov	r0, r4
 2057 0064 FFF7FEFF 		bl	sys_mbox_free
 2058              		.loc 1 462 0
 2059 0068 2046     		mov	r0, r4
 2060 006a FFF7FEFF 		bl	sys_mbox_set_invalid
 2061              		.loc 1 463 0
 2062 006e 3846     		mov	r0, r7
 2063 0070 FFF7FEFF 		bl	netconn_free
 2064              		.loc 1 464 0
 2065 0074 FF25     		movs	r5, #255
 2066 0076 E5E7     		b	.L199
 2067              		.cfi_endproc
 2068              	.LFE14:
 2069              		.size	accept_function, .-accept_function
 2070 0078 AFF30080 		.section	.text.do_delconn,"ax",%progbits
 2070      AFF30080 
 2071              		.align	2
 2072              		.p2align 4,,15
 2073              		.global	do_delconn
 2074              		.thumb
 2075              		.thumb_func
 2076              		.type	do_delconn, %function
 2077              	do_delconn:
 2078              	.LFB21:
 2079              		.loc 1 821 0
 2080              		.cfi_startproc
 2081              		@ args = 0, pretend = 0, frame = 0
 2082              		@ frame_needed = 0, uses_anonymous_args = 0
 2083              	.LVL154:
 2084              		.loc 1 823 0
 2085 0000 0268     		ldr	r2, [r0, #0]
 2086 0002 5378     		ldrb	r3, [r2, #1]	@ zero_extendqisi2
 2087 0004 022B     		cmp	r3, #2
 2088 0006 18BF     		it	ne
 2089 0008 002B     		cmpne	r3, #0
 2090              		.loc 1 821 0
 2091 000a 10B5     		push	{r4, lr}
ARM GAS  /var/folders/5n/p_75w94d66l9ssrldxqdhh700000gn/T//ccmhGqes.s 			page 38


 2092              	.LCFI17:
 2093              		.cfi_def_cfa_offset 8
 2094              		.cfi_offset 14, -4
 2095              		.cfi_offset 4, -8
 2096              		.loc 1 821 0
 2097 000c 0446     		mov	r4, r0
 2098              		.loc 1 823 0
 2099 000e 10D0     		beq	.L206
 2100              		.loc 1 824 0
 2101 0010 032B     		cmp	r3, #3
 2102 0012 48D0     		beq	.L207
 2103              		.loc 1 827 0
 2104 0014 1378     		ldrb	r3, [r2, #0]	@ zero_extendqisi2
 2105 0016 102B     		cmp	r3, #16
 2106 0018 02D0     		beq	.L208
 2107              		.loc 1 827 0 is_stmt 0 discriminator 1
 2108 001a FFF7FEFF 		bl	port_halt
 2109              	.LVL155:
 2110 001e 2268     		ldr	r2, [r4, #0]
 2111              	.L208:
 2112              		.loc 1 828 0 is_stmt 1
 2113 0020 FB23     		movs	r3, #251
 2114 0022 2371     		strb	r3, [r4, #4]
 2115              	.L209:
 2116              		.loc 1 873 0
 2117 0024 02F10C00 		add	r0, r2, #12
 2118 0028 FFF7FEFF 		bl	sys_sem_valid
 2119 002c 0028     		cmp	r0, #0
 2120 002e 2AD1     		bne	.L219
 2121              	.L205:
 2122 0030 10BD     		pop	{r4, pc}
 2123              	.L206:
 2124              		.loc 1 830 0
 2125 0032 032B     		cmp	r3, #3
 2126 0034 37D0     		beq	.L207
 2127              	.L210:
 2128              		.loc 1 833 0
 2129 0036 1046     		mov	r0, r2
 2130 0038 FFF7FEFF 		bl	netconn_drain
 2131              		.loc 1 835 0
 2132 003c 2268     		ldr	r2, [r4, #0]
 2133 003e 5068     		ldr	r0, [r2, #4]
 2134 0040 58B1     		cbz	r0, .L211
 2135              		.loc 1 837 0
 2136 0042 1378     		ldrb	r3, [r2, #0]	@ zero_extendqisi2
 2137 0044 03F0F003 		and	r3, r3, #240
 2138 0048 202B     		cmp	r3, #32
 2139 004a 22D0     		beq	.L214
 2140 004c 402B     		cmp	r3, #64
 2141 004e 40D0     		beq	.L215
 2142 0050 102B     		cmp	r3, #16
 2143 0052 2FD0     		beq	.L220
 2144              		.loc 1 864 0
 2145 0054 0023     		movs	r3, #0
 2146 0056 5360     		str	r3, [r2, #4]
 2147 0058 2268     		ldr	r2, [r4, #0]
 2148              	.L211:
ARM GAS  /var/folders/5n/p_75w94d66l9ssrldxqdhh700000gn/T//ccmhGqes.s 			page 39


 2149              		.loc 1 870 0
 2150 005a 936A     		ldr	r3, [r2, #40]
 2151 005c 002B     		cmp	r3, #0
 2152 005e E1D0     		beq	.L209
 2153              		.loc 1 870 0 is_stmt 0 discriminator 1
 2154 0060 0021     		movs	r1, #0
 2155 0062 1046     		mov	r0, r2
 2156 0064 0A46     		mov	r2, r1
 2157 0066 9847     		blx	r3
 2158              		.loc 1 871 0 is_stmt 1 discriminator 1
 2159 0068 2268     		ldr	r2, [r4, #0]
 2160 006a 936A     		ldr	r3, [r2, #40]
 2161 006c 002B     		cmp	r3, #0
 2162 006e D9D0     		beq	.L209
 2163 0070 1046     		mov	r0, r2
 2164 0072 0221     		movs	r1, #2
 2165 0074 0022     		movs	r2, #0
 2166 0076 9847     		blx	r3
 2167 0078 2268     		ldr	r2, [r4, #0]
 2168              		.loc 1 873 0 discriminator 1
 2169 007a 02F10C00 		add	r0, r2, #12
 2170 007e FFF7FEFF 		bl	sys_sem_valid
 2171 0082 0028     		cmp	r0, #0
 2172 0084 D4D0     		beq	.L205
 2173              	.L219:
 2174              		.loc 1 874 0
 2175 0086 2068     		ldr	r0, [r4, #0]
 2176 0088 0C30     		adds	r0, r0, #12
 2177              		.loc 1 876 0
 2178 008a BDE81040 		pop	{r4, lr}
 2179              		.loc 1 874 0
 2180 008e FFF7FEBF 		b	sys_sem_signal
 2181              	.L214:
 2182              		.loc 1 845 0
 2183 0092 0023     		movs	r3, #0
 2184 0094 C361     		str	r3, [r0, #28]
 2185              		.loc 1 846 0
 2186 0096 5068     		ldr	r0, [r2, #4]
 2187 0098 FFF7FEFF 		bl	udp_remove
 2188 009c 2268     		ldr	r2, [r4, #0]
 2189              		.loc 1 864 0
 2190 009e 0023     		movs	r3, #0
 2191 00a0 5360     		str	r3, [r2, #4]
 2192 00a2 2268     		ldr	r2, [r4, #0]
 2193 00a4 D9E7     		b	.L211
 2194              	.L207:
 2195              		.loc 1 830 0 discriminator 1
 2196 00a6 137F     		ldrb	r3, [r2, #28]	@ zero_extendqisi2
 2197 00a8 5907     		lsls	r1, r3, #29
 2198 00aa C4D4     		bmi	.L210
 2199              		.loc 1 830 0 is_stmt 0 discriminator 2
 2200 00ac FFF7FEFF 		bl	port_halt
 2201 00b0 2268     		ldr	r2, [r4, #0]
 2202 00b2 C0E7     		b	.L210
 2203              	.L220:
 2204              		.loc 1 851 0 is_stmt 1
 2205 00b4 536A     		ldr	r3, [r2, #36]
ARM GAS  /var/folders/5n/p_75w94d66l9ssrldxqdhh700000gn/T//ccmhGqes.s 			page 40


 2206 00b6 9BB1     		cbz	r3, .L221
 2207              	.L216:
 2208              		.loc 1 851 0 is_stmt 0 discriminator 1
 2209 00b8 FFF7FEFF 		bl	port_halt
 2210 00bc 2268     		ldr	r2, [r4, #0]
 2211              	.L217:
 2212              		.loc 1 853 0 is_stmt 1
 2213 00be 0423     		movs	r3, #4
 2214 00c0 5370     		strb	r3, [r2, #1]
 2215              		.loc 1 856 0
 2216 00c2 1046     		mov	r0, r2
 2217              		.loc 1 854 0
 2218 00c4 0323     		movs	r3, #3
 2219 00c6 2372     		strb	r3, [r4, #8]
 2220              		.loc 1 855 0
 2221 00c8 5462     		str	r4, [r2, #36]
 2222              		.loc 1 876 0
 2223 00ca BDE81040 		pop	{r4, lr}
 2224              		.loc 1 856 0
 2225 00ce FFF7FEBF 		b	do_close_internal
 2226              	.L215:
 2227              		.loc 1 840 0
 2228 00d2 FFF7FEFF 		bl	raw_remove
 2229 00d6 2268     		ldr	r2, [r4, #0]
 2230              		.loc 1 864 0
 2231 00d8 0023     		movs	r3, #0
 2232 00da 5360     		str	r3, [r2, #4]
 2233 00dc 2268     		ldr	r2, [r4, #0]
 2234 00de BCE7     		b	.L211
 2235              	.L221:
 2236              		.loc 1 851 0 discriminator 2
 2237 00e0 136A     		ldr	r3, [r2, #32]
 2238 00e2 002B     		cmp	r3, #0
 2239 00e4 E8D1     		bne	.L216
 2240 00e6 EAE7     		b	.L217
 2241              		.cfi_endproc
 2242              	.LFE21:
 2243              		.size	do_delconn, .-do_delconn
 2244 00e8 AFF30080 		.section	.text.do_bind,"ax",%progbits
 2244      AFF30080 
 2245              		.align	2
 2246              		.p2align 4,,15
 2247              		.global	do_bind
 2248              		.thumb
 2249              		.thumb_func
 2250              		.type	do_bind, %function
 2251              	do_bind:
 2252              	.LFB22:
 2253              		.loc 1 887 0
 2254              		.cfi_startproc
 2255              		@ args = 0, pretend = 0, frame = 0
 2256              		@ frame_needed = 0, uses_anonymous_args = 0
 2257              	.LVL156:
 2258 0000 10B5     		push	{r4, lr}
 2259              	.LCFI18:
 2260              		.cfi_def_cfa_offset 8
 2261              		.cfi_offset 14, -4
ARM GAS  /var/folders/5n/p_75w94d66l9ssrldxqdhh700000gn/T//ccmhGqes.s 			page 41


 2262              		.cfi_offset 4, -8
 2263              		.loc 1 888 0
 2264 0002 0368     		ldr	r3, [r0, #0]
 2265 0004 1A7A     		ldrb	r2, [r3, #8]	@ zero_extendqisi2
 2266 0006 51B2     		sxtb	r1, r2
 2267 0008 0931     		adds	r1, r1, #9
 2268              		.loc 1 887 0
 2269 000a 0446     		mov	r4, r0
 2270              		.loc 1 889 0
 2271 000c B8BF     		it	lt
 2272 000e 0271     		strblt	r2, [r0, #4]
 2273              		.loc 1 888 0
 2274 0010 0CDB     		blt	.L224
 2275              		.loc 1 891 0
 2276 0012 FA22     		movs	r2, #250
 2277 0014 0271     		strb	r2, [r0, #4]
 2278              		.loc 1 892 0
 2279 0016 5868     		ldr	r0, [r3, #4]
 2280              	.LVL157:
 2281 0018 40B1     		cbz	r0, .L224
 2282              		.loc 1 893 0
 2283 001a 1A78     		ldrb	r2, [r3, #0]	@ zero_extendqisi2
 2284 001c 02F0F002 		and	r2, r2, #240
 2285 0020 202A     		cmp	r2, #32
 2286 0022 09D0     		beq	.L226
 2287 0024 402A     		cmp	r2, #64
 2288 0026 15D0     		beq	.L227
 2289 0028 102A     		cmp	r2, #16
 2290 002a 0CD0     		beq	.L228
 2291              	.L224:
 2292              		.loc 1 914 0
 2293 002c 03F10C00 		add	r0, r3, #12
 2294              		.loc 1 915 0
 2295 0030 BDE81040 		pop	{r4, lr}
 2296              		.loc 1 914 0
 2297 0034 FFF7FEBF 		b	sys_sem_signal
 2298              	.L226:
 2299              		.loc 1 901 0
 2300 0038 A168     		ldr	r1, [r4, #8]
 2301 003a A289     		ldrh	r2, [r4, #12]
 2302 003c FFF7FEFF 		bl	udp_bind
 2303 0040 2368     		ldr	r3, [r4, #0]
 2304 0042 2071     		strb	r0, [r4, #4]
 2305              		.loc 1 902 0
 2306 0044 F2E7     		b	.L224
 2307              	.L228:
 2308              		.loc 1 906 0
 2309 0046 A168     		ldr	r1, [r4, #8]
 2310 0048 A289     		ldrh	r2, [r4, #12]
 2311 004a FFF7FEFF 		bl	tcp_bind
 2312 004e 2368     		ldr	r3, [r4, #0]
 2313 0050 2071     		strb	r0, [r4, #4]
 2314              		.loc 1 907 0
 2315 0052 EBE7     		b	.L224
 2316              	.L227:
 2317              		.loc 1 896 0
 2318 0054 A168     		ldr	r1, [r4, #8]
ARM GAS  /var/folders/5n/p_75w94d66l9ssrldxqdhh700000gn/T//ccmhGqes.s 			page 42


 2319 0056 FFF7FEFF 		bl	raw_bind
 2320 005a 2368     		ldr	r3, [r4, #0]
 2321 005c 2071     		strb	r0, [r4, #4]
 2322              		.loc 1 897 0
 2323 005e E5E7     		b	.L224
 2324              		.cfi_endproc
 2325              	.LFE22:
 2326              		.size	do_bind, .-do_bind
 2327              		.section	.text.do_connect,"ax",%progbits
 2328              		.align	2
 2329              		.p2align 4,,15
 2330              		.global	do_connect
 2331              		.thumb
 2332              		.thumb_func
 2333              		.type	do_connect, %function
 2334              	do_connect:
 2335              	.LFB24:
 2336              		.loc 1 973 0
 2337              		.cfi_startproc
 2338              		@ args = 0, pretend = 0, frame = 0
 2339              		@ frame_needed = 0, uses_anonymous_args = 0
 2340              	.LVL158:
 2341 0000 10B5     		push	{r4, lr}
 2342              	.LCFI19:
 2343              		.cfi_def_cfa_offset 8
 2344              		.cfi_offset 14, -4
 2345              		.cfi_offset 4, -8
 2346              		.loc 1 974 0
 2347 0002 0368     		ldr	r3, [r0, #0]
 2348              		.loc 1 973 0
 2349 0004 0446     		mov	r4, r0
 2350              		.loc 1 974 0
 2351 0006 5868     		ldr	r0, [r3, #4]
 2352              	.LVL159:
 2353 0008 0028     		cmp	r0, #0
 2354 000a 3FD0     		beq	.L241
 2355              		.loc 1 978 0
 2356 000c 1A78     		ldrb	r2, [r3, #0]	@ zero_extendqisi2
 2357 000e 02F0F002 		and	r2, r2, #240
 2358 0012 202A     		cmp	r2, #32
 2359 0014 19D0     		beq	.L234
 2360 0016 402A     		cmp	r2, #64
 2361 0018 0CD0     		beq	.L235
 2362 001a 102A     		cmp	r2, #16
 2363 001c 10D0     		beq	.L242
 2364              		.loc 1 1015 0 discriminator 1
 2365 001e FFF7FEFF 		bl	port_halt
 2366 0022 FA22     		movs	r2, #250
 2367 0024 2368     		ldr	r3, [r4, #0]
 2368 0026 2271     		strb	r2, [r4, #4]
 2369              	.L231:
 2370              		.loc 1 1019 0
 2371 0028 03F10C00 		add	r0, r3, #12
 2372              		.loc 1 1020 0
 2373 002c BDE81040 		pop	{r4, lr}
 2374              		.loc 1 1019 0
 2375 0030 FFF7FEBF 		b	sys_sem_signal
ARM GAS  /var/folders/5n/p_75w94d66l9ssrldxqdhh700000gn/T//ccmhGqes.s 			page 43


 2376              	.L235:
 2377              		.loc 1 981 0
 2378 0034 A168     		ldr	r1, [r4, #8]
 2379 0036 FFF7FEFF 		bl	raw_connect
 2380 003a 2368     		ldr	r3, [r4, #0]
 2381 003c 2071     		strb	r0, [r4, #4]
 2382              		.loc 1 982 0
 2383 003e F3E7     		b	.L231
 2384              	.L242:
 2385              		.loc 1 992 0
 2386 0040 5A78     		ldrb	r2, [r3, #1]	@ zero_extendqisi2
 2387 0042 4AB1     		cbz	r2, .L236
 2388              		.loc 1 993 0
 2389 0044 F722     		movs	r2, #247
 2390 0046 2271     		strb	r2, [r4, #4]
 2391 0048 EEE7     		b	.L231
 2392              	.L234:
 2393              		.loc 1 986 0
 2394 004a A168     		ldr	r1, [r4, #8]
 2395 004c A289     		ldrh	r2, [r4, #12]
 2396 004e FFF7FEFF 		bl	udp_connect
 2397 0052 2368     		ldr	r3, [r4, #0]
 2398 0054 2071     		strb	r0, [r4, #4]
 2399              		.loc 1 987 0
 2400 0056 E7E7     		b	.L231
 2401              	.L236:
 2402              		.loc 1 995 0
 2403 0058 1846     		mov	r0, r3
 2404 005a FFF7FEFF 		bl	setup_tcp
 2405              		.loc 1 996 0
 2406 005e 2368     		ldr	r3, [r4, #0]
 2407 0060 A168     		ldr	r1, [r4, #8]
 2408 0062 5868     		ldr	r0, [r3, #4]
 2409 0064 A289     		ldrh	r2, [r4, #12]
 2410 0066 0E4B     		ldr	r3, .L243
 2411 0068 FFF7FEFF 		bl	tcp_connect
 2412              	.LBB47:
 2413              		.loc 1 999 0
 2414 006c 2368     		ldr	r3, [r4, #0]
 2415              	.LBE47:
 2416              		.loc 1 996 0
 2417 006e 2071     		strb	r0, [r4, #4]
 2418              		.loc 1 998 0
 2419 0070 0028     		cmp	r0, #0
 2420 0072 D9D1     		bne	.L231
 2421              	.LBB48:
 2422              		.loc 1 999 0
 2423 0074 1A7F     		ldrb	r2, [r3, #28]	@ zero_extendqisi2
 2424              	.LVL160:
 2425              		.loc 1 1000 0
 2426 0076 0321     		movs	r1, #3
 2427              		.loc 1 1001 0
 2428 0078 9007     		lsls	r0, r2, #30
 2429              		.loc 1 1000 0
 2430 007a 5970     		strb	r1, [r3, #1]
 2431              		.loc 1 1001 0
 2432 007c 09D5     		bpl	.L238
ARM GAS  /var/folders/5n/p_75w94d66l9ssrldxqdhh700000gn/T//ccmhGqes.s 			page 44


 2433              		.loc 1 1001 0 is_stmt 0 discriminator 1
 2434 007e 42F00402 		orr	r2, r2, #4
 2435              	.LVL161:
 2436 0082 1A77     		strb	r2, [r3, #28]
 2437              		.loc 1 1003 0 is_stmt 1 discriminator 1
 2438 0084 FB23     		movs	r3, #251
 2439 0086 2371     		strb	r3, [r4, #4]
 2440 0088 2368     		ldr	r3, [r4, #0]
 2441 008a CDE7     		b	.L231
 2442              	.L241:
 2443              	.LBE48:
 2444              		.loc 1 976 0
 2445 008c F422     		movs	r2, #244
 2446 008e 2271     		strb	r2, [r4, #4]
 2447 0090 CAE7     		b	.L231
 2448              	.LVL162:
 2449              	.L238:
 2450              	.LBB49:
 2451              		.loc 1 1001 0 discriminator 2
 2452 0092 22F00402 		bic	r2, r2, #4
 2453              	.LVL163:
 2454 0096 1A77     		strb	r2, [r3, #28]
 2455              		.loc 1 1005 0 discriminator 2
 2456 0098 2368     		ldr	r3, [r4, #0]
 2457 009a 5C62     		str	r4, [r3, #36]
 2458              	.LBE49:
 2459              		.loc 1 1020 0 discriminator 2
 2460 009c 10BD     		pop	{r4, pc}
 2461              	.L244:
 2462 009e 00BF     		.align	2
 2463              	.L243:
 2464 00a0 00000000 		.word	do_connected
 2465              		.cfi_endproc
 2466              	.LFE24:
 2467              		.size	do_connect, .-do_connect
 2468 00a4 AFF30080 		.section	.text.do_disconnect,"ax",%progbits
 2468      AFF30080 
 2468      AFF30080 
 2469              		.align	2
 2470              		.p2align 4,,15
 2471              		.global	do_disconnect
 2472              		.thumb
 2473              		.thumb_func
 2474              		.type	do_disconnect, %function
 2475              	do_disconnect:
 2476              	.LFB25:
 2477              		.loc 1 1031 0
 2478              		.cfi_startproc
 2479              		@ args = 0, pretend = 0, frame = 0
 2480              		@ frame_needed = 0, uses_anonymous_args = 0
 2481              	.LVL164:
 2482 0000 10B5     		push	{r4, lr}
 2483              	.LCFI20:
 2484              		.cfi_def_cfa_offset 8
 2485              		.cfi_offset 14, -4
 2486              		.cfi_offset 4, -8
 2487              		.loc 1 1031 0
ARM GAS  /var/folders/5n/p_75w94d66l9ssrldxqdhh700000gn/T//ccmhGqes.s 			page 45


 2488 0002 0446     		mov	r4, r0
 2489              		.loc 1 1033 0
 2490 0004 0068     		ldr	r0, [r0, #0]
 2491              	.LVL165:
 2492 0006 0378     		ldrb	r3, [r0, #0]	@ zero_extendqisi2
 2493 0008 03F0F003 		and	r3, r3, #240
 2494 000c 202B     		cmp	r3, #32
 2495 000e 06D0     		beq	.L248
 2496              		.loc 1 1039 0
 2497 0010 FA23     		movs	r3, #250
 2498 0012 2371     		strb	r3, [r4, #4]
 2499              	.L247:
 2500              		.loc 1 1041 0
 2501 0014 0C30     		adds	r0, r0, #12
 2502              		.loc 1 1042 0
 2503 0016 BDE81040 		pop	{r4, lr}
 2504              		.loc 1 1041 0
 2505 001a FFF7FEBF 		b	sys_sem_signal
 2506              	.L248:
 2507              		.loc 1 1034 0
 2508 001e 4068     		ldr	r0, [r0, #4]
 2509 0020 FFF7FEFF 		bl	udp_disconnect
 2510              		.loc 1 1035 0
 2511 0024 0023     		movs	r3, #0
 2512 0026 2371     		strb	r3, [r4, #4]
 2513 0028 2068     		ldr	r0, [r4, #0]
 2514 002a F3E7     		b	.L247
 2515              		.cfi_endproc
 2516              	.LFE25:
 2517              		.size	do_disconnect, .-do_disconnect
 2518 002c AFF30080 		.section	.text.do_listen,"ax",%progbits
 2519              		.align	2
 2520              		.p2align 4,,15
 2521              		.global	do_listen
 2522              		.thumb
 2523              		.thumb_func
 2524              		.type	do_listen, %function
 2525              	do_listen:
 2526              	.LFB26:
 2527              		.loc 1 1053 0
 2528              		.cfi_startproc
 2529              		@ args = 0, pretend = 0, frame = 0
 2530              		@ frame_needed = 0, uses_anonymous_args = 0
 2531              	.LVL166:
 2532 0000 38B5     		push	{r3, r4, r5, lr}
 2533              	.LCFI21:
 2534              		.cfi_def_cfa_offset 16
 2535              		.cfi_offset 14, -4
 2536              		.cfi_offset 5, -8
 2537              		.cfi_offset 4, -12
 2538              		.cfi_offset 3, -16
 2539              		.loc 1 1054 0
 2540 0002 0368     		ldr	r3, [r0, #0]
 2541 0004 1A7A     		ldrb	r2, [r3, #8]	@ zero_extendqisi2
 2542 0006 51B2     		sxtb	r1, r2
 2543 0008 0931     		adds	r1, r1, #9
 2544              		.loc 1 1053 0
ARM GAS  /var/folders/5n/p_75w94d66l9ssrldxqdhh700000gn/T//ccmhGqes.s 			page 46


 2545 000a 0446     		mov	r4, r0
 2546              		.loc 1 1055 0
 2547 000c B8BF     		it	lt
 2548 000e 0271     		strblt	r2, [r0, #4]
 2549              		.loc 1 1054 0
 2550 0010 06DB     		blt	.L251
 2551              		.loc 1 1057 0
 2552 0012 F322     		movs	r2, #243
 2553 0014 0271     		strb	r2, [r0, #4]
 2554              		.loc 1 1058 0
 2555 0016 5868     		ldr	r0, [r3, #4]
 2556              	.LVL167:
 2557 0018 10B1     		cbz	r0, .L251
 2558              		.loc 1 1059 0
 2559 001a 1A78     		ldrb	r2, [r3, #0]	@ zero_extendqisi2
 2560 001c 102A     		cmp	r2, #16
 2561 001e 05D0     		beq	.L257
 2562              	.L251:
 2563              		.loc 1 1095 0
 2564 0020 03F10C00 		add	r0, r3, #12
 2565              		.loc 1 1096 0
 2566 0024 BDE83840 		pop	{r3, r4, r5, lr}
 2567              		.loc 1 1095 0
 2568 0028 FFF7FEBF 		b	sys_sem_signal
 2569              	.L257:
 2570              		.loc 1 1060 0
 2571 002c 5A78     		ldrb	r2, [r3, #1]	@ zero_extendqisi2
 2572 002e 002A     		cmp	r2, #0
 2573 0030 F6D1     		bne	.L251
 2574              	.LBB50:
 2575              		.loc 1 1064 0
 2576 0032 FF21     		movs	r1, #255
 2577 0034 FFF7FEFF 		bl	tcp_listen_with_backlog
 2578              	.LVL168:
 2579              		.loc 1 1066 0
 2580 0038 0546     		mov	r5, r0
 2581 003a 0028     		cmp	r0, #0
 2582 003c 34D0     		beq	.L258
 2583              		.loc 1 1071 0
 2584 003e 2068     		ldr	r0, [r4, #0]
 2585              	.LVL169:
 2586 0040 1030     		adds	r0, r0, #16
 2587 0042 FFF7FEFF 		bl	sys_mbox_valid
 2588 0046 B8B9     		cbnz	r0, .L259
 2589              	.L253:
 2590              		.loc 1 1077 0
 2591 0048 2068     		ldr	r0, [r4, #0]
 2592              		.loc 1 1076 0
 2593 004a 0023     		movs	r3, #0
 2594 004c 2371     		strb	r3, [r4, #4]
 2595              		.loc 1 1077 0
 2596 004e 1430     		adds	r0, r0, #20
 2597 0050 FFF7FEFF 		bl	sys_mbox_valid
 2598 0054 48B1     		cbz	r0, .L254
 2599 0056 2079     		ldrb	r0, [r4, #4]	@ zero_extendqisi2
 2600              	.L255:
 2601              		.loc 1 1080 0
ARM GAS  /var/folders/5n/p_75w94d66l9ssrldxqdhh700000gn/T//ccmhGqes.s 			page 47


 2602 0058 B8B1     		cbz	r0, .L260
 2603              		.loc 1 1087 0
 2604 005a 2846     		mov	r0, r5
 2605 005c FFF7FEFF 		bl	tcp_close
 2606              		.loc 1 1088 0
 2607 0060 2368     		ldr	r3, [r4, #0]
 2608 0062 0022     		movs	r2, #0
 2609 0064 5A60     		str	r2, [r3, #4]
 2610 0066 2368     		ldr	r3, [r4, #0]
 2611 0068 DAE7     		b	.L251
 2612              	.L254:
 2613              		.loc 1 1078 0
 2614 006a 2068     		ldr	r0, [r4, #0]
 2615 006c 0421     		movs	r1, #4
 2616 006e 1430     		adds	r0, r0, #20
 2617 0070 FFF7FEFF 		bl	sys_mbox_new
 2618 0074 2071     		strb	r0, [r4, #4]
 2619 0076 EFE7     		b	.L255
 2620              	.L259:
 2621              		.loc 1 1073 0
 2622 0078 2068     		ldr	r0, [r4, #0]
 2623 007a 1030     		adds	r0, r0, #16
 2624 007c FFF7FEFF 		bl	sys_mbox_free
 2625              		.loc 1 1074 0
 2626 0080 2068     		ldr	r0, [r4, #0]
 2627 0082 1030     		adds	r0, r0, #16
 2628 0084 FFF7FEFF 		bl	sys_mbox_set_invalid
 2629 0088 DEE7     		b	.L253
 2630              	.L260:
 2631              		.loc 1 1081 0
 2632 008a 2368     		ldr	r3, [r4, #0]
 2633              		.loc 1 1082 0
 2634 008c 5D60     		str	r5, [r3, #4]
 2635              		.loc 1 1083 0
 2636 008e 2168     		ldr	r1, [r4, #0]
 2637              		.loc 1 1081 0
 2638 0090 0222     		movs	r2, #2
 2639              		.loc 1 1083 0
 2640 0092 4868     		ldr	r0, [r1, #4]
 2641              		.loc 1 1081 0
 2642 0094 5A70     		strb	r2, [r3, #1]
 2643              		.loc 1 1083 0
 2644 0096 FFF7FEFF 		bl	tcp_arg
 2645              		.loc 1 1084 0
 2646 009a 2368     		ldr	r3, [r4, #0]
 2647 009c 0449     		ldr	r1, .L261
 2648 009e 5868     		ldr	r0, [r3, #4]
 2649 00a0 FFF7FEFF 		bl	tcp_accept
 2650 00a4 2368     		ldr	r3, [r4, #0]
 2651 00a6 BBE7     		b	.L251
 2652              	.L258:
 2653              		.loc 1 1068 0
 2654 00a8 FF23     		movs	r3, #255
 2655 00aa 2371     		strb	r3, [r4, #4]
 2656 00ac 2368     		ldr	r3, [r4, #0]
 2657 00ae B7E7     		b	.L251
 2658              	.L262:
ARM GAS  /var/folders/5n/p_75w94d66l9ssrldxqdhh700000gn/T//ccmhGqes.s 			page 48


 2659              		.align	2
 2660              	.L261:
 2661 00b0 00000000 		.word	accept_function
 2662              	.LBE50:
 2663              		.cfi_endproc
 2664              	.LFE26:
 2665              		.size	do_listen, .-do_listen
 2666 00b4 AFF30080 		.section	.text.do_send,"ax",%progbits
 2666      AFF30080 
 2666      AFF30080 
 2667              		.align	2
 2668              		.p2align 4,,15
 2669              		.global	do_send
 2670              		.thumb
 2671              		.thumb_func
 2672              		.type	do_send, %function
 2673              	do_send:
 2674              	.LFB27:
 2675              		.loc 1 1107 0
 2676              		.cfi_startproc
 2677              		@ args = 0, pretend = 0, frame = 0
 2678              		@ frame_needed = 0, uses_anonymous_args = 0
 2679              	.LVL170:
 2680 0000 10B5     		push	{r4, lr}
 2681              	.LCFI22:
 2682              		.cfi_def_cfa_offset 8
 2683              		.cfi_offset 14, -4
 2684              		.cfi_offset 4, -8
 2685              		.loc 1 1108 0
 2686 0002 0368     		ldr	r3, [r0, #0]
 2687 0004 1A7A     		ldrb	r2, [r3, #8]	@ zero_extendqisi2
 2688 0006 51B2     		sxtb	r1, r2
 2689 0008 0931     		adds	r1, r1, #9
 2690              		.loc 1 1107 0
 2691 000a 0446     		mov	r4, r0
 2692              		.loc 1 1109 0
 2693 000c B8BF     		it	lt
 2694 000e 0271     		strblt	r2, [r0, #4]
 2695              		.loc 1 1108 0
 2696 0010 0ADB     		blt	.L265
 2697              		.loc 1 1111 0
 2698 0012 F322     		movs	r2, #243
 2699 0014 0271     		strb	r2, [r0, #4]
 2700              		.loc 1 1112 0
 2701 0016 5868     		ldr	r0, [r3, #4]
 2702              	.LVL171:
 2703 0018 30B1     		cbz	r0, .L265
 2704              		.loc 1 1113 0
 2705 001a 1A78     		ldrb	r2, [r3, #0]	@ zero_extendqisi2
 2706 001c 02F0F002 		and	r2, r2, #240
 2707 0020 202A     		cmp	r2, #32
 2708 0022 07D0     		beq	.L266
 2709 0024 402A     		cmp	r2, #64
 2710 0026 11D0     		beq	.L272
 2711              	.L265:
 2712              		.loc 1 1148 0
 2713 0028 03F10C00 		add	r0, r3, #12
ARM GAS  /var/folders/5n/p_75w94d66l9ssrldxqdhh700000gn/T//ccmhGqes.s 			page 49


 2714              		.loc 1 1149 0
 2715 002c BDE81040 		pop	{r4, lr}
 2716              		.loc 1 1148 0
 2717 0030 FFF7FEBF 		b	sys_sem_signal
 2718              	.L266:
 2719              		.loc 1 1135 0
 2720 0034 A368     		ldr	r3, [r4, #8]
 2721 0036 13F10802 		adds	r2, r3, #8
 2722 003a 01D0     		beq	.L270
 2723              		.loc 1 1135 0 is_stmt 0 discriminator 1
 2724 003c 9968     		ldr	r1, [r3, #8]
 2725 003e 89B9     		cbnz	r1, .L271
 2726              	.L270:
 2727              		.loc 1 1136 0 is_stmt 1
 2728 0040 1968     		ldr	r1, [r3, #0]
 2729 0042 FFF7FEFF 		bl	udp_send
 2730 0046 2368     		ldr	r3, [r4, #0]
 2731 0048 2071     		strb	r0, [r4, #4]
 2732 004a EDE7     		b	.L265
 2733              	.L272:
 2734              		.loc 1 1116 0
 2735 004c A368     		ldr	r3, [r4, #8]
 2736 004e 13F10802 		adds	r2, r3, #8
 2737 0052 01D0     		beq	.L268
 2738              		.loc 1 1116 0 is_stmt 0 discriminator 1
 2739 0054 9968     		ldr	r1, [r3, #8]
 2740 0056 61B9     		cbnz	r1, .L269
 2741              	.L268:
 2742              		.loc 1 1117 0 is_stmt 1
 2743 0058 1968     		ldr	r1, [r3, #0]
 2744 005a FFF7FEFF 		bl	raw_send
 2745 005e 2368     		ldr	r3, [r4, #0]
 2746 0060 2071     		strb	r0, [r4, #4]
 2747 0062 E1E7     		b	.L265
 2748              	.L271:
 2749              		.loc 1 1138 0
 2750 0064 1968     		ldr	r1, [r3, #0]
 2751 0066 9B89     		ldrh	r3, [r3, #12]
 2752 0068 FFF7FEFF 		bl	udp_sendto
 2753 006c 2368     		ldr	r3, [r4, #0]
 2754 006e 2071     		strb	r0, [r4, #4]
 2755 0070 DAE7     		b	.L265
 2756              	.L269:
 2757              		.loc 1 1119 0
 2758 0072 1968     		ldr	r1, [r3, #0]
 2759 0074 FFF7FEFF 		bl	raw_sendto
 2760 0078 2368     		ldr	r3, [r4, #0]
 2761 007a 2071     		strb	r0, [r4, #4]
 2762 007c D4E7     		b	.L265
 2763              		.cfi_endproc
 2764              	.LFE27:
 2765              		.size	do_send, .-do_send
 2766 007e 00BF     		.section	.text.do_recv,"ax",%progbits
 2767              		.align	2
 2768              		.p2align 4,,15
 2769              		.global	do_recv
 2770              		.thumb
ARM GAS  /var/folders/5n/p_75w94d66l9ssrldxqdhh700000gn/T//ccmhGqes.s 			page 50


 2771              		.thumb_func
 2772              		.type	do_recv, %function
 2773              	do_recv:
 2774              	.LFB28:
 2775              		.loc 1 1160 0
 2776              		.cfi_startproc
 2777              		@ args = 0, pretend = 0, frame = 0
 2778              		@ frame_needed = 0, uses_anonymous_args = 0
 2779              	.LVL172:
 2780 0000 F8B5     		push	{r3, r4, r5, r6, r7, lr}
 2781              	.LCFI23:
 2782              		.cfi_def_cfa_offset 24
 2783              		.cfi_offset 14, -4
 2784              		.cfi_offset 7, -8
 2785              		.cfi_offset 6, -12
 2786              		.cfi_offset 5, -16
 2787              		.cfi_offset 4, -20
 2788              		.cfi_offset 3, -24
 2789              		.loc 1 1161 0
 2790 0002 0022     		movs	r2, #0
 2791              		.loc 1 1162 0
 2792 0004 0368     		ldr	r3, [r0, #0]
 2793              		.loc 1 1161 0
 2794 0006 0271     		strb	r2, [r0, #4]
 2795              		.loc 1 1160 0
 2796 0008 0646     		mov	r6, r0
 2797              		.loc 1 1162 0
 2798 000a 5868     		ldr	r0, [r3, #4]
 2799              	.LVL173:
 2800 000c 10B1     		cbz	r0, .L274
 2801              		.loc 1 1163 0
 2802 000e 1A78     		ldrb	r2, [r3, #0]	@ zero_extendqisi2
 2803 0010 102A     		cmp	r2, #16
 2804 0012 05D0     		beq	.L279
 2805              	.L274:
 2806              		.loc 1 1179 0
 2807 0014 03F10C00 		add	r0, r3, #12
 2808              		.loc 1 1180 0
 2809 0018 BDE8F840 		pop	{r3, r4, r5, r6, r7, lr}
 2810              		.loc 1 1179 0
 2811 001c FFF7FEBF 		b	sys_sem_signal
 2812              	.L279:
 2813              	.LBB51:
 2814              		.loc 1 1170 0
 2815 0020 B468     		ldr	r4, [r6, #8]
 2816              	.LVL174:
 2817              	.LBB52:
 2818              		.loc 1 1172 0
 2819 0022 4FF6FF77 		movw	r7, #65535
 2820 0026 00E0     		b	.L277
 2821              	.LVL175:
 2822              	.L280:
 2823              	.LBE52:
 2824              		.loc 1 1175 0
 2825 0028 5868     		ldr	r0, [r3, #4]
 2826              	.LVL176:
 2827              	.L277:
ARM GAS  /var/folders/5n/p_75w94d66l9ssrldxqdhh700000gn/T//ccmhGqes.s 			page 51


 2828              	.LBB53:
 2829              		.loc 1 1172 0
 2830 002a BC42     		cmp	r4, r7
 2831 002c 95BF     		itete	ls
 2832 002e A1B2     		uxthls	r1, r4
 2833 0030 4FF6FF75 		movwhi	r5, #65535
 2834 0034 0D46     		movls	r5, r1
 2835 0036 2946     		movhi	r1, r5
 2836              	.LVL177:
 2837              		.loc 1 1173 0
 2838 0038 FFF7FEFF 		bl	tcp_recved
 2839              	.LVL178:
 2840              	.LBE53:
 2841              		.loc 1 1175 0
 2842 003c 641B     		subs	r4, r4, r5
 2843              	.LVL179:
 2844 003e 3368     		ldr	r3, [r6, #0]
 2845 0040 F2D1     		bne	.L280
 2846 0042 E7E7     		b	.L274
 2847              	.LBE51:
 2848              		.cfi_endproc
 2849              	.LFE28:
 2850              		.size	do_recv, .-do_recv
 2851 0044 AFF30080 		.section	.text.do_write,"ax",%progbits
 2851      AFF30080 
 2851      AFF30080 
 2852              		.align	2
 2853              		.p2align 4,,15
 2854              		.global	do_write
 2855              		.thumb
 2856              		.thumb_func
 2857              		.type	do_write, %function
 2858              	do_write:
 2859              	.LFB30:
 2860              		.loc 1 1314 0
 2861              		.cfi_startproc
 2862              		@ args = 0, pretend = 0, frame = 8
 2863              		@ frame_needed = 0, uses_anonymous_args = 0
 2864              	.LVL180:
 2865 0000 00B5     		push	{lr}
 2866              	.LCFI24:
 2867              		.cfi_def_cfa_offset 4
 2868              		.cfi_offset 14, -4
 2869              		.loc 1 1315 0
 2870 0002 0368     		ldr	r3, [r0, #0]
 2871 0004 1A7A     		ldrb	r2, [r3, #8]	@ zero_extendqisi2
 2872 0006 51B2     		sxtb	r1, r2
 2873 0008 0931     		adds	r1, r1, #9
 2874              		.loc 1 1314 0
 2875 000a 83B0     		sub	sp, sp, #12
 2876              	.LCFI25:
 2877              		.cfi_def_cfa_offset 16
 2878              		.loc 1 1315 0
 2879 000c 03DB     		blt	.L290
 2880              		.loc 1 1318 0
 2881 000e 1A78     		ldrb	r2, [r3, #0]	@ zero_extendqisi2
 2882 0010 102A     		cmp	r2, #16
ARM GAS  /var/folders/5n/p_75w94d66l9ssrldxqdhh700000gn/T//ccmhGqes.s 			page 52


 2883 0012 08D0     		beq	.L291
 2884              		.loc 1 1354 0
 2885 0014 FA22     		movs	r2, #250
 2886              	.L290:
 2887 0016 0271     		strb	r2, [r0, #4]
 2888              	.L283:
 2889              		.loc 1 1358 0
 2890 0018 03F10C00 		add	r0, r3, #12
 2891              	.LVL181:
 2892              		.loc 1 1359 0
 2893 001c 03B0     		add	sp, sp, #12
 2894 001e 5DF804EB 		pop	{lr}
 2895              		.loc 1 1358 0
 2896 0022 FFF7FEBF 		b	sys_sem_signal
 2897              	.LVL182:
 2898              	.L291:
 2899              		.loc 1 1320 0
 2900 0026 5A78     		ldrb	r2, [r3, #1]	@ zero_extendqisi2
 2901 0028 12B1     		cbz	r2, .L285
 2902              		.loc 1 1322 0
 2903 002a FB22     		movs	r2, #251
 2904 002c 0271     		strb	r2, [r0, #4]
 2905 002e F3E7     		b	.L283
 2906              	.L285:
 2907              		.loc 1 1323 0
 2908 0030 5A68     		ldr	r2, [r3, #4]
 2909 0032 E2B1     		cbz	r2, .L286
 2910              		.loc 1 1326 0
 2911 0034 5A6A     		ldr	r2, [r3, #36]
 2912              		.loc 1 1324 0
 2913 0036 0121     		movs	r1, #1
 2914 0038 5970     		strb	r1, [r3, #1]
 2915              		.loc 1 1326 0
 2916 003a A2B1     		cbz	r2, .L292
 2917              	.L287:
 2918              		.loc 1 1326 0 is_stmt 0 discriminator 1
 2919 003c 0190     		str	r0, [sp, #4]
 2920 003e FFF7FEFF 		bl	port_halt
 2921              	.LVL183:
 2922 0042 0198     		ldr	r0, [sp, #4]
 2923              	.L288:
 2924              		.loc 1 1328 0 is_stmt 1
 2925 0044 C368     		ldr	r3, [r0, #12]
 2926 0046 4BB1     		cbz	r3, .L293
 2927              	.L289:
 2928              		.loc 1 1329 0
 2929 0048 0368     		ldr	r3, [r0, #0]
 2930              		.loc 1 1330 0
 2931 004a 0022     		movs	r2, #0
 2932              		.loc 1 1329 0
 2933 004c 5862     		str	r0, [r3, #36]
 2934              		.loc 1 1341 0
 2935 004e 1846     		mov	r0, r3
 2936              		.loc 1 1330 0
 2937 0050 1A62     		str	r2, [r3, #32]
 2938              		.loc 1 1359 0
 2939 0052 03B0     		add	sp, sp, #12
ARM GAS  /var/folders/5n/p_75w94d66l9ssrldxqdhh700000gn/T//ccmhGqes.s 			page 53


 2940 0054 5DF804EB 		pop	{lr}
 2941              		.loc 1 1341 0
 2942 0058 FFF7FEBF 		b	do_writemore
 2943              	.L293:
 2944              		.loc 1 1328 0 discriminator 1
 2945 005c 0190     		str	r0, [sp, #4]
 2946 005e FFF7FEFF 		bl	port_halt
 2947 0062 0198     		ldr	r0, [sp, #4]
 2948 0064 F0E7     		b	.L289
 2949              	.LVL184:
 2950              	.L292:
 2951              		.loc 1 1326 0 discriminator 2
 2952 0066 1B6A     		ldr	r3, [r3, #32]
 2953 0068 002B     		cmp	r3, #0
 2954 006a EBD0     		beq	.L288
 2955 006c E6E7     		b	.L287
 2956              	.L286:
 2957              		.loc 1 1347 0
 2958 006e F322     		movs	r2, #243
 2959 0070 0271     		strb	r2, [r0, #4]
 2960 0072 D1E7     		b	.L283
 2961              		.cfi_endproc
 2962              	.LFE30:
 2963              		.size	do_write, .-do_write
 2964 0074 AFF30080 		.section	.text.do_getaddr,"ax",%progbits
 2964      AFF30080 
 2964      AFF30080 
 2965              		.align	2
 2966              		.p2align 4,,15
 2967              		.global	do_getaddr
 2968              		.thumb
 2969              		.thumb_func
 2970              		.type	do_getaddr, %function
 2971              	do_getaddr:
 2972              	.LFB31:
 2973              		.loc 1 1369 0
 2974              		.cfi_startproc
 2975              		@ args = 0, pretend = 0, frame = 0
 2976              		@ frame_needed = 0, uses_anonymous_args = 0
 2977              	.LVL185:
 2978 0000 10B5     		push	{r4, lr}
 2979              	.LCFI26:
 2980              		.cfi_def_cfa_offset 8
 2981              		.cfi_offset 14, -4
 2982              		.cfi_offset 4, -8
 2983              		.loc 1 1369 0
 2984 0002 0446     		mov	r4, r0
 2985              		.loc 1 1370 0
 2986 0004 0068     		ldr	r0, [r0, #0]
 2987              	.LVL186:
 2988 0006 4368     		ldr	r3, [r0, #4]
 2989 0008 E3B1     		cbz	r3, .L295
 2990              		.loc 1 1371 0
 2991 000a 217C     		ldrb	r1, [r4, #16]	@ zero_extendqisi2
 2992 000c A268     		ldr	r2, [r4, #8]
 2993 000e A1B9     		cbnz	r1, .L309
 2994              		.loc 1 1371 0 is_stmt 0 discriminator 2
ARM GAS  /var/folders/5n/p_75w94d66l9ssrldxqdhh700000gn/T//ccmhGqes.s 			page 54


 2995 0010 5B68     		ldr	r3, [r3, #4]
 2996 0012 1360     		str	r3, [r2, #0]
 2997              	.L297:
 2998              		.loc 1 1374 0 is_stmt 1
 2999 0014 0023     		movs	r3, #0
 3000 0016 2371     		strb	r3, [r4, #4]
 3001              		.loc 1 1375 0
 3002 0018 0378     		ldrb	r3, [r0, #0]	@ zero_extendqisi2
 3003 001a 03F0F003 		and	r3, r3, #240
 3004 001e 202B     		cmp	r3, #32
 3005 0020 1AD0     		beq	.L300
 3006 0022 402B     		cmp	r3, #64
 3007 0024 0CD0     		beq	.L301
 3008 0026 102B     		cmp	r3, #16
 3009 0028 0FD0     		beq	.L310
 3010              		.loc 1 1405 0 discriminator 1
 3011 002a FFF7FEFF 		bl	port_halt
 3012 002e 2068     		ldr	r0, [r4, #0]
 3013              	.L303:
 3014              		.loc 1 1411 0
 3015 0030 0C30     		adds	r0, r0, #12
 3016              		.loc 1 1412 0
 3017 0032 BDE81040 		pop	{r4, lr}
 3018              		.loc 1 1411 0
 3019 0036 FFF7FEBF 		b	sys_sem_signal
 3020              	.L309:
 3021              		.loc 1 1371 0 discriminator 1
 3022 003a 1B68     		ldr	r3, [r3, #0]
 3023 003c 1360     		str	r3, [r2, #0]
 3024 003e E9E7     		b	.L297
 3025              	.L301:
 3026              		.loc 1 1378 0
 3027 0040 237C     		ldrb	r3, [r4, #16]	@ zero_extendqisi2
 3028 0042 9BB9     		cbnz	r3, .L311
 3029              	.L295:
 3030              		.loc 1 1409 0
 3031 0044 F323     		movs	r3, #243
 3032 0046 2371     		strb	r3, [r4, #4]
 3033 0048 F2E7     		b	.L303
 3034              	.L310:
 3035              		.loc 1 1401 0
 3036 004a 227C     		ldrb	r2, [r4, #16]	@ zero_extendqisi2
 3037 004c E368     		ldr	r3, [r4, #12]
 3038 004e 92B9     		cbnz	r2, .L312
 3039              		.loc 1 1401 0 is_stmt 0 discriminator 2
 3040 0050 4268     		ldr	r2, [r0, #4]
 3041 0052 D28B     		ldrh	r2, [r2, #30]
 3042              	.L307:
 3043              		.loc 1 1401 0 discriminator 3
 3044 0054 1A80     		strh	r2, [r3, #0]	@ movhi
 3045              		.loc 1 1402 0 is_stmt 1 discriminator 3
 3046 0056 EBE7     		b	.L303
 3047              	.L300:
 3048              		.loc 1 1388 0
 3049 0058 237C     		ldrb	r3, [r4, #16]	@ zero_extendqisi2
 3050 005a 7BB9     		cbnz	r3, .L313
 3051              		.loc 1 1391 0
ARM GAS  /var/folders/5n/p_75w94d66l9ssrldxqdhh700000gn/T//ccmhGqes.s 			page 55


 3052 005c 4368     		ldr	r3, [r0, #4]
 3053 005e 1A7C     		ldrb	r2, [r3, #16]	@ zero_extendqisi2
 3054 0060 5207     		lsls	r2, r2, #29
 3055 0062 EFD5     		bpl	.L295
 3056              		.loc 1 1394 0
 3057 0064 E268     		ldr	r2, [r4, #12]
 3058 0066 9B8A     		ldrh	r3, [r3, #20]
 3059 0068 1380     		strh	r3, [r2, #0]	@ movhi
 3060 006a E1E7     		b	.L303
 3061              	.L311:
 3062              		.loc 1 1379 0
 3063 006c 4268     		ldr	r2, [r0, #4]
 3064 006e E368     		ldr	r3, [r4, #12]
 3065 0070 127C     		ldrb	r2, [r2, #16]	@ zero_extendqisi2
 3066 0072 1A80     		strh	r2, [r3, #0]	@ movhi
 3067 0074 DCE7     		b	.L303
 3068              	.L312:
 3069              		.loc 1 1401 0 discriminator 1
 3070 0076 4268     		ldr	r2, [r0, #4]
 3071 0078 928B     		ldrh	r2, [r2, #28]
 3072 007a EBE7     		b	.L307
 3073              	.L313:
 3074              		.loc 1 1389 0
 3075 007c 4268     		ldr	r2, [r0, #4]
 3076 007e E368     		ldr	r3, [r4, #12]
 3077 0080 528A     		ldrh	r2, [r2, #18]
 3078 0082 1A80     		strh	r2, [r3, #0]	@ movhi
 3079 0084 D4E7     		b	.L303
 3080              		.cfi_endproc
 3081              	.LFE31:
 3082              		.size	do_getaddr, .-do_getaddr
 3083 0086 00BFAFF3 		.section	.text.do_close,"ax",%progbits
 3083      0080AFF3 
 3083      0080
 3084              		.align	2
 3085              		.p2align 4,,15
 3086              		.global	do_close
 3087              		.thumb
 3088              		.thumb_func
 3089              		.type	do_close, %function
 3090              	do_close:
 3091              	.LFB32:
 3092              		.loc 1 1422 0
 3093              		.cfi_startproc
 3094              		@ args = 0, pretend = 0, frame = 0
 3095              		@ frame_needed = 0, uses_anonymous_args = 0
 3096              	.LVL187:
 3097 0000 10B5     		push	{r4, lr}
 3098              	.LCFI27:
 3099              		.cfi_def_cfa_offset 8
 3100              		.cfi_offset 14, -4
 3101              		.cfi_offset 4, -8
 3102              		.loc 1 1422 0
 3103 0002 0446     		mov	r4, r0
 3104              		.loc 1 1425 0
 3105 0004 0068     		ldr	r0, [r0, #0]
 3106              	.LVL188:
ARM GAS  /var/folders/5n/p_75w94d66l9ssrldxqdhh700000gn/T//ccmhGqes.s 			page 56


 3107 0006 4378     		ldrb	r3, [r0, #1]	@ zero_extendqisi2
 3108 0008 022B     		cmp	r3, #2
 3109 000a 18BF     		it	ne
 3110 000c 002B     		cmpne	r3, #0
 3111 000e 0CD0     		beq	.L315
 3112              		.loc 1 1427 0
 3113 0010 0378     		ldrb	r3, [r0, #0]	@ zero_extendqisi2
 3114 0012 102B     		cmp	r3, #16
 3115 0014 02D0     		beq	.L316
 3116              		.loc 1 1427 0 is_stmt 0 discriminator 1
 3117 0016 FFF7FEFF 		bl	port_halt
 3118 001a 2068     		ldr	r0, [r4, #0]
 3119              	.L316:
 3120              		.loc 1 1428 0 is_stmt 1
 3121 001c FB23     		movs	r3, #251
 3122 001e 2371     		strb	r3, [r4, #4]
 3123              	.L317:
 3124              		.loc 1 1451 0
 3125 0020 0C30     		adds	r0, r0, #12
 3126              		.loc 1 1452 0
 3127 0022 BDE81040 		pop	{r4, lr}
 3128              		.loc 1 1451 0
 3129 0026 FFF7FEBF 		b	sys_sem_signal
 3130              	.L315:
 3131              		.loc 1 1429 0
 3132 002a 4268     		ldr	r2, [r0, #4]
 3133 002c 12B1     		cbz	r2, .L318
 3134              		.loc 1 1429 0 is_stmt 0 discriminator 1
 3135 002e 0278     		ldrb	r2, [r0, #0]	@ zero_extendqisi2
 3136 0030 102A     		cmp	r2, #16
 3137 0032 02D0     		beq	.L324
 3138              	.L318:
 3139              		.loc 1 1449 0 is_stmt 1
 3140 0034 FA23     		movs	r3, #250
 3141 0036 2371     		strb	r3, [r4, #4]
 3142 0038 F2E7     		b	.L317
 3143              	.L324:
 3144              		.loc 1 1430 0
 3145 003a 227A     		ldrb	r2, [r4, #8]	@ zero_extendqisi2
 3146 003c 032A     		cmp	r2, #3
 3147 003e 13D0     		beq	.L319
 3148              		.loc 1 1430 0 is_stmt 0 discriminator 1
 3149 0040 022B     		cmp	r3, #2
 3150 0042 15D0     		beq	.L325
 3151              		.loc 1 1434 0 is_stmt 1
 3152 0044 D107     		lsls	r1, r2, #31
 3153 0046 0FD4     		bmi	.L319
 3154              	.L321:
 3155              		.loc 1 1438 0
 3156 0048 436A     		ldr	r3, [r0, #36]
 3157 004a 4BB1     		cbz	r3, .L326
 3158              	.L322:
 3159              		.loc 1 1438 0 is_stmt 0 discriminator 1
 3160 004c FFF7FEFF 		bl	port_halt
 3161 0050 2068     		ldr	r0, [r4, #0]
 3162              	.L323:
 3163              		.loc 1 1440 0 is_stmt 1
ARM GAS  /var/folders/5n/p_75w94d66l9ssrldxqdhh700000gn/T//ccmhGqes.s 			page 57


 3164 0052 0423     		movs	r3, #4
 3165 0054 4370     		strb	r3, [r0, #1]
 3166              		.loc 1 1441 0
 3167 0056 4462     		str	r4, [r0, #36]
 3168              		.loc 1 1452 0
 3169 0058 BDE81040 		pop	{r4, lr}
 3170              		.loc 1 1442 0
 3171 005c FFF7FEBF 		b	do_close_internal
 3172              	.L326:
 3173              		.loc 1 1438 0 discriminator 2
 3174 0060 036A     		ldr	r3, [r0, #32]
 3175 0062 002B     		cmp	r3, #0
 3176 0064 F2D1     		bne	.L322
 3177 0066 F4E7     		b	.L323
 3178              	.L319:
 3179              		.loc 1 1436 0
 3180 0068 FFF7FEFF 		bl	netconn_drain
 3181 006c 2068     		ldr	r0, [r4, #0]
 3182 006e EBE7     		b	.L321
 3183              	.L325:
 3184              		.loc 1 1432 0
 3185 0070 F323     		movs	r3, #243
 3186 0072 2371     		strb	r3, [r4, #4]
 3187              		.loc 1 1430 0
 3188 0074 D4E7     		b	.L317
 3189              		.cfi_endproc
 3190              	.LFE32:
 3191              		.size	do_close, .-do_close
 3192 0076 00BFAFF3 		.text
 3192      0080AFF3 
 3192      0080
 3193              	.Letext0:
 3194              		.file 2 "/usr/local/summon/lib/gcc/arm-none-eabi/4.6.2/include/stddef.h"
 3195              		.file 3 "/usr/local/summon/lib/gcc/arm-none-eabi/4.6.2/../../../../arm-none-eabi/include/stdint.h"
 3196              		.file 4 "../../os/ports/GCC/ARMCMx/chtypes.h"
 3197              		.file 5 "../../os/kernel/include/chlists.h"
 3198              		.file 6 "../../os/kernel/include/chthreads.h"
 3199              		.file 7 "../../os/ports/GCC/ARMCMx/chcore_v7m.h"
 3200              		.file 8 "../../os/kernel/include/chsem.h"
 3201              		.file 9 "../../os/kernel/include/chmtx.h"
 3202              		.file 10 "../../os/kernel/include/chmboxes.h"
 3203              		.file 11 "../../os/various/lwip_bindings/arch/cc.h"
 3204              		.file 12 "../../ext/lwip/src/include/ipv4/lwip/ip_addr.h"
 3205              		.file 13 "../../ext/lwip/src/include/lwip/err.h"
 3206              		.file 14 "../../os/various/lwip_bindings/arch/sys_arch.h"
 3207              		.file 15 "../../ext/lwip/src/include/lwip/pbuf.h"
 3208              		.file 16 "../../ext/lwip/src/include/lwip/netbuf.h"
 3209              		.file 17 "../../ext/lwip/src/include/lwip/api.h"
 3210              		.file 18 "../../ext/lwip/src/include/ipv4/lwip/ip.h"
 3211              		.file 19 "../../ext/lwip/src/include/lwip/tcp.h"
 3212              		.file 20 "../../ext/lwip/src/include/lwip/udp.h"
 3213              		.file 21 "../../ext/lwip/src/include/lwip/raw.h"
 3214              		.file 22 "../../ext/lwip/src/include/lwip/api_msg.h"
 3215              		.file 23 "../../ext/lwip/src/include/lwip/memp.h"