ARM GAS  /var/folders/5n/p_75w94d66l9ssrldxqdhh700000gn/T//cck2rJgO.s 			page 1


   1              		.syntax unified
   2              		.cpu cortex-m4
   3              		.fpu softvfp
   4              		.eabi_attribute 20, 1
   5              		.eabi_attribute 21, 1
   6              		.eabi_attribute 23, 3
   7              		.eabi_attribute 24, 1
   8              		.eabi_attribute 25, 1
   9              		.eabi_attribute 26, 1
  10              		.eabi_attribute 30, 2
  11              		.eabi_attribute 18, 4
  12              		.thumb
  13              		.file	"api_lib.c"
  14              		.text
  15              	.Ltext0:
  16              		.cfi_sections	.debug_frame
  17              		.section	.text.netconn_recv_data,"ax",%progbits
  18              		.align	2
  19              		.p2align 4,,15
  20              		.thumb
  21              		.thumb_func
  22              		.type	netconn_recv_data, %function
  23              	netconn_recv_data:
  24              	.LFB15:
  25              		.file 1 "../../ext/lwip/src/api/api_lib.c"
  26              		.loc 1 343 0
  27              		.cfi_startproc
  28              		@ args = 0, pretend = 0, frame = 32
  29              		@ frame_needed = 0, uses_anonymous_args = 0
  30              	.LVL0:
  31 0000 F0B5     		push	{r4, r5, r6, r7, lr}
  32              	.LCFI0:
  33              		.cfi_def_cfa_offset 20
  34              		.cfi_offset 14, -4
  35              		.cfi_offset 7, -8
  36              		.cfi_offset 6, -12
  37              		.cfi_offset 5, -16
  38              		.cfi_offset 4, -20
  39 0002 89B0     		sub	sp, sp, #36
  40              	.LCFI1:
  41              		.cfi_def_cfa_offset 56
  42              		.loc 1 344 0
  43 0004 0026     		movs	r6, #0
  44              		.loc 1 351 0
  45 0006 0D46     		mov	r5, r1
  46              		.loc 1 343 0
  47 0008 0446     		mov	r4, r0
  48              		.loc 1 344 0
  49 000a 0796     		str	r6, [sp, #28]
  50              	.LVL1:
  51              		.loc 1 351 0
  52 000c 0029     		cmp	r1, #0
  53 000e 5BD0     		beq	.L18
  54              		.loc 1 352 0
  55 0010 0E60     		str	r6, [r1, #0]
  56              		.loc 1 353 0
  57 0012 0028     		cmp	r0, #0
ARM GAS  /var/folders/5n/p_75w94d66l9ssrldxqdhh700000gn/T//cck2rJgO.s 			page 2


  58 0014 58D0     		beq	.L18
  59              		.loc 1 354 0
  60 0016 00F11007 		add	r7, r0, #16
  61 001a 3846     		mov	r0, r7
  62              	.LVL2:
  63 001c FFF7FEFF 		bl	sys_mbox_valid
  64              	.LVL3:
  65 0020 0028     		cmp	r0, #0
  66 0022 4CD0     		beq	.L20
  67              	.LVL4:
  68              		.loc 1 357 0
  69 0024 94F90800 		ldrsb	r0, [r4, #8]
  70 0028 10F1090F 		cmn	r0, #9
  71 002c 01DA     		bge	.L21
  72              	.LVL5:
  73              	.L3:
  74              		.loc 1 422 0
  75 002e 09B0     		add	sp, sp, #36
  76 0030 F0BD     		pop	{r4, r5, r6, r7, pc}
  77              	.LVL6:
  78              	.L21:
  79              		.loc 1 371 0
  80 0032 3846     		mov	r0, r7
  81 0034 07A9     		add	r1, sp, #28
  82 0036 3246     		mov	r2, r6
  83 0038 FFF7FEFF 		bl	sys_arch_mbox_fetch
  84              	.LVL7:
  85              		.loc 1 375 0
  86 003c 2378     		ldrb	r3, [r4, #0]	@ zero_extendqisi2
  87 003e 102B     		cmp	r3, #16
  88 0040 0DD0     		beq	.L22
  89              		.loc 1 406 0
  90 0042 079E     		ldr	r6, [sp, #28]
  91 0044 002E     		cmp	r6, #0
  92 0046 36D0     		beq	.L23
  93              	.L15:
  94              		.loc 1 407 0
  95 0048 3368     		ldr	r3, [r6, #0]
  96 004a 1A89     		ldrh	r2, [r3, #8]
  97              	.LVL8:
  98              	.L14:
  99              		.loc 1 415 0
 100 004c A36A     		ldr	r3, [r4, #40]
 101 004e 1BB1     		cbz	r3, .L16
 102              		.loc 1 415 0 is_stmt 0 discriminator 1
 103 0050 2046     		mov	r0, r4
 104 0052 0121     		movs	r1, #1
 105 0054 9847     		blx	r3
 106              	.LVL9:
 107 0056 079E     		ldr	r6, [sp, #28]
 108              	.L16:
 109              		.loc 1 419 0 is_stmt 1
 110 0058 2E60     		str	r6, [r5, #0]
 111 005a 0020     		movs	r0, #0
 112              		.loc 1 421 0
 113 005c E7E7     		b	.L3
 114              	.L22:
ARM GAS  /var/folders/5n/p_75w94d66l9ssrldxqdhh700000gn/T//cck2rJgO.s 			page 3


 115              		.loc 1 376 0
 116 005e 237F     		ldrb	r3, [r4, #28]	@ zero_extendqisi2
 117 0060 1B07     		lsls	r3, r3, #28
 118 0062 0DD4     		bmi	.L7
 119              		.loc 1 380 0
 120 0064 1B4A     		ldr	r2, .L25
 121              		.loc 1 376 0
 122 0066 079B     		ldr	r3, [sp, #28]
 123              		.loc 1 380 0
 124 0068 0192     		str	r2, [sp, #4]
 125              		.loc 1 381 0
 126 006a 0294     		str	r4, [sp, #8]
 127              		.loc 1 382 0
 128 006c 73B1     		cbz	r3, .L9
 129              		.loc 1 383 0
 130 006e 1B89     		ldrh	r3, [r3, #8]
 131 0070 0493     		str	r3, [sp, #16]
 132              	.L12:
 133              		.loc 1 388 0
 134 0072 01A8     		add	r0, sp, #4
 135 0074 FFF7FEFF 		bl	tcpip_apimsg
 136              		.loc 1 392 0
 137 0078 079E     		ldr	r6, [sp, #28]
 138 007a 56B1     		cbz	r6, .L24
 139              	.L11:
 140              		.loc 1 398 0
 141 007c 3289     		ldrh	r2, [r6, #8]
 142              	.LVL10:
 143 007e E5E7     		b	.L14
 144              	.LVL11:
 145              	.L7:
 146              		.loc 1 376 0 discriminator 1
 147 0080 079E     		ldr	r6, [sp, #28]
 148 0082 002E     		cmp	r6, #0
 149 0084 FAD1     		bne	.L11
 150              		.loc 1 380 0
 151 0086 134B     		ldr	r3, .L25
 152              		.loc 1 381 0
 153 0088 0294     		str	r4, [sp, #8]
 154              		.loc 1 380 0
 155 008a 0193     		str	r3, [sp, #4]
 156              	.L9:
 157              		.loc 1 385 0
 158 008c 0123     		movs	r3, #1
 159 008e 0493     		str	r3, [sp, #16]
 160 0090 EFE7     		b	.L12
 161              	.L24:
 162              		.loc 1 393 0
 163 0092 A36A     		ldr	r3, [r4, #40]
 164 0094 1BB1     		cbz	r3, .L13
 165              		.loc 1 393 0 is_stmt 0 discriminator 1
 166 0096 2046     		mov	r0, r4
 167 0098 0121     		movs	r1, #1
 168 009a 3246     		mov	r2, r6
 169 009c 9847     		blx	r3
 170              	.L13:
 171              		.loc 1 395 0 is_stmt 1
ARM GAS  /var/folders/5n/p_75w94d66l9ssrldxqdhh700000gn/T//cck2rJgO.s 			page 4


 172 009e 94F90830 		ldrsb	r3, [r4, #8]
 173 00a2 0933     		adds	r3, r3, #9
 174 00a4 B8BF     		it	lt
 175 00a6 6FF00B00 		mvnlt	r0, #11
 176 00aa C0DB     		blt	.L3
 177              		.loc 1 395 0 is_stmt 0 discriminator 1
 178 00ac F423     		movs	r3, #244
 179 00ae 2372     		strb	r3, [r4, #8]
 180 00b0 6FF00B00 		mvn	r0, #11
 181 00b4 BBE7     		b	.L3
 182              	.L23:
 183              		.loc 1 406 0 is_stmt 1 discriminator 1
 184 00b6 FFF7FEFF 		bl	port_halt
 185 00ba 079E     		ldr	r6, [sp, #28]
 186 00bc C4E7     		b	.L15
 187              	.L20:
 188              		.loc 1 354 0 discriminator 1
 189 00be FFF7FEFF 		bl	port_halt
 190 00c2 6FF00C00 		mvn	r0, #12
 191 00c6 B2E7     		b	.L3
 192              	.L18:
 193              		.loc 1 353 0 discriminator 1
 194 00c8 FFF7FEFF 		bl	port_halt
 195 00cc 6FF00D00 		mvn	r0, #13
 196 00d0 ADE7     		b	.L3
 197              	.L26:
 198 00d2 00BF     		.align	2
 199              	.L25:
 200 00d4 00000000 		.word	do_recv
 201              		.cfi_endproc
 202              	.LFE15:
 203              		.size	netconn_recv_data, .-netconn_recv_data
 204 00d8 AFF30080 		.section	.text.netconn_new_with_proto_and_callback,"ax",%progbits
 204      AFF30080 
 205              		.align	2
 206              		.p2align 4,,15
 207              		.global	netconn_new_with_proto_and_callback
 208              		.thumb
 209              		.thumb_func
 210              		.type	netconn_new_with_proto_and_callback, %function
 211              	netconn_new_with_proto_and_callback:
 212              	.LFB7:
 213              		.loc 1 69 0
 214              		.cfi_startproc
 215              		@ args = 0, pretend = 0, frame = 24
 216              		@ frame_needed = 0, uses_anonymous_args = 0
 217              	.LVL12:
 218 0000 70B5     		push	{r4, r5, r6, lr}
 219              	.LCFI2:
 220              		.cfi_def_cfa_offset 16
 221              		.cfi_offset 14, -4
 222              		.cfi_offset 6, -8
 223              		.cfi_offset 5, -12
 224              		.cfi_offset 4, -16
 225 0002 0C46     		mov	r4, r1
 226 0004 86B0     		sub	sp, sp, #24
 227              	.LCFI3:
ARM GAS  /var/folders/5n/p_75w94d66l9ssrldxqdhh700000gn/T//cck2rJgO.s 			page 5


 228              		.cfi_def_cfa_offset 40
 229              		.loc 1 73 0
 230 0006 1146     		mov	r1, r2
 231              	.LVL13:
 232 0008 FFF7FEFF 		bl	netconn_alloc
 233              	.LVL14:
 234              		.loc 1 74 0
 235 000c 0546     		mov	r5, r0
 236 000e 40B1     		cbz	r0, .L28
 237              		.loc 1 75 0
 238 0010 1A4B     		ldr	r3, .L37
 239              		.loc 1 76 0
 240 0012 8DF80C40 		strb	r4, [sp, #12]
 241              		.loc 1 78 0
 242 0016 6846     		mov	r0, sp
 243              	.LVL15:
 244              		.loc 1 77 0
 245 0018 8DE82800 		stmia	sp, {r3, r5}
 246              		.loc 1 78 0
 247 001c FFF7FEFF 		bl	tcpip_apimsg
 248 0020 10B9     		cbnz	r0, .L33
 249              	.LVL16:
 250              	.L28:
 251              		.loc 1 92 0
 252 0022 2846     		mov	r0, r5
 253 0024 06B0     		add	sp, sp, #24
 254 0026 70BD     		pop	{r4, r5, r6, pc}
 255              	.LVL17:
 256              	.L33:
 257              		.loc 1 79 0
 258 0028 6B68     		ldr	r3, [r5, #4]
 259 002a 0BB1     		cbz	r3, .L29
 260              		.loc 1 79 0 is_stmt 0 discriminator 1
 261 002c FFF7FEFF 		bl	port_halt
 262              	.L29:
 263              		.loc 1 80 0 is_stmt 1
 264 0030 05F10C06 		add	r6, r5, #12
 265 0034 3046     		mov	r0, r6
 266 0036 FFF7FEFF 		bl	sys_sem_valid
 267 003a B0B1     		cbz	r0, .L34
 268              	.L30:
 269              		.loc 1 81 0
 270 003c 05F11004 		add	r4, r5, #16
 271 0040 2046     		mov	r0, r4
 272 0042 FFF7FEFF 		bl	sys_mbox_valid
 273 0046 B0B1     		cbz	r0, .L35
 274              	.L31:
 275              		.loc 1 83 0
 276 0048 05F11400 		add	r0, r5, #20
 277 004c FFF7FEFF 		bl	sys_mbox_valid
 278 0050 70B9     		cbnz	r0, .L36
 279              	.L32:
 280              		.loc 1 85 0
 281 0052 3046     		mov	r0, r6
 282 0054 FFF7FEFF 		bl	sys_sem_free
 283              		.loc 1 86 0
 284 0058 2046     		mov	r0, r4
ARM GAS  /var/folders/5n/p_75w94d66l9ssrldxqdhh700000gn/T//cck2rJgO.s 			page 6


 285 005a FFF7FEFF 		bl	sys_mbox_free
 286              		.loc 1 87 0
 287 005e 2946     		mov	r1, r5
 288 0060 0820     		movs	r0, #8
 289 0062 FFF7FEFF 		bl	memp_free
 290              		.loc 1 88 0
 291 0066 0025     		movs	r5, #0
 292              	.LVL18:
 293 0068 DBE7     		b	.L28
 294              	.L34:
 295              		.loc 1 80 0 discriminator 1
 296 006a FFF7FEFF 		bl	port_halt
 297 006e E5E7     		b	.L30
 298              	.L36:
 299              		.loc 1 83 0 discriminator 1
 300 0070 FFF7FEFF 		bl	port_halt
 301 0074 EDE7     		b	.L32
 302              	.L35:
 303              		.loc 1 81 0 discriminator 1
 304 0076 FFF7FEFF 		bl	port_halt
 305 007a E5E7     		b	.L31
 306              	.L38:
 307              		.align	2
 308              	.L37:
 309 007c 00000000 		.word	do_newconn
 310              		.cfi_endproc
 311              	.LFE7:
 312              		.size	netconn_new_with_proto_and_callback, .-netconn_new_with_proto_and_callback
 313              		.section	.text.netconn_delete,"ax",%progbits
 314              		.align	2
 315              		.p2align 4,,15
 316              		.global	netconn_delete
 317              		.thumb
 318              		.thumb_func
 319              		.type	netconn_delete, %function
 320              	netconn_delete:
 321              	.LFB8:
 322              		.loc 1 104 0
 323              		.cfi_startproc
 324              		@ args = 0, pretend = 0, frame = 24
 325              		@ frame_needed = 0, uses_anonymous_args = 0
 326              	.LVL19:
 327 0000 10B5     		push	{r4, lr}
 328              	.LCFI4:
 329              		.cfi_def_cfa_offset 8
 330              		.cfi_offset 14, -4
 331              		.cfi_offset 4, -8
 332              		.loc 1 108 0
 333 0002 0446     		mov	r4, r0
 334              		.loc 1 104 0
 335 0004 86B0     		sub	sp, sp, #24
 336              	.LCFI5:
 337              		.cfi_def_cfa_offset 32
 338              		.loc 1 108 0
 339 0006 40B1     		cbz	r0, .L40
 340              		.loc 1 112 0
 341 0008 054B     		ldr	r3, .L41
ARM GAS  /var/folders/5n/p_75w94d66l9ssrldxqdhh700000gn/T//cck2rJgO.s 			page 7


 342              		.loc 1 113 0
 343 000a 0190     		str	r0, [sp, #4]
 344              		.loc 1 114 0
 345 000c 6846     		mov	r0, sp
 346              	.LVL20:
 347              		.loc 1 112 0
 348 000e 0093     		str	r3, [sp, #0]
 349              		.loc 1 114 0
 350 0010 FFF7FEFF 		bl	tcpip_apimsg
 351              		.loc 1 116 0
 352 0014 2046     		mov	r0, r4
 353 0016 FFF7FEFF 		bl	netconn_free
 354              	.L40:
 355              		.loc 1 121 0
 356 001a 0020     		movs	r0, #0
 357 001c 06B0     		add	sp, sp, #24
 358 001e 10BD     		pop	{r4, pc}
 359              	.L42:
 360              		.align	2
 361              	.L41:
 362 0020 00000000 		.word	do_delconn
 363              		.cfi_endproc
 364              	.LFE8:
 365              		.size	netconn_delete, .-netconn_delete
 366 0024 AFF30080 		.section	.text.netconn_getaddr,"ax",%progbits
 366      AFF30080 
 366      AFF30080 
 367              		.align	2
 368              		.p2align 4,,15
 369              		.global	netconn_getaddr
 370              		.thumb
 371              		.thumb_func
 372              		.type	netconn_getaddr, %function
 373              	netconn_getaddr:
 374              	.LFB9:
 375              		.loc 1 136 0
 376              		.cfi_startproc
 377              		@ args = 0, pretend = 0, frame = 24
 378              		@ frame_needed = 0, uses_anonymous_args = 0
 379              	.LVL21:
 380 0000 30B5     		push	{r4, r5, lr}
 381              	.LCFI6:
 382              		.cfi_def_cfa_offset 12
 383              		.cfi_offset 14, -4
 384              		.cfi_offset 5, -8
 385              		.cfi_offset 4, -12
 386              		.loc 1 140 0
 387 0002 0446     		mov	r4, r0
 388              		.loc 1 136 0
 389 0004 87B0     		sub	sp, sp, #28
 390              	.LCFI7:
 391              		.cfi_def_cfa_offset 40
 392              		.loc 1 140 0
 393 0006 98B1     		cbz	r0, .L49
 394              		.loc 1 141 0
 395 0008 91B1     		cbz	r1, .L49
 396              		.loc 1 142 0
ARM GAS  /var/folders/5n/p_75w94d66l9ssrldxqdhh700000gn/T//cck2rJgO.s 			page 8


 397 000a 8AB1     		cbz	r2, .L49
 398              		.loc 1 144 0
 399 000c 0A4D     		ldr	r5, .L50
 400              		.loc 1 145 0
 401 000e 0190     		str	r0, [sp, #4]
 402              		.loc 1 149 0
 403 0010 6846     		mov	r0, sp
 404              	.LVL22:
 405              		.loc 1 148 0
 406 0012 8DF81430 		strb	r3, [sp, #20]
 407              		.loc 1 144 0
 408 0016 0095     		str	r5, [sp, #0]
 409              		.loc 1 146 0
 410 0018 0391     		str	r1, [sp, #12]
 411              		.loc 1 147 0
 412 001a 0492     		str	r2, [sp, #16]
 413              		.loc 1 149 0
 414 001c FFF7FEFF 		bl	tcpip_apimsg
 415              	.LVL23:
 416              		.loc 1 151 0
 417 0020 94F90830 		ldrsb	r3, [r4, #8]
 418 0024 0933     		adds	r3, r3, #9
 419 0026 A8BF     		it	ge
 420 0028 2072     		strbge	r0, [r4, #8]
 421              	.LVL24:
 422              	.L45:
 423              		.loc 1 153 0
 424 002a 40B2     		sxtb	r0, r0
 425 002c 07B0     		add	sp, sp, #28
 426 002e 30BD     		pop	{r4, r5, pc}
 427              	.LVL25:
 428              	.L49:
 429              		.loc 1 142 0 discriminator 1
 430 0030 FFF7FEFF 		bl	port_halt
 431              	.LVL26:
 432 0034 F220     		movs	r0, #242
 433 0036 F8E7     		b	.L45
 434              	.L51:
 435              		.align	2
 436              	.L50:
 437 0038 00000000 		.word	do_getaddr
 438              		.cfi_endproc
 439              	.LFE9:
 440              		.size	netconn_getaddr, .-netconn_getaddr
 441 003c AFF30080 		.section	.text.netconn_bind,"ax",%progbits
 442              		.align	2
 443              		.p2align 4,,15
 444              		.global	netconn_bind
 445              		.thumb
 446              		.thumb_func
 447              		.type	netconn_bind, %function
 448              	netconn_bind:
 449              	.LFB10:
 450              		.loc 1 167 0
 451              		.cfi_startproc
 452              		@ args = 0, pretend = 0, frame = 24
 453              		@ frame_needed = 0, uses_anonymous_args = 0
ARM GAS  /var/folders/5n/p_75w94d66l9ssrldxqdhh700000gn/T//cck2rJgO.s 			page 9


 454              	.LVL27:
 455 0000 10B5     		push	{r4, lr}
 456              	.LCFI8:
 457              		.cfi_def_cfa_offset 8
 458              		.cfi_offset 14, -4
 459              		.cfi_offset 4, -8
 460              		.loc 1 171 0
 461 0002 0446     		mov	r4, r0
 462              		.loc 1 167 0
 463 0004 86B0     		sub	sp, sp, #24
 464              	.LCFI9:
 465              		.cfi_def_cfa_offset 32
 466              		.loc 1 171 0
 467 0006 80B1     		cbz	r0, .L55
 468              		.loc 1 173 0
 469 0008 0A4B     		ldr	r3, .L56
 470              		.loc 1 174 0
 471 000a 0190     		str	r0, [sp, #4]
 472              		.loc 1 177 0
 473 000c 6846     		mov	r0, sp
 474              	.LVL28:
 475              		.loc 1 173 0
 476 000e 0093     		str	r3, [sp, #0]
 477              		.loc 1 175 0
 478 0010 0391     		str	r1, [sp, #12]
 479              		.loc 1 176 0
 480 0012 ADF81020 		strh	r2, [sp, #16]	@ movhi
 481              		.loc 1 177 0
 482 0016 FFF7FEFF 		bl	tcpip_apimsg
 483              	.LVL29:
 484              		.loc 1 179 0
 485 001a 94F90830 		ldrsb	r3, [r4, #8]
 486 001e 0933     		adds	r3, r3, #9
 487 0020 A8BF     		it	ge
 488 0022 2072     		strbge	r0, [r4, #8]
 489              	.LVL30:
 490              	.L54:
 491              		.loc 1 181 0
 492 0024 40B2     		sxtb	r0, r0
 493 0026 06B0     		add	sp, sp, #24
 494 0028 10BD     		pop	{r4, pc}
 495              	.LVL31:
 496              	.L55:
 497              		.loc 1 171 0 discriminator 1
 498 002a FFF7FEFF 		bl	port_halt
 499              	.LVL32:
 500 002e F220     		movs	r0, #242
 501 0030 F8E7     		b	.L54
 502              	.L57:
 503 0032 00BF     		.align	2
 504              	.L56:
 505 0034 00000000 		.word	do_bind
 506              		.cfi_endproc
 507              	.LFE10:
 508              		.size	netconn_bind, .-netconn_bind
 509 0038 AFF30080 		.section	.text.netconn_connect,"ax",%progbits
 509      AFF30080 
ARM GAS  /var/folders/5n/p_75w94d66l9ssrldxqdhh700000gn/T//cck2rJgO.s 			page 10


 510              		.align	2
 511              		.p2align 4,,15
 512              		.global	netconn_connect
 513              		.thumb
 514              		.thumb_func
 515              		.type	netconn_connect, %function
 516              	netconn_connect:
 517              	.LFB11:
 518              		.loc 1 193 0
 519              		.cfi_startproc
 520              		@ args = 0, pretend = 0, frame = 24
 521              		@ frame_needed = 0, uses_anonymous_args = 0
 522              	.LVL33:
 523 0000 10B5     		push	{r4, lr}
 524              	.LCFI10:
 525              		.cfi_def_cfa_offset 8
 526              		.cfi_offset 14, -4
 527              		.cfi_offset 4, -8
 528              		.loc 1 197 0
 529 0002 0446     		mov	r4, r0
 530              		.loc 1 193 0
 531 0004 86B0     		sub	sp, sp, #24
 532              	.LCFI11:
 533              		.cfi_def_cfa_offset 32
 534              		.loc 1 197 0
 535 0006 80B1     		cbz	r0, .L61
 536              		.loc 1 199 0
 537 0008 0A4B     		ldr	r3, .L62
 538              		.loc 1 200 0
 539 000a 0190     		str	r0, [sp, #4]
 540              		.loc 1 204 0
 541 000c 6846     		mov	r0, sp
 542              	.LVL34:
 543              		.loc 1 199 0
 544 000e 0093     		str	r3, [sp, #0]
 545              		.loc 1 201 0
 546 0010 0391     		str	r1, [sp, #12]
 547              		.loc 1 202 0
 548 0012 ADF81020 		strh	r2, [sp, #16]	@ movhi
 549              		.loc 1 204 0
 550 0016 FFF7FEFF 		bl	tcpip_apimsg
 551              	.LVL35:
 552              		.loc 1 206 0
 553 001a 94F90830 		ldrsb	r3, [r4, #8]
 554 001e 0933     		adds	r3, r3, #9
 555 0020 A8BF     		it	ge
 556 0022 2072     		strbge	r0, [r4, #8]
 557              	.LVL36:
 558              	.L60:
 559              		.loc 1 208 0
 560 0024 40B2     		sxtb	r0, r0
 561 0026 06B0     		add	sp, sp, #24
 562 0028 10BD     		pop	{r4, pc}
 563              	.LVL37:
 564              	.L61:
 565              		.loc 1 197 0 discriminator 1
 566 002a FFF7FEFF 		bl	port_halt
ARM GAS  /var/folders/5n/p_75w94d66l9ssrldxqdhh700000gn/T//cck2rJgO.s 			page 11


 567              	.LVL38:
 568 002e F220     		movs	r0, #242
 569 0030 F8E7     		b	.L60
 570              	.L63:
 571 0032 00BF     		.align	2
 572              	.L62:
 573 0034 00000000 		.word	do_connect
 574              		.cfi_endproc
 575              	.LFE11:
 576              		.size	netconn_connect, .-netconn_connect
 577 0038 AFF30080 		.section	.text.netconn_disconnect,"ax",%progbits
 577      AFF30080 
 578              		.align	2
 579              		.p2align 4,,15
 580              		.global	netconn_disconnect
 581              		.thumb
 582              		.thumb_func
 583              		.type	netconn_disconnect, %function
 584              	netconn_disconnect:
 585              	.LFB12:
 586              		.loc 1 218 0
 587              		.cfi_startproc
 588              		@ args = 0, pretend = 0, frame = 24
 589              		@ frame_needed = 0, uses_anonymous_args = 0
 590              	.LVL39:
 591 0000 10B5     		push	{r4, lr}
 592              	.LCFI12:
 593              		.cfi_def_cfa_offset 8
 594              		.cfi_offset 14, -4
 595              		.cfi_offset 4, -8
 596              		.loc 1 222 0
 597 0002 0446     		mov	r4, r0
 598              		.loc 1 218 0
 599 0004 86B0     		sub	sp, sp, #24
 600              	.LCFI13:
 601              		.cfi_def_cfa_offset 32
 602              		.loc 1 222 0
 603 0006 68B1     		cbz	r0, .L67
 604              		.loc 1 224 0
 605 0008 084B     		ldr	r3, .L68
 606              		.loc 1 225 0
 607 000a 0190     		str	r0, [sp, #4]
 608              		.loc 1 226 0
 609 000c 6846     		mov	r0, sp
 610              	.LVL40:
 611              		.loc 1 224 0
 612 000e 0093     		str	r3, [sp, #0]
 613              		.loc 1 226 0
 614 0010 FFF7FEFF 		bl	tcpip_apimsg
 615              	.LVL41:
 616              		.loc 1 228 0
 617 0014 94F90830 		ldrsb	r3, [r4, #8]
 618 0018 0933     		adds	r3, r3, #9
 619 001a A8BF     		it	ge
 620 001c 2072     		strbge	r0, [r4, #8]
 621              	.LVL42:
 622              	.L66:
ARM GAS  /var/folders/5n/p_75w94d66l9ssrldxqdhh700000gn/T//cck2rJgO.s 			page 12


 623              		.loc 1 230 0
 624 001e 40B2     		sxtb	r0, r0
 625 0020 06B0     		add	sp, sp, #24
 626 0022 10BD     		pop	{r4, pc}
 627              	.L67:
 628              		.loc 1 222 0 discriminator 1
 629 0024 FFF7FEFF 		bl	port_halt
 630 0028 F220     		movs	r0, #242
 631 002a F8E7     		b	.L66
 632              	.L69:
 633              		.align	2
 634              	.L68:
 635 002c 00000000 		.word	do_disconnect
 636              		.cfi_endproc
 637              	.LFE12:
 638              		.size	netconn_disconnect, .-netconn_disconnect
 639              		.section	.text.netconn_listen_with_backlog,"ax",%progbits
 640              		.align	2
 641              		.p2align 4,,15
 642              		.global	netconn_listen_with_backlog
 643              		.thumb
 644              		.thumb_func
 645              		.type	netconn_listen_with_backlog, %function
 646              	netconn_listen_with_backlog:
 647              	.LFB13:
 648              		.loc 1 242 0
 649              		.cfi_startproc
 650              		@ args = 0, pretend = 0, frame = 24
 651              		@ frame_needed = 0, uses_anonymous_args = 0
 652              	.LVL43:
 653 0000 10B5     		push	{r4, lr}
 654              	.LCFI14:
 655              		.cfi_def_cfa_offset 8
 656              		.cfi_offset 14, -4
 657              		.cfi_offset 4, -8
 658              		.loc 1 250 0
 659 0002 0446     		mov	r4, r0
 660              		.loc 1 242 0
 661 0004 86B0     		sub	sp, sp, #24
 662              	.LCFI15:
 663              		.cfi_def_cfa_offset 32
 664              		.loc 1 250 0
 665 0006 68B1     		cbz	r0, .L73
 666              		.loc 1 252 0
 667 0008 084B     		ldr	r3, .L74
 668              		.loc 1 253 0
 669 000a 0190     		str	r0, [sp, #4]
 670              		.loc 1 257 0
 671 000c 6846     		mov	r0, sp
 672              	.LVL44:
 673              		.loc 1 252 0
 674 000e 0093     		str	r3, [sp, #0]
 675              		.loc 1 257 0
 676 0010 FFF7FEFF 		bl	tcpip_apimsg
 677              	.LVL45:
 678              		.loc 1 259 0
 679 0014 94F90830 		ldrsb	r3, [r4, #8]
ARM GAS  /var/folders/5n/p_75w94d66l9ssrldxqdhh700000gn/T//cck2rJgO.s 			page 13


 680 0018 0933     		adds	r3, r3, #9
 681 001a A8BF     		it	ge
 682 001c 2072     		strbge	r0, [r4, #8]
 683              	.LVL46:
 684              	.L72:
 685              		.loc 1 266 0
 686 001e 40B2     		sxtb	r0, r0
 687 0020 06B0     		add	sp, sp, #24
 688 0022 10BD     		pop	{r4, pc}
 689              	.LVL47:
 690              	.L73:
 691              		.loc 1 250 0 discriminator 1
 692 0024 FFF7FEFF 		bl	port_halt
 693              	.LVL48:
 694 0028 F220     		movs	r0, #242
 695 002a F8E7     		b	.L72
 696              	.L75:
 697              		.align	2
 698              	.L74:
 699 002c 00000000 		.word	do_listen
 700              		.cfi_endproc
 701              	.LFE13:
 702              		.size	netconn_listen_with_backlog, .-netconn_listen_with_backlog
 703              		.section	.text.netconn_accept,"ax",%progbits
 704              		.align	2
 705              		.p2align 4,,15
 706              		.global	netconn_accept
 707              		.thumb
 708              		.thumb_func
 709              		.type	netconn_accept, %function
 710              	netconn_accept:
 711              	.LFB14:
 712              		.loc 1 278 0
 713              		.cfi_startproc
 714              		@ args = 0, pretend = 0, frame = 8
 715              		@ frame_needed = 0, uses_anonymous_args = 0
 716              	.LVL49:
 717 0000 F0B5     		push	{r4, r5, r6, r7, lr}
 718              	.LCFI16:
 719              		.cfi_def_cfa_offset 20
 720              		.cfi_offset 14, -4
 721              		.cfi_offset 7, -8
 722              		.cfi_offset 6, -12
 723              		.cfi_offset 5, -16
 724              		.cfi_offset 4, -20
 725              		.loc 1 286 0
 726 0002 0D46     		mov	r5, r1
 727              		.loc 1 278 0
 728 0004 83B0     		sub	sp, sp, #12
 729              	.LCFI17:
 730              		.cfi_def_cfa_offset 32
 731              		.loc 1 278 0
 732 0006 0446     		mov	r4, r0
 733              		.loc 1 286 0
 734 0008 0029     		cmp	r1, #0
 735 000a 2DD0     		beq	.L85
 736              		.loc 1 287 0
ARM GAS  /var/folders/5n/p_75w94d66l9ssrldxqdhh700000gn/T//cck2rJgO.s 			page 14


 737 000c 0026     		movs	r6, #0
 738 000e 0E60     		str	r6, [r1, #0]
 739              		.loc 1 288 0
 740 0010 0028     		cmp	r0, #0
 741 0012 29D0     		beq	.L85
 742              		.loc 1 289 0
 743 0014 00F11407 		add	r7, r0, #20
 744 0018 3846     		mov	r0, r7
 745              	.LVL50:
 746 001a FFF7FEFF 		bl	sys_mbox_valid
 747              	.LVL51:
 748 001e 0028     		cmp	r0, #0
 749 0020 22D0     		beq	.L85
 750              	.LVL52:
 751              		.loc 1 292 0
 752 0022 94F90800 		ldrsb	r0, [r4, #8]
 753 0026 10F1090F 		cmn	r0, #9
 754 002a 01DA     		bge	.L86
 755              	.LVL53:
 756              	.L78:
 757              		.loc 1 330 0
 758 002c 03B0     		add	sp, sp, #12
 759 002e F0BD     		pop	{r4, r5, r6, r7, pc}
 760              	.LVL54:
 761              	.L86:
 762              		.loc 1 304 0
 763 0030 3846     		mov	r0, r7
 764 0032 01A9     		add	r1, sp, #4
 765 0034 3246     		mov	r2, r6
 766 0036 FFF7FEFF 		bl	sys_arch_mbox_fetch
 767              	.LVL55:
 768              		.loc 1 307 0
 769 003a A36A     		ldr	r3, [r4, #40]
 770 003c 1BB1     		cbz	r3, .L81
 771              		.loc 1 307 0 is_stmt 0 discriminator 1
 772 003e 2046     		mov	r0, r4
 773 0040 0121     		movs	r1, #1
 774 0042 3246     		mov	r2, r6
 775 0044 9847     		blx	r3
 776              	.L81:
 777              	.LVL56:
 778              		.loc 1 309 0 is_stmt 1
 779 0046 019B     		ldr	r3, [sp, #4]
 780 0048 13B1     		cbz	r3, .L87
 781              		.loc 1 322 0
 782 004a 2B60     		str	r3, [r5, #0]
 783 004c 0020     		movs	r0, #0
 784              		.loc 1 324 0
 785 004e EDE7     		b	.L78
 786              	.L87:
 787              		.loc 1 311 0
 788 0050 94F90830 		ldrsb	r3, [r4, #8]
 789 0054 0933     		adds	r3, r3, #9
 790 0056 B8BF     		it	lt
 791 0058 6FF00900 		mvnlt	r0, #9
 792 005c E6DB     		blt	.L78
 793              		.loc 1 311 0 is_stmt 0 discriminator 1
ARM GAS  /var/folders/5n/p_75w94d66l9ssrldxqdhh700000gn/T//cck2rJgO.s 			page 15


 794 005e F623     		movs	r3, #246
 795 0060 2372     		strb	r3, [r4, #8]
 796 0062 6FF00900 		mvn	r0, #9
 797 0066 E1E7     		b	.L78
 798              	.LVL57:
 799              	.L85:
 800              		.loc 1 289 0 is_stmt 1 discriminator 1
 801 0068 FFF7FEFF 		bl	port_halt
 802 006c 6FF00D00 		mvn	r0, #13
 803 0070 DCE7     		b	.L78
 804              		.cfi_endproc
 805              	.LFE14:
 806              		.size	netconn_accept, .-netconn_accept
 807 0072 00BFAFF3 		.section	.text.netconn_recv_tcp_pbuf,"ax",%progbits
 807      0080AFF3 
 807      0080AFF3 
 807      0080
 808              		.align	2
 809              		.p2align 4,,15
 810              		.global	netconn_recv_tcp_pbuf
 811              		.thumb
 812              		.thumb_func
 813              		.type	netconn_recv_tcp_pbuf, %function
 814              	netconn_recv_tcp_pbuf:
 815              	.LFB16:
 816              		.loc 1 435 0
 817              		.cfi_startproc
 818              		@ args = 0, pretend = 0, frame = 0
 819              		@ frame_needed = 0, uses_anonymous_args = 0
 820              	.LVL58:
 821 0000 08B5     		push	{r3, lr}
 822              	.LCFI18:
 823              		.cfi_def_cfa_offset 8
 824              		.cfi_offset 14, -4
 825              		.cfi_offset 3, -8
 826              		.loc 1 436 0
 827 0002 30B1     		cbz	r0, .L89
 828              		.loc 1 436 0 is_stmt 0 discriminator 2
 829 0004 0378     		ldrb	r3, [r0, #0]	@ zero_extendqisi2
 830 0006 102B     		cmp	r3, #16
 831 0008 03D1     		bne	.L89
 832              		.loc 1 440 0 is_stmt 1
 833 000a BDE80840 		pop	{r3, lr}
 834              		.loc 1 439 0
 835 000e FFF7FEBF 		b	netconn_recv_data
 836              	.LVL59:
 837              	.L89:
 838              		.loc 1 436 0 discriminator 1
 839 0012 FFF7FEFF 		bl	port_halt
 840              	.LVL60:
 841              		.loc 1 440 0 discriminator 1
 842 0016 6FF00D00 		mvn	r0, #13
 843 001a 08BD     		pop	{r3, pc}
 844              		.cfi_endproc
 845              	.LFE16:
 846              		.size	netconn_recv_tcp_pbuf, .-netconn_recv_tcp_pbuf
 847 001c AFF30080 		.section	.text.netconn_recv,"ax",%progbits
ARM GAS  /var/folders/5n/p_75w94d66l9ssrldxqdhh700000gn/T//cck2rJgO.s 			page 16


 848              		.align	2
 849              		.p2align 4,,15
 850              		.global	netconn_recv
 851              		.thumb
 852              		.thumb_func
 853              		.type	netconn_recv, %function
 854              	netconn_recv:
 855              	.LFB17:
 856              		.loc 1 452 0
 857              		.cfi_startproc
 858              		@ args = 0, pretend = 0, frame = 8
 859              		@ frame_needed = 0, uses_anonymous_args = 0
 860              	.LVL61:
 861 0000 F0B5     		push	{r4, r5, r6, r7, lr}
 862              	.LCFI19:
 863              		.cfi_def_cfa_offset 20
 864              		.cfi_offset 14, -4
 865              		.cfi_offset 7, -8
 866              		.cfi_offset 6, -12
 867              		.cfi_offset 5, -16
 868              		.cfi_offset 4, -20
 869              		.loc 1 458 0
 870 0002 0C46     		mov	r4, r1
 871              		.loc 1 452 0
 872 0004 83B0     		sub	sp, sp, #12
 873              	.LCFI20:
 874              		.cfi_def_cfa_offset 32
 875              		.loc 1 452 0
 876 0006 0746     		mov	r7, r0
 877              		.loc 1 458 0
 878 0008 0029     		cmp	r1, #0
 879 000a 3DD0     		beq	.L102
 880              		.loc 1 459 0
 881 000c 0025     		movs	r5, #0
 882 000e 0D60     		str	r5, [r1, #0]
 883              		.loc 1 460 0
 884 0010 0028     		cmp	r0, #0
 885 0012 39D0     		beq	.L102
 886              		.loc 1 461 0
 887 0014 00F11000 		add	r0, r0, #16
 888              	.LVL62:
 889 0018 FFF7FEFF 		bl	sys_mbox_valid
 890              	.LVL63:
 891 001c 0028     		cmp	r0, #0
 892 001e 2BD0     		beq	.L103
 893              		.loc 1 464 0
 894 0020 3B78     		ldrb	r3, [r7, #0]	@ zero_extendqisi2
 895 0022 102B     		cmp	r3, #16
 896 0024 07D0     		beq	.L104
 897              		.loc 1 492 0
 898 0026 3846     		mov	r0, r7
 899 0028 2146     		mov	r1, r4
 900 002a FFF7FEFF 		bl	netconn_recv_data
 901 002e 0546     		mov	r5, r0
 902              	.LVL64:
 903              	.L94:
 904              		.loc 1 495 0
ARM GAS  /var/folders/5n/p_75w94d66l9ssrldxqdhh700000gn/T//cck2rJgO.s 			page 17


 905 0030 68B2     		sxtb	r0, r5
 906 0032 03B0     		add	sp, sp, #12
 907 0034 F0BD     		pop	{r4, r5, r6, r7, pc}
 908              	.LVL65:
 909              	.L104:
 910              	.LBB6:
 911              		.loc 1 468 0
 912 0036 0720     		movs	r0, #7
 913              		.loc 1 465 0
 914 0038 0195     		str	r5, [sp, #4]
 915              	.LVL66:
 916              		.loc 1 468 0
 917 003a FFF7FEFF 		bl	memp_malloc
 918              	.LVL67:
 919              		.loc 1 469 0
 920 003e 0646     		mov	r6, r0
 921 0040 70B1     		cbz	r0, .L105
 922              		.loc 1 474 0
 923 0042 3846     		mov	r0, r7
 924              	.LVL68:
 925 0044 01A9     		add	r1, sp, #4
 926 0046 FFF7FEFF 		bl	netconn_recv_data
 927              	.LVL69:
 928              		.loc 1 475 0
 929 004a 0546     		mov	r5, r0
 930 004c 78B9     		cbnz	r0, .L106
 931              		.loc 1 479 0
 932 004e 019B     		ldr	r3, [sp, #4]
 933 0050 B3B1     		cbz	r3, .L107
 934              	.LVL70:
 935              	.L100:
 936              		.loc 1 483 0
 937 0052 0022     		movs	r2, #0
 938              		.loc 1 481 0
 939 0054 3360     		str	r3, [r6, #0]
 940              		.loc 1 482 0
 941 0056 7360     		str	r3, [r6, #4]
 942              		.loc 1 483 0
 943 0058 B281     		strh	r2, [r6, #12]	@ movhi
 944              		.loc 1 484 0
 945 005a B260     		str	r2, [r6, #8]
 946              		.loc 1 485 0
 947 005c 2660     		str	r6, [r4, #0]
 948              		.loc 1 487 0
 949 005e E7E7     		b	.L94
 950              	.L105:
 951              		.loc 1 470 0
 952 0060 97F90830 		ldrsb	r3, [r7, #8]
 953 0064 FF25     		movs	r5, #255
 954 0066 0933     		adds	r3, r3, #9
 955 0068 A8BF     		it	ge
 956 006a 3D72     		strbge	r5, [r7, #8]
 957 006c E0E7     		b	.L94
 958              	.LVL71:
 959              	.L106:
 960              		.loc 1 476 0
 961 006e 0720     		movs	r0, #7
ARM GAS  /var/folders/5n/p_75w94d66l9ssrldxqdhh700000gn/T//cck2rJgO.s 			page 18


 962              	.LVL72:
 963 0070 3146     		mov	r1, r6
 964 0072 FFF7FEFF 		bl	memp_free
 965              		.loc 1 477 0
 966 0076 DBE7     		b	.L94
 967              	.LVL73:
 968              	.L103:
 969              	.LBE6:
 970              		.loc 1 461 0 discriminator 1
 971 0078 FFF7FEFF 		bl	port_halt
 972 007c F325     		movs	r5, #243
 973 007e D7E7     		b	.L94
 974              	.LVL74:
 975              	.L107:
 976              	.LBB7:
 977              		.loc 1 479 0 discriminator 1
 978 0080 FFF7FEFF 		bl	port_halt
 979              	.LVL75:
 980 0084 019B     		ldr	r3, [sp, #4]
 981 0086 E4E7     		b	.L100
 982              	.LVL76:
 983              	.L102:
 984              	.LBE7:
 985              		.loc 1 460 0 discriminator 1
 986 0088 FFF7FEFF 		bl	port_halt
 987 008c F225     		movs	r5, #242
 988 008e CFE7     		b	.L94
 989              		.cfi_endproc
 990              	.LFE17:
 991              		.size	netconn_recv, .-netconn_recv
 992              		.section	.text.netconn_recved,"ax",%progbits
 993              		.align	2
 994              		.p2align 4,,15
 995              		.global	netconn_recved
 996              		.thumb
 997              		.thumb_func
 998              		.type	netconn_recved, %function
 999              	netconn_recved:
 1000              	.LFB18:
 1001              		.loc 1 509 0
 1002              		.cfi_startproc
 1003              		@ args = 0, pretend = 0, frame = 24
 1004              		@ frame_needed = 0, uses_anonymous_args = 0
 1005              	.LVL77:
 1006 0000 00B5     		push	{lr}
 1007              	.LCFI21:
 1008              		.cfi_def_cfa_offset 4
 1009              		.cfi_offset 14, -4
 1010 0002 87B0     		sub	sp, sp, #28
 1011              	.LCFI22:
 1012              		.cfi_def_cfa_offset 32
 1013              		.loc 1 511 0
 1014 0004 10B1     		cbz	r0, .L108
 1015              		.loc 1 511 0 is_stmt 0 discriminator 1
 1016 0006 0378     		ldrb	r3, [r0, #0]	@ zero_extendqisi2
 1017 0008 102B     		cmp	r3, #16
 1018 000a 01D0     		beq	.L110
ARM GAS  /var/folders/5n/p_75w94d66l9ssrldxqdhh700000gn/T//cck2rJgO.s 			page 19


 1019              	.LVL78:
 1020              	.L108:
 1021              		.loc 1 527 0 is_stmt 1
 1022 000c 07B0     		add	sp, sp, #28
 1023 000e 00BD     		pop	{pc}
 1024              	.LVL79:
 1025              	.L110:
 1026              		.loc 1 512 0 discriminator 1
 1027 0010 037F     		ldrb	r3, [r0, #28]	@ zero_extendqisi2
 1028              		.loc 1 511 0 discriminator 1
 1029 0012 1A07     		lsls	r2, r3, #28
 1030 0014 FAD5     		bpl	.L108
 1031              	.LBB8:
 1032              		.loc 1 517 0
 1033 0016 044B     		ldr	r3, .L111
 1034              		.loc 1 518 0
 1035 0018 0190     		str	r0, [sp, #4]
 1036              		.loc 1 521 0
 1037 001a 6846     		mov	r0, sp
 1038              	.LVL80:
 1039              		.loc 1 517 0
 1040 001c 0093     		str	r3, [sp, #0]
 1041              		.loc 1 519 0
 1042 001e 0391     		str	r1, [sp, #12]
 1043              		.loc 1 521 0
 1044 0020 FFF7FEFF 		bl	tcpip_apimsg
 1045              	.LVL81:
 1046 0024 F2E7     		b	.L108
 1047              	.L112:
 1048 0026 00BF     		.align	2
 1049              	.L111:
 1050 0028 00000000 		.word	do_recv
 1051              	.LBE8:
 1052              		.cfi_endproc
 1053              	.LFE18:
 1054              		.size	netconn_recved, .-netconn_recved
 1055 002c AFF30080 		.section	.text.netconn_send,"ax",%progbits
 1056              		.align	2
 1057              		.p2align 4,,15
 1058              		.global	netconn_send
 1059              		.thumb
 1060              		.thumb_func
 1061              		.type	netconn_send, %function
 1062              	netconn_send:
 1063              	.LFB20:
 1064              		.loc 1 559 0
 1065              		.cfi_startproc
 1066              		@ args = 0, pretend = 0, frame = 24
 1067              		@ frame_needed = 0, uses_anonymous_args = 0
 1068              	.LVL82:
 1069 0000 10B5     		push	{r4, lr}
 1070              	.LCFI23:
 1071              		.cfi_def_cfa_offset 8
 1072              		.cfi_offset 14, -4
 1073              		.cfi_offset 4, -8
 1074              		.loc 1 563 0
 1075 0002 0446     		mov	r4, r0
ARM GAS  /var/folders/5n/p_75w94d66l9ssrldxqdhh700000gn/T//cck2rJgO.s 			page 20


 1076              		.loc 1 559 0
 1077 0004 86B0     		sub	sp, sp, #24
 1078              	.LCFI24:
 1079              		.cfi_def_cfa_offset 32
 1080              		.loc 1 563 0
 1081 0006 70B1     		cbz	r0, .L116
 1082              		.loc 1 566 0
 1083 0008 094B     		ldr	r3, .L117
 1084              		.loc 1 567 0
 1085 000a 0190     		str	r0, [sp, #4]
 1086              		.loc 1 569 0
 1087 000c 6846     		mov	r0, sp
 1088              	.LVL83:
 1089              		.loc 1 566 0
 1090 000e 0093     		str	r3, [sp, #0]
 1091              		.loc 1 568 0
 1092 0010 0391     		str	r1, [sp, #12]
 1093              		.loc 1 569 0
 1094 0012 FFF7FEFF 		bl	tcpip_apimsg
 1095              	.LVL84:
 1096              		.loc 1 571 0
 1097 0016 94F90830 		ldrsb	r3, [r4, #8]
 1098 001a 0933     		adds	r3, r3, #9
 1099 001c A8BF     		it	ge
 1100 001e 2072     		strbge	r0, [r4, #8]
 1101              	.LVL85:
 1102              	.L115:
 1103              		.loc 1 573 0
 1104 0020 40B2     		sxtb	r0, r0
 1105 0022 06B0     		add	sp, sp, #24
 1106 0024 10BD     		pop	{r4, pc}
 1107              	.LVL86:
 1108              	.L116:
 1109              		.loc 1 563 0 discriminator 1
 1110 0026 FFF7FEFF 		bl	port_halt
 1111              	.LVL87:
 1112 002a F220     		movs	r0, #242
 1113 002c F8E7     		b	.L115
 1114              	.L118:
 1115 002e 00BF     		.align	2
 1116              	.L117:
 1117 0030 00000000 		.word	do_send
 1118              		.cfi_endproc
 1119              	.LFE20:
 1120              		.size	netconn_send, .-netconn_send
 1121 0034 AFF30080 		.section	.text.netconn_sendto,"ax",%progbits
 1121      AFF30080 
 1121      AFF30080 
 1122              		.align	2
 1123              		.p2align 4,,15
 1124              		.global	netconn_sendto
 1125              		.thumb
 1126              		.thumb_func
 1127              		.type	netconn_sendto, %function
 1128              	netconn_sendto:
 1129              	.LFB19:
 1130              		.loc 1 541 0
ARM GAS  /var/folders/5n/p_75w94d66l9ssrldxqdhh700000gn/T//cck2rJgO.s 			page 21


 1131              		.cfi_startproc
 1132              		@ args = 0, pretend = 0, frame = 0
 1133              		@ frame_needed = 0, uses_anonymous_args = 0
 1134              		@ link register save eliminated.
 1135              	.LVL88:
 1136              		.loc 1 542 0
 1137 0000 29B1     		cbz	r1, .L120
 1138              		.loc 1 543 0
 1139 0002 02B1     		cbz	r2, .L121
 1140              		.loc 1 543 0 is_stmt 0 discriminator 1
 1141 0004 1268     		ldr	r2, [r2, #0]
 1142              	.LVL89:
 1143              	.L121:
 1144              		.loc 1 543 0 discriminator 3
 1145 0006 8A60     		str	r2, [r1, #8]
 1146              		.loc 1 544 0 is_stmt 1 discriminator 3
 1147 0008 8B81     		strh	r3, [r1, #12]	@ movhi
 1148              		.loc 1 548 0 discriminator 3
 1149              		.loc 1 545 0 discriminator 3
 1150 000a FFF7FEBF 		b	netconn_send
 1151              	.LVL90:
 1152              	.L120:
 1153              		.loc 1 548 0
 1154 000e 6FF00500 		mvn	r0, #5
 1155              	.LVL91:
 1156 0012 7047     		bx	lr
 1157              		.cfi_endproc
 1158              	.LFE19:
 1159              		.size	netconn_sendto, .-netconn_sendto
 1160 0014 AFF30080 		.section	.text.netconn_write,"ax",%progbits
 1160      AFF30080 
 1160      AFF30080 
 1161              		.align	2
 1162              		.p2align 4,,15
 1163              		.global	netconn_write
 1164              		.thumb
 1165              		.thumb_func
 1166              		.type	netconn_write, %function
 1167              	netconn_write:
 1168              	.LFB21:
 1169              		.loc 1 589 0
 1170              		.cfi_startproc
 1171              		@ args = 0, pretend = 0, frame = 24
 1172              		@ frame_needed = 0, uses_anonymous_args = 0
 1173              	.LVL92:
 1174 0000 30B5     		push	{r4, r5, lr}
 1175              	.LCFI25:
 1176              		.cfi_def_cfa_offset 12
 1177              		.cfi_offset 14, -4
 1178              		.cfi_offset 5, -8
 1179              		.cfi_offset 4, -12
 1180              		.loc 1 593 0
 1181 0002 0446     		mov	r4, r0
 1182              		.loc 1 589 0
 1183 0004 87B0     		sub	sp, sp, #28
 1184              	.LCFI26:
 1185              		.cfi_def_cfa_offset 40
ARM GAS  /var/folders/5n/p_75w94d66l9ssrldxqdhh700000gn/T//cck2rJgO.s 			page 22


 1186              		.loc 1 593 0
 1187 0006 D0B1     		cbz	r0, .L128
 1188              		.loc 1 594 0
 1189 0008 0078     		ldrb	r0, [r0, #0]	@ zero_extendqisi2
 1190              	.LVL93:
 1191 000a 1028     		cmp	r0, #16
 1192 000c 13D1     		bne	.L129
 1193              		.loc 1 596 0
 1194 000e 1046     		mov	r0, r2
 1195              		.loc 1 595 0
 1196 0010 72B1     		cbz	r2, .L125
 1197              	.LVL94:
 1198              		.loc 1 601 0
 1199 0012 0D4D     		ldr	r5, .L130
 1200              		.loc 1 604 0
 1201 0014 8DF81430 		strb	r3, [sp, #20]
 1202              		.loc 1 609 0
 1203 0018 6846     		mov	r0, sp
 1204              	.LVL95:
 1205              		.loc 1 602 0
 1206 001a 0194     		str	r4, [sp, #4]
 1207              		.loc 1 601 0
 1208 001c 0095     		str	r5, [sp, #0]
 1209              		.loc 1 603 0
 1210 001e 0391     		str	r1, [sp, #12]
 1211              		.loc 1 605 0
 1212 0020 0492     		str	r2, [sp, #16]
 1213              		.loc 1 609 0
 1214 0022 FFF7FEFF 		bl	tcpip_apimsg
 1215              	.LVL96:
 1216              		.loc 1 611 0
 1217 0026 94F90830 		ldrsb	r3, [r4, #8]
 1218 002a 0933     		adds	r3, r3, #9
 1219 002c A8BF     		it	ge
 1220 002e 2072     		strbge	r0, [r4, #8]
 1221              	.LVL97:
 1222              	.L125:
 1223              		.loc 1 613 0
 1224 0030 40B2     		sxtb	r0, r0
 1225 0032 07B0     		add	sp, sp, #28
 1226 0034 30BD     		pop	{r4, r5, pc}
 1227              	.LVL98:
 1228              	.L129:
 1229              		.loc 1 594 0 discriminator 1
 1230 0036 FFF7FEFF 		bl	port_halt
 1231              	.LVL99:
 1232 003a FA20     		movs	r0, #250
 1233 003c F8E7     		b	.L125
 1234              	.LVL100:
 1235              	.L128:
 1236              		.loc 1 593 0 discriminator 1
 1237 003e FFF7FEFF 		bl	port_halt
 1238              	.LVL101:
 1239 0042 F220     		movs	r0, #242
 1240 0044 F4E7     		b	.L125
 1241              	.L131:
 1242 0046 00BF     		.align	2
ARM GAS  /var/folders/5n/p_75w94d66l9ssrldxqdhh700000gn/T//cck2rJgO.s 			page 23


 1243              	.L130:
 1244 0048 00000000 		.word	do_write
 1245              		.cfi_endproc
 1246              	.LFE21:
 1247              		.size	netconn_write, .-netconn_write
 1248 004c AFF30080 		.section	.text.netconn_close,"ax",%progbits
 1249              		.align	2
 1250              		.p2align 4,,15
 1251              		.global	netconn_close
 1252              		.thumb
 1253              		.thumb_func
 1254              		.type	netconn_close, %function
 1255              	netconn_close:
 1256              	.LFB23:
 1257              		.loc 1 650 0
 1258              		.cfi_startproc
 1259              		@ args = 0, pretend = 0, frame = 24
 1260              		@ frame_needed = 0, uses_anonymous_args = 0
 1261              	.LVL102:
 1262 0000 10B5     		push	{r4, lr}
 1263              	.LCFI27:
 1264              		.cfi_def_cfa_offset 8
 1265              		.cfi_offset 14, -4
 1266              		.cfi_offset 4, -8
 1267              	.LBB9:
 1268              	.LBB10:
 1269              		.loc 1 628 0
 1270 0002 0446     		mov	r4, r0
 1271              	.LBE10:
 1272              	.LBE9:
 1273              		.loc 1 650 0
 1274 0004 86B0     		sub	sp, sp, #24
 1275              	.LCFI28:
 1276              		.cfi_def_cfa_offset 32
 1277              	.LBB13:
 1278              	.LBB11:
 1279              		.loc 1 628 0
 1280 0006 80B1     		cbz	r0, .L135
 1281              		.loc 1 630 0
 1282 0008 0A4B     		ldr	r3, .L136
 1283              		.loc 1 631 0
 1284 000a 0190     		str	r0, [sp, #4]
 1285              		.loc 1 630 0
 1286 000c 0093     		str	r3, [sp, #0]
 1287              		.loc 1 636 0
 1288 000e 6846     		mov	r0, sp
 1289              	.LVL103:
 1290              		.loc 1 633 0
 1291 0010 0323     		movs	r3, #3
 1292 0012 8DF80C30 		strb	r3, [sp, #12]
 1293              		.loc 1 636 0
 1294 0016 FFF7FEFF 		bl	tcpip_apimsg
 1295              	.LVL104:
 1296              		.loc 1 638 0
 1297 001a 94F90830 		ldrsb	r3, [r4, #8]
 1298 001e 0933     		adds	r3, r3, #9
 1299 0020 A8BF     		it	ge
ARM GAS  /var/folders/5n/p_75w94d66l9ssrldxqdhh700000gn/T//cck2rJgO.s 			page 24


 1300 0022 2072     		strbge	r0, [r4, #8]
 1301              	.LVL105:
 1302              	.L134:
 1303              	.LBE11:
 1304              	.LBE13:
 1305              		.loc 1 653 0
 1306 0024 40B2     		sxtb	r0, r0
 1307 0026 06B0     		add	sp, sp, #24
 1308 0028 10BD     		pop	{r4, pc}
 1309              	.L135:
 1310              	.LBB14:
 1311              	.LBB12:
 1312              		.loc 1 628 0
 1313 002a FFF7FEFF 		bl	port_halt
 1314 002e F220     		movs	r0, #242
 1315 0030 F8E7     		b	.L134
 1316              	.L137:
 1317 0032 00BF     		.align	2
 1318              	.L136:
 1319 0034 00000000 		.word	do_close
 1320              	.LBE12:
 1321              	.LBE14:
 1322              		.cfi_endproc
 1323              	.LFE23:
 1324              		.size	netconn_close, .-netconn_close
 1325 0038 AFF30080 		.section	.text.netconn_shutdown,"ax",%progbits
 1325      AFF30080 
 1326              		.align	2
 1327              		.p2align 4,,15
 1328              		.global	netconn_shutdown
 1329              		.thumb
 1330              		.thumb_func
 1331              		.type	netconn_shutdown, %function
 1332              	netconn_shutdown:
 1333              	.LFB24:
 1334              		.loc 1 663 0
 1335              		.cfi_startproc
 1336              		@ args = 0, pretend = 0, frame = 24
 1337              		@ frame_needed = 0, uses_anonymous_args = 0
 1338              	.LVL106:
 1339 0000 10B5     		push	{r4, lr}
 1340              	.LCFI29:
 1341              		.cfi_def_cfa_offset 8
 1342              		.cfi_offset 14, -4
 1343              		.cfi_offset 4, -8
 1344              		.loc 1 664 0
 1345 0002 002A     		cmp	r2, #0
 1346 0004 14BF     		ite	ne
 1347 0006 0222     		movne	r2, #2
 1348 0008 0022     		moveq	r2, #0
 1349              	.LVL107:
 1350              		.loc 1 663 0
 1351 000a 86B0     		sub	sp, sp, #24
 1352              	.LCFI30:
 1353              		.cfi_def_cfa_offset 32
 1354              	.LBB15:
 1355              	.LBB16:
ARM GAS  /var/folders/5n/p_75w94d66l9ssrldxqdhh700000gn/T//cck2rJgO.s 			page 25


 1356              		.loc 1 628 0
 1357 000c 0446     		mov	r4, r0
 1358              	.LVL108:
 1359 000e A0B1     		cbz	r0, .L143
 1360              		.loc 1 630 0
 1361 0010 0C4B     		ldr	r3, .L144
 1362              		.loc 1 631 0
 1363 0012 0190     		str	r0, [sp, #4]
 1364              	.LBE16:
 1365              	.LBE15:
 1366              		.loc 1 664 0
 1367 0014 0029     		cmp	r1, #0
 1368 0016 0CBF     		ite	eq
 1369 0018 1146     		moveq	r1, r2
 1370 001a 42F00101 		orrne	r1, r2, #1
 1371              	.LVL109:
 1372              	.LBB19:
 1373              	.LBB17:
 1374              		.loc 1 636 0
 1375 001e 6846     		mov	r0, sp
 1376              	.LVL110:
 1377              		.loc 1 630 0
 1378 0020 0093     		str	r3, [sp, #0]
 1379              		.loc 1 633 0
 1380 0022 8DF80C10 		strb	r1, [sp, #12]
 1381              		.loc 1 636 0
 1382 0026 FFF7FEFF 		bl	tcpip_apimsg
 1383              	.LVL111:
 1384              		.loc 1 638 0
 1385 002a 94F90830 		ldrsb	r3, [r4, #8]
 1386 002e 0933     		adds	r3, r3, #9
 1387 0030 A8BF     		it	ge
 1388 0032 2072     		strbge	r0, [r4, #8]
 1389              	.LVL112:
 1390              	.L141:
 1391              	.LBE17:
 1392              	.LBE19:
 1393              		.loc 1 665 0
 1394 0034 40B2     		sxtb	r0, r0
 1395 0036 06B0     		add	sp, sp, #24
 1396 0038 10BD     		pop	{r4, pc}
 1397              	.LVL113:
 1398              	.L143:
 1399              	.LBB20:
 1400              	.LBB18:
 1401              		.loc 1 628 0
 1402 003a FFF7FEFF 		bl	port_halt
 1403              	.LVL114:
 1404 003e F220     		movs	r0, #242
 1405 0040 F8E7     		b	.L141
 1406              	.L145:
 1407 0042 00BF     		.align	2
 1408              	.L144:
 1409 0044 00000000 		.word	do_close
 1410              	.LBE18:
 1411              	.LBE20:
 1412              		.cfi_endproc
ARM GAS  /var/folders/5n/p_75w94d66l9ssrldxqdhh700000gn/T//cck2rJgO.s 			page 26


 1413              	.LFE24:
 1414              		.size	netconn_shutdown, .-netconn_shutdown
 1415 0048 AFF30080 		.text
 1415      AFF30080 
 1416              	.Letext0:
 1417              		.file 2 "/usr/local/summon/lib/gcc/arm-none-eabi/4.6.2/include/stddef.h"
 1418              		.file 3 "/usr/local/summon/lib/gcc/arm-none-eabi/4.6.2/../../../../arm-none-eabi/include/stdint.h"
 1419              		.file 4 "../../os/ports/GCC/ARMCMx/chtypes.h"
 1420              		.file 5 "../../os/kernel/include/chlists.h"
 1421              		.file 6 "../../os/kernel/include/chthreads.h"
 1422              		.file 7 "../../os/ports/GCC/ARMCMx/chcore_v7m.h"
 1423              		.file 8 "../../os/kernel/include/chsem.h"
 1424              		.file 9 "../../os/kernel/include/chmtx.h"
 1425              		.file 10 "../../os/kernel/include/chmboxes.h"
 1426              		.file 11 "../../os/various/lwip_bindings/arch/cc.h"
 1427              		.file 12 "../../ext/lwip/src/include/lwip/err.h"
 1428              		.file 13 "../../ext/lwip/src/include/lwip/pbuf.h"
 1429              		.file 14 "../../ext/lwip/src/include/ipv4/lwip/ip_addr.h"
 1430              		.file 15 "../../ext/lwip/src/include/lwip/netbuf.h"
 1431              		.file 16 "../../os/various/lwip_bindings/arch/sys_arch.h"
 1432              		.file 17 "../../ext/lwip/src/include/lwip/api.h"
 1433              		.file 18 "../../ext/lwip/src/include/ipv4/lwip/ip.h"
 1434              		.file 19 "../../ext/lwip/src/include/lwip/tcp.h"
 1435              		.file 20 "../../ext/lwip/src/include/lwip/udp.h"
 1436              		.file 21 "../../ext/lwip/src/include/lwip/raw.h"
 1437              		.file 22 "../../ext/lwip/src/include/lwip/api_msg.h"
 1438              		.file 23 "../../ext/lwip/src/include/lwip/memp.h"