ARM GAS  /var/folders/5n/p_75w94d66l9ssrldxqdhh700000gn/T//ccBceGy8.s 			page 1


   1              		.syntax unified
   2              		.cpu cortex-m4
   3              		.fpu softvfp
   4              		.eabi_attribute 20, 1
   5              		.eabi_attribute 21, 1
   6              		.eabi_attribute 23, 3
   7              		.eabi_attribute 24, 1
   8              		.eabi_attribute 25, 1
   9              		.eabi_attribute 26, 1
  10              		.eabi_attribute 30, 2
  11              		.eabi_attribute 18, 4
  12              		.thumb
  13              		.file	"chcond.c"
  14              		.text
  15              	.Ltext0:
  16              		.cfi_sections	.debug_frame
  17              		.section	.text.chCondInit,"ax",%progbits
  18              		.align	2
  19              		.p2align 4,,15
  20              		.global	chCondInit
  21              		.thumb
  22              		.thumb_func
  23              		.type	chCondInit, %function
  24              	chCondInit:
  25              	.LFB7:
  26              		.file 1 "../../os/kernel/src/chcond.c"
  27              		.loc 1 52 0
  28              		.cfi_startproc
  29              		@ args = 0, pretend = 0, frame = 0
  30              		@ frame_needed = 0, uses_anonymous_args = 0
  31              		@ link register save eliminated.
  32              	.LVL0:
  33              		.loc 1 56 0
  34 0000 4060     		str	r0, [r0, #4]
  35 0002 0060     		str	r0, [r0, #0]
  36              		.loc 1 57 0
  37 0004 7047     		bx	lr
  38              		.cfi_endproc
  39              	.LFE7:
  40              		.size	chCondInit, .-chCondInit
  41 0006 00BFAFF3 		.section	.text.chCondSignal,"ax",%progbits
  41      0080AFF3 
  41      0080
  42              		.align	2
  43              		.p2align 4,,15
  44              		.global	chCondSignal
  45              		.thumb
  46              		.thumb_func
  47              		.type	chCondSignal, %function
  48              	chCondSignal:
  49              	.LFB8:
  50              		.loc 1 66 0
  51              		.cfi_startproc
  52              		@ args = 0, pretend = 0, frame = 0
  53              		@ frame_needed = 0, uses_anonymous_args = 0
  54              	.LVL1:
  55 0000 08B5     		push	{r3, lr}
ARM GAS  /var/folders/5n/p_75w94d66l9ssrldxqdhh700000gn/T//ccBceGy8.s 			page 2


  56              	.LCFI0:
  57              		.cfi_def_cfa_offset 8
  58              		.cfi_offset 14, -4
  59              		.cfi_offset 3, -8
  60              		.loc 1 66 0
  61 0002 0246     		mov	r2, r0
  62              	.LBB14:
  63              		.loc 1 70 0
  64 0004 2023     		movs	r3, #32
  65              	.LVL2:
  66              	@ 70 "../../os/kernel/src/chcond.c" 1
  67 0006 83F31188 		msr     BASEPRI, r3
  68              	@ 0 "" 2
  69              	.LVL3:
  70              		.thumb
  71              	.LBE14:
  72              		.loc 1 71 0
  73 000a 0068     		ldr	r0, [r0, #0]
  74              	.LVL4:
  75 000c 9042     		cmp	r0, r2
  76 000e 05D0     		beq	.L3
  77              	.LVL5:
  78              	.LBB15:
  79              	.LBB16:
  80              		.file 2 "../../os/kernel/include/chinline.h"
  81              		.loc 2 55 0
  82 0010 0368     		ldr	r3, [r0, #0]
  83              	.LVL6:
  84              	.LBE16:
  85              	.LBE15:
  86              		.loc 1 72 0
  87 0012 0021     		movs	r1, #0
  88              	.LBB18:
  89              	.LBB17:
  90              		.loc 2 55 0
  91 0014 1360     		str	r3, [r2, #0]
  92 0016 5A60     		str	r2, [r3, #4]
  93              	.LBE17:
  94              	.LBE18:
  95              		.loc 1 72 0
  96 0018 FFF7FEFF 		bl	chSchWakeupS
  97              	.LVL7:
  98              	.L3:
  99              	.LBB19:
 100              		.loc 1 73 0
 101 001c 0023     		movs	r3, #0
 102              	.LVL8:
 103              	@ 73 "../../os/kernel/src/chcond.c" 1
 104 001e 83F31188 		msr     BASEPRI, r3
 105              	@ 0 "" 2
 106              	.LVL9:
 107              		.thumb
 108              	.LBE19:
 109              		.loc 1 74 0
 110 0022 08BD     		pop	{r3, pc}
 111              		.cfi_endproc
 112              	.LFE8:
ARM GAS  /var/folders/5n/p_75w94d66l9ssrldxqdhh700000gn/T//ccBceGy8.s 			page 3


 113              		.size	chCondSignal, .-chCondSignal
 114 0024 AFF30080 		.section	.text.chCondSignalI,"ax",%progbits
 114      AFF30080 
 114      AFF30080 
 115              		.align	2
 116              		.p2align 4,,15
 117              		.global	chCondSignalI
 118              		.thumb
 119              		.thumb_func
 120              		.type	chCondSignalI, %function
 121              	chCondSignalI:
 122              	.LFB9:
 123              		.loc 1 87 0
 124              		.cfi_startproc
 125              		@ args = 0, pretend = 0, frame = 0
 126              		@ frame_needed = 0, uses_anonymous_args = 0
 127              	.LVL10:
 128 0000 08B5     		push	{r3, lr}
 129              	.LCFI1:
 130              		.cfi_def_cfa_offset 8
 131              		.cfi_offset 14, -4
 132              		.cfi_offset 3, -8
 133              		.loc 1 87 0
 134 0002 0346     		mov	r3, r0
 135              		.loc 1 92 0
 136 0004 0068     		ldr	r0, [r0, #0]
 137              	.LVL11:
 138 0006 9842     		cmp	r0, r3
 139 0008 06D0     		beq	.L5
 140              	.LVL12:
 141              	.LBB20:
 142              	.LBB21:
 143              		.loc 2 55 0
 144 000a 0268     		ldr	r2, [r0, #0]
 145 000c 1A60     		str	r2, [r3, #0]
 146 000e 5360     		str	r3, [r2, #4]
 147              	.LBE21:
 148              	.LBE20:
 149              		.loc 1 93 0
 150 0010 FFF7FEFF 		bl	chSchReadyI
 151              	.LVL13:
 152 0014 0023     		movs	r3, #0
 153 0016 4362     		str	r3, [r0, #36]
 154              	.L5:
 155 0018 08BD     		pop	{r3, pc}
 156              		.cfi_endproc
 157              	.LFE9:
 158              		.size	chCondSignalI, .-chCondSignalI
 159 001a 00BFAFF3 		.section	.text.chCondBroadcastI,"ax",%progbits
 159      0080
 160              		.align	2
 161              		.p2align 4,,15
 162              		.global	chCondBroadcastI
 163              		.thumb
 164              		.thumb_func
 165              		.type	chCondBroadcastI, %function
 166              	chCondBroadcastI:
ARM GAS  /var/folders/5n/p_75w94d66l9ssrldxqdhh700000gn/T//ccBceGy8.s 			page 4


 167              	.LFB11:
 168              		.loc 1 122 0
 169              		.cfi_startproc
 170              		@ args = 0, pretend = 0, frame = 0
 171              		@ frame_needed = 0, uses_anonymous_args = 0
 172              	.LVL14:
 173 0000 38B5     		push	{r3, r4, r5, lr}
 174              	.LCFI2:
 175              		.cfi_def_cfa_offset 16
 176              		.cfi_offset 14, -4
 177              		.cfi_offset 5, -8
 178              		.cfi_offset 4, -12
 179              		.cfi_offset 3, -16
 180              		.loc 1 122 0
 181 0002 0446     		mov	r4, r0
 182              		.loc 1 130 0
 183 0004 0068     		ldr	r0, [r0, #0]
 184              	.LVL15:
 185 0006 A042     		cmp	r0, r4
 186 0008 0AD0     		beq	.L7
 187              		.loc 1 131 0
 188 000a 6FF00105 		mvn	r5, #1
 189              	.L10:
 190              	.LVL16:
 191              	.LBB22:
 192              	.LBB23:
 193              		.loc 2 55 0
 194 000e 0368     		ldr	r3, [r0, #0]
 195 0010 2360     		str	r3, [r4, #0]
 196 0012 5C60     		str	r4, [r3, #4]
 197              	.LBE23:
 198              	.LBE22:
 199              		.loc 1 131 0
 200 0014 FFF7FEFF 		bl	chSchReadyI
 201              	.LVL17:
 202 0018 4562     		str	r5, [r0, #36]
 203              		.loc 1 130 0
 204 001a 2068     		ldr	r0, [r4, #0]
 205 001c A042     		cmp	r0, r4
 206 001e F6D1     		bne	.L10
 207              	.LVL18:
 208              	.L7:
 209 0020 38BD     		pop	{r3, r4, r5, pc}
 210              		.cfi_endproc
 211              	.LFE11:
 212              		.size	chCondBroadcastI, .-chCondBroadcastI
 213 0022 00BFAFF3 		.section	.text.chCondBroadcast,"ax",%progbits
 213      0080AFF3 
 213      0080AFF3 
 213      0080
 214              		.align	2
 215              		.p2align 4,,15
 216              		.global	chCondBroadcast
 217              		.thumb
 218              		.thumb_func
 219              		.type	chCondBroadcast, %function
 220              	chCondBroadcast:
ARM GAS  /var/folders/5n/p_75w94d66l9ssrldxqdhh700000gn/T//ccBceGy8.s 			page 5


 221              	.LFB10:
 222              		.loc 1 103 0
 223              		.cfi_startproc
 224              		@ args = 0, pretend = 0, frame = 0
 225              		@ frame_needed = 0, uses_anonymous_args = 0
 226              	.LVL19:
 227 0000 08B5     		push	{r3, lr}
 228              	.LCFI3:
 229              		.cfi_def_cfa_offset 8
 230              		.cfi_offset 14, -4
 231              		.cfi_offset 3, -8
 232              	.LBB24:
 233              		.loc 1 105 0
 234 0002 2023     		movs	r3, #32
 235              	.LVL20:
 236              	@ 105 "../../os/kernel/src/chcond.c" 1
 237 0004 83F31188 		msr     BASEPRI, r3
 238              	@ 0 "" 2
 239              	.LVL21:
 240              		.thumb
 241              	.LBE24:
 242              		.loc 1 106 0
 243 0008 FFF7FEFF 		bl	chCondBroadcastI
 244              	.LVL22:
 245              		.loc 1 107 0
 246 000c FFF7FEFF 		bl	chSchRescheduleS
 247              	.LBB25:
 248              		.loc 1 108 0
 249 0010 0023     		movs	r3, #0
 250              	.LVL23:
 251              	@ 108 "../../os/kernel/src/chcond.c" 1
 252 0012 83F31188 		msr     BASEPRI, r3
 253              	@ 0 "" 2
 254              	.LVL24:
 255              		.thumb
 256              	.LBE25:
 257              		.loc 1 109 0
 258 0016 08BD     		pop	{r3, pc}
 259              		.cfi_endproc
 260              	.LFE10:
 261              		.size	chCondBroadcast, .-chCondBroadcast
 262 0018 AFF30080 		.section	.text.chCondWaitS,"ax",%progbits
 262      AFF30080 
 263              		.align	2
 264              		.p2align 4,,15
 265              		.global	chCondWaitS
 266              		.thumb
 267              		.thumb_func
 268              		.type	chCondWaitS, %function
 269              	chCondWaitS:
 270              	.LFB13:
 271              		.loc 1 177 0
 272              		.cfi_startproc
 273              		@ args = 0, pretend = 0, frame = 0
 274              		@ frame_needed = 0, uses_anonymous_args = 0
 275              	.LVL25:
 276              		.loc 1 178 0
ARM GAS  /var/folders/5n/p_75w94d66l9ssrldxqdhh700000gn/T//ccBceGy8.s 			page 6


 277 0000 104B     		ldr	r3, .L19
 278              		.loc 1 177 0
 279 0002 70B5     		push	{r4, r5, r6, lr}
 280              	.LCFI4:
 281              		.cfi_def_cfa_offset 16
 282              		.cfi_offset 14, -4
 283              		.cfi_offset 6, -8
 284              		.cfi_offset 5, -12
 285              		.cfi_offset 4, -16
 286              		.loc 1 177 0
 287 0004 0546     		mov	r5, r0
 288              		.loc 1 178 0
 289 0006 9C69     		ldr	r4, [r3, #24]
 290              	.LVL26:
 291              		.loc 1 188 0
 292 0008 FFF7FEFF 		bl	chMtxUnlockS
 293              	.LVL27:
 294              		.loc 1 189 0
 295 000c 6562     		str	r5, [r4, #36]
 296              		.loc 1 188 0
 297 000e 0646     		mov	r6, r0
 298              	.LVL28:
 299              		.loc 1 190 0
 300 0010 2B46     		mov	r3, r5
 301              	.LVL29:
 302              		.loc 2 36 0
 303 0012 2A46     		mov	r2, r5
 304 0014 03E0     		b	.L15
 305              	.LVL30:
 306              	.L18:
 307              	.LBB26:
 308              	.LBB27:
 309              		.loc 2 39 0
 310 0016 9068     		ldr	r0, [r2, #8]
 311 0018 A168     		ldr	r1, [r4, #8]
 312 001a 8842     		cmp	r0, r1
 313 001c 10D3     		bcc	.L17
 314              	.L15:
 315              		.loc 2 38 0
 316 001e 1268     		ldr	r2, [r2, #0]
 317              	.LVL31:
 318              		.loc 2 39 0
 319 0020 9542     		cmp	r5, r2
 320 0022 F8D1     		bne	.L18
 321              	.L14:
 322              		.loc 2 41 0
 323 0024 5A68     		ldr	r2, [r3, #4]
 324              	.LVL32:
 325              		.loc 2 40 0
 326 0026 2360     		str	r3, [r4, #0]
 327              		.loc 2 41 0
 328 0028 6260     		str	r2, [r4, #4]
 329              		.loc 2 42 0
 330 002a 1460     		str	r4, [r2, #0]
 331 002c 5C60     		str	r4, [r3, #4]
 332              	.LBE27:
 333              	.LBE26:
ARM GAS  /var/folders/5n/p_75w94d66l9ssrldxqdhh700000gn/T//ccBceGy8.s 			page 7


 334              		.loc 1 191 0
 335 002e 0520     		movs	r0, #5
 336 0030 FFF7FEFF 		bl	chSchGoSleepS
 337              		.loc 1 192 0
 338 0034 646A     		ldr	r4, [r4, #36]
 339              	.LVL33:
 340              		.loc 1 193 0
 341 0036 3046     		mov	r0, r6
 342 0038 FFF7FEFF 		bl	chMtxLockS
 343              		.loc 1 195 0
 344 003c 2046     		mov	r0, r4
 345 003e 70BD     		pop	{r4, r5, r6, pc}
 346              	.LVL34:
 347              	.L17:
 348              	.LBB29:
 349              	.LBB28:
 350              		.loc 2 38 0
 351 0040 1346     		mov	r3, r2
 352 0042 EFE7     		b	.L14
 353              	.L20:
 354              		.align	2
 355              	.L19:
 356 0044 00000000 		.word	rlist
 357              	.LBE28:
 358              	.LBE29:
 359              		.cfi_endproc
 360              	.LFE13:
 361              		.size	chCondWaitS, .-chCondWaitS
 362 0048 AFF30080 		.section	.text.chCondWait,"ax",%progbits
 362      AFF30080 
 363              		.align	2
 364              		.p2align 4,,15
 365              		.global	chCondWait
 366              		.thumb
 367              		.thumb_func
 368              		.type	chCondWait, %function
 369              	chCondWait:
 370              	.LFB12:
 371              		.loc 1 151 0
 372              		.cfi_startproc
 373              		@ args = 0, pretend = 0, frame = 0
 374              		@ frame_needed = 0, uses_anonymous_args = 0
 375              	.LVL35:
 376 0000 08B5     		push	{r3, lr}
 377              	.LCFI5:
 378              		.cfi_def_cfa_offset 8
 379              		.cfi_offset 14, -4
 380              		.cfi_offset 3, -8
 381              	.LBB30:
 382              		.loc 1 154 0
 383 0002 2023     		movs	r3, #32
 384              	.LVL36:
 385              	@ 154 "../../os/kernel/src/chcond.c" 1
 386 0004 83F31188 		msr     BASEPRI, r3
 387              	@ 0 "" 2
 388              	.LVL37:
 389              		.thumb
ARM GAS  /var/folders/5n/p_75w94d66l9ssrldxqdhh700000gn/T//ccBceGy8.s 			page 8


 390              	.LBE30:
 391              		.loc 1 155 0
 392 0008 FFF7FEFF 		bl	chCondWaitS
 393              	.LVL38:
 394              	.LBB31:
 395              		.loc 1 156 0
 396 000c 0023     		movs	r3, #0
 397              	.LVL39:
 398              	@ 156 "../../os/kernel/src/chcond.c" 1
 399 000e 83F31188 		msr     BASEPRI, r3
 400              	@ 0 "" 2
 401              	.LVL40:
 402              		.thumb
 403              	.LBE31:
 404              		.loc 1 158 0
 405 0012 08BD     		pop	{r3, pc}
 406              		.cfi_endproc
 407              	.LFE12:
 408              		.size	chCondWait, .-chCondWait
 409 0014 AFF30080 		.section	.text.chCondWaitTimeoutS,"ax",%progbits
 409      AFF30080 
 409      AFF30080 
 410              		.align	2
 411              		.p2align 4,,15
 412              		.global	chCondWaitTimeoutS
 413              		.thumb
 414              		.thumb_func
 415              		.type	chCondWaitTimeoutS, %function
 416              	chCondWaitTimeoutS:
 417              	.LFB15:
 418              		.loc 1 263 0
 419              		.cfi_startproc
 420              		@ args = 0, pretend = 0, frame = 0
 421              		@ frame_needed = 0, uses_anonymous_args = 0
 422              	.LVL41:
 423 0000 F8B5     		push	{r3, r4, r5, r6, r7, lr}
 424              	.LCFI6:
 425              		.cfi_def_cfa_offset 24
 426              		.cfi_offset 14, -4
 427              		.cfi_offset 7, -8
 428              		.cfi_offset 6, -12
 429              		.cfi_offset 5, -16
 430              		.cfi_offset 4, -20
 431              		.cfi_offset 3, -24
 432              		.loc 1 263 0
 433 0002 0446     		mov	r4, r0
 434 0004 0E46     		mov	r6, r1
 435              		.loc 1 273 0
 436 0006 FFF7FEFF 		bl	chMtxUnlockS
 437              	.LVL42:
 438              		.loc 1 274 0
 439 000a 104B     		ldr	r3, .L29
 440              		.loc 1 273 0
 441 000c 0546     		mov	r5, r0
 442              	.LVL43:
 443              		.loc 1 274 0
 444 000e 9869     		ldr	r0, [r3, #24]
ARM GAS  /var/folders/5n/p_75w94d66l9ssrldxqdhh700000gn/T//ccBceGy8.s 			page 9


 445              	.LVL44:
 446              		.loc 1 275 0
 447 0010 2746     		mov	r7, r4
 448              	.LVL45:
 449              		.loc 1 274 0
 450 0012 4462     		str	r4, [r0, #36]
 451              		.loc 2 36 0
 452 0014 2346     		mov	r3, r4
 453              	.LVL46:
 454 0016 03E0     		b	.L24
 455              	.LVL47:
 456              	.L28:
 457              	.LBB32:
 458              	.LBB33:
 459              		.loc 2 39 0
 460 0018 9968     		ldr	r1, [r3, #8]
 461 001a 8268     		ldr	r2, [r0, #8]
 462 001c 9142     		cmp	r1, r2
 463 001e 13D3     		bcc	.L27
 464              	.L24:
 465              		.loc 2 38 0
 466 0020 1B68     		ldr	r3, [r3, #0]
 467              	.LVL48:
 468              		.loc 2 39 0
 469 0022 9C42     		cmp	r4, r3
 470 0024 F8D1     		bne	.L28
 471              	.L23:
 472              		.loc 2 41 0
 473 0026 7B68     		ldr	r3, [r7, #4]
 474              	.LVL49:
 475              		.loc 2 40 0
 476 0028 0760     		str	r7, [r0, #0]
 477              		.loc 2 41 0
 478 002a 4360     		str	r3, [r0, #4]
 479              		.loc 2 42 0
 480 002c 1860     		str	r0, [r3, #0]
 481 002e 7860     		str	r0, [r7, #4]
 482              	.LBE33:
 483              	.LBE32:
 484              		.loc 1 276 0
 485 0030 3146     		mov	r1, r6
 486 0032 0520     		movs	r0, #5
 487 0034 FFF7FEFF 		bl	chSchGoSleepTimeoutS
 488              	.LVL50:
 489              		.loc 1 277 0
 490 0038 431C     		adds	r3, r0, #1
 491              		.loc 1 276 0
 492 003a 0446     		mov	r4, r0
 493              	.LVL51:
 494              		.loc 1 277 0
 495 003c 02D0     		beq	.L25
 496              		.loc 1 278 0
 497 003e 2846     		mov	r0, r5
 498              	.LVL52:
 499 0040 FFF7FEFF 		bl	chMtxLockS
 500              	.L25:
 501              		.loc 1 280 0
ARM GAS  /var/folders/5n/p_75w94d66l9ssrldxqdhh700000gn/T//ccBceGy8.s 			page 10


 502 0044 2046     		mov	r0, r4
 503 0046 F8BD     		pop	{r3, r4, r5, r6, r7, pc}
 504              	.LVL53:
 505              	.L27:
 506              	.LBB35:
 507              	.LBB34:
 508              		.loc 2 38 0
 509 0048 1F46     		mov	r7, r3
 510 004a ECE7     		b	.L23
 511              	.L30:
 512              		.align	2
 513              	.L29:
 514 004c 00000000 		.word	rlist
 515              	.LBE34:
 516              	.LBE35:
 517              		.cfi_endproc
 518              	.LFE15:
 519              		.size	chCondWaitTimeoutS, .-chCondWaitTimeoutS
 520              		.section	.text.chCondWaitTimeout,"ax",%progbits
 521              		.align	2
 522              		.p2align 4,,15
 523              		.global	chCondWaitTimeout
 524              		.thumb
 525              		.thumb_func
 526              		.type	chCondWaitTimeout, %function
 527              	chCondWaitTimeout:
 528              	.LFB14:
 529              		.loc 1 226 0
 530              		.cfi_startproc
 531              		@ args = 0, pretend = 0, frame = 0
 532              		@ frame_needed = 0, uses_anonymous_args = 0
 533              	.LVL54:
 534 0000 08B5     		push	{r3, lr}
 535              	.LCFI7:
 536              		.cfi_def_cfa_offset 8
 537              		.cfi_offset 14, -4
 538              		.cfi_offset 3, -8
 539              	.LBB36:
 540              		.loc 1 229 0
 541 0002 2023     		movs	r3, #32
 542              	.LVL55:
 543              	@ 229 "../../os/kernel/src/chcond.c" 1
 544 0004 83F31188 		msr     BASEPRI, r3
 545              	@ 0 "" 2
 546              	.LVL56:
 547              		.thumb
 548              	.LBE36:
 549              		.loc 1 230 0
 550 0008 FFF7FEFF 		bl	chCondWaitTimeoutS
 551              	.LVL57:
 552              	.LBB37:
 553              		.loc 1 231 0
 554 000c 0023     		movs	r3, #0
 555              	.LVL58:
 556              	@ 231 "../../os/kernel/src/chcond.c" 1
 557 000e 83F31188 		msr     BASEPRI, r3
 558              	@ 0 "" 2
ARM GAS  /var/folders/5n/p_75w94d66l9ssrldxqdhh700000gn/T//ccBceGy8.s 			page 11


 559              	.LVL59:
 560              		.thumb
 561              	.LBE37:
 562              		.loc 1 233 0
 563 0012 08BD     		pop	{r3, pc}
 564              		.cfi_endproc
 565              	.LFE14:
 566              		.size	chCondWaitTimeout, .-chCondWaitTimeout
 567 0014 AFF30080 		.text
 567      AFF30080 
 567      AFF30080 
 568              	.Letext0:
 569              		.file 3 "/usr/local/summon/lib/gcc/arm-none-eabi/4.6.2/../../../../arm-none-eabi/include/stdint.h"
 570              		.file 4 "../../os/ports/GCC/ARMCMx/chtypes.h"
 571              		.file 5 "../../os/kernel/include/chlists.h"
 572              		.file 6 "../../os/kernel/include/chthreads.h"
 573              		.file 7 "../../os/ports/GCC/ARMCMx/chcore_v7m.h"
 574              		.file 8 "../../os/kernel/include/chschd.h"
 575              		.file 9 "../../os/kernel/include/chmtx.h"
 576              		.file 10 "../../os/kernel/include/chcond.h"