ARM GAS  /var/folders/5n/p_75w94d66l9ssrldxqdhh700000gn/T//ccBceGy8.s 			page 1


   1              		.syntax unified
   2              		.cpu cortex-m4
   3              		.fpu softvfp
   4              		.eabi_attribute 20, 1
   5              		.eabi_attribute 21, 1
   6              		.eabi_attribute 23, 3
   7              		.eabi_attribute 24, 1
   8              		.eabi_attribute 25, 1
   9              		.eabi_attribute 26, 1
  10              		.eabi_attribute 30, 2
  11              		.eabi_attribute 18, 4
  12              		.thumb
  13              		.file	"chcond.c"
  14              		.text
  15              	.Ltext0:
  16              		.cfi_sections	.debug_frame
  17              		.section	.text.chCondInit,"ax",%progbits
  18              		.align	2
  19              		.p2align 4,,15
  20              		.global	chCondInit
  21              		.thumb
  22              		.thumb_func
  23              		.type	chCondInit, %function
  24              	chCondInit:
  25              	.LFB7:
  26              		.file 1 "../../os/kernel/src/chcond.c"
  27              		.loc 1 52 0
  28              		.cfi_startproc
  29              		@ args = 0, pretend = 0, frame = 0
  30              		@ frame_needed = 0, uses_anonymous_args = 0
  31              		@ link register save eliminated.
  32              	.LVL0:
  33              		.loc 1 56 0
  34 0000 4060     		str	r0, [r0, #4]
  35 0002 0060     		str	r0, [r0, #0]
  36              		.loc 1 57 0
  37 0004 7047     		bx	lr
  38              		.cfi_endproc
  39              	.LFE7:
  40              		.size	chCondInit, .-chCondInit
  41 0006 00BFAFF3 		.section	.text.chCondSignal,"ax",%progbits
  41      0080AFF3 
  41      0080
  42              		.align	2
  43              		.p2align 4,,15
  44              		.global	chCondSignal
  45              		.thumb
  46              		.thumb_func
  47              		.type	chCondSignal, %function
  48              	chCondSignal:
  49              	.LFB8:
  50              		.loc 1 66 0
  51              		.cfi_startproc
  52              		@ args = 0, pretend = 0, frame = 0
  53              		@ frame_needed = 0, uses_anonymous_args = 0
  54              	.LVL1:
  55 0000 08B5     		push	{r3, lr}
ARM GAS  /var/folders/5n/p_75w94d66l9ssrldxqdhh700000gn/T//ccBceGy8.s 			page 2


  56              	.LCFI0:
  57              		.cfi_def_cfa_offset 8
  58              		.cfi_offset 14, -4
  59              		.cfi_offset 3, -8
  60              		.loc 1 66 0
  61 0002 0246     		mov	r2, r0
  62              	.LBB14:
  63              		.loc 1 70 0
  64 0004 2023     		movs	r3, #32
  65              	.LVL2:
  66              	@ 70 "../../os/kernel/src/chcond.c" 1
  67 0006 83F31188 		msr     BASEPRI, r3
  68              	@ 0 "" 2
  69              	.LVL3:
  70              		.thumb
  71              	.LBE14:
  72              		.loc 1 71 0
  73 000a 0068     		ldr	r0, [r0, #0]
  74              	.LVL4:
  75 000c 9042     		cmp	r0, r2
  76 000e 05D0     		beq	.L3
  77              	.LVL5:
  78              	.LBB15:
  79              	.LBB16:
  80              		.file 2 "../../os/kernel/include/chinline.h"
  81              		.loc 2 55 0
  82 0010 0368     		ldr	r3, [r0, #0]
  83              	.LVL6:
  84              	.LBE16:
  85              	.LBE15:
  86              		.loc 1 72 0
  87 0012 0021     		movs	r1, #0
  88              	.LBB18:
  89              	.LBB17:
  90              		.loc 2 55 0
  91 0014 1360     		str	r3, [r2, #0]
  92 0016 5A60     		str	r2, [r3, #4]
  93              	.LBE17:
  94              	.LBE18:
  95              		.loc 1 72 0
  96 0018 FFF7FEFF 		bl	chSchWakeupS
  97              	.LVL7:
  98              	.L3:
  99              	.LBB19:
 100              		.loc 1 73 0
 101 001c 0023     		movs	r3, #0
 102              	.LVL8:
 103              	@ 73 "../../os/kernel/src/chcond.c" 1
 104 001e 83F31188 		msr     BASEPRI, r3
 105              	@ 0 "" 2
 106              	.LVL9:
 107              		.thumb
 108              	.LBE19:
 109              		.loc 1 74 0
 110 0022 08BD     		pop	{r3, pc}
 111              		.cfi_endproc
 112              	.LFE8:
ARM GAS  /var/folders/5n/p_75w94d66l9ssrldxqdhh700000gn/T//ccBceGy8.s 			page 3


 113              		.size	chCondSignal, .-chCondSignal
 114 0024 AFF30080 		.section	.text.chCondSignalI,"ax",%progbits
 114      AFF30080 
 114      AFF30080 
 115              		.align	2
 116              		.p2align 4,,15
 117              		.global	chCondSignalI
 118              		.thumb
 119              		.thumb_func
 120              		.type	chCondSignalI, %function
 121              	chCondSignalI:
 122              	.LFB9:
 123              		.loc 1 87 0
 124              		.cfi_startproc
 125              		@ args = 0, pretend = 0, frame = 0
 126              		@ frame_needed = 0, uses_anonymous_args = 0
 127              	.LVL10:
 128 0000 08B5     		push	{r3, lr}
 129              	.LCFI1:
 130              		.cfi_def_cfa_offset 8
 131              		.cfi_offset 14, -4
 132              		.cfi_offset 3, -8
 133              		.loc 1 87 0
 134 0002 0346     		mov	r3, r0
 135              		.loc 1 92 0
 136 0004 0068     		ldr	r0, [r0, #0]
 137              	.LVL11:
 138 0006 9842     		cmp	r0, r3
 139 0008 06D0     		beq	.L5
 140              	.LVL12:
 141              	.LBB20:
 142              	.LBB21:
 143              		.loc 2 55 0
 144 000a 0268     		ldr	r2, [r0, #0]
 145 000c 1A60     		str	r2, [r3, #0]
 146 000e 5360     		str	r3, [r2, #4]
 147              	.LBE21:
 148              	.LBE20:
 149              		.loc 1 93 0
 150 0010 FFF7FEFF 		bl	chSchReadyI
 151              	.LVL13:
 152 0014 0023     		movs	r3, #0
 153 0016 4362     		str	r3, [r0, #36]
 154              	.L5:
 155 0018 08BD     		pop	{r3, pc}
 156              		.cfi_endproc
 157              	.LFE9:
 158              		.size	chCondSignalI, .-chCondSignalI
 159 001a 00BFAFF3 		.section	.text.chCondBroadcastI,"ax",%progbits
 159      0080
 160              		.align	2
 161              		.p2align 4,,15
 162              		.global	chCondBroadcastI
 163              		.thumb
 164              		.thumb_func
 165              		.type	chCondBroadcastI, %function
 166              	chCondBroadcastI:
ARM GAS  /var/folders/5n/p_75w94d66l9ssrldxqdhh700000gn/T//ccBceGy8.s 			page 4


 167              	.LFB11:
 168              		.loc 1 122 0
 169              		.cfi_startproc
 170              		@ args = 0, pretend = 0, frame = 0
 171              		@ frame_needed = 0, uses_anonymous_args = 0
 172              	.LVL14:
 173 0000 38B5     		push	{r3, r4, r5, lr}
 174              	.LCFI2:
 175              		.cfi_def_cfa_offset 16
 176              		.cfi_offset 14, -4
 177              		.cfi_offset 5, -8
 178              		.cfi_offset 4, -12
 179              		.cfi_offset 3, -16
 180              		.loc 1 122 0
 181 0002 0446     		mov	r4, r0
 182              		.loc 1 130 0
 183 0004 0068     		ldr	r0, [r0, #0]
 184              	.LVL15:
 185 0006 A042     		cmp	r0, r4
 186 0008 0AD0     		beq	.L7
 187              		.loc 1 131 0
 188 000a 6FF00105 		mvn	r5, #1
 189              	.L10:
 190              	.LVL16:
 191              	.LBB22:
 192              	.LBB23:
 193              		.loc 2 55 0
 194 000e 0368     		ldr	r3, [r0, #0]
 195 0010 2360     		str	r3, [r4, #0]
 196 0012 5C60     		str	r4, [r3, #4]
 197              	.LBE23:
 198              	.LBE22:
 199              		.loc 1 131 0
 200 0014 FFF7FEFF 		bl	chSchReadyI
 201              	.LVL17:
 202 0018 4562     		str	r5, [r0, #36]
 203              		.loc 1 130 0
 204 001a 2068     		ldr	r0, [r4, #0]
 205 001c A042     		cmp	r0, r4
 206 001e F6D1     		bne	.L10
 207              	.LVL18:
 208              	.L7:
 209 0020 38BD     		pop	{r3, r4, r5, pc}
 210              		.cfi_endproc
 211              	.LFE11:
 212              		.size	chCondBroadcastI, .-chCondBroadcastI
 213 0022 00BFAFF3 		.section	.text.chCondBroadcast,"ax",%progbits
 213      0080AFF3 
 213      0080AFF3 
 213      0080
 214              		.align	2
 215              		.p2align 4,,15
 216              		.global	chCondBroadcast
 217              		.thumb
 218              		.thumb_func
 219              		.type	chCondBroadcast, %function
 220              	chCondBroadcast:
ARM GAS  /var/folders/5n/p_75w94d66l9ssrldxqdhh700000gn/T//ccBceGy8.s 			page 5


 221              	.LFB10:
 222              		.loc 1 103 0
 223              		.cfi_startproc
 224              		@ args = 0, pretend = 0, frame = 0
 225              		@ frame_needed = 0, uses_anonymous_args = 0
 226              	.LVL19:
 227 0000 08B5     		push	{r3, lr}
 228              	.LCFI3:
 229              		.cfi_def_cfa_offset 8
 230              		.cfi_offset 14, -4
 231              		.cfi_offset 3, -8
 232              	.LBB24:
 233              		.loc 1 105 0
 234 0002 2023     		movs	r3, #32
 235              	.LVL20:
 236              	@ 105 "../../os/kernel/src/chcond.c" 1
 237 0004 83F31188 		msr     BASEPRI, r3
 238              	@ 0 "" 2
 239              	.LVL21:
 240              		.thumb
 241              	.LBE24:
 242              		.loc 1 106 0
 243 0008 FFF7FEFF 		bl	chCondBroadcastI
 244              	.LVL22:
 245              		.loc 1 107 0
 246 000c FFF7FEFF 		bl	chSchRescheduleS
 247              	.LBB25:
 248              		.loc 1 108 0
 249 0010 0023     		movs	r3, #0
 250              	.LVL23:
 251              	@ 108 "../../os/kernel/src/chcond.c" 1
 252 0012 83F31188 		msr     BASEPRI, r3
 253              	@ 0 "" 2
 254              	.LVL24:
 255              		.thumb
 256              	.LBE25:
 257              		.loc 1 109 0
 258 0016 08BD     		pop	{r3, pc}
 259              		.cfi_endproc
 260              	.LFE10:
 261              		.size	chCondBroadcast, .-chCondBroadcast
 262 0018 AFF30080 		.section	.text.chCondWaitS,"ax",%progbits
 262      AFF30080 
 263              		.align	2
 264              		.p2align 4,,15
 265              		.global	chCondWaitS
 266              		.thumb
 267              		.thumb_func
 268              		.type	chCondWaitS, %function
 269              	chCondWaitS:
 270              	.LFB13:
 271              		.loc 1 177 0
 272              		.cfi_startproc
 273              		@ args = 0, pretend = 0, frame = 0
 274              		@ frame_needed = 0, uses_anonymous_args = 0
 275              	.LVL25:
 276              		.loc 1 178 0
ARM GAS  /var/folders/5n/p_75w94d66l9ssrldxqdhh700000gn/T//ccBceGy8.s 			page 6


 277 0000 104B     		ldr	r3, .L19
 278              		.loc 1 177 0
 279 0002 70B5     		push	{r4, r5, r6, lr}
 280              	.LCFI4:
 281              		.cfi_def_cfa_offset 16
 282              		.cfi_offset 14, -4
 283              		.cfi_offset 6, -8
 284              		.cfi_offset 5, -12
 285              		.cfi_offset 4, -16
 286              		.loc 1 177 0
 287 0004 0546     		mov	r5, r0
 288              		.loc 1 178 0
 289 0006 9C69     		ldr	r4, [r3, #24]
 290              	.LVL26:
 291              		.loc 1 188 0
 292 0008 FFF7FEFF 		bl	chMtxUnlockS
 293              	.LVL27:
 294              		.loc 1 189 0
 295 000c 6562     		str	r5, [r4, #36]
 296              		.loc 1 188 0
 297 000e 0646     		mov	r6, r0
 298              	.LVL28:
 299              		.loc 1 190 0
 300 0010 2B46     		mov	r3, r5
 301              	.LVL29:
 302              		.loc 2 36 0
 303 0012 2A46     		mov	r2, r5
 304 0014 03E0     		b	.L15
 305              	.LVL30:
 306              	.L18:
 307              	.LBB26:
 308              	.LBB27:
 309              		.loc 2 39 0
 310 0016 9068     		ldr	r0, [r2, #8]
 311 0018 A168     		ldr	r1, [r4, #8]
 312 001a 8842     		cmp	r0, r1
 313 001c 10D3     		bcc	.L17
 314              	.L15:
 315              		.loc 2 38 0
 316 001e 1268     		ldr	r2, [r2, #0]
 317              	.LVL31:
 318              		.loc 2 39 0
 319 0020 9542     		cmp	r5, r2
 320 0022 F8D1     		bne	.L18
 321              	.L14:
 322              		.loc 2 41 0
 323 0024 5A68     		ldr	r2, [r3, #4]
 324              	.LVL32:
 325              		.loc 2 40 0
 326 0026 2360     		str	r3, [r4, #0]
 327              		.loc 2 41 0
 328 0028 6260     		str	r2, [r4, #4]
 329              		.loc 2 42 0
 330 002a 1460     		str	r4, [r2, #0]
 331 002c 5C60     		str	r4, [r3, #4]
 332              	.LBE27:
 333              	.LBE26:
ARM GAS  /var/folders/5n/p_75w94d66l9ssrldxqdhh700000gn/T//ccBceGy8.s 			page 7


 334              		.loc 1 191 0
 335 002e 0520     		movs	r0, #5
 336 0030 FFF7FEFF 		bl	chSchGoSleepS
 337              		.loc 1 192 0
 338 0034 646A     		ldr	r4, [r4, #36]
 339              	.LVL33:
 340              		.loc 1 193 0
 341 0036 3046     		mov	r0, r6
 342 0038 FFF7FEFF 		bl	chMtxLockS
 343              		.loc 1 195 0
 344 003c 2046     		mov	r0, r4
 345 003e 70BD     		pop	{r4, r5, r6, pc}
 346              	.LVL34:
 347              	.L17:
 348              	.LBB29:
 349              	.LBB28:
 350              		.loc 2 38 0
 351 0040 1346     		mov	r3, r2
 352 0042 EFE7     		b	.L14
 353              	.L20:
 354              		.align	2
 355              	.L19:
 356 0044 00000000 		.word	rlist
 357              	.LBE28:
 358              	.LBE29:
 359              		.cfi_endproc
 360              	.LFE13:
 361              		.size	chCondWaitS, .-chCondWaitS
 362 0048 AFF30080 		.section	.text.chCondWait,"ax",%progbits
 362      AFF30080 
 363              		.align	2
 364              		.p2align 4,,15
 365              		.global	chCondWait
 366              		.thumb
 367              		.thumb_func
 368              		.type	chCondWait, %function
 369              	chCondWait:
 370              	.LFB12:
 371              		.loc 1 151 0
 372              		.cfi_startproc
 373              		@ args = 0, pretend = 0, frame = 0
 374              		@ frame_needed = 0, uses_anonymous_args = 0
 375              	.LVL35:
 376 0000 08B5     		push	{r3, lr}
 377              	.LCFI5:
 378              		.cfi_def_cfa_offset 8
 379              		.cfi_offset 14, -4
 380              		.cfi_offset 3, -8
 381              	.LBB30:
 382              		.loc 1 154 0
 383 0002 2023     		movs	r3, #32
 384              	.LVL36:
 385              	@ 154 "../../os/kernel/src/chcond.c" 1
 386 0004 83F31188 		msr     BASEPRI, r3
 387              	@ 0 "" 2
 388              	.LVL37:
 389              		.thumb
ARM GAS  /var/folders/5n/p_75w94d66l9ssrldxqdhh700000gn/T//ccBceGy8.s 			page 8


 390              	.LBE30:
 391              		.loc 1 155 0
 392 0008 FFF7FEFF 		bl	chCondWaitS
 393              	.LVL38:
 394              	.LBB31:
 395              		.loc 1 156 0
 396 000c 0023     		movs	r3, #0
 397              	.LVL39:
 398              	@ 156 "../../os/kernel/src/chcond.c" 1
 399 000e 83F31188 		msr     BASEPRI, r3
 400              	@ 0 "" 2
 401              	.LVL40:
 402              		.thumb
 403              	.LBE31:
 404              		.loc 1 158 0
 405 0012 08BD     		pop	{r3, pc}
 406              		.cfi_endproc
 407              	.LFE12:
 408              		.size	chCondWait, .-chCondWait
 409 0014 AFF30080 		.section	.text.chCondWaitTimeoutS,"ax",%progbits
 409      AFF30080 
 409      AFF30080 
 410              		.align	2
 411              		.p2align 4,,15
 412              		.global	chCondWaitTimeoutS
 413              		.thumb
 414              		.thumb_func
 415              		.type	chCondWaitTimeoutS, %function
 416              	chCondWaitTimeoutS:
 417              	.LFB15:
 418              		.loc 1 263 0
 419              		.cfi_startproc
 420              		@ args = 0, pretend = 0, frame = 0
 421              		@ frame_needed = 0, uses_anonymous_args = 0
 422              	.LVL41:
 423 0000 F8B5     		push	{r3, r4, r5, r6, r7, lr}
 424              	.LCFI6:
 425              		.cfi_def_cfa_offset 24
 426              		.cfi_offset 14, -4
 427              		.cfi_offset 7, -8
 428              		.cfi_offset 6, -12
 429              		.cfi_offset 5, -16
 430              		.cfi_offset 4, -20
 431              		.cfi_offset 3, -24
 432              		.loc 1 263 0
 433 0002 0446     		mov	r4, r0
 434 0004 0E46     		mov	r6, r1
 435              		.loc 1 273 0
 436 0006 FFF7FEFF 		bl	chMtxUnlockS
 437              	.LVL42:
 438              		.loc 1 274 0
 439 000a 104B     		ldr	r3, .L29
 440              		.loc 1 273 0
 441 000c 0546     		mov	r5, r0
 442              	.LVL43:
 443              		.loc 1 274 0
 444 000e 9869     		ldr	r0, [r3, #24]
ARM GAS  /var/folders/5n/p_75w94d66l9ssrldxqdhh700000gn/T//ccBceGy8.s 			page 9


 445              	.LVL44:
 446              		.loc 1 275 0
 447 0010 2746     		mov	r7, r4
 448              	.LVL45:
 449              		.loc 1 274 0
 450 0012 4462     		str	r4, [r0, #36]
 451              		.loc 2 36 0
 452 0014 2346     		mov	r3, r4
 453              	.LVL46:
 454 0016 03E0     		b	.L24
 455              	.LVL47:
 456              	.L28:
 457              	.LBB32:
 458              	.LBB33:
 459              		.loc 2 39 0
 460 0018 9968     		ldr	r1, [r3, #8]
 461 001a 8268     		ldr	r2, [r0, #8]
 462 001c 9142     		cmp	r1, r2
 463 001e 13D3     		bcc	.L27
 464              	.L24:
 465              		.loc 2 38 0
 466 0020 1B68     		ldr	r3, [r3, #0]
 467              	.LVL48:
 468              		.loc 2 39 0
 469 0022 9C42     		cmp	r4, r3
 470 0024 F8D1     		bne	.L28
 471              	.L23:
 472              		.loc 2 41 0
 473 0026 7B68     		ldr	r3, [r7, #4]
 474              	.LVL49:
 475              		.loc 2 40 0
 476 0028 0760     		str	r7, [r0, #0]
 477              		.loc 2 41 0
 478 002a 4360     		str	r3, [r0, #4]
 479              		.loc 2 42 0
 480 002c 1860     		str	r0, [r3, #0]
 481 002e 7860     		str	r0, [r7, #4]
 482              	.LBE33:
 483              	.LBE32:
 484              		.loc 1 276 0
 485 0030 3146     		mov	r1, r6
 486 0032 0520     		movs	r0, #5
 487 0034 FFF7FEFF 		bl	chSchGoSleepTimeoutS
 488              	.LVL50:
 489              		.loc 1 277 0
 490 0038 431C     		adds	r3, r0, #1
 491              		.loc 1 276 0
 492 003a 0446     		mov	r4, r0
 493              	.LVL51:
 494              		.loc 1 277 0
 495 003c 02D0     		beq	.L25
 496              		.loc 1 278 0
 497 003e 2846     		mov	r0, r5
 498              	.LVL52:
 499 0040 FFF7FEFF 		bl	chMtxLockS
 500              	.L25:
 501              		.loc 1 280 0
ARM GAS  /var/folders/5n/p_75w94d66l9ssrldxqdhh700000gn/T//ccBceGy8.s 			page 10


 502 0044 2046     		mov	r0, r4
 503 0046 F8BD     		pop	{r3, r4, r5, r6, r7, pc}
 504              	.LVL53:
 505              	.L27:
 506              	.LBB35:
 507              	.LBB34:
 508              		.loc 2 38 0
 509 0048 1F46     		mov	r7, r3
 510 004a ECE7     		b	.L23
 511              	.L30:
 512              		.align	2
 513              	.L29:
 514 004c 00000000 		.word	rlist
 515              	.LBE34:
 516              	.LBE35:
 517              		.cfi_endproc
 518              	.LFE15:
 519              		.size	chCondWaitTimeoutS, .-chCondWaitTimeoutS
 520              		.section	.text.chCondWaitTimeout,"ax",%progbits
 521              		.align	2
 522              		.p2align 4,,15
 523              		.global	chCondWaitTimeout
 524              		.thumb
 525              		.thumb_func
 526              		.type	chCondWaitTimeout, %function
 527              	chCondWaitTimeout:
 528              	.LFB14:
 529              		.loc 1 226 0
 530              		.cfi_startproc
 531              		@ args = 0, pretend = 0, frame = 0
 532              		@ frame_needed = 0, uses_anonymous_args = 0
 533              	.LVL54:
 534 0000 08B5     		push	{r3, lr}
 535              	.LCFI7:
 536              		.cfi_def_cfa_offset 8
 537              		.cfi_offset 14, -4
 538              		.cfi_offset 3, -8
 539              	.LBB36:
 540              		.loc 1 229 0
 541 0002 2023     		movs	r3, #32
 542              	.LVL55:
 543              	@ 229 "../../os/kernel/src/chcond.c" 1
 544 0004 83F31188 		msr     BASEPRI, r3
 545              	@ 0 "" 2
 546              	.LVL56:
 547              		.thumb
 548              	.LBE36:
 549              		.loc 1 230 0
 550 0008 FFF7FEFF 		bl	chCondWaitTimeoutS
 551              	.LVL57:
 552              	.LBB37:
 553              		.loc 1 231 0
 554 000c 0023     		movs	r3, #0
 555              	.LVL58:
 556              	@ 231 "../../os/kernel/src/chcond.c" 1
 557 000e 83F31188 		msr     BASEPRI, r3
 558              	@ 0 "" 2
ARM GAS  /var/folders/5n/p_75w94d66l9ssrldxqdhh700000gn/T//ccBceGy8.s 			page 11


 559              	.LVL59:
 560              		.thumb
 561              	.LBE37:
 562              		.loc 1 233 0
 563 0012 08BD     		pop	{r3, pc}
 564              		.cfi_endproc
 565              	.LFE14:
 566              		.size	chCondWaitTimeout, .-chCondWaitTimeout
 567 0014 AFF30080 		.text
 567      AFF30080 
 567      AFF30080 
 568              	.Letext0:
 569              		.file 3 "/usr/local/summon/lib/gcc/arm-none-eabi/4.6.2/../../../../arm-none-eabi/include/stdint.h"
 570              		.file 4 "../../os/ports/GCC/ARMCMx/chtypes.h"
 571              		.file 5 "../../os/kernel/include/chlists.h"
 572              		.file 6 "../../os/kernel/include/chthreads.h"
 573              		.file 7 "../../os/ports/GCC/ARMCMx/chcore_v7m.h"
 574              		.file 8 "../../os/kernel/include/chschd.h"
 575              		.file 9 "../../os/kernel/include/chmtx.h"
 576              		.file 10 "../../os/kernel/include/chcond.h"
 577              		.section	.debug_info,"",%progbits
 578              	.Ldebug_info0:
 579 0000 85080000 		.4byte	0x885
 580 0004 0200     		.2byte	0x2
 581 0006 00000000 		.4byte	.Ldebug_abbrev0
 582 000a 04       		.byte	0x4
 583 000b 01       		.uleb128 0x1
 584 000c AE020000 		.4byte	.LASF74
 585 0010 01       		.byte	0x1
 586 0011 C9000000 		.4byte	.LASF75
 587 0015 0F030000 		.4byte	.LASF76
 588 0019 00000000 		.4byte	0
 589 001d 00000000 		.4byte	0
 590 0021 90000000 		.4byte	.Ldebug_ranges0+0x90
 591 0025 00000000 		.4byte	.Ldebug_line0
 592 0029 02       		.uleb128 0x2
 593 002a 04       		.byte	0x4
 594 002b 05       		.byte	0x5
 595 002c 696E7400 		.ascii	"int\000"
 596 0030 03       		.uleb128 0x3
 597 0031 04       		.byte	0x4
 598 0032 07       		.byte	0x7
 599 0033 F3000000 		.4byte	.LASF0
 600 0037 03       		.uleb128 0x3
 601 0038 01       		.byte	0x1
 602 0039 06       		.byte	0x6
 603 003a 70000000 		.4byte	.LASF1
 604 003e 04       		.uleb128 0x4
 605 003f F9020000 		.4byte	.LASF5
 606 0043 03       		.byte	0x3
 607 0044 2A       		.byte	0x2a
 608 0045 49000000 		.4byte	0x49
 609 0049 03       		.uleb128 0x3
 610 004a 01       		.byte	0x1
 611 004b 08       		.byte	0x8
 612 004c E7010000 		.4byte	.LASF2
 613 0050 03       		.uleb128 0x3
ARM GAS  /var/folders/5n/p_75w94d66l9ssrldxqdhh700000gn/T//ccBceGy8.s 			page 12


 614 0051 02       		.byte	0x2
 615 0052 05       		.byte	0x5
 616 0053 FF010000 		.4byte	.LASF3
 617 0057 03       		.uleb128 0x3
 618 0058 02       		.byte	0x2
 619 0059 07       		.byte	0x7
 620 005a 1A010000 		.4byte	.LASF4
 621 005e 04       		.uleb128 0x4
 622 005f DF010000 		.4byte	.LASF6
 623 0063 03       		.byte	0x3
 624 0064 4F       		.byte	0x4f
 625 0065 69000000 		.4byte	0x69
 626 0069 03       		.uleb128 0x3
 627 006a 04       		.byte	0x4
 628 006b 05       		.byte	0x5
 629 006c 9E000000 		.4byte	.LASF7
 630 0070 04       		.uleb128 0x4
 631 0071 52020000 		.4byte	.LASF8
 632 0075 03       		.byte	0x3
 633 0076 50       		.byte	0x50
 634 0077 7B000000 		.4byte	0x7b
 635 007b 03       		.uleb128 0x3
 636 007c 04       		.byte	0x4
 637 007d 07       		.byte	0x7
 638 007e 00010000 		.4byte	.LASF9
 639 0082 03       		.uleb128 0x3
 640 0083 08       		.byte	0x8
 641 0084 05       		.byte	0x5
 642 0085 62000000 		.4byte	.LASF10
 643 0089 03       		.uleb128 0x3
 644 008a 08       		.byte	0x8
 645 008b 07       		.byte	0x7
 646 008c 2A000000 		.4byte	.LASF11
 647 0090 04       		.uleb128 0x4
 648 0091 3F010000 		.4byte	.LASF12
 649 0095 04       		.byte	0x4
 650 0096 28       		.byte	0x28
 651 0097 3E000000 		.4byte	0x3e
 652 009b 04       		.uleb128 0x4
 653 009c A7000000 		.4byte	.LASF13
 654 00a0 04       		.byte	0x4
 655 00a1 29       		.byte	0x29
 656 00a2 3E000000 		.4byte	0x3e
 657 00a6 04       		.uleb128 0x4
 658 00a7 BA010000 		.4byte	.LASF14
 659 00ab 04       		.byte	0x4
 660 00ac 2A       		.byte	0x2a
 661 00ad 3E000000 		.4byte	0x3e
 662 00b1 04       		.uleb128 0x4
 663 00b2 8C000000 		.4byte	.LASF15
 664 00b6 04       		.byte	0x4
 665 00b7 2B       		.byte	0x2b
 666 00b8 3E000000 		.4byte	0x3e
 667 00bc 04       		.uleb128 0x4
 668 00bd C9010000 		.4byte	.LASF16
 669 00c1 04       		.byte	0x4
 670 00c2 2C       		.byte	0x2c
ARM GAS  /var/folders/5n/p_75w94d66l9ssrldxqdhh700000gn/T//ccBceGy8.s 			page 13


 671 00c3 70000000 		.4byte	0x70
 672 00c7 04       		.uleb128 0x4
 673 00c8 2D010000 		.4byte	.LASF17
 674 00cc 04       		.byte	0x4
 675 00cd 2D       		.byte	0x2d
 676 00ce 5E000000 		.4byte	0x5e
 677 00d2 04       		.uleb128 0x4
 678 00d3 53010000 		.4byte	.LASF18
 679 00d7 04       		.byte	0x4
 680 00d8 2F       		.byte	0x2f
 681 00d9 70000000 		.4byte	0x70
 682 00dd 04       		.uleb128 0x4
 683 00de 87020000 		.4byte	.LASF19
 684 00e2 04       		.byte	0x4
 685 00e3 31       		.byte	0x31
 686 00e4 70000000 		.4byte	0x70
 687 00e8 04       		.uleb128 0x4
 688 00e9 38020000 		.4byte	.LASF20
 689 00ed 05       		.byte	0x5
 690 00ee 23       		.byte	0x23
 691 00ef F3000000 		.4byte	0xf3
 692 00f3 05       		.uleb128 0x5
 693 00f4 38020000 		.4byte	.LASF20
 694 00f8 48       		.byte	0x48
 695 00f9 06       		.byte	0x6
 696 00fa 57       		.byte	0x57
 697 00fb 18020000 		.4byte	0x218
 698 00ff 06       		.uleb128 0x6
 699 0100 29020000 		.4byte	.LASF21
 700 0104 06       		.byte	0x6
 701 0105 58       		.byte	0x58
 702 0106 3D020000 		.4byte	0x23d
 703 010a 02       		.byte	0x2
 704 010b 23       		.byte	0x23
 705 010c 00       		.uleb128 0
 706 010d 06       		.uleb128 0x6
 707 010e C2010000 		.4byte	.LASF22
 708 0112 06       		.byte	0x6
 709 0113 5A       		.byte	0x5a
 710 0114 3D020000 		.4byte	0x23d
 711 0118 02       		.byte	0x2
 712 0119 23       		.byte	0x23
 713 011a 04       		.uleb128 0x4
 714 011b 06       		.uleb128 0x6
 715 011c 5B000000 		.4byte	.LASF23
 716 0120 06       		.byte	0x6
 717 0121 5C       		.byte	0x5c
 718 0122 BC000000 		.4byte	0xbc
 719 0126 02       		.byte	0x2
 720 0127 23       		.byte	0x23
 721 0128 08       		.uleb128 0x8
 722 0129 06       		.uleb128 0x6
 723 012a 6D030000 		.4byte	.LASF24
 724 012e 06       		.byte	0x6
 725 012f 5D       		.byte	0x5d
 726 0130 0B030000 		.4byte	0x30b
 727 0134 02       		.byte	0x2
ARM GAS  /var/folders/5n/p_75w94d66l9ssrldxqdhh700000gn/T//ccBceGy8.s 			page 14


 728 0135 23       		.byte	0x23
 729 0136 0C       		.uleb128 0xc
 730 0137 06       		.uleb128 0x6
 731 0138 B0000000 		.4byte	.LASF25
 732 013c 06       		.byte	0x6
 733 013d 5F       		.byte	0x5f
 734 013e 3D020000 		.4byte	0x23d
 735 0142 02       		.byte	0x2
 736 0143 23       		.byte	0x23
 737 0144 10       		.uleb128 0x10
 738 0145 06       		.uleb128 0x6
 739 0146 78010000 		.4byte	.LASF26
 740 014a 06       		.byte	0x6
 741 014b 60       		.byte	0x60
 742 014c 3D020000 		.4byte	0x23d
 743 0150 02       		.byte	0x2
 744 0151 23       		.byte	0x23
 745 0152 14       		.uleb128 0x14
 746 0153 06       		.uleb128 0x6
 747 0154 08030000 		.4byte	.LASF27
 748 0158 06       		.byte	0x6
 749 0159 67       		.byte	0x67
 750 015a 3E040000 		.4byte	0x43e
 751 015e 02       		.byte	0x2
 752 015f 23       		.byte	0x23
 753 0160 18       		.uleb128 0x18
 754 0161 06       		.uleb128 0x6
 755 0162 09020000 		.4byte	.LASF28
 756 0166 06       		.byte	0x6
 757 0167 72       		.byte	0x72
 758 0168 9B000000 		.4byte	0x9b
 759 016c 02       		.byte	0x2
 760 016d 23       		.byte	0x23
 761 016e 1C       		.uleb128 0x1c
 762 016f 06       		.uleb128 0x6
 763 0170 30020000 		.4byte	.LASF29
 764 0174 06       		.byte	0x6
 765 0175 76       		.byte	0x76
 766 0176 90000000 		.4byte	0x90
 767 017a 02       		.byte	0x2
 768 017b 23       		.byte	0x23
 769 017c 1D       		.uleb128 0x1d
 770 017d 06       		.uleb128 0x6
 771 017e E2020000 		.4byte	.LASF30
 772 0182 06       		.byte	0x6
 773 0183 7B       		.byte	0x7b
 774 0184 A6000000 		.4byte	0xa6
 775 0188 02       		.byte	0x2
 776 0189 23       		.byte	0x23
 777 018a 1E       		.uleb128 0x1e
 778 018b 06       		.uleb128 0x6
 779 018c 11020000 		.4byte	.LASF31
 780 0190 06       		.byte	0x6
 781 0191 81       		.byte	0x81
 782 0192 B1000000 		.4byte	0xb1
 783 0196 02       		.byte	0x2
 784 0197 23       		.byte	0x23
ARM GAS  /var/folders/5n/p_75w94d66l9ssrldxqdhh700000gn/T//ccBceGy8.s 			page 15


 785 0198 1F       		.uleb128 0x1f
 786 0199 06       		.uleb128 0x6
 787 019a A7020000 		.4byte	.LASF32
 788 019e 06       		.byte	0x6
 789 019f 88       		.byte	0x88
 790 01a0 2E030000 		.4byte	0x32e
 791 01a4 02       		.byte	0x2
 792 01a5 23       		.byte	0x23
 793 01a6 20       		.uleb128 0x20
 794 01a7 07       		.uleb128 0x7
 795 01a8 705F7500 		.ascii	"p_u\000"
 796 01ac 06       		.byte	0x6
 797 01ad AD       		.byte	0xad
 798 01ae 09040000 		.4byte	0x409
 799 01b2 02       		.byte	0x2
 800 01b3 23       		.byte	0x23
 801 01b4 24       		.uleb128 0x24
 802 01b5 06       		.uleb128 0x6
 803 01b6 73030000 		.4byte	.LASF33
 804 01ba 06       		.byte	0x6
 805 01bb B2       		.byte	0xb2
 806 01bc 65020000 		.4byte	0x265
 807 01c0 02       		.byte	0x2
 808 01c1 23       		.byte	0x23
 809 01c2 28       		.uleb128 0x28
 810 01c3 06       		.uleb128 0x6
 811 01c4 D7020000 		.4byte	.LASF34
 812 01c8 06       		.byte	0x6
 813 01c9 B8       		.byte	0xb8
 814 01ca 43020000 		.4byte	0x243
 815 01ce 02       		.byte	0x2
 816 01cf 23       		.byte	0x23
 817 01d0 2C       		.uleb128 0x2c
 818 01d1 06       		.uleb128 0x6
 819 01d2 00000000 		.4byte	.LASF35
 820 01d6 06       		.byte	0x6
 821 01d7 BC       		.byte	0xbc
 822 01d8 C7000000 		.4byte	0xc7
 823 01dc 02       		.byte	0x2
 824 01dd 23       		.byte	0x23
 825 01de 34       		.uleb128 0x34
 826 01df 06       		.uleb128 0x6
 827 01e0 47020000 		.4byte	.LASF36
 828 01e4 06       		.byte	0x6
 829 01e5 C2       		.byte	0xc2
 830 01e6 D2000000 		.4byte	0xd2
 831 01ea 02       		.byte	0x2
 832 01eb 23       		.byte	0x23
 833 01ec 38       		.uleb128 0x38
 834 01ed 06       		.uleb128 0x6
 835 01ee F5010000 		.4byte	.LASF37
 836 01f2 06       		.byte	0x6
 837 01f3 C9       		.byte	0xc9
 838 01f4 50040000 		.4byte	0x450
 839 01f8 02       		.byte	0x2
 840 01f9 23       		.byte	0x23
 841 01fa 3C       		.uleb128 0x3c
ARM GAS  /var/folders/5n/p_75w94d66l9ssrldxqdhh700000gn/T//ccBceGy8.s 			page 16


 842 01fb 06       		.uleb128 0x6
 843 01fc 91020000 		.4byte	.LASF38
 844 0200 06       		.byte	0x6
 845 0201 CD       		.byte	0xcd
 846 0202 BC000000 		.4byte	0xbc
 847 0206 02       		.byte	0x2
 848 0207 23       		.byte	0x23
 849 0208 40       		.uleb128 0x40
 850 0209 06       		.uleb128 0x6
 851 020a 7C000000 		.4byte	.LASF39
 852 020e 06       		.byte	0x6
 853 020f D3       		.byte	0xd3
 854 0210 7B020000 		.4byte	0x27b
 855 0214 02       		.byte	0x2
 856 0215 23       		.byte	0x23
 857 0216 44       		.uleb128 0x44
 858 0217 00       		.byte	0
 859 0218 08       		.uleb128 0x8
 860 0219 08       		.byte	0x8
 861 021a 05       		.byte	0x5
 862 021b 5A       		.byte	0x5a
 863 021c 3D020000 		.4byte	0x23d
 864 0220 06       		.uleb128 0x6
 865 0221 29020000 		.4byte	.LASF21
 866 0225 05       		.byte	0x5
 867 0226 5B       		.byte	0x5b
 868 0227 3D020000 		.4byte	0x23d
 869 022b 02       		.byte	0x2
 870 022c 23       		.byte	0x23
 871 022d 00       		.uleb128 0
 872 022e 06       		.uleb128 0x6
 873 022f C2010000 		.4byte	.LASF22
 874 0233 05       		.byte	0x5
 875 0234 5D       		.byte	0x5d
 876 0235 3D020000 		.4byte	0x23d
 877 0239 02       		.byte	0x2
 878 023a 23       		.byte	0x23
 879 023b 04       		.uleb128 0x4
 880 023c 00       		.byte	0
 881 023d 09       		.uleb128 0x9
 882 023e 04       		.byte	0x4
 883 023f E8000000 		.4byte	0xe8
 884 0243 04       		.uleb128 0x4
 885 0244 86010000 		.4byte	.LASF40
 886 0248 05       		.byte	0x5
 887 0249 5F       		.byte	0x5f
 888 024a 18020000 		.4byte	0x218
 889 024e 08       		.uleb128 0x8
 890 024f 04       		.byte	0x4
 891 0250 05       		.byte	0x5
 892 0251 64       		.byte	0x64
 893 0252 65020000 		.4byte	0x265
 894 0256 06       		.uleb128 0x6
 895 0257 29020000 		.4byte	.LASF21
 896 025b 05       		.byte	0x5
 897 025c 66       		.byte	0x66
 898 025d 3D020000 		.4byte	0x23d
ARM GAS  /var/folders/5n/p_75w94d66l9ssrldxqdhh700000gn/T//ccBceGy8.s 			page 17


 899 0261 02       		.byte	0x2
 900 0262 23       		.byte	0x23
 901 0263 00       		.uleb128 0
 902 0264 00       		.byte	0
 903 0265 04       		.uleb128 0x4
 904 0266 47010000 		.4byte	.LASF41
 905 026a 05       		.byte	0x5
 906 026b 69       		.byte	0x69
 907 026c 4E020000 		.4byte	0x24e
 908 0270 04       		.uleb128 0x4
 909 0271 C0000000 		.4byte	.LASF42
 910 0275 07       		.byte	0x7
 911 0276 DE       		.byte	0xde
 912 0277 7B020000 		.4byte	0x27b
 913 027b 0A       		.uleb128 0xa
 914 027c 04       		.byte	0x4
 915 027d 0B       		.uleb128 0xb
 916 027e D0020000 		.4byte	.LASF43
 917 0282 24       		.byte	0x24
 918 0283 07       		.byte	0x7
 919 0284 0501     		.2byte	0x105
 920 0286 0B030000 		.4byte	0x30b
 921 028a 0C       		.uleb128 0xc
 922 028b 723400   		.ascii	"r4\000"
 923 028e 07       		.byte	0x7
 924 028f 1801     		.2byte	0x118
 925 0291 70020000 		.4byte	0x270
 926 0295 02       		.byte	0x2
 927 0296 23       		.byte	0x23
 928 0297 00       		.uleb128 0
 929 0298 0C       		.uleb128 0xc
 930 0299 723500   		.ascii	"r5\000"
 931 029c 07       		.byte	0x7
 932 029d 1901     		.2byte	0x119
 933 029f 70020000 		.4byte	0x270
 934 02a3 02       		.byte	0x2
 935 02a4 23       		.byte	0x23
 936 02a5 04       		.uleb128 0x4
 937 02a6 0C       		.uleb128 0xc
 938 02a7 723600   		.ascii	"r6\000"
 939 02aa 07       		.byte	0x7
 940 02ab 1A01     		.2byte	0x11a
 941 02ad 70020000 		.4byte	0x270
 942 02b1 02       		.byte	0x2
 943 02b2 23       		.byte	0x23
 944 02b3 08       		.uleb128 0x8
 945 02b4 0C       		.uleb128 0xc
 946 02b5 723700   		.ascii	"r7\000"
 947 02b8 07       		.byte	0x7
 948 02b9 1B01     		.2byte	0x11b
 949 02bb 70020000 		.4byte	0x270
 950 02bf 02       		.byte	0x2
 951 02c0 23       		.byte	0x23
 952 02c1 0C       		.uleb128 0xc
 953 02c2 0C       		.uleb128 0xc
 954 02c3 723800   		.ascii	"r8\000"
 955 02c6 07       		.byte	0x7
ARM GAS  /var/folders/5n/p_75w94d66l9ssrldxqdhh700000gn/T//ccBceGy8.s 			page 18


 956 02c7 1C01     		.2byte	0x11c
 957 02c9 70020000 		.4byte	0x270
 958 02cd 02       		.byte	0x2
 959 02ce 23       		.byte	0x23
 960 02cf 10       		.uleb128 0x10
 961 02d0 0C       		.uleb128 0xc
 962 02d1 723900   		.ascii	"r9\000"
 963 02d4 07       		.byte	0x7
 964 02d5 1D01     		.2byte	0x11d
 965 02d7 70020000 		.4byte	0x270
 966 02db 02       		.byte	0x2
 967 02dc 23       		.byte	0x23
 968 02dd 14       		.uleb128 0x14
 969 02de 0C       		.uleb128 0xc
 970 02df 72313000 		.ascii	"r10\000"
 971 02e3 07       		.byte	0x7
 972 02e4 1E01     		.2byte	0x11e
 973 02e6 70020000 		.4byte	0x270
 974 02ea 02       		.byte	0x2
 975 02eb 23       		.byte	0x23
 976 02ec 18       		.uleb128 0x18
 977 02ed 0C       		.uleb128 0xc
 978 02ee 72313100 		.ascii	"r11\000"
 979 02f2 07       		.byte	0x7
 980 02f3 1F01     		.2byte	0x11f
 981 02f5 70020000 		.4byte	0x270
 982 02f9 02       		.byte	0x2
 983 02fa 23       		.byte	0x23
 984 02fb 1C       		.uleb128 0x1c
 985 02fc 0C       		.uleb128 0xc
 986 02fd 6C7200   		.ascii	"lr\000"
 987 0300 07       		.byte	0x7
 988 0301 2001     		.2byte	0x120
 989 0303 70020000 		.4byte	0x270
 990 0307 02       		.byte	0x2
 991 0308 23       		.byte	0x23
 992 0309 20       		.uleb128 0x20
 993 030a 00       		.byte	0
 994 030b 0B       		.uleb128 0xb
 995 030c 12010000 		.4byte	.LASF44
 996 0310 04       		.byte	0x4
 997 0311 07       		.byte	0x7
 998 0312 2A01     		.2byte	0x12a
 999 0314 28030000 		.4byte	0x328
 1000 0318 0C       		.uleb128 0xc
 1001 0319 72313300 		.ascii	"r13\000"
 1002 031d 07       		.byte	0x7
 1003 031e 2B01     		.2byte	0x12b
 1004 0320 28030000 		.4byte	0x328
 1005 0324 02       		.byte	0x2
 1006 0325 23       		.byte	0x23
 1007 0326 00       		.uleb128 0
 1008 0327 00       		.byte	0
 1009 0328 09       		.uleb128 0x9
 1010 0329 04       		.byte	0x4
 1011 032a 7D020000 		.4byte	0x27d
 1012 032e 0D       		.uleb128 0xd
ARM GAS  /var/folders/5n/p_75w94d66l9ssrldxqdhh700000gn/T//ccBceGy8.s 			page 19


 1013 032f DD000000 		.4byte	0xdd
 1014 0333 08       		.uleb128 0x8
 1015 0334 1C       		.byte	0x1c
 1016 0335 08       		.byte	0x8
 1017 0336 57       		.byte	0x57
 1018 0337 90030000 		.4byte	0x390
 1019 033b 06       		.uleb128 0x6
 1020 033c 5B020000 		.4byte	.LASF45
 1021 0340 08       		.byte	0x8
 1022 0341 58       		.byte	0x58
 1023 0342 43020000 		.4byte	0x243
 1024 0346 02       		.byte	0x2
 1025 0347 23       		.byte	0x23
 1026 0348 00       		.uleb128 0
 1027 0349 06       		.uleb128 0x6
 1028 034a 1B020000 		.4byte	.LASF46
 1029 034e 08       		.byte	0x8
 1030 034f 59       		.byte	0x59
 1031 0350 BC000000 		.4byte	0xbc
 1032 0354 02       		.byte	0x2
 1033 0355 23       		.byte	0x23
 1034 0356 08       		.uleb128 0x8
 1035 0357 06       		.uleb128 0x6
 1036 0358 80010000 		.4byte	.LASF47
 1037 035c 08       		.byte	0x8
 1038 035d 5B       		.byte	0x5b
 1039 035e 0B030000 		.4byte	0x30b
 1040 0362 02       		.byte	0x2
 1041 0363 23       		.byte	0x23
 1042 0364 0C       		.uleb128 0xc
 1043 0365 06       		.uleb128 0x6
 1044 0366 B8000000 		.4byte	.LASF48
 1045 036a 08       		.byte	0x8
 1046 036b 5E       		.byte	0x5e
 1047 036c 3D020000 		.4byte	0x23d
 1048 0370 02       		.byte	0x2
 1049 0371 23       		.byte	0x23
 1050 0372 10       		.uleb128 0x10
 1051 0373 06       		.uleb128 0x6
 1052 0374 A2010000 		.4byte	.LASF49
 1053 0378 08       		.byte	0x8
 1054 0379 5F       		.byte	0x5f
 1055 037a 3D020000 		.4byte	0x23d
 1056 037e 02       		.byte	0x2
 1057 037f 23       		.byte	0x23
 1058 0380 14       		.uleb128 0x14
 1059 0381 06       		.uleb128 0x6
 1060 0382 98010000 		.4byte	.LASF50
 1061 0386 08       		.byte	0x8
 1062 0387 62       		.byte	0x62
 1063 0388 3D020000 		.4byte	0x23d
 1064 038c 02       		.byte	0x2
 1065 038d 23       		.byte	0x23
 1066 038e 18       		.uleb128 0x18
 1067 038f 00       		.byte	0
 1068 0390 04       		.uleb128 0x4
 1069 0391 E9020000 		.4byte	.LASF51
ARM GAS  /var/folders/5n/p_75w94d66l9ssrldxqdhh700000gn/T//ccBceGy8.s 			page 20


 1070 0395 08       		.byte	0x8
 1071 0396 64       		.byte	0x64
 1072 0397 33030000 		.4byte	0x333
 1073 039b 05       		.uleb128 0x5
 1074 039c 5F010000 		.4byte	.LASF52
 1075 03a0 10       		.byte	0x10
 1076 03a1 09       		.byte	0x9
 1077 03a2 25       		.byte	0x25
 1078 03a3 D2030000 		.4byte	0x3d2
 1079 03a7 06       		.uleb128 0x6
 1080 03a8 84000000 		.4byte	.LASF53
 1081 03ac 09       		.byte	0x9
 1082 03ad 26       		.byte	0x26
 1083 03ae 43020000 		.4byte	0x243
 1084 03b2 02       		.byte	0x2
 1085 03b3 23       		.byte	0x23
 1086 03b4 00       		.uleb128 0
 1087 03b5 06       		.uleb128 0x6
 1088 03b6 65030000 		.4byte	.LASF54
 1089 03ba 09       		.byte	0x9
 1090 03bb 28       		.byte	0x28
 1091 03bc 3D020000 		.4byte	0x23d
 1092 03c0 02       		.byte	0x2
 1093 03c1 23       		.byte	0x23
 1094 03c2 08       		.uleb128 0x8
 1095 03c3 06       		.uleb128 0x6
 1096 03c4 80020000 		.4byte	.LASF55
 1097 03c8 09       		.byte	0x9
 1098 03c9 2A       		.byte	0x2a
 1099 03ca D2030000 		.4byte	0x3d2
 1100 03ce 02       		.byte	0x2
 1101 03cf 23       		.byte	0x23
 1102 03d0 0C       		.uleb128 0xc
 1103 03d1 00       		.byte	0
 1104 03d2 09       		.uleb128 0x9
 1105 03d3 04       		.byte	0x4
 1106 03d4 9B030000 		.4byte	0x39b
 1107 03d8 04       		.uleb128 0x4
 1108 03d9 5F010000 		.4byte	.LASF52
 1109 03dd 09       		.byte	0x9
 1110 03de 2C       		.byte	0x2c
 1111 03df 9B030000 		.4byte	0x39b
 1112 03e3 05       		.uleb128 0x5
 1113 03e4 96000000 		.4byte	.LASF56
 1114 03e8 08       		.byte	0x8
 1115 03e9 0A       		.byte	0xa
 1116 03ea 2F       		.byte	0x2f
 1117 03eb FE030000 		.4byte	0x3fe
 1118 03ef 06       		.uleb128 0x6
 1119 03f0 3F020000 		.4byte	.LASF57
 1120 03f4 0A       		.byte	0xa
 1121 03f5 30       		.byte	0x30
 1122 03f6 43020000 		.4byte	0x243
 1123 03fa 02       		.byte	0x2
 1124 03fb 23       		.byte	0x23
 1125 03fc 00       		.uleb128 0
 1126 03fd 00       		.byte	0
ARM GAS  /var/folders/5n/p_75w94d66l9ssrldxqdhh700000gn/T//ccBceGy8.s 			page 21


 1127 03fe 04       		.uleb128 0x4
 1128 03ff 96000000 		.4byte	.LASF56
 1129 0403 0A       		.byte	0xa
 1130 0404 31       		.byte	0x31
 1131 0405 E3030000 		.4byte	0x3e3
 1132 0409 0E       		.uleb128 0xe
 1133 040a 04       		.byte	0x4
 1134 040b 06       		.byte	0x6
 1135 040c 8F       		.byte	0x8f
 1136 040d 3E040000 		.4byte	0x43e
 1137 0411 0F       		.uleb128 0xf
 1138 0412 11000000 		.4byte	.LASF58
 1139 0416 06       		.byte	0x6
 1140 0417 96       		.byte	0x96
 1141 0418 C7000000 		.4byte	0xc7
 1142 041c 0F       		.uleb128 0xf
 1143 041d 41000000 		.4byte	.LASF59
 1144 0421 06       		.byte	0x6
 1145 0422 9D       		.byte	0x9d
 1146 0423 C7000000 		.4byte	0xc7
 1147 0427 0F       		.uleb128 0xf
 1148 0428 01030000 		.4byte	.LASF60
 1149 042c 06       		.byte	0x6
 1150 042d A4       		.byte	0xa4
 1151 042e 7B020000 		.4byte	0x27b
 1152 0432 0F       		.uleb128 0xf
 1153 0433 22020000 		.4byte	.LASF61
 1154 0437 06       		.byte	0x6
 1155 0438 AB       		.byte	0xab
 1156 0439 D2000000 		.4byte	0xd2
 1157 043d 00       		.byte	0
 1158 043e 09       		.uleb128 0x9
 1159 043f 04       		.byte	0x4
 1160 0440 44040000 		.4byte	0x444
 1161 0444 10       		.uleb128 0x10
 1162 0445 49040000 		.4byte	0x449
 1163 0449 03       		.uleb128 0x3
 1164 044a 01       		.byte	0x1
 1165 044b 08       		.byte	0x8
 1166 044c 63020000 		.4byte	.LASF62
 1167 0450 09       		.uleb128 0x9
 1168 0451 04       		.byte	0x4
 1169 0452 D8030000 		.4byte	0x3d8
 1170 0456 11       		.uleb128 0x11
 1171 0457 68020000 		.4byte	.LASF77
 1172 045b 02       		.byte	0x2
 1173 045c 34       		.byte	0x34
 1174 045d 01       		.byte	0x1
 1175 045e 3D020000 		.4byte	0x23d
 1176 0462 03       		.byte	0x3
 1177 0463 7D040000 		.4byte	0x47d
 1178 0467 12       		.uleb128 0x12
 1179 0468 74717000 		.ascii	"tqp\000"
 1180 046c 02       		.byte	0x2
 1181 046d 34       		.byte	0x34
 1182 046e 7D040000 		.4byte	0x47d
 1183 0472 13       		.uleb128 0x13
ARM GAS  /var/folders/5n/p_75w94d66l9ssrldxqdhh700000gn/T//ccBceGy8.s 			page 22


 1184 0473 747000   		.ascii	"tp\000"
 1185 0476 02       		.byte	0x2
 1186 0477 35       		.byte	0x35
 1187 0478 3D020000 		.4byte	0x23d
 1188 047c 00       		.byte	0
 1189 047d 09       		.uleb128 0x9
 1190 047e 04       		.byte	0x4
 1191 047f 43020000 		.4byte	0x243
 1192 0483 14       		.uleb128 0x14
 1193 0484 33010000 		.4byte	.LASF78
 1194 0488 02       		.byte	0x2
 1195 0489 22       		.byte	0x22
 1196 048a 01       		.byte	0x1
 1197 048b 03       		.byte	0x3
 1198 048c B0040000 		.4byte	0x4b0
 1199 0490 12       		.uleb128 0x12
 1200 0491 747000   		.ascii	"tp\000"
 1201 0494 02       		.byte	0x2
 1202 0495 22       		.byte	0x22
 1203 0496 3D020000 		.4byte	0x23d
 1204 049a 12       		.uleb128 0x12
 1205 049b 74717000 		.ascii	"tqp\000"
 1206 049f 02       		.byte	0x2
 1207 04a0 22       		.byte	0x22
 1208 04a1 7D040000 		.4byte	0x47d
 1209 04a5 13       		.uleb128 0x13
 1210 04a6 637000   		.ascii	"cp\000"
 1211 04a9 02       		.byte	0x2
 1212 04aa 24       		.byte	0x24
 1213 04ab 3D020000 		.4byte	0x23d
 1214 04af 00       		.byte	0
 1215 04b0 15       		.uleb128 0x15
 1216 04b1 01       		.byte	0x1
 1217 04b2 06000000 		.4byte	.LASF63
 1218 04b6 01       		.byte	0x1
 1219 04b7 34       		.byte	0x34
 1220 04b8 01       		.byte	0x1
 1221 04b9 00000000 		.4byte	.LFB7
 1222 04bd 06000000 		.4byte	.LFE7
 1223 04c1 02       		.byte	0x2
 1224 04c2 7D       		.byte	0x7d
 1225 04c3 00       		.sleb128 0
 1226 04c4 D5040000 		.4byte	0x4d5
 1227 04c8 16       		.uleb128 0x16
 1228 04c9 637000   		.ascii	"cp\000"
 1229 04cc 01       		.byte	0x1
 1230 04cd 34       		.byte	0x34
 1231 04ce D5040000 		.4byte	0x4d5
 1232 04d2 01       		.byte	0x1
 1233 04d3 50       		.byte	0x50
 1234 04d4 00       		.byte	0
 1235 04d5 09       		.uleb128 0x9
 1236 04d6 04       		.byte	0x4
 1237 04d7 FE030000 		.4byte	0x3fe
 1238 04db 17       		.uleb128 0x17
 1239 04dc 01       		.byte	0x1
 1240 04dd E6000000 		.4byte	.LASF64
ARM GAS  /var/folders/5n/p_75w94d66l9ssrldxqdhh700000gn/T//ccBceGy8.s 			page 23


 1241 04e1 01       		.byte	0x1
 1242 04e2 42       		.byte	0x42
 1243 04e3 01       		.byte	0x1
 1244 04e4 00000000 		.4byte	.LFB8
 1245 04e8 24000000 		.4byte	.LFE8
 1246 04ec 00000000 		.4byte	.LLST0
 1247 04f0 65050000 		.4byte	0x565
 1248 04f4 18       		.uleb128 0x18
 1249 04f5 637000   		.ascii	"cp\000"
 1250 04f8 01       		.byte	0x1
 1251 04f9 42       		.byte	0x42
 1252 04fa D5040000 		.4byte	0x4d5
 1253 04fe 20000000 		.4byte	.LLST1
 1254 0502 19       		.uleb128 0x19
 1255 0503 04000000 		.4byte	.LBB14
 1256 0507 0A000000 		.4byte	.LBE14
 1257 050b 1F050000 		.4byte	0x51f
 1258 050f 1A       		.uleb128 0x1a
 1259 0510 746D7000 		.ascii	"tmp\000"
 1260 0514 01       		.byte	0x1
 1261 0515 46       		.byte	0x46
 1262 0516 70000000 		.4byte	0x70
 1263 051a 3E000000 		.4byte	.LLST2
 1264 051e 00       		.byte	0
 1265 051f 1B       		.uleb128 0x1b
 1266 0520 56040000 		.4byte	0x456
 1267 0524 10000000 		.4byte	.LBB15
 1268 0528 00000000 		.4byte	.Ldebug_ranges0+0
 1269 052c 01       		.byte	0x1
 1270 052d 48       		.byte	0x48
 1271 052e 4B050000 		.4byte	0x54b
 1272 0532 1C       		.uleb128 0x1c
 1273 0533 67040000 		.4byte	0x467
 1274 0537 5C000000 		.4byte	.LLST3
 1275 053b 1D       		.uleb128 0x1d
 1276 053c 18000000 		.4byte	.Ldebug_ranges0+0x18
 1277 0540 1E       		.uleb128 0x1e
 1278 0541 72040000 		.4byte	0x472
 1279 0545 6F000000 		.4byte	.LLST4
 1280 0549 00       		.byte	0
 1281 054a 00       		.byte	0
 1282 054b 1F       		.uleb128 0x1f
 1283 054c 1C000000 		.4byte	.LBB19
 1284 0550 22000000 		.4byte	.LBE19
 1285 0554 1A       		.uleb128 0x1a
 1286 0555 746D7000 		.ascii	"tmp\000"
 1287 0559 01       		.byte	0x1
 1288 055a 49       		.byte	0x49
 1289 055b 70000000 		.4byte	0x70
 1290 055f 83000000 		.4byte	.LLST5
 1291 0563 00       		.byte	0
 1292 0564 00       		.byte	0
 1293 0565 17       		.uleb128 0x17
 1294 0566 01       		.byte	0x1
 1295 0567 D1010000 		.4byte	.LASF65
 1296 056b 01       		.byte	0x1
 1297 056c 57       		.byte	0x57
ARM GAS  /var/folders/5n/p_75w94d66l9ssrldxqdhh700000gn/T//ccBceGy8.s 			page 24


 1298 056d 01       		.byte	0x1
 1299 056e 00000000 		.4byte	.LFB9
 1300 0572 1A000000 		.4byte	.LFE9
 1301 0576 96000000 		.4byte	.LLST6
 1302 057a B9050000 		.4byte	0x5b9
 1303 057e 18       		.uleb128 0x18
 1304 057f 637000   		.ascii	"cp\000"
 1305 0582 01       		.byte	0x1
 1306 0583 57       		.byte	0x57
 1307 0584 D5040000 		.4byte	0x4d5
 1308 0588 B6000000 		.4byte	.LLST7
 1309 058c 20       		.uleb128 0x20
 1310 058d 56040000 		.4byte	0x456
 1311 0591 0A000000 		.4byte	.LBB20
 1312 0595 10000000 		.4byte	.LBE20
 1313 0599 01       		.byte	0x1
 1314 059a 5D       		.byte	0x5d
 1315 059b 1C       		.uleb128 0x1c
 1316 059c 67040000 		.4byte	0x467
 1317 05a0 D4000000 		.4byte	.LLST8
 1318 05a4 1F       		.uleb128 0x1f
 1319 05a5 0A000000 		.4byte	.LBB21
 1320 05a9 10000000 		.4byte	.LBE21
 1321 05ad 1E       		.uleb128 0x1e
 1322 05ae 72040000 		.4byte	0x472
 1323 05b2 E7000000 		.4byte	.LLST9
 1324 05b6 00       		.byte	0
 1325 05b7 00       		.byte	0
 1326 05b8 00       		.byte	0
 1327 05b9 17       		.uleb128 0x17
 1328 05ba 01       		.byte	0x1
 1329 05bb 4A000000 		.4byte	.LASF66
 1330 05bf 01       		.byte	0x1
 1331 05c0 7A       		.byte	0x7a
 1332 05c1 01       		.byte	0x1
 1333 05c2 00000000 		.4byte	.LFB11
 1334 05c6 22000000 		.4byte	.LFE11
 1335 05ca FB000000 		.4byte	.LLST10
 1336 05ce 0D060000 		.4byte	0x60d
 1337 05d2 18       		.uleb128 0x18
 1338 05d3 637000   		.ascii	"cp\000"
 1339 05d6 01       		.byte	0x1
 1340 05d7 7A       		.byte	0x7a
 1341 05d8 D5040000 		.4byte	0x4d5
 1342 05dc 1B010000 		.4byte	.LLST11
 1343 05e0 20       		.uleb128 0x20
 1344 05e1 56040000 		.4byte	0x456
 1345 05e5 0E000000 		.4byte	.LBB22
 1346 05e9 14000000 		.4byte	.LBE22
 1347 05ed 01       		.byte	0x1
 1348 05ee 83       		.byte	0x83
 1349 05ef 1C       		.uleb128 0x1c
 1350 05f0 67040000 		.4byte	0x467
 1351 05f4 39010000 		.4byte	.LLST12
 1352 05f8 1F       		.uleb128 0x1f
 1353 05f9 0E000000 		.4byte	.LBB23
 1354 05fd 14000000 		.4byte	.LBE23
ARM GAS  /var/folders/5n/p_75w94d66l9ssrldxqdhh700000gn/T//ccBceGy8.s 			page 25


 1355 0601 1E       		.uleb128 0x1e
 1356 0602 72040000 		.4byte	0x472
 1357 0606 4C010000 		.4byte	.LLST13
 1358 060a 00       		.byte	0
 1359 060b 00       		.byte	0
 1360 060c 00       		.byte	0
 1361 060d 17       		.uleb128 0x17
 1362 060e 01       		.byte	0x1
 1363 060f AA010000 		.4byte	.LASF67
 1364 0613 01       		.byte	0x1
 1365 0614 67       		.byte	0x67
 1366 0615 01       		.byte	0x1
 1367 0616 00000000 		.4byte	.LFB10
 1368 061a 18000000 		.4byte	.LFE10
 1369 061e 5F010000 		.4byte	.LLST14
 1370 0622 6B060000 		.4byte	0x66b
 1371 0626 18       		.uleb128 0x18
 1372 0627 637000   		.ascii	"cp\000"
 1373 062a 01       		.byte	0x1
 1374 062b 67       		.byte	0x67
 1375 062c D5040000 		.4byte	0x4d5
 1376 0630 7F010000 		.4byte	.LLST15
 1377 0634 19       		.uleb128 0x19
 1378 0635 02000000 		.4byte	.LBB24
 1379 0639 08000000 		.4byte	.LBE24
 1380 063d 51060000 		.4byte	0x651
 1381 0641 1A       		.uleb128 0x1a
 1382 0642 746D7000 		.ascii	"tmp\000"
 1383 0646 01       		.byte	0x1
 1384 0647 69       		.byte	0x69
 1385 0648 70000000 		.4byte	0x70
 1386 064c 92010000 		.4byte	.LLST16
 1387 0650 00       		.byte	0
 1388 0651 1F       		.uleb128 0x1f
 1389 0652 10000000 		.4byte	.LBB25
 1390 0656 16000000 		.4byte	.LBE25
 1391 065a 1A       		.uleb128 0x1a
 1392 065b 746D7000 		.ascii	"tmp\000"
 1393 065f 01       		.byte	0x1
 1394 0660 6C       		.byte	0x6c
 1395 0661 70000000 		.4byte	0x70
 1396 0665 A5010000 		.4byte	.LLST17
 1397 0669 00       		.byte	0
 1398 066a 00       		.byte	0
 1399 066b 21       		.uleb128 0x21
 1400 066c 01       		.byte	0x1
 1401 066d 74020000 		.4byte	.LASF68
 1402 0671 01       		.byte	0x1
 1403 0672 B1       		.byte	0xb1
 1404 0673 01       		.byte	0x1
 1405 0674 C7000000 		.4byte	0xc7
 1406 0678 00000000 		.4byte	.LFB13
 1407 067c 48000000 		.4byte	.LFE13
 1408 0680 B8010000 		.4byte	.LLST18
 1409 0684 F2060000 		.4byte	0x6f2
 1410 0688 18       		.uleb128 0x18
 1411 0689 637000   		.ascii	"cp\000"
ARM GAS  /var/folders/5n/p_75w94d66l9ssrldxqdhh700000gn/T//ccBceGy8.s 			page 26


 1412 068c 01       		.byte	0x1
 1413 068d B1       		.byte	0xb1
 1414 068e D5040000 		.4byte	0x4d5
 1415 0692 D8010000 		.4byte	.LLST19
 1416 0696 1A       		.uleb128 0x1a
 1417 0697 63747000 		.ascii	"ctp\000"
 1418 069b 01       		.byte	0x1
 1419 069c B2       		.byte	0xb2
 1420 069d 3D020000 		.4byte	0x23d
 1421 06a1 F6010000 		.4byte	.LLST20
 1422 06a5 1A       		.uleb128 0x1a
 1423 06a6 6D7000   		.ascii	"mp\000"
 1424 06a9 01       		.byte	0x1
 1425 06aa B3       		.byte	0xb3
 1426 06ab 50040000 		.4byte	0x450
 1427 06af 20020000 		.4byte	.LLST21
 1428 06b3 1A       		.uleb128 0x1a
 1429 06b4 6D736700 		.ascii	"msg\000"
 1430 06b8 01       		.byte	0x1
 1431 06b9 B4       		.byte	0xb4
 1432 06ba C7000000 		.4byte	0xc7
 1433 06be 3E020000 		.4byte	.LLST22
 1434 06c2 22       		.uleb128 0x22
 1435 06c3 83040000 		.4byte	0x483
 1436 06c7 16000000 		.4byte	.LBB26
 1437 06cb 30000000 		.4byte	.Ldebug_ranges0+0x30
 1438 06cf 01       		.byte	0x1
 1439 06d0 BE       		.byte	0xbe
 1440 06d1 23       		.uleb128 0x23
 1441 06d2 9A040000 		.4byte	0x49a
 1442 06d6 01       		.byte	0x1
 1443 06d7 55       		.byte	0x55
 1444 06d8 1C       		.uleb128 0x1c
 1445 06d9 90040000 		.4byte	0x490
 1446 06dd 51020000 		.4byte	.LLST23
 1447 06e1 1D       		.uleb128 0x1d
 1448 06e2 48000000 		.4byte	.Ldebug_ranges0+0x48
 1449 06e6 1E       		.uleb128 0x1e
 1450 06e7 A5040000 		.4byte	0x4a5
 1451 06eb 6F020000 		.4byte	.LLST24
 1452 06ef 00       		.byte	0
 1453 06f0 00       		.byte	0
 1454 06f1 00       		.byte	0
 1455 06f2 21       		.uleb128 0x21
 1456 06f3 01       		.byte	0x1
 1457 06f4 9C020000 		.4byte	.LASF69
 1458 06f8 01       		.byte	0x1
 1459 06f9 97       		.byte	0x97
 1460 06fa 01       		.byte	0x1
 1461 06fb C7000000 		.4byte	0xc7
 1462 06ff 00000000 		.4byte	.LFB12
 1463 0703 14000000 		.4byte	.LFE12
 1464 0707 98020000 		.4byte	.LLST25
 1465 070b 61070000 		.4byte	0x761
 1466 070f 18       		.uleb128 0x18
 1467 0710 637000   		.ascii	"cp\000"
 1468 0713 01       		.byte	0x1
ARM GAS  /var/folders/5n/p_75w94d66l9ssrldxqdhh700000gn/T//ccBceGy8.s 			page 27


 1469 0714 97       		.byte	0x97
 1470 0715 D5040000 		.4byte	0x4d5
 1471 0719 B8020000 		.4byte	.LLST26
 1472 071d 24       		.uleb128 0x24
 1473 071e 6D736700 		.ascii	"msg\000"
 1474 0722 01       		.byte	0x1
 1475 0723 98       		.byte	0x98
 1476 0724 C7000000 		.4byte	0xc7
 1477 0728 01       		.byte	0x1
 1478 0729 50       		.byte	0x50
 1479 072a 19       		.uleb128 0x19
 1480 072b 02000000 		.4byte	.LBB30
 1481 072f 08000000 		.4byte	.LBE30
 1482 0733 47070000 		.4byte	0x747
 1483 0737 1A       		.uleb128 0x1a
 1484 0738 746D7000 		.ascii	"tmp\000"
 1485 073c 01       		.byte	0x1
 1486 073d 9A       		.byte	0x9a
 1487 073e 70000000 		.4byte	0x70
 1488 0742 CB020000 		.4byte	.LLST27
 1489 0746 00       		.byte	0
 1490 0747 1F       		.uleb128 0x1f
 1491 0748 0C000000 		.4byte	.LBB31
 1492 074c 12000000 		.4byte	.LBE31
 1493 0750 1A       		.uleb128 0x1a
 1494 0751 746D7000 		.ascii	"tmp\000"
 1495 0755 01       		.byte	0x1
 1496 0756 9C       		.byte	0x9c
 1497 0757 70000000 		.4byte	0x70
 1498 075b DE020000 		.4byte	.LLST28
 1499 075f 00       		.byte	0
 1500 0760 00       		.byte	0
 1501 0761 25       		.uleb128 0x25
 1502 0762 01       		.byte	0x1
 1503 0763 65010000 		.4byte	.LASF70
 1504 0767 01       		.byte	0x1
 1505 0768 0701     		.2byte	0x107
 1506 076a 01       		.byte	0x1
 1507 076b C7000000 		.4byte	0xc7
 1508 076f 00000000 		.4byte	.LFB15
 1509 0773 50000000 		.4byte	.LFE15
 1510 0777 F1020000 		.4byte	.LLST29
 1511 077b F0070000 		.4byte	0x7f0
 1512 077f 26       		.uleb128 0x26
 1513 0780 637000   		.ascii	"cp\000"
 1514 0783 01       		.byte	0x1
 1515 0784 0701     		.2byte	0x107
 1516 0786 D5040000 		.4byte	0x4d5
 1517 078a 11030000 		.4byte	.LLST30
 1518 078e 27       		.uleb128 0x27
 1519 078f 93010000 		.4byte	.LASF71
 1520 0793 01       		.byte	0x1
 1521 0794 0701     		.2byte	0x107
 1522 0796 DD000000 		.4byte	0xdd
 1523 079a 3A030000 		.4byte	.LLST31
 1524 079e 28       		.uleb128 0x28
 1525 079f 6D7000   		.ascii	"mp\000"
ARM GAS  /var/folders/5n/p_75w94d66l9ssrldxqdhh700000gn/T//ccBceGy8.s 			page 28


 1526 07a2 01       		.byte	0x1
 1527 07a3 0801     		.2byte	0x108
 1528 07a5 50040000 		.4byte	0x450
 1529 07a9 58030000 		.4byte	.LLST32
 1530 07ad 28       		.uleb128 0x28
 1531 07ae 6D736700 		.ascii	"msg\000"
 1532 07b2 01       		.byte	0x1
 1533 07b3 0901     		.2byte	0x109
 1534 07b5 C7000000 		.4byte	0xc7
 1535 07b9 76030000 		.4byte	.LLST33
 1536 07bd 29       		.uleb128 0x29
 1537 07be 83040000 		.4byte	0x483
 1538 07c2 18000000 		.4byte	.LBB32
 1539 07c6 60000000 		.4byte	.Ldebug_ranges0+0x60
 1540 07ca 01       		.byte	0x1
 1541 07cb 1301     		.2byte	0x113
 1542 07cd 1C       		.uleb128 0x1c
 1543 07ce 9A040000 		.4byte	0x49a
 1544 07d2 94030000 		.4byte	.LLST34
 1545 07d6 1C       		.uleb128 0x1c
 1546 07d7 90040000 		.4byte	0x490
 1547 07db B2030000 		.4byte	.LLST35
 1548 07df 1D       		.uleb128 0x1d
 1549 07e0 78000000 		.4byte	.Ldebug_ranges0+0x78
 1550 07e4 1E       		.uleb128 0x1e
 1551 07e5 A5040000 		.4byte	0x4a5
 1552 07e9 D1030000 		.4byte	.LLST36
 1553 07ed 00       		.byte	0
 1554 07ee 00       		.byte	0
 1555 07ef 00       		.byte	0
 1556 07f0 21       		.uleb128 0x21
 1557 07f1 01       		.byte	0x1
 1558 07f2 18000000 		.4byte	.LASF72
 1559 07f6 01       		.byte	0x1
 1560 07f7 E2       		.byte	0xe2
 1561 07f8 01       		.byte	0x1
 1562 07f9 C7000000 		.4byte	0xc7
 1563 07fd 00000000 		.4byte	.LFB14
 1564 0801 14000000 		.4byte	.LFE14
 1565 0805 FA030000 		.4byte	.LLST37
 1566 0809 6E080000 		.4byte	0x86e
 1567 080d 18       		.uleb128 0x18
 1568 080e 637000   		.ascii	"cp\000"
 1569 0811 01       		.byte	0x1
 1570 0812 E2       		.byte	0xe2
 1571 0813 D5040000 		.4byte	0x4d5
 1572 0817 1A040000 		.4byte	.LLST38
 1573 081b 2A       		.uleb128 0x2a
 1574 081c 93010000 		.4byte	.LASF71
 1575 0820 01       		.byte	0x1
 1576 0821 E2       		.byte	0xe2
 1577 0822 DD000000 		.4byte	0xdd
 1578 0826 2D040000 		.4byte	.LLST39
 1579 082a 24       		.uleb128 0x24
 1580 082b 6D736700 		.ascii	"msg\000"
 1581 082f 01       		.byte	0x1
 1582 0830 E3       		.byte	0xe3
ARM GAS  /var/folders/5n/p_75w94d66l9ssrldxqdhh700000gn/T//ccBceGy8.s 			page 29


 1583 0831 C7000000 		.4byte	0xc7
 1584 0835 01       		.byte	0x1
 1585 0836 50       		.byte	0x50
 1586 0837 19       		.uleb128 0x19
 1587 0838 02000000 		.4byte	.LBB36
 1588 083c 08000000 		.4byte	.LBE36
 1589 0840 54080000 		.4byte	0x854
 1590 0844 1A       		.uleb128 0x1a
 1591 0845 746D7000 		.ascii	"tmp\000"
 1592 0849 01       		.byte	0x1
 1593 084a E5       		.byte	0xe5
 1594 084b 70000000 		.4byte	0x70
 1595 084f 40040000 		.4byte	.LLST40
 1596 0853 00       		.byte	0
 1597 0854 1F       		.uleb128 0x1f
 1598 0855 0C000000 		.4byte	.LBB37
 1599 0859 12000000 		.4byte	.LBE37
 1600 085d 1A       		.uleb128 0x1a
 1601 085e 746D7000 		.ascii	"tmp\000"
 1602 0862 01       		.byte	0x1
 1603 0863 E7       		.byte	0xe7
 1604 0864 70000000 		.4byte	0x70
 1605 0868 53040000 		.4byte	.LLST41
 1606 086c 00       		.byte	0
 1607 086d 00       		.byte	0
 1608 086e 2B       		.uleb128 0x2b
 1609 086f F3020000 		.4byte	.LASF73
 1610 0873 08       		.byte	0x8
 1611 0874 68       		.byte	0x68
 1612 0875 90030000 		.4byte	0x390
 1613 0879 01       		.byte	0x1
 1614 087a 01       		.byte	0x1
 1615 087b 2B       		.uleb128 0x2b
 1616 087c F3020000 		.4byte	.LASF73
 1617 0880 08       		.byte	0x8
 1618 0881 68       		.byte	0x68
 1619 0882 90030000 		.4byte	0x390
 1620 0886 01       		.byte	0x1
 1621 0887 01       		.byte	0x1
 1622 0888 00       		.byte	0
 1623              		.section	.debug_abbrev,"",%progbits
 1624              	.Ldebug_abbrev0:
 1625 0000 01       		.uleb128 0x1
 1626 0001 11       		.uleb128 0x11
 1627 0002 01       		.byte	0x1
 1628 0003 25       		.uleb128 0x25
 1629 0004 0E       		.uleb128 0xe
 1630 0005 13       		.uleb128 0x13
 1631 0006 0B       		.uleb128 0xb
 1632 0007 03       		.uleb128 0x3
 1633 0008 0E       		.uleb128 0xe
 1634 0009 1B       		.uleb128 0x1b
 1635 000a 0E       		.uleb128 0xe
 1636 000b 11       		.uleb128 0x11
 1637 000c 01       		.uleb128 0x1
 1638 000d 52       		.uleb128 0x52
 1639 000e 01       		.uleb128 0x1
ARM GAS  /var/folders/5n/p_75w94d66l9ssrldxqdhh700000gn/T//ccBceGy8.s 			page 30


 1640 000f 55       		.uleb128 0x55
 1641 0010 06       		.uleb128 0x6
 1642 0011 10       		.uleb128 0x10
 1643 0012 06       		.uleb128 0x6
 1644 0013 00       		.byte	0
 1645 0014 00       		.byte	0
 1646 0015 02       		.uleb128 0x2
 1647 0016 24       		.uleb128 0x24
 1648 0017 00       		.byte	0
 1649 0018 0B       		.uleb128 0xb
 1650 0019 0B       		.uleb128 0xb
 1651 001a 3E       		.uleb128 0x3e
 1652 001b 0B       		.uleb128 0xb
 1653 001c 03       		.uleb128 0x3
 1654 001d 08       		.uleb128 0x8
 1655 001e 00       		.byte	0
 1656 001f 00       		.byte	0
 1657 0020 03       		.uleb128 0x3
 1658 0021 24       		.uleb128 0x24
 1659 0022 00       		.byte	0
 1660 0023 0B       		.uleb128 0xb
 1661 0024 0B       		.uleb128 0xb
 1662 0025 3E       		.uleb128 0x3e
 1663 0026 0B       		.uleb128 0xb
 1664 0027 03       		.uleb128 0x3
 1665 0028 0E       		.uleb128 0xe
 1666 0029 00       		.byte	0
 1667 002a 00       		.byte	0
 1668 002b 04       		.uleb128 0x4
 1669 002c 16       		.uleb128 0x16
 1670 002d 00       		.byte	0
 1671 002e 03       		.uleb128 0x3
 1672 002f 0E       		.uleb128 0xe
 1673 0030 3A       		.uleb128 0x3a
 1674 0031 0B       		.uleb128 0xb
 1675 0032 3B       		.uleb128 0x3b
 1676 0033 0B       		.uleb128 0xb
 1677 0034 49       		.uleb128 0x49
 1678 0035 13       		.uleb128 0x13
 1679 0036 00       		.byte	0
 1680 0037 00       		.byte	0
 1681 0038 05       		.uleb128 0x5
 1682 0039 13       		.uleb128 0x13
 1683 003a 01       		.byte	0x1
 1684 003b 03       		.uleb128 0x3
 1685 003c 0E       		.uleb128 0xe
 1686 003d 0B       		.uleb128 0xb
 1687 003e 0B       		.uleb128 0xb
 1688 003f 3A       		.uleb128 0x3a
 1689 0040 0B       		.uleb128 0xb
 1690 0041 3B       		.uleb128 0x3b
 1691 0042 0B       		.uleb128 0xb
 1692 0043 01       		.uleb128 0x1
 1693 0044 13       		.uleb128 0x13
 1694 0045 00       		.byte	0
 1695 0046 00       		.byte	0
 1696 0047 06       		.uleb128 0x6
ARM GAS  /var/folders/5n/p_75w94d66l9ssrldxqdhh700000gn/T//ccBceGy8.s 			page 31


 1697 0048 0D       		.uleb128 0xd
 1698 0049 00       		.byte	0
 1699 004a 03       		.uleb128 0x3
 1700 004b 0E       		.uleb128 0xe
 1701 004c 3A       		.uleb128 0x3a
 1702 004d 0B       		.uleb128 0xb
 1703 004e 3B       		.uleb128 0x3b
 1704 004f 0B       		.uleb128 0xb
 1705 0050 49       		.uleb128 0x49
 1706 0051 13       		.uleb128 0x13
 1707 0052 38       		.uleb128 0x38
 1708 0053 0A       		.uleb128 0xa
 1709 0054 00       		.byte	0
 1710 0055 00       		.byte	0
 1711 0056 07       		.uleb128 0x7
 1712 0057 0D       		.uleb128 0xd
 1713 0058 00       		.byte	0
 1714 0059 03       		.uleb128 0x3
 1715 005a 08       		.uleb128 0x8
 1716 005b 3A       		.uleb128 0x3a
 1717 005c 0B       		.uleb128 0xb
 1718 005d 3B       		.uleb128 0x3b
 1719 005e 0B       		.uleb128 0xb
 1720 005f 49       		.uleb128 0x49
 1721 0060 13       		.uleb128 0x13
 1722 0061 38       		.uleb128 0x38
 1723 0062 0A       		.uleb128 0xa
 1724 0063 00       		.byte	0
 1725 0064 00       		.byte	0
 1726 0065 08       		.uleb128 0x8
 1727 0066 13       		.uleb128 0x13
 1728 0067 01       		.byte	0x1
 1729 0068 0B       		.uleb128 0xb
 1730 0069 0B       		.uleb128 0xb
 1731 006a 3A       		.uleb128 0x3a
 1732 006b 0B       		.uleb128 0xb
 1733 006c 3B       		.uleb128 0x3b
 1734 006d 0B       		.uleb128 0xb
 1735 006e 01       		.uleb128 0x1
 1736 006f 13       		.uleb128 0x13
 1737 0070 00       		.byte	0
 1738 0071 00       		.byte	0
 1739 0072 09       		.uleb128 0x9
 1740 0073 0F       		.uleb128 0xf
 1741 0074 00       		.byte	0
 1742 0075 0B       		.uleb128 0xb
 1743 0076 0B       		.uleb128 0xb
 1744 0077 49       		.uleb128 0x49
 1745 0078 13       		.uleb128 0x13
 1746 0079 00       		.byte	0
 1747 007a 00       		.byte	0
 1748 007b 0A       		.uleb128 0xa
 1749 007c 0F       		.uleb128 0xf
 1750 007d 00       		.byte	0
 1751 007e 0B       		.uleb128 0xb
 1752 007f 0B       		.uleb128 0xb
 1753 0080 00       		.byte	0
ARM GAS  /var/folders/5n/p_75w94d66l9ssrldxqdhh700000gn/T//ccBceGy8.s 			page 32


 1754 0081 00       		.byte	0
 1755 0082 0B       		.uleb128 0xb
 1756 0083 13       		.uleb128 0x13
 1757 0084 01       		.byte	0x1
 1758 0085 03       		.uleb128 0x3
 1759 0086 0E       		.uleb128 0xe
 1760 0087 0B       		.uleb128 0xb
 1761 0088 0B       		.uleb128 0xb
 1762 0089 3A       		.uleb128 0x3a
 1763 008a 0B       		.uleb128 0xb
 1764 008b 3B       		.uleb128 0x3b
 1765 008c 05       		.uleb128 0x5
 1766 008d 01       		.uleb128 0x1
 1767 008e 13       		.uleb128 0x13
 1768 008f 00       		.byte	0
 1769 0090 00       		.byte	0
 1770 0091 0C       		.uleb128 0xc
 1771 0092 0D       		.uleb128 0xd
 1772 0093 00       		.byte	0
 1773 0094 03       		.uleb128 0x3
 1774 0095 08       		.uleb128 0x8
 1775 0096 3A       		.uleb128 0x3a
 1776 0097 0B       		.uleb128 0xb
 1777 0098 3B       		.uleb128 0x3b
 1778 0099 05       		.uleb128 0x5
 1779 009a 49       		.uleb128 0x49
 1780 009b 13       		.uleb128 0x13
 1781 009c 38       		.uleb128 0x38
 1782 009d 0A       		.uleb128 0xa
 1783 009e 00       		.byte	0
 1784 009f 00       		.byte	0
 1785 00a0 0D       		.uleb128 0xd
 1786 00a1 35       		.uleb128 0x35
 1787 00a2 00       		.byte	0
 1788 00a3 49       		.uleb128 0x49
 1789 00a4 13       		.uleb128 0x13
 1790 00a5 00       		.byte	0
 1791 00a6 00       		.byte	0
 1792 00a7 0E       		.uleb128 0xe
 1793 00a8 17       		.uleb128 0x17
 1794 00a9 01       		.byte	0x1
 1795 00aa 0B       		.uleb128 0xb
 1796 00ab 0B       		.uleb128 0xb
 1797 00ac 3A       		.uleb128 0x3a
 1798 00ad 0B       		.uleb128 0xb
 1799 00ae 3B       		.uleb128 0x3b
 1800 00af 0B       		.uleb128 0xb
 1801 00b0 01       		.uleb128 0x1
 1802 00b1 13       		.uleb128 0x13
 1803 00b2 00       		.byte	0
 1804 00b3 00       		.byte	0
 1805 00b4 0F       		.uleb128 0xf
 1806 00b5 0D       		.uleb128 0xd
 1807 00b6 00       		.byte	0
 1808 00b7 03       		.uleb128 0x3
 1809 00b8 0E       		.uleb128 0xe
 1810 00b9 3A       		.uleb128 0x3a
ARM GAS  /var/folders/5n/p_75w94d66l9ssrldxqdhh700000gn/T//ccBceGy8.s 			page 33


 1811 00ba 0B       		.uleb128 0xb
 1812 00bb 3B       		.uleb128 0x3b
 1813 00bc 0B       		.uleb128 0xb
 1814 00bd 49       		.uleb128 0x49
 1815 00be 13       		.uleb128 0x13
 1816 00bf 00       		.byte	0
 1817 00c0 00       		.byte	0
 1818 00c1 10       		.uleb128 0x10
 1819 00c2 26       		.uleb128 0x26
 1820 00c3 00       		.byte	0
 1821 00c4 49       		.uleb128 0x49
 1822 00c5 13       		.uleb128 0x13
 1823 00c6 00       		.byte	0
 1824 00c7 00       		.byte	0
 1825 00c8 11       		.uleb128 0x11
 1826 00c9 2E       		.uleb128 0x2e
 1827 00ca 01       		.byte	0x1
 1828 00cb 03       		.uleb128 0x3
 1829 00cc 0E       		.uleb128 0xe
 1830 00cd 3A       		.uleb128 0x3a
 1831 00ce 0B       		.uleb128 0xb
 1832 00cf 3B       		.uleb128 0x3b
 1833 00d0 0B       		.uleb128 0xb
 1834 00d1 27       		.uleb128 0x27
 1835 00d2 0C       		.uleb128 0xc
 1836 00d3 49       		.uleb128 0x49
 1837 00d4 13       		.uleb128 0x13
 1838 00d5 20       		.uleb128 0x20
 1839 00d6 0B       		.uleb128 0xb
 1840 00d7 01       		.uleb128 0x1
 1841 00d8 13       		.uleb128 0x13
 1842 00d9 00       		.byte	0
 1843 00da 00       		.byte	0
 1844 00db 12       		.uleb128 0x12
 1845 00dc 05       		.uleb128 0x5
 1846 00dd 00       		.byte	0
 1847 00de 03       		.uleb128 0x3
 1848 00df 08       		.uleb128 0x8
 1849 00e0 3A       		.uleb128 0x3a
 1850 00e1 0B       		.uleb128 0xb
 1851 00e2 3B       		.uleb128 0x3b
 1852 00e3 0B       		.uleb128 0xb
 1853 00e4 49       		.uleb128 0x49
 1854 00e5 13       		.uleb128 0x13
 1855 00e6 00       		.byte	0
 1856 00e7 00       		.byte	0
 1857 00e8 13       		.uleb128 0x13
 1858 00e9 34       		.uleb128 0x34
 1859 00ea 00       		.byte	0
 1860 00eb 03       		.uleb128 0x3
 1861 00ec 08       		.uleb128 0x8
 1862 00ed 3A       		.uleb128 0x3a
 1863 00ee 0B       		.uleb128 0xb
 1864 00ef 3B       		.uleb128 0x3b
 1865 00f0 0B       		.uleb128 0xb
 1866 00f1 49       		.uleb128 0x49
 1867 00f2 13       		.uleb128 0x13
ARM GAS  /var/folders/5n/p_75w94d66l9ssrldxqdhh700000gn/T//ccBceGy8.s 			page 34


 1868 00f3 00       		.byte	0
 1869 00f4 00       		.byte	0
 1870 00f5 14       		.uleb128 0x14
 1871 00f6 2E       		.uleb128 0x2e
 1872 00f7 01       		.byte	0x1
 1873 00f8 03       		.uleb128 0x3
 1874 00f9 0E       		.uleb128 0xe
 1875 00fa 3A       		.uleb128 0x3a
 1876 00fb 0B       		.uleb128 0xb
 1877 00fc 3B       		.uleb128 0x3b
 1878 00fd 0B       		.uleb128 0xb
 1879 00fe 27       		.uleb128 0x27
 1880 00ff 0C       		.uleb128 0xc
 1881 0100 20       		.uleb128 0x20
 1882 0101 0B       		.uleb128 0xb
 1883 0102 01       		.uleb128 0x1
 1884 0103 13       		.uleb128 0x13
 1885 0104 00       		.byte	0
 1886 0105 00       		.byte	0
 1887 0106 15       		.uleb128 0x15
 1888 0107 2E       		.uleb128 0x2e
 1889 0108 01       		.byte	0x1
 1890 0109 3F       		.uleb128 0x3f
 1891 010a 0C       		.uleb128 0xc
 1892 010b 03       		.uleb128 0x3
 1893 010c 0E       		.uleb128 0xe
 1894 010d 3A       		.uleb128 0x3a
 1895 010e 0B       		.uleb128 0xb
 1896 010f 3B       		.uleb128 0x3b
 1897 0110 0B       		.uleb128 0xb
 1898 0111 27       		.uleb128 0x27
 1899 0112 0C       		.uleb128 0xc
 1900 0113 11       		.uleb128 0x11
 1901 0114 01       		.uleb128 0x1
 1902 0115 12       		.uleb128 0x12
 1903 0116 01       		.uleb128 0x1
 1904 0117 40       		.uleb128 0x40
 1905 0118 0A       		.uleb128 0xa
 1906 0119 01       		.uleb128 0x1
 1907 011a 13       		.uleb128 0x13
 1908 011b 00       		.byte	0
 1909 011c 00       		.byte	0
 1910 011d 16       		.uleb128 0x16
 1911 011e 05       		.uleb128 0x5
 1912 011f 00       		.byte	0
 1913 0120 03       		.uleb128 0x3
 1914 0121 08       		.uleb128 0x8
 1915 0122 3A       		.uleb128 0x3a
 1916 0123 0B       		.uleb128 0xb
 1917 0124 3B       		.uleb128 0x3b
 1918 0125 0B       		.uleb128 0xb
 1919 0126 49       		.uleb128 0x49
 1920 0127 13       		.uleb128 0x13
 1921 0128 02       		.uleb128 0x2
 1922 0129 0A       		.uleb128 0xa
 1923 012a 00       		.byte	0
 1924 012b 00       		.byte	0
ARM GAS  /var/folders/5n/p_75w94d66l9ssrldxqdhh700000gn/T//ccBceGy8.s 			page 35


 1925 012c 17       		.uleb128 0x17
 1926 012d 2E       		.uleb128 0x2e
 1927 012e 01       		.byte	0x1
 1928 012f 3F       		.uleb128 0x3f
 1929 0130 0C       		.uleb128 0xc
 1930 0131 03       		.uleb128 0x3
 1931 0132 0E       		.uleb128 0xe
 1932 0133 3A       		.uleb128 0x3a
 1933 0134 0B       		.uleb128 0xb
 1934 0135 3B       		.uleb128 0x3b
 1935 0136 0B       		.uleb128 0xb
 1936 0137 27       		.uleb128 0x27
 1937 0138 0C       		.uleb128 0xc
 1938 0139 11       		.uleb128 0x11
 1939 013a 01       		.uleb128 0x1
 1940 013b 12       		.uleb128 0x12
 1941 013c 01       		.uleb128 0x1
 1942 013d 40       		.uleb128 0x40
 1943 013e 06       		.uleb128 0x6
 1944 013f 01       		.uleb128 0x1
 1945 0140 13       		.uleb128 0x13
 1946 0141 00       		.byte	0
 1947 0142 00       		.byte	0
 1948 0143 18       		.uleb128 0x18
 1949 0144 05       		.uleb128 0x5
 1950 0145 00       		.byte	0
 1951 0146 03       		.uleb128 0x3
 1952 0147 08       		.uleb128 0x8
 1953 0148 3A       		.uleb128 0x3a
 1954 0149 0B       		.uleb128 0xb
 1955 014a 3B       		.uleb128 0x3b
 1956 014b 0B       		.uleb128 0xb
 1957 014c 49       		.uleb128 0x49
 1958 014d 13       		.uleb128 0x13
 1959 014e 02       		.uleb128 0x2
 1960 014f 06       		.uleb128 0x6
 1961 0150 00       		.byte	0
 1962 0151 00       		.byte	0
 1963 0152 19       		.uleb128 0x19
 1964 0153 0B       		.uleb128 0xb
 1965 0154 01       		.byte	0x1
 1966 0155 11       		.uleb128 0x11
 1967 0156 01       		.uleb128 0x1
 1968 0157 12       		.uleb128 0x12
 1969 0158 01       		.uleb128 0x1
 1970 0159 01       		.uleb128 0x1
 1971 015a 13       		.uleb128 0x13
 1972 015b 00       		.byte	0
 1973 015c 00       		.byte	0
 1974 015d 1A       		.uleb128 0x1a
 1975 015e 34       		.uleb128 0x34
 1976 015f 00       		.byte	0
 1977 0160 03       		.uleb128 0x3
 1978 0161 08       		.uleb128 0x8
 1979 0162 3A       		.uleb128 0x3a
 1980 0163 0B       		.uleb128 0xb
 1981 0164 3B       		.uleb128 0x3b
ARM GAS  /var/folders/5n/p_75w94d66l9ssrldxqdhh700000gn/T//ccBceGy8.s 			page 36


 1982 0165 0B       		.uleb128 0xb
 1983 0166 49       		.uleb128 0x49
 1984 0167 13       		.uleb128 0x13
 1985 0168 02       		.uleb128 0x2
 1986 0169 06       		.uleb128 0x6
 1987 016a 00       		.byte	0
 1988 016b 00       		.byte	0
 1989 016c 1B       		.uleb128 0x1b
 1990 016d 1D       		.uleb128 0x1d
 1991 016e 01       		.byte	0x1
 1992 016f 31       		.uleb128 0x31
 1993 0170 13       		.uleb128 0x13
 1994 0171 52       		.uleb128 0x52
 1995 0172 01       		.uleb128 0x1
 1996 0173 55       		.uleb128 0x55
 1997 0174 06       		.uleb128 0x6
 1998 0175 58       		.uleb128 0x58
 1999 0176 0B       		.uleb128 0xb
 2000 0177 59       		.uleb128 0x59
 2001 0178 0B       		.uleb128 0xb
 2002 0179 01       		.uleb128 0x1
 2003 017a 13       		.uleb128 0x13
 2004 017b 00       		.byte	0
 2005 017c 00       		.byte	0
 2006 017d 1C       		.uleb128 0x1c
 2007 017e 05       		.uleb128 0x5
 2008 017f 00       		.byte	0
 2009 0180 31       		.uleb128 0x31
 2010 0181 13       		.uleb128 0x13
 2011 0182 02       		.uleb128 0x2
 2012 0183 06       		.uleb128 0x6
 2013 0184 00       		.byte	0
 2014 0185 00       		.byte	0
 2015 0186 1D       		.uleb128 0x1d
 2016 0187 0B       		.uleb128 0xb
 2017 0188 01       		.byte	0x1
 2018 0189 55       		.uleb128 0x55
 2019 018a 06       		.uleb128 0x6
 2020 018b 00       		.byte	0
 2021 018c 00       		.byte	0
 2022 018d 1E       		.uleb128 0x1e
 2023 018e 34       		.uleb128 0x34
 2024 018f 00       		.byte	0
 2025 0190 31       		.uleb128 0x31
 2026 0191 13       		.uleb128 0x13
 2027 0192 02       		.uleb128 0x2
 2028 0193 06       		.uleb128 0x6
 2029 0194 00       		.byte	0
 2030 0195 00       		.byte	0
 2031 0196 1F       		.uleb128 0x1f
 2032 0197 0B       		.uleb128 0xb
 2033 0198 01       		.byte	0x1
 2034 0199 11       		.uleb128 0x11
 2035 019a 01       		.uleb128 0x1
 2036 019b 12       		.uleb128 0x12
 2037 019c 01       		.uleb128 0x1
 2038 019d 00       		.byte	0
ARM GAS  /var/folders/5n/p_75w94d66l9ssrldxqdhh700000gn/T//ccBceGy8.s 			page 37


 2039 019e 00       		.byte	0
 2040 019f 20       		.uleb128 0x20
 2041 01a0 1D       		.uleb128 0x1d
 2042 01a1 01       		.byte	0x1
 2043 01a2 31       		.uleb128 0x31
 2044 01a3 13       		.uleb128 0x13
 2045 01a4 11       		.uleb128 0x11
 2046 01a5 01       		.uleb128 0x1
 2047 01a6 12       		.uleb128 0x12
 2048 01a7 01       		.uleb128 0x1
 2049 01a8 58       		.uleb128 0x58
 2050 01a9 0B       		.uleb128 0xb
 2051 01aa 59       		.uleb128 0x59
 2052 01ab 0B       		.uleb128 0xb
 2053 01ac 00       		.byte	0
 2054 01ad 00       		.byte	0
 2055 01ae 21       		.uleb128 0x21
 2056 01af 2E       		.uleb128 0x2e
 2057 01b0 01       		.byte	0x1
 2058 01b1 3F       		.uleb128 0x3f
 2059 01b2 0C       		.uleb128 0xc
 2060 01b3 03       		.uleb128 0x3
 2061 01b4 0E       		.uleb128 0xe
 2062 01b5 3A       		.uleb128 0x3a
 2063 01b6 0B       		.uleb128 0xb
 2064 01b7 3B       		.uleb128 0x3b
 2065 01b8 0B       		.uleb128 0xb
 2066 01b9 27       		.uleb128 0x27
 2067 01ba 0C       		.uleb128 0xc
 2068 01bb 49       		.uleb128 0x49
 2069 01bc 13       		.uleb128 0x13
 2070 01bd 11       		.uleb128 0x11
 2071 01be 01       		.uleb128 0x1
 2072 01bf 12       		.uleb128 0x12
 2073 01c0 01       		.uleb128 0x1
 2074 01c1 40       		.uleb128 0x40
 2075 01c2 06       		.uleb128 0x6
 2076 01c3 01       		.uleb128 0x1
 2077 01c4 13       		.uleb128 0x13
 2078 01c5 00       		.byte	0
 2079 01c6 00       		.byte	0
 2080 01c7 22       		.uleb128 0x22
 2081 01c8 1D       		.uleb128 0x1d
 2082 01c9 01       		.byte	0x1
 2083 01ca 31       		.uleb128 0x31
 2084 01cb 13       		.uleb128 0x13
 2085 01cc 52       		.uleb128 0x52
 2086 01cd 01       		.uleb128 0x1
 2087 01ce 55       		.uleb128 0x55
 2088 01cf 06       		.uleb128 0x6
 2089 01d0 58       		.uleb128 0x58
 2090 01d1 0B       		.uleb128 0xb
 2091 01d2 59       		.uleb128 0x59
 2092 01d3 0B       		.uleb128 0xb
 2093 01d4 00       		.byte	0
 2094 01d5 00       		.byte	0
 2095 01d6 23       		.uleb128 0x23
ARM GAS  /var/folders/5n/p_75w94d66l9ssrldxqdhh700000gn/T//ccBceGy8.s 			page 38


 2096 01d7 05       		.uleb128 0x5
 2097 01d8 00       		.byte	0
 2098 01d9 31       		.uleb128 0x31
 2099 01da 13       		.uleb128 0x13
 2100 01db 02       		.uleb128 0x2
 2101 01dc 0A       		.uleb128 0xa
 2102 01dd 00       		.byte	0
 2103 01de 00       		.byte	0
 2104 01df 24       		.uleb128 0x24
 2105 01e0 34       		.uleb128 0x34
 2106 01e1 00       		.byte	0
 2107 01e2 03       		.uleb128 0x3
 2108 01e3 08       		.uleb128 0x8
 2109 01e4 3A       		.uleb128 0x3a
 2110 01e5 0B       		.uleb128 0xb
 2111 01e6 3B       		.uleb128 0x3b
 2112 01e7 0B       		.uleb128 0xb
 2113 01e8 49       		.uleb128 0x49
 2114 01e9 13       		.uleb128 0x13
 2115 01ea 02       		.uleb128 0x2
 2116 01eb 0A       		.uleb128 0xa
 2117 01ec 00       		.byte	0
 2118 01ed 00       		.byte	0
 2119 01ee 25       		.uleb128 0x25
 2120 01ef 2E       		.uleb128 0x2e
 2121 01f0 01       		.byte	0x1
 2122 01f1 3F       		.uleb128 0x3f
 2123 01f2 0C       		.uleb128 0xc
 2124 01f3 03       		.uleb128 0x3
 2125 01f4 0E       		.uleb128 0xe
 2126 01f5 3A       		.uleb128 0x3a
 2127 01f6 0B       		.uleb128 0xb
 2128 01f7 3B       		.uleb128 0x3b
 2129 01f8 05       		.uleb128 0x5
 2130 01f9 27       		.uleb128 0x27
 2131 01fa 0C       		.uleb128 0xc
 2132 01fb 49       		.uleb128 0x49
 2133 01fc 13       		.uleb128 0x13
 2134 01fd 11       		.uleb128 0x11
 2135 01fe 01       		.uleb128 0x1
 2136 01ff 12       		.uleb128 0x12
 2137 0200 01       		.uleb128 0x1
 2138 0201 40       		.uleb128 0x40
 2139 0202 06       		.uleb128 0x6
 2140 0203 01       		.uleb128 0x1
 2141 0204 13       		.uleb128 0x13
 2142 0205 00       		.byte	0
 2143 0206 00       		.byte	0
 2144 0207 26       		.uleb128 0x26
 2145 0208 05       		.uleb128 0x5
 2146 0209 00       		.byte	0
 2147 020a 03       		.uleb128 0x3
 2148 020b 08       		.uleb128 0x8
 2149 020c 3A       		.uleb128 0x3a
 2150 020d 0B       		.uleb128 0xb
 2151 020e 3B       		.uleb128 0x3b
 2152 020f 05       		.uleb128 0x5
ARM GAS  /var/folders/5n/p_75w94d66l9ssrldxqdhh700000gn/T//ccBceGy8.s 			page 39


 2153 0210 49       		.uleb128 0x49
 2154 0211 13       		.uleb128 0x13
 2155 0212 02       		.uleb128 0x2
 2156 0213 06       		.uleb128 0x6
 2157 0214 00       		.byte	0
 2158 0215 00       		.byte	0
 2159 0216 27       		.uleb128 0x27
 2160 0217 05       		.uleb128 0x5
 2161 0218 00       		.byte	0
 2162 0219 03       		.uleb128 0x3
 2163 021a 0E       		.uleb128 0xe
 2164 021b 3A       		.uleb128 0x3a
 2165 021c 0B       		.uleb128 0xb
 2166 021d 3B       		.uleb128 0x3b
 2167 021e 05       		.uleb128 0x5
 2168 021f 49       		.uleb128 0x49
 2169 0220 13       		.uleb128 0x13
 2170 0221 02       		.uleb128 0x2
 2171 0222 06       		.uleb128 0x6
 2172 0223 00       		.byte	0
 2173 0224 00       		.byte	0
 2174 0225 28       		.uleb128 0x28
 2175 0226 34       		.uleb128 0x34
 2176 0227 00       		.byte	0
 2177 0228 03       		.uleb128 0x3
 2178 0229 08       		.uleb128 0x8
 2179 022a 3A       		.uleb128 0x3a
 2180 022b 0B       		.uleb128 0xb
 2181 022c 3B       		.uleb128 0x3b
 2182 022d 05       		.uleb128 0x5
 2183 022e 49       		.uleb128 0x49
 2184 022f 13       		.uleb128 0x13
 2185 0230 02       		.uleb128 0x2
 2186 0231 06       		.uleb128 0x6
 2187 0232 00       		.byte	0
 2188 0233 00       		.byte	0
 2189 0234 29       		.uleb128 0x29
 2190 0235 1D       		.uleb128 0x1d
 2191 0236 01       		.byte	0x1
 2192 0237 31       		.uleb128 0x31
 2193 0238 13       		.uleb128 0x13
 2194 0239 52       		.uleb128 0x52
 2195 023a 01       		.uleb128 0x1
 2196 023b 55       		.uleb128 0x55
 2197 023c 06       		.uleb128 0x6
 2198 023d 58       		.uleb128 0x58
 2199 023e 0B       		.uleb128 0xb
 2200 023f 59       		.uleb128 0x59
 2201 0240 05       		.uleb128 0x5
 2202 0241 00       		.byte	0
 2203 0242 00       		.byte	0
 2204 0243 2A       		.uleb128 0x2a
 2205 0244 05       		.uleb128 0x5
 2206 0245 00       		.byte	0
 2207 0246 03       		.uleb128 0x3
 2208 0247 0E       		.uleb128 0xe
 2209 0248 3A       		.uleb128 0x3a
ARM GAS  /var/folders/5n/p_75w94d66l9ssrldxqdhh700000gn/T//ccBceGy8.s 			page 40


 2210 0249 0B       		.uleb128 0xb
 2211 024a 3B       		.uleb128 0x3b
 2212 024b 0B       		.uleb128 0xb
 2213 024c 49       		.uleb128 0x49
 2214 024d 13       		.uleb128 0x13
 2215 024e 02       		.uleb128 0x2
 2216 024f 06       		.uleb128 0x6
 2217 0250 00       		.byte	0
 2218 0251 00       		.byte	0
 2219 0252 2B       		.uleb128 0x2b
 2220 0253 34       		.uleb128 0x34
 2221 0254 00       		.byte	0
 2222 0255 03       		.uleb128 0x3
 2223 0256 0E       		.uleb128 0xe
 2224 0257 3A       		.uleb128 0x3a
 2225 0258 0B       		.uleb128 0xb
 2226 0259 3B       		.uleb128 0x3b
 2227 025a 0B       		.uleb128 0xb
 2228 025b 49       		.uleb128 0x49
 2229 025c 13       		.uleb128 0x13
 2230 025d 3F       		.uleb128 0x3f
 2231 025e 0C       		.uleb128 0xc
 2232 025f 3C       		.uleb128 0x3c
 2233 0260 0C       		.uleb128 0xc
 2234 0261 00       		.byte	0
 2235 0262 00       		.byte	0
 2236 0263 00       		.byte	0
 2237              		.section	.debug_loc,"",%progbits
 2238              	.Ldebug_loc0:
 2239              	.LLST0:
 2240 0000 00000000 		.4byte	.LFB8
 2241 0004 02000000 		.4byte	.LCFI0
 2242 0008 0200     		.2byte	0x2
 2243 000a 7D       		.byte	0x7d
 2244 000b 00       		.sleb128 0
 2245 000c 02000000 		.4byte	.LCFI0
 2246 0010 24000000 		.4byte	.LFE8
 2247 0014 0200     		.2byte	0x2
 2248 0016 7D       		.byte	0x7d
 2249 0017 08       		.sleb128 8
 2250 0018 00000000 		.4byte	0
 2251 001c 00000000 		.4byte	0
 2252              	.LLST1:
 2253 0020 00000000 		.4byte	.LVL1
 2254 0024 0C000000 		.4byte	.LVL4
 2255 0028 0100     		.2byte	0x1
 2256 002a 50       		.byte	0x50
 2257 002b 0C000000 		.4byte	.LVL4
 2258 002f 1B000000 		.4byte	.LVL7-1
 2259 0033 0100     		.2byte	0x1
 2260 0035 52       		.byte	0x52
 2261 0036 00000000 		.4byte	0
 2262 003a 00000000 		.4byte	0
 2263              	.LLST2:
 2264 003e 0A000000 		.4byte	.LVL3
 2265 0042 12000000 		.4byte	.LVL6
 2266 0046 0100     		.2byte	0x1
ARM GAS  /var/folders/5n/p_75w94d66l9ssrldxqdhh700000gn/T//ccBceGy8.s 			page 41


 2267 0048 53       		.byte	0x53
 2268 0049 1C000000 		.4byte	.LVL7
 2269 004d 1E000000 		.4byte	.LVL8
 2270 0051 0100     		.2byte	0x1
 2271 0053 53       		.byte	0x53
 2272 0054 00000000 		.4byte	0
 2273 0058 00000000 		.4byte	0
 2274              	.LLST3:
 2275 005c 10000000 		.4byte	.LVL5
 2276 0060 1B000000 		.4byte	.LVL7-1
 2277 0064 0100     		.2byte	0x1
 2278 0066 52       		.byte	0x52
 2279 0067 00000000 		.4byte	0
 2280 006b 00000000 		.4byte	0
 2281              	.LLST4:
 2282 006f 10000000 		.4byte	.LVL5
 2283 0073 1B000000 		.4byte	.LVL7-1
 2284 0077 0200     		.2byte	0x2
 2285 0079 72       		.byte	0x72
 2286 007a 00       		.sleb128 0
 2287 007b 00000000 		.4byte	0
 2288 007f 00000000 		.4byte	0
 2289              	.LLST5:
 2290 0083 22000000 		.4byte	.LVL9
 2291 0087 24000000 		.4byte	.LFE8
 2292 008b 0100     		.2byte	0x1
 2293 008d 53       		.byte	0x53
 2294 008e 00000000 		.4byte	0
 2295 0092 00000000 		.4byte	0
 2296              	.LLST6:
 2297 0096 00000000 		.4byte	.LFB9
 2298 009a 02000000 		.4byte	.LCFI1
 2299 009e 0200     		.2byte	0x2
 2300 00a0 7D       		.byte	0x7d
 2301 00a1 00       		.sleb128 0
 2302 00a2 02000000 		.4byte	.LCFI1
 2303 00a6 1A000000 		.4byte	.LFE9
 2304 00aa 0200     		.2byte	0x2
 2305 00ac 7D       		.byte	0x7d
 2306 00ad 08       		.sleb128 8
 2307 00ae 00000000 		.4byte	0
 2308 00b2 00000000 		.4byte	0
 2309              	.LLST7:
 2310 00b6 00000000 		.4byte	.LVL10
 2311 00ba 06000000 		.4byte	.LVL11
 2312 00be 0100     		.2byte	0x1
 2313 00c0 50       		.byte	0x50
 2314 00c1 06000000 		.4byte	.LVL11
 2315 00c5 13000000 		.4byte	.LVL13-1
 2316 00c9 0100     		.2byte	0x1
 2317 00cb 53       		.byte	0x53
 2318 00cc 00000000 		.4byte	0
 2319 00d0 00000000 		.4byte	0
 2320              	.LLST8:
 2321 00d4 0A000000 		.4byte	.LVL12
 2322 00d8 13000000 		.4byte	.LVL13-1
 2323 00dc 0100     		.2byte	0x1
ARM GAS  /var/folders/5n/p_75w94d66l9ssrldxqdhh700000gn/T//ccBceGy8.s 			page 42


 2324 00de 53       		.byte	0x53
 2325 00df 00000000 		.4byte	0
 2326 00e3 00000000 		.4byte	0
 2327              	.LLST9:
 2328 00e7 0A000000 		.4byte	.LVL12
 2329 00eb 13000000 		.4byte	.LVL13-1
 2330 00ef 0200     		.2byte	0x2
 2331 00f1 73       		.byte	0x73
 2332 00f2 00       		.sleb128 0
 2333 00f3 00000000 		.4byte	0
 2334 00f7 00000000 		.4byte	0
 2335              	.LLST10:
 2336 00fb 00000000 		.4byte	.LFB11
 2337 00ff 02000000 		.4byte	.LCFI2
 2338 0103 0200     		.2byte	0x2
 2339 0105 7D       		.byte	0x7d
 2340 0106 00       		.sleb128 0
 2341 0107 02000000 		.4byte	.LCFI2
 2342 010b 22000000 		.4byte	.LFE11
 2343 010f 0200     		.2byte	0x2
 2344 0111 7D       		.byte	0x7d
 2345 0112 10       		.sleb128 16
 2346 0113 00000000 		.4byte	0
 2347 0117 00000000 		.4byte	0
 2348              	.LLST11:
 2349 011b 00000000 		.4byte	.LVL14
 2350 011f 06000000 		.4byte	.LVL15
 2351 0123 0100     		.2byte	0x1
 2352 0125 50       		.byte	0x50
 2353 0126 06000000 		.4byte	.LVL15
 2354 012a 22000000 		.4byte	.LFE11
 2355 012e 0100     		.2byte	0x1
 2356 0130 54       		.byte	0x54
 2357 0131 00000000 		.4byte	0
 2358 0135 00000000 		.4byte	0
 2359              	.LLST12:
 2360 0139 0E000000 		.4byte	.LVL16
 2361 013d 20000000 		.4byte	.LVL18
 2362 0141 0100     		.2byte	0x1
 2363 0143 54       		.byte	0x54
 2364 0144 00000000 		.4byte	0
 2365 0148 00000000 		.4byte	0
 2366              	.LLST13:
 2367 014c 0E000000 		.4byte	.LVL16
 2368 0150 17000000 		.4byte	.LVL17-1
 2369 0154 0100     		.2byte	0x1
 2370 0156 50       		.byte	0x50
 2371 0157 00000000 		.4byte	0
 2372 015b 00000000 		.4byte	0
 2373              	.LLST14:
 2374 015f 00000000 		.4byte	.LFB10
 2375 0163 02000000 		.4byte	.LCFI3
 2376 0167 0200     		.2byte	0x2
 2377 0169 7D       		.byte	0x7d
 2378 016a 00       		.sleb128 0
 2379 016b 02000000 		.4byte	.LCFI3
 2380 016f 18000000 		.4byte	.LFE10
ARM GAS  /var/folders/5n/p_75w94d66l9ssrldxqdhh700000gn/T//ccBceGy8.s 			page 43


 2381 0173 0200     		.2byte	0x2
 2382 0175 7D       		.byte	0x7d
 2383 0176 08       		.sleb128 8
 2384 0177 00000000 		.4byte	0
 2385 017b 00000000 		.4byte	0
 2386              	.LLST15:
 2387 017f 00000000 		.4byte	.LVL19
 2388 0183 0B000000 		.4byte	.LVL22-1
 2389 0187 0100     		.2byte	0x1
 2390 0189 50       		.byte	0x50
 2391 018a 00000000 		.4byte	0
 2392 018e 00000000 		.4byte	0
 2393              	.LLST16:
 2394 0192 08000000 		.4byte	.LVL21
 2395 0196 0B000000 		.4byte	.LVL22-1
 2396 019a 0100     		.2byte	0x1
 2397 019c 53       		.byte	0x53
 2398 019d 00000000 		.4byte	0
 2399 01a1 00000000 		.4byte	0
 2400              	.LLST17:
 2401 01a5 16000000 		.4byte	.LVL24
 2402 01a9 18000000 		.4byte	.LFE10
 2403 01ad 0100     		.2byte	0x1
 2404 01af 53       		.byte	0x53
 2405 01b0 00000000 		.4byte	0
 2406 01b4 00000000 		.4byte	0
 2407              	.LLST18:
 2408 01b8 00000000 		.4byte	.LFB13
 2409 01bc 04000000 		.4byte	.LCFI4
 2410 01c0 0200     		.2byte	0x2
 2411 01c2 7D       		.byte	0x7d
 2412 01c3 00       		.sleb128 0
 2413 01c4 04000000 		.4byte	.LCFI4
 2414 01c8 48000000 		.4byte	.LFE13
 2415 01cc 0200     		.2byte	0x2
 2416 01ce 7D       		.byte	0x7d
 2417 01cf 10       		.sleb128 16
 2418 01d0 00000000 		.4byte	0
 2419 01d4 00000000 		.4byte	0
 2420              	.LLST19:
 2421 01d8 00000000 		.4byte	.LVL25
 2422 01dc 0B000000 		.4byte	.LVL27-1
 2423 01e0 0100     		.2byte	0x1
 2424 01e2 50       		.byte	0x50
 2425 01e3 0B000000 		.4byte	.LVL27-1
 2426 01e7 48000000 		.4byte	.LFE13
 2427 01eb 0100     		.2byte	0x1
 2428 01ed 55       		.byte	0x55
 2429 01ee 00000000 		.4byte	0
 2430 01f2 00000000 		.4byte	0
 2431              	.LLST20:
 2432 01f6 08000000 		.4byte	.LVL26
 2433 01fa 0B000000 		.4byte	.LVL27-1
 2434 01fe 0200     		.2byte	0x2
 2435 0200 73       		.byte	0x73
 2436 0201 18       		.sleb128 24
 2437 0202 0B000000 		.4byte	.LVL27-1
ARM GAS  /var/folders/5n/p_75w94d66l9ssrldxqdhh700000gn/T//ccBceGy8.s 			page 44


 2438 0206 36000000 		.4byte	.LVL33
 2439 020a 0100     		.2byte	0x1
 2440 020c 54       		.byte	0x54
 2441 020d 40000000 		.4byte	.LVL34
 2442 0211 48000000 		.4byte	.LFE13
 2443 0215 0100     		.2byte	0x1
 2444 0217 54       		.byte	0x54
 2445 0218 00000000 		.4byte	0
 2446 021c 00000000 		.4byte	0
 2447              	.LLST21:
 2448 0220 10000000 		.4byte	.LVL28
 2449 0224 16000000 		.4byte	.LVL30
 2450 0228 0100     		.2byte	0x1
 2451 022a 50       		.byte	0x50
 2452 022b 16000000 		.4byte	.LVL30
 2453 022f 48000000 		.4byte	.LFE13
 2454 0233 0100     		.2byte	0x1
 2455 0235 56       		.byte	0x56
 2456 0236 00000000 		.4byte	0
 2457 023a 00000000 		.4byte	0
 2458              	.LLST22:
 2459 023e 36000000 		.4byte	.LVL33
 2460 0242 40000000 		.4byte	.LVL34
 2461 0246 0100     		.2byte	0x1
 2462 0248 54       		.byte	0x54
 2463 0249 00000000 		.4byte	0
 2464 024d 00000000 		.4byte	0
 2465              	.LLST23:
 2466 0251 12000000 		.4byte	.LVL29
 2467 0255 36000000 		.4byte	.LVL33
 2468 0259 0100     		.2byte	0x1
 2469 025b 54       		.byte	0x54
 2470 025c 40000000 		.4byte	.LVL34
 2471 0260 48000000 		.4byte	.LFE13
 2472 0264 0100     		.2byte	0x1
 2473 0266 54       		.byte	0x54
 2474 0267 00000000 		.4byte	0
 2475 026b 00000000 		.4byte	0
 2476              	.LLST24:
 2477 026f 12000000 		.4byte	.LVL29
 2478 0273 16000000 		.4byte	.LVL30
 2479 0277 0100     		.2byte	0x1
 2480 0279 55       		.byte	0x55
 2481 027a 16000000 		.4byte	.LVL30
 2482 027e 26000000 		.4byte	.LVL32
 2483 0282 0100     		.2byte	0x1
 2484 0284 52       		.byte	0x52
 2485 0285 40000000 		.4byte	.LVL34
 2486 0289 48000000 		.4byte	.LFE13
 2487 028d 0100     		.2byte	0x1
 2488 028f 52       		.byte	0x52
 2489 0290 00000000 		.4byte	0
 2490 0294 00000000 		.4byte	0
 2491              	.LLST25:
 2492 0298 00000000 		.4byte	.LFB12
 2493 029c 02000000 		.4byte	.LCFI5
 2494 02a0 0200     		.2byte	0x2
ARM GAS  /var/folders/5n/p_75w94d66l9ssrldxqdhh700000gn/T//ccBceGy8.s 			page 45


 2495 02a2 7D       		.byte	0x7d
 2496 02a3 00       		.sleb128 0
 2497 02a4 02000000 		.4byte	.LCFI5
 2498 02a8 14000000 		.4byte	.LFE12
 2499 02ac 0200     		.2byte	0x2
 2500 02ae 7D       		.byte	0x7d
 2501 02af 08       		.sleb128 8
 2502 02b0 00000000 		.4byte	0
 2503 02b4 00000000 		.4byte	0
 2504              	.LLST26:
 2505 02b8 00000000 		.4byte	.LVL35
 2506 02bc 0B000000 		.4byte	.LVL38-1
 2507 02c0 0100     		.2byte	0x1
 2508 02c2 50       		.byte	0x50
 2509 02c3 00000000 		.4byte	0
 2510 02c7 00000000 		.4byte	0
 2511              	.LLST27:
 2512 02cb 08000000 		.4byte	.LVL37
 2513 02cf 0B000000 		.4byte	.LVL38-1
 2514 02d3 0100     		.2byte	0x1
 2515 02d5 53       		.byte	0x53
 2516 02d6 00000000 		.4byte	0
 2517 02da 00000000 		.4byte	0
 2518              	.LLST28:
 2519 02de 12000000 		.4byte	.LVL40
 2520 02e2 14000000 		.4byte	.LFE12
 2521 02e6 0100     		.2byte	0x1
 2522 02e8 53       		.byte	0x53
 2523 02e9 00000000 		.4byte	0
 2524 02ed 00000000 		.4byte	0
 2525              	.LLST29:
 2526 02f1 00000000 		.4byte	.LFB15
 2527 02f5 02000000 		.4byte	.LCFI6
 2528 02f9 0200     		.2byte	0x2
 2529 02fb 7D       		.byte	0x7d
 2530 02fc 00       		.sleb128 0
 2531 02fd 02000000 		.4byte	.LCFI6
 2532 0301 50000000 		.4byte	.LFE15
 2533 0305 0200     		.2byte	0x2
 2534 0307 7D       		.byte	0x7d
 2535 0308 18       		.sleb128 24
 2536 0309 00000000 		.4byte	0
 2537 030d 00000000 		.4byte	0
 2538              	.LLST30:
 2539 0311 00000000 		.4byte	.LVL41
 2540 0315 09000000 		.4byte	.LVL42-1
 2541 0319 0100     		.2byte	0x1
 2542 031b 50       		.byte	0x50
 2543 031c 09000000 		.4byte	.LVL42-1
 2544 0320 3C000000 		.4byte	.LVL51
 2545 0324 0100     		.2byte	0x1
 2546 0326 54       		.byte	0x54
 2547 0327 48000000 		.4byte	.LVL53
 2548 032b 50000000 		.4byte	.LFE15
 2549 032f 0100     		.2byte	0x1
 2550 0331 54       		.byte	0x54
 2551 0332 00000000 		.4byte	0
ARM GAS  /var/folders/5n/p_75w94d66l9ssrldxqdhh700000gn/T//ccBceGy8.s 			page 46


 2552 0336 00000000 		.4byte	0
 2553              	.LLST31:
 2554 033a 00000000 		.4byte	.LVL41
 2555 033e 09000000 		.4byte	.LVL42-1
 2556 0342 0100     		.2byte	0x1
 2557 0344 51       		.byte	0x51
 2558 0345 09000000 		.4byte	.LVL42-1
 2559 0349 50000000 		.4byte	.LFE15
 2560 034d 0100     		.2byte	0x1
 2561 034f 56       		.byte	0x56
 2562 0350 00000000 		.4byte	0
 2563 0354 00000000 		.4byte	0
 2564              	.LLST32:
 2565 0358 0E000000 		.4byte	.LVL43
 2566 035c 10000000 		.4byte	.LVL44
 2567 0360 0100     		.2byte	0x1
 2568 0362 50       		.byte	0x50
 2569 0363 10000000 		.4byte	.LVL44
 2570 0367 50000000 		.4byte	.LFE15
 2571 036b 0100     		.2byte	0x1
 2572 036d 55       		.byte	0x55
 2573 036e 00000000 		.4byte	0
 2574 0372 00000000 		.4byte	0
 2575              	.LLST33:
 2576 0376 3C000000 		.4byte	.LVL51
 2577 037a 40000000 		.4byte	.LVL52
 2578 037e 0100     		.2byte	0x1
 2579 0380 50       		.byte	0x50
 2580 0381 40000000 		.4byte	.LVL52
 2581 0385 48000000 		.4byte	.LVL53
 2582 0389 0100     		.2byte	0x1
 2583 038b 54       		.byte	0x54
 2584 038c 00000000 		.4byte	0
 2585 0390 00000000 		.4byte	0
 2586              	.LLST34:
 2587 0394 12000000 		.4byte	.LVL45
 2588 0398 3C000000 		.4byte	.LVL51
 2589 039c 0100     		.2byte	0x1
 2590 039e 54       		.byte	0x54
 2591 039f 48000000 		.4byte	.LVL53
 2592 03a3 50000000 		.4byte	.LFE15
 2593 03a7 0100     		.2byte	0x1
 2594 03a9 54       		.byte	0x54
 2595 03aa 00000000 		.4byte	0
 2596 03ae 00000000 		.4byte	0
 2597              	.LLST35:
 2598 03b2 12000000 		.4byte	.LVL45
 2599 03b6 16000000 		.4byte	.LVL46
 2600 03ba 0200     		.2byte	0x2
 2601 03bc 73       		.byte	0x73
 2602 03bd 18       		.sleb128 24
 2603 03be 48000000 		.4byte	.LVL53
 2604 03c2 50000000 		.4byte	.LFE15
 2605 03c6 0100     		.2byte	0x1
 2606 03c8 50       		.byte	0x50
 2607 03c9 00000000 		.4byte	0
 2608 03cd 00000000 		.4byte	0
ARM GAS  /var/folders/5n/p_75w94d66l9ssrldxqdhh700000gn/T//ccBceGy8.s 			page 47


 2609              	.LLST36:
 2610 03d1 12000000 		.4byte	.LVL45
 2611 03d5 18000000 		.4byte	.LVL47
 2612 03d9 0100     		.2byte	0x1
 2613 03db 54       		.byte	0x54
 2614 03dc 18000000 		.4byte	.LVL47
 2615 03e0 28000000 		.4byte	.LVL49
 2616 03e4 0100     		.2byte	0x1
 2617 03e6 53       		.byte	0x53
 2618 03e7 48000000 		.4byte	.LVL53
 2619 03eb 50000000 		.4byte	.LFE15
 2620 03ef 0100     		.2byte	0x1
 2621 03f1 53       		.byte	0x53
 2622 03f2 00000000 		.4byte	0
 2623 03f6 00000000 		.4byte	0
 2624              	.LLST37:
 2625 03fa 00000000 		.4byte	.LFB14
 2626 03fe 02000000 		.4byte	.LCFI7
 2627 0402 0200     		.2byte	0x2
 2628 0404 7D       		.byte	0x7d
 2629 0405 00       		.sleb128 0
 2630 0406 02000000 		.4byte	.LCFI7
 2631 040a 14000000 		.4byte	.LFE14
 2632 040e 0200     		.2byte	0x2
 2633 0410 7D       		.byte	0x7d
 2634 0411 08       		.sleb128 8
 2635 0412 00000000 		.4byte	0
 2636 0416 00000000 		.4byte	0
 2637              	.LLST38:
 2638 041a 00000000 		.4byte	.LVL54
 2639 041e 0B000000 		.4byte	.LVL57-1
 2640 0422 0100     		.2byte	0x1
 2641 0424 50       		.byte	0x50
 2642 0425 00000000 		.4byte	0
 2643 0429 00000000 		.4byte	0
 2644              	.LLST39:
 2645 042d 00000000 		.4byte	.LVL54
 2646 0431 0B000000 		.4byte	.LVL57-1
 2647 0435 0100     		.2byte	0x1
 2648 0437 51       		.byte	0x51
 2649 0438 00000000 		.4byte	0
 2650 043c 00000000 		.4byte	0
 2651              	.LLST40:
 2652 0440 08000000 		.4byte	.LVL56
 2653 0444 0B000000 		.4byte	.LVL57-1
 2654 0448 0100     		.2byte	0x1
 2655 044a 53       		.byte	0x53
 2656 044b 00000000 		.4byte	0
 2657 044f 00000000 		.4byte	0
 2658              	.LLST41:
 2659 0453 12000000 		.4byte	.LVL59
 2660 0457 14000000 		.4byte	.LFE14
 2661 045b 0100     		.2byte	0x1
 2662 045d 53       		.byte	0x53
 2663 045e 00000000 		.4byte	0
 2664 0462 00000000 		.4byte	0
 2665              		.section	.debug_aranges,"",%progbits
ARM GAS  /var/folders/5n/p_75w94d66l9ssrldxqdhh700000gn/T//ccBceGy8.s 			page 48


 2666 0000 5C000000 		.4byte	0x5c
 2667 0004 0200     		.2byte	0x2
 2668 0006 00000000 		.4byte	.Ldebug_info0
 2669 000a 04       		.byte	0x4
 2670 000b 00       		.byte	0
 2671 000c 0000     		.2byte	0
 2672 000e 0000     		.2byte	0
 2673 0010 00000000 		.4byte	.LFB7
 2674 0014 06000000 		.4byte	.LFE7-.LFB7
 2675 0018 00000000 		.4byte	.LFB8
 2676 001c 24000000 		.4byte	.LFE8-.LFB8
 2677 0020 00000000 		.4byte	.LFB9
 2678 0024 1A000000 		.4byte	.LFE9-.LFB9
 2679 0028 00000000 		.4byte	.LFB11
 2680 002c 22000000 		.4byte	.LFE11-.LFB11
 2681 0030 00000000 		.4byte	.LFB10
 2682 0034 18000000 		.4byte	.LFE10-.LFB10
 2683 0038 00000000 		.4byte	.LFB13
 2684 003c 48000000 		.4byte	.LFE13-.LFB13
 2685 0040 00000000 		.4byte	.LFB12
 2686 0044 14000000 		.4byte	.LFE12-.LFB12
 2687 0048 00000000 		.4byte	.LFB15
 2688 004c 50000000 		.4byte	.LFE15-.LFB15
 2689 0050 00000000 		.4byte	.LFB14
 2690 0054 14000000 		.4byte	.LFE14-.LFB14
 2691 0058 00000000 		.4byte	0
 2692 005c 00000000 		.4byte	0
 2693              		.section	.debug_ranges,"",%progbits
 2694              	.Ldebug_ranges0:
 2695 0000 10000000 		.4byte	.LBB15
 2696 0004 12000000 		.4byte	.LBE15
 2697 0008 14000000 		.4byte	.LBB18
 2698 000c 18000000 		.4byte	.LBE18
 2699 0010 00000000 		.4byte	0
 2700 0014 00000000 		.4byte	0
 2701 0018 10000000 		.4byte	.LBB16
 2702 001c 12000000 		.4byte	.LBE16
 2703 0020 14000000 		.4byte	.LBB17
 2704 0024 18000000 		.4byte	.LBE17
 2705 0028 00000000 		.4byte	0
 2706 002c 00000000 		.4byte	0
 2707 0030 16000000 		.4byte	.LBB26
 2708 0034 2E000000 		.4byte	.LBE26
 2709 0038 40000000 		.4byte	.LBB29
 2710 003c 48000000 		.4byte	.LBE29
 2711 0040 00000000 		.4byte	0
 2712 0044 00000000 		.4byte	0
 2713 0048 16000000 		.4byte	.LBB27
 2714 004c 2E000000 		.4byte	.LBE27
 2715 0050 40000000 		.4byte	.LBB28
 2716 0054 48000000 		.4byte	.LBE28
 2717 0058 00000000 		.4byte	0
 2718 005c 00000000 		.4byte	0
 2719 0060 18000000 		.4byte	.LBB32
 2720 0064 30000000 		.4byte	.LBE32
 2721 0068 48000000 		.4byte	.LBB35
 2722 006c 50000000 		.4byte	.LBE35
ARM GAS  /var/folders/5n/p_75w94d66l9ssrldxqdhh700000gn/T//ccBceGy8.s 			page 49


 2723 0070 00000000 		.4byte	0
 2724 0074 00000000 		.4byte	0
 2725 0078 18000000 		.4byte	.LBB33
 2726 007c 30000000 		.4byte	.LBE33
 2727 0080 48000000 		.4byte	.LBB34
 2728 0084 50000000 		.4byte	.LBE34
 2729 0088 00000000 		.4byte	0
 2730 008c 00000000 		.4byte	0
 2731 0090 00000000 		.4byte	.LFB7
 2732 0094 06000000 		.4byte	.LFE7
 2733 0098 00000000 		.4byte	.LFB8
 2734 009c 24000000 		.4byte	.LFE8
 2735 00a0 00000000 		.4byte	.LFB9
 2736 00a4 1A000000 		.4byte	.LFE9
 2737 00a8 00000000 		.4byte	.LFB11
 2738 00ac 22000000 		.4byte	.LFE11
 2739 00b0 00000000 		.4byte	.LFB10
 2740 00b4 18000000 		.4byte	.LFE10
 2741 00b8 00000000 		.4byte	.LFB13
 2742 00bc 48000000 		.4byte	.LFE13
 2743 00c0 00000000 		.4byte	.LFB12
 2744 00c4 14000000 		.4byte	.LFE12
 2745 00c8 00000000 		.4byte	.LFB15
 2746 00cc 50000000 		.4byte	.LFE15
 2747 00d0 00000000 		.4byte	.LFB14
 2748 00d4 14000000 		.4byte	.LFE14
 2749 00d8 00000000 		.4byte	0
 2750 00dc 00000000 		.4byte	0
 2751              		.section	.debug_line,"",%progbits
 2752              	.Ldebug_line0:
 2753 0000 51020000 		.section	.debug_str,"MS",%progbits,1
 2753      02002B01 
 2753      00000201 
 2753      FB0E0D00 
 2753      01010101 
 2754              	.LASF35:
 2755 0000 705F6D73 		.ascii	"p_msg\000"
 2755      6700
 2756              	.LASF63:
 2757 0006 6368436F 		.ascii	"chCondInit\000"
 2757      6E64496E 
 2757      697400
 2758              	.LASF58:
 2759 0011 7264796D 		.ascii	"rdymsg\000"
 2759      736700
 2760              	.LASF72:
 2761 0018 6368436F 		.ascii	"chCondWaitTimeout\000"
 2761      6E645761 
 2761      69745469 
 2761      6D656F75 
 2761      7400
 2762              	.LASF11:
 2763 002a 6C6F6E67 		.ascii	"long long unsigned int\000"
 2763      206C6F6E 
 2763      6720756E 
 2763      7369676E 
 2763      65642069 
ARM GAS  /var/folders/5n/p_75w94d66l9ssrldxqdhh700000gn/T//ccBceGy8.s 			page 50


 2764              	.LASF59:
 2765 0041 65786974 		.ascii	"exitcode\000"
 2765      636F6465 
 2765      00
 2766              	.LASF66:
 2767 004a 6368436F 		.ascii	"chCondBroadcastI\000"
 2767      6E644272 
 2767      6F616463 
 2767      61737449 
 2767      00
 2768              	.LASF23:
 2769 005b 705F7072 		.ascii	"p_prio\000"
 2769      696F00
 2770              	.LASF10:
 2771 0062 6C6F6E67 		.ascii	"long long int\000"
 2771      206C6F6E 
 2771      6720696E 
 2771      7400
 2772              	.LASF1:
 2773 0070 7369676E 		.ascii	"signed char\000"
 2773      65642063 
 2773      68617200 
 2774              	.LASF39:
 2775 007c 705F6D70 		.ascii	"p_mpool\000"
 2775      6F6F6C00 
 2776              	.LASF53:
 2777 0084 6D5F7175 		.ascii	"m_queue\000"
 2777      65756500 
 2778              	.LASF15:
 2779 008c 74736C69 		.ascii	"tslices_t\000"
 2779      6365735F 
 2779      7400
 2780              	.LASF56:
 2781 0096 436F6E64 		.ascii	"CondVar\000"
 2781      56617200 
 2782              	.LASF7:
 2783 009e 6C6F6E67 		.ascii	"long int\000"
 2783      20696E74 
 2783      00
 2784              	.LASF13:
 2785 00a7 74737461 		.ascii	"tstate_t\000"
 2785      74655F74 
 2785      00
 2786              	.LASF25:
 2787 00b0 705F6E65 		.ascii	"p_newer\000"
 2787      77657200 
 2788              	.LASF48:
 2789 00b8 725F6E65 		.ascii	"r_newer\000"
 2789      77657200 
 2790              	.LASF42:
 2791 00c0 72656761 		.ascii	"regarm_t\000"
 2791      726D5F74 
 2791      00
 2792              	.LASF75:
 2793 00c9 2E2E2F2E 		.ascii	"../../os/kernel/src/chcond.c\000"
 2793      2E2F6F73 
 2793      2F6B6572 
ARM GAS  /var/folders/5n/p_75w94d66l9ssrldxqdhh700000gn/T//ccBceGy8.s 			page 51


 2793      6E656C2F 
 2793      7372632F 
 2794              	.LASF64:
 2795 00e6 6368436F 		.ascii	"chCondSignal\000"
 2795      6E645369 
 2795      676E616C 
 2795      00
 2796              	.LASF0:
 2797 00f3 756E7369 		.ascii	"unsigned int\000"
 2797      676E6564 
 2797      20696E74 
 2797      00
 2798              	.LASF9:
 2799 0100 6C6F6E67 		.ascii	"long unsigned int\000"
 2799      20756E73 
 2799      69676E65 
 2799      6420696E 
 2799      7400
 2800              	.LASF44:
 2801 0112 636F6E74 		.ascii	"context\000"
 2801      65787400 
 2802              	.LASF4:
 2803 011a 73686F72 		.ascii	"short unsigned int\000"
 2803      7420756E 
 2803      7369676E 
 2803      65642069 
 2803      6E7400
 2804              	.LASF17:
 2805 012d 6D73675F 		.ascii	"msg_t\000"
 2805      7400
 2806              	.LASF78:
 2807 0133 7072696F 		.ascii	"prio_insert\000"
 2807      5F696E73 
 2807      65727400 
 2808              	.LASF12:
 2809 013f 746D6F64 		.ascii	"tmode_t\000"
 2809      655F7400 
 2810              	.LASF41:
 2811 0147 54687265 		.ascii	"ThreadsList\000"
 2811      6164734C 
 2811      69737400 
 2812              	.LASF18:
 2813 0153 6576656E 		.ascii	"eventmask_t\000"
 2813      746D6173 
 2813      6B5F7400 
 2814              	.LASF52:
 2815 015f 4D757465 		.ascii	"Mutex\000"
 2815      7800
 2816              	.LASF70:
 2817 0165 6368436F 		.ascii	"chCondWaitTimeoutS\000"
 2817      6E645761 
 2817      69745469 
 2817      6D656F75 
 2817      745300
 2818              	.LASF26:
 2819 0178 705F6F6C 		.ascii	"p_older\000"
 2819      64657200 
ARM GAS  /var/folders/5n/p_75w94d66l9ssrldxqdhh700000gn/T//ccBceGy8.s 			page 52


 2820              	.LASF47:
 2821 0180 725F6374 		.ascii	"r_ctx\000"
 2821      7800
 2822              	.LASF40:
 2823 0186 54687265 		.ascii	"ThreadsQueue\000"
 2823      61647351 
 2823      75657565 
 2823      00
 2824              	.LASF71:
 2825 0193 74696D65 		.ascii	"time\000"
 2825      00
 2826              	.LASF50:
 2827 0198 725F6375 		.ascii	"r_current\000"
 2827      7272656E 
 2827      7400
 2828              	.LASF49:
 2829 01a2 725F6F6C 		.ascii	"r_older\000"
 2829      64657200 
 2830              	.LASF67:
 2831 01aa 6368436F 		.ascii	"chCondBroadcast\000"
 2831      6E644272 
 2831      6F616463 
 2831      61737400 
 2832              	.LASF14:
 2833 01ba 74726566 		.ascii	"trefs_t\000"
 2833      735F7400 
 2834              	.LASF22:
 2835 01c2 705F7072 		.ascii	"p_prev\000"
 2835      657600
 2836              	.LASF16:
 2837 01c9 74707269 		.ascii	"tprio_t\000"
 2837      6F5F7400 
 2838              	.LASF65:
 2839 01d1 6368436F 		.ascii	"chCondSignalI\000"
 2839      6E645369 
 2839      676E616C 
 2839      4900
 2840              	.LASF6:
 2841 01df 696E7433 		.ascii	"int32_t\000"
 2841      325F7400 
 2842              	.LASF2:
 2843 01e7 756E7369 		.ascii	"unsigned char\000"
 2843      676E6564 
 2843      20636861 
 2843      7200
 2844              	.LASF37:
 2845 01f5 705F6D74 		.ascii	"p_mtxlist\000"
 2845      786C6973 
 2845      7400
 2846              	.LASF3:
 2847 01ff 73686F72 		.ascii	"short int\000"
 2847      7420696E 
 2847      7400
 2848              	.LASF28:
 2849 0209 705F7374 		.ascii	"p_state\000"
 2849      61746500 
 2850              	.LASF31:
ARM GAS  /var/folders/5n/p_75w94d66l9ssrldxqdhh700000gn/T//ccBceGy8.s 			page 53


 2851 0211 705F7072 		.ascii	"p_preempt\000"
 2851      65656D70 
 2851      7400
 2852              	.LASF46:
 2853 021b 725F7072 		.ascii	"r_prio\000"
 2853      696F00
 2854              	.LASF61:
 2855 0222 65776D61 		.ascii	"ewmask\000"
 2855      736B00
 2856              	.LASF21:
 2857 0229 705F6E65 		.ascii	"p_next\000"
 2857      787400
 2858              	.LASF29:
 2859 0230 705F666C 		.ascii	"p_flags\000"
 2859      61677300 
 2860              	.LASF20:
 2861 0238 54687265 		.ascii	"Thread\000"
 2861      616400
 2862              	.LASF57:
 2863 023f 635F7175 		.ascii	"c_queue\000"
 2863      65756500 
 2864              	.LASF36:
 2865 0247 705F6570 		.ascii	"p_epending\000"
 2865      656E6469 
 2865      6E6700
 2866              	.LASF8:
 2867 0252 75696E74 		.ascii	"uint32_t\000"
 2867      33325F74 
 2867      00
 2868              	.LASF45:
 2869 025b 725F7175 		.ascii	"r_queue\000"
 2869      65756500 
 2870              	.LASF62:
 2871 0263 63686172 		.ascii	"char\000"
 2871      00
 2872              	.LASF77:
 2873 0268 6669666F 		.ascii	"fifo_remove\000"
 2873      5F72656D 
 2873      6F766500 
 2874              	.LASF68:
 2875 0274 6368436F 		.ascii	"chCondWaitS\000"
 2875      6E645761 
 2875      69745300 
 2876              	.LASF55:
 2877 0280 6D5F6E65 		.ascii	"m_next\000"
 2877      787400
 2878              	.LASF19:
 2879 0287 73797374 		.ascii	"systime_t\000"
 2879      696D655F 
 2879      7400
 2880              	.LASF38:
 2881 0291 705F7265 		.ascii	"p_realprio\000"
 2881      616C7072 
 2881      696F00
 2882              	.LASF69:
 2883 029c 6368436F 		.ascii	"chCondWait\000"
 2883      6E645761 
ARM GAS  /var/folders/5n/p_75w94d66l9ssrldxqdhh700000gn/T//ccBceGy8.s 			page 54


 2883      697400
 2884              	.LASF32:
 2885 02a7 705F7469 		.ascii	"p_time\000"
 2885      6D6500
 2886              	.LASF74:
 2887 02ae 474E5520 		.ascii	"GNU C 4.6.2 20111004 (prerelease)\000"
 2887      4320342E 
 2887      362E3220 
 2887      32303131 
 2887      31303034 
 2888              	.LASF43:
 2889 02d0 696E7463 		.ascii	"intctx\000"
 2889      747800
 2890              	.LASF34:
 2891 02d7 705F6D73 		.ascii	"p_msgqueue\000"
 2891      67717565 
 2891      756500
 2892              	.LASF30:
 2893 02e2 705F7265 		.ascii	"p_refs\000"
 2893      667300
 2894              	.LASF51:
 2895 02e9 52656164 		.ascii	"ReadyList\000"
 2895      794C6973 
 2895      7400
 2896              	.LASF73:
 2897 02f3 726C6973 		.ascii	"rlist\000"
 2897      7400
 2898              	.LASF5:
 2899 02f9 75696E74 		.ascii	"uint8_t\000"
 2899      385F7400 
 2900              	.LASF60:
 2901 0301 77746F62 		.ascii	"wtobjp\000"
 2901      6A7000
 2902              	.LASF27:
 2903 0308 705F6E61 		.ascii	"p_name\000"
 2903      6D6500
 2904              	.LASF76:
 2905 030f 2F557365 		.ascii	"/Users/sin/Documents/Eclipse/Workspace/mabl-ChibiOS"
 2905      72732F73 
 2905      696E2F44 
 2905      6F63756D 
 2905      656E7473 
 2906 0342 2D322E35 		.ascii	"-2.5.1/demos/ARMCM4-STM32F407-LWIP\000"
 2906      2E312F64 
 2906      656D6F73 
 2906      2F41524D 
 2906      434D342D 
 2907              	.LASF54:
 2908 0365 6D5F6F77 		.ascii	"m_owner\000"
 2908      6E657200 
 2909              	.LASF24:
 2910 036d 705F6374 		.ascii	"p_ctx\000"
 2910      7800
 2911              	.LASF33:
 2912 0373 705F7761 		.ascii	"p_waiting\000"
 2912      6974696E 
 2912      6700
ARM GAS  /var/folders/5n/p_75w94d66l9ssrldxqdhh700000gn/T//ccBceGy8.s 			page 55


 2913              		.ident	"GCC: (Linaro GCC 4.6-2011.10) 4.6.2 20111004 (prerelease)"
ARM GAS  /var/folders/5n/p_75w94d66l9ssrldxqdhh700000gn/T//ccBceGy8.s 			page 56


DEFINED SYMBOLS
                            *ABS*:0000000000000000 chcond.c
/var/folders/5n/p_75w94d66l9ssrldxqdhh700000gn/T//ccBceGy8.s:18     .text.chCondInit:0000000000000000 $t
/var/folders/5n/p_75w94d66l9ssrldxqdhh700000gn/T//ccBceGy8.s:24     .text.chCondInit:0000000000000000 chCondInit
/var/folders/5n/p_75w94d66l9ssrldxqdhh700000gn/T//ccBceGy8.s:42     .text.chCondSignal:0000000000000000 $t
/var/folders/5n/p_75w94d66l9ssrldxqdhh700000gn/T//ccBceGy8.s:48     .text.chCondSignal:0000000000000000 chCondSignal
/var/folders/5n/p_75w94d66l9ssrldxqdhh700000gn/T//ccBceGy8.s:115    .text.chCondSignalI:0000000000000000 $t
/var/folders/5n/p_75w94d66l9ssrldxqdhh700000gn/T//ccBceGy8.s:121    .text.chCondSignalI:0000000000000000 chCondSignalI
/var/folders/5n/p_75w94d66l9ssrldxqdhh700000gn/T//ccBceGy8.s:160    .text.chCondBroadcastI:0000000000000000 $t
/var/folders/5n/p_75w94d66l9ssrldxqdhh700000gn/T//ccBceGy8.s:166    .text.chCondBroadcastI:0000000000000000 chCondBroadcastI
/var/folders/5n/p_75w94d66l9ssrldxqdhh700000gn/T//ccBceGy8.s:214    .text.chCondBroadcast:0000000000000000 $t
/var/folders/5n/p_75w94d66l9ssrldxqdhh700000gn/T//ccBceGy8.s:220    .text.chCondBroadcast:0000000000000000 chCondBroadcast
/var/folders/5n/p_75w94d66l9ssrldxqdhh700000gn/T//ccBceGy8.s:263    .text.chCondWaitS:0000000000000000 $t
/var/folders/5n/p_75w94d66l9ssrldxqdhh700000gn/T//ccBceGy8.s:269    .text.chCondWaitS:0000000000000000 chCondWaitS
/var/folders/5n/p_75w94d66l9ssrldxqdhh700000gn/T//ccBceGy8.s:356    .text.chCondWaitS:0000000000000044 $d
/var/folders/5n/p_75w94d66l9ssrldxqdhh700000gn/T//ccBceGy8.s:363    .text.chCondWait:0000000000000000 $t
/var/folders/5n/p_75w94d66l9ssrldxqdhh700000gn/T//ccBceGy8.s:369    .text.chCondWait:0000000000000000 chCondWait
/var/folders/5n/p_75w94d66l9ssrldxqdhh700000gn/T//ccBceGy8.s:410    .text.chCondWaitTimeoutS:0000000000000000 $t
/var/folders/5n/p_75w94d66l9ssrldxqdhh700000gn/T//ccBceGy8.s:416    .text.chCondWaitTimeoutS:0000000000000000 chCondWaitTimeoutS
/var/folders/5n/p_75w94d66l9ssrldxqdhh700000gn/T//ccBceGy8.s:514    .text.chCondWaitTimeoutS:000000000000004c $d
/var/folders/5n/p_75w94d66l9ssrldxqdhh700000gn/T//ccBceGy8.s:521    .text.chCondWaitTimeout:0000000000000000 $t
/var/folders/5n/p_75w94d66l9ssrldxqdhh700000gn/T//ccBceGy8.s:527    .text.chCondWaitTimeout:0000000000000000 chCondWaitTimeout
                     .debug_frame:0000000000000010 $d
/var/folders/5n/p_75w94d66l9ssrldxqdhh700000gn/T//ccBceGy8.s:362    .text.chCondWaitS:0000000000000048 $t

UNDEFINED SYMBOLS
chSchWakeupS
chSchReadyI
chSchRescheduleS
chMtxUnlockS
chSchGoSleepS
chMtxLockS
rlist
chSchGoSleepTimeoutS
