ARM GAS  /var/folders/5n/p_75w94d66l9ssrldxqdhh700000gn/T//ccXifdbM.s 			page 1


   1              		.syntax unified
   2              		.cpu cortex-m4
   3              		.fpu softvfp
   4              		.eabi_attribute 20, 1
   5              		.eabi_attribute 21, 1
   6              		.eabi_attribute 23, 3
   7              		.eabi_attribute 24, 1
   8              		.eabi_attribute 25, 1
   9              		.eabi_attribute 26, 1
  10              		.eabi_attribute 30, 2
  11              		.eabi_attribute 18, 4
  12              		.thumb
  13              		.file	"chheap.c"
  14              		.text
  15              	.Ltext0:
  16              		.cfi_sections	.debug_frame
  17              		.section	.text._heap_init,"ax",%progbits
  18              		.align	2
  19              		.p2align 4,,15
  20              		.global	_heap_init
  21              		.thumb
  22              		.thumb_func
  23              		.type	_heap_init, %function
  24              	_heap_init:
  25              	.LFB7:
  26              		.file 1 "../../os/kernel/src/chheap.c"
  27              		.loc 1 68 0
  28              		.cfi_startproc
  29              		@ args = 0, pretend = 0, frame = 0
  30              		@ frame_needed = 0, uses_anonymous_args = 0
  31              		@ link register save eliminated.
  32              		.loc 1 69 0
  33 0000 40F20003 		movw	r3, #:lower16:.LANCHOR0
  34 0004 C0F20003 		movt	r3, #:upper16:.LANCHOR0
  35 0008 40F20001 		movw	r1, #:lower16:chCoreAlloc
  36              		.loc 1 70 0
  37 000c 0022     		movs	r2, #0
  38              		.loc 1 69 0
  39 000e C0F20001 		movt	r1, #:upper16:chCoreAlloc
  40              		.loc 1 73 0
  41 0012 03F11000 		add	r0, r3, #16
  42              		.loc 1 69 0
  43 0016 1960     		str	r1, [r3, #0]
  44              		.loc 1 70 0
  45 0018 9A60     		str	r2, [r3, #8]
  46              		.loc 1 71 0
  47 001a DA60     		str	r2, [r3, #12]
  48              		.loc 1 77 0
  49              		.loc 1 73 0
  50 001c FFF7FEBF 		b	chMtxInit
  51              		.cfi_endproc
  52              	.LFE7:
  53              		.size	_heap_init, .-_heap_init
  54              		.section	.text.chHeapInit,"ax",%progbits
  55              		.align	2
  56              		.p2align 4,,15
  57              		.global	chHeapInit
ARM GAS  /var/folders/5n/p_75w94d66l9ssrldxqdhh700000gn/T//ccXifdbM.s 			page 2


  58              		.thumb
  59              		.thumb_func
  60              		.type	chHeapInit, %function
  61              	chHeapInit:
  62              	.LFB8:
  63              		.loc 1 92 0
  64              		.cfi_startproc
  65              		@ args = 0, pretend = 0, frame = 0
  66              		@ frame_needed = 0, uses_anonymous_args = 0
  67              		@ link register save eliminated.
  68              	.LVL0:
  69              		.loc 1 97 0
  70 0000 0023     		movs	r3, #0
  71 0002 0360     		str	r3, [r0, #0]
  72              	.LVL1:
  73              		.loc 1 98 0
  74 0004 8160     		str	r1, [r0, #8]
  75              		.loc 1 99 0
  76 0006 C360     		str	r3, [r0, #12]
  77              		.loc 1 101 0
  78 0008 083A     		subs	r2, r2, #8
  79              	.LVL2:
  80              		.loc 1 103 0
  81 000a 1030     		adds	r0, r0, #16
  82              	.LVL3:
  83              		.loc 1 100 0
  84 000c 0B60     		str	r3, [r1, #0]
  85              		.loc 1 101 0
  86 000e 4A60     		str	r2, [r1, #4]
  87              		.loc 1 107 0
  88              		.loc 1 103 0
  89 0010 FFF7FEBF 		b	chMtxInit
  90              	.LVL4:
  91              	.LVL5:
  92              	.LVL6:
  93              	.LVL7:
  94              		.cfi_endproc
  95              	.LFE8:
  96              		.size	chHeapInit, .-chHeapInit
  97 0014 AFF30080 		.section	.text.chHeapAlloc,"ax",%progbits
  97      AFF30080 
  97      AFF30080 
  98              		.align	2
  99              		.p2align 4,,15
 100              		.global	chHeapAlloc
 101              		.thumb
 102              		.thumb_func
 103              		.type	chHeapAlloc, %function
 104              	chHeapAlloc:
 105              	.LFB9:
 106              		.loc 1 125 0
 107              		.cfi_startproc
 108              		@ args = 0, pretend = 0, frame = 0
 109              		@ frame_needed = 0, uses_anonymous_args = 0
 110              	.LVL8:
 111 0000 F8B5     		push	{r3, r4, r5, r6, r7, lr}
 112              	.LCFI0:
ARM GAS  /var/folders/5n/p_75w94d66l9ssrldxqdhh700000gn/T//ccXifdbM.s 			page 3


 113              		.cfi_def_cfa_offset 24
 114              		.cfi_offset 14, -4
 115              		.cfi_offset 7, -8
 116              		.cfi_offset 6, -12
 117              		.cfi_offset 5, -16
 118              		.cfi_offset 4, -20
 119              		.cfi_offset 3, -24
 120              		.loc 1 129 0
 121 0002 204C     		ldr	r4, .L16
 122 0004 0028     		cmp	r0, #0
 123 0006 18BF     		it	ne
 124 0008 0446     		movne	r4, r0
 125              	.LVL9:
 126              		.loc 1 131 0
 127 000a 0731     		adds	r1, r1, #7
 128              	.LVL10:
 129              		.loc 1 133 0
 130 000c 04F11000 		add	r0, r4, #16
 131              		.loc 1 131 0
 132 0010 21F00706 		bic	r6, r1, #7
 133              	.LVL11:
 134              		.loc 1 132 0
 135 0014 04F10805 		add	r5, r4, #8
 136              	.LVL12:
 137              		.loc 1 133 0
 138 0018 FFF7FEFF 		bl	chMtxLock
 139              		.loc 1 135 0
 140 001c 00E0     		b	.L5
 141              	.LVL13:
 142              	.L11:
 143              		.loc 1 137 0
 144 001e 1D46     		mov	r5, r3
 145              	.LVL14:
 146              	.L5:
 147              		.loc 1 135 0 discriminator 1
 148 0020 2B68     		ldr	r3, [r5, #0]
 149 0022 F3B1     		cbz	r3, .L14
 150              	.LVL15:
 151              		.loc 1 137 0
 152 0024 5A68     		ldr	r2, [r3, #4]
 153 0026 9642     		cmp	r6, r2
 154 0028 F9D8     		bhi	.L11
 155              		.loc 1 138 0
 156 002a 06F10801 		add	r1, r6, #8
 157 002e 8A42     		cmp	r2, r1
 158 0030 14D3     		bcc	.L15
 159              		.loc 1 148 0
 160 0032 4FF6F870 		movw	r0, #65528
 161 0036 CFF6FF70 		movt	r0, 65535
 162              		.loc 1 146 0
 163 003a 5F18     		adds	r7, r3, r1
 164              	.LVL16:
 165              		.loc 1 147 0
 166 003c D3F800E0 		ldr	lr, [r3, #0]
 167              		.loc 1 148 0
 168 0040 801B     		subs	r0, r0, r6
 169 0042 8218     		adds	r2, r0, r2
ARM GAS  /var/folders/5n/p_75w94d66l9ssrldxqdhh700000gn/T//ccXifdbM.s 			page 4


 170              		.loc 1 147 0
 171 0044 43F801E0 		str	lr, [r3, r1]
 172              		.loc 1 148 0
 173 0048 7A60     		str	r2, [r7, #4]
 174              		.loc 1 149 0
 175 004a 2F60     		str	r7, [r5, #0]
 176              		.loc 1 150 0
 177 004c 5E60     		str	r6, [r3, #4]
 178              	.LVL17:
 179              	.L7:
 180              		.loc 1 152 0
 181 004e 1D46     		mov	r5, r3
 182              	.LVL18:
 183 0050 45F8084B 		str	r4, [r5], #8
 184              		.loc 1 154 0
 185 0054 FFF7FEFF 		bl	chMtxUnlock
 186              	.LVL19:
 187              	.L8:
 188              		.loc 1 174 0
 189 0058 2846     		mov	r0, r5
 190 005a F8BD     		pop	{r3, r4, r5, r6, r7, pc}
 191              	.LVL20:
 192              	.L15:
 193              		.loc 1 142 0
 194 005c 1A68     		ldr	r2, [r3, #0]
 195 005e 2A60     		str	r2, [r5, #0]
 196 0060 F5E7     		b	.L7
 197              	.LVL21:
 198              	.L14:
 199              		.loc 1 160 0
 200 0062 FFF7FEFF 		bl	chMtxUnlock
 201              		.loc 1 164 0
 202 0066 2568     		ldr	r5, [r4, #0]
 203              	.LVL22:
 204 0068 002D     		cmp	r5, #0
 205 006a F5D0     		beq	.L8
 206              		.loc 1 165 0
 207 006c 06F10800 		add	r0, r6, #8
 208 0070 A847     		blx	r5
 209              	.LVL23:
 210              		.loc 1 166 0
 211 0072 0546     		mov	r5, r0
 212 0074 0028     		cmp	r0, #0
 213 0076 EFD0     		beq	.L8
 214              		.loc 1 170 0
 215 0078 0835     		adds	r5, r5, #8
 216              		.loc 1 168 0
 217 007a 80E85000 		stmia	r0, {r4, r6}
 218              	.LVL24:
 219              		.loc 1 174 0
 220 007e 2846     		mov	r0, r5
 221 0080 F8BD     		pop	{r3, r4, r5, r6, r7, pc}
 222              	.L17:
 223 0082 00BF     		.align	2
 224              	.L16:
 225 0084 00000000 		.word	.LANCHOR0
 226              		.cfi_endproc
ARM GAS  /var/folders/5n/p_75w94d66l9ssrldxqdhh700000gn/T//ccXifdbM.s 			page 5


 227              	.LFE9:
 228              		.size	chHeapAlloc, .-chHeapAlloc
 229 0088 AFF30080 		.section	.text.chHeapFree,"ax",%progbits
 229      AFF30080 
 230              		.align	2
 231              		.p2align 4,,15
 232              		.global	chHeapFree
 233              		.thumb
 234              		.thumb_func
 235              		.type	chHeapFree, %function
 236              	chHeapFree:
 237              	.LFB10:
 238              		.loc 1 187 0
 239              		.cfi_startproc
 240              		@ args = 0, pretend = 0, frame = 0
 241              		@ frame_needed = 0, uses_anonymous_args = 0
 242              	.LVL25:
 243 0000 70B5     		push	{r4, r5, r6, lr}
 244              	.LCFI1:
 245              		.cfi_def_cfa_offset 16
 246              		.cfi_offset 14, -4
 247              		.cfi_offset 6, -8
 248              		.cfi_offset 5, -12
 249              		.cfi_offset 4, -16
 250              		.loc 1 187 0
 251 0002 0646     		mov	r6, r0
 252              		.loc 1 193 0
 253 0004 A0F10804 		sub	r4, r0, #8
 254              	.LVL26:
 255              		.loc 1 194 0
 256 0008 50F8080C 		ldr	r0, [r0, #-8]
 257              	.LVL27:
 258              		.loc 1 195 0
 259 000c 00F10805 		add	r5, r0, #8
 260              	.LVL28:
 261              		.loc 1 196 0
 262 0010 1030     		adds	r0, r0, #16
 263 0012 FFF7FEFF 		bl	chMtxLock
 264              	.LVL29:
 265              		.loc 1 195 0
 266 0016 2B46     		mov	r3, r5
 267              	.LVL30:
 268              	.L26:
 269              		.loc 1 203 0
 270 0018 591B     		subs	r1, r3, r5
 271 001a 4A42     		rsbs	r2, r1, #0
 272 001c 42EB0102 		adc	r2, r2, r1
 273 0020 9C42     		cmp	r4, r3
 274 0022 88BF     		it	hi
 275 0024 42F00102 		orrhi	r2, r2, #1
 276 0028 2AB1     		cbz	r2, .L19
 277              		.loc 1 204 0 discriminator 1
 278 002a 1A68     		ldr	r2, [r3, #0]
 279              		.loc 1 203 0 discriminator 1
 280 002c 2AB1     		cbz	r2, .L20
 281              		.loc 1 204 0
 282 002e 9442     		cmp	r4, r2
ARM GAS  /var/folders/5n/p_75w94d66l9ssrldxqdhh700000gn/T//ccXifdbM.s 			page 6


 283 0030 03D3     		bcc	.L20
 284 0032 1346     		mov	r3, r2
 285              	.LVL31:
 286              		.loc 1 222 0
 287 0034 F0E7     		b	.L26
 288              	.LVL32:
 289              	.L19:
 290              		.loc 1 217 0
 291 0036 1B68     		ldr	r3, [r3, #0]
 292              	.LVL33:
 293 0038 EEE7     		b	.L26
 294              	.LVL34:
 295              	.L20:
 296              		.loc 1 209 0
 297 003a 56F8041C 		ldr	r1, [r6, #-4]
 298              		.loc 1 206 0
 299 003e 46F8082C 		str	r2, [r6, #-8]
 300              		.loc 1 207 0
 301 0042 1C60     		str	r4, [r3, #0]
 302              		.loc 1 209 0
 303 0044 01F10802 		add	r2, r1, #8
 304 0048 56F8085C 		ldr	r5, [r6, #-8]
 305              	.LVL35:
 306 004c A018     		adds	r0, r4, r2
 307 004e A842     		cmp	r0, r5
 308 0050 09D0     		beq	.L27
 309              		.loc 1 214 0
 310 0052 5A68     		ldr	r2, [r3, #4]
 311 0054 02F10801 		add	r1, r2, #8
 312 0058 5918     		adds	r1, r3, r1
 313 005a 8C42     		cmp	r4, r1
 314 005c 11D0     		beq	.L28
 315              	.L23:
 316              		.loc 1 226 0
 317 005e BDE87040 		pop	{r4, r5, r6, lr}
 318              		.loc 1 224 0
 319 0062 FFF7FEBF 		b	chMtxUnlock
 320              	.LVL36:
 321              	.L27:
 322              		.loc 1 211 0
 323 0066 4068     		ldr	r0, [r0, #4]
 324              		.loc 1 212 0
 325 0068 A258     		ldr	r2, [r4, r2]
 326              		.loc 1 211 0
 327 006a 0918     		adds	r1, r1, r0
 328 006c 0831     		adds	r1, r1, #8
 329 006e 46F8041C 		str	r1, [r6, #-4]
 330              		.loc 1 212 0
 331 0072 46F8082C 		str	r2, [r6, #-8]
 332              		.loc 1 214 0
 333 0076 5A68     		ldr	r2, [r3, #4]
 334 0078 02F10801 		add	r1, r2, #8
 335 007c 5918     		adds	r1, r3, r1
 336 007e 8C42     		cmp	r4, r1
 337 0080 EDD1     		bne	.L23
 338              	.L28:
 339              		.loc 1 216 0
ARM GAS  /var/folders/5n/p_75w94d66l9ssrldxqdhh700000gn/T//ccXifdbM.s 			page 7


 340 0082 56F8040C 		ldr	r0, [r6, #-4]
 341              		.loc 1 217 0
 342 0086 56F8081C 		ldr	r1, [r6, #-8]
 343              		.loc 1 216 0
 344 008a 1218     		adds	r2, r2, r0
 345 008c 0832     		adds	r2, r2, #8
 346              		.loc 1 217 0
 347 008e 83E80600 		stmia	r3, {r1, r2}
 348 0092 E4E7     		b	.L23
 349              		.cfi_endproc
 350              	.LFE10:
 351              		.size	chHeapFree, .-chHeapFree
 352 0094 AFF30080 		.section	.text.chHeapStatus,"ax",%progbits
 352      AFF30080 
 352      AFF30080 
 353              		.align	2
 354              		.p2align 4,,15
 355              		.global	chHeapStatus
 356              		.thumb
 357              		.thumb_func
 358              		.type	chHeapStatus, %function
 359              	chHeapStatus:
 360              	.LFB11:
 361              		.loc 1 243 0
 362              		.cfi_startproc
 363              		@ args = 0, pretend = 0, frame = 0
 364              		@ frame_needed = 0, uses_anonymous_args = 0
 365              	.LVL37:
 366 0000 38B5     		push	{r3, r4, r5, lr}
 367              	.LCFI2:
 368              		.cfi_def_cfa_offset 16
 369              		.cfi_offset 14, -4
 370              		.cfi_offset 5, -8
 371              		.cfi_offset 4, -12
 372              		.cfi_offset 3, -16
 373              		.loc 1 248 0
 374 0002 0D4C     		ldr	r4, .L37
 375 0004 0028     		cmp	r0, #0
 376 0006 18BF     		it	ne
 377 0008 0446     		movne	r4, r0
 378              	.LVL38:
 379              		.loc 1 250 0
 380 000a 04F11000 		add	r0, r4, #16
 381              		.loc 1 243 0
 382 000e 0D46     		mov	r5, r1
 383              		.loc 1 250 0
 384 0010 FFF7FEFF 		bl	chMtxLock
 385              	.LVL39:
 386              		.loc 1 253 0
 387 0014 A368     		ldr	r3, [r4, #8]
 388              		.loc 1 252 0
 389 0016 1A46     		mov	r2, r3
 390              		.loc 1 253 0
 391 0018 1C46     		mov	r4, r3
 392              	.LVL40:
 393 001a 3BB1     		cbz	r3, .L31
 394 001c 0022     		movs	r2, #0
ARM GAS  /var/folders/5n/p_75w94d66l9ssrldxqdhh700000gn/T//ccXifdbM.s 			page 8


 395 001e 1446     		mov	r4, r2
 396              	.LVL41:
 397              	.L32:
 398              		.loc 1 254 0 discriminator 2
 399 0020 5968     		ldr	r1, [r3, #4]
 400              		.loc 1 253 0 discriminator 2
 401 0022 1B68     		ldr	r3, [r3, #0]
 402              		.loc 1 254 0 discriminator 2
 403 0024 5218     		adds	r2, r2, r1
 404              	.LVL42:
 405              		.loc 1 253 0 discriminator 2
 406 0026 0134     		adds	r4, r4, #1
 407              	.LVL43:
 408 0028 002B     		cmp	r3, #0
 409 002a F9D1     		bne	.L32
 410              	.LVL44:
 411              	.L31:
 412              		.loc 1 255 0
 413 002c 05B1     		cbz	r5, .L33
 414              		.loc 1 256 0
 415 002e 2A60     		str	r2, [r5, #0]
 416              	.L33:
 417              		.loc 1 258 0
 418 0030 FFF7FEFF 		bl	chMtxUnlock
 419              		.loc 1 260 0
 420 0034 2046     		mov	r0, r4
 421 0036 38BD     		pop	{r3, r4, r5, pc}
 422              	.L38:
 423              		.align	2
 424              	.L37:
 425 0038 00000000 		.word	.LANCHOR0
 426              		.cfi_endproc
 427              	.LFE11:
 428              		.size	chHeapStatus, .-chHeapStatus
 429 003c AFF30080 		.section	.bss.default_heap,"aw",%nobits
 430              		.align	3
 431              		.set	.LANCHOR0,. + 0
 432              		.type	default_heap, %object
 433              		.size	default_heap, 32
 434              	default_heap:
 435 0000 00000000 		.space	32
 435      00000000 
 435      00000000 
 435      00000000 
 435      00000000 
 436              		.text
 437              	.Letext0:
 438              		.file 2 "/usr/local/summon/lib/gcc/arm-none-eabi/4.6.2/include/stddef.h"
 439              		.file 3 "/usr/local/summon/lib/gcc/arm-none-eabi/4.6.2/../../../../arm-none-eabi/include/stdint.h"
 440              		.file 4 "../../os/ports/GCC/ARMCMx/chtypes.h"
 441              		.file 5 "../../os/kernel/include/chlists.h"
 442              		.file 6 "../../os/kernel/include/chthreads.h"
 443              		.file 7 "../../os/ports/GCC/ARMCMx/chcore_v7m.h"
 444              		.file 8 "../../os/kernel/include/chmtx.h"
 445              		.file 9 "../../os/kernel/include/chmemcore.h"
 446              		.file 10 "../../os/kernel/include/chheap.h"