ARM GAS  /var/folders/5n/p_75w94d66l9ssrldxqdhh700000gn/T//ccBRvTxC.s 			page 1


   1              		.syntax unified
   2              		.cpu cortex-m4
   3              		.fpu softvfp
   4              		.eabi_attribute 20, 1
   5              		.eabi_attribute 21, 1
   6              		.eabi_attribute 23, 3
   7              		.eabi_attribute 24, 1
   8              		.eabi_attribute 25, 1
   9              		.eabi_attribute 26, 1
  10              		.eabi_attribute 30, 2
  11              		.eabi_attribute 18, 4
  12              		.thumb
  13              		.file	"chmtx.c"
  14              		.text
  15              	.Ltext0:
  16              		.cfi_sections	.debug_frame
  17              		.section	.text.chMtxInit,"ax",%progbits
  18              		.align	2
  19              		.p2align 4,,15
  20              		.global	chMtxInit
  21              		.thumb
  22              		.thumb_func
  23              		.type	chMtxInit, %function
  24              	chMtxInit:
  25              	.LFB7:
  26              		.file 1 "../../os/kernel/src/chmtx.c"
  27              		.loc 1 79 0
  28              		.cfi_startproc
  29              		@ args = 0, pretend = 0, frame = 0
  30              		@ frame_needed = 0, uses_anonymous_args = 0
  31              		@ link register save eliminated.
  32              	.LVL0:
  33              		.loc 1 84 0
  34 0000 0023     		movs	r3, #0
  35              		.loc 1 83 0
  36 0002 4060     		str	r0, [r0, #4]
  37 0004 0060     		str	r0, [r0, #0]
  38              		.loc 1 84 0
  39 0006 8360     		str	r3, [r0, #8]
  40              		.loc 1 85 0
  41 0008 7047     		bx	lr
  42              		.cfi_endproc
  43              	.LFE7:
  44              		.size	chMtxInit, .-chMtxInit
  45 000a 00BFAFF3 		.section	.text.chMtxLockS,"ax",%progbits
  45      0080
  46              		.align	2
  47              		.p2align 4,,15
  48              		.global	chMtxLockS
  49              		.thumb
  50              		.thumb_func
  51              		.type	chMtxLockS, %function
  52              	chMtxLockS:
  53              	.LFB9:
  54              		.loc 1 114 0
  55              		.cfi_startproc
  56              		@ args = 0, pretend = 0, frame = 0
ARM GAS  /var/folders/5n/p_75w94d66l9ssrldxqdhh700000gn/T//ccBRvTxC.s 			page 2


  57              		@ frame_needed = 0, uses_anonymous_args = 0
  58              	.LVL1:
  59 0000 F8B5     		push	{r3, r4, r5, r6, r7, lr}
  60              	.LCFI0:
  61              		.cfi_def_cfa_offset 24
  62              		.cfi_offset 14, -4
  63              		.cfi_offset 7, -8
  64              		.cfi_offset 6, -12
  65              		.cfi_offset 5, -16
  66              		.cfi_offset 4, -20
  67              		.cfi_offset 3, -24
  68              		.loc 1 114 0
  69 0002 0546     		mov	r5, r0
  70              		.loc 1 115 0
  71 0004 2E4B     		ldr	r3, .L24
  72              		.loc 1 121 0
  73 0006 8068     		ldr	r0, [r0, #8]
  74              	.LVL2:
  75              		.loc 1 115 0
  76 0008 9C69     		ldr	r4, [r3, #24]
  77              	.LVL3:
  78              		.loc 1 121 0
  79 000a 0028     		cmp	r0, #0
  80 000c 50D0     		beq	.L3
  81              	.LVL4:
  82              	.LBB33:
  83              		.loc 1 128 0 discriminator 1
  84 000e A268     		ldr	r2, [r4, #8]
  85 0010 8368     		ldr	r3, [r0, #8]
  86              	.LVL5:
  87 0012 9A42     		cmp	r2, r3
  88 0014 06D9     		bls	.L4
  89              	.LVL6:
  90              	.L18:
  91              		.loc 1 132 0
  92 0016 037F     		ldrb	r3, [r0, #28]	@ zero_extendqisi2
  93              		.loc 1 130 0
  94 0018 8260     		str	r2, [r0, #8]
  95              		.loc 1 132 0
  96 001a 042B     		cmp	r3, #4
  97 001c 30D0     		beq	.L6
  98 001e 052B     		cmp	r3, #5
  99 0020 1BD0     		beq	.L7
 100 0022 93B1     		cbz	r3, .L5
 101              	.LVL7:
 102              	.L4:
 103              		.file 2 "../../os/kernel/include/chinline.h"
 104              		.loc 2 36 0
 105 0024 2B46     		mov	r3, r5
 106              	.LVL8:
 107              	.L14:
 108              	.LBB34:
 109              	.LBB35:
 110              		.loc 2 38 0
 111 0026 1B68     		ldr	r3, [r3, #0]
 112              	.LVL9:
 113              		.loc 2 39 0
ARM GAS  /var/folders/5n/p_75w94d66l9ssrldxqdhh700000gn/T//ccBRvTxC.s 			page 3


 114 0028 9D42     		cmp	r5, r3
 115 002a 03D0     		beq	.L13
 116 002c 9968     		ldr	r1, [r3, #8]
 117 002e A268     		ldr	r2, [r4, #8]
 118 0030 9142     		cmp	r1, r2
 119 0032 F8D2     		bcs	.L14
 120              	.L13:
 121              		.loc 2 41 0
 122 0034 5A68     		ldr	r2, [r3, #4]
 123              		.loc 2 40 0
 124 0036 2360     		str	r3, [r4, #0]
 125              	.LBE35:
 126              	.LBE34:
 127              		.loc 1 168 0
 128 0038 0420     		movs	r0, #4
 129              	.LBB37:
 130              	.LBB36:
 131              		.loc 2 41 0
 132 003a 6260     		str	r2, [r4, #4]
 133              		.loc 2 42 0
 134 003c 1460     		str	r4, [r2, #0]
 135 003e 5C60     		str	r4, [r3, #4]
 136              	.LBE36:
 137              	.LBE37:
 138              		.loc 1 167 0
 139 0040 6562     		str	r5, [r4, #36]
 140              	.LBE33:
 141              		.loc 1 180 0
 142 0042 BDE8F840 		pop	{r3, r4, r5, r6, r7, lr}
 143              	.LBB58:
 144              		.loc 1 168 0
 145 0046 FFF7FEBF 		b	chSchGoSleepS
 146              	.LVL10:
 147              	.L5:
 148              	.LBB38:
 149              	.LBB39:
 150              		.loc 2 68 0
 151 004a 90E80C00 		ldmia	r0, {r2, r3}
 152 004e 1A60     		str	r2, [r3, #0]
 153              		.loc 2 69 0
 154 0050 0268     		ldr	r2, [r0, #0]
 155 0052 5360     		str	r3, [r2, #4]
 156              	.LBE39:
 157              	.LBE38:
 158              		.loc 1 160 0
 159 0054 FFF7FEFF 		bl	chSchReadyI
 160              	.LVL11:
 161              		.loc 1 161 0
 162 0058 E4E7     		b	.L4
 163              	.LVL12:
 164              	.L7:
 165              	.LBB40:
 166              	.LBB41:
 167              		.loc 2 68 0
 168 005a 4168     		ldr	r1, [r0, #4]
 169 005c 0368     		ldr	r3, [r0, #0]
 170              	.LBE41:
ARM GAS  /var/folders/5n/p_75w94d66l9ssrldxqdhh700000gn/T//ccBRvTxC.s 			page 4


 171              	.LBE40:
 172              		.loc 1 151 0
 173 005e 466A     		ldr	r6, [r0, #36]
 174              	.LVL13:
 175              	.LBB44:
 176              	.LBB42:
 177              		.loc 2 68 0
 178 0060 0B60     		str	r3, [r1, #0]
 179              		.loc 2 69 0
 180 0062 0768     		ldr	r7, [r0, #0]
 181              	.LBE42:
 182              	.LBE44:
 183              		.loc 2 36 0
 184 0064 3346     		mov	r3, r6
 185              	.LBB45:
 186              	.LBB43:
 187              		.loc 2 69 0
 188 0066 7960     		str	r1, [r7, #4]
 189              	.LVL14:
 190              	.L12:
 191              	.LBE43:
 192              	.LBE45:
 193              	.LBB46:
 194              	.LBB47:
 195              		.loc 2 38 0
 196 0068 1B68     		ldr	r3, [r3, #0]
 197              	.LVL15:
 198              		.loc 2 39 0
 199 006a 9E42     		cmp	r6, r3
 200 006c 02D0     		beq	.L11
 201 006e 9968     		ldr	r1, [r3, #8]
 202 0070 9142     		cmp	r1, r2
 203 0072 F9D2     		bcs	.L12
 204              	.L11:
 205              		.loc 2 41 0
 206 0074 5A68     		ldr	r2, [r3, #4]
 207              		.loc 2 40 0
 208 0076 0360     		str	r3, [r0, #0]
 209              		.loc 2 41 0
 210 0078 4260     		str	r2, [r0, #4]
 211              		.loc 2 42 0
 212 007a 1060     		str	r0, [r2, #0]
 213 007c 5860     		str	r0, [r3, #4]
 214 007e D1E7     		b	.L4
 215              	.LVL16:
 216              	.L6:
 217              	.LBE47:
 218              	.LBE46:
 219              	.LBB48:
 220              	.LBB49:
 221              		.loc 2 68 0
 222 0080 4168     		ldr	r1, [r0, #4]
 223 0082 0368     		ldr	r3, [r0, #0]
 224              	.LBE49:
 225              	.LBE48:
 226              		.loc 1 135 0
 227 0084 466A     		ldr	r6, [r0, #36]
ARM GAS  /var/folders/5n/p_75w94d66l9ssrldxqdhh700000gn/T//ccBRvTxC.s 			page 5


 228              	.LVL17:
 229              	.LBB52:
 230              	.LBB50:
 231              		.loc 2 68 0
 232 0086 0B60     		str	r3, [r1, #0]
 233              		.loc 2 69 0
 234 0088 0768     		ldr	r7, [r0, #0]
 235              	.LBE50:
 236              	.LBE52:
 237              		.loc 1 135 0
 238 008a 3346     		mov	r3, r6
 239              	.LBB53:
 240              	.LBB51:
 241              		.loc 2 69 0
 242 008c 7960     		str	r1, [r7, #4]
 243              	.LVL18:
 244              	.L9:
 245              	.LBE51:
 246              	.LBE53:
 247              	.LBB54:
 248              	.LBB55:
 249              		.loc 2 38 0
 250 008e 1B68     		ldr	r3, [r3, #0]
 251              	.LVL19:
 252              		.loc 2 39 0
 253 0090 9E42     		cmp	r6, r3
 254 0092 12D0     		beq	.L15
 255 0094 9968     		ldr	r1, [r3, #8]
 256 0096 9142     		cmp	r1, r2
 257 0098 F9D2     		bcs	.L9
 258              	.LVL20:
 259              	.L8:
 260              		.loc 2 41 0
 261 009a 5A68     		ldr	r2, [r3, #4]
 262              		.loc 2 40 0
 263 009c 0360     		str	r3, [r0, #0]
 264              		.loc 2 41 0
 265 009e 4260     		str	r2, [r0, #4]
 266              		.loc 2 42 0
 267 00a0 1060     		str	r0, [r2, #0]
 268 00a2 5860     		str	r0, [r3, #4]
 269              	.LBE55:
 270              	.LBE54:
 271              		.loc 1 136 0
 272 00a4 B068     		ldr	r0, [r6, #8]
 273              	.LVL21:
 274              		.loc 1 128 0
 275 00a6 A268     		ldr	r2, [r4, #8]
 276 00a8 8368     		ldr	r3, [r0, #8]
 277              	.LVL22:
 278 00aa 9342     		cmp	r3, r2
 279 00ac B3D3     		bcc	.L18
 280 00ae B9E7     		b	.L4
 281              	.LVL23:
 282              	.L3:
 283              	.LBE58:
 284              		.loc 1 177 0
ARM GAS  /var/folders/5n/p_75w94d66l9ssrldxqdhh700000gn/T//ccBRvTxC.s 			page 6


 285 00b0 E36B     		ldr	r3, [r4, #60]
 286              		.loc 1 176 0
 287 00b2 AC60     		str	r4, [r5, #8]
 288              		.loc 1 177 0
 289 00b4 EB60     		str	r3, [r5, #12]
 290              		.loc 1 178 0
 291 00b6 E563     		str	r5, [r4, #60]
 292              		.loc 1 180 0
 293 00b8 F8BD     		pop	{r3, r4, r5, r6, r7, pc}
 294              	.LVL24:
 295              	.L15:
 296              	.LBB59:
 297              	.LBB57:
 298              	.LBB56:
 299              		.loc 2 38 0
 300 00ba 3346     		mov	r3, r6
 301              	.LVL25:
 302 00bc EDE7     		b	.L8
 303              	.L25:
 304 00be 00BF     		.align	2
 305              	.L24:
 306 00c0 00000000 		.word	rlist
 307              	.LBE56:
 308              	.LBE57:
 309              	.LBE59:
 310              		.cfi_endproc
 311              	.LFE9:
 312              		.size	chMtxLockS, .-chMtxLockS
 313 00c4 AFF30080 		.section	.text.chMtxLock,"ax",%progbits
 313      AFF30080 
 313      AFF30080 
 314              		.align	2
 315              		.p2align 4,,15
 316              		.global	chMtxLock
 317              		.thumb
 318              		.thumb_func
 319              		.type	chMtxLock, %function
 320              	chMtxLock:
 321              	.LFB8:
 322              		.loc 1 96 0
 323              		.cfi_startproc
 324              		@ args = 0, pretend = 0, frame = 0
 325              		@ frame_needed = 0, uses_anonymous_args = 0
 326              	.LVL26:
 327 0000 08B5     		push	{r3, lr}
 328              	.LCFI1:
 329              		.cfi_def_cfa_offset 8
 330              		.cfi_offset 14, -4
 331              		.cfi_offset 3, -8
 332              	.LBB60:
 333              		.loc 1 98 0
 334 0002 2023     		movs	r3, #32
 335              	.LVL27:
 336              	@ 98 "../../os/kernel/src/chmtx.c" 1
 337 0004 83F31188 		msr     BASEPRI, r3
 338              	@ 0 "" 2
 339              	.LVL28:
ARM GAS  /var/folders/5n/p_75w94d66l9ssrldxqdhh700000gn/T//ccBRvTxC.s 			page 7


 340              		.thumb
 341              	.LBE60:
 342              		.loc 1 100 0
 343 0008 FFF7FEFF 		bl	chMtxLockS
 344              	.LVL29:
 345              	.LBB61:
 346              		.loc 1 102 0
 347 000c 0023     		movs	r3, #0
 348              	.LVL30:
 349              	@ 102 "../../os/kernel/src/chmtx.c" 1
 350 000e 83F31188 		msr     BASEPRI, r3
 351              	@ 0 "" 2
 352              	.LVL31:
 353              		.thumb
 354              	.LBE61:
 355              		.loc 1 103 0
 356 0012 08BD     		pop	{r3, pc}
 357              		.cfi_endproc
 358              	.LFE8:
 359              		.size	chMtxLock, .-chMtxLock
 360 0014 AFF30080 		.section	.text.chMtxTryLock,"ax",%progbits
 360      AFF30080 
 360      AFF30080 
 361              		.align	2
 362              		.p2align 4,,15
 363              		.global	chMtxTryLock
 364              		.thumb
 365              		.thumb_func
 366              		.type	chMtxTryLock, %function
 367              	chMtxTryLock:
 368              	.LFB10:
 369              		.loc 1 199 0
 370              		.cfi_startproc
 371              		@ args = 0, pretend = 0, frame = 0
 372              		@ frame_needed = 0, uses_anonymous_args = 0
 373              		@ link register save eliminated.
 374              	.LVL32:
 375              		.loc 1 199 0
 376 0000 0246     		mov	r2, r0
 377              	.LBB62:
 378              		.loc 1 202 0
 379 0002 2023     		movs	r3, #32
 380              	.LVL33:
 381              	@ 202 "../../os/kernel/src/chmtx.c" 1
 382 0004 83F31188 		msr     BASEPRI, r3
 383              	@ 0 "" 2
 384              	.LVL34:
 385              		.thumb
 386              	.LBE62:
 387              	.LBB63:
 388              	.LBB64:
 389              		.loc 1 232 0
 390 0008 8368     		ldr	r3, [r0, #8]
 391              	.LVL35:
 392              		.loc 1 233 0
 393 000a 0020     		movs	r0, #0
 394              	.LVL36:
ARM GAS  /var/folders/5n/p_75w94d66l9ssrldxqdhh700000gn/T//ccBRvTxC.s 			page 8


 395              		.loc 1 232 0
 396 000c 1BB1     		cbz	r3, .L30
 397              	.LVL37:
 398              	.L28:
 399              	.LBE64:
 400              	.LBE63:
 401              	.LBB66:
 402              		.loc 1 206 0
 403 000e 0023     		movs	r3, #0
 404              	.LVL38:
 405              	@ 206 "../../os/kernel/src/chmtx.c" 1
 406 0010 83F31188 		msr     BASEPRI, r3
 407              	@ 0 "" 2
 408              	.LVL39:
 409              		.thumb
 410              	.LBE66:
 411              		.loc 1 208 0
 412 0014 7047     		bx	lr
 413              	.LVL40:
 414              	.L30:
 415              	.LBB67:
 416              	.LBB65:
 417              		.loc 1 234 0
 418 0016 044B     		ldr	r3, .L31
 419 0018 9B69     		ldr	r3, [r3, #24]
 420              		.loc 1 235 0
 421 001a D96B     		ldr	r1, [r3, #60]
 422              	.LVL41:
 423              		.loc 1 234 0
 424 001c 9360     		str	r3, [r2, #8]
 425              		.loc 1 235 0
 426 001e D160     		str	r1, [r2, #12]
 427              		.loc 1 237 0
 428 0020 0120     		movs	r0, #1
 429              		.loc 1 236 0
 430 0022 DA63     		str	r2, [r3, #60]
 431 0024 F3E7     		b	.L28
 432              	.L32:
 433 0026 00BF     		.align	2
 434              	.L31:
 435 0028 00000000 		.word	rlist
 436              	.LBE65:
 437              	.LBE67:
 438              		.cfi_endproc
 439              	.LFE10:
 440              		.size	chMtxTryLock, .-chMtxTryLock
 441 002c AFF30080 		.section	.text.chMtxTryLockS,"ax",%progbits
 442              		.align	2
 443              		.p2align 4,,15
 444              		.global	chMtxTryLockS
 445              		.thumb
 446              		.thumb_func
 447              		.type	chMtxTryLockS, %function
 448              	chMtxTryLockS:
 449              	.LFB11:
 450              		.loc 1 227 0
 451              		.cfi_startproc
ARM GAS  /var/folders/5n/p_75w94d66l9ssrldxqdhh700000gn/T//ccBRvTxC.s 			page 9


 452              		@ args = 0, pretend = 0, frame = 0
 453              		@ frame_needed = 0, uses_anonymous_args = 0
 454              		@ link register save eliminated.
 455              	.LVL42:
 456              		.loc 1 232 0
 457 0000 8268     		ldr	r2, [r0, #8]
 458              		.loc 1 227 0
 459 0002 0346     		mov	r3, r0
 460              		.loc 1 232 0
 461 0004 0AB1     		cbz	r2, .L36
 462              		.loc 1 233 0
 463 0006 0020     		movs	r0, #0
 464              	.LVL43:
 465              		.loc 1 238 0
 466 0008 7047     		bx	lr
 467              	.L36:
 468              		.loc 1 234 0
 469 000a 044A     		ldr	r2, .L37
 470 000c 9269     		ldr	r2, [r2, #24]
 471              		.loc 1 235 0
 472 000e D16B     		ldr	r1, [r2, #60]
 473              		.loc 1 234 0
 474 0010 8260     		str	r2, [r0, #8]
 475              		.loc 1 235 0
 476 0012 C160     		str	r1, [r0, #12]
 477              		.loc 1 237 0
 478 0014 0120     		movs	r0, #1
 479              		.loc 1 236 0
 480 0016 D363     		str	r3, [r2, #60]
 481              		.loc 1 237 0
 482 0018 7047     		bx	lr
 483              	.L38:
 484 001a 00BF     		.align	2
 485              	.L37:
 486 001c 00000000 		.word	rlist
 487              		.cfi_endproc
 488              	.LFE11:
 489              		.size	chMtxTryLockS, .-chMtxTryLockS
 490              		.section	.text.chMtxUnlock,"ax",%progbits
 491              		.align	2
 492              		.p2align 4,,15
 493              		.global	chMtxUnlock
 494              		.thumb
 495              		.thumb_func
 496              		.type	chMtxUnlock, %function
 497              	chMtxUnlock:
 498              	.LFB12:
 499              		.loc 1 250 0
 500              		.cfi_startproc
 501              		@ args = 0, pretend = 0, frame = 0
 502              		@ frame_needed = 0, uses_anonymous_args = 0
 503              		.loc 1 251 0
 504 0000 154A     		ldr	r2, .L47
 505              		.loc 1 250 0
 506 0002 F8B5     		push	{r3, r4, r5, r6, r7, lr}
 507              	.LCFI2:
 508              		.cfi_def_cfa_offset 24
ARM GAS  /var/folders/5n/p_75w94d66l9ssrldxqdhh700000gn/T//ccBRvTxC.s 			page 10


 509              		.cfi_offset 14, -4
 510              		.cfi_offset 7, -8
 511              		.cfi_offset 6, -12
 512              		.cfi_offset 5, -16
 513              		.cfi_offset 4, -20
 514              		.cfi_offset 3, -24
 515              		.loc 1 251 0
 516 0004 9269     		ldr	r2, [r2, #24]
 517              	.LVL44:
 518              	.LBB68:
 519              		.loc 1 254 0
 520 0006 2023     		movs	r3, #32
 521              	.LVL45:
 522              	@ 254 "../../os/kernel/src/chmtx.c" 1
 523 0008 83F31188 		msr     BASEPRI, r3
 524              	@ 0 "" 2
 525              	.LVL46:
 526              		.thumb
 527              	.LBE68:
 528              		.loc 1 263 0
 529 000c D46B     		ldr	r4, [r2, #60]
 530              	.LVL47:
 531              		.loc 1 266 0
 532 000e 2368     		ldr	r3, [r4, #0]
 533              	.LVL48:
 534              		.loc 1 264 0
 535 0010 E168     		ldr	r1, [r4, #12]
 536              		.loc 1 266 0
 537 0012 A342     		cmp	r3, r4
 538              		.loc 1 264 0
 539 0014 D163     		str	r1, [r2, #60]
 540              		.loc 1 266 0
 541 0016 1CD0     		beq	.L40
 542              	.LBB69:
 543              		.loc 1 271 0
 544 0018 176C     		ldr	r7, [r2, #64]
 545              	.LVL49:
 546              		.loc 1 273 0
 547 001a 49B1     		cbz	r1, .L41
 548              	.LVL50:
 549              	.L45:
 550              		.loc 1 277 0
 551 001c 0868     		ldr	r0, [r1, #0]
 552 001e 8842     		cmp	r0, r1
 553 0020 03D0     		beq	.L42
 554              		.loc 1 277 0 is_stmt 0 discriminator 1
 555 0022 8068     		ldr	r0, [r0, #8]
 556 0024 8742     		cmp	r7, r0
 557 0026 38BF     		it	cc
 558 0028 0746     		movcc	r7, r0
 559              	.LVL51:
 560              	.L42:
 561              		.loc 1 279 0 is_stmt 1
 562 002a C968     		ldr	r1, [r1, #12]
 563              	.LVL52:
 564              		.loc 1 273 0
 565 002c 0029     		cmp	r1, #0
ARM GAS  /var/folders/5n/p_75w94d66l9ssrldxqdhh700000gn/T//ccBRvTxC.s 			page 11


 566 002e F5D1     		bne	.L45
 567              	.L41:
 568              	.LBB70:
 569              	.LBB71:
 570              		.loc 2 55 0
 571 0030 1D68     		ldr	r5, [r3, #0]
 572              	.LBE71:
 573              	.LBE70:
 574              		.loc 1 288 0
 575 0032 DE6B     		ldr	r6, [r3, #60]
 576              		.loc 1 283 0
 577 0034 9760     		str	r7, [r2, #8]
 578              	.LVL53:
 579              		.loc 1 290 0
 580 0036 1846     		mov	r0, r3
 581              	.LBB74:
 582              	.LBB72:
 583              		.loc 2 55 0
 584 0038 2560     		str	r5, [r4, #0]
 585              	.LBE72:
 586              	.LBE74:
 587              		.loc 1 290 0
 588 003a 0021     		movs	r1, #0
 589              	.LVL54:
 590              	.LBB75:
 591              	.LBB73:
 592              		.loc 2 55 0
 593 003c 6C60     		str	r4, [r5, #4]
 594              	.LBE73:
 595              	.LBE75:
 596              		.loc 1 287 0
 597 003e A360     		str	r3, [r4, #8]
 598              		.loc 1 288 0
 599 0040 E660     		str	r6, [r4, #12]
 600              		.loc 1 289 0
 601 0042 DC63     		str	r4, [r3, #60]
 602              		.loc 1 290 0
 603 0044 FFF7FEFF 		bl	chSchWakeupS
 604              	.LVL55:
 605              	.L44:
 606              	.LBE69:
 607              	.LBB76:
 608              		.loc 1 294 0
 609 0048 0023     		movs	r3, #0
 610              	.LVL56:
 611              	@ 294 "../../os/kernel/src/chmtx.c" 1
 612 004a 83F31188 		msr     BASEPRI, r3
 613              	@ 0 "" 2
 614              	.LVL57:
 615              		.thumb
 616              	.LBE76:
 617              		.loc 1 296 0
 618 004e 2046     		mov	r0, r4
 619 0050 F8BD     		pop	{r3, r4, r5, r6, r7, pc}
 620              	.LVL58:
 621              	.L40:
 622              		.loc 1 293 0
ARM GAS  /var/folders/5n/p_75w94d66l9ssrldxqdhh700000gn/T//ccBRvTxC.s 			page 12


 623 0052 0023     		movs	r3, #0
 624 0054 A360     		str	r3, [r4, #8]
 625 0056 F7E7     		b	.L44
 626              	.L48:
 627              		.align	2
 628              	.L47:
 629 0058 00000000 		.word	rlist
 630              		.cfi_endproc
 631              	.LFE12:
 632              		.size	chMtxUnlock, .-chMtxUnlock
 633 005c AFF30080 		.section	.text.chMtxUnlockS,"ax",%progbits
 634              		.align	2
 635              		.p2align 4,,15
 636              		.global	chMtxUnlockS
 637              		.thumb
 638              		.thumb_func
 639              		.type	chMtxUnlockS, %function
 640              	chMtxUnlockS:
 641              	.LFB13:
 642              		.loc 1 310 0
 643              		.cfi_startproc
 644              		@ args = 0, pretend = 0, frame = 0
 645              		@ frame_needed = 0, uses_anonymous_args = 0
 646              		.loc 1 311 0
 647 0000 124B     		ldr	r3, .L57
 648 0002 9969     		ldr	r1, [r3, #24]
 649              	.LVL59:
 650              		.loc 1 310 0
 651 0004 70B5     		push	{r4, r5, r6, lr}
 652              	.LCFI3:
 653              		.cfi_def_cfa_offset 16
 654              		.cfi_offset 14, -4
 655              		.cfi_offset 6, -8
 656              		.cfi_offset 5, -12
 657              		.cfi_offset 4, -16
 658              		.loc 1 324 0
 659 0006 CC6B     		ldr	r4, [r1, #60]
 660              	.LVL60:
 661              		.loc 1 327 0
 662 0008 2368     		ldr	r3, [r4, #0]
 663              	.LVL61:
 664              		.loc 1 325 0
 665 000a E268     		ldr	r2, [r4, #12]
 666              		.loc 1 327 0
 667 000c A342     		cmp	r3, r4
 668              		.loc 1 325 0
 669 000e CA63     		str	r2, [r1, #60]
 670              		.loc 1 327 0
 671 0010 18D0     		beq	.L50
 672              	.LBB77:
 673              		.loc 1 332 0
 674 0012 0E6C     		ldr	r6, [r1, #64]
 675              	.LVL62:
 676              		.loc 1 334 0
 677 0014 4AB1     		cbz	r2, .L51
 678              	.LVL63:
 679              	.L55:
ARM GAS  /var/folders/5n/p_75w94d66l9ssrldxqdhh700000gn/T//ccBRvTxC.s 			page 13


 680              		.loc 1 338 0
 681 0016 1068     		ldr	r0, [r2, #0]
 682 0018 9042     		cmp	r0, r2
 683 001a 03D0     		beq	.L52
 684              		.loc 1 338 0 is_stmt 0 discriminator 1
 685 001c 8068     		ldr	r0, [r0, #8]
 686 001e 8642     		cmp	r6, r0
 687 0020 38BF     		it	cc
 688 0022 0646     		movcc	r6, r0
 689              	.LVL64:
 690              	.L52:
 691              		.loc 1 340 0 is_stmt 1
 692 0024 D268     		ldr	r2, [r2, #12]
 693              	.LVL65:
 694              		.loc 1 334 0
 695 0026 002A     		cmp	r2, #0
 696 0028 F5D1     		bne	.L55
 697              	.L51:
 698              	.LBB78:
 699              	.LBB79:
 700              		.loc 2 55 0
 701 002a 1A68     		ldr	r2, [r3, #0]
 702              	.LVL66:
 703              	.LBE79:
 704              	.LBE78:
 705              		.loc 1 347 0
 706 002c DD6B     		ldr	r5, [r3, #60]
 707              		.loc 1 342 0
 708 002e 8E60     		str	r6, [r1, #8]
 709              	.LVL67:
 710              		.loc 1 349 0
 711 0030 1846     		mov	r0, r3
 712              	.LBB81:
 713              	.LBB80:
 714              		.loc 2 55 0
 715 0032 2260     		str	r2, [r4, #0]
 716 0034 5460     		str	r4, [r2, #4]
 717              	.LBE80:
 718              	.LBE81:
 719              		.loc 1 346 0
 720 0036 A360     		str	r3, [r4, #8]
 721              		.loc 1 347 0
 722 0038 E560     		str	r5, [r4, #12]
 723              		.loc 1 348 0
 724 003a DC63     		str	r4, [r3, #60]
 725              		.loc 1 349 0
 726 003c FFF7FEFF 		bl	chSchReadyI
 727              	.LVL68:
 728              	.LBE77:
 729              		.loc 1 354 0
 730 0040 2046     		mov	r0, r4
 731 0042 70BD     		pop	{r4, r5, r6, pc}
 732              	.LVL69:
 733              	.L50:
 734              		.loc 1 352 0
 735 0044 0023     		movs	r3, #0
 736 0046 A360     		str	r3, [r4, #8]
ARM GAS  /var/folders/5n/p_75w94d66l9ssrldxqdhh700000gn/T//ccBRvTxC.s 			page 14


 737              		.loc 1 354 0
 738 0048 2046     		mov	r0, r4
 739 004a 70BD     		pop	{r4, r5, r6, pc}
 740              	.L58:
 741              		.align	2
 742              	.L57:
 743 004c 00000000 		.word	rlist
 744              		.cfi_endproc
 745              	.LFE13:
 746              		.size	chMtxUnlockS, .-chMtxUnlockS
 747              		.section	.text.chMtxUnlockAll,"ax",%progbits
 748              		.align	2
 749              		.p2align 4,,15
 750              		.global	chMtxUnlockAll
 751              		.thumb
 752              		.thumb_func
 753              		.type	chMtxUnlockAll, %function
 754              	chMtxUnlockAll:
 755              	.LFB14:
 756              		.loc 1 367 0
 757              		.cfi_startproc
 758              		@ args = 0, pretend = 0, frame = 0
 759              		@ frame_needed = 0, uses_anonymous_args = 0
 760              		.loc 1 368 0
 761 0000 124A     		ldr	r2, .L66
 762              		.loc 1 367 0
 763 0002 70B5     		push	{r4, r5, r6, lr}
 764              	.LCFI4:
 765              		.cfi_def_cfa_offset 16
 766              		.cfi_offset 14, -4
 767              		.cfi_offset 6, -8
 768              		.cfi_offset 5, -12
 769              		.cfi_offset 4, -16
 770              	.LBB82:
 771              		.loc 1 370 0
 772 0004 2023     		movs	r3, #32
 773              	.LVL70:
 774              	.LBE82:
 775              		.loc 1 368 0
 776 0006 9469     		ldr	r4, [r2, #24]
 777              	.LVL71:
 778              	.LBB83:
 779              		.loc 1 370 0
 780              	@ 370 "../../os/kernel/src/chmtx.c" 1
 781 0008 83F31188 		msr     BASEPRI, r3
 782              	@ 0 "" 2
 783              	.LVL72:
 784              		.thumb
 785              	.LBE83:
 786              		.loc 1 371 0
 787 000c E36B     		ldr	r3, [r4, #60]
 788              	.LVL73:
 789 000e C3B1     		cbz	r3, .L60
 790              	.LBB84:
 791              		.loc 1 383 0
 792 0010 0025     		movs	r5, #0
 793              	.LVL74:
ARM GAS  /var/folders/5n/p_75w94d66l9ssrldxqdhh700000gn/T//ccBRvTxC.s 			page 15


 794              	.L64:
 795              		.loc 1 375 0
 796 0012 1A68     		ldr	r2, [r3, #0]
 797              		.loc 1 374 0
 798 0014 D968     		ldr	r1, [r3, #12]
 799              		.loc 1 375 0
 800 0016 9A42     		cmp	r2, r3
 801              		.loc 1 374 0
 802 0018 E163     		str	r1, [r4, #60]
 803              		.loc 1 383 0
 804 001a 08BF     		it	eq
 805 001c 9D60     		streq	r5, [r3, #8]
 806              		.loc 1 375 0
 807 001e 09D0     		beq	.L62
 808              	.LVL75:
 809              	.LBB85:
 810              	.LBB86:
 811              	.LBB87:
 812              		.loc 2 55 0
 813 0020 1168     		ldr	r1, [r2, #0]
 814              	.LBE87:
 815              	.LBE86:
 816              		.loc 1 378 0
 817 0022 D66B     		ldr	r6, [r2, #60]
 818              	.LBB90:
 819              	.LBB88:
 820              		.loc 2 55 0
 821 0024 1960     		str	r1, [r3, #0]
 822              	.LBE88:
 823              	.LBE90:
 824              		.loc 1 380 0
 825 0026 1046     		mov	r0, r2
 826              	.LBB91:
 827              	.LBB89:
 828              		.loc 2 55 0
 829 0028 4B60     		str	r3, [r1, #4]
 830              	.LBE89:
 831              	.LBE91:
 832              		.loc 1 377 0
 833 002a 9A60     		str	r2, [r3, #8]
 834              		.loc 1 378 0
 835 002c DE60     		str	r6, [r3, #12]
 836              		.loc 1 379 0
 837 002e D363     		str	r3, [r2, #60]
 838              		.loc 1 380 0
 839 0030 FFF7FEFF 		bl	chSchReadyI
 840              	.LVL76:
 841              	.L62:
 842              	.LBE85:
 843              	.LBE84:
 844              		.loc 1 384 0
 845 0034 E36B     		ldr	r3, [r4, #60]
 846 0036 002B     		cmp	r3, #0
 847 0038 EBD1     		bne	.L64
 848              		.loc 1 385 0
 849 003a 236C     		ldr	r3, [r4, #64]
 850 003c A360     		str	r3, [r4, #8]
ARM GAS  /var/folders/5n/p_75w94d66l9ssrldxqdhh700000gn/T//ccBRvTxC.s 			page 16


 851              		.loc 1 386 0
 852 003e FFF7FEFF 		bl	chSchRescheduleS
 853              	.L60:
 854              	.LBB92:
 855              		.loc 1 388 0
 856 0042 0023     		movs	r3, #0
 857              	.LVL77:
 858              	@ 388 "../../os/kernel/src/chmtx.c" 1
 859 0044 83F31188 		msr     BASEPRI, r3
 860              	@ 0 "" 2
 861              	.LVL78:
 862              		.thumb
 863              	.LBE92:
 864              		.loc 1 389 0
 865 0048 70BD     		pop	{r4, r5, r6, pc}
 866              	.L67:
 867 004a 00BF     		.align	2
 868              	.L66:
 869 004c 00000000 		.word	rlist
 870              		.cfi_endproc
 871              	.LFE14:
 872              		.size	chMtxUnlockAll, .-chMtxUnlockAll
 873              		.text
 874              	.Letext0:
 875              		.file 3 "/usr/local/summon/lib/gcc/arm-none-eabi/4.6.2/../../../../arm-none-eabi/include/stdint.h"
 876              		.file 4 "../../os/ports/GCC/ARMCMx/chtypes.h"
 877              		.file 5 "../../os/kernel/include/chlists.h"
 878              		.file 6 "../../os/kernel/include/chthreads.h"
 879              		.file 7 "../../os/ports/GCC/ARMCMx/chcore_v7m.h"
 880              		.file 8 "../../os/kernel/include/chschd.h"
 881              		.file 9 "../../os/kernel/include/chmtx.h"