ARM GAS  /var/folders/5n/p_75w94d66l9ssrldxqdhh700000gn/T//ccBRvTxC.s 			page 1


   1              		.syntax unified
   2              		.cpu cortex-m4
   3              		.fpu softvfp
   4              		.eabi_attribute 20, 1
   5              		.eabi_attribute 21, 1
   6              		.eabi_attribute 23, 3
   7              		.eabi_attribute 24, 1
   8              		.eabi_attribute 25, 1
   9              		.eabi_attribute 26, 1
  10              		.eabi_attribute 30, 2
  11              		.eabi_attribute 18, 4
  12              		.thumb
  13              		.file	"chmtx.c"
  14              		.text
  15              	.Ltext0:
  16              		.cfi_sections	.debug_frame
  17              		.section	.text.chMtxInit,"ax",%progbits
  18              		.align	2
  19              		.p2align 4,,15
  20              		.global	chMtxInit
  21              		.thumb
  22              		.thumb_func
  23              		.type	chMtxInit, %function
  24              	chMtxInit:
  25              	.LFB7:
  26              		.file 1 "../../os/kernel/src/chmtx.c"
  27              		.loc 1 79 0
  28              		.cfi_startproc
  29              		@ args = 0, pretend = 0, frame = 0
  30              		@ frame_needed = 0, uses_anonymous_args = 0
  31              		@ link register save eliminated.
  32              	.LVL0:
  33              		.loc 1 84 0
  34 0000 0023     		movs	r3, #0
  35              		.loc 1 83 0
  36 0002 4060     		str	r0, [r0, #4]
  37 0004 0060     		str	r0, [r0, #0]
  38              		.loc 1 84 0
  39 0006 8360     		str	r3, [r0, #8]
  40              		.loc 1 85 0
  41 0008 7047     		bx	lr
  42              		.cfi_endproc
  43              	.LFE7:
  44              		.size	chMtxInit, .-chMtxInit
  45 000a 00BFAFF3 		.section	.text.chMtxLockS,"ax",%progbits
  45      0080
  46              		.align	2
  47              		.p2align 4,,15
  48              		.global	chMtxLockS
  49              		.thumb
  50              		.thumb_func
  51              		.type	chMtxLockS, %function
  52              	chMtxLockS:
  53              	.LFB9:
  54              		.loc 1 114 0
  55              		.cfi_startproc
  56              		@ args = 0, pretend = 0, frame = 0
ARM GAS  /var/folders/5n/p_75w94d66l9ssrldxqdhh700000gn/T//ccBRvTxC.s 			page 2


  57              		@ frame_needed = 0, uses_anonymous_args = 0
  58              	.LVL1:
  59 0000 F8B5     		push	{r3, r4, r5, r6, r7, lr}
  60              	.LCFI0:
  61              		.cfi_def_cfa_offset 24
  62              		.cfi_offset 14, -4
  63              		.cfi_offset 7, -8
  64              		.cfi_offset 6, -12
  65              		.cfi_offset 5, -16
  66              		.cfi_offset 4, -20
  67              		.cfi_offset 3, -24
  68              		.loc 1 114 0
  69 0002 0546     		mov	r5, r0
  70              		.loc 1 115 0
  71 0004 2E4B     		ldr	r3, .L24
  72              		.loc 1 121 0
  73 0006 8068     		ldr	r0, [r0, #8]
  74              	.LVL2:
  75              		.loc 1 115 0
  76 0008 9C69     		ldr	r4, [r3, #24]
  77              	.LVL3:
  78              		.loc 1 121 0
  79 000a 0028     		cmp	r0, #0
  80 000c 50D0     		beq	.L3
  81              	.LVL4:
  82              	.LBB33:
  83              		.loc 1 128 0 discriminator 1
  84 000e A268     		ldr	r2, [r4, #8]
  85 0010 8368     		ldr	r3, [r0, #8]
  86              	.LVL5:
  87 0012 9A42     		cmp	r2, r3
  88 0014 06D9     		bls	.L4
  89              	.LVL6:
  90              	.L18:
  91              		.loc 1 132 0
  92 0016 037F     		ldrb	r3, [r0, #28]	@ zero_extendqisi2
  93              		.loc 1 130 0
  94 0018 8260     		str	r2, [r0, #8]
  95              		.loc 1 132 0
  96 001a 042B     		cmp	r3, #4
  97 001c 30D0     		beq	.L6
  98 001e 052B     		cmp	r3, #5
  99 0020 1BD0     		beq	.L7
 100 0022 93B1     		cbz	r3, .L5
 101              	.LVL7:
 102              	.L4:
 103              		.file 2 "../../os/kernel/include/chinline.h"
 104              		.loc 2 36 0
 105 0024 2B46     		mov	r3, r5
 106              	.LVL8:
 107              	.L14:
 108              	.LBB34:
 109              	.LBB35:
 110              		.loc 2 38 0
 111 0026 1B68     		ldr	r3, [r3, #0]
 112              	.LVL9:
 113              		.loc 2 39 0
ARM GAS  /var/folders/5n/p_75w94d66l9ssrldxqdhh700000gn/T//ccBRvTxC.s 			page 3


 114 0028 9D42     		cmp	r5, r3
 115 002a 03D0     		beq	.L13
 116 002c 9968     		ldr	r1, [r3, #8]
 117 002e A268     		ldr	r2, [r4, #8]
 118 0030 9142     		cmp	r1, r2
 119 0032 F8D2     		bcs	.L14
 120              	.L13:
 121              		.loc 2 41 0
 122 0034 5A68     		ldr	r2, [r3, #4]
 123              		.loc 2 40 0
 124 0036 2360     		str	r3, [r4, #0]
 125              	.LBE35:
 126              	.LBE34:
 127              		.loc 1 168 0
 128 0038 0420     		movs	r0, #4
 129              	.LBB37:
 130              	.LBB36:
 131              		.loc 2 41 0
 132 003a 6260     		str	r2, [r4, #4]
 133              		.loc 2 42 0
 134 003c 1460     		str	r4, [r2, #0]
 135 003e 5C60     		str	r4, [r3, #4]
 136              	.LBE36:
 137              	.LBE37:
 138              		.loc 1 167 0
 139 0040 6562     		str	r5, [r4, #36]
 140              	.LBE33:
 141              		.loc 1 180 0
 142 0042 BDE8F840 		pop	{r3, r4, r5, r6, r7, lr}
 143              	.LBB58:
 144              		.loc 1 168 0
 145 0046 FFF7FEBF 		b	chSchGoSleepS
 146              	.LVL10:
 147              	.L5:
 148              	.LBB38:
 149              	.LBB39:
 150              		.loc 2 68 0
 151 004a 90E80C00 		ldmia	r0, {r2, r3}
 152 004e 1A60     		str	r2, [r3, #0]
 153              		.loc 2 69 0
 154 0050 0268     		ldr	r2, [r0, #0]
 155 0052 5360     		str	r3, [r2, #4]
 156              	.LBE39:
 157              	.LBE38:
 158              		.loc 1 160 0
 159 0054 FFF7FEFF 		bl	chSchReadyI
 160              	.LVL11:
 161              		.loc 1 161 0
 162 0058 E4E7     		b	.L4
 163              	.LVL12:
 164              	.L7:
 165              	.LBB40:
 166              	.LBB41:
 167              		.loc 2 68 0
 168 005a 4168     		ldr	r1, [r0, #4]
 169 005c 0368     		ldr	r3, [r0, #0]
 170              	.LBE41:
ARM GAS  /var/folders/5n/p_75w94d66l9ssrldxqdhh700000gn/T//ccBRvTxC.s 			page 4


 171              	.LBE40:
 172              		.loc 1 151 0
 173 005e 466A     		ldr	r6, [r0, #36]
 174              	.LVL13:
 175              	.LBB44:
 176              	.LBB42:
 177              		.loc 2 68 0
 178 0060 0B60     		str	r3, [r1, #0]
 179              		.loc 2 69 0
 180 0062 0768     		ldr	r7, [r0, #0]
 181              	.LBE42:
 182              	.LBE44:
 183              		.loc 2 36 0
 184 0064 3346     		mov	r3, r6
 185              	.LBB45:
 186              	.LBB43:
 187              		.loc 2 69 0
 188 0066 7960     		str	r1, [r7, #4]
 189              	.LVL14:
 190              	.L12:
 191              	.LBE43:
 192              	.LBE45:
 193              	.LBB46:
 194              	.LBB47:
 195              		.loc 2 38 0
 196 0068 1B68     		ldr	r3, [r3, #0]
 197              	.LVL15:
 198              		.loc 2 39 0
 199 006a 9E42     		cmp	r6, r3
 200 006c 02D0     		beq	.L11
 201 006e 9968     		ldr	r1, [r3, #8]
 202 0070 9142     		cmp	r1, r2
 203 0072 F9D2     		bcs	.L12
 204              	.L11:
 205              		.loc 2 41 0
 206 0074 5A68     		ldr	r2, [r3, #4]
 207              		.loc 2 40 0
 208 0076 0360     		str	r3, [r0, #0]
 209              		.loc 2 41 0
 210 0078 4260     		str	r2, [r0, #4]
 211              		.loc 2 42 0
 212 007a 1060     		str	r0, [r2, #0]
 213 007c 5860     		str	r0, [r3, #4]
 214 007e D1E7     		b	.L4
 215              	.LVL16:
 216              	.L6:
 217              	.LBE47:
 218              	.LBE46:
 219              	.LBB48:
 220              	.LBB49:
 221              		.loc 2 68 0
 222 0080 4168     		ldr	r1, [r0, #4]
 223 0082 0368     		ldr	r3, [r0, #0]
 224              	.LBE49:
 225              	.LBE48:
 226              		.loc 1 135 0
 227 0084 466A     		ldr	r6, [r0, #36]
ARM GAS  /var/folders/5n/p_75w94d66l9ssrldxqdhh700000gn/T//ccBRvTxC.s 			page 5


 228              	.LVL17:
 229              	.LBB52:
 230              	.LBB50:
 231              		.loc 2 68 0
 232 0086 0B60     		str	r3, [r1, #0]
 233              		.loc 2 69 0
 234 0088 0768     		ldr	r7, [r0, #0]
 235              	.LBE50:
 236              	.LBE52:
 237              		.loc 1 135 0
 238 008a 3346     		mov	r3, r6
 239              	.LBB53:
 240              	.LBB51:
 241              		.loc 2 69 0
 242 008c 7960     		str	r1, [r7, #4]
 243              	.LVL18:
 244              	.L9:
 245              	.LBE51:
 246              	.LBE53:
 247              	.LBB54:
 248              	.LBB55:
 249              		.loc 2 38 0
 250 008e 1B68     		ldr	r3, [r3, #0]
 251              	.LVL19:
 252              		.loc 2 39 0
 253 0090 9E42     		cmp	r6, r3
 254 0092 12D0     		beq	.L15
 255 0094 9968     		ldr	r1, [r3, #8]
 256 0096 9142     		cmp	r1, r2
 257 0098 F9D2     		bcs	.L9
 258              	.LVL20:
 259              	.L8:
 260              		.loc 2 41 0
 261 009a 5A68     		ldr	r2, [r3, #4]
 262              		.loc 2 40 0
 263 009c 0360     		str	r3, [r0, #0]
 264              		.loc 2 41 0
 265 009e 4260     		str	r2, [r0, #4]
 266              		.loc 2 42 0
 267 00a0 1060     		str	r0, [r2, #0]
 268 00a2 5860     		str	r0, [r3, #4]
 269              	.LBE55:
 270              	.LBE54:
 271              		.loc 1 136 0
 272 00a4 B068     		ldr	r0, [r6, #8]
 273              	.LVL21:
 274              		.loc 1 128 0
 275 00a6 A268     		ldr	r2, [r4, #8]
 276 00a8 8368     		ldr	r3, [r0, #8]
 277              	.LVL22:
 278 00aa 9342     		cmp	r3, r2
 279 00ac B3D3     		bcc	.L18
 280 00ae B9E7     		b	.L4
 281              	.LVL23:
 282              	.L3:
 283              	.LBE58:
 284              		.loc 1 177 0
ARM GAS  /var/folders/5n/p_75w94d66l9ssrldxqdhh700000gn/T//ccBRvTxC.s 			page 6


 285 00b0 E36B     		ldr	r3, [r4, #60]
 286              		.loc 1 176 0
 287 00b2 AC60     		str	r4, [r5, #8]
 288              		.loc 1 177 0
 289 00b4 EB60     		str	r3, [r5, #12]
 290              		.loc 1 178 0
 291 00b6 E563     		str	r5, [r4, #60]
 292              		.loc 1 180 0
 293 00b8 F8BD     		pop	{r3, r4, r5, r6, r7, pc}
 294              	.LVL24:
 295              	.L15:
 296              	.LBB59:
 297              	.LBB57:
 298              	.LBB56:
 299              		.loc 2 38 0
 300 00ba 3346     		mov	r3, r6
 301              	.LVL25:
 302 00bc EDE7     		b	.L8
 303              	.L25:
 304 00be 00BF     		.align	2
 305              	.L24:
 306 00c0 00000000 		.word	rlist
 307              	.LBE56:
 308              	.LBE57:
 309              	.LBE59:
 310              		.cfi_endproc
 311              	.LFE9:
 312              		.size	chMtxLockS, .-chMtxLockS
 313 00c4 AFF30080 		.section	.text.chMtxLock,"ax",%progbits
 313      AFF30080 
 313      AFF30080 
 314              		.align	2
 315              		.p2align 4,,15
 316              		.global	chMtxLock
 317              		.thumb
 318              		.thumb_func
 319              		.type	chMtxLock, %function
 320              	chMtxLock:
 321              	.LFB8:
 322              		.loc 1 96 0
 323              		.cfi_startproc
 324              		@ args = 0, pretend = 0, frame = 0
 325              		@ frame_needed = 0, uses_anonymous_args = 0
 326              	.LVL26:
 327 0000 08B5     		push	{r3, lr}
 328              	.LCFI1:
 329              		.cfi_def_cfa_offset 8
 330              		.cfi_offset 14, -4
 331              		.cfi_offset 3, -8
 332              	.LBB60:
 333              		.loc 1 98 0
 334 0002 2023     		movs	r3, #32
 335              	.LVL27:
 336              	@ 98 "../../os/kernel/src/chmtx.c" 1
 337 0004 83F31188 		msr     BASEPRI, r3
 338              	@ 0 "" 2
 339              	.LVL28:
ARM GAS  /var/folders/5n/p_75w94d66l9ssrldxqdhh700000gn/T//ccBRvTxC.s 			page 7


 340              		.thumb
 341              	.LBE60:
 342              		.loc 1 100 0
 343 0008 FFF7FEFF 		bl	chMtxLockS
 344              	.LVL29:
 345              	.LBB61:
 346              		.loc 1 102 0
 347 000c 0023     		movs	r3, #0
 348              	.LVL30:
 349              	@ 102 "../../os/kernel/src/chmtx.c" 1
 350 000e 83F31188 		msr     BASEPRI, r3
 351              	@ 0 "" 2
 352              	.LVL31:
 353              		.thumb
 354              	.LBE61:
 355              		.loc 1 103 0
 356 0012 08BD     		pop	{r3, pc}
 357              		.cfi_endproc
 358              	.LFE8:
 359              		.size	chMtxLock, .-chMtxLock
 360 0014 AFF30080 		.section	.text.chMtxTryLock,"ax",%progbits
 360      AFF30080 
 360      AFF30080 
 361              		.align	2
 362              		.p2align 4,,15
 363              		.global	chMtxTryLock
 364              		.thumb
 365              		.thumb_func
 366              		.type	chMtxTryLock, %function
 367              	chMtxTryLock:
 368              	.LFB10:
 369              		.loc 1 199 0
 370              		.cfi_startproc
 371              		@ args = 0, pretend = 0, frame = 0
 372              		@ frame_needed = 0, uses_anonymous_args = 0
 373              		@ link register save eliminated.
 374              	.LVL32:
 375              		.loc 1 199 0
 376 0000 0246     		mov	r2, r0
 377              	.LBB62:
 378              		.loc 1 202 0
 379 0002 2023     		movs	r3, #32
 380              	.LVL33:
 381              	@ 202 "../../os/kernel/src/chmtx.c" 1
 382 0004 83F31188 		msr     BASEPRI, r3
 383              	@ 0 "" 2
 384              	.LVL34:
 385              		.thumb
 386              	.LBE62:
 387              	.LBB63:
 388              	.LBB64:
 389              		.loc 1 232 0
 390 0008 8368     		ldr	r3, [r0, #8]
 391              	.LVL35:
 392              		.loc 1 233 0
 393 000a 0020     		movs	r0, #0
 394              	.LVL36:
ARM GAS  /var/folders/5n/p_75w94d66l9ssrldxqdhh700000gn/T//ccBRvTxC.s 			page 8


 395              		.loc 1 232 0
 396 000c 1BB1     		cbz	r3, .L30
 397              	.LVL37:
 398              	.L28:
 399              	.LBE64:
 400              	.LBE63:
 401              	.LBB66:
 402              		.loc 1 206 0
 403 000e 0023     		movs	r3, #0
 404              	.LVL38:
 405              	@ 206 "../../os/kernel/src/chmtx.c" 1
 406 0010 83F31188 		msr     BASEPRI, r3
 407              	@ 0 "" 2
 408              	.LVL39:
 409              		.thumb
 410              	.LBE66:
 411              		.loc 1 208 0
 412 0014 7047     		bx	lr
 413              	.LVL40:
 414              	.L30:
 415              	.LBB67:
 416              	.LBB65:
 417              		.loc 1 234 0
 418 0016 044B     		ldr	r3, .L31
 419 0018 9B69     		ldr	r3, [r3, #24]
 420              		.loc 1 235 0
 421 001a D96B     		ldr	r1, [r3, #60]
 422              	.LVL41:
 423              		.loc 1 234 0
 424 001c 9360     		str	r3, [r2, #8]
 425              		.loc 1 235 0
 426 001e D160     		str	r1, [r2, #12]
 427              		.loc 1 237 0
 428 0020 0120     		movs	r0, #1
 429              		.loc 1 236 0
 430 0022 DA63     		str	r2, [r3, #60]
 431 0024 F3E7     		b	.L28
 432              	.L32:
 433 0026 00BF     		.align	2
 434              	.L31:
 435 0028 00000000 		.word	rlist
 436              	.LBE65:
 437              	.LBE67:
 438              		.cfi_endproc
 439              	.LFE10:
 440              		.size	chMtxTryLock, .-chMtxTryLock
 441 002c AFF30080 		.section	.text.chMtxTryLockS,"ax",%progbits
 442              		.align	2
 443              		.p2align 4,,15
 444              		.global	chMtxTryLockS
 445              		.thumb
 446              		.thumb_func
 447              		.type	chMtxTryLockS, %function
 448              	chMtxTryLockS:
 449              	.LFB11:
 450              		.loc 1 227 0
 451              		.cfi_startproc
ARM GAS  /var/folders/5n/p_75w94d66l9ssrldxqdhh700000gn/T//ccBRvTxC.s 			page 9


 452              		@ args = 0, pretend = 0, frame = 0
 453              		@ frame_needed = 0, uses_anonymous_args = 0
 454              		@ link register save eliminated.
 455              	.LVL42:
 456              		.loc 1 232 0
 457 0000 8268     		ldr	r2, [r0, #8]
 458              		.loc 1 227 0
 459 0002 0346     		mov	r3, r0
 460              		.loc 1 232 0
 461 0004 0AB1     		cbz	r2, .L36
 462              		.loc 1 233 0
 463 0006 0020     		movs	r0, #0
 464              	.LVL43:
 465              		.loc 1 238 0
 466 0008 7047     		bx	lr
 467              	.L36:
 468              		.loc 1 234 0
 469 000a 044A     		ldr	r2, .L37
 470 000c 9269     		ldr	r2, [r2, #24]
 471              		.loc 1 235 0
 472 000e D16B     		ldr	r1, [r2, #60]
 473              		.loc 1 234 0
 474 0010 8260     		str	r2, [r0, #8]
 475              		.loc 1 235 0
 476 0012 C160     		str	r1, [r0, #12]
 477              		.loc 1 237 0
 478 0014 0120     		movs	r0, #1
 479              		.loc 1 236 0
 480 0016 D363     		str	r3, [r2, #60]
 481              		.loc 1 237 0
 482 0018 7047     		bx	lr
 483              	.L38:
 484 001a 00BF     		.align	2
 485              	.L37:
 486 001c 00000000 		.word	rlist
 487              		.cfi_endproc
 488              	.LFE11:
 489              		.size	chMtxTryLockS, .-chMtxTryLockS
 490              		.section	.text.chMtxUnlock,"ax",%progbits
 491              		.align	2
 492              		.p2align 4,,15
 493              		.global	chMtxUnlock
 494              		.thumb
 495              		.thumb_func
 496              		.type	chMtxUnlock, %function
 497              	chMtxUnlock:
 498              	.LFB12:
 499              		.loc 1 250 0
 500              		.cfi_startproc
 501              		@ args = 0, pretend = 0, frame = 0
 502              		@ frame_needed = 0, uses_anonymous_args = 0
 503              		.loc 1 251 0
 504 0000 154A     		ldr	r2, .L47
 505              		.loc 1 250 0
 506 0002 F8B5     		push	{r3, r4, r5, r6, r7, lr}
 507              	.LCFI2:
 508              		.cfi_def_cfa_offset 24
ARM GAS  /var/folders/5n/p_75w94d66l9ssrldxqdhh700000gn/T//ccBRvTxC.s 			page 10


 509              		.cfi_offset 14, -4
 510              		.cfi_offset 7, -8
 511              		.cfi_offset 6, -12
 512              		.cfi_offset 5, -16
 513              		.cfi_offset 4, -20
 514              		.cfi_offset 3, -24
 515              		.loc 1 251 0
 516 0004 9269     		ldr	r2, [r2, #24]
 517              	.LVL44:
 518              	.LBB68:
 519              		.loc 1 254 0
 520 0006 2023     		movs	r3, #32
 521              	.LVL45:
 522              	@ 254 "../../os/kernel/src/chmtx.c" 1
 523 0008 83F31188 		msr     BASEPRI, r3
 524              	@ 0 "" 2
 525              	.LVL46:
 526              		.thumb
 527              	.LBE68:
 528              		.loc 1 263 0
 529 000c D46B     		ldr	r4, [r2, #60]
 530              	.LVL47:
 531              		.loc 1 266 0
 532 000e 2368     		ldr	r3, [r4, #0]
 533              	.LVL48:
 534              		.loc 1 264 0
 535 0010 E168     		ldr	r1, [r4, #12]
 536              		.loc 1 266 0
 537 0012 A342     		cmp	r3, r4
 538              		.loc 1 264 0
 539 0014 D163     		str	r1, [r2, #60]
 540              		.loc 1 266 0
 541 0016 1CD0     		beq	.L40
 542              	.LBB69:
 543              		.loc 1 271 0
 544 0018 176C     		ldr	r7, [r2, #64]
 545              	.LVL49:
 546              		.loc 1 273 0
 547 001a 49B1     		cbz	r1, .L41
 548              	.LVL50:
 549              	.L45:
 550              		.loc 1 277 0
 551 001c 0868     		ldr	r0, [r1, #0]
 552 001e 8842     		cmp	r0, r1
 553 0020 03D0     		beq	.L42
 554              		.loc 1 277 0 is_stmt 0 discriminator 1
 555 0022 8068     		ldr	r0, [r0, #8]
 556 0024 8742     		cmp	r7, r0
 557 0026 38BF     		it	cc
 558 0028 0746     		movcc	r7, r0
 559              	.LVL51:
 560              	.L42:
 561              		.loc 1 279 0 is_stmt 1
 562 002a C968     		ldr	r1, [r1, #12]
 563              	.LVL52:
 564              		.loc 1 273 0
 565 002c 0029     		cmp	r1, #0
ARM GAS  /var/folders/5n/p_75w94d66l9ssrldxqdhh700000gn/T//ccBRvTxC.s 			page 11


 566 002e F5D1     		bne	.L45
 567              	.L41:
 568              	.LBB70:
 569              	.LBB71:
 570              		.loc 2 55 0
 571 0030 1D68     		ldr	r5, [r3, #0]
 572              	.LBE71:
 573              	.LBE70:
 574              		.loc 1 288 0
 575 0032 DE6B     		ldr	r6, [r3, #60]
 576              		.loc 1 283 0
 577 0034 9760     		str	r7, [r2, #8]
 578              	.LVL53:
 579              		.loc 1 290 0
 580 0036 1846     		mov	r0, r3
 581              	.LBB74:
 582              	.LBB72:
 583              		.loc 2 55 0
 584 0038 2560     		str	r5, [r4, #0]
 585              	.LBE72:
 586              	.LBE74:
 587              		.loc 1 290 0
 588 003a 0021     		movs	r1, #0
 589              	.LVL54:
 590              	.LBB75:
 591              	.LBB73:
 592              		.loc 2 55 0
 593 003c 6C60     		str	r4, [r5, #4]
 594              	.LBE73:
 595              	.LBE75:
 596              		.loc 1 287 0
 597 003e A360     		str	r3, [r4, #8]
 598              		.loc 1 288 0
 599 0040 E660     		str	r6, [r4, #12]
 600              		.loc 1 289 0
 601 0042 DC63     		str	r4, [r3, #60]
 602              		.loc 1 290 0
 603 0044 FFF7FEFF 		bl	chSchWakeupS
 604              	.LVL55:
 605              	.L44:
 606              	.LBE69:
 607              	.LBB76:
 608              		.loc 1 294 0
 609 0048 0023     		movs	r3, #0
 610              	.LVL56:
 611              	@ 294 "../../os/kernel/src/chmtx.c" 1
 612 004a 83F31188 		msr     BASEPRI, r3
 613              	@ 0 "" 2
 614              	.LVL57:
 615              		.thumb
 616              	.LBE76:
 617              		.loc 1 296 0
 618 004e 2046     		mov	r0, r4
 619 0050 F8BD     		pop	{r3, r4, r5, r6, r7, pc}
 620              	.LVL58:
 621              	.L40:
 622              		.loc 1 293 0
ARM GAS  /var/folders/5n/p_75w94d66l9ssrldxqdhh700000gn/T//ccBRvTxC.s 			page 12


 623 0052 0023     		movs	r3, #0
 624 0054 A360     		str	r3, [r4, #8]
 625 0056 F7E7     		b	.L44
 626              	.L48:
 627              		.align	2
 628              	.L47:
 629 0058 00000000 		.word	rlist
 630              		.cfi_endproc
 631              	.LFE12:
 632              		.size	chMtxUnlock, .-chMtxUnlock
 633 005c AFF30080 		.section	.text.chMtxUnlockS,"ax",%progbits
 634              		.align	2
 635              		.p2align 4,,15
 636              		.global	chMtxUnlockS
 637              		.thumb
 638              		.thumb_func
 639              		.type	chMtxUnlockS, %function
 640              	chMtxUnlockS:
 641              	.LFB13:
 642              		.loc 1 310 0
 643              		.cfi_startproc
 644              		@ args = 0, pretend = 0, frame = 0
 645              		@ frame_needed = 0, uses_anonymous_args = 0
 646              		.loc 1 311 0
 647 0000 124B     		ldr	r3, .L57
 648 0002 9969     		ldr	r1, [r3, #24]
 649              	.LVL59:
 650              		.loc 1 310 0
 651 0004 70B5     		push	{r4, r5, r6, lr}
 652              	.LCFI3:
 653              		.cfi_def_cfa_offset 16
 654              		.cfi_offset 14, -4
 655              		.cfi_offset 6, -8
 656              		.cfi_offset 5, -12
 657              		.cfi_offset 4, -16
 658              		.loc 1 324 0
 659 0006 CC6B     		ldr	r4, [r1, #60]
 660              	.LVL60:
 661              		.loc 1 327 0
 662 0008 2368     		ldr	r3, [r4, #0]
 663              	.LVL61:
 664              		.loc 1 325 0
 665 000a E268     		ldr	r2, [r4, #12]
 666              		.loc 1 327 0
 667 000c A342     		cmp	r3, r4
 668              		.loc 1 325 0
 669 000e CA63     		str	r2, [r1, #60]
 670              		.loc 1 327 0
 671 0010 18D0     		beq	.L50
 672              	.LBB77:
 673              		.loc 1 332 0
 674 0012 0E6C     		ldr	r6, [r1, #64]
 675              	.LVL62:
 676              		.loc 1 334 0
 677 0014 4AB1     		cbz	r2, .L51
 678              	.LVL63:
 679              	.L55:
ARM GAS  /var/folders/5n/p_75w94d66l9ssrldxqdhh700000gn/T//ccBRvTxC.s 			page 13


 680              		.loc 1 338 0
 681 0016 1068     		ldr	r0, [r2, #0]
 682 0018 9042     		cmp	r0, r2
 683 001a 03D0     		beq	.L52
 684              		.loc 1 338 0 is_stmt 0 discriminator 1
 685 001c 8068     		ldr	r0, [r0, #8]
 686 001e 8642     		cmp	r6, r0
 687 0020 38BF     		it	cc
 688 0022 0646     		movcc	r6, r0
 689              	.LVL64:
 690              	.L52:
 691              		.loc 1 340 0 is_stmt 1
 692 0024 D268     		ldr	r2, [r2, #12]
 693              	.LVL65:
 694              		.loc 1 334 0
 695 0026 002A     		cmp	r2, #0
 696 0028 F5D1     		bne	.L55
 697              	.L51:
 698              	.LBB78:
 699              	.LBB79:
 700              		.loc 2 55 0
 701 002a 1A68     		ldr	r2, [r3, #0]
 702              	.LVL66:
 703              	.LBE79:
 704              	.LBE78:
 705              		.loc 1 347 0
 706 002c DD6B     		ldr	r5, [r3, #60]
 707              		.loc 1 342 0
 708 002e 8E60     		str	r6, [r1, #8]
 709              	.LVL67:
 710              		.loc 1 349 0
 711 0030 1846     		mov	r0, r3
 712              	.LBB81:
 713              	.LBB80:
 714              		.loc 2 55 0
 715 0032 2260     		str	r2, [r4, #0]
 716 0034 5460     		str	r4, [r2, #4]
 717              	.LBE80:
 718              	.LBE81:
 719              		.loc 1 346 0
 720 0036 A360     		str	r3, [r4, #8]
 721              		.loc 1 347 0
 722 0038 E560     		str	r5, [r4, #12]
 723              		.loc 1 348 0
 724 003a DC63     		str	r4, [r3, #60]
 725              		.loc 1 349 0
 726 003c FFF7FEFF 		bl	chSchReadyI
 727              	.LVL68:
 728              	.LBE77:
 729              		.loc 1 354 0
 730 0040 2046     		mov	r0, r4
 731 0042 70BD     		pop	{r4, r5, r6, pc}
 732              	.LVL69:
 733              	.L50:
 734              		.loc 1 352 0
 735 0044 0023     		movs	r3, #0
 736 0046 A360     		str	r3, [r4, #8]
ARM GAS  /var/folders/5n/p_75w94d66l9ssrldxqdhh700000gn/T//ccBRvTxC.s 			page 14


 737              		.loc 1 354 0
 738 0048 2046     		mov	r0, r4
 739 004a 70BD     		pop	{r4, r5, r6, pc}
 740              	.L58:
 741              		.align	2
 742              	.L57:
 743 004c 00000000 		.word	rlist
 744              		.cfi_endproc
 745              	.LFE13:
 746              		.size	chMtxUnlockS, .-chMtxUnlockS
 747              		.section	.text.chMtxUnlockAll,"ax",%progbits
 748              		.align	2
 749              		.p2align 4,,15
 750              		.global	chMtxUnlockAll
 751              		.thumb
 752              		.thumb_func
 753              		.type	chMtxUnlockAll, %function
 754              	chMtxUnlockAll:
 755              	.LFB14:
 756              		.loc 1 367 0
 757              		.cfi_startproc
 758              		@ args = 0, pretend = 0, frame = 0
 759              		@ frame_needed = 0, uses_anonymous_args = 0
 760              		.loc 1 368 0
 761 0000 124A     		ldr	r2, .L66
 762              		.loc 1 367 0
 763 0002 70B5     		push	{r4, r5, r6, lr}
 764              	.LCFI4:
 765              		.cfi_def_cfa_offset 16
 766              		.cfi_offset 14, -4
 767              		.cfi_offset 6, -8
 768              		.cfi_offset 5, -12
 769              		.cfi_offset 4, -16
 770              	.LBB82:
 771              		.loc 1 370 0
 772 0004 2023     		movs	r3, #32
 773              	.LVL70:
 774              	.LBE82:
 775              		.loc 1 368 0
 776 0006 9469     		ldr	r4, [r2, #24]
 777              	.LVL71:
 778              	.LBB83:
 779              		.loc 1 370 0
 780              	@ 370 "../../os/kernel/src/chmtx.c" 1
 781 0008 83F31188 		msr     BASEPRI, r3
 782              	@ 0 "" 2
 783              	.LVL72:
 784              		.thumb
 785              	.LBE83:
 786              		.loc 1 371 0
 787 000c E36B     		ldr	r3, [r4, #60]
 788              	.LVL73:
 789 000e C3B1     		cbz	r3, .L60
 790              	.LBB84:
 791              		.loc 1 383 0
 792 0010 0025     		movs	r5, #0
 793              	.LVL74:
ARM GAS  /var/folders/5n/p_75w94d66l9ssrldxqdhh700000gn/T//ccBRvTxC.s 			page 15


 794              	.L64:
 795              		.loc 1 375 0
 796 0012 1A68     		ldr	r2, [r3, #0]
 797              		.loc 1 374 0
 798 0014 D968     		ldr	r1, [r3, #12]
 799              		.loc 1 375 0
 800 0016 9A42     		cmp	r2, r3
 801              		.loc 1 374 0
 802 0018 E163     		str	r1, [r4, #60]
 803              		.loc 1 383 0
 804 001a 08BF     		it	eq
 805 001c 9D60     		streq	r5, [r3, #8]
 806              		.loc 1 375 0
 807 001e 09D0     		beq	.L62
 808              	.LVL75:
 809              	.LBB85:
 810              	.LBB86:
 811              	.LBB87:
 812              		.loc 2 55 0
 813 0020 1168     		ldr	r1, [r2, #0]
 814              	.LBE87:
 815              	.LBE86:
 816              		.loc 1 378 0
 817 0022 D66B     		ldr	r6, [r2, #60]
 818              	.LBB90:
 819              	.LBB88:
 820              		.loc 2 55 0
 821 0024 1960     		str	r1, [r3, #0]
 822              	.LBE88:
 823              	.LBE90:
 824              		.loc 1 380 0
 825 0026 1046     		mov	r0, r2
 826              	.LBB91:
 827              	.LBB89:
 828              		.loc 2 55 0
 829 0028 4B60     		str	r3, [r1, #4]
 830              	.LBE89:
 831              	.LBE91:
 832              		.loc 1 377 0
 833 002a 9A60     		str	r2, [r3, #8]
 834              		.loc 1 378 0
 835 002c DE60     		str	r6, [r3, #12]
 836              		.loc 1 379 0
 837 002e D363     		str	r3, [r2, #60]
 838              		.loc 1 380 0
 839 0030 FFF7FEFF 		bl	chSchReadyI
 840              	.LVL76:
 841              	.L62:
 842              	.LBE85:
 843              	.LBE84:
 844              		.loc 1 384 0
 845 0034 E36B     		ldr	r3, [r4, #60]
 846 0036 002B     		cmp	r3, #0
 847 0038 EBD1     		bne	.L64
 848              		.loc 1 385 0
 849 003a 236C     		ldr	r3, [r4, #64]
 850 003c A360     		str	r3, [r4, #8]
ARM GAS  /var/folders/5n/p_75w94d66l9ssrldxqdhh700000gn/T//ccBRvTxC.s 			page 16


 851              		.loc 1 386 0
 852 003e FFF7FEFF 		bl	chSchRescheduleS
 853              	.L60:
 854              	.LBB92:
 855              		.loc 1 388 0
 856 0042 0023     		movs	r3, #0
 857              	.LVL77:
 858              	@ 388 "../../os/kernel/src/chmtx.c" 1
 859 0044 83F31188 		msr     BASEPRI, r3
 860              	@ 0 "" 2
 861              	.LVL78:
 862              		.thumb
 863              	.LBE92:
 864              		.loc 1 389 0
 865 0048 70BD     		pop	{r4, r5, r6, pc}
 866              	.L67:
 867 004a 00BF     		.align	2
 868              	.L66:
 869 004c 00000000 		.word	rlist
 870              		.cfi_endproc
 871              	.LFE14:
 872              		.size	chMtxUnlockAll, .-chMtxUnlockAll
 873              		.text
 874              	.Letext0:
 875              		.file 3 "/usr/local/summon/lib/gcc/arm-none-eabi/4.6.2/../../../../arm-none-eabi/include/stdint.h"
 876              		.file 4 "../../os/ports/GCC/ARMCMx/chtypes.h"
 877              		.file 5 "../../os/kernel/include/chlists.h"
 878              		.file 6 "../../os/kernel/include/chthreads.h"
 879              		.file 7 "../../os/ports/GCC/ARMCMx/chcore_v7m.h"
 880              		.file 8 "../../os/kernel/include/chschd.h"
 881              		.file 9 "../../os/kernel/include/chmtx.h"
 882              		.section	.debug_info,"",%progbits
 883              	.Ldebug_info0:
 884 0000 72090000 		.4byte	0x972
 885 0004 0200     		.2byte	0x2
 886 0006 00000000 		.4byte	.Ldebug_abbrev0
 887 000a 04       		.byte	0x4
 888 000b 01       		.uleb128 0x1
 889 000c 84020000 		.4byte	.LASF73
 890 0010 01       		.byte	0x1
 891 0011 45020000 		.4byte	.LASF74
 892 0015 EF020000 		.4byte	.LASF75
 893 0019 00000000 		.4byte	0
 894 001d 00000000 		.4byte	0
 895 0021 A0010000 		.4byte	.Ldebug_ranges0+0x1a0
 896 0025 00000000 		.4byte	.Ldebug_line0
 897 0029 02       		.uleb128 0x2
 898 002a 04       		.byte	0x4
 899 002b 05       		.byte	0x5
 900 002c 696E7400 		.ascii	"int\000"
 901 0030 03       		.uleb128 0x3
 902 0031 04       		.byte	0x4
 903 0032 07       		.byte	0x7
 904 0033 CC000000 		.4byte	.LASF0
 905 0037 03       		.uleb128 0x3
 906 0038 01       		.byte	0x1
 907 0039 06       		.byte	0x6
ARM GAS  /var/folders/5n/p_75w94d66l9ssrldxqdhh700000gn/T//ccBRvTxC.s 			page 17


 908 003a 4E000000 		.4byte	.LASF1
 909 003e 04       		.uleb128 0x4
 910 003f D9020000 		.4byte	.LASF5
 911 0043 03       		.byte	0x3
 912 0044 2A       		.byte	0x2a
 913 0045 49000000 		.4byte	0x49
 914 0049 03       		.uleb128 0x3
 915 004a 01       		.byte	0x1
 916 004b 08       		.byte	0x8
 917 004c C0010000 		.4byte	.LASF2
 918 0050 03       		.uleb128 0x3
 919 0051 02       		.byte	0x2
 920 0052 05       		.byte	0x5
 921 0053 D8010000 		.4byte	.LASF3
 922 0057 03       		.uleb128 0x3
 923 0058 02       		.byte	0x2
 924 0059 07       		.byte	0x7
 925 005a F3000000 		.4byte	.LASF4
 926 005e 04       		.uleb128 0x4
 927 005f B8010000 		.4byte	.LASF6
 928 0063 03       		.byte	0x3
 929 0064 4F       		.byte	0x4f
 930 0065 69000000 		.4byte	0x69
 931 0069 03       		.uleb128 0x3
 932 006a 04       		.byte	0x4
 933 006b 05       		.byte	0x5
 934 006c 7B000000 		.4byte	.LASF7
 935 0070 04       		.uleb128 0x4
 936 0071 23020000 		.4byte	.LASF8
 937 0075 03       		.byte	0x3
 938 0076 50       		.byte	0x50
 939 0077 7B000000 		.4byte	0x7b
 940 007b 03       		.uleb128 0x3
 941 007c 04       		.byte	0x4
 942 007d 07       		.byte	0x7
 943 007e D9000000 		.4byte	.LASF9
 944 0082 03       		.uleb128 0x3
 945 0083 08       		.byte	0x8
 946 0084 05       		.byte	0x5
 947 0085 40000000 		.4byte	.LASF10
 948 0089 03       		.uleb128 0x3
 949 008a 08       		.byte	0x8
 950 008b 07       		.byte	0x7
 951 008c 0D000000 		.4byte	.LASF11
 952 0090 04       		.uleb128 0x4
 953 0091 62000000 		.4byte	.LASF12
 954 0095 04       		.byte	0x4
 955 0096 27       		.byte	0x27
 956 0097 5E000000 		.4byte	0x5e
 957 009b 04       		.uleb128 0x4
 958 009c 2F010000 		.4byte	.LASF13
 959 00a0 04       		.byte	0x4
 960 00a1 28       		.byte	0x28
 961 00a2 3E000000 		.4byte	0x3e
 962 00a6 04       		.uleb128 0x4
 963 00a7 84000000 		.4byte	.LASF14
 964 00ab 04       		.byte	0x4
ARM GAS  /var/folders/5n/p_75w94d66l9ssrldxqdhh700000gn/T//ccBRvTxC.s 			page 18


 965 00ac 29       		.byte	0x29
 966 00ad 3E000000 		.4byte	0x3e
 967 00b1 04       		.uleb128 0x4
 968 00b2 A1010000 		.4byte	.LASF15
 969 00b6 04       		.byte	0x4
 970 00b7 2A       		.byte	0x2a
 971 00b8 3E000000 		.4byte	0x3e
 972 00bc 04       		.uleb128 0x4
 973 00bd 71000000 		.4byte	.LASF16
 974 00c1 04       		.byte	0x4
 975 00c2 2B       		.byte	0x2b
 976 00c3 3E000000 		.4byte	0x3e
 977 00c7 04       		.uleb128 0x4
 978 00c8 B0010000 		.4byte	.LASF17
 979 00cc 04       		.byte	0x4
 980 00cd 2C       		.byte	0x2c
 981 00ce 70000000 		.4byte	0x70
 982 00d2 04       		.uleb128 0x4
 983 00d3 06010000 		.4byte	.LASF18
 984 00d7 04       		.byte	0x4
 985 00d8 2D       		.byte	0x2d
 986 00d9 5E000000 		.4byte	0x5e
 987 00dd 04       		.uleb128 0x4
 988 00de 43010000 		.4byte	.LASF19
 989 00e2 04       		.byte	0x4
 990 00e3 2F       		.byte	0x2f
 991 00e4 70000000 		.4byte	0x70
 992 00e8 04       		.uleb128 0x4
 993 00e9 68020000 		.4byte	.LASF20
 994 00ed 04       		.byte	0x4
 995 00ee 31       		.byte	0x31
 996 00ef 70000000 		.4byte	0x70
 997 00f3 04       		.uleb128 0x4
 998 00f4 11020000 		.4byte	.LASF21
 999 00f8 05       		.byte	0x5
 1000 00f9 23       		.byte	0x23
 1001 00fa FE000000 		.4byte	0xfe
 1002 00fe 05       		.uleb128 0x5
 1003 00ff 11020000 		.4byte	.LASF21
 1004 0103 48       		.byte	0x48
 1005 0104 06       		.byte	0x6
 1006 0105 57       		.byte	0x57
 1007 0106 23020000 		.4byte	0x223
 1008 010a 06       		.uleb128 0x6
 1009 010b 02020000 		.4byte	.LASF22
 1010 010f 06       		.byte	0x6
 1011 0110 58       		.byte	0x58
 1012 0111 48020000 		.4byte	0x248
 1013 0115 02       		.byte	0x2
 1014 0116 23       		.byte	0x23
 1015 0117 00       		.uleb128 0
 1016 0118 06       		.uleb128 0x6
 1017 0119 A9010000 		.4byte	.LASF23
 1018 011d 06       		.byte	0x6
 1019 011e 5A       		.byte	0x5a
 1020 011f 48020000 		.4byte	0x248
 1021 0123 02       		.byte	0x2
ARM GAS  /var/folders/5n/p_75w94d66l9ssrldxqdhh700000gn/T//ccBRvTxC.s 			page 19


 1022 0124 23       		.byte	0x23
 1023 0125 04       		.uleb128 0x4
 1024 0126 06       		.uleb128 0x6
 1025 0127 39000000 		.4byte	.LASF24
 1026 012b 06       		.byte	0x6
 1027 012c 5C       		.byte	0x5c
 1028 012d C7000000 		.4byte	0xc7
 1029 0131 02       		.byte	0x2
 1030 0132 23       		.byte	0x23
 1031 0133 08       		.uleb128 0x8
 1032 0134 06       		.uleb128 0x6
 1033 0135 4D030000 		.4byte	.LASF25
 1034 0139 06       		.byte	0x6
 1035 013a 5D       		.byte	0x5d
 1036 013b 16030000 		.4byte	0x316
 1037 013f 02       		.byte	0x2
 1038 0140 23       		.byte	0x23
 1039 0141 0C       		.uleb128 0xc
 1040 0142 06       		.uleb128 0x6
 1041 0143 A6000000 		.4byte	.LASF26
 1042 0147 06       		.byte	0x6
 1043 0148 5F       		.byte	0x5f
 1044 0149 48020000 		.4byte	0x248
 1045 014d 02       		.byte	0x2
 1046 014e 23       		.byte	0x23
 1047 014f 10       		.uleb128 0x10
 1048 0150 06       		.uleb128 0x6
 1049 0151 6C010000 		.4byte	.LASF27
 1050 0155 06       		.byte	0x6
 1051 0156 60       		.byte	0x60
 1052 0157 48020000 		.4byte	0x248
 1053 015b 02       		.byte	0x2
 1054 015c 23       		.byte	0x23
 1055 015d 14       		.uleb128 0x14
 1056 015e 06       		.uleb128 0x6
 1057 015f E8020000 		.4byte	.LASF28
 1058 0163 06       		.byte	0x6
 1059 0164 67       		.byte	0x67
 1060 0165 23040000 		.4byte	0x423
 1061 0169 02       		.byte	0x2
 1062 016a 23       		.byte	0x23
 1063 016b 18       		.uleb128 0x18
 1064 016c 06       		.uleb128 0x6
 1065 016d E2010000 		.4byte	.LASF29
 1066 0171 06       		.byte	0x6
 1067 0172 72       		.byte	0x72
 1068 0173 A6000000 		.4byte	0xa6
 1069 0177 02       		.byte	0x2
 1070 0178 23       		.byte	0x23
 1071 0179 1C       		.uleb128 0x1c
 1072 017a 06       		.uleb128 0x6
 1073 017b 09020000 		.4byte	.LASF30
 1074 017f 06       		.byte	0x6
 1075 0180 76       		.byte	0x76
 1076 0181 9B000000 		.4byte	0x9b
 1077 0185 02       		.byte	0x2
 1078 0186 23       		.byte	0x23
ARM GAS  /var/folders/5n/p_75w94d66l9ssrldxqdhh700000gn/T//ccBRvTxC.s 			page 20


 1079 0187 1D       		.uleb128 0x1d
 1080 0188 06       		.uleb128 0x6
 1081 0189 C2020000 		.4byte	.LASF31
 1082 018d 06       		.byte	0x6
 1083 018e 7B       		.byte	0x7b
 1084 018f B1000000 		.4byte	0xb1
 1085 0193 02       		.byte	0x2
 1086 0194 23       		.byte	0x23
 1087 0195 1E       		.uleb128 0x1e
 1088 0196 06       		.uleb128 0x6
 1089 0197 EA010000 		.4byte	.LASF32
 1090 019b 06       		.byte	0x6
 1091 019c 81       		.byte	0x81
 1092 019d BC000000 		.4byte	0xbc
 1093 01a1 02       		.byte	0x2
 1094 01a2 23       		.byte	0x23
 1095 01a3 1F       		.uleb128 0x1f
 1096 01a4 06       		.uleb128 0x6
 1097 01a5 7D020000 		.4byte	.LASF33
 1098 01a9 06       		.byte	0x6
 1099 01aa 88       		.byte	0x88
 1100 01ab 39030000 		.4byte	0x339
 1101 01af 02       		.byte	0x2
 1102 01b0 23       		.byte	0x23
 1103 01b1 20       		.uleb128 0x20
 1104 01b2 07       		.uleb128 0x7
 1105 01b3 705F7500 		.ascii	"p_u\000"
 1106 01b7 06       		.byte	0x6
 1107 01b8 AD       		.byte	0xad
 1108 01b9 EE030000 		.4byte	0x3ee
 1109 01bd 02       		.byte	0x2
 1110 01be 23       		.byte	0x23
 1111 01bf 24       		.uleb128 0x24
 1112 01c0 06       		.uleb128 0x6
 1113 01c1 53030000 		.4byte	.LASF34
 1114 01c5 06       		.byte	0x6
 1115 01c6 B2       		.byte	0xb2
 1116 01c7 70020000 		.4byte	0x270
 1117 01cb 02       		.byte	0x2
 1118 01cc 23       		.byte	0x23
 1119 01cd 28       		.uleb128 0x28
 1120 01ce 06       		.uleb128 0x6
 1121 01cf AD020000 		.4byte	.LASF35
 1122 01d3 06       		.byte	0x6
 1123 01d4 B8       		.byte	0xb8
 1124 01d5 4E020000 		.4byte	0x24e
 1125 01d9 02       		.byte	0x2
 1126 01da 23       		.byte	0x23
 1127 01db 2C       		.uleb128 0x2c
 1128 01dc 06       		.uleb128 0x6
 1129 01dd 00000000 		.4byte	.LASF36
 1130 01e1 06       		.byte	0x6
 1131 01e2 BC       		.byte	0xbc
 1132 01e3 D2000000 		.4byte	0xd2
 1133 01e7 02       		.byte	0x2
 1134 01e8 23       		.byte	0x23
 1135 01e9 34       		.uleb128 0x34
ARM GAS  /var/folders/5n/p_75w94d66l9ssrldxqdhh700000gn/T//ccBRvTxC.s 			page 21


 1136 01ea 06       		.uleb128 0x6
 1137 01eb 18020000 		.4byte	.LASF37
 1138 01ef 06       		.byte	0x6
 1139 01f0 C2       		.byte	0xc2
 1140 01f1 DD000000 		.4byte	0xdd
 1141 01f5 02       		.byte	0x2
 1142 01f6 23       		.byte	0x23
 1143 01f7 38       		.uleb128 0x38
 1144 01f8 06       		.uleb128 0x6
 1145 01f9 CE010000 		.4byte	.LASF38
 1146 01fd 06       		.byte	0x6
 1147 01fe C9       		.byte	0xc9
 1148 01ff 35040000 		.4byte	0x435
 1149 0203 02       		.byte	0x2
 1150 0204 23       		.byte	0x23
 1151 0205 3C       		.uleb128 0x3c
 1152 0206 06       		.uleb128 0x6
 1153 0207 72020000 		.4byte	.LASF39
 1154 020b 06       		.byte	0x6
 1155 020c CD       		.byte	0xcd
 1156 020d C7000000 		.4byte	0xc7
 1157 0211 02       		.byte	0x2
 1158 0212 23       		.byte	0x23
 1159 0213 40       		.uleb128 0x40
 1160 0214 06       		.uleb128 0x6
 1161 0215 5A000000 		.4byte	.LASF40
 1162 0219 06       		.byte	0x6
 1163 021a D3       		.byte	0xd3
 1164 021b 86020000 		.4byte	0x286
 1165 021f 02       		.byte	0x2
 1166 0220 23       		.byte	0x23
 1167 0221 44       		.uleb128 0x44
 1168 0222 00       		.byte	0
 1169 0223 08       		.uleb128 0x8
 1170 0224 08       		.byte	0x8
 1171 0225 05       		.byte	0x5
 1172 0226 5A       		.byte	0x5a
 1173 0227 48020000 		.4byte	0x248
 1174 022b 06       		.uleb128 0x6
 1175 022c 02020000 		.4byte	.LASF22
 1176 0230 05       		.byte	0x5
 1177 0231 5B       		.byte	0x5b
 1178 0232 48020000 		.4byte	0x248
 1179 0236 02       		.byte	0x2
 1180 0237 23       		.byte	0x23
 1181 0238 00       		.uleb128 0
 1182 0239 06       		.uleb128 0x6
 1183 023a A9010000 		.4byte	.LASF23
 1184 023e 05       		.byte	0x5
 1185 023f 5D       		.byte	0x5d
 1186 0240 48020000 		.4byte	0x248
 1187 0244 02       		.byte	0x2
 1188 0245 23       		.byte	0x23
 1189 0246 04       		.uleb128 0x4
 1190 0247 00       		.byte	0
 1191 0248 09       		.uleb128 0x9
 1192 0249 04       		.byte	0x4
ARM GAS  /var/folders/5n/p_75w94d66l9ssrldxqdhh700000gn/T//ccBRvTxC.s 			page 22


 1193 024a F3000000 		.4byte	0xf3
 1194 024e 04       		.uleb128 0x4
 1195 024f 7A010000 		.4byte	.LASF41
 1196 0253 05       		.byte	0x5
 1197 0254 5F       		.byte	0x5f
 1198 0255 23020000 		.4byte	0x223
 1199 0259 08       		.uleb128 0x8
 1200 025a 04       		.byte	0x4
 1201 025b 05       		.byte	0x5
 1202 025c 64       		.byte	0x64
 1203 025d 70020000 		.4byte	0x270
 1204 0261 06       		.uleb128 0x6
 1205 0262 02020000 		.4byte	.LASF22
 1206 0266 05       		.byte	0x5
 1207 0267 66       		.byte	0x66
 1208 0268 48020000 		.4byte	0x248
 1209 026c 02       		.byte	0x2
 1210 026d 23       		.byte	0x23
 1211 026e 00       		.uleb128 0
 1212 026f 00       		.byte	0
 1213 0270 04       		.uleb128 0x4
 1214 0271 37010000 		.4byte	.LASF42
 1215 0275 05       		.byte	0x5
 1216 0276 69       		.byte	0x69
 1217 0277 59020000 		.4byte	0x259
 1218 027b 04       		.uleb128 0x4
 1219 027c B6000000 		.4byte	.LASF43
 1220 0280 07       		.byte	0x7
 1221 0281 DE       		.byte	0xde
 1222 0282 86020000 		.4byte	0x286
 1223 0286 0A       		.uleb128 0xa
 1224 0287 04       		.byte	0x4
 1225 0288 0B       		.uleb128 0xb
 1226 0289 A6020000 		.4byte	.LASF44
 1227 028d 24       		.byte	0x24
 1228 028e 07       		.byte	0x7
 1229 028f 0501     		.2byte	0x105
 1230 0291 16030000 		.4byte	0x316
 1231 0295 0C       		.uleb128 0xc
 1232 0296 723400   		.ascii	"r4\000"
 1233 0299 07       		.byte	0x7
 1234 029a 1801     		.2byte	0x118
 1235 029c 7B020000 		.4byte	0x27b
 1236 02a0 02       		.byte	0x2
 1237 02a1 23       		.byte	0x23
 1238 02a2 00       		.uleb128 0
 1239 02a3 0C       		.uleb128 0xc
 1240 02a4 723500   		.ascii	"r5\000"
 1241 02a7 07       		.byte	0x7
 1242 02a8 1901     		.2byte	0x119
 1243 02aa 7B020000 		.4byte	0x27b
 1244 02ae 02       		.byte	0x2
 1245 02af 23       		.byte	0x23
 1246 02b0 04       		.uleb128 0x4
 1247 02b1 0C       		.uleb128 0xc
 1248 02b2 723600   		.ascii	"r6\000"
 1249 02b5 07       		.byte	0x7
ARM GAS  /var/folders/5n/p_75w94d66l9ssrldxqdhh700000gn/T//ccBRvTxC.s 			page 23


 1250 02b6 1A01     		.2byte	0x11a
 1251 02b8 7B020000 		.4byte	0x27b
 1252 02bc 02       		.byte	0x2
 1253 02bd 23       		.byte	0x23
 1254 02be 08       		.uleb128 0x8
 1255 02bf 0C       		.uleb128 0xc
 1256 02c0 723700   		.ascii	"r7\000"
 1257 02c3 07       		.byte	0x7
 1258 02c4 1B01     		.2byte	0x11b
 1259 02c6 7B020000 		.4byte	0x27b
 1260 02ca 02       		.byte	0x2
 1261 02cb 23       		.byte	0x23
 1262 02cc 0C       		.uleb128 0xc
 1263 02cd 0C       		.uleb128 0xc
 1264 02ce 723800   		.ascii	"r8\000"
 1265 02d1 07       		.byte	0x7
 1266 02d2 1C01     		.2byte	0x11c
 1267 02d4 7B020000 		.4byte	0x27b
 1268 02d8 02       		.byte	0x2
 1269 02d9 23       		.byte	0x23
 1270 02da 10       		.uleb128 0x10
 1271 02db 0C       		.uleb128 0xc
 1272 02dc 723900   		.ascii	"r9\000"
 1273 02df 07       		.byte	0x7
 1274 02e0 1D01     		.2byte	0x11d
 1275 02e2 7B020000 		.4byte	0x27b
 1276 02e6 02       		.byte	0x2
 1277 02e7 23       		.byte	0x23
 1278 02e8 14       		.uleb128 0x14
 1279 02e9 0C       		.uleb128 0xc
 1280 02ea 72313000 		.ascii	"r10\000"
 1281 02ee 07       		.byte	0x7
 1282 02ef 1E01     		.2byte	0x11e
 1283 02f1 7B020000 		.4byte	0x27b
 1284 02f5 02       		.byte	0x2
 1285 02f6 23       		.byte	0x23
 1286 02f7 18       		.uleb128 0x18
 1287 02f8 0C       		.uleb128 0xc
 1288 02f9 72313100 		.ascii	"r11\000"
 1289 02fd 07       		.byte	0x7
 1290 02fe 1F01     		.2byte	0x11f
 1291 0300 7B020000 		.4byte	0x27b
 1292 0304 02       		.byte	0x2
 1293 0305 23       		.byte	0x23
 1294 0306 1C       		.uleb128 0x1c
 1295 0307 0C       		.uleb128 0xc
 1296 0308 6C7200   		.ascii	"lr\000"
 1297 030b 07       		.byte	0x7
 1298 030c 2001     		.2byte	0x120
 1299 030e 7B020000 		.4byte	0x27b
 1300 0312 02       		.byte	0x2
 1301 0313 23       		.byte	0x23
 1302 0314 20       		.uleb128 0x20
 1303 0315 00       		.byte	0
 1304 0316 0B       		.uleb128 0xb
 1305 0317 EB000000 		.4byte	.LASF45
 1306 031b 04       		.byte	0x4
ARM GAS  /var/folders/5n/p_75w94d66l9ssrldxqdhh700000gn/T//ccBRvTxC.s 			page 24


 1307 031c 07       		.byte	0x7
 1308 031d 2A01     		.2byte	0x12a
 1309 031f 33030000 		.4byte	0x333
 1310 0323 0C       		.uleb128 0xc
 1311 0324 72313300 		.ascii	"r13\000"
 1312 0328 07       		.byte	0x7
 1313 0329 2B01     		.2byte	0x12b
 1314 032b 33030000 		.4byte	0x333
 1315 032f 02       		.byte	0x2
 1316 0330 23       		.byte	0x23
 1317 0331 00       		.uleb128 0
 1318 0332 00       		.byte	0
 1319 0333 09       		.uleb128 0x9
 1320 0334 04       		.byte	0x4
 1321 0335 88020000 		.4byte	0x288
 1322 0339 0D       		.uleb128 0xd
 1323 033a E8000000 		.4byte	0xe8
 1324 033e 08       		.uleb128 0x8
 1325 033f 1C       		.byte	0x1c
 1326 0340 08       		.byte	0x8
 1327 0341 57       		.byte	0x57
 1328 0342 9B030000 		.4byte	0x39b
 1329 0346 06       		.uleb128 0x6
 1330 0347 2C020000 		.4byte	.LASF46
 1331 034b 08       		.byte	0x8
 1332 034c 58       		.byte	0x58
 1333 034d 4E020000 		.4byte	0x24e
 1334 0351 02       		.byte	0x2
 1335 0352 23       		.byte	0x23
 1336 0353 00       		.uleb128 0
 1337 0354 06       		.uleb128 0x6
 1338 0355 F4010000 		.4byte	.LASF47
 1339 0359 08       		.byte	0x8
 1340 035a 59       		.byte	0x59
 1341 035b C7000000 		.4byte	0xc7
 1342 035f 02       		.byte	0x2
 1343 0360 23       		.byte	0x23
 1344 0361 08       		.uleb128 0x8
 1345 0362 06       		.uleb128 0x6
 1346 0363 74010000 		.4byte	.LASF48
 1347 0367 08       		.byte	0x8
 1348 0368 5B       		.byte	0x5b
 1349 0369 16030000 		.4byte	0x316
 1350 036d 02       		.byte	0x2
 1351 036e 23       		.byte	0x23
 1352 036f 0C       		.uleb128 0xc
 1353 0370 06       		.uleb128 0x6
 1354 0371 AE000000 		.4byte	.LASF49
 1355 0375 08       		.byte	0x8
 1356 0376 5E       		.byte	0x5e
 1357 0377 48020000 		.4byte	0x248
 1358 037b 02       		.byte	0x2
 1359 037c 23       		.byte	0x23
 1360 037d 10       		.uleb128 0x10
 1361 037e 06       		.uleb128 0x6
 1362 037f 99010000 		.4byte	.LASF50
 1363 0383 08       		.byte	0x8
ARM GAS  /var/folders/5n/p_75w94d66l9ssrldxqdhh700000gn/T//ccBRvTxC.s 			page 25


 1364 0384 5F       		.byte	0x5f
 1365 0385 48020000 		.4byte	0x248
 1366 0389 02       		.byte	0x2
 1367 038a 23       		.byte	0x23
 1368 038b 14       		.uleb128 0x14
 1369 038c 06       		.uleb128 0x6
 1370 038d 8F010000 		.4byte	.LASF51
 1371 0391 08       		.byte	0x8
 1372 0392 62       		.byte	0x62
 1373 0393 48020000 		.4byte	0x248
 1374 0397 02       		.byte	0x2
 1375 0398 23       		.byte	0x23
 1376 0399 18       		.uleb128 0x18
 1377 039a 00       		.byte	0
 1378 039b 04       		.uleb128 0x4
 1379 039c C9020000 		.4byte	.LASF52
 1380 03a0 08       		.byte	0x8
 1381 03a1 64       		.byte	0x64
 1382 03a2 3E030000 		.4byte	0x33e
 1383 03a6 05       		.uleb128 0x5
 1384 03a7 5C010000 		.4byte	.LASF53
 1385 03ab 10       		.byte	0x10
 1386 03ac 09       		.byte	0x9
 1387 03ad 25       		.byte	0x25
 1388 03ae DD030000 		.4byte	0x3dd
 1389 03b2 06       		.uleb128 0x6
 1390 03b3 69000000 		.4byte	.LASF54
 1391 03b7 09       		.byte	0x9
 1392 03b8 26       		.byte	0x26
 1393 03b9 4E020000 		.4byte	0x24e
 1394 03bd 02       		.byte	0x2
 1395 03be 23       		.byte	0x23
 1396 03bf 00       		.uleb128 0
 1397 03c0 06       		.uleb128 0x6
 1398 03c1 45030000 		.4byte	.LASF55
 1399 03c5 09       		.byte	0x9
 1400 03c6 28       		.byte	0x28
 1401 03c7 48020000 		.4byte	0x248
 1402 03cb 02       		.byte	0x2
 1403 03cc 23       		.byte	0x23
 1404 03cd 08       		.uleb128 0x8
 1405 03ce 06       		.uleb128 0x6
 1406 03cf 61020000 		.4byte	.LASF56
 1407 03d3 09       		.byte	0x9
 1408 03d4 2A       		.byte	0x2a
 1409 03d5 DD030000 		.4byte	0x3dd
 1410 03d9 02       		.byte	0x2
 1411 03da 23       		.byte	0x23
 1412 03db 0C       		.uleb128 0xc
 1413 03dc 00       		.byte	0
 1414 03dd 09       		.uleb128 0x9
 1415 03de 04       		.byte	0x4
 1416 03df A6030000 		.4byte	0x3a6
 1417 03e3 04       		.uleb128 0x4
 1418 03e4 5C010000 		.4byte	.LASF53
 1419 03e8 09       		.byte	0x9
 1420 03e9 2C       		.byte	0x2c
ARM GAS  /var/folders/5n/p_75w94d66l9ssrldxqdhh700000gn/T//ccBRvTxC.s 			page 26


 1421 03ea A6030000 		.4byte	0x3a6
 1422 03ee 0E       		.uleb128 0xe
 1423 03ef 04       		.byte	0x4
 1424 03f0 06       		.byte	0x6
 1425 03f1 8F       		.byte	0x8f
 1426 03f2 23040000 		.4byte	0x423
 1427 03f6 0F       		.uleb128 0xf
 1428 03f7 06000000 		.4byte	.LASF57
 1429 03fb 06       		.byte	0x6
 1430 03fc 96       		.byte	0x96
 1431 03fd D2000000 		.4byte	0xd2
 1432 0401 0F       		.uleb128 0xf
 1433 0402 24000000 		.4byte	.LASF58
 1434 0406 06       		.byte	0x6
 1435 0407 9D       		.byte	0x9d
 1436 0408 D2000000 		.4byte	0xd2
 1437 040c 0F       		.uleb128 0xf
 1438 040d E1020000 		.4byte	.LASF59
 1439 0411 06       		.byte	0x6
 1440 0412 A4       		.byte	0xa4
 1441 0413 86020000 		.4byte	0x286
 1442 0417 0F       		.uleb128 0xf
 1443 0418 FB010000 		.4byte	.LASF60
 1444 041c 06       		.byte	0x6
 1445 041d AB       		.byte	0xab
 1446 041e DD000000 		.4byte	0xdd
 1447 0422 00       		.byte	0
 1448 0423 09       		.uleb128 0x9
 1449 0424 04       		.byte	0x4
 1450 0425 29040000 		.4byte	0x429
 1451 0429 10       		.uleb128 0x10
 1452 042a 2E040000 		.4byte	0x42e
 1453 042e 03       		.uleb128 0x3
 1454 042f 01       		.byte	0x1
 1455 0430 08       		.byte	0x8
 1456 0431 34020000 		.4byte	.LASF61
 1457 0435 09       		.uleb128 0x9
 1458 0436 04       		.byte	0x4
 1459 0437 E3030000 		.4byte	0x3e3
 1460 043b 11       		.uleb128 0x11
 1461 043c 87010000 		.4byte	.LASF62
 1462 0440 02       		.byte	0x2
 1463 0441 42       		.byte	0x42
 1464 0442 01       		.byte	0x1
 1465 0443 48020000 		.4byte	0x248
 1466 0447 03       		.byte	0x3
 1467 0448 57040000 		.4byte	0x457
 1468 044c 12       		.uleb128 0x12
 1469 044d 747000   		.ascii	"tp\000"
 1470 0450 02       		.byte	0x2
 1471 0451 42       		.byte	0x42
 1472 0452 48020000 		.4byte	0x248
 1473 0456 00       		.byte	0
 1474 0457 13       		.uleb128 0x13
 1475 0458 0C010000 		.4byte	.LASF76
 1476 045c 02       		.byte	0x2
 1477 045d 22       		.byte	0x22
ARM GAS  /var/folders/5n/p_75w94d66l9ssrldxqdhh700000gn/T//ccBRvTxC.s 			page 27


 1478 045e 01       		.byte	0x1
 1479 045f 03       		.byte	0x3
 1480 0460 84040000 		.4byte	0x484
 1481 0464 12       		.uleb128 0x12
 1482 0465 747000   		.ascii	"tp\000"
 1483 0468 02       		.byte	0x2
 1484 0469 22       		.byte	0x22
 1485 046a 48020000 		.4byte	0x248
 1486 046e 12       		.uleb128 0x12
 1487 046f 74717000 		.ascii	"tqp\000"
 1488 0473 02       		.byte	0x2
 1489 0474 22       		.byte	0x22
 1490 0475 84040000 		.4byte	0x484
 1491 0479 14       		.uleb128 0x14
 1492 047a 637000   		.ascii	"cp\000"
 1493 047d 02       		.byte	0x2
 1494 047e 24       		.byte	0x24
 1495 047f 48020000 		.4byte	0x248
 1496 0483 00       		.byte	0
 1497 0484 09       		.uleb128 0x9
 1498 0485 04       		.byte	0x4
 1499 0486 4E020000 		.4byte	0x24e
 1500 048a 15       		.uleb128 0x15
 1501 048b 01       		.byte	0x1
 1502 048c 98000000 		.4byte	.LASF77
 1503 0490 01       		.byte	0x1
 1504 0491 E3       		.byte	0xe3
 1505 0492 01       		.byte	0x1
 1506 0493 90000000 		.4byte	0x90
 1507 0497 01       		.byte	0x1
 1508 0498 A7040000 		.4byte	0x4a7
 1509 049c 12       		.uleb128 0x12
 1510 049d 6D7000   		.ascii	"mp\000"
 1511 04a0 01       		.byte	0x1
 1512 04a1 E3       		.byte	0xe3
 1513 04a2 35040000 		.4byte	0x435
 1514 04a6 00       		.byte	0
 1515 04a7 11       		.uleb128 0x11
 1516 04a8 39020000 		.4byte	.LASF63
 1517 04ac 02       		.byte	0x2
 1518 04ad 34       		.byte	0x34
 1519 04ae 01       		.byte	0x1
 1520 04af 48020000 		.4byte	0x248
 1521 04b3 03       		.byte	0x3
 1522 04b4 CE040000 		.4byte	0x4ce
 1523 04b8 12       		.uleb128 0x12
 1524 04b9 74717000 		.ascii	"tqp\000"
 1525 04bd 02       		.byte	0x2
 1526 04be 34       		.byte	0x34
 1527 04bf 84040000 		.4byte	0x484
 1528 04c3 14       		.uleb128 0x14
 1529 04c4 747000   		.ascii	"tp\000"
 1530 04c7 02       		.byte	0x2
 1531 04c8 35       		.byte	0x35
 1532 04c9 48020000 		.4byte	0x248
 1533 04cd 00       		.byte	0
 1534 04ce 16       		.uleb128 0x16
ARM GAS  /var/folders/5n/p_75w94d66l9ssrldxqdhh700000gn/T//ccBRvTxC.s 			page 28


 1535 04cf 01       		.byte	0x1
 1536 04d0 B8020000 		.4byte	.LASF64
 1537 04d4 01       		.byte	0x1
 1538 04d5 4F       		.byte	0x4f
 1539 04d6 01       		.byte	0x1
 1540 04d7 00000000 		.4byte	.LFB7
 1541 04db 0A000000 		.4byte	.LFE7
 1542 04df 02       		.byte	0x2
 1543 04e0 7D       		.byte	0x7d
 1544 04e1 00       		.sleb128 0
 1545 04e2 F3040000 		.4byte	0x4f3
 1546 04e6 17       		.uleb128 0x17
 1547 04e7 6D7000   		.ascii	"mp\000"
 1548 04ea 01       		.byte	0x1
 1549 04eb 4F       		.byte	0x4f
 1550 04ec 35040000 		.4byte	0x435
 1551 04f0 01       		.byte	0x1
 1552 04f1 50       		.byte	0x50
 1553 04f2 00       		.byte	0
 1554 04f3 18       		.uleb128 0x18
 1555 04f4 01       		.byte	0x1
 1556 04f5 8D000000 		.4byte	.LASF65
 1557 04f9 01       		.byte	0x1
 1558 04fa 72       		.byte	0x72
 1559 04fb 01       		.byte	0x1
 1560 04fc 00000000 		.4byte	.LFB9
 1561 0500 C4000000 		.4byte	.LFE9
 1562 0504 00000000 		.4byte	.LLST0
 1563 0508 34060000 		.4byte	0x634
 1564 050c 19       		.uleb128 0x19
 1565 050d 6D7000   		.ascii	"mp\000"
 1566 0510 01       		.byte	0x1
 1567 0511 72       		.byte	0x72
 1568 0512 35040000 		.4byte	0x435
 1569 0516 20000000 		.4byte	.LLST1
 1570 051a 1A       		.uleb128 0x1a
 1571 051b 63747000 		.ascii	"ctp\000"
 1572 051f 01       		.byte	0x1
 1573 0520 73       		.byte	0x73
 1574 0521 48020000 		.4byte	0x248
 1575 0525 3E000000 		.4byte	.LLST2
 1576 0529 1B       		.uleb128 0x1b
 1577 052a 00000000 		.4byte	.Ldebug_ranges0+0
 1578 052e 1A       		.uleb128 0x1a
 1579 052f 747000   		.ascii	"tp\000"
 1580 0532 01       		.byte	0x1
 1581 0533 7D       		.byte	0x7d
 1582 0534 48020000 		.4byte	0x248
 1583 0538 5D000000 		.4byte	.LLST3
 1584 053c 1C       		.uleb128 0x1c
 1585 053d 57040000 		.4byte	0x457
 1586 0541 26000000 		.4byte	.LBB34
 1587 0545 20000000 		.4byte	.Ldebug_ranges0+0x20
 1588 0549 01       		.byte	0x1
 1589 054a A6       		.byte	0xa6
 1590 054b 71050000 		.4byte	0x571
 1591 054f 1D       		.uleb128 0x1d
ARM GAS  /var/folders/5n/p_75w94d66l9ssrldxqdhh700000gn/T//ccBRvTxC.s 			page 29


 1592 0550 6E040000 		.4byte	0x46e
 1593 0554 A9000000 		.4byte	.LLST4
 1594 0558 1D       		.uleb128 0x1d
 1595 0559 64040000 		.4byte	0x464
 1596 055d BC000000 		.4byte	.LLST5
 1597 0561 1B       		.uleb128 0x1b
 1598 0562 38000000 		.4byte	.Ldebug_ranges0+0x38
 1599 0566 1E       		.uleb128 0x1e
 1600 0567 79040000 		.4byte	0x479
 1601 056b CF000000 		.4byte	.LLST6
 1602 056f 00       		.byte	0
 1603 0570 00       		.byte	0
 1604 0571 1F       		.uleb128 0x1f
 1605 0572 3B040000 		.4byte	0x43b
 1606 0576 4A000000 		.4byte	.LBB38
 1607 057a 54000000 		.4byte	.LBE38
 1608 057e 01       		.byte	0x1
 1609 057f A0       		.byte	0xa0
 1610 0580 8E050000 		.4byte	0x58e
 1611 0584 1D       		.uleb128 0x1d
 1612 0585 4C040000 		.4byte	0x44c
 1613 0589 ED000000 		.4byte	.LLST7
 1614 058d 00       		.byte	0
 1615 058e 1C       		.uleb128 0x1c
 1616 058f 3B040000 		.4byte	0x43b
 1617 0593 5A000000 		.4byte	.LBB40
 1618 0597 50000000 		.4byte	.Ldebug_ranges0+0x50
 1619 059b 01       		.byte	0x1
 1620 059c 97       		.byte	0x97
 1621 059d AB050000 		.4byte	0x5ab
 1622 05a1 1D       		.uleb128 0x1d
 1623 05a2 4C040000 		.4byte	0x44c
 1624 05a6 00010000 		.4byte	.LLST8
 1625 05aa 00       		.byte	0
 1626 05ab 1F       		.uleb128 0x1f
 1627 05ac 57040000 		.4byte	0x457
 1628 05b0 68000000 		.4byte	.LBB46
 1629 05b4 80000000 		.4byte	.LBE46
 1630 05b8 01       		.byte	0x1
 1631 05b9 97       		.byte	0x97
 1632 05ba E4050000 		.4byte	0x5e4
 1633 05be 1D       		.uleb128 0x1d
 1634 05bf 6E040000 		.4byte	0x46e
 1635 05c3 13010000 		.4byte	.LLST9
 1636 05c7 1D       		.uleb128 0x1d
 1637 05c8 64040000 		.4byte	0x464
 1638 05cc 27010000 		.4byte	.LLST10
 1639 05d0 20       		.uleb128 0x20
 1640 05d1 68000000 		.4byte	.LBB47
 1641 05d5 80000000 		.4byte	.LBE47
 1642 05d9 1E       		.uleb128 0x1e
 1643 05da 79040000 		.4byte	0x479
 1644 05de 3A010000 		.4byte	.LLST11
 1645 05e2 00       		.byte	0
 1646 05e3 00       		.byte	0
 1647 05e4 1C       		.uleb128 0x1c
 1648 05e5 3B040000 		.4byte	0x43b
ARM GAS  /var/folders/5n/p_75w94d66l9ssrldxqdhh700000gn/T//ccBRvTxC.s 			page 30


 1649 05e9 80000000 		.4byte	.LBB48
 1650 05ed 70000000 		.4byte	.Ldebug_ranges0+0x70
 1651 05f1 01       		.byte	0x1
 1652 05f2 87       		.byte	0x87
 1653 05f3 01060000 		.4byte	0x601
 1654 05f7 1D       		.uleb128 0x1d
 1655 05f8 4C040000 		.4byte	0x44c
 1656 05fc 59010000 		.4byte	.LLST12
 1657 0600 00       		.byte	0
 1658 0601 21       		.uleb128 0x21
 1659 0602 57040000 		.4byte	0x457
 1660 0606 8E000000 		.4byte	.LBB54
 1661 060a 90000000 		.4byte	.Ldebug_ranges0+0x90
 1662 060e 01       		.byte	0x1
 1663 060f 87       		.byte	0x87
 1664 0610 1D       		.uleb128 0x1d
 1665 0611 6E040000 		.4byte	0x46e
 1666 0615 83010000 		.4byte	.LLST13
 1667 0619 1D       		.uleb128 0x1d
 1668 061a 64040000 		.4byte	0x464
 1669 061e AD010000 		.4byte	.LLST14
 1670 0622 1B       		.uleb128 0x1b
 1671 0623 A8000000 		.4byte	.Ldebug_ranges0+0xa8
 1672 0627 1E       		.uleb128 0x1e
 1673 0628 79040000 		.4byte	0x479
 1674 062c D7010000 		.4byte	.LLST15
 1675 0630 00       		.byte	0
 1676 0631 00       		.byte	0
 1677 0632 00       		.byte	0
 1678 0633 00       		.byte	0
 1679 0634 18       		.uleb128 0x18
 1680 0635 01       		.byte	0x1
 1681 0636 62010000 		.4byte	.LASF66
 1682 063a 01       		.byte	0x1
 1683 063b 60       		.byte	0x60
 1684 063c 01       		.byte	0x1
 1685 063d 00000000 		.4byte	.LFB8
 1686 0641 14000000 		.4byte	.LFE8
 1687 0645 01020000 		.4byte	.LLST16
 1688 0649 92060000 		.4byte	0x692
 1689 064d 19       		.uleb128 0x19
 1690 064e 6D7000   		.ascii	"mp\000"
 1691 0651 01       		.byte	0x1
 1692 0652 60       		.byte	0x60
 1693 0653 35040000 		.4byte	0x435
 1694 0657 21020000 		.4byte	.LLST17
 1695 065b 22       		.uleb128 0x22
 1696 065c 02000000 		.4byte	.LBB60
 1697 0660 08000000 		.4byte	.LBE60
 1698 0664 78060000 		.4byte	0x678
 1699 0668 1A       		.uleb128 0x1a
 1700 0669 746D7000 		.ascii	"tmp\000"
 1701 066d 01       		.byte	0x1
 1702 066e 62       		.byte	0x62
 1703 066f 70000000 		.4byte	0x70
 1704 0673 34020000 		.4byte	.LLST18
 1705 0677 00       		.byte	0
ARM GAS  /var/folders/5n/p_75w94d66l9ssrldxqdhh700000gn/T//ccBRvTxC.s 			page 31


 1706 0678 20       		.uleb128 0x20
 1707 0679 0C000000 		.4byte	.LBB61
 1708 067d 12000000 		.4byte	.LBE61
 1709 0681 1A       		.uleb128 0x1a
 1710 0682 746D7000 		.ascii	"tmp\000"
 1711 0686 01       		.byte	0x1
 1712 0687 66       		.byte	0x66
 1713 0688 70000000 		.4byte	0x70
 1714 068c 47020000 		.4byte	.LLST19
 1715 0690 00       		.byte	0
 1716 0691 00       		.byte	0
 1717 0692 23       		.uleb128 0x23
 1718 0693 01       		.byte	0x1
 1719 0694 4F010000 		.4byte	.LASF67
 1720 0698 01       		.byte	0x1
 1721 0699 C7       		.byte	0xc7
 1722 069a 01       		.byte	0x1
 1723 069b 90000000 		.4byte	0x90
 1724 069f 00000000 		.4byte	.LFB10
 1725 06a3 2C000000 		.4byte	.LFE10
 1726 06a7 02       		.byte	0x2
 1727 06a8 7D       		.byte	0x7d
 1728 06a9 00       		.sleb128 0
 1729 06aa 1B070000 		.4byte	0x71b
 1730 06ae 19       		.uleb128 0x19
 1731 06af 6D7000   		.ascii	"mp\000"
 1732 06b2 01       		.byte	0x1
 1733 06b3 C7       		.byte	0xc7
 1734 06b4 35040000 		.4byte	0x435
 1735 06b8 5A020000 		.4byte	.LLST20
 1736 06bc 24       		.uleb128 0x24
 1737 06bd 6200     		.ascii	"b\000"
 1738 06bf 01       		.byte	0x1
 1739 06c0 C8       		.byte	0xc8
 1740 06c1 90000000 		.4byte	0x90
 1741 06c5 01       		.byte	0x1
 1742 06c6 50       		.byte	0x50
 1743 06c7 22       		.uleb128 0x22
 1744 06c8 02000000 		.4byte	.LBB62
 1745 06cc 08000000 		.4byte	.LBE62
 1746 06d0 E4060000 		.4byte	0x6e4
 1747 06d4 1A       		.uleb128 0x1a
 1748 06d5 746D7000 		.ascii	"tmp\000"
 1749 06d9 01       		.byte	0x1
 1750 06da CA       		.byte	0xca
 1751 06db 70000000 		.4byte	0x70
 1752 06df 83020000 		.4byte	.LLST21
 1753 06e3 00       		.byte	0
 1754 06e4 1C       		.uleb128 0x1c
 1755 06e5 8A040000 		.4byte	0x48a
 1756 06e9 08000000 		.4byte	.LBB63
 1757 06ed C0000000 		.4byte	.Ldebug_ranges0+0xc0
 1758 06f1 01       		.byte	0x1
 1759 06f2 CC       		.byte	0xcc
 1760 06f3 01070000 		.4byte	0x701
 1761 06f7 1D       		.uleb128 0x1d
 1762 06f8 9C040000 		.4byte	0x49c
ARM GAS  /var/folders/5n/p_75w94d66l9ssrldxqdhh700000gn/T//ccBRvTxC.s 			page 32


 1763 06fc 96020000 		.4byte	.LLST22
 1764 0700 00       		.byte	0
 1765 0701 20       		.uleb128 0x20
 1766 0702 0E000000 		.4byte	.LBB66
 1767 0706 14000000 		.4byte	.LBE66
 1768 070a 1A       		.uleb128 0x1a
 1769 070b 746D7000 		.ascii	"tmp\000"
 1770 070f 01       		.byte	0x1
 1771 0710 CE       		.byte	0xce
 1772 0711 70000000 		.4byte	0x70
 1773 0715 B4020000 		.4byte	.LLST23
 1774 0719 00       		.byte	0
 1775 071a 00       		.byte	0
 1776 071b 25       		.uleb128 0x25
 1777 071c 8A040000 		.4byte	0x48a
 1778 0720 00000000 		.4byte	.LFB11
 1779 0724 20000000 		.4byte	.LFE11
 1780 0728 02       		.byte	0x2
 1781 0729 7D       		.byte	0x7d
 1782 072a 00       		.sleb128 0
 1783 072b 39070000 		.4byte	0x739
 1784 072f 1D       		.uleb128 0x1d
 1785 0730 9C040000 		.4byte	0x49c
 1786 0734 C7020000 		.4byte	.LLST24
 1787 0738 00       		.byte	0
 1788 0739 26       		.uleb128 0x26
 1789 073a 01       		.byte	0x1
 1790 073b 2D000000 		.4byte	.LASF68
 1791 073f 01       		.byte	0x1
 1792 0740 FA       		.byte	0xfa
 1793 0741 01       		.byte	0x1
 1794 0742 35040000 		.4byte	0x435
 1795 0746 00000000 		.4byte	.LFB12
 1796 074a 5C000000 		.4byte	.LFE12
 1797 074e E5020000 		.4byte	.LLST25
 1798 0752 08080000 		.4byte	0x808
 1799 0756 1A       		.uleb128 0x1a
 1800 0757 63747000 		.ascii	"ctp\000"
 1801 075b 01       		.byte	0x1
 1802 075c FB       		.byte	0xfb
 1803 075d 48020000 		.4byte	0x248
 1804 0761 05030000 		.4byte	.LLST26
 1805 0765 1A       		.uleb128 0x1a
 1806 0766 756D7000 		.ascii	"ump\000"
 1807 076a 01       		.byte	0x1
 1808 076b FC       		.byte	0xfc
 1809 076c 35040000 		.4byte	0x435
 1810 0770 18030000 		.4byte	.LLST27
 1811 0774 1A       		.uleb128 0x1a
 1812 0775 6D7000   		.ascii	"mp\000"
 1813 0778 01       		.byte	0x1
 1814 0779 FC       		.byte	0xfc
 1815 077a 35040000 		.4byte	0x435
 1816 077e 2B030000 		.4byte	.LLST28
 1817 0782 22       		.uleb128 0x22
 1818 0783 06000000 		.4byte	.LBB68
 1819 0787 0C000000 		.4byte	.LBE68
ARM GAS  /var/folders/5n/p_75w94d66l9ssrldxqdhh700000gn/T//ccBRvTxC.s 			page 33


 1820 078b 9F070000 		.4byte	0x79f
 1821 078f 1A       		.uleb128 0x1a
 1822 0790 746D7000 		.ascii	"tmp\000"
 1823 0794 01       		.byte	0x1
 1824 0795 FE       		.byte	0xfe
 1825 0796 70000000 		.4byte	0x70
 1826 079a 3E030000 		.4byte	.LLST29
 1827 079e 00       		.byte	0
 1828 079f 22       		.uleb128 0x22
 1829 07a0 18000000 		.4byte	.LBB69
 1830 07a4 48000000 		.4byte	.LBE69
 1831 07a8 ED070000 		.4byte	0x7ed
 1832 07ac 27       		.uleb128 0x27
 1833 07ad 747000   		.ascii	"tp\000"
 1834 07b0 01       		.byte	0x1
 1835 07b1 0B01     		.2byte	0x10b
 1836 07b3 48020000 		.4byte	0x248
 1837 07b7 28       		.uleb128 0x28
 1838 07b8 27010000 		.4byte	.LASF69
 1839 07bc 01       		.byte	0x1
 1840 07bd 0F01     		.2byte	0x10f
 1841 07bf C7000000 		.4byte	0xc7
 1842 07c3 51030000 		.4byte	.LLST30
 1843 07c7 29       		.uleb128 0x29
 1844 07c8 A7040000 		.4byte	0x4a7
 1845 07cc 30000000 		.4byte	.LBB70
 1846 07d0 D8000000 		.4byte	.Ldebug_ranges0+0xd8
 1847 07d4 01       		.byte	0x1
 1848 07d5 1E01     		.2byte	0x11e
 1849 07d7 1D       		.uleb128 0x1d
 1850 07d8 B8040000 		.4byte	0x4b8
 1851 07dc 64030000 		.4byte	.LLST31
 1852 07e0 1B       		.uleb128 0x1b
 1853 07e1 F8000000 		.4byte	.Ldebug_ranges0+0xf8
 1854 07e5 2A       		.uleb128 0x2a
 1855 07e6 C3040000 		.4byte	0x4c3
 1856 07ea 00       		.byte	0
 1857 07eb 00       		.byte	0
 1858 07ec 00       		.byte	0
 1859 07ed 20       		.uleb128 0x20
 1860 07ee 48000000 		.4byte	.LBB76
 1861 07f2 4E000000 		.4byte	.LBE76
 1862 07f6 2B       		.uleb128 0x2b
 1863 07f7 746D7000 		.ascii	"tmp\000"
 1864 07fb 01       		.byte	0x1
 1865 07fc 2601     		.2byte	0x126
 1866 07fe 70000000 		.4byte	0x70
 1867 0802 77030000 		.4byte	.LLST32
 1868 0806 00       		.byte	0
 1869 0807 00       		.byte	0
 1870 0808 2C       		.uleb128 0x2c
 1871 0809 01       		.byte	0x1
 1872 080a BF000000 		.4byte	.LASF70
 1873 080e 01       		.byte	0x1
 1874 080f 3601     		.2byte	0x136
 1875 0811 01       		.byte	0x1
 1876 0812 35040000 		.4byte	0x435
ARM GAS  /var/folders/5n/p_75w94d66l9ssrldxqdhh700000gn/T//ccBRvTxC.s 			page 34


 1877 0816 00000000 		.4byte	.LFB13
 1878 081a 50000000 		.4byte	.LFE13
 1879 081e 8A030000 		.4byte	.LLST33
 1880 0822 A0080000 		.4byte	0x8a0
 1881 0826 2B       		.uleb128 0x2b
 1882 0827 63747000 		.ascii	"ctp\000"
 1883 082b 01       		.byte	0x1
 1884 082c 3701     		.2byte	0x137
 1885 082e 48020000 		.4byte	0x248
 1886 0832 AA030000 		.4byte	.LLST34
 1887 0836 2B       		.uleb128 0x2b
 1888 0837 756D7000 		.ascii	"ump\000"
 1889 083b 01       		.byte	0x1
 1890 083c 3801     		.2byte	0x138
 1891 083e 35040000 		.4byte	0x435
 1892 0842 C9030000 		.4byte	.LLST35
 1893 0846 2B       		.uleb128 0x2b
 1894 0847 6D7000   		.ascii	"mp\000"
 1895 084a 01       		.byte	0x1
 1896 084b 3801     		.2byte	0x138
 1897 084d 35040000 		.4byte	0x435
 1898 0851 EB030000 		.4byte	.LLST36
 1899 0855 20       		.uleb128 0x20
 1900 0856 12000000 		.4byte	.LBB77
 1901 085a 40000000 		.4byte	.LBE77
 1902 085e 27       		.uleb128 0x27
 1903 085f 747000   		.ascii	"tp\000"
 1904 0862 01       		.byte	0x1
 1905 0863 4801     		.2byte	0x148
 1906 0865 48020000 		.4byte	0x248
 1907 0869 28       		.uleb128 0x28
 1908 086a 27010000 		.4byte	.LASF69
 1909 086e 01       		.byte	0x1
 1910 086f 4C01     		.2byte	0x14c
 1911 0871 C7000000 		.4byte	0xc7
 1912 0875 FE030000 		.4byte	.LLST37
 1913 0879 29       		.uleb128 0x29
 1914 087a A7040000 		.4byte	0x4a7
 1915 087e 2A000000 		.4byte	.LBB78
 1916 0882 18010000 		.4byte	.Ldebug_ranges0+0x118
 1917 0886 01       		.byte	0x1
 1918 0887 5901     		.2byte	0x159
 1919 0889 1D       		.uleb128 0x1d
 1920 088a B8040000 		.4byte	0x4b8
 1921 088e 11040000 		.4byte	.LLST38
 1922 0892 1B       		.uleb128 0x1b
 1923 0893 30010000 		.4byte	.Ldebug_ranges0+0x130
 1924 0897 2A       		.uleb128 0x2a
 1925 0898 C3040000 		.4byte	0x4c3
 1926 089c 00       		.byte	0
 1927 089d 00       		.byte	0
 1928 089e 00       		.byte	0
 1929 089f 00       		.byte	0
 1930 08a0 2D       		.uleb128 0x2d
 1931 08a1 01       		.byte	0x1
 1932 08a2 18010000 		.4byte	.LASF71
 1933 08a6 01       		.byte	0x1
ARM GAS  /var/folders/5n/p_75w94d66l9ssrldxqdhh700000gn/T//ccBRvTxC.s 			page 35


 1934 08a7 6F01     		.2byte	0x16f
 1935 08a9 01       		.byte	0x1
 1936 08aa 00000000 		.4byte	.LFB14
 1937 08ae 50000000 		.4byte	.LFE14
 1938 08b2 24040000 		.4byte	.LLST39
 1939 08b6 5B090000 		.4byte	0x95b
 1940 08ba 2B       		.uleb128 0x2b
 1941 08bb 63747000 		.ascii	"ctp\000"
 1942 08bf 01       		.byte	0x1
 1943 08c0 7001     		.2byte	0x170
 1944 08c2 48020000 		.4byte	0x248
 1945 08c6 44040000 		.4byte	.LLST40
 1946 08ca 2E       		.uleb128 0x2e
 1947 08cb 48010000 		.4byte	.Ldebug_ranges0+0x148
 1948 08cf E4080000 		.4byte	0x8e4
 1949 08d3 2B       		.uleb128 0x2b
 1950 08d4 746D7000 		.ascii	"tmp\000"
 1951 08d8 01       		.byte	0x1
 1952 08d9 7201     		.2byte	0x172
 1953 08db 70000000 		.4byte	0x70
 1954 08df 63040000 		.4byte	.LLST41
 1955 08e3 00       		.byte	0
 1956 08e4 22       		.uleb128 0x22
 1957 08e5 10000000 		.4byte	.LBB84
 1958 08e9 34000000 		.4byte	.LBE84
 1959 08ed 40090000 		.4byte	0x940
 1960 08f1 2B       		.uleb128 0x2b
 1961 08f2 756D7000 		.ascii	"ump\000"
 1962 08f6 01       		.byte	0x1
 1963 08f7 7501     		.2byte	0x175
 1964 08f9 35040000 		.4byte	0x435
 1965 08fd 76040000 		.4byte	.LLST42
 1966 0901 20       		.uleb128 0x20
 1967 0902 20000000 		.4byte	.LBB85
 1968 0906 34000000 		.4byte	.LBE85
 1969 090a 27       		.uleb128 0x27
 1970 090b 747000   		.ascii	"tp\000"
 1971 090e 01       		.byte	0x1
 1972 090f 7801     		.2byte	0x178
 1973 0911 48020000 		.4byte	0x248
 1974 0915 29       		.uleb128 0x29
 1975 0916 A7040000 		.4byte	0x4a7
 1976 091a 20000000 		.4byte	.LBB86
 1977 091e 60010000 		.4byte	.Ldebug_ranges0+0x160
 1978 0922 01       		.byte	0x1
 1979 0923 7801     		.2byte	0x178
 1980 0925 1D       		.uleb128 0x1d
 1981 0926 B8040000 		.4byte	0x4b8
 1982 092a 89040000 		.4byte	.LLST43
 1983 092e 1B       		.uleb128 0x1b
 1984 092f 80010000 		.4byte	.Ldebug_ranges0+0x180
 1985 0933 1E       		.uleb128 0x1e
 1986 0934 C3040000 		.4byte	0x4c3
 1987 0938 9C040000 		.4byte	.LLST44
 1988 093c 00       		.byte	0
 1989 093d 00       		.byte	0
 1990 093e 00       		.byte	0
ARM GAS  /var/folders/5n/p_75w94d66l9ssrldxqdhh700000gn/T//ccBRvTxC.s 			page 36


 1991 093f 00       		.byte	0
 1992 0940 20       		.uleb128 0x20
 1993 0941 42000000 		.4byte	.LBB92
 1994 0945 48000000 		.4byte	.LBE92
 1995 0949 2B       		.uleb128 0x2b
 1996 094a 746D7000 		.ascii	"tmp\000"
 1997 094e 01       		.byte	0x1
 1998 094f 8401     		.2byte	0x184
 1999 0951 70000000 		.4byte	0x70
 2000 0955 B0040000 		.4byte	.LLST45
 2001 0959 00       		.byte	0
 2002 095a 00       		.byte	0
 2003 095b 2F       		.uleb128 0x2f
 2004 095c D3020000 		.4byte	.LASF72
 2005 0960 08       		.byte	0x8
 2006 0961 68       		.byte	0x68
 2007 0962 9B030000 		.4byte	0x39b
 2008 0966 01       		.byte	0x1
 2009 0967 01       		.byte	0x1
 2010 0968 2F       		.uleb128 0x2f
 2011 0969 D3020000 		.4byte	.LASF72
 2012 096d 08       		.byte	0x8
 2013 096e 68       		.byte	0x68
 2014 096f 9B030000 		.4byte	0x39b
 2015 0973 01       		.byte	0x1
 2016 0974 01       		.byte	0x1
 2017 0975 00       		.byte	0
 2018              		.section	.debug_abbrev,"",%progbits
 2019              	.Ldebug_abbrev0:
 2020 0000 01       		.uleb128 0x1
 2021 0001 11       		.uleb128 0x11
 2022 0002 01       		.byte	0x1
 2023 0003 25       		.uleb128 0x25
 2024 0004 0E       		.uleb128 0xe
 2025 0005 13       		.uleb128 0x13
 2026 0006 0B       		.uleb128 0xb
 2027 0007 03       		.uleb128 0x3
 2028 0008 0E       		.uleb128 0xe
 2029 0009 1B       		.uleb128 0x1b
 2030 000a 0E       		.uleb128 0xe
 2031 000b 11       		.uleb128 0x11
 2032 000c 01       		.uleb128 0x1
 2033 000d 52       		.uleb128 0x52
 2034 000e 01       		.uleb128 0x1
 2035 000f 55       		.uleb128 0x55
 2036 0010 06       		.uleb128 0x6
 2037 0011 10       		.uleb128 0x10
 2038 0012 06       		.uleb128 0x6
 2039 0013 00       		.byte	0
 2040 0014 00       		.byte	0
 2041 0015 02       		.uleb128 0x2
 2042 0016 24       		.uleb128 0x24
 2043 0017 00       		.byte	0
 2044 0018 0B       		.uleb128 0xb
 2045 0019 0B       		.uleb128 0xb
 2046 001a 3E       		.uleb128 0x3e
 2047 001b 0B       		.uleb128 0xb
ARM GAS  /var/folders/5n/p_75w94d66l9ssrldxqdhh700000gn/T//ccBRvTxC.s 			page 37


 2048 001c 03       		.uleb128 0x3
 2049 001d 08       		.uleb128 0x8
 2050 001e 00       		.byte	0
 2051 001f 00       		.byte	0
 2052 0020 03       		.uleb128 0x3
 2053 0021 24       		.uleb128 0x24
 2054 0022 00       		.byte	0
 2055 0023 0B       		.uleb128 0xb
 2056 0024 0B       		.uleb128 0xb
 2057 0025 3E       		.uleb128 0x3e
 2058 0026 0B       		.uleb128 0xb
 2059 0027 03       		.uleb128 0x3
 2060 0028 0E       		.uleb128 0xe
 2061 0029 00       		.byte	0
 2062 002a 00       		.byte	0
 2063 002b 04       		.uleb128 0x4
 2064 002c 16       		.uleb128 0x16
 2065 002d 00       		.byte	0
 2066 002e 03       		.uleb128 0x3
 2067 002f 0E       		.uleb128 0xe
 2068 0030 3A       		.uleb128 0x3a
 2069 0031 0B       		.uleb128 0xb
 2070 0032 3B       		.uleb128 0x3b
 2071 0033 0B       		.uleb128 0xb
 2072 0034 49       		.uleb128 0x49
 2073 0035 13       		.uleb128 0x13
 2074 0036 00       		.byte	0
 2075 0037 00       		.byte	0
 2076 0038 05       		.uleb128 0x5
 2077 0039 13       		.uleb128 0x13
 2078 003a 01       		.byte	0x1
 2079 003b 03       		.uleb128 0x3
 2080 003c 0E       		.uleb128 0xe
 2081 003d 0B       		.uleb128 0xb
 2082 003e 0B       		.uleb128 0xb
 2083 003f 3A       		.uleb128 0x3a
 2084 0040 0B       		.uleb128 0xb
 2085 0041 3B       		.uleb128 0x3b
 2086 0042 0B       		.uleb128 0xb
 2087 0043 01       		.uleb128 0x1
 2088 0044 13       		.uleb128 0x13
 2089 0045 00       		.byte	0
 2090 0046 00       		.byte	0
 2091 0047 06       		.uleb128 0x6
 2092 0048 0D       		.uleb128 0xd
 2093 0049 00       		.byte	0
 2094 004a 03       		.uleb128 0x3
 2095 004b 0E       		.uleb128 0xe
 2096 004c 3A       		.uleb128 0x3a
 2097 004d 0B       		.uleb128 0xb
 2098 004e 3B       		.uleb128 0x3b
 2099 004f 0B       		.uleb128 0xb
 2100 0050 49       		.uleb128 0x49
 2101 0051 13       		.uleb128 0x13
 2102 0052 38       		.uleb128 0x38
 2103 0053 0A       		.uleb128 0xa
 2104 0054 00       		.byte	0
ARM GAS  /var/folders/5n/p_75w94d66l9ssrldxqdhh700000gn/T//ccBRvTxC.s 			page 38


 2105 0055 00       		.byte	0
 2106 0056 07       		.uleb128 0x7
 2107 0057 0D       		.uleb128 0xd
 2108 0058 00       		.byte	0
 2109 0059 03       		.uleb128 0x3
 2110 005a 08       		.uleb128 0x8
 2111 005b 3A       		.uleb128 0x3a
 2112 005c 0B       		.uleb128 0xb
 2113 005d 3B       		.uleb128 0x3b
 2114 005e 0B       		.uleb128 0xb
 2115 005f 49       		.uleb128 0x49
 2116 0060 13       		.uleb128 0x13
 2117 0061 38       		.uleb128 0x38
 2118 0062 0A       		.uleb128 0xa
 2119 0063 00       		.byte	0
 2120 0064 00       		.byte	0
 2121 0065 08       		.uleb128 0x8
 2122 0066 13       		.uleb128 0x13
 2123 0067 01       		.byte	0x1
 2124 0068 0B       		.uleb128 0xb
 2125 0069 0B       		.uleb128 0xb
 2126 006a 3A       		.uleb128 0x3a
 2127 006b 0B       		.uleb128 0xb
 2128 006c 3B       		.uleb128 0x3b
 2129 006d 0B       		.uleb128 0xb
 2130 006e 01       		.uleb128 0x1
 2131 006f 13       		.uleb128 0x13
 2132 0070 00       		.byte	0
 2133 0071 00       		.byte	0
 2134 0072 09       		.uleb128 0x9
 2135 0073 0F       		.uleb128 0xf
 2136 0074 00       		.byte	0
 2137 0075 0B       		.uleb128 0xb
 2138 0076 0B       		.uleb128 0xb
 2139 0077 49       		.uleb128 0x49
 2140 0078 13       		.uleb128 0x13
 2141 0079 00       		.byte	0
 2142 007a 00       		.byte	0
 2143 007b 0A       		.uleb128 0xa
 2144 007c 0F       		.uleb128 0xf
 2145 007d 00       		.byte	0
 2146 007e 0B       		.uleb128 0xb
 2147 007f 0B       		.uleb128 0xb
 2148 0080 00       		.byte	0
 2149 0081 00       		.byte	0
 2150 0082 0B       		.uleb128 0xb
 2151 0083 13       		.uleb128 0x13
 2152 0084 01       		.byte	0x1
 2153 0085 03       		.uleb128 0x3
 2154 0086 0E       		.uleb128 0xe
 2155 0087 0B       		.uleb128 0xb
 2156 0088 0B       		.uleb128 0xb
 2157 0089 3A       		.uleb128 0x3a
 2158 008a 0B       		.uleb128 0xb
 2159 008b 3B       		.uleb128 0x3b
 2160 008c 05       		.uleb128 0x5
 2161 008d 01       		.uleb128 0x1
ARM GAS  /var/folders/5n/p_75w94d66l9ssrldxqdhh700000gn/T//ccBRvTxC.s 			page 39


 2162 008e 13       		.uleb128 0x13
 2163 008f 00       		.byte	0
 2164 0090 00       		.byte	0
 2165 0091 0C       		.uleb128 0xc
 2166 0092 0D       		.uleb128 0xd
 2167 0093 00       		.byte	0
 2168 0094 03       		.uleb128 0x3
 2169 0095 08       		.uleb128 0x8
 2170 0096 3A       		.uleb128 0x3a
 2171 0097 0B       		.uleb128 0xb
 2172 0098 3B       		.uleb128 0x3b
 2173 0099 05       		.uleb128 0x5
 2174 009a 49       		.uleb128 0x49
 2175 009b 13       		.uleb128 0x13
 2176 009c 38       		.uleb128 0x38
 2177 009d 0A       		.uleb128 0xa
 2178 009e 00       		.byte	0
 2179 009f 00       		.byte	0
 2180 00a0 0D       		.uleb128 0xd
 2181 00a1 35       		.uleb128 0x35
 2182 00a2 00       		.byte	0
 2183 00a3 49       		.uleb128 0x49
 2184 00a4 13       		.uleb128 0x13
 2185 00a5 00       		.byte	0
 2186 00a6 00       		.byte	0
 2187 00a7 0E       		.uleb128 0xe
 2188 00a8 17       		.uleb128 0x17
 2189 00a9 01       		.byte	0x1
 2190 00aa 0B       		.uleb128 0xb
 2191 00ab 0B       		.uleb128 0xb
 2192 00ac 3A       		.uleb128 0x3a
 2193 00ad 0B       		.uleb128 0xb
 2194 00ae 3B       		.uleb128 0x3b
 2195 00af 0B       		.uleb128 0xb
 2196 00b0 01       		.uleb128 0x1
 2197 00b1 13       		.uleb128 0x13
 2198 00b2 00       		.byte	0
 2199 00b3 00       		.byte	0
 2200 00b4 0F       		.uleb128 0xf
 2201 00b5 0D       		.uleb128 0xd
 2202 00b6 00       		.byte	0
 2203 00b7 03       		.uleb128 0x3
 2204 00b8 0E       		.uleb128 0xe
 2205 00b9 3A       		.uleb128 0x3a
 2206 00ba 0B       		.uleb128 0xb
 2207 00bb 3B       		.uleb128 0x3b
 2208 00bc 0B       		.uleb128 0xb
 2209 00bd 49       		.uleb128 0x49
 2210 00be 13       		.uleb128 0x13
 2211 00bf 00       		.byte	0
 2212 00c0 00       		.byte	0
 2213 00c1 10       		.uleb128 0x10
 2214 00c2 26       		.uleb128 0x26
 2215 00c3 00       		.byte	0
 2216 00c4 49       		.uleb128 0x49
 2217 00c5 13       		.uleb128 0x13
 2218 00c6 00       		.byte	0
ARM GAS  /var/folders/5n/p_75w94d66l9ssrldxqdhh700000gn/T//ccBRvTxC.s 			page 40


 2219 00c7 00       		.byte	0
 2220 00c8 11       		.uleb128 0x11
 2221 00c9 2E       		.uleb128 0x2e
 2222 00ca 01       		.byte	0x1
 2223 00cb 03       		.uleb128 0x3
 2224 00cc 0E       		.uleb128 0xe
 2225 00cd 3A       		.uleb128 0x3a
 2226 00ce 0B       		.uleb128 0xb
 2227 00cf 3B       		.uleb128 0x3b
 2228 00d0 0B       		.uleb128 0xb
 2229 00d1 27       		.uleb128 0x27
 2230 00d2 0C       		.uleb128 0xc
 2231 00d3 49       		.uleb128 0x49
 2232 00d4 13       		.uleb128 0x13
 2233 00d5 20       		.uleb128 0x20
 2234 00d6 0B       		.uleb128 0xb
 2235 00d7 01       		.uleb128 0x1
 2236 00d8 13       		.uleb128 0x13
 2237 00d9 00       		.byte	0
 2238 00da 00       		.byte	0
 2239 00db 12       		.uleb128 0x12
 2240 00dc 05       		.uleb128 0x5
 2241 00dd 00       		.byte	0
 2242 00de 03       		.uleb128 0x3
 2243 00df 08       		.uleb128 0x8
 2244 00e0 3A       		.uleb128 0x3a
 2245 00e1 0B       		.uleb128 0xb
 2246 00e2 3B       		.uleb128 0x3b
 2247 00e3 0B       		.uleb128 0xb
 2248 00e4 49       		.uleb128 0x49
 2249 00e5 13       		.uleb128 0x13
 2250 00e6 00       		.byte	0
 2251 00e7 00       		.byte	0
 2252 00e8 13       		.uleb128 0x13
 2253 00e9 2E       		.uleb128 0x2e
 2254 00ea 01       		.byte	0x1
 2255 00eb 03       		.uleb128 0x3
 2256 00ec 0E       		.uleb128 0xe
 2257 00ed 3A       		.uleb128 0x3a
 2258 00ee 0B       		.uleb128 0xb
 2259 00ef 3B       		.uleb128 0x3b
 2260 00f0 0B       		.uleb128 0xb
 2261 00f1 27       		.uleb128 0x27
 2262 00f2 0C       		.uleb128 0xc
 2263 00f3 20       		.uleb128 0x20
 2264 00f4 0B       		.uleb128 0xb
 2265 00f5 01       		.uleb128 0x1
 2266 00f6 13       		.uleb128 0x13
 2267 00f7 00       		.byte	0
 2268 00f8 00       		.byte	0
 2269 00f9 14       		.uleb128 0x14
 2270 00fa 34       		.uleb128 0x34
 2271 00fb 00       		.byte	0
 2272 00fc 03       		.uleb128 0x3
 2273 00fd 08       		.uleb128 0x8
 2274 00fe 3A       		.uleb128 0x3a
 2275 00ff 0B       		.uleb128 0xb
ARM GAS  /var/folders/5n/p_75w94d66l9ssrldxqdhh700000gn/T//ccBRvTxC.s 			page 41


 2276 0100 3B       		.uleb128 0x3b
 2277 0101 0B       		.uleb128 0xb
 2278 0102 49       		.uleb128 0x49
 2279 0103 13       		.uleb128 0x13
 2280 0104 00       		.byte	0
 2281 0105 00       		.byte	0
 2282 0106 15       		.uleb128 0x15
 2283 0107 2E       		.uleb128 0x2e
 2284 0108 01       		.byte	0x1
 2285 0109 3F       		.uleb128 0x3f
 2286 010a 0C       		.uleb128 0xc
 2287 010b 03       		.uleb128 0x3
 2288 010c 0E       		.uleb128 0xe
 2289 010d 3A       		.uleb128 0x3a
 2290 010e 0B       		.uleb128 0xb
 2291 010f 3B       		.uleb128 0x3b
 2292 0110 0B       		.uleb128 0xb
 2293 0111 27       		.uleb128 0x27
 2294 0112 0C       		.uleb128 0xc
 2295 0113 49       		.uleb128 0x49
 2296 0114 13       		.uleb128 0x13
 2297 0115 20       		.uleb128 0x20
 2298 0116 0B       		.uleb128 0xb
 2299 0117 01       		.uleb128 0x1
 2300 0118 13       		.uleb128 0x13
 2301 0119 00       		.byte	0
 2302 011a 00       		.byte	0
 2303 011b 16       		.uleb128 0x16
 2304 011c 2E       		.uleb128 0x2e
 2305 011d 01       		.byte	0x1
 2306 011e 3F       		.uleb128 0x3f
 2307 011f 0C       		.uleb128 0xc
 2308 0120 03       		.uleb128 0x3
 2309 0121 0E       		.uleb128 0xe
 2310 0122 3A       		.uleb128 0x3a
 2311 0123 0B       		.uleb128 0xb
 2312 0124 3B       		.uleb128 0x3b
 2313 0125 0B       		.uleb128 0xb
 2314 0126 27       		.uleb128 0x27
 2315 0127 0C       		.uleb128 0xc
 2316 0128 11       		.uleb128 0x11
 2317 0129 01       		.uleb128 0x1
 2318 012a 12       		.uleb128 0x12
 2319 012b 01       		.uleb128 0x1
 2320 012c 40       		.uleb128 0x40
 2321 012d 0A       		.uleb128 0xa
 2322 012e 01       		.uleb128 0x1
 2323 012f 13       		.uleb128 0x13
 2324 0130 00       		.byte	0
 2325 0131 00       		.byte	0
 2326 0132 17       		.uleb128 0x17
 2327 0133 05       		.uleb128 0x5
 2328 0134 00       		.byte	0
 2329 0135 03       		.uleb128 0x3
 2330 0136 08       		.uleb128 0x8
 2331 0137 3A       		.uleb128 0x3a
 2332 0138 0B       		.uleb128 0xb
ARM GAS  /var/folders/5n/p_75w94d66l9ssrldxqdhh700000gn/T//ccBRvTxC.s 			page 42


 2333 0139 3B       		.uleb128 0x3b
 2334 013a 0B       		.uleb128 0xb
 2335 013b 49       		.uleb128 0x49
 2336 013c 13       		.uleb128 0x13
 2337 013d 02       		.uleb128 0x2
 2338 013e 0A       		.uleb128 0xa
 2339 013f 00       		.byte	0
 2340 0140 00       		.byte	0
 2341 0141 18       		.uleb128 0x18
 2342 0142 2E       		.uleb128 0x2e
 2343 0143 01       		.byte	0x1
 2344 0144 3F       		.uleb128 0x3f
 2345 0145 0C       		.uleb128 0xc
 2346 0146 03       		.uleb128 0x3
 2347 0147 0E       		.uleb128 0xe
 2348 0148 3A       		.uleb128 0x3a
 2349 0149 0B       		.uleb128 0xb
 2350 014a 3B       		.uleb128 0x3b
 2351 014b 0B       		.uleb128 0xb
 2352 014c 27       		.uleb128 0x27
 2353 014d 0C       		.uleb128 0xc
 2354 014e 11       		.uleb128 0x11
 2355 014f 01       		.uleb128 0x1
 2356 0150 12       		.uleb128 0x12
 2357 0151 01       		.uleb128 0x1
 2358 0152 40       		.uleb128 0x40
 2359 0153 06       		.uleb128 0x6
 2360 0154 01       		.uleb128 0x1
 2361 0155 13       		.uleb128 0x13
 2362 0156 00       		.byte	0
 2363 0157 00       		.byte	0
 2364 0158 19       		.uleb128 0x19
 2365 0159 05       		.uleb128 0x5
 2366 015a 00       		.byte	0
 2367 015b 03       		.uleb128 0x3
 2368 015c 08       		.uleb128 0x8
 2369 015d 3A       		.uleb128 0x3a
 2370 015e 0B       		.uleb128 0xb
 2371 015f 3B       		.uleb128 0x3b
 2372 0160 0B       		.uleb128 0xb
 2373 0161 49       		.uleb128 0x49
 2374 0162 13       		.uleb128 0x13
 2375 0163 02       		.uleb128 0x2
 2376 0164 06       		.uleb128 0x6
 2377 0165 00       		.byte	0
 2378 0166 00       		.byte	0
 2379 0167 1A       		.uleb128 0x1a
 2380 0168 34       		.uleb128 0x34
 2381 0169 00       		.byte	0
 2382 016a 03       		.uleb128 0x3
 2383 016b 08       		.uleb128 0x8
 2384 016c 3A       		.uleb128 0x3a
 2385 016d 0B       		.uleb128 0xb
 2386 016e 3B       		.uleb128 0x3b
 2387 016f 0B       		.uleb128 0xb
 2388 0170 49       		.uleb128 0x49
 2389 0171 13       		.uleb128 0x13
ARM GAS  /var/folders/5n/p_75w94d66l9ssrldxqdhh700000gn/T//ccBRvTxC.s 			page 43


 2390 0172 02       		.uleb128 0x2
 2391 0173 06       		.uleb128 0x6
 2392 0174 00       		.byte	0
 2393 0175 00       		.byte	0
 2394 0176 1B       		.uleb128 0x1b
 2395 0177 0B       		.uleb128 0xb
 2396 0178 01       		.byte	0x1
 2397 0179 55       		.uleb128 0x55
 2398 017a 06       		.uleb128 0x6
 2399 017b 00       		.byte	0
 2400 017c 00       		.byte	0
 2401 017d 1C       		.uleb128 0x1c
 2402 017e 1D       		.uleb128 0x1d
 2403 017f 01       		.byte	0x1
 2404 0180 31       		.uleb128 0x31
 2405 0181 13       		.uleb128 0x13
 2406 0182 52       		.uleb128 0x52
 2407 0183 01       		.uleb128 0x1
 2408 0184 55       		.uleb128 0x55
 2409 0185 06       		.uleb128 0x6
 2410 0186 58       		.uleb128 0x58
 2411 0187 0B       		.uleb128 0xb
 2412 0188 59       		.uleb128 0x59
 2413 0189 0B       		.uleb128 0xb
 2414 018a 01       		.uleb128 0x1
 2415 018b 13       		.uleb128 0x13
 2416 018c 00       		.byte	0
 2417 018d 00       		.byte	0
 2418 018e 1D       		.uleb128 0x1d
 2419 018f 05       		.uleb128 0x5
 2420 0190 00       		.byte	0
 2421 0191 31       		.uleb128 0x31
 2422 0192 13       		.uleb128 0x13
 2423 0193 02       		.uleb128 0x2
 2424 0194 06       		.uleb128 0x6
 2425 0195 00       		.byte	0
 2426 0196 00       		.byte	0
 2427 0197 1E       		.uleb128 0x1e
 2428 0198 34       		.uleb128 0x34
 2429 0199 00       		.byte	0
 2430 019a 31       		.uleb128 0x31
 2431 019b 13       		.uleb128 0x13
 2432 019c 02       		.uleb128 0x2
 2433 019d 06       		.uleb128 0x6
 2434 019e 00       		.byte	0
 2435 019f 00       		.byte	0
 2436 01a0 1F       		.uleb128 0x1f
 2437 01a1 1D       		.uleb128 0x1d
 2438 01a2 01       		.byte	0x1
 2439 01a3 31       		.uleb128 0x31
 2440 01a4 13       		.uleb128 0x13
 2441 01a5 11       		.uleb128 0x11
 2442 01a6 01       		.uleb128 0x1
 2443 01a7 12       		.uleb128 0x12
 2444 01a8 01       		.uleb128 0x1
 2445 01a9 58       		.uleb128 0x58
 2446 01aa 0B       		.uleb128 0xb
ARM GAS  /var/folders/5n/p_75w94d66l9ssrldxqdhh700000gn/T//ccBRvTxC.s 			page 44


 2447 01ab 59       		.uleb128 0x59
 2448 01ac 0B       		.uleb128 0xb
 2449 01ad 01       		.uleb128 0x1
 2450 01ae 13       		.uleb128 0x13
 2451 01af 00       		.byte	0
 2452 01b0 00       		.byte	0
 2453 01b1 20       		.uleb128 0x20
 2454 01b2 0B       		.uleb128 0xb
 2455 01b3 01       		.byte	0x1
 2456 01b4 11       		.uleb128 0x11
 2457 01b5 01       		.uleb128 0x1
 2458 01b6 12       		.uleb128 0x12
 2459 01b7 01       		.uleb128 0x1
 2460 01b8 00       		.byte	0
 2461 01b9 00       		.byte	0
 2462 01ba 21       		.uleb128 0x21
 2463 01bb 1D       		.uleb128 0x1d
 2464 01bc 01       		.byte	0x1
 2465 01bd 31       		.uleb128 0x31
 2466 01be 13       		.uleb128 0x13
 2467 01bf 52       		.uleb128 0x52
 2468 01c0 01       		.uleb128 0x1
 2469 01c1 55       		.uleb128 0x55
 2470 01c2 06       		.uleb128 0x6
 2471 01c3 58       		.uleb128 0x58
 2472 01c4 0B       		.uleb128 0xb
 2473 01c5 59       		.uleb128 0x59
 2474 01c6 0B       		.uleb128 0xb
 2475 01c7 00       		.byte	0
 2476 01c8 00       		.byte	0
 2477 01c9 22       		.uleb128 0x22
 2478 01ca 0B       		.uleb128 0xb
 2479 01cb 01       		.byte	0x1
 2480 01cc 11       		.uleb128 0x11
 2481 01cd 01       		.uleb128 0x1
 2482 01ce 12       		.uleb128 0x12
 2483 01cf 01       		.uleb128 0x1
 2484 01d0 01       		.uleb128 0x1
 2485 01d1 13       		.uleb128 0x13
 2486 01d2 00       		.byte	0
 2487 01d3 00       		.byte	0
 2488 01d4 23       		.uleb128 0x23
 2489 01d5 2E       		.uleb128 0x2e
 2490 01d6 01       		.byte	0x1
 2491 01d7 3F       		.uleb128 0x3f
 2492 01d8 0C       		.uleb128 0xc
 2493 01d9 03       		.uleb128 0x3
 2494 01da 0E       		.uleb128 0xe
 2495 01db 3A       		.uleb128 0x3a
 2496 01dc 0B       		.uleb128 0xb
 2497 01dd 3B       		.uleb128 0x3b
 2498 01de 0B       		.uleb128 0xb
 2499 01df 27       		.uleb128 0x27
 2500 01e0 0C       		.uleb128 0xc
 2501 01e1 49       		.uleb128 0x49
 2502 01e2 13       		.uleb128 0x13
 2503 01e3 11       		.uleb128 0x11
ARM GAS  /var/folders/5n/p_75w94d66l9ssrldxqdhh700000gn/T//ccBRvTxC.s 			page 45


 2504 01e4 01       		.uleb128 0x1
 2505 01e5 12       		.uleb128 0x12
 2506 01e6 01       		.uleb128 0x1
 2507 01e7 40       		.uleb128 0x40
 2508 01e8 0A       		.uleb128 0xa
 2509 01e9 01       		.uleb128 0x1
 2510 01ea 13       		.uleb128 0x13
 2511 01eb 00       		.byte	0
 2512 01ec 00       		.byte	0
 2513 01ed 24       		.uleb128 0x24
 2514 01ee 34       		.uleb128 0x34
 2515 01ef 00       		.byte	0
 2516 01f0 03       		.uleb128 0x3
 2517 01f1 08       		.uleb128 0x8
 2518 01f2 3A       		.uleb128 0x3a
 2519 01f3 0B       		.uleb128 0xb
 2520 01f4 3B       		.uleb128 0x3b
 2521 01f5 0B       		.uleb128 0xb
 2522 01f6 49       		.uleb128 0x49
 2523 01f7 13       		.uleb128 0x13
 2524 01f8 02       		.uleb128 0x2
 2525 01f9 0A       		.uleb128 0xa
 2526 01fa 00       		.byte	0
 2527 01fb 00       		.byte	0
 2528 01fc 25       		.uleb128 0x25
 2529 01fd 2E       		.uleb128 0x2e
 2530 01fe 01       		.byte	0x1
 2531 01ff 31       		.uleb128 0x31
 2532 0200 13       		.uleb128 0x13
 2533 0201 11       		.uleb128 0x11
 2534 0202 01       		.uleb128 0x1
 2535 0203 12       		.uleb128 0x12
 2536 0204 01       		.uleb128 0x1
 2537 0205 40       		.uleb128 0x40
 2538 0206 0A       		.uleb128 0xa
 2539 0207 01       		.uleb128 0x1
 2540 0208 13       		.uleb128 0x13
 2541 0209 00       		.byte	0
 2542 020a 00       		.byte	0
 2543 020b 26       		.uleb128 0x26
 2544 020c 2E       		.uleb128 0x2e
 2545 020d 01       		.byte	0x1
 2546 020e 3F       		.uleb128 0x3f
 2547 020f 0C       		.uleb128 0xc
 2548 0210 03       		.uleb128 0x3
 2549 0211 0E       		.uleb128 0xe
 2550 0212 3A       		.uleb128 0x3a
 2551 0213 0B       		.uleb128 0xb
 2552 0214 3B       		.uleb128 0x3b
 2553 0215 0B       		.uleb128 0xb
 2554 0216 27       		.uleb128 0x27
 2555 0217 0C       		.uleb128 0xc
 2556 0218 49       		.uleb128 0x49
 2557 0219 13       		.uleb128 0x13
 2558 021a 11       		.uleb128 0x11
 2559 021b 01       		.uleb128 0x1
 2560 021c 12       		.uleb128 0x12
ARM GAS  /var/folders/5n/p_75w94d66l9ssrldxqdhh700000gn/T//ccBRvTxC.s 			page 46


 2561 021d 01       		.uleb128 0x1
 2562 021e 40       		.uleb128 0x40
 2563 021f 06       		.uleb128 0x6
 2564 0220 01       		.uleb128 0x1
 2565 0221 13       		.uleb128 0x13
 2566 0222 00       		.byte	0
 2567 0223 00       		.byte	0
 2568 0224 27       		.uleb128 0x27
 2569 0225 34       		.uleb128 0x34
 2570 0226 00       		.byte	0
 2571 0227 03       		.uleb128 0x3
 2572 0228 08       		.uleb128 0x8
 2573 0229 3A       		.uleb128 0x3a
 2574 022a 0B       		.uleb128 0xb
 2575 022b 3B       		.uleb128 0x3b
 2576 022c 05       		.uleb128 0x5
 2577 022d 49       		.uleb128 0x49
 2578 022e 13       		.uleb128 0x13
 2579 022f 00       		.byte	0
 2580 0230 00       		.byte	0
 2581 0231 28       		.uleb128 0x28
 2582 0232 34       		.uleb128 0x34
 2583 0233 00       		.byte	0
 2584 0234 03       		.uleb128 0x3
 2585 0235 0E       		.uleb128 0xe
 2586 0236 3A       		.uleb128 0x3a
 2587 0237 0B       		.uleb128 0xb
 2588 0238 3B       		.uleb128 0x3b
 2589 0239 05       		.uleb128 0x5
 2590 023a 49       		.uleb128 0x49
 2591 023b 13       		.uleb128 0x13
 2592 023c 02       		.uleb128 0x2
 2593 023d 06       		.uleb128 0x6
 2594 023e 00       		.byte	0
 2595 023f 00       		.byte	0
 2596 0240 29       		.uleb128 0x29
 2597 0241 1D       		.uleb128 0x1d
 2598 0242 01       		.byte	0x1
 2599 0243 31       		.uleb128 0x31
 2600 0244 13       		.uleb128 0x13
 2601 0245 52       		.uleb128 0x52
 2602 0246 01       		.uleb128 0x1
 2603 0247 55       		.uleb128 0x55
 2604 0248 06       		.uleb128 0x6
 2605 0249 58       		.uleb128 0x58
 2606 024a 0B       		.uleb128 0xb
 2607 024b 59       		.uleb128 0x59
 2608 024c 05       		.uleb128 0x5
 2609 024d 00       		.byte	0
 2610 024e 00       		.byte	0
 2611 024f 2A       		.uleb128 0x2a
 2612 0250 34       		.uleb128 0x34
 2613 0251 00       		.byte	0
 2614 0252 31       		.uleb128 0x31
 2615 0253 13       		.uleb128 0x13
 2616 0254 00       		.byte	0
 2617 0255 00       		.byte	0
ARM GAS  /var/folders/5n/p_75w94d66l9ssrldxqdhh700000gn/T//ccBRvTxC.s 			page 47


 2618 0256 2B       		.uleb128 0x2b
 2619 0257 34       		.uleb128 0x34
 2620 0258 00       		.byte	0
 2621 0259 03       		.uleb128 0x3
 2622 025a 08       		.uleb128 0x8
 2623 025b 3A       		.uleb128 0x3a
 2624 025c 0B       		.uleb128 0xb
 2625 025d 3B       		.uleb128 0x3b
 2626 025e 05       		.uleb128 0x5
 2627 025f 49       		.uleb128 0x49
 2628 0260 13       		.uleb128 0x13
 2629 0261 02       		.uleb128 0x2
 2630 0262 06       		.uleb128 0x6
 2631 0263 00       		.byte	0
 2632 0264 00       		.byte	0
 2633 0265 2C       		.uleb128 0x2c
 2634 0266 2E       		.uleb128 0x2e
 2635 0267 01       		.byte	0x1
 2636 0268 3F       		.uleb128 0x3f
 2637 0269 0C       		.uleb128 0xc
 2638 026a 03       		.uleb128 0x3
 2639 026b 0E       		.uleb128 0xe
 2640 026c 3A       		.uleb128 0x3a
 2641 026d 0B       		.uleb128 0xb
 2642 026e 3B       		.uleb128 0x3b
 2643 026f 05       		.uleb128 0x5
 2644 0270 27       		.uleb128 0x27
 2645 0271 0C       		.uleb128 0xc
 2646 0272 49       		.uleb128 0x49
 2647 0273 13       		.uleb128 0x13
 2648 0274 11       		.uleb128 0x11
 2649 0275 01       		.uleb128 0x1
 2650 0276 12       		.uleb128 0x12
 2651 0277 01       		.uleb128 0x1
 2652 0278 40       		.uleb128 0x40
 2653 0279 06       		.uleb128 0x6
 2654 027a 01       		.uleb128 0x1
 2655 027b 13       		.uleb128 0x13
 2656 027c 00       		.byte	0
 2657 027d 00       		.byte	0
 2658 027e 2D       		.uleb128 0x2d
 2659 027f 2E       		.uleb128 0x2e
 2660 0280 01       		.byte	0x1
 2661 0281 3F       		.uleb128 0x3f
 2662 0282 0C       		.uleb128 0xc
 2663 0283 03       		.uleb128 0x3
 2664 0284 0E       		.uleb128 0xe
 2665 0285 3A       		.uleb128 0x3a
 2666 0286 0B       		.uleb128 0xb
 2667 0287 3B       		.uleb128 0x3b
 2668 0288 05       		.uleb128 0x5
 2669 0289 27       		.uleb128 0x27
 2670 028a 0C       		.uleb128 0xc
 2671 028b 11       		.uleb128 0x11
 2672 028c 01       		.uleb128 0x1
 2673 028d 12       		.uleb128 0x12
 2674 028e 01       		.uleb128 0x1
ARM GAS  /var/folders/5n/p_75w94d66l9ssrldxqdhh700000gn/T//ccBRvTxC.s 			page 48


 2675 028f 40       		.uleb128 0x40
 2676 0290 06       		.uleb128 0x6
 2677 0291 01       		.uleb128 0x1
 2678 0292 13       		.uleb128 0x13
 2679 0293 00       		.byte	0
 2680 0294 00       		.byte	0
 2681 0295 2E       		.uleb128 0x2e
 2682 0296 0B       		.uleb128 0xb
 2683 0297 01       		.byte	0x1
 2684 0298 55       		.uleb128 0x55
 2685 0299 06       		.uleb128 0x6
 2686 029a 01       		.uleb128 0x1
 2687 029b 13       		.uleb128 0x13
 2688 029c 00       		.byte	0
 2689 029d 00       		.byte	0
 2690 029e 2F       		.uleb128 0x2f
 2691 029f 34       		.uleb128 0x34
 2692 02a0 00       		.byte	0
 2693 02a1 03       		.uleb128 0x3
 2694 02a2 0E       		.uleb128 0xe
 2695 02a3 3A       		.uleb128 0x3a
 2696 02a4 0B       		.uleb128 0xb
 2697 02a5 3B       		.uleb128 0x3b
 2698 02a6 0B       		.uleb128 0xb
 2699 02a7 49       		.uleb128 0x49
 2700 02a8 13       		.uleb128 0x13
 2701 02a9 3F       		.uleb128 0x3f
 2702 02aa 0C       		.uleb128 0xc
 2703 02ab 3C       		.uleb128 0x3c
 2704 02ac 0C       		.uleb128 0xc
 2705 02ad 00       		.byte	0
 2706 02ae 00       		.byte	0
 2707 02af 00       		.byte	0
 2708              		.section	.debug_loc,"",%progbits
 2709              	.Ldebug_loc0:
 2710              	.LLST0:
 2711 0000 00000000 		.4byte	.LFB9
 2712 0004 02000000 		.4byte	.LCFI0
 2713 0008 0200     		.2byte	0x2
 2714 000a 7D       		.byte	0x7d
 2715 000b 00       		.sleb128 0
 2716 000c 02000000 		.4byte	.LCFI0
 2717 0010 C4000000 		.4byte	.LFE9
 2718 0014 0200     		.2byte	0x2
 2719 0016 7D       		.byte	0x7d
 2720 0017 18       		.sleb128 24
 2721 0018 00000000 		.4byte	0
 2722 001c 00000000 		.4byte	0
 2723              	.LLST1:
 2724 0020 00000000 		.4byte	.LVL1
 2725 0024 08000000 		.4byte	.LVL2
 2726 0028 0100     		.2byte	0x1
 2727 002a 50       		.byte	0x50
 2728 002b 08000000 		.4byte	.LVL2
 2729 002f C4000000 		.4byte	.LFE9
 2730 0033 0100     		.2byte	0x1
 2731 0035 55       		.byte	0x55
ARM GAS  /var/folders/5n/p_75w94d66l9ssrldxqdhh700000gn/T//ccBRvTxC.s 			page 49


 2732 0036 00000000 		.4byte	0
 2733 003a 00000000 		.4byte	0
 2734              	.LLST2:
 2735 003e 0A000000 		.4byte	.LVL3
 2736 0042 12000000 		.4byte	.LVL5
 2737 0046 0200     		.2byte	0x2
 2738 0048 73       		.byte	0x73
 2739 0049 18       		.sleb128 24
 2740 004a 24000000 		.4byte	.LVL7
 2741 004e C4000000 		.4byte	.LFE9
 2742 0052 0100     		.2byte	0x1
 2743 0054 54       		.byte	0x54
 2744 0055 00000000 		.4byte	0
 2745 0059 00000000 		.4byte	0
 2746              	.LLST3:
 2747 005d 0E000000 		.4byte	.LVL4
 2748 0061 16000000 		.4byte	.LVL6
 2749 0065 0200     		.2byte	0x2
 2750 0067 75       		.byte	0x75
 2751 0068 08       		.sleb128 8
 2752 0069 16000000 		.4byte	.LVL6
 2753 006d 24000000 		.4byte	.LVL7
 2754 0071 0100     		.2byte	0x1
 2755 0073 50       		.byte	0x50
 2756 0074 4A000000 		.4byte	.LVL10
 2757 0078 57000000 		.4byte	.LVL11-1
 2758 007c 0100     		.2byte	0x1
 2759 007e 50       		.byte	0x50
 2760 007f 5A000000 		.4byte	.LVL12
 2761 0083 A6000000 		.4byte	.LVL21
 2762 0087 0100     		.2byte	0x1
 2763 0089 50       		.byte	0x50
 2764 008a A6000000 		.4byte	.LVL21
 2765 008e B0000000 		.4byte	.LVL23
 2766 0092 0200     		.2byte	0x2
 2767 0094 76       		.byte	0x76
 2768 0095 08       		.sleb128 8
 2769 0096 BA000000 		.4byte	.LVL24
 2770 009a C4000000 		.4byte	.LFE9
 2771 009e 0100     		.2byte	0x1
 2772 00a0 50       		.byte	0x50
 2773 00a1 00000000 		.4byte	0
 2774 00a5 00000000 		.4byte	0
 2775              	.LLST4:
 2776 00a9 24000000 		.4byte	.LVL7
 2777 00ad 4A000000 		.4byte	.LVL10
 2778 00b1 0100     		.2byte	0x1
 2779 00b3 55       		.byte	0x55
 2780 00b4 00000000 		.4byte	0
 2781 00b8 00000000 		.4byte	0
 2782              	.LLST5:
 2783 00bc 24000000 		.4byte	.LVL7
 2784 00c0 4A000000 		.4byte	.LVL10
 2785 00c4 0100     		.2byte	0x1
 2786 00c6 54       		.byte	0x54
 2787 00c7 00000000 		.4byte	0
 2788 00cb 00000000 		.4byte	0
ARM GAS  /var/folders/5n/p_75w94d66l9ssrldxqdhh700000gn/T//ccBRvTxC.s 			page 50


 2789              	.LLST6:
 2790 00cf 24000000 		.4byte	.LVL7
 2791 00d3 26000000 		.4byte	.LVL8
 2792 00d7 0100     		.2byte	0x1
 2793 00d9 55       		.byte	0x55
 2794 00da 26000000 		.4byte	.LVL8
 2795 00de 49000000 		.4byte	.LVL10-1
 2796 00e2 0100     		.2byte	0x1
 2797 00e4 53       		.byte	0x53
 2798 00e5 00000000 		.4byte	0
 2799 00e9 00000000 		.4byte	0
 2800              	.LLST7:
 2801 00ed 4A000000 		.4byte	.LVL10
 2802 00f1 57000000 		.4byte	.LVL11-1
 2803 00f5 0100     		.2byte	0x1
 2804 00f7 50       		.byte	0x50
 2805 00f8 00000000 		.4byte	0
 2806 00fc 00000000 		.4byte	0
 2807              	.LLST8:
 2808 0100 5A000000 		.4byte	.LVL12
 2809 0104 80000000 		.4byte	.LVL16
 2810 0108 0100     		.2byte	0x1
 2811 010a 50       		.byte	0x50
 2812 010b 00000000 		.4byte	0
 2813 010f 00000000 		.4byte	0
 2814              	.LLST9:
 2815 0113 60000000 		.4byte	.LVL13
 2816 0117 80000000 		.4byte	.LVL16
 2817 011b 0200     		.2byte	0x2
 2818 011d 70       		.byte	0x70
 2819 011e 24       		.sleb128 36
 2820 011f 00000000 		.4byte	0
 2821 0123 00000000 		.4byte	0
 2822              	.LLST10:
 2823 0127 60000000 		.4byte	.LVL13
 2824 012b 80000000 		.4byte	.LVL16
 2825 012f 0100     		.2byte	0x1
 2826 0131 50       		.byte	0x50
 2827 0132 00000000 		.4byte	0
 2828 0136 00000000 		.4byte	0
 2829              	.LLST11:
 2830 013a 60000000 		.4byte	.LVL13
 2831 013e 68000000 		.4byte	.LVL14
 2832 0142 0200     		.2byte	0x2
 2833 0144 70       		.byte	0x70
 2834 0145 24       		.sleb128 36
 2835 0146 68000000 		.4byte	.LVL14
 2836 014a 80000000 		.4byte	.LVL16
 2837 014e 0100     		.2byte	0x1
 2838 0150 53       		.byte	0x53
 2839 0151 00000000 		.4byte	0
 2840 0155 00000000 		.4byte	0
 2841              	.LLST12:
 2842 0159 80000000 		.4byte	.LVL16
 2843 015d A6000000 		.4byte	.LVL21
 2844 0161 0100     		.2byte	0x1
 2845 0163 50       		.byte	0x50
ARM GAS  /var/folders/5n/p_75w94d66l9ssrldxqdhh700000gn/T//ccBRvTxC.s 			page 51


 2846 0164 A6000000 		.4byte	.LVL21
 2847 0168 AA000000 		.4byte	.LVL22
 2848 016c 0200     		.2byte	0x2
 2849 016e 73       		.byte	0x73
 2850 016f 04       		.sleb128 4
 2851 0170 BA000000 		.4byte	.LVL24
 2852 0174 C4000000 		.4byte	.LFE9
 2853 0178 0100     		.2byte	0x1
 2854 017a 50       		.byte	0x50
 2855 017b 00000000 		.4byte	0
 2856 017f 00000000 		.4byte	0
 2857              	.LLST13:
 2858 0183 86000000 		.4byte	.LVL17
 2859 0187 A6000000 		.4byte	.LVL21
 2860 018b 0200     		.2byte	0x2
 2861 018d 70       		.byte	0x70
 2862 018e 24       		.sleb128 36
 2863 018f A6000000 		.4byte	.LVL21
 2864 0193 B0000000 		.4byte	.LVL23
 2865 0197 0100     		.2byte	0x1
 2866 0199 56       		.byte	0x56
 2867 019a BA000000 		.4byte	.LVL24
 2868 019e C4000000 		.4byte	.LFE9
 2869 01a2 0100     		.2byte	0x1
 2870 01a4 56       		.byte	0x56
 2871 01a5 00000000 		.4byte	0
 2872 01a9 00000000 		.4byte	0
 2873              	.LLST14:
 2874 01ad 86000000 		.4byte	.LVL17
 2875 01b1 A6000000 		.4byte	.LVL21
 2876 01b5 0100     		.2byte	0x1
 2877 01b7 50       		.byte	0x50
 2878 01b8 A6000000 		.4byte	.LVL21
 2879 01bc AA000000 		.4byte	.LVL22
 2880 01c0 0200     		.2byte	0x2
 2881 01c2 73       		.byte	0x73
 2882 01c3 04       		.sleb128 4
 2883 01c4 BA000000 		.4byte	.LVL24
 2884 01c8 C4000000 		.4byte	.LFE9
 2885 01cc 0100     		.2byte	0x1
 2886 01ce 50       		.byte	0x50
 2887 01cf 00000000 		.4byte	0
 2888 01d3 00000000 		.4byte	0
 2889              	.LLST15:
 2890 01d7 86000000 		.4byte	.LVL17
 2891 01db 8E000000 		.4byte	.LVL18
 2892 01df 0200     		.2byte	0x2
 2893 01e1 70       		.byte	0x70
 2894 01e2 24       		.sleb128 36
 2895 01e3 8E000000 		.4byte	.LVL18
 2896 01e7 9A000000 		.4byte	.LVL20
 2897 01eb 0100     		.2byte	0x1
 2898 01ed 53       		.byte	0x53
 2899 01ee BA000000 		.4byte	.LVL24
 2900 01f2 BC000000 		.4byte	.LVL25
 2901 01f6 0100     		.2byte	0x1
 2902 01f8 53       		.byte	0x53
ARM GAS  /var/folders/5n/p_75w94d66l9ssrldxqdhh700000gn/T//ccBRvTxC.s 			page 52


 2903 01f9 00000000 		.4byte	0
 2904 01fd 00000000 		.4byte	0
 2905              	.LLST16:
 2906 0201 00000000 		.4byte	.LFB8
 2907 0205 02000000 		.4byte	.LCFI1
 2908 0209 0200     		.2byte	0x2
 2909 020b 7D       		.byte	0x7d
 2910 020c 00       		.sleb128 0
 2911 020d 02000000 		.4byte	.LCFI1
 2912 0211 14000000 		.4byte	.LFE8
 2913 0215 0200     		.2byte	0x2
 2914 0217 7D       		.byte	0x7d
 2915 0218 08       		.sleb128 8
 2916 0219 00000000 		.4byte	0
 2917 021d 00000000 		.4byte	0
 2918              	.LLST17:
 2919 0221 00000000 		.4byte	.LVL26
 2920 0225 0B000000 		.4byte	.LVL29-1
 2921 0229 0100     		.2byte	0x1
 2922 022b 50       		.byte	0x50
 2923 022c 00000000 		.4byte	0
 2924 0230 00000000 		.4byte	0
 2925              	.LLST18:
 2926 0234 08000000 		.4byte	.LVL28
 2927 0238 0B000000 		.4byte	.LVL29-1
 2928 023c 0100     		.2byte	0x1
 2929 023e 53       		.byte	0x53
 2930 023f 00000000 		.4byte	0
 2931 0243 00000000 		.4byte	0
 2932              	.LLST19:
 2933 0247 12000000 		.4byte	.LVL31
 2934 024b 14000000 		.4byte	.LFE8
 2935 024f 0100     		.2byte	0x1
 2936 0251 53       		.byte	0x53
 2937 0252 00000000 		.4byte	0
 2938 0256 00000000 		.4byte	0
 2939              	.LLST20:
 2940 025a 00000000 		.4byte	.LVL32
 2941 025e 0C000000 		.4byte	.LVL36
 2942 0262 0100     		.2byte	0x1
 2943 0264 50       		.byte	0x50
 2944 0265 0E000000 		.4byte	.LVL37
 2945 0269 16000000 		.4byte	.LVL40
 2946 026d 0100     		.2byte	0x1
 2947 026f 52       		.byte	0x52
 2948 0270 1C000000 		.4byte	.LVL41
 2949 0274 2C000000 		.4byte	.LFE10
 2950 0278 0100     		.2byte	0x1
 2951 027a 52       		.byte	0x52
 2952 027b 00000000 		.4byte	0
 2953 027f 00000000 		.4byte	0
 2954              	.LLST21:
 2955 0283 08000000 		.4byte	.LVL34
 2956 0287 0A000000 		.4byte	.LVL35
 2957 028b 0100     		.2byte	0x1
 2958 028d 53       		.byte	0x53
 2959 028e 00000000 		.4byte	0
ARM GAS  /var/folders/5n/p_75w94d66l9ssrldxqdhh700000gn/T//ccBRvTxC.s 			page 53


 2960 0292 00000000 		.4byte	0
 2961              	.LLST22:
 2962 0296 08000000 		.4byte	.LVL34
 2963 029a 0C000000 		.4byte	.LVL36
 2964 029e 0100     		.2byte	0x1
 2965 02a0 50       		.byte	0x50
 2966 02a1 0C000000 		.4byte	.LVL36
 2967 02a5 2C000000 		.4byte	.LFE10
 2968 02a9 0100     		.2byte	0x1
 2969 02ab 52       		.byte	0x52
 2970 02ac 00000000 		.4byte	0
 2971 02b0 00000000 		.4byte	0
 2972              	.LLST23:
 2973 02b4 14000000 		.4byte	.LVL39
 2974 02b8 16000000 		.4byte	.LVL40
 2975 02bc 0100     		.2byte	0x1
 2976 02be 53       		.byte	0x53
 2977 02bf 00000000 		.4byte	0
 2978 02c3 00000000 		.4byte	0
 2979              	.LLST24:
 2980 02c7 00000000 		.4byte	.LVL42
 2981 02cb 08000000 		.4byte	.LVL43
 2982 02cf 0100     		.2byte	0x1
 2983 02d1 50       		.byte	0x50
 2984 02d2 08000000 		.4byte	.LVL43
 2985 02d6 20000000 		.4byte	.LFE11
 2986 02da 0100     		.2byte	0x1
 2987 02dc 53       		.byte	0x53
 2988 02dd 00000000 		.4byte	0
 2989 02e1 00000000 		.4byte	0
 2990              	.LLST25:
 2991 02e5 00000000 		.4byte	.LFB12
 2992 02e9 04000000 		.4byte	.LCFI2
 2993 02ed 0200     		.2byte	0x2
 2994 02ef 7D       		.byte	0x7d
 2995 02f0 00       		.sleb128 0
 2996 02f1 04000000 		.4byte	.LCFI2
 2997 02f5 5C000000 		.4byte	.LFE12
 2998 02f9 0200     		.2byte	0x2
 2999 02fb 7D       		.byte	0x7d
 3000 02fc 18       		.sleb128 24
 3001 02fd 00000000 		.4byte	0
 3002 0301 00000000 		.4byte	0
 3003              	.LLST26:
 3004 0305 52000000 		.4byte	.LVL58
 3005 0309 5C000000 		.4byte	.LFE12
 3006 030d 0100     		.2byte	0x1
 3007 030f 52       		.byte	0x52
 3008 0310 00000000 		.4byte	0
 3009 0314 00000000 		.4byte	0
 3010              	.LLST27:
 3011 0318 47000000 		.4byte	.LVL55-1
 3012 031c 5C000000 		.4byte	.LFE12
 3013 0320 0100     		.2byte	0x1
 3014 0322 54       		.byte	0x54
 3015 0323 00000000 		.4byte	0
 3016 0327 00000000 		.4byte	0
ARM GAS  /var/folders/5n/p_75w94d66l9ssrldxqdhh700000gn/T//ccBRvTxC.s 			page 54


 3017              	.LLST28:
 3018 032b 1C000000 		.4byte	.LVL50
 3019 032f 3C000000 		.4byte	.LVL54
 3020 0333 0100     		.2byte	0x1
 3021 0335 51       		.byte	0x51
 3022 0336 00000000 		.4byte	0
 3023 033a 00000000 		.4byte	0
 3024              	.LLST29:
 3025 033e 0C000000 		.4byte	.LVL46
 3026 0342 10000000 		.4byte	.LVL48
 3027 0346 0100     		.2byte	0x1
 3028 0348 53       		.byte	0x53
 3029 0349 00000000 		.4byte	0
 3030 034d 00000000 		.4byte	0
 3031              	.LLST30:
 3032 0351 1C000000 		.4byte	.LVL50
 3033 0355 48000000 		.4byte	.LVL55
 3034 0359 0100     		.2byte	0x1
 3035 035b 57       		.byte	0x57
 3036 035c 00000000 		.4byte	0
 3037 0360 00000000 		.4byte	0
 3038              	.LLST31:
 3039 0364 47000000 		.4byte	.LVL55-1
 3040 0368 48000000 		.4byte	.LVL55
 3041 036c 0100     		.2byte	0x1
 3042 036e 54       		.byte	0x54
 3043 036f 00000000 		.4byte	0
 3044 0373 00000000 		.4byte	0
 3045              	.LLST32:
 3046 0377 4E000000 		.4byte	.LVL57
 3047 037b 52000000 		.4byte	.LVL58
 3048 037f 0100     		.2byte	0x1
 3049 0381 53       		.byte	0x53
 3050 0382 00000000 		.4byte	0
 3051 0386 00000000 		.4byte	0
 3052              	.LLST33:
 3053 038a 00000000 		.4byte	.LFB13
 3054 038e 06000000 		.4byte	.LCFI3
 3055 0392 0200     		.2byte	0x2
 3056 0394 7D       		.byte	0x7d
 3057 0395 00       		.sleb128 0
 3058 0396 06000000 		.4byte	.LCFI3
 3059 039a 50000000 		.4byte	.LFE13
 3060 039e 0200     		.2byte	0x2
 3061 03a0 7D       		.byte	0x7d
 3062 03a1 10       		.sleb128 16
 3063 03a2 00000000 		.4byte	0
 3064 03a6 00000000 		.4byte	0
 3065              	.LLST34:
 3066 03aa 04000000 		.4byte	.LVL59
 3067 03ae 0A000000 		.4byte	.LVL61
 3068 03b2 0200     		.2byte	0x2
 3069 03b4 73       		.byte	0x73
 3070 03b5 18       		.sleb128 24
 3071 03b6 44000000 		.4byte	.LVL69
 3072 03ba 50000000 		.4byte	.LFE13
 3073 03be 0100     		.2byte	0x1
ARM GAS  /var/folders/5n/p_75w94d66l9ssrldxqdhh700000gn/T//ccBRvTxC.s 			page 55


 3074 03c0 51       		.byte	0x51
 3075 03c1 00000000 		.4byte	0
 3076 03c5 00000000 		.4byte	0
 3077              	.LLST35:
 3078 03c9 08000000 		.4byte	.LVL60
 3079 03cd 0A000000 		.4byte	.LVL61
 3080 03d1 0500     		.2byte	0x5
 3081 03d3 73       		.byte	0x73
 3082 03d4 18       		.sleb128 24
 3083 03d5 06       		.byte	0x6
 3084 03d6 23       		.byte	0x23
 3085 03d7 3C       		.uleb128 0x3c
 3086 03d8 3F000000 		.4byte	.LVL68-1
 3087 03dc 50000000 		.4byte	.LFE13
 3088 03e0 0100     		.2byte	0x1
 3089 03e2 54       		.byte	0x54
 3090 03e3 00000000 		.4byte	0
 3091 03e7 00000000 		.4byte	0
 3092              	.LLST36:
 3093 03eb 16000000 		.4byte	.LVL63
 3094 03ef 2C000000 		.4byte	.LVL66
 3095 03f3 0100     		.2byte	0x1
 3096 03f5 52       		.byte	0x52
 3097 03f6 00000000 		.4byte	0
 3098 03fa 00000000 		.4byte	0
 3099              	.LLST37:
 3100 03fe 16000000 		.4byte	.LVL63
 3101 0402 44000000 		.4byte	.LVL69
 3102 0406 0100     		.2byte	0x1
 3103 0408 56       		.byte	0x56
 3104 0409 00000000 		.4byte	0
 3105 040d 00000000 		.4byte	0
 3106              	.LLST38:
 3107 0411 3F000000 		.4byte	.LVL68-1
 3108 0415 44000000 		.4byte	.LVL69
 3109 0419 0100     		.2byte	0x1
 3110 041b 54       		.byte	0x54
 3111 041c 00000000 		.4byte	0
 3112 0420 00000000 		.4byte	0
 3113              	.LLST39:
 3114 0424 00000000 		.4byte	.LFB14
 3115 0428 04000000 		.4byte	.LCFI4
 3116 042c 0200     		.2byte	0x2
 3117 042e 7D       		.byte	0x7d
 3118 042f 00       		.sleb128 0
 3119 0430 04000000 		.4byte	.LCFI4
 3120 0434 50000000 		.4byte	.LFE14
 3121 0438 0200     		.2byte	0x2
 3122 043a 7D       		.byte	0x7d
 3123 043b 10       		.sleb128 16
 3124 043c 00000000 		.4byte	0
 3125 0440 00000000 		.4byte	0
 3126              	.LLST40:
 3127 0444 08000000 		.4byte	.LVL71
 3128 0448 12000000 		.4byte	.LVL74
 3129 044c 0200     		.2byte	0x2
 3130 044e 72       		.byte	0x72
ARM GAS  /var/folders/5n/p_75w94d66l9ssrldxqdhh700000gn/T//ccBRvTxC.s 			page 56


 3131 044f 18       		.sleb128 24
 3132 0450 12000000 		.4byte	.LVL74
 3133 0454 50000000 		.4byte	.LFE14
 3134 0458 0100     		.2byte	0x1
 3135 045a 54       		.byte	0x54
 3136 045b 00000000 		.4byte	0
 3137 045f 00000000 		.4byte	0
 3138              	.LLST41:
 3139 0463 0C000000 		.4byte	.LVL72
 3140 0467 0E000000 		.4byte	.LVL73
 3141 046b 0100     		.2byte	0x1
 3142 046d 53       		.byte	0x53
 3143 046e 00000000 		.4byte	0
 3144 0472 00000000 		.4byte	0
 3145              	.LLST42:
 3146 0476 12000000 		.4byte	.LVL74
 3147 047a 33000000 		.4byte	.LVL76-1
 3148 047e 0100     		.2byte	0x1
 3149 0480 53       		.byte	0x53
 3150 0481 00000000 		.4byte	0
 3151 0485 00000000 		.4byte	0
 3152              	.LLST43:
 3153 0489 20000000 		.4byte	.LVL75
 3154 048d 33000000 		.4byte	.LVL76-1
 3155 0491 0100     		.2byte	0x1
 3156 0493 53       		.byte	0x53
 3157 0494 00000000 		.4byte	0
 3158 0498 00000000 		.4byte	0
 3159              	.LLST44:
 3160 049c 20000000 		.4byte	.LVL75
 3161 04a0 33000000 		.4byte	.LVL76-1
 3162 04a4 0200     		.2byte	0x2
 3163 04a6 73       		.byte	0x73
 3164 04a7 00       		.sleb128 0
 3165 04a8 00000000 		.4byte	0
 3166 04ac 00000000 		.4byte	0
 3167              	.LLST45:
 3168 04b0 48000000 		.4byte	.LVL78
 3169 04b4 50000000 		.4byte	.LFE14
 3170 04b8 0100     		.2byte	0x1
 3171 04ba 53       		.byte	0x53
 3172 04bb 00000000 		.4byte	0
 3173 04bf 00000000 		.4byte	0
 3174              		.section	.debug_aranges,"",%progbits
 3175 0000 54000000 		.4byte	0x54
 3176 0004 0200     		.2byte	0x2
 3177 0006 00000000 		.4byte	.Ldebug_info0
 3178 000a 04       		.byte	0x4
 3179 000b 00       		.byte	0
 3180 000c 0000     		.2byte	0
 3181 000e 0000     		.2byte	0
 3182 0010 00000000 		.4byte	.LFB7
 3183 0014 0A000000 		.4byte	.LFE7-.LFB7
 3184 0018 00000000 		.4byte	.LFB9
 3185 001c C4000000 		.4byte	.LFE9-.LFB9
 3186 0020 00000000 		.4byte	.LFB8
 3187 0024 14000000 		.4byte	.LFE8-.LFB8
ARM GAS  /var/folders/5n/p_75w94d66l9ssrldxqdhh700000gn/T//ccBRvTxC.s 			page 57


 3188 0028 00000000 		.4byte	.LFB10
 3189 002c 2C000000 		.4byte	.LFE10-.LFB10
 3190 0030 00000000 		.4byte	.LFB11
 3191 0034 20000000 		.4byte	.LFE11-.LFB11
 3192 0038 00000000 		.4byte	.LFB12
 3193 003c 5C000000 		.4byte	.LFE12-.LFB12
 3194 0040 00000000 		.4byte	.LFB13
 3195 0044 50000000 		.4byte	.LFE13-.LFB13
 3196 0048 00000000 		.4byte	.LFB14
 3197 004c 50000000 		.4byte	.LFE14-.LFB14
 3198 0050 00000000 		.4byte	0
 3199 0054 00000000 		.4byte	0
 3200              		.section	.debug_ranges,"",%progbits
 3201              	.Ldebug_ranges0:
 3202 0000 0E000000 		.4byte	.LBB33
 3203 0004 42000000 		.4byte	.LBE33
 3204 0008 46000000 		.4byte	.LBB58
 3205 000c B0000000 		.4byte	.LBE58
 3206 0010 BA000000 		.4byte	.LBB59
 3207 0014 C4000000 		.4byte	.LBE59
 3208 0018 00000000 		.4byte	0
 3209 001c 00000000 		.4byte	0
 3210 0020 26000000 		.4byte	.LBB34
 3211 0024 38000000 		.4byte	.LBE34
 3212 0028 3A000000 		.4byte	.LBB37
 3213 002c 40000000 		.4byte	.LBE37
 3214 0030 00000000 		.4byte	0
 3215 0034 00000000 		.4byte	0
 3216 0038 26000000 		.4byte	.LBB35
 3217 003c 38000000 		.4byte	.LBE35
 3218 0040 3A000000 		.4byte	.LBB36
 3219 0044 40000000 		.4byte	.LBE36
 3220 0048 00000000 		.4byte	0
 3221 004c 00000000 		.4byte	0
 3222 0050 5A000000 		.4byte	.LBB40
 3223 0054 5E000000 		.4byte	.LBE40
 3224 0058 60000000 		.4byte	.LBB44
 3225 005c 64000000 		.4byte	.LBE44
 3226 0060 66000000 		.4byte	.LBB45
 3227 0064 68000000 		.4byte	.LBE45
 3228 0068 00000000 		.4byte	0
 3229 006c 00000000 		.4byte	0
 3230 0070 80000000 		.4byte	.LBB48
 3231 0074 84000000 		.4byte	.LBE48
 3232 0078 86000000 		.4byte	.LBB52
 3233 007c 8A000000 		.4byte	.LBE52
 3234 0080 8C000000 		.4byte	.LBB53
 3235 0084 8E000000 		.4byte	.LBE53
 3236 0088 00000000 		.4byte	0
 3237 008c 00000000 		.4byte	0
 3238 0090 8E000000 		.4byte	.LBB54
 3239 0094 A4000000 		.4byte	.LBE54
 3240 0098 BA000000 		.4byte	.LBB57
 3241 009c C4000000 		.4byte	.LBE57
 3242 00a0 00000000 		.4byte	0
 3243 00a4 00000000 		.4byte	0
 3244 00a8 8E000000 		.4byte	.LBB55
ARM GAS  /var/folders/5n/p_75w94d66l9ssrldxqdhh700000gn/T//ccBRvTxC.s 			page 58


 3245 00ac A4000000 		.4byte	.LBE55
 3246 00b0 BA000000 		.4byte	.LBB56
 3247 00b4 C4000000 		.4byte	.LBE56
 3248 00b8 00000000 		.4byte	0
 3249 00bc 00000000 		.4byte	0
 3250 00c0 08000000 		.4byte	.LBB63
 3251 00c4 0E000000 		.4byte	.LBE63
 3252 00c8 16000000 		.4byte	.LBB67
 3253 00cc 2C000000 		.4byte	.LBE67
 3254 00d0 00000000 		.4byte	0
 3255 00d4 00000000 		.4byte	0
 3256 00d8 30000000 		.4byte	.LBB70
 3257 00dc 32000000 		.4byte	.LBE70
 3258 00e0 38000000 		.4byte	.LBB74
 3259 00e4 3A000000 		.4byte	.LBE74
 3260 00e8 3C000000 		.4byte	.LBB75
 3261 00ec 3E000000 		.4byte	.LBE75
 3262 00f0 00000000 		.4byte	0
 3263 00f4 00000000 		.4byte	0
 3264 00f8 30000000 		.4byte	.LBB71
 3265 00fc 32000000 		.4byte	.LBE71
 3266 0100 38000000 		.4byte	.LBB72
 3267 0104 3A000000 		.4byte	.LBE72
 3268 0108 3C000000 		.4byte	.LBB73
 3269 010c 3E000000 		.4byte	.LBE73
 3270 0110 00000000 		.4byte	0
 3271 0114 00000000 		.4byte	0
 3272 0118 2A000000 		.4byte	.LBB78
 3273 011c 2C000000 		.4byte	.LBE78
 3274 0120 32000000 		.4byte	.LBB81
 3275 0124 36000000 		.4byte	.LBE81
 3276 0128 00000000 		.4byte	0
 3277 012c 00000000 		.4byte	0
 3278 0130 2A000000 		.4byte	.LBB79
 3279 0134 2C000000 		.4byte	.LBE79
 3280 0138 32000000 		.4byte	.LBB80
 3281 013c 36000000 		.4byte	.LBE80
 3282 0140 00000000 		.4byte	0
 3283 0144 00000000 		.4byte	0
 3284 0148 04000000 		.4byte	.LBB82
 3285 014c 06000000 		.4byte	.LBE82
 3286 0150 08000000 		.4byte	.LBB83
 3287 0154 0C000000 		.4byte	.LBE83
 3288 0158 00000000 		.4byte	0
 3289 015c 00000000 		.4byte	0
 3290 0160 20000000 		.4byte	.LBB86
 3291 0164 22000000 		.4byte	.LBE86
 3292 0168 24000000 		.4byte	.LBB90
 3293 016c 26000000 		.4byte	.LBE90
 3294 0170 28000000 		.4byte	.LBB91
 3295 0174 2A000000 		.4byte	.LBE91
 3296 0178 00000000 		.4byte	0
 3297 017c 00000000 		.4byte	0
 3298 0180 20000000 		.4byte	.LBB87
 3299 0184 22000000 		.4byte	.LBE87
 3300 0188 24000000 		.4byte	.LBB88
 3301 018c 26000000 		.4byte	.LBE88
ARM GAS  /var/folders/5n/p_75w94d66l9ssrldxqdhh700000gn/T//ccBRvTxC.s 			page 59


 3302 0190 28000000 		.4byte	.LBB89
 3303 0194 2A000000 		.4byte	.LBE89
 3304 0198 00000000 		.4byte	0
 3305 019c 00000000 		.4byte	0
 3306 01a0 00000000 		.4byte	.LFB7
 3307 01a4 0A000000 		.4byte	.LFE7
 3308 01a8 00000000 		.4byte	.LFB9
 3309 01ac C4000000 		.4byte	.LFE9
 3310 01b0 00000000 		.4byte	.LFB8
 3311 01b4 14000000 		.4byte	.LFE8
 3312 01b8 00000000 		.4byte	.LFB10
 3313 01bc 2C000000 		.4byte	.LFE10
 3314 01c0 00000000 		.4byte	.LFB11
 3315 01c4 20000000 		.4byte	.LFE11
 3316 01c8 00000000 		.4byte	.LFB12
 3317 01cc 5C000000 		.4byte	.LFE12
 3318 01d0 00000000 		.4byte	.LFB13
 3319 01d4 50000000 		.4byte	.LFE13
 3320 01d8 00000000 		.4byte	.LFB14
 3321 01dc 50000000 		.4byte	.LFE14
 3322 01e0 00000000 		.4byte	0
 3323 01e4 00000000 		.4byte	0
 3324              		.section	.debug_line,"",%progbits
 3325              	.Ldebug_line0:
 3326 0000 25030000 		.section	.debug_str,"MS",%progbits,1
 3326      02001E01 
 3326      00000201 
 3326      FB0E0D00 
 3326      01010101 
 3327              	.LASF36:
 3328 0000 705F6D73 		.ascii	"p_msg\000"
 3328      6700
 3329              	.LASF57:
 3330 0006 7264796D 		.ascii	"rdymsg\000"
 3330      736700
 3331              	.LASF11:
 3332 000d 6C6F6E67 		.ascii	"long long unsigned int\000"
 3332      206C6F6E 
 3332      6720756E 
 3332      7369676E 
 3332      65642069 
 3333              	.LASF58:
 3334 0024 65786974 		.ascii	"exitcode\000"
 3334      636F6465 
 3334      00
 3335              	.LASF68:
 3336 002d 63684D74 		.ascii	"chMtxUnlock\000"
 3336      78556E6C 
 3336      6F636B00 
 3337              	.LASF24:
 3338 0039 705F7072 		.ascii	"p_prio\000"
 3338      696F00
 3339              	.LASF10:
 3340 0040 6C6F6E67 		.ascii	"long long int\000"
 3340      206C6F6E 
 3340      6720696E 
 3340      7400
ARM GAS  /var/folders/5n/p_75w94d66l9ssrldxqdhh700000gn/T//ccBRvTxC.s 			page 60


 3341              	.LASF1:
 3342 004e 7369676E 		.ascii	"signed char\000"
 3342      65642063 
 3342      68617200 
 3343              	.LASF40:
 3344 005a 705F6D70 		.ascii	"p_mpool\000"
 3344      6F6F6C00 
 3345              	.LASF12:
 3346 0062 626F6F6C 		.ascii	"bool_t\000"
 3346      5F7400
 3347              	.LASF54:
 3348 0069 6D5F7175 		.ascii	"m_queue\000"
 3348      65756500 
 3349              	.LASF16:
 3350 0071 74736C69 		.ascii	"tslices_t\000"
 3350      6365735F 
 3350      7400
 3351              	.LASF7:
 3352 007b 6C6F6E67 		.ascii	"long int\000"
 3352      20696E74 
 3352      00
 3353              	.LASF14:
 3354 0084 74737461 		.ascii	"tstate_t\000"
 3354      74655F74 
 3354      00
 3355              	.LASF65:
 3356 008d 63684D74 		.ascii	"chMtxLockS\000"
 3356      784C6F63 
 3356      6B5300
 3357              	.LASF77:
 3358 0098 63684D74 		.ascii	"chMtxTryLockS\000"
 3358      78547279 
 3358      4C6F636B 
 3358      5300
 3359              	.LASF26:
 3360 00a6 705F6E65 		.ascii	"p_newer\000"
 3360      77657200 
 3361              	.LASF49:
 3362 00ae 725F6E65 		.ascii	"r_newer\000"
 3362      77657200 
 3363              	.LASF43:
 3364 00b6 72656761 		.ascii	"regarm_t\000"
 3364      726D5F74 
 3364      00
 3365              	.LASF70:
 3366 00bf 63684D74 		.ascii	"chMtxUnlockS\000"
 3366      78556E6C 
 3366      6F636B53 
 3366      00
 3367              	.LASF0:
 3368 00cc 756E7369 		.ascii	"unsigned int\000"
 3368      676E6564 
 3368      20696E74 
 3368      00
 3369              	.LASF9:
 3370 00d9 6C6F6E67 		.ascii	"long unsigned int\000"
 3370      20756E73 
ARM GAS  /var/folders/5n/p_75w94d66l9ssrldxqdhh700000gn/T//ccBRvTxC.s 			page 61


 3370      69676E65 
 3370      6420696E 
 3370      7400
 3371              	.LASF45:
 3372 00eb 636F6E74 		.ascii	"context\000"
 3372      65787400 
 3373              	.LASF4:
 3374 00f3 73686F72 		.ascii	"short unsigned int\000"
 3374      7420756E 
 3374      7369676E 
 3374      65642069 
 3374      6E7400
 3375              	.LASF18:
 3376 0106 6D73675F 		.ascii	"msg_t\000"
 3376      7400
 3377              	.LASF76:
 3378 010c 7072696F 		.ascii	"prio_insert\000"
 3378      5F696E73 
 3378      65727400 
 3379              	.LASF71:
 3380 0118 63684D74 		.ascii	"chMtxUnlockAll\000"
 3380      78556E6C 
 3380      6F636B41 
 3380      6C6C00
 3381              	.LASF69:
 3382 0127 6E657770 		.ascii	"newprio\000"
 3382      72696F00 
 3383              	.LASF13:
 3384 012f 746D6F64 		.ascii	"tmode_t\000"
 3384      655F7400 
 3385              	.LASF42:
 3386 0137 54687265 		.ascii	"ThreadsList\000"
 3386      6164734C 
 3386      69737400 
 3387              	.LASF19:
 3388 0143 6576656E 		.ascii	"eventmask_t\000"
 3388      746D6173 
 3388      6B5F7400 
 3389              	.LASF67:
 3390 014f 63684D74 		.ascii	"chMtxTryLock\000"
 3390      78547279 
 3390      4C6F636B 
 3390      00
 3391              	.LASF53:
 3392 015c 4D757465 		.ascii	"Mutex\000"
 3392      7800
 3393              	.LASF66:
 3394 0162 63684D74 		.ascii	"chMtxLock\000"
 3394      784C6F63 
 3394      6B00
 3395              	.LASF27:
 3396 016c 705F6F6C 		.ascii	"p_older\000"
 3396      64657200 
 3397              	.LASF48:
 3398 0174 725F6374 		.ascii	"r_ctx\000"
 3398      7800
 3399              	.LASF41:
ARM GAS  /var/folders/5n/p_75w94d66l9ssrldxqdhh700000gn/T//ccBRvTxC.s 			page 62


 3400 017a 54687265 		.ascii	"ThreadsQueue\000"
 3400      61647351 
 3400      75657565 
 3400      00
 3401              	.LASF62:
 3402 0187 64657175 		.ascii	"dequeue\000"
 3402      65756500 
 3403              	.LASF51:
 3404 018f 725F6375 		.ascii	"r_current\000"
 3404      7272656E 
 3404      7400
 3405              	.LASF50:
 3406 0199 725F6F6C 		.ascii	"r_older\000"
 3406      64657200 
 3407              	.LASF15:
 3408 01a1 74726566 		.ascii	"trefs_t\000"
 3408      735F7400 
 3409              	.LASF23:
 3410 01a9 705F7072 		.ascii	"p_prev\000"
 3410      657600
 3411              	.LASF17:
 3412 01b0 74707269 		.ascii	"tprio_t\000"
 3412      6F5F7400 
 3413              	.LASF6:
 3414 01b8 696E7433 		.ascii	"int32_t\000"
 3414      325F7400 
 3415              	.LASF2:
 3416 01c0 756E7369 		.ascii	"unsigned char\000"
 3416      676E6564 
 3416      20636861 
 3416      7200
 3417              	.LASF38:
 3418 01ce 705F6D74 		.ascii	"p_mtxlist\000"
 3418      786C6973 
 3418      7400
 3419              	.LASF3:
 3420 01d8 73686F72 		.ascii	"short int\000"
 3420      7420696E 
 3420      7400
 3421              	.LASF29:
 3422 01e2 705F7374 		.ascii	"p_state\000"
 3422      61746500 
 3423              	.LASF32:
 3424 01ea 705F7072 		.ascii	"p_preempt\000"
 3424      65656D70 
 3424      7400
 3425              	.LASF47:
 3426 01f4 725F7072 		.ascii	"r_prio\000"
 3426      696F00
 3427              	.LASF60:
 3428 01fb 65776D61 		.ascii	"ewmask\000"
 3428      736B00
 3429              	.LASF22:
 3430 0202 705F6E65 		.ascii	"p_next\000"
 3430      787400
 3431              	.LASF30:
 3432 0209 705F666C 		.ascii	"p_flags\000"
ARM GAS  /var/folders/5n/p_75w94d66l9ssrldxqdhh700000gn/T//ccBRvTxC.s 			page 63


 3432      61677300 
 3433              	.LASF21:
 3434 0211 54687265 		.ascii	"Thread\000"
 3434      616400
 3435              	.LASF37:
 3436 0218 705F6570 		.ascii	"p_epending\000"
 3436      656E6469 
 3436      6E6700
 3437              	.LASF8:
 3438 0223 75696E74 		.ascii	"uint32_t\000"
 3438      33325F74 
 3438      00
 3439              	.LASF46:
 3440 022c 725F7175 		.ascii	"r_queue\000"
 3440      65756500 
 3441              	.LASF61:
 3442 0234 63686172 		.ascii	"char\000"
 3442      00
 3443              	.LASF63:
 3444 0239 6669666F 		.ascii	"fifo_remove\000"
 3444      5F72656D 
 3444      6F766500 
 3445              	.LASF74:
 3446 0245 2E2E2F2E 		.ascii	"../../os/kernel/src/chmtx.c\000"
 3446      2E2F6F73 
 3446      2F6B6572 
 3446      6E656C2F 
 3446      7372632F 
 3447              	.LASF56:
 3448 0261 6D5F6E65 		.ascii	"m_next\000"
 3448      787400
 3449              	.LASF20:
 3450 0268 73797374 		.ascii	"systime_t\000"
 3450      696D655F 
 3450      7400
 3451              	.LASF39:
 3452 0272 705F7265 		.ascii	"p_realprio\000"
 3452      616C7072 
 3452      696F00
 3453              	.LASF33:
 3454 027d 705F7469 		.ascii	"p_time\000"
 3454      6D6500
 3455              	.LASF73:
 3456 0284 474E5520 		.ascii	"GNU C 4.6.2 20111004 (prerelease)\000"
 3456      4320342E 
 3456      362E3220 
 3456      32303131 
 3456      31303034 
 3457              	.LASF44:
 3458 02a6 696E7463 		.ascii	"intctx\000"
 3458      747800
 3459              	.LASF35:
 3460 02ad 705F6D73 		.ascii	"p_msgqueue\000"
 3460      67717565 
 3460      756500
 3461              	.LASF64:
 3462 02b8 63684D74 		.ascii	"chMtxInit\000"
ARM GAS  /var/folders/5n/p_75w94d66l9ssrldxqdhh700000gn/T//ccBRvTxC.s 			page 64


 3462      78496E69 
 3462      7400
 3463              	.LASF31:
 3464 02c2 705F7265 		.ascii	"p_refs\000"
 3464      667300
 3465              	.LASF52:
 3466 02c9 52656164 		.ascii	"ReadyList\000"
 3466      794C6973 
 3466      7400
 3467              	.LASF72:
 3468 02d3 726C6973 		.ascii	"rlist\000"
 3468      7400
 3469              	.LASF5:
 3470 02d9 75696E74 		.ascii	"uint8_t\000"
 3470      385F7400 
 3471              	.LASF59:
 3472 02e1 77746F62 		.ascii	"wtobjp\000"
 3472      6A7000
 3473              	.LASF28:
 3474 02e8 705F6E61 		.ascii	"p_name\000"
 3474      6D6500
 3475              	.LASF75:
 3476 02ef 2F557365 		.ascii	"/Users/sin/Documents/Eclipse/Workspace/mabl-ChibiOS"
 3476      72732F73 
 3476      696E2F44 
 3476      6F63756D 
 3476      656E7473 
 3477 0322 2D322E35 		.ascii	"-2.5.1/demos/ARMCM4-STM32F407-LWIP\000"
 3477      2E312F64 
 3477      656D6F73 
 3477      2F41524D 
 3477      434D342D 
 3478              	.LASF55:
 3479 0345 6D5F6F77 		.ascii	"m_owner\000"
 3479      6E657200 
 3480              	.LASF25:
 3481 034d 705F6374 		.ascii	"p_ctx\000"
 3481      7800
 3482              	.LASF34:
 3483 0353 705F7761 		.ascii	"p_waiting\000"
 3483      6974696E 
 3483      6700
 3484              		.ident	"GCC: (Linaro GCC 4.6-2011.10) 4.6.2 20111004 (prerelease)"
ARM GAS  /var/folders/5n/p_75w94d66l9ssrldxqdhh700000gn/T//ccBRvTxC.s 			page 65


DEFINED SYMBOLS
                            *ABS*:0000000000000000 chmtx.c
/var/folders/5n/p_75w94d66l9ssrldxqdhh700000gn/T//ccBRvTxC.s:18     .text.chMtxInit:0000000000000000 $t
/var/folders/5n/p_75w94d66l9ssrldxqdhh700000gn/T//ccBRvTxC.s:24     .text.chMtxInit:0000000000000000 chMtxInit
/var/folders/5n/p_75w94d66l9ssrldxqdhh700000gn/T//ccBRvTxC.s:46     .text.chMtxLockS:0000000000000000 $t
/var/folders/5n/p_75w94d66l9ssrldxqdhh700000gn/T//ccBRvTxC.s:52     .text.chMtxLockS:0000000000000000 chMtxLockS
/var/folders/5n/p_75w94d66l9ssrldxqdhh700000gn/T//ccBRvTxC.s:306    .text.chMtxLockS:00000000000000c0 $d
/var/folders/5n/p_75w94d66l9ssrldxqdhh700000gn/T//ccBRvTxC.s:314    .text.chMtxLock:0000000000000000 $t
/var/folders/5n/p_75w94d66l9ssrldxqdhh700000gn/T//ccBRvTxC.s:320    .text.chMtxLock:0000000000000000 chMtxLock
/var/folders/5n/p_75w94d66l9ssrldxqdhh700000gn/T//ccBRvTxC.s:361    .text.chMtxTryLock:0000000000000000 $t
/var/folders/5n/p_75w94d66l9ssrldxqdhh700000gn/T//ccBRvTxC.s:367    .text.chMtxTryLock:0000000000000000 chMtxTryLock
/var/folders/5n/p_75w94d66l9ssrldxqdhh700000gn/T//ccBRvTxC.s:435    .text.chMtxTryLock:0000000000000028 $d
/var/folders/5n/p_75w94d66l9ssrldxqdhh700000gn/T//ccBRvTxC.s:442    .text.chMtxTryLockS:0000000000000000 $t
/var/folders/5n/p_75w94d66l9ssrldxqdhh700000gn/T//ccBRvTxC.s:448    .text.chMtxTryLockS:0000000000000000 chMtxTryLockS
/var/folders/5n/p_75w94d66l9ssrldxqdhh700000gn/T//ccBRvTxC.s:486    .text.chMtxTryLockS:000000000000001c $d
/var/folders/5n/p_75w94d66l9ssrldxqdhh700000gn/T//ccBRvTxC.s:491    .text.chMtxUnlock:0000000000000000 $t
/var/folders/5n/p_75w94d66l9ssrldxqdhh700000gn/T//ccBRvTxC.s:497    .text.chMtxUnlock:0000000000000000 chMtxUnlock
/var/folders/5n/p_75w94d66l9ssrldxqdhh700000gn/T//ccBRvTxC.s:629    .text.chMtxUnlock:0000000000000058 $d
/var/folders/5n/p_75w94d66l9ssrldxqdhh700000gn/T//ccBRvTxC.s:634    .text.chMtxUnlockS:0000000000000000 $t
/var/folders/5n/p_75w94d66l9ssrldxqdhh700000gn/T//ccBRvTxC.s:640    .text.chMtxUnlockS:0000000000000000 chMtxUnlockS
/var/folders/5n/p_75w94d66l9ssrldxqdhh700000gn/T//ccBRvTxC.s:743    .text.chMtxUnlockS:000000000000004c $d
/var/folders/5n/p_75w94d66l9ssrldxqdhh700000gn/T//ccBRvTxC.s:748    .text.chMtxUnlockAll:0000000000000000 $t
/var/folders/5n/p_75w94d66l9ssrldxqdhh700000gn/T//ccBRvTxC.s:754    .text.chMtxUnlockAll:0000000000000000 chMtxUnlockAll
/var/folders/5n/p_75w94d66l9ssrldxqdhh700000gn/T//ccBRvTxC.s:869    .text.chMtxUnlockAll:000000000000004c $d
                     .debug_frame:0000000000000010 $d
/var/folders/5n/p_75w94d66l9ssrldxqdhh700000gn/T//ccBRvTxC.s:313    .text.chMtxLockS:00000000000000c4 $t
/var/folders/5n/p_75w94d66l9ssrldxqdhh700000gn/T//ccBRvTxC.s:441    .text.chMtxTryLock:000000000000002c $t
/var/folders/5n/p_75w94d66l9ssrldxqdhh700000gn/T//ccBRvTxC.s:633    .text.chMtxUnlock:000000000000005c $t

UNDEFINED SYMBOLS
chSchGoSleepS
chSchReadyI
rlist
chSchWakeupS
chSchRescheduleS
