ARM GAS  /var/folders/5n/p_75w94d66l9ssrldxqdhh700000gn/T//cc7vzqya.s 			page 1


   1              		.syntax unified
   2              		.cpu cortex-m4
   3              		.fpu softvfp
   4              		.eabi_attribute 20, 1
   5              		.eabi_attribute 21, 1
   6              		.eabi_attribute 23, 3
   7              		.eabi_attribute 24, 1
   8              		.eabi_attribute 25, 1
   9              		.eabi_attribute 26, 1
  10              		.eabi_attribute 30, 2
  11              		.eabi_attribute 18, 4
  12              		.thumb
  13              		.file	"chvt.c"
  14              		.text
  15              	.Ltext0:
  16              		.cfi_sections	.debug_frame
  17              		.section	.text._vt_init,"ax",%progbits
  18              		.align	2
  19              		.p2align 4,,15
  20              		.global	_vt_init
  21              		.thumb
  22              		.thumb_func
  23              		.type	_vt_init, %function
  24              	_vt_init:
  25              	.LFB7:
  26              		.file 1 "../../os/kernel/src/chvt.c"
  27              		.loc 1 43 0
  28              		.cfi_startproc
  29              		@ args = 0, pretend = 0, frame = 0
  30              		@ frame_needed = 0, uses_anonymous_args = 0
  31              		@ link register save eliminated.
  32              		.loc 1 45 0
  33 0000 40F20003 		movw	r3, #:lower16:.LANCHOR0
  34 0004 C0F20003 		movt	r3, #:upper16:.LANCHOR0
  35              		.loc 1 46 0
  36 0008 4FF0FF32 		mov	r2, #-1
  37 000c 9A60     		str	r2, [r3, #8]
  38              		.loc 1 47 0
  39 000e 0022     		movs	r2, #0
  40              		.loc 1 45 0
  41 0010 5B60     		str	r3, [r3, #4]
  42 0012 1B60     		str	r3, [r3, #0]
  43              		.loc 1 47 0
  44 0014 DA60     		str	r2, [r3, #12]
  45              		.loc 1 48 0
  46 0016 7047     		bx	lr
  47              		.cfi_endproc
  48              	.LFE7:
  49              		.size	_vt_init, .-_vt_init
  50 0018 AFF30080 		.section	.text.chVTSetI,"ax",%progbits
  50      AFF30080 
  51              		.align	2
  52              		.p2align 4,,15
  53              		.global	chVTSetI
  54              		.thumb
  55              		.thumb_func
  56              		.type	chVTSetI, %function
ARM GAS  /var/folders/5n/p_75w94d66l9ssrldxqdhh700000gn/T//cc7vzqya.s 			page 2


  57              	chVTSetI:
  58              	.LFB8:
  59              		.loc 1 69 0
  60              		.cfi_startproc
  61              		@ args = 0, pretend = 0, frame = 0
  62              		@ frame_needed = 0, uses_anonymous_args = 0
  63              		@ link register save eliminated.
  64              	.LVL0:
  65 0000 70B4     		push	{r4, r5, r6}
  66              	.LCFI0:
  67              		.cfi_def_cfa_offset 12
  68              		.cfi_offset 6, -4
  69              		.cfi_offset 5, -8
  70              		.cfi_offset 4, -12
  71              		.loc 1 78 0
  72 0002 0D4D     		ldr	r5, .L9
  73              		.loc 1 76 0
  74 0004 0361     		str	r3, [r0, #16]
  75              		.loc 1 78 0
  76 0006 2C68     		ldr	r4, [r5, #0]
  77              	.LVL1:
  78              		.loc 1 77 0
  79 0008 C260     		str	r2, [r0, #12]
  80              		.loc 1 79 0
  81 000a A668     		ldr	r6, [r4, #8]
  82 000c B142     		cmp	r1, r6
  83 000e 04D9     		bls	.L3
  84              	.LVL2:
  85              	.L6:
  86              		.loc 1 81 0
  87 0010 2468     		ldr	r4, [r4, #0]
  88              	.LVL3:
  89              		.loc 1 80 0
  90 0012 891B     		subs	r1, r1, r6
  91              	.LVL4:
  92              		.loc 1 79 0
  93 0014 A668     		ldr	r6, [r4, #8]
  94 0016 8E42     		cmp	r6, r1
  95 0018 FAD3     		bcc	.L6
  96              	.L3:
  97              		.loc 1 84 0
  98 001a 6368     		ldr	r3, [r4, #4]
  99              	.LVL5:
 100              		.loc 1 86 0
 101 001c 8160     		str	r1, [r0, #8]
 102              		.loc 1 87 0
 103 001e AC42     		cmp	r4, r5
 104              		.loc 1 84 0
 105 0020 4360     		str	r3, [r0, #4]
 106 0022 0460     		str	r4, [r0, #0]
 107              		.loc 1 85 0
 108 0024 1860     		str	r0, [r3, #0]
 109              		.loc 1 88 0
 110 0026 18BF     		it	ne
 111 0028 A368     		ldrne	r3, [r4, #8]
 112              		.loc 1 85 0
 113 002a 6060     		str	r0, [r4, #4]
ARM GAS  /var/folders/5n/p_75w94d66l9ssrldxqdhh700000gn/T//cc7vzqya.s 			page 3


 114              		.loc 1 88 0
 115 002c 1CBF     		itt	ne
 116 002e C1EB0301 		rsbne	r1, r1, r3
 117              	.LVL6:
 118 0032 A160     		strne	r1, [r4, #8]
 119              		.loc 1 89 0
 120 0034 70BC     		pop	{r4, r5, r6}
 121 0036 7047     		bx	lr
 122              	.L10:
 123              		.align	2
 124              	.L9:
 125 0038 00000000 		.word	.LANCHOR0
 126              		.cfi_endproc
 127              	.LFE8:
 128              		.size	chVTSetI, .-chVTSetI
 129 003c AFF30080 		.section	.text.chVTResetI,"ax",%progbits
 130              		.align	2
 131              		.p2align 4,,15
 132              		.global	chVTResetI
 133              		.thumb
 134              		.thumb_func
 135              		.type	chVTResetI, %function
 136              	chVTResetI:
 137              	.LFB9:
 138              		.loc 1 99 0
 139              		.cfi_startproc
 140              		@ args = 0, pretend = 0, frame = 0
 141              		@ frame_needed = 0, uses_anonymous_args = 0
 142              		@ link register save eliminated.
 143              	.LVL7:
 144              		.loc 1 107 0
 145 0000 0368     		ldr	r3, [r0, #0]
 146 0002 074A     		ldr	r2, .L13
 147 0004 9342     		cmp	r3, r2
 148              		.loc 1 108 0
 149 0006 1FBF     		itttt	ne
 150 0008 9968     		ldrne	r1, [r3, #8]
 151 000a 8268     		ldrne	r2, [r0, #8]
 152 000c 8A18     		addne	r2, r1, r2
 153 000e 9A60     		strne	r2, [r3, #8]
 154              		.loc 1 109 0
 155 0010 4268     		ldr	r2, [r0, #4]
 156 0012 1360     		str	r3, [r2, #0]
 157              		.loc 1 110 0
 158 0014 0368     		ldr	r3, [r0, #0]
 159 0016 5A60     		str	r2, [r3, #4]
 160              		.loc 1 111 0
 161 0018 0023     		movs	r3, #0
 162 001a C360     		str	r3, [r0, #12]
 163              		.loc 1 112 0
 164 001c 7047     		bx	lr
 165              	.L14:
 166 001e 00BF     		.align	2
 167              	.L13:
 168 0020 00000000 		.word	.LANCHOR0
 169              		.cfi_endproc
 170              	.LFE9:
ARM GAS  /var/folders/5n/p_75w94d66l9ssrldxqdhh700000gn/T//cc7vzqya.s 			page 4


 171              		.size	chVTResetI, .-chVTResetI
 172 0024 AFF30080 		.section	.text.chTimeIsWithin,"ax",%progbits
 172      AFF30080 
 172      AFF30080 
 173              		.align	2
 174              		.p2align 4,,15
 175              		.global	chTimeIsWithin
 176              		.thumb
 177              		.thumb_func
 178              		.type	chTimeIsWithin, %function
 179              	chTimeIsWithin:
 180              	.LFB10:
 181              		.loc 1 127 0
 182              		.cfi_startproc
 183              		@ args = 0, pretend = 0, frame = 0
 184              		@ frame_needed = 0, uses_anonymous_args = 0
 185              		@ link register save eliminated.
 186              	.LVL8:
 187              		.loc 1 129 0
 188 0000 0B4A     		ldr	r2, .L19
 189              		.loc 1 130 0
 190 0002 8142     		cmp	r1, r0
 191              		.loc 1 127 0
 192 0004 0346     		mov	r3, r0
 193              		.loc 1 129 0
 194 0006 D268     		ldr	r2, [r2, #12]
 195              	.LVL9:
 196              		.loc 1 130 0
 197 0008 09D8     		bhi	.L18
 198              		.loc 1 131 0 discriminator 2
 199 000a 8242     		cmp	r2, r0
 200 000c 34BF     		ite	cc
 201 000e 0023     		movcc	r3, #0
 202 0010 0123     		movcs	r3, #1
 203              		.loc 1 130 0 discriminator 2
 204 0012 8A42     		cmp	r2, r1
 205 0014 2CBF     		ite	cs
 206 0016 1846     		movcs	r0, r3
 207 0018 43F00100 		orrcc	r0, r3, #1
 208              	.LVL10:
 209              		.loc 1 132 0 discriminator 2
 210 001c 7047     		bx	lr
 211              	.LVL11:
 212              	.L18:
 213              		.loc 1 130 0 discriminator 1
 214 001e 8A42     		cmp	r2, r1
 215 0020 2CBF     		ite	cs
 216 0022 0020     		movcs	r0, #0
 217              	.LVL12:
 218 0024 0120     		movcc	r0, #1
 219 0026 9A42     		cmp	r2, r3
 220 0028 38BF     		it	cc
 221 002a 0020     		movcc	r0, #0
 222 002c 7047     		bx	lr
 223              	.L20:
 224 002e 00BF     		.align	2
 225              	.L19:
ARM GAS  /var/folders/5n/p_75w94d66l9ssrldxqdhh700000gn/T//cc7vzqya.s 			page 5


 226 0030 00000000 		.word	.LANCHOR0
 227              		.cfi_endproc
 228              	.LFE10:
 229              		.size	chTimeIsWithin, .-chTimeIsWithin
 230              		.global	vtlist
 231 0034 AFF30080 		.section	.bss.vtlist,"aw",%nobits
 231      AFF30080 
 231      AFF30080 
 232              		.align	2
 233              		.set	.LANCHOR0,. + 0
 234              		.type	vtlist, %object
 235              		.size	vtlist, 16
 236              	vtlist:
 237 0000 00000000 		.space	16
 237      00000000 
 237      00000000 
 237      00000000 
 238              		.text
 239              	.Letext0:
 240              		.file 2 "/usr/local/summon/lib/gcc/arm-none-eabi/4.6.2/../../../../arm-none-eabi/include/stdint.h"
 241              		.file 3 "../../os/ports/GCC/ARMCMx/chtypes.h"
 242              		.file 4 "../../os/kernel/include/chvt.h"