ARM GAS  /var/folders/5n/p_75w94d66l9ssrldxqdhh700000gn/T//ccpJZGqX.s 			page 1


   1              		.syntax unified
   2              		.cpu cortex-m4
   3              		.fpu softvfp
   4              		.eabi_attribute 20, 1
   5              		.eabi_attribute 21, 1
   6              		.eabi_attribute 23, 3
   7              		.eabi_attribute 24, 1
   8              		.eabi_attribute 25, 1
   9              		.eabi_attribute 26, 1
  10              		.eabi_attribute 30, 2
  11              		.eabi_attribute 18, 4
  12              		.thumb
  13              		.file	"crt0.c"
  14              		.text
  15              	.Ltext0:
  16              		.cfi_sections	.debug_frame
  17              		.section	.text.__early_init,"ax",%progbits
  18              		.align	2
  19              		.p2align 4,,15
  20              		.weak	__early_init
  21              		.thumb
  22              		.thumb_func
  23              		.type	__early_init, %function
  24              	__early_init:
  25              	.LFB7:
  26              		.file 1 "../../os/ports/GCC/ARMCMx/crt0.c"
  27              		.loc 1 213 0
  28              		.cfi_startproc
  29              		@ args = 0, pretend = 0, frame = 0
  30              		@ frame_needed = 0, uses_anonymous_args = 0
  31              		@ link register save eliminated.
  32              		.loc 1 213 0
  33 0000 7047     		bx	lr
  34              		.cfi_endproc
  35              	.LFE7:
  36              		.size	__early_init, .-__early_init
  37 0002 00BFAFF3 		.section	.text.__late_init,"ax",%progbits
  37      0080AFF3 
  37      0080AFF3 
  37      0080
  38              		.align	2
  39              		.p2align 4,,15
  40              		.weak	__late_init
  41              		.thumb
  42              		.thumb_func
  43              		.type	__late_init, %function
  44              	__late_init:
  45              	.LFB8:
  46              		.loc 1 225 0
  47              		.cfi_startproc
  48              		@ args = 0, pretend = 0, frame = 0
  49              		@ frame_needed = 0, uses_anonymous_args = 0
  50              		@ link register save eliminated.
  51              		.loc 1 225 0
  52 0000 7047     		bx	lr
  53              		.cfi_endproc
  54              	.LFE8:
ARM GAS  /var/folders/5n/p_75w94d66l9ssrldxqdhh700000gn/T//ccpJZGqX.s 			page 2


  55              		.size	__late_init, .-__late_init
  56 0002 00BFAFF3 		.section	.text._default_exit,"ax",%progbits
  56      0080AFF3 
  56      0080AFF3 
  56      0080
  57              		.align	2
  58              		.p2align 4,,15
  59              		.weak	_default_exit
  60              		.thumb
  61              		.thumb_func
  62              		.type	_default_exit, %function
  63              	_default_exit:
  64              	.LFB9:
  65              		.loc 1 236 0
  66              		.cfi_startproc
  67              		@ Naked Function: prologue and epilogue provided by programmer.
  68              		@ args = 0, pretend = 0, frame = 0
  69              		@ frame_needed = 0, uses_anonymous_args = 0
  70              	.L4:
  71 0000 FEE7     		b	.L4
  72              		.cfi_endproc
  73              	.LFE9:
  74              		.size	_default_exit, .-_default_exit
  75 0002 00BFAFF3 		.section	.text.ResetHandler,"ax",%progbits
  75      0080AFF3 
  75      0080AFF3 
  75      0080
  76              		.align	2
  77              		.p2align 4,,15
  78              		.global	ResetHandler
  79              		.thumb
  80              		.thumb_func
  81              		.type	ResetHandler, %function
  82              	ResetHandler:
  83              	.LFB10:
  84              		.loc 1 247 0
  85              		.cfi_startproc
  86              		@ Naked Function: prologue and epilogue provided by programmer.
  87              		@ args = 0, pretend = 0, frame = 0
  88              		@ frame_needed = 0, uses_anonymous_args = 0
  89              		.loc 1 253 0
  90              	@ 253 "../../os/ports/GCC/ARMCMx/crt0.c" 1
  91 0000 72B6     		cpsid   i
  92              	@ 0 "" 2
  93              	.LVL0:
  94              		.loc 1 255 0
  95              		.thumb
  96 0002 244A     		ldr	r2, .L25
  97              	@ 255 "../../os/ports/GCC/ARMCMx/crt0.c" 1
  98 0004 82F30988 		msr     PSP, r2
  99              	@ 0 "" 2
 100              	.LVL1:
 101              		.loc 1 275 0
 102              		.thumb
 103 0008 0223     		movs	r3, #2
 104              	@ 275 "../../os/ports/GCC/ARMCMx/crt0.c" 1
 105 000a 83F31488 		msr     CONTROL, r3
ARM GAS  /var/folders/5n/p_75w94d66l9ssrldxqdhh700000gn/T//ccpJZGqX.s 			page 3


 106              	@ 0 "" 2
 107              		.loc 1 276 0
 108              	@ 276 "../../os/ports/GCC/ARMCMx/crt0.c" 1
 109 000e BFF36F8F 		isb
 110              	@ 0 "" 2
 111              	.LVL2:
 112              		.thumb
 113              	.LBB2:
 114              		.loc 1 280 0
 115 0012 214B     		ldr	r3, .L25+4
 116 0014 2149     		ldr	r1, .L25+8
 117 0016 8B42     		cmp	r3, r1
 118 0018 05D2     		bcs	.L6
 119 001a 4FF05530 		mov	r0, #1431655765
 120              	.LVL3:
 121              	.L7:
 122              		.loc 1 280 0 is_stmt 0 discriminator 2
 123 001e 43F8040B 		str	r0, [r3], #4
 124              	.LVL4:
 125 0022 8B42     		cmp	r3, r1
 126 0024 FBD3     		bcc	.L7
 127              	.LVL5:
 128              	.L6:
 129              	.LBE2:
 130              	.LBB3:
 131              		.loc 1 283 0 is_stmt 1 discriminator 1
 132 0026 1E4B     		ldr	r3, .L25+12
 133 0028 9342     		cmp	r3, r2
 134 002a 05D2     		bcs	.L8
 135              		.loc 1 283 0 is_stmt 0
 136 002c 4FF05531 		mov	r1, #1431655765
 137              	.LVL6:
 138              	.L9:
 139              		.loc 1 283 0 discriminator 2
 140 0030 43F8041B 		str	r1, [r3], #4
 141              	.LVL7:
 142 0034 9342     		cmp	r3, r2
 143 0036 FBD3     		bcc	.L9
 144              	.LVL8:
 145              	.L8:
 146              	.LBE3:
 147              		.loc 1 289 0 is_stmt 1
 148 0038 FFF7FEFF 		bl	__early_init
 149              	.LVL9:
 150              	.LBB4:
 151              		.loc 1 298 0
 152 003c 194B     		ldr	r3, .L25+16
 153 003e 1A48     		ldr	r0, .L25+20
 154 0040 8342     		cmp	r3, r0
 155 0042 06D2     		bcs	.L10
 156 0044 194A     		ldr	r2, .L25+24
 157              	.LVL10:
 158              	.L11:
 159              		.loc 1 299 0
 160 0046 52F8041F 		ldr	r1, [r2, #4]!
 161 004a 43F8041B 		str	r1, [r3], #4
 162              	.LVL11:
ARM GAS  /var/folders/5n/p_75w94d66l9ssrldxqdhh700000gn/T//ccpJZGqX.s 			page 4


 163              		.loc 1 298 0
 164 004e 8342     		cmp	r3, r0
 165 0050 F9D3     		bcc	.L11
 166              	.LVL12:
 167              	.L10:
 168              	.LBE4:
 169              	.LBB5:
 170              		.loc 1 305 0 discriminator 1
 171 0052 174B     		ldr	r3, .L25+28
 172 0054 174A     		ldr	r2, .L25+32
 173 0056 9342     		cmp	r3, r2
 174 0058 04D2     		bcs	.L12
 175              		.loc 1 305 0 is_stmt 0
 176 005a 0021     		movs	r1, #0
 177              	.LVL13:
 178              	.L13:
 179              		.loc 1 305 0 discriminator 2
 180 005c 43F8041B 		str	r1, [r3], #4
 181              	.LVL14:
 182 0060 9342     		cmp	r3, r2
 183 0062 FBD3     		bcc	.L13
 184              	.LVL15:
 185              	.L12:
 186              	.LBE5:
 187              	.LBB6:
 188              		.loc 1 315 0 is_stmt 1
 189 0064 144D     		ldr	r5, .L25+36
 190 0066 154C     		ldr	r4, .L25+40
 191              	.LBE6:
 192              		.loc 1 309 0
 193 0068 FFF7FEFF 		bl	__late_init
 194              	.LVL16:
 195              	.LBB7:
 196              		.loc 1 315 0
 197 006c AC42     		cmp	r4, r5
 198 006e 04D2     		bcs	.L14
 199              	.LVL17:
 200              	.L15:
 201              		.loc 1 316 0
 202 0070 54F8043B 		ldr	r3, [r4], #4
 203 0074 9847     		blx	r3
 204              	.LVL18:
 205              		.loc 1 315 0
 206 0076 AC42     		cmp	r4, r5
 207 0078 FAD3     		bcc	.L15
 208              	.LVL19:
 209              	.L14:
 210              	.LBE7:
 211              	.LBB8:
 212              		.loc 1 329 0
 213 007a 114D     		ldr	r5, .L25+44
 214 007c 114C     		ldr	r4, .L25+48
 215              	.LBE8:
 216              		.loc 1 323 0
 217 007e FFF7FEFF 		bl	main
 218              	.LVL20:
 219              	.LBB9:
ARM GAS  /var/folders/5n/p_75w94d66l9ssrldxqdhh700000gn/T//ccpJZGqX.s 			page 5


 220              		.loc 1 329 0
 221 0082 AC42     		cmp	r4, r5
 222 0084 04D2     		bcs	.L16
 223              	.LVL21:
 224              	.L17:
 225              		.loc 1 330 0
 226 0086 54F8043B 		ldr	r3, [r4], #4
 227 008a 9847     		blx	r3
 228              	.LVL22:
 229              		.loc 1 329 0
 230 008c AC42     		cmp	r4, r5
 231 008e FAD3     		bcc	.L17
 232              	.LVL23:
 233              	.L16:
 234              	.LBE9:
 235              		.loc 1 338 0
 236              		.loc 1 337 0
 237 0090 FFF7FEBF 		b	_default_exit
 238              	.L26:
 239              		.align	2
 240              	.L25:
 241 0094 00000000 		.word	__process_stack_end__
 242 0098 00000000 		.word	__main_stack_base__
 243 009c 00000000 		.word	__main_stack_end__
 244 00a0 00000000 		.word	__process_stack_base__
 245 00a4 00000000 		.word	_data
 246 00a8 00000000 		.word	_edata
 247 00ac FCFFFFFF 		.word	_textdata-4
 248 00b0 00000000 		.word	_bss_start
 249 00b4 00000000 		.word	_bss_end
 250 00b8 00000000 		.word	__init_array_end
 251 00bc 00000000 		.word	__init_array_start
 252 00c0 00000000 		.word	__fini_array_end
 253 00c4 00000000 		.word	__fini_array_start
 254              		.cfi_endproc
 255              	.LFE10:
 256              		.size	ResetHandler, .-ResetHandler
 257 00c8 AFF30080 		.text
 257      AFF30080 
 258              	.Letext0:
 259              		.file 2 "/usr/local/summon/lib/gcc/arm-none-eabi/4.6.2/../../../../arm-none-eabi/include/stdint.h"