ARM GAS  /var/folders/5n/p_75w94d66l9ssrldxqdhh700000gn/T//cczl67VS.s 			page 1


   1              		.syntax unified
   2              		.cpu cortex-m4
   3              		.fpu softvfp
   4              		.eabi_attribute 20, 1
   5              		.eabi_attribute 21, 1
   6              		.eabi_attribute 23, 3
   7              		.eabi_attribute 24, 1
   8              		.eabi_attribute 25, 1
   9              		.eabi_attribute 26, 1
  10              		.eabi_attribute 30, 2
  11              		.eabi_attribute 18, 4
  12              		.thumb
  13              		.file	"def.c"
  14              		.text
  15              	.Ltext0:
  16              		.cfi_sections	.debug_frame
  17              		.section	.text.lwip_htons,"ax",%progbits
  18              		.align	2
  19              		.p2align 4,,15
  20              		.global	lwip_htons
  21              		.thumb
  22              		.thumb_func
  23              		.type	lwip_htons, %function
  24              	lwip_htons:
  25              	.LFB7:
  26              		.file 1 "../../ext/lwip/src/core/def.c"
  27              		.loc 1 65 0
  28              		.cfi_startproc
  29              		@ args = 0, pretend = 0, frame = 0
  30              		@ frame_needed = 0, uses_anonymous_args = 0
  31              		@ link register save eliminated.
  32              	.LVL0:
  33              		.loc 1 66 0
  34 0000 030A     		lsrs	r3, r0, #8
  35 0002 43EA0020 		orr	r0, r3, r0, lsl #8
  36              	.LVL1:
  37              		.loc 1 67 0
  38 0006 80B2     		uxth	r0, r0
  39 0008 7047     		bx	lr
  40              		.cfi_endproc
  41              	.LFE7:
  42              		.size	lwip_htons, .-lwip_htons
  43              		.section	.text.lwip_ntohs,"ax",%progbits
  44              		.align	2
  45              		.p2align 4,,15
  46              		.global	lwip_ntohs
  47              		.thumb
  48              		.thumb_func
  49              		.type	lwip_ntohs, %function
  50              	lwip_ntohs:
  51              	.LFB8:
  52              		.loc 1 77 0
  53              		.cfi_startproc
  54              		@ args = 0, pretend = 0, frame = 0
  55              		@ frame_needed = 0, uses_anonymous_args = 0
  56              		@ link register save eliminated.
  57              	.LVL2:
ARM GAS  /var/folders/5n/p_75w94d66l9ssrldxqdhh700000gn/T//cczl67VS.s 			page 2


  58              	.LBB6:
  59              	.LBB7:
  60              		.loc 1 66 0
  61 0000 030A     		lsrs	r3, r0, #8
  62 0002 43EA0020 		orr	r0, r3, r0, lsl #8
  63              	.LVL3:
  64              	.LBE7:
  65              	.LBE6:
  66              		.loc 1 79 0
  67 0006 80B2     		uxth	r0, r0
  68 0008 7047     		bx	lr
  69              		.cfi_endproc
  70              	.LFE8:
  71              		.size	lwip_ntohs, .-lwip_ntohs
  72 000a 00BFAFF3 		.section	.text.lwip_htonl,"ax",%progbits
  72      0080
  73              		.align	2
  74              		.p2align 4,,15
  75              		.global	lwip_htonl
  76              		.thumb
  77              		.thumb_func
  78              		.type	lwip_htonl, %function
  79              	lwip_htonl:
  80              	.LFB9:
  81              		.loc 1 89 0
  82              		.cfi_startproc
  83              		@ args = 0, pretend = 0, frame = 0
  84              		@ frame_needed = 0, uses_anonymous_args = 0
  85              		@ link register save eliminated.
  86              	.LVL4:
  87              		.loc 1 94 0
  88 0000 00BA     		rev	r0, r0
  89              	.LVL5:
  90 0002 7047     		bx	lr
  91              		.cfi_endproc
  92              	.LFE9:
  93              		.size	lwip_htonl, .-lwip_htonl
  94 0004 AFF30080 		.section	.text.lwip_ntohl,"ax",%progbits
  94      AFF30080 
  94      AFF30080 
  95              		.align	2
  96              		.p2align 4,,15
  97              		.global	lwip_ntohl
  98              		.thumb
  99              		.thumb_func
 100              		.type	lwip_ntohl, %function
 101              	lwip_ntohl:
 102              	.LFB10:
 103              		.loc 1 104 0
 104              		.cfi_startproc
 105              		@ args = 0, pretend = 0, frame = 0
 106              		@ frame_needed = 0, uses_anonymous_args = 0
 107              		@ link register save eliminated.
 108              	.LVL6:
 109              		.loc 1 106 0
 110 0000 00BA     		rev	r0, r0
 111              	.LVL7:
ARM GAS  /var/folders/5n/p_75w94d66l9ssrldxqdhh700000gn/T//cczl67VS.s 			page 3


 112 0002 7047     		bx	lr
 113              		.cfi_endproc
 114              	.LFE10:
 115              		.size	lwip_ntohl, .-lwip_ntohl
 116 0004 AFF30080 		.text
 116      AFF30080 
 116      AFF30080 
 117              	.Letext0:
 118              		.file 2 "/usr/local/summon/lib/gcc/arm-none-eabi/4.6.2/../../../../arm-none-eabi/include/stdint.h"
 119              		.file 3 "../../os/various/lwip_bindings/arch/cc.h"