ARM GAS  /var/folders/5n/p_75w94d66l9ssrldxqdhh700000gn/T//ccN7kdkN.s 			page 1


   1              		.syntax unified
   2              		.cpu cortex-m4
   3              		.fpu softvfp
   4              		.eabi_attribute 20, 1
   5              		.eabi_attribute 21, 1
   6              		.eabi_attribute 23, 3
   7              		.eabi_attribute 24, 1
   8              		.eabi_attribute 25, 1
   9              		.eabi_attribute 26, 1
  10              		.eabi_attribute 30, 2
  11              		.eabi_attribute 18, 4
  12              		.thumb
  13              		.file	"icmp.c"
  14              		.text
  15              	.Ltext0:
  16              		.cfi_sections	.debug_frame
  17              		.section	.text.icmp_send_response,"ax",%progbits
  18              		.align	2
  19              		.p2align 4,,15
  20              		.thumb
  21              		.thumb_func
  22              		.type	icmp_send_response, %function
  23              	icmp_send_response:
  24              	.LFB10:
  25              		.file 1 "../../ext/lwip/src/core/ipv4/icmp.c"
  26              		.loc 1 288 0
  27              		.cfi_startproc
  28              		@ args = 0, pretend = 0, frame = 8
  29              		@ frame_needed = 0, uses_anonymous_args = 0
  30              	.LVL0:
  31 0000 2DE9F043 		push	{r4, r5, r6, r7, r8, r9, lr}
  32              	.LCFI0:
  33              		.cfi_def_cfa_offset 28
  34              		.cfi_offset 14, -4
  35              		.cfi_offset 9, -8
  36              		.cfi_offset 8, -12
  37              		.cfi_offset 7, -16
  38              		.cfi_offset 6, -20
  39              		.cfi_offset 5, -24
  40              		.cfi_offset 4, -28
  41 0004 8046     		mov	r8, r0
  42 0006 85B0     		sub	sp, sp, #20
  43              	.LCFI1:
  44              		.cfi_def_cfa_offset 48
  45              		.loc 1 288 0
  46 0008 0E46     		mov	r6, r1
  47 000a 9146     		mov	r9, r2
  48              		.loc 1 296 0
  49 000c 0120     		movs	r0, #1
  50              	.LVL1:
  51 000e 2421     		movs	r1, #36
  52              	.LVL2:
  53 0010 0022     		movs	r2, #0
  54              	.LVL3:
  55 0012 FFF7FEFF 		bl	pbuf_alloc
  56              	.LVL4:
  57              		.loc 1 298 0
ARM GAS  /var/folders/5n/p_75w94d66l9ssrldxqdhh700000gn/T//ccN7kdkN.s 			page 2


  58 0016 0446     		mov	r4, r0
  59 0018 0028     		cmp	r0, #0
  60 001a 3CD0     		beq	.L1
  61              		.loc 1 302 0
  62 001c 4389     		ldrh	r3, [r0, #10]
  63 001e 232B     		cmp	r3, #35
  64 0020 3CD9     		bls	.L5
  65              	.LVL5:
  66              	.L3:
  67              		.loc 1 312 0
  68 0022 6568     		ldr	r5, [r4, #4]
  69              		.loc 1 305 0
  70 0024 D8F80470 		ldr	r7, [r8, #4]
  71              	.LVL6:
  72              		.loc 1 313 0
  73 0028 2E70     		strb	r6, [r5, #0]
  74              		.loc 1 315 0
  75 002a 0026     		movs	r6, #0
  76              		.loc 1 314 0
  77 002c 85F80190 		strb	r9, [r5, #1]
  78              		.loc 1 315 0
  79 0030 2E71     		strb	r6, [r5, #4]
  80 0032 6E71     		strb	r6, [r5, #5]
  81              		.loc 1 316 0
  82 0034 AE71     		strb	r6, [r5, #6]
  83 0036 EE71     		strb	r6, [r5, #7]
  84              		.loc 1 319 0
  85 0038 6068     		ldr	r0, [r4, #4]
  86 003a D8F80410 		ldr	r1, [r8, #4]
  87 003e 1C22     		movs	r2, #28
  88 0040 0830     		adds	r0, r0, #8
  89 0042 FFF7FEFF 		bl	memcpy
  90              	.LVL7:
  91              		.loc 1 323 0
  92 0046 AE70     		strb	r6, [r5, #2]
  93 0048 EE70     		strb	r6, [r5, #3]
  94              		.loc 1 324 0
  95 004a 6189     		ldrh	r1, [r4, #10]
  96 004c 2846     		mov	r0, r5
  97 004e FFF7FEFF 		bl	inet_chksum
  98              		.loc 1 325 0
  99 0052 144B     		ldr	r3, .L6
 100              		.loc 1 324 0
 101 0054 A870     		strb	r0, [r5, #2]
 102 0056 C0F30F22 		ubfx	r2, r0, #8, #16
 103 005a EA70     		strb	r2, [r5, #3]
 104              		.loc 1 325 0
 105 005c B3F86020 		ldrh	r2, [r3, #96]
 106 0060 0132     		adds	r2, r2, #1
 107 0062 A3F86020 		strh	r2, [r3, #96]	@ movhi
 108              		.loc 1 330 0
 109 0066 787B     		ldrb	r0, [r7, #13]	@ zero_extendqisi2
 110 0068 3B7B     		ldrb	r3, [r7, #12]	@ zero_extendqisi2
 111 006a BA7B     		ldrb	r2, [r7, #14]	@ zero_extendqisi2
 112 006c F97B     		ldrb	r1, [r7, #15]	@ zero_extendqisi2
 113              		.loc 1 331 0
 114 006e 0096     		str	r6, [sp, #0]
ARM GAS  /var/folders/5n/p_75w94d66l9ssrldxqdhh700000gn/T//ccN7kdkN.s 			page 3


 115              		.loc 1 330 0
 116 0070 43EA0023 		orr	r3, r3, r0, lsl #8
 117 0074 43EA0243 		orr	r3, r3, r2, lsl #16
 118 0078 04AA     		add	r2, sp, #16
 119 007a 43EA0163 		orr	r3, r3, r1, lsl #24
 120 007e 42F8043D 		str	r3, [r2, #-4]!
 121              		.loc 1 331 0
 122 0082 2046     		mov	r0, r4
 123 0084 3146     		mov	r1, r6
 124 0086 FF23     		movs	r3, #255
 125 0088 0125     		movs	r5, #1
 126              	.LVL8:
 127 008a 0195     		str	r5, [sp, #4]
 128 008c FFF7FEFF 		bl	ip_output
 129              		.loc 1 332 0
 130 0090 2046     		mov	r0, r4
 131 0092 FFF7FEFF 		bl	pbuf_free
 132              	.LVL9:
 133              	.L1:
 134              		.loc 1 333 0
 135 0096 05B0     		add	sp, sp, #20
 136 0098 BDE8F083 		pop	{r4, r5, r6, r7, r8, r9, pc}
 137              	.L5:
 138              		.loc 1 302 0 discriminator 1
 139 009c FFF7FEFF 		bl	port_halt
 140 00a0 BFE7     		b	.L3
 141              	.L7:
 142 00a2 00BF     		.align	2
 143              	.L6:
 144 00a4 00000000 		.word	lwip_stats
 145              		.cfi_endproc
 146              	.LFE10:
 147              		.size	icmp_send_response, .-icmp_send_response
 148 00a8 AFF30080 		.section	.text.icmp_input,"ax",%progbits
 148      AFF30080 
 149              		.align	2
 150              		.p2align 4,,15
 151              		.global	icmp_input
 152              		.thumb
 153              		.thumb_func
 154              		.type	icmp_input, %function
 155              	icmp_input:
 156              	.LFB7:
 157              		.loc 1 78 0
 158              		.cfi_startproc
 159              		@ args = 0, pretend = 0, frame = 0
 160              		@ frame_needed = 0, uses_anonymous_args = 0
 161              	.LVL10:
 162 0000 2DE9F04F 		push	{r4, r5, r6, r7, r8, r9, sl, fp, lr}
 163              	.LCFI2:
 164              		.cfi_def_cfa_offset 36
 165              		.cfi_offset 14, -4
 166              		.cfi_offset 11, -8
 167              		.cfi_offset 10, -12
 168              		.cfi_offset 9, -16
 169              		.cfi_offset 8, -20
 170              		.cfi_offset 7, -24
ARM GAS  /var/folders/5n/p_75w94d66l9ssrldxqdhh700000gn/T//ccN7kdkN.s 			page 4


 171              		.cfi_offset 6, -28
 172              		.cfi_offset 5, -32
 173              		.cfi_offset 4, -36
 174              		.loc 1 87 0
 175 0004 884E     		ldr	r6, .L35
 176              		.loc 1 91 0
 177 0006 D0F804A0 		ldr	sl, [r0, #4]
 178              	.LVL11:
 179              		.loc 1 87 0
 180 000a B6F86230 		ldrh	r3, [r6, #98]
 181 000e 0133     		adds	r3, r3, #1
 182 0010 A6F86230 		strh	r3, [r6, #98]	@ movhi
 183              		.loc 1 78 0
 184 0014 0446     		mov	r4, r0
 185              		.loc 1 92 0
 186 0016 9AF80030 		ldrb	r3, [sl, #0]	@ zero_extendqisi2
 187 001a 9AF80100 		ldrb	r0, [sl, #1]	@ zero_extendqisi2
 188              	.LVL12:
 189              		.loc 1 78 0
 190 001e 85B0     		sub	sp, sp, #20
 191              	.LCFI3:
 192              		.cfi_def_cfa_offset 56
 193              		.loc 1 92 0
 194 0020 43EA0020 		orr	r0, r3, r0, lsl #8
 195              		.loc 1 78 0
 196 0024 0D46     		mov	r5, r1
 197              		.loc 1 92 0
 198 0026 FFF7FEFF 		bl	lwip_ntohs
 199              	.LVL13:
 200 002a C0F30329 		ubfx	r9, r0, #8, #4
 201 002e 4FEA8909 		lsl	r9, r9, #2
 202              	.LVL14:
 203              		.loc 1 93 0
 204 0032 C9F10007 		rsb	r7, r9, #0
 205 0036 2046     		mov	r0, r4
 206 0038 3946     		mov	r1, r7
 207 003a FFF7FEFF 		bl	pbuf_header
 208 003e F8B9     		cbnz	r0, .L9
 209              		.loc 1 93 0 is_stmt 0 discriminator 1
 210 0040 2389     		ldrh	r3, [r4, #8]
 211 0042 032B     		cmp	r3, #3
 212 0044 1CD9     		bls	.L9
 213              	.LVL15:
 214              		.loc 1 98 0 is_stmt 1
 215 0046 6368     		ldr	r3, [r4, #4]
 216              		.loc 1 102 0
 217 0048 1B78     		ldrb	r3, [r3, #0]	@ zero_extendqisi2
 218 004a 5BB1     		cbz	r3, .L11
 219 004c 082B     		cmp	r3, #8
 220 004e 22D0     		beq	.L30
 221              		.loc 1 228 0
 222 0050 B6F87020 		ldrh	r2, [r6, #112]
 223              		.loc 1 229 0
 224 0054 B6F86630 		ldrh	r3, [r6, #102]
 225              		.loc 1 228 0
 226 0058 0132     		adds	r2, r2, #1
 227              		.loc 1 229 0
ARM GAS  /var/folders/5n/p_75w94d66l9ssrldxqdhh700000gn/T//ccN7kdkN.s 			page 5


 228 005a 0133     		adds	r3, r3, #1
 229              		.loc 1 228 0
 230 005c A6F87020 		strh	r2, [r6, #112]	@ movhi
 231              		.loc 1 229 0
 232 0060 A6F86630 		strh	r3, [r6, #102]	@ movhi
 233              	.LVL16:
 234              	.L11:
 235              		.loc 1 231 0
 236 0064 2046     		mov	r0, r4
 237              		.loc 1 245 0
 238 0066 05B0     		add	sp, sp, #20
 239 0068 BDE8F04F 		pop	{r4, r5, r6, r7, r8, r9, sl, fp, lr}
 240              		.loc 1 231 0
 241 006c FFF7FEBF 		b	pbuf_free
 242              	.LVL17:
 243              	.L32:
 244              	.LBB2:
 245              		.loc 1 113 0
 246 0070 0BF0F00B 		and	fp, fp, #240
 247              	.LVL18:
 248              		.loc 1 124 0
 249 0074 BBF1E00F 		cmp	fp, #224
 250 0078 17D0     		beq	.L13
 251              	.LBE2:
 252              		.loc 1 133 0
 253 007a 2389     		ldrh	r3, [r4, #8]
 254 007c 072B     		cmp	r3, #7
 255 007e 1FD8     		bhi	.L31
 256              	.L9:
 257              		.loc 1 234 0
 258 0080 2046     		mov	r0, r4
 259 0082 FFF7FEFF 		bl	pbuf_free
 260              		.loc 1 235 0
 261 0086 B6F86A30 		ldrh	r3, [r6, #106]
 262 008a 0133     		adds	r3, r3, #1
 263 008c A6F86A30 		strh	r3, [r6, #106]	@ movhi
 264              	.LVL19:
 265              	.L8:
 266              		.loc 1 245 0
 267 0090 05B0     		add	sp, sp, #20
 268 0092 BDE8F08F 		pop	{r4, r5, r6, r7, r8, r9, sl, fp, pc}
 269              	.LVL20:
 270              	.L30:
 271              	.LBB3:
 272              		.loc 1 113 0
 273 0096 DFF89881 		ldr	r8, .L35+8
 274 009a D8F800B0 		ldr	fp, [r8, #0]
 275              	.LVL21:
 276              		.loc 1 119 0
 277 009e 2946     		mov	r1, r5
 278 00a0 5846     		mov	r0, fp
 279 00a2 FFF7FEFF 		bl	ip4_addr_isbroadcast
 280              	.LVL22:
 281 00a6 0028     		cmp	r0, #0
 282 00a8 E2D0     		beq	.L32
 283              	.LVL23:
 284              	.L13:
ARM GAS  /var/folders/5n/p_75w94d66l9ssrldxqdhh700000gn/T//ccN7kdkN.s 			page 6


 285              		.loc 1 126 0
 286 00aa B6F87430 		ldrh	r3, [r6, #116]
 287              		.loc 1 127 0
 288 00ae 2046     		mov	r0, r4
 289              		.loc 1 126 0
 290 00b0 0133     		adds	r3, r3, #1
 291 00b2 A6F87430 		strh	r3, [r6, #116]	@ movhi
 292              	.LBE3:
 293              		.loc 1 245 0
 294 00b6 05B0     		add	sp, sp, #20
 295 00b8 BDE8F04F 		pop	{r4, r5, r6, r7, r8, r9, sl, fp, lr}
 296              	.LBB4:
 297              		.loc 1 127 0
 298 00bc FFF7FEBF 		b	pbuf_free
 299              	.L31:
 300              	.LBE4:
 301              		.loc 1 137 0
 302 00c0 2046     		mov	r0, r4
 303 00c2 FFF7FEFF 		bl	inet_chksum_pbuf
 304 00c6 0028     		cmp	r0, #0
 305 00c8 7DD1     		bne	.L33
 306              		.loc 1 145 0
 307 00ca 2046     		mov	r0, r4
 308 00cc 2221     		movs	r1, #34
 309              		.loc 1 92 0
 310 00ce 1FFA89F9 		uxth	r9, r9
 311              		.loc 1 145 0
 312 00d2 FFF7FEFF 		bl	pbuf_header
 313 00d6 0028     		cmp	r0, #0
 314 00d8 00F08980 		beq	.L17
 315              	.LBB5:
 316              		.loc 1 151 0
 317 00dc 0FFA89F9 		sxth	r9, r9
 318 00e0 2046     		mov	r0, r4
 319 00e2 4946     		mov	r1, r9
 320 00e4 FFF7FEFF 		bl	pbuf_header
 321 00e8 0028     		cmp	r0, #0
 322 00ea 75D1     		bne	.L29
 323              		.loc 1 156 0
 324 00ec 0220     		movs	r0, #2
 325 00ee 2189     		ldrh	r1, [r4, #8]
 326 00f0 0022     		movs	r2, #0
 327 00f2 FFF7FEFF 		bl	pbuf_alloc
 328              	.LVL24:
 329              		.loc 1 157 0
 330 00f6 8346     		mov	fp, r0
 331 00f8 0028     		cmp	r0, #0
 332 00fa 6FD0     		beq	.L19
 333              		.loc 1 161 0
 334 00fc 4289     		ldrh	r2, [r0, #10]
 335 00fe 09F10803 		add	r3, r9, #8
 336 0102 9A42     		cmp	r2, r3
 337 0104 C0F08D80 		bcc	.L34
 338              	.LVL25:
 339              	.L20:
 340              		.loc 1 164 0
 341 0108 5846     		mov	r0, fp
ARM GAS  /var/folders/5n/p_75w94d66l9ssrldxqdhh700000gn/T//ccN7kdkN.s 			page 7


 342 010a 2146     		mov	r1, r4
 343 010c FFF7FEFF 		bl	pbuf_copy
 344 0110 0028     		cmp	r0, #0
 345 0112 61D1     		bne	.L29
 346              		.loc 1 170 0
 347 0114 5846     		mov	r0, fp
 348 0116 3946     		mov	r1, r7
 349              		.loc 1 168 0
 350 0118 DBF804A0 		ldr	sl, [fp, #4]
 351              	.LVL26:
 352              		.loc 1 170 0
 353 011c FFF7FEFF 		bl	pbuf_header
 354              	.LVL27:
 355 0120 0028     		cmp	r0, #0
 356 0122 59D1     		bne	.L29
 357              		.loc 1 175 0
 358 0124 2046     		mov	r0, r4
 359 0126 FFF7FEFF 		bl	pbuf_free
 360              	.LVL28:
 361 012a 5C46     		mov	r4, fp
 362              	.LVL29:
 363              	.L23:
 364              	.LBE5:
 365              		.loc 1 190 0
 366 012c 98F80020 		ldrb	r2, [r8, #0]	@ zero_extendqisi2
 367              		.loc 1 189 0
 368 0130 6368     		ldr	r3, [r4, #4]
 369              	.LVL30:
 370              		.loc 1 190 0
 371 0132 8AF80C20 		strb	r2, [sl, #12]
 372 0136 98F80110 		ldrb	r1, [r8, #1]	@ zero_extendqisi2
 373              		.loc 1 191 0
 374 013a 3C4A     		ldr	r2, .L35+4
 375              		.loc 1 190 0
 376 013c 8AF80D10 		strb	r1, [sl, #13]
 377 0140 98F80210 		ldrb	r1, [r8, #2]	@ zero_extendqisi2
 378 0144 8AF80E10 		strb	r1, [sl, #14]
 379 0148 98F80310 		ldrb	r1, [r8, #3]	@ zero_extendqisi2
 380 014c 8AF80F10 		strb	r1, [sl, #15]
 381              		.loc 1 191 0
 382 0150 1178     		ldrb	r1, [r2, #0]	@ zero_extendqisi2
 383 0152 8AF81010 		strb	r1, [sl, #16]
 384 0156 5178     		ldrb	r1, [r2, #1]	@ zero_extendqisi2
 385 0158 8AF81110 		strb	r1, [sl, #17]
 386 015c 9178     		ldrb	r1, [r2, #2]	@ zero_extendqisi2
 387 015e 8AF81210 		strb	r1, [sl, #18]
 388 0162 D278     		ldrb	r2, [r2, #3]	@ zero_extendqisi2
 389 0164 8AF81320 		strb	r2, [sl, #19]
 390              		.loc 1 194 0
 391 0168 D978     		ldrb	r1, [r3, #3]	@ zero_extendqisi2
 392 016a 9A78     		ldrb	r2, [r3, #2]	@ zero_extendqisi2
 393 016c 42EA0122 		orr	r2, r2, r1, lsl #8
 394              		.loc 1 192 0
 395 0170 0021     		movs	r1, #0
 396 0172 1970     		strb	r1, [r3, #0]
 397              		.loc 1 194 0
 398 0174 4FF6F671 		movw	r1, #65526
ARM GAS  /var/folders/5n/p_75w94d66l9ssrldxqdhh700000gn/T//ccN7kdkN.s 			page 8


 399 0178 8A42     		cmp	r2, r1
 400 017a 4CD9     		bls	.L24
 401              		.loc 1 195 0
 402 017c 0932     		adds	r2, r2, #9
 403 017e 92B2     		uxth	r2, r2
 404 0180 110A     		lsrs	r1, r2, #8
 405 0182 9A70     		strb	r2, [r3, #2]
 406 0184 D970     		strb	r1, [r3, #3]
 407              	.L25:
 408              		.loc 1 202 0
 409 0186 0023     		movs	r3, #0
 410              		.loc 1 201 0
 411 0188 FF27     		movs	r7, #255
 412              	.LVL31:
 413              		.loc 1 204 0
 414 018a 1421     		movs	r1, #20
 415              		.loc 1 202 0
 416 018c 8AF80A30 		strb	r3, [sl, #10]
 417 0190 8AF80B30 		strb	r3, [sl, #11]
 418              		.loc 1 201 0
 419 0194 8AF80870 		strb	r7, [sl, #8]
 420              		.loc 1 204 0
 421 0198 5046     		mov	r0, sl
 422 019a FFF7FEFF 		bl	inet_chksum
 423              	.LVL32:
 424 019e C0F30F23 		ubfx	r3, r0, #8, #16
 425 01a2 8AF80A00 		strb	r0, [sl, #10]
 426 01a6 8AF80B30 		strb	r3, [sl, #11]
 427              		.loc 1 207 0
 428 01aa B6F86030 		ldrh	r3, [r6, #96]
 429 01ae 0133     		adds	r3, r3, #1
 430              		.loc 1 213 0
 431 01b0 2046     		mov	r0, r4
 432 01b2 4946     		mov	r1, r9
 433              		.loc 1 207 0
 434 01b4 A6F86030 		strh	r3, [r6, #96]	@ movhi
 435              		.loc 1 213 0
 436 01b8 FFF7FEFF 		bl	pbuf_header
 437 01bc 0246     		mov	r2, r0
 438 01be 00B3     		cbz	r0, .L26
 439              		.loc 1 214 0 discriminator 1
 440 01c0 FFF7FEFF 		bl	port_halt
 441 01c4 4EE7     		b	.L11
 442              	.LVL33:
 443              	.L33:
 444              		.loc 1 139 0
 445 01c6 2046     		mov	r0, r4
 446 01c8 FFF7FEFF 		bl	pbuf_free
 447              		.loc 1 140 0
 448 01cc B6F86830 		ldrh	r3, [r6, #104]
 449 01d0 0133     		adds	r3, r3, #1
 450 01d2 A6F86830 		strh	r3, [r6, #104]	@ movhi
 451              		.loc 1 142 0
 452 01d6 5BE7     		b	.L8
 453              	.LVL34:
 454              	.L29:
 455              		.loc 1 181 0 discriminator 1
ARM GAS  /var/folders/5n/p_75w94d66l9ssrldxqdhh700000gn/T//ccN7kdkN.s 			page 9


 456 01d8 FFF7FEFF 		bl	port_halt
 457              	.L19:
 458              		.loc 1 240 0
 459 01dc 2046     		mov	r0, r4
 460 01de FFF7FEFF 		bl	pbuf_free
 461              		.loc 1 241 0
 462 01e2 B6F87430 		ldrh	r3, [r6, #116]
 463 01e6 0133     		adds	r3, r3, #1
 464 01e8 A6F87430 		strh	r3, [r6, #116]	@ movhi
 465              		.loc 1 243 0
 466 01ec 50E7     		b	.L8
 467              	.L17:
 468              		.loc 1 180 0
 469 01ee 2046     		mov	r0, r4
 470 01f0 6FF02101 		mvn	r1, #33
 471 01f4 FFF7FEFF 		bl	pbuf_header
 472 01f8 0028     		cmp	r0, #0
 473 01fa EDD1     		bne	.L29
 474 01fc 0FFA89F9 		sxth	r9, r9
 475 0200 94E7     		b	.L23
 476              	.LVL35:
 477              	.L26:
 478              	.LBB6:
 479              		.loc 1 218 0
 480 0202 0126     		movs	r6, #1
 481 0204 2046     		mov	r0, r4
 482 0206 0A49     		ldr	r1, .L35+8
 483 0208 0092     		str	r2, [sp, #0]
 484 020a 3B46     		mov	r3, r7
 485 020c 0196     		str	r6, [sp, #4]
 486 020e 0295     		str	r5, [sp, #8]
 487 0210 FFF7FEFF 		bl	ip_output_if
 488 0214 26E7     		b	.L11
 489              	.LVL36:
 490              	.L24:
 491              	.LBE6:
 492              		.loc 1 197 0
 493 0216 0832     		adds	r2, r2, #8
 494 0218 92B2     		uxth	r2, r2
 495 021a 110A     		lsrs	r1, r2, #8
 496 021c 9A70     		strb	r2, [r3, #2]
 497 021e D970     		strb	r1, [r3, #3]
 498 0220 B1E7     		b	.L25
 499              	.LVL37:
 500              	.L34:
 501              	.LBB7:
 502              		.loc 1 161 0 discriminator 1
 503 0222 FFF7FEFF 		bl	port_halt
 504              	.LVL38:
 505 0226 6FE7     		b	.L20
 506              	.L36:
 507              		.align	2
 508              	.L35:
 509 0228 00000000 		.word	lwip_stats
 510 022c 00000000 		.word	current_iphdr_src
 511 0230 00000000 		.word	current_iphdr_dest
 512              	.LBE7:
ARM GAS  /var/folders/5n/p_75w94d66l9ssrldxqdhh700000gn/T//ccN7kdkN.s 			page 10


 513              		.cfi_endproc
 514              	.LFE7:
 515              		.size	icmp_input, .-icmp_input
 516 0234 AFF30080 		.section	.text.icmp_dest_unreach,"ax",%progbits
 516      AFF30080 
 516      AFF30080 
 517              		.align	2
 518              		.p2align 4,,15
 519              		.global	icmp_dest_unreach
 520              		.thumb
 521              		.thumb_func
 522              		.type	icmp_dest_unreach, %function
 523              	icmp_dest_unreach:
 524              	.LFB8:
 525              		.loc 1 258 0
 526              		.cfi_startproc
 527              		@ args = 0, pretend = 0, frame = 0
 528              		@ frame_needed = 0, uses_anonymous_args = 0
 529              		@ link register save eliminated.
 530              	.LVL39:
 531              		.loc 1 258 0
 532 0000 0A46     		mov	r2, r1
 533              		.loc 1 259 0
 534 0002 0321     		movs	r1, #3
 535              	.LVL40:
 536              		.loc 1 260 0
 537              		.loc 1 259 0
 538 0004 FFF7FEBF 		b	icmp_send_response
 539              	.LVL41:
 540              		.cfi_endproc
 541              	.LFE8:
 542              		.size	icmp_dest_unreach, .-icmp_dest_unreach
 543 0008 AFF30080 		.section	.text.icmp_time_exceeded,"ax",%progbits
 543      AFF30080 
 544              		.align	2
 545              		.p2align 4,,15
 546              		.global	icmp_time_exceeded
 547              		.thumb
 548              		.thumb_func
 549              		.type	icmp_time_exceeded, %function
 550              	icmp_time_exceeded:
 551              	.LFB9:
 552              		.loc 1 272 0
 553              		.cfi_startproc
 554              		@ args = 0, pretend = 0, frame = 0
 555              		@ frame_needed = 0, uses_anonymous_args = 0
 556              		@ link register save eliminated.
 557              	.LVL42:
 558              		.loc 1 272 0
 559 0000 0A46     		mov	r2, r1
 560              		.loc 1 273 0
 561 0002 0B21     		movs	r1, #11
 562              	.LVL43:
 563              		.loc 1 274 0
 564              		.loc 1 273 0
 565 0004 FFF7FEBF 		b	icmp_send_response
 566              	.LVL44:
ARM GAS  /var/folders/5n/p_75w94d66l9ssrldxqdhh700000gn/T//ccN7kdkN.s 			page 11


 567              		.cfi_endproc
 568              	.LFE9:
 569              		.size	icmp_time_exceeded, .-icmp_time_exceeded
 570 0008 AFF30080 		.text
 570      AFF30080 
 571              	.Letext0:
 572              		.file 2 "/usr/local/summon/lib/gcc/arm-none-eabi/4.6.2/../../../../arm-none-eabi/include/stdint.h"
 573              		.file 3 "../../os/various/lwip_bindings/arch/cc.h"
 574              		.file 4 "../../ext/lwip/src/include/lwip/err.h"
 575              		.file 5 "../../ext/lwip/src/include/lwip/pbuf.h"
 576              		.file 6 "../../ext/lwip/src/include/ipv4/lwip/ip_addr.h"
 577              		.file 7 "../../ext/lwip/src/include/lwip/netif.h"
 578              		.file 8 "../../ext/lwip/src/include/ipv4/lwip/icmp.h"
 579              		.file 9 "../../ext/lwip/src/include/ipv4/lwip/ip.h"
 580              		.file 10 "../../ext/lwip/src/include/lwip/mem.h"
 581              		.file 11 "../../ext/lwip/src/include/lwip/stats.h"
 582              		.section	.debug_info,"",%progbits
 583              	.Ldebug_info0:
 584 0000 D0080000 		.4byte	0x8d0
 585 0004 0200     		.2byte	0x2
 586 0006 00000000 		.4byte	.Ldebug_abbrev0
 587 000a 04       		.byte	0x4
 588 000b 01       		.uleb128 0x1
 589 000c E7010000 		.4byte	.LASF112
 590 0010 01       		.byte	0x1
 591 0011 2F020000 		.4byte	.LASF113
 592 0015 92020000 		.4byte	.LASF114
 593 0019 00000000 		.4byte	0
 594 001d 00000000 		.4byte	0
 595 0021 38000000 		.4byte	.Ldebug_ranges0+0x38
 596 0025 00000000 		.4byte	.Ldebug_line0
 597 0029 02       		.uleb128 0x2
 598 002a 04       		.byte	0x4
 599 002b 05       		.byte	0x5
 600 002c 696E7400 		.ascii	"int\000"
 601 0030 03       		.uleb128 0x3
 602 0031 04       		.byte	0x4
 603 0032 07       		.byte	0x7
 604 0033 35000000 		.4byte	.LASF0
 605 0037 04       		.uleb128 0x4
 606 0038 EB000000 		.4byte	.LASF2
 607 003c 02       		.byte	0x2
 608 003d 29       		.byte	0x29
 609 003e 42000000 		.4byte	0x42
 610 0042 03       		.uleb128 0x3
 611 0043 01       		.byte	0x1
 612 0044 06       		.byte	0x6
 613 0045 6A040000 		.4byte	.LASF1
 614 0049 04       		.uleb128 0x4
 615 004a 53020000 		.4byte	.LASF3
 616 004e 02       		.byte	0x2
 617 004f 2A       		.byte	0x2a
 618 0050 54000000 		.4byte	0x54
 619 0054 03       		.uleb128 0x3
 620 0055 01       		.byte	0x1
 621 0056 08       		.byte	0x8
 622 0057 04040000 		.4byte	.LASF4
ARM GAS  /var/folders/5n/p_75w94d66l9ssrldxqdhh700000gn/T//ccN7kdkN.s 			page 12


 623 005b 04       		.uleb128 0x4
 624 005c 0F010000 		.4byte	.LASF5
 625 0060 02       		.byte	0x2
 626 0061 35       		.byte	0x35
 627 0062 66000000 		.4byte	0x66
 628 0066 03       		.uleb128 0x3
 629 0067 02       		.byte	0x2
 630 0068 05       		.byte	0x5
 631 0069 4F030000 		.4byte	.LASF6
 632 006d 04       		.uleb128 0x4
 633 006e 1F030000 		.4byte	.LASF7
 634 0072 02       		.byte	0x2
 635 0073 36       		.byte	0x36
 636 0074 78000000 		.4byte	0x78
 637 0078 03       		.uleb128 0x3
 638 0079 02       		.byte	0x2
 639 007a 07       		.byte	0x7
 640 007b 76040000 		.4byte	.LASF8
 641 007f 03       		.uleb128 0x3
 642 0080 04       		.byte	0x4
 643 0081 05       		.byte	0x5
 644 0082 5E030000 		.4byte	.LASF9
 645 0086 04       		.uleb128 0x4
 646 0087 E2000000 		.4byte	.LASF10
 647 008b 02       		.byte	0x2
 648 008c 50       		.byte	0x50
 649 008d 91000000 		.4byte	0x91
 650 0091 03       		.uleb128 0x3
 651 0092 04       		.byte	0x4
 652 0093 07       		.byte	0x7
 653 0094 C7030000 		.4byte	.LASF11
 654 0098 03       		.uleb128 0x3
 655 0099 08       		.byte	0x8
 656 009a 05       		.byte	0x5
 657 009b 7F020000 		.4byte	.LASF12
 658 009f 03       		.uleb128 0x3
 659 00a0 08       		.byte	0x8
 660 00a1 07       		.byte	0x7
 661 00a2 25010000 		.4byte	.LASF13
 662 00a6 05       		.uleb128 0x5
 663 00a7 04       		.byte	0x4
 664 00a8 03       		.uleb128 0x3
 665 00a9 01       		.byte	0x1
 666 00aa 08       		.byte	0x8
 667 00ab E2010000 		.4byte	.LASF14
 668 00af 04       		.uleb128 0x4
 669 00b0 8D020000 		.4byte	.LASF15
 670 00b4 03       		.byte	0x3
 671 00b5 3C       		.byte	0x3c
 672 00b6 49000000 		.4byte	0x49
 673 00ba 04       		.uleb128 0x4
 674 00bb D8010000 		.4byte	.LASF16
 675 00bf 03       		.byte	0x3
 676 00c0 3D       		.byte	0x3d
 677 00c1 37000000 		.4byte	0x37
 678 00c5 04       		.uleb128 0x4
 679 00c6 6B000000 		.4byte	.LASF17
ARM GAS  /var/folders/5n/p_75w94d66l9ssrldxqdhh700000gn/T//ccN7kdkN.s 			page 13


 680 00ca 03       		.byte	0x3
 681 00cb 3E       		.byte	0x3e
 682 00cc 6D000000 		.4byte	0x6d
 683 00d0 04       		.uleb128 0x4
 684 00d1 D9030000 		.4byte	.LASF18
 685 00d5 03       		.byte	0x3
 686 00d6 3F       		.byte	0x3f
 687 00d7 5B000000 		.4byte	0x5b
 688 00db 04       		.uleb128 0x4
 689 00dc 49030000 		.4byte	.LASF19
 690 00e0 03       		.byte	0x3
 691 00e1 40       		.byte	0x40
 692 00e2 86000000 		.4byte	0x86
 693 00e6 04       		.uleb128 0x4
 694 00e7 5A000000 		.4byte	.LASF20
 695 00eb 04       		.byte	0x4
 696 00ec 2F       		.byte	0x2f
 697 00ed BA000000 		.4byte	0xba
 698 00f1 06       		.uleb128 0x6
 699 00f2 01       		.byte	0x1
 700 00f3 05       		.byte	0x5
 701 00f4 32       		.byte	0x32
 702 00f5 12010000 		.4byte	0x112
 703 00f9 07       		.uleb128 0x7
 704 00fa B0000000 		.4byte	.LASF21
 705 00fe 00       		.sleb128 0
 706 00ff 07       		.uleb128 0x7
 707 0100 BA010000 		.4byte	.LASF22
 708 0104 01       		.sleb128 1
 709 0105 07       		.uleb128 0x7
 710 0106 15030000 		.4byte	.LASF23
 711 010a 02       		.sleb128 2
 712 010b 07       		.uleb128 0x7
 713 010c 26000000 		.4byte	.LASF24
 714 0110 03       		.sleb128 3
 715 0111 00       		.byte	0
 716 0112 06       		.uleb128 0x6
 717 0113 01       		.byte	0x1
 718 0114 05       		.byte	0x5
 719 0115 39       		.byte	0x39
 720 0116 33010000 		.4byte	0x133
 721 011a 07       		.uleb128 0x7
 722 011b 1D000000 		.4byte	.LASF25
 723 011f 00       		.sleb128 0
 724 0120 07       		.uleb128 0x7
 725 0121 B0040000 		.4byte	.LASF26
 726 0125 01       		.sleb128 1
 727 0126 07       		.uleb128 0x7
 728 0127 9A010000 		.4byte	.LASF27
 729 012b 02       		.sleb128 2
 730 012c 07       		.uleb128 0x7
 731 012d CE010000 		.4byte	.LASF28
 732 0131 03       		.sleb128 3
 733 0132 00       		.byte	0
 734 0133 08       		.uleb128 0x8
 735 0134 C9010000 		.4byte	.LASF34
 736 0138 10       		.byte	0x10
ARM GAS  /var/folders/5n/p_75w94d66l9ssrldxqdhh700000gn/T//ccN7kdkN.s 			page 14


 737 0139 05       		.byte	0x5
 738 013a 49       		.byte	0x49
 739 013b A2010000 		.4byte	0x1a2
 740 013f 09       		.uleb128 0x9
 741 0140 42000000 		.4byte	.LASF29
 742 0144 05       		.byte	0x5
 743 0145 4B       		.byte	0x4b
 744 0146 A2010000 		.4byte	0x1a2
 745 014a 02       		.byte	0x2
 746 014b 23       		.byte	0x23
 747 014c 00       		.uleb128 0
 748 014d 09       		.uleb128 0x9
 749 014e B2010000 		.4byte	.LASF30
 750 0152 05       		.byte	0x5
 751 0153 4E       		.byte	0x4e
 752 0154 A6000000 		.4byte	0xa6
 753 0158 02       		.byte	0x2
 754 0159 23       		.byte	0x23
 755 015a 04       		.uleb128 0x4
 756 015b 09       		.uleb128 0x9
 757 015c AA010000 		.4byte	.LASF31
 758 0160 05       		.byte	0x5
 759 0161 57       		.byte	0x57
 760 0162 C5000000 		.4byte	0xc5
 761 0166 02       		.byte	0x2
 762 0167 23       		.byte	0x23
 763 0168 08       		.uleb128 0x8
 764 0169 0A       		.uleb128 0xa
 765 016a 6C656E00 		.ascii	"len\000"
 766 016e 05       		.byte	0x5
 767 016f 5A       		.byte	0x5a
 768 0170 C5000000 		.4byte	0xc5
 769 0174 02       		.byte	0x2
 770 0175 23       		.byte	0x23
 771 0176 0A       		.uleb128 0xa
 772 0177 09       		.uleb128 0x9
 773 0178 F5030000 		.4byte	.LASF32
 774 017c 05       		.byte	0x5
 775 017d 5D       		.byte	0x5d
 776 017e AF000000 		.4byte	0xaf
 777 0182 02       		.byte	0x2
 778 0183 23       		.byte	0x23
 779 0184 0C       		.uleb128 0xc
 780 0185 09       		.uleb128 0x9
 781 0186 2F000000 		.4byte	.LASF33
 782 018a 05       		.byte	0x5
 783 018b 60       		.byte	0x60
 784 018c AF000000 		.4byte	0xaf
 785 0190 02       		.byte	0x2
 786 0191 23       		.byte	0x23
 787 0192 0D       		.uleb128 0xd
 788 0193 0A       		.uleb128 0xa
 789 0194 72656600 		.ascii	"ref\000"
 790 0198 05       		.byte	0x5
 791 0199 67       		.byte	0x67
 792 019a C5000000 		.4byte	0xc5
 793 019e 02       		.byte	0x2
ARM GAS  /var/folders/5n/p_75w94d66l9ssrldxqdhh700000gn/T//ccN7kdkN.s 			page 15


 794 019f 23       		.byte	0x23
 795 01a0 0E       		.uleb128 0xe
 796 01a1 00       		.byte	0
 797 01a2 0B       		.uleb128 0xb
 798 01a3 04       		.byte	0x4
 799 01a4 33010000 		.4byte	0x133
 800 01a8 08       		.uleb128 0x8
 801 01a9 BE040000 		.4byte	.LASF35
 802 01ad 04       		.byte	0x4
 803 01ae 06       		.byte	0x6
 804 01af 2C       		.byte	0x2c
 805 01b0 C3010000 		.4byte	0x1c3
 806 01b4 09       		.uleb128 0x9
 807 01b5 34040000 		.4byte	.LASF36
 808 01b9 06       		.byte	0x6
 809 01ba 2D       		.byte	0x2d
 810 01bb DB000000 		.4byte	0xdb
 811 01bf 02       		.byte	0x2
 812 01c0 23       		.byte	0x23
 813 01c1 00       		.uleb128 0
 814 01c2 00       		.byte	0
 815 01c3 08       		.uleb128 0x8
 816 01c4 20020000 		.4byte	.LASF37
 817 01c8 04       		.byte	0x4
 818 01c9 06       		.byte	0x6
 819 01ca 36       		.byte	0x36
 820 01cb DE010000 		.4byte	0x1de
 821 01cf 09       		.uleb128 0x9
 822 01d0 34040000 		.4byte	.LASF36
 823 01d4 06       		.byte	0x6
 824 01d5 37       		.byte	0x37
 825 01d6 DB000000 		.4byte	0xdb
 826 01da 02       		.byte	0x2
 827 01db 23       		.byte	0x23
 828 01dc 00       		.uleb128 0
 829 01dd 00       		.byte	0
 830 01de 04       		.uleb128 0x4
 831 01df A6040000 		.4byte	.LASF38
 832 01e3 06       		.byte	0x6
 833 01e4 40       		.byte	0x40
 834 01e5 A8010000 		.4byte	0x1a8
 835 01e9 04       		.uleb128 0x4
 836 01ea 19040000 		.4byte	.LASF39
 837 01ee 06       		.byte	0x6
 838 01ef 41       		.byte	0x41
 839 01f0 C3010000 		.4byte	0x1c3
 840 01f4 0B       		.uleb128 0xb
 841 01f5 04       		.byte	0x4
 842 01f6 FA010000 		.4byte	0x1fa
 843 01fa 08       		.uleb128 0x8
 844 01fb 52040000 		.4byte	.LASF40
 845 01ff 30       		.byte	0x30
 846 0200 07       		.byte	0x7
 847 0201 88       		.byte	0x88
 848 0202 CA020000 		.4byte	0x2ca
 849 0206 09       		.uleb128 0x9
 850 0207 42000000 		.4byte	.LASF29
ARM GAS  /var/folders/5n/p_75w94d66l9ssrldxqdhh700000gn/T//ccN7kdkN.s 			page 16


 851 020b 07       		.byte	0x7
 852 020c 8A       		.byte	0x8a
 853 020d F4010000 		.4byte	0x1f4
 854 0211 02       		.byte	0x2
 855 0212 23       		.byte	0x23
 856 0213 00       		.uleb128 0
 857 0214 09       		.uleb128 0x9
 858 0215 BE040000 		.4byte	.LASF35
 859 0219 07       		.byte	0x7
 860 021a 8D       		.byte	0x8d
 861 021b DE010000 		.4byte	0x1de
 862 021f 02       		.byte	0x2
 863 0220 23       		.byte	0x23
 864 0221 04       		.uleb128 0x4
 865 0222 09       		.uleb128 0x9
 866 0223 77020000 		.4byte	.LASF41
 867 0227 07       		.byte	0x7
 868 0228 8E       		.byte	0x8e
 869 0229 DE010000 		.4byte	0x1de
 870 022d 02       		.byte	0x2
 871 022e 23       		.byte	0x23
 872 022f 08       		.uleb128 0x8
 873 0230 0A       		.uleb128 0xa
 874 0231 677700   		.ascii	"gw\000"
 875 0234 07       		.byte	0x7
 876 0235 8F       		.byte	0x8f
 877 0236 DE010000 		.4byte	0x1de
 878 023a 02       		.byte	0x2
 879 023b 23       		.byte	0x23
 880 023c 0C       		.uleb128 0xc
 881 023d 09       		.uleb128 0x9
 882 023e 17000000 		.4byte	.LASF42
 883 0242 07       		.byte	0x7
 884 0243 93       		.byte	0x93
 885 0244 CA020000 		.4byte	0x2ca
 886 0248 02       		.byte	0x2
 887 0249 23       		.byte	0x23
 888 024a 10       		.uleb128 0x10
 889 024b 09       		.uleb128 0x9
 890 024c C2010000 		.4byte	.LASF43
 891 0250 07       		.byte	0x7
 892 0251 97       		.byte	0x97
 893 0252 F0020000 		.4byte	0x2f0
 894 0256 02       		.byte	0x2
 895 0257 23       		.byte	0x23
 896 0258 14       		.uleb128 0x14
 897 0259 09       		.uleb128 0x9
 898 025a 60000000 		.4byte	.LASF44
 899 025e 07       		.byte	0x7
 900 025f 9B       		.byte	0x9b
 901 0260 21030000 		.4byte	0x321
 902 0264 02       		.byte	0x2
 903 0265 23       		.byte	0x23
 904 0266 18       		.uleb128 0x18
 905 0267 09       		.uleb128 0x9
 906 0268 4C040000 		.4byte	.LASF45
 907 026c 07       		.byte	0x7
ARM GAS  /var/folders/5n/p_75w94d66l9ssrldxqdhh700000gn/T//ccN7kdkN.s 			page 17


 908 026d A8       		.byte	0xa8
 909 026e A6000000 		.4byte	0xa6
 910 0272 02       		.byte	0x2
 911 0273 23       		.byte	0x23
 912 0274 1C       		.uleb128 0x1c
 913 0275 0A       		.uleb128 0xa
 914 0276 6D747500 		.ascii	"mtu\000"
 915 027a 07       		.byte	0x7
 916 027b B6       		.byte	0xb6
 917 027c C5000000 		.4byte	0xc5
 918 0280 02       		.byte	0x2
 919 0281 23       		.byte	0x23
 920 0282 20       		.uleb128 0x20
 921 0283 09       		.uleb128 0x9
 922 0284 7B010000 		.4byte	.LASF46
 923 0288 07       		.byte	0x7
 924 0289 B8       		.byte	0xb8
 925 028a AF000000 		.4byte	0xaf
 926 028e 02       		.byte	0x2
 927 028f 23       		.byte	0x23
 928 0290 22       		.uleb128 0x22
 929 0291 09       		.uleb128 0x9
 930 0292 17010000 		.4byte	.LASF47
 931 0296 07       		.byte	0x7
 932 0297 BA       		.byte	0xba
 933 0298 47030000 		.4byte	0x347
 934 029c 02       		.byte	0x2
 935 029d 23       		.byte	0x23
 936 029e 23       		.uleb128 0x23
 937 029f 09       		.uleb128 0x9
 938 02a0 2F000000 		.4byte	.LASF33
 939 02a4 07       		.byte	0x7
 940 02a5 BC       		.byte	0xbc
 941 02a6 AF000000 		.4byte	0xaf
 942 02aa 02       		.byte	0x2
 943 02ab 23       		.byte	0x23
 944 02ac 29       		.uleb128 0x29
 945 02ad 09       		.uleb128 0x9
 946 02ae 94030000 		.4byte	.LASF48
 947 02b2 07       		.byte	0x7
 948 02b3 BE       		.byte	0xbe
 949 02b4 57030000 		.4byte	0x357
 950 02b8 02       		.byte	0x2
 951 02b9 23       		.byte	0x23
 952 02ba 2A       		.uleb128 0x2a
 953 02bb 0A       		.uleb128 0xa
 954 02bc 6E756D00 		.ascii	"num\000"
 955 02c0 07       		.byte	0x7
 956 02c1 C0       		.byte	0xc0
 957 02c2 AF000000 		.4byte	0xaf
 958 02c6 02       		.byte	0x2
 959 02c7 23       		.byte	0x23
 960 02c8 2C       		.uleb128 0x2c
 961 02c9 00       		.byte	0
 962 02ca 04       		.uleb128 0x4
 963 02cb D3000000 		.4byte	.LASF49
 964 02cf 07       		.byte	0x7
ARM GAS  /var/folders/5n/p_75w94d66l9ssrldxqdhh700000gn/T//ccN7kdkN.s 			page 18


 965 02d0 6D       		.byte	0x6d
 966 02d1 D5020000 		.4byte	0x2d5
 967 02d5 0B       		.uleb128 0xb
 968 02d6 04       		.byte	0x4
 969 02d7 DB020000 		.4byte	0x2db
 970 02db 0C       		.uleb128 0xc
 971 02dc 01       		.byte	0x1
 972 02dd E6000000 		.4byte	0xe6
 973 02e1 F0020000 		.4byte	0x2f0
 974 02e5 0D       		.uleb128 0xd
 975 02e6 A2010000 		.4byte	0x1a2
 976 02ea 0D       		.uleb128 0xd
 977 02eb F4010000 		.4byte	0x1f4
 978 02ef 00       		.byte	0
 979 02f0 04       		.uleb128 0x4
 980 02f1 8A000000 		.4byte	.LASF50
 981 02f5 07       		.byte	0x7
 982 02f6 76       		.byte	0x76
 983 02f7 FB020000 		.4byte	0x2fb
 984 02fb 0B       		.uleb128 0xb
 985 02fc 04       		.byte	0x4
 986 02fd 01030000 		.4byte	0x301
 987 0301 0C       		.uleb128 0xc
 988 0302 01       		.byte	0x1
 989 0303 E6000000 		.4byte	0xe6
 990 0307 1B030000 		.4byte	0x31b
 991 030b 0D       		.uleb128 0xd
 992 030c F4010000 		.4byte	0x1f4
 993 0310 0D       		.uleb128 0xd
 994 0311 A2010000 		.4byte	0x1a2
 995 0315 0D       		.uleb128 0xd
 996 0316 1B030000 		.4byte	0x31b
 997 031a 00       		.byte	0
 998 031b 0B       		.uleb128 0xb
 999 031c 04       		.byte	0x4
 1000 031d DE010000 		.4byte	0x1de
 1001 0321 04       		.uleb128 0x4
 1002 0322 99030000 		.4byte	.LASF51
 1003 0326 07       		.byte	0x7
 1004 0327 7E       		.byte	0x7e
 1005 0328 2C030000 		.4byte	0x32c
 1006 032c 0B       		.uleb128 0xb
 1007 032d 04       		.byte	0x4
 1008 032e 32030000 		.4byte	0x332
 1009 0332 0C       		.uleb128 0xc
 1010 0333 01       		.byte	0x1
 1011 0334 E6000000 		.4byte	0xe6
 1012 0338 47030000 		.4byte	0x347
 1013 033c 0D       		.uleb128 0xd
 1014 033d F4010000 		.4byte	0x1f4
 1015 0341 0D       		.uleb128 0xd
 1016 0342 A2010000 		.4byte	0x1a2
 1017 0346 00       		.byte	0
 1018 0347 0E       		.uleb128 0xe
 1019 0348 AF000000 		.4byte	0xaf
 1020 034c 57030000 		.4byte	0x357
 1021 0350 0F       		.uleb128 0xf
ARM GAS  /var/folders/5n/p_75w94d66l9ssrldxqdhh700000gn/T//ccN7kdkN.s 			page 19


 1022 0351 30000000 		.4byte	0x30
 1023 0355 05       		.byte	0x5
 1024 0356 00       		.byte	0
 1025 0357 0E       		.uleb128 0xe
 1026 0358 A8000000 		.4byte	0xa8
 1027 035c 67030000 		.4byte	0x367
 1028 0360 0F       		.uleb128 0xf
 1029 0361 30000000 		.4byte	0x30
 1030 0365 01       		.byte	0x1
 1031 0366 00       		.byte	0
 1032 0367 10       		.uleb128 0x10
 1033 0368 AD030000 		.4byte	.LASF58
 1034 036c 01       		.byte	0x1
 1035 036d 08       		.byte	0x8
 1036 036e 38       		.byte	0x38
 1037 036f 98030000 		.4byte	0x398
 1038 0373 07       		.uleb128 0x7
 1039 0374 47000000 		.4byte	.LASF52
 1040 0378 00       		.sleb128 0
 1041 0379 07       		.uleb128 0x7
 1042 037a 09000000 		.4byte	.LASF53
 1043 037e 01       		.sleb128 1
 1044 037f 07       		.uleb128 0x7
 1045 0380 25040000 		.4byte	.LASF54
 1046 0384 02       		.sleb128 2
 1047 0385 07       		.uleb128 0x7
 1048 0386 F4020000 		.4byte	.LASF55
 1049 038a 03       		.sleb128 3
 1050 038b 07       		.uleb128 0x7
 1051 038c 39040000 		.4byte	.LASF56
 1052 0390 04       		.sleb128 4
 1053 0391 07       		.uleb128 0x7
 1054 0392 8E010000 		.4byte	.LASF57
 1055 0396 05       		.sleb128 5
 1056 0397 00       		.byte	0
 1057 0398 10       		.uleb128 0x10
 1058 0399 6A020000 		.4byte	.LASF59
 1059 039d 01       		.byte	0x1
 1060 039e 08       		.byte	0x8
 1061 039f 41       		.byte	0x41
 1062 03a0 B1030000 		.4byte	0x3b1
 1063 03a4 07       		.uleb128 0x7
 1064 03a5 88030000 		.4byte	.LASF60
 1065 03a9 00       		.sleb128 0
 1066 03aa 07       		.uleb128 0x7
 1067 03ab 3C030000 		.4byte	.LASF61
 1068 03af 01       		.sleb128 1
 1069 03b0 00       		.byte	0
 1070 03b1 08       		.uleb128 0x8
 1071 03b2 E7030000 		.4byte	.LASF62
 1072 03b6 08       		.byte	0x8
 1073 03b7 08       		.byte	0x8
 1074 03b8 4F       		.byte	0x4f
 1075 03b9 03040000 		.4byte	0x403
 1076 03bd 09       		.uleb128 0x9
 1077 03be F5030000 		.4byte	.LASF32
 1078 03c2 08       		.byte	0x8
ARM GAS  /var/folders/5n/p_75w94d66l9ssrldxqdhh700000gn/T//ccN7kdkN.s 			page 20


 1079 03c3 50       		.byte	0x50
 1080 03c4 AF000000 		.4byte	0xaf
 1081 03c8 02       		.byte	0x2
 1082 03c9 23       		.byte	0x23
 1083 03ca 00       		.uleb128 0
 1084 03cb 09       		.uleb128 0x9
 1085 03cc DD010000 		.4byte	.LASF63
 1086 03d0 08       		.byte	0x8
 1087 03d1 51       		.byte	0x51
 1088 03d2 AF000000 		.4byte	0xaf
 1089 03d6 02       		.byte	0x2
 1090 03d7 23       		.byte	0x23
 1091 03d8 01       		.uleb128 0x1
 1092 03d9 09       		.uleb128 0x9
 1093 03da 58040000 		.4byte	.LASF64
 1094 03de 08       		.byte	0x8
 1095 03df 52       		.byte	0x52
 1096 03e0 C5000000 		.4byte	0xc5
 1097 03e4 02       		.byte	0x2
 1098 03e5 23       		.byte	0x23
 1099 03e6 02       		.uleb128 0x2
 1100 03e7 0A       		.uleb128 0xa
 1101 03e8 696400   		.ascii	"id\000"
 1102 03eb 08       		.byte	0x8
 1103 03ec 53       		.byte	0x53
 1104 03ed C5000000 		.4byte	0xc5
 1105 03f1 02       		.byte	0x2
 1106 03f2 23       		.byte	0x23
 1107 03f3 04       		.uleb128 0x4
 1108 03f4 09       		.uleb128 0x9
 1109 03f5 CD000000 		.4byte	.LASF65
 1110 03f9 08       		.byte	0x8
 1111 03fa 54       		.byte	0x54
 1112 03fb C5000000 		.4byte	0xc5
 1113 03ff 02       		.byte	0x2
 1114 0400 23       		.byte	0x23
 1115 0401 06       		.uleb128 0x6
 1116 0402 00       		.byte	0
 1117 0403 08       		.uleb128 0x8
 1118 0404 81030000 		.4byte	.LASF66
 1119 0408 14       		.byte	0x14
 1120 0409 09       		.byte	0x9
 1121 040a 74       		.byte	0x74
 1122 040b 8E040000 		.4byte	0x48e
 1123 040f 09       		.uleb128 0x9
 1124 0410 32030000 		.4byte	.LASF67
 1125 0414 09       		.byte	0x9
 1126 0415 76       		.byte	0x76
 1127 0416 C5000000 		.4byte	0xc5
 1128 041a 02       		.byte	0x2
 1129 041b 23       		.byte	0x23
 1130 041c 00       		.uleb128 0
 1131 041d 09       		.uleb128 0x9
 1132 041e A1040000 		.4byte	.LASF68
 1133 0422 09       		.byte	0x9
 1134 0423 78       		.byte	0x78
 1135 0424 C5000000 		.4byte	0xc5
ARM GAS  /var/folders/5n/p_75w94d66l9ssrldxqdhh700000gn/T//ccN7kdkN.s 			page 21


 1136 0428 02       		.byte	0x2
 1137 0429 23       		.byte	0x23
 1138 042a 02       		.uleb128 0x2
 1139 042b 0A       		.uleb128 0xa
 1140 042c 5F696400 		.ascii	"_id\000"
 1141 0430 09       		.byte	0x9
 1142 0431 7A       		.byte	0x7a
 1143 0432 C5000000 		.4byte	0xc5
 1144 0436 02       		.byte	0x2
 1145 0437 23       		.byte	0x23
 1146 0438 04       		.uleb128 0x4
 1147 0439 09       		.uleb128 0x9
 1148 043a 86010000 		.4byte	.LASF69
 1149 043e 09       		.byte	0x9
 1150 043f 7C       		.byte	0x7c
 1151 0440 C5000000 		.4byte	0xc5
 1152 0444 02       		.byte	0x2
 1153 0445 23       		.byte	0x23
 1154 0446 06       		.uleb128 0x6
 1155 0447 09       		.uleb128 0x9
 1156 0448 71000000 		.4byte	.LASF70
 1157 044c 09       		.byte	0x9
 1158 044d 82       		.byte	0x82
 1159 044e AF000000 		.4byte	0xaf
 1160 0452 02       		.byte	0x2
 1161 0453 23       		.byte	0x23
 1162 0454 08       		.uleb128 0x8
 1163 0455 09       		.uleb128 0x9
 1164 0456 5B020000 		.4byte	.LASF71
 1165 045a 09       		.byte	0x9
 1166 045b 84       		.byte	0x84
 1167 045c AF000000 		.4byte	0xaf
 1168 0460 02       		.byte	0x2
 1169 0461 23       		.byte	0x23
 1170 0462 09       		.uleb128 0x9
 1171 0463 09       		.uleb128 0x9
 1172 0464 73010000 		.4byte	.LASF72
 1173 0468 09       		.byte	0x9
 1174 0469 86       		.byte	0x86
 1175 046a C5000000 		.4byte	0xc5
 1176 046e 02       		.byte	0x2
 1177 046f 23       		.byte	0x23
 1178 0470 0A       		.uleb128 0xa
 1179 0471 0A       		.uleb128 0xa
 1180 0472 73726300 		.ascii	"src\000"
 1181 0476 09       		.byte	0x9
 1182 0477 88       		.byte	0x88
 1183 0478 E9010000 		.4byte	0x1e9
 1184 047c 02       		.byte	0x2
 1185 047d 23       		.byte	0x23
 1186 047e 0C       		.uleb128 0xc
 1187 047f 09       		.uleb128 0x9
 1188 0480 B9040000 		.4byte	.LASF73
 1189 0484 09       		.byte	0x9
 1190 0485 89       		.byte	0x89
 1191 0486 E9010000 		.4byte	0x1e9
 1192 048a 02       		.byte	0x2
ARM GAS  /var/folders/5n/p_75w94d66l9ssrldxqdhh700000gn/T//ccN7kdkN.s 			page 22


 1193 048b 23       		.byte	0x23
 1194 048c 10       		.uleb128 0x10
 1195 048d 00       		.byte	0
 1196 048e 04       		.uleb128 0x4
 1197 048f 09020000 		.4byte	.LASF74
 1198 0493 0A       		.byte	0xa
 1199 0494 4B       		.byte	0x4b
 1200 0495 C5000000 		.4byte	0xc5
 1201 0499 08       		.uleb128 0x8
 1202 049a 14020000 		.4byte	.LASF75
 1203 049e 18       		.byte	0x18
 1204 049f 0B       		.byte	0xb
 1205 04a0 3A       		.byte	0x3a
 1206 04a1 4D050000 		.4byte	0x54d
 1207 04a5 09       		.uleb128 0x9
 1208 04a6 89040000 		.4byte	.LASF76
 1209 04aa 0B       		.byte	0xb
 1210 04ab 3B       		.byte	0x3b
 1211 04ac C5000000 		.4byte	0xc5
 1212 04b0 02       		.byte	0x2
 1213 04b1 23       		.byte	0x23
 1214 04b2 00       		.uleb128 0
 1215 04b3 09       		.uleb128 0x9
 1216 04b4 65040000 		.4byte	.LASF77
 1217 04b8 0B       		.byte	0xb
 1218 04b9 3C       		.byte	0x3c
 1219 04ba C5000000 		.4byte	0xc5
 1220 04be 02       		.byte	0x2
 1221 04bf 23       		.byte	0x23
 1222 04c0 02       		.uleb128 0x2
 1223 04c1 0A       		.uleb128 0xa
 1224 04c2 667700   		.ascii	"fw\000"
 1225 04c5 0B       		.byte	0xb
 1226 04c6 3D       		.byte	0x3d
 1227 04c7 C5000000 		.4byte	0xc5
 1228 04cb 02       		.byte	0x2
 1229 04cc 23       		.byte	0x23
 1230 04cd 04       		.uleb128 0x4
 1231 04ce 09       		.uleb128 0x9
 1232 04cf 47040000 		.4byte	.LASF78
 1233 04d3 0B       		.byte	0xb
 1234 04d4 3E       		.byte	0x3e
 1235 04d5 C5000000 		.4byte	0xc5
 1236 04d9 02       		.byte	0x2
 1237 04da 23       		.byte	0x23
 1238 04db 06       		.uleb128 0x6
 1239 04dc 09       		.uleb128 0x9
 1240 04dd ED020000 		.4byte	.LASF79
 1241 04e1 0B       		.byte	0xb
 1242 04e2 3F       		.byte	0x3f
 1243 04e3 C5000000 		.4byte	0xc5
 1244 04e7 02       		.byte	0x2
 1245 04e8 23       		.byte	0x23
 1246 04e9 08       		.uleb128 0x8
 1247 04ea 09       		.uleb128 0x9
 1248 04eb C0030000 		.4byte	.LASF80
 1249 04ef 0B       		.byte	0xb
ARM GAS  /var/folders/5n/p_75w94d66l9ssrldxqdhh700000gn/T//ccN7kdkN.s 			page 23


 1250 04f0 40       		.byte	0x40
 1251 04f1 C5000000 		.4byte	0xc5
 1252 04f5 02       		.byte	0x2
 1253 04f6 23       		.byte	0x23
 1254 04f7 0A       		.uleb128 0xa
 1255 04f8 09       		.uleb128 0x9
 1256 04f9 12040000 		.4byte	.LASF81
 1257 04fd 0B       		.byte	0xb
 1258 04fe 41       		.byte	0x41
 1259 04ff C5000000 		.4byte	0xc5
 1260 0503 02       		.byte	0x2
 1261 0504 23       		.byte	0x23
 1262 0505 0C       		.uleb128 0xc
 1263 0506 09       		.uleb128 0x9
 1264 0507 67030000 		.4byte	.LASF82
 1265 050b 0B       		.byte	0xb
 1266 050c 42       		.byte	0x42
 1267 050d C5000000 		.4byte	0xc5
 1268 0511 02       		.byte	0x2
 1269 0512 23       		.byte	0x23
 1270 0513 0E       		.uleb128 0xe
 1271 0514 09       		.uleb128 0x9
 1272 0515 DF030000 		.4byte	.LASF83
 1273 0519 0B       		.byte	0xb
 1274 051a 43       		.byte	0x43
 1275 051b C5000000 		.4byte	0xc5
 1276 051f 02       		.byte	0x2
 1277 0520 23       		.byte	0x23
 1278 0521 10       		.uleb128 0x10
 1279 0522 09       		.uleb128 0x9
 1280 0523 F2000000 		.4byte	.LASF84
 1281 0527 0B       		.byte	0xb
 1282 0528 44       		.byte	0x44
 1283 0529 C5000000 		.4byte	0xc5
 1284 052d 02       		.byte	0x2
 1285 052e 23       		.byte	0x23
 1286 052f 12       		.uleb128 0x12
 1287 0530 0A       		.uleb128 0xa
 1288 0531 65727200 		.ascii	"err\000"
 1289 0535 0B       		.byte	0xb
 1290 0536 45       		.byte	0x45
 1291 0537 C5000000 		.4byte	0xc5
 1292 053b 02       		.byte	0x2
 1293 053c 23       		.byte	0x23
 1294 053d 14       		.uleb128 0x14
 1295 053e 09       		.uleb128 0x9
 1296 053f 78030000 		.4byte	.LASF85
 1297 0543 0B       		.byte	0xb
 1298 0544 46       		.byte	0x46
 1299 0545 C5000000 		.4byte	0xc5
 1300 0549 02       		.byte	0x2
 1301 054a 23       		.byte	0x23
 1302 054b 16       		.uleb128 0x16
 1303 054c 00       		.byte	0
 1304 054d 08       		.uleb128 0x8
 1305 054e 7B000000 		.4byte	.LASF86
 1306 0552 0A       		.byte	0xa
ARM GAS  /var/folders/5n/p_75w94d66l9ssrldxqdhh700000gn/T//ccN7kdkN.s 			page 24


 1307 0553 0B       		.byte	0xb
 1308 0554 5A       		.byte	0x5a
 1309 0555 A0050000 		.4byte	0x5a0
 1310 0559 09       		.uleb128 0x9
 1311 055a 6D030000 		.4byte	.LASF87
 1312 055e 0B       		.byte	0xb
 1313 055f 5E       		.byte	0x5e
 1314 0560 8E040000 		.4byte	0x48e
 1315 0564 02       		.byte	0x2
 1316 0565 23       		.byte	0x23
 1317 0566 00       		.uleb128 0
 1318 0567 09       		.uleb128 0x9
 1319 0568 E8020000 		.4byte	.LASF88
 1320 056c 0B       		.byte	0xb
 1321 056d 5F       		.byte	0x5f
 1322 056e 8E040000 		.4byte	0x48e
 1323 0572 02       		.byte	0x2
 1324 0573 23       		.byte	0x23
 1325 0574 02       		.uleb128 0x2
 1326 0575 0A       		.uleb128 0xa
 1327 0576 6D617800 		.ascii	"max\000"
 1328 057a 0B       		.byte	0xb
 1329 057b 60       		.byte	0x60
 1330 057c 8E040000 		.4byte	0x48e
 1331 0580 02       		.byte	0x2
 1332 0581 23       		.byte	0x23
 1333 0582 04       		.uleb128 0x4
 1334 0583 0A       		.uleb128 0xa
 1335 0584 65727200 		.ascii	"err\000"
 1336 0588 0B       		.byte	0xb
 1337 0589 61       		.byte	0x61
 1338 058a C5000000 		.4byte	0xc5
 1339 058e 02       		.byte	0x2
 1340 058f 23       		.byte	0x23
 1341 0590 06       		.uleb128 0x6
 1342 0591 09       		.uleb128 0x9
 1343 0592 07010000 		.4byte	.LASF89
 1344 0596 0B       		.byte	0xb
 1345 0597 62       		.byte	0x62
 1346 0598 C5000000 		.4byte	0xc5
 1347 059c 02       		.byte	0x2
 1348 059d 23       		.byte	0x23
 1349 059e 08       		.uleb128 0x8
 1350 059f 00       		.byte	0
 1351 05a0 08       		.uleb128 0x8
 1352 05a1 BF000000 		.4byte	.LASF90
 1353 05a5 06       		.byte	0x6
 1354 05a6 0B       		.byte	0xb
 1355 05a7 65       		.byte	0x65
 1356 05a8 D7050000 		.4byte	0x5d7
 1357 05ac 09       		.uleb128 0x9
 1358 05ad E8020000 		.4byte	.LASF88
 1359 05b1 0B       		.byte	0xb
 1360 05b2 66       		.byte	0x66
 1361 05b3 C5000000 		.4byte	0xc5
 1362 05b7 02       		.byte	0x2
 1363 05b8 23       		.byte	0x23
ARM GAS  /var/folders/5n/p_75w94d66l9ssrldxqdhh700000gn/T//ccN7kdkN.s 			page 25


 1364 05b9 00       		.uleb128 0
 1365 05ba 0A       		.uleb128 0xa
 1366 05bb 6D617800 		.ascii	"max\000"
 1367 05bf 0B       		.byte	0xb
 1368 05c0 67       		.byte	0x67
 1369 05c1 C5000000 		.4byte	0xc5
 1370 05c5 02       		.byte	0x2
 1371 05c6 23       		.byte	0x23
 1372 05c7 02       		.uleb128 0x2
 1373 05c8 0A       		.uleb128 0xa
 1374 05c9 65727200 		.ascii	"err\000"
 1375 05cd 0B       		.byte	0xb
 1376 05ce 68       		.byte	0x68
 1377 05cf C5000000 		.4byte	0xc5
 1378 05d3 02       		.byte	0x2
 1379 05d4 23       		.byte	0x23
 1380 05d5 04       		.uleb128 0x4
 1381 05d6 00       		.byte	0
 1382 05d7 08       		.uleb128 0x8
 1383 05d8 FA030000 		.4byte	.LASF91
 1384 05dc 12       		.byte	0x12
 1385 05dd 0B       		.byte	0xb
 1386 05de 6B       		.byte	0x6b
 1387 05df 0E060000 		.4byte	0x60e
 1388 05e3 0A       		.uleb128 0xa
 1389 05e4 73656D00 		.ascii	"sem\000"
 1390 05e8 0B       		.byte	0xb
 1391 05e9 6C       		.byte	0x6c
 1392 05ea A0050000 		.4byte	0x5a0
 1393 05ee 02       		.byte	0x2
 1394 05ef 23       		.byte	0x23
 1395 05f0 00       		.uleb128 0
 1396 05f1 09       		.uleb128 0x9
 1397 05f2 F9000000 		.4byte	.LASF92
 1398 05f6 0B       		.byte	0xb
 1399 05f7 6D       		.byte	0x6d
 1400 05f8 A0050000 		.4byte	0x5a0
 1401 05fc 02       		.byte	0x2
 1402 05fd 23       		.byte	0x23
 1403 05fe 06       		.uleb128 0x6
 1404 05ff 09       		.uleb128 0x9
 1405 0600 73030000 		.4byte	.LASF93
 1406 0604 0B       		.byte	0xb
 1407 0605 6E       		.byte	0x6e
 1408 0606 A0050000 		.4byte	0x5a0
 1409 060a 02       		.byte	0x2
 1410 060b 23       		.byte	0x23
 1411 060c 0C       		.uleb128 0xc
 1412 060d 00       		.byte	0
 1413 060e 11       		.uleb128 0x11
 1414 060f A3010000 		.4byte	.LASF94
 1415 0613 5001     		.2byte	0x150
 1416 0615 0B       		.byte	0xb
 1417 0616 71       		.byte	0x71
 1418 0617 AB060000 		.4byte	0x6ab
 1419 061b 09       		.uleb128 0x9
 1420 061c 76000000 		.4byte	.LASF95
ARM GAS  /var/folders/5n/p_75w94d66l9ssrldxqdhh700000gn/T//ccN7kdkN.s 			page 26


 1421 0620 0B       		.byte	0xb
 1422 0621 73       		.byte	0x73
 1423 0622 99040000 		.4byte	0x499
 1424 0626 02       		.byte	0x2
 1425 0627 23       		.byte	0x23
 1426 0628 00       		.uleb128 0
 1427 0629 09       		.uleb128 0x9
 1428 062a 1E010000 		.4byte	.LASF96
 1429 062e 0B       		.byte	0xb
 1430 062f 76       		.byte	0x76
 1431 0630 99040000 		.4byte	0x499
 1432 0634 02       		.byte	0x2
 1433 0635 23       		.byte	0x23
 1434 0636 18       		.uleb128 0x18
 1435 0637 09       		.uleb128 0x9
 1436 0638 FF000000 		.4byte	.LASF97
 1437 063c 0B       		.byte	0xb
 1438 063d 79       		.byte	0x79
 1439 063e 99040000 		.4byte	0x499
 1440 0642 02       		.byte	0x2
 1441 0643 23       		.byte	0x23
 1442 0644 30       		.uleb128 0x30
 1443 0645 0A       		.uleb128 0xa
 1444 0646 697000   		.ascii	"ip\000"
 1445 0649 0B       		.byte	0xb
 1446 064a 7C       		.byte	0x7c
 1447 064b 99040000 		.4byte	0x499
 1448 064f 02       		.byte	0x2
 1449 0650 23       		.byte	0x23
 1450 0651 48       		.uleb128 0x48
 1451 0652 09       		.uleb128 0x9
 1452 0653 59030000 		.4byte	.LASF98
 1453 0657 0B       		.byte	0xb
 1454 0658 7F       		.byte	0x7f
 1455 0659 99040000 		.4byte	0x499
 1456 065d 02       		.byte	0x2
 1457 065e 23       		.byte	0x23
 1458 065f 60       		.uleb128 0x60
 1459 0660 0A       		.uleb128 0xa
 1460 0661 75647000 		.ascii	"udp\000"
 1461 0665 0B       		.byte	0xb
 1462 0666 85       		.byte	0x85
 1463 0667 99040000 		.4byte	0x499
 1464 066b 02       		.byte	0x2
 1465 066c 23       		.byte	0x23
 1466 066d 78       		.uleb128 0x78
 1467 066e 0A       		.uleb128 0xa
 1468 066f 74637000 		.ascii	"tcp\000"
 1469 0673 0B       		.byte	0xb
 1470 0674 88       		.byte	0x88
 1471 0675 99040000 		.4byte	0x499
 1472 0679 03       		.byte	0x3
 1473 067a 23       		.byte	0x23
 1474 067b 9001     		.uleb128 0x90
 1475 067d 0A       		.uleb128 0xa
 1476 067e 6D656D00 		.ascii	"mem\000"
 1477 0682 0B       		.byte	0xb
ARM GAS  /var/folders/5n/p_75w94d66l9ssrldxqdhh700000gn/T//ccN7kdkN.s 			page 27


 1478 0683 8B       		.byte	0x8b
 1479 0684 4D050000 		.4byte	0x54d
 1480 0688 03       		.byte	0x3
 1481 0689 23       		.byte	0x23
 1482 068a A801     		.uleb128 0xa8
 1483 068c 09       		.uleb128 0x9
 1484 068d BB030000 		.4byte	.LASF99
 1485 0691 0B       		.byte	0xb
 1486 0692 8E       		.byte	0x8e
 1487 0693 AB060000 		.4byte	0x6ab
 1488 0697 03       		.byte	0x3
 1489 0698 23       		.byte	0x23
 1490 0699 B201     		.uleb128 0xb2
 1491 069b 0A       		.uleb128 0xa
 1492 069c 73797300 		.ascii	"sys\000"
 1493 06a0 0B       		.byte	0xb
 1494 06a1 91       		.byte	0x91
 1495 06a2 D7050000 		.4byte	0x5d7
 1496 06a6 03       		.byte	0x3
 1497 06a7 23       		.byte	0x23
 1498 06a8 BE02     		.uleb128 0x13e
 1499 06aa 00       		.byte	0
 1500 06ab 0E       		.uleb128 0xe
 1501 06ac 4D050000 		.4byte	0x54d
 1502 06b0 BB060000 		.4byte	0x6bb
 1503 06b4 0F       		.uleb128 0xf
 1504 06b5 30000000 		.4byte	0x30
 1505 06b9 0D       		.byte	0xd
 1506 06ba 00       		.byte	0
 1507 06bb 12       		.uleb128 0x12
 1508 06bc 02030000 		.4byte	.LASF115
 1509 06c0 01       		.byte	0x1
 1510 06c1 1F01     		.2byte	0x11f
 1511 06c3 01       		.byte	0x1
 1512 06c4 00000000 		.4byte	.LFB10
 1513 06c8 A8000000 		.4byte	.LFE10
 1514 06cc 00000000 		.4byte	.LLST0
 1515 06d0 40070000 		.4byte	0x740
 1516 06d4 13       		.uleb128 0x13
 1517 06d5 7000     		.ascii	"p\000"
 1518 06d7 01       		.byte	0x1
 1519 06d8 1F01     		.2byte	0x11f
 1520 06da A2010000 		.4byte	0x1a2
 1521 06de 2C000000 		.4byte	.LLST1
 1522 06e2 14       		.uleb128 0x14
 1523 06e3 F5030000 		.4byte	.LASF32
 1524 06e7 01       		.byte	0x1
 1525 06e8 1F01     		.2byte	0x11f
 1526 06ea AF000000 		.4byte	0xaf
 1527 06ee 4A000000 		.4byte	.LLST2
 1528 06f2 14       		.uleb128 0x14
 1529 06f3 DD010000 		.4byte	.LASF63
 1530 06f7 01       		.byte	0x1
 1531 06f8 1F01     		.2byte	0x11f
 1532 06fa AF000000 		.4byte	0xaf
 1533 06fe 5D000000 		.4byte	.LLST3
 1534 0702 15       		.uleb128 0x15
ARM GAS  /var/folders/5n/p_75w94d66l9ssrldxqdhh700000gn/T//ccN7kdkN.s 			page 28


 1535 0703 7100     		.ascii	"q\000"
 1536 0705 01       		.byte	0x1
 1537 0706 2101     		.2byte	0x121
 1538 0708 A2010000 		.4byte	0x1a2
 1539 070c 70000000 		.4byte	.LLST4
 1540 0710 16       		.uleb128 0x16
 1541 0711 5F040000 		.4byte	.LASF100
 1542 0715 01       		.byte	0x1
 1543 0716 2201     		.2byte	0x122
 1544 0718 40070000 		.4byte	0x740
 1545 071c 8E000000 		.4byte	.LLST5
 1546 0720 16       		.uleb128 0x16
 1547 0721 62020000 		.4byte	.LASF101
 1548 0725 01       		.byte	0x1
 1549 0726 2401     		.2byte	0x124
 1550 0728 46070000 		.4byte	0x746
 1551 072c AD000000 		.4byte	.LLST6
 1552 0730 17       		.uleb128 0x17
 1553 0731 28030000 		.4byte	.LASF102
 1554 0735 01       		.byte	0x1
 1555 0736 2501     		.2byte	0x125
 1556 0738 DE010000 		.4byte	0x1de
 1557 073c 02       		.byte	0x2
 1558 073d 91       		.byte	0x91
 1559 073e 5C       		.sleb128 -36
 1560 073f 00       		.byte	0
 1561 0740 0B       		.uleb128 0xb
 1562 0741 04       		.byte	0x4
 1563 0742 03040000 		.4byte	0x403
 1564 0746 0B       		.uleb128 0xb
 1565 0747 04       		.byte	0x4
 1566 0748 B1030000 		.4byte	0x3b1
 1567 074c 18       		.uleb128 0x18
 1568 074d 01       		.byte	0x1
 1569 074e A5000000 		.4byte	.LASF106
 1570 0752 01       		.byte	0x1
 1571 0753 4D       		.byte	0x4d
 1572 0754 01       		.byte	0x1
 1573 0755 00000000 		.4byte	.LFB7
 1574 0759 34020000 		.4byte	.LFE7
 1575 075d CC000000 		.4byte	.LLST7
 1576 0761 19080000 		.4byte	0x819
 1577 0765 19       		.uleb128 0x19
 1578 0766 7000     		.ascii	"p\000"
 1579 0768 01       		.byte	0x1
 1580 0769 4D       		.byte	0x4d
 1581 076a A2010000 		.4byte	0x1a2
 1582 076e F8000000 		.4byte	.LLST8
 1583 0772 19       		.uleb128 0x19
 1584 0773 696E7000 		.ascii	"inp\000"
 1585 0777 01       		.byte	0x1
 1586 0778 4D       		.byte	0x4d
 1587 0779 F4010000 		.4byte	0x1f4
 1588 077d 2C010000 		.4byte	.LLST9
 1589 0781 1A       		.uleb128 0x1a
 1590 0782 F5030000 		.4byte	.LASF32
 1591 0786 01       		.byte	0x1
ARM GAS  /var/folders/5n/p_75w94d66l9ssrldxqdhh700000gn/T//ccN7kdkN.s 			page 29


 1592 0787 4F       		.byte	0x4f
 1593 0788 AF000000 		.4byte	0xaf
 1594 078c 4A010000 		.4byte	.LLST10
 1595 0790 1A       		.uleb128 0x1a
 1596 0791 54000000 		.4byte	.LASF103
 1597 0795 01       		.byte	0x1
 1598 0796 53       		.byte	0x53
 1599 0797 46070000 		.4byte	0x746
 1600 079b 6C010000 		.4byte	.LLST11
 1601 079f 1A       		.uleb128 0x1a
 1602 07a0 5F040000 		.4byte	.LASF100
 1603 07a4 01       		.byte	0x1
 1604 07a5 54       		.byte	0x54
 1605 07a6 40070000 		.4byte	0x740
 1606 07aa 8B010000 		.4byte	.LLST12
 1607 07ae 1A       		.uleb128 0x1a
 1608 07af 85000000 		.4byte	.LASF104
 1609 07b3 01       		.byte	0x1
 1610 07b4 55       		.byte	0x55
 1611 07b5 D0000000 		.4byte	0xd0
 1612 07b9 CD010000 		.4byte	.LLST13
 1613 07bd 1B       		.uleb128 0x1b
 1614 07be C0030000 		.4byte	.LASF80
 1615 07c2 01       		.byte	0x1
 1616 07c3 E9       		.byte	0xe9
 1617 07c4 80000000 		.4byte	.L9
 1618 07c8 1B       		.uleb128 0x1b
 1619 07c9 12040000 		.4byte	.LASF81
 1620 07cd 01       		.byte	0x1
 1621 07ce EF       		.byte	0xef
 1622 07cf DC010000 		.4byte	.L19
 1623 07d3 1C       		.uleb128 0x1c
 1624 07d4 00000000 		.4byte	.Ldebug_ranges0+0
 1625 07d8 EC070000 		.4byte	0x7ec
 1626 07dc 1A       		.uleb128 0x1a
 1627 07dd 00000000 		.4byte	.LASF105
 1628 07e1 01       		.byte	0x1
 1629 07e2 6E       		.byte	0x6e
 1630 07e3 29000000 		.4byte	0x29
 1631 07e7 F6010000 		.4byte	.LLST14
 1632 07eb 00       		.byte	0
 1633 07ec 1C       		.uleb128 0x1c
 1634 07ed 20000000 		.4byte	.Ldebug_ranges0+0x20
 1635 07f1 03080000 		.4byte	0x803
 1636 07f5 1D       		.uleb128 0x1d
 1637 07f6 7200     		.ascii	"r\000"
 1638 07f8 01       		.byte	0x1
 1639 07f9 95       		.byte	0x95
 1640 07fa A2010000 		.4byte	0x1a2
 1641 07fe 44020000 		.4byte	.LLST15
 1642 0802 00       		.byte	0
 1643 0803 1E       		.uleb128 0x1e
 1644 0804 02020000 		.4byte	.LBB6
 1645 0808 16020000 		.4byte	.LBE6
 1646 080c 1F       		.uleb128 0x1f
 1647 080d 72657400 		.ascii	"ret\000"
 1648 0811 01       		.byte	0x1
ARM GAS  /var/folders/5n/p_75w94d66l9ssrldxqdhh700000gn/T//ccN7kdkN.s 			page 30


 1649 0812 D8       		.byte	0xd8
 1650 0813 E6000000 		.4byte	0xe6
 1651 0817 00       		.byte	0
 1652 0818 00       		.byte	0
 1653 0819 20       		.uleb128 0x20
 1654 081a 01       		.byte	0x1
 1655 081b 4F010000 		.4byte	.LASF107
 1656 081f 01       		.byte	0x1
 1657 0820 0101     		.2byte	0x101
 1658 0822 01       		.byte	0x1
 1659 0823 00000000 		.4byte	.LFB8
 1660 0827 08000000 		.4byte	.LFE8
 1661 082b 02       		.byte	0x2
 1662 082c 7D       		.byte	0x7d
 1663 082d 00       		.sleb128 0
 1664 082e 4F080000 		.4byte	0x84f
 1665 0832 13       		.uleb128 0x13
 1666 0833 7000     		.ascii	"p\000"
 1667 0835 01       		.byte	0x1
 1668 0836 0101     		.2byte	0x101
 1669 0838 A2010000 		.4byte	0x1a2
 1670 083c 78020000 		.4byte	.LLST16
 1671 0840 13       		.uleb128 0x13
 1672 0841 7400     		.ascii	"t\000"
 1673 0843 01       		.byte	0x1
 1674 0844 0101     		.2byte	0x101
 1675 0846 67030000 		.4byte	0x367
 1676 084a 8B020000 		.4byte	.LLST17
 1677 084e 00       		.byte	0
 1678 084f 20       		.uleb128 0x20
 1679 0850 01       		.byte	0x1
 1680 0851 3C010000 		.4byte	.LASF108
 1681 0855 01       		.byte	0x1
 1682 0856 0F01     		.2byte	0x10f
 1683 0858 01       		.byte	0x1
 1684 0859 00000000 		.4byte	.LFB9
 1685 085d 08000000 		.4byte	.LFE9
 1686 0861 02       		.byte	0x2
 1687 0862 7D       		.byte	0x7d
 1688 0863 00       		.sleb128 0
 1689 0864 85080000 		.4byte	0x885
 1690 0868 13       		.uleb128 0x13
 1691 0869 7000     		.ascii	"p\000"
 1692 086b 01       		.byte	0x1
 1693 086c 0F01     		.2byte	0x10f
 1694 086e A2010000 		.4byte	0x1a2
 1695 0872 9E020000 		.4byte	.LLST18
 1696 0876 13       		.uleb128 0x13
 1697 0877 7400     		.ascii	"t\000"
 1698 0879 01       		.byte	0x1
 1699 087a 0F01     		.2byte	0x10f
 1700 087c 98030000 		.4byte	0x398
 1701 0880 B1020000 		.4byte	.LLST19
 1702 0884 00       		.byte	0
 1703 0885 21       		.uleb128 0x21
 1704 0886 61010000 		.4byte	.LASF109
 1705 088a 09       		.byte	0x9
ARM GAS  /var/folders/5n/p_75w94d66l9ssrldxqdhh700000gn/T//ccN7kdkN.s 			page 31


 1706 088b A7       		.byte	0xa7
 1707 088c DE010000 		.4byte	0x1de
 1708 0890 01       		.byte	0x1
 1709 0891 01       		.byte	0x1
 1710 0892 21       		.uleb128 0x21
 1711 0893 8E040000 		.4byte	.LASF110
 1712 0897 09       		.byte	0x9
 1713 0898 A9       		.byte	0xa9
 1714 0899 DE010000 		.4byte	0x1de
 1715 089d 01       		.byte	0x1
 1716 089e 01       		.byte	0x1
 1717 089f 21       		.uleb128 0x21
 1718 08a0 9A000000 		.4byte	.LASF111
 1719 08a4 0B       		.byte	0xb
 1720 08a5 95       		.byte	0x95
 1721 08a6 0E060000 		.4byte	0x60e
 1722 08aa 01       		.byte	0x1
 1723 08ab 01       		.byte	0x1
 1724 08ac 21       		.uleb128 0x21
 1725 08ad 61010000 		.4byte	.LASF109
 1726 08b1 09       		.byte	0x9
 1727 08b2 A7       		.byte	0xa7
 1728 08b3 DE010000 		.4byte	0x1de
 1729 08b7 01       		.byte	0x1
 1730 08b8 01       		.byte	0x1
 1731 08b9 21       		.uleb128 0x21
 1732 08ba 8E040000 		.4byte	.LASF110
 1733 08be 09       		.byte	0x9
 1734 08bf A9       		.byte	0xa9
 1735 08c0 DE010000 		.4byte	0x1de
 1736 08c4 01       		.byte	0x1
 1737 08c5 01       		.byte	0x1
 1738 08c6 21       		.uleb128 0x21
 1739 08c7 9A000000 		.4byte	.LASF111
 1740 08cb 0B       		.byte	0xb
 1741 08cc 95       		.byte	0x95
 1742 08cd 0E060000 		.4byte	0x60e
 1743 08d1 01       		.byte	0x1
 1744 08d2 01       		.byte	0x1
 1745 08d3 00       		.byte	0
 1746              		.section	.debug_abbrev,"",%progbits
 1747              	.Ldebug_abbrev0:
 1748 0000 01       		.uleb128 0x1
 1749 0001 11       		.uleb128 0x11
 1750 0002 01       		.byte	0x1
 1751 0003 25       		.uleb128 0x25
 1752 0004 0E       		.uleb128 0xe
 1753 0005 13       		.uleb128 0x13
 1754 0006 0B       		.uleb128 0xb
 1755 0007 03       		.uleb128 0x3
 1756 0008 0E       		.uleb128 0xe
 1757 0009 1B       		.uleb128 0x1b
 1758 000a 0E       		.uleb128 0xe
 1759 000b 11       		.uleb128 0x11
 1760 000c 01       		.uleb128 0x1
 1761 000d 52       		.uleb128 0x52
 1762 000e 01       		.uleb128 0x1
ARM GAS  /var/folders/5n/p_75w94d66l9ssrldxqdhh700000gn/T//ccN7kdkN.s 			page 32


 1763 000f 55       		.uleb128 0x55
 1764 0010 06       		.uleb128 0x6
 1765 0011 10       		.uleb128 0x10
 1766 0012 06       		.uleb128 0x6
 1767 0013 00       		.byte	0
 1768 0014 00       		.byte	0
 1769 0015 02       		.uleb128 0x2
 1770 0016 24       		.uleb128 0x24
 1771 0017 00       		.byte	0
 1772 0018 0B       		.uleb128 0xb
 1773 0019 0B       		.uleb128 0xb
 1774 001a 3E       		.uleb128 0x3e
 1775 001b 0B       		.uleb128 0xb
 1776 001c 03       		.uleb128 0x3
 1777 001d 08       		.uleb128 0x8
 1778 001e 00       		.byte	0
 1779 001f 00       		.byte	0
 1780 0020 03       		.uleb128 0x3
 1781 0021 24       		.uleb128 0x24
 1782 0022 00       		.byte	0
 1783 0023 0B       		.uleb128 0xb
 1784 0024 0B       		.uleb128 0xb
 1785 0025 3E       		.uleb128 0x3e
 1786 0026 0B       		.uleb128 0xb
 1787 0027 03       		.uleb128 0x3
 1788 0028 0E       		.uleb128 0xe
 1789 0029 00       		.byte	0
 1790 002a 00       		.byte	0
 1791 002b 04       		.uleb128 0x4
 1792 002c 16       		.uleb128 0x16
 1793 002d 00       		.byte	0
 1794 002e 03       		.uleb128 0x3
 1795 002f 0E       		.uleb128 0xe
 1796 0030 3A       		.uleb128 0x3a
 1797 0031 0B       		.uleb128 0xb
 1798 0032 3B       		.uleb128 0x3b
 1799 0033 0B       		.uleb128 0xb
 1800 0034 49       		.uleb128 0x49
 1801 0035 13       		.uleb128 0x13
 1802 0036 00       		.byte	0
 1803 0037 00       		.byte	0
 1804 0038 05       		.uleb128 0x5
 1805 0039 0F       		.uleb128 0xf
 1806 003a 00       		.byte	0
 1807 003b 0B       		.uleb128 0xb
 1808 003c 0B       		.uleb128 0xb
 1809 003d 00       		.byte	0
 1810 003e 00       		.byte	0
 1811 003f 06       		.uleb128 0x6
 1812 0040 04       		.uleb128 0x4
 1813 0041 01       		.byte	0x1
 1814 0042 0B       		.uleb128 0xb
 1815 0043 0B       		.uleb128 0xb
 1816 0044 3A       		.uleb128 0x3a
 1817 0045 0B       		.uleb128 0xb
 1818 0046 3B       		.uleb128 0x3b
 1819 0047 0B       		.uleb128 0xb
ARM GAS  /var/folders/5n/p_75w94d66l9ssrldxqdhh700000gn/T//ccN7kdkN.s 			page 33


 1820 0048 01       		.uleb128 0x1
 1821 0049 13       		.uleb128 0x13
 1822 004a 00       		.byte	0
 1823 004b 00       		.byte	0
 1824 004c 07       		.uleb128 0x7
 1825 004d 28       		.uleb128 0x28
 1826 004e 00       		.byte	0
 1827 004f 03       		.uleb128 0x3
 1828 0050 0E       		.uleb128 0xe
 1829 0051 1C       		.uleb128 0x1c
 1830 0052 0D       		.uleb128 0xd
 1831 0053 00       		.byte	0
 1832 0054 00       		.byte	0
 1833 0055 08       		.uleb128 0x8
 1834 0056 13       		.uleb128 0x13
 1835 0057 01       		.byte	0x1
 1836 0058 03       		.uleb128 0x3
 1837 0059 0E       		.uleb128 0xe
 1838 005a 0B       		.uleb128 0xb
 1839 005b 0B       		.uleb128 0xb
 1840 005c 3A       		.uleb128 0x3a
 1841 005d 0B       		.uleb128 0xb
 1842 005e 3B       		.uleb128 0x3b
 1843 005f 0B       		.uleb128 0xb
 1844 0060 01       		.uleb128 0x1
 1845 0061 13       		.uleb128 0x13
 1846 0062 00       		.byte	0
 1847 0063 00       		.byte	0
 1848 0064 09       		.uleb128 0x9
 1849 0065 0D       		.uleb128 0xd
 1850 0066 00       		.byte	0
 1851 0067 03       		.uleb128 0x3
 1852 0068 0E       		.uleb128 0xe
 1853 0069 3A       		.uleb128 0x3a
 1854 006a 0B       		.uleb128 0xb
 1855 006b 3B       		.uleb128 0x3b
 1856 006c 0B       		.uleb128 0xb
 1857 006d 49       		.uleb128 0x49
 1858 006e 13       		.uleb128 0x13
 1859 006f 38       		.uleb128 0x38
 1860 0070 0A       		.uleb128 0xa
 1861 0071 00       		.byte	0
 1862 0072 00       		.byte	0
 1863 0073 0A       		.uleb128 0xa
 1864 0074 0D       		.uleb128 0xd
 1865 0075 00       		.byte	0
 1866 0076 03       		.uleb128 0x3
 1867 0077 08       		.uleb128 0x8
 1868 0078 3A       		.uleb128 0x3a
 1869 0079 0B       		.uleb128 0xb
 1870 007a 3B       		.uleb128 0x3b
 1871 007b 0B       		.uleb128 0xb
 1872 007c 49       		.uleb128 0x49
 1873 007d 13       		.uleb128 0x13
 1874 007e 38       		.uleb128 0x38
 1875 007f 0A       		.uleb128 0xa
 1876 0080 00       		.byte	0
ARM GAS  /var/folders/5n/p_75w94d66l9ssrldxqdhh700000gn/T//ccN7kdkN.s 			page 34


 1877 0081 00       		.byte	0
 1878 0082 0B       		.uleb128 0xb
 1879 0083 0F       		.uleb128 0xf
 1880 0084 00       		.byte	0
 1881 0085 0B       		.uleb128 0xb
 1882 0086 0B       		.uleb128 0xb
 1883 0087 49       		.uleb128 0x49
 1884 0088 13       		.uleb128 0x13
 1885 0089 00       		.byte	0
 1886 008a 00       		.byte	0
 1887 008b 0C       		.uleb128 0xc
 1888 008c 15       		.uleb128 0x15
 1889 008d 01       		.byte	0x1
 1890 008e 27       		.uleb128 0x27
 1891 008f 0C       		.uleb128 0xc
 1892 0090 49       		.uleb128 0x49
 1893 0091 13       		.uleb128 0x13
 1894 0092 01       		.uleb128 0x1
 1895 0093 13       		.uleb128 0x13
 1896 0094 00       		.byte	0
 1897 0095 00       		.byte	0
 1898 0096 0D       		.uleb128 0xd
 1899 0097 05       		.uleb128 0x5
 1900 0098 00       		.byte	0
 1901 0099 49       		.uleb128 0x49
 1902 009a 13       		.uleb128 0x13
 1903 009b 00       		.byte	0
 1904 009c 00       		.byte	0
 1905 009d 0E       		.uleb128 0xe
 1906 009e 01       		.uleb128 0x1
 1907 009f 01       		.byte	0x1
 1908 00a0 49       		.uleb128 0x49
 1909 00a1 13       		.uleb128 0x13
 1910 00a2 01       		.uleb128 0x1
 1911 00a3 13       		.uleb128 0x13
 1912 00a4 00       		.byte	0
 1913 00a5 00       		.byte	0
 1914 00a6 0F       		.uleb128 0xf
 1915 00a7 21       		.uleb128 0x21
 1916 00a8 00       		.byte	0
 1917 00a9 49       		.uleb128 0x49
 1918 00aa 13       		.uleb128 0x13
 1919 00ab 2F       		.uleb128 0x2f
 1920 00ac 0B       		.uleb128 0xb
 1921 00ad 00       		.byte	0
 1922 00ae 00       		.byte	0
 1923 00af 10       		.uleb128 0x10
 1924 00b0 04       		.uleb128 0x4
 1925 00b1 01       		.byte	0x1
 1926 00b2 03       		.uleb128 0x3
 1927 00b3 0E       		.uleb128 0xe
 1928 00b4 0B       		.uleb128 0xb
 1929 00b5 0B       		.uleb128 0xb
 1930 00b6 3A       		.uleb128 0x3a
 1931 00b7 0B       		.uleb128 0xb
 1932 00b8 3B       		.uleb128 0x3b
 1933 00b9 0B       		.uleb128 0xb
ARM GAS  /var/folders/5n/p_75w94d66l9ssrldxqdhh700000gn/T//ccN7kdkN.s 			page 35


 1934 00ba 01       		.uleb128 0x1
 1935 00bb 13       		.uleb128 0x13
 1936 00bc 00       		.byte	0
 1937 00bd 00       		.byte	0
 1938 00be 11       		.uleb128 0x11
 1939 00bf 13       		.uleb128 0x13
 1940 00c0 01       		.byte	0x1
 1941 00c1 03       		.uleb128 0x3
 1942 00c2 0E       		.uleb128 0xe
 1943 00c3 0B       		.uleb128 0xb
 1944 00c4 05       		.uleb128 0x5
 1945 00c5 3A       		.uleb128 0x3a
 1946 00c6 0B       		.uleb128 0xb
 1947 00c7 3B       		.uleb128 0x3b
 1948 00c8 0B       		.uleb128 0xb
 1949 00c9 01       		.uleb128 0x1
 1950 00ca 13       		.uleb128 0x13
 1951 00cb 00       		.byte	0
 1952 00cc 00       		.byte	0
 1953 00cd 12       		.uleb128 0x12
 1954 00ce 2E       		.uleb128 0x2e
 1955 00cf 01       		.byte	0x1
 1956 00d0 03       		.uleb128 0x3
 1957 00d1 0E       		.uleb128 0xe
 1958 00d2 3A       		.uleb128 0x3a
 1959 00d3 0B       		.uleb128 0xb
 1960 00d4 3B       		.uleb128 0x3b
 1961 00d5 05       		.uleb128 0x5
 1962 00d6 27       		.uleb128 0x27
 1963 00d7 0C       		.uleb128 0xc
 1964 00d8 11       		.uleb128 0x11
 1965 00d9 01       		.uleb128 0x1
 1966 00da 12       		.uleb128 0x12
 1967 00db 01       		.uleb128 0x1
 1968 00dc 40       		.uleb128 0x40
 1969 00dd 06       		.uleb128 0x6
 1970 00de 01       		.uleb128 0x1
 1971 00df 13       		.uleb128 0x13
 1972 00e0 00       		.byte	0
 1973 00e1 00       		.byte	0
 1974 00e2 13       		.uleb128 0x13
 1975 00e3 05       		.uleb128 0x5
 1976 00e4 00       		.byte	0
 1977 00e5 03       		.uleb128 0x3
 1978 00e6 08       		.uleb128 0x8
 1979 00e7 3A       		.uleb128 0x3a
 1980 00e8 0B       		.uleb128 0xb
 1981 00e9 3B       		.uleb128 0x3b
 1982 00ea 05       		.uleb128 0x5
 1983 00eb 49       		.uleb128 0x49
 1984 00ec 13       		.uleb128 0x13
 1985 00ed 02       		.uleb128 0x2
 1986 00ee 06       		.uleb128 0x6
 1987 00ef 00       		.byte	0
 1988 00f0 00       		.byte	0
 1989 00f1 14       		.uleb128 0x14
 1990 00f2 05       		.uleb128 0x5
ARM GAS  /var/folders/5n/p_75w94d66l9ssrldxqdhh700000gn/T//ccN7kdkN.s 			page 36


 1991 00f3 00       		.byte	0
 1992 00f4 03       		.uleb128 0x3
 1993 00f5 0E       		.uleb128 0xe
 1994 00f6 3A       		.uleb128 0x3a
 1995 00f7 0B       		.uleb128 0xb
 1996 00f8 3B       		.uleb128 0x3b
 1997 00f9 05       		.uleb128 0x5
 1998 00fa 49       		.uleb128 0x49
 1999 00fb 13       		.uleb128 0x13
 2000 00fc 02       		.uleb128 0x2
 2001 00fd 06       		.uleb128 0x6
 2002 00fe 00       		.byte	0
 2003 00ff 00       		.byte	0
 2004 0100 15       		.uleb128 0x15
 2005 0101 34       		.uleb128 0x34
 2006 0102 00       		.byte	0
 2007 0103 03       		.uleb128 0x3
 2008 0104 08       		.uleb128 0x8
 2009 0105 3A       		.uleb128 0x3a
 2010 0106 0B       		.uleb128 0xb
 2011 0107 3B       		.uleb128 0x3b
 2012 0108 05       		.uleb128 0x5
 2013 0109 49       		.uleb128 0x49
 2014 010a 13       		.uleb128 0x13
 2015 010b 02       		.uleb128 0x2
 2016 010c 06       		.uleb128 0x6
 2017 010d 00       		.byte	0
 2018 010e 00       		.byte	0
 2019 010f 16       		.uleb128 0x16
 2020 0110 34       		.uleb128 0x34
 2021 0111 00       		.byte	0
 2022 0112 03       		.uleb128 0x3
 2023 0113 0E       		.uleb128 0xe
 2024 0114 3A       		.uleb128 0x3a
 2025 0115 0B       		.uleb128 0xb
 2026 0116 3B       		.uleb128 0x3b
 2027 0117 05       		.uleb128 0x5
 2028 0118 49       		.uleb128 0x49
 2029 0119 13       		.uleb128 0x13
 2030 011a 02       		.uleb128 0x2
 2031 011b 06       		.uleb128 0x6
 2032 011c 00       		.byte	0
 2033 011d 00       		.byte	0
 2034 011e 17       		.uleb128 0x17
 2035 011f 34       		.uleb128 0x34
 2036 0120 00       		.byte	0
 2037 0121 03       		.uleb128 0x3
 2038 0122 0E       		.uleb128 0xe
 2039 0123 3A       		.uleb128 0x3a
 2040 0124 0B       		.uleb128 0xb
 2041 0125 3B       		.uleb128 0x3b
 2042 0126 05       		.uleb128 0x5
 2043 0127 49       		.uleb128 0x49
 2044 0128 13       		.uleb128 0x13
 2045 0129 02       		.uleb128 0x2
 2046 012a 0A       		.uleb128 0xa
 2047 012b 00       		.byte	0
ARM GAS  /var/folders/5n/p_75w94d66l9ssrldxqdhh700000gn/T//ccN7kdkN.s 			page 37


 2048 012c 00       		.byte	0
 2049 012d 18       		.uleb128 0x18
 2050 012e 2E       		.uleb128 0x2e
 2051 012f 01       		.byte	0x1
 2052 0130 3F       		.uleb128 0x3f
 2053 0131 0C       		.uleb128 0xc
 2054 0132 03       		.uleb128 0x3
 2055 0133 0E       		.uleb128 0xe
 2056 0134 3A       		.uleb128 0x3a
 2057 0135 0B       		.uleb128 0xb
 2058 0136 3B       		.uleb128 0x3b
 2059 0137 0B       		.uleb128 0xb
 2060 0138 27       		.uleb128 0x27
 2061 0139 0C       		.uleb128 0xc
 2062 013a 11       		.uleb128 0x11
 2063 013b 01       		.uleb128 0x1
 2064 013c 12       		.uleb128 0x12
 2065 013d 01       		.uleb128 0x1
 2066 013e 40       		.uleb128 0x40
 2067 013f 06       		.uleb128 0x6
 2068 0140 01       		.uleb128 0x1
 2069 0141 13       		.uleb128 0x13
 2070 0142 00       		.byte	0
 2071 0143 00       		.byte	0
 2072 0144 19       		.uleb128 0x19
 2073 0145 05       		.uleb128 0x5
 2074 0146 00       		.byte	0
 2075 0147 03       		.uleb128 0x3
 2076 0148 08       		.uleb128 0x8
 2077 0149 3A       		.uleb128 0x3a
 2078 014a 0B       		.uleb128 0xb
 2079 014b 3B       		.uleb128 0x3b
 2080 014c 0B       		.uleb128 0xb
 2081 014d 49       		.uleb128 0x49
 2082 014e 13       		.uleb128 0x13
 2083 014f 02       		.uleb128 0x2
 2084 0150 06       		.uleb128 0x6
 2085 0151 00       		.byte	0
 2086 0152 00       		.byte	0
 2087 0153 1A       		.uleb128 0x1a
 2088 0154 34       		.uleb128 0x34
 2089 0155 00       		.byte	0
 2090 0156 03       		.uleb128 0x3
 2091 0157 0E       		.uleb128 0xe
 2092 0158 3A       		.uleb128 0x3a
 2093 0159 0B       		.uleb128 0xb
 2094 015a 3B       		.uleb128 0x3b
 2095 015b 0B       		.uleb128 0xb
 2096 015c 49       		.uleb128 0x49
 2097 015d 13       		.uleb128 0x13
 2098 015e 02       		.uleb128 0x2
 2099 015f 06       		.uleb128 0x6
 2100 0160 00       		.byte	0
 2101 0161 00       		.byte	0
 2102 0162 1B       		.uleb128 0x1b
 2103 0163 0A       		.uleb128 0xa
 2104 0164 00       		.byte	0
ARM GAS  /var/folders/5n/p_75w94d66l9ssrldxqdhh700000gn/T//ccN7kdkN.s 			page 38


 2105 0165 03       		.uleb128 0x3
 2106 0166 0E       		.uleb128 0xe
 2107 0167 3A       		.uleb128 0x3a
 2108 0168 0B       		.uleb128 0xb
 2109 0169 3B       		.uleb128 0x3b
 2110 016a 0B       		.uleb128 0xb
 2111 016b 11       		.uleb128 0x11
 2112 016c 01       		.uleb128 0x1
 2113 016d 00       		.byte	0
 2114 016e 00       		.byte	0
 2115 016f 1C       		.uleb128 0x1c
 2116 0170 0B       		.uleb128 0xb
 2117 0171 01       		.byte	0x1
 2118 0172 55       		.uleb128 0x55
 2119 0173 06       		.uleb128 0x6
 2120 0174 01       		.uleb128 0x1
 2121 0175 13       		.uleb128 0x13
 2122 0176 00       		.byte	0
 2123 0177 00       		.byte	0
 2124 0178 1D       		.uleb128 0x1d
 2125 0179 34       		.uleb128 0x34
 2126 017a 00       		.byte	0
 2127 017b 03       		.uleb128 0x3
 2128 017c 08       		.uleb128 0x8
 2129 017d 3A       		.uleb128 0x3a
 2130 017e 0B       		.uleb128 0xb
 2131 017f 3B       		.uleb128 0x3b
 2132 0180 0B       		.uleb128 0xb
 2133 0181 49       		.uleb128 0x49
 2134 0182 13       		.uleb128 0x13
 2135 0183 02       		.uleb128 0x2
 2136 0184 06       		.uleb128 0x6
 2137 0185 00       		.byte	0
 2138 0186 00       		.byte	0
 2139 0187 1E       		.uleb128 0x1e
 2140 0188 0B       		.uleb128 0xb
 2141 0189 01       		.byte	0x1
 2142 018a 11       		.uleb128 0x11
 2143 018b 01       		.uleb128 0x1
 2144 018c 12       		.uleb128 0x12
 2145 018d 01       		.uleb128 0x1
 2146 018e 00       		.byte	0
 2147 018f 00       		.byte	0
 2148 0190 1F       		.uleb128 0x1f
 2149 0191 34       		.uleb128 0x34
 2150 0192 00       		.byte	0
 2151 0193 03       		.uleb128 0x3
 2152 0194 08       		.uleb128 0x8
 2153 0195 3A       		.uleb128 0x3a
 2154 0196 0B       		.uleb128 0xb
 2155 0197 3B       		.uleb128 0x3b
 2156 0198 0B       		.uleb128 0xb
 2157 0199 49       		.uleb128 0x49
 2158 019a 13       		.uleb128 0x13
 2159 019b 00       		.byte	0
 2160 019c 00       		.byte	0
 2161 019d 20       		.uleb128 0x20
ARM GAS  /var/folders/5n/p_75w94d66l9ssrldxqdhh700000gn/T//ccN7kdkN.s 			page 39


 2162 019e 2E       		.uleb128 0x2e
 2163 019f 01       		.byte	0x1
 2164 01a0 3F       		.uleb128 0x3f
 2165 01a1 0C       		.uleb128 0xc
 2166 01a2 03       		.uleb128 0x3
 2167 01a3 0E       		.uleb128 0xe
 2168 01a4 3A       		.uleb128 0x3a
 2169 01a5 0B       		.uleb128 0xb
 2170 01a6 3B       		.uleb128 0x3b
 2171 01a7 05       		.uleb128 0x5
 2172 01a8 27       		.uleb128 0x27
 2173 01a9 0C       		.uleb128 0xc
 2174 01aa 11       		.uleb128 0x11
 2175 01ab 01       		.uleb128 0x1
 2176 01ac 12       		.uleb128 0x12
 2177 01ad 01       		.uleb128 0x1
 2178 01ae 40       		.uleb128 0x40
 2179 01af 0A       		.uleb128 0xa
 2180 01b0 01       		.uleb128 0x1
 2181 01b1 13       		.uleb128 0x13
 2182 01b2 00       		.byte	0
 2183 01b3 00       		.byte	0
 2184 01b4 21       		.uleb128 0x21
 2185 01b5 34       		.uleb128 0x34
 2186 01b6 00       		.byte	0
 2187 01b7 03       		.uleb128 0x3
 2188 01b8 0E       		.uleb128 0xe
 2189 01b9 3A       		.uleb128 0x3a
 2190 01ba 0B       		.uleb128 0xb
 2191 01bb 3B       		.uleb128 0x3b
 2192 01bc 0B       		.uleb128 0xb
 2193 01bd 49       		.uleb128 0x49
 2194 01be 13       		.uleb128 0x13
 2195 01bf 3F       		.uleb128 0x3f
 2196 01c0 0C       		.uleb128 0xc
 2197 01c1 3C       		.uleb128 0x3c
 2198 01c2 0C       		.uleb128 0xc
 2199 01c3 00       		.byte	0
 2200 01c4 00       		.byte	0
 2201 01c5 00       		.byte	0
 2202              		.section	.debug_loc,"",%progbits
 2203              	.Ldebug_loc0:
 2204              	.LLST0:
 2205 0000 00000000 		.4byte	.LFB10
 2206 0004 04000000 		.4byte	.LCFI0
 2207 0008 0200     		.2byte	0x2
 2208 000a 7D       		.byte	0x7d
 2209 000b 00       		.sleb128 0
 2210 000c 04000000 		.4byte	.LCFI0
 2211 0010 08000000 		.4byte	.LCFI1
 2212 0014 0200     		.2byte	0x2
 2213 0016 7D       		.byte	0x7d
 2214 0017 1C       		.sleb128 28
 2215 0018 08000000 		.4byte	.LCFI1
 2216 001c A8000000 		.4byte	.LFE10
 2217 0020 0200     		.2byte	0x2
 2218 0022 7D       		.byte	0x7d
ARM GAS  /var/folders/5n/p_75w94d66l9ssrldxqdhh700000gn/T//ccN7kdkN.s 			page 40


 2219 0023 30       		.sleb128 48
 2220 0024 00000000 		.4byte	0
 2221 0028 00000000 		.4byte	0
 2222              	.LLST1:
 2223 002c 00000000 		.4byte	.LVL0
 2224 0030 0E000000 		.4byte	.LVL1
 2225 0034 0100     		.2byte	0x1
 2226 0036 50       		.byte	0x50
 2227 0037 0E000000 		.4byte	.LVL1
 2228 003b A8000000 		.4byte	.LFE10
 2229 003f 0100     		.2byte	0x1
 2230 0041 58       		.byte	0x58
 2231 0042 00000000 		.4byte	0
 2232 0046 00000000 		.4byte	0
 2233              	.LLST2:
 2234 004a 00000000 		.4byte	.LVL0
 2235 004e 10000000 		.4byte	.LVL2
 2236 0052 0100     		.2byte	0x1
 2237 0054 51       		.byte	0x51
 2238 0055 00000000 		.4byte	0
 2239 0059 00000000 		.4byte	0
 2240              	.LLST3:
 2241 005d 00000000 		.4byte	.LVL0
 2242 0061 12000000 		.4byte	.LVL3
 2243 0065 0100     		.2byte	0x1
 2244 0067 52       		.byte	0x52
 2245 0068 00000000 		.4byte	0
 2246 006c 00000000 		.4byte	0
 2247              	.LLST4:
 2248 0070 16000000 		.4byte	.LVL4
 2249 0074 22000000 		.4byte	.LVL5
 2250 0078 0100     		.2byte	0x1
 2251 007a 50       		.byte	0x50
 2252 007b 22000000 		.4byte	.LVL5
 2253 007f A8000000 		.4byte	.LFE10
 2254 0083 0100     		.2byte	0x1
 2255 0085 54       		.byte	0x54
 2256 0086 00000000 		.4byte	0
 2257 008a 00000000 		.4byte	0
 2258              	.LLST5:
 2259 008e 28000000 		.4byte	.LVL6
 2260 0092 45000000 		.4byte	.LVL7-1
 2261 0096 0200     		.2byte	0x2
 2262 0098 78       		.byte	0x78
 2263 0099 04       		.sleb128 4
 2264 009a 45000000 		.4byte	.LVL7-1
 2265 009e 96000000 		.4byte	.LVL9
 2266 00a2 0100     		.2byte	0x1
 2267 00a4 57       		.byte	0x57
 2268 00a5 00000000 		.4byte	0
 2269 00a9 00000000 		.4byte	0
 2270              	.LLST6:
 2271 00ad 28000000 		.4byte	.LVL6
 2272 00b1 45000000 		.4byte	.LVL7-1
 2273 00b5 0200     		.2byte	0x2
 2274 00b7 74       		.byte	0x74
 2275 00b8 04       		.sleb128 4
ARM GAS  /var/folders/5n/p_75w94d66l9ssrldxqdhh700000gn/T//ccN7kdkN.s 			page 41


 2276 00b9 45000000 		.4byte	.LVL7-1
 2277 00bd 8A000000 		.4byte	.LVL8
 2278 00c1 0100     		.2byte	0x1
 2279 00c3 55       		.byte	0x55
 2280 00c4 00000000 		.4byte	0
 2281 00c8 00000000 		.4byte	0
 2282              	.LLST7:
 2283 00cc 00000000 		.4byte	.LFB7
 2284 00d0 04000000 		.4byte	.LCFI2
 2285 00d4 0200     		.2byte	0x2
 2286 00d6 7D       		.byte	0x7d
 2287 00d7 00       		.sleb128 0
 2288 00d8 04000000 		.4byte	.LCFI2
 2289 00dc 20000000 		.4byte	.LCFI3
 2290 00e0 0200     		.2byte	0x2
 2291 00e2 7D       		.byte	0x7d
 2292 00e3 24       		.sleb128 36
 2293 00e4 20000000 		.4byte	.LCFI3
 2294 00e8 34020000 		.4byte	.LFE7
 2295 00ec 0200     		.2byte	0x2
 2296 00ee 7D       		.byte	0x7d
 2297 00ef 38       		.sleb128 56
 2298 00f0 00000000 		.4byte	0
 2299 00f4 00000000 		.4byte	0
 2300              	.LLST8:
 2301 00f8 00000000 		.4byte	.LVL10
 2302 00fc 1E000000 		.4byte	.LVL12
 2303 0100 0100     		.2byte	0x1
 2304 0102 50       		.byte	0x50
 2305 0103 1E000000 		.4byte	.LVL12
 2306 0107 2A010000 		.4byte	.LVL28
 2307 010b 0100     		.2byte	0x1
 2308 010d 54       		.byte	0x54
 2309 010e 2A010000 		.4byte	.LVL28
 2310 0112 2C010000 		.4byte	.LVL29
 2311 0116 0100     		.2byte	0x1
 2312 0118 5B       		.byte	0x5b
 2313 0119 2C010000 		.4byte	.LVL29
 2314 011d 34020000 		.4byte	.LFE7
 2315 0121 0100     		.2byte	0x1
 2316 0123 54       		.byte	0x54
 2317 0124 00000000 		.4byte	0
 2318 0128 00000000 		.4byte	0
 2319              	.LLST9:
 2320 012c 00000000 		.4byte	.LVL10
 2321 0130 29000000 		.4byte	.LVL13-1
 2322 0134 0100     		.2byte	0x1
 2323 0136 51       		.byte	0x51
 2324 0137 29000000 		.4byte	.LVL13-1
 2325 013b 34020000 		.4byte	.LFE7
 2326 013f 0100     		.2byte	0x1
 2327 0141 55       		.byte	0x55
 2328 0142 00000000 		.4byte	0
 2329 0146 00000000 		.4byte	0
 2330              	.LLST10:
 2331 014a 46000000 		.4byte	.LVL15
 2332 014e 64000000 		.4byte	.LVL16
ARM GAS  /var/folders/5n/p_75w94d66l9ssrldxqdhh700000gn/T//ccN7kdkN.s 			page 42


 2333 0152 0300     		.2byte	0x3
 2334 0154 74       		.byte	0x74
 2335 0155 04       		.sleb128 4
 2336 0156 06       		.byte	0x6
 2337 0157 96000000 		.4byte	.LVL20
 2338 015b A5000000 		.4byte	.LVL22-1
 2339 015f 0300     		.2byte	0x3
 2340 0161 74       		.byte	0x74
 2341 0162 04       		.sleb128 4
 2342 0163 06       		.byte	0x6
 2343 0164 00000000 		.4byte	0
 2344 0168 00000000 		.4byte	0
 2345              	.LLST11:
 2346 016c 32010000 		.4byte	.LVL30
 2347 0170 9D010000 		.4byte	.LVL32-1
 2348 0174 0200     		.2byte	0x2
 2349 0176 74       		.byte	0x74
 2350 0177 04       		.sleb128 4
 2351 0178 16020000 		.4byte	.LVL36
 2352 017c 22020000 		.4byte	.LVL37
 2353 0180 0100     		.2byte	0x1
 2354 0182 53       		.byte	0x53
 2355 0183 00000000 		.4byte	0
 2356 0187 00000000 		.4byte	0
 2357              	.LLST12:
 2358 018b 0A000000 		.4byte	.LVL11
 2359 018f 1E000000 		.4byte	.LVL12
 2360 0193 0200     		.2byte	0x2
 2361 0195 70       		.byte	0x70
 2362 0196 04       		.sleb128 4
 2363 0197 1E000000 		.4byte	.LVL12
 2364 019b 29000000 		.4byte	.LVL13-1
 2365 019f 0200     		.2byte	0x2
 2366 01a1 74       		.byte	0x74
 2367 01a2 04       		.sleb128 4
 2368 01a3 29000000 		.4byte	.LVL13-1
 2369 01a7 1C010000 		.4byte	.LVL26
 2370 01ab 0100     		.2byte	0x1
 2371 01ad 5A       		.byte	0x5a
 2372 01ae 1C010000 		.4byte	.LVL26
 2373 01b2 1F010000 		.4byte	.LVL27-1
 2374 01b6 0200     		.2byte	0x2
 2375 01b8 7B       		.byte	0x7b
 2376 01b9 04       		.sleb128 4
 2377 01ba 1F010000 		.4byte	.LVL27-1
 2378 01be 34020000 		.4byte	.LFE7
 2379 01c2 0100     		.2byte	0x1
 2380 01c4 5A       		.byte	0x5a
 2381 01c5 00000000 		.4byte	0
 2382 01c9 00000000 		.4byte	0
 2383              	.LLST13:
 2384 01cd 32000000 		.4byte	.LVL14
 2385 01d1 64000000 		.4byte	.LVL16
 2386 01d5 0100     		.2byte	0x1
 2387 01d7 59       		.byte	0x59
 2388 01d8 70000000 		.4byte	.LVL17
 2389 01dc 90000000 		.4byte	.LVL19
ARM GAS  /var/folders/5n/p_75w94d66l9ssrldxqdhh700000gn/T//ccN7kdkN.s 			page 43


 2390 01e0 0100     		.2byte	0x1
 2391 01e2 59       		.byte	0x59
 2392 01e3 C6010000 		.4byte	.LVL33
 2393 01e7 D8010000 		.4byte	.LVL34
 2394 01eb 0100     		.2byte	0x1
 2395 01ed 59       		.byte	0x59
 2396 01ee 00000000 		.4byte	0
 2397 01f2 00000000 		.4byte	0
 2398              	.LLST14:
 2399 01f6 70000000 		.4byte	.LVL17
 2400 01fa 74000000 		.4byte	.LVL18
 2401 01fe 0900     		.2byte	0x9
 2402 0200 7B       		.byte	0x7b
 2403 0201 00       		.sleb128 0
 2404 0202 08       		.byte	0x8
 2405 0203 F0       		.byte	0xf0
 2406 0204 1A       		.byte	0x1a
 2407 0205 08       		.byte	0x8
 2408 0206 E0       		.byte	0xe0
 2409 0207 2E       		.byte	0x2e
 2410 0208 9F       		.byte	0x9f
 2411 0209 96000000 		.4byte	.LVL20
 2412 020d 9E000000 		.4byte	.LVL21
 2413 0211 0200     		.2byte	0x2
 2414 0213 31       		.byte	0x31
 2415 0214 9F       		.byte	0x9f
 2416 0215 9E000000 		.4byte	.LVL21
 2417 0219 A5000000 		.4byte	.LVL22-1
 2418 021d 0A00     		.2byte	0xa
 2419 021f 78       		.byte	0x78
 2420 0220 00       		.sleb128 0
 2421 0221 06       		.byte	0x6
 2422 0222 08       		.byte	0x8
 2423 0223 F0       		.byte	0xf0
 2424 0224 1A       		.byte	0x1a
 2425 0225 08       		.byte	0x8
 2426 0226 E0       		.byte	0xe0
 2427 0227 2E       		.byte	0x2e
 2428 0228 9F       		.byte	0x9f
 2429 0229 A5000000 		.4byte	.LVL22-1
 2430 022d AA000000 		.4byte	.LVL23
 2431 0231 0900     		.2byte	0x9
 2432 0233 7B       		.byte	0x7b
 2433 0234 00       		.sleb128 0
 2434 0235 08       		.byte	0x8
 2435 0236 F0       		.byte	0xf0
 2436 0237 1A       		.byte	0x1a
 2437 0238 08       		.byte	0x8
 2438 0239 E0       		.byte	0xe0
 2439 023a 2E       		.byte	0x2e
 2440 023b 9F       		.byte	0x9f
 2441 023c 00000000 		.4byte	0
 2442 0240 00000000 		.4byte	0
 2443              	.LLST15:
 2444 0244 F6000000 		.4byte	.LVL24
 2445 0248 08010000 		.4byte	.LVL25
 2446 024c 0100     		.2byte	0x1
ARM GAS  /var/folders/5n/p_75w94d66l9ssrldxqdhh700000gn/T//ccN7kdkN.s 			page 44


 2447 024e 50       		.byte	0x50
 2448 024f 08010000 		.4byte	.LVL25
 2449 0253 2C010000 		.4byte	.LVL29
 2450 0257 0100     		.2byte	0x1
 2451 0259 5B       		.byte	0x5b
 2452 025a 22020000 		.4byte	.LVL37
 2453 025e 25020000 		.4byte	.LVL38-1
 2454 0262 0100     		.2byte	0x1
 2455 0264 50       		.byte	0x50
 2456 0265 25020000 		.4byte	.LVL38-1
 2457 0269 34020000 		.4byte	.LFE7
 2458 026d 0100     		.2byte	0x1
 2459 026f 5B       		.byte	0x5b
 2460 0270 00000000 		.4byte	0
 2461 0274 00000000 		.4byte	0
 2462              	.LLST16:
 2463 0278 00000000 		.4byte	.LVL39
 2464 027c 07000000 		.4byte	.LVL41-1
 2465 0280 0100     		.2byte	0x1
 2466 0282 50       		.byte	0x50
 2467 0283 00000000 		.4byte	0
 2468 0287 00000000 		.4byte	0
 2469              	.LLST17:
 2470 028b 00000000 		.4byte	.LVL39
 2471 028f 04000000 		.4byte	.LVL40
 2472 0293 0100     		.2byte	0x1
 2473 0295 51       		.byte	0x51
 2474 0296 00000000 		.4byte	0
 2475 029a 00000000 		.4byte	0
 2476              	.LLST18:
 2477 029e 00000000 		.4byte	.LVL42
 2478 02a2 07000000 		.4byte	.LVL44-1
 2479 02a6 0100     		.2byte	0x1
 2480 02a8 50       		.byte	0x50
 2481 02a9 00000000 		.4byte	0
 2482 02ad 00000000 		.4byte	0
 2483              	.LLST19:
 2484 02b1 00000000 		.4byte	.LVL42
 2485 02b5 04000000 		.4byte	.LVL43
 2486 02b9 0100     		.2byte	0x1
 2487 02bb 51       		.byte	0x51
 2488 02bc 00000000 		.4byte	0
 2489 02c0 00000000 		.4byte	0
 2490              		.section	.debug_aranges,"",%progbits
 2491 0000 34000000 		.4byte	0x34
 2492 0004 0200     		.2byte	0x2
 2493 0006 00000000 		.4byte	.Ldebug_info0
 2494 000a 04       		.byte	0x4
 2495 000b 00       		.byte	0
 2496 000c 0000     		.2byte	0
 2497 000e 0000     		.2byte	0
 2498 0010 00000000 		.4byte	.LFB10
 2499 0014 A8000000 		.4byte	.LFE10-.LFB10
 2500 0018 00000000 		.4byte	.LFB7
 2501 001c 34020000 		.4byte	.LFE7-.LFB7
 2502 0020 00000000 		.4byte	.LFB8
 2503 0024 08000000 		.4byte	.LFE8-.LFB8
ARM GAS  /var/folders/5n/p_75w94d66l9ssrldxqdhh700000gn/T//ccN7kdkN.s 			page 45


 2504 0028 00000000 		.4byte	.LFB9
 2505 002c 08000000 		.4byte	.LFE9-.LFB9
 2506 0030 00000000 		.4byte	0
 2507 0034 00000000 		.4byte	0
 2508              		.section	.debug_ranges,"",%progbits
 2509              	.Ldebug_ranges0:
 2510 0000 70000000 		.4byte	.LBB2
 2511 0004 7A000000 		.4byte	.LBE2
 2512 0008 96000000 		.4byte	.LBB3
 2513 000c B6000000 		.4byte	.LBE3
 2514 0010 BC000000 		.4byte	.LBB4
 2515 0014 C0000000 		.4byte	.LBE4
 2516 0018 00000000 		.4byte	0
 2517 001c 00000000 		.4byte	0
 2518 0020 DC000000 		.4byte	.LBB5
 2519 0024 2C010000 		.4byte	.LBE5
 2520 0028 22020000 		.4byte	.LBB7
 2521 002c 34020000 		.4byte	.LBE7
 2522 0030 00000000 		.4byte	0
 2523 0034 00000000 		.4byte	0
 2524 0038 00000000 		.4byte	.LFB10
 2525 003c A8000000 		.4byte	.LFE10
 2526 0040 00000000 		.4byte	.LFB7
 2527 0044 34020000 		.4byte	.LFE7
 2528 0048 00000000 		.4byte	.LFB8
 2529 004c 08000000 		.4byte	.LFE8
 2530 0050 00000000 		.4byte	.LFB9
 2531 0054 08000000 		.4byte	.LFE9
 2532 0058 00000000 		.4byte	0
 2533 005c 00000000 		.4byte	0
 2534              		.section	.debug_line,"",%progbits
 2535              	.Ldebug_line0:
 2536 0000 6D020000 		.section	.debug_str,"MS",%progbits,1
 2536      02005801 
 2536      00000201 
 2536      FB0E0D00 
 2536      01010101 
 2537              	.LASF105:
 2538 0000 61636365 		.ascii	"accepted\000"
 2538      70746564 
 2538      00
 2539              	.LASF53:
 2540 0009 49434D50 		.ascii	"ICMP_DUR_HOST\000"
 2540      5F445552 
 2540      5F484F53 
 2540      5400
 2541              	.LASF42:
 2542 0017 696E7075 		.ascii	"input\000"
 2542      7400
 2543              	.LASF25:
 2544 001d 50425546 		.ascii	"PBUF_RAM\000"
 2544      5F52414D 
 2544      00
 2545              	.LASF24:
 2546 0026 50425546 		.ascii	"PBUF_RAW\000"
 2546      5F524157 
 2546      00
ARM GAS  /var/folders/5n/p_75w94d66l9ssrldxqdhh700000gn/T//ccN7kdkN.s 			page 46


 2547              	.LASF33:
 2548 002f 666C6167 		.ascii	"flags\000"
 2548      7300
 2549              	.LASF0:
 2550 0035 756E7369 		.ascii	"unsigned int\000"
 2550      676E6564 
 2550      20696E74 
 2550      00
 2551              	.LASF29:
 2552 0042 6E657874 		.ascii	"next\000"
 2552      00
 2553              	.LASF52:
 2554 0047 49434D50 		.ascii	"ICMP_DUR_NET\000"
 2554      5F445552 
 2554      5F4E4554 
 2554      00
 2555              	.LASF103:
 2556 0054 69656368 		.ascii	"iecho\000"
 2556      6F00
 2557              	.LASF20:
 2558 005a 6572725F 		.ascii	"err_t\000"
 2558      7400
 2559              	.LASF44:
 2560 0060 6C696E6B 		.ascii	"linkoutput\000"
 2560      6F757470 
 2560      757400
 2561              	.LASF17:
 2562 006b 7531365F 		.ascii	"u16_t\000"
 2562      7400
 2563              	.LASF70:
 2564 0071 5F74746C 		.ascii	"_ttl\000"
 2564      00
 2565              	.LASF95:
 2566 0076 6C696E6B 		.ascii	"link\000"
 2566      00
 2567              	.LASF86:
 2568 007b 73746174 		.ascii	"stats_mem\000"
 2568      735F6D65 
 2568      6D00
 2569              	.LASF104:
 2570 0085 686C656E 		.ascii	"hlen\000"
 2570      00
 2571              	.LASF50:
 2572 008a 6E657469 		.ascii	"netif_output_fn\000"
 2572      665F6F75 
 2572      74707574 
 2572      5F666E00 
 2573              	.LASF111:
 2574 009a 6C776970 		.ascii	"lwip_stats\000"
 2574      5F737461 
 2574      747300
 2575              	.LASF106:
 2576 00a5 69636D70 		.ascii	"icmp_input\000"
 2576      5F696E70 
 2576      757400
 2577              	.LASF21:
 2578 00b0 50425546 		.ascii	"PBUF_TRANSPORT\000"
ARM GAS  /var/folders/5n/p_75w94d66l9ssrldxqdhh700000gn/T//ccN7kdkN.s 			page 47


 2578      5F545241 
 2578      4E53504F 
 2578      525400
 2579              	.LASF90:
 2580 00bf 73746174 		.ascii	"stats_syselem\000"
 2580      735F7379 
 2580      73656C65 
 2580      6D00
 2581              	.LASF65:
 2582 00cd 7365716E 		.ascii	"seqno\000"
 2582      6F00
 2583              	.LASF49:
 2584 00d3 6E657469 		.ascii	"netif_input_fn\000"
 2584      665F696E 
 2584      7075745F 
 2584      666E00
 2585              	.LASF10:
 2586 00e2 75696E74 		.ascii	"uint32_t\000"
 2586      33325F74 
 2586      00
 2587              	.LASF2:
 2588 00eb 696E7438 		.ascii	"int8_t\000"
 2588      5F7400
 2589              	.LASF84:
 2590 00f2 6F707465 		.ascii	"opterr\000"
 2590      727200
 2591              	.LASF92:
 2592 00f9 6D757465 		.ascii	"mutex\000"
 2592      7800
 2593              	.LASF97:
 2594 00ff 69705F66 		.ascii	"ip_frag\000"
 2594      72616700 
 2595              	.LASF89:
 2596 0107 696C6C65 		.ascii	"illegal\000"
 2596      67616C00 
 2597              	.LASF5:
 2598 010f 696E7431 		.ascii	"int16_t\000"
 2598      365F7400 
 2599              	.LASF47:
 2600 0117 68776164 		.ascii	"hwaddr\000"
 2600      647200
 2601              	.LASF96:
 2602 011e 65746861 		.ascii	"etharp\000"
 2602      727000
 2603              	.LASF13:
 2604 0125 6C6F6E67 		.ascii	"long long unsigned int\000"
 2604      206C6F6E 
 2604      6720756E 
 2604      7369676E 
 2604      65642069 
 2605              	.LASF108:
 2606 013c 69636D70 		.ascii	"icmp_time_exceeded\000"
 2606      5F74696D 
 2606      655F6578 
 2606      63656564 
 2606      656400
 2607              	.LASF107:
ARM GAS  /var/folders/5n/p_75w94d66l9ssrldxqdhh700000gn/T//ccN7kdkN.s 			page 48


 2608 014f 69636D70 		.ascii	"icmp_dest_unreach\000"
 2608      5F646573 
 2608      745F756E 
 2608      72656163 
 2608      6800
 2609              	.LASF109:
 2610 0161 63757272 		.ascii	"current_iphdr_src\000"
 2610      656E745F 
 2610      69706864 
 2610      725F7372 
 2610      6300
 2611              	.LASF72:
 2612 0173 5F63686B 		.ascii	"_chksum\000"
 2612      73756D00 
 2613              	.LASF46:
 2614 017b 68776164 		.ascii	"hwaddr_len\000"
 2614      64725F6C 
 2614      656E00
 2615              	.LASF69:
 2616 0186 5F6F6666 		.ascii	"_offset\000"
 2616      73657400 
 2617              	.LASF57:
 2618 018e 49434D50 		.ascii	"ICMP_DUR_SR\000"
 2618      5F445552 
 2618      5F535200 
 2619              	.LASF27:
 2620 019a 50425546 		.ascii	"PBUF_REF\000"
 2620      5F524546 
 2620      00
 2621              	.LASF94:
 2622 01a3 73746174 		.ascii	"stats_\000"
 2622      735F00
 2623              	.LASF31:
 2624 01aa 746F745F 		.ascii	"tot_len\000"
 2624      6C656E00 
 2625              	.LASF30:
 2626 01b2 7061796C 		.ascii	"payload\000"
 2626      6F616400 
 2627              	.LASF22:
 2628 01ba 50425546 		.ascii	"PBUF_IP\000"
 2628      5F495000 
 2629              	.LASF43:
 2630 01c2 6F757470 		.ascii	"output\000"
 2630      757400
 2631              	.LASF34:
 2632 01c9 70627566 		.ascii	"pbuf\000"
 2632      00
 2633              	.LASF28:
 2634 01ce 50425546 		.ascii	"PBUF_POOL\000"
 2634      5F504F4F 
 2634      4C00
 2635              	.LASF16:
 2636 01d8 73385F74 		.ascii	"s8_t\000"
 2636      00
 2637              	.LASF63:
 2638 01dd 636F6465 		.ascii	"code\000"
 2638      00
ARM GAS  /var/folders/5n/p_75w94d66l9ssrldxqdhh700000gn/T//ccN7kdkN.s 			page 49


 2639              	.LASF14:
 2640 01e2 63686172 		.ascii	"char\000"
 2640      00
 2641              	.LASF112:
 2642 01e7 474E5520 		.ascii	"GNU C 4.6.2 20111004 (prerelease)\000"
 2642      4320342E 
 2642      362E3220 
 2642      32303131 
 2642      31303034 
 2643              	.LASF74:
 2644 0209 6D656D5F 		.ascii	"mem_size_t\000"
 2644      73697A65 
 2644      5F7400
 2645              	.LASF75:
 2646 0214 73746174 		.ascii	"stats_proto\000"
 2646      735F7072 
 2646      6F746F00 
 2647              	.LASF37:
 2648 0220 69705F61 		.ascii	"ip_addr_packed\000"
 2648      6464725F 
 2648      7061636B 
 2648      656400
 2649              	.LASF113:
 2650 022f 2E2E2F2E 		.ascii	"../../ext/lwip/src/core/ipv4/icmp.c\000"
 2650      2E2F6578 
 2650      742F6C77 
 2650      69702F73 
 2650      72632F63 
 2651              	.LASF3:
 2652 0253 75696E74 		.ascii	"uint8_t\000"
 2652      385F7400 
 2653              	.LASF71:
 2654 025b 5F70726F 		.ascii	"_proto\000"
 2654      746F00
 2655              	.LASF101:
 2656 0262 69636D70 		.ascii	"icmphdr\000"
 2656      68647200 
 2657              	.LASF59:
 2658 026a 69636D70 		.ascii	"icmp_te_type\000"
 2658      5F74655F 
 2658      74797065 
 2658      00
 2659              	.LASF41:
 2660 0277 6E65746D 		.ascii	"netmask\000"
 2660      61736B00 
 2661              	.LASF12:
 2662 027f 6C6F6E67 		.ascii	"long long int\000"
 2662      206C6F6E 
 2662      6720696E 
 2662      7400
 2663              	.LASF15:
 2664 028d 75385F74 		.ascii	"u8_t\000"
 2664      00
 2665              	.LASF114:
 2666 0292 2F557365 		.ascii	"/Users/sin/Documents/Eclipse/Workspace/mabl-ChibiOS"
 2666      72732F73 
 2666      696E2F44 
ARM GAS  /var/folders/5n/p_75w94d66l9ssrldxqdhh700000gn/T//ccN7kdkN.s 			page 50


 2666      6F63756D 
 2666      656E7473 
 2667 02c5 2D322E35 		.ascii	"-2.5.1/demos/ARMCM4-STM32F407-LWIP\000"
 2667      2E312F64 
 2667      656D6F73 
 2667      2F41524D 
 2667      434D342D 
 2668              	.LASF88:
 2669 02e8 75736564 		.ascii	"used\000"
 2669      00
 2670              	.LASF79:
 2671 02ed 63686B65 		.ascii	"chkerr\000"
 2671      727200
 2672              	.LASF55:
 2673 02f4 49434D50 		.ascii	"ICMP_DUR_PORT\000"
 2673      5F445552 
 2673      5F504F52 
 2673      5400
 2674              	.LASF115:
 2675 0302 69636D70 		.ascii	"icmp_send_response\000"
 2675      5F73656E 
 2675      645F7265 
 2675      73706F6E 
 2675      736500
 2676              	.LASF23:
 2677 0315 50425546 		.ascii	"PBUF_LINK\000"
 2677      5F4C494E 
 2677      4B00
 2678              	.LASF7:
 2679 031f 75696E74 		.ascii	"uint16_t\000"
 2679      31365F74 
 2679      00
 2680              	.LASF102:
 2681 0328 69706864 		.ascii	"iphdr_src\000"
 2681      725F7372 
 2681      6300
 2682              	.LASF67:
 2683 0332 5F765F68 		.ascii	"_v_hl_tos\000"
 2683      6C5F746F 
 2683      7300
 2684              	.LASF61:
 2685 033c 49434D50 		.ascii	"ICMP_TE_FRAG\000"
 2685      5F54455F 
 2685      46524147 
 2685      00
 2686              	.LASF19:
 2687 0349 7533325F 		.ascii	"u32_t\000"
 2687      7400
 2688              	.LASF6:
 2689 034f 73686F72 		.ascii	"short int\000"
 2689      7420696E 
 2689      7400
 2690              	.LASF98:
 2691 0359 69636D70 		.ascii	"icmp\000"
 2691      00
 2692              	.LASF9:
 2693 035e 6C6F6E67 		.ascii	"long int\000"
ARM GAS  /var/folders/5n/p_75w94d66l9ssrldxqdhh700000gn/T//ccN7kdkN.s 			page 51


 2693      20696E74 
 2693      00
 2694              	.LASF82:
 2695 0367 72746572 		.ascii	"rterr\000"
 2695      7200
 2696              	.LASF87:
 2697 036d 61766169 		.ascii	"avail\000"
 2697      6C00
 2698              	.LASF93:
 2699 0373 6D626F78 		.ascii	"mbox\000"
 2699      00
 2700              	.LASF85:
 2701 0378 63616368 		.ascii	"cachehit\000"
 2701      65686974 
 2701      00
 2702              	.LASF66:
 2703 0381 69705F68 		.ascii	"ip_hdr\000"
 2703      647200
 2704              	.LASF60:
 2705 0388 49434D50 		.ascii	"ICMP_TE_TTL\000"
 2705      5F54455F 
 2705      54544C00 
 2706              	.LASF48:
 2707 0394 6E616D65 		.ascii	"name\000"
 2707      00
 2708              	.LASF51:
 2709 0399 6E657469 		.ascii	"netif_linkoutput_fn\000"
 2709      665F6C69 
 2709      6E6B6F75 
 2709      74707574 
 2709      5F666E00 
 2710              	.LASF58:
 2711 03ad 69636D70 		.ascii	"icmp_dur_type\000"
 2711      5F647572 
 2711      5F747970 
 2711      6500
 2712              	.LASF99:
 2713 03bb 6D656D70 		.ascii	"memp\000"
 2713      00
 2714              	.LASF80:
 2715 03c0 6C656E65 		.ascii	"lenerr\000"
 2715      727200
 2716              	.LASF11:
 2717 03c7 6C6F6E67 		.ascii	"long unsigned int\000"
 2717      20756E73 
 2717      69676E65 
 2717      6420696E 
 2717      7400
 2718              	.LASF18:
 2719 03d9 7331365F 		.ascii	"s16_t\000"
 2719      7400
 2720              	.LASF83:
 2721 03df 70726F74 		.ascii	"proterr\000"
 2721      65727200 
 2722              	.LASF62:
 2723 03e7 69636D70 		.ascii	"icmp_echo_hdr\000"
 2723      5F656368 
ARM GAS  /var/folders/5n/p_75w94d66l9ssrldxqdhh700000gn/T//ccN7kdkN.s 			page 52


 2723      6F5F6864 
 2723      7200
 2724              	.LASF32:
 2725 03f5 74797065 		.ascii	"type\000"
 2725      00
 2726              	.LASF91:
 2727 03fa 73746174 		.ascii	"stats_sys\000"
 2727      735F7379 
 2727      7300
 2728              	.LASF4:
 2729 0404 756E7369 		.ascii	"unsigned char\000"
 2729      676E6564 
 2729      20636861 
 2729      7200
 2730              	.LASF81:
 2731 0412 6D656D65 		.ascii	"memerr\000"
 2731      727200
 2732              	.LASF39:
 2733 0419 69705F61 		.ascii	"ip_addr_p_t\000"
 2733      6464725F 
 2733      705F7400 
 2734              	.LASF54:
 2735 0425 49434D50 		.ascii	"ICMP_DUR_PROTO\000"
 2735      5F445552 
 2735      5F50524F 
 2735      544F00
 2736              	.LASF36:
 2737 0434 61646472 		.ascii	"addr\000"
 2737      00
 2738              	.LASF56:
 2739 0439 49434D50 		.ascii	"ICMP_DUR_FRAG\000"
 2739      5F445552 
 2739      5F465241 
 2739      4700
 2740              	.LASF78:
 2741 0447 64726F70 		.ascii	"drop\000"
 2741      00
 2742              	.LASF45:
 2743 044c 73746174 		.ascii	"state\000"
 2743      6500
 2744              	.LASF40:
 2745 0452 6E657469 		.ascii	"netif\000"
 2745      6600
 2746              	.LASF64:
 2747 0458 63686B73 		.ascii	"chksum\000"
 2747      756D00
 2748              	.LASF100:
 2749 045f 69706864 		.ascii	"iphdr\000"
 2749      7200
 2750              	.LASF77:
 2751 0465 72656376 		.ascii	"recv\000"
 2751      00
 2752              	.LASF1:
 2753 046a 7369676E 		.ascii	"signed char\000"
 2753      65642063 
 2753      68617200 
 2754              	.LASF8:
ARM GAS  /var/folders/5n/p_75w94d66l9ssrldxqdhh700000gn/T//ccN7kdkN.s 			page 53


 2755 0476 73686F72 		.ascii	"short unsigned int\000"
 2755      7420756E 
 2755      7369676E 
 2755      65642069 
 2755      6E7400
 2756              	.LASF76:
 2757 0489 786D6974 		.ascii	"xmit\000"
 2757      00
 2758              	.LASF110:
 2759 048e 63757272 		.ascii	"current_iphdr_dest\000"
 2759      656E745F 
 2759      69706864 
 2759      725F6465 
 2759      737400
 2760              	.LASF68:
 2761 04a1 5F6C656E 		.ascii	"_len\000"
 2761      00
 2762              	.LASF38:
 2763 04a6 69705F61 		.ascii	"ip_addr_t\000"
 2763      6464725F 
 2763      7400
 2764              	.LASF26:
 2765 04b0 50425546 		.ascii	"PBUF_ROM\000"
 2765      5F524F4D 
 2765      00
 2766              	.LASF73:
 2767 04b9 64657374 		.ascii	"dest\000"
 2767      00
 2768              	.LASF35:
 2769 04be 69705F61 		.ascii	"ip_addr\000"
 2769      64647200 
 2770              		.ident	"GCC: (Linaro GCC 4.6-2011.10) 4.6.2 20111004 (prerelease)"
ARM GAS  /var/folders/5n/p_75w94d66l9ssrldxqdhh700000gn/T//ccN7kdkN.s 			page 54


DEFINED SYMBOLS
                            *ABS*:0000000000000000 icmp.c
/var/folders/5n/p_75w94d66l9ssrldxqdhh700000gn/T//ccN7kdkN.s:18     .text.icmp_send_response:0000000000000000 $t
/var/folders/5n/p_75w94d66l9ssrldxqdhh700000gn/T//ccN7kdkN.s:23     .text.icmp_send_response:0000000000000000 icmp_send_response
/var/folders/5n/p_75w94d66l9ssrldxqdhh700000gn/T//ccN7kdkN.s:144    .text.icmp_send_response:00000000000000a4 $d
/var/folders/5n/p_75w94d66l9ssrldxqdhh700000gn/T//ccN7kdkN.s:149    .text.icmp_input:0000000000000000 $t
/var/folders/5n/p_75w94d66l9ssrldxqdhh700000gn/T//ccN7kdkN.s:155    .text.icmp_input:0000000000000000 icmp_input
/var/folders/5n/p_75w94d66l9ssrldxqdhh700000gn/T//ccN7kdkN.s:509    .text.icmp_input:0000000000000228 $d
/var/folders/5n/p_75w94d66l9ssrldxqdhh700000gn/T//ccN7kdkN.s:517    .text.icmp_dest_unreach:0000000000000000 $t
/var/folders/5n/p_75w94d66l9ssrldxqdhh700000gn/T//ccN7kdkN.s:523    .text.icmp_dest_unreach:0000000000000000 icmp_dest_unreach
/var/folders/5n/p_75w94d66l9ssrldxqdhh700000gn/T//ccN7kdkN.s:544    .text.icmp_time_exceeded:0000000000000000 $t
/var/folders/5n/p_75w94d66l9ssrldxqdhh700000gn/T//ccN7kdkN.s:550    .text.icmp_time_exceeded:0000000000000000 icmp_time_exceeded
                     .debug_frame:0000000000000010 $d
/var/folders/5n/p_75w94d66l9ssrldxqdhh700000gn/T//ccN7kdkN.s:148    .text.icmp_send_response:00000000000000a8 $t
/var/folders/5n/p_75w94d66l9ssrldxqdhh700000gn/T//ccN7kdkN.s:516    .text.icmp_input:0000000000000234 $t

UNDEFINED SYMBOLS
pbuf_alloc
memcpy
inet_chksum
ip_output
pbuf_free
port_halt
lwip_stats
lwip_ntohs
pbuf_header
ip4_addr_isbroadcast
inet_chksum_pbuf
pbuf_copy
ip_output_if
current_iphdr_src
current_iphdr_dest
