ARM GAS  /var/folders/5n/p_75w94d66l9ssrldxqdhh700000gn/T//ccN7kdkN.s 			page 1


   1              		.syntax unified
   2              		.cpu cortex-m4
   3              		.fpu softvfp
   4              		.eabi_attribute 20, 1
   5              		.eabi_attribute 21, 1
   6              		.eabi_attribute 23, 3
   7              		.eabi_attribute 24, 1
   8              		.eabi_attribute 25, 1
   9              		.eabi_attribute 26, 1
  10              		.eabi_attribute 30, 2
  11              		.eabi_attribute 18, 4
  12              		.thumb
  13              		.file	"icmp.c"
  14              		.text
  15              	.Ltext0:
  16              		.cfi_sections	.debug_frame
  17              		.section	.text.icmp_send_response,"ax",%progbits
  18              		.align	2
  19              		.p2align 4,,15
  20              		.thumb
  21              		.thumb_func
  22              		.type	icmp_send_response, %function
  23              	icmp_send_response:
  24              	.LFB10:
  25              		.file 1 "../../ext/lwip/src/core/ipv4/icmp.c"
  26              		.loc 1 288 0
  27              		.cfi_startproc
  28              		@ args = 0, pretend = 0, frame = 8
  29              		@ frame_needed = 0, uses_anonymous_args = 0
  30              	.LVL0:
  31 0000 2DE9F043 		push	{r4, r5, r6, r7, r8, r9, lr}
  32              	.LCFI0:
  33              		.cfi_def_cfa_offset 28
  34              		.cfi_offset 14, -4
  35              		.cfi_offset 9, -8
  36              		.cfi_offset 8, -12
  37              		.cfi_offset 7, -16
  38              		.cfi_offset 6, -20
  39              		.cfi_offset 5, -24
  40              		.cfi_offset 4, -28
  41 0004 8046     		mov	r8, r0
  42 0006 85B0     		sub	sp, sp, #20
  43              	.LCFI1:
  44              		.cfi_def_cfa_offset 48
  45              		.loc 1 288 0
  46 0008 0E46     		mov	r6, r1
  47 000a 9146     		mov	r9, r2
  48              		.loc 1 296 0
  49 000c 0120     		movs	r0, #1
  50              	.LVL1:
  51 000e 2421     		movs	r1, #36
  52              	.LVL2:
  53 0010 0022     		movs	r2, #0
  54              	.LVL3:
  55 0012 FFF7FEFF 		bl	pbuf_alloc
  56              	.LVL4:
  57              		.loc 1 298 0
ARM GAS  /var/folders/5n/p_75w94d66l9ssrldxqdhh700000gn/T//ccN7kdkN.s 			page 2


  58 0016 0446     		mov	r4, r0
  59 0018 0028     		cmp	r0, #0
  60 001a 3CD0     		beq	.L1
  61              		.loc 1 302 0
  62 001c 4389     		ldrh	r3, [r0, #10]
  63 001e 232B     		cmp	r3, #35
  64 0020 3CD9     		bls	.L5
  65              	.LVL5:
  66              	.L3:
  67              		.loc 1 312 0
  68 0022 6568     		ldr	r5, [r4, #4]
  69              		.loc 1 305 0
  70 0024 D8F80470 		ldr	r7, [r8, #4]
  71              	.LVL6:
  72              		.loc 1 313 0
  73 0028 2E70     		strb	r6, [r5, #0]
  74              		.loc 1 315 0
  75 002a 0026     		movs	r6, #0
  76              		.loc 1 314 0
  77 002c 85F80190 		strb	r9, [r5, #1]
  78              		.loc 1 315 0
  79 0030 2E71     		strb	r6, [r5, #4]
  80 0032 6E71     		strb	r6, [r5, #5]
  81              		.loc 1 316 0
  82 0034 AE71     		strb	r6, [r5, #6]
  83 0036 EE71     		strb	r6, [r5, #7]
  84              		.loc 1 319 0
  85 0038 6068     		ldr	r0, [r4, #4]
  86 003a D8F80410 		ldr	r1, [r8, #4]
  87 003e 1C22     		movs	r2, #28
  88 0040 0830     		adds	r0, r0, #8
  89 0042 FFF7FEFF 		bl	memcpy
  90              	.LVL7:
  91              		.loc 1 323 0
  92 0046 AE70     		strb	r6, [r5, #2]
  93 0048 EE70     		strb	r6, [r5, #3]
  94              		.loc 1 324 0
  95 004a 6189     		ldrh	r1, [r4, #10]
  96 004c 2846     		mov	r0, r5
  97 004e FFF7FEFF 		bl	inet_chksum
  98              		.loc 1 325 0
  99 0052 144B     		ldr	r3, .L6
 100              		.loc 1 324 0
 101 0054 A870     		strb	r0, [r5, #2]
 102 0056 C0F30F22 		ubfx	r2, r0, #8, #16
 103 005a EA70     		strb	r2, [r5, #3]
 104              		.loc 1 325 0
 105 005c B3F86020 		ldrh	r2, [r3, #96]
 106 0060 0132     		adds	r2, r2, #1
 107 0062 A3F86020 		strh	r2, [r3, #96]	@ movhi
 108              		.loc 1 330 0
 109 0066 787B     		ldrb	r0, [r7, #13]	@ zero_extendqisi2
 110 0068 3B7B     		ldrb	r3, [r7, #12]	@ zero_extendqisi2
 111 006a BA7B     		ldrb	r2, [r7, #14]	@ zero_extendqisi2
 112 006c F97B     		ldrb	r1, [r7, #15]	@ zero_extendqisi2
 113              		.loc 1 331 0
 114 006e 0096     		str	r6, [sp, #0]
ARM GAS  /var/folders/5n/p_75w94d66l9ssrldxqdhh700000gn/T//ccN7kdkN.s 			page 3


 115              		.loc 1 330 0
 116 0070 43EA0023 		orr	r3, r3, r0, lsl #8
 117 0074 43EA0243 		orr	r3, r3, r2, lsl #16
 118 0078 04AA     		add	r2, sp, #16
 119 007a 43EA0163 		orr	r3, r3, r1, lsl #24
 120 007e 42F8043D 		str	r3, [r2, #-4]!
 121              		.loc 1 331 0
 122 0082 2046     		mov	r0, r4
 123 0084 3146     		mov	r1, r6
 124 0086 FF23     		movs	r3, #255
 125 0088 0125     		movs	r5, #1
 126              	.LVL8:
 127 008a 0195     		str	r5, [sp, #4]
 128 008c FFF7FEFF 		bl	ip_output
 129              		.loc 1 332 0
 130 0090 2046     		mov	r0, r4
 131 0092 FFF7FEFF 		bl	pbuf_free
 132              	.LVL9:
 133              	.L1:
 134              		.loc 1 333 0
 135 0096 05B0     		add	sp, sp, #20
 136 0098 BDE8F083 		pop	{r4, r5, r6, r7, r8, r9, pc}
 137              	.L5:
 138              		.loc 1 302 0 discriminator 1
 139 009c FFF7FEFF 		bl	port_halt
 140 00a0 BFE7     		b	.L3
 141              	.L7:
 142 00a2 00BF     		.align	2
 143              	.L6:
 144 00a4 00000000 		.word	lwip_stats
 145              		.cfi_endproc
 146              	.LFE10:
 147              		.size	icmp_send_response, .-icmp_send_response
 148 00a8 AFF30080 		.section	.text.icmp_input,"ax",%progbits
 148      AFF30080 
 149              		.align	2
 150              		.p2align 4,,15
 151              		.global	icmp_input
 152              		.thumb
 153              		.thumb_func
 154              		.type	icmp_input, %function
 155              	icmp_input:
 156              	.LFB7:
 157              		.loc 1 78 0
 158              		.cfi_startproc
 159              		@ args = 0, pretend = 0, frame = 0
 160              		@ frame_needed = 0, uses_anonymous_args = 0
 161              	.LVL10:
 162 0000 2DE9F04F 		push	{r4, r5, r6, r7, r8, r9, sl, fp, lr}
 163              	.LCFI2:
 164              		.cfi_def_cfa_offset 36
 165              		.cfi_offset 14, -4
 166              		.cfi_offset 11, -8
 167              		.cfi_offset 10, -12
 168              		.cfi_offset 9, -16
 169              		.cfi_offset 8, -20
 170              		.cfi_offset 7, -24
ARM GAS  /var/folders/5n/p_75w94d66l9ssrldxqdhh700000gn/T//ccN7kdkN.s 			page 4


 171              		.cfi_offset 6, -28
 172              		.cfi_offset 5, -32
 173              		.cfi_offset 4, -36
 174              		.loc 1 87 0
 175 0004 884E     		ldr	r6, .L35
 176              		.loc 1 91 0
 177 0006 D0F804A0 		ldr	sl, [r0, #4]
 178              	.LVL11:
 179              		.loc 1 87 0
 180 000a B6F86230 		ldrh	r3, [r6, #98]
 181 000e 0133     		adds	r3, r3, #1
 182 0010 A6F86230 		strh	r3, [r6, #98]	@ movhi
 183              		.loc 1 78 0
 184 0014 0446     		mov	r4, r0
 185              		.loc 1 92 0
 186 0016 9AF80030 		ldrb	r3, [sl, #0]	@ zero_extendqisi2
 187 001a 9AF80100 		ldrb	r0, [sl, #1]	@ zero_extendqisi2
 188              	.LVL12:
 189              		.loc 1 78 0
 190 001e 85B0     		sub	sp, sp, #20
 191              	.LCFI3:
 192              		.cfi_def_cfa_offset 56
 193              		.loc 1 92 0
 194 0020 43EA0020 		orr	r0, r3, r0, lsl #8
 195              		.loc 1 78 0
 196 0024 0D46     		mov	r5, r1
 197              		.loc 1 92 0
 198 0026 FFF7FEFF 		bl	lwip_ntohs
 199              	.LVL13:
 200 002a C0F30329 		ubfx	r9, r0, #8, #4
 201 002e 4FEA8909 		lsl	r9, r9, #2
 202              	.LVL14:
 203              		.loc 1 93 0
 204 0032 C9F10007 		rsb	r7, r9, #0
 205 0036 2046     		mov	r0, r4
 206 0038 3946     		mov	r1, r7
 207 003a FFF7FEFF 		bl	pbuf_header
 208 003e F8B9     		cbnz	r0, .L9
 209              		.loc 1 93 0 is_stmt 0 discriminator 1
 210 0040 2389     		ldrh	r3, [r4, #8]
 211 0042 032B     		cmp	r3, #3
 212 0044 1CD9     		bls	.L9
 213              	.LVL15:
 214              		.loc 1 98 0 is_stmt 1
 215 0046 6368     		ldr	r3, [r4, #4]
 216              		.loc 1 102 0
 217 0048 1B78     		ldrb	r3, [r3, #0]	@ zero_extendqisi2
 218 004a 5BB1     		cbz	r3, .L11
 219 004c 082B     		cmp	r3, #8
 220 004e 22D0     		beq	.L30
 221              		.loc 1 228 0
 222 0050 B6F87020 		ldrh	r2, [r6, #112]
 223              		.loc 1 229 0
 224 0054 B6F86630 		ldrh	r3, [r6, #102]
 225              		.loc 1 228 0
 226 0058 0132     		adds	r2, r2, #1
 227              		.loc 1 229 0
ARM GAS  /var/folders/5n/p_75w94d66l9ssrldxqdhh700000gn/T//ccN7kdkN.s 			page 5


 228 005a 0133     		adds	r3, r3, #1
 229              		.loc 1 228 0
 230 005c A6F87020 		strh	r2, [r6, #112]	@ movhi
 231              		.loc 1 229 0
 232 0060 A6F86630 		strh	r3, [r6, #102]	@ movhi
 233              	.LVL16:
 234              	.L11:
 235              		.loc 1 231 0
 236 0064 2046     		mov	r0, r4
 237              		.loc 1 245 0
 238 0066 05B0     		add	sp, sp, #20
 239 0068 BDE8F04F 		pop	{r4, r5, r6, r7, r8, r9, sl, fp, lr}
 240              		.loc 1 231 0
 241 006c FFF7FEBF 		b	pbuf_free
 242              	.LVL17:
 243              	.L32:
 244              	.LBB2:
 245              		.loc 1 113 0
 246 0070 0BF0F00B 		and	fp, fp, #240
 247              	.LVL18:
 248              		.loc 1 124 0
 249 0074 BBF1E00F 		cmp	fp, #224
 250 0078 17D0     		beq	.L13
 251              	.LBE2:
 252              		.loc 1 133 0
 253 007a 2389     		ldrh	r3, [r4, #8]
 254 007c 072B     		cmp	r3, #7
 255 007e 1FD8     		bhi	.L31
 256              	.L9:
 257              		.loc 1 234 0
 258 0080 2046     		mov	r0, r4
 259 0082 FFF7FEFF 		bl	pbuf_free
 260              		.loc 1 235 0
 261 0086 B6F86A30 		ldrh	r3, [r6, #106]
 262 008a 0133     		adds	r3, r3, #1
 263 008c A6F86A30 		strh	r3, [r6, #106]	@ movhi
 264              	.LVL19:
 265              	.L8:
 266              		.loc 1 245 0
 267 0090 05B0     		add	sp, sp, #20
 268 0092 BDE8F08F 		pop	{r4, r5, r6, r7, r8, r9, sl, fp, pc}
 269              	.LVL20:
 270              	.L30:
 271              	.LBB3:
 272              		.loc 1 113 0
 273 0096 DFF89881 		ldr	r8, .L35+8
 274 009a D8F800B0 		ldr	fp, [r8, #0]
 275              	.LVL21:
 276              		.loc 1 119 0
 277 009e 2946     		mov	r1, r5
 278 00a0 5846     		mov	r0, fp
 279 00a2 FFF7FEFF 		bl	ip4_addr_isbroadcast
 280              	.LVL22:
 281 00a6 0028     		cmp	r0, #0
 282 00a8 E2D0     		beq	.L32
 283              	.LVL23:
 284              	.L13:
ARM GAS  /var/folders/5n/p_75w94d66l9ssrldxqdhh700000gn/T//ccN7kdkN.s 			page 6


 285              		.loc 1 126 0
 286 00aa B6F87430 		ldrh	r3, [r6, #116]
 287              		.loc 1 127 0
 288 00ae 2046     		mov	r0, r4
 289              		.loc 1 126 0
 290 00b0 0133     		adds	r3, r3, #1
 291 00b2 A6F87430 		strh	r3, [r6, #116]	@ movhi
 292              	.LBE3:
 293              		.loc 1 245 0
 294 00b6 05B0     		add	sp, sp, #20
 295 00b8 BDE8F04F 		pop	{r4, r5, r6, r7, r8, r9, sl, fp, lr}
 296              	.LBB4:
 297              		.loc 1 127 0
 298 00bc FFF7FEBF 		b	pbuf_free
 299              	.L31:
 300              	.LBE4:
 301              		.loc 1 137 0
 302 00c0 2046     		mov	r0, r4
 303 00c2 FFF7FEFF 		bl	inet_chksum_pbuf
 304 00c6 0028     		cmp	r0, #0
 305 00c8 7DD1     		bne	.L33
 306              		.loc 1 145 0
 307 00ca 2046     		mov	r0, r4
 308 00cc 2221     		movs	r1, #34
 309              		.loc 1 92 0
 310 00ce 1FFA89F9 		uxth	r9, r9
 311              		.loc 1 145 0
 312 00d2 FFF7FEFF 		bl	pbuf_header
 313 00d6 0028     		cmp	r0, #0
 314 00d8 00F08980 		beq	.L17
 315              	.LBB5:
 316              		.loc 1 151 0
 317 00dc 0FFA89F9 		sxth	r9, r9
 318 00e0 2046     		mov	r0, r4
 319 00e2 4946     		mov	r1, r9
 320 00e4 FFF7FEFF 		bl	pbuf_header
 321 00e8 0028     		cmp	r0, #0
 322 00ea 75D1     		bne	.L29
 323              		.loc 1 156 0
 324 00ec 0220     		movs	r0, #2
 325 00ee 2189     		ldrh	r1, [r4, #8]
 326 00f0 0022     		movs	r2, #0
 327 00f2 FFF7FEFF 		bl	pbuf_alloc
 328              	.LVL24:
 329              		.loc 1 157 0
 330 00f6 8346     		mov	fp, r0
 331 00f8 0028     		cmp	r0, #0
 332 00fa 6FD0     		beq	.L19
 333              		.loc 1 161 0
 334 00fc 4289     		ldrh	r2, [r0, #10]
 335 00fe 09F10803 		add	r3, r9, #8
 336 0102 9A42     		cmp	r2, r3
 337 0104 C0F08D80 		bcc	.L34
 338              	.LVL25:
 339              	.L20:
 340              		.loc 1 164 0
 341 0108 5846     		mov	r0, fp
ARM GAS  /var/folders/5n/p_75w94d66l9ssrldxqdhh700000gn/T//ccN7kdkN.s 			page 7


 342 010a 2146     		mov	r1, r4
 343 010c FFF7FEFF 		bl	pbuf_copy
 344 0110 0028     		cmp	r0, #0
 345 0112 61D1     		bne	.L29
 346              		.loc 1 170 0
 347 0114 5846     		mov	r0, fp
 348 0116 3946     		mov	r1, r7
 349              		.loc 1 168 0
 350 0118 DBF804A0 		ldr	sl, [fp, #4]
 351              	.LVL26:
 352              		.loc 1 170 0
 353 011c FFF7FEFF 		bl	pbuf_header
 354              	.LVL27:
 355 0120 0028     		cmp	r0, #0
 356 0122 59D1     		bne	.L29
 357              		.loc 1 175 0
 358 0124 2046     		mov	r0, r4
 359 0126 FFF7FEFF 		bl	pbuf_free
 360              	.LVL28:
 361 012a 5C46     		mov	r4, fp
 362              	.LVL29:
 363              	.L23:
 364              	.LBE5:
 365              		.loc 1 190 0
 366 012c 98F80020 		ldrb	r2, [r8, #0]	@ zero_extendqisi2
 367              		.loc 1 189 0
 368 0130 6368     		ldr	r3, [r4, #4]
 369              	.LVL30:
 370              		.loc 1 190 0
 371 0132 8AF80C20 		strb	r2, [sl, #12]
 372 0136 98F80110 		ldrb	r1, [r8, #1]	@ zero_extendqisi2
 373              		.loc 1 191 0
 374 013a 3C4A     		ldr	r2, .L35+4
 375              		.loc 1 190 0
 376 013c 8AF80D10 		strb	r1, [sl, #13]
 377 0140 98F80210 		ldrb	r1, [r8, #2]	@ zero_extendqisi2
 378 0144 8AF80E10 		strb	r1, [sl, #14]
 379 0148 98F80310 		ldrb	r1, [r8, #3]	@ zero_extendqisi2
 380 014c 8AF80F10 		strb	r1, [sl, #15]
 381              		.loc 1 191 0
 382 0150 1178     		ldrb	r1, [r2, #0]	@ zero_extendqisi2
 383 0152 8AF81010 		strb	r1, [sl, #16]
 384 0156 5178     		ldrb	r1, [r2, #1]	@ zero_extendqisi2
 385 0158 8AF81110 		strb	r1, [sl, #17]
 386 015c 9178     		ldrb	r1, [r2, #2]	@ zero_extendqisi2
 387 015e 8AF81210 		strb	r1, [sl, #18]
 388 0162 D278     		ldrb	r2, [r2, #3]	@ zero_extendqisi2
 389 0164 8AF81320 		strb	r2, [sl, #19]
 390              		.loc 1 194 0
 391 0168 D978     		ldrb	r1, [r3, #3]	@ zero_extendqisi2
 392 016a 9A78     		ldrb	r2, [r3, #2]	@ zero_extendqisi2
 393 016c 42EA0122 		orr	r2, r2, r1, lsl #8
 394              		.loc 1 192 0
 395 0170 0021     		movs	r1, #0
 396 0172 1970     		strb	r1, [r3, #0]
 397              		.loc 1 194 0
 398 0174 4FF6F671 		movw	r1, #65526
ARM GAS  /var/folders/5n/p_75w94d66l9ssrldxqdhh700000gn/T//ccN7kdkN.s 			page 8


 399 0178 8A42     		cmp	r2, r1
 400 017a 4CD9     		bls	.L24
 401              		.loc 1 195 0
 402 017c 0932     		adds	r2, r2, #9
 403 017e 92B2     		uxth	r2, r2
 404 0180 110A     		lsrs	r1, r2, #8
 405 0182 9A70     		strb	r2, [r3, #2]
 406 0184 D970     		strb	r1, [r3, #3]
 407              	.L25:
 408              		.loc 1 202 0
 409 0186 0023     		movs	r3, #0
 410              		.loc 1 201 0
 411 0188 FF27     		movs	r7, #255
 412              	.LVL31:
 413              		.loc 1 204 0
 414 018a 1421     		movs	r1, #20
 415              		.loc 1 202 0
 416 018c 8AF80A30 		strb	r3, [sl, #10]
 417 0190 8AF80B30 		strb	r3, [sl, #11]
 418              		.loc 1 201 0
 419 0194 8AF80870 		strb	r7, [sl, #8]
 420              		.loc 1 204 0
 421 0198 5046     		mov	r0, sl
 422 019a FFF7FEFF 		bl	inet_chksum
 423              	.LVL32:
 424 019e C0F30F23 		ubfx	r3, r0, #8, #16
 425 01a2 8AF80A00 		strb	r0, [sl, #10]
 426 01a6 8AF80B30 		strb	r3, [sl, #11]
 427              		.loc 1 207 0
 428 01aa B6F86030 		ldrh	r3, [r6, #96]
 429 01ae 0133     		adds	r3, r3, #1
 430              		.loc 1 213 0
 431 01b0 2046     		mov	r0, r4
 432 01b2 4946     		mov	r1, r9
 433              		.loc 1 207 0
 434 01b4 A6F86030 		strh	r3, [r6, #96]	@ movhi
 435              		.loc 1 213 0
 436 01b8 FFF7FEFF 		bl	pbuf_header
 437 01bc 0246     		mov	r2, r0
 438 01be 00B3     		cbz	r0, .L26
 439              		.loc 1 214 0 discriminator 1
 440 01c0 FFF7FEFF 		bl	port_halt
 441 01c4 4EE7     		b	.L11
 442              	.LVL33:
 443              	.L33:
 444              		.loc 1 139 0
 445 01c6 2046     		mov	r0, r4
 446 01c8 FFF7FEFF 		bl	pbuf_free
 447              		.loc 1 140 0
 448 01cc B6F86830 		ldrh	r3, [r6, #104]
 449 01d0 0133     		adds	r3, r3, #1
 450 01d2 A6F86830 		strh	r3, [r6, #104]	@ movhi
 451              		.loc 1 142 0
 452 01d6 5BE7     		b	.L8
 453              	.LVL34:
 454              	.L29:
 455              		.loc 1 181 0 discriminator 1
ARM GAS  /var/folders/5n/p_75w94d66l9ssrldxqdhh700000gn/T//ccN7kdkN.s 			page 9


 456 01d8 FFF7FEFF 		bl	port_halt
 457              	.L19:
 458              		.loc 1 240 0
 459 01dc 2046     		mov	r0, r4
 460 01de FFF7FEFF 		bl	pbuf_free
 461              		.loc 1 241 0
 462 01e2 B6F87430 		ldrh	r3, [r6, #116]
 463 01e6 0133     		adds	r3, r3, #1
 464 01e8 A6F87430 		strh	r3, [r6, #116]	@ movhi
 465              		.loc 1 243 0
 466 01ec 50E7     		b	.L8
 467              	.L17:
 468              		.loc 1 180 0
 469 01ee 2046     		mov	r0, r4
 470 01f0 6FF02101 		mvn	r1, #33
 471 01f4 FFF7FEFF 		bl	pbuf_header
 472 01f8 0028     		cmp	r0, #0
 473 01fa EDD1     		bne	.L29
 474 01fc 0FFA89F9 		sxth	r9, r9
 475 0200 94E7     		b	.L23
 476              	.LVL35:
 477              	.L26:
 478              	.LBB6:
 479              		.loc 1 218 0
 480 0202 0126     		movs	r6, #1
 481 0204 2046     		mov	r0, r4
 482 0206 0A49     		ldr	r1, .L35+8
 483 0208 0092     		str	r2, [sp, #0]
 484 020a 3B46     		mov	r3, r7
 485 020c 0196     		str	r6, [sp, #4]
 486 020e 0295     		str	r5, [sp, #8]
 487 0210 FFF7FEFF 		bl	ip_output_if
 488 0214 26E7     		b	.L11
 489              	.LVL36:
 490              	.L24:
 491              	.LBE6:
 492              		.loc 1 197 0
 493 0216 0832     		adds	r2, r2, #8
 494 0218 92B2     		uxth	r2, r2
 495 021a 110A     		lsrs	r1, r2, #8
 496 021c 9A70     		strb	r2, [r3, #2]
 497 021e D970     		strb	r1, [r3, #3]
 498 0220 B1E7     		b	.L25
 499              	.LVL37:
 500              	.L34:
 501              	.LBB7:
 502              		.loc 1 161 0 discriminator 1
 503 0222 FFF7FEFF 		bl	port_halt
 504              	.LVL38:
 505 0226 6FE7     		b	.L20
 506              	.L36:
 507              		.align	2
 508              	.L35:
 509 0228 00000000 		.word	lwip_stats
 510 022c 00000000 		.word	current_iphdr_src
 511 0230 00000000 		.word	current_iphdr_dest
 512              	.LBE7:
ARM GAS  /var/folders/5n/p_75w94d66l9ssrldxqdhh700000gn/T//ccN7kdkN.s 			page 10


 513              		.cfi_endproc
 514              	.LFE7:
 515              		.size	icmp_input, .-icmp_input
 516 0234 AFF30080 		.section	.text.icmp_dest_unreach,"ax",%progbits
 516      AFF30080 
 516      AFF30080 
 517              		.align	2
 518              		.p2align 4,,15
 519              		.global	icmp_dest_unreach
 520              		.thumb
 521              		.thumb_func
 522              		.type	icmp_dest_unreach, %function
 523              	icmp_dest_unreach:
 524              	.LFB8:
 525              		.loc 1 258 0
 526              		.cfi_startproc
 527              		@ args = 0, pretend = 0, frame = 0
 528              		@ frame_needed = 0, uses_anonymous_args = 0
 529              		@ link register save eliminated.
 530              	.LVL39:
 531              		.loc 1 258 0
 532 0000 0A46     		mov	r2, r1
 533              		.loc 1 259 0
 534 0002 0321     		movs	r1, #3
 535              	.LVL40:
 536              		.loc 1 260 0
 537              		.loc 1 259 0
 538 0004 FFF7FEBF 		b	icmp_send_response
 539              	.LVL41:
 540              		.cfi_endproc
 541              	.LFE8:
 542              		.size	icmp_dest_unreach, .-icmp_dest_unreach
 543 0008 AFF30080 		.section	.text.icmp_time_exceeded,"ax",%progbits
 543      AFF30080 
 544              		.align	2
 545              		.p2align 4,,15
 546              		.global	icmp_time_exceeded
 547              		.thumb
 548              		.thumb_func
 549              		.type	icmp_time_exceeded, %function
 550              	icmp_time_exceeded:
 551              	.LFB9:
 552              		.loc 1 272 0
 553              		.cfi_startproc
 554              		@ args = 0, pretend = 0, frame = 0
 555              		@ frame_needed = 0, uses_anonymous_args = 0
 556              		@ link register save eliminated.
 557              	.LVL42:
 558              		.loc 1 272 0
 559 0000 0A46     		mov	r2, r1
 560              		.loc 1 273 0
 561 0002 0B21     		movs	r1, #11
 562              	.LVL43:
 563              		.loc 1 274 0
 564              		.loc 1 273 0
 565 0004 FFF7FEBF 		b	icmp_send_response
 566              	.LVL44:
ARM GAS  /var/folders/5n/p_75w94d66l9ssrldxqdhh700000gn/T//ccN7kdkN.s 			page 11


 567              		.cfi_endproc
 568              	.LFE9:
 569              		.size	icmp_time_exceeded, .-icmp_time_exceeded
 570 0008 AFF30080 		.text
 570      AFF30080 
 571              	.Letext0:
 572              		.file 2 "/usr/local/summon/lib/gcc/arm-none-eabi/4.6.2/../../../../arm-none-eabi/include/stdint.h"
 573              		.file 3 "../../os/various/lwip_bindings/arch/cc.h"
 574              		.file 4 "../../ext/lwip/src/include/lwip/err.h"
 575              		.file 5 "../../ext/lwip/src/include/lwip/pbuf.h"
 576              		.file 6 "../../ext/lwip/src/include/ipv4/lwip/ip_addr.h"
 577              		.file 7 "../../ext/lwip/src/include/lwip/netif.h"
 578              		.file 8 "../../ext/lwip/src/include/ipv4/lwip/icmp.h"
 579              		.file 9 "../../ext/lwip/src/include/ipv4/lwip/ip.h"
 580              		.file 10 "../../ext/lwip/src/include/lwip/mem.h"
 581              		.file 11 "../../ext/lwip/src/include/lwip/stats.h"