ARM GAS  /var/folders/5n/p_75w94d66l9ssrldxqdhh700000gn/T//ccWYmooo.s 			page 1


   1              		.syntax unified
   2              		.cpu cortex-m4
   3              		.fpu softvfp
   4              		.eabi_attribute 20, 1
   5              		.eabi_attribute 21, 1
   6              		.eabi_attribute 23, 3
   7              		.eabi_attribute 24, 1
   8              		.eabi_attribute 25, 1
   9              		.eabi_attribute 26, 1
  10              		.eabi_attribute 30, 2
  11              		.eabi_attribute 18, 4
  12              		.thumb
  13              		.file	"ip.c"
  14              		.text
  15              	.Ltext0:
  16              		.cfi_sections	.debug_frame
  17              		.section	.text.ip_route,"ax",%progbits
  18              		.align	2
  19              		.p2align 4,,15
  20              		.global	ip_route
  21              		.thumb
  22              		.thumb_func
  23              		.type	ip_route, %function
  24              	ip_route:
  25              	.LFB7:
  26              		.file 1 "../../ext/lwip/src/core/ipv4/ip.c"
  27              		.loc 1 125 0
  28              		.cfi_startproc
  29              		@ args = 0, pretend = 0, frame = 0
  30              		@ frame_needed = 0, uses_anonymous_args = 0
  31              		@ link register save eliminated.
  32              	.LVL0:
  33 0000 10B4     		push	{r4}
  34              	.LCFI0:
  35              		.cfi_def_cfa_offset 4
  36              		.cfi_offset 4, -4
  37              		.loc 1 129 0
  38 0002 0F4B     		ldr	r3, .L11
  39              	.L9:
  40 0004 1B68     		ldr	r3, [r3, #0]
  41              	.LVL1:
  42 0006 63B1     		cbz	r3, .L2
  43              		.loc 1 131 0
  44 0008 93F82920 		ldrb	r2, [r3, #41]	@ zero_extendqisi2
  45 000c D107     		lsls	r1, r2, #31
  46 000e F9D5     		bpl	.L9
  47              		.loc 1 132 0
  48 0010 5C68     		ldr	r4, [r3, #4]
  49 0012 0168     		ldr	r1, [r0, #0]
  50 0014 9A68     		ldr	r2, [r3, #8]
  51 0016 6140     		eors	r1, r1, r4
  52 0018 1142     		tst	r1, r2
  53 001a F3D1     		bne	.L9
  54              	.LVL2:
  55              	.L4:
  56              		.loc 1 147 0
  57 001c 1846     		mov	r0, r3
ARM GAS  /var/folders/5n/p_75w94d66l9ssrldxqdhh700000gn/T//ccWYmooo.s 			page 2


  58              	.LVL3:
  59 001e 10BC     		pop	{r4}
  60 0020 7047     		bx	lr
  61              	.LVL4:
  62              	.L2:
  63              		.loc 1 138 0
  64 0022 084B     		ldr	r3, .L11+4
  65              	.LVL5:
  66 0024 1B68     		ldr	r3, [r3, #0]
  67 0026 1BB1     		cbz	r3, .L6
  68              		.loc 1 138 0 is_stmt 0 discriminator 1
  69 0028 93F82920 		ldrb	r2, [r3, #41]	@ zero_extendqisi2
  70 002c D207     		lsls	r2, r2, #31
  71 002e F5D4     		bmi	.L4
  72              	.L6:
  73              		.loc 1 141 0 is_stmt 1
  74 0030 054B     		ldr	r3, .L11+8
  75 0032 B3F85620 		ldrh	r2, [r3, #86]
  76 0036 0132     		adds	r2, r2, #1
  77 0038 A3F85620 		strh	r2, [r3, #86]	@ movhi
  78              		.loc 1 143 0
  79 003c 0023     		movs	r3, #0
  80 003e EDE7     		b	.L4
  81              	.L12:
  82              		.align	2
  83              	.L11:
  84 0040 00000000 		.word	netif_list
  85 0044 00000000 		.word	netif_default
  86 0048 00000000 		.word	lwip_stats
  87              		.cfi_endproc
  88              	.LFE7:
  89              		.size	ip_route, .-ip_route
  90 004c AFF30080 		.section	.text.ip_input,"ax",%progbits
  91              		.align	2
  92              		.p2align 4,,15
  93              		.global	ip_input
  94              		.thumb
  95              		.thumb_func
  96              		.type	ip_input, %function
  97              	ip_input:
  98              	.LFB8:
  99              		.loc 1 243 0
 100              		.cfi_startproc
 101              		@ args = 0, pretend = 0, frame = 0
 102              		@ frame_needed = 0, uses_anonymous_args = 0
 103              	.LVL6:
 104 0000 2DE9F84F 		push	{r3, r4, r5, r6, r7, r8, r9, sl, fp, lr}
 105              	.LCFI1:
 106              		.cfi_def_cfa_offset 40
 107              		.cfi_offset 14, -4
 108              		.cfi_offset 11, -8
 109              		.cfi_offset 10, -12
 110              		.cfi_offset 9, -16
 111              		.cfi_offset 8, -20
 112              		.cfi_offset 7, -24
 113              		.cfi_offset 6, -28
 114              		.cfi_offset 5, -32
ARM GAS  /var/folders/5n/p_75w94d66l9ssrldxqdhh700000gn/T//ccWYmooo.s 			page 3


 115              		.cfi_offset 4, -36
 116              		.cfi_offset 3, -40
 117              		.loc 1 252 0
 118 0004 8D4C     		ldr	r4, .L40
 119              		.loc 1 256 0
 120 0006 4568     		ldr	r5, [r0, #4]
 121              	.LVL7:
 122              		.loc 1 252 0
 123 0008 B4F84A30 		ldrh	r3, [r4, #74]
 124 000c 0133     		adds	r3, r3, #1
 125 000e A4F84A30 		strh	r3, [r4, #74]	@ movhi
 126              		.loc 1 257 0
 127 0012 2B78     		ldrb	r3, [r5, #0]	@ zero_extendqisi2
 128              		.loc 1 243 0
 129 0014 0646     		mov	r6, r0
 130              		.loc 1 257 0
 131 0016 6878     		ldrb	r0, [r5, #1]	@ zero_extendqisi2
 132              	.LVL8:
 133 0018 43EA0020 		orr	r0, r3, r0, lsl #8
 134              		.loc 1 243 0
 135 001c 8846     		mov	r8, r1
 136              		.loc 1 257 0
 137 001e FFF7FEFF 		bl	lwip_ntohs
 138              	.LVL9:
 139 0022 C0F30F30 		ubfx	r0, r0, #12, #16
 140 0026 0428     		cmp	r0, #4
 141 0028 0FD0     		beq	.L14
 142              		.loc 1 260 0
 143 002a 3046     		mov	r0, r6
 144 002c FFF7FEFF 		bl	pbuf_free
 145              		.loc 1 261 0
 146 0030 B4F85C20 		ldrh	r2, [r4, #92]
 147              		.loc 1 262 0
 148 0034 B4F84E30 		ldrh	r3, [r4, #78]
 149              		.loc 1 261 0
 150 0038 0132     		adds	r2, r2, #1
 151              		.loc 1 262 0
 152 003a 0133     		adds	r3, r3, #1
 153              		.loc 1 261 0
 154 003c A4F85C20 		strh	r2, [r4, #92]	@ movhi
 155              		.loc 1 262 0
 156 0040 A4F84E30 		strh	r3, [r4, #78]	@ movhi
 157              	.LVL10:
 158              	.L15:
 159              		.loc 1 544 0
 160 0044 0020     		movs	r0, #0
 161 0046 BDE8F88F 		pop	{r3, r4, r5, r6, r7, r8, r9, sl, fp, pc}
 162              	.L14:
 163              		.loc 1 268 0
 164 004a 2B78     		ldrb	r3, [r5, #0]	@ zero_extendqisi2
 165 004c 6878     		ldrb	r0, [r5, #1]	@ zero_extendqisi2
 166 004e 43EA0020 		orr	r0, r3, r0, lsl #8
 167 0052 FFF7FEFF 		bl	lwip_ntohs
 168              		.loc 1 272 0
 169 0056 AB78     		ldrb	r3, [r5, #2]	@ zero_extendqisi2
 170 0058 EA78     		ldrb	r2, [r5, #3]	@ zero_extendqisi2
 171              		.loc 1 268 0
ARM GAS  /var/folders/5n/p_75w94d66l9ssrldxqdhh700000gn/T//ccWYmooo.s 			page 4


 172 005a C0F30329 		ubfx	r9, r0, #8, #4
 173              	.LVL11:
 174              		.loc 1 272 0
 175 005e 43EA0220 		orr	r0, r3, r2, lsl #8
 176 0062 FFF7FEFF 		bl	lwip_ntohs
 177              		.loc 1 275 0
 178 0066 7389     		ldrh	r3, [r6, #10]
 179              		.loc 1 270 0
 180 0068 4FEA8909 		lsl	r9, r9, #2
 181              	.LVL12:
 182              		.loc 1 275 0
 183 006c 4B45     		cmp	r3, r9
 184              		.loc 1 272 0
 185 006e 0746     		mov	r7, r0
 186              	.LVL13:
 187              		.loc 1 275 0
 188 0070 02D3     		bcc	.L16
 189              		.loc 1 275 0 is_stmt 0 discriminator 1
 190 0072 3389     		ldrh	r3, [r6, #8]
 191 0074 8342     		cmp	r3, r0
 192 0076 0FD2     		bcs	.L17
 193              	.L16:
 194              		.loc 1 287 0 is_stmt 1
 195 0078 3046     		mov	r0, r6
 196              	.LVL14:
 197 007a FFF7FEFF 		bl	pbuf_free
 198              		.loc 1 288 0
 199 007e B4F85220 		ldrh	r2, [r4, #82]
 200              		.loc 1 289 0
 201 0082 B4F84E30 		ldrh	r3, [r4, #78]
 202              		.loc 1 288 0
 203 0086 0132     		adds	r2, r2, #1
 204              		.loc 1 289 0
 205 0088 0133     		adds	r3, r3, #1
 206              		.loc 1 288 0
 207 008a A4F85220 		strh	r2, [r4, #82]	@ movhi
 208              		.loc 1 289 0
 209 008e A4F84E30 		strh	r3, [r4, #78]	@ movhi
 210              		.loc 1 544 0
 211 0092 0020     		movs	r0, #0
 212 0094 BDE8F88F 		pop	{r3, r4, r5, r6, r7, r8, r9, sl, fp, pc}
 213              	.L17:
 214              		.loc 1 296 0
 215 0098 2846     		mov	r0, r5
 216 009a 4946     		mov	r1, r9
 217 009c FFF7FEFF 		bl	inet_chksum
 218 00a0 0028     		cmp	r0, #0
 219 00a2 40F0A980 		bne	.L37
 220              		.loc 1 311 0
 221 00a6 3946     		mov	r1, r7
 222 00a8 3046     		mov	r0, r6
 223 00aa FFF7FEFF 		bl	pbuf_realloc
 224              		.loc 1 314 0
 225 00ae 687C     		ldrb	r0, [r5, #17]	@ zero_extendqisi2
 226 00b0 2B7C     		ldrb	r3, [r5, #16]	@ zero_extendqisi2
 227 00b2 A97C     		ldrb	r1, [r5, #18]	@ zero_extendqisi2
 228 00b4 EA7C     		ldrb	r2, [r5, #19]	@ zero_extendqisi2
ARM GAS  /var/folders/5n/p_75w94d66l9ssrldxqdhh700000gn/T//ccWYmooo.s 			page 5


 229 00b6 DFF890B1 		ldr	fp, .L40+12
 230              	.LBB2:
 231              		.loc 1 365 0
 232 00ba DFF890A1 		ldr	sl, .L40+16
 233              	.LBE2:
 234              		.loc 1 314 0
 235 00be 43EA0023 		orr	r3, r3, r0, lsl #8
 236 00c2 43EA0143 		orr	r3, r3, r1, lsl #16
 237 00c6 43EA0263 		orr	r3, r3, r2, lsl #24
 238 00ca CBF80030 		str	r3, [fp, #0]
 239              		.loc 1 315 0
 240 00ce 2B7B     		ldrb	r3, [r5, #12]	@ zero_extendqisi2
 241 00d0 687B     		ldrb	r0, [r5, #13]	@ zero_extendqisi2
 242 00d2 A97B     		ldrb	r1, [r5, #14]	@ zero_extendqisi2
 243 00d4 EA7B     		ldrb	r2, [r5, #15]	@ zero_extendqisi2
 244 00d6 43EA0023 		orr	r3, r3, r0, lsl #8
 245 00da 43EA0143 		orr	r3, r3, r1, lsl #16
 246 00de 43EA0263 		orr	r3, r3, r2, lsl #24
 247 00e2 40F20002 		movw	r2, #:lower16:.LANCHOR1
 248 00e6 C0F20002 		movt	r2, #:upper16:.LANCHOR1
 249 00ea 4746     		mov	r7, r8
 250              	.LVL15:
 251 00ec 1360     		str	r3, [r2, #0]
 252              	.LVL16:
 253              		.loc 1 331 0
 254 00ee 4FF00109 		mov	r9, #1
 255              	.LVL17:
 256              	.L24:
 257              	.LBB3:
 258              		.loc 1 341 0
 259 00f2 97F82930 		ldrb	r3, [r7, #41]	@ zero_extendqisi2
 260 00f6 D807     		lsls	r0, r3, #31
 261 00f8 09D5     		bpl	.L19
 262              		.loc 1 341 0 is_stmt 0 discriminator 1
 263 00fa 7B68     		ldr	r3, [r7, #4]
 264 00fc 3BB1     		cbz	r3, .L19
 265              		.loc 1 343 0 is_stmt 1
 266 00fe DBF80000 		ldr	r0, [fp, #0]
 267 0102 8342     		cmp	r3, r0
 268 0104 0FD0     		beq	.L20
 269              		.loc 1 345 0 discriminator 1
 270 0106 3946     		mov	r1, r7
 271 0108 FFF7FEFF 		bl	ip4_addr_isbroadcast
 272              		.loc 1 343 0 discriminator 1
 273 010c 58B9     		cbnz	r0, .L20
 274              	.L19:
 275              		.loc 1 363 0
 276 010e B9F1000F 		cmp	r9, #0
 277 0112 66D0     		beq	.L21
 278              	.LVL18:
 279              		.loc 1 365 0
 280 0114 DAF80070 		ldr	r7, [sl, #0]
 281              	.LVL19:
 282              	.L22:
 283              		.loc 1 369 0
 284 0118 4745     		cmp	r7, r8
 285              		.loc 1 370 0
ARM GAS  /var/folders/5n/p_75w94d66l9ssrldxqdhh700000gn/T//ccWYmooo.s 			page 6


 286 011a 08BF     		it	eq
 287 011c 3F68     		ldreq	r7, [r7, #0]
 288              	.LVL20:
 289              		.loc 1 372 0
 290 011e 17B1     		cbz	r7, .L20
 291 0120 4FF00009 		mov	r9, #0
 292 0124 E5E7     		b	.L24
 293              	.LVL21:
 294              	.L20:
 295              	.LBE3:
 296              		.loc 1 405 0
 297 0126 40F20003 		movw	r3, #:lower16:.LANCHOR1
 298 012a C0F20003 		movt	r3, #:upper16:.LANCHOR1
 299 012e 4146     		mov	r1, r8
 300 0130 1868     		ldr	r0, [r3, #0]
 301 0132 FFF7FEFF 		bl	ip4_addr_isbroadcast
 302 0136 0028     		cmp	r0, #0
 303 0138 55D1     		bne	.L25
 304              		.loc 1 406 0 discriminator 1
 305 013a 414B     		ldr	r3, .L40+4
 306 013c 1B68     		ldr	r3, [r3, #0]
 307 013e 03F0F003 		and	r3, r3, #240
 308              		.loc 1 405 0 discriminator 1
 309 0142 E02B     		cmp	r3, #224
 310 0144 4FD0     		beq	.L25
 311              		.loc 1 419 0
 312 0146 002F     		cmp	r7, #0
 313 0148 73D0     		beq	.L38
 314              		.loc 1 437 0
 315 014a AA79     		ldrb	r2, [r5, #6]	@ zero_extendqisi2
 316 014c E979     		ldrb	r1, [r5, #7]	@ zero_extendqisi2
 317 014e 4FF63F73 		movw	r3, #65343
 318 0152 42EA0122 		orr	r2, r2, r1, lsl #8
 319 0156 1340     		ands	r3, r3, r2
 320 0158 3BB1     		cbz	r3, .L28
 321              		.loc 1 442 0
 322 015a 3046     		mov	r0, r6
 323 015c FFF7FEFF 		bl	ip_reass
 324              	.LVL22:
 325              		.loc 1 444 0
 326 0160 0646     		mov	r6, r0
 327 0162 0028     		cmp	r0, #0
 328 0164 3FF46EAF 		beq	.L15
 329              		.loc 1 447 0
 330 0168 4568     		ldr	r5, [r0, #4]
 331              	.LVL23:
 332              	.L28:
 333              		.loc 1 483 0
 334 016a DFF8E490 		ldr	r9, .L40+20
 335              		.loc 1 484 0
 336 016e 354F     		ldr	r7, .L40+8
 337              	.LVL24:
 338              		.loc 1 483 0
 339 0170 C9F80080 		str	r8, [r9, #0]
 340              		.loc 1 488 0
 341 0174 3046     		mov	r0, r6
 342 0176 4146     		mov	r1, r8
ARM GAS  /var/folders/5n/p_75w94d66l9ssrldxqdhh700000gn/T//ccWYmooo.s 			page 7


 343              		.loc 1 484 0
 344 0178 3D60     		str	r5, [r7, #0]
 345              		.loc 1 488 0
 346 017a FFF7FEFF 		bl	raw_input
 347 017e 20BB     		cbnz	r0, .L29
 348              		.loc 1 492 0
 349 0180 6B7A     		ldrb	r3, [r5, #9]	@ zero_extendqisi2
 350 0182 062B     		cmp	r3, #6
 351 0184 4BD0     		beq	.L32
 352 0186 112B     		cmp	r3, #17
 353 0188 44D0     		beq	.L33
 354 018a 012B     		cmp	r3, #1
 355 018c 4CD0     		beq	.L39
 356              		.loc 1 522 0
 357 018e DBF80000 		ldr	r0, [fp, #0]
 358 0192 4146     		mov	r1, r8
 359 0194 FFF7FEFF 		bl	ip4_addr_isbroadcast
 360 0198 50B9     		cbnz	r0, .L34
 361              		.loc 1 523 0 discriminator 1
 362 019a 2B4B     		ldr	r3, .L40+12
 363 019c 1B68     		ldr	r3, [r3, #0]
 364 019e 03F0F003 		and	r3, r3, #240
 365              		.loc 1 522 0 discriminator 1
 366 01a2 E02B     		cmp	r3, #224
 367 01a4 04D0     		beq	.L34
 368              		.loc 1 524 0
 369 01a6 7560     		str	r5, [r6, #4]
 370              		.loc 1 525 0
 371 01a8 3046     		mov	r0, r6
 372 01aa 0221     		movs	r1, #2
 373 01ac FFF7FEFF 		bl	icmp_dest_unreach
 374              	.L34:
 375              		.loc 1 528 0
 376 01b0 3046     		mov	r0, r6
 377 01b2 FFF7FEFF 		bl	pbuf_free
 378              		.loc 1 532 0
 379 01b6 B4F85820 		ldrh	r2, [r4, #88]
 380              		.loc 1 533 0
 381 01ba B4F84E30 		ldrh	r3, [r4, #78]
 382              		.loc 1 532 0
 383 01be 0132     		adds	r2, r2, #1
 384              		.loc 1 533 0
 385 01c0 0133     		adds	r3, r3, #1
 386              		.loc 1 532 0
 387 01c2 A4F85820 		strh	r2, [r4, #88]	@ movhi
 388              		.loc 1 533 0
 389 01c6 A4F84E30 		strh	r3, [r4, #78]	@ movhi
 390              	.L29:
 391              		.loc 1 540 0
 392 01ca 40F20002 		movw	r2, #:lower16:.LANCHOR1
 393 01ce C0F20002 		movt	r2, #:upper16:.LANCHOR1
 394              		.loc 1 538 0
 395 01d2 0023     		movs	r3, #0
 396 01d4 C9F80030 		str	r3, [r9, #0]
 397              		.loc 1 539 0
 398 01d8 3B60     		str	r3, [r7, #0]
 399              		.loc 1 540 0
ARM GAS  /var/folders/5n/p_75w94d66l9ssrldxqdhh700000gn/T//ccWYmooo.s 			page 8


 400 01da 1360     		str	r3, [r2, #0]
 401              		.loc 1 541 0
 402 01dc CBF80030 		str	r3, [fp, #0]
 403              		.loc 1 543 0
 404 01e0 30E7     		b	.L15
 405              	.LVL25:
 406              	.L21:
 407              	.LBB4:
 408              		.loc 1 367 0
 409 01e2 3F68     		ldr	r7, [r7, #0]
 410              	.LVL26:
 411 01e4 98E7     		b	.L22
 412              	.LVL27:
 413              	.L25:
 414              	.LBE4:
 415              		.loc 1 410 0
 416 01e6 3046     		mov	r0, r6
 417 01e8 FFF7FEFF 		bl	pbuf_free
 418              		.loc 1 411 0
 419 01ec B4F84E30 		ldrh	r3, [r4, #78]
 420 01f0 0133     		adds	r3, r3, #1
 421 01f2 A4F84E30 		strh	r3, [r4, #78]	@ movhi
 422              		.loc 1 414 0
 423 01f6 25E7     		b	.L15
 424              	.LVL28:
 425              	.L37:
 426              		.loc 1 301 0
 427 01f8 3046     		mov	r0, r6
 428 01fa FFF7FEFF 		bl	pbuf_free
 429              		.loc 1 302 0
 430 01fe B4F85020 		ldrh	r2, [r4, #80]
 431              		.loc 1 303 0
 432 0202 B4F84E30 		ldrh	r3, [r4, #78]
 433              		.loc 1 302 0
 434 0206 0132     		adds	r2, r2, #1
 435              		.loc 1 303 0
 436 0208 0133     		adds	r3, r3, #1
 437              		.loc 1 302 0
 438 020a A4F85020 		strh	r2, [r4, #80]	@ movhi
 439              		.loc 1 303 0
 440 020e A4F84E30 		strh	r3, [r4, #78]	@ movhi
 441              		.loc 1 305 0
 442 0212 17E7     		b	.L15
 443              	.LVL29:
 444              	.L33:
 445              		.loc 1 499 0
 446 0214 3046     		mov	r0, r6
 447 0216 4146     		mov	r1, r8
 448 0218 FFF7FEFF 		bl	udp_input
 449              		.loc 1 500 0
 450 021c D5E7     		b	.L29
 451              	.L32:
 452              		.loc 1 505 0
 453 021e 3046     		mov	r0, r6
 454 0220 4146     		mov	r1, r8
 455 0222 FFF7FEFF 		bl	tcp_input
 456              		.loc 1 506 0
ARM GAS  /var/folders/5n/p_75w94d66l9ssrldxqdhh700000gn/T//ccWYmooo.s 			page 9


 457 0226 D0E7     		b	.L29
 458              	.L39:
 459              		.loc 1 511 0
 460 0228 3046     		mov	r0, r6
 461 022a 4146     		mov	r1, r8
 462 022c FFF7FEFF 		bl	icmp_input
 463              		.loc 1 512 0
 464 0230 CBE7     		b	.L29
 465              	.LVL30:
 466              	.L38:
 467              		.loc 1 433 0
 468 0232 3046     		mov	r0, r6
 469 0234 FFF7FEFF 		bl	pbuf_free
 470              		.loc 1 434 0
 471 0238 04E7     		b	.L15
 472              	.L41:
 473 023a 00BF     		.align	2
 474              	.L40:
 475 023c 00000000 		.word	lwip_stats
 476 0240 00000000 		.word	.LANCHOR1
 477 0244 00000000 		.word	.LANCHOR3
 478 0248 00000000 		.word	.LANCHOR0
 479 024c 00000000 		.word	netif_list
 480 0250 00000000 		.word	.LANCHOR2
 481              		.cfi_endproc
 482              	.LFE8:
 483              		.size	ip_input, .-ip_input
 484 0254 AFF30080 		.section	.text.ip_output_if,"ax",%progbits
 484      AFF30080 
 484      AFF30080 
 485              		.align	2
 486              		.p2align 4,,15
 487              		.global	ip_output_if
 488              		.thumb
 489              		.thumb_func
 490              		.type	ip_output_if, %function
 491              	ip_output_if:
 492              	.LFB9:
 493              		.loc 1 575 0
 494              		.cfi_startproc
 495              		@ args = 12, pretend = 0, frame = 24
 496              		@ frame_needed = 0, uses_anonymous_args = 0
 497              	.LVL31:
 498 0000 2DE9F04F 		push	{r4, r5, r6, r7, r8, r9, sl, fp, lr}
 499              	.LCFI2:
 500              		.cfi_def_cfa_offset 36
 501              		.cfi_offset 14, -4
 502              		.cfi_offset 11, -8
 503              		.cfi_offset 10, -12
 504              		.cfi_offset 9, -16
 505              		.cfi_offset 8, -20
 506              		.cfi_offset 7, -24
 507              		.cfi_offset 6, -28
 508              		.cfi_offset 5, -32
 509              		.cfi_offset 4, -36
 510 0004 87B0     		sub	sp, sp, #28
 511              	.LCFI3:
ARM GAS  /var/folders/5n/p_75w94d66l9ssrldxqdhh700000gn/T//ccWYmooo.s 			page 10


 512              		.cfi_def_cfa_offset 64
 513              		.loc 1 575 0
 514 0006 0446     		mov	r4, r0
 515 0008 0391     		str	r1, [sp, #12]
 516              		.loc 1 599 0
 517 000a C189     		ldrh	r1, [r0, #14]
 518              	.LVL32:
 519              		.loc 1 575 0
 520 000c 9DF84460 		ldrb	r6, [sp, #68]	@ zero_extendqisi2
 521 0010 129D     		ldr	r5, [sp, #72]
 522              		.loc 1 599 0
 523 0012 0129     		cmp	r1, #1
 524              		.loc 1 575 0
 525 0014 1746     		mov	r7, r2
 526 0016 9846     		mov	r8, r3
 527              		.loc 1 599 0
 528 0018 01D0     		beq	.L43
 529              		.loc 1 599 0 is_stmt 0 discriminator 1
 530 001a FFF7FEFF 		bl	port_halt
 531              	.LVL33:
 532              	.L43:
 533              		.loc 1 604 0 is_stmt 1
 534 001e 002F     		cmp	r7, #0
 535 0020 00F09280 		beq	.L44
 536              	.LVL34:
 537              	.LBB5:
 538              		.loc 1 635 0
 539 0024 2046     		mov	r0, r4
 540 0026 1421     		movs	r1, #20
 541 0028 FFF7FEFF 		bl	pbuf_header
 542 002c 0028     		cmp	r0, #0
 543 002e 40F0A380 		bne	.L53
 544              		.loc 1 644 0
 545 0032 6389     		ldrh	r3, [r4, #10]
 546              		.loc 1 643 0
 547 0034 D4F80490 		ldr	r9, [r4, #4]
 548              	.LVL35:
 549              		.loc 1 644 0
 550 0038 132B     		cmp	r3, #19
 551 003a 40F29480 		bls	.L54
 552              	.LVL36:
 553              	.L47:
 554              		.loc 1 648 0
 555 003e 89F80960 		strb	r6, [r9, #9]
 556              		.loc 1 647 0
 557 0042 89F80880 		strb	r8, [r9, #8]
 558              		.loc 1 654 0
 559 0046 3968     		ldr	r1, [r7, #0]
 560              		.loc 1 669 0
 561 0048 4F4B     		ldr	r3, .L56
 562              		.loc 1 654 0
 563 004a 89F81010 		strb	r1, [r9, #16]
 564 004e 0A0C     		lsrs	r2, r1, #16
 565 0050 C1F3072E 		ubfx	lr, r1, #8, #8
 566 0054 080E     		lsrs	r0, r1, #24
 567 0056 89F81220 		strb	r2, [r9, #18]
 568 005a 89F811E0 		strb	lr, [r9, #17]
ARM GAS  /var/folders/5n/p_75w94d66l9ssrldxqdhh700000gn/T//ccWYmooo.s 			page 11


 569 005e 89F81300 		strb	r0, [r9, #19]
 570              		.loc 1 660 0
 571 0062 9DF84000 		ldrb	r0, [sp, #64]	@ zero_extendqisi2
 572 0066 0192     		str	r2, [sp, #4]
 573              		.loc 1 656 0
 574 0068 89B2     		uxth	r1, r1
 575              		.loc 1 660 0
 576 006a 40F48A40 		orr	r0, r0, #17664
 577 006e 0291     		str	r1, [sp, #8]
 578 0070 0093     		str	r3, [sp, #0]
 579 0072 FFF7FEFF 		bl	lwip_htons
 580 0076 8346     		mov	fp, r0
 581 0078 C0F30F20 		ubfx	r0, r0, #8, #16
 582 007c 89F800B0 		strb	fp, [r9, #0]
 583 0080 89F80100 		strb	r0, [r9, #1]
 584              		.loc 1 664 0
 585 0084 2089     		ldrh	r0, [r4, #8]
 586 0086 FFF7FEFF 		bl	lwip_htons
 587 008a 8246     		mov	sl, r0
 588 008c CAF30F2E 		ubfx	lr, sl, #8, #16
 589              		.loc 1 654 0
 590 0090 0020     		movs	r0, #0
 591              		.loc 1 664 0
 592 0092 89F803E0 		strb	lr, [r9, #3]
 593 0096 89F802A0 		strb	sl, [r9, #2]
 594              		.loc 1 668 0
 595 009a 89F80600 		strb	r0, [r9, #6]
 596 009e 89F80700 		strb	r0, [r9, #7]
 597              		.loc 1 669 0
 598 00a2 009B     		ldr	r3, [sp, #0]
 599 00a4 1888     		ldrh	r0, [r3, #0]
 600 00a6 FFF7FEFF 		bl	lwip_htons
 601 00aa C0F30F2E 		ubfx	lr, r0, #8, #16
 602 00ae 89F80400 		strb	r0, [r9, #4]
 603 00b2 89F805E0 		strb	lr, [r9, #5]
 604              		.loc 1 673 0
 605 00b6 009B     		ldr	r3, [sp, #0]
 606              		.loc 1 675 0
 607 00b8 0299     		ldr	r1, [sp, #8]
 608              		.loc 1 673 0
 609 00ba B3F800E0 		ldrh	lr, [r3, #0]
 610              		.loc 1 675 0
 611 00be 019A     		ldr	r2, [sp, #4]
 612              		.loc 1 673 0
 613 00c0 0EF1010E 		add	lr, lr, #1
 614 00c4 A3F800E0 		strh	lr, [r3, #0]	@ movhi
 615              		.loc 1 675 0
 616 00c8 039B     		ldr	r3, [sp, #12]
 617              		.loc 1 650 0
 618 00ca 48EA0626 		orr	r6, r8, r6, lsl #8
 619              	.LVL37:
 620              		.loc 1 675 0
 621 00ce 002B     		cmp	r3, #0
 622 00d0 38D0     		beq	.L48
 623              		.loc 1 675 0 is_stmt 0 discriminator 1
 624 00d2 1B68     		ldr	r3, [r3, #0]
 625 00d4 002B     		cmp	r3, #0
ARM GAS  /var/folders/5n/p_75w94d66l9ssrldxqdhh700000gn/T//ccWYmooo.s 			page 12


 626 00d6 35D0     		beq	.L48
 627              	.L49:
 628              		.loc 1 656 0 is_stmt 1
 629 00d8 5218     		adds	r2, r2, r1
 630              		.loc 1 657 0
 631 00da 9619     		adds	r6, r2, r6
 632              		.loc 1 662 0
 633 00dc B344     		add	fp, r6, fp
 634              		.loc 1 666 0
 635 00de DA44     		add	sl, fp, sl
 636              		.loc 1 671 0
 637 00e0 5044     		add	r0, sl, r0
 638              		.loc 1 679 0
 639 00e2 4FEA134E 		lsr	lr, r3, #16
 640 00e6 C3F30728 		ubfx	r8, r3, #8, #8
 641 00ea 4FEA136C 		lsr	ip, r3, #24
 642 00ee 89F80C30 		strb	r3, [r9, #12]
 643              		.loc 1 683 0
 644 00f2 10FA83F3 		uxtah	r3, r0, r3
 645              		.loc 1 684 0
 646 00f6 7344     		add	r3, r3, lr
 647              	.LVL38:
 648              		.loc 1 685 0
 649 00f8 9AB2     		uxth	r2, r3
 650 00fa 02EB1343 		add	r3, r2, r3, lsr #16
 651              	.LVL39:
 652              		.loc 1 686 0
 653 00fe 03EB1343 		add	r3, r3, r3, lsr #16
 654              	.LVL40:
 655              		.loc 1 687 0
 656 0102 DB43     		mvns	r3, r3
 657              	.LVL41:
 658              		.loc 1 688 0
 659 0104 9BB2     		uxth	r3, r3
 660              	.LVL42:
 661 0106 1A0A     		lsrs	r2, r3, #8
 662              		.loc 1 679 0
 663 0108 89F80D80 		strb	r8, [r9, #13]
 664 010c 89F80EE0 		strb	lr, [r9, #14]
 665 0110 89F80FC0 		strb	ip, [r9, #15]
 666              		.loc 1 688 0
 667 0114 89F80A30 		strb	r3, [r9, #10]
 668 0118 89F80B20 		strb	r2, [r9, #11]
 669              	.LVL43:
 670              	.L51:
 671              	.LBE5:
 672              		.loc 1 702 0
 673 011c 1B4B     		ldr	r3, .L56+4
 674              		.loc 1 721 0
 675 011e 2A8C     		ldrh	r2, [r5, #32]
 676              		.loc 1 702 0
 677 0120 B3F84810 		ldrh	r1, [r3, #72]
 678 0124 0131     		adds	r1, r1, #1
 679 0126 A3F84810 		strh	r1, [r3, #72]	@ movhi
 680              		.loc 1 721 0
 681 012a 12B1     		cbz	r2, .L52
 682              		.loc 1 721 0 is_stmt 0 discriminator 1
ARM GAS  /var/folders/5n/p_75w94d66l9ssrldxqdhh700000gn/T//ccWYmooo.s 			page 13


 683 012c 2389     		ldrh	r3, [r4, #8]
 684 012e 9342     		cmp	r3, r2
 685 0130 1CD8     		bhi	.L55
 686              	.L52:
 687              		.loc 1 727 0 is_stmt 1
 688 0132 6B69     		ldr	r3, [r5, #20]
 689 0134 2846     		mov	r0, r5
 690 0136 2146     		mov	r1, r4
 691 0138 3A46     		mov	r2, r7
 692 013a 9847     		blx	r3
 693              	.L46:
 694              		.loc 1 728 0
 695 013c 40B2     		sxtb	r0, r0
 696 013e 07B0     		add	sp, sp, #28
 697 0140 BDE8F08F 		pop	{r4, r5, r6, r7, r8, r9, sl, fp, pc}
 698              	.LVL44:
 699              	.L48:
 700              	.LBB6:
 701              		.loc 1 676 0
 702 0144 6B68     		ldr	r3, [r5, #4]
 703 0146 C7E7     		b	.L49
 704              	.LVL45:
 705              	.L44:
 706              	.LBE6:
 707              		.loc 1 698 0
 708 0148 6368     		ldr	r3, [r4, #4]
 709 014a 187C     		ldrb	r0, [r3, #16]	@ zero_extendqisi2
 710 014c 5E7C     		ldrb	r6, [r3, #17]	@ zero_extendqisi2
 711 014e 997C     		ldrb	r1, [r3, #18]	@ zero_extendqisi2
 712 0150 DA7C     		ldrb	r2, [r3, #19]	@ zero_extendqisi2
 713 0152 40EA0623 		orr	r3, r0, r6, lsl #8
 714 0156 43EA0143 		orr	r3, r3, r1, lsl #16
 715 015a 06AF     		add	r7, sp, #24
 716              	.LVL46:
 717 015c 43EA0263 		orr	r3, r3, r2, lsl #24
 718 0160 47F8043D 		str	r3, [r7, #-4]!
 719              	.LVL47:
 720 0164 DAE7     		b	.L51
 721              	.LVL48:
 722              	.L54:
 723              	.LBB7:
 724              		.loc 1 644 0 discriminator 1
 725 0166 FFF7FEFF 		bl	port_halt
 726 016a 68E7     		b	.L47
 727              	.LVL49:
 728              	.L55:
 729              	.LBE7:
 730              		.loc 1 722 0
 731 016c 2046     		mov	r0, r4
 732 016e 2946     		mov	r1, r5
 733 0170 3A46     		mov	r2, r7
 734 0172 FFF7FEFF 		bl	ip_frag
 735 0176 E1E7     		b	.L46
 736              	.LVL50:
 737              	.L53:
 738              	.LBB8:
 739              		.loc 1 638 0
ARM GAS  /var/folders/5n/p_75w94d66l9ssrldxqdhh700000gn/T//ccWYmooo.s 			page 14


 740 0178 044B     		ldr	r3, .L56+4
 741 017a B3F85C20 		ldrh	r2, [r3, #92]
 742 017e 0132     		adds	r2, r2, #1
 743 0180 A3F85C20 		strh	r2, [r3, #92]	@ movhi
 744              		.loc 1 640 0
 745 0184 FE20     		movs	r0, #254
 746 0186 D9E7     		b	.L46
 747              	.L57:
 748              		.align	2
 749              	.L56:
 750 0188 00000000 		.word	.LANCHOR4
 751 018c 00000000 		.word	lwip_stats
 752              	.LBE8:
 753              		.cfi_endproc
 754              	.LFE9:
 755              		.size	ip_output_if, .-ip_output_if
 756              		.section	.text.ip_output,"ax",%progbits
 757              		.align	2
 758              		.p2align 4,,15
 759              		.global	ip_output
 760              		.thumb
 761              		.thumb_func
 762              		.type	ip_output, %function
 763              	ip_output:
 764              	.LFB10:
 765              		.loc 1 750 0
 766              		.cfi_startproc
 767              		@ args = 8, pretend = 0, frame = 0
 768              		@ frame_needed = 0, uses_anonymous_args = 0
 769              	.LVL51:
 770 0000 2DE9F041 		push	{r4, r5, r6, r7, r8, lr}
 771              	.LCFI4:
 772              		.cfi_def_cfa_offset 24
 773              		.cfi_offset 14, -4
 774              		.cfi_offset 8, -8
 775              		.cfi_offset 7, -12
 776              		.cfi_offset 6, -16
 777              		.cfi_offset 5, -20
 778              		.cfi_offset 4, -24
 779 0004 8846     		mov	r8, r1
 780              		.loc 1 755 0
 781 0006 C189     		ldrh	r1, [r0, #14]
 782              	.LVL52:
 783 0008 0129     		cmp	r1, #1
 784              		.loc 1 750 0
 785 000a 84B0     		sub	sp, sp, #16
 786              	.LCFI5:
 787              		.cfi_def_cfa_offset 40
 788              		.loc 1 750 0
 789 000c 0546     		mov	r5, r0
 790 000e 1646     		mov	r6, r2
 791 0010 1F46     		mov	r7, r3
 792              		.loc 1 755 0
 793 0012 01D0     		beq	.L59
 794              		.loc 1 755 0 is_stmt 0 discriminator 1
 795 0014 FFF7FEFF 		bl	port_halt
 796              	.LVL53:
ARM GAS  /var/folders/5n/p_75w94d66l9ssrldxqdhh700000gn/T//ccWYmooo.s 			page 15


 797              	.L59:
 798              		.loc 1 757 0 is_stmt 1
 799 0018 3046     		mov	r0, r6
 800 001a FFF7FEFF 		bl	ip_route
 801              	.LVL54:
 802 001e 0446     		mov	r4, r0
 803 0020 80B1     		cbz	r0, .L62
 804              		.loc 1 764 0
 805 0022 2846     		mov	r0, r5
 806              	.LVL55:
 807 0024 9DF82850 		ldrb	r5, [sp, #40]	@ zero_extendqisi2
 808              	.LVL56:
 809 0028 0294     		str	r4, [sp, #8]
 810 002a 0095     		str	r5, [sp, #0]
 811 002c 9DF82C50 		ldrb	r5, [sp, #44]	@ zero_extendqisi2
 812 0030 4146     		mov	r1, r8
 813 0032 3246     		mov	r2, r6
 814 0034 3B46     		mov	r3, r7
 815 0036 0195     		str	r5, [sp, #4]
 816 0038 FFF7FEFF 		bl	ip_output_if
 817              	.LVL57:
 818              	.L61:
 819              		.loc 1 765 0
 820 003c 40B2     		sxtb	r0, r0
 821 003e 04B0     		add	sp, sp, #16
 822 0040 BDE8F081 		pop	{r4, r5, r6, r7, r8, pc}
 823              	.LVL58:
 824              	.L62:
 825              		.loc 1 760 0
 826 0044 034B     		ldr	r3, .L63
 827 0046 B3F85620 		ldrh	r2, [r3, #86]
 828 004a 0132     		adds	r2, r2, #1
 829 004c A3F85620 		strh	r2, [r3, #86]	@ movhi
 830              		.loc 1 761 0
 831 0050 FC20     		movs	r0, #252
 832 0052 F3E7     		b	.L61
 833              	.L64:
 834              		.align	2
 835              	.L63:
 836 0054 00000000 		.word	lwip_stats
 837              		.cfi_endproc
 838              	.LFE10:
 839              		.size	ip_output, .-ip_output
 840              		.global	current_iphdr_dest
 841              		.global	current_iphdr_src
 842              		.global	current_header
 843              		.global	current_netif
 844              		.section	.bss.current_header,"aw",%nobits
 845              		.align	2
 846              		.set	.LANCHOR3,. + 0
 847              		.type	current_header, %object
 848              		.size	current_header, 4
 849              	current_header:
 850 0000 00000000 		.space	4
 851              		.section	.bss.ip_id,"aw",%nobits
 852              		.align	1
 853              		.set	.LANCHOR4,. + 0
ARM GAS  /var/folders/5n/p_75w94d66l9ssrldxqdhh700000gn/T//ccWYmooo.s 			page 16


 854              		.type	ip_id, %object
 855              		.size	ip_id, 2
 856              	ip_id:
 857 0000 0000     		.space	2
 858              		.section	.bss.current_iphdr_src,"aw",%nobits
 859              		.align	2
 860              		.set	.LANCHOR1,. + 0
 861              		.type	current_iphdr_src, %object
 862              		.size	current_iphdr_src, 4
 863              	current_iphdr_src:
 864 0000 00000000 		.space	4
 865              		.section	.bss.current_iphdr_dest,"aw",%nobits
 866              		.align	2
 867              		.set	.LANCHOR0,. + 0
 868              		.type	current_iphdr_dest, %object
 869              		.size	current_iphdr_dest, 4
 870              	current_iphdr_dest:
 871 0000 00000000 		.space	4
 872              		.section	.bss.current_netif,"aw",%nobits
 873              		.align	2
 874              		.set	.LANCHOR2,. + 0
 875              		.type	current_netif, %object
 876              		.size	current_netif, 4
 877              	current_netif:
 878 0000 00000000 		.space	4
 879              		.text
 880              	.Letext0:
 881              		.file 2 "/usr/local/summon/lib/gcc/arm-none-eabi/4.6.2/../../../../arm-none-eabi/include/stdint.h"
 882              		.file 3 "../../os/various/lwip_bindings/arch/cc.h"
 883              		.file 4 "../../ext/lwip/src/include/lwip/err.h"
 884              		.file 5 "../../ext/lwip/src/include/lwip/pbuf.h"
 885              		.file 6 "../../ext/lwip/src/include/ipv4/lwip/ip_addr.h"
 886              		.file 7 "../../ext/lwip/src/include/lwip/netif.h"
 887              		.file 8 "../../ext/lwip/src/include/ipv4/lwip/ip.h"
 888              		.file 9 "../../ext/lwip/src/include/lwip/mem.h"
 889              		.file 10 "../../ext/lwip/src/include/lwip/stats.h"
 890              		.file 11 "../../ext/lwip/src/include/ipv4/lwip/icmp.h"
 891              		.file 12 "../../ext/lwip/src/include/lwip/memp.h"
 892              		.section	.debug_info,"",%progbits
 893              	.Ldebug_info0:
 894 0000 66090000 		.4byte	0x966
 895 0004 0200     		.2byte	0x2
 896 0006 00000000 		.4byte	.Ldebug_abbrev0
 897 000a 04       		.byte	0x4
 898 000b 01       		.uleb128 0x1
 899 000c FF010000 		.4byte	.LASF117
 900 0010 01       		.byte	0x1
 901 0011 19040000 		.4byte	.LASF118
 902 0015 A2020000 		.4byte	.LASF119
 903 0019 00000000 		.4byte	0
 904 001d 00000000 		.4byte	0
 905 0021 48000000 		.4byte	.Ldebug_ranges0+0x48
 906 0025 00000000 		.4byte	.Ldebug_line0
 907 0029 02       		.uleb128 0x2
 908 002a 04       		.byte	0x4
 909 002b 05       		.byte	0x5
 910 002c 696E7400 		.ascii	"int\000"
ARM GAS  /var/folders/5n/p_75w94d66l9ssrldxqdhh700000gn/T//ccWYmooo.s 			page 17


 911 0030 03       		.uleb128 0x3
 912 0031 04       		.byte	0x4
 913 0032 07       		.byte	0x7
 914 0033 3D000000 		.4byte	.LASF0
 915 0037 04       		.uleb128 0x4
 916 0038 D7000000 		.4byte	.LASF2
 917 003c 02       		.byte	0x2
 918 003d 29       		.byte	0x29
 919 003e 42000000 		.4byte	0x42
 920 0042 03       		.uleb128 0x3
 921 0043 01       		.byte	0x1
 922 0044 06       		.byte	0x6
 923 0045 B7040000 		.4byte	.LASF1
 924 0049 04       		.uleb128 0x4
 925 004a 4D020000 		.4byte	.LASF3
 926 004e 02       		.byte	0x2
 927 004f 2A       		.byte	0x2a
 928 0050 54000000 		.4byte	0x54
 929 0054 03       		.uleb128 0x3
 930 0055 01       		.byte	0x1
 931 0056 08       		.byte	0x8
 932 0057 45040000 		.4byte	.LASF4
 933 005b 03       		.uleb128 0x3
 934 005c 02       		.byte	0x2
 935 005d 05       		.byte	0x5
 936 005e 51030000 		.4byte	.LASF5
 937 0062 04       		.uleb128 0x4
 938 0063 24030000 		.4byte	.LASF6
 939 0067 02       		.byte	0x2
 940 0068 36       		.byte	0x36
 941 0069 6D000000 		.4byte	0x6d
 942 006d 03       		.uleb128 0x3
 943 006e 02       		.byte	0x2
 944 006f 07       		.byte	0x7
 945 0070 CE040000 		.4byte	.LASF7
 946 0074 03       		.uleb128 0x3
 947 0075 04       		.byte	0x4
 948 0076 05       		.byte	0x5
 949 0077 60030000 		.4byte	.LASF8
 950 007b 04       		.uleb128 0x4
 951 007c CE000000 		.4byte	.LASF9
 952 0080 02       		.byte	0x2
 953 0081 50       		.byte	0x50
 954 0082 86000000 		.4byte	0x86
 955 0086 03       		.uleb128 0x3
 956 0087 04       		.byte	0x4
 957 0088 07       		.byte	0x7
 958 0089 FF030000 		.4byte	.LASF10
 959 008d 03       		.uleb128 0x3
 960 008e 08       		.byte	0x8
 961 008f 05       		.byte	0x5
 962 0090 75020000 		.4byte	.LASF11
 963 0094 03       		.uleb128 0x3
 964 0095 08       		.byte	0x8
 965 0096 07       		.byte	0x7
 966 0097 27010000 		.4byte	.LASF12
 967 009b 05       		.uleb128 0x5
ARM GAS  /var/folders/5n/p_75w94d66l9ssrldxqdhh700000gn/T//ccWYmooo.s 			page 18


 968 009c 04       		.byte	0x4
 969 009d 03       		.uleb128 0x3
 970 009e 01       		.byte	0x1
 971 009f 08       		.byte	0x8
 972 00a0 FA010000 		.4byte	.LASF13
 973 00a4 04       		.uleb128 0x4
 974 00a5 95020000 		.4byte	.LASF14
 975 00a9 03       		.byte	0x3
 976 00aa 3C       		.byte	0x3c
 977 00ab 49000000 		.4byte	0x49
 978 00af 04       		.uleb128 0x4
 979 00b0 CF010000 		.4byte	.LASF15
 980 00b4 03       		.byte	0x3
 981 00b5 3D       		.byte	0x3d
 982 00b6 37000000 		.4byte	0x37
 983 00ba 04       		.uleb128 0x4
 984 00bb 6D000000 		.4byte	.LASF16
 985 00bf 03       		.byte	0x3
 986 00c0 3E       		.byte	0x3e
 987 00c1 62000000 		.4byte	0x62
 988 00c5 04       		.uleb128 0x4
 989 00c6 4B030000 		.4byte	.LASF17
 990 00ca 03       		.byte	0x3
 991 00cb 40       		.byte	0x40
 992 00cc 7B000000 		.4byte	0x7b
 993 00d0 04       		.uleb128 0x4
 994 00d1 5C000000 		.4byte	.LASF18
 995 00d5 04       		.byte	0x4
 996 00d6 2F       		.byte	0x2f
 997 00d7 AF000000 		.4byte	0xaf
 998 00db 06       		.uleb128 0x6
 999 00dc C1010000 		.4byte	.LASF24
 1000 00e0 10       		.byte	0x10
 1001 00e1 05       		.byte	0x5
 1002 00e2 49       		.byte	0x49
 1003 00e3 4A010000 		.4byte	0x14a
 1004 00e7 07       		.uleb128 0x7
 1005 00e8 4A000000 		.4byte	.LASF19
 1006 00ec 05       		.byte	0x5
 1007 00ed 4B       		.byte	0x4b
 1008 00ee 4A010000 		.4byte	0x14a
 1009 00f2 02       		.byte	0x2
 1010 00f3 23       		.byte	0x23
 1011 00f4 00       		.uleb128 0
 1012 00f5 07       		.uleb128 0x7
 1013 00f6 B2010000 		.4byte	.LASF20
 1014 00fa 05       		.byte	0x5
 1015 00fb 4E       		.byte	0x4e
 1016 00fc 9B000000 		.4byte	0x9b
 1017 0100 02       		.byte	0x2
 1018 0101 23       		.byte	0x23
 1019 0102 04       		.uleb128 0x4
 1020 0103 07       		.uleb128 0x7
 1021 0104 AA010000 		.4byte	.LASF21
 1022 0108 05       		.byte	0x5
 1023 0109 57       		.byte	0x57
 1024 010a BA000000 		.4byte	0xba
ARM GAS  /var/folders/5n/p_75w94d66l9ssrldxqdhh700000gn/T//ccWYmooo.s 			page 19


 1025 010e 02       		.byte	0x2
 1026 010f 23       		.byte	0x23
 1027 0110 08       		.uleb128 0x8
 1028 0111 08       		.uleb128 0x8
 1029 0112 6C656E00 		.ascii	"len\000"
 1030 0116 05       		.byte	0x5
 1031 0117 5A       		.byte	0x5a
 1032 0118 BA000000 		.4byte	0xba
 1033 011c 02       		.byte	0x2
 1034 011d 23       		.byte	0x23
 1035 011e 0A       		.uleb128 0xa
 1036 011f 07       		.uleb128 0x7
 1037 0120 55020000 		.4byte	.LASF22
 1038 0124 05       		.byte	0x5
 1039 0125 5D       		.byte	0x5d
 1040 0126 A4000000 		.4byte	0xa4
 1041 012a 02       		.byte	0x2
 1042 012b 23       		.byte	0x23
 1043 012c 0C       		.uleb128 0xc
 1044 012d 07       		.uleb128 0x7
 1045 012e 28000000 		.4byte	.LASF23
 1046 0132 05       		.byte	0x5
 1047 0133 60       		.byte	0x60
 1048 0134 A4000000 		.4byte	0xa4
 1049 0138 02       		.byte	0x2
 1050 0139 23       		.byte	0x23
 1051 013a 0D       		.uleb128 0xd
 1052 013b 08       		.uleb128 0x8
 1053 013c 72656600 		.ascii	"ref\000"
 1054 0140 05       		.byte	0x5
 1055 0141 67       		.byte	0x67
 1056 0142 BA000000 		.4byte	0xba
 1057 0146 02       		.byte	0x2
 1058 0147 23       		.byte	0x23
 1059 0148 0E       		.uleb128 0xe
 1060 0149 00       		.byte	0
 1061 014a 09       		.uleb128 0x9
 1062 014b 04       		.byte	0x4
 1063 014c DB000000 		.4byte	0xdb
 1064 0150 06       		.uleb128 0x6
 1065 0151 2A050000 		.4byte	.LASF25
 1066 0155 04       		.byte	0x4
 1067 0156 06       		.byte	0x6
 1068 0157 2C       		.byte	0x2c
 1069 0158 6B010000 		.4byte	0x16b
 1070 015c 07       		.uleb128 0x7
 1071 015d 88040000 		.4byte	.LASF26
 1072 0161 06       		.byte	0x6
 1073 0162 2D       		.byte	0x2d
 1074 0163 C5000000 		.4byte	0xc5
 1075 0167 02       		.byte	0x2
 1076 0168 23       		.byte	0x23
 1077 0169 00       		.uleb128 0
 1078 016a 00       		.byte	0
 1079 016b 06       		.uleb128 0x6
 1080 016c 38020000 		.4byte	.LASF27
 1081 0170 04       		.byte	0x4
ARM GAS  /var/folders/5n/p_75w94d66l9ssrldxqdhh700000gn/T//ccWYmooo.s 			page 20


 1082 0171 06       		.byte	0x6
 1083 0172 36       		.byte	0x36
 1084 0173 86010000 		.4byte	0x186
 1085 0177 07       		.uleb128 0x7
 1086 0178 88040000 		.4byte	.LASF26
 1087 017c 06       		.byte	0x6
 1088 017d 37       		.byte	0x37
 1089 017e C5000000 		.4byte	0xc5
 1090 0182 02       		.byte	0x2
 1091 0183 23       		.byte	0x23
 1092 0184 00       		.uleb128 0
 1093 0185 00       		.byte	0
 1094 0186 04       		.uleb128 0x4
 1095 0187 FE040000 		.4byte	.LASF28
 1096 018b 06       		.byte	0x6
 1097 018c 40       		.byte	0x40
 1098 018d 50010000 		.4byte	0x150
 1099 0191 04       		.uleb128 0x4
 1100 0192 67040000 		.4byte	.LASF29
 1101 0196 06       		.byte	0x6
 1102 0197 41       		.byte	0x41
 1103 0198 6B010000 		.4byte	0x16b
 1104 019c 09       		.uleb128 0x9
 1105 019d 04       		.byte	0x4
 1106 019e A2010000 		.4byte	0x1a2
 1107 01a2 06       		.uleb128 0x6
 1108 01a3 A6040000 		.4byte	.LASF30
 1109 01a7 30       		.byte	0x30
 1110 01a8 07       		.byte	0x7
 1111 01a9 88       		.byte	0x88
 1112 01aa 72020000 		.4byte	0x272
 1113 01ae 07       		.uleb128 0x7
 1114 01af 4A000000 		.4byte	.LASF19
 1115 01b3 07       		.byte	0x7
 1116 01b4 8A       		.byte	0x8a
 1117 01b5 9C010000 		.4byte	0x19c
 1118 01b9 02       		.byte	0x2
 1119 01ba 23       		.byte	0x23
 1120 01bb 00       		.uleb128 0
 1121 01bc 07       		.uleb128 0x7
 1122 01bd 2A050000 		.4byte	.LASF25
 1123 01c1 07       		.byte	0x7
 1124 01c2 8D       		.byte	0x8d
 1125 01c3 86010000 		.4byte	0x186
 1126 01c7 02       		.byte	0x2
 1127 01c8 23       		.byte	0x23
 1128 01c9 04       		.uleb128 0x4
 1129 01ca 07       		.uleb128 0x7
 1130 01cb 6D020000 		.4byte	.LASF31
 1131 01cf 07       		.byte	0x7
 1132 01d0 8E       		.byte	0x8e
 1133 01d1 86010000 		.4byte	0x186
 1134 01d5 02       		.byte	0x2
 1135 01d6 23       		.byte	0x23
 1136 01d7 08       		.uleb128 0x8
 1137 01d8 08       		.uleb128 0x8
 1138 01d9 677700   		.ascii	"gw\000"
ARM GAS  /var/folders/5n/p_75w94d66l9ssrldxqdhh700000gn/T//ccWYmooo.s 			page 21


 1139 01dc 07       		.byte	0x7
 1140 01dd 8F       		.byte	0x8f
 1141 01de 86010000 		.4byte	0x186
 1142 01e2 02       		.byte	0x2
 1143 01e3 23       		.byte	0x23
 1144 01e4 0C       		.uleb128 0xc
 1145 01e5 07       		.uleb128 0x7
 1146 01e6 22000000 		.4byte	.LASF32
 1147 01ea 07       		.byte	0x7
 1148 01eb 93       		.byte	0x93
 1149 01ec 72020000 		.4byte	0x272
 1150 01f0 02       		.byte	0x2
 1151 01f1 23       		.byte	0x23
 1152 01f2 10       		.uleb128 0x10
 1153 01f3 07       		.uleb128 0x7
 1154 01f4 BA010000 		.4byte	.LASF33
 1155 01f8 07       		.byte	0x7
 1156 01f9 97       		.byte	0x97
 1157 01fa 98020000 		.4byte	0x298
 1158 01fe 02       		.byte	0x2
 1159 01ff 23       		.byte	0x23
 1160 0200 14       		.uleb128 0x14
 1161 0201 07       		.uleb128 0x7
 1162 0202 62000000 		.4byte	.LASF34
 1163 0206 07       		.byte	0x7
 1164 0207 9B       		.byte	0x9b
 1165 0208 C9020000 		.4byte	0x2c9
 1166 020c 02       		.byte	0x2
 1167 020d 23       		.byte	0x23
 1168 020e 18       		.uleb128 0x18
 1169 020f 07       		.uleb128 0x7
 1170 0210 A0040000 		.4byte	.LASF35
 1171 0214 07       		.byte	0x7
 1172 0215 A8       		.byte	0xa8
 1173 0216 9B000000 		.4byte	0x9b
 1174 021a 02       		.byte	0x2
 1175 021b 23       		.byte	0x23
 1176 021c 1C       		.uleb128 0x1c
 1177 021d 08       		.uleb128 0x8
 1178 021e 6D747500 		.ascii	"mtu\000"
 1179 0222 07       		.byte	0x7
 1180 0223 B6       		.byte	0xb6
 1181 0224 BA000000 		.4byte	0xba
 1182 0228 02       		.byte	0x2
 1183 0229 23       		.byte	0x23
 1184 022a 20       		.uleb128 0x20
 1185 022b 07       		.uleb128 0x7
 1186 022c 60010000 		.4byte	.LASF36
 1187 0230 07       		.byte	0x7
 1188 0231 B8       		.byte	0xb8
 1189 0232 A4000000 		.4byte	0xa4
 1190 0236 02       		.byte	0x2
 1191 0237 23       		.byte	0x23
 1192 0238 22       		.uleb128 0x22
 1193 0239 07       		.uleb128 0x7
 1194 023a 19010000 		.4byte	.LASF37
 1195 023e 07       		.byte	0x7
ARM GAS  /var/folders/5n/p_75w94d66l9ssrldxqdhh700000gn/T//ccWYmooo.s 			page 22


 1196 023f BA       		.byte	0xba
 1197 0240 EF020000 		.4byte	0x2ef
 1198 0244 02       		.byte	0x2
 1199 0245 23       		.byte	0x23
 1200 0246 23       		.uleb128 0x23
 1201 0247 07       		.uleb128 0x7
 1202 0248 28000000 		.4byte	.LASF23
 1203 024c 07       		.byte	0x7
 1204 024d BC       		.byte	0xbc
 1205 024e A4000000 		.4byte	0xa4
 1206 0252 02       		.byte	0x2
 1207 0253 23       		.byte	0x23
 1208 0254 29       		.uleb128 0x29
 1209 0255 07       		.uleb128 0x7
 1210 0256 B5030000 		.4byte	.LASF38
 1211 025a 07       		.byte	0x7
 1212 025b BE       		.byte	0xbe
 1213 025c FF020000 		.4byte	0x2ff
 1214 0260 02       		.byte	0x2
 1215 0261 23       		.byte	0x23
 1216 0262 2A       		.uleb128 0x2a
 1217 0263 08       		.uleb128 0x8
 1218 0264 6E756D00 		.ascii	"num\000"
 1219 0268 07       		.byte	0x7
 1220 0269 C0       		.byte	0xc0
 1221 026a A4000000 		.4byte	0xa4
 1222 026e 02       		.byte	0x2
 1223 026f 23       		.byte	0x23
 1224 0270 2C       		.uleb128 0x2c
 1225 0271 00       		.byte	0
 1226 0272 04       		.uleb128 0x4
 1227 0273 BF000000 		.4byte	.LASF39
 1228 0277 07       		.byte	0x7
 1229 0278 6D       		.byte	0x6d
 1230 0279 7D020000 		.4byte	0x27d
 1231 027d 09       		.uleb128 0x9
 1232 027e 04       		.byte	0x4
 1233 027f 83020000 		.4byte	0x283
 1234 0283 0A       		.uleb128 0xa
 1235 0284 01       		.byte	0x1
 1236 0285 D0000000 		.4byte	0xd0
 1237 0289 98020000 		.4byte	0x298
 1238 028d 0B       		.uleb128 0xb
 1239 028e 4A010000 		.4byte	0x14a
 1240 0292 0B       		.uleb128 0xb
 1241 0293 9C010000 		.4byte	0x19c
 1242 0297 00       		.byte	0
 1243 0298 04       		.uleb128 0x4
 1244 0299 87000000 		.4byte	.LASF40
 1245 029d 07       		.byte	0x7
 1246 029e 76       		.byte	0x76
 1247 029f A3020000 		.4byte	0x2a3
 1248 02a3 09       		.uleb128 0x9
 1249 02a4 04       		.byte	0x4
 1250 02a5 A9020000 		.4byte	0x2a9
 1251 02a9 0A       		.uleb128 0xa
 1252 02aa 01       		.byte	0x1
ARM GAS  /var/folders/5n/p_75w94d66l9ssrldxqdhh700000gn/T//ccWYmooo.s 			page 23


 1253 02ab D0000000 		.4byte	0xd0
 1254 02af C3020000 		.4byte	0x2c3
 1255 02b3 0B       		.uleb128 0xb
 1256 02b4 9C010000 		.4byte	0x19c
 1257 02b8 0B       		.uleb128 0xb
 1258 02b9 4A010000 		.4byte	0x14a
 1259 02bd 0B       		.uleb128 0xb
 1260 02be C3020000 		.4byte	0x2c3
 1261 02c2 00       		.byte	0
 1262 02c3 09       		.uleb128 0x9
 1263 02c4 04       		.byte	0x4
 1264 02c5 86010000 		.4byte	0x186
 1265 02c9 04       		.uleb128 0x4
 1266 02ca BA030000 		.4byte	.LASF41
 1267 02ce 07       		.byte	0x7
 1268 02cf 7E       		.byte	0x7e
 1269 02d0 D4020000 		.4byte	0x2d4
 1270 02d4 09       		.uleb128 0x9
 1271 02d5 04       		.byte	0x4
 1272 02d6 DA020000 		.4byte	0x2da
 1273 02da 0A       		.uleb128 0xa
 1274 02db 01       		.byte	0x1
 1275 02dc D0000000 		.4byte	0xd0
 1276 02e0 EF020000 		.4byte	0x2ef
 1277 02e4 0B       		.uleb128 0xb
 1278 02e5 9C010000 		.4byte	0x19c
 1279 02e9 0B       		.uleb128 0xb
 1280 02ea 4A010000 		.4byte	0x14a
 1281 02ee 00       		.byte	0
 1282 02ef 0C       		.uleb128 0xc
 1283 02f0 A4000000 		.4byte	0xa4
 1284 02f4 FF020000 		.4byte	0x2ff
 1285 02f8 0D       		.uleb128 0xd
 1286 02f9 30000000 		.4byte	0x30
 1287 02fd 05       		.byte	0x5
 1288 02fe 00       		.byte	0
 1289 02ff 0C       		.uleb128 0xc
 1290 0300 9D000000 		.4byte	0x9d
 1291 0304 0F030000 		.4byte	0x30f
 1292 0308 0D       		.uleb128 0xd
 1293 0309 30000000 		.4byte	0x30
 1294 030d 01       		.byte	0x1
 1295 030e 00       		.byte	0
 1296 030f 06       		.uleb128 0x6
 1297 0310 AE030000 		.4byte	.LASF42
 1298 0314 14       		.byte	0x14
 1299 0315 08       		.byte	0x8
 1300 0316 74       		.byte	0x74
 1301 0317 9A030000 		.4byte	0x39a
 1302 031b 07       		.uleb128 0x7
 1303 031c 33030000 		.4byte	.LASF43
 1304 0320 08       		.byte	0x8
 1305 0321 76       		.byte	0x76
 1306 0322 BA000000 		.4byte	0xba
 1307 0326 02       		.byte	0x2
 1308 0327 23       		.byte	0x23
 1309 0328 00       		.uleb128 0
ARM GAS  /var/folders/5n/p_75w94d66l9ssrldxqdhh700000gn/T//ccWYmooo.s 			page 24


 1310 0329 07       		.uleb128 0x7
 1311 032a F9040000 		.4byte	.LASF44
 1312 032e 08       		.byte	0x8
 1313 032f 78       		.byte	0x78
 1314 0330 BA000000 		.4byte	0xba
 1315 0334 02       		.byte	0x2
 1316 0335 23       		.byte	0x23
 1317 0336 02       		.uleb128 0x2
 1318 0337 08       		.uleb128 0x8
 1319 0338 5F696400 		.ascii	"_id\000"
 1320 033c 08       		.byte	0x8
 1321 033d 7A       		.byte	0x7a
 1322 033e BA000000 		.4byte	0xba
 1323 0342 02       		.byte	0x2
 1324 0343 23       		.byte	0x23
 1325 0344 04       		.uleb128 0x4
 1326 0345 07       		.uleb128 0x7
 1327 0346 6B010000 		.4byte	.LASF45
 1328 034a 08       		.byte	0x8
 1329 034b 7C       		.byte	0x7c
 1330 034c BA000000 		.4byte	0xba
 1331 0350 02       		.byte	0x2
 1332 0351 23       		.byte	0x23
 1333 0352 06       		.uleb128 0x6
 1334 0353 07       		.uleb128 0x7
 1335 0354 73000000 		.4byte	.LASF46
 1336 0358 08       		.byte	0x8
 1337 0359 82       		.byte	0x82
 1338 035a A4000000 		.4byte	0xa4
 1339 035e 02       		.byte	0x2
 1340 035f 23       		.byte	0x23
 1341 0360 08       		.uleb128 0x8
 1342 0361 07       		.uleb128 0x7
 1343 0362 5A020000 		.4byte	.LASF47
 1344 0366 08       		.byte	0x8
 1345 0367 84       		.byte	0x84
 1346 0368 A4000000 		.4byte	0xa4
 1347 036c 02       		.byte	0x2
 1348 036d 23       		.byte	0x23
 1349 036e 09       		.uleb128 0x9
 1350 036f 07       		.uleb128 0x7
 1351 0370 58010000 		.4byte	.LASF48
 1352 0374 08       		.byte	0x8
 1353 0375 86       		.byte	0x86
 1354 0376 BA000000 		.4byte	0xba
 1355 037a 02       		.byte	0x2
 1356 037b 23       		.byte	0x23
 1357 037c 0A       		.uleb128 0xa
 1358 037d 08       		.uleb128 0x8
 1359 037e 73726300 		.ascii	"src\000"
 1360 0382 08       		.byte	0x8
 1361 0383 88       		.byte	0x88
 1362 0384 91010000 		.4byte	0x191
 1363 0388 02       		.byte	0x2
 1364 0389 23       		.byte	0x23
 1365 038a 0C       		.uleb128 0xc
 1366 038b 07       		.uleb128 0x7
ARM GAS  /var/folders/5n/p_75w94d66l9ssrldxqdhh700000gn/T//ccWYmooo.s 			page 25


 1367 038c 25050000 		.4byte	.LASF49
 1368 0390 08       		.byte	0x8
 1369 0391 89       		.byte	0x89
 1370 0392 91010000 		.4byte	0x191
 1371 0396 02       		.byte	0x2
 1372 0397 23       		.byte	0x23
 1373 0398 10       		.uleb128 0x10
 1374 0399 00       		.byte	0
 1375 039a 04       		.uleb128 0x4
 1376 039b 21020000 		.4byte	.LASF50
 1377 039f 09       		.byte	0x9
 1378 03a0 4B       		.byte	0x4b
 1379 03a1 BA000000 		.4byte	0xba
 1380 03a5 0E       		.uleb128 0xe
 1381 03a6 DD030000 		.4byte	.LASF120
 1382 03aa 01       		.byte	0x1
 1383 03ab 0B       		.byte	0xb
 1384 03ac 38       		.byte	0x38
 1385 03ad D6030000 		.4byte	0x3d6
 1386 03b1 0F       		.uleb128 0xf
 1387 03b2 4F000000 		.4byte	.LASF51
 1388 03b6 00       		.sleb128 0
 1389 03b7 0F       		.uleb128 0xf
 1390 03b8 14000000 		.4byte	.LASF52
 1391 03bc 01       		.sleb128 1
 1392 03bd 0F       		.uleb128 0xf
 1393 03be 73040000 		.4byte	.LASF53
 1394 03c2 02       		.sleb128 2
 1395 03c3 0F       		.uleb128 0xf
 1396 03c4 FF020000 		.4byte	.LASF54
 1397 03c8 03       		.sleb128 3
 1398 03c9 0F       		.uleb128 0xf
 1399 03ca 8D040000 		.4byte	.LASF55
 1400 03ce 04       		.sleb128 4
 1401 03cf 0F       		.uleb128 0xf
 1402 03d0 73010000 		.4byte	.LASF56
 1403 03d4 05       		.sleb128 5
 1404 03d5 00       		.byte	0
 1405 03d6 10       		.uleb128 0x10
 1406 03d7 01       		.byte	0x1
 1407 03d8 0C       		.byte	0xc
 1408 03d9 2B       		.byte	0x2b
 1409 03da 39040000 		.4byte	0x439
 1410 03de 0F       		.uleb128 0xf
 1411 03df EB030000 		.4byte	.LASF57
 1412 03e3 00       		.sleb128 0
 1413 03e4 0F       		.uleb128 0xf
 1414 03e5 86030000 		.4byte	.LASF58
 1415 03e9 01       		.sleb128 1
 1416 03ea 0F       		.uleb128 0xf
 1417 03eb 83020000 		.4byte	.LASF59
 1418 03ef 02       		.sleb128 2
 1419 03f0 0F       		.uleb128 0xf
 1420 03f1 00000000 		.4byte	.LASF60
 1421 03f5 03       		.sleb128 3
 1422 03f6 0F       		.uleb128 0xf
 1423 03f7 5A040000 		.4byte	.LASF61
ARM GAS  /var/folders/5n/p_75w94d66l9ssrldxqdhh700000gn/T//ccWYmooo.s 			page 26


 1424 03fb 04       		.sleb128 4
 1425 03fc 0F       		.uleb128 0xf
 1426 03fd 2E000000 		.4byte	.LASF62
 1427 0401 05       		.sleb128 5
 1428 0402 0F       		.uleb128 0xf
 1429 0403 CE030000 		.4byte	.LASF63
 1430 0407 06       		.sleb128 6
 1431 0408 0F       		.uleb128 0xf
 1432 0409 61020000 		.4byte	.LASF64
 1433 040d 07       		.sleb128 7
 1434 040e 0F       		.uleb128 0xf
 1435 040f E3010000 		.4byte	.LASF65
 1436 0413 08       		.sleb128 8
 1437 0414 0F       		.uleb128 0xf
 1438 0415 DE000000 		.4byte	.LASF66
 1439 0419 09       		.sleb128 9
 1440 041a 0F       		.uleb128 0xf
 1441 041b 7F010000 		.4byte	.LASF67
 1442 041f 0A       		.sleb128 10
 1443 0420 0F       		.uleb128 0xf
 1444 0421 75030000 		.4byte	.LASF68
 1445 0425 0B       		.sleb128 11
 1446 0426 0F       		.uleb128 0xf
 1447 0427 F0010000 		.4byte	.LASF69
 1448 042b 0C       		.sleb128 12
 1449 042c 0F       		.uleb128 0xf
 1450 042d 97000000 		.4byte	.LASF70
 1451 0431 0D       		.sleb128 13
 1452 0432 0F       		.uleb128 0xf
 1453 0433 C6010000 		.4byte	.LASF71
 1454 0437 0E       		.sleb128 14
 1455 0438 00       		.byte	0
 1456 0439 06       		.uleb128 0x6
 1457 043a 2C020000 		.4byte	.LASF72
 1458 043e 18       		.byte	0x18
 1459 043f 0A       		.byte	0xa
 1460 0440 3A       		.byte	0x3a
 1461 0441 ED040000 		.4byte	0x4ed
 1462 0445 07       		.uleb128 0x7
 1463 0446 E1040000 		.4byte	.LASF73
 1464 044a 0A       		.byte	0xa
 1465 044b 3B       		.byte	0x3b
 1466 044c BA000000 		.4byte	0xba
 1467 0450 02       		.byte	0x2
 1468 0451 23       		.byte	0x23
 1469 0452 00       		.uleb128 0
 1470 0453 07       		.uleb128 0x7
 1471 0454 B2040000 		.4byte	.LASF74
 1472 0458 0A       		.byte	0xa
 1473 0459 3C       		.byte	0x3c
 1474 045a BA000000 		.4byte	0xba
 1475 045e 02       		.byte	0x2
 1476 045f 23       		.byte	0x23
 1477 0460 02       		.uleb128 0x2
 1478 0461 08       		.uleb128 0x8
 1479 0462 667700   		.ascii	"fw\000"
 1480 0465 0A       		.byte	0xa
ARM GAS  /var/folders/5n/p_75w94d66l9ssrldxqdhh700000gn/T//ccWYmooo.s 			page 27


 1481 0466 3D       		.byte	0x3d
 1482 0467 BA000000 		.4byte	0xba
 1483 046b 02       		.byte	0x2
 1484 046c 23       		.byte	0x23
 1485 046d 04       		.uleb128 0x4
 1486 046e 07       		.uleb128 0x7
 1487 046f 9B040000 		.4byte	.LASF75
 1488 0473 0A       		.byte	0xa
 1489 0474 3E       		.byte	0x3e
 1490 0475 BA000000 		.4byte	0xba
 1491 0479 02       		.byte	0x2
 1492 047a 23       		.byte	0x23
 1493 047b 06       		.uleb128 0x6
 1494 047c 07       		.uleb128 0x7
 1495 047d F8020000 		.4byte	.LASF76
 1496 0481 0A       		.byte	0xa
 1497 0482 3F       		.byte	0x3f
 1498 0483 BA000000 		.4byte	0xba
 1499 0487 02       		.byte	0x2
 1500 0488 23       		.byte	0x23
 1501 0489 08       		.uleb128 0x8
 1502 048a 07       		.uleb128 0x7
 1503 048b F8030000 		.4byte	.LASF77
 1504 048f 0A       		.byte	0xa
 1505 0490 40       		.byte	0x40
 1506 0491 BA000000 		.4byte	0xba
 1507 0495 02       		.byte	0x2
 1508 0496 23       		.byte	0x23
 1509 0497 0A       		.uleb128 0xa
 1510 0498 07       		.uleb128 0x7
 1511 0499 53040000 		.4byte	.LASF78
 1512 049d 0A       		.byte	0xa
 1513 049e 41       		.byte	0x41
 1514 049f BA000000 		.4byte	0xba
 1515 04a3 02       		.byte	0x2
 1516 04a4 23       		.byte	0x23
 1517 04a5 0C       		.uleb128 0xc
 1518 04a6 07       		.uleb128 0x7
 1519 04a7 69030000 		.4byte	.LASF79
 1520 04ab 0A       		.byte	0xa
 1521 04ac 42       		.byte	0x42
 1522 04ad BA000000 		.4byte	0xba
 1523 04b1 02       		.byte	0x2
 1524 04b2 23       		.byte	0x23
 1525 04b3 0E       		.uleb128 0xe
 1526 04b4 07       		.uleb128 0x7
 1527 04b5 11040000 		.4byte	.LASF80
 1528 04b9 0A       		.byte	0xa
 1529 04ba 43       		.byte	0x43
 1530 04bb BA000000 		.4byte	0xba
 1531 04bf 02       		.byte	0x2
 1532 04c0 23       		.byte	0x23
 1533 04c1 10       		.uleb128 0x10
 1534 04c2 07       		.uleb128 0x7
 1535 04c3 F1000000 		.4byte	.LASF81
 1536 04c7 0A       		.byte	0xa
 1537 04c8 44       		.byte	0x44
ARM GAS  /var/folders/5n/p_75w94d66l9ssrldxqdhh700000gn/T//ccWYmooo.s 			page 28


 1538 04c9 BA000000 		.4byte	0xba
 1539 04cd 02       		.byte	0x2
 1540 04ce 23       		.byte	0x23
 1541 04cf 12       		.uleb128 0x12
 1542 04d0 08       		.uleb128 0x8
 1543 04d1 65727200 		.ascii	"err\000"
 1544 04d5 0A       		.byte	0xa
 1545 04d6 45       		.byte	0x45
 1546 04d7 BA000000 		.4byte	0xba
 1547 04db 02       		.byte	0x2
 1548 04dc 23       		.byte	0x23
 1549 04dd 14       		.uleb128 0x14
 1550 04de 07       		.uleb128 0x7
 1551 04df 98030000 		.4byte	.LASF82
 1552 04e3 0A       		.byte	0xa
 1553 04e4 46       		.byte	0x46
 1554 04e5 BA000000 		.4byte	0xba
 1555 04e9 02       		.byte	0x2
 1556 04ea 23       		.byte	0x23
 1557 04eb 16       		.uleb128 0x16
 1558 04ec 00       		.byte	0
 1559 04ed 06       		.uleb128 0x6
 1560 04ee 7D000000 		.4byte	.LASF83
 1561 04f2 0A       		.byte	0xa
 1562 04f3 0A       		.byte	0xa
 1563 04f4 5A       		.byte	0x5a
 1564 04f5 40050000 		.4byte	0x540
 1565 04f9 07       		.uleb128 0x7
 1566 04fa 6F030000 		.4byte	.LASF84
 1567 04fe 0A       		.byte	0xa
 1568 04ff 5E       		.byte	0x5e
 1569 0500 9A030000 		.4byte	0x39a
 1570 0504 02       		.byte	0x2
 1571 0505 23       		.byte	0x23
 1572 0506 00       		.uleb128 0
 1573 0507 07       		.uleb128 0x7
 1574 0508 94010000 		.4byte	.LASF85
 1575 050c 0A       		.byte	0xa
 1576 050d 5F       		.byte	0x5f
 1577 050e 9A030000 		.4byte	0x39a
 1578 0512 02       		.byte	0x2
 1579 0513 23       		.byte	0x23
 1580 0514 02       		.uleb128 0x2
 1581 0515 08       		.uleb128 0x8
 1582 0516 6D617800 		.ascii	"max\000"
 1583 051a 0A       		.byte	0xa
 1584 051b 60       		.byte	0x60
 1585 051c 9A030000 		.4byte	0x39a
 1586 0520 02       		.byte	0x2
 1587 0521 23       		.byte	0x23
 1588 0522 04       		.uleb128 0x4
 1589 0523 08       		.uleb128 0x8
 1590 0524 65727200 		.ascii	"err\000"
 1591 0528 0A       		.byte	0xa
 1592 0529 61       		.byte	0x61
 1593 052a BA000000 		.4byte	0xba
 1594 052e 02       		.byte	0x2
ARM GAS  /var/folders/5n/p_75w94d66l9ssrldxqdhh700000gn/T//ccWYmooo.s 			page 29


 1595 052f 23       		.byte	0x23
 1596 0530 06       		.uleb128 0x6
 1597 0531 07       		.uleb128 0x7
 1598 0532 06010000 		.4byte	.LASF86
 1599 0536 0A       		.byte	0xa
 1600 0537 62       		.byte	0x62
 1601 0538 BA000000 		.4byte	0xba
 1602 053c 02       		.byte	0x2
 1603 053d 23       		.byte	0x23
 1604 053e 08       		.uleb128 0x8
 1605 053f 00       		.byte	0
 1606 0540 06       		.uleb128 0x6
 1607 0541 B1000000 		.4byte	.LASF87
 1608 0545 06       		.byte	0x6
 1609 0546 0A       		.byte	0xa
 1610 0547 65       		.byte	0x65
 1611 0548 77050000 		.4byte	0x577
 1612 054c 07       		.uleb128 0x7
 1613 054d 94010000 		.4byte	.LASF85
 1614 0551 0A       		.byte	0xa
 1615 0552 66       		.byte	0x66
 1616 0553 BA000000 		.4byte	0xba
 1617 0557 02       		.byte	0x2
 1618 0558 23       		.byte	0x23
 1619 0559 00       		.uleb128 0
 1620 055a 08       		.uleb128 0x8
 1621 055b 6D617800 		.ascii	"max\000"
 1622 055f 0A       		.byte	0xa
 1623 0560 67       		.byte	0x67
 1624 0561 BA000000 		.4byte	0xba
 1625 0565 02       		.byte	0x2
 1626 0566 23       		.byte	0x23
 1627 0567 02       		.uleb128 0x2
 1628 0568 08       		.uleb128 0x8
 1629 0569 65727200 		.ascii	"err\000"
 1630 056d 0A       		.byte	0xa
 1631 056e 68       		.byte	0x68
 1632 056f BA000000 		.4byte	0xba
 1633 0573 02       		.byte	0x2
 1634 0574 23       		.byte	0x23
 1635 0575 04       		.uleb128 0x4
 1636 0576 00       		.byte	0
 1637 0577 06       		.uleb128 0x6
 1638 0578 3B040000 		.4byte	.LASF88
 1639 057c 12       		.byte	0x12
 1640 057d 0A       		.byte	0xa
 1641 057e 6B       		.byte	0x6b
 1642 057f AE050000 		.4byte	0x5ae
 1643 0583 08       		.uleb128 0x8
 1644 0584 73656D00 		.ascii	"sem\000"
 1645 0588 0A       		.byte	0xa
 1646 0589 6C       		.byte	0x6c
 1647 058a 40050000 		.4byte	0x540
 1648 058e 02       		.byte	0x2
 1649 058f 23       		.byte	0x23
 1650 0590 00       		.uleb128 0
 1651 0591 07       		.uleb128 0x7
ARM GAS  /var/folders/5n/p_75w94d66l9ssrldxqdhh700000gn/T//ccWYmooo.s 			page 30


 1652 0592 F8000000 		.4byte	.LASF89
 1653 0596 0A       		.byte	0xa
 1654 0597 6D       		.byte	0x6d
 1655 0598 40050000 		.4byte	0x540
 1656 059c 02       		.byte	0x2
 1657 059d 23       		.byte	0x23
 1658 059e 06       		.uleb128 0x6
 1659 059f 07       		.uleb128 0x7
 1660 05a0 93030000 		.4byte	.LASF90
 1661 05a4 0A       		.byte	0xa
 1662 05a5 6E       		.byte	0x6e
 1663 05a6 40050000 		.4byte	0x540
 1664 05aa 02       		.byte	0x2
 1665 05ab 23       		.byte	0x23
 1666 05ac 0C       		.uleb128 0xc
 1667 05ad 00       		.byte	0
 1668 05ae 11       		.uleb128 0x11
 1669 05af 99010000 		.4byte	.LASF91
 1670 05b3 5001     		.2byte	0x150
 1671 05b5 0A       		.byte	0xa
 1672 05b6 71       		.byte	0x71
 1673 05b7 4B060000 		.4byte	0x64b
 1674 05bb 07       		.uleb128 0x7
 1675 05bc 78000000 		.4byte	.LASF92
 1676 05c0 0A       		.byte	0xa
 1677 05c1 73       		.byte	0x73
 1678 05c2 39040000 		.4byte	0x439
 1679 05c6 02       		.byte	0x2
 1680 05c7 23       		.byte	0x23
 1681 05c8 00       		.uleb128 0
 1682 05c9 07       		.uleb128 0x7
 1683 05ca 20010000 		.4byte	.LASF93
 1684 05ce 0A       		.byte	0xa
 1685 05cf 76       		.byte	0x76
 1686 05d0 39040000 		.4byte	0x439
 1687 05d4 02       		.byte	0x2
 1688 05d5 23       		.byte	0x23
 1689 05d6 18       		.uleb128 0x18
 1690 05d7 07       		.uleb128 0x7
 1691 05d8 FE000000 		.4byte	.LASF94
 1692 05dc 0A       		.byte	0xa
 1693 05dd 79       		.byte	0x79
 1694 05de 39040000 		.4byte	0x439
 1695 05e2 02       		.byte	0x2
 1696 05e3 23       		.byte	0x23
 1697 05e4 30       		.uleb128 0x30
 1698 05e5 08       		.uleb128 0x8
 1699 05e6 697000   		.ascii	"ip\000"
 1700 05e9 0A       		.byte	0xa
 1701 05ea 7C       		.byte	0x7c
 1702 05eb 39040000 		.4byte	0x439
 1703 05ef 02       		.byte	0x2
 1704 05f0 23       		.byte	0x23
 1705 05f1 48       		.uleb128 0x48
 1706 05f2 07       		.uleb128 0x7
 1707 05f3 5B030000 		.4byte	.LASF95
 1708 05f7 0A       		.byte	0xa
ARM GAS  /var/folders/5n/p_75w94d66l9ssrldxqdhh700000gn/T//ccWYmooo.s 			page 31


 1709 05f8 7F       		.byte	0x7f
 1710 05f9 39040000 		.4byte	0x439
 1711 05fd 02       		.byte	0x2
 1712 05fe 23       		.byte	0x23
 1713 05ff 60       		.uleb128 0x60
 1714 0600 08       		.uleb128 0x8
 1715 0601 75647000 		.ascii	"udp\000"
 1716 0605 0A       		.byte	0xa
 1717 0606 85       		.byte	0x85
 1718 0607 39040000 		.4byte	0x439
 1719 060b 02       		.byte	0x2
 1720 060c 23       		.byte	0x23
 1721 060d 78       		.uleb128 0x78
 1722 060e 08       		.uleb128 0x8
 1723 060f 74637000 		.ascii	"tcp\000"
 1724 0613 0A       		.byte	0xa
 1725 0614 88       		.byte	0x88
 1726 0615 39040000 		.4byte	0x439
 1727 0619 03       		.byte	0x3
 1728 061a 23       		.byte	0x23
 1729 061b 9001     		.uleb128 0x90
 1730 061d 08       		.uleb128 0x8
 1731 061e 6D656D00 		.ascii	"mem\000"
 1732 0622 0A       		.byte	0xa
 1733 0623 8B       		.byte	0x8b
 1734 0624 ED040000 		.4byte	0x4ed
 1735 0628 03       		.byte	0x3
 1736 0629 23       		.byte	0x23
 1737 062a A801     		.uleb128 0xa8
 1738 062c 07       		.uleb128 0x7
 1739 062d 90020000 		.4byte	.LASF96
 1740 0631 0A       		.byte	0xa
 1741 0632 8E       		.byte	0x8e
 1742 0633 4B060000 		.4byte	0x64b
 1743 0637 03       		.byte	0x3
 1744 0638 23       		.byte	0x23
 1745 0639 B201     		.uleb128 0xb2
 1746 063b 08       		.uleb128 0x8
 1747 063c 73797300 		.ascii	"sys\000"
 1748 0640 0A       		.byte	0xa
 1749 0641 91       		.byte	0x91
 1750 0642 77050000 		.4byte	0x577
 1751 0646 03       		.byte	0x3
 1752 0647 23       		.byte	0x23
 1753 0648 BE02     		.uleb128 0x13e
 1754 064a 00       		.byte	0
 1755 064b 0C       		.uleb128 0xc
 1756 064c ED040000 		.4byte	0x4ed
 1757 0650 5B060000 		.4byte	0x65b
 1758 0654 0D       		.uleb128 0xd
 1759 0655 30000000 		.4byte	0x30
 1760 0659 0D       		.byte	0xd
 1761 065a 00       		.byte	0
 1762 065b 12       		.uleb128 0x12
 1763 065c 01       		.byte	0x1
 1764 065d 08050000 		.4byte	.LASF97
 1765 0661 01       		.byte	0x1
ARM GAS  /var/folders/5n/p_75w94d66l9ssrldxqdhh700000gn/T//ccWYmooo.s 			page 32


 1766 0662 7C       		.byte	0x7c
 1767 0663 01       		.byte	0x1
 1768 0664 9C010000 		.4byte	0x19c
 1769 0668 00000000 		.4byte	.LFB7
 1770 066c 4C000000 		.4byte	.LFE7
 1771 0670 00000000 		.4byte	.LLST0
 1772 0674 97060000 		.4byte	0x697
 1773 0678 13       		.uleb128 0x13
 1774 0679 25050000 		.4byte	.LASF49
 1775 067d 01       		.byte	0x1
 1776 067e 7C       		.byte	0x7c
 1777 067f C3020000 		.4byte	0x2c3
 1778 0683 20000000 		.4byte	.LLST1
 1779 0687 14       		.uleb128 0x14
 1780 0688 A6040000 		.4byte	.LASF30
 1781 068c 01       		.byte	0x1
 1782 068d 7E       		.byte	0x7e
 1783 068e 9C010000 		.4byte	0x19c
 1784 0692 3E000000 		.4byte	.LLST2
 1785 0696 00       		.byte	0
 1786 0697 12       		.uleb128 0x12
 1787 0698 01       		.byte	0x1
 1788 0699 1B030000 		.4byte	.LASF98
 1789 069d 01       		.byte	0x1
 1790 069e F2       		.byte	0xf2
 1791 069f 01       		.byte	0x1
 1792 06a0 D0000000 		.4byte	0xd0
 1793 06a4 00000000 		.4byte	.LFB8
 1794 06a8 54020000 		.4byte	.LFE8
 1795 06ac 5C000000 		.4byte	.LLST3
 1796 06b0 23070000 		.4byte	0x723
 1797 06b4 15       		.uleb128 0x15
 1798 06b5 7000     		.ascii	"p\000"
 1799 06b7 01       		.byte	0x1
 1800 06b8 F2       		.byte	0xf2
 1801 06b9 4A010000 		.4byte	0x14a
 1802 06bd 7C000000 		.4byte	.LLST4
 1803 06c1 15       		.uleb128 0x15
 1804 06c2 696E7000 		.ascii	"inp\000"
 1805 06c6 01       		.byte	0x1
 1806 06c7 F2       		.byte	0xf2
 1807 06c8 9C010000 		.4byte	0x19c
 1808 06cc B0000000 		.4byte	.LLST5
 1809 06d0 14       		.uleb128 0x14
 1810 06d1 AC040000 		.4byte	.LASF99
 1811 06d5 01       		.byte	0x1
 1812 06d6 F4       		.byte	0xf4
 1813 06d7 23070000 		.4byte	0x723
 1814 06db CE000000 		.4byte	.LLST6
 1815 06df 14       		.uleb128 0x14
 1816 06e0 A6040000 		.4byte	.LASF30
 1817 06e4 01       		.byte	0x1
 1818 06e5 F5       		.byte	0xf5
 1819 06e6 9C010000 		.4byte	0x19c
 1820 06ea F9000000 		.4byte	.LLST7
 1821 06ee 14       		.uleb128 0x14
 1822 06ef C3040000 		.4byte	.LASF100
ARM GAS  /var/folders/5n/p_75w94d66l9ssrldxqdhh700000gn/T//ccWYmooo.s 			page 33


 1823 06f3 01       		.byte	0x1
 1824 06f4 F6       		.byte	0xf6
 1825 06f5 BA000000 		.4byte	0xba
 1826 06f9 2D010000 		.4byte	.LLST8
 1827 06fd 14       		.uleb128 0x14
 1828 06fe 1B050000 		.4byte	.LASF101
 1829 0702 01       		.byte	0x1
 1830 0703 F7       		.byte	0xf7
 1831 0704 BA000000 		.4byte	0xba
 1832 0708 4B010000 		.4byte	.LLST9
 1833 070c 16       		.uleb128 0x16
 1834 070d 00000000 		.4byte	.Ldebug_ranges0+0
 1835 0711 17       		.uleb128 0x17
 1836 0712 82040000 		.4byte	.LASF102
 1837 0716 01       		.byte	0x1
 1838 0717 4B01     		.2byte	0x14b
 1839 0719 29000000 		.4byte	0x29
 1840 071d 74010000 		.4byte	.LLST10
 1841 0721 00       		.byte	0
 1842 0722 00       		.byte	0
 1843 0723 09       		.uleb128 0x9
 1844 0724 04       		.byte	0x4
 1845 0725 0F030000 		.4byte	0x30f
 1846 0729 18       		.uleb128 0x18
 1847 072a 01       		.byte	0x1
 1848 072b A1030000 		.4byte	.LASF103
 1849 072f 01       		.byte	0x1
 1850 0730 3C02     		.2byte	0x23c
 1851 0732 01       		.byte	0x1
 1852 0733 D0000000 		.4byte	0xd0
 1853 0737 00000000 		.4byte	.LFB9
 1854 073b 90010000 		.4byte	.LFE9
 1855 073f AA010000 		.4byte	.LLST11
 1856 0743 F8070000 		.4byte	0x7f8
 1857 0747 19       		.uleb128 0x19
 1858 0748 7000     		.ascii	"p\000"
 1859 074a 01       		.byte	0x1
 1860 074b 3C02     		.2byte	0x23c
 1861 074d 4A010000 		.4byte	0x14a
 1862 0751 D7010000 		.4byte	.LLST12
 1863 0755 19       		.uleb128 0x19
 1864 0756 73726300 		.ascii	"src\000"
 1865 075a 01       		.byte	0x1
 1866 075b 3C02     		.2byte	0x23c
 1867 075d C3020000 		.4byte	0x2c3
 1868 0761 F5010000 		.4byte	.LLST13
 1869 0765 1A       		.uleb128 0x1a
 1870 0766 25050000 		.4byte	.LASF49
 1871 076a 01       		.byte	0x1
 1872 076b 3C02     		.2byte	0x23c
 1873 076d C3020000 		.4byte	0x2c3
 1874 0771 14020000 		.4byte	.LLST14
 1875 0775 19       		.uleb128 0x19
 1876 0776 74746C00 		.ascii	"ttl\000"
 1877 077a 01       		.byte	0x1
 1878 077b 3D02     		.2byte	0x23d
 1879 077d A4000000 		.4byte	0xa4
ARM GAS  /var/folders/5n/p_75w94d66l9ssrldxqdhh700000gn/T//ccWYmooo.s 			page 34


 1880 0781 4A020000 		.4byte	.LLST15
 1881 0785 1B       		.uleb128 0x1b
 1882 0786 746F7300 		.ascii	"tos\000"
 1883 078a 01       		.byte	0x1
 1884 078b 3D02     		.2byte	0x23d
 1885 078d A4000000 		.4byte	0xa4
 1886 0791 02       		.byte	0x2
 1887 0792 91       		.byte	0x91
 1888 0793 00       		.sleb128 0
 1889 0794 1C       		.uleb128 0x1c
 1890 0795 47020000 		.4byte	.LASF104
 1891 0799 01       		.byte	0x1
 1892 079a 3E02     		.2byte	0x23e
 1893 079c A4000000 		.4byte	0xa4
 1894 07a0 02       		.byte	0x2
 1895 07a1 91       		.byte	0x91
 1896 07a2 04       		.sleb128 4
 1897 07a3 1C       		.uleb128 0x1c
 1898 07a4 A6040000 		.4byte	.LASF30
 1899 07a8 01       		.byte	0x1
 1900 07a9 3E02     		.2byte	0x23e
 1901 07ab 9C010000 		.4byte	0x19c
 1902 07af 02       		.byte	0x2
 1903 07b0 91       		.byte	0x91
 1904 07b1 08       		.sleb128 8
 1905 07b2 17       		.uleb128 0x17
 1906 07b3 AC040000 		.4byte	.LASF99
 1907 07b7 01       		.byte	0x1
 1908 07b8 4F02     		.2byte	0x24f
 1909 07ba 23070000 		.4byte	0x723
 1910 07be 5D020000 		.4byte	.LLST16
 1911 07c2 1D       		.uleb128 0x1d
 1912 07c3 11050000 		.4byte	.LASF105
 1913 07c7 01       		.byte	0x1
 1914 07c8 5002     		.2byte	0x250
 1915 07ca 86010000 		.4byte	0x186
 1916 07ce 02       		.byte	0x2
 1917 07cf 91       		.byte	0x91
 1918 07d0 54       		.sleb128 -44
 1919 07d1 17       		.uleb128 0x17
 1920 07d2 9A020000 		.4byte	.LASF106
 1921 07d6 01       		.byte	0x1
 1922 07d7 5202     		.2byte	0x252
 1923 07d9 C5000000 		.4byte	0xc5
 1924 07dd 9E020000 		.4byte	.LLST17
 1925 07e1 16       		.uleb128 0x16
 1926 07e2 20000000 		.4byte	.Ldebug_ranges0+0x20
 1927 07e6 17       		.uleb128 0x17
 1928 07e7 50010000 		.4byte	.LASF107
 1929 07eb 01       		.byte	0x1
 1930 07ec 5D02     		.2byte	0x25d
 1931 07ee BA000000 		.4byte	0xba
 1932 07f2 EE020000 		.4byte	.LLST18
 1933 07f6 00       		.byte	0
 1934 07f7 00       		.byte	0
 1935 07f8 18       		.uleb128 0x18
 1936 07f9 01       		.byte	0x1
ARM GAS  /var/folders/5n/p_75w94d66l9ssrldxqdhh700000gn/T//ccWYmooo.s 			page 35


 1937 07fa A0010000 		.4byte	.LASF108
 1938 07fe 01       		.byte	0x1
 1939 07ff EC02     		.2byte	0x2ec
 1940 0801 01       		.byte	0x1
 1941 0802 D0000000 		.4byte	0xd0
 1942 0806 00000000 		.4byte	.LFB10
 1943 080a 58000000 		.4byte	.LFE10
 1944 080e 26030000 		.4byte	.LLST19
 1945 0812 83080000 		.4byte	0x883
 1946 0816 19       		.uleb128 0x19
 1947 0817 7000     		.ascii	"p\000"
 1948 0819 01       		.byte	0x1
 1949 081a EC02     		.2byte	0x2ec
 1950 081c 4A010000 		.4byte	0x14a
 1951 0820 52030000 		.4byte	.LLST20
 1952 0824 19       		.uleb128 0x19
 1953 0825 73726300 		.ascii	"src\000"
 1954 0829 01       		.byte	0x1
 1955 082a EC02     		.2byte	0x2ec
 1956 082c C3020000 		.4byte	0x2c3
 1957 0830 86030000 		.4byte	.LLST21
 1958 0834 1A       		.uleb128 0x1a
 1959 0835 25050000 		.4byte	.LASF49
 1960 0839 01       		.byte	0x1
 1961 083a EC02     		.2byte	0x2ec
 1962 083c C3020000 		.4byte	0x2c3
 1963 0840 A4030000 		.4byte	.LLST22
 1964 0844 19       		.uleb128 0x19
 1965 0845 74746C00 		.ascii	"ttl\000"
 1966 0849 01       		.byte	0x1
 1967 084a ED02     		.2byte	0x2ed
 1968 084c A4000000 		.4byte	0xa4
 1969 0850 C2030000 		.4byte	.LLST23
 1970 0854 1B       		.uleb128 0x1b
 1971 0855 746F7300 		.ascii	"tos\000"
 1972 0859 01       		.byte	0x1
 1973 085a ED02     		.2byte	0x2ed
 1974 085c A4000000 		.4byte	0xa4
 1975 0860 02       		.byte	0x2
 1976 0861 91       		.byte	0x91
 1977 0862 00       		.sleb128 0
 1978 0863 1C       		.uleb128 0x1c
 1979 0864 47020000 		.4byte	.LASF104
 1980 0868 01       		.byte	0x1
 1981 0869 ED02     		.2byte	0x2ed
 1982 086b A4000000 		.4byte	0xa4
 1983 086f 02       		.byte	0x2
 1984 0870 91       		.byte	0x91
 1985 0871 04       		.sleb128 4
 1986 0872 17       		.uleb128 0x17
 1987 0873 A6040000 		.4byte	.LASF30
 1988 0877 01       		.byte	0x1
 1989 0878 EF02     		.2byte	0x2ef
 1990 087a 9C010000 		.4byte	0x19c
 1991 087e D5030000 		.4byte	.LLST24
 1992 0882 00       		.byte	0
 1993 0883 1E       		.uleb128 0x1e
ARM GAS  /var/folders/5n/p_75w94d66l9ssrldxqdhh700000gn/T//ccWYmooo.s 			page 36


 1994 0884 0E010000 		.4byte	.LASF109
 1995 0888 07       		.byte	0x7
 1996 0889 F9       		.byte	0xf9
 1997 088a 9C010000 		.4byte	0x19c
 1998 088e 01       		.byte	0x1
 1999 088f 01       		.byte	0x1
 2000 0890 1E       		.uleb128 0x1e
 2001 0891 0D030000 		.4byte	.LASF110
 2002 0895 07       		.byte	0x7
 2003 0896 FB       		.byte	0xfb
 2004 0897 9C010000 		.4byte	0x19c
 2005 089b 01       		.byte	0x1
 2006 089c 01       		.byte	0x1
 2007 089d 1E       		.uleb128 0x1e
 2008 089e 3D030000 		.4byte	.LASF111
 2009 08a2 08       		.byte	0x8
 2010 08a3 A3       		.byte	0xa3
 2011 08a4 9C010000 		.4byte	0x19c
 2012 08a8 01       		.byte	0x1
 2013 08a9 01       		.byte	0x1
 2014 08aa 1E       		.uleb128 0x1e
 2015 08ab D4010000 		.4byte	.LASF112
 2016 08af 08       		.byte	0x8
 2017 08b0 A5       		.byte	0xa5
 2018 08b1 B7080000 		.4byte	0x8b7
 2019 08b5 01       		.byte	0x1
 2020 08b6 01       		.byte	0x1
 2021 08b7 09       		.uleb128 0x9
 2022 08b8 04       		.byte	0x4
 2023 08b9 BD080000 		.4byte	0x8bd
 2024 08bd 1F       		.uleb128 0x1f
 2025 08be 0F030000 		.4byte	0x30f
 2026 08c2 1E       		.uleb128 0x1e
 2027 08c3 3E010000 		.4byte	.LASF113
 2028 08c7 08       		.byte	0x8
 2029 08c8 A7       		.byte	0xa7
 2030 08c9 86010000 		.4byte	0x186
 2031 08cd 01       		.byte	0x1
 2032 08ce 01       		.byte	0x1
 2033 08cf 1E       		.uleb128 0x1e
 2034 08d0 E6040000 		.4byte	.LASF114
 2035 08d4 08       		.byte	0x8
 2036 08d5 A9       		.byte	0xa9
 2037 08d6 86010000 		.4byte	0x186
 2038 08da 01       		.byte	0x1
 2039 08db 01       		.byte	0x1
 2040 08dc 1E       		.uleb128 0x1e
 2041 08dd A6000000 		.4byte	.LASF115
 2042 08e1 0A       		.byte	0xa
 2043 08e2 95       		.byte	0x95
 2044 08e3 AE050000 		.4byte	0x5ae
 2045 08e7 01       		.byte	0x1
 2046 08e8 01       		.byte	0x1
 2047 08e9 20       		.uleb128 0x20
 2048 08ea 2D030000 		.4byte	.LASF116
 2049 08ee 01       		.byte	0x1
 2050 08ef 70       		.byte	0x70
ARM GAS  /var/folders/5n/p_75w94d66l9ssrldxqdhh700000gn/T//ccWYmooo.s 			page 37


 2051 08f0 BA000000 		.4byte	0xba
 2052 08f4 05       		.byte	0x5
 2053 08f5 03       		.byte	0x3
 2054 08f6 00000000 		.4byte	ip_id
 2055 08fa 1E       		.uleb128 0x1e
 2056 08fb 0E010000 		.4byte	.LASF109
 2057 08ff 07       		.byte	0x7
 2058 0900 F9       		.byte	0xf9
 2059 0901 9C010000 		.4byte	0x19c
 2060 0905 01       		.byte	0x1
 2061 0906 01       		.byte	0x1
 2062 0907 1E       		.uleb128 0x1e
 2063 0908 0D030000 		.4byte	.LASF110
 2064 090c 07       		.byte	0x7
 2065 090d FB       		.byte	0xfb
 2066 090e 9C010000 		.4byte	0x19c
 2067 0912 01       		.byte	0x1
 2068 0913 01       		.byte	0x1
 2069 0914 21       		.uleb128 0x21
 2070 0915 3D030000 		.4byte	.LASF111
 2071 0919 01       		.byte	0x1
 2072 091a 64       		.byte	0x64
 2073 091b 9C010000 		.4byte	0x19c
 2074 091f 01       		.byte	0x1
 2075 0920 05       		.byte	0x5
 2076 0921 03       		.byte	0x3
 2077 0922 00000000 		.4byte	current_netif
 2078 0926 21       		.uleb128 0x21
 2079 0927 D4010000 		.4byte	.LASF112
 2080 092b 01       		.byte	0x1
 2081 092c 69       		.byte	0x69
 2082 092d B7080000 		.4byte	0x8b7
 2083 0931 01       		.byte	0x1
 2084 0932 05       		.byte	0x5
 2085 0933 03       		.byte	0x3
 2086 0934 00000000 		.4byte	current_header
 2087 0938 21       		.uleb128 0x21
 2088 0939 3E010000 		.4byte	.LASF113
 2089 093d 01       		.byte	0x1
 2090 093e 6B       		.byte	0x6b
 2091 093f 86010000 		.4byte	0x186
 2092 0943 01       		.byte	0x1
 2093 0944 05       		.byte	0x5
 2094 0945 03       		.byte	0x3
 2095 0946 00000000 		.4byte	current_iphdr_src
 2096 094a 21       		.uleb128 0x21
 2097 094b E6040000 		.4byte	.LASF114
 2098 094f 01       		.byte	0x1
 2099 0950 6D       		.byte	0x6d
 2100 0951 86010000 		.4byte	0x186
 2101 0955 01       		.byte	0x1
 2102 0956 05       		.byte	0x5
 2103 0957 03       		.byte	0x3
 2104 0958 00000000 		.4byte	current_iphdr_dest
 2105 095c 1E       		.uleb128 0x1e
 2106 095d A6000000 		.4byte	.LASF115
 2107 0961 0A       		.byte	0xa
ARM GAS  /var/folders/5n/p_75w94d66l9ssrldxqdhh700000gn/T//ccWYmooo.s 			page 38


 2108 0962 95       		.byte	0x95
 2109 0963 AE050000 		.4byte	0x5ae
 2110 0967 01       		.byte	0x1
 2111 0968 01       		.byte	0x1
 2112 0969 00       		.byte	0
 2113              		.section	.debug_abbrev,"",%progbits
 2114              	.Ldebug_abbrev0:
 2115 0000 01       		.uleb128 0x1
 2116 0001 11       		.uleb128 0x11
 2117 0002 01       		.byte	0x1
 2118 0003 25       		.uleb128 0x25
 2119 0004 0E       		.uleb128 0xe
 2120 0005 13       		.uleb128 0x13
 2121 0006 0B       		.uleb128 0xb
 2122 0007 03       		.uleb128 0x3
 2123 0008 0E       		.uleb128 0xe
 2124 0009 1B       		.uleb128 0x1b
 2125 000a 0E       		.uleb128 0xe
 2126 000b 11       		.uleb128 0x11
 2127 000c 01       		.uleb128 0x1
 2128 000d 52       		.uleb128 0x52
 2129 000e 01       		.uleb128 0x1
 2130 000f 55       		.uleb128 0x55
 2131 0010 06       		.uleb128 0x6
 2132 0011 10       		.uleb128 0x10
 2133 0012 06       		.uleb128 0x6
 2134 0013 00       		.byte	0
 2135 0014 00       		.byte	0
 2136 0015 02       		.uleb128 0x2
 2137 0016 24       		.uleb128 0x24
 2138 0017 00       		.byte	0
 2139 0018 0B       		.uleb128 0xb
 2140 0019 0B       		.uleb128 0xb
 2141 001a 3E       		.uleb128 0x3e
 2142 001b 0B       		.uleb128 0xb
 2143 001c 03       		.uleb128 0x3
 2144 001d 08       		.uleb128 0x8
 2145 001e 00       		.byte	0
 2146 001f 00       		.byte	0
 2147 0020 03       		.uleb128 0x3
 2148 0021 24       		.uleb128 0x24
 2149 0022 00       		.byte	0
 2150 0023 0B       		.uleb128 0xb
 2151 0024 0B       		.uleb128 0xb
 2152 0025 3E       		.uleb128 0x3e
 2153 0026 0B       		.uleb128 0xb
 2154 0027 03       		.uleb128 0x3
 2155 0028 0E       		.uleb128 0xe
 2156 0029 00       		.byte	0
 2157 002a 00       		.byte	0
 2158 002b 04       		.uleb128 0x4
 2159 002c 16       		.uleb128 0x16
 2160 002d 00       		.byte	0
 2161 002e 03       		.uleb128 0x3
 2162 002f 0E       		.uleb128 0xe
 2163 0030 3A       		.uleb128 0x3a
 2164 0031 0B       		.uleb128 0xb
ARM GAS  /var/folders/5n/p_75w94d66l9ssrldxqdhh700000gn/T//ccWYmooo.s 			page 39


 2165 0032 3B       		.uleb128 0x3b
 2166 0033 0B       		.uleb128 0xb
 2167 0034 49       		.uleb128 0x49
 2168 0035 13       		.uleb128 0x13
 2169 0036 00       		.byte	0
 2170 0037 00       		.byte	0
 2171 0038 05       		.uleb128 0x5
 2172 0039 0F       		.uleb128 0xf
 2173 003a 00       		.byte	0
 2174 003b 0B       		.uleb128 0xb
 2175 003c 0B       		.uleb128 0xb
 2176 003d 00       		.byte	0
 2177 003e 00       		.byte	0
 2178 003f 06       		.uleb128 0x6
 2179 0040 13       		.uleb128 0x13
 2180 0041 01       		.byte	0x1
 2181 0042 03       		.uleb128 0x3
 2182 0043 0E       		.uleb128 0xe
 2183 0044 0B       		.uleb128 0xb
 2184 0045 0B       		.uleb128 0xb
 2185 0046 3A       		.uleb128 0x3a
 2186 0047 0B       		.uleb128 0xb
 2187 0048 3B       		.uleb128 0x3b
 2188 0049 0B       		.uleb128 0xb
 2189 004a 01       		.uleb128 0x1
 2190 004b 13       		.uleb128 0x13
 2191 004c 00       		.byte	0
 2192 004d 00       		.byte	0
 2193 004e 07       		.uleb128 0x7
 2194 004f 0D       		.uleb128 0xd
 2195 0050 00       		.byte	0
 2196 0051 03       		.uleb128 0x3
 2197 0052 0E       		.uleb128 0xe
 2198 0053 3A       		.uleb128 0x3a
 2199 0054 0B       		.uleb128 0xb
 2200 0055 3B       		.uleb128 0x3b
 2201 0056 0B       		.uleb128 0xb
 2202 0057 49       		.uleb128 0x49
 2203 0058 13       		.uleb128 0x13
 2204 0059 38       		.uleb128 0x38
 2205 005a 0A       		.uleb128 0xa
 2206 005b 00       		.byte	0
 2207 005c 00       		.byte	0
 2208 005d 08       		.uleb128 0x8
 2209 005e 0D       		.uleb128 0xd
 2210 005f 00       		.byte	0
 2211 0060 03       		.uleb128 0x3
 2212 0061 08       		.uleb128 0x8
 2213 0062 3A       		.uleb128 0x3a
 2214 0063 0B       		.uleb128 0xb
 2215 0064 3B       		.uleb128 0x3b
 2216 0065 0B       		.uleb128 0xb
 2217 0066 49       		.uleb128 0x49
 2218 0067 13       		.uleb128 0x13
 2219 0068 38       		.uleb128 0x38
 2220 0069 0A       		.uleb128 0xa
 2221 006a 00       		.byte	0
ARM GAS  /var/folders/5n/p_75w94d66l9ssrldxqdhh700000gn/T//ccWYmooo.s 			page 40


 2222 006b 00       		.byte	0
 2223 006c 09       		.uleb128 0x9
 2224 006d 0F       		.uleb128 0xf
 2225 006e 00       		.byte	0
 2226 006f 0B       		.uleb128 0xb
 2227 0070 0B       		.uleb128 0xb
 2228 0071 49       		.uleb128 0x49
 2229 0072 13       		.uleb128 0x13
 2230 0073 00       		.byte	0
 2231 0074 00       		.byte	0
 2232 0075 0A       		.uleb128 0xa
 2233 0076 15       		.uleb128 0x15
 2234 0077 01       		.byte	0x1
 2235 0078 27       		.uleb128 0x27
 2236 0079 0C       		.uleb128 0xc
 2237 007a 49       		.uleb128 0x49
 2238 007b 13       		.uleb128 0x13
 2239 007c 01       		.uleb128 0x1
 2240 007d 13       		.uleb128 0x13
 2241 007e 00       		.byte	0
 2242 007f 00       		.byte	0
 2243 0080 0B       		.uleb128 0xb
 2244 0081 05       		.uleb128 0x5
 2245 0082 00       		.byte	0
 2246 0083 49       		.uleb128 0x49
 2247 0084 13       		.uleb128 0x13
 2248 0085 00       		.byte	0
 2249 0086 00       		.byte	0
 2250 0087 0C       		.uleb128 0xc
 2251 0088 01       		.uleb128 0x1
 2252 0089 01       		.byte	0x1
 2253 008a 49       		.uleb128 0x49
 2254 008b 13       		.uleb128 0x13
 2255 008c 01       		.uleb128 0x1
 2256 008d 13       		.uleb128 0x13
 2257 008e 00       		.byte	0
 2258 008f 00       		.byte	0
 2259 0090 0D       		.uleb128 0xd
 2260 0091 21       		.uleb128 0x21
 2261 0092 00       		.byte	0
 2262 0093 49       		.uleb128 0x49
 2263 0094 13       		.uleb128 0x13
 2264 0095 2F       		.uleb128 0x2f
 2265 0096 0B       		.uleb128 0xb
 2266 0097 00       		.byte	0
 2267 0098 00       		.byte	0
 2268 0099 0E       		.uleb128 0xe
 2269 009a 04       		.uleb128 0x4
 2270 009b 01       		.byte	0x1
 2271 009c 03       		.uleb128 0x3
 2272 009d 0E       		.uleb128 0xe
 2273 009e 0B       		.uleb128 0xb
 2274 009f 0B       		.uleb128 0xb
 2275 00a0 3A       		.uleb128 0x3a
 2276 00a1 0B       		.uleb128 0xb
 2277 00a2 3B       		.uleb128 0x3b
 2278 00a3 0B       		.uleb128 0xb
ARM GAS  /var/folders/5n/p_75w94d66l9ssrldxqdhh700000gn/T//ccWYmooo.s 			page 41


 2279 00a4 01       		.uleb128 0x1
 2280 00a5 13       		.uleb128 0x13
 2281 00a6 00       		.byte	0
 2282 00a7 00       		.byte	0
 2283 00a8 0F       		.uleb128 0xf
 2284 00a9 28       		.uleb128 0x28
 2285 00aa 00       		.byte	0
 2286 00ab 03       		.uleb128 0x3
 2287 00ac 0E       		.uleb128 0xe
 2288 00ad 1C       		.uleb128 0x1c
 2289 00ae 0D       		.uleb128 0xd
 2290 00af 00       		.byte	0
 2291 00b0 00       		.byte	0
 2292 00b1 10       		.uleb128 0x10
 2293 00b2 04       		.uleb128 0x4
 2294 00b3 01       		.byte	0x1
 2295 00b4 0B       		.uleb128 0xb
 2296 00b5 0B       		.uleb128 0xb
 2297 00b6 3A       		.uleb128 0x3a
 2298 00b7 0B       		.uleb128 0xb
 2299 00b8 3B       		.uleb128 0x3b
 2300 00b9 0B       		.uleb128 0xb
 2301 00ba 01       		.uleb128 0x1
 2302 00bb 13       		.uleb128 0x13
 2303 00bc 00       		.byte	0
 2304 00bd 00       		.byte	0
 2305 00be 11       		.uleb128 0x11
 2306 00bf 13       		.uleb128 0x13
 2307 00c0 01       		.byte	0x1
 2308 00c1 03       		.uleb128 0x3
 2309 00c2 0E       		.uleb128 0xe
 2310 00c3 0B       		.uleb128 0xb
 2311 00c4 05       		.uleb128 0x5
 2312 00c5 3A       		.uleb128 0x3a
 2313 00c6 0B       		.uleb128 0xb
 2314 00c7 3B       		.uleb128 0x3b
 2315 00c8 0B       		.uleb128 0xb
 2316 00c9 01       		.uleb128 0x1
 2317 00ca 13       		.uleb128 0x13
 2318 00cb 00       		.byte	0
 2319 00cc 00       		.byte	0
 2320 00cd 12       		.uleb128 0x12
 2321 00ce 2E       		.uleb128 0x2e
 2322 00cf 01       		.byte	0x1
 2323 00d0 3F       		.uleb128 0x3f
 2324 00d1 0C       		.uleb128 0xc
 2325 00d2 03       		.uleb128 0x3
 2326 00d3 0E       		.uleb128 0xe
 2327 00d4 3A       		.uleb128 0x3a
 2328 00d5 0B       		.uleb128 0xb
 2329 00d6 3B       		.uleb128 0x3b
 2330 00d7 0B       		.uleb128 0xb
 2331 00d8 27       		.uleb128 0x27
 2332 00d9 0C       		.uleb128 0xc
 2333 00da 49       		.uleb128 0x49
 2334 00db 13       		.uleb128 0x13
 2335 00dc 11       		.uleb128 0x11
ARM GAS  /var/folders/5n/p_75w94d66l9ssrldxqdhh700000gn/T//ccWYmooo.s 			page 42


 2336 00dd 01       		.uleb128 0x1
 2337 00de 12       		.uleb128 0x12
 2338 00df 01       		.uleb128 0x1
 2339 00e0 40       		.uleb128 0x40
 2340 00e1 06       		.uleb128 0x6
 2341 00e2 01       		.uleb128 0x1
 2342 00e3 13       		.uleb128 0x13
 2343 00e4 00       		.byte	0
 2344 00e5 00       		.byte	0
 2345 00e6 13       		.uleb128 0x13
 2346 00e7 05       		.uleb128 0x5
 2347 00e8 00       		.byte	0
 2348 00e9 03       		.uleb128 0x3
 2349 00ea 0E       		.uleb128 0xe
 2350 00eb 3A       		.uleb128 0x3a
 2351 00ec 0B       		.uleb128 0xb
 2352 00ed 3B       		.uleb128 0x3b
 2353 00ee 0B       		.uleb128 0xb
 2354 00ef 49       		.uleb128 0x49
 2355 00f0 13       		.uleb128 0x13
 2356 00f1 02       		.uleb128 0x2
 2357 00f2 06       		.uleb128 0x6
 2358 00f3 00       		.byte	0
 2359 00f4 00       		.byte	0
 2360 00f5 14       		.uleb128 0x14
 2361 00f6 34       		.uleb128 0x34
 2362 00f7 00       		.byte	0
 2363 00f8 03       		.uleb128 0x3
 2364 00f9 0E       		.uleb128 0xe
 2365 00fa 3A       		.uleb128 0x3a
 2366 00fb 0B       		.uleb128 0xb
 2367 00fc 3B       		.uleb128 0x3b
 2368 00fd 0B       		.uleb128 0xb
 2369 00fe 49       		.uleb128 0x49
 2370 00ff 13       		.uleb128 0x13
 2371 0100 02       		.uleb128 0x2
 2372 0101 06       		.uleb128 0x6
 2373 0102 00       		.byte	0
 2374 0103 00       		.byte	0
 2375 0104 15       		.uleb128 0x15
 2376 0105 05       		.uleb128 0x5
 2377 0106 00       		.byte	0
 2378 0107 03       		.uleb128 0x3
 2379 0108 08       		.uleb128 0x8
 2380 0109 3A       		.uleb128 0x3a
 2381 010a 0B       		.uleb128 0xb
 2382 010b 3B       		.uleb128 0x3b
 2383 010c 0B       		.uleb128 0xb
 2384 010d 49       		.uleb128 0x49
 2385 010e 13       		.uleb128 0x13
 2386 010f 02       		.uleb128 0x2
 2387 0110 06       		.uleb128 0x6
 2388 0111 00       		.byte	0
 2389 0112 00       		.byte	0
 2390 0113 16       		.uleb128 0x16
 2391 0114 0B       		.uleb128 0xb
 2392 0115 01       		.byte	0x1
ARM GAS  /var/folders/5n/p_75w94d66l9ssrldxqdhh700000gn/T//ccWYmooo.s 			page 43


 2393 0116 55       		.uleb128 0x55
 2394 0117 06       		.uleb128 0x6
 2395 0118 00       		.byte	0
 2396 0119 00       		.byte	0
 2397 011a 17       		.uleb128 0x17
 2398 011b 34       		.uleb128 0x34
 2399 011c 00       		.byte	0
 2400 011d 03       		.uleb128 0x3
 2401 011e 0E       		.uleb128 0xe
 2402 011f 3A       		.uleb128 0x3a
 2403 0120 0B       		.uleb128 0xb
 2404 0121 3B       		.uleb128 0x3b
 2405 0122 05       		.uleb128 0x5
 2406 0123 49       		.uleb128 0x49
 2407 0124 13       		.uleb128 0x13
 2408 0125 02       		.uleb128 0x2
 2409 0126 06       		.uleb128 0x6
 2410 0127 00       		.byte	0
 2411 0128 00       		.byte	0
 2412 0129 18       		.uleb128 0x18
 2413 012a 2E       		.uleb128 0x2e
 2414 012b 01       		.byte	0x1
 2415 012c 3F       		.uleb128 0x3f
 2416 012d 0C       		.uleb128 0xc
 2417 012e 03       		.uleb128 0x3
 2418 012f 0E       		.uleb128 0xe
 2419 0130 3A       		.uleb128 0x3a
 2420 0131 0B       		.uleb128 0xb
 2421 0132 3B       		.uleb128 0x3b
 2422 0133 05       		.uleb128 0x5
 2423 0134 27       		.uleb128 0x27
 2424 0135 0C       		.uleb128 0xc
 2425 0136 49       		.uleb128 0x49
 2426 0137 13       		.uleb128 0x13
 2427 0138 11       		.uleb128 0x11
 2428 0139 01       		.uleb128 0x1
 2429 013a 12       		.uleb128 0x12
 2430 013b 01       		.uleb128 0x1
 2431 013c 40       		.uleb128 0x40
 2432 013d 06       		.uleb128 0x6
 2433 013e 01       		.uleb128 0x1
 2434 013f 13       		.uleb128 0x13
 2435 0140 00       		.byte	0
 2436 0141 00       		.byte	0
 2437 0142 19       		.uleb128 0x19
 2438 0143 05       		.uleb128 0x5
 2439 0144 00       		.byte	0
 2440 0145 03       		.uleb128 0x3
 2441 0146 08       		.uleb128 0x8
 2442 0147 3A       		.uleb128 0x3a
 2443 0148 0B       		.uleb128 0xb
 2444 0149 3B       		.uleb128 0x3b
 2445 014a 05       		.uleb128 0x5
 2446 014b 49       		.uleb128 0x49
 2447 014c 13       		.uleb128 0x13
 2448 014d 02       		.uleb128 0x2
 2449 014e 06       		.uleb128 0x6
ARM GAS  /var/folders/5n/p_75w94d66l9ssrldxqdhh700000gn/T//ccWYmooo.s 			page 44


 2450 014f 00       		.byte	0
 2451 0150 00       		.byte	0
 2452 0151 1A       		.uleb128 0x1a
 2453 0152 05       		.uleb128 0x5
 2454 0153 00       		.byte	0
 2455 0154 03       		.uleb128 0x3
 2456 0155 0E       		.uleb128 0xe
 2457 0156 3A       		.uleb128 0x3a
 2458 0157 0B       		.uleb128 0xb
 2459 0158 3B       		.uleb128 0x3b
 2460 0159 05       		.uleb128 0x5
 2461 015a 49       		.uleb128 0x49
 2462 015b 13       		.uleb128 0x13
 2463 015c 02       		.uleb128 0x2
 2464 015d 06       		.uleb128 0x6
 2465 015e 00       		.byte	0
 2466 015f 00       		.byte	0
 2467 0160 1B       		.uleb128 0x1b
 2468 0161 05       		.uleb128 0x5
 2469 0162 00       		.byte	0
 2470 0163 03       		.uleb128 0x3
 2471 0164 08       		.uleb128 0x8
 2472 0165 3A       		.uleb128 0x3a
 2473 0166 0B       		.uleb128 0xb
 2474 0167 3B       		.uleb128 0x3b
 2475 0168 05       		.uleb128 0x5
 2476 0169 49       		.uleb128 0x49
 2477 016a 13       		.uleb128 0x13
 2478 016b 02       		.uleb128 0x2
 2479 016c 0A       		.uleb128 0xa
 2480 016d 00       		.byte	0
 2481 016e 00       		.byte	0
 2482 016f 1C       		.uleb128 0x1c
 2483 0170 05       		.uleb128 0x5
 2484 0171 00       		.byte	0
 2485 0172 03       		.uleb128 0x3
 2486 0173 0E       		.uleb128 0xe
 2487 0174 3A       		.uleb128 0x3a
 2488 0175 0B       		.uleb128 0xb
 2489 0176 3B       		.uleb128 0x3b
 2490 0177 05       		.uleb128 0x5
 2491 0178 49       		.uleb128 0x49
 2492 0179 13       		.uleb128 0x13
 2493 017a 02       		.uleb128 0x2
 2494 017b 0A       		.uleb128 0xa
 2495 017c 00       		.byte	0
 2496 017d 00       		.byte	0
 2497 017e 1D       		.uleb128 0x1d
 2498 017f 34       		.uleb128 0x34
 2499 0180 00       		.byte	0
 2500 0181 03       		.uleb128 0x3
 2501 0182 0E       		.uleb128 0xe
 2502 0183 3A       		.uleb128 0x3a
 2503 0184 0B       		.uleb128 0xb
 2504 0185 3B       		.uleb128 0x3b
 2505 0186 05       		.uleb128 0x5
 2506 0187 49       		.uleb128 0x49
ARM GAS  /var/folders/5n/p_75w94d66l9ssrldxqdhh700000gn/T//ccWYmooo.s 			page 45


 2507 0188 13       		.uleb128 0x13
 2508 0189 02       		.uleb128 0x2
 2509 018a 0A       		.uleb128 0xa
 2510 018b 00       		.byte	0
 2511 018c 00       		.byte	0
 2512 018d 1E       		.uleb128 0x1e
 2513 018e 34       		.uleb128 0x34
 2514 018f 00       		.byte	0
 2515 0190 03       		.uleb128 0x3
 2516 0191 0E       		.uleb128 0xe
 2517 0192 3A       		.uleb128 0x3a
 2518 0193 0B       		.uleb128 0xb
 2519 0194 3B       		.uleb128 0x3b
 2520 0195 0B       		.uleb128 0xb
 2521 0196 49       		.uleb128 0x49
 2522 0197 13       		.uleb128 0x13
 2523 0198 3F       		.uleb128 0x3f
 2524 0199 0C       		.uleb128 0xc
 2525 019a 3C       		.uleb128 0x3c
 2526 019b 0C       		.uleb128 0xc
 2527 019c 00       		.byte	0
 2528 019d 00       		.byte	0
 2529 019e 1F       		.uleb128 0x1f
 2530 019f 26       		.uleb128 0x26
 2531 01a0 00       		.byte	0
 2532 01a1 49       		.uleb128 0x49
 2533 01a2 13       		.uleb128 0x13
 2534 01a3 00       		.byte	0
 2535 01a4 00       		.byte	0
 2536 01a5 20       		.uleb128 0x20
 2537 01a6 34       		.uleb128 0x34
 2538 01a7 00       		.byte	0
 2539 01a8 03       		.uleb128 0x3
 2540 01a9 0E       		.uleb128 0xe
 2541 01aa 3A       		.uleb128 0x3a
 2542 01ab 0B       		.uleb128 0xb
 2543 01ac 3B       		.uleb128 0x3b
 2544 01ad 0B       		.uleb128 0xb
 2545 01ae 49       		.uleb128 0x49
 2546 01af 13       		.uleb128 0x13
 2547 01b0 02       		.uleb128 0x2
 2548 01b1 0A       		.uleb128 0xa
 2549 01b2 00       		.byte	0
 2550 01b3 00       		.byte	0
 2551 01b4 21       		.uleb128 0x21
 2552 01b5 34       		.uleb128 0x34
 2553 01b6 00       		.byte	0
 2554 01b7 03       		.uleb128 0x3
 2555 01b8 0E       		.uleb128 0xe
 2556 01b9 3A       		.uleb128 0x3a
 2557 01ba 0B       		.uleb128 0xb
 2558 01bb 3B       		.uleb128 0x3b
 2559 01bc 0B       		.uleb128 0xb
 2560 01bd 49       		.uleb128 0x49
 2561 01be 13       		.uleb128 0x13
 2562 01bf 3F       		.uleb128 0x3f
 2563 01c0 0C       		.uleb128 0xc
ARM GAS  /var/folders/5n/p_75w94d66l9ssrldxqdhh700000gn/T//ccWYmooo.s 			page 46


 2564 01c1 02       		.uleb128 0x2
 2565 01c2 0A       		.uleb128 0xa
 2566 01c3 00       		.byte	0
 2567 01c4 00       		.byte	0
 2568 01c5 00       		.byte	0
 2569              		.section	.debug_loc,"",%progbits
 2570              	.Ldebug_loc0:
 2571              	.LLST0:
 2572 0000 00000000 		.4byte	.LFB7
 2573 0004 02000000 		.4byte	.LCFI0
 2574 0008 0200     		.2byte	0x2
 2575 000a 7D       		.byte	0x7d
 2576 000b 00       		.sleb128 0
 2577 000c 02000000 		.4byte	.LCFI0
 2578 0010 4C000000 		.4byte	.LFE7
 2579 0014 0200     		.2byte	0x2
 2580 0016 7D       		.byte	0x7d
 2581 0017 04       		.sleb128 4
 2582 0018 00000000 		.4byte	0
 2583 001c 00000000 		.4byte	0
 2584              	.LLST1:
 2585 0020 00000000 		.4byte	.LVL0
 2586 0024 1E000000 		.4byte	.LVL3
 2587 0028 0100     		.2byte	0x1
 2588 002a 50       		.byte	0x50
 2589 002b 22000000 		.4byte	.LVL4
 2590 002f 4C000000 		.4byte	.LFE7
 2591 0033 0100     		.2byte	0x1
 2592 0035 50       		.byte	0x50
 2593 0036 00000000 		.4byte	0
 2594 003a 00000000 		.4byte	0
 2595              	.LLST2:
 2596 003e 06000000 		.4byte	.LVL1
 2597 0042 1C000000 		.4byte	.LVL2
 2598 0046 0100     		.2byte	0x1
 2599 0048 53       		.byte	0x53
 2600 0049 22000000 		.4byte	.LVL4
 2601 004d 24000000 		.4byte	.LVL5
 2602 0051 0100     		.2byte	0x1
 2603 0053 53       		.byte	0x53
 2604 0054 00000000 		.4byte	0
 2605 0058 00000000 		.4byte	0
 2606              	.LLST3:
 2607 005c 00000000 		.4byte	.LFB8
 2608 0060 04000000 		.4byte	.LCFI1
 2609 0064 0200     		.2byte	0x2
 2610 0066 7D       		.byte	0x7d
 2611 0067 00       		.sleb128 0
 2612 0068 04000000 		.4byte	.LCFI1
 2613 006c 54020000 		.4byte	.LFE8
 2614 0070 0200     		.2byte	0x2
 2615 0072 7D       		.byte	0x7d
 2616 0073 28       		.sleb128 40
 2617 0074 00000000 		.4byte	0
 2618 0078 00000000 		.4byte	0
 2619              	.LLST4:
 2620 007c 00000000 		.4byte	.LVL6
ARM GAS  /var/folders/5n/p_75w94d66l9ssrldxqdhh700000gn/T//ccWYmooo.s 			page 47


 2621 0080 18000000 		.4byte	.LVL8
 2622 0084 0100     		.2byte	0x1
 2623 0086 50       		.byte	0x50
 2624 0087 44000000 		.4byte	.LVL10
 2625 008b 60010000 		.4byte	.LVL22
 2626 008f 0100     		.2byte	0x1
 2627 0091 56       		.byte	0x56
 2628 0092 60010000 		.4byte	.LVL22
 2629 0096 6A010000 		.4byte	.LVL23
 2630 009a 0100     		.2byte	0x1
 2631 009c 50       		.byte	0x50
 2632 009d 6A010000 		.4byte	.LVL23
 2633 00a1 54020000 		.4byte	.LFE8
 2634 00a5 0100     		.2byte	0x1
 2635 00a7 56       		.byte	0x56
 2636 00a8 00000000 		.4byte	0
 2637 00ac 00000000 		.4byte	0
 2638              	.LLST5:
 2639 00b0 00000000 		.4byte	.LVL6
 2640 00b4 21000000 		.4byte	.LVL9-1
 2641 00b8 0100     		.2byte	0x1
 2642 00ba 51       		.byte	0x51
 2643 00bb 21000000 		.4byte	.LVL9-1
 2644 00bf 54020000 		.4byte	.LFE8
 2645 00c3 0100     		.2byte	0x1
 2646 00c5 58       		.byte	0x58
 2647 00c6 00000000 		.4byte	0
 2648 00ca 00000000 		.4byte	0
 2649              	.LLST6:
 2650 00ce 08000000 		.4byte	.LVL7
 2651 00d2 18000000 		.4byte	.LVL8
 2652 00d6 0200     		.2byte	0x2
 2653 00d8 70       		.byte	0x70
 2654 00d9 04       		.sleb128 4
 2655 00da 18000000 		.4byte	.LVL8
 2656 00de 21000000 		.4byte	.LVL9-1
 2657 00e2 0200     		.2byte	0x2
 2658 00e4 76       		.byte	0x76
 2659 00e5 04       		.sleb128 4
 2660 00e6 21000000 		.4byte	.LVL9-1
 2661 00ea 54020000 		.4byte	.LFE8
 2662 00ee 0100     		.2byte	0x1
 2663 00f0 55       		.byte	0x55
 2664 00f1 00000000 		.4byte	0
 2665 00f5 00000000 		.4byte	0
 2666              	.LLST7:
 2667 00f9 EE000000 		.4byte	.LVL16
 2668 00fd F2000000 		.4byte	.LVL17
 2669 0101 0100     		.2byte	0x1
 2670 0103 58       		.byte	0x58
 2671 0104 F2000000 		.4byte	.LVL17
 2672 0108 70010000 		.4byte	.LVL24
 2673 010c 0100     		.2byte	0x1
 2674 010e 57       		.byte	0x57
 2675 010f E2010000 		.4byte	.LVL25
 2676 0113 F8010000 		.4byte	.LVL28
 2677 0117 0100     		.2byte	0x1
ARM GAS  /var/folders/5n/p_75w94d66l9ssrldxqdhh700000gn/T//ccWYmooo.s 			page 48


 2678 0119 57       		.byte	0x57
 2679 011a 32020000 		.4byte	.LVL30
 2680 011e 54020000 		.4byte	.LFE8
 2681 0122 0100     		.2byte	0x1
 2682 0124 57       		.byte	0x57
 2683 0125 00000000 		.4byte	0
 2684 0129 00000000 		.4byte	0
 2685              	.LLST8:
 2686 012d 5E000000 		.4byte	.LVL11
 2687 0131 F2000000 		.4byte	.LVL17
 2688 0135 0100     		.2byte	0x1
 2689 0137 59       		.byte	0x59
 2690 0138 F8010000 		.4byte	.LVL28
 2691 013c 14020000 		.4byte	.LVL29
 2692 0140 0100     		.2byte	0x1
 2693 0142 59       		.byte	0x59
 2694 0143 00000000 		.4byte	0
 2695 0147 00000000 		.4byte	0
 2696              	.LLST9:
 2697 014b 70000000 		.4byte	.LVL13
 2698 014f 7A000000 		.4byte	.LVL14
 2699 0153 0100     		.2byte	0x1
 2700 0155 50       		.byte	0x50
 2701 0156 7A000000 		.4byte	.LVL14
 2702 015a EC000000 		.4byte	.LVL15
 2703 015e 0100     		.2byte	0x1
 2704 0160 57       		.byte	0x57
 2705 0161 F8010000 		.4byte	.LVL28
 2706 0165 14020000 		.4byte	.LVL29
 2707 0169 0100     		.2byte	0x1
 2708 016b 57       		.byte	0x57
 2709 016c 00000000 		.4byte	0
 2710 0170 00000000 		.4byte	0
 2711              	.LLST10:
 2712 0174 EE000000 		.4byte	.LVL16
 2713 0178 F2000000 		.4byte	.LVL17
 2714 017c 0200     		.2byte	0x2
 2715 017e 31       		.byte	0x31
 2716 017f 9F       		.byte	0x9f
 2717 0180 F2000000 		.4byte	.LVL17
 2718 0184 14010000 		.4byte	.LVL18
 2719 0188 0100     		.2byte	0x1
 2720 018a 59       		.byte	0x59
 2721 018b 14010000 		.4byte	.LVL18
 2722 018f 26010000 		.4byte	.LVL21
 2723 0193 0200     		.2byte	0x2
 2724 0195 30       		.byte	0x30
 2725 0196 9F       		.byte	0x9f
 2726 0197 E2010000 		.4byte	.LVL25
 2727 019b E6010000 		.4byte	.LVL27
 2728 019f 0100     		.2byte	0x1
 2729 01a1 59       		.byte	0x59
 2730 01a2 00000000 		.4byte	0
 2731 01a6 00000000 		.4byte	0
 2732              	.LLST11:
 2733 01aa 00000000 		.4byte	.LFB9
 2734 01ae 04000000 		.4byte	.LCFI2
ARM GAS  /var/folders/5n/p_75w94d66l9ssrldxqdhh700000gn/T//ccWYmooo.s 			page 49


 2735 01b2 0200     		.2byte	0x2
 2736 01b4 7D       		.byte	0x7d
 2737 01b5 00       		.sleb128 0
 2738 01b6 04000000 		.4byte	.LCFI2
 2739 01ba 06000000 		.4byte	.LCFI3
 2740 01be 0200     		.2byte	0x2
 2741 01c0 7D       		.byte	0x7d
 2742 01c1 24       		.sleb128 36
 2743 01c2 06000000 		.4byte	.LCFI3
 2744 01c6 90010000 		.4byte	.LFE9
 2745 01ca 0300     		.2byte	0x3
 2746 01cc 7D       		.byte	0x7d
 2747 01cd C000     		.sleb128 64
 2748 01cf 00000000 		.4byte	0
 2749 01d3 00000000 		.4byte	0
 2750              	.LLST12:
 2751 01d7 00000000 		.4byte	.LVL31
 2752 01db 1D000000 		.4byte	.LVL33-1
 2753 01df 0100     		.2byte	0x1
 2754 01e1 50       		.byte	0x50
 2755 01e2 1D000000 		.4byte	.LVL33-1
 2756 01e6 90010000 		.4byte	.LFE9
 2757 01ea 0100     		.2byte	0x1
 2758 01ec 54       		.byte	0x54
 2759 01ed 00000000 		.4byte	0
 2760 01f1 00000000 		.4byte	0
 2761              	.LLST13:
 2762 01f5 00000000 		.4byte	.LVL31
 2763 01f9 0C000000 		.4byte	.LVL32
 2764 01fd 0100     		.2byte	0x1
 2765 01ff 51       		.byte	0x51
 2766 0200 0C000000 		.4byte	.LVL32
 2767 0204 90010000 		.4byte	.LFE9
 2768 0208 0200     		.2byte	0x2
 2769 020a 91       		.byte	0x91
 2770 020b 4C       		.sleb128 -52
 2771 020c 00000000 		.4byte	0
 2772 0210 00000000 		.4byte	0
 2773              	.LLST14:
 2774 0214 00000000 		.4byte	.LVL31
 2775 0218 1D000000 		.4byte	.LVL33-1
 2776 021c 0100     		.2byte	0x1
 2777 021e 52       		.byte	0x52
 2778 021f 1D000000 		.4byte	.LVL33-1
 2779 0223 5C010000 		.4byte	.LVL46
 2780 0227 0100     		.2byte	0x1
 2781 0229 57       		.byte	0x57
 2782 022a 64010000 		.4byte	.LVL47
 2783 022e 66010000 		.4byte	.LVL48
 2784 0232 0300     		.2byte	0x3
 2785 0234 91       		.byte	0x91
 2786 0235 54       		.sleb128 -44
 2787 0236 9F       		.byte	0x9f
 2788 0237 66010000 		.4byte	.LVL48
 2789 023b 90010000 		.4byte	.LFE9
 2790 023f 0100     		.2byte	0x1
 2791 0241 57       		.byte	0x57
ARM GAS  /var/folders/5n/p_75w94d66l9ssrldxqdhh700000gn/T//ccWYmooo.s 			page 50


 2792 0242 00000000 		.4byte	0
 2793 0246 00000000 		.4byte	0
 2794              	.LLST15:
 2795 024a 00000000 		.4byte	.LVL31
 2796 024e 1D000000 		.4byte	.LVL33-1
 2797 0252 0100     		.2byte	0x1
 2798 0254 53       		.byte	0x53
 2799 0255 00000000 		.4byte	0
 2800 0259 00000000 		.4byte	0
 2801              	.LLST16:
 2802 025d 38000000 		.4byte	.LVL35
 2803 0261 3E000000 		.4byte	.LVL36
 2804 0265 0200     		.2byte	0x2
 2805 0267 74       		.byte	0x74
 2806 0268 04       		.sleb128 4
 2807 0269 3E000000 		.4byte	.LVL36
 2808 026d 1C010000 		.4byte	.LVL43
 2809 0271 0100     		.2byte	0x1
 2810 0273 59       		.byte	0x59
 2811 0274 44010000 		.4byte	.LVL44
 2812 0278 48010000 		.4byte	.LVL45
 2813 027c 0100     		.2byte	0x1
 2814 027e 59       		.byte	0x59
 2815 027f 48010000 		.4byte	.LVL45
 2816 0283 66010000 		.4byte	.LVL48
 2817 0287 0200     		.2byte	0x2
 2818 0289 74       		.byte	0x74
 2819 028a 04       		.sleb128 4
 2820 028b 66010000 		.4byte	.LVL48
 2821 028f 6C010000 		.4byte	.LVL49
 2822 0293 0100     		.2byte	0x1
 2823 0295 59       		.byte	0x59
 2824 0296 00000000 		.4byte	0
 2825 029a 00000000 		.4byte	0
 2826              	.LLST17:
 2827 029e 00000000 		.4byte	.LVL31
 2828 02a2 CE000000 		.4byte	.LVL37
 2829 02a6 0200     		.2byte	0x2
 2830 02a8 30       		.byte	0x30
 2831 02a9 9F       		.byte	0x9f
 2832 02aa F8000000 		.4byte	.LVL38
 2833 02ae 02010000 		.4byte	.LVL40
 2834 02b2 0100     		.2byte	0x1
 2835 02b4 53       		.byte	0x53
 2836 02b5 02010000 		.4byte	.LVL40
 2837 02b9 04010000 		.4byte	.LVL41
 2838 02bd 0400     		.2byte	0x4
 2839 02bf 73       		.byte	0x73
 2840 02c0 00       		.sleb128 0
 2841 02c1 20       		.byte	0x20
 2842 02c2 9F       		.byte	0x9f
 2843 02c3 04010000 		.4byte	.LVL41
 2844 02c7 06010000 		.4byte	.LVL42
 2845 02cb 0100     		.2byte	0x1
 2846 02cd 53       		.byte	0x53
 2847 02ce 48010000 		.4byte	.LVL45
 2848 02d2 6C010000 		.4byte	.LVL49
ARM GAS  /var/folders/5n/p_75w94d66l9ssrldxqdhh700000gn/T//ccWYmooo.s 			page 51


 2849 02d6 0200     		.2byte	0x2
 2850 02d8 30       		.byte	0x30
 2851 02d9 9F       		.byte	0x9f
 2852 02da 78010000 		.4byte	.LVL50
 2853 02de 90010000 		.4byte	.LFE9
 2854 02e2 0200     		.2byte	0x2
 2855 02e4 30       		.byte	0x30
 2856 02e5 9F       		.byte	0x9f
 2857 02e6 00000000 		.4byte	0
 2858 02ea 00000000 		.4byte	0
 2859              	.LLST18:
 2860 02ee 24000000 		.4byte	.LVL34
 2861 02f2 1C010000 		.4byte	.LVL43
 2862 02f6 0200     		.2byte	0x2
 2863 02f8 44       		.byte	0x44
 2864 02f9 9F       		.byte	0x9f
 2865 02fa 44010000 		.4byte	.LVL44
 2866 02fe 48010000 		.4byte	.LVL45
 2867 0302 0200     		.2byte	0x2
 2868 0304 44       		.byte	0x44
 2869 0305 9F       		.byte	0x9f
 2870 0306 66010000 		.4byte	.LVL48
 2871 030a 6C010000 		.4byte	.LVL49
 2872 030e 0200     		.2byte	0x2
 2873 0310 44       		.byte	0x44
 2874 0311 9F       		.byte	0x9f
 2875 0312 78010000 		.4byte	.LVL50
 2876 0316 90010000 		.4byte	.LFE9
 2877 031a 0200     		.2byte	0x2
 2878 031c 44       		.byte	0x44
 2879 031d 9F       		.byte	0x9f
 2880 031e 00000000 		.4byte	0
 2881 0322 00000000 		.4byte	0
 2882              	.LLST19:
 2883 0326 00000000 		.4byte	.LFB10
 2884 032a 04000000 		.4byte	.LCFI4
 2885 032e 0200     		.2byte	0x2
 2886 0330 7D       		.byte	0x7d
 2887 0331 00       		.sleb128 0
 2888 0332 04000000 		.4byte	.LCFI4
 2889 0336 0C000000 		.4byte	.LCFI5
 2890 033a 0200     		.2byte	0x2
 2891 033c 7D       		.byte	0x7d
 2892 033d 18       		.sleb128 24
 2893 033e 0C000000 		.4byte	.LCFI5
 2894 0342 58000000 		.4byte	.LFE10
 2895 0346 0200     		.2byte	0x2
 2896 0348 7D       		.byte	0x7d
 2897 0349 28       		.sleb128 40
 2898 034a 00000000 		.4byte	0
 2899 034e 00000000 		.4byte	0
 2900              	.LLST20:
 2901 0352 00000000 		.4byte	.LVL51
 2902 0356 17000000 		.4byte	.LVL53-1
 2903 035a 0100     		.2byte	0x1
 2904 035c 50       		.byte	0x50
 2905 035d 17000000 		.4byte	.LVL53-1
ARM GAS  /var/folders/5n/p_75w94d66l9ssrldxqdhh700000gn/T//ccWYmooo.s 			page 52


 2906 0361 28000000 		.4byte	.LVL56
 2907 0365 0100     		.2byte	0x1
 2908 0367 55       		.byte	0x55
 2909 0368 28000000 		.4byte	.LVL56
 2910 036c 3B000000 		.4byte	.LVL57-1
 2911 0370 0100     		.2byte	0x1
 2912 0372 50       		.byte	0x50
 2913 0373 44000000 		.4byte	.LVL58
 2914 0377 58000000 		.4byte	.LFE10
 2915 037b 0100     		.2byte	0x1
 2916 037d 55       		.byte	0x55
 2917 037e 00000000 		.4byte	0
 2918 0382 00000000 		.4byte	0
 2919              	.LLST21:
 2920 0386 00000000 		.4byte	.LVL51
 2921 038a 08000000 		.4byte	.LVL52
 2922 038e 0100     		.2byte	0x1
 2923 0390 51       		.byte	0x51
 2924 0391 08000000 		.4byte	.LVL52
 2925 0395 58000000 		.4byte	.LFE10
 2926 0399 0100     		.2byte	0x1
 2927 039b 58       		.byte	0x58
 2928 039c 00000000 		.4byte	0
 2929 03a0 00000000 		.4byte	0
 2930              	.LLST22:
 2931 03a4 00000000 		.4byte	.LVL51
 2932 03a8 17000000 		.4byte	.LVL53-1
 2933 03ac 0100     		.2byte	0x1
 2934 03ae 52       		.byte	0x52
 2935 03af 17000000 		.4byte	.LVL53-1
 2936 03b3 58000000 		.4byte	.LFE10
 2937 03b7 0100     		.2byte	0x1
 2938 03b9 56       		.byte	0x56
 2939 03ba 00000000 		.4byte	0
 2940 03be 00000000 		.4byte	0
 2941              	.LLST23:
 2942 03c2 00000000 		.4byte	.LVL51
 2943 03c6 17000000 		.4byte	.LVL53-1
 2944 03ca 0100     		.2byte	0x1
 2945 03cc 53       		.byte	0x53
 2946 03cd 00000000 		.4byte	0
 2947 03d1 00000000 		.4byte	0
 2948              	.LLST24:
 2949 03d5 1E000000 		.4byte	.LVL54
 2950 03d9 24000000 		.4byte	.LVL55
 2951 03dd 0100     		.2byte	0x1
 2952 03df 50       		.byte	0x50
 2953 03e0 24000000 		.4byte	.LVL55
 2954 03e4 58000000 		.4byte	.LFE10
 2955 03e8 0100     		.2byte	0x1
 2956 03ea 54       		.byte	0x54
 2957 03eb 00000000 		.4byte	0
 2958 03ef 00000000 		.4byte	0
 2959              		.section	.debug_aranges,"",%progbits
 2960 0000 34000000 		.4byte	0x34
 2961 0004 0200     		.2byte	0x2
 2962 0006 00000000 		.4byte	.Ldebug_info0
ARM GAS  /var/folders/5n/p_75w94d66l9ssrldxqdhh700000gn/T//ccWYmooo.s 			page 53


 2963 000a 04       		.byte	0x4
 2964 000b 00       		.byte	0
 2965 000c 0000     		.2byte	0
 2966 000e 0000     		.2byte	0
 2967 0010 00000000 		.4byte	.LFB7
 2968 0014 4C000000 		.4byte	.LFE7-.LFB7
 2969 0018 00000000 		.4byte	.LFB8
 2970 001c 54020000 		.4byte	.LFE8-.LFB8
 2971 0020 00000000 		.4byte	.LFB9
 2972 0024 90010000 		.4byte	.LFE9-.LFB9
 2973 0028 00000000 		.4byte	.LFB10
 2974 002c 58000000 		.4byte	.LFE10-.LFB10
 2975 0030 00000000 		.4byte	0
 2976 0034 00000000 		.4byte	0
 2977              		.section	.debug_ranges,"",%progbits
 2978              	.Ldebug_ranges0:
 2979 0000 BA000000 		.4byte	.LBB2
 2980 0004 BE000000 		.4byte	.LBE2
 2981 0008 F2000000 		.4byte	.LBB3
 2982 000c 26010000 		.4byte	.LBE3
 2983 0010 E2010000 		.4byte	.LBB4
 2984 0014 E6010000 		.4byte	.LBE4
 2985 0018 00000000 		.4byte	0
 2986 001c 00000000 		.4byte	0
 2987 0020 24000000 		.4byte	.LBB5
 2988 0024 1C010000 		.4byte	.LBE5
 2989 0028 44010000 		.4byte	.LBB6
 2990 002c 48010000 		.4byte	.LBE6
 2991 0030 66010000 		.4byte	.LBB7
 2992 0034 6C010000 		.4byte	.LBE7
 2993 0038 78010000 		.4byte	.LBB8
 2994 003c 90010000 		.4byte	.LBE8
 2995 0040 00000000 		.4byte	0
 2996 0044 00000000 		.4byte	0
 2997 0048 00000000 		.4byte	.LFB7
 2998 004c 4C000000 		.4byte	.LFE7
 2999 0050 00000000 		.4byte	.LFB8
 3000 0054 54020000 		.4byte	.LFE8
 3001 0058 00000000 		.4byte	.LFB9
 3002 005c 90010000 		.4byte	.LFE9
 3003 0060 00000000 		.4byte	.LFB10
 3004 0064 58000000 		.4byte	.LFE10
 3005 0068 00000000 		.4byte	0
 3006 006c 00000000 		.4byte	0
 3007              		.section	.debug_line,"",%progbits
 3008              	.Ldebug_line0:
 3009 0000 17030000 		.section	.debug_str,"MS",%progbits,1
 3009      02006001 
 3009      00000201 
 3009      FB0E0D00 
 3009      01010101 
 3010              	.LASF60:
 3011 0000 4D454D50 		.ascii	"MEMP_TCP_PCB_LISTEN\000"
 3011      5F544350 
 3011      5F504342 
 3011      5F4C4953 
 3011      54454E00 
ARM GAS  /var/folders/5n/p_75w94d66l9ssrldxqdhh700000gn/T//ccWYmooo.s 			page 54


 3012              	.LASF52:
 3013 0014 49434D50 		.ascii	"ICMP_DUR_HOST\000"
 3013      5F445552 
 3013      5F484F53 
 3013      5400
 3014              	.LASF32:
 3015 0022 696E7075 		.ascii	"input\000"
 3015      7400
 3016              	.LASF23:
 3017 0028 666C6167 		.ascii	"flags\000"
 3017      7300
 3018              	.LASF62:
 3019 002e 4D454D50 		.ascii	"MEMP_REASSDATA\000"
 3019      5F524541 
 3019      53534441 
 3019      544100
 3020              	.LASF0:
 3021 003d 756E7369 		.ascii	"unsigned int\000"
 3021      676E6564 
 3021      20696E74 
 3021      00
 3022              	.LASF19:
 3023 004a 6E657874 		.ascii	"next\000"
 3023      00
 3024              	.LASF51:
 3025 004f 49434D50 		.ascii	"ICMP_DUR_NET\000"
 3025      5F445552 
 3025      5F4E4554 
 3025      00
 3026              	.LASF18:
 3027 005c 6572725F 		.ascii	"err_t\000"
 3027      7400
 3028              	.LASF34:
 3029 0062 6C696E6B 		.ascii	"linkoutput\000"
 3029      6F757470 
 3029      757400
 3030              	.LASF16:
 3031 006d 7531365F 		.ascii	"u16_t\000"
 3031      7400
 3032              	.LASF46:
 3033 0073 5F74746C 		.ascii	"_ttl\000"
 3033      00
 3034              	.LASF92:
 3035 0078 6C696E6B 		.ascii	"link\000"
 3035      00
 3036              	.LASF83:
 3037 007d 73746174 		.ascii	"stats_mem\000"
 3037      735F6D65 
 3037      6D00
 3038              	.LASF40:
 3039 0087 6E657469 		.ascii	"netif_output_fn\000"
 3039      665F6F75 
 3039      74707574 
 3039      5F666E00 
 3040              	.LASF70:
 3041 0097 4D454D50 		.ascii	"MEMP_PBUF_POOL\000"
 3041      5F504255 
ARM GAS  /var/folders/5n/p_75w94d66l9ssrldxqdhh700000gn/T//ccWYmooo.s 			page 55


 3041      465F504F 
 3041      4F4C00
 3042              	.LASF115:
 3043 00a6 6C776970 		.ascii	"lwip_stats\000"
 3043      5F737461 
 3043      747300
 3044              	.LASF87:
 3045 00b1 73746174 		.ascii	"stats_syselem\000"
 3045      735F7379 
 3045      73656C65 
 3045      6D00
 3046              	.LASF39:
 3047 00bf 6E657469 		.ascii	"netif_input_fn\000"
 3047      665F696E 
 3047      7075745F 
 3047      666E00
 3048              	.LASF9:
 3049 00ce 75696E74 		.ascii	"uint32_t\000"
 3049      33325F74 
 3049      00
 3050              	.LASF2:
 3051 00d7 696E7438 		.ascii	"int8_t\000"
 3051      5F7400
 3052              	.LASF66:
 3053 00de 4D454D50 		.ascii	"MEMP_TCPIP_MSG_API\000"
 3053      5F544350 
 3053      49505F4D 
 3053      53475F41 
 3053      504900
 3054              	.LASF81:
 3055 00f1 6F707465 		.ascii	"opterr\000"
 3055      727200
 3056              	.LASF89:
 3057 00f8 6D757465 		.ascii	"mutex\000"
 3057      7800
 3058              	.LASF94:
 3059 00fe 69705F66 		.ascii	"ip_frag\000"
 3059      72616700 
 3060              	.LASF86:
 3061 0106 696C6C65 		.ascii	"illegal\000"
 3061      67616C00 
 3062              	.LASF109:
 3063 010e 6E657469 		.ascii	"netif_list\000"
 3063      665F6C69 
 3063      737400
 3064              	.LASF37:
 3065 0119 68776164 		.ascii	"hwaddr\000"
 3065      647200
 3066              	.LASF93:
 3067 0120 65746861 		.ascii	"etharp\000"
 3067      727000
 3068              	.LASF12:
 3069 0127 6C6F6E67 		.ascii	"long long unsigned int\000"
 3069      206C6F6E 
 3069      6720756E 
 3069      7369676E 
 3069      65642069 
ARM GAS  /var/folders/5n/p_75w94d66l9ssrldxqdhh700000gn/T//ccWYmooo.s 			page 56


 3070              	.LASF113:
 3071 013e 63757272 		.ascii	"current_iphdr_src\000"
 3071      656E745F 
 3071      69706864 
 3071      725F7372 
 3071      6300
 3072              	.LASF107:
 3073 0150 69705F68 		.ascii	"ip_hlen\000"
 3073      6C656E00 
 3074              	.LASF48:
 3075 0158 5F63686B 		.ascii	"_chksum\000"
 3075      73756D00 
 3076              	.LASF36:
 3077 0160 68776164 		.ascii	"hwaddr_len\000"
 3077      64725F6C 
 3077      656E00
 3078              	.LASF45:
 3079 016b 5F6F6666 		.ascii	"_offset\000"
 3079      73657400 
 3080              	.LASF56:
 3081 0173 49434D50 		.ascii	"ICMP_DUR_SR\000"
 3081      5F445552 
 3081      5F535200 
 3082              	.LASF67:
 3083 017f 4D454D50 		.ascii	"MEMP_TCPIP_MSG_INPKT\000"
 3083      5F544350 
 3083      49505F4D 
 3083      53475F49 
 3083      4E504B54 
 3084              	.LASF85:
 3085 0194 75736564 		.ascii	"used\000"
 3085      00
 3086              	.LASF91:
 3087 0199 73746174 		.ascii	"stats_\000"
 3087      735F00
 3088              	.LASF108:
 3089 01a0 69705F6F 		.ascii	"ip_output\000"
 3089      75747075 
 3089      7400
 3090              	.LASF21:
 3091 01aa 746F745F 		.ascii	"tot_len\000"
 3091      6C656E00 
 3092              	.LASF20:
 3093 01b2 7061796C 		.ascii	"payload\000"
 3093      6F616400 
 3094              	.LASF33:
 3095 01ba 6F757470 		.ascii	"output\000"
 3095      757400
 3096              	.LASF24:
 3097 01c1 70627566 		.ascii	"pbuf\000"
 3097      00
 3098              	.LASF71:
 3099 01c6 4D454D50 		.ascii	"MEMP_MAX\000"
 3099      5F4D4158 
 3099      00
 3100              	.LASF15:
 3101 01cf 73385F74 		.ascii	"s8_t\000"
ARM GAS  /var/folders/5n/p_75w94d66l9ssrldxqdhh700000gn/T//ccWYmooo.s 			page 57


 3101      00
 3102              	.LASF112:
 3103 01d4 63757272 		.ascii	"current_header\000"
 3103      656E745F 
 3103      68656164 
 3103      657200
 3104              	.LASF65:
 3105 01e3 4D454D50 		.ascii	"MEMP_NETCONN\000"
 3105      5F4E4554 
 3105      434F4E4E 
 3105      00
 3106              	.LASF69:
 3107 01f0 4D454D50 		.ascii	"MEMP_PBUF\000"
 3107      5F504255 
 3107      4600
 3108              	.LASF13:
 3109 01fa 63686172 		.ascii	"char\000"
 3109      00
 3110              	.LASF117:
 3111 01ff 474E5520 		.ascii	"GNU C 4.6.2 20111004 (prerelease)\000"
 3111      4320342E 
 3111      362E3220 
 3111      32303131 
 3111      31303034 
 3112              	.LASF50:
 3113 0221 6D656D5F 		.ascii	"mem_size_t\000"
 3113      73697A65 
 3113      5F7400
 3114              	.LASF72:
 3115 022c 73746174 		.ascii	"stats_proto\000"
 3115      735F7072 
 3115      6F746F00 
 3116              	.LASF27:
 3117 0238 69705F61 		.ascii	"ip_addr_packed\000"
 3117      6464725F 
 3117      7061636B 
 3117      656400
 3118              	.LASF104:
 3119 0247 70726F74 		.ascii	"proto\000"
 3119      6F00
 3120              	.LASF3:
 3121 024d 75696E74 		.ascii	"uint8_t\000"
 3121      385F7400 
 3122              	.LASF22:
 3123 0255 74797065 		.ascii	"type\000"
 3123      00
 3124              	.LASF47:
 3125 025a 5F70726F 		.ascii	"_proto\000"
 3125      746F00
 3126              	.LASF64:
 3127 0261 4D454D50 		.ascii	"MEMP_NETBUF\000"
 3127      5F4E4554 
 3127      42554600 
 3128              	.LASF31:
 3129 026d 6E65746D 		.ascii	"netmask\000"
 3129      61736B00 
 3130              	.LASF11:
ARM GAS  /var/folders/5n/p_75w94d66l9ssrldxqdhh700000gn/T//ccWYmooo.s 			page 58


 3131 0275 6C6F6E67 		.ascii	"long long int\000"
 3131      206C6F6E 
 3131      6720696E 
 3131      7400
 3132              	.LASF59:
 3133 0283 4D454D50 		.ascii	"MEMP_TCP_PCB\000"
 3133      5F544350 
 3133      5F504342 
 3133      00
 3134              	.LASF96:
 3135 0290 6D656D70 		.ascii	"memp\000"
 3135      00
 3136              	.LASF14:
 3137 0295 75385F74 		.ascii	"u8_t\000"
 3137      00
 3138              	.LASF106:
 3139 029a 63686B5F 		.ascii	"chk_sum\000"
 3139      73756D00 
 3140              	.LASF119:
 3141 02a2 2F557365 		.ascii	"/Users/sin/Documents/Eclipse/Workspace/mabl-ChibiOS"
 3141      72732F73 
 3141      696E2F44 
 3141      6F63756D 
 3141      656E7473 
 3142 02d5 2D322E35 		.ascii	"-2.5.1/demos/ARMCM4-STM32F407-LWIP\000"
 3142      2E312F64 
 3142      656D6F73 
 3142      2F41524D 
 3142      434D342D 
 3143              	.LASF76:
 3144 02f8 63686B65 		.ascii	"chkerr\000"
 3144      727200
 3145              	.LASF54:
 3146 02ff 49434D50 		.ascii	"ICMP_DUR_PORT\000"
 3146      5F445552 
 3146      5F504F52 
 3146      5400
 3147              	.LASF110:
 3148 030d 6E657469 		.ascii	"netif_default\000"
 3148      665F6465 
 3148      6661756C 
 3148      7400
 3149              	.LASF98:
 3150 031b 69705F69 		.ascii	"ip_input\000"
 3150      6E707574 
 3150      00
 3151              	.LASF6:
 3152 0324 75696E74 		.ascii	"uint16_t\000"
 3152      31365F74 
 3152      00
 3153              	.LASF116:
 3154 032d 69705F69 		.ascii	"ip_id\000"
 3154      6400
 3155              	.LASF43:
 3156 0333 5F765F68 		.ascii	"_v_hl_tos\000"
 3156      6C5F746F 
 3156      7300
ARM GAS  /var/folders/5n/p_75w94d66l9ssrldxqdhh700000gn/T//ccWYmooo.s 			page 59


 3157              	.LASF111:
 3158 033d 63757272 		.ascii	"current_netif\000"
 3158      656E745F 
 3158      6E657469 
 3158      6600
 3159              	.LASF17:
 3160 034b 7533325F 		.ascii	"u32_t\000"
 3160      7400
 3161              	.LASF5:
 3162 0351 73686F72 		.ascii	"short int\000"
 3162      7420696E 
 3162      7400
 3163              	.LASF95:
 3164 035b 69636D70 		.ascii	"icmp\000"
 3164      00
 3165              	.LASF8:
 3166 0360 6C6F6E67 		.ascii	"long int\000"
 3166      20696E74 
 3166      00
 3167              	.LASF79:
 3168 0369 72746572 		.ascii	"rterr\000"
 3168      7200
 3169              	.LASF84:
 3170 036f 61766169 		.ascii	"avail\000"
 3170      6C00
 3171              	.LASF68:
 3172 0375 4D454D50 		.ascii	"MEMP_SYS_TIMEOUT\000"
 3172      5F535953 
 3172      5F54494D 
 3172      454F5554 
 3172      00
 3173              	.LASF58:
 3174 0386 4D454D50 		.ascii	"MEMP_UDP_PCB\000"
 3174      5F554450 
 3174      5F504342 
 3174      00
 3175              	.LASF90:
 3176 0393 6D626F78 		.ascii	"mbox\000"
 3176      00
 3177              	.LASF82:
 3178 0398 63616368 		.ascii	"cachehit\000"
 3178      65686974 
 3178      00
 3179              	.LASF103:
 3180 03a1 69705F6F 		.ascii	"ip_output_if\000"
 3180      75747075 
 3180      745F6966 
 3180      00
 3181              	.LASF42:
 3182 03ae 69705F68 		.ascii	"ip_hdr\000"
 3182      647200
 3183              	.LASF38:
 3184 03b5 6E616D65 		.ascii	"name\000"
 3184      00
 3185              	.LASF41:
 3186 03ba 6E657469 		.ascii	"netif_linkoutput_fn\000"
 3186      665F6C69 
ARM GAS  /var/folders/5n/p_75w94d66l9ssrldxqdhh700000gn/T//ccWYmooo.s 			page 60


 3186      6E6B6F75 
 3186      74707574 
 3186      5F666E00 
 3187              	.LASF63:
 3188 03ce 4D454D50 		.ascii	"MEMP_FRAG_PBUF\000"
 3188      5F465241 
 3188      475F5042 
 3188      554600
 3189              	.LASF120:
 3190 03dd 69636D70 		.ascii	"icmp_dur_type\000"
 3190      5F647572 
 3190      5F747970 
 3190      6500
 3191              	.LASF57:
 3192 03eb 4D454D50 		.ascii	"MEMP_RAW_PCB\000"
 3192      5F524157 
 3192      5F504342 
 3192      00
 3193              	.LASF77:
 3194 03f8 6C656E65 		.ascii	"lenerr\000"
 3194      727200
 3195              	.LASF10:
 3196 03ff 6C6F6E67 		.ascii	"long unsigned int\000"
 3196      20756E73 
 3196      69676E65 
 3196      6420696E 
 3196      7400
 3197              	.LASF80:
 3198 0411 70726F74 		.ascii	"proterr\000"
 3198      65727200 
 3199              	.LASF118:
 3200 0419 2E2E2F2E 		.ascii	"../../ext/lwip/src/core/ipv4/ip.c\000"
 3200      2E2F6578 
 3200      742F6C77 
 3200      69702F73 
 3200      72632F63 
 3201              	.LASF88:
 3202 043b 73746174 		.ascii	"stats_sys\000"
 3202      735F7379 
 3202      7300
 3203              	.LASF4:
 3204 0445 756E7369 		.ascii	"unsigned char\000"
 3204      676E6564 
 3204      20636861 
 3204      7200
 3205              	.LASF78:
 3206 0453 6D656D65 		.ascii	"memerr\000"
 3206      727200
 3207              	.LASF61:
 3208 045a 4D454D50 		.ascii	"MEMP_TCP_SEG\000"
 3208      5F544350 
 3208      5F534547 
 3208      00
 3209              	.LASF29:
 3210 0467 69705F61 		.ascii	"ip_addr_p_t\000"
 3210      6464725F 
 3210      705F7400 
ARM GAS  /var/folders/5n/p_75w94d66l9ssrldxqdhh700000gn/T//ccWYmooo.s 			page 61


 3211              	.LASF53:
 3212 0473 49434D50 		.ascii	"ICMP_DUR_PROTO\000"
 3212      5F445552 
 3212      5F50524F 
 3212      544F00
 3213              	.LASF102:
 3214 0482 66697273 		.ascii	"first\000"
 3214      7400
 3215              	.LASF26:
 3216 0488 61646472 		.ascii	"addr\000"
 3216      00
 3217              	.LASF55:
 3218 048d 49434D50 		.ascii	"ICMP_DUR_FRAG\000"
 3218      5F445552 
 3218      5F465241 
 3218      4700
 3219              	.LASF75:
 3220 049b 64726F70 		.ascii	"drop\000"
 3220      00
 3221              	.LASF35:
 3222 04a0 73746174 		.ascii	"state\000"
 3222      6500
 3223              	.LASF30:
 3224 04a6 6E657469 		.ascii	"netif\000"
 3224      6600
 3225              	.LASF99:
 3226 04ac 69706864 		.ascii	"iphdr\000"
 3226      7200
 3227              	.LASF74:
 3228 04b2 72656376 		.ascii	"recv\000"
 3228      00
 3229              	.LASF1:
 3230 04b7 7369676E 		.ascii	"signed char\000"
 3230      65642063 
 3230      68617200 
 3231              	.LASF100:
 3232 04c3 69706864 		.ascii	"iphdr_hlen\000"
 3232      725F686C 
 3232      656E00
 3233              	.LASF7:
 3234 04ce 73686F72 		.ascii	"short unsigned int\000"
 3234      7420756E 
 3234      7369676E 
 3234      65642069 
 3234      6E7400
 3235              	.LASF73:
 3236 04e1 786D6974 		.ascii	"xmit\000"
 3236      00
 3237              	.LASF114:
 3238 04e6 63757272 		.ascii	"current_iphdr_dest\000"
 3238      656E745F 
 3238      69706864 
 3238      725F6465 
 3238      737400
 3239              	.LASF44:
 3240 04f9 5F6C656E 		.ascii	"_len\000"
 3240      00
ARM GAS  /var/folders/5n/p_75w94d66l9ssrldxqdhh700000gn/T//ccWYmooo.s 			page 62


 3241              	.LASF28:
 3242 04fe 69705F61 		.ascii	"ip_addr_t\000"
 3242      6464725F 
 3242      7400
 3243              	.LASF97:
 3244 0508 69705F72 		.ascii	"ip_route\000"
 3244      6F757465 
 3244      00
 3245              	.LASF105:
 3246 0511 64657374 		.ascii	"dest_addr\000"
 3246      5F616464 
 3246      7200
 3247              	.LASF101:
 3248 051b 69706864 		.ascii	"iphdr_len\000"
 3248      725F6C65 
 3248      6E00
 3249              	.LASF49:
 3250 0525 64657374 		.ascii	"dest\000"
 3250      00
 3251              	.LASF25:
 3252 052a 69705F61 		.ascii	"ip_addr\000"
 3252      64647200 
 3253              		.ident	"GCC: (Linaro GCC 4.6-2011.10) 4.6.2 20111004 (prerelease)"
ARM GAS  /var/folders/5n/p_75w94d66l9ssrldxqdhh700000gn/T//ccWYmooo.s 			page 63


DEFINED SYMBOLS
                            *ABS*:0000000000000000 ip.c
/var/folders/5n/p_75w94d66l9ssrldxqdhh700000gn/T//ccWYmooo.s:18     .text.ip_route:0000000000000000 $t
/var/folders/5n/p_75w94d66l9ssrldxqdhh700000gn/T//ccWYmooo.s:24     .text.ip_route:0000000000000000 ip_route
/var/folders/5n/p_75w94d66l9ssrldxqdhh700000gn/T//ccWYmooo.s:84     .text.ip_route:0000000000000040 $d
/var/folders/5n/p_75w94d66l9ssrldxqdhh700000gn/T//ccWYmooo.s:91     .text.ip_input:0000000000000000 $t
/var/folders/5n/p_75w94d66l9ssrldxqdhh700000gn/T//ccWYmooo.s:97     .text.ip_input:0000000000000000 ip_input
/var/folders/5n/p_75w94d66l9ssrldxqdhh700000gn/T//ccWYmooo.s:860    .bss.current_iphdr_src:0000000000000000 .LANCHOR1
/var/folders/5n/p_75w94d66l9ssrldxqdhh700000gn/T//ccWYmooo.s:475    .text.ip_input:000000000000023c $d
/var/folders/5n/p_75w94d66l9ssrldxqdhh700000gn/T//ccWYmooo.s:485    .text.ip_output_if:0000000000000000 $t
/var/folders/5n/p_75w94d66l9ssrldxqdhh700000gn/T//ccWYmooo.s:491    .text.ip_output_if:0000000000000000 ip_output_if
/var/folders/5n/p_75w94d66l9ssrldxqdhh700000gn/T//ccWYmooo.s:750    .text.ip_output_if:0000000000000188 $d
/var/folders/5n/p_75w94d66l9ssrldxqdhh700000gn/T//ccWYmooo.s:757    .text.ip_output:0000000000000000 $t
/var/folders/5n/p_75w94d66l9ssrldxqdhh700000gn/T//ccWYmooo.s:763    .text.ip_output:0000000000000000 ip_output
/var/folders/5n/p_75w94d66l9ssrldxqdhh700000gn/T//ccWYmooo.s:836    .text.ip_output:0000000000000054 $d
/var/folders/5n/p_75w94d66l9ssrldxqdhh700000gn/T//ccWYmooo.s:870    .bss.current_iphdr_dest:0000000000000000 current_iphdr_dest
/var/folders/5n/p_75w94d66l9ssrldxqdhh700000gn/T//ccWYmooo.s:863    .bss.current_iphdr_src:0000000000000000 current_iphdr_src
/var/folders/5n/p_75w94d66l9ssrldxqdhh700000gn/T//ccWYmooo.s:849    .bss.current_header:0000000000000000 current_header
/var/folders/5n/p_75w94d66l9ssrldxqdhh700000gn/T//ccWYmooo.s:877    .bss.current_netif:0000000000000000 current_netif
/var/folders/5n/p_75w94d66l9ssrldxqdhh700000gn/T//ccWYmooo.s:845    .bss.current_header:0000000000000000 $d
/var/folders/5n/p_75w94d66l9ssrldxqdhh700000gn/T//ccWYmooo.s:852    .bss.ip_id:0000000000000000 $d
/var/folders/5n/p_75w94d66l9ssrldxqdhh700000gn/T//ccWYmooo.s:856    .bss.ip_id:0000000000000000 ip_id
/var/folders/5n/p_75w94d66l9ssrldxqdhh700000gn/T//ccWYmooo.s:859    .bss.current_iphdr_src:0000000000000000 $d
/var/folders/5n/p_75w94d66l9ssrldxqdhh700000gn/T//ccWYmooo.s:866    .bss.current_iphdr_dest:0000000000000000 $d
/var/folders/5n/p_75w94d66l9ssrldxqdhh700000gn/T//ccWYmooo.s:873    .bss.current_netif:0000000000000000 $d
                     .debug_frame:0000000000000010 $d
/var/folders/5n/p_75w94d66l9ssrldxqdhh700000gn/T//ccWYmooo.s:90     .text.ip_route:000000000000004c $t
/var/folders/5n/p_75w94d66l9ssrldxqdhh700000gn/T//ccWYmooo.s:484    .text.ip_input:0000000000000254 $t
/var/folders/5n/p_75w94d66l9ssrldxqdhh700000gn/T//ccWYmooo.s:3253   .text.ip_output:0000000000000058 $t

UNDEFINED SYMBOLS
netif_list
netif_default
lwip_stats
lwip_ntohs
pbuf_free
inet_chksum
pbuf_realloc
ip4_addr_isbroadcast
ip_reass
raw_input
icmp_dest_unreach
udp_input
tcp_input
icmp_input
port_halt
pbuf_header
lwip_htons
ip_frag
