ARM GAS  /var/folders/5n/p_75w94d66l9ssrldxqdhh700000gn/T//ccWYmooo.s 			page 1


   1              		.syntax unified
   2              		.cpu cortex-m4
   3              		.fpu softvfp
   4              		.eabi_attribute 20, 1
   5              		.eabi_attribute 21, 1
   6              		.eabi_attribute 23, 3
   7              		.eabi_attribute 24, 1
   8              		.eabi_attribute 25, 1
   9              		.eabi_attribute 26, 1
  10              		.eabi_attribute 30, 2
  11              		.eabi_attribute 18, 4
  12              		.thumb
  13              		.file	"ip.c"
  14              		.text
  15              	.Ltext0:
  16              		.cfi_sections	.debug_frame
  17              		.section	.text.ip_route,"ax",%progbits
  18              		.align	2
  19              		.p2align 4,,15
  20              		.global	ip_route
  21              		.thumb
  22              		.thumb_func
  23              		.type	ip_route, %function
  24              	ip_route:
  25              	.LFB7:
  26              		.file 1 "../../ext/lwip/src/core/ipv4/ip.c"
  27              		.loc 1 125 0
  28              		.cfi_startproc
  29              		@ args = 0, pretend = 0, frame = 0
  30              		@ frame_needed = 0, uses_anonymous_args = 0
  31              		@ link register save eliminated.
  32              	.LVL0:
  33 0000 10B4     		push	{r4}
  34              	.LCFI0:
  35              		.cfi_def_cfa_offset 4
  36              		.cfi_offset 4, -4
  37              		.loc 1 129 0
  38 0002 0F4B     		ldr	r3, .L11
  39              	.L9:
  40 0004 1B68     		ldr	r3, [r3, #0]
  41              	.LVL1:
  42 0006 63B1     		cbz	r3, .L2
  43              		.loc 1 131 0
  44 0008 93F82920 		ldrb	r2, [r3, #41]	@ zero_extendqisi2
  45 000c D107     		lsls	r1, r2, #31
  46 000e F9D5     		bpl	.L9
  47              		.loc 1 132 0
  48 0010 5C68     		ldr	r4, [r3, #4]
  49 0012 0168     		ldr	r1, [r0, #0]
  50 0014 9A68     		ldr	r2, [r3, #8]
  51 0016 6140     		eors	r1, r1, r4
  52 0018 1142     		tst	r1, r2
  53 001a F3D1     		bne	.L9
  54              	.LVL2:
  55              	.L4:
  56              		.loc 1 147 0
  57 001c 1846     		mov	r0, r3
ARM GAS  /var/folders/5n/p_75w94d66l9ssrldxqdhh700000gn/T//ccWYmooo.s 			page 2


  58              	.LVL3:
  59 001e 10BC     		pop	{r4}
  60 0020 7047     		bx	lr
  61              	.LVL4:
  62              	.L2:
  63              		.loc 1 138 0
  64 0022 084B     		ldr	r3, .L11+4
  65              	.LVL5:
  66 0024 1B68     		ldr	r3, [r3, #0]
  67 0026 1BB1     		cbz	r3, .L6
  68              		.loc 1 138 0 is_stmt 0 discriminator 1
  69 0028 93F82920 		ldrb	r2, [r3, #41]	@ zero_extendqisi2
  70 002c D207     		lsls	r2, r2, #31
  71 002e F5D4     		bmi	.L4
  72              	.L6:
  73              		.loc 1 141 0 is_stmt 1
  74 0030 054B     		ldr	r3, .L11+8
  75 0032 B3F85620 		ldrh	r2, [r3, #86]
  76 0036 0132     		adds	r2, r2, #1
  77 0038 A3F85620 		strh	r2, [r3, #86]	@ movhi
  78              		.loc 1 143 0
  79 003c 0023     		movs	r3, #0
  80 003e EDE7     		b	.L4
  81              	.L12:
  82              		.align	2
  83              	.L11:
  84 0040 00000000 		.word	netif_list
  85 0044 00000000 		.word	netif_default
  86 0048 00000000 		.word	lwip_stats
  87              		.cfi_endproc
  88              	.LFE7:
  89              		.size	ip_route, .-ip_route
  90 004c AFF30080 		.section	.text.ip_input,"ax",%progbits
  91              		.align	2
  92              		.p2align 4,,15
  93              		.global	ip_input
  94              		.thumb
  95              		.thumb_func
  96              		.type	ip_input, %function
  97              	ip_input:
  98              	.LFB8:
  99              		.loc 1 243 0
 100              		.cfi_startproc
 101              		@ args = 0, pretend = 0, frame = 0
 102              		@ frame_needed = 0, uses_anonymous_args = 0
 103              	.LVL6:
 104 0000 2DE9F84F 		push	{r3, r4, r5, r6, r7, r8, r9, sl, fp, lr}
 105              	.LCFI1:
 106              		.cfi_def_cfa_offset 40
 107              		.cfi_offset 14, -4
 108              		.cfi_offset 11, -8
 109              		.cfi_offset 10, -12
 110              		.cfi_offset 9, -16
 111              		.cfi_offset 8, -20
 112              		.cfi_offset 7, -24
 113              		.cfi_offset 6, -28
 114              		.cfi_offset 5, -32
ARM GAS  /var/folders/5n/p_75w94d66l9ssrldxqdhh700000gn/T//ccWYmooo.s 			page 3


 115              		.cfi_offset 4, -36
 116              		.cfi_offset 3, -40
 117              		.loc 1 252 0
 118 0004 8D4C     		ldr	r4, .L40
 119              		.loc 1 256 0
 120 0006 4568     		ldr	r5, [r0, #4]
 121              	.LVL7:
 122              		.loc 1 252 0
 123 0008 B4F84A30 		ldrh	r3, [r4, #74]
 124 000c 0133     		adds	r3, r3, #1
 125 000e A4F84A30 		strh	r3, [r4, #74]	@ movhi
 126              		.loc 1 257 0
 127 0012 2B78     		ldrb	r3, [r5, #0]	@ zero_extendqisi2
 128              		.loc 1 243 0
 129 0014 0646     		mov	r6, r0
 130              		.loc 1 257 0
 131 0016 6878     		ldrb	r0, [r5, #1]	@ zero_extendqisi2
 132              	.LVL8:
 133 0018 43EA0020 		orr	r0, r3, r0, lsl #8
 134              		.loc 1 243 0
 135 001c 8846     		mov	r8, r1
 136              		.loc 1 257 0
 137 001e FFF7FEFF 		bl	lwip_ntohs
 138              	.LVL9:
 139 0022 C0F30F30 		ubfx	r0, r0, #12, #16
 140 0026 0428     		cmp	r0, #4
 141 0028 0FD0     		beq	.L14
 142              		.loc 1 260 0
 143 002a 3046     		mov	r0, r6
 144 002c FFF7FEFF 		bl	pbuf_free
 145              		.loc 1 261 0
 146 0030 B4F85C20 		ldrh	r2, [r4, #92]
 147              		.loc 1 262 0
 148 0034 B4F84E30 		ldrh	r3, [r4, #78]
 149              		.loc 1 261 0
 150 0038 0132     		adds	r2, r2, #1
 151              		.loc 1 262 0
 152 003a 0133     		adds	r3, r3, #1
 153              		.loc 1 261 0
 154 003c A4F85C20 		strh	r2, [r4, #92]	@ movhi
 155              		.loc 1 262 0
 156 0040 A4F84E30 		strh	r3, [r4, #78]	@ movhi
 157              	.LVL10:
 158              	.L15:
 159              		.loc 1 544 0
 160 0044 0020     		movs	r0, #0
 161 0046 BDE8F88F 		pop	{r3, r4, r5, r6, r7, r8, r9, sl, fp, pc}
 162              	.L14:
 163              		.loc 1 268 0
 164 004a 2B78     		ldrb	r3, [r5, #0]	@ zero_extendqisi2
 165 004c 6878     		ldrb	r0, [r5, #1]	@ zero_extendqisi2
 166 004e 43EA0020 		orr	r0, r3, r0, lsl #8
 167 0052 FFF7FEFF 		bl	lwip_ntohs
 168              		.loc 1 272 0
 169 0056 AB78     		ldrb	r3, [r5, #2]	@ zero_extendqisi2
 170 0058 EA78     		ldrb	r2, [r5, #3]	@ zero_extendqisi2
 171              		.loc 1 268 0
ARM GAS  /var/folders/5n/p_75w94d66l9ssrldxqdhh700000gn/T//ccWYmooo.s 			page 4


 172 005a C0F30329 		ubfx	r9, r0, #8, #4
 173              	.LVL11:
 174              		.loc 1 272 0
 175 005e 43EA0220 		orr	r0, r3, r2, lsl #8
 176 0062 FFF7FEFF 		bl	lwip_ntohs
 177              		.loc 1 275 0
 178 0066 7389     		ldrh	r3, [r6, #10]
 179              		.loc 1 270 0
 180 0068 4FEA8909 		lsl	r9, r9, #2
 181              	.LVL12:
 182              		.loc 1 275 0
 183 006c 4B45     		cmp	r3, r9
 184              		.loc 1 272 0
 185 006e 0746     		mov	r7, r0
 186              	.LVL13:
 187              		.loc 1 275 0
 188 0070 02D3     		bcc	.L16
 189              		.loc 1 275 0 is_stmt 0 discriminator 1
 190 0072 3389     		ldrh	r3, [r6, #8]
 191 0074 8342     		cmp	r3, r0
 192 0076 0FD2     		bcs	.L17
 193              	.L16:
 194              		.loc 1 287 0 is_stmt 1
 195 0078 3046     		mov	r0, r6
 196              	.LVL14:
 197 007a FFF7FEFF 		bl	pbuf_free
 198              		.loc 1 288 0
 199 007e B4F85220 		ldrh	r2, [r4, #82]
 200              		.loc 1 289 0
 201 0082 B4F84E30 		ldrh	r3, [r4, #78]
 202              		.loc 1 288 0
 203 0086 0132     		adds	r2, r2, #1
 204              		.loc 1 289 0
 205 0088 0133     		adds	r3, r3, #1
 206              		.loc 1 288 0
 207 008a A4F85220 		strh	r2, [r4, #82]	@ movhi
 208              		.loc 1 289 0
 209 008e A4F84E30 		strh	r3, [r4, #78]	@ movhi
 210              		.loc 1 544 0
 211 0092 0020     		movs	r0, #0
 212 0094 BDE8F88F 		pop	{r3, r4, r5, r6, r7, r8, r9, sl, fp, pc}
 213              	.L17:
 214              		.loc 1 296 0
 215 0098 2846     		mov	r0, r5
 216 009a 4946     		mov	r1, r9
 217 009c FFF7FEFF 		bl	inet_chksum
 218 00a0 0028     		cmp	r0, #0
 219 00a2 40F0A980 		bne	.L37
 220              		.loc 1 311 0
 221 00a6 3946     		mov	r1, r7
 222 00a8 3046     		mov	r0, r6
 223 00aa FFF7FEFF 		bl	pbuf_realloc
 224              		.loc 1 314 0
 225 00ae 687C     		ldrb	r0, [r5, #17]	@ zero_extendqisi2
 226 00b0 2B7C     		ldrb	r3, [r5, #16]	@ zero_extendqisi2
 227 00b2 A97C     		ldrb	r1, [r5, #18]	@ zero_extendqisi2
 228 00b4 EA7C     		ldrb	r2, [r5, #19]	@ zero_extendqisi2
ARM GAS  /var/folders/5n/p_75w94d66l9ssrldxqdhh700000gn/T//ccWYmooo.s 			page 5


 229 00b6 DFF890B1 		ldr	fp, .L40+12
 230              	.LBB2:
 231              		.loc 1 365 0
 232 00ba DFF890A1 		ldr	sl, .L40+16
 233              	.LBE2:
 234              		.loc 1 314 0
 235 00be 43EA0023 		orr	r3, r3, r0, lsl #8
 236 00c2 43EA0143 		orr	r3, r3, r1, lsl #16
 237 00c6 43EA0263 		orr	r3, r3, r2, lsl #24
 238 00ca CBF80030 		str	r3, [fp, #0]
 239              		.loc 1 315 0
 240 00ce 2B7B     		ldrb	r3, [r5, #12]	@ zero_extendqisi2
 241 00d0 687B     		ldrb	r0, [r5, #13]	@ zero_extendqisi2
 242 00d2 A97B     		ldrb	r1, [r5, #14]	@ zero_extendqisi2
 243 00d4 EA7B     		ldrb	r2, [r5, #15]	@ zero_extendqisi2
 244 00d6 43EA0023 		orr	r3, r3, r0, lsl #8
 245 00da 43EA0143 		orr	r3, r3, r1, lsl #16
 246 00de 43EA0263 		orr	r3, r3, r2, lsl #24
 247 00e2 40F20002 		movw	r2, #:lower16:.LANCHOR1
 248 00e6 C0F20002 		movt	r2, #:upper16:.LANCHOR1
 249 00ea 4746     		mov	r7, r8
 250              	.LVL15:
 251 00ec 1360     		str	r3, [r2, #0]
 252              	.LVL16:
 253              		.loc 1 331 0
 254 00ee 4FF00109 		mov	r9, #1
 255              	.LVL17:
 256              	.L24:
 257              	.LBB3:
 258              		.loc 1 341 0
 259 00f2 97F82930 		ldrb	r3, [r7, #41]	@ zero_extendqisi2
 260 00f6 D807     		lsls	r0, r3, #31
 261 00f8 09D5     		bpl	.L19
 262              		.loc 1 341 0 is_stmt 0 discriminator 1
 263 00fa 7B68     		ldr	r3, [r7, #4]
 264 00fc 3BB1     		cbz	r3, .L19
 265              		.loc 1 343 0 is_stmt 1
 266 00fe DBF80000 		ldr	r0, [fp, #0]
 267 0102 8342     		cmp	r3, r0
 268 0104 0FD0     		beq	.L20
 269              		.loc 1 345 0 discriminator 1
 270 0106 3946     		mov	r1, r7
 271 0108 FFF7FEFF 		bl	ip4_addr_isbroadcast
 272              		.loc 1 343 0 discriminator 1
 273 010c 58B9     		cbnz	r0, .L20
 274              	.L19:
 275              		.loc 1 363 0
 276 010e B9F1000F 		cmp	r9, #0
 277 0112 66D0     		beq	.L21
 278              	.LVL18:
 279              		.loc 1 365 0
 280 0114 DAF80070 		ldr	r7, [sl, #0]
 281              	.LVL19:
 282              	.L22:
 283              		.loc 1 369 0
 284 0118 4745     		cmp	r7, r8
 285              		.loc 1 370 0
ARM GAS  /var/folders/5n/p_75w94d66l9ssrldxqdhh700000gn/T//ccWYmooo.s 			page 6


 286 011a 08BF     		it	eq
 287 011c 3F68     		ldreq	r7, [r7, #0]
 288              	.LVL20:
 289              		.loc 1 372 0
 290 011e 17B1     		cbz	r7, .L20
 291 0120 4FF00009 		mov	r9, #0
 292 0124 E5E7     		b	.L24
 293              	.LVL21:
 294              	.L20:
 295              	.LBE3:
 296              		.loc 1 405 0
 297 0126 40F20003 		movw	r3, #:lower16:.LANCHOR1
 298 012a C0F20003 		movt	r3, #:upper16:.LANCHOR1
 299 012e 4146     		mov	r1, r8
 300 0130 1868     		ldr	r0, [r3, #0]
 301 0132 FFF7FEFF 		bl	ip4_addr_isbroadcast
 302 0136 0028     		cmp	r0, #0
 303 0138 55D1     		bne	.L25
 304              		.loc 1 406 0 discriminator 1
 305 013a 414B     		ldr	r3, .L40+4
 306 013c 1B68     		ldr	r3, [r3, #0]
 307 013e 03F0F003 		and	r3, r3, #240
 308              		.loc 1 405 0 discriminator 1
 309 0142 E02B     		cmp	r3, #224
 310 0144 4FD0     		beq	.L25
 311              		.loc 1 419 0
 312 0146 002F     		cmp	r7, #0
 313 0148 73D0     		beq	.L38
 314              		.loc 1 437 0
 315 014a AA79     		ldrb	r2, [r5, #6]	@ zero_extendqisi2
 316 014c E979     		ldrb	r1, [r5, #7]	@ zero_extendqisi2
 317 014e 4FF63F73 		movw	r3, #65343
 318 0152 42EA0122 		orr	r2, r2, r1, lsl #8
 319 0156 1340     		ands	r3, r3, r2
 320 0158 3BB1     		cbz	r3, .L28
 321              		.loc 1 442 0
 322 015a 3046     		mov	r0, r6
 323 015c FFF7FEFF 		bl	ip_reass
 324              	.LVL22:
 325              		.loc 1 444 0
 326 0160 0646     		mov	r6, r0
 327 0162 0028     		cmp	r0, #0
 328 0164 3FF46EAF 		beq	.L15
 329              		.loc 1 447 0
 330 0168 4568     		ldr	r5, [r0, #4]
 331              	.LVL23:
 332              	.L28:
 333              		.loc 1 483 0
 334 016a DFF8E490 		ldr	r9, .L40+20
 335              		.loc 1 484 0
 336 016e 354F     		ldr	r7, .L40+8
 337              	.LVL24:
 338              		.loc 1 483 0
 339 0170 C9F80080 		str	r8, [r9, #0]
 340              		.loc 1 488 0
 341 0174 3046     		mov	r0, r6
 342 0176 4146     		mov	r1, r8
ARM GAS  /var/folders/5n/p_75w94d66l9ssrldxqdhh700000gn/T//ccWYmooo.s 			page 7


 343              		.loc 1 484 0
 344 0178 3D60     		str	r5, [r7, #0]
 345              		.loc 1 488 0
 346 017a FFF7FEFF 		bl	raw_input
 347 017e 20BB     		cbnz	r0, .L29
 348              		.loc 1 492 0
 349 0180 6B7A     		ldrb	r3, [r5, #9]	@ zero_extendqisi2
 350 0182 062B     		cmp	r3, #6
 351 0184 4BD0     		beq	.L32
 352 0186 112B     		cmp	r3, #17
 353 0188 44D0     		beq	.L33
 354 018a 012B     		cmp	r3, #1
 355 018c 4CD0     		beq	.L39
 356              		.loc 1 522 0
 357 018e DBF80000 		ldr	r0, [fp, #0]
 358 0192 4146     		mov	r1, r8
 359 0194 FFF7FEFF 		bl	ip4_addr_isbroadcast
 360 0198 50B9     		cbnz	r0, .L34
 361              		.loc 1 523 0 discriminator 1
 362 019a 2B4B     		ldr	r3, .L40+12
 363 019c 1B68     		ldr	r3, [r3, #0]
 364 019e 03F0F003 		and	r3, r3, #240
 365              		.loc 1 522 0 discriminator 1
 366 01a2 E02B     		cmp	r3, #224
 367 01a4 04D0     		beq	.L34
 368              		.loc 1 524 0
 369 01a6 7560     		str	r5, [r6, #4]
 370              		.loc 1 525 0
 371 01a8 3046     		mov	r0, r6
 372 01aa 0221     		movs	r1, #2
 373 01ac FFF7FEFF 		bl	icmp_dest_unreach
 374              	.L34:
 375              		.loc 1 528 0
 376 01b0 3046     		mov	r0, r6
 377 01b2 FFF7FEFF 		bl	pbuf_free
 378              		.loc 1 532 0
 379 01b6 B4F85820 		ldrh	r2, [r4, #88]
 380              		.loc 1 533 0
 381 01ba B4F84E30 		ldrh	r3, [r4, #78]
 382              		.loc 1 532 0
 383 01be 0132     		adds	r2, r2, #1
 384              		.loc 1 533 0
 385 01c0 0133     		adds	r3, r3, #1
 386              		.loc 1 532 0
 387 01c2 A4F85820 		strh	r2, [r4, #88]	@ movhi
 388              		.loc 1 533 0
 389 01c6 A4F84E30 		strh	r3, [r4, #78]	@ movhi
 390              	.L29:
 391              		.loc 1 540 0
 392 01ca 40F20002 		movw	r2, #:lower16:.LANCHOR1
 393 01ce C0F20002 		movt	r2, #:upper16:.LANCHOR1
 394              		.loc 1 538 0
 395 01d2 0023     		movs	r3, #0
 396 01d4 C9F80030 		str	r3, [r9, #0]
 397              		.loc 1 539 0
 398 01d8 3B60     		str	r3, [r7, #0]
 399              		.loc 1 540 0
ARM GAS  /var/folders/5n/p_75w94d66l9ssrldxqdhh700000gn/T//ccWYmooo.s 			page 8


 400 01da 1360     		str	r3, [r2, #0]
 401              		.loc 1 541 0
 402 01dc CBF80030 		str	r3, [fp, #0]
 403              		.loc 1 543 0
 404 01e0 30E7     		b	.L15
 405              	.LVL25:
 406              	.L21:
 407              	.LBB4:
 408              		.loc 1 367 0
 409 01e2 3F68     		ldr	r7, [r7, #0]
 410              	.LVL26:
 411 01e4 98E7     		b	.L22
 412              	.LVL27:
 413              	.L25:
 414              	.LBE4:
 415              		.loc 1 410 0
 416 01e6 3046     		mov	r0, r6
 417 01e8 FFF7FEFF 		bl	pbuf_free
 418              		.loc 1 411 0
 419 01ec B4F84E30 		ldrh	r3, [r4, #78]
 420 01f0 0133     		adds	r3, r3, #1
 421 01f2 A4F84E30 		strh	r3, [r4, #78]	@ movhi
 422              		.loc 1 414 0
 423 01f6 25E7     		b	.L15
 424              	.LVL28:
 425              	.L37:
 426              		.loc 1 301 0
 427 01f8 3046     		mov	r0, r6
 428 01fa FFF7FEFF 		bl	pbuf_free
 429              		.loc 1 302 0
 430 01fe B4F85020 		ldrh	r2, [r4, #80]
 431              		.loc 1 303 0
 432 0202 B4F84E30 		ldrh	r3, [r4, #78]
 433              		.loc 1 302 0
 434 0206 0132     		adds	r2, r2, #1
 435              		.loc 1 303 0
 436 0208 0133     		adds	r3, r3, #1
 437              		.loc 1 302 0
 438 020a A4F85020 		strh	r2, [r4, #80]	@ movhi
 439              		.loc 1 303 0
 440 020e A4F84E30 		strh	r3, [r4, #78]	@ movhi
 441              		.loc 1 305 0
 442 0212 17E7     		b	.L15
 443              	.LVL29:
 444              	.L33:
 445              		.loc 1 499 0
 446 0214 3046     		mov	r0, r6
 447 0216 4146     		mov	r1, r8
 448 0218 FFF7FEFF 		bl	udp_input
 449              		.loc 1 500 0
 450 021c D5E7     		b	.L29
 451              	.L32:
 452              		.loc 1 505 0
 453 021e 3046     		mov	r0, r6
 454 0220 4146     		mov	r1, r8
 455 0222 FFF7FEFF 		bl	tcp_input
 456              		.loc 1 506 0
ARM GAS  /var/folders/5n/p_75w94d66l9ssrldxqdhh700000gn/T//ccWYmooo.s 			page 9


 457 0226 D0E7     		b	.L29
 458              	.L39:
 459              		.loc 1 511 0
 460 0228 3046     		mov	r0, r6
 461 022a 4146     		mov	r1, r8
 462 022c FFF7FEFF 		bl	icmp_input
 463              		.loc 1 512 0
 464 0230 CBE7     		b	.L29
 465              	.LVL30:
 466              	.L38:
 467              		.loc 1 433 0
 468 0232 3046     		mov	r0, r6
 469 0234 FFF7FEFF 		bl	pbuf_free
 470              		.loc 1 434 0
 471 0238 04E7     		b	.L15
 472              	.L41:
 473 023a 00BF     		.align	2
 474              	.L40:
 475 023c 00000000 		.word	lwip_stats
 476 0240 00000000 		.word	.LANCHOR1
 477 0244 00000000 		.word	.LANCHOR3
 478 0248 00000000 		.word	.LANCHOR0
 479 024c 00000000 		.word	netif_list
 480 0250 00000000 		.word	.LANCHOR2
 481              		.cfi_endproc
 482              	.LFE8:
 483              		.size	ip_input, .-ip_input
 484 0254 AFF30080 		.section	.text.ip_output_if,"ax",%progbits
 484      AFF30080 
 484      AFF30080 
 485              		.align	2
 486              		.p2align 4,,15
 487              		.global	ip_output_if
 488              		.thumb
 489              		.thumb_func
 490              		.type	ip_output_if, %function
 491              	ip_output_if:
 492              	.LFB9:
 493              		.loc 1 575 0
 494              		.cfi_startproc
 495              		@ args = 12, pretend = 0, frame = 24
 496              		@ frame_needed = 0, uses_anonymous_args = 0
 497              	.LVL31:
 498 0000 2DE9F04F 		push	{r4, r5, r6, r7, r8, r9, sl, fp, lr}
 499              	.LCFI2:
 500              		.cfi_def_cfa_offset 36
 501              		.cfi_offset 14, -4
 502              		.cfi_offset 11, -8
 503              		.cfi_offset 10, -12
 504              		.cfi_offset 9, -16
 505              		.cfi_offset 8, -20
 506              		.cfi_offset 7, -24
 507              		.cfi_offset 6, -28
 508              		.cfi_offset 5, -32
 509              		.cfi_offset 4, -36
 510 0004 87B0     		sub	sp, sp, #28
 511              	.LCFI3:
ARM GAS  /var/folders/5n/p_75w94d66l9ssrldxqdhh700000gn/T//ccWYmooo.s 			page 10


 512              		.cfi_def_cfa_offset 64
 513              		.loc 1 575 0
 514 0006 0446     		mov	r4, r0
 515 0008 0391     		str	r1, [sp, #12]
 516              		.loc 1 599 0
 517 000a C189     		ldrh	r1, [r0, #14]
 518              	.LVL32:
 519              		.loc 1 575 0
 520 000c 9DF84460 		ldrb	r6, [sp, #68]	@ zero_extendqisi2
 521 0010 129D     		ldr	r5, [sp, #72]
 522              		.loc 1 599 0
 523 0012 0129     		cmp	r1, #1
 524              		.loc 1 575 0
 525 0014 1746     		mov	r7, r2
 526 0016 9846     		mov	r8, r3
 527              		.loc 1 599 0
 528 0018 01D0     		beq	.L43
 529              		.loc 1 599 0 is_stmt 0 discriminator 1
 530 001a FFF7FEFF 		bl	port_halt
 531              	.LVL33:
 532              	.L43:
 533              		.loc 1 604 0 is_stmt 1
 534 001e 002F     		cmp	r7, #0
 535 0020 00F09280 		beq	.L44
 536              	.LVL34:
 537              	.LBB5:
 538              		.loc 1 635 0
 539 0024 2046     		mov	r0, r4
 540 0026 1421     		movs	r1, #20
 541 0028 FFF7FEFF 		bl	pbuf_header
 542 002c 0028     		cmp	r0, #0
 543 002e 40F0A380 		bne	.L53
 544              		.loc 1 644 0
 545 0032 6389     		ldrh	r3, [r4, #10]
 546              		.loc 1 643 0
 547 0034 D4F80490 		ldr	r9, [r4, #4]
 548              	.LVL35:
 549              		.loc 1 644 0
 550 0038 132B     		cmp	r3, #19
 551 003a 40F29480 		bls	.L54
 552              	.LVL36:
 553              	.L47:
 554              		.loc 1 648 0
 555 003e 89F80960 		strb	r6, [r9, #9]
 556              		.loc 1 647 0
 557 0042 89F80880 		strb	r8, [r9, #8]
 558              		.loc 1 654 0
 559 0046 3968     		ldr	r1, [r7, #0]
 560              		.loc 1 669 0
 561 0048 4F4B     		ldr	r3, .L56
 562              		.loc 1 654 0
 563 004a 89F81010 		strb	r1, [r9, #16]
 564 004e 0A0C     		lsrs	r2, r1, #16
 565 0050 C1F3072E 		ubfx	lr, r1, #8, #8
 566 0054 080E     		lsrs	r0, r1, #24
 567 0056 89F81220 		strb	r2, [r9, #18]
 568 005a 89F811E0 		strb	lr, [r9, #17]
ARM GAS  /var/folders/5n/p_75w94d66l9ssrldxqdhh700000gn/T//ccWYmooo.s 			page 11


 569 005e 89F81300 		strb	r0, [r9, #19]
 570              		.loc 1 660 0
 571 0062 9DF84000 		ldrb	r0, [sp, #64]	@ zero_extendqisi2
 572 0066 0192     		str	r2, [sp, #4]
 573              		.loc 1 656 0
 574 0068 89B2     		uxth	r1, r1
 575              		.loc 1 660 0
 576 006a 40F48A40 		orr	r0, r0, #17664
 577 006e 0291     		str	r1, [sp, #8]
 578 0070 0093     		str	r3, [sp, #0]
 579 0072 FFF7FEFF 		bl	lwip_htons
 580 0076 8346     		mov	fp, r0
 581 0078 C0F30F20 		ubfx	r0, r0, #8, #16
 582 007c 89F800B0 		strb	fp, [r9, #0]
 583 0080 89F80100 		strb	r0, [r9, #1]
 584              		.loc 1 664 0
 585 0084 2089     		ldrh	r0, [r4, #8]
 586 0086 FFF7FEFF 		bl	lwip_htons
 587 008a 8246     		mov	sl, r0
 588 008c CAF30F2E 		ubfx	lr, sl, #8, #16
 589              		.loc 1 654 0
 590 0090 0020     		movs	r0, #0
 591              		.loc 1 664 0
 592 0092 89F803E0 		strb	lr, [r9, #3]
 593 0096 89F802A0 		strb	sl, [r9, #2]
 594              		.loc 1 668 0
 595 009a 89F80600 		strb	r0, [r9, #6]
 596 009e 89F80700 		strb	r0, [r9, #7]
 597              		.loc 1 669 0
 598 00a2 009B     		ldr	r3, [sp, #0]
 599 00a4 1888     		ldrh	r0, [r3, #0]
 600 00a6 FFF7FEFF 		bl	lwip_htons
 601 00aa C0F30F2E 		ubfx	lr, r0, #8, #16
 602 00ae 89F80400 		strb	r0, [r9, #4]
 603 00b2 89F805E0 		strb	lr, [r9, #5]
 604              		.loc 1 673 0
 605 00b6 009B     		ldr	r3, [sp, #0]
 606              		.loc 1 675 0
 607 00b8 0299     		ldr	r1, [sp, #8]
 608              		.loc 1 673 0
 609 00ba B3F800E0 		ldrh	lr, [r3, #0]
 610              		.loc 1 675 0
 611 00be 019A     		ldr	r2, [sp, #4]
 612              		.loc 1 673 0
 613 00c0 0EF1010E 		add	lr, lr, #1
 614 00c4 A3F800E0 		strh	lr, [r3, #0]	@ movhi
 615              		.loc 1 675 0
 616 00c8 039B     		ldr	r3, [sp, #12]
 617              		.loc 1 650 0
 618 00ca 48EA0626 		orr	r6, r8, r6, lsl #8
 619              	.LVL37:
 620              		.loc 1 675 0
 621 00ce 002B     		cmp	r3, #0
 622 00d0 38D0     		beq	.L48
 623              		.loc 1 675 0 is_stmt 0 discriminator 1
 624 00d2 1B68     		ldr	r3, [r3, #0]
 625 00d4 002B     		cmp	r3, #0
ARM GAS  /var/folders/5n/p_75w94d66l9ssrldxqdhh700000gn/T//ccWYmooo.s 			page 12


 626 00d6 35D0     		beq	.L48
 627              	.L49:
 628              		.loc 1 656 0 is_stmt 1
 629 00d8 5218     		adds	r2, r2, r1
 630              		.loc 1 657 0
 631 00da 9619     		adds	r6, r2, r6
 632              		.loc 1 662 0
 633 00dc B344     		add	fp, r6, fp
 634              		.loc 1 666 0
 635 00de DA44     		add	sl, fp, sl
 636              		.loc 1 671 0
 637 00e0 5044     		add	r0, sl, r0
 638              		.loc 1 679 0
 639 00e2 4FEA134E 		lsr	lr, r3, #16
 640 00e6 C3F30728 		ubfx	r8, r3, #8, #8
 641 00ea 4FEA136C 		lsr	ip, r3, #24
 642 00ee 89F80C30 		strb	r3, [r9, #12]
 643              		.loc 1 683 0
 644 00f2 10FA83F3 		uxtah	r3, r0, r3
 645              		.loc 1 684 0
 646 00f6 7344     		add	r3, r3, lr
 647              	.LVL38:
 648              		.loc 1 685 0
 649 00f8 9AB2     		uxth	r2, r3
 650 00fa 02EB1343 		add	r3, r2, r3, lsr #16
 651              	.LVL39:
 652              		.loc 1 686 0
 653 00fe 03EB1343 		add	r3, r3, r3, lsr #16
 654              	.LVL40:
 655              		.loc 1 687 0
 656 0102 DB43     		mvns	r3, r3
 657              	.LVL41:
 658              		.loc 1 688 0
 659 0104 9BB2     		uxth	r3, r3
 660              	.LVL42:
 661 0106 1A0A     		lsrs	r2, r3, #8
 662              		.loc 1 679 0
 663 0108 89F80D80 		strb	r8, [r9, #13]
 664 010c 89F80EE0 		strb	lr, [r9, #14]
 665 0110 89F80FC0 		strb	ip, [r9, #15]
 666              		.loc 1 688 0
 667 0114 89F80A30 		strb	r3, [r9, #10]
 668 0118 89F80B20 		strb	r2, [r9, #11]
 669              	.LVL43:
 670              	.L51:
 671              	.LBE5:
 672              		.loc 1 702 0
 673 011c 1B4B     		ldr	r3, .L56+4
 674              		.loc 1 721 0
 675 011e 2A8C     		ldrh	r2, [r5, #32]
 676              		.loc 1 702 0
 677 0120 B3F84810 		ldrh	r1, [r3, #72]
 678 0124 0131     		adds	r1, r1, #1
 679 0126 A3F84810 		strh	r1, [r3, #72]	@ movhi
 680              		.loc 1 721 0
 681 012a 12B1     		cbz	r2, .L52
 682              		.loc 1 721 0 is_stmt 0 discriminator 1
ARM GAS  /var/folders/5n/p_75w94d66l9ssrldxqdhh700000gn/T//ccWYmooo.s 			page 13


 683 012c 2389     		ldrh	r3, [r4, #8]
 684 012e 9342     		cmp	r3, r2
 685 0130 1CD8     		bhi	.L55
 686              	.L52:
 687              		.loc 1 727 0 is_stmt 1
 688 0132 6B69     		ldr	r3, [r5, #20]
 689 0134 2846     		mov	r0, r5
 690 0136 2146     		mov	r1, r4
 691 0138 3A46     		mov	r2, r7
 692 013a 9847     		blx	r3
 693              	.L46:
 694              		.loc 1 728 0
 695 013c 40B2     		sxtb	r0, r0
 696 013e 07B0     		add	sp, sp, #28
 697 0140 BDE8F08F 		pop	{r4, r5, r6, r7, r8, r9, sl, fp, pc}
 698              	.LVL44:
 699              	.L48:
 700              	.LBB6:
 701              		.loc 1 676 0
 702 0144 6B68     		ldr	r3, [r5, #4]
 703 0146 C7E7     		b	.L49
 704              	.LVL45:
 705              	.L44:
 706              	.LBE6:
 707              		.loc 1 698 0
 708 0148 6368     		ldr	r3, [r4, #4]
 709 014a 187C     		ldrb	r0, [r3, #16]	@ zero_extendqisi2
 710 014c 5E7C     		ldrb	r6, [r3, #17]	@ zero_extendqisi2
 711 014e 997C     		ldrb	r1, [r3, #18]	@ zero_extendqisi2
 712 0150 DA7C     		ldrb	r2, [r3, #19]	@ zero_extendqisi2
 713 0152 40EA0623 		orr	r3, r0, r6, lsl #8
 714 0156 43EA0143 		orr	r3, r3, r1, lsl #16
 715 015a 06AF     		add	r7, sp, #24
 716              	.LVL46:
 717 015c 43EA0263 		orr	r3, r3, r2, lsl #24
 718 0160 47F8043D 		str	r3, [r7, #-4]!
 719              	.LVL47:
 720 0164 DAE7     		b	.L51
 721              	.LVL48:
 722              	.L54:
 723              	.LBB7:
 724              		.loc 1 644 0 discriminator 1
 725 0166 FFF7FEFF 		bl	port_halt
 726 016a 68E7     		b	.L47
 727              	.LVL49:
 728              	.L55:
 729              	.LBE7:
 730              		.loc 1 722 0
 731 016c 2046     		mov	r0, r4
 732 016e 2946     		mov	r1, r5
 733 0170 3A46     		mov	r2, r7
 734 0172 FFF7FEFF 		bl	ip_frag
 735 0176 E1E7     		b	.L46
 736              	.LVL50:
 737              	.L53:
 738              	.LBB8:
 739              		.loc 1 638 0
ARM GAS  /var/folders/5n/p_75w94d66l9ssrldxqdhh700000gn/T//ccWYmooo.s 			page 14


 740 0178 044B     		ldr	r3, .L56+4
 741 017a B3F85C20 		ldrh	r2, [r3, #92]
 742 017e 0132     		adds	r2, r2, #1
 743 0180 A3F85C20 		strh	r2, [r3, #92]	@ movhi
 744              		.loc 1 640 0
 745 0184 FE20     		movs	r0, #254
 746 0186 D9E7     		b	.L46
 747              	.L57:
 748              		.align	2
 749              	.L56:
 750 0188 00000000 		.word	.LANCHOR4
 751 018c 00000000 		.word	lwip_stats
 752              	.LBE8:
 753              		.cfi_endproc
 754              	.LFE9:
 755              		.size	ip_output_if, .-ip_output_if
 756              		.section	.text.ip_output,"ax",%progbits
 757              		.align	2
 758              		.p2align 4,,15
 759              		.global	ip_output
 760              		.thumb
 761              		.thumb_func
 762              		.type	ip_output, %function
 763              	ip_output:
 764              	.LFB10:
 765              		.loc 1 750 0
 766              		.cfi_startproc
 767              		@ args = 8, pretend = 0, frame = 0
 768              		@ frame_needed = 0, uses_anonymous_args = 0
 769              	.LVL51:
 770 0000 2DE9F041 		push	{r4, r5, r6, r7, r8, lr}
 771              	.LCFI4:
 772              		.cfi_def_cfa_offset 24
 773              		.cfi_offset 14, -4
 774              		.cfi_offset 8, -8
 775              		.cfi_offset 7, -12
 776              		.cfi_offset 6, -16
 777              		.cfi_offset 5, -20
 778              		.cfi_offset 4, -24
 779 0004 8846     		mov	r8, r1
 780              		.loc 1 755 0
 781 0006 C189     		ldrh	r1, [r0, #14]
 782              	.LVL52:
 783 0008 0129     		cmp	r1, #1
 784              		.loc 1 750 0
 785 000a 84B0     		sub	sp, sp, #16
 786              	.LCFI5:
 787              		.cfi_def_cfa_offset 40
 788              		.loc 1 750 0
 789 000c 0546     		mov	r5, r0
 790 000e 1646     		mov	r6, r2
 791 0010 1F46     		mov	r7, r3
 792              		.loc 1 755 0
 793 0012 01D0     		beq	.L59
 794              		.loc 1 755 0 is_stmt 0 discriminator 1
 795 0014 FFF7FEFF 		bl	port_halt
 796              	.LVL53:
ARM GAS  /var/folders/5n/p_75w94d66l9ssrldxqdhh700000gn/T//ccWYmooo.s 			page 15


 797              	.L59:
 798              		.loc 1 757 0 is_stmt 1
 799 0018 3046     		mov	r0, r6
 800 001a FFF7FEFF 		bl	ip_route
 801              	.LVL54:
 802 001e 0446     		mov	r4, r0
 803 0020 80B1     		cbz	r0, .L62
 804              		.loc 1 764 0
 805 0022 2846     		mov	r0, r5
 806              	.LVL55:
 807 0024 9DF82850 		ldrb	r5, [sp, #40]	@ zero_extendqisi2
 808              	.LVL56:
 809 0028 0294     		str	r4, [sp, #8]
 810 002a 0095     		str	r5, [sp, #0]
 811 002c 9DF82C50 		ldrb	r5, [sp, #44]	@ zero_extendqisi2
 812 0030 4146     		mov	r1, r8
 813 0032 3246     		mov	r2, r6
 814 0034 3B46     		mov	r3, r7
 815 0036 0195     		str	r5, [sp, #4]
 816 0038 FFF7FEFF 		bl	ip_output_if
 817              	.LVL57:
 818              	.L61:
 819              		.loc 1 765 0
 820 003c 40B2     		sxtb	r0, r0
 821 003e 04B0     		add	sp, sp, #16
 822 0040 BDE8F081 		pop	{r4, r5, r6, r7, r8, pc}
 823              	.LVL58:
 824              	.L62:
 825              		.loc 1 760 0
 826 0044 034B     		ldr	r3, .L63
 827 0046 B3F85620 		ldrh	r2, [r3, #86]
 828 004a 0132     		adds	r2, r2, #1
 829 004c A3F85620 		strh	r2, [r3, #86]	@ movhi
 830              		.loc 1 761 0
 831 0050 FC20     		movs	r0, #252
 832 0052 F3E7     		b	.L61
 833              	.L64:
 834              		.align	2
 835              	.L63:
 836 0054 00000000 		.word	lwip_stats
 837              		.cfi_endproc
 838              	.LFE10:
 839              		.size	ip_output, .-ip_output
 840              		.global	current_iphdr_dest
 841              		.global	current_iphdr_src
 842              		.global	current_header
 843              		.global	current_netif
 844              		.section	.bss.current_header,"aw",%nobits
 845              		.align	2
 846              		.set	.LANCHOR3,. + 0
 847              		.type	current_header, %object
 848              		.size	current_header, 4
 849              	current_header:
 850 0000 00000000 		.space	4
 851              		.section	.bss.ip_id,"aw",%nobits
 852              		.align	1
 853              		.set	.LANCHOR4,. + 0
ARM GAS  /var/folders/5n/p_75w94d66l9ssrldxqdhh700000gn/T//ccWYmooo.s 			page 16


 854              		.type	ip_id, %object
 855              		.size	ip_id, 2
 856              	ip_id:
 857 0000 0000     		.space	2
 858              		.section	.bss.current_iphdr_src,"aw",%nobits
 859              		.align	2
 860              		.set	.LANCHOR1,. + 0
 861              		.type	current_iphdr_src, %object
 862              		.size	current_iphdr_src, 4
 863              	current_iphdr_src:
 864 0000 00000000 		.space	4
 865              		.section	.bss.current_iphdr_dest,"aw",%nobits
 866              		.align	2
 867              		.set	.LANCHOR0,. + 0
 868              		.type	current_iphdr_dest, %object
 869              		.size	current_iphdr_dest, 4
 870              	current_iphdr_dest:
 871 0000 00000000 		.space	4
 872              		.section	.bss.current_netif,"aw",%nobits
 873              		.align	2
 874              		.set	.LANCHOR2,. + 0
 875              		.type	current_netif, %object
 876              		.size	current_netif, 4
 877              	current_netif:
 878 0000 00000000 		.space	4
 879              		.text
 880              	.Letext0:
 881              		.file 2 "/usr/local/summon/lib/gcc/arm-none-eabi/4.6.2/../../../../arm-none-eabi/include/stdint.h"
 882              		.file 3 "../../os/various/lwip_bindings/arch/cc.h"
 883              		.file 4 "../../ext/lwip/src/include/lwip/err.h"
 884              		.file 5 "../../ext/lwip/src/include/lwip/pbuf.h"
 885              		.file 6 "../../ext/lwip/src/include/ipv4/lwip/ip_addr.h"
 886              		.file 7 "../../ext/lwip/src/include/lwip/netif.h"
 887              		.file 8 "../../ext/lwip/src/include/ipv4/lwip/ip.h"
 888              		.file 9 "../../ext/lwip/src/include/lwip/mem.h"
 889              		.file 10 "../../ext/lwip/src/include/lwip/stats.h"
 890              		.file 11 "../../ext/lwip/src/include/ipv4/lwip/icmp.h"
 891              		.file 12 "../../ext/lwip/src/include/lwip/memp.h"