ARM GAS  /var/folders/5n/p_75w94d66l9ssrldxqdhh700000gn/T//ccn4cl51.s 			page 1


   1              		.syntax unified
   2              		.cpu cortex-m4
   3              		.fpu softvfp
   4              		.eabi_attribute 20, 1
   5              		.eabi_attribute 21, 1
   6              		.eabi_attribute 23, 3
   7              		.eabi_attribute 24, 1
   8              		.eabi_attribute 25, 1
   9              		.eabi_attribute 26, 1
  10              		.eabi_attribute 30, 2
  11              		.eabi_attribute 18, 4
  12              		.thumb
  13              		.file	"ip_frag.c"
  14              		.text
  15              	.Ltext0:
  16              		.cfi_sections	.debug_frame
  17              		.section	.text.ipfrag_free_pbuf_custom,"ax",%progbits
  18              		.align	2
  19              		.p2align 4,,15
  20              		.thumb
  21              		.thumb_func
  22              		.type	ipfrag_free_pbuf_custom, %function
  23              	ipfrag_free_pbuf_custom:
  24              	.LFB16:
  25              		.file 1 "../../ext/lwip/src/core/ipv4/ip_frag.c"
  26              		.loc 1 641 0
  27              		.cfi_startproc
  28              		@ args = 0, pretend = 0, frame = 0
  29              		@ frame_needed = 0, uses_anonymous_args = 0
  30              	.LVL0:
  31 0000 10B5     		push	{r4, lr}
  32              	.LCFI0:
  33              		.cfi_def_cfa_offset 8
  34              		.cfi_offset 14, -4
  35              		.cfi_offset 4, -8
  36              		.loc 1 643 0
  37 0002 0446     		mov	r4, r0
  38 0004 48B1     		cbz	r0, .L5
  39              	.LVL1:
  40              	.L2:
  41              		.loc 1 645 0
  42 0006 6069     		ldr	r0, [r4, #20]
  43 0008 08B1     		cbz	r0, .L3
  44              		.loc 1 646 0
  45 000a FFF7FEFF 		bl	pbuf_free
  46              	.L3:
  47              	.LVL2:
  48              	.LBB16:
  49              	.LBB17:
  50              		.loc 1 634 0
  51 000e 0620     		movs	r0, #6
  52 0010 2146     		mov	r1, r4
  53              	.LBE17:
  54              	.LBE16:
  55              		.loc 1 649 0
  56 0012 BDE81040 		pop	{r4, lr}
  57              	.LBB19:
ARM GAS  /var/folders/5n/p_75w94d66l9ssrldxqdhh700000gn/T//ccn4cl51.s 			page 2


  58              	.LBB18:
  59              		.loc 1 634 0
  60 0016 FFF7FEBF 		b	memp_free
  61              	.LVL3:
  62              	.L5:
  63              	.LBE18:
  64              	.LBE19:
  65              		.loc 1 643 0 discriminator 1
  66 001a FFF7FEFF 		bl	port_halt
  67 001e F2E7     		b	.L2
  68              		.cfi_endproc
  69              	.LFE16:
  70              		.size	ipfrag_free_pbuf_custom, .-ipfrag_free_pbuf_custom
  71              		.section	.text.ip_reass_free_complete_datagram,"ax",%progbits
  72              		.align	2
  73              		.p2align 4,,15
  74              		.thumb
  75              		.thumb_func
  76              		.type	ip_reass_free_complete_datagram, %function
  77              	ip_reass_free_complete_datagram:
  78              	.LFB8:
  79              		.loc 1 159 0
  80              		.cfi_startproc
  81              		@ args = 0, pretend = 0, frame = 0
  82              		@ frame_needed = 0, uses_anonymous_args = 0
  83              	.LVL4:
  84              		.loc 1 165 0
  85 0000 8142     		cmp	r1, r0
  86              		.loc 1 159 0
  87 0002 2DE9F843 		push	{r3, r4, r5, r6, r7, r8, r9, lr}
  88              	.LCFI1:
  89              		.cfi_def_cfa_offset 32
  90              		.cfi_offset 14, -4
  91              		.cfi_offset 9, -8
  92              		.cfi_offset 8, -12
  93              		.cfi_offset 7, -16
  94              		.cfi_offset 6, -20
  95              		.cfi_offset 5, -24
  96              		.cfi_offset 4, -28
  97              		.cfi_offset 3, -32
  98              		.loc 1 159 0
  99 0006 0546     		mov	r5, r0
 100 0008 0E46     		mov	r6, r1
 101              		.loc 1 165 0
 102 000a 6ED0     		beq	.L21
 103              	.LVL5:
 104              	.L7:
 105              		.loc 1 166 0
 106 000c 26B1     		cbz	r6, .L8
 107              		.loc 1 167 0
 108 000e 3368     		ldr	r3, [r6, #0]
 109 0010 AB42     		cmp	r3, r5
 110 0012 01D0     		beq	.L8
 111              		.loc 1 167 0 is_stmt 0 discriminator 1
 112 0014 FFF7FEFF 		bl	port_halt
 113              	.L8:
 114              		.loc 1 172 0 is_stmt 1
ARM GAS  /var/folders/5n/p_75w94d66l9ssrldxqdhh700000gn/T//ccn4cl51.s 			page 3


 115 0018 6C68     		ldr	r4, [r5, #4]
 116 001a 6068     		ldr	r0, [r4, #4]
 117              	.LVL6:
 118              		.loc 1 173 0
 119 001c 0379     		ldrb	r3, [r0, #4]	@ zero_extendqisi2
 120 001e 4279     		ldrb	r2, [r0, #5]	@ zero_extendqisi2
 121 0020 53EA0222 		orrs	r2, r3, r2, lsl #8
 122 0024 1CBF     		itt	ne
 123 0026 4FF00008 		movne	r8, #0
 124              		.loc 1 160 0
 125 002a 4746     		movne	r7, r8
 126              		.loc 1 173 0
 127 002c 3FD0     		beq	.L22
 128              	.LVL7:
 129              	.L9:
 130              		.loc 1 191 0
 131 002e 34B3     		cbz	r4, .L10
 132              	.LBB20:
 133              		.loc 1 198 0
 134 0030 4FF6FF79 		movw	r9, #65535
 135 0034 07E0     		b	.L20
 136              	.LVL8:
 137              	.L11:
 138              		.loc 1 200 0
 139 0036 2046     		mov	r0, r4
 140              	.LVL9:
 141              		.loc 1 199 0
 142 0038 BFB2     		uxth	r7, r7
 143              	.LVL10:
 144              		.loc 1 200 0
 145 003a FFF7FEFF 		bl	pbuf_free
 146              	.LBE20:
 147              		.loc 1 191 0
 148 003e B8F1000F 		cmp	r8, #0
 149 0042 1BD0     		beq	.L23
 150              	.LVL11:
 151              	.L18:
 152              		.loc 1 196 0
 153 0044 4446     		mov	r4, r8
 154              	.LVL12:
 155              	.L20:
 156              	.LBB21:
 157              		.loc 1 193 0
 158 0046 6368     		ldr	r3, [r4, #4]
 159              	.LVL13:
 160              		.loc 1 196 0
 161 0048 1978     		ldrb	r1, [r3, #0]	@ zero_extendqisi2
 162 004a 93F80180 		ldrb	r8, [r3, #1]	@ zero_extendqisi2
 163 004e 9A78     		ldrb	r2, [r3, #2]	@ zero_extendqisi2
 164 0050 DB78     		ldrb	r3, [r3, #3]	@ zero_extendqisi2
 165 0052 41EA0828 		orr	r8, r1, r8, lsl #8
 166 0056 48EA0248 		orr	r8, r8, r2, lsl #16
 167              		.loc 1 197 0
 168 005a 2046     		mov	r0, r4
 169              		.loc 1 196 0
 170 005c 48EA0368 		orr	r8, r8, r3, lsl #24
 171              	.LVL14:
ARM GAS  /var/folders/5n/p_75w94d66l9ssrldxqdhh700000gn/T//ccn4cl51.s 			page 4


 172              		.loc 1 197 0
 173 0060 FFF7FEFF 		bl	pbuf_clen
 174              	.LVL15:
 175              		.loc 1 198 0
 176 0064 3F18     		adds	r7, r7, r0
 177 0066 4F45     		cmp	r7, r9
 178 0068 E5DD     		ble	.L11
 179              		.loc 1 198 0 is_stmt 0 discriminator 1
 180 006a FFF7FEFF 		bl	port_halt
 181              	.LVL16:
 182              		.loc 1 200 0 is_stmt 1 discriminator 1
 183 006e 2046     		mov	r0, r4
 184              		.loc 1 199 0 discriminator 1
 185 0070 BFB2     		uxth	r7, r7
 186              	.LVL17:
 187              		.loc 1 200 0 discriminator 1
 188 0072 FFF7FEFF 		bl	pbuf_free
 189              	.LBE21:
 190              		.loc 1 191 0 discriminator 1
 191 0076 B8F1000F 		cmp	r8, #0
 192 007a E3D1     		bne	.L18
 193              	.LVL18:
 194              	.L23:
 195              		.loc 1 191 0 is_stmt 0
 196 007c B846     		mov	r8, r7
 197              	.LVL19:
 198              	.L10:
 199              	.LBB22:
 200              	.LBB23:
 201              		.loc 1 308 0 is_stmt 1
 202 007e 1F4B     		ldr	r3, .L26
 203 0080 1A68     		ldr	r2, [r3, #0]
 204 0082 9542     		cmp	r5, r2
 205 0084 34D0     		beq	.L24
 206              		.loc 1 313 0
 207 0086 002E     		cmp	r6, #0
 208 0088 35D0     		beq	.L25
 209              	.L15:
 210              		.loc 1 314 0
 211 008a 2B68     		ldr	r3, [r5, #0]
 212 008c 3360     		str	r3, [r6, #0]
 213              	.L14:
 214              	.LBE23:
 215              	.LBE22:
 216              		.loc 1 204 0
 217 008e 1C4C     		ldr	r4, .L26+4
 218              	.LBB26:
 219              	.LBB24:
 220              		.loc 1 318 0
 221 0090 0520     		movs	r0, #5
 222 0092 2946     		mov	r1, r5
 223 0094 FFF7FEFF 		bl	memp_free
 224              	.LBE24:
 225              	.LBE26:
 226              		.loc 1 204 0
 227 0098 2388     		ldrh	r3, [r4, #0]
 228 009a 9F42     		cmp	r7, r3
ARM GAS  /var/folders/5n/p_75w94d66l9ssrldxqdhh700000gn/T//ccn4cl51.s 			page 5


 229 009c 02D9     		bls	.L16
 230              		.loc 1 204 0 is_stmt 0 discriminator 1
 231 009e FFF7FEFF 		bl	port_halt
 232 00a2 2388     		ldrh	r3, [r4, #0]
 233              	.L16:
 234              		.loc 1 205 0 is_stmt 1
 235 00a4 DF1B     		subs	r7, r3, r7
 236 00a6 2780     		strh	r7, [r4, #0]	@ movhi
 237              		.loc 1 208 0
 238 00a8 4046     		mov	r0, r8
 239 00aa BDE8F883 		pop	{r3, r4, r5, r6, r7, r8, r9, pc}
 240              	.LVL20:
 241              	.L22:
 242              		.loc 1 177 0
 243 00ae 4778     		ldrb	r7, [r0, #1]	@ zero_extendqisi2
 244 00b0 0378     		ldrb	r3, [r0, #0]	@ zero_extendqisi2
 245 00b2 8178     		ldrb	r1, [r0, #2]	@ zero_extendqisi2
 246 00b4 C278     		ldrb	r2, [r0, #3]	@ zero_extendqisi2
 247 00b6 43EA0723 		orr	r3, r3, r7, lsl #8
 248 00ba 43EA0143 		orr	r3, r3, r1, lsl #16
 249 00be 43EA0263 		orr	r3, r3, r2, lsl #24
 250 00c2 6B60     		str	r3, [r5, #4]
 251              		.loc 1 179 0
 252 00c4 1422     		movs	r2, #20
 253 00c6 05F10801 		add	r1, r5, #8
 254 00ca FFF7FEFF 		bl	memcpy
 255              	.LVL21:
 256              		.loc 1 180 0
 257 00ce 2046     		mov	r0, r4
 258 00d0 0121     		movs	r1, #1
 259 00d2 FFF7FEFF 		bl	icmp_time_exceeded
 260              		.loc 1 181 0
 261 00d6 2046     		mov	r0, r4
 262 00d8 FFF7FEFF 		bl	pbuf_clen
 263 00dc 0746     		mov	r7, r0
 264              	.LVL22:
 265              		.loc 1 184 0
 266 00de 2046     		mov	r0, r4
 267              	.LVL23:
 268 00e0 FFF7FEFF 		bl	pbuf_free
 269 00e4 B846     		mov	r8, r7
 270 00e6 6C68     		ldr	r4, [r5, #4]
 271              	.LVL24:
 272 00e8 A1E7     		b	.L9
 273              	.LVL25:
 274              	.L21:
 275              		.loc 1 165 0 discriminator 1
 276 00ea FFF7FEFF 		bl	port_halt
 277 00ee 8DE7     		b	.L7
 278              	.LVL26:
 279              	.L24:
 280              	.LBB27:
 281              	.LBB25:
 282              		.loc 1 310 0
 283 00f0 2A68     		ldr	r2, [r5, #0]
 284 00f2 1A60     		str	r2, [r3, #0]
 285 00f4 CBE7     		b	.L14
ARM GAS  /var/folders/5n/p_75w94d66l9ssrldxqdhh700000gn/T//ccn4cl51.s 			page 6


 286              	.L25:
 287              		.loc 1 313 0
 288 00f6 FFF7FEFF 		bl	port_halt
 289 00fa C6E7     		b	.L15
 290              	.L27:
 291              		.align	2
 292              	.L26:
 293 00fc 00000000 		.word	.LANCHOR0
 294 0100 00000000 		.word	.LANCHOR1
 295              	.LBE25:
 296              	.LBE27:
 297              		.cfi_endproc
 298              	.LFE8:
 299              		.size	ip_reass_free_complete_datagram, .-ip_reass_free_complete_datagram
 300 0104 AFF30080 		.section	.text.ip_reass_remove_oldest_datagram,"ax",%progbits
 300      AFF30080 
 300      AFF30080 
 301              		.align	2
 302              		.p2align 4,,15
 303              		.thumb
 304              		.thumb_func
 305              		.type	ip_reass_remove_oldest_datagram, %function
 306              	ip_reass_remove_oldest_datagram:
 307              	.LFB9:
 308              		.loc 1 222 0
 309              		.cfi_startproc
 310              		@ args = 0, pretend = 0, frame = 8
 311              		@ frame_needed = 0, uses_anonymous_args = 0
 312              	.LVL27:
 313 0000 2DE9F04F 		push	{r4, r5, r6, r7, r8, r9, sl, fp, lr}
 314              	.LCFI2:
 315              		.cfi_def_cfa_offset 36
 316              		.cfi_offset 14, -4
 317              		.cfi_offset 11, -8
 318              		.cfi_offset 10, -12
 319              		.cfi_offset 9, -16
 320              		.cfi_offset 8, -20
 321              		.cfi_offset 7, -24
 322              		.cfi_offset 6, -28
 323              		.cfi_offset 5, -32
 324              		.cfi_offset 4, -36
 325 0004 83B0     		sub	sp, sp, #12
 326              	.LCFI3:
 327              		.cfi_def_cfa_offset 48
 328              		.loc 1 227 0
 329 0006 0026     		movs	r6, #0
 330 0008 DFF8C0B0 		ldr	fp, .L43
 331              		.loc 1 222 0
 332 000c 0191     		str	r1, [sp, #4]
 333 000e 0546     		mov	r5, r0
 334              		.loc 1 227 0
 335 0010 B246     		mov	sl, r6
 336              	.LVL28:
 337              	.L35:
 338              		.loc 1 236 0
 339 0012 DBF80030 		ldr	r3, [fp, #0]
 340              	.LVL29:
ARM GAS  /var/folders/5n/p_75w94d66l9ssrldxqdhh700000gn/T//ccn4cl51.s 			page 7


 341              		.loc 1 237 0
 342 0016 002B     		cmp	r3, #0
 343 0018 48D0     		beq	.L29
 344 001a 6C7B     		ldrb	r4, [r5, #13]	@ zero_extendqisi2
 345 001c 2A7B     		ldrb	r2, [r5, #12]	@ zero_extendqisi2
 346 001e A87B     		ldrb	r0, [r5, #14]	@ zero_extendqisi2
 347 0020 E97B     		ldrb	r1, [r5, #15]	@ zero_extendqisi2
 348 0022 42EA0422 		orr	r2, r2, r4, lsl #8
 349 0026 42EA0042 		orr	r2, r2, r0, lsl #16
 350              		.loc 1 235 0
 351 002a 0024     		movs	r4, #0
 352              		.loc 1 237 0
 353 002c 42EA0162 		orr	r2, r2, r1, lsl #24
 354              		.loc 1 233 0
 355 0030 2046     		mov	r0, r4
 356              		.loc 1 234 0
 357 0032 2146     		mov	r1, r4
 358 0034 0AE0     		b	.L32
 359              	.LVL30:
 360              	.L30:
 361              		.loc 1 240 0
 362 0036 0134     		adds	r4, r4, #1
 363              	.LVL31:
 364              		.loc 1 241 0
 365 0038 30B3     		cbz	r0, .L36
 366              	.L41:
 367              		.loc 1 243 0
 368 003a DF7F     		ldrb	r7, [r3, #31]	@ zero_extendqisi2
 369 003c C67F     		ldrb	r6, [r0, #31]	@ zero_extendqisi2
 370 003e B742     		cmp	r7, r6
 371 0040 98BF     		it	ls
 372 0042 1846     		movls	r0, r3
 373              	.LVL32:
 374              	.L31:
 375              		.loc 1 248 0
 376 0044 1E68     		ldr	r6, [r3, #0]
 377 0046 1EB3     		cbz	r6, .L40
 378              	.L38:
 379 0048 1946     		mov	r1, r3
 380 004a 3346     		mov	r3, r6
 381              	.LVL33:
 382              	.L32:
 383              		.loc 1 238 0
 384 004c 5E69     		ldr	r6, [r3, #20]
 385 004e B242     		cmp	r2, r6
 386 0050 F1D1     		bne	.L30
 387              		.loc 1 238 0 is_stmt 0 discriminator 1
 388 0052 95F810C0 		ldrb	ip, [r5, #16]	@ zero_extendqisi2
 389 0056 95F81180 		ldrb	r8, [r5, #17]	@ zero_extendqisi2
 390 005a AF7C     		ldrb	r7, [r5, #18]	@ zero_extendqisi2
 391 005c EE7C     		ldrb	r6, [r5, #19]	@ zero_extendqisi2
 392 005e D3F81890 		ldr	r9, [r3, #24]
 393 0062 4CEA082C 		orr	ip, ip, r8, lsl #8
 394 0066 4CEA074C 		orr	ip, ip, r7, lsl #16
 395 006a 4CEA0666 		orr	r6, ip, r6, lsl #24
 396 006e B145     		cmp	r9, r6
 397 0070 E1D1     		bne	.L30
ARM GAS  /var/folders/5n/p_75w94d66l9ssrldxqdhh700000gn/T//ccn4cl51.s 			page 8


 398 0072 2E79     		ldrb	r6, [r5, #4]	@ zero_extendqisi2
 399 0074 95F805C0 		ldrb	ip, [r5, #5]	@ zero_extendqisi2
 400 0078 9F89     		ldrh	r7, [r3, #12]
 401 007a 46EA0C26 		orr	r6, r6, ip, lsl #8
 402 007e B742     		cmp	r7, r6
 403 0080 E0D0     		beq	.L31
 404              		.loc 1 240 0 is_stmt 1
 405 0082 0134     		adds	r4, r4, #1
 406              	.LVL34:
 407              		.loc 1 241 0
 408 0084 0028     		cmp	r0, #0
 409 0086 D8D1     		bne	.L41
 410              	.L36:
 411              		.loc 1 248 0
 412 0088 1E68     		ldr	r6, [r3, #0]
 413              		.loc 1 241 0
 414 008a 1846     		mov	r0, r3
 415              	.LVL35:
 416              		.loc 1 248 0
 417 008c 002E     		cmp	r6, #0
 418 008e DBD1     		bne	.L38
 419              	.LVL36:
 420              	.L40:
 421              		.loc 1 253 0
 422 0090 88B1     		cbz	r0, .L42
 423              		.loc 1 254 0
 424 0092 FFF7FEFF 		bl	ip_reass_free_complete_datagram
 425              	.LVL37:
 426              		.loc 1 255 0
 427 0096 019A     		ldr	r2, [sp, #4]
 428 0098 8244     		add	sl, sl, r0
 429              	.LVL38:
 430 009a 9245     		cmp	sl, r2
 431 009c ACBF     		ite	ge
 432 009e 0023     		movge	r3, #0
 433 00a0 0123     		movlt	r3, #1
 434 00a2 012C     		cmp	r4, #1
 435 00a4 D8BF     		it	le
 436 00a6 0023     		movle	r3, #0
 437              		.loc 1 257 0
 438 00a8 002B     		cmp	r3, #0
 439 00aa B2D1     		bne	.L35
 440              	.LVL39:
 441              	.L29:
 442 00ac 5646     		mov	r6, sl
 443              		.loc 1 259 0
 444 00ae 5046     		mov	r0, sl
 445 00b0 03B0     		add	sp, sp, #12
 446 00b2 BDE8F08F 		pop	{r4, r5, r6, r7, r8, r9, sl, fp, pc}
 447              	.LVL40:
 448              	.L42:
 449              		.loc 1 253 0
 450 00b6 019A     		ldr	r2, [sp, #4]
 451 00b8 012C     		cmp	r4, #1
 452 00ba D4BF     		ite	le
 453 00bc 0023     		movle	r3, #0
 454 00be 0123     		movgt	r3, #1
ARM GAS  /var/folders/5n/p_75w94d66l9ssrldxqdhh700000gn/T//ccn4cl51.s 			page 9


 455 00c0 9245     		cmp	sl, r2
 456 00c2 A8BF     		it	ge
 457 00c4 0023     		movge	r3, #0
 458              		.loc 1 257 0
 459 00c6 002B     		cmp	r3, #0
 460 00c8 A3D1     		bne	.L35
 461 00ca EFE7     		b	.L29
 462              	.L44:
 463              		.align	2
 464              	.L43:
 465 00cc 00000000 		.word	.LANCHOR0
 466              		.cfi_endproc
 467              	.LFE9:
 468              		.size	ip_reass_remove_oldest_datagram, .-ip_reass_remove_oldest_datagram
 469              		.section	.text.ip_reass_tmr,"ax",%progbits
 470              		.align	2
 471              		.p2align 4,,15
 472              		.global	ip_reass_tmr
 473              		.thumb
 474              		.thumb_func
 475              		.type	ip_reass_tmr, %function
 476              	ip_reass_tmr:
 477              	.LFB7:
 478              		.loc 1 123 0
 479              		.cfi_startproc
 480              		@ args = 0, pretend = 0, frame = 0
 481              		@ frame_needed = 0, uses_anonymous_args = 0
 482              	.LVL41:
 483 0000 38B5     		push	{r3, r4, r5, lr}
 484              	.LCFI4:
 485              		.cfi_def_cfa_offset 16
 486              		.cfi_offset 14, -4
 487              		.cfi_offset 5, -8
 488              		.cfi_offset 4, -12
 489              		.cfi_offset 3, -16
 490              		.loc 1 126 0
 491 0002 0A4B     		ldr	r3, .L51
 492 0004 1868     		ldr	r0, [r3, #0]
 493              	.LVL42:
 494              		.loc 1 127 0
 495 0006 40B1     		cbz	r0, .L45
 496 0008 0024     		movs	r4, #0
 497              	.LVL43:
 498              	.L49:
 499              		.loc 1 130 0
 500 000a C37F     		ldrb	r3, [r0, #31]	@ zero_extendqisi2
 501              		.loc 1 131 0
 502 000c 5A1E     		subs	r2, r3, #1
 503              		.loc 1 130 0
 504 000e 2BB1     		cbz	r3, .L47
 505              		.loc 1 131 0
 506 0010 C277     		strb	r2, [r0, #31]
 507              	.LVL44:
 508              		.loc 1 134 0
 509 0012 0446     		mov	r4, r0
 510 0014 0068     		ldr	r0, [r0, #0]
 511              	.LVL45:
ARM GAS  /var/folders/5n/p_75w94d66l9ssrldxqdhh700000gn/T//ccn4cl51.s 			page 10


 512              		.loc 1 127 0
 513 0016 0028     		cmp	r0, #0
 514 0018 F7D1     		bne	.L49
 515              	.LVL46:
 516              	.L45:
 517 001a 38BD     		pop	{r3, r4, r5, pc}
 518              	.L47:
 519              	.LVL47:
 520              	.LBB28:
 521              		.loc 1 141 0
 522 001c 0568     		ldr	r5, [r0, #0]
 523              	.LVL48:
 524              		.loc 1 143 0
 525 001e 2146     		mov	r1, r4
 526 0020 FFF7FEFF 		bl	ip_reass_free_complete_datagram
 527              	.LVL49:
 528              		.loc 1 141 0
 529 0024 2846     		mov	r0, r5
 530              	.LVL50:
 531              	.LBE28:
 532              		.loc 1 127 0
 533 0026 0028     		cmp	r0, #0
 534 0028 EFD1     		bne	.L49
 535 002a F6E7     		b	.L45
 536              	.L52:
 537              		.align	2
 538              	.L51:
 539 002c 00000000 		.word	.LANCHOR0
 540              		.cfi_endproc
 541              	.LFE7:
 542              		.size	ip_reass_tmr, .-ip_reass_tmr
 543              		.section	.text.ip_reass,"ax",%progbits
 544              		.align	2
 545              		.p2align 4,,15
 546              		.global	ip_reass
 547              		.thumb
 548              		.thumb_func
 549              		.type	ip_reass, %function
 550              	ip_reass:
 551              	.LFB13:
 552              		.loc 1 477 0
 553              		.cfi_startproc
 554              		@ args = 0, pretend = 0, frame = 16
 555              		@ frame_needed = 0, uses_anonymous_args = 0
 556              	.LVL51:
 557 0000 2DE9F04F 		push	{r4, r5, r6, r7, r8, r9, sl, fp, lr}
 558              	.LCFI5:
 559              		.cfi_def_cfa_offset 36
 560              		.cfi_offset 14, -4
 561              		.cfi_offset 11, -8
 562              		.cfi_offset 10, -12
 563              		.cfi_offset 9, -16
 564              		.cfi_offset 8, -20
 565              		.cfi_offset 7, -24
 566              		.cfi_offset 6, -28
 567              		.cfi_offset 5, -32
 568              		.cfi_offset 4, -36
ARM GAS  /var/folders/5n/p_75w94d66l9ssrldxqdhh700000gn/T//ccn4cl51.s 			page 11


 569              		.loc 1 486 0
 570 0004 DFF838A5 		ldr	sl, .L123+4
 571              		.loc 1 489 0
 572 0008 4768     		ldr	r7, [r0, #4]
 573              	.LVL52:
 574              		.loc 1 486 0
 575 000a BAF83230 		ldrh	r3, [sl, #50]
 576 000e 0133     		adds	r3, r3, #1
 577 0010 AAF83230 		strh	r3, [sl, #50]	@ movhi
 578              		.loc 1 491 0
 579 0014 3B78     		ldrb	r3, [r7, #0]	@ zero_extendqisi2
 580              		.loc 1 477 0
 581 0016 0646     		mov	r6, r0
 582              		.loc 1 491 0
 583 0018 7878     		ldrb	r0, [r7, #1]	@ zero_extendqisi2
 584              	.LVL53:
 585              		.loc 1 477 0
 586 001a 85B0     		sub	sp, sp, #20
 587              	.LCFI6:
 588              		.cfi_def_cfa_offset 56
 589              		.loc 1 491 0
 590 001c 43EA0020 		orr	r0, r3, r0, lsl #8
 591 0020 FFF7FEFF 		bl	lwip_ntohs
 592              	.LVL54:
 593 0024 C0F30320 		ubfx	r0, r0, #8, #4
 594 0028 0528     		cmp	r0, #5
 595 002a 40F03681 		bne	.L112
 596              		.loc 1 497 0
 597 002e BB79     		ldrb	r3, [r7, #6]	@ zero_extendqisi2
 598 0030 F879     		ldrb	r0, [r7, #7]	@ zero_extendqisi2
 599              		.loc 1 502 0
 600 0032 DFF810B5 		ldr	fp, .L123+8
 601              		.loc 1 497 0
 602 0036 43EA0020 		orr	r0, r3, r0, lsl #8
 603 003a FFF7FEFF 		bl	lwip_ntohs
 604 003e 0290     		str	r0, [sp, #8]
 605              	.LVL55:
 606              		.loc 1 498 0
 607 0040 BB78     		ldrb	r3, [r7, #2]	@ zero_extendqisi2
 608 0042 F878     		ldrb	r0, [r7, #3]	@ zero_extendqisi2
 609 0044 43EA0020 		orr	r0, r3, r0, lsl #8
 610 0048 FFF7FEFF 		bl	lwip_ntohs
 611 004c 0390     		str	r0, [sp, #12]
 612 004e 3B78     		ldrb	r3, [r7, #0]	@ zero_extendqisi2
 613 0050 7878     		ldrb	r0, [r7, #1]	@ zero_extendqisi2
 614 0052 43EA0020 		orr	r0, r3, r0, lsl #8
 615 0056 FFF7FEFF 		bl	lwip_ntohs
 616 005a 8146     		mov	r9, r0
 617              	.LVL56:
 618              		.loc 1 501 0
 619 005c 3046     		mov	r0, r6
 620              	.LVL57:
 621 005e FFF7FEFF 		bl	pbuf_clen
 622              		.loc 1 502 0
 623 0062 BBF80030 		ldrh	r3, [fp, #0]
 624 0066 1B18     		adds	r3, r3, r0
 625 0068 0A2B     		cmp	r3, #10
ARM GAS  /var/folders/5n/p_75w94d66l9ssrldxqdhh700000gn/T//ccn4cl51.s 			page 12


 626              		.loc 1 501 0
 627 006a 8046     		mov	r8, r0
 628              	.LVL58:
 629              		.loc 1 502 0
 630 006c 00F32881 		bgt	.L113
 631              	.LVL59:
 632              	.L56:
 633              		.loc 1 520 0
 634 0070 40F20001 		movw	r1, #:lower16:.LANCHOR0
 635 0074 C0F20001 		movt	r1, #:upper16:.LANCHOR0
 636 0078 0C68     		ldr	r4, [r1, #0]
 637              	.LVL60:
 638 007a 002C     		cmp	r4, #0
 639 007c 44D0     		beq	.L93
 640 007e 3B7B     		ldrb	r3, [r7, #12]	@ zero_extendqisi2
 641 0080 787B     		ldrb	r0, [r7, #13]	@ zero_extendqisi2
 642 0082 B97B     		ldrb	r1, [r7, #14]	@ zero_extendqisi2
 643 0084 FA7B     		ldrb	r2, [r7, #15]	@ zero_extendqisi2
 644 0086 43EA0023 		orr	r3, r3, r0, lsl #8
 645 008a 43EA0143 		orr	r3, r3, r1, lsl #16
 646 008e 43EA0263 		orr	r3, r3, r2, lsl #24
 647              		.loc 1 484 0
 648 0092 0025     		movs	r5, #0
 649 0094 04E0     		b	.L62
 650              	.LVL61:
 651              	.L59:
 652              		.loc 1 520 0
 653 0096 2268     		ldr	r2, [r4, #0]
 654              	.LVL62:
 655 0098 2546     		mov	r5, r4
 656 009a 002A     		cmp	r2, #0
 657 009c 35D0     		beq	.L58
 658 009e 1446     		mov	r4, r2
 659              	.LVL63:
 660              	.L62:
 661              		.loc 1 524 0
 662 00a0 6269     		ldr	r2, [r4, #20]
 663 00a2 9A42     		cmp	r2, r3
 664 00a4 F7D1     		bne	.L59
 665              		.loc 1 524 0 is_stmt 0 discriminator 1
 666 00a6 97F810E0 		ldrb	lr, [r7, #16]	@ zero_extendqisi2
 667 00aa 97F811C0 		ldrb	ip, [r7, #17]	@ zero_extendqisi2
 668 00ae B87C     		ldrb	r0, [r7, #18]	@ zero_extendqisi2
 669 00b0 F97C     		ldrb	r1, [r7, #19]	@ zero_extendqisi2
 670 00b2 A269     		ldr	r2, [r4, #24]
 671 00b4 4EEA0C2E 		orr	lr, lr, ip, lsl #8
 672 00b8 4EEA004E 		orr	lr, lr, r0, lsl #16
 673 00bc 4EEA0161 		orr	r1, lr, r1, lsl #24
 674 00c0 8A42     		cmp	r2, r1
 675 00c2 E8D1     		bne	.L59
 676 00c4 3A79     		ldrb	r2, [r7, #4]	@ zero_extendqisi2
 677 00c6 7879     		ldrb	r0, [r7, #5]	@ zero_extendqisi2
 678 00c8 A189     		ldrh	r1, [r4, #12]
 679 00ca 42EA0022 		orr	r2, r2, r0, lsl #8
 680 00ce 9142     		cmp	r1, r2
 681 00d0 E1D1     		bne	.L59
 682              		.loc 1 527 0 is_stmt 1
ARM GAS  /var/folders/5n/p_75w94d66l9ssrldxqdhh700000gn/T//ccn4cl51.s 			page 13


 683 00d2 BAF84630 		ldrh	r3, [sl, #70]
 684 00d6 0133     		adds	r3, r3, #1
 685 00d8 AAF84630 		strh	r3, [sl, #70]	@ movhi
 686              		.loc 1 541 0
 687 00dc BB79     		ldrb	r3, [r7, #6]	@ zero_extendqisi2
 688 00de F879     		ldrb	r0, [r7, #7]	@ zero_extendqisi2
 689 00e0 43EA0020 		orr	r0, r3, r0, lsl #8
 690 00e4 FFF7FEFF 		bl	lwip_ntohs
 691 00e8 C004     		lsls	r0, r0, #19
 692 00ea C00C     		lsrs	r0, r0, #19
 693 00ec 40BB     		cbnz	r0, .L61
 694              		.loc 1 542 0 discriminator 1
 695 00ee E089     		ldrh	r0, [r4, #14]
 696 00f0 FFF7FEFF 		bl	lwip_ntohs
 697 00f4 C004     		lsls	r0, r0, #19
 698 00f6 C00C     		lsrs	r0, r0, #19
 699              		.loc 1 541 0 discriminator 1
 700 00f8 10B3     		cbz	r0, .L61
 701              		.loc 1 547 0
 702 00fa 04F10800 		add	r0, r4, #8
 703 00fe 3946     		mov	r1, r7
 704 0100 1422     		movs	r2, #20
 705 0102 FFF7FEFF 		bl	memcpy
 706 0106 1BE0     		b	.L61
 707              	.LVL64:
 708              	.L93:
 709              		.loc 1 484 0
 710 0108 2546     		mov	r5, r4
 711              	.LVL65:
 712              	.L58:
 713              	.LBB35:
 714              	.LBB36:
 715              		.loc 1 273 0
 716 010a 0520     		movs	r0, #5
 717 010c FFF7FEFF 		bl	memp_malloc
 718              	.LVL66:
 719              		.loc 1 274 0
 720 0110 0446     		mov	r4, r0
 721 0112 0028     		cmp	r0, #0
 722 0114 00F00781 		beq	.L114
 723              	.L64:
 724              		.loc 1 287 0
 725 0118 0021     		movs	r1, #0
 726 011a 2022     		movs	r2, #32
 727 011c 2046     		mov	r0, r4
 728              	.LVL67:
 729 011e FFF7FEFF 		bl	memset
 730              		.loc 1 291 0
 731 0122 40F20002 		movw	r2, #:lower16:.LANCHOR0
 732 0126 C0F20002 		movt	r2, #:upper16:.LANCHOR0
 733              		.loc 1 295 0
 734 012a 04F10800 		add	r0, r4, #8
 735              		.loc 1 291 0
 736 012e 1368     		ldr	r3, [r2, #0]
 737              		.loc 1 292 0
 738 0130 1460     		str	r4, [r2, #0]
 739              		.loc 1 288 0
ARM GAS  /var/folders/5n/p_75w94d66l9ssrldxqdhh700000gn/T//ccn4cl51.s 			page 14


 740 0132 0322     		movs	r2, #3
 741 0134 E277     		strb	r2, [r4, #31]
 742              		.loc 1 291 0
 743 0136 2360     		str	r3, [r4, #0]
 744              		.loc 1 295 0
 745 0138 3946     		mov	r1, r7
 746 013a 1422     		movs	r2, #20
 747 013c FFF7FEFF 		bl	memcpy
 748              	.LVL68:
 749              	.L61:
 750              	.LBE36:
 751              	.LBE35:
 752              		.loc 1 552 0
 753 0140 BBF80030 		ldrh	r3, [fp, #0]
 754 0144 9844     		add	r8, r8, r3
 755              	.LVL69:
 756 0146 ABF80080 		strh	r8, [fp, #0]	@ movhi
 757              		.loc 1 558 0
 758 014a BB79     		ldrb	r3, [r7, #6]	@ zero_extendqisi2
 759 014c 9B06     		lsls	r3, r3, #26
 760 014e 13D4     		bmi	.L65
 761              		.loc 1 497 0
 762 0150 DDF808C0 		ldr	ip, [sp, #8]
 763              		.loc 1 559 0
 764 0154 A27F     		ldrb	r2, [r4, #30]	@ zero_extendqisi2
 765              		.loc 1 497 0
 766 0156 4FEACC43 		lsl	r3, ip, #19
 767              		.loc 1 498 0
 768 015a DDF80CC0 		ldr	ip, [sp, #12]
 769              		.loc 1 497 0
 770 015e DB0C     		lsrs	r3, r3, #19
 771              		.loc 1 498 0
 772 0160 C9F30329 		ubfx	r9, r9, #8, #4
 773              	.LVL70:
 774 0164 0CEBC303 		add	r3, ip, r3, lsl #3
 775 0168 C9EB8939 		rsb	r9, r9, r9, lsl #14
 776              		.loc 1 559 0
 777 016c 42F00102 		orr	r2, r2, #1
 778              		.loc 1 560 0
 779 0170 03EB8903 		add	r3, r3, r9, lsl #2
 780              		.loc 1 559 0
 781 0174 A277     		strb	r2, [r4, #30]
 782              		.loc 1 560 0
 783 0176 A383     		strh	r3, [r4, #28]	@ movhi
 784              	.L65:
 785              	.LVL71:
 786              	.LBB39:
 787              	.LBB40:
 788              		.loc 1 340 0
 789 0178 7768     		ldr	r7, [r6, #4]
 790              	.LVL72:
 791              		.loc 1 341 0
 792 017a BB78     		ldrb	r3, [r7, #2]	@ zero_extendqisi2
 793 017c F878     		ldrb	r0, [r7, #3]	@ zero_extendqisi2
 794 017e 43EA0020 		orr	r0, r3, r0, lsl #8
 795 0182 FFF7FEFF 		bl	lwip_ntohs
 796              	.LVL73:
ARM GAS  /var/folders/5n/p_75w94d66l9ssrldxqdhh700000gn/T//ccn4cl51.s 			page 15


 797 0186 3B78     		ldrb	r3, [r7, #0]	@ zero_extendqisi2
 798 0188 8046     		mov	r8, r0
 799 018a 7878     		ldrb	r0, [r7, #1]	@ zero_extendqisi2
 800 018c 43EA0020 		orr	r0, r3, r0, lsl #8
 801 0190 FFF7FEFF 		bl	lwip_ntohs
 802              		.loc 1 342 0
 803 0194 BB79     		ldrb	r3, [r7, #6]	@ zero_extendqisi2
 804              		.loc 1 341 0
 805 0196 8146     		mov	r9, r0
 806              	.LVL74:
 807              		.loc 1 342 0
 808 0198 F879     		ldrb	r0, [r7, #7]	@ zero_extendqisi2
 809              	.LVL75:
 810 019a 43EA0020 		orr	r0, r3, r0, lsl #8
 811 019e FFF7FEFF 		bl	lwip_ntohs
 812 01a2 C204     		lsls	r2, r0, #19
 813 01a4 D20C     		lsrs	r2, r2, #19
 814 01a6 D200     		lsls	r2, r2, #3
 815              	.LVL76:
 816              		.loc 1 341 0
 817 01a8 C9F30329 		ubfx	r9, r9, #8, #4
 818              	.LVL77:
 819 01ac 9044     		add	r8, r2, r8
 820 01ae C9EB8939 		rsb	r9, r9, r9, lsl #14
 821              		.loc 1 349 0
 822 01b2 7068     		ldr	r0, [r6, #4]
 823              	.LVL78:
 824              		.loc 1 352 0
 825 01b4 08EB8908 		add	r8, r8, r9, lsl #2
 826              		.loc 1 350 0
 827 01b8 0023     		movs	r3, #0
 828              		.loc 1 352 0
 829 01ba 1FFA88F8 		uxth	r8, r8
 830              		.loc 1 351 0
 831 01be 170A     		lsrs	r7, r2, #8
 832              	.LVL79:
 833              		.loc 1 352 0
 834 01c0 CDF80880 		str	r8, [sp, #8]
 835              		.loc 1 350 0
 836 01c4 0370     		strb	r3, [r0, #0]
 837 01c6 4370     		strb	r3, [r0, #1]
 838 01c8 8370     		strb	r3, [r0, #2]
 839 01ca C370     		strb	r3, [r0, #3]
 840              		.loc 1 351 0
 841 01cc 0271     		strb	r2, [r0, #4]
 842 01ce 4771     		strb	r7, [r0, #5]
 843              		.loc 1 352 0
 844 01d0 029B     		ldr	r3, [sp, #8]
 845 01d2 4FEA1821 		lsr	r1, r8, #8
 846 01d6 8371     		strb	r3, [r0, #6]
 847 01d8 C171     		strb	r1, [r0, #7]
 848              		.loc 1 356 0
 849 01da D4F804A0 		ldr	sl, [r4, #4]
 850              	.LVL80:
 851 01de BAF1000F 		cmp	sl, #0
 852 01e2 00F09281 		beq	.L95
 853              		.loc 1 357 0
ARM GAS  /var/folders/5n/p_75w94d66l9ssrldxqdhh700000gn/T//ccn4cl51.s 			page 16


 854 01e6 DAF80470 		ldr	r7, [sl, #4]
 855              	.LVL81:
 856              		.loc 1 358 0
 857 01ea 3B79     		ldrb	r3, [r7, #4]	@ zero_extendqisi2
 858 01ec 7979     		ldrb	r1, [r7, #5]	@ zero_extendqisi2
 859 01ee 43EA0123 		orr	r3, r3, r1, lsl #8
 860 01f2 9A42     		cmp	r2, r3
 861 01f4 C0F07A81 		bcc	.L67
 862              		.loc 1 375 0
 863 01f8 00F08780 		beq	.L68
 864              		.loc 1 379 0
 865 01fc BB79     		ldrb	r3, [r7, #6]	@ zero_extendqisi2
 866 01fe F979     		ldrb	r1, [r7, #7]	@ zero_extendqisi2
 867 0200 43EA0123 		orr	r3, r3, r1, lsl #8
 868 0204 9A42     		cmp	r2, r3
 869 0206 28BF     		it	cs
 870 0208 4FF00108 		movcs	r8, #1
 871 020c 1AD2     		bcs	.L69
 872 020e 7CE0     		b	.L68
 873              	.LVL82:
 874              	.L73:
 875              		.loc 1 357 0
 876 0210 4B68     		ldr	r3, [r1, #4]
 877              	.LVL83:
 878              		.loc 1 358 0
 879 0212 93F804C0 		ldrb	ip, [r3, #4]	@ zero_extendqisi2
 880 0216 93F80590 		ldrb	r9, [r3, #5]	@ zero_extendqisi2
 881 021a 4CEA092C 		orr	ip, ip, r9, lsl #8
 882 021e 6245     		cmp	r2, ip
 883 0220 5AD3     		bcc	.L115
 884              	.LVL84:
 885              		.loc 1 375 0
 886 0222 72D0     		beq	.L68
 887              		.loc 1 379 0
 888 0224 9979     		ldrb	r1, [r3, #6]	@ zero_extendqisi2
 889              	.LVL85:
 890 0226 93F80790 		ldrb	r9, [r3, #7]	@ zero_extendqisi2
 891 022a 41EA0921 		orr	r1, r1, r9, lsl #8
 892 022e 8A42     		cmp	r2, r1
 893 0230 6BD3     		bcc	.L68
 894              		.loc 1 386 0
 895 0232 B979     		ldrb	r1, [r7, #6]	@ zero_extendqisi2
 896 0234 FF79     		ldrb	r7, [r7, #7]	@ zero_extendqisi2
 897              	.LVL86:
 898 0236 41EA0721 		orr	r1, r1, r7, lsl #8
 899              		.loc 1 389 0
 900 023a 8C45     		cmp	ip, r1
 901 023c 18BF     		it	ne
 902 023e 4FF00008 		movne	r8, #0
 903              	.LVL87:
 904              		.loc 1 379 0
 905 0242 1F46     		mov	r7, r3
 906              	.LVL88:
 907              	.L69:
 908              		.loc 1 393 0
 909 0244 97F800C0 		ldrb	ip, [r7, #0]	@ zero_extendqisi2
 910 0248 97F80190 		ldrb	r9, [r7, #1]	@ zero_extendqisi2
ARM GAS  /var/folders/5n/p_75w94d66l9ssrldxqdhh700000gn/T//ccn4cl51.s 			page 17


 911 024c B978     		ldrb	r1, [r7, #2]	@ zero_extendqisi2
 912 024e FB78     		ldrb	r3, [r7, #3]	@ zero_extendqisi2
 913 0250 4CEA092C 		orr	ip, ip, r9, lsl #8
 914 0254 4CEA0141 		orr	r1, ip, r1, lsl #16
 915              	.LVL89:
 916              		.loc 1 356 0
 917 0258 51EA0361 		orrs	r1, r1, r3, lsl #24
 918              	.LVL90:
 919 025c D8D1     		bne	.L73
 920              		.loc 1 399 0
 921 025e 002F     		cmp	r7, #0
 922 0260 00F05781 		beq	.L116
 923              		.loc 1 403 0
 924 0264 B979     		ldrb	r1, [r7, #6]	@ zero_extendqisi2
 925              	.LVL91:
 926 0266 97F80790 		ldrb	r9, [r7, #7]	@ zero_extendqisi2
 927 026a 0379     		ldrb	r3, [r0, #4]	@ zero_extendqisi2
 928 026c 4279     		ldrb	r2, [r0, #5]	@ zero_extendqisi2
 929              	.LVL92:
 930 026e 41EA0929 		orr	r9, r1, r9, lsl #8
 931 0272 43EA0223 		orr	r3, r3, r2, lsl #8
 932 0276 9945     		cmp	r9, r3
 933 0278 00F21E81 		bhi	.L117
 934              	.LVL93:
 935              	.L76:
 936              		.loc 1 405 0
 937 027c C6F3072C 		ubfx	ip, r6, #8, #8
 938 0280 C6F30741 		ubfx	r1, r6, #16, #8
 939 0284 320E     		lsrs	r2, r6, #24
 940 0286 3E70     		strb	r6, [r7, #0]
 941 0288 87F801C0 		strb	ip, [r7, #1]
 942 028c B970     		strb	r1, [r7, #2]
 943 028e FA70     		strb	r2, [r7, #3]
 944              		.loc 1 407 0
 945 0290 4B45     		cmp	r3, r9
 946 0292 18BF     		it	ne
 947 0294 4FF00008 		movne	r8, #0
 948              	.LVL94:
 949 0298 5BE0     		b	.L75
 950              	.LVL95:
 951              	.L112:
 952              	.LBE40:
 953              	.LBE39:
 954              		.loc 1 493 0
 955 029a BAF84430 		ldrh	r3, [sl, #68]
 956 029e 0133     		adds	r3, r3, #1
 957 02a0 AAF84430 		strh	r3, [sl, #68]	@ movhi
 958              	.LVL96:
 959              	.L55:
 960              		.loc 1 610 0
 961 02a4 BAF83630 		ldrh	r3, [sl, #54]
 962 02a8 0133     		adds	r3, r3, #1
 963              		.loc 1 611 0
 964 02aa 3046     		mov	r0, r6
 965              		.loc 1 610 0
 966 02ac AAF83630 		strh	r3, [sl, #54]	@ movhi
 967              		.loc 1 612 0
ARM GAS  /var/folders/5n/p_75w94d66l9ssrldxqdhh700000gn/T//ccn4cl51.s 			page 18


 968 02b0 4FF00008 		mov	r8, #0
 969              		.loc 1 611 0
 970 02b4 FFF7FEFF 		bl	pbuf_free
 971              	.LVL97:
 972              	.L78:
 973              		.loc 1 613 0
 974 02b8 4046     		mov	r0, r8
 975 02ba 05B0     		add	sp, sp, #20
 976 02bc BDE8F08F 		pop	{r4, r5, r6, r7, r8, r9, sl, fp, pc}
 977              	.LVL98:
 978              	.L113:
 979              		.loc 1 504 0
 980 02c0 3846     		mov	r0, r7
 981              	.LVL99:
 982 02c2 4146     		mov	r1, r8
 983 02c4 FFF7FEFF 		bl	ip_reass_remove_oldest_datagram
 984 02c8 A0B3     		cbz	r0, .L63
 985              		.loc 1 505 0 discriminator 1
 986 02ca BBF80030 		ldrh	r3, [fp, #0]
 987 02ce 4344     		add	r3, r8, r3
 988              		.loc 1 504 0 discriminator 1
 989 02d0 0A2B     		cmp	r3, #10
 990 02d2 7FF7CDAE 		ble	.L56
 991 02d6 2DE0     		b	.L63
 992              	.LVL100:
 993              	.L115:
 994              	.LBB47:
 995              	.LBB41:
 996              		.loc 1 360 0
 997 02d8 C1F3072A 		ubfx	sl, r1, #8, #8
 998 02dc C1F30749 		ubfx	r9, r1, #16, #8
 999 02e0 6346     		mov	r3, ip
 1000              	.LVL101:
 1001 02e2 4FEA116C 		lsr	ip, r1, #24
 1002 02e6 0170     		strb	r1, [r0, #0]
 1003 02e8 80F801A0 		strb	sl, [r0, #1]
 1004 02ec 80F80290 		strb	r9, [r0, #2]
 1005 02f0 80F803C0 		strb	ip, [r0, #3]
 1006              		.loc 1 364 0
 1007 02f4 B979     		ldrb	r1, [r7, #6]	@ zero_extendqisi2
 1008              	.LVL102:
 1009 02f6 97F807C0 		ldrb	ip, [r7, #7]	@ zero_extendqisi2
 1010 02fa 41EA0C21 		orr	r1, r1, ip, lsl #8
 1011 02fe 8A42     		cmp	r2, r1
 1012 0300 03D3     		bcc	.L68
 1013 0302 DDF808C0 		ldr	ip, [sp, #8]
 1014 0306 9C45     		cmp	ip, r3
 1015 0308 1AD9     		bls	.L118
 1016              	.LVL103:
 1017              	.L68:
 1018              		.loc 1 463 0
 1019 030a 3046     		mov	r0, r6
 1020              	.LVL104:
 1021 030c BBF80040 		ldrh	r4, [fp, #0]
 1022              	.LVL105:
 1023 0310 FFF7FEFF 		bl	pbuf_clen
 1024              	.LVL106:
ARM GAS  /var/folders/5n/p_75w94d66l9ssrldxqdhh700000gn/T//ccn4cl51.s 			page 19


 1025 0314 241A     		subs	r4, r4, r0
 1026              		.loc 1 464 0
 1027 0316 3046     		mov	r0, r6
 1028              		.loc 1 463 0
 1029 0318 ABF80040 		strh	r4, [fp, #0]	@ movhi
 1030              		.loc 1 606 0
 1031 031c 4FF00008 		mov	r8, #0
 1032              		.loc 1 464 0
 1033 0320 FFF7FEFF 		bl	pbuf_free
 1034 0324 C8E7     		b	.L78
 1035              	.LVL107:
 1036              	.L114:
 1037              	.LBE41:
 1038              	.LBE47:
 1039              	.LBB48:
 1040              	.LBB37:
 1041              		.loc 1 276 0
 1042 0326 3846     		mov	r0, r7
 1043              	.LVL108:
 1044 0328 4146     		mov	r1, r8
 1045 032a FFF7FEFF 		bl	ip_reass_remove_oldest_datagram
 1046 032e 8045     		cmp	r8, r0
 1047 0330 40F3F780 		ble	.L119
 1048              	.LVL109:
 1049              	.L63:
 1050              		.loc 1 282 0
 1051 0334 BAF83C30 		ldrh	r3, [sl, #60]
 1052 0338 0133     		adds	r3, r3, #1
 1053 033a AAF83C30 		strh	r3, [sl, #60]	@ movhi
 1054 033e B1E7     		b	.L55
 1055              	.LVL110:
 1056              	.L118:
 1057              	.LBE37:
 1058              	.LBE48:
 1059              	.LBB49:
 1060              	.LBB42:
 1061              		.loc 1 369 0
 1062 0340 C6F30721 		ubfx	r1, r6, #8, #8
 1063 0344 C6F30742 		ubfx	r2, r6, #16, #8
 1064              	.LVL111:
 1065 0348 330E     		lsrs	r3, r6, #24
 1066 034a 3E70     		strb	r6, [r7, #0]
 1067 034c 7970     		strb	r1, [r7, #1]
 1068 034e BA70     		strb	r2, [r7, #2]
 1069 0350 FB70     		strb	r3, [r7, #3]
 1070              	.LVL112:
 1071              	.L75:
 1072              		.loc 1 421 0
 1073 0352 A37F     		ldrb	r3, [r4, #30]	@ zero_extendqisi2
 1074 0354 13F00103 		ands	r3, r3, #1
 1075 0358 00F0BC80 		beq	.L102
 1076              		.loc 1 423 0
 1077 035c B8F1000F 		cmp	r8, #0
 1078 0360 AAD0     		beq	.L78
 1079              		.loc 1 426 0
 1080 0362 6368     		ldr	r3, [r4, #4]
 1081 0364 5F68     		ldr	r7, [r3, #4]
ARM GAS  /var/folders/5n/p_75w94d66l9ssrldxqdhh700000gn/T//ccn4cl51.s 			page 20


 1082 0366 3B79     		ldrb	r3, [r7, #4]	@ zero_extendqisi2
 1083 0368 7A79     		ldrb	r2, [r7, #5]	@ zero_extendqisi2
 1084 036a 53EA0223 		orrs	r3, r3, r2, lsl #8
 1085 036e 40F0B780 		bne	.L103
 1086              	.LVL113:
 1087              		.loc 1 431 0
 1088 0372 0278     		ldrb	r2, [r0, #0]	@ zero_extendqisi2
 1089 0374 90F801C0 		ldrb	ip, [r0, #1]	@ zero_extendqisi2
 1090 0378 8178     		ldrb	r1, [r0, #2]	@ zero_extendqisi2
 1091 037a C678     		ldrb	r6, [r0, #3]	@ zero_extendqisi2
 1092              	.LVL114:
 1093 037c 42EA0C22 		orr	r2, r2, ip, lsl #8
 1094 0380 42EA0141 		orr	r1, r2, r1, lsl #16
 1095              	.LVL115:
 1096              		.loc 1 432 0
 1097 0384 51EA0661 		orrs	r1, r1, r6, lsl #24
 1098              	.LVL116:
 1099 0388 00F0D680 		beq	.L101
 1100              		.loc 1 433 0
 1101 038c 4E68     		ldr	r6, [r1, #4]
 1102              	.LVL117:
 1103              		.loc 1 434 0
 1104 038e 90F807C0 		ldrb	ip, [r0, #7]	@ zero_extendqisi2
 1105 0392 8179     		ldrb	r1, [r0, #6]	@ zero_extendqisi2
 1106              	.LVL118:
 1107 0394 3279     		ldrb	r2, [r6, #4]	@ zero_extendqisi2
 1108 0396 7079     		ldrb	r0, [r6, #5]	@ zero_extendqisi2
 1109              	.LVL119:
 1110 0398 41EA0C21 		orr	r1, r1, ip, lsl #8
 1111 039c 42EA0022 		orr	r2, r2, r0, lsl #8
 1112 03a0 9142     		cmp	r1, r2
 1113 03a2 0DD0     		beq	.L107
 1114 03a4 96E0     		b	.L102
 1115              	.LVL120:
 1116              	.L82:
 1117              		.loc 1 433 0
 1118 03a6 5B68     		ldr	r3, [r3, #4]
 1119              	.LVL121:
 1120              		.loc 1 434 0
 1121 03a8 B179     		ldrb	r1, [r6, #6]	@ zero_extendqisi2
 1122 03aa 1A79     		ldrb	r2, [r3, #4]	@ zero_extendqisi2
 1123 03ac F679     		ldrb	r6, [r6, #7]	@ zero_extendqisi2
 1124              	.LVL122:
 1125 03ae 5879     		ldrb	r0, [r3, #5]	@ zero_extendqisi2
 1126 03b0 41EA0621 		orr	r1, r1, r6, lsl #8
 1127 03b4 42EA0022 		orr	r2, r2, r0, lsl #8
 1128 03b8 9142     		cmp	r1, r2
 1129 03ba 40F09180 		bne	.L103
 1130 03be 1E46     		mov	r6, r3
 1131              	.LVL123:
 1132              	.L107:
 1133              		.loc 1 439 0
 1134 03c0 3378     		ldrb	r3, [r6, #0]	@ zero_extendqisi2
 1135 03c2 7078     		ldrb	r0, [r6, #1]	@ zero_extendqisi2
 1136 03c4 B178     		ldrb	r1, [r6, #2]	@ zero_extendqisi2
 1137 03c6 F278     		ldrb	r2, [r6, #3]	@ zero_extendqisi2
 1138 03c8 43EA0023 		orr	r3, r3, r0, lsl #8
ARM GAS  /var/folders/5n/p_75w94d66l9ssrldxqdhh700000gn/T//ccn4cl51.s 			page 21


 1139 03cc 43EA0143 		orr	r3, r3, r1, lsl #16
 1140              	.LVL124:
 1141              		.loc 1 432 0
 1142 03d0 53EA0263 		orrs	r3, r3, r2, lsl #24
 1143              	.LVL125:
 1144 03d4 E7D1     		bne	.L82
 1145              	.LVL126:
 1146              	.L79:
 1147              		.loc 1 445 0
 1148 03d6 B742     		cmp	r7, r6
 1149 03d8 00F0AB80 		beq	.L120
 1150              	.L83:
 1151              		.loc 1 447 0
 1152 03dc 3378     		ldrb	r3, [r6, #0]	@ zero_extendqisi2
 1153 03de 7078     		ldrb	r0, [r6, #1]	@ zero_extendqisi2
 1154 03e0 B178     		ldrb	r1, [r6, #2]	@ zero_extendqisi2
 1155 03e2 F278     		ldrb	r2, [r6, #3]	@ zero_extendqisi2
 1156 03e4 43EA0023 		orr	r3, r3, r0, lsl #8
 1157 03e8 43EA0143 		orr	r3, r3, r1, lsl #16
 1158 03ec 53EA0262 		orrs	r2, r3, r2, lsl #24
 1159 03f0 01D0     		beq	.L84
 1160 03f2 FFF7FEFF 		bl	port_halt
 1161              	.L84:
 1162              		.loc 1 449 0
 1163 03f6 B279     		ldrb	r2, [r6, #6]	@ zero_extendqisi2
 1164 03f8 F179     		ldrb	r1, [r6, #7]	@ zero_extendqisi2
 1165 03fa A38B     		ldrh	r3, [r4, #28]
 1166 03fc 42EA0122 		orr	r2, r2, r1, lsl #8
 1167 0400 9A42     		cmp	r2, r3
 1168 0402 02D0     		beq	.L85
 1169 0404 FFF7FEFF 		bl	port_halt
 1170 0408 A38B     		ldrh	r3, [r4, #28]
 1171              	.L85:
 1172              	.LBE42:
 1173              	.LBE49:
 1174              		.loc 1 573 0
 1175 040a 6268     		ldr	r2, [r4, #4]
 1176              		.loc 1 570 0
 1177 040c 1433     		adds	r3, r3, #20
 1178              		.loc 1 573 0
 1179 040e 5768     		ldr	r7, [r2, #4]
 1180              		.loc 1 570 0
 1181 0410 A383     		strh	r3, [r4, #28]	@ movhi
 1182              		.loc 1 573 0
 1183 0412 7A78     		ldrb	r2, [r7, #1]	@ zero_extendqisi2
 1184 0414 3B78     		ldrb	r3, [r7, #0]	@ zero_extendqisi2
 1185 0416 B878     		ldrb	r0, [r7, #2]	@ zero_extendqisi2
 1186 0418 FE78     		ldrb	r6, [r7, #3]	@ zero_extendqisi2
 1187              	.LVL127:
 1188 041a 43EA0223 		orr	r3, r3, r2, lsl #8
 1189 041e 43EA0043 		orr	r3, r3, r0, lsl #16
 1190              		.loc 1 577 0
 1191 0422 04F10801 		add	r1, r4, #8
 1192 0426 1422     		movs	r2, #20
 1193 0428 3846     		mov	r0, r7
 1194              		.loc 1 573 0
 1195 042a 43EA0666 		orr	r6, r3, r6, lsl #24
ARM GAS  /var/folders/5n/p_75w94d66l9ssrldxqdhh700000gn/T//ccn4cl51.s 			page 22


 1196              	.LVL128:
 1197              		.loc 1 577 0
 1198 042e FFF7FEFF 		bl	memcpy
 1199              	.LVL129:
 1200              		.loc 1 578 0
 1201 0432 A08B     		ldrh	r0, [r4, #28]
 1202 0434 FFF7FEFF 		bl	lwip_htons
 1203 0438 0023     		movs	r3, #0
 1204 043a C0F30F22 		ubfx	r2, r0, #8, #16
 1205 043e B870     		strb	r0, [r7, #2]
 1206              		.loc 1 579 0
 1207 0440 BB71     		strb	r3, [r7, #6]
 1208 0442 FB71     		strb	r3, [r7, #7]
 1209              		.loc 1 580 0
 1210 0444 BB72     		strb	r3, [r7, #10]
 1211 0446 FB72     		strb	r3, [r7, #11]
 1212              		.loc 1 578 0
 1213 0448 FA70     		strb	r2, [r7, #3]
 1214              		.loc 1 582 0
 1215 044a 3846     		mov	r0, r7
 1216 044c 1421     		movs	r1, #20
 1217 044e FFF7FEFF 		bl	inet_chksum
 1218 0452 C0F30F23 		ubfx	r3, r0, #8, #16
 1219 0456 B872     		strb	r0, [r7, #10]
 1220 0458 FB72     		strb	r3, [r7, #11]
 1221              		.loc 1 584 0
 1222 045a D4F80480 		ldr	r8, [r4, #4]
 1223              	.LVL130:
 1224              		.loc 1 587 0
 1225 045e A6B1     		cbz	r6, .L86
 1226              	.LVL131:
 1227              	.L104:
 1228              		.loc 1 588 0
 1229 0460 7768     		ldr	r7, [r6, #4]
 1230              	.LVL132:
 1231              		.loc 1 591 0
 1232 0462 3046     		mov	r0, r6
 1233 0464 6FF01301 		mvn	r1, #19
 1234 0468 FFF7FEFF 		bl	pbuf_header
 1235              	.LVL133:
 1236              		.loc 1 592 0
 1237 046c 3146     		mov	r1, r6
 1238 046e 4046     		mov	r0, r8
 1239 0470 FFF7FEFF 		bl	pbuf_cat
 1240              		.loc 1 593 0
 1241 0474 3978     		ldrb	r1, [r7, #0]	@ zero_extendqisi2
 1242 0476 7E78     		ldrb	r6, [r7, #1]	@ zero_extendqisi2
 1243              	.LVL134:
 1244 0478 BA78     		ldrb	r2, [r7, #2]	@ zero_extendqisi2
 1245 047a FB78     		ldrb	r3, [r7, #3]	@ zero_extendqisi2
 1246 047c 41EA0626 		orr	r6, r1, r6, lsl #8
 1247 0480 46EA0246 		orr	r6, r6, r2, lsl #16
 1248              	.LVL135:
 1249              		.loc 1 587 0
 1250 0484 56EA0366 		orrs	r6, r6, r3, lsl #24
 1251              	.LVL136:
 1252 0488 EAD1     		bne	.L104
ARM GAS  /var/folders/5n/p_75w94d66l9ssrldxqdhh700000gn/T//ccn4cl51.s 			page 23


 1253              	.LVL137:
 1254              	.L86:
 1255              	.LBB50:
 1256              	.LBB51:
 1257              		.loc 1 308 0
 1258 048a 40F20001 		movw	r1, #:lower16:.LANCHOR0
 1259 048e C0F20001 		movt	r1, #:upper16:.LANCHOR0
 1260 0492 0B68     		ldr	r3, [r1, #0]
 1261 0494 9C42     		cmp	r4, r3
 1262 0496 1FD0     		beq	.L121
 1263              		.loc 1 313 0
 1264 0498 2DB3     		cbz	r5, .L122
 1265              	.L90:
 1266              		.loc 1 314 0
 1267 049a 2368     		ldr	r3, [r4, #0]
 1268 049c 2B60     		str	r3, [r5, #0]
 1269              	.L89:
 1270              		.loc 1 318 0
 1271 049e 2146     		mov	r1, r4
 1272 04a0 0520     		movs	r0, #5
 1273 04a2 FFF7FEFF 		bl	memp_free
 1274              	.LBE51:
 1275              	.LBE50:
 1276              		.loc 1 599 0
 1277 04a6 4046     		mov	r0, r8
 1278 04a8 BBF80040 		ldrh	r4, [fp, #0]
 1279              	.LVL138:
 1280 04ac FFF7FEFF 		bl	pbuf_clen
 1281 04b0 201A     		subs	r0, r4, r0
 1282 04b2 ABF80000 		strh	r0, [fp, #0]	@ movhi
 1283              		.loc 1 602 0
 1284 04b6 FFE6     		b	.L78
 1285              	.LVL139:
 1286              	.L117:
 1287              	.LBB54:
 1288              	.LBB43:
 1289              		.loc 1 403 0
 1290 04b8 0190     		str	r0, [sp, #4]
 1291 04ba FFF7FEFF 		bl	port_halt
 1292              	.LVL140:
 1293 04be 0198     		ldr	r0, [sp, #4]
 1294 04c0 B979     		ldrb	r1, [r7, #6]	@ zero_extendqisi2
 1295 04c2 97F80790 		ldrb	r9, [r7, #7]	@ zero_extendqisi2
 1296 04c6 0379     		ldrb	r3, [r0, #4]	@ zero_extendqisi2
 1297 04c8 4279     		ldrb	r2, [r0, #5]	@ zero_extendqisi2
 1298 04ca 41EA0929 		orr	r9, r1, r9, lsl #8
 1299 04ce 43EA0223 		orr	r3, r3, r2, lsl #8
 1300 04d2 D3E6     		b	.L76
 1301              	.LVL141:
 1302              	.L102:
 1303              		.loc 1 606 0
 1304 04d4 9846     		mov	r8, r3
 1305              	.LVL142:
 1306 04d6 EFE6     		b	.L78
 1307              	.LVL143:
 1308              	.L121:
 1309              	.LBE43:
ARM GAS  /var/folders/5n/p_75w94d66l9ssrldxqdhh700000gn/T//ccn4cl51.s 			page 24


 1310              	.LBE54:
 1311              	.LBB55:
 1312              	.LBB52:
 1313              		.loc 1 310 0
 1314 04d8 2268     		ldr	r2, [r4, #0]
 1315 04da 184B     		ldr	r3, .L123
 1316 04dc 1A60     		str	r2, [r3, #0]
 1317 04de DEE7     		b	.L89
 1318              	.LVL144:
 1319              	.L103:
 1320              	.LBE52:
 1321              	.LBE55:
 1322              	.LBB56:
 1323              	.LBB44:
 1324              		.loc 1 606 0
 1325 04e0 4FF00008 		mov	r8, #0
 1326              	.LVL145:
 1327 04e4 E8E6     		b	.L78
 1328              	.LVL146:
 1329              	.L122:
 1330              	.LBE44:
 1331              	.LBE56:
 1332              	.LBB57:
 1333              	.LBB53:
 1334              		.loc 1 313 0
 1335 04e6 FFF7FEFF 		bl	port_halt
 1336 04ea D6E7     		b	.L90
 1337              	.LVL147:
 1338              	.L67:
 1339              	.LBE53:
 1340              	.LBE57:
 1341              	.LBB58:
 1342              	.LBB45:
 1343              		.loc 1 360 0
 1344 04ec CAF30721 		ubfx	r1, sl, #8, #8
 1345 04f0 CAF30742 		ubfx	r2, sl, #16, #8
 1346              	.LVL148:
 1347 04f4 4FEA1A63 		lsr	r3, sl, #24
 1348 04f8 80F800A0 		strb	sl, [r0, #0]
 1349 04fc 4170     		strb	r1, [r0, #1]
 1350 04fe 8270     		strb	r2, [r0, #2]
 1351 0500 C370     		strb	r3, [r0, #3]
 1352              		.loc 1 372 0
 1353 0502 4FF00108 		mov	r8, #1
 1354 0506 6660     		str	r6, [r4, #4]
 1355 0508 23E7     		b	.L75
 1356              	.LVL149:
 1357              	.L95:
 1358              		.loc 1 337 0
 1359 050a 4FF00108 		mov	r8, #1
 1360              	.LVL150:
 1361              	.L77:
 1362              		.loc 1 415 0
 1363 050e 6660     		str	r6, [r4, #4]
 1364 0510 1FE7     		b	.L75
 1365              	.LVL151:
 1366              	.L116:
ARM GAS  /var/folders/5n/p_75w94d66l9ssrldxqdhh700000gn/T//ccn4cl51.s 			page 25


 1367              		.loc 1 411 0
 1368 0512 BAF1000F 		cmp	sl, #0
 1369 0516 FAD0     		beq	.L77
 1370 0518 0190     		str	r0, [sp, #4]
 1371 051a FFF7FEFF 		bl	port_halt
 1372              	.LVL152:
 1373 051e 0198     		ldr	r0, [sp, #4]
 1374 0520 F5E7     		b	.L77
 1375              	.LVL153:
 1376              	.L119:
 1377              	.LBE45:
 1378              	.LBE58:
 1379              	.LBB59:
 1380              	.LBB38:
 1381              		.loc 1 277 0
 1382 0522 0520     		movs	r0, #5
 1383 0524 FFF7FEFF 		bl	memp_malloc
 1384              	.LVL154:
 1385              		.loc 1 279 0
 1386 0528 0446     		mov	r4, r0
 1387 052a 0028     		cmp	r0, #0
 1388 052c 7FF4F4AD 		bne	.L64
 1389 0530 00E7     		b	.L63
 1390              	.LVL155:
 1391              	.L120:
 1392              	.LBE38:
 1393              	.LBE59:
 1394              	.LBB60:
 1395              	.LBB46:
 1396              		.loc 1 445 0
 1397 0532 FFF7FEFF 		bl	port_halt
 1398 0536 51E7     		b	.L83
 1399              	.LVL156:
 1400              	.L101:
 1401              		.loc 1 432 0
 1402 0538 0646     		mov	r6, r0
 1403 053a 4CE7     		b	.L79
 1404              	.L124:
 1405              		.align	2
 1406              	.L123:
 1407 053c 00000000 		.word	.LANCHOR0
 1408 0540 00000000 		.word	lwip_stats
 1409 0544 00000000 		.word	.LANCHOR1
 1410              	.LBE46:
 1411              	.LBE60:
 1412              		.cfi_endproc
 1413              	.LFE13:
 1414              		.size	ip_reass, .-ip_reass
 1415 0548 AFF30080 		.section	.text.ip_frag,"ax",%progbits
 1415      AFF30080 
 1416              		.align	2
 1417              		.p2align 4,,15
 1418              		.global	ip_frag
 1419              		.thumb
 1420              		.thumb_func
 1421              		.type	ip_frag, %function
 1422              	ip_frag:
ARM GAS  /var/folders/5n/p_75w94d66l9ssrldxqdhh700000gn/T//ccn4cl51.s 			page 26


 1423              	.LFB17:
 1424              		.loc 1 668 0
 1425              		.cfi_startproc
 1426              		@ args = 0, pretend = 0, frame = 48
 1427              		@ frame_needed = 0, uses_anonymous_args = 0
 1428              	.LVL157:
 1429 0000 2DE9F04F 		push	{r4, r5, r6, r7, r8, r9, sl, fp, lr}
 1430              	.LCFI7:
 1431              		.cfi_def_cfa_offset 36
 1432              		.cfi_offset 14, -4
 1433              		.cfi_offset 11, -8
 1434              		.cfi_offset 10, -12
 1435              		.cfi_offset 9, -16
 1436              		.cfi_offset 8, -20
 1437              		.cfi_offset 7, -24
 1438              		.cfi_offset 6, -28
 1439              		.cfi_offset 5, -32
 1440              		.cfi_offset 4, -36
 1441 0004 0446     		mov	r4, r0
 1442 0006 8FB0     		sub	sp, sp, #60
 1443              	.LCFI8:
 1444              		.cfi_def_cfa_offset 96
 1445              		.loc 1 709 0
 1446 0008 4068     		ldr	r0, [r0, #4]
 1447              	.LVL158:
 1448              		.loc 1 668 0
 1449 000a 0891     		str	r1, [sp, #32]
 1450              		.loc 1 709 0
 1451 000c 0790     		str	r0, [sp, #28]
 1452              		.loc 1 714 0
 1453 000e 8379     		ldrb	r3, [r0, #6]	@ zero_extendqisi2
 1454 0010 C079     		ldrb	r0, [r0, #7]	@ zero_extendqisi2
 1455              		.loc 1 681 0
 1456 0012 0E8C     		ldrh	r6, [r1, #32]
 1457              	.LVL159:
 1458              		.loc 1 668 0
 1459 0014 0C92     		str	r2, [sp, #48]
 1460              		.loc 1 714 0
 1461 0016 43EA0020 		orr	r0, r3, r0, lsl #8
 1462 001a FFF7FEFF 		bl	lwip_ntohs
 1463              	.LVL160:
 1464              		.loc 1 718 0
 1465 001e B4F808B0 		ldrh	fp, [r4, #8]
 1466              		.loc 1 720 0
 1467 0022 A6F10D01 		sub	r1, r6, #13
 1468 0026 B6F11403 		subs	r3, r6, #20
 1469              		.loc 1 718 0
 1470 002a ABF1140B 		sub	fp, fp, #20
 1471              		.loc 1 716 0
 1472 002e 00F40052 		and	r2, r0, #8192
 1473              		.loc 1 720 0
 1474 0032 48BF     		it	mi
 1475 0034 0B46     		movmi	r3, r1
 1476              		.loc 1 716 0
 1477 0036 92B2     		uxth	r2, r2
 1478              		.loc 1 720 0
 1479 0038 C3F3CF03 		ubfx	r3, r3, #3, #16
ARM GAS  /var/folders/5n/p_75w94d66l9ssrldxqdhh700000gn/T//ccn4cl51.s 			page 27


 1480              		.loc 1 718 0
 1481 003c 1FFA8BFB 		uxth	fp, fp
 1482              		.loc 1 716 0
 1483 0040 0B92     		str	r2, [sp, #44]
 1484              	.LVL161:
 1485              		.loc 1 720 0
 1486 0042 0993     		str	r3, [sp, #36]
 1487              	.LVL162:
 1488              		.loc 1 722 0
 1489 0044 BBF1000F 		cmp	fp, #0
 1490 0048 00F0C280 		beq	.L136
 1491              		.loc 1 715 0
 1492 004c C004     		lsls	r0, r0, #19
 1493              	.LVL163:
 1494              		.loc 1 732 0
 1495 004e DB00     		lsls	r3, r3, #3
 1496              		.loc 1 715 0
 1497 0050 133E     		subs	r6, r6, #19
 1498              	.LVL164:
 1499 0052 C00C     		lsrs	r0, r0, #19
 1500              		.loc 1 732 0
 1501 0054 9BB2     		uxth	r3, r3
 1502              	.LBB61:
 1503              		.loc 1 795 0
 1504 0056 DFF87CA1 		ldr	sl, .L146
 1505              	.LBE61:
 1506              		.loc 1 715 0
 1507 005a 0A96     		str	r6, [sp, #40]
 1508              		.loc 1 687 0
 1509 005c 0025     		movs	r5, #0
 1510              		.loc 1 715 0
 1511 005e 0590     		str	r0, [sp, #20]
 1512              		.loc 1 732 0
 1513 0060 0D93     		str	r3, [sp, #52]
 1514              		.loc 1 684 0
 1515 0062 1426     		movs	r6, #20
 1516 0064 CDF810B0 		str	fp, [sp, #16]
 1517              	.LVL165:
 1518              	.L135:
 1519              		.loc 1 726 0
 1520 0068 0599     		ldr	r1, [sp, #20]
 1521 006a 0B9A     		ldr	r2, [sp, #44]
 1522              		.loc 1 727 0
 1523 006c 0A98     		ldr	r0, [sp, #40]
 1524              		.loc 1 726 0
 1525 006e CB04     		lsls	r3, r1, #19
 1526 0070 DB0C     		lsrs	r3, r3, #19
 1527 0072 1343     		orrs	r3, r3, r2
 1528 0074 0693     		str	r3, [sp, #24]
 1529              	.LVL166:
 1530              		.loc 1 727 0
 1531 0076 049B     		ldr	r3, [sp, #16]
 1532 0078 9842     		cmp	r0, r3
 1533              		.loc 1 728 0
 1534 007a DBBF     		ittet	le
 1535 007c 0699     		ldrle	r1, [sp, #24]
 1536              		.loc 1 732 0
ARM GAS  /var/folders/5n/p_75w94d66l9ssrldxqdhh700000gn/T//ccn4cl51.s 			page 28


 1537 007e DDF834B0 		ldrle	fp, [sp, #52]
 1538              		.loc 1 727 0
 1539 0082 DDF810B0 		ldrgt	fp, [sp, #16]
 1540              		.loc 1 728 0
 1541 0086 41F40051 		orrle	r1, r1, #8192
 1542 008a D8BF     		it	le
 1543 008c 0691     		strle	r1, [sp, #24]
 1544              	.LVL167:
 1545              		.loc 1 759 0
 1546 008e 0220     		movs	r0, #2
 1547 0090 1421     		movs	r1, #20
 1548 0092 0022     		movs	r2, #0
 1549 0094 FFF7FEFF 		bl	pbuf_alloc
 1550              	.LVL168:
 1551              		.loc 1 760 0
 1552 0098 8046     		mov	r8, r0
 1553 009a 0028     		cmp	r0, #0
 1554 009c 00F09380 		beq	.L138
 1555              		.loc 1 763 0
 1556 00a0 6389     		ldrh	r3, [r4, #10]
 1557 00a2 132B     		cmp	r3, #19
 1558 00a4 40F28C80 		bls	.L143
 1559              	.LVL169:
 1560              	.L128:
 1561              		.loc 1 765 0
 1562 00a8 1422     		movs	r2, #20
 1563 00aa D8F80400 		ldr	r0, [r8, #4]
 1564 00ae 0799     		ldr	r1, [sp, #28]
 1565 00b0 FFF7FEFF 		bl	memcpy
 1566              		.loc 1 770 0
 1567 00b4 6389     		ldrh	r3, [r4, #10]
 1568              		.loc 1 769 0
 1569 00b6 6268     		ldr	r2, [r4, #4]
 1570              		.loc 1 766 0
 1571 00b8 D8F80490 		ldr	r9, [r8, #4]
 1572              	.LVL170:
 1573              		.loc 1 770 0
 1574 00bc 9B1B     		subs	r3, r3, r6
 1575 00be 9BB2     		uxth	r3, r3
 1576              		.loc 1 769 0
 1577 00c0 9619     		adds	r6, r2, r6
 1578 00c2 6660     		str	r6, [r4, #4]
 1579              		.loc 1 770 0
 1580 00c4 6381     		strh	r3, [r4, #10]	@ movhi
 1581              	.LVL171:
 1582              		.loc 1 773 0
 1583 00c6 BBF1000F 		cmp	fp, #0
 1584 00ca 2DD0     		beq	.L129
 1585 00cc 5E46     		mov	r6, fp
 1586 00ce 1D46     		mov	r5, r3
 1587              	.LVL172:
 1588 00d0 01E0     		b	.L130
 1589              	.LVL173:
 1590              	.L141:
 1591              	.LBB66:
 1592              		.loc 1 803 0
 1593 00d2 2468     		ldr	r4, [r4, #0]
ARM GAS  /var/folders/5n/p_75w94d66l9ssrldxqdhh700000gn/T//ccn4cl51.s 			page 29


 1594              	.LVL174:
 1595              	.LBE66:
 1596              		.loc 1 773 0
 1597 00d4 6589     		ldrh	r5, [r4, #10]
 1598              	.LVL175:
 1599              	.L130:
 1600              	.LBB67:
 1601              		.loc 1 775 0
 1602 00d6 AE42     		cmp	r6, r5
 1603 00d8 38BF     		it	cc
 1604 00da 3546     		movcc	r5, r6
 1605 00dc ADB2     		uxth	r5, r5
 1606              	.LVL176:
 1607              		.loc 1 777 0
 1608 00de 002D     		cmp	r5, #0
 1609 00e0 F7D0     		beq	.L141
 1610              	.LBB62:
 1611              	.LBB63:
 1612              		.loc 1 626 0
 1613 00e2 0620     		movs	r0, #6
 1614 00e4 FFF7FEFF 		bl	memp_malloc
 1615              	.LBE63:
 1616              	.LBE62:
 1617              		.loc 1 782 0
 1618 00e8 0746     		mov	r7, r0
 1619              		.loc 1 787 0
 1620 00ea 0346     		mov	r3, r0
 1621 00ec 2946     		mov	r1, r5
 1622 00ee 0222     		movs	r2, #2
 1623 00f0 0320     		movs	r0, #3
 1624              		.loc 1 782 0
 1625 00f2 002F     		cmp	r7, #0
 1626 00f4 5CD0     		beq	.L142
 1627              		.loc 1 787 0
 1628 00f6 D4F804E0 		ldr	lr, [r4, #4]
 1629 00fa 0195     		str	r5, [sp, #4]
 1630 00fc CDF800E0 		str	lr, [sp, #0]
 1631 0100 FFF7FEFF 		bl	pbuf_alloced_custom
 1632              	.LVL177:
 1633              		.loc 1 788 0
 1634 0104 0146     		mov	r1, r0
 1635              		.loc 1 793 0
 1636 0106 2046     		mov	r0, r4
 1637              	.LVL178:
 1638              		.loc 1 788 0
 1639 0108 0029     		cmp	r1, #0
 1640 010a 4DD0     		beq	.L144
 1641              	.LVL179:
 1642              		.loc 1 801 0
 1643 010c 761B     		subs	r6, r6, r5
 1644              		.loc 1 793 0
 1645 010e 0391     		str	r1, [sp, #12]
 1646              		.loc 1 801 0
 1647 0110 B6B2     		uxth	r6, r6
 1648              		.loc 1 793 0
 1649 0112 FFF7FEFF 		bl	pbuf_ref
 1650              	.LVL180:
ARM GAS  /var/folders/5n/p_75w94d66l9ssrldxqdhh700000gn/T//ccn4cl51.s 			page 30


 1651              		.loc 1 794 0
 1652 0116 7C61     		str	r4, [r7, #20]
 1653              		.loc 1 795 0
 1654 0118 C7F810A0 		str	sl, [r7, #16]
 1655              		.loc 1 800 0
 1656 011c 4046     		mov	r0, r8
 1657 011e 0399     		ldr	r1, [sp, #12]
 1658 0120 FFF7FEFF 		bl	pbuf_cat
 1659              	.LVL181:
 1660              		.loc 1 802 0
 1661 0124 002E     		cmp	r6, #0
 1662 0126 D4D1     		bne	.L141
 1663              	.LVL182:
 1664              	.L129:
 1665              	.LBE67:
 1666              		.loc 1 811 0
 1667 0128 0698     		ldr	r0, [sp, #24]
 1668 012a FFF7FEFF 		bl	lwip_htons
 1669              		.loc 1 812 0
 1670 012e 0BF11403 		add	r3, fp, #20
 1671              		.loc 1 811 0
 1672 0132 C0F30F22 		ubfx	r2, r0, #8, #16
 1673 0136 89F80600 		strb	r0, [r9, #6]
 1674 013a 89F80720 		strb	r2, [r9, #7]
 1675              		.loc 1 812 0
 1676 013e 98B2     		uxth	r0, r3
 1677 0140 FFF7FEFF 		bl	lwip_htons
 1678              		.loc 1 813 0
 1679 0144 0022     		movs	r2, #0
 1680              		.loc 1 812 0
 1681 0146 C0F30F23 		ubfx	r3, r0, #8, #16
 1682              		.loc 1 814 0
 1683 014a 1421     		movs	r1, #20
 1684              		.loc 1 812 0
 1685 014c 89F80200 		strb	r0, [r9, #2]
 1686 0150 89F80330 		strb	r3, [r9, #3]
 1687              		.loc 1 813 0
 1688 0154 89F80A20 		strb	r2, [r9, #10]
 1689 0158 89F80B20 		strb	r2, [r9, #11]
 1690              		.loc 1 814 0
 1691 015c 4846     		mov	r0, r9
 1692 015e FFF7FEFF 		bl	inet_chksum
 1693 0162 C0F30F23 		ubfx	r3, r0, #8, #16
 1694 0166 89F80A00 		strb	r0, [r9, #10]
 1695 016a 89F80B30 		strb	r3, [r9, #11]
 1696              		.loc 1 842 0
 1697 016e 0898     		ldr	r0, [sp, #32]
 1698 0170 0C9A     		ldr	r2, [sp, #48]
 1699 0172 4369     		ldr	r3, [r0, #20]
 1700 0174 4146     		mov	r1, r8
 1701 0176 9847     		blx	r3
 1702              		.loc 1 843 0
 1703 0178 40F20001 		movw	r1, #:lower16:lwip_stats
 1704 017c C0F20001 		movt	r1, #:upper16:lwip_stats
 1705              		.loc 1 852 0
 1706 0180 4046     		mov	r0, r8
 1707              		.loc 1 843 0
ARM GAS  /var/folders/5n/p_75w94d66l9ssrldxqdhh700000gn/T//ccn4cl51.s 			page 31


 1708 0182 0B8E     		ldrh	r3, [r1, #48]
 1709 0184 0133     		adds	r3, r3, #1
 1710 0186 0B86     		strh	r3, [r1, #48]	@ movhi
 1711              		.loc 1 852 0
 1712 0188 FFF7FEFF 		bl	pbuf_free
 1713              		.loc 1 854 0
 1714 018c 049A     		ldr	r2, [sp, #16]
 1715              		.loc 1 855 0
 1716 018e 0598     		ldr	r0, [sp, #20]
 1717 0190 0999     		ldr	r1, [sp, #36]
 1718              		.loc 1 854 0
 1719 0192 CBEB020B 		rsb	fp, fp, r2
 1720              	.LVL183:
 1721              		.loc 1 855 0
 1722 0196 4318     		adds	r3, r0, r1
 1723              		.loc 1 854 0
 1724 0198 1FFA8BF2 		uxth	r2, fp
 1725              		.loc 1 855 0
 1726 019c 9BB2     		uxth	r3, r3
 1727              		.loc 1 854 0
 1728 019e 0492     		str	r2, [sp, #16]
 1729              	.LVL184:
 1730              		.loc 1 855 0
 1731 01a0 0593     		str	r3, [sp, #20]
 1732              	.LVL185:
 1733              		.loc 1 722 0
 1734 01a2 92B1     		cbz	r2, .L145
 1735 01a4 2E46     		mov	r6, r5
 1736 01a6 5FE7     		b	.L135
 1737              	.LVL186:
 1738              	.L144:
 1739              	.LBB68:
 1740              	.LBB64:
 1741              	.LBB65:
 1742              		.loc 1 634 0
 1743 01a8 3946     		mov	r1, r7
 1744              	.LVL187:
 1745 01aa 0620     		movs	r0, #6
 1746              	.LVL188:
 1747 01ac FFF7FEFF 		bl	memp_free
 1748              	.LVL189:
 1749              	.L142:
 1750              	.LBE65:
 1751              	.LBE64:
 1752              		.loc 1 790 0
 1753 01b0 4046     		mov	r0, r8
 1754 01b2 FFF7FEFF 		bl	pbuf_free
 1755              		.loc 1 791 0
 1756 01b6 FF20     		movs	r0, #255
 1757              	.LVL190:
 1758              	.L126:
 1759              	.LBE68:
 1760              		.loc 1 862 0
 1761 01b8 40B2     		sxtb	r0, r0
 1762 01ba 0FB0     		add	sp, sp, #60
 1763 01bc BDE8F08F 		pop	{r4, r5, r6, r7, r8, r9, sl, fp, pc}
 1764              	.LVL191:
ARM GAS  /var/folders/5n/p_75w94d66l9ssrldxqdhh700000gn/T//ccn4cl51.s 			page 32


 1765              	.L143:
 1766              		.loc 1 763 0 discriminator 1
 1767 01c0 FFF7FEFF 		bl	port_halt
 1768              	.LVL192:
 1769 01c4 70E7     		b	.L128
 1770              	.L138:
 1771              		.loc 1 761 0
 1772 01c6 FF20     		movs	r0, #255
 1773 01c8 F6E7     		b	.L126
 1774              	.LVL193:
 1775              	.L145:
 1776 01ca 9346     		mov	fp, r2
 1777              		.loc 1 861 0
 1778 01cc 1046     		mov	r0, r2
 1779 01ce F3E7     		b	.L126
 1780              	.LVL194:
 1781              	.L136:
 1782 01d0 5846     		mov	r0, fp
 1783              	.LVL195:
 1784 01d2 F1E7     		b	.L126
 1785              	.L147:
 1786              		.align	2
 1787              	.L146:
 1788 01d4 00000000 		.word	ipfrag_free_pbuf_custom
 1789              		.cfi_endproc
 1790              	.LFE17:
 1791              		.size	ip_frag, .-ip_frag
 1792 01d8 AFF30080 		.section	.bss.reassdatagrams,"aw",%nobits
 1792      AFF30080 
 1793              		.align	2
 1794              		.set	.LANCHOR0,. + 0
 1795              		.type	reassdatagrams, %object
 1796              		.size	reassdatagrams, 4
 1797              	reassdatagrams:
 1798 0000 00000000 		.space	4
 1799              		.section	.bss.ip_reass_pbufcount,"aw",%nobits
 1800              		.align	1
 1801              		.set	.LANCHOR1,. + 0
 1802              		.type	ip_reass_pbufcount, %object
 1803              		.size	ip_reass_pbufcount, 2
 1804              	ip_reass_pbufcount:
 1805 0000 0000     		.space	2
 1806              		.text
 1807              	.Letext0:
 1808              		.file 2 "/usr/local/summon/lib/gcc/arm-none-eabi/4.6.2/../../../../arm-none-eabi/include/stdint.h"
 1809              		.file 3 "../../os/various/lwip_bindings/arch/cc.h"
 1810              		.file 4 "../../ext/lwip/src/include/lwip/err.h"
 1811              		.file 5 "../../ext/lwip/src/include/lwip/pbuf.h"
 1812              		.file 6 "../../ext/lwip/src/include/ipv4/lwip/ip_addr.h"
 1813              		.file 7 "../../ext/lwip/src/include/lwip/netif.h"
 1814              		.file 8 "../../ext/lwip/src/include/ipv4/lwip/ip.h"
 1815              		.file 9 "../../ext/lwip/src/include/ipv4/lwip/ip_frag.h"
 1816              		.file 10 "../../ext/lwip/src/include/lwip/mem.h"
 1817              		.file 11 "../../ext/lwip/src/include/lwip/memp.h"
 1818              		.file 12 "../../ext/lwip/src/include/lwip/stats.h"
 1819              		.file 13 "../../ext/lwip/src/include/ipv4/lwip/icmp.h"