ARM GAS  /var/folders/5n/p_75w94d66l9ssrldxqdhh700000gn/T//ccMff9NN.s 			page 1


   1              		.syntax unified
   2              		.cpu cortex-m4
   3              		.fpu softvfp
   4              		.eabi_attribute 20, 1
   5              		.eabi_attribute 21, 1
   6              		.eabi_attribute 23, 3
   7              		.eabi_attribute 24, 1
   8              		.eabi_attribute 25, 1
   9              		.eabi_attribute 26, 1
  10              		.eabi_attribute 30, 2
  11              		.eabi_attribute 18, 4
  12              		.thumb
  13              		.file	"lwipthread.c"
  14              		.text
  15              	.Ltext0:
  16              		.cfi_sections	.debug_frame
  17              		.section	.text.ethernetif_init,"ax",%progbits
  18              		.align	2
  19              		.p2align 4,,15
  20              		.thumb
  21              		.thumb_func
  22              		.type	ethernetif_init, %function
  23              	ethernetif_init:
  24              	.LFB121:
  25              		.file 1 "../../os/various/lwip_bindings/lwipthread.c"
  26              		.loc 1 183 0
  27              		.cfi_startproc
  28              		@ args = 0, pretend = 0, frame = 0
  29              		@ frame_needed = 0, uses_anonymous_args = 0
  30              		@ link register save eliminated.
  31              	.LVL0:
  32              		.loc 1 183 0
  33 0000 0346     		mov	r3, r0
  34              		.loc 1 197 0
  35 0002 6D22     		movs	r2, #109
  36 0004 83F82A20 		strb	r2, [r3, #42]
  37              		.loc 1 198 0
  38 0008 7322     		movs	r2, #115
  39 000a 83F82B20 		strb	r2, [r3, #43]
  40              		.loc 1 203 0
  41 000e 40F20002 		movw	r2, #:lower16:etharp_output
  42 0012 C0F20002 		movt	r2, #:upper16:etharp_output
  43 0016 5A61     		str	r2, [r3, #20]
  44              		.loc 1 204 0
  45 0018 40F20002 		movw	r2, #:lower16:low_level_output
  46 001c C0F20002 		movt	r2, #:upper16:low_level_output
  47 0020 9A61     		str	r2, [r3, #24]
  48              	.LVL1:
  49              	.LBB4:
  50              	.LBB5:
  51              		.loc 1 93 0
  52 0022 0622     		movs	r2, #6
  53 0024 83F82220 		strb	r2, [r3, #34]
  54              		.loc 1 96 0
  55 0028 40F2DC52 		movw	r2, #1500
  56              	.LBE5:
  57              	.LBE4:
ARM GAS  /var/folders/5n/p_75w94d66l9ssrldxqdhh700000gn/T//ccMff9NN.s 			page 2


  58              		.loc 1 196 0
  59 002c 0020     		movs	r0, #0
  60              	.LVL2:
  61              	.LBB8:
  62              	.LBB6:
  63              		.loc 1 96 0
  64 002e 1A84     		strh	r2, [r3, #32]	@ movhi
  65              		.loc 1 100 0
  66 0030 3222     		movs	r2, #50
  67              	.LBE6:
  68              	.LBE8:
  69              		.loc 1 196 0
  70 0032 D861     		str	r0, [r3, #28]
  71              	.LBB9:
  72              	.LBB7:
  73              		.loc 1 100 0
  74 0034 83F82920 		strb	r2, [r3, #41]
  75              	.LBE7:
  76              	.LBE9:
  77              		.loc 1 210 0
  78 0038 7047     		bx	lr
  79              		.cfi_endproc
  80              	.LFE121:
  81              		.size	ethernetif_init, .-ethernetif_init
  82 003a 00BFAFF3 		.section	.text.low_level_output,"ax",%progbits
  82      0080
  83              		.align	2
  84              		.p2align 4,,15
  85              		.thumb
  86              		.thumb_func
  87              		.type	low_level_output, %function
  88              	low_level_output:
  89              	.LFB119:
  90              		.loc 1 108 0
  91              		.cfi_startproc
  92              		@ args = 0, pretend = 0, frame = 16
  93              		@ frame_needed = 0, uses_anonymous_args = 0
  94              	.LVL3:
  95 0000 10B5     		push	{r4, lr}
  96              	.LCFI0:
  97              		.cfi_def_cfa_offset 8
  98              		.cfi_offset 14, -4
  99              		.cfi_offset 4, -8
 100 0002 84B0     		sub	sp, sp, #16
 101              	.LCFI1:
 102              		.cfi_def_cfa_offset 24
 103              		.loc 1 108 0
 104 0004 0C46     		mov	r4, r1
 105              		.loc 1 113 0
 106 0006 0E48     		ldr	r0, .L11
 107              	.LVL4:
 108 0008 01A9     		add	r1, sp, #4
 109              	.LVL5:
 110 000a 3222     		movs	r2, #50
 111 000c FFF7FEFF 		bl	macWaitTransmitDescriptor
 112 0010 98B9     		cbnz	r0, .L6
 113              	.LVL6:
ARM GAS  /var/folders/5n/p_75w94d66l9ssrldxqdhh700000gn/T//ccMff9NN.s 			page 3


 114              		.loc 1 121 0 discriminator 2
 115 0012 3CB1     		cbz	r4, .L10
 116              	.LVL7:
 117              	.L5:
 118              		.loc 1 122 0 discriminator 2
 119 0014 6168     		ldr	r1, [r4, #4]
 120 0016 6289     		ldrh	r2, [r4, #10]
 121 0018 01A8     		add	r0, sp, #4
 122 001a FFF7FEFF 		bl	mac_lld_write_transmit_descriptor
 123              		.loc 1 121 0 discriminator 2
 124 001e 2468     		ldr	r4, [r4, #0]
 125              	.LVL8:
 126 0020 002C     		cmp	r4, #0
 127 0022 F7D1     		bne	.L5
 128              	.L10:
 129              		.loc 1 123 0
 130 0024 01A8     		add	r0, sp, #4
 131 0026 FFF7FEFF 		bl	macReleaseTransmitDescriptor
 132              		.loc 1 129 0
 133 002a 064B     		ldr	r3, .L11+4
 134 002c 1A88     		ldrh	r2, [r3, #0]
 135 002e 0132     		adds	r2, r2, #1
 136 0030 1A80     		strh	r2, [r3, #0]	@ movhi
 137              		.loc 1 131 0
 138 0032 0020     		movs	r0, #0
 139              	.LVL9:
 140              	.L3:
 141              		.loc 1 132 0
 142 0034 40B2     		sxtb	r0, r0
 143 0036 04B0     		add	sp, sp, #16
 144 0038 10BD     		pop	{r4, pc}
 145              	.LVL10:
 146              	.L6:
 147              		.loc 1 114 0
 148 003a FD20     		movs	r0, #253
 149 003c FAE7     		b	.L3
 150              	.L12:
 151 003e 00BF     		.align	2
 152              	.L11:
 153 0040 00000000 		.word	ETHD1
 154 0044 00000000 		.word	lwip_stats
 155              		.cfi_endproc
 156              	.LFE119:
 157              		.size	low_level_output, .-low_level_output
 158 0048 AFF30080 		.section	.text.lwip_thread,"ax",%progbits
 158      AFF30080 
 159              		.align	2
 160              		.p2align 4,,15
 161              		.global	lwip_thread
 162              		.thumb
 163              		.thumb_func
 164              		.type	lwip_thread, %function
 165              	lwip_thread:
 166              	.LFB122:
 167              		.loc 1 218 0
 168              		.cfi_startproc
 169              		@ args = 0, pretend = 0, frame = 88
ARM GAS  /var/folders/5n/p_75w94d66l9ssrldxqdhh700000gn/T//ccMff9NN.s 			page 4


 170              		@ frame_needed = 0, uses_anonymous_args = 0
 171              	.LVL11:
 172 0000 2DE9F041 		push	{r4, r5, r6, r7, r8, lr}
 173              	.LCFI2:
 174              		.cfi_def_cfa_offset 24
 175              		.cfi_offset 14, -4
 176              		.cfi_offset 8, -8
 177              		.cfi_offset 7, -12
 178              		.cfi_offset 6, -16
 179              		.cfi_offset 5, -20
 180              		.cfi_offset 4, -24
 181              		.loc 1 225 0
 182 0004 6B4B     		ldr	r3, .L38
 183 0006 6C4A     		ldr	r2, .L38+4
 184 0008 9B69     		ldr	r3, [r3, #24]
 185 000a 6C4C     		ldr	r4, .L38+8
 186 000c 9A61     		str	r2, [r3, #24]
 187              		.loc 1 218 0
 188 000e 9AB0     		sub	sp, sp, #104
 189              	.LCFI3:
 190              		.cfi_def_cfa_offset 128
 191              		.loc 1 218 0
 192 0010 0546     		mov	r5, r0
 193              		.loc 1 228 0
 194 0012 FFF7FEFF 		bl	sys_init
 195              	.LVL12:
 196              		.loc 1 229 0
 197 0016 FFF7FEFF 		bl	mem_init
 198              		.loc 1 230 0
 199 001a FFF7FEFF 		bl	memp_init
 200              		.loc 1 232 0
 201 001e FFF7FEFF 		bl	netif_init
 202              		.loc 1 234 0
 203 0022 0020     		movs	r0, #0
 204 0024 0146     		mov	r1, r0
 205 0026 FFF7FEFF 		bl	tcpip_init
 206              		.loc 1 237 0
 207 002a 7DB1     		cbz	r5, .L14
 208 002c 0023     		movs	r3, #0
 209              	.L15:
 210              	.LBB17:
 211              		.loc 1 242 0 discriminator 2
 212 002e 2968     		ldr	r1, [r5, #0]
 213              		.loc 1 218 0 discriminator 2
 214 0030 E218     		adds	r2, r4, r3
 215              		.loc 1 242 0 discriminator 2
 216 0032 C95C     		ldrb	r1, [r1, r3]	@ zero_extendqisi2
 217              		.loc 1 241 0 discriminator 2
 218 0034 0133     		adds	r3, r3, #1
 219              	.LVL13:
 220 0036 062B     		cmp	r3, #6
 221              		.loc 1 242 0 discriminator 2
 222 0038 82F82310 		strb	r1, [r2, #35]
 223              		.loc 1 241 0 discriminator 2
 224 003c F7D1     		bne	.L15
 225              		.loc 1 243 0
 226 003e 6968     		ldr	r1, [r5, #4]
ARM GAS  /var/folders/5n/p_75w94d66l9ssrldxqdhh700000gn/T//ccMff9NN.s 			page 5


 227              		.loc 1 244 0
 228 0040 EA68     		ldr	r2, [r5, #12]
 229              		.loc 1 245 0
 230 0042 AB68     		ldr	r3, [r5, #8]
 231              	.LVL14:
 232              		.loc 1 243 0
 233 0044 1791     		str	r1, [sp, #92]
 234              		.loc 1 244 0
 235 0046 1892     		str	r2, [sp, #96]
 236              		.loc 1 245 0
 237 0048 1993     		str	r3, [sp, #100]
 238 004a 1DE0     		b	.L16
 239              	.L14:
 240              	.LBE17:
 241              		.loc 1 248 0
 242 004c C221     		movs	r1, #194
 243 004e 84F82310 		strb	r1, [r4, #35]
 244              		.loc 1 249 0
 245 0052 AF21     		movs	r1, #175
 246              		.loc 1 254 0
 247 0054 4AF6C002 		movw	r2, #43200
 248              		.loc 1 249 0
 249 0058 84F82410 		strb	r1, [r4, #36]
 250              		.loc 1 250 0
 251 005c 5121     		movs	r1, #81
 252              		.loc 1 255 0
 253 005e 1346     		mov	r3, r2
 254              		.loc 1 250 0
 255 0060 84F82510 		strb	r1, [r4, #37]
 256              		.loc 1 251 0
 257 0064 0321     		movs	r1, #3
 258              		.loc 1 255 0
 259 0066 C0F20113 		movt	r3, 257
 260              		.loc 1 251 0
 261 006a 84F82610 		strb	r1, [r4, #38]
 262              		.loc 1 252 0
 263 006e CF21     		movs	r1, #207
 264              		.loc 1 254 0
 265 0070 C1F20142 		movt	r2, 5121
 266              		.loc 1 252 0
 267 0074 84F82710 		strb	r1, [r4, #39]
 268              		.loc 1 255 0
 269 0078 1893     		str	r3, [sp, #96]
 270              		.loc 1 253 0
 271 007a 4621     		movs	r1, #70
 272              		.loc 1 256 0
 273 007c 6FF07F43 		mvn	r3, #-16777216
 274              		.loc 1 253 0
 275 0080 84F82810 		strb	r1, [r4, #40]
 276              		.loc 1 254 0
 277 0084 1792     		str	r2, [sp, #92]
 278              		.loc 1 256 0
 279 0086 1993     		str	r3, [sp, #100]
 280              	.L16:
 281              		.loc 1 258 0
 282 0088 4D48     		ldr	r0, .L38+12
 283 008a 4E49     		ldr	r1, .L38+16
ARM GAS  /var/folders/5n/p_75w94d66l9ssrldxqdhh700000gn/T//ccMff9NN.s 			page 6


 284              		.loc 1 259 0
 285 008c 4E4F     		ldr	r7, .L38+20
 286 008e 4F4D     		ldr	r5, .L38+24
 287              	.LVL15:
 288              		.loc 1 258 0
 289 0090 FFF7FEFF 		bl	macStart
 290              		.loc 1 259 0
 291 0094 4E4B     		ldr	r3, .L38+28
 292 0096 4948     		ldr	r0, .L38+8
 293 0098 0193     		str	r3, [sp, #4]
 294 009a 17A9     		add	r1, sp, #92
 295 009c 19AA     		add	r2, sp, #100
 296 009e 18AB     		add	r3, sp, #96
 297 00a0 0026     		movs	r6, #0
 298 00a2 0297     		str	r7, [sp, #8]
 299 00a4 0096     		str	r6, [sp, #0]
 300 00a6 FFF7FEFF 		bl	netif_add
 301              		.loc 1 261 0
 302 00aa 4448     		ldr	r0, .L38+8
 303 00ac FFF7FEFF 		bl	netif_set_default
 304              		.loc 1 262 0
 305 00b0 4248     		ldr	r0, .L38+8
 306 00b2 FFF7FEFF 		bl	netif_set_up
 307              		.loc 1 265 0
 308 00b6 05AB     		add	r3, sp, #20
 309 00b8 0AAF     		add	r7, sp, #40
 310              		.loc 1 266 0
 311 00ba 1846     		mov	r0, r3
 312              		.loc 1 265 0
 313 00bc 41F28833 		movw	r3, #5000
 314 00c0 0B93     		str	r3, [sp, #44]
 315 00c2 0A97     		str	r7, [sp, #40]
 316 00c4 0896     		str	r6, [sp, #32]
 317              		.loc 1 266 0
 318 00c6 FFF7FEFF 		bl	evtStart
 319              		.loc 1 267 0
 320 00ca 3846     		mov	r0, r7
 321 00cc 0CA9     		add	r1, sp, #48
 322 00ce 0122     		movs	r2, #1
 323 00d0 FFF7FEFF 		bl	chEvtRegisterMask
 324              		.loc 1 268 0
 325 00d4 10A9     		add	r1, sp, #64
 326 00d6 0222     		movs	r2, #2
 327 00d8 3E48     		ldr	r0, .L38+32
 328 00da FFF7FEFF 		bl	chEvtRegisterMask
 329              		.loc 1 269 0
 330 00de 0320     		movs	r0, #3
 331 00e0 FFF7FEFF 		bl	chEvtAddEvents
 332              		.loc 1 272 0
 333 00e4 0220     		movs	r0, #2
 334 00e6 FFF7FEFF 		bl	chThdSetPriority
 335 00ea 01E0     		b	.L36
 336              	.LVL16:
 337              	.L17:
 338              	.LBB18:
 339              		.loc 1 287 0
 340 00ec B307     		lsls	r3, r6, #30
ARM GAS  /var/folders/5n/p_75w94d66l9ssrldxqdhh700000gn/T//ccMff9NN.s 			page 7


 341 00ee 19D4     		bmi	.L37
 342              	.LVL17:
 343              	.L36:
 344              		.loc 1 275 0
 345 00f0 4FF0FF30 		mov	r0, #-1
 346 00f4 FFF7FEFF 		bl	chEvtWaitAny
 347              		.loc 1 276 0
 348 00f8 C207     		lsls	r2, r0, #31
 349              		.loc 1 275 0
 350 00fa 0646     		mov	r6, r0
 351              	.LVL18:
 352              		.loc 1 276 0
 353 00fc F6D5     		bpl	.L17
 354              	.LBB19:
 355              		.loc 1 277 0
 356 00fe 3048     		ldr	r0, .L38+12
 357              	.LVL19:
 358 0100 FFF7FEFF 		bl	macPollLinkStatus
 359              		.loc 1 278 0
 360 0104 94F82930 		ldrb	r3, [r4, #41]	@ zero_extendqisi2
 361 0108 C3F30013 		ubfx	r3, r3, #4, #1
 362 010c 9842     		cmp	r0, r3
 363              		.loc 1 277 0
 364 010e 0246     		mov	r2, r0
 365              	.LVL20:
 366              		.loc 1 278 0
 367 0110 ECD0     		beq	.L17
 368              		.loc 1 279 0
 369 0112 0028     		cmp	r0, #0
 370 0114 37D0     		beq	.L18
 371              		.loc 1 280 0
 372 0116 0022     		movs	r2, #0
 373 0118 2849     		ldr	r1, .L38+8
 374 011a 2F48     		ldr	r0, .L38+36
 375              	.LVL21:
 376 011c FFF7FEFF 		bl	tcpip_callback_with_block
 377              	.LBE19:
 378              		.loc 1 287 0
 379 0120 B307     		lsls	r3, r6, #30
 380 0122 E5D5     		bpl	.L36
 381              	.L37:
 382              	.LBB20:
 383              	.LBB21:
 384              		.loc 1 291 0 discriminator 1
 385 0124 40F60608 		movw	r8, #2054
 386              	.LVL22:
 387              	.L35:
 388              	.LBE21:
 389              	.LBB22:
 390              	.LBB23:
 391              		.loc 1 143 0 discriminator 1
 392 0128 2548     		ldr	r0, .L38+12
 393 012a 14A9     		add	r1, sp, #80
 394 012c 0022     		movs	r2, #0
 395 012e FFF7FEFF 		bl	macWaitReceiveDescriptor
 396 0132 0028     		cmp	r0, #0
 397 0134 DCD1     		bne	.L36
ARM GAS  /var/folders/5n/p_75w94d66l9ssrldxqdhh700000gn/T//ccMff9NN.s 			page 8


 398              	.LVL23:
 399              		.loc 1 151 0
 400 0136 0320     		movs	r0, #3
 401 0138 BDF85410 		ldrh	r1, [sp, #84]
 402 013c 0246     		mov	r2, r0
 403 013e FFF7FEFF 		bl	pbuf_alloc
 404              	.LVL24:
 405              		.loc 1 153 0
 406 0142 0746     		mov	r7, r0
 407 0144 0028     		cmp	r0, #0
 408 0146 2AD0     		beq	.L25
 409 0148 0646     		mov	r6, r0
 410              	.LVL25:
 411              	.L26:
 412              		.loc 1 161 0
 413 014a 7168     		ldr	r1, [r6, #4]
 414 014c 7289     		ldrh	r2, [r6, #10]
 415 014e 14A8     		add	r0, sp, #80
 416 0150 FFF7FEFF 		bl	mac_lld_read_receive_descriptor
 417              		.loc 1 160 0
 418 0154 3668     		ldr	r6, [r6, #0]
 419              	.LVL26:
 420 0156 002E     		cmp	r6, #0
 421 0158 F7D1     		bne	.L26
 422              		.loc 1 162 0
 423 015a 14A8     		add	r0, sp, #80
 424 015c FFF7FEFF 		bl	macReleaseReceiveDescriptor
 425              		.loc 1 168 0
 426 0160 6A88     		ldrh	r2, [r5, #2]
 427              	.LBE23:
 428              	.LBE22:
 429              	.LBB26:
 430              		.loc 1 291 0
 431 0162 7B68     		ldr	r3, [r7, #4]
 432              	.LBE26:
 433              	.LBB27:
 434              	.LBB24:
 435              		.loc 1 168 0
 436 0164 0132     		adds	r2, r2, #1
 437 0166 6A80     		strh	r2, [r5, #2]	@ movhi
 438              	.LVL27:
 439              	.LBE24:
 440              	.LBE27:
 441              	.LBB28:
 442              		.loc 1 291 0
 443 0168 1A7B     		ldrb	r2, [r3, #12]	@ zero_extendqisi2
 444 016a 587B     		ldrb	r0, [r3, #13]	@ zero_extendqisi2
 445 016c 42EA0020 		orr	r0, r2, r0, lsl #8
 446 0170 FFF7FEFF 		bl	lwip_htons
 447              	.LVL28:
 448 0174 B0F5006F 		cmp	r0, #2048
 449 0178 0AD0     		beq	.L21
 450 017a 4045     		cmp	r0, r8
 451 017c 08D0     		beq	.L21
 452              	.L23:
 453              		.loc 1 305 0
 454 017e 3846     		mov	r0, r7
ARM GAS  /var/folders/5n/p_75w94d66l9ssrldxqdhh700000gn/T//ccMff9NN.s 			page 9


 455 0180 FFF7FEFF 		bl	pbuf_free
 456 0184 D0E7     		b	.L35
 457              	.LVL29:
 458              	.L18:
 459              	.LBE28:
 460              	.LBE20:
 461              	.LBB31:
 462              		.loc 1 283 0
 463 0186 0D49     		ldr	r1, .L38+8
 464 0188 1448     		ldr	r0, .L38+40
 465              	.LVL30:
 466 018a FFF7FEFF 		bl	tcpip_callback_with_block
 467              	.LVL31:
 468 018e ADE7     		b	.L17
 469              	.LVL32:
 470              	.L21:
 471              	.LBE31:
 472              	.LBB32:
 473              	.LBB29:
 474              		.loc 1 301 0
 475 0190 2369     		ldr	r3, [r4, #16]
 476 0192 0A49     		ldr	r1, .L38+8
 477 0194 3846     		mov	r0, r7
 478 0196 9847     		blx	r3
 479 0198 0028     		cmp	r0, #0
 480 019a C5D0     		beq	.L35
 481 019c EFE7     		b	.L23
 482              	.LVL33:
 483              	.L25:
 484              	.LBE29:
 485              	.LBB30:
 486              	.LBB25:
 487              		.loc 1 171 0
 488 019e 14A8     		add	r0, sp, #80
 489 01a0 FFF7FEFF 		bl	macReleaseReceiveDescriptor
 490              		.loc 1 172 0
 491 01a4 AA89     		ldrh	r2, [r5, #12]
 492              		.loc 1 173 0
 493 01a6 EB88     		ldrh	r3, [r5, #6]
 494              		.loc 1 172 0
 495 01a8 0132     		adds	r2, r2, #1
 496              		.loc 1 173 0
 497 01aa 0133     		adds	r3, r3, #1
 498              		.loc 1 172 0
 499 01ac AA81     		strh	r2, [r5, #12]	@ movhi
 500              		.loc 1 173 0
 501 01ae EB80     		strh	r3, [r5, #6]	@ movhi
 502 01b0 9EE7     		b	.L36
 503              	.L39:
 504 01b2 00BF     		.align	2
 505              	.L38:
 506 01b4 00000000 		.word	rlist
 507 01b8 00000000 		.word	.LC0
 508 01bc 00000000 		.word	.LANCHOR0
 509 01c0 00000000 		.word	ETHD1
 510 01c4 00000000 		.word	.LANCHOR1
 511 01c8 00000000 		.word	tcpip_input
ARM GAS  /var/folders/5n/p_75w94d66l9ssrldxqdhh700000gn/T//ccMff9NN.s 			page 10


 512 01cc 00000000 		.word	lwip_stats
 513 01d0 00000000 		.word	ethernetif_init
 514 01d4 20000000 		.word	ETHD1+32
 515 01d8 00000000 		.word	netif_set_link_up
 516 01dc 00000000 		.word	netif_set_link_down
 517              	.LBE25:
 518              	.LBE30:
 519              	.LBE32:
 520              	.LBE18:
 521              		.cfi_endproc
 522              	.LFE122:
 523              		.size	lwip_thread, .-lwip_thread
 524              		.global	wa_lwip_thread
 525              		.section	.bss.wa_lwip_thread,"aw",%nobits
 526              		.align	3
 527              		.type	wa_lwip_thread, %object
 528              		.size	wa_lwip_thread, 688
 529              	wa_lwip_thread:
 530 0000 00000000 		.space	688
 530      00000000 
 530      00000000 
 530      00000000 
 530      00000000 
 531              		.section	.rodata.str1.4,"aMS",%progbits,1
 532              		.align	2
 533              	.LC0:
 534 0000 6C776970 		.ascii	"lwipthread\000"
 534      74687265 
 534      616400
 535 000b 00       		.section	.bss.thisif.4483,"aw",%nobits
 536              		.align	2
 537              		.set	.LANCHOR0,. + 0
 538              		.type	thisif.4483, %object
 539              		.size	thisif.4483, 48
 540              	thisif.4483:
 541 0000 00000000 		.space	48
 541      00000000 
 541      00000000 
 541      00000000 
 541      00000000 
 542              		.section	.rodata.mac_config.4484,"a",%progbits
 543              		.align	2
 544              		.set	.LANCHOR1,. + 0
 545              		.type	mac_config.4484, %object
 546              		.size	mac_config.4484, 4
 547              	mac_config.4484:
 548 0000 23000000 		.word	thisif.4483+35
 549              		.text
 550              	.Letext0:
 551              		.file 2 "/usr/local/summon/lib/gcc/arm-none-eabi/4.6.2/include/stddef.h"
 552              		.file 3 "/usr/local/summon/lib/gcc/arm-none-eabi/4.6.2/../../../../arm-none-eabi/include/stdint.h"
 553              		.file 4 "../../os/ports/GCC/ARMCMx/chtypes.h"
 554              		.file 5 "../../os/kernel/include/chlists.h"
 555              		.file 6 "../../os/kernel/include/chthreads.h"
 556              		.file 7 "../../os/ports/GCC/ARMCMx/chcore_v7m.h"
 557              		.file 8 "../../os/kernel/include/chvt.h"
 558              		.file 9 "../../os/kernel/include/chschd.h"
ARM GAS  /var/folders/5n/p_75w94d66l9ssrldxqdhh700000gn/T//ccMff9NN.s 			page 11


 559              		.file 10 "../../os/kernel/include/chsem.h"
 560              		.file 11 "../../os/kernel/include/chmtx.h"
 561              		.file 12 "../../os/kernel/include/chevents.h"
 562              		.file 13 "../../os/hal/include/mac.h"
 563              		.file 14 "../../os/hal/platforms/STM32/mac_lld.h"
 564              		.file 15 "../../os/various/evtimer.h"
 565              		.file 16 "../../os/various/lwip_bindings/arch/cc.h"
 566              		.file 17 "../../ext/lwip/src/include/lwip/mem.h"
 567              		.file 18 "../../ext/lwip/src/include/lwip/err.h"
 568              		.file 19 "../../ext/lwip/src/include/lwip/pbuf.h"
 569              		.file 20 "../../ext/lwip/src/include/lwip/memp.h"
 570              		.file 21 "../../ext/lwip/src/include/lwip/stats.h"
 571              		.file 22 "../../ext/lwip/src/include/ipv4/lwip/ip_addr.h"
 572              		.file 23 "../../ext/lwip/src/include/lwip/netif.h"
 573              		.file 24 "../../ext/lwip/src/include/lwip/tcpip.h"
 574              		.file 25 "../../ext/lwip/src/include/netif/etharp.h"
 575              		.file 26 "../../os/various/lwip_bindings/lwipthread.h"
 576              		.file 27 "../../os/ports/common/ARMCMx/CMSIS/include/core_cm4.h"
 577              		.section	.debug_info,"",%progbits
 578              	.Ldebug_info0:
 579 0000 C3100000 		.4byte	0x10c3
 580 0004 0200     		.2byte	0x2
 581 0006 00000000 		.4byte	.Ldebug_abbrev0
 582 000a 04       		.byte	0x4
 583 000b 01       		.uleb128 0x1
 584 000c 1B070000 		.4byte	.LASF216
 585 0010 01       		.byte	0x1
 586 0011 AC010000 		.4byte	.LASF217
 587 0015 75070000 		.4byte	.LASF218
 588 0019 00000000 		.4byte	0
 589 001d 00000000 		.4byte	0
 590 0021 B8000000 		.4byte	.Ldebug_ranges0+0xb8
 591 0025 00000000 		.4byte	.Ldebug_line0
 592 0029 02       		.uleb128 0x2
 593 002a 04       		.byte	0x4
 594 002b 05       		.byte	0x5
 595 002c 696E7400 		.ascii	"int\000"
 596 0030 03       		.uleb128 0x3
 597 0031 0F000000 		.4byte	.LASF1
 598 0035 02       		.byte	0x2
 599 0036 D4       		.byte	0xd4
 600 0037 3B000000 		.4byte	0x3b
 601 003b 04       		.uleb128 0x4
 602 003c 04       		.byte	0x4
 603 003d 07       		.byte	0x7
 604 003e 58040000 		.4byte	.LASF0
 605 0042 03       		.uleb128 0x3
 606 0043 00000000 		.4byte	.LASF2
 607 0047 03       		.byte	0x3
 608 0048 29       		.byte	0x29
 609 0049 4D000000 		.4byte	0x4d
 610 004d 04       		.uleb128 0x4
 611 004e 01       		.byte	0x1
 612 004f 06       		.byte	0x6
 613 0050 7A010000 		.4byte	.LASF3
 614 0054 03       		.uleb128 0x3
 615 0055 90010000 		.4byte	.LASF4
ARM GAS  /var/folders/5n/p_75w94d66l9ssrldxqdhh700000gn/T//ccMff9NN.s 			page 12


 616 0059 03       		.byte	0x3
 617 005a 2A       		.byte	0x2a
 618 005b 5F000000 		.4byte	0x5f
 619 005f 04       		.uleb128 0x4
 620 0060 01       		.byte	0x1
 621 0061 08       		.byte	0x8
 622 0062 D8010000 		.4byte	.LASF5
 623 0066 04       		.uleb128 0x4
 624 0067 02       		.byte	0x2
 625 0068 05       		.byte	0x5
 626 0069 B3060000 		.4byte	.LASF6
 627 006d 03       		.uleb128 0x3
 628 006e E6050000 		.4byte	.LASF7
 629 0072 03       		.byte	0x3
 630 0073 36       		.byte	0x36
 631 0074 78000000 		.4byte	0x78
 632 0078 04       		.uleb128 0x4
 633 0079 02       		.byte	0x2
 634 007a 07       		.byte	0x7
 635 007b E4070000 		.4byte	.LASF8
 636 007f 03       		.uleb128 0x3
 637 0080 5A000000 		.4byte	.LASF9
 638 0084 03       		.byte	0x3
 639 0085 4F       		.byte	0x4f
 640 0086 8A000000 		.4byte	0x8a
 641 008a 04       		.uleb128 0x4
 642 008b 04       		.byte	0x4
 643 008c 05       		.byte	0x5
 644 008d F9000000 		.4byte	.LASF10
 645 0091 03       		.uleb128 0x3
 646 0092 43070000 		.4byte	.LASF11
 647 0096 03       		.byte	0x3
 648 0097 50       		.byte	0x50
 649 0098 9C000000 		.4byte	0x9c
 650 009c 04       		.uleb128 0x4
 651 009d 04       		.byte	0x4
 652 009e 07       		.byte	0x7
 653 009f 50030000 		.4byte	.LASF12
 654 00a3 04       		.uleb128 0x4
 655 00a4 08       		.byte	0x8
 656 00a5 05       		.byte	0x5
 657 00a6 B2030000 		.4byte	.LASF13
 658 00aa 03       		.uleb128 0x3
 659 00ab BD060000 		.4byte	.LASF14
 660 00af 03       		.byte	0x3
 661 00b0 78       		.byte	0x78
 662 00b1 B5000000 		.4byte	0xb5
 663 00b5 04       		.uleb128 0x4
 664 00b6 08       		.byte	0x8
 665 00b7 07       		.byte	0x7
 666 00b8 97050000 		.4byte	.LASF15
 667 00bc 03       		.uleb128 0x3
 668 00bd D8060000 		.4byte	.LASF16
 669 00c1 04       		.byte	0x4
 670 00c2 27       		.byte	0x27
 671 00c3 7F000000 		.4byte	0x7f
 672 00c7 03       		.uleb128 0x3
ARM GAS  /var/folders/5n/p_75w94d66l9ssrldxqdhh700000gn/T//ccMff9NN.s 			page 13


 673 00c8 79060000 		.4byte	.LASF17
 674 00cc 04       		.byte	0x4
 675 00cd 28       		.byte	0x28
 676 00ce 54000000 		.4byte	0x54
 677 00d2 03       		.uleb128 0x3
 678 00d3 21010000 		.4byte	.LASF18
 679 00d7 04       		.byte	0x4
 680 00d8 29       		.byte	0x29
 681 00d9 54000000 		.4byte	0x54
 682 00dd 03       		.uleb128 0x3
 683 00de EE060000 		.4byte	.LASF19
 684 00e2 04       		.byte	0x4
 685 00e3 2A       		.byte	0x2a
 686 00e4 54000000 		.4byte	0x54
 687 00e8 03       		.uleb128 0x3
 688 00e9 0A060000 		.4byte	.LASF20
 689 00ed 04       		.byte	0x4
 690 00ee 2B       		.byte	0x2b
 691 00ef 54000000 		.4byte	0x54
 692 00f3 03       		.uleb128 0x3
 693 00f4 2F000000 		.4byte	.LASF21
 694 00f8 04       		.byte	0x4
 695 00f9 2C       		.byte	0x2c
 696 00fa 91000000 		.4byte	0x91
 697 00fe 03       		.uleb128 0x3
 698 00ff EF050000 		.4byte	.LASF22
 699 0103 04       		.byte	0x4
 700 0104 2D       		.byte	0x2d
 701 0105 7F000000 		.4byte	0x7f
 702 0109 03       		.uleb128 0x3
 703 010a 98010000 		.4byte	.LASF23
 704 010e 04       		.byte	0x4
 705 010f 2F       		.byte	0x2f
 706 0110 91000000 		.4byte	0x91
 707 0114 03       		.uleb128 0x3
 708 0115 EE040000 		.4byte	.LASF24
 709 0119 04       		.byte	0x4
 710 011a 30       		.byte	0x30
 711 011b 91000000 		.4byte	0x91
 712 011f 03       		.uleb128 0x3
 713 0120 16000000 		.4byte	.LASF25
 714 0124 04       		.byte	0x4
 715 0125 31       		.byte	0x31
 716 0126 91000000 		.4byte	0x91
 717 012a 03       		.uleb128 0x3
 718 012b D1020000 		.4byte	.LASF26
 719 012f 04       		.byte	0x4
 720 0130 32       		.byte	0x32
 721 0131 7F000000 		.4byte	0x7f
 722 0135 03       		.uleb128 0x3
 723 0136 DF060000 		.4byte	.LASF27
 724 013a 05       		.byte	0x5
 725 013b 23       		.byte	0x23
 726 013c 40010000 		.4byte	0x140
 727 0140 05       		.uleb128 0x5
 728 0141 DF060000 		.4byte	.LASF27
 729 0145 48       		.byte	0x48
ARM GAS  /var/folders/5n/p_75w94d66l9ssrldxqdhh700000gn/T//ccMff9NN.s 			page 14


 730 0146 06       		.byte	0x6
 731 0147 57       		.byte	0x57
 732 0148 65020000 		.4byte	0x265
 733 014c 06       		.uleb128 0x6
 734 014d 02010000 		.4byte	.LASF28
 735 0151 06       		.byte	0x6
 736 0152 58       		.byte	0x58
 737 0153 8A020000 		.4byte	0x28a
 738 0157 02       		.byte	0x2
 739 0158 23       		.byte	0x23
 740 0159 00       		.uleb128 0
 741 015a 06       		.uleb128 0x6
 742 015b 09010000 		.4byte	.LASF29
 743 015f 06       		.byte	0x6
 744 0160 5A       		.byte	0x5a
 745 0161 8A020000 		.4byte	0x28a
 746 0165 02       		.byte	0x2
 747 0166 23       		.byte	0x23
 748 0167 04       		.uleb128 0x4
 749 0168 06       		.uleb128 0x6
 750 0169 49020000 		.4byte	.LASF30
 751 016d 06       		.byte	0x6
 752 016e 5C       		.byte	0x5c
 753 016f F3000000 		.4byte	0xf3
 754 0173 02       		.byte	0x2
 755 0174 23       		.byte	0x23
 756 0175 08       		.uleb128 0x8
 757 0176 06       		.uleb128 0x6
 758 0177 29000000 		.4byte	.LASF31
 759 017b 06       		.byte	0x6
 760 017c 5D       		.byte	0x5d
 761 017d 63030000 		.4byte	0x363
 762 0181 02       		.byte	0x2
 763 0182 23       		.byte	0x23
 764 0183 0C       		.uleb128 0xc
 765 0184 06       		.uleb128 0x6
 766 0185 F1000000 		.4byte	.LASF32
 767 0189 06       		.byte	0x6
 768 018a 5F       		.byte	0x5f
 769 018b 8A020000 		.4byte	0x28a
 770 018f 02       		.byte	0x2
 771 0190 23       		.byte	0x23
 772 0191 10       		.uleb128 0x10
 773 0192 06       		.uleb128 0x6
 774 0193 D1050000 		.4byte	.LASF33
 775 0197 06       		.byte	0x6
 776 0198 60       		.byte	0x60
 777 0199 8A020000 		.4byte	0x28a
 778 019d 02       		.byte	0x2
 779 019e 23       		.byte	0x23
 780 019f 14       		.uleb128 0x14
 781 01a0 06       		.uleb128 0x6
 782 01a1 65080000 		.4byte	.LASF34
 783 01a5 06       		.byte	0x6
 784 01a6 67       		.byte	0x67
 785 01a7 A6050000 		.4byte	0x5a6
 786 01ab 02       		.byte	0x2
ARM GAS  /var/folders/5n/p_75w94d66l9ssrldxqdhh700000gn/T//ccMff9NN.s 			page 15


 787 01ac 23       		.byte	0x23
 788 01ad 18       		.uleb128 0x18
 789 01ae 06       		.uleb128 0x6
 790 01af B1080000 		.4byte	.LASF35
 791 01b3 06       		.byte	0x6
 792 01b4 72       		.byte	0x72
 793 01b5 D2000000 		.4byte	0xd2
 794 01b9 02       		.byte	0x2
 795 01ba 23       		.byte	0x23
 796 01bb 1C       		.uleb128 0x1c
 797 01bc 06       		.uleb128 0x6
 798 01bd 44040000 		.4byte	.LASF36
 799 01c1 06       		.byte	0x6
 800 01c2 76       		.byte	0x76
 801 01c3 C7000000 		.4byte	0xc7
 802 01c7 02       		.byte	0x2
 803 01c8 23       		.byte	0x23
 804 01c9 1D       		.uleb128 0x1d
 805 01ca 06       		.uleb128 0x6
 806 01cb 8D040000 		.4byte	.LASF37
 807 01cf 06       		.byte	0x6
 808 01d0 7B       		.byte	0x7b
 809 01d1 DD000000 		.4byte	0xdd
 810 01d5 02       		.byte	0x2
 811 01d6 23       		.byte	0x23
 812 01d7 1E       		.uleb128 0x1e
 813 01d8 06       		.uleb128 0x6
 814 01d9 86010000 		.4byte	.LASF38
 815 01dd 06       		.byte	0x6
 816 01de 81       		.byte	0x81
 817 01df E8000000 		.4byte	0xe8
 818 01e3 02       		.byte	0x2
 819 01e4 23       		.byte	0x23
 820 01e5 1F       		.uleb128 0x1f
 821 01e6 06       		.uleb128 0x6
 822 01e7 0C050000 		.4byte	.LASF39
 823 01eb 06       		.byte	0x6
 824 01ec 88       		.byte	0x88
 825 01ed 0C040000 		.4byte	0x40c
 826 01f1 02       		.byte	0x2
 827 01f2 23       		.byte	0x23
 828 01f3 20       		.uleb128 0x20
 829 01f4 07       		.uleb128 0x7
 830 01f5 705F7500 		.ascii	"p_u\000"
 831 01f9 06       		.byte	0x6
 832 01fa AD       		.byte	0xad
 833 01fb 71050000 		.4byte	0x571
 834 01ff 02       		.byte	0x2
 835 0200 23       		.byte	0x23
 836 0201 24       		.uleb128 0x24
 837 0202 06       		.uleb128 0x6
 838 0203 35040000 		.4byte	.LASF40
 839 0207 06       		.byte	0x6
 840 0208 B2       		.byte	0xb2
 841 0209 B2020000 		.4byte	0x2b2
 842 020d 02       		.byte	0x2
 843 020e 23       		.byte	0x23
ARM GAS  /var/folders/5n/p_75w94d66l9ssrldxqdhh700000gn/T//ccMff9NN.s 			page 16


 844 020f 28       		.uleb128 0x28
 845 0210 06       		.uleb128 0x6
 846 0211 49000000 		.4byte	.LASF41
 847 0215 06       		.byte	0x6
 848 0216 B8       		.byte	0xb8
 849 0217 90020000 		.4byte	0x290
 850 021b 02       		.byte	0x2
 851 021c 23       		.byte	0x23
 852 021d 2C       		.uleb128 0x2c
 853 021e 06       		.uleb128 0x6
 854 021f 9F080000 		.4byte	.LASF42
 855 0223 06       		.byte	0x6
 856 0224 BC       		.byte	0xbc
 857 0225 FE000000 		.4byte	0xfe
 858 0229 02       		.byte	0x2
 859 022a 23       		.byte	0x23
 860 022b 34       		.uleb128 0x34
 861 022c 06       		.uleb128 0x6
 862 022d 16030000 		.4byte	.LASF43
 863 0231 06       		.byte	0x6
 864 0232 C2       		.byte	0xc2
 865 0233 09010000 		.4byte	0x109
 866 0237 02       		.byte	0x2
 867 0238 23       		.byte	0x23
 868 0239 38       		.uleb128 0x38
 869 023a 06       		.uleb128 0x6
 870 023b 30010000 		.4byte	.LASF44
 871 023f 06       		.byte	0x6
 872 0240 C9       		.byte	0xc9
 873 0241 B8050000 		.4byte	0x5b8
 874 0245 02       		.byte	0x2
 875 0246 23       		.byte	0x23
 876 0247 3C       		.uleb128 0x3c
 877 0248 06       		.uleb128 0x6
 878 0249 4E050000 		.4byte	.LASF45
 879 024d 06       		.byte	0x6
 880 024e CD       		.byte	0xcd
 881 024f F3000000 		.4byte	0xf3
 882 0253 02       		.byte	0x2
 883 0254 23       		.byte	0x23
 884 0255 40       		.uleb128 0x40
 885 0256 06       		.uleb128 0x6
 886 0257 78040000 		.4byte	.LASF46
 887 025b 06       		.byte	0x6
 888 025c D3       		.byte	0xd3
 889 025d C8020000 		.4byte	0x2c8
 890 0261 02       		.byte	0x2
 891 0262 23       		.byte	0x23
 892 0263 44       		.uleb128 0x44
 893 0264 00       		.byte	0
 894 0265 08       		.uleb128 0x8
 895 0266 08       		.byte	0x8
 896 0267 05       		.byte	0x5
 897 0268 5A       		.byte	0x5a
 898 0269 8A020000 		.4byte	0x28a
 899 026d 06       		.uleb128 0x6
 900 026e 02010000 		.4byte	.LASF28
ARM GAS  /var/folders/5n/p_75w94d66l9ssrldxqdhh700000gn/T//ccMff9NN.s 			page 17


 901 0272 05       		.byte	0x5
 902 0273 5B       		.byte	0x5b
 903 0274 8A020000 		.4byte	0x28a
 904 0278 02       		.byte	0x2
 905 0279 23       		.byte	0x23
 906 027a 00       		.uleb128 0
 907 027b 06       		.uleb128 0x6
 908 027c 09010000 		.4byte	.LASF29
 909 0280 05       		.byte	0x5
 910 0281 5D       		.byte	0x5d
 911 0282 8A020000 		.4byte	0x28a
 912 0286 02       		.byte	0x2
 913 0287 23       		.byte	0x23
 914 0288 04       		.uleb128 0x4
 915 0289 00       		.byte	0
 916 028a 09       		.uleb128 0x9
 917 028b 04       		.byte	0x4
 918 028c 35010000 		.4byte	0x135
 919 0290 03       		.uleb128 0x3
 920 0291 68070000 		.4byte	.LASF47
 921 0295 05       		.byte	0x5
 922 0296 5F       		.byte	0x5f
 923 0297 65020000 		.4byte	0x265
 924 029b 08       		.uleb128 0x8
 925 029c 04       		.byte	0x4
 926 029d 05       		.byte	0x5
 927 029e 64       		.byte	0x64
 928 029f B2020000 		.4byte	0x2b2
 929 02a3 06       		.uleb128 0x6
 930 02a4 02010000 		.4byte	.LASF28
 931 02a8 05       		.byte	0x5
 932 02a9 66       		.byte	0x66
 933 02aa 8A020000 		.4byte	0x28a
 934 02ae 02       		.byte	0x2
 935 02af 23       		.byte	0x23
 936 02b0 00       		.uleb128 0
 937 02b1 00       		.byte	0
 938 02b2 03       		.uleb128 0x3
 939 02b3 C7040000 		.4byte	.LASF48
 940 02b7 05       		.byte	0x5
 941 02b8 69       		.byte	0x69
 942 02b9 9B020000 		.4byte	0x29b
 943 02bd 03       		.uleb128 0x3
 944 02be 3A010000 		.4byte	.LASF49
 945 02c2 07       		.byte	0x7
 946 02c3 DE       		.byte	0xde
 947 02c4 C8020000 		.4byte	0x2c8
 948 02c8 0A       		.uleb128 0xa
 949 02c9 04       		.byte	0x4
 950 02ca 03       		.uleb128 0x3
 951 02cb 87020000 		.4byte	.LASF50
 952 02cf 07       		.byte	0x7
 953 02d0 E4       		.byte	0xe4
 954 02d1 AA000000 		.4byte	0xaa
 955 02d5 0B       		.uleb128 0xb
 956 02d6 0F030000 		.4byte	.LASF51
 957 02da 24       		.byte	0x24
ARM GAS  /var/folders/5n/p_75w94d66l9ssrldxqdhh700000gn/T//ccMff9NN.s 			page 18


 958 02db 07       		.byte	0x7
 959 02dc 0501     		.2byte	0x105
 960 02de 63030000 		.4byte	0x363
 961 02e2 0C       		.uleb128 0xc
 962 02e3 723400   		.ascii	"r4\000"
 963 02e6 07       		.byte	0x7
 964 02e7 1801     		.2byte	0x118
 965 02e9 BD020000 		.4byte	0x2bd
 966 02ed 02       		.byte	0x2
 967 02ee 23       		.byte	0x23
 968 02ef 00       		.uleb128 0
 969 02f0 0C       		.uleb128 0xc
 970 02f1 723500   		.ascii	"r5\000"
 971 02f4 07       		.byte	0x7
 972 02f5 1901     		.2byte	0x119
 973 02f7 BD020000 		.4byte	0x2bd
 974 02fb 02       		.byte	0x2
 975 02fc 23       		.byte	0x23
 976 02fd 04       		.uleb128 0x4
 977 02fe 0C       		.uleb128 0xc
 978 02ff 723600   		.ascii	"r6\000"
 979 0302 07       		.byte	0x7
 980 0303 1A01     		.2byte	0x11a
 981 0305 BD020000 		.4byte	0x2bd
 982 0309 02       		.byte	0x2
 983 030a 23       		.byte	0x23
 984 030b 08       		.uleb128 0x8
 985 030c 0C       		.uleb128 0xc
 986 030d 723700   		.ascii	"r7\000"
 987 0310 07       		.byte	0x7
 988 0311 1B01     		.2byte	0x11b
 989 0313 BD020000 		.4byte	0x2bd
 990 0317 02       		.byte	0x2
 991 0318 23       		.byte	0x23
 992 0319 0C       		.uleb128 0xc
 993 031a 0C       		.uleb128 0xc
 994 031b 723800   		.ascii	"r8\000"
 995 031e 07       		.byte	0x7
 996 031f 1C01     		.2byte	0x11c
 997 0321 BD020000 		.4byte	0x2bd
 998 0325 02       		.byte	0x2
 999 0326 23       		.byte	0x23
 1000 0327 10       		.uleb128 0x10
 1001 0328 0C       		.uleb128 0xc
 1002 0329 723900   		.ascii	"r9\000"
 1003 032c 07       		.byte	0x7
 1004 032d 1D01     		.2byte	0x11d
 1005 032f BD020000 		.4byte	0x2bd
 1006 0333 02       		.byte	0x2
 1007 0334 23       		.byte	0x23
 1008 0335 14       		.uleb128 0x14
 1009 0336 0C       		.uleb128 0xc
 1010 0337 72313000 		.ascii	"r10\000"
 1011 033b 07       		.byte	0x7
 1012 033c 1E01     		.2byte	0x11e
 1013 033e BD020000 		.4byte	0x2bd
 1014 0342 02       		.byte	0x2
ARM GAS  /var/folders/5n/p_75w94d66l9ssrldxqdhh700000gn/T//ccMff9NN.s 			page 19


 1015 0343 23       		.byte	0x23
 1016 0344 18       		.uleb128 0x18
 1017 0345 0C       		.uleb128 0xc
 1018 0346 72313100 		.ascii	"r11\000"
 1019 034a 07       		.byte	0x7
 1020 034b 1F01     		.2byte	0x11f
 1021 034d BD020000 		.4byte	0x2bd
 1022 0351 02       		.byte	0x2
 1023 0352 23       		.byte	0x23
 1024 0353 1C       		.uleb128 0x1c
 1025 0354 0C       		.uleb128 0xc
 1026 0355 6C7200   		.ascii	"lr\000"
 1027 0358 07       		.byte	0x7
 1028 0359 2001     		.2byte	0x120
 1029 035b BD020000 		.4byte	0x2bd
 1030 035f 02       		.byte	0x2
 1031 0360 23       		.byte	0x23
 1032 0361 20       		.uleb128 0x20
 1033 0362 00       		.byte	0
 1034 0363 0B       		.uleb128 0xb
 1035 0364 A4010000 		.4byte	.LASF52
 1036 0368 04       		.byte	0x4
 1037 0369 07       		.byte	0x7
 1038 036a 2A01     		.2byte	0x12a
 1039 036c 80030000 		.4byte	0x380
 1040 0370 0C       		.uleb128 0xc
 1041 0371 72313300 		.ascii	"r13\000"
 1042 0375 07       		.byte	0x7
 1043 0376 2B01     		.2byte	0x12b
 1044 0378 80030000 		.4byte	0x380
 1045 037c 02       		.byte	0x2
 1046 037d 23       		.byte	0x23
 1047 037e 00       		.uleb128 0
 1048 037f 00       		.byte	0
 1049 0380 09       		.uleb128 0x9
 1050 0381 04       		.byte	0x4
 1051 0382 D5020000 		.4byte	0x2d5
 1052 0386 0D       		.uleb128 0xd
 1053 0387 91000000 		.4byte	0x91
 1054 038b 03       		.uleb128 0x3
 1055 038c 62000000 		.4byte	.LASF53
 1056 0390 08       		.byte	0x8
 1057 0391 4E       		.byte	0x4e
 1058 0392 96030000 		.4byte	0x396
 1059 0396 09       		.uleb128 0x9
 1060 0397 04       		.byte	0x4
 1061 0398 9C030000 		.4byte	0x39c
 1062 039c 0E       		.uleb128 0xe
 1063 039d 01       		.byte	0x1
 1064 039e A8030000 		.4byte	0x3a8
 1065 03a2 0F       		.uleb128 0xf
 1066 03a3 C8020000 		.4byte	0x2c8
 1067 03a7 00       		.byte	0
 1068 03a8 03       		.uleb128 0x3
 1069 03a9 4C070000 		.4byte	.LASF54
 1070 03ad 08       		.byte	0x8
 1071 03ae 53       		.byte	0x53
ARM GAS  /var/folders/5n/p_75w94d66l9ssrldxqdhh700000gn/T//ccMff9NN.s 			page 20


 1072 03af B3030000 		.4byte	0x3b3
 1073 03b3 05       		.uleb128 0x5
 1074 03b4 4C070000 		.4byte	.LASF54
 1075 03b8 14       		.byte	0x14
 1076 03b9 08       		.byte	0x8
 1077 03ba 5A       		.byte	0x5a
 1078 03bb 06040000 		.4byte	0x406
 1079 03bf 06       		.uleb128 0x6
 1080 03c0 C8030000 		.4byte	.LASF55
 1081 03c4 08       		.byte	0x8
 1082 03c5 5B       		.byte	0x5b
 1083 03c6 06040000 		.4byte	0x406
 1084 03ca 02       		.byte	0x2
 1085 03cb 23       		.byte	0x23
 1086 03cc 00       		.uleb128 0
 1087 03cd 06       		.uleb128 0x6
 1088 03ce 00020000 		.4byte	.LASF56
 1089 03d2 08       		.byte	0x8
 1090 03d3 5D       		.byte	0x5d
 1091 03d4 06040000 		.4byte	0x406
 1092 03d8 02       		.byte	0x2
 1093 03d9 23       		.byte	0x23
 1094 03da 04       		.uleb128 0x4
 1095 03db 06       		.uleb128 0x6
 1096 03dc 72080000 		.4byte	.LASF57
 1097 03e0 08       		.byte	0x8
 1098 03e1 5F       		.byte	0x5f
 1099 03e2 1F010000 		.4byte	0x11f
 1100 03e6 02       		.byte	0x2
 1101 03e7 23       		.byte	0x23
 1102 03e8 08       		.uleb128 0x8
 1103 03e9 06       		.uleb128 0x6
 1104 03ea E7020000 		.4byte	.LASF58
 1105 03ee 08       		.byte	0x8
 1106 03ef 60       		.byte	0x60
 1107 03f0 8B030000 		.4byte	0x38b
 1108 03f4 02       		.byte	0x2
 1109 03f5 23       		.byte	0x23
 1110 03f6 0C       		.uleb128 0xc
 1111 03f7 06       		.uleb128 0x6
 1112 03f8 DA000000 		.4byte	.LASF59
 1113 03fc 08       		.byte	0x8
 1114 03fd 62       		.byte	0x62
 1115 03fe C8020000 		.4byte	0x2c8
 1116 0402 02       		.byte	0x2
 1117 0403 23       		.byte	0x23
 1118 0404 10       		.uleb128 0x10
 1119 0405 00       		.byte	0
 1120 0406 09       		.uleb128 0x9
 1121 0407 04       		.byte	0x4
 1122 0408 A8030000 		.4byte	0x3a8
 1123 040c 0D       		.uleb128 0xd
 1124 040d 1F010000 		.4byte	0x11f
 1125 0411 08       		.uleb128 0x8
 1126 0412 1C       		.byte	0x1c
 1127 0413 09       		.byte	0x9
 1128 0414 57       		.byte	0x57
ARM GAS  /var/folders/5n/p_75w94d66l9ssrldxqdhh700000gn/T//ccMff9NN.s 			page 21


 1129 0415 6E040000 		.4byte	0x46e
 1130 0419 06       		.uleb128 0x6
 1131 041a 57060000 		.4byte	.LASF60
 1132 041e 09       		.byte	0x9
 1133 041f 58       		.byte	0x58
 1134 0420 90020000 		.4byte	0x290
 1135 0424 02       		.byte	0x2
 1136 0425 23       		.byte	0x23
 1137 0426 00       		.uleb128 0
 1138 0427 06       		.uleb128 0x6
 1139 0428 D1060000 		.4byte	.LASF61
 1140 042c 09       		.byte	0x9
 1141 042d 59       		.byte	0x59
 1142 042e F3000000 		.4byte	0xf3
 1143 0432 02       		.byte	0x2
 1144 0433 23       		.byte	0x23
 1145 0434 08       		.uleb128 0x8
 1146 0435 06       		.uleb128 0x6
 1147 0436 54000000 		.4byte	.LASF62
 1148 043a 09       		.byte	0x9
 1149 043b 5B       		.byte	0x5b
 1150 043c 63030000 		.4byte	0x363
 1151 0440 02       		.byte	0x2
 1152 0441 23       		.byte	0x23
 1153 0442 0C       		.uleb128 0xc
 1154 0443 06       		.uleb128 0x6
 1155 0444 0F020000 		.4byte	.LASF63
 1156 0448 09       		.byte	0x9
 1157 0449 5E       		.byte	0x5e
 1158 044a 8A020000 		.4byte	0x28a
 1159 044e 02       		.byte	0x2
 1160 044f 23       		.byte	0x23
 1161 0450 10       		.uleb128 0x10
 1162 0451 06       		.uleb128 0x6
 1163 0452 89060000 		.4byte	.LASF64
 1164 0456 09       		.byte	0x9
 1165 0457 5F       		.byte	0x5f
 1166 0458 8A020000 		.4byte	0x28a
 1167 045c 02       		.byte	0x2
 1168 045d 23       		.byte	0x23
 1169 045e 14       		.uleb128 0x14
 1170 045f 06       		.uleb128 0x6
 1171 0460 1E060000 		.4byte	.LASF65
 1172 0464 09       		.byte	0x9
 1173 0465 62       		.byte	0x62
 1174 0466 8A020000 		.4byte	0x28a
 1175 046a 02       		.byte	0x2
 1176 046b 23       		.byte	0x23
 1177 046c 18       		.uleb128 0x18
 1178 046d 00       		.byte	0
 1179 046e 03       		.uleb128 0x3
 1180 046f 43080000 		.4byte	.LASF66
 1181 0473 09       		.byte	0x9
 1182 0474 64       		.byte	0x64
 1183 0475 11040000 		.4byte	0x411
 1184 0479 05       		.uleb128 0x5
 1185 047a 44050000 		.4byte	.LASF67
ARM GAS  /var/folders/5n/p_75w94d66l9ssrldxqdhh700000gn/T//ccMff9NN.s 			page 22


 1186 047e 0C       		.byte	0xc
 1187 047f 0A       		.byte	0xa
 1188 0480 25       		.byte	0x25
 1189 0481 A2040000 		.4byte	0x4a2
 1190 0485 06       		.uleb128 0x6
 1191 0486 A1060000 		.4byte	.LASF68
 1192 048a 0A       		.byte	0xa
 1193 048b 26       		.byte	0x26
 1194 048c 90020000 		.4byte	0x290
 1195 0490 02       		.byte	0x2
 1196 0491 23       		.byte	0x23
 1197 0492 00       		.uleb128 0
 1198 0493 06       		.uleb128 0x6
 1199 0494 78050000 		.4byte	.LASF69
 1200 0498 0A       		.byte	0xa
 1201 0499 28       		.byte	0x28
 1202 049a 2A010000 		.4byte	0x12a
 1203 049e 02       		.byte	0x2
 1204 049f 23       		.byte	0x23
 1205 04a0 08       		.uleb128 0x8
 1206 04a1 00       		.byte	0
 1207 04a2 03       		.uleb128 0x3
 1208 04a3 44050000 		.4byte	.LASF67
 1209 04a7 0A       		.byte	0xa
 1210 04a8 29       		.byte	0x29
 1211 04a9 79040000 		.4byte	0x479
 1212 04ad 05       		.uleb128 0x5
 1213 04ae AC030000 		.4byte	.LASF70
 1214 04b2 10       		.byte	0x10
 1215 04b3 0B       		.byte	0xb
 1216 04b4 25       		.byte	0x25
 1217 04b5 E4040000 		.4byte	0x4e4
 1218 04b9 06       		.uleb128 0x6
 1219 04ba C0030000 		.4byte	.LASF71
 1220 04be 0B       		.byte	0xb
 1221 04bf 26       		.byte	0x26
 1222 04c0 90020000 		.4byte	0x290
 1223 04c4 02       		.byte	0x2
 1224 04c5 23       		.byte	0x23
 1225 04c6 00       		.uleb128 0
 1226 04c7 06       		.uleb128 0x6
 1227 04c8 D2000000 		.4byte	.LASF72
 1228 04cc 0B       		.byte	0xb
 1229 04cd 28       		.byte	0x28
 1230 04ce 8A020000 		.4byte	0x28a
 1231 04d2 02       		.byte	0x2
 1232 04d3 23       		.byte	0x23
 1233 04d4 08       		.uleb128 0x8
 1234 04d5 06       		.uleb128 0x6
 1235 04d6 7A080000 		.4byte	.LASF73
 1236 04da 0B       		.byte	0xb
 1237 04db 2A       		.byte	0x2a
 1238 04dc E4040000 		.4byte	0x4e4
 1239 04e0 02       		.byte	0x2
 1240 04e1 23       		.byte	0x23
 1241 04e2 0C       		.uleb128 0xc
 1242 04e3 00       		.byte	0
ARM GAS  /var/folders/5n/p_75w94d66l9ssrldxqdhh700000gn/T//ccMff9NN.s 			page 23


 1243 04e4 09       		.uleb128 0x9
 1244 04e5 04       		.byte	0x4
 1245 04e6 AD040000 		.4byte	0x4ad
 1246 04ea 03       		.uleb128 0x3
 1247 04eb AC030000 		.4byte	.LASF70
 1248 04ef 0B       		.byte	0xb
 1249 04f0 2C       		.byte	0x2c
 1250 04f1 AD040000 		.4byte	0x4ad
 1251 04f5 03       		.uleb128 0x3
 1252 04f6 01070000 		.4byte	.LASF74
 1253 04fa 0C       		.byte	0xc
 1254 04fb 25       		.byte	0x25
 1255 04fc 00050000 		.4byte	0x500
 1256 0500 05       		.uleb128 0x5
 1257 0501 01070000 		.4byte	.LASF74
 1258 0505 10       		.byte	0x10
 1259 0506 0C       		.byte	0xc
 1260 0507 2A       		.byte	0x2a
 1261 0508 45050000 		.4byte	0x545
 1262 050c 06       		.uleb128 0x6
 1263 050d 85030000 		.4byte	.LASF75
 1264 0511 0C       		.byte	0xc
 1265 0512 2B       		.byte	0x2b
 1266 0513 45050000 		.4byte	0x545
 1267 0517 02       		.byte	0x2
 1268 0518 23       		.byte	0x23
 1269 0519 00       		.uleb128 0
 1270 051a 06       		.uleb128 0x6
 1271 051b A5080000 		.4byte	.LASF76
 1272 051f 0C       		.byte	0xc
 1273 0520 2E       		.byte	0x2e
 1274 0521 8A020000 		.4byte	0x28a
 1275 0525 02       		.byte	0x2
 1276 0526 23       		.byte	0x23
 1277 0527 04       		.uleb128 0x4
 1278 0528 06       		.uleb128 0x6
 1279 0529 3B080000 		.4byte	.LASF77
 1280 052d 0C       		.byte	0xc
 1281 052e 30       		.byte	0x30
 1282 052f 09010000 		.4byte	0x109
 1283 0533 02       		.byte	0x2
 1284 0534 23       		.byte	0x23
 1285 0535 08       		.uleb128 0x8
 1286 0536 06       		.uleb128 0x6
 1287 0537 91000000 		.4byte	.LASF78
 1288 053b 0C       		.byte	0xc
 1289 053c 33       		.byte	0x33
 1290 053d 14010000 		.4byte	0x114
 1291 0541 02       		.byte	0x2
 1292 0542 23       		.byte	0x23
 1293 0543 0C       		.uleb128 0xc
 1294 0544 00       		.byte	0
 1295 0545 09       		.uleb128 0x9
 1296 0546 04       		.byte	0x4
 1297 0547 F5040000 		.4byte	0x4f5
 1298 054b 05       		.uleb128 0x5
 1299 054c 44030000 		.4byte	.LASF79
ARM GAS  /var/folders/5n/p_75w94d66l9ssrldxqdhh700000gn/T//ccMff9NN.s 			page 24


 1300 0550 04       		.byte	0x4
 1301 0551 0C       		.byte	0xc
 1302 0552 3A       		.byte	0x3a
 1303 0553 66050000 		.4byte	0x566
 1304 0557 06       		.uleb128 0x6
 1305 0558 3C030000 		.4byte	.LASF80
 1306 055c 0C       		.byte	0xc
 1307 055d 3B       		.byte	0x3b
 1308 055e 45050000 		.4byte	0x545
 1309 0562 02       		.byte	0x2
 1310 0563 23       		.byte	0x23
 1311 0564 00       		.uleb128 0
 1312 0565 00       		.byte	0
 1313 0566 03       		.uleb128 0x3
 1314 0567 44030000 		.4byte	.LASF79
 1315 056b 0C       		.byte	0xc
 1316 056c 3E       		.byte	0x3e
 1317 056d 4B050000 		.4byte	0x54b
 1318 0571 10       		.uleb128 0x10
 1319 0572 04       		.byte	0x4
 1320 0573 06       		.byte	0x6
 1321 0574 8F       		.byte	0x8f
 1322 0575 A6050000 		.4byte	0x5a6
 1323 0579 11       		.uleb128 0x11
 1324 057a D4070000 		.4byte	.LASF81
 1325 057e 06       		.byte	0x6
 1326 057f 96       		.byte	0x96
 1327 0580 FE000000 		.4byte	0xfe
 1328 0584 11       		.uleb128 0x11
 1329 0585 E1000000 		.4byte	.LASF82
 1330 0589 06       		.byte	0x6
 1331 058a 9D       		.byte	0x9d
 1332 058b FE000000 		.4byte	0xfe
 1333 058f 11       		.uleb128 0x11
 1334 0590 63020000 		.4byte	.LASF83
 1335 0594 06       		.byte	0x6
 1336 0595 A4       		.byte	0xa4
 1337 0596 C8020000 		.4byte	0x2c8
 1338 059a 11       		.uleb128 0x11
 1339 059b EA000000 		.4byte	.LASF84
 1340 059f 06       		.byte	0x6
 1341 05a0 AB       		.byte	0xab
 1342 05a1 09010000 		.4byte	0x109
 1343 05a5 00       		.byte	0
 1344 05a6 09       		.uleb128 0x9
 1345 05a7 04       		.byte	0x4
 1346 05a8 AC050000 		.4byte	0x5ac
 1347 05ac 12       		.uleb128 0x12
 1348 05ad B1050000 		.4byte	0x5b1
 1349 05b1 04       		.uleb128 0x4
 1350 05b2 01       		.byte	0x1
 1351 05b3 08       		.byte	0x8
 1352 05b4 32020000 		.4byte	.LASF85
 1353 05b8 09       		.uleb128 0x9
 1354 05b9 04       		.byte	0x4
 1355 05ba EA040000 		.4byte	0x4ea
 1356 05be 09       		.uleb128 0x9
ARM GAS  /var/folders/5n/p_75w94d66l9ssrldxqdhh700000gn/T//ccMff9NN.s 			page 25


 1357 05bf 04       		.byte	0x4
 1358 05c0 54000000 		.4byte	0x54
 1359 05c4 0D       		.uleb128 0xd
 1360 05c5 7F000000 		.4byte	0x7f
 1361 05c9 13       		.uleb128 0x13
 1362 05ca 01       		.byte	0x1
 1363 05cb 0D       		.byte	0xd
 1364 05cc 48       		.byte	0x48
 1365 05cd E4050000 		.4byte	0x5e4
 1366 05d1 14       		.uleb128 0x14
 1367 05d2 B2000000 		.4byte	.LASF86
 1368 05d6 00       		.sleb128 0
 1369 05d7 14       		.uleb128 0x14
 1370 05d8 CB070000 		.4byte	.LASF87
 1371 05dc 01       		.sleb128 1
 1372 05dd 14       		.uleb128 0x14
 1373 05de D0030000 		.4byte	.LASF88
 1374 05e2 02       		.sleb128 2
 1375 05e3 00       		.byte	0
 1376 05e4 03       		.uleb128 0x3
 1377 05e5 F6060000 		.4byte	.LASF89
 1378 05e9 0D       		.byte	0xd
 1379 05ea 4C       		.byte	0x4c
 1380 05eb C9050000 		.4byte	0x5c9
 1381 05ef 03       		.uleb128 0x3
 1382 05f0 95030000 		.4byte	.LASF90
 1383 05f4 0D       		.byte	0xd
 1384 05f5 51       		.byte	0x51
 1385 05f6 FA050000 		.4byte	0x5fa
 1386 05fa 05       		.uleb128 0x5
 1387 05fb 95030000 		.4byte	.LASF90
 1388 05ff 34       		.byte	0x34
 1389 0600 0E       		.byte	0xe
 1390 0601 EB       		.byte	0xeb
 1391 0602 8A060000 		.4byte	0x68a
 1392 0606 06       		.uleb128 0x6
 1393 0607 A1000000 		.4byte	.LASF91
 1394 060b 0E       		.byte	0xe
 1395 060c EF       		.byte	0xef
 1396 060d E4050000 		.4byte	0x5e4
 1397 0611 02       		.byte	0x2
 1398 0612 23       		.byte	0x23
 1399 0613 00       		.uleb128 0
 1400 0614 06       		.uleb128 0x6
 1401 0615 9A000000 		.4byte	.LASF92
 1402 0619 0E       		.byte	0xe
 1403 061a F3       		.byte	0xf3
 1404 061b 44070000 		.4byte	0x744
 1405 061f 02       		.byte	0x2
 1406 0620 23       		.byte	0x23
 1407 0621 04       		.uleb128 0x4
 1408 0622 06       		.uleb128 0x6
 1409 0623 6C080000 		.4byte	.LASF93
 1410 0627 0E       		.byte	0xe
 1411 0628 F7       		.byte	0xf7
 1412 0629 A2040000 		.4byte	0x4a2
 1413 062d 02       		.byte	0x2
ARM GAS  /var/folders/5n/p_75w94d66l9ssrldxqdhh700000gn/T//ccMff9NN.s 			page 26


 1414 062e 23       		.byte	0x23
 1415 062f 08       		.uleb128 0x8
 1416 0630 06       		.uleb128 0x6
 1417 0631 50020000 		.4byte	.LASF94
 1418 0635 0E       		.byte	0xe
 1419 0636 FB       		.byte	0xfb
 1420 0637 A2040000 		.4byte	0x4a2
 1421 063b 02       		.byte	0x2
 1422 063c 23       		.byte	0x23
 1423 063d 14       		.uleb128 0x14
 1424 063e 15       		.uleb128 0x15
 1425 063f 6A020000 		.4byte	.LASF95
 1426 0643 0E       		.byte	0xe
 1427 0644 0001     		.2byte	0x100
 1428 0646 66050000 		.4byte	0x566
 1429 064a 02       		.byte	0x2
 1430 064b 23       		.byte	0x23
 1431 064c 20       		.uleb128 0x20
 1432 064d 15       		.uleb128 0x15
 1433 064e 81060000 		.4byte	.LASF96
 1434 0652 0E       		.byte	0xe
 1435 0653 0601     		.2byte	0x106
 1436 0655 BC000000 		.4byte	0xbc
 1437 0659 02       		.byte	0x2
 1438 065a 23       		.byte	0x23
 1439 065b 24       		.uleb128 0x24
 1440 065c 15       		.uleb128 0x15
 1441 065d 89000000 		.4byte	.LASF97
 1442 0661 0E       		.byte	0xe
 1443 0662 0A01     		.2byte	0x10a
 1444 0664 91000000 		.4byte	0x91
 1445 0668 02       		.byte	0x2
 1446 0669 23       		.byte	0x23
 1447 066a 28       		.uleb128 0x28
 1448 066b 15       		.uleb128 0x15
 1449 066c 43020000 		.4byte	.LASF98
 1450 0670 0E       		.byte	0xe
 1451 0671 0E01     		.2byte	0x10e
 1452 0673 4F070000 		.4byte	0x74f
 1453 0677 02       		.byte	0x2
 1454 0678 23       		.byte	0x23
 1455 0679 2C       		.uleb128 0x2c
 1456 067a 15       		.uleb128 0x15
 1457 067b 56080000 		.4byte	.LASF99
 1458 067f 0E       		.byte	0xe
 1459 0680 1201     		.2byte	0x112
 1460 0682 55070000 		.4byte	0x755
 1461 0686 02       		.byte	0x2
 1462 0687 23       		.byte	0x23
 1463 0688 30       		.uleb128 0x30
 1464 0689 00       		.byte	0
 1465 068a 08       		.uleb128 0x8
 1466 068b 10       		.byte	0x10
 1467 068c 0E       		.byte	0xe
 1468 068d CC       		.byte	0xcc
 1469 068e CB060000 		.4byte	0x6cb
 1470 0692 06       		.uleb128 0x6
ARM GAS  /var/folders/5n/p_75w94d66l9ssrldxqdhh700000gn/T//ccMff9NN.s 			page 27


 1471 0693 0F070000 		.4byte	.LASF100
 1472 0697 0E       		.byte	0xe
 1473 0698 CD       		.byte	0xcd
 1474 0699 86030000 		.4byte	0x386
 1475 069d 02       		.byte	0x2
 1476 069e 23       		.byte	0x23
 1477 069f 00       		.uleb128 0
 1478 06a0 06       		.uleb128 0x6
 1479 06a1 15070000 		.4byte	.LASF101
 1480 06a5 0E       		.byte	0xe
 1481 06a6 CE       		.byte	0xce
 1482 06a7 86030000 		.4byte	0x386
 1483 06ab 02       		.byte	0x2
 1484 06ac 23       		.byte	0x23
 1485 06ad 04       		.uleb128 0x4
 1486 06ae 06       		.uleb128 0x6
 1487 06af 94040000 		.4byte	.LASF102
 1488 06b3 0E       		.byte	0xe
 1489 06b4 CF       		.byte	0xcf
 1490 06b5 86030000 		.4byte	0x386
 1491 06b9 02       		.byte	0x2
 1492 06ba 23       		.byte	0x23
 1493 06bb 08       		.uleb128 0x8
 1494 06bc 06       		.uleb128 0x6
 1495 06bd 3D070000 		.4byte	.LASF103
 1496 06c1 0E       		.byte	0xe
 1497 06c2 D0       		.byte	0xd0
 1498 06c3 86030000 		.4byte	0x386
 1499 06c7 02       		.byte	0x2
 1500 06c8 23       		.byte	0x23
 1501 06c9 0C       		.uleb128 0xc
 1502 06ca 00       		.byte	0
 1503 06cb 03       		.uleb128 0x3
 1504 06cc E6010000 		.4byte	.LASF104
 1505 06d0 0E       		.byte	0xe
 1506 06d1 D1       		.byte	0xd1
 1507 06d2 8A060000 		.4byte	0x68a
 1508 06d6 08       		.uleb128 0x8
 1509 06d7 10       		.byte	0x10
 1510 06d8 0E       		.byte	0xe
 1511 06d9 D6       		.byte	0xd6
 1512 06da 17070000 		.4byte	0x717
 1513 06de 06       		.uleb128 0x6
 1514 06df 9A040000 		.4byte	.LASF105
 1515 06e3 0E       		.byte	0xe
 1516 06e4 D7       		.byte	0xd7
 1517 06e5 86030000 		.4byte	0x386
 1518 06e9 02       		.byte	0x2
 1519 06ea 23       		.byte	0x23
 1520 06eb 00       		.uleb128 0
 1521 06ec 06       		.uleb128 0x6
 1522 06ed A0040000 		.4byte	.LASF106
 1523 06f1 0E       		.byte	0xe
 1524 06f2 D8       		.byte	0xd8
 1525 06f3 86030000 		.4byte	0x386
 1526 06f7 02       		.byte	0x2
 1527 06f8 23       		.byte	0x23
ARM GAS  /var/folders/5n/p_75w94d66l9ssrldxqdhh700000gn/T//ccMff9NN.s 			page 28


 1528 06f9 04       		.uleb128 0x4
 1529 06fa 06       		.uleb128 0x6
 1530 06fb A6040000 		.4byte	.LASF107
 1531 06ff 0E       		.byte	0xe
 1532 0700 D9       		.byte	0xd9
 1533 0701 86030000 		.4byte	0x386
 1534 0705 02       		.byte	0x2
 1535 0706 23       		.byte	0x23
 1536 0707 08       		.uleb128 0x8
 1537 0708 06       		.uleb128 0x6
 1538 0709 AC040000 		.4byte	.LASF108
 1539 070d 0E       		.byte	0xe
 1540 070e DA       		.byte	0xda
 1541 070f 86030000 		.4byte	0x386
 1542 0713 02       		.byte	0x2
 1543 0714 23       		.byte	0x23
 1544 0715 0C       		.uleb128 0xc
 1545 0716 00       		.byte	0
 1546 0717 03       		.uleb128 0x3
 1547 0718 F7070000 		.4byte	.LASF109
 1548 071c 0E       		.byte	0xe
 1549 071d DB       		.byte	0xdb
 1550 071e D6060000 		.4byte	0x6d6
 1551 0722 08       		.uleb128 0x8
 1552 0723 04       		.byte	0x4
 1553 0724 0E       		.byte	0xe
 1554 0725 E0       		.byte	0xe0
 1555 0726 39070000 		.4byte	0x739
 1556 072a 06       		.uleb128 0x6
 1557 072b 49010000 		.4byte	.LASF110
 1558 072f 0E       		.byte	0xe
 1559 0730 E4       		.byte	0xe4
 1560 0731 BE050000 		.4byte	0x5be
 1561 0735 02       		.byte	0x2
 1562 0736 23       		.byte	0x23
 1563 0737 00       		.uleb128 0
 1564 0738 00       		.byte	0
 1565 0739 03       		.uleb128 0x3
 1566 073a 4D060000 		.4byte	.LASF111
 1567 073e 0E       		.byte	0xe
 1568 073f E6       		.byte	0xe6
 1569 0740 22070000 		.4byte	0x722
 1570 0744 09       		.uleb128 0x9
 1571 0745 04       		.byte	0x4
 1572 0746 4A070000 		.4byte	0x74a
 1573 074a 12       		.uleb128 0x12
 1574 074b 39070000 		.4byte	0x739
 1575 074f 09       		.uleb128 0x9
 1576 0750 04       		.byte	0x4
 1577 0751 CB060000 		.4byte	0x6cb
 1578 0755 09       		.uleb128 0x9
 1579 0756 04       		.byte	0x4
 1580 0757 17070000 		.4byte	0x717
 1581 075b 16       		.uleb128 0x16
 1582 075c 0C       		.byte	0xc
 1583 075d 0E       		.byte	0xe
 1584 075e 1801     		.2byte	0x118
ARM GAS  /var/folders/5n/p_75w94d66l9ssrldxqdhh700000gn/T//ccMff9NN.s 			page 29


 1585 0760 92070000 		.4byte	0x792
 1586 0764 15       		.uleb128 0x15
 1587 0765 D3040000 		.4byte	.LASF112
 1588 0769 0E       		.byte	0xe
 1589 076a 1C01     		.2byte	0x11c
 1590 076c 30000000 		.4byte	0x30
 1591 0770 02       		.byte	0x2
 1592 0771 23       		.byte	0x23
 1593 0772 00       		.uleb128 0
 1594 0773 15       		.uleb128 0x15
 1595 0774 92050000 		.4byte	.LASF113
 1596 0778 0E       		.byte	0xe
 1597 0779 2001     		.2byte	0x120
 1598 077b 30000000 		.4byte	0x30
 1599 077f 02       		.byte	0x2
 1600 0780 23       		.byte	0x23
 1601 0781 04       		.uleb128 0x4
 1602 0782 15       		.uleb128 0x15
 1603 0783 DB070000 		.4byte	.LASF114
 1604 0787 0E       		.byte	0xe
 1605 0788 2501     		.2byte	0x125
 1606 078a 55070000 		.4byte	0x755
 1607 078e 02       		.byte	0x2
 1608 078f 23       		.byte	0x23
 1609 0790 08       		.uleb128 0x8
 1610 0791 00       		.byte	0
 1611 0792 17       		.uleb128 0x17
 1612 0793 AE050000 		.4byte	.LASF115
 1613 0797 0E       		.byte	0xe
 1614 0798 2601     		.2byte	0x126
 1615 079a 5B070000 		.4byte	0x75b
 1616 079e 16       		.uleb128 0x16
 1617 079f 0C       		.byte	0xc
 1618 07a0 0E       		.byte	0xe
 1619 07a1 2B01     		.2byte	0x12b
 1620 07a3 D5070000 		.4byte	0x7d5
 1621 07a7 15       		.uleb128 0x15
 1622 07a8 D3040000 		.4byte	.LASF112
 1623 07ac 0E       		.byte	0xe
 1624 07ad 2F01     		.2byte	0x12f
 1625 07af 30000000 		.4byte	0x30
 1626 07b3 02       		.byte	0x2
 1627 07b4 23       		.byte	0x23
 1628 07b5 00       		.uleb128 0
 1629 07b6 15       		.uleb128 0x15
 1630 07b7 92050000 		.4byte	.LASF113
 1631 07bb 0E       		.byte	0xe
 1632 07bc 3301     		.2byte	0x133
 1633 07be 30000000 		.4byte	0x30
 1634 07c2 02       		.byte	0x2
 1635 07c3 23       		.byte	0x23
 1636 07c4 04       		.uleb128 0x4
 1637 07c5 15       		.uleb128 0x15
 1638 07c6 DB070000 		.4byte	.LASF114
 1639 07ca 0E       		.byte	0xe
 1640 07cb 3801     		.2byte	0x138
 1641 07cd 4F070000 		.4byte	0x74f
ARM GAS  /var/folders/5n/p_75w94d66l9ssrldxqdhh700000gn/T//ccMff9NN.s 			page 30


 1642 07d1 02       		.byte	0x2
 1643 07d2 23       		.byte	0x23
 1644 07d3 08       		.uleb128 0x8
 1645 07d4 00       		.byte	0
 1646 07d5 17       		.uleb128 0x17
 1647 07d6 26080000 		.4byte	.LASF116
 1648 07da 0E       		.byte	0xe
 1649 07db 3901     		.2byte	0x139
 1650 07dd 9E070000 		.4byte	0x79e
 1651 07e1 08       		.uleb128 0x8
 1652 07e2 1C       		.byte	0x1c
 1653 07e3 0F       		.byte	0xf
 1654 07e4 2B       		.byte	0x2b
 1655 07e5 14080000 		.4byte	0x814
 1656 07e9 06       		.uleb128 0x6
 1657 07ea C1040000 		.4byte	.LASF117
 1658 07ee 0F       		.byte	0xf
 1659 07ef 2C       		.byte	0x2c
 1660 07f0 A8030000 		.4byte	0x3a8
 1661 07f4 02       		.byte	0x2
 1662 07f5 23       		.byte	0x23
 1663 07f6 00       		.uleb128 0
 1664 07f7 06       		.uleb128 0x6
 1665 07f8 2A010000 		.4byte	.LASF118
 1666 07fc 0F       		.byte	0xf
 1667 07fd 2D       		.byte	0x2d
 1668 07fe 66050000 		.4byte	0x566
 1669 0802 02       		.byte	0x2
 1670 0803 23       		.byte	0x23
 1671 0804 14       		.uleb128 0x14
 1672 0805 06       		.uleb128 0x6
 1673 0806 4C040000 		.4byte	.LASF119
 1674 080a 0F       		.byte	0xf
 1675 080b 2E       		.byte	0x2e
 1676 080c 1F010000 		.4byte	0x11f
 1677 0810 02       		.byte	0x2
 1678 0811 23       		.byte	0x23
 1679 0812 18       		.uleb128 0x18
 1680 0813 00       		.byte	0
 1681 0814 03       		.uleb128 0x3
 1682 0815 A4030000 		.4byte	.LASF120
 1683 0819 0F       		.byte	0xf
 1684 081a 2F       		.byte	0x2f
 1685 081b E1070000 		.4byte	0x7e1
 1686 081f 03       		.uleb128 0x3
 1687 0820 21080000 		.4byte	.LASF121
 1688 0824 10       		.byte	0x10
 1689 0825 3C       		.byte	0x3c
 1690 0826 54000000 		.4byte	0x54
 1691 082a 03       		.uleb128 0x3
 1692 082b 44000000 		.4byte	.LASF122
 1693 082f 10       		.byte	0x10
 1694 0830 3D       		.byte	0x3d
 1695 0831 42000000 		.4byte	0x42
 1696 0835 03       		.uleb128 0x3
 1697 0836 72040000 		.4byte	.LASF123
 1698 083a 10       		.byte	0x10
ARM GAS  /var/folders/5n/p_75w94d66l9ssrldxqdhh700000gn/T//ccMff9NN.s 			page 31


 1699 083b 3E       		.byte	0x3e
 1700 083c 6D000000 		.4byte	0x6d
 1701 0840 03       		.uleb128 0x3
 1702 0841 6D060000 		.4byte	.LASF124
 1703 0845 10       		.byte	0x10
 1704 0846 40       		.byte	0x40
 1705 0847 91000000 		.4byte	0x91
 1706 084b 03       		.uleb128 0x3
 1707 084c 92020000 		.4byte	.LASF125
 1708 0850 11       		.byte	0x11
 1709 0851 4B       		.byte	0x4b
 1710 0852 35080000 		.4byte	0x835
 1711 0856 03       		.uleb128 0x3
 1712 0857 59050000 		.4byte	.LASF126
 1713 085b 12       		.byte	0x12
 1714 085c 2F       		.byte	0x2f
 1715 085d 2A080000 		.4byte	0x82a
 1716 0861 13       		.uleb128 0x13
 1717 0862 01       		.byte	0x1
 1718 0863 13       		.byte	0x13
 1719 0864 32       		.byte	0x32
 1720 0865 82080000 		.4byte	0x882
 1721 0869 14       		.uleb128 0x14
 1722 086a 59070000 		.4byte	.LASF127
 1723 086e 00       		.sleb128 0
 1724 086f 14       		.uleb128 0x14
 1725 0870 85040000 		.4byte	.LASF128
 1726 0874 01       		.sleb128 1
 1727 0875 14       		.uleb128 0x14
 1728 0876 95080000 		.4byte	.LASF129
 1729 087a 02       		.sleb128 2
 1730 087b 14       		.uleb128 0x14
 1731 087c 5C080000 		.4byte	.LASF130
 1732 0880 03       		.sleb128 3
 1733 0881 00       		.byte	0
 1734 0882 13       		.uleb128 0x13
 1735 0883 01       		.byte	0x1
 1736 0884 13       		.byte	0x13
 1737 0885 39       		.byte	0x39
 1738 0886 A3080000 		.4byte	0x8a3
 1739 088a 14       		.uleb128 0x14
 1740 088b 4D080000 		.4byte	.LASF131
 1741 088f 00       		.sleb128 0
 1742 0890 14       		.uleb128 0x14
 1743 0891 70030000 		.4byte	.LASF132
 1744 0895 01       		.sleb128 1
 1745 0896 14       		.uleb128 0x14
 1746 0897 BD000000 		.4byte	.LASF133
 1747 089b 02       		.sleb128 2
 1748 089c 14       		.uleb128 0x14
 1749 089d 28020000 		.4byte	.LASF134
 1750 08a1 03       		.sleb128 3
 1751 08a2 00       		.byte	0
 1752 08a3 05       		.uleb128 0x5
 1753 08a4 3E020000 		.4byte	.LASF135
 1754 08a8 10       		.byte	0x10
 1755 08a9 13       		.byte	0x13
ARM GAS  /var/folders/5n/p_75w94d66l9ssrldxqdhh700000gn/T//ccMff9NN.s 			page 32


 1756 08aa 49       		.byte	0x49
 1757 08ab 12090000 		.4byte	0x912
 1758 08af 06       		.uleb128 0x6
 1759 08b0 35050000 		.4byte	.LASF136
 1760 08b4 13       		.byte	0x13
 1761 08b5 4B       		.byte	0x4b
 1762 08b6 12090000 		.4byte	0x912
 1763 08ba 02       		.byte	0x2
 1764 08bb 23       		.byte	0x23
 1765 08bc 00       		.uleb128 0
 1766 08bd 06       		.uleb128 0x6
 1767 08be 8D030000 		.4byte	.LASF137
 1768 08c2 13       		.byte	0x13
 1769 08c3 4E       		.byte	0x4e
 1770 08c4 C8020000 		.4byte	0x2c8
 1771 08c8 02       		.byte	0x2
 1772 08c9 23       		.byte	0x23
 1773 08ca 04       		.uleb128 0x4
 1774 08cb 06       		.uleb128 0x6
 1775 08cc 2D050000 		.4byte	.LASF138
 1776 08d0 13       		.byte	0x13
 1777 08d1 57       		.byte	0x57
 1778 08d2 35080000 		.4byte	0x835
 1779 08d6 02       		.byte	0x2
 1780 08d7 23       		.byte	0x23
 1781 08d8 08       		.uleb128 0x8
 1782 08d9 07       		.uleb128 0x7
 1783 08da 6C656E00 		.ascii	"len\000"
 1784 08de 13       		.byte	0x13
 1785 08df 5A       		.byte	0x5a
 1786 08e0 35080000 		.4byte	0x835
 1787 08e4 02       		.byte	0x2
 1788 08e5 23       		.byte	0x23
 1789 08e6 0A       		.uleb128 0xa
 1790 08e7 06       		.uleb128 0x6
 1791 08e8 AD000000 		.4byte	.LASF139
 1792 08ec 13       		.byte	0x13
 1793 08ed 5D       		.byte	0x5d
 1794 08ee 1F080000 		.4byte	0x81f
 1795 08f2 02       		.byte	0x2
 1796 08f3 23       		.byte	0x23
 1797 08f4 0C       		.uleb128 0xc
 1798 08f5 06       		.uleb128 0x6
 1799 08f6 72020000 		.4byte	.LASF140
 1800 08fa 13       		.byte	0x13
 1801 08fb 60       		.byte	0x60
 1802 08fc 1F080000 		.4byte	0x81f
 1803 0900 02       		.byte	0x2
 1804 0901 23       		.byte	0x23
 1805 0902 0D       		.uleb128 0xd
 1806 0903 07       		.uleb128 0x7
 1807 0904 72656600 		.ascii	"ref\000"
 1808 0908 13       		.byte	0x13
 1809 0909 67       		.byte	0x67
 1810 090a 35080000 		.4byte	0x835
 1811 090e 02       		.byte	0x2
 1812 090f 23       		.byte	0x23
ARM GAS  /var/folders/5n/p_75w94d66l9ssrldxqdhh700000gn/T//ccMff9NN.s 			page 33


 1813 0910 0E       		.uleb128 0xe
 1814 0911 00       		.byte	0
 1815 0912 09       		.uleb128 0x9
 1816 0913 04       		.byte	0x4
 1817 0914 A3080000 		.4byte	0x8a3
 1818 0918 13       		.uleb128 0x13
 1819 0919 01       		.byte	0x1
 1820 091a 14       		.byte	0x14
 1821 091b 2B       		.byte	0x2b
 1822 091c 7B090000 		.4byte	0x97b
 1823 0920 14       		.uleb128 0x14
 1824 0921 56020000 		.4byte	.LASF141
 1825 0925 00       		.sleb128 0
 1826 0926 14       		.uleb128 0x14
 1827 0927 C4050000 		.4byte	.LASF142
 1828 092b 01       		.sleb128 1
 1829 092c 14       		.uleb128 0x14
 1830 092d 37000000 		.4byte	.LASF143
 1831 0931 02       		.sleb128 2
 1832 0932 14       		.uleb128 0x14
 1833 0933 81080000 		.4byte	.LASF144
 1834 0937 03       		.sleb128 3
 1835 0938 14       		.uleb128 0x14
 1836 0939 D9050000 		.4byte	.LASF145
 1837 093d 04       		.sleb128 4
 1838 093e 14       		.uleb128 0x14
 1839 093f 69050000 		.4byte	.LASF146
 1840 0943 05       		.sleb128 5
 1841 0944 14       		.uleb128 0x14
 1842 0945 83050000 		.4byte	.LASF147
 1843 0949 06       		.sleb128 6
 1844 094a 14       		.uleb128 0x14
 1845 094b 17020000 		.4byte	.LASF148
 1846 094f 07       		.sleb128 7
 1847 0950 14       		.uleb128 0x14
 1848 0951 02030000 		.4byte	.LASF149
 1849 0955 08       		.sleb128 8
 1850 0956 14       		.uleb128 0x14
 1851 0957 EF020000 		.4byte	.LASF150
 1852 095b 09       		.sleb128 9
 1853 095c 14       		.uleb128 0x14
 1854 095d F5050000 		.4byte	.LASF151
 1855 0961 0A       		.sleb128 10
 1856 0962 14       		.uleb128 0x14
 1857 0963 6B000000 		.4byte	.LASF152
 1858 0967 0B       		.sleb128 11
 1859 0968 14       		.uleb128 0x14
 1860 0969 A9060000 		.4byte	.LASF153
 1861 096d 0C       		.sleb128 12
 1862 096e 14       		.uleb128 0x14
 1863 096f 6B010000 		.4byte	.LASF154
 1864 0973 0D       		.sleb128 13
 1865 0974 14       		.uleb128 0x14
 1866 0975 64060000 		.4byte	.LASF155
 1867 0979 0E       		.sleb128 14
 1868 097a 00       		.byte	0
 1869 097b 05       		.uleb128 0x5
ARM GAS  /var/folders/5n/p_75w94d66l9ssrldxqdhh700000gn/T//ccMff9NN.s 			page 34


 1870 097c 09040000 		.4byte	.LASF156
 1871 0980 18       		.byte	0x18
 1872 0981 15       		.byte	0x15
 1873 0982 3A       		.byte	0x3a
 1874 0983 2F0A0000 		.4byte	0xa2f
 1875 0987 06       		.uleb128 0x6
 1876 0988 9F030000 		.4byte	.LASF157
 1877 098c 15       		.byte	0x15
 1878 098d 3B       		.byte	0x3b
 1879 098e 35080000 		.4byte	0x835
 1880 0992 02       		.byte	0x2
 1881 0993 23       		.byte	0x23
 1882 0994 00       		.uleb128 0
 1883 0995 06       		.uleb128 0x6
 1884 0996 23050000 		.4byte	.LASF158
 1885 099a 15       		.byte	0x15
 1886 099b 3C       		.byte	0x3c
 1887 099c 35080000 		.4byte	0x835
 1888 09a0 02       		.byte	0x2
 1889 09a1 23       		.byte	0x23
 1890 09a2 02       		.uleb128 0x2
 1891 09a3 07       		.uleb128 0x7
 1892 09a4 667700   		.ascii	"fw\000"
 1893 09a7 15       		.byte	0x15
 1894 09a8 3D       		.byte	0x3d
 1895 09a9 35080000 		.4byte	0x835
 1896 09ad 02       		.byte	0x2
 1897 09ae 23       		.byte	0x23
 1898 09af 04       		.uleb128 0x4
 1899 09b0 06       		.uleb128 0x6
 1900 09b1 23020000 		.4byte	.LASF159
 1901 09b5 15       		.byte	0x15
 1902 09b6 3E       		.byte	0x3e
 1903 09b7 35080000 		.4byte	0x835
 1904 09bb 02       		.byte	0x2
 1905 09bc 23       		.byte	0x23
 1906 09bd 06       		.uleb128 0x6
 1907 09be 06       		.uleb128 0x6
 1908 09bf 46060000 		.4byte	.LASF160
 1909 09c3 15       		.byte	0x15
 1910 09c4 3F       		.byte	0x3f
 1911 09c5 35080000 		.4byte	0x835
 1912 09c9 02       		.byte	0x2
 1913 09ca 23       		.byte	0x23
 1914 09cb 08       		.uleb128 0x8
 1915 09cc 06       		.uleb128 0x6
 1916 09cd 08020000 		.4byte	.LASF161
 1917 09d1 15       		.byte	0x15
 1918 09d2 40       		.byte	0x40
 1919 09d3 35080000 		.4byte	0x835
 1920 09d7 02       		.byte	0x2
 1921 09d8 23       		.byte	0x23
 1922 09d9 0A       		.uleb128 0xa
 1923 09da 06       		.uleb128 0x6
 1924 09db C3020000 		.4byte	.LASF162
 1925 09df 15       		.byte	0x15
 1926 09e0 41       		.byte	0x41
ARM GAS  /var/folders/5n/p_75w94d66l9ssrldxqdhh700000gn/T//ccMff9NN.s 			page 35


 1927 09e1 35080000 		.4byte	0x835
 1928 09e5 02       		.byte	0x2
 1929 09e6 23       		.byte	0x23
 1930 09e7 0C       		.uleb128 0xc
 1931 09e8 06       		.uleb128 0x6
 1932 09e9 7C000000 		.4byte	.LASF163
 1933 09ed 15       		.byte	0x15
 1934 09ee 42       		.byte	0x42
 1935 09ef 35080000 		.4byte	0x835
 1936 09f3 02       		.byte	0x2
 1937 09f4 23       		.byte	0x23
 1938 09f5 0E       		.uleb128 0xe
 1939 09f6 06       		.uleb128 0x6
 1940 09f7 07000000 		.4byte	.LASF164
 1941 09fb 15       		.byte	0x15
 1942 09fc 43       		.byte	0x43
 1943 09fd 35080000 		.4byte	0x835
 1944 0a01 02       		.byte	0x2
 1945 0a02 23       		.byte	0x23
 1946 0a03 10       		.uleb128 0x10
 1947 0a04 06       		.uleb128 0x6
 1948 0a05 30060000 		.4byte	.LASF165
 1949 0a09 15       		.byte	0x15
 1950 0a0a 44       		.byte	0x44
 1951 0a0b 35080000 		.4byte	0x835
 1952 0a0f 02       		.byte	0x2
 1953 0a10 23       		.byte	0x23
 1954 0a11 12       		.uleb128 0x12
 1955 0a12 07       		.uleb128 0x7
 1956 0a13 65727200 		.ascii	"err\000"
 1957 0a17 15       		.byte	0x15
 1958 0a18 45       		.byte	0x45
 1959 0a19 35080000 		.4byte	0x835
 1960 0a1d 02       		.byte	0x2
 1961 0a1e 23       		.byte	0x23
 1962 0a1f 14       		.uleb128 0x14
 1963 0a20 06       		.uleb128 0x6
 1964 0a21 BA020000 		.4byte	.LASF166
 1965 0a25 15       		.byte	0x15
 1966 0a26 46       		.byte	0x46
 1967 0a27 35080000 		.4byte	0x835
 1968 0a2b 02       		.byte	0x2
 1969 0a2c 23       		.byte	0x23
 1970 0a2d 16       		.uleb128 0x16
 1971 0a2e 00       		.byte	0
 1972 0a2f 05       		.uleb128 0x5
 1973 0a30 14060000 		.4byte	.LASF167
 1974 0a34 0A       		.byte	0xa
 1975 0a35 15       		.byte	0x15
 1976 0a36 5A       		.byte	0x5a
 1977 0a37 820A0000 		.4byte	0xa82
 1978 0a3b 06       		.uleb128 0x6
 1979 0a3c 43010000 		.4byte	.LASF168
 1980 0a40 15       		.byte	0x15
 1981 0a41 5E       		.byte	0x5e
 1982 0a42 4B080000 		.4byte	0x84b
 1983 0a46 02       		.byte	0x2
ARM GAS  /var/folders/5n/p_75w94d66l9ssrldxqdhh700000gn/T//ccMff9NN.s 			page 36


 1984 0a47 23       		.byte	0x23
 1985 0a48 00       		.uleb128 0
 1986 0a49 06       		.uleb128 0x6
 1987 0a4a 28050000 		.4byte	.LASF169
 1988 0a4e 15       		.byte	0x15
 1989 0a4f 5F       		.byte	0x5f
 1990 0a50 4B080000 		.4byte	0x84b
 1991 0a54 02       		.byte	0x2
 1992 0a55 23       		.byte	0x23
 1993 0a56 02       		.uleb128 0x2
 1994 0a57 07       		.uleb128 0x7
 1995 0a58 6D617800 		.ascii	"max\000"
 1996 0a5c 15       		.byte	0x15
 1997 0a5d 60       		.byte	0x60
 1998 0a5e 4B080000 		.4byte	0x84b
 1999 0a62 02       		.byte	0x2
 2000 0a63 23       		.byte	0x23
 2001 0a64 04       		.uleb128 0x4
 2002 0a65 07       		.uleb128 0x7
 2003 0a66 65727200 		.ascii	"err\000"
 2004 0a6a 15       		.byte	0x15
 2005 0a6b 61       		.byte	0x61
 2006 0a6c 35080000 		.4byte	0x835
 2007 0a70 02       		.byte	0x2
 2008 0a71 23       		.byte	0x23
 2009 0a72 06       		.uleb128 0x6
 2010 0a73 06       		.uleb128 0x6
 2011 0a74 28060000 		.4byte	.LASF170
 2012 0a78 15       		.byte	0x15
 2013 0a79 62       		.byte	0x62
 2014 0a7a 35080000 		.4byte	0x835
 2015 0a7e 02       		.byte	0x2
 2016 0a7f 23       		.byte	0x23
 2017 0a80 08       		.uleb128 0x8
 2018 0a81 00       		.byte	0
 2019 0a82 05       		.uleb128 0x5
 2020 0a83 FB030000 		.4byte	.LASF171
 2021 0a87 06       		.byte	0x6
 2022 0a88 15       		.byte	0x15
 2023 0a89 65       		.byte	0x65
 2024 0a8a B90A0000 		.4byte	0xab9
 2025 0a8e 06       		.uleb128 0x6
 2026 0a8f 28050000 		.4byte	.LASF169
 2027 0a93 15       		.byte	0x15
 2028 0a94 66       		.byte	0x66
 2029 0a95 35080000 		.4byte	0x835
 2030 0a99 02       		.byte	0x2
 2031 0a9a 23       		.byte	0x23
 2032 0a9b 00       		.uleb128 0
 2033 0a9c 07       		.uleb128 0x7
 2034 0a9d 6D617800 		.ascii	"max\000"
 2035 0aa1 15       		.byte	0x15
 2036 0aa2 67       		.byte	0x67
 2037 0aa3 35080000 		.4byte	0x835
 2038 0aa7 02       		.byte	0x2
 2039 0aa8 23       		.byte	0x23
 2040 0aa9 02       		.uleb128 0x2
ARM GAS  /var/folders/5n/p_75w94d66l9ssrldxqdhh700000gn/T//ccMff9NN.s 			page 37


 2041 0aaa 07       		.uleb128 0x7
 2042 0aab 65727200 		.ascii	"err\000"
 2043 0aaf 15       		.byte	0x15
 2044 0ab0 68       		.byte	0x68
 2045 0ab1 35080000 		.4byte	0x835
 2046 0ab5 02       		.byte	0x2
 2047 0ab6 23       		.byte	0x23
 2048 0ab7 04       		.uleb128 0x4
 2049 0ab8 00       		.byte	0
 2050 0ab9 05       		.uleb128 0x5
 2051 0aba 5F050000 		.4byte	.LASF172
 2052 0abe 12       		.byte	0x12
 2053 0abf 15       		.byte	0x15
 2054 0ac0 6B       		.byte	0x6b
 2055 0ac1 F00A0000 		.4byte	0xaf0
 2056 0ac5 07       		.uleb128 0x7
 2057 0ac6 73656D00 		.ascii	"sem\000"
 2058 0aca 15       		.byte	0x15
 2059 0acb 6C       		.byte	0x6c
 2060 0acc 820A0000 		.4byte	0xa82
 2061 0ad0 02       		.byte	0x2
 2062 0ad1 23       		.byte	0x23
 2063 0ad2 00       		.uleb128 0
 2064 0ad3 06       		.uleb128 0x6
 2065 0ad4 E8030000 		.4byte	.LASF173
 2066 0ad8 15       		.byte	0x15
 2067 0ad9 6D       		.byte	0x6d
 2068 0ada 820A0000 		.4byte	0xa82
 2069 0ade 02       		.byte	0x2
 2070 0adf 23       		.byte	0x23
 2071 0ae0 06       		.uleb128 0x6
 2072 0ae1 06       		.uleb128 0x6
 2073 0ae2 80040000 		.4byte	.LASF174
 2074 0ae6 15       		.byte	0x15
 2075 0ae7 6E       		.byte	0x6e
 2076 0ae8 820A0000 		.4byte	0xa82
 2077 0aec 02       		.byte	0x2
 2078 0aed 23       		.byte	0x23
 2079 0aee 0C       		.uleb128 0xc
 2080 0aef 00       		.byte	0
 2081 0af0 18       		.uleb128 0x18
 2082 0af1 CA020000 		.4byte	.LASF175
 2083 0af5 5001     		.2byte	0x150
 2084 0af7 15       		.byte	0x15
 2085 0af8 71       		.byte	0x71
 2086 0af9 8D0B0000 		.4byte	0xb8d
 2087 0afd 06       		.uleb128 0x6
 2088 0afe 80030000 		.4byte	.LASF176
 2089 0b02 15       		.byte	0x15
 2090 0b03 73       		.byte	0x73
 2091 0b04 7B090000 		.4byte	0x97b
 2092 0b08 02       		.byte	0x2
 2093 0b09 23       		.byte	0x23
 2094 0b0a 00       		.uleb128 0
 2095 0b0b 06       		.uleb128 0x6
 2096 0b0c CB000000 		.4byte	.LASF177
 2097 0b10 15       		.byte	0x15
ARM GAS  /var/folders/5n/p_75w94d66l9ssrldxqdhh700000gn/T//ccMff9NN.s 			page 38


 2098 0b11 76       		.byte	0x76
 2099 0b12 7B090000 		.4byte	0x97b
 2100 0b16 02       		.byte	0x2
 2101 0b17 23       		.byte	0x23
 2102 0b18 18       		.uleb128 0x18
 2103 0b19 06       		.uleb128 0x6
 2104 0b1a 65040000 		.4byte	.LASF178
 2105 0b1e 15       		.byte	0x15
 2106 0b1f 79       		.byte	0x79
 2107 0b20 7B090000 		.4byte	0x97b
 2108 0b24 02       		.byte	0x2
 2109 0b25 23       		.byte	0x23
 2110 0b26 30       		.uleb128 0x30
 2111 0b27 07       		.uleb128 0x7
 2112 0b28 697000   		.ascii	"ip\000"
 2113 0b2b 15       		.byte	0x15
 2114 0b2c 7C       		.byte	0x7c
 2115 0b2d 7B090000 		.4byte	0x97b
 2116 0b31 02       		.byte	0x2
 2117 0b32 23       		.byte	0x23
 2118 0b33 48       		.uleb128 0x48
 2119 0b34 06       		.uleb128 0x6
 2120 0b35 7E050000 		.4byte	.LASF179
 2121 0b39 15       		.byte	0x15
 2122 0b3a 7F       		.byte	0x7f
 2123 0b3b 7B090000 		.4byte	0x97b
 2124 0b3f 02       		.byte	0x2
 2125 0b40 23       		.byte	0x23
 2126 0b41 60       		.uleb128 0x60
 2127 0b42 07       		.uleb128 0x7
 2128 0b43 75647000 		.ascii	"udp\000"
 2129 0b47 15       		.byte	0x15
 2130 0b48 85       		.byte	0x85
 2131 0b49 7B090000 		.4byte	0x97b
 2132 0b4d 02       		.byte	0x2
 2133 0b4e 23       		.byte	0x23
 2134 0b4f 78       		.uleb128 0x78
 2135 0b50 07       		.uleb128 0x7
 2136 0b51 74637000 		.ascii	"tcp\000"
 2137 0b55 15       		.byte	0x15
 2138 0b56 88       		.byte	0x88
 2139 0b57 7B090000 		.4byte	0x97b
 2140 0b5b 03       		.byte	0x3
 2141 0b5c 23       		.byte	0x23
 2142 0b5d 9001     		.uleb128 0x90
 2143 0b5f 07       		.uleb128 0x7
 2144 0b60 6D656D00 		.ascii	"mem\000"
 2145 0b64 15       		.byte	0x15
 2146 0b65 8B       		.byte	0x8b
 2147 0b66 2F0A0000 		.4byte	0xa2f
 2148 0b6a 03       		.byte	0x3
 2149 0b6b 23       		.byte	0x23
 2150 0b6c A801     		.uleb128 0xa8
 2151 0b6e 06       		.uleb128 0x6
 2152 0b6f C6000000 		.4byte	.LASF180
 2153 0b73 15       		.byte	0x15
 2154 0b74 8E       		.byte	0x8e
ARM GAS  /var/folders/5n/p_75w94d66l9ssrldxqdhh700000gn/T//ccMff9NN.s 			page 39


 2155 0b75 8D0B0000 		.4byte	0xb8d
 2156 0b79 03       		.byte	0x3
 2157 0b7a 23       		.byte	0x23
 2158 0b7b B201     		.uleb128 0xb2
 2159 0b7d 07       		.uleb128 0x7
 2160 0b7e 73797300 		.ascii	"sys\000"
 2161 0b82 15       		.byte	0x15
 2162 0b83 91       		.byte	0x91
 2163 0b84 B90A0000 		.4byte	0xab9
 2164 0b88 03       		.byte	0x3
 2165 0b89 23       		.byte	0x23
 2166 0b8a BE02     		.uleb128 0x13e
 2167 0b8c 00       		.byte	0
 2168 0b8d 19       		.uleb128 0x19
 2169 0b8e 2F0A0000 		.4byte	0xa2f
 2170 0b92 9D0B0000 		.4byte	0xb9d
 2171 0b96 1A       		.uleb128 0x1a
 2172 0b97 3B000000 		.4byte	0x3b
 2173 0b9b 0D       		.byte	0xd
 2174 0b9c 00       		.byte	0
 2175 0b9d 05       		.uleb128 0x5
 2176 0b9e A5020000 		.4byte	.LASF181
 2177 0ba2 04       		.byte	0x4
 2178 0ba3 16       		.byte	0x16
 2179 0ba4 2C       		.byte	0x2c
 2180 0ba5 B80B0000 		.4byte	0xbb8
 2181 0ba9 06       		.uleb128 0x6
 2182 0baa 3F040000 		.4byte	.LASF182
 2183 0bae 16       		.byte	0x16
 2184 0baf 2D       		.byte	0x2d
 2185 0bb0 40080000 		.4byte	0x840
 2186 0bb4 02       		.byte	0x2
 2187 0bb5 23       		.byte	0x23
 2188 0bb6 00       		.uleb128 0
 2189 0bb7 00       		.byte	0
 2190 0bb8 03       		.uleb128 0x3
 2191 0bb9 3A050000 		.4byte	.LASF183
 2192 0bbd 16       		.byte	0x16
 2193 0bbe 40       		.byte	0x40
 2194 0bbf 9D0B0000 		.4byte	0xb9d
 2195 0bc3 09       		.uleb128 0x9
 2196 0bc4 04       		.byte	0x4
 2197 0bc5 C90B0000 		.4byte	0xbc9
 2198 0bc9 05       		.uleb128 0x5
 2199 0bca 62030000 		.4byte	.LASF184
 2200 0bce 30       		.byte	0x30
 2201 0bcf 17       		.byte	0x17
 2202 0bd0 88       		.byte	0x88
 2203 0bd1 990C0000 		.4byte	0xc99
 2204 0bd5 06       		.uleb128 0x6
 2205 0bd6 35050000 		.4byte	.LASF136
 2206 0bda 17       		.byte	0x17
 2207 0bdb 8A       		.byte	0x8a
 2208 0bdc C30B0000 		.4byte	0xbc3
 2209 0be0 02       		.byte	0x2
 2210 0be1 23       		.byte	0x23
 2211 0be2 00       		.uleb128 0
ARM GAS  /var/folders/5n/p_75w94d66l9ssrldxqdhh700000gn/T//ccMff9NN.s 			page 40


 2212 0be3 06       		.uleb128 0x6
 2213 0be4 A5020000 		.4byte	.LASF181
 2214 0be8 17       		.byte	0x17
 2215 0be9 8D       		.byte	0x8d
 2216 0bea B80B0000 		.4byte	0xbb8
 2217 0bee 02       		.byte	0x2
 2218 0bef 23       		.byte	0x23
 2219 0bf0 04       		.uleb128 0x4
 2220 0bf1 06       		.uleb128 0x6
 2221 0bf2 DB030000 		.4byte	.LASF185
 2222 0bf6 17       		.byte	0x17
 2223 0bf7 8E       		.byte	0x8e
 2224 0bf8 B80B0000 		.4byte	0xbb8
 2225 0bfc 02       		.byte	0x2
 2226 0bfd 23       		.byte	0x23
 2227 0bfe 08       		.uleb128 0x8
 2228 0bff 07       		.uleb128 0x7
 2229 0c00 677700   		.ascii	"gw\000"
 2230 0c03 17       		.byte	0x17
 2231 0c04 8F       		.byte	0x8f
 2232 0c05 B80B0000 		.4byte	0xbb8
 2233 0c09 02       		.byte	0x2
 2234 0c0a 23       		.byte	0x23
 2235 0c0b 0C       		.uleb128 0xc
 2236 0c0c 06       		.uleb128 0x6
 2237 0c0d AD020000 		.4byte	.LASF186
 2238 0c11 17       		.byte	0x17
 2239 0c12 93       		.byte	0x93
 2240 0c13 990C0000 		.4byte	0xc99
 2241 0c17 02       		.byte	0x2
 2242 0c18 23       		.byte	0x23
 2243 0c19 10       		.uleb128 0x10
 2244 0c1a 06       		.uleb128 0x6
 2245 0c1b 37020000 		.4byte	.LASF187
 2246 0c1f 17       		.byte	0x17
 2247 0c20 97       		.byte	0x97
 2248 0c21 BF0C0000 		.4byte	0xcbf
 2249 0c25 02       		.byte	0x2
 2250 0c26 23       		.byte	0x23
 2251 0c27 14       		.uleb128 0x14
 2252 0c28 06       		.uleb128 0x6
 2253 0c29 55010000 		.4byte	.LASF188
 2254 0c2d 17       		.byte	0x17
 2255 0c2e 9B       		.byte	0x9b
 2256 0c2f F00C0000 		.4byte	0xcf0
 2257 0c33 02       		.byte	0x2
 2258 0c34 23       		.byte	0x23
 2259 0c35 18       		.uleb128 0x18
 2260 0c36 06       		.uleb128 0x6
 2261 0c37 A1000000 		.4byte	.LASF91
 2262 0c3b 17       		.byte	0x17
 2263 0c3c A8       		.byte	0xa8
 2264 0c3d C8020000 		.4byte	0x2c8
 2265 0c41 02       		.byte	0x2
 2266 0c42 23       		.byte	0x23
 2267 0c43 1C       		.uleb128 0x1c
 2268 0c44 07       		.uleb128 0x7
ARM GAS  /var/folders/5n/p_75w94d66l9ssrldxqdhh700000gn/T//ccMff9NN.s 			page 41


 2269 0c45 6D747500 		.ascii	"mtu\000"
 2270 0c49 17       		.byte	0x17
 2271 0c4a B6       		.byte	0xb6
 2272 0c4b 35080000 		.4byte	0x835
 2273 0c4f 02       		.byte	0x2
 2274 0c50 23       		.byte	0x23
 2275 0c51 20       		.uleb128 0x20
 2276 0c52 06       		.uleb128 0x6
 2277 0c53 60010000 		.4byte	.LASF189
 2278 0c57 17       		.byte	0x17
 2279 0c58 B8       		.byte	0xb8
 2280 0c59 1F080000 		.4byte	0x81f
 2281 0c5d 02       		.byte	0x2
 2282 0c5e 23       		.byte	0x23
 2283 0c5f 22       		.uleb128 0x22
 2284 0c60 06       		.uleb128 0x6
 2285 0c61 79030000 		.4byte	.LASF190
 2286 0c65 17       		.byte	0x17
 2287 0c66 BA       		.byte	0xba
 2288 0c67 160D0000 		.4byte	0xd16
 2289 0c6b 02       		.byte	0x2
 2290 0c6c 23       		.byte	0x23
 2291 0c6d 23       		.uleb128 0x23
 2292 0c6e 06       		.uleb128 0x6
 2293 0c6f 72020000 		.4byte	.LASF140
 2294 0c73 17       		.byte	0x17
 2295 0c74 BC       		.byte	0xbc
 2296 0c75 1F080000 		.4byte	0x81f
 2297 0c79 02       		.byte	0x2
 2298 0c7a 23       		.byte	0x23
 2299 0c7b 29       		.uleb128 0x29
 2300 0c7c 06       		.uleb128 0x6
 2301 0c7d 9C060000 		.4byte	.LASF191
 2302 0c81 17       		.byte	0x17
 2303 0c82 BE       		.byte	0xbe
 2304 0c83 260D0000 		.4byte	0xd26
 2305 0c87 02       		.byte	0x2
 2306 0c88 23       		.byte	0x23
 2307 0c89 2A       		.uleb128 0x2a
 2308 0c8a 07       		.uleb128 0x7
 2309 0c8b 6E756D00 		.ascii	"num\000"
 2310 0c8f 17       		.byte	0x17
 2311 0c90 C0       		.byte	0xc0
 2312 0c91 1F080000 		.4byte	0x81f
 2313 0c95 02       		.byte	0x2
 2314 0c96 23       		.byte	0x23
 2315 0c97 2C       		.uleb128 0x2c
 2316 0c98 00       		.byte	0
 2317 0c99 03       		.uleb128 0x3
 2318 0c9a B2040000 		.4byte	.LASF192
 2319 0c9e 17       		.byte	0x17
 2320 0c9f 6D       		.byte	0x6d
 2321 0ca0 A40C0000 		.4byte	0xca4
 2322 0ca4 09       		.uleb128 0x9
 2323 0ca5 04       		.byte	0x4
 2324 0ca6 AA0C0000 		.4byte	0xcaa
 2325 0caa 1B       		.uleb128 0x1b
ARM GAS  /var/folders/5n/p_75w94d66l9ssrldxqdhh700000gn/T//ccMff9NN.s 			page 42


 2326 0cab 01       		.byte	0x1
 2327 0cac 56080000 		.4byte	0x856
 2328 0cb0 BF0C0000 		.4byte	0xcbf
 2329 0cb4 0F       		.uleb128 0xf
 2330 0cb5 12090000 		.4byte	0x912
 2331 0cb9 0F       		.uleb128 0xf
 2332 0cba C30B0000 		.4byte	0xbc3
 2333 0cbe 00       		.byte	0
 2334 0cbf 03       		.uleb128 0x3
 2335 0cc0 13050000 		.4byte	.LASF193
 2336 0cc4 17       		.byte	0x17
 2337 0cc5 76       		.byte	0x76
 2338 0cc6 CA0C0000 		.4byte	0xcca
 2339 0cca 09       		.uleb128 0x9
 2340 0ccb 04       		.byte	0x4
 2341 0ccc D00C0000 		.4byte	0xcd0
 2342 0cd0 1B       		.uleb128 0x1b
 2343 0cd1 01       		.byte	0x1
 2344 0cd2 56080000 		.4byte	0x856
 2345 0cd6 EA0C0000 		.4byte	0xcea
 2346 0cda 0F       		.uleb128 0xf
 2347 0cdb C30B0000 		.4byte	0xbc3
 2348 0cdf 0F       		.uleb128 0xf
 2349 0ce0 12090000 		.4byte	0x912
 2350 0ce4 0F       		.uleb128 0xf
 2351 0ce5 EA0C0000 		.4byte	0xcea
 2352 0ce9 00       		.byte	0
 2353 0cea 09       		.uleb128 0x9
 2354 0ceb 04       		.byte	0x4
 2355 0cec B80B0000 		.4byte	0xbb8
 2356 0cf0 03       		.uleb128 0x3
 2357 0cf1 DA040000 		.4byte	.LASF194
 2358 0cf5 17       		.byte	0x17
 2359 0cf6 7E       		.byte	0x7e
 2360 0cf7 FB0C0000 		.4byte	0xcfb
 2361 0cfb 09       		.uleb128 0x9
 2362 0cfc 04       		.byte	0x4
 2363 0cfd 010D0000 		.4byte	0xd01
 2364 0d01 1B       		.uleb128 0x1b
 2365 0d02 01       		.byte	0x1
 2366 0d03 56080000 		.4byte	0x856
 2367 0d07 160D0000 		.4byte	0xd16
 2368 0d0b 0F       		.uleb128 0xf
 2369 0d0c C30B0000 		.4byte	0xbc3
 2370 0d10 0F       		.uleb128 0xf
 2371 0d11 12090000 		.4byte	0x912
 2372 0d15 00       		.byte	0
 2373 0d16 19       		.uleb128 0x19
 2374 0d17 1F080000 		.4byte	0x81f
 2375 0d1b 260D0000 		.4byte	0xd26
 2376 0d1f 1A       		.uleb128 0x1a
 2377 0d20 3B000000 		.4byte	0x3b
 2378 0d24 05       		.byte	0x5
 2379 0d25 00       		.byte	0
 2380 0d26 19       		.uleb128 0x19
 2381 0d27 B1050000 		.4byte	0x5b1
 2382 0d2b 360D0000 		.4byte	0xd36
ARM GAS  /var/folders/5n/p_75w94d66l9ssrldxqdhh700000gn/T//ccMff9NN.s 			page 43


 2383 0d2f 1A       		.uleb128 0x1a
 2384 0d30 3B000000 		.4byte	0x3b
 2385 0d34 01       		.byte	0x1
 2386 0d35 00       		.byte	0
 2387 0d36 03       		.uleb128 0x3
 2388 0d37 FA040000 		.4byte	.LASF195
 2389 0d3b 18       		.byte	0x18
 2390 0d3c 4E       		.byte	0x4e
 2391 0d3d 96030000 		.4byte	0x396
 2392 0d41 05       		.uleb128 0x5
 2393 0d42 20000000 		.4byte	.LASF196
 2394 0d46 06       		.byte	0x6
 2395 0d47 19       		.byte	0x19
 2396 0d48 3B       		.byte	0x3b
 2397 0d49 5C0D0000 		.4byte	0xd5c
 2398 0d4d 06       		.uleb128 0x6
 2399 0d4e 3F040000 		.4byte	.LASF182
 2400 0d52 19       		.byte	0x19
 2401 0d53 3C       		.byte	0x3c
 2402 0d54 160D0000 		.4byte	0xd16
 2403 0d58 02       		.byte	0x2
 2404 0d59 23       		.byte	0x23
 2405 0d5a 00       		.uleb128 0
 2406 0d5b 00       		.byte	0
 2407 0d5c 05       		.uleb128 0x5
 2408 0d5d 9D020000 		.4byte	.LASF197
 2409 0d61 0E       		.byte	0xe
 2410 0d62 19       		.byte	0x19
 2411 0d63 48       		.byte	0x48
 2412 0d64 930D0000 		.4byte	0xd93
 2413 0d68 06       		.uleb128 0x6
 2414 0d69 5F060000 		.4byte	.LASF198
 2415 0d6d 19       		.byte	0x19
 2416 0d6e 4C       		.byte	0x4c
 2417 0d6f 410D0000 		.4byte	0xd41
 2418 0d73 02       		.byte	0x2
 2419 0d74 23       		.byte	0x23
 2420 0d75 00       		.uleb128 0
 2421 0d76 07       		.uleb128 0x7
 2422 0d77 73726300 		.ascii	"src\000"
 2423 0d7b 19       		.byte	0x19
 2424 0d7c 4D       		.byte	0x4d
 2425 0d7d 410D0000 		.4byte	0xd41
 2426 0d81 02       		.byte	0x2
 2427 0d82 23       		.byte	0x23
 2428 0d83 06       		.uleb128 0x6
 2429 0d84 06       		.uleb128 0x6
 2430 0d85 AD000000 		.4byte	.LASF139
 2431 0d89 19       		.byte	0x19
 2432 0d8a 4E       		.byte	0x4e
 2433 0d8b 35080000 		.4byte	0x835
 2434 0d8f 02       		.byte	0x2
 2435 0d90 23       		.byte	0x23
 2436 0d91 0C       		.uleb128 0xc
 2437 0d92 00       		.byte	0
 2438 0d93 05       		.uleb128 0x5
 2439 0d94 21030000 		.4byte	.LASF199
ARM GAS  /var/folders/5n/p_75w94d66l9ssrldxqdhh700000gn/T//ccMff9NN.s 			page 44


 2440 0d98 10       		.byte	0x10
 2441 0d99 1A       		.byte	0x1a
 2442 0d9a 6D       		.byte	0x6d
 2443 0d9b D80D0000 		.4byte	0xdd8
 2444 0d9f 06       		.uleb128 0x6
 2445 0da0 31030000 		.4byte	.LASF200
 2446 0da4 1A       		.byte	0x1a
 2447 0da5 6E       		.byte	0x6e
 2448 0da6 BE050000 		.4byte	0x5be
 2449 0daa 02       		.byte	0x2
 2450 0dab 23       		.byte	0x23
 2451 0dac 00       		.uleb128 0
 2452 0dad 06       		.uleb128 0x6
 2453 0dae 68030000 		.4byte	.LASF201
 2454 0db2 1A       		.byte	0x1a
 2455 0db3 6F       		.byte	0x6f
 2456 0db4 91000000 		.4byte	0x91
 2457 0db8 02       		.byte	0x2
 2458 0db9 23       		.byte	0x23
 2459 0dba 04       		.uleb128 0x4
 2460 0dbb 06       		.uleb128 0x6
 2461 0dbc DB030000 		.4byte	.LASF185
 2462 0dc0 1A       		.byte	0x1a
 2463 0dc1 70       		.byte	0x70
 2464 0dc2 91000000 		.4byte	0x91
 2465 0dc6 02       		.byte	0x2
 2466 0dc7 23       		.byte	0x23
 2467 0dc8 08       		.uleb128 0x8
 2468 0dc9 06       		.uleb128 0x6
 2469 0dca E6060000 		.4byte	.LASF202
 2470 0dce 1A       		.byte	0x1a
 2471 0dcf 71       		.byte	0x71
 2472 0dd0 91000000 		.4byte	0x91
 2473 0dd4 02       		.byte	0x2
 2474 0dd5 23       		.byte	0x23
 2475 0dd6 0C       		.uleb128 0xc
 2476 0dd7 00       		.byte	0
 2477 0dd8 1C       		.uleb128 0x1c
 2478 0dd9 78020000 		.4byte	.LASF219
 2479 0ddd 01       		.byte	0x1
 2480 0dde 5B       		.byte	0x5b
 2481 0ddf 01       		.byte	0x1
 2482 0de0 01       		.byte	0x1
 2483 0de1 F10D0000 		.4byte	0xdf1
 2484 0de5 1D       		.uleb128 0x1d
 2485 0de6 62030000 		.4byte	.LASF184
 2486 0dea 01       		.byte	0x1
 2487 0deb 5B       		.byte	0x5b
 2488 0dec C30B0000 		.4byte	0xbc3
 2489 0df0 00       		.byte	0
 2490 0df1 1E       		.uleb128 0x1e
 2491 0df2 11080000 		.4byte	.LASF220
 2492 0df6 01       		.byte	0x1
 2493 0df7 89       		.byte	0x89
 2494 0df8 01       		.byte	0x1
 2495 0df9 12090000 		.4byte	0x912
 2496 0dfd 01       		.byte	0x1
ARM GAS  /var/folders/5n/p_75w94d66l9ssrldxqdhh700000gn/T//ccMff9NN.s 			page 45


 2497 0dfe 350E0000 		.4byte	0xe35
 2498 0e02 1D       		.uleb128 0x1d
 2499 0e03 62030000 		.4byte	.LASF184
 2500 0e07 01       		.byte	0x1
 2501 0e08 89       		.byte	0x89
 2502 0e09 C30B0000 		.4byte	0xbc3
 2503 0e0d 1F       		.uleb128 0x1f
 2504 0e0e 726400   		.ascii	"rd\000"
 2505 0e11 01       		.byte	0x1
 2506 0e12 8A       		.byte	0x8a
 2507 0e13 D5070000 		.4byte	0x7d5
 2508 0e17 1F       		.uleb128 0x1f
 2509 0e18 7000     		.ascii	"p\000"
 2510 0e1a 01       		.byte	0x1
 2511 0e1b 8B       		.byte	0x8b
 2512 0e1c 12090000 		.4byte	0x912
 2513 0e20 1F       		.uleb128 0x1f
 2514 0e21 7100     		.ascii	"q\000"
 2515 0e23 01       		.byte	0x1
 2516 0e24 8B       		.byte	0x8b
 2517 0e25 12090000 		.4byte	0x912
 2518 0e29 1F       		.uleb128 0x1f
 2519 0e2a 6C656E00 		.ascii	"len\000"
 2520 0e2e 01       		.byte	0x1
 2521 0e2f 8C       		.byte	0x8c
 2522 0e30 35080000 		.4byte	0x835
 2523 0e34 00       		.byte	0
 2524 0e35 20       		.uleb128 0x20
 2525 0e36 D7020000 		.4byte	.LASF203
 2526 0e3a 01       		.byte	0x1
 2527 0e3b B7       		.byte	0xb7
 2528 0e3c 01       		.byte	0x1
 2529 0e3d 56080000 		.4byte	0x856
 2530 0e41 00000000 		.4byte	.LFB121
 2531 0e45 3A000000 		.4byte	.LFE121
 2532 0e49 02       		.byte	0x2
 2533 0e4a 7D       		.byte	0x7d
 2534 0e4b 00       		.sleb128 0
 2535 0e4c 790E0000 		.4byte	0xe79
 2536 0e50 21       		.uleb128 0x21
 2537 0e51 62030000 		.4byte	.LASF184
 2538 0e55 01       		.byte	0x1
 2539 0e56 B7       		.byte	0xb7
 2540 0e57 C30B0000 		.4byte	0xbc3
 2541 0e5b 00000000 		.4byte	.LLST0
 2542 0e5f 22       		.uleb128 0x22
 2543 0e60 D80D0000 		.4byte	0xdd8
 2544 0e64 22000000 		.4byte	.LBB4
 2545 0e68 00000000 		.4byte	.Ldebug_ranges0+0
 2546 0e6c 01       		.byte	0x1
 2547 0e6d CF       		.byte	0xcf
 2548 0e6e 23       		.uleb128 0x23
 2549 0e6f E50D0000 		.4byte	0xde5
 2550 0e73 13000000 		.4byte	.LLST1
 2551 0e77 00       		.byte	0
 2552 0e78 00       		.byte	0
 2553 0e79 24       		.uleb128 0x24
ARM GAS  /var/folders/5n/p_75w94d66l9ssrldxqdhh700000gn/T//ccMff9NN.s 			page 46


 2554 0e7a 10010000 		.4byte	.LASF204
 2555 0e7e 01       		.byte	0x1
 2556 0e7f 6C       		.byte	0x6c
 2557 0e80 01       		.byte	0x1
 2558 0e81 56080000 		.4byte	0x856
 2559 0e85 00000000 		.4byte	.LFB119
 2560 0e89 48000000 		.4byte	.LFE119
 2561 0e8d 31000000 		.4byte	.LLST2
 2562 0e91 CC0E0000 		.4byte	0xecc
 2563 0e95 21       		.uleb128 0x21
 2564 0e96 62030000 		.4byte	.LASF184
 2565 0e9a 01       		.byte	0x1
 2566 0e9b 6C       		.byte	0x6c
 2567 0e9c C30B0000 		.4byte	0xbc3
 2568 0ea0 5D000000 		.4byte	.LLST3
 2569 0ea4 25       		.uleb128 0x25
 2570 0ea5 7000     		.ascii	"p\000"
 2571 0ea7 01       		.byte	0x1
 2572 0ea8 6C       		.byte	0x6c
 2573 0ea9 12090000 		.4byte	0x912
 2574 0ead 70000000 		.4byte	.LLST4
 2575 0eb1 26       		.uleb128 0x26
 2576 0eb2 7100     		.ascii	"q\000"
 2577 0eb4 01       		.byte	0x1
 2578 0eb5 6D       		.byte	0x6d
 2579 0eb6 12090000 		.4byte	0x912
 2580 0eba 99000000 		.4byte	.LLST5
 2581 0ebe 27       		.uleb128 0x27
 2582 0ebf 746400   		.ascii	"td\000"
 2583 0ec2 01       		.byte	0x1
 2584 0ec3 6E       		.byte	0x6e
 2585 0ec4 92070000 		.4byte	0x792
 2586 0ec8 02       		.byte	0x2
 2587 0ec9 91       		.byte	0x91
 2588 0eca 6C       		.sleb128 -20
 2589 0ecb 00       		.byte	0
 2590 0ecc 28       		.uleb128 0x28
 2591 0ecd 01       		.byte	0x1
 2592 0ece 15040000 		.4byte	.LASF221
 2593 0ed2 01       		.byte	0x1
 2594 0ed3 DA       		.byte	0xda
 2595 0ed4 01       		.byte	0x1
 2596 0ed5 FE000000 		.4byte	0xfe
 2597 0ed9 00000000 		.4byte	.LFB122
 2598 0edd E0010000 		.4byte	.LFE122
 2599 0ee1 AC000000 		.4byte	.LLST6
 2600 0ee5 2C100000 		.4byte	0x102c
 2601 0ee9 25       		.uleb128 0x25
 2602 0eea 7000     		.ascii	"p\000"
 2603 0eec 01       		.byte	0x1
 2604 0eed DA       		.byte	0xda
 2605 0eee C8020000 		.4byte	0x2c8
 2606 0ef2 D9000000 		.4byte	.LLST7
 2607 0ef6 27       		.uleb128 0x27
 2608 0ef7 65767400 		.ascii	"evt\000"
 2609 0efb 01       		.byte	0x1
 2610 0efc DB       		.byte	0xdb
ARM GAS  /var/folders/5n/p_75w94d66l9ssrldxqdhh700000gn/T//ccMff9NN.s 			page 47


 2611 0efd 14080000 		.4byte	0x814
 2612 0f01 03       		.byte	0x3
 2613 0f02 91       		.byte	0x91
 2614 0f03 947F     		.sleb128 -108
 2615 0f05 27       		.uleb128 0x27
 2616 0f06 656C3000 		.ascii	"el0\000"
 2617 0f0a 01       		.byte	0x1
 2618 0f0b DC       		.byte	0xdc
 2619 0f0c F5040000 		.4byte	0x4f5
 2620 0f10 03       		.byte	0x3
 2621 0f11 91       		.byte	0x91
 2622 0f12 B07F     		.sleb128 -80
 2623 0f14 27       		.uleb128 0x27
 2624 0f15 656C3100 		.ascii	"el1\000"
 2625 0f19 01       		.byte	0x1
 2626 0f1a DC       		.byte	0xdc
 2627 0f1b F5040000 		.4byte	0x4f5
 2628 0f1f 02       		.byte	0x2
 2629 0f20 91       		.byte	0x91
 2630 0f21 40       		.sleb128 -64
 2631 0f22 27       		.uleb128 0x27
 2632 0f23 697000   		.ascii	"ip\000"
 2633 0f26 01       		.byte	0x1
 2634 0f27 DD       		.byte	0xdd
 2635 0f28 9D0B0000 		.4byte	0xb9d
 2636 0f2c 02       		.byte	0x2
 2637 0f2d 91       		.byte	0x91
 2638 0f2e 5C       		.sleb128 -36
 2639 0f2f 29       		.uleb128 0x29
 2640 0f30 E6060000 		.4byte	.LASF202
 2641 0f34 01       		.byte	0x1
 2642 0f35 DD       		.byte	0xdd
 2643 0f36 9D0B0000 		.4byte	0xb9d
 2644 0f3a 02       		.byte	0x2
 2645 0f3b 91       		.byte	0x91
 2646 0f3c 60       		.sleb128 -32
 2647 0f3d 29       		.uleb128 0x29
 2648 0f3e DB030000 		.4byte	.LASF185
 2649 0f42 01       		.byte	0x1
 2650 0f43 DD       		.byte	0xdd
 2651 0f44 9D0B0000 		.4byte	0xb9d
 2652 0f48 02       		.byte	0x2
 2653 0f49 91       		.byte	0x91
 2654 0f4a 64       		.sleb128 -28
 2655 0f4b 29       		.uleb128 0x29
 2656 0f4c B3020000 		.4byte	.LASF205
 2657 0f50 01       		.byte	0x1
 2658 0f51 DE       		.byte	0xde
 2659 0f52 C90B0000 		.4byte	0xbc9
 2660 0f56 05       		.byte	0x5
 2661 0f57 03       		.byte	0x3
 2662 0f58 00000000 		.4byte	thisif.4483
 2663 0f5c 29       		.uleb128 0x29
 2664 0f5d 91060000 		.4byte	.LASF206
 2665 0f61 01       		.byte	0x1
 2666 0f62 DF       		.byte	0xdf
 2667 0f63 4A070000 		.4byte	0x74a
ARM GAS  /var/folders/5n/p_75w94d66l9ssrldxqdhh700000gn/T//ccMff9NN.s 			page 48


 2668 0f67 05       		.byte	0x5
 2669 0f68 03       		.byte	0x3
 2670 0f69 00000000 		.4byte	mac_config.4484
 2671 0f6d 2A       		.uleb128 0x2a
 2672 0f6e 2E000000 		.4byte	.LBB17
 2673 0f72 4C000000 		.4byte	.LBE17
 2674 0f76 930F0000 		.4byte	0xf93
 2675 0f7a 2B       		.uleb128 0x2b
 2676 0f7b 6D040000 		.4byte	.LASF207
 2677 0f7f 01       		.byte	0x1
 2678 0f80 EE       		.byte	0xee
 2679 0f81 2C100000 		.4byte	0x102c
 2680 0f85 26       		.uleb128 0x26
 2681 0f86 6900     		.ascii	"i\000"
 2682 0f88 01       		.byte	0x1
 2683 0f89 EF       		.byte	0xef
 2684 0f8a 3B000000 		.4byte	0x3b
 2685 0f8e F7000000 		.4byte	.LLST8
 2686 0f92 00       		.byte	0
 2687 0f93 2C       		.uleb128 0x2c
 2688 0f94 EC000000 		.4byte	.LBB18
 2689 0f98 E0010000 		.4byte	.LBE18
 2690 0f9c 2D       		.uleb128 0x2d
 2691 0f9d E3030000 		.4byte	.LASF208
 2692 0fa1 01       		.byte	0x1
 2693 0fa2 1301     		.2byte	0x113
 2694 0fa4 09010000 		.4byte	0x109
 2695 0fa8 0A010000 		.4byte	.LLST9
 2696 0fac 2E       		.uleb128 0x2e
 2697 0fad 20000000 		.4byte	.Ldebug_ranges0+0x20
 2698 0fb1 C60F0000 		.4byte	0xfc6
 2699 0fb5 2D       		.uleb128 0x2d
 2700 0fb6 21040000 		.4byte	.LASF209
 2701 0fba 01       		.byte	0x1
 2702 0fbb 1501     		.2byte	0x115
 2703 0fbd BC000000 		.4byte	0xbc
 2704 0fc1 3E010000 		.4byte	.LLST10
 2705 0fc5 00       		.byte	0
 2706 0fc6 2F       		.uleb128 0x2f
 2707 0fc7 38000000 		.4byte	.Ldebug_ranges0+0x38
 2708 0fcb 30       		.uleb128 0x30
 2709 0fcc 7000     		.ascii	"p\000"
 2710 0fce 01       		.byte	0x1
 2711 0fcf 2001     		.2byte	0x120
 2712 0fd1 12090000 		.4byte	0x912
 2713 0fd5 2E       		.uleb128 0x2e
 2714 0fd6 50000000 		.4byte	.Ldebug_ranges0+0x50
 2715 0fda EF0F0000 		.4byte	0xfef
 2716 0fde 2D       		.uleb128 0x2d
 2717 0fdf 82000000 		.4byte	.LASF210
 2718 0fe3 01       		.byte	0x1
 2719 0fe4 2201     		.2byte	0x122
 2720 0fe6 32100000 		.4byte	0x1032
 2721 0fea 67010000 		.4byte	.LLST11
 2722 0fee 00       		.byte	0
 2723 0fef 31       		.uleb128 0x31
 2724 0ff0 F10D0000 		.4byte	0xdf1
ARM GAS  /var/folders/5n/p_75w94d66l9ssrldxqdhh700000gn/T//ccMff9NN.s 			page 49


 2725 0ff4 28010000 		.4byte	.LBB22
 2726 0ff8 78000000 		.4byte	.Ldebug_ranges0+0x78
 2727 0ffc 01       		.byte	0x1
 2728 0ffd 2101     		.2byte	0x121
 2729 0fff 2F       		.uleb128 0x2f
 2730 1000 98000000 		.4byte	.Ldebug_ranges0+0x98
 2731 1004 32       		.uleb128 0x32
 2732 1005 0D0E0000 		.4byte	0xe0d
 2733 1009 02       		.byte	0x2
 2734 100a 91       		.byte	0x91
 2735 100b 50       		.sleb128 -48
 2736 100c 33       		.uleb128 0x33
 2737 100d 170E0000 		.4byte	0xe17
 2738 1011 7B010000 		.4byte	.LLST12
 2739 1015 33       		.uleb128 0x33
 2740 1016 200E0000 		.4byte	0xe20
 2741 101a A4010000 		.4byte	.LLST13
 2742 101e 33       		.uleb128 0x33
 2743 101f 290E0000 		.4byte	0xe29
 2744 1023 C2010000 		.4byte	.LLST14
 2745 1027 00       		.byte	0
 2746 1028 00       		.byte	0
 2747 1029 00       		.byte	0
 2748 102a 00       		.byte	0
 2749 102b 00       		.byte	0
 2750 102c 09       		.uleb128 0x9
 2751 102d 04       		.byte	0x4
 2752 102e 930D0000 		.4byte	0xd93
 2753 1032 09       		.uleb128 0x9
 2754 1033 04       		.byte	0x4
 2755 1034 5C0D0000 		.4byte	0xd5c
 2756 1038 34       		.uleb128 0x34
 2757 1039 73060000 		.4byte	.LASF211
 2758 103d 09       		.byte	0x9
 2759 103e 68       		.byte	0x68
 2760 103f 6E040000 		.4byte	0x46e
 2761 1043 01       		.byte	0x1
 2762 1044 01       		.byte	0x1
 2763 1045 35       		.uleb128 0x35
 2764 1046 EE030000 		.4byte	.LASF212
 2765 104a 1B       		.byte	0x1b
 2766 104b 9806     		.2byte	0x698
 2767 104d C4050000 		.4byte	0x5c4
 2768 1051 01       		.byte	0x1
 2769 1052 01       		.byte	0x1
 2770 1053 35       		.uleb128 0x35
 2771 1054 A7000000 		.4byte	.LASF213
 2772 1058 0E       		.byte	0xe
 2773 1059 4401     		.2byte	0x144
 2774 105b EF050000 		.4byte	0x5ef
 2775 105f 01       		.byte	0x1
 2776 1060 01       		.byte	0x1
 2777 1061 34       		.uleb128 0x34
 2778 1062 C6060000 		.4byte	.LASF214
 2779 1066 15       		.byte	0x15
 2780 1067 95       		.byte	0x95
 2781 1068 F00A0000 		.4byte	0xaf0
ARM GAS  /var/folders/5n/p_75w94d66l9ssrldxqdhh700000gn/T//ccMff9NN.s 			page 50


 2782 106c 01       		.byte	0x1
 2783 106d 01       		.byte	0x1
 2784 106e 34       		.uleb128 0x34
 2785 106f 73060000 		.4byte	.LASF211
 2786 1073 09       		.byte	0x9
 2787 1074 68       		.byte	0x68
 2788 1075 6E040000 		.4byte	0x46e
 2789 1079 01       		.byte	0x1
 2790 107a 01       		.byte	0x1
 2791 107b 35       		.uleb128 0x35
 2792 107c EE030000 		.4byte	.LASF212
 2793 1080 1B       		.byte	0x1b
 2794 1081 9806     		.2byte	0x698
 2795 1083 C4050000 		.4byte	0x5c4
 2796 1087 01       		.byte	0x1
 2797 1088 01       		.byte	0x1
 2798 1089 35       		.uleb128 0x35
 2799 108a A7000000 		.4byte	.LASF213
 2800 108e 0E       		.byte	0xe
 2801 108f 4401     		.2byte	0x144
 2802 1091 EF050000 		.4byte	0x5ef
 2803 1095 01       		.byte	0x1
 2804 1096 01       		.byte	0x1
 2805 1097 34       		.uleb128 0x34
 2806 1098 C6060000 		.4byte	.LASF214
 2807 109c 15       		.byte	0x15
 2808 109d 95       		.byte	0x95
 2809 109e F00A0000 		.4byte	0xaf0
 2810 10a2 01       		.byte	0x1
 2811 10a3 01       		.byte	0x1
 2812 10a4 19       		.uleb128 0x19
 2813 10a5 CA020000 		.4byte	0x2ca
 2814 10a9 B4100000 		.4byte	0x10b4
 2815 10ad 1A       		.uleb128 0x1a
 2816 10ae 3B000000 		.4byte	0x3b
 2817 10b2 55       		.byte	0x55
 2818 10b3 00       		.byte	0
 2819 10b4 36       		.uleb128 0x36
 2820 10b5 37060000 		.4byte	.LASF215
 2821 10b9 01       		.byte	0x1
 2822 10ba 56       		.byte	0x56
 2823 10bb A4100000 		.4byte	0x10a4
 2824 10bf 01       		.byte	0x1
 2825 10c0 05       		.byte	0x5
 2826 10c1 03       		.byte	0x3
 2827 10c2 00000000 		.4byte	wa_lwip_thread
 2828 10c6 00       		.byte	0
 2829              		.section	.debug_abbrev,"",%progbits
 2830              	.Ldebug_abbrev0:
 2831 0000 01       		.uleb128 0x1
 2832 0001 11       		.uleb128 0x11
 2833 0002 01       		.byte	0x1
 2834 0003 25       		.uleb128 0x25
 2835 0004 0E       		.uleb128 0xe
 2836 0005 13       		.uleb128 0x13
 2837 0006 0B       		.uleb128 0xb
 2838 0007 03       		.uleb128 0x3
ARM GAS  /var/folders/5n/p_75w94d66l9ssrldxqdhh700000gn/T//ccMff9NN.s 			page 51


 2839 0008 0E       		.uleb128 0xe
 2840 0009 1B       		.uleb128 0x1b
 2841 000a 0E       		.uleb128 0xe
 2842 000b 11       		.uleb128 0x11
 2843 000c 01       		.uleb128 0x1
 2844 000d 52       		.uleb128 0x52
 2845 000e 01       		.uleb128 0x1
 2846 000f 55       		.uleb128 0x55
 2847 0010 06       		.uleb128 0x6
 2848 0011 10       		.uleb128 0x10
 2849 0012 06       		.uleb128 0x6
 2850 0013 00       		.byte	0
 2851 0014 00       		.byte	0
 2852 0015 02       		.uleb128 0x2
 2853 0016 24       		.uleb128 0x24
 2854 0017 00       		.byte	0
 2855 0018 0B       		.uleb128 0xb
 2856 0019 0B       		.uleb128 0xb
 2857 001a 3E       		.uleb128 0x3e
 2858 001b 0B       		.uleb128 0xb
 2859 001c 03       		.uleb128 0x3
 2860 001d 08       		.uleb128 0x8
 2861 001e 00       		.byte	0
 2862 001f 00       		.byte	0
 2863 0020 03       		.uleb128 0x3
 2864 0021 16       		.uleb128 0x16
 2865 0022 00       		.byte	0
 2866 0023 03       		.uleb128 0x3
 2867 0024 0E       		.uleb128 0xe
 2868 0025 3A       		.uleb128 0x3a
 2869 0026 0B       		.uleb128 0xb
 2870 0027 3B       		.uleb128 0x3b
 2871 0028 0B       		.uleb128 0xb
 2872 0029 49       		.uleb128 0x49
 2873 002a 13       		.uleb128 0x13
 2874 002b 00       		.byte	0
 2875 002c 00       		.byte	0
 2876 002d 04       		.uleb128 0x4
 2877 002e 24       		.uleb128 0x24
 2878 002f 00       		.byte	0
 2879 0030 0B       		.uleb128 0xb
 2880 0031 0B       		.uleb128 0xb
 2881 0032 3E       		.uleb128 0x3e
 2882 0033 0B       		.uleb128 0xb
 2883 0034 03       		.uleb128 0x3
 2884 0035 0E       		.uleb128 0xe
 2885 0036 00       		.byte	0
 2886 0037 00       		.byte	0
 2887 0038 05       		.uleb128 0x5
 2888 0039 13       		.uleb128 0x13
 2889 003a 01       		.byte	0x1
 2890 003b 03       		.uleb128 0x3
 2891 003c 0E       		.uleb128 0xe
 2892 003d 0B       		.uleb128 0xb
 2893 003e 0B       		.uleb128 0xb
 2894 003f 3A       		.uleb128 0x3a
 2895 0040 0B       		.uleb128 0xb
ARM GAS  /var/folders/5n/p_75w94d66l9ssrldxqdhh700000gn/T//ccMff9NN.s 			page 52


 2896 0041 3B       		.uleb128 0x3b
 2897 0042 0B       		.uleb128 0xb
 2898 0043 01       		.uleb128 0x1
 2899 0044 13       		.uleb128 0x13
 2900 0045 00       		.byte	0
 2901 0046 00       		.byte	0
 2902 0047 06       		.uleb128 0x6
 2903 0048 0D       		.uleb128 0xd
 2904 0049 00       		.byte	0
 2905 004a 03       		.uleb128 0x3
 2906 004b 0E       		.uleb128 0xe
 2907 004c 3A       		.uleb128 0x3a
 2908 004d 0B       		.uleb128 0xb
 2909 004e 3B       		.uleb128 0x3b
 2910 004f 0B       		.uleb128 0xb
 2911 0050 49       		.uleb128 0x49
 2912 0051 13       		.uleb128 0x13
 2913 0052 38       		.uleb128 0x38
 2914 0053 0A       		.uleb128 0xa
 2915 0054 00       		.byte	0
 2916 0055 00       		.byte	0
 2917 0056 07       		.uleb128 0x7
 2918 0057 0D       		.uleb128 0xd
 2919 0058 00       		.byte	0
 2920 0059 03       		.uleb128 0x3
 2921 005a 08       		.uleb128 0x8
 2922 005b 3A       		.uleb128 0x3a
 2923 005c 0B       		.uleb128 0xb
 2924 005d 3B       		.uleb128 0x3b
 2925 005e 0B       		.uleb128 0xb
 2926 005f 49       		.uleb128 0x49
 2927 0060 13       		.uleb128 0x13
 2928 0061 38       		.uleb128 0x38
 2929 0062 0A       		.uleb128 0xa
 2930 0063 00       		.byte	0
 2931 0064 00       		.byte	0
 2932 0065 08       		.uleb128 0x8
 2933 0066 13       		.uleb128 0x13
 2934 0067 01       		.byte	0x1
 2935 0068 0B       		.uleb128 0xb
 2936 0069 0B       		.uleb128 0xb
 2937 006a 3A       		.uleb128 0x3a
 2938 006b 0B       		.uleb128 0xb
 2939 006c 3B       		.uleb128 0x3b
 2940 006d 0B       		.uleb128 0xb
 2941 006e 01       		.uleb128 0x1
 2942 006f 13       		.uleb128 0x13
 2943 0070 00       		.byte	0
 2944 0071 00       		.byte	0
 2945 0072 09       		.uleb128 0x9
 2946 0073 0F       		.uleb128 0xf
 2947 0074 00       		.byte	0
 2948 0075 0B       		.uleb128 0xb
 2949 0076 0B       		.uleb128 0xb
 2950 0077 49       		.uleb128 0x49
 2951 0078 13       		.uleb128 0x13
 2952 0079 00       		.byte	0
ARM GAS  /var/folders/5n/p_75w94d66l9ssrldxqdhh700000gn/T//ccMff9NN.s 			page 53


 2953 007a 00       		.byte	0
 2954 007b 0A       		.uleb128 0xa
 2955 007c 0F       		.uleb128 0xf
 2956 007d 00       		.byte	0
 2957 007e 0B       		.uleb128 0xb
 2958 007f 0B       		.uleb128 0xb
 2959 0080 00       		.byte	0
 2960 0081 00       		.byte	0
 2961 0082 0B       		.uleb128 0xb
 2962 0083 13       		.uleb128 0x13
 2963 0084 01       		.byte	0x1
 2964 0085 03       		.uleb128 0x3
 2965 0086 0E       		.uleb128 0xe
 2966 0087 0B       		.uleb128 0xb
 2967 0088 0B       		.uleb128 0xb
 2968 0089 3A       		.uleb128 0x3a
 2969 008a 0B       		.uleb128 0xb
 2970 008b 3B       		.uleb128 0x3b
 2971 008c 05       		.uleb128 0x5
 2972 008d 01       		.uleb128 0x1
 2973 008e 13       		.uleb128 0x13
 2974 008f 00       		.byte	0
 2975 0090 00       		.byte	0
 2976 0091 0C       		.uleb128 0xc
 2977 0092 0D       		.uleb128 0xd
 2978 0093 00       		.byte	0
 2979 0094 03       		.uleb128 0x3
 2980 0095 08       		.uleb128 0x8
 2981 0096 3A       		.uleb128 0x3a
 2982 0097 0B       		.uleb128 0xb
 2983 0098 3B       		.uleb128 0x3b
 2984 0099 05       		.uleb128 0x5
 2985 009a 49       		.uleb128 0x49
 2986 009b 13       		.uleb128 0x13
 2987 009c 38       		.uleb128 0x38
 2988 009d 0A       		.uleb128 0xa
 2989 009e 00       		.byte	0
 2990 009f 00       		.byte	0
 2991 00a0 0D       		.uleb128 0xd
 2992 00a1 35       		.uleb128 0x35
 2993 00a2 00       		.byte	0
 2994 00a3 49       		.uleb128 0x49
 2995 00a4 13       		.uleb128 0x13
 2996 00a5 00       		.byte	0
 2997 00a6 00       		.byte	0
 2998 00a7 0E       		.uleb128 0xe
 2999 00a8 15       		.uleb128 0x15
 3000 00a9 01       		.byte	0x1
 3001 00aa 27       		.uleb128 0x27
 3002 00ab 0C       		.uleb128 0xc
 3003 00ac 01       		.uleb128 0x1
 3004 00ad 13       		.uleb128 0x13
 3005 00ae 00       		.byte	0
 3006 00af 00       		.byte	0
 3007 00b0 0F       		.uleb128 0xf
 3008 00b1 05       		.uleb128 0x5
 3009 00b2 00       		.byte	0
ARM GAS  /var/folders/5n/p_75w94d66l9ssrldxqdhh700000gn/T//ccMff9NN.s 			page 54


 3010 00b3 49       		.uleb128 0x49
 3011 00b4 13       		.uleb128 0x13
 3012 00b5 00       		.byte	0
 3013 00b6 00       		.byte	0
 3014 00b7 10       		.uleb128 0x10
 3015 00b8 17       		.uleb128 0x17
 3016 00b9 01       		.byte	0x1
 3017 00ba 0B       		.uleb128 0xb
 3018 00bb 0B       		.uleb128 0xb
 3019 00bc 3A       		.uleb128 0x3a
 3020 00bd 0B       		.uleb128 0xb
 3021 00be 3B       		.uleb128 0x3b
 3022 00bf 0B       		.uleb128 0xb
 3023 00c0 01       		.uleb128 0x1
 3024 00c1 13       		.uleb128 0x13
 3025 00c2 00       		.byte	0
 3026 00c3 00       		.byte	0
 3027 00c4 11       		.uleb128 0x11
 3028 00c5 0D       		.uleb128 0xd
 3029 00c6 00       		.byte	0
 3030 00c7 03       		.uleb128 0x3
 3031 00c8 0E       		.uleb128 0xe
 3032 00c9 3A       		.uleb128 0x3a
 3033 00ca 0B       		.uleb128 0xb
 3034 00cb 3B       		.uleb128 0x3b
 3035 00cc 0B       		.uleb128 0xb
 3036 00cd 49       		.uleb128 0x49
 3037 00ce 13       		.uleb128 0x13
 3038 00cf 00       		.byte	0
 3039 00d0 00       		.byte	0
 3040 00d1 12       		.uleb128 0x12
 3041 00d2 26       		.uleb128 0x26
 3042 00d3 00       		.byte	0
 3043 00d4 49       		.uleb128 0x49
 3044 00d5 13       		.uleb128 0x13
 3045 00d6 00       		.byte	0
 3046 00d7 00       		.byte	0
 3047 00d8 13       		.uleb128 0x13
 3048 00d9 04       		.uleb128 0x4
 3049 00da 01       		.byte	0x1
 3050 00db 0B       		.uleb128 0xb
 3051 00dc 0B       		.uleb128 0xb
 3052 00dd 3A       		.uleb128 0x3a
 3053 00de 0B       		.uleb128 0xb
 3054 00df 3B       		.uleb128 0x3b
 3055 00e0 0B       		.uleb128 0xb
 3056 00e1 01       		.uleb128 0x1
 3057 00e2 13       		.uleb128 0x13
 3058 00e3 00       		.byte	0
 3059 00e4 00       		.byte	0
 3060 00e5 14       		.uleb128 0x14
 3061 00e6 28       		.uleb128 0x28
 3062 00e7 00       		.byte	0
 3063 00e8 03       		.uleb128 0x3
 3064 00e9 0E       		.uleb128 0xe
 3065 00ea 1C       		.uleb128 0x1c
 3066 00eb 0D       		.uleb128 0xd
ARM GAS  /var/folders/5n/p_75w94d66l9ssrldxqdhh700000gn/T//ccMff9NN.s 			page 55


 3067 00ec 00       		.byte	0
 3068 00ed 00       		.byte	0
 3069 00ee 15       		.uleb128 0x15
 3070 00ef 0D       		.uleb128 0xd
 3071 00f0 00       		.byte	0
 3072 00f1 03       		.uleb128 0x3
 3073 00f2 0E       		.uleb128 0xe
 3074 00f3 3A       		.uleb128 0x3a
 3075 00f4 0B       		.uleb128 0xb
 3076 00f5 3B       		.uleb128 0x3b
 3077 00f6 05       		.uleb128 0x5
 3078 00f7 49       		.uleb128 0x49
 3079 00f8 13       		.uleb128 0x13
 3080 00f9 38       		.uleb128 0x38
 3081 00fa 0A       		.uleb128 0xa
 3082 00fb 00       		.byte	0
 3083 00fc 00       		.byte	0
 3084 00fd 16       		.uleb128 0x16
 3085 00fe 13       		.uleb128 0x13
 3086 00ff 01       		.byte	0x1
 3087 0100 0B       		.uleb128 0xb
 3088 0101 0B       		.uleb128 0xb
 3089 0102 3A       		.uleb128 0x3a
 3090 0103 0B       		.uleb128 0xb
 3091 0104 3B       		.uleb128 0x3b
 3092 0105 05       		.uleb128 0x5
 3093 0106 01       		.uleb128 0x1
 3094 0107 13       		.uleb128 0x13
 3095 0108 00       		.byte	0
 3096 0109 00       		.byte	0
 3097 010a 17       		.uleb128 0x17
 3098 010b 16       		.uleb128 0x16
 3099 010c 00       		.byte	0
 3100 010d 03       		.uleb128 0x3
 3101 010e 0E       		.uleb128 0xe
 3102 010f 3A       		.uleb128 0x3a
 3103 0110 0B       		.uleb128 0xb
 3104 0111 3B       		.uleb128 0x3b
 3105 0112 05       		.uleb128 0x5
 3106 0113 49       		.uleb128 0x49
 3107 0114 13       		.uleb128 0x13
 3108 0115 00       		.byte	0
 3109 0116 00       		.byte	0
 3110 0117 18       		.uleb128 0x18
 3111 0118 13       		.uleb128 0x13
 3112 0119 01       		.byte	0x1
 3113 011a 03       		.uleb128 0x3
 3114 011b 0E       		.uleb128 0xe
 3115 011c 0B       		.uleb128 0xb
 3116 011d 05       		.uleb128 0x5
 3117 011e 3A       		.uleb128 0x3a
 3118 011f 0B       		.uleb128 0xb
 3119 0120 3B       		.uleb128 0x3b
 3120 0121 0B       		.uleb128 0xb
 3121 0122 01       		.uleb128 0x1
 3122 0123 13       		.uleb128 0x13
 3123 0124 00       		.byte	0
ARM GAS  /var/folders/5n/p_75w94d66l9ssrldxqdhh700000gn/T//ccMff9NN.s 			page 56


 3124 0125 00       		.byte	0
 3125 0126 19       		.uleb128 0x19
 3126 0127 01       		.uleb128 0x1
 3127 0128 01       		.byte	0x1
 3128 0129 49       		.uleb128 0x49
 3129 012a 13       		.uleb128 0x13
 3130 012b 01       		.uleb128 0x1
 3131 012c 13       		.uleb128 0x13
 3132 012d 00       		.byte	0
 3133 012e 00       		.byte	0
 3134 012f 1A       		.uleb128 0x1a
 3135 0130 21       		.uleb128 0x21
 3136 0131 00       		.byte	0
 3137 0132 49       		.uleb128 0x49
 3138 0133 13       		.uleb128 0x13
 3139 0134 2F       		.uleb128 0x2f
 3140 0135 0B       		.uleb128 0xb
 3141 0136 00       		.byte	0
 3142 0137 00       		.byte	0
 3143 0138 1B       		.uleb128 0x1b
 3144 0139 15       		.uleb128 0x15
 3145 013a 01       		.byte	0x1
 3146 013b 27       		.uleb128 0x27
 3147 013c 0C       		.uleb128 0xc
 3148 013d 49       		.uleb128 0x49
 3149 013e 13       		.uleb128 0x13
 3150 013f 01       		.uleb128 0x1
 3151 0140 13       		.uleb128 0x13
 3152 0141 00       		.byte	0
 3153 0142 00       		.byte	0
 3154 0143 1C       		.uleb128 0x1c
 3155 0144 2E       		.uleb128 0x2e
 3156 0145 01       		.byte	0x1
 3157 0146 03       		.uleb128 0x3
 3158 0147 0E       		.uleb128 0xe
 3159 0148 3A       		.uleb128 0x3a
 3160 0149 0B       		.uleb128 0xb
 3161 014a 3B       		.uleb128 0x3b
 3162 014b 0B       		.uleb128 0xb
 3163 014c 27       		.uleb128 0x27
 3164 014d 0C       		.uleb128 0xc
 3165 014e 20       		.uleb128 0x20
 3166 014f 0B       		.uleb128 0xb
 3167 0150 01       		.uleb128 0x1
 3168 0151 13       		.uleb128 0x13
 3169 0152 00       		.byte	0
 3170 0153 00       		.byte	0
 3171 0154 1D       		.uleb128 0x1d
 3172 0155 05       		.uleb128 0x5
 3173 0156 00       		.byte	0
 3174 0157 03       		.uleb128 0x3
 3175 0158 0E       		.uleb128 0xe
 3176 0159 3A       		.uleb128 0x3a
 3177 015a 0B       		.uleb128 0xb
 3178 015b 3B       		.uleb128 0x3b
 3179 015c 0B       		.uleb128 0xb
 3180 015d 49       		.uleb128 0x49
ARM GAS  /var/folders/5n/p_75w94d66l9ssrldxqdhh700000gn/T//ccMff9NN.s 			page 57


 3181 015e 13       		.uleb128 0x13
 3182 015f 00       		.byte	0
 3183 0160 00       		.byte	0
 3184 0161 1E       		.uleb128 0x1e
 3185 0162 2E       		.uleb128 0x2e
 3186 0163 01       		.byte	0x1
 3187 0164 03       		.uleb128 0x3
 3188 0165 0E       		.uleb128 0xe
 3189 0166 3A       		.uleb128 0x3a
 3190 0167 0B       		.uleb128 0xb
 3191 0168 3B       		.uleb128 0x3b
 3192 0169 0B       		.uleb128 0xb
 3193 016a 27       		.uleb128 0x27
 3194 016b 0C       		.uleb128 0xc
 3195 016c 49       		.uleb128 0x49
 3196 016d 13       		.uleb128 0x13
 3197 016e 20       		.uleb128 0x20
 3198 016f 0B       		.uleb128 0xb
 3199 0170 01       		.uleb128 0x1
 3200 0171 13       		.uleb128 0x13
 3201 0172 00       		.byte	0
 3202 0173 00       		.byte	0
 3203 0174 1F       		.uleb128 0x1f
 3204 0175 34       		.uleb128 0x34
 3205 0176 00       		.byte	0
 3206 0177 03       		.uleb128 0x3
 3207 0178 08       		.uleb128 0x8
 3208 0179 3A       		.uleb128 0x3a
 3209 017a 0B       		.uleb128 0xb
 3210 017b 3B       		.uleb128 0x3b
 3211 017c 0B       		.uleb128 0xb
 3212 017d 49       		.uleb128 0x49
 3213 017e 13       		.uleb128 0x13
 3214 017f 00       		.byte	0
 3215 0180 00       		.byte	0
 3216 0181 20       		.uleb128 0x20
 3217 0182 2E       		.uleb128 0x2e
 3218 0183 01       		.byte	0x1
 3219 0184 03       		.uleb128 0x3
 3220 0185 0E       		.uleb128 0xe
 3221 0186 3A       		.uleb128 0x3a
 3222 0187 0B       		.uleb128 0xb
 3223 0188 3B       		.uleb128 0x3b
 3224 0189 0B       		.uleb128 0xb
 3225 018a 27       		.uleb128 0x27
 3226 018b 0C       		.uleb128 0xc
 3227 018c 49       		.uleb128 0x49
 3228 018d 13       		.uleb128 0x13
 3229 018e 11       		.uleb128 0x11
 3230 018f 01       		.uleb128 0x1
 3231 0190 12       		.uleb128 0x12
 3232 0191 01       		.uleb128 0x1
 3233 0192 40       		.uleb128 0x40
 3234 0193 0A       		.uleb128 0xa
 3235 0194 01       		.uleb128 0x1
 3236 0195 13       		.uleb128 0x13
 3237 0196 00       		.byte	0
ARM GAS  /var/folders/5n/p_75w94d66l9ssrldxqdhh700000gn/T//ccMff9NN.s 			page 58


 3238 0197 00       		.byte	0
 3239 0198 21       		.uleb128 0x21
 3240 0199 05       		.uleb128 0x5
 3241 019a 00       		.byte	0
 3242 019b 03       		.uleb128 0x3
 3243 019c 0E       		.uleb128 0xe
 3244 019d 3A       		.uleb128 0x3a
 3245 019e 0B       		.uleb128 0xb
 3246 019f 3B       		.uleb128 0x3b
 3247 01a0 0B       		.uleb128 0xb
 3248 01a1 49       		.uleb128 0x49
 3249 01a2 13       		.uleb128 0x13
 3250 01a3 02       		.uleb128 0x2
 3251 01a4 06       		.uleb128 0x6
 3252 01a5 00       		.byte	0
 3253 01a6 00       		.byte	0
 3254 01a7 22       		.uleb128 0x22
 3255 01a8 1D       		.uleb128 0x1d
 3256 01a9 01       		.byte	0x1
 3257 01aa 31       		.uleb128 0x31
 3258 01ab 13       		.uleb128 0x13
 3259 01ac 52       		.uleb128 0x52
 3260 01ad 01       		.uleb128 0x1
 3261 01ae 55       		.uleb128 0x55
 3262 01af 06       		.uleb128 0x6
 3263 01b0 58       		.uleb128 0x58
 3264 01b1 0B       		.uleb128 0xb
 3265 01b2 59       		.uleb128 0x59
 3266 01b3 0B       		.uleb128 0xb
 3267 01b4 00       		.byte	0
 3268 01b5 00       		.byte	0
 3269 01b6 23       		.uleb128 0x23
 3270 01b7 05       		.uleb128 0x5
 3271 01b8 00       		.byte	0
 3272 01b9 31       		.uleb128 0x31
 3273 01ba 13       		.uleb128 0x13
 3274 01bb 02       		.uleb128 0x2
 3275 01bc 06       		.uleb128 0x6
 3276 01bd 00       		.byte	0
 3277 01be 00       		.byte	0
 3278 01bf 24       		.uleb128 0x24
 3279 01c0 2E       		.uleb128 0x2e
 3280 01c1 01       		.byte	0x1
 3281 01c2 03       		.uleb128 0x3
 3282 01c3 0E       		.uleb128 0xe
 3283 01c4 3A       		.uleb128 0x3a
 3284 01c5 0B       		.uleb128 0xb
 3285 01c6 3B       		.uleb128 0x3b
 3286 01c7 0B       		.uleb128 0xb
 3287 01c8 27       		.uleb128 0x27
 3288 01c9 0C       		.uleb128 0xc
 3289 01ca 49       		.uleb128 0x49
 3290 01cb 13       		.uleb128 0x13
 3291 01cc 11       		.uleb128 0x11
 3292 01cd 01       		.uleb128 0x1
 3293 01ce 12       		.uleb128 0x12
 3294 01cf 01       		.uleb128 0x1
ARM GAS  /var/folders/5n/p_75w94d66l9ssrldxqdhh700000gn/T//ccMff9NN.s 			page 59


 3295 01d0 40       		.uleb128 0x40
 3296 01d1 06       		.uleb128 0x6
 3297 01d2 01       		.uleb128 0x1
 3298 01d3 13       		.uleb128 0x13
 3299 01d4 00       		.byte	0
 3300 01d5 00       		.byte	0
 3301 01d6 25       		.uleb128 0x25
 3302 01d7 05       		.uleb128 0x5
 3303 01d8 00       		.byte	0
 3304 01d9 03       		.uleb128 0x3
 3305 01da 08       		.uleb128 0x8
 3306 01db 3A       		.uleb128 0x3a
 3307 01dc 0B       		.uleb128 0xb
 3308 01dd 3B       		.uleb128 0x3b
 3309 01de 0B       		.uleb128 0xb
 3310 01df 49       		.uleb128 0x49
 3311 01e0 13       		.uleb128 0x13
 3312 01e1 02       		.uleb128 0x2
 3313 01e2 06       		.uleb128 0x6
 3314 01e3 00       		.byte	0
 3315 01e4 00       		.byte	0
 3316 01e5 26       		.uleb128 0x26
 3317 01e6 34       		.uleb128 0x34
 3318 01e7 00       		.byte	0
 3319 01e8 03       		.uleb128 0x3
 3320 01e9 08       		.uleb128 0x8
 3321 01ea 3A       		.uleb128 0x3a
 3322 01eb 0B       		.uleb128 0xb
 3323 01ec 3B       		.uleb128 0x3b
 3324 01ed 0B       		.uleb128 0xb
 3325 01ee 49       		.uleb128 0x49
 3326 01ef 13       		.uleb128 0x13
 3327 01f0 02       		.uleb128 0x2
 3328 01f1 06       		.uleb128 0x6
 3329 01f2 00       		.byte	0
 3330 01f3 00       		.byte	0
 3331 01f4 27       		.uleb128 0x27
 3332 01f5 34       		.uleb128 0x34
 3333 01f6 00       		.byte	0
 3334 01f7 03       		.uleb128 0x3
 3335 01f8 08       		.uleb128 0x8
 3336 01f9 3A       		.uleb128 0x3a
 3337 01fa 0B       		.uleb128 0xb
 3338 01fb 3B       		.uleb128 0x3b
 3339 01fc 0B       		.uleb128 0xb
 3340 01fd 49       		.uleb128 0x49
 3341 01fe 13       		.uleb128 0x13
 3342 01ff 02       		.uleb128 0x2
 3343 0200 0A       		.uleb128 0xa
 3344 0201 00       		.byte	0
 3345 0202 00       		.byte	0
 3346 0203 28       		.uleb128 0x28
 3347 0204 2E       		.uleb128 0x2e
 3348 0205 01       		.byte	0x1
 3349 0206 3F       		.uleb128 0x3f
 3350 0207 0C       		.uleb128 0xc
 3351 0208 03       		.uleb128 0x3
ARM GAS  /var/folders/5n/p_75w94d66l9ssrldxqdhh700000gn/T//ccMff9NN.s 			page 60


 3352 0209 0E       		.uleb128 0xe
 3353 020a 3A       		.uleb128 0x3a
 3354 020b 0B       		.uleb128 0xb
 3355 020c 3B       		.uleb128 0x3b
 3356 020d 0B       		.uleb128 0xb
 3357 020e 27       		.uleb128 0x27
 3358 020f 0C       		.uleb128 0xc
 3359 0210 49       		.uleb128 0x49
 3360 0211 13       		.uleb128 0x13
 3361 0212 11       		.uleb128 0x11
 3362 0213 01       		.uleb128 0x1
 3363 0214 12       		.uleb128 0x12
 3364 0215 01       		.uleb128 0x1
 3365 0216 40       		.uleb128 0x40
 3366 0217 06       		.uleb128 0x6
 3367 0218 01       		.uleb128 0x1
 3368 0219 13       		.uleb128 0x13
 3369 021a 00       		.byte	0
 3370 021b 00       		.byte	0
 3371 021c 29       		.uleb128 0x29
 3372 021d 34       		.uleb128 0x34
 3373 021e 00       		.byte	0
 3374 021f 03       		.uleb128 0x3
 3375 0220 0E       		.uleb128 0xe
 3376 0221 3A       		.uleb128 0x3a
 3377 0222 0B       		.uleb128 0xb
 3378 0223 3B       		.uleb128 0x3b
 3379 0224 0B       		.uleb128 0xb
 3380 0225 49       		.uleb128 0x49
 3381 0226 13       		.uleb128 0x13
 3382 0227 02       		.uleb128 0x2
 3383 0228 0A       		.uleb128 0xa
 3384 0229 00       		.byte	0
 3385 022a 00       		.byte	0
 3386 022b 2A       		.uleb128 0x2a
 3387 022c 0B       		.uleb128 0xb
 3388 022d 01       		.byte	0x1
 3389 022e 11       		.uleb128 0x11
 3390 022f 01       		.uleb128 0x1
 3391 0230 12       		.uleb128 0x12
 3392 0231 01       		.uleb128 0x1
 3393 0232 01       		.uleb128 0x1
 3394 0233 13       		.uleb128 0x13
 3395 0234 00       		.byte	0
 3396 0235 00       		.byte	0
 3397 0236 2B       		.uleb128 0x2b
 3398 0237 34       		.uleb128 0x34
 3399 0238 00       		.byte	0
 3400 0239 03       		.uleb128 0x3
 3401 023a 0E       		.uleb128 0xe
 3402 023b 3A       		.uleb128 0x3a
 3403 023c 0B       		.uleb128 0xb
 3404 023d 3B       		.uleb128 0x3b
 3405 023e 0B       		.uleb128 0xb
 3406 023f 49       		.uleb128 0x49
 3407 0240 13       		.uleb128 0x13
 3408 0241 00       		.byte	0
ARM GAS  /var/folders/5n/p_75w94d66l9ssrldxqdhh700000gn/T//ccMff9NN.s 			page 61


 3409 0242 00       		.byte	0
 3410 0243 2C       		.uleb128 0x2c
 3411 0244 0B       		.uleb128 0xb
 3412 0245 01       		.byte	0x1
 3413 0246 11       		.uleb128 0x11
 3414 0247 01       		.uleb128 0x1
 3415 0248 12       		.uleb128 0x12
 3416 0249 01       		.uleb128 0x1
 3417 024a 00       		.byte	0
 3418 024b 00       		.byte	0
 3419 024c 2D       		.uleb128 0x2d
 3420 024d 34       		.uleb128 0x34
 3421 024e 00       		.byte	0
 3422 024f 03       		.uleb128 0x3
 3423 0250 0E       		.uleb128 0xe
 3424 0251 3A       		.uleb128 0x3a
 3425 0252 0B       		.uleb128 0xb
 3426 0253 3B       		.uleb128 0x3b
 3427 0254 05       		.uleb128 0x5
 3428 0255 49       		.uleb128 0x49
 3429 0256 13       		.uleb128 0x13
 3430 0257 02       		.uleb128 0x2
 3431 0258 06       		.uleb128 0x6
 3432 0259 00       		.byte	0
 3433 025a 00       		.byte	0
 3434 025b 2E       		.uleb128 0x2e
 3435 025c 0B       		.uleb128 0xb
 3436 025d 01       		.byte	0x1
 3437 025e 55       		.uleb128 0x55
 3438 025f 06       		.uleb128 0x6
 3439 0260 01       		.uleb128 0x1
 3440 0261 13       		.uleb128 0x13
 3441 0262 00       		.byte	0
 3442 0263 00       		.byte	0
 3443 0264 2F       		.uleb128 0x2f
 3444 0265 0B       		.uleb128 0xb
 3445 0266 01       		.byte	0x1
 3446 0267 55       		.uleb128 0x55
 3447 0268 06       		.uleb128 0x6
 3448 0269 00       		.byte	0
 3449 026a 00       		.byte	0
 3450 026b 30       		.uleb128 0x30
 3451 026c 34       		.uleb128 0x34
 3452 026d 00       		.byte	0
 3453 026e 03       		.uleb128 0x3
 3454 026f 08       		.uleb128 0x8
 3455 0270 3A       		.uleb128 0x3a
 3456 0271 0B       		.uleb128 0xb
 3457 0272 3B       		.uleb128 0x3b
 3458 0273 05       		.uleb128 0x5
 3459 0274 49       		.uleb128 0x49
 3460 0275 13       		.uleb128 0x13
 3461 0276 00       		.byte	0
 3462 0277 00       		.byte	0
 3463 0278 31       		.uleb128 0x31
 3464 0279 1D       		.uleb128 0x1d
 3465 027a 01       		.byte	0x1
ARM GAS  /var/folders/5n/p_75w94d66l9ssrldxqdhh700000gn/T//ccMff9NN.s 			page 62


 3466 027b 31       		.uleb128 0x31
 3467 027c 13       		.uleb128 0x13
 3468 027d 52       		.uleb128 0x52
 3469 027e 01       		.uleb128 0x1
 3470 027f 55       		.uleb128 0x55
 3471 0280 06       		.uleb128 0x6
 3472 0281 58       		.uleb128 0x58
 3473 0282 0B       		.uleb128 0xb
 3474 0283 59       		.uleb128 0x59
 3475 0284 05       		.uleb128 0x5
 3476 0285 00       		.byte	0
 3477 0286 00       		.byte	0
 3478 0287 32       		.uleb128 0x32
 3479 0288 34       		.uleb128 0x34
 3480 0289 00       		.byte	0
 3481 028a 31       		.uleb128 0x31
 3482 028b 13       		.uleb128 0x13
 3483 028c 02       		.uleb128 0x2
 3484 028d 0A       		.uleb128 0xa
 3485 028e 00       		.byte	0
 3486 028f 00       		.byte	0
 3487 0290 33       		.uleb128 0x33
 3488 0291 34       		.uleb128 0x34
 3489 0292 00       		.byte	0
 3490 0293 31       		.uleb128 0x31
 3491 0294 13       		.uleb128 0x13
 3492 0295 02       		.uleb128 0x2
 3493 0296 06       		.uleb128 0x6
 3494 0297 00       		.byte	0
 3495 0298 00       		.byte	0
 3496 0299 34       		.uleb128 0x34
 3497 029a 34       		.uleb128 0x34
 3498 029b 00       		.byte	0
 3499 029c 03       		.uleb128 0x3
 3500 029d 0E       		.uleb128 0xe
 3501 029e 3A       		.uleb128 0x3a
 3502 029f 0B       		.uleb128 0xb
 3503 02a0 3B       		.uleb128 0x3b
 3504 02a1 0B       		.uleb128 0xb
 3505 02a2 49       		.uleb128 0x49
 3506 02a3 13       		.uleb128 0x13
 3507 02a4 3F       		.uleb128 0x3f
 3508 02a5 0C       		.uleb128 0xc
 3509 02a6 3C       		.uleb128 0x3c
 3510 02a7 0C       		.uleb128 0xc
 3511 02a8 00       		.byte	0
 3512 02a9 00       		.byte	0
 3513 02aa 35       		.uleb128 0x35
 3514 02ab 34       		.uleb128 0x34
 3515 02ac 00       		.byte	0
 3516 02ad 03       		.uleb128 0x3
 3517 02ae 0E       		.uleb128 0xe
 3518 02af 3A       		.uleb128 0x3a
 3519 02b0 0B       		.uleb128 0xb
 3520 02b1 3B       		.uleb128 0x3b
 3521 02b2 05       		.uleb128 0x5
 3522 02b3 49       		.uleb128 0x49
ARM GAS  /var/folders/5n/p_75w94d66l9ssrldxqdhh700000gn/T//ccMff9NN.s 			page 63


 3523 02b4 13       		.uleb128 0x13
 3524 02b5 3F       		.uleb128 0x3f
 3525 02b6 0C       		.uleb128 0xc
 3526 02b7 3C       		.uleb128 0x3c
 3527 02b8 0C       		.uleb128 0xc
 3528 02b9 00       		.byte	0
 3529 02ba 00       		.byte	0
 3530 02bb 36       		.uleb128 0x36
 3531 02bc 34       		.uleb128 0x34
 3532 02bd 00       		.byte	0
 3533 02be 03       		.uleb128 0x3
 3534 02bf 0E       		.uleb128 0xe
 3535 02c0 3A       		.uleb128 0x3a
 3536 02c1 0B       		.uleb128 0xb
 3537 02c2 3B       		.uleb128 0x3b
 3538 02c3 0B       		.uleb128 0xb
 3539 02c4 49       		.uleb128 0x49
 3540 02c5 13       		.uleb128 0x13
 3541 02c6 3F       		.uleb128 0x3f
 3542 02c7 0C       		.uleb128 0xc
 3543 02c8 02       		.uleb128 0x2
 3544 02c9 0A       		.uleb128 0xa
 3545 02ca 00       		.byte	0
 3546 02cb 00       		.byte	0
 3547 02cc 00       		.byte	0
 3548              		.section	.debug_loc,"",%progbits
 3549              	.Ldebug_loc0:
 3550              	.LLST0:
 3551 0000 00000000 		.4byte	.LVL0
 3552 0004 2E000000 		.4byte	.LVL2
 3553 0008 0100     		.2byte	0x1
 3554 000a 50       		.byte	0x50
 3555 000b 00000000 		.4byte	0
 3556 000f 00000000 		.4byte	0
 3557              	.LLST1:
 3558 0013 22000000 		.4byte	.LVL1
 3559 0017 2E000000 		.4byte	.LVL2
 3560 001b 0100     		.2byte	0x1
 3561 001d 50       		.byte	0x50
 3562 001e 2E000000 		.4byte	.LVL2
 3563 0022 3A000000 		.4byte	.LFE121
 3564 0026 0100     		.2byte	0x1
 3565 0028 53       		.byte	0x53
 3566 0029 00000000 		.4byte	0
 3567 002d 00000000 		.4byte	0
 3568              	.LLST2:
 3569 0031 00000000 		.4byte	.LFB119
 3570 0035 02000000 		.4byte	.LCFI0
 3571 0039 0200     		.2byte	0x2
 3572 003b 7D       		.byte	0x7d
 3573 003c 00       		.sleb128 0
 3574 003d 02000000 		.4byte	.LCFI0
 3575 0041 04000000 		.4byte	.LCFI1
 3576 0045 0200     		.2byte	0x2
 3577 0047 7D       		.byte	0x7d
 3578 0048 08       		.sleb128 8
 3579 0049 04000000 		.4byte	.LCFI1
ARM GAS  /var/folders/5n/p_75w94d66l9ssrldxqdhh700000gn/T//ccMff9NN.s 			page 64


 3580 004d 48000000 		.4byte	.LFE119
 3581 0051 0200     		.2byte	0x2
 3582 0053 7D       		.byte	0x7d
 3583 0054 18       		.sleb128 24
 3584 0055 00000000 		.4byte	0
 3585 0059 00000000 		.4byte	0
 3586              	.LLST3:
 3587 005d 00000000 		.4byte	.LVL3
 3588 0061 08000000 		.4byte	.LVL4
 3589 0065 0100     		.2byte	0x1
 3590 0067 50       		.byte	0x50
 3591 0068 00000000 		.4byte	0
 3592 006c 00000000 		.4byte	0
 3593              	.LLST4:
 3594 0070 00000000 		.4byte	.LVL3
 3595 0074 0A000000 		.4byte	.LVL5
 3596 0078 0100     		.2byte	0x1
 3597 007a 51       		.byte	0x51
 3598 007b 0A000000 		.4byte	.LVL5
 3599 007f 14000000 		.4byte	.LVL7
 3600 0083 0100     		.2byte	0x1
 3601 0085 54       		.byte	0x54
 3602 0086 3A000000 		.4byte	.LVL10
 3603 008a 48000000 		.4byte	.LFE119
 3604 008e 0100     		.2byte	0x1
 3605 0090 54       		.byte	0x54
 3606 0091 00000000 		.4byte	0
 3607 0095 00000000 		.4byte	0
 3608              	.LLST5:
 3609 0099 12000000 		.4byte	.LVL6
 3610 009d 34000000 		.4byte	.LVL9
 3611 00a1 0100     		.2byte	0x1
 3612 00a3 54       		.byte	0x54
 3613 00a4 00000000 		.4byte	0
 3614 00a8 00000000 		.4byte	0
 3615              	.LLST6:
 3616 00ac 00000000 		.4byte	.LFB122
 3617 00b0 04000000 		.4byte	.LCFI2
 3618 00b4 0200     		.2byte	0x2
 3619 00b6 7D       		.byte	0x7d
 3620 00b7 00       		.sleb128 0
 3621 00b8 04000000 		.4byte	.LCFI2
 3622 00bc 10000000 		.4byte	.LCFI3
 3623 00c0 0200     		.2byte	0x2
 3624 00c2 7D       		.byte	0x7d
 3625 00c3 18       		.sleb128 24
 3626 00c4 10000000 		.4byte	.LCFI3
 3627 00c8 E0010000 		.4byte	.LFE122
 3628 00cc 0300     		.2byte	0x3
 3629 00ce 7D       		.byte	0x7d
 3630 00cf 8001     		.sleb128 128
 3631 00d1 00000000 		.4byte	0
 3632 00d5 00000000 		.4byte	0
 3633              	.LLST7:
 3634 00d9 00000000 		.4byte	.LVL11
 3635 00dd 15000000 		.4byte	.LVL12-1
 3636 00e1 0100     		.2byte	0x1
ARM GAS  /var/folders/5n/p_75w94d66l9ssrldxqdhh700000gn/T//ccMff9NN.s 			page 65


 3637 00e3 50       		.byte	0x50
 3638 00e4 15000000 		.4byte	.LVL12-1
 3639 00e8 90000000 		.4byte	.LVL15
 3640 00ec 0100     		.2byte	0x1
 3641 00ee 55       		.byte	0x55
 3642 00ef 00000000 		.4byte	0
 3643 00f3 00000000 		.4byte	0
 3644              	.LLST8:
 3645 00f7 36000000 		.4byte	.LVL13
 3646 00fb 44000000 		.4byte	.LVL14
 3647 00ff 0100     		.2byte	0x1
 3648 0101 53       		.byte	0x53
 3649 0102 00000000 		.4byte	0
 3650 0106 00000000 		.4byte	0
 3651              	.LLST9:
 3652 010a EC000000 		.4byte	.LVL16
 3653 010e F0000000 		.4byte	.LVL17
 3654 0112 0100     		.2byte	0x1
 3655 0114 56       		.byte	0x56
 3656 0115 FC000000 		.4byte	.LVL18
 3657 0119 00010000 		.4byte	.LVL19
 3658 011d 0100     		.2byte	0x1
 3659 011f 50       		.byte	0x50
 3660 0120 00010000 		.4byte	.LVL19
 3661 0124 28010000 		.4byte	.LVL22
 3662 0128 0100     		.2byte	0x1
 3663 012a 56       		.byte	0x56
 3664 012b 86010000 		.4byte	.LVL29
 3665 012f 90010000 		.4byte	.LVL32
 3666 0133 0100     		.2byte	0x1
 3667 0135 56       		.byte	0x56
 3668 0136 00000000 		.4byte	0
 3669 013a 00000000 		.4byte	0
 3670              	.LLST10:
 3671 013e 10010000 		.4byte	.LVL20
 3672 0142 1C010000 		.4byte	.LVL21
 3673 0146 0100     		.2byte	0x1
 3674 0148 50       		.byte	0x50
 3675 0149 86010000 		.4byte	.LVL29
 3676 014d 8A010000 		.4byte	.LVL30
 3677 0151 0100     		.2byte	0x1
 3678 0153 50       		.byte	0x50
 3679 0154 8A010000 		.4byte	.LVL30
 3680 0158 8D010000 		.4byte	.LVL31-1
 3681 015c 0100     		.2byte	0x1
 3682 015e 52       		.byte	0x52
 3683 015f 00000000 		.4byte	0
 3684 0163 00000000 		.4byte	0
 3685              	.LLST11:
 3686 0167 68010000 		.4byte	.LVL27
 3687 016b 73010000 		.4byte	.LVL28-1
 3688 016f 0200     		.2byte	0x2
 3689 0171 77       		.byte	0x77
 3690 0172 04       		.sleb128 4
 3691 0173 00000000 		.4byte	0
 3692 0177 00000000 		.4byte	0
 3693              	.LLST12:
ARM GAS  /var/folders/5n/p_75w94d66l9ssrldxqdhh700000gn/T//ccMff9NN.s 			page 66


 3694 017b 42010000 		.4byte	.LVL24
 3695 017f 4A010000 		.4byte	.LVL25
 3696 0183 0100     		.2byte	0x1
 3697 0185 50       		.byte	0x50
 3698 0186 4A010000 		.4byte	.LVL25
 3699 018a 86010000 		.4byte	.LVL29
 3700 018e 0100     		.2byte	0x1
 3701 0190 57       		.byte	0x57
 3702 0191 90010000 		.4byte	.LVL32
 3703 0195 E0010000 		.4byte	.LFE122
 3704 0199 0100     		.2byte	0x1
 3705 019b 57       		.byte	0x57
 3706 019c 00000000 		.4byte	0
 3707 01a0 00000000 		.4byte	0
 3708              	.LLST13:
 3709 01a4 56010000 		.4byte	.LVL26
 3710 01a8 86010000 		.4byte	.LVL29
 3711 01ac 0100     		.2byte	0x1
 3712 01ae 56       		.byte	0x56
 3713 01af 90010000 		.4byte	.LVL32
 3714 01b3 9E010000 		.4byte	.LVL33
 3715 01b7 0100     		.2byte	0x1
 3716 01b9 56       		.byte	0x56
 3717 01ba 00000000 		.4byte	0
 3718 01be 00000000 		.4byte	0
 3719              	.LLST14:
 3720 01c2 36010000 		.4byte	.LVL23
 3721 01c6 41010000 		.4byte	.LVL24-1
 3722 01ca 0200     		.2byte	0x2
 3723 01cc 91       		.byte	0x91
 3724 01cd 54       		.sleb128 -44
 3725 01ce 00000000 		.4byte	0
 3726 01d2 00000000 		.4byte	0
 3727              		.section	.debug_aranges,"",%progbits
 3728 0000 2C000000 		.4byte	0x2c
 3729 0004 0200     		.2byte	0x2
 3730 0006 00000000 		.4byte	.Ldebug_info0
 3731 000a 04       		.byte	0x4
 3732 000b 00       		.byte	0
 3733 000c 0000     		.2byte	0
 3734 000e 0000     		.2byte	0
 3735 0010 00000000 		.4byte	.LFB121
 3736 0014 3A000000 		.4byte	.LFE121-.LFB121
 3737 0018 00000000 		.4byte	.LFB119
 3738 001c 48000000 		.4byte	.LFE119-.LFB119
 3739 0020 00000000 		.4byte	.LFB122
 3740 0024 E0010000 		.4byte	.LFE122-.LFB122
 3741 0028 00000000 		.4byte	0
 3742 002c 00000000 		.4byte	0
 3743              		.section	.debug_ranges,"",%progbits
 3744              	.Ldebug_ranges0:
 3745 0000 22000000 		.4byte	.LBB4
 3746 0004 2C000000 		.4byte	.LBE4
 3747 0008 2E000000 		.4byte	.LBB8
 3748 000c 32000000 		.4byte	.LBE8
 3749 0010 34000000 		.4byte	.LBB9
 3750 0014 38000000 		.4byte	.LBE9
ARM GAS  /var/folders/5n/p_75w94d66l9ssrldxqdhh700000gn/T//ccMff9NN.s 			page 67


 3751 0018 00000000 		.4byte	0
 3752 001c 00000000 		.4byte	0
 3753 0020 FE000000 		.4byte	.LBB19
 3754 0024 20010000 		.4byte	.LBE19
 3755 0028 86010000 		.4byte	.LBB31
 3756 002c 90010000 		.4byte	.LBE31
 3757 0030 00000000 		.4byte	0
 3758 0034 00000000 		.4byte	0
 3759 0038 24010000 		.4byte	.LBB20
 3760 003c 86010000 		.4byte	.LBE20
 3761 0040 90010000 		.4byte	.LBB32
 3762 0044 E0010000 		.4byte	.LBE32
 3763 0048 00000000 		.4byte	0
 3764 004c 00000000 		.4byte	0
 3765 0050 24010000 		.4byte	.LBB21
 3766 0054 28010000 		.4byte	.LBE21
 3767 0058 62010000 		.4byte	.LBB26
 3768 005c 64010000 		.4byte	.LBE26
 3769 0060 68010000 		.4byte	.LBB28
 3770 0064 86010000 		.4byte	.LBE28
 3771 0068 90010000 		.4byte	.LBB29
 3772 006c 9E010000 		.4byte	.LBE29
 3773 0070 00000000 		.4byte	0
 3774 0074 00000000 		.4byte	0
 3775 0078 28010000 		.4byte	.LBB22
 3776 007c 62010000 		.4byte	.LBE22
 3777 0080 64010000 		.4byte	.LBB27
 3778 0084 68010000 		.4byte	.LBE27
 3779 0088 9E010000 		.4byte	.LBB30
 3780 008c E0010000 		.4byte	.LBE30
 3781 0090 00000000 		.4byte	0
 3782 0094 00000000 		.4byte	0
 3783 0098 28010000 		.4byte	.LBB23
 3784 009c 62010000 		.4byte	.LBE23
 3785 00a0 64010000 		.4byte	.LBB24
 3786 00a4 68010000 		.4byte	.LBE24
 3787 00a8 9E010000 		.4byte	.LBB25
 3788 00ac E0010000 		.4byte	.LBE25
 3789 00b0 00000000 		.4byte	0
 3790 00b4 00000000 		.4byte	0
 3791 00b8 00000000 		.4byte	.LFB121
 3792 00bc 3A000000 		.4byte	.LFE121
 3793 00c0 00000000 		.4byte	.LFB119
 3794 00c4 48000000 		.4byte	.LFE119
 3795 00c8 00000000 		.4byte	.LFB122
 3796 00cc E0010000 		.4byte	.LFE122
 3797 00d0 00000000 		.4byte	0
 3798 00d4 00000000 		.4byte	0
 3799              		.section	.debug_line,"",%progbits
 3800              	.Ldebug_line0:
 3801 0000 2D040000 		.section	.debug_str,"MS",%progbits,1
 3801      02002603 
 3801      00000201 
 3801      FB0E0D00 
 3801      01010101 
 3802              	.LASF2:
 3803 0000 696E7438 		.ascii	"int8_t\000"
ARM GAS  /var/folders/5n/p_75w94d66l9ssrldxqdhh700000gn/T//ccMff9NN.s 			page 68


 3803      5F7400
 3804              	.LASF164:
 3805 0007 70726F74 		.ascii	"proterr\000"
 3805      65727200 
 3806              	.LASF1:
 3807 000f 73697A65 		.ascii	"size_t\000"
 3807      5F7400
 3808              	.LASF25:
 3809 0016 73797374 		.ascii	"systime_t\000"
 3809      696D655F 
 3809      7400
 3810              	.LASF196:
 3811 0020 6574685F 		.ascii	"eth_addr\000"
 3811      61646472 
 3811      00
 3812              	.LASF31:
 3813 0029 705F6374 		.ascii	"p_ctx\000"
 3813      7800
 3814              	.LASF21:
 3815 002f 74707269 		.ascii	"tprio_t\000"
 3815      6F5F7400 
 3816              	.LASF143:
 3817 0037 4D454D50 		.ascii	"MEMP_TCP_PCB\000"
 3817      5F544350 
 3817      5F504342 
 3817      00
 3818              	.LASF122:
 3819 0044 73385F74 		.ascii	"s8_t\000"
 3819      00
 3820              	.LASF41:
 3821 0049 705F6D73 		.ascii	"p_msgqueue\000"
 3821      67717565 
 3821      756500
 3822              	.LASF62:
 3823 0054 725F6374 		.ascii	"r_ctx\000"
 3823      7800
 3824              	.LASF9:
 3825 005a 696E7433 		.ascii	"int32_t\000"
 3825      325F7400 
 3826              	.LASF53:
 3827 0062 76746675 		.ascii	"vtfunc_t\000"
 3827      6E635F74 
 3827      00
 3828              	.LASF152:
 3829 006b 4D454D50 		.ascii	"MEMP_SYS_TIMEOUT\000"
 3829      5F535953 
 3829      5F54494D 
 3829      454F5554 
 3829      00
 3830              	.LASF163:
 3831 007c 72746572 		.ascii	"rterr\000"
 3831      7200
 3832              	.LASF210:
 3833 0082 65746868 		.ascii	"ethhdr\000"
 3833      647200
 3834              	.LASF97:
 3835 0089 70687961 		.ascii	"phyaddr\000"
ARM GAS  /var/folders/5n/p_75w94d66l9ssrldxqdhh700000gn/T//ccMff9NN.s 			page 69


 3835      64647200 
 3836              	.LASF78:
 3837 0091 656C5F66 		.ascii	"el_flags\000"
 3837      6C616773 
 3837      00
 3838              	.LASF92:
 3839 009a 636F6E66 		.ascii	"config\000"
 3839      696700
 3840              	.LASF91:
 3841 00a1 73746174 		.ascii	"state\000"
 3841      6500
 3842              	.LASF213:
 3843 00a7 45544844 		.ascii	"ETHD1\000"
 3843      3100
 3844              	.LASF139:
 3845 00ad 74797065 		.ascii	"type\000"
 3845      00
 3846              	.LASF86:
 3847 00b2 4D41435F 		.ascii	"MAC_UNINIT\000"
 3847      554E494E 
 3847      495400
 3848              	.LASF133:
 3849 00bd 50425546 		.ascii	"PBUF_REF\000"
 3849      5F524546 
 3849      00
 3850              	.LASF180:
 3851 00c6 6D656D70 		.ascii	"memp\000"
 3851      00
 3852              	.LASF177:
 3853 00cb 65746861 		.ascii	"etharp\000"
 3853      727000
 3854              	.LASF72:
 3855 00d2 6D5F6F77 		.ascii	"m_owner\000"
 3855      6E657200 
 3856              	.LASF59:
 3857 00da 76745F70 		.ascii	"vt_par\000"
 3857      617200
 3858              	.LASF82:
 3859 00e1 65786974 		.ascii	"exitcode\000"
 3859      636F6465 
 3859      00
 3860              	.LASF84:
 3861 00ea 65776D61 		.ascii	"ewmask\000"
 3861      736B00
 3862              	.LASF32:
 3863 00f1 705F6E65 		.ascii	"p_newer\000"
 3863      77657200 
 3864              	.LASF10:
 3865 00f9 6C6F6E67 		.ascii	"long int\000"
 3865      20696E74 
 3865      00
 3866              	.LASF28:
 3867 0102 705F6E65 		.ascii	"p_next\000"
 3867      787400
 3868              	.LASF29:
 3869 0109 705F7072 		.ascii	"p_prev\000"
 3869      657600
ARM GAS  /var/folders/5n/p_75w94d66l9ssrldxqdhh700000gn/T//ccMff9NN.s 			page 70


 3870              	.LASF204:
 3871 0110 6C6F775F 		.ascii	"low_level_output\000"
 3871      6C657665 
 3871      6C5F6F75 
 3871      74707574 
 3871      00
 3872              	.LASF18:
 3873 0121 74737461 		.ascii	"tstate_t\000"
 3873      74655F74 
 3873      00
 3874              	.LASF118:
 3875 012a 65745F65 		.ascii	"et_es\000"
 3875      7300
 3876              	.LASF44:
 3877 0130 705F6D74 		.ascii	"p_mtxlist\000"
 3877      786C6973 
 3877      7400
 3878              	.LASF49:
 3879 013a 72656761 		.ascii	"regarm_t\000"
 3879      726D5F74 
 3879      00
 3880              	.LASF168:
 3881 0143 61766169 		.ascii	"avail\000"
 3881      6C00
 3882              	.LASF110:
 3883 0149 6D61635F 		.ascii	"mac_address\000"
 3883      61646472 
 3883      65737300 
 3884              	.LASF188:
 3885 0155 6C696E6B 		.ascii	"linkoutput\000"
 3885      6F757470 
 3885      757400
 3886              	.LASF189:
 3887 0160 68776164 		.ascii	"hwaddr_len\000"
 3887      64725F6C 
 3887      656E00
 3888              	.LASF154:
 3889 016b 4D454D50 		.ascii	"MEMP_PBUF_POOL\000"
 3889      5F504255 
 3889      465F504F 
 3889      4F4C00
 3890              	.LASF3:
 3891 017a 7369676E 		.ascii	"signed char\000"
 3891      65642063 
 3891      68617200 
 3892              	.LASF38:
 3893 0186 705F7072 		.ascii	"p_preempt\000"
 3893      65656D70 
 3893      7400
 3894              	.LASF4:
 3895 0190 75696E74 		.ascii	"uint8_t\000"
 3895      385F7400 
 3896              	.LASF23:
 3897 0198 6576656E 		.ascii	"eventmask_t\000"
 3897      746D6173 
 3897      6B5F7400 
 3898              	.LASF52:
ARM GAS  /var/folders/5n/p_75w94d66l9ssrldxqdhh700000gn/T//ccMff9NN.s 			page 71


 3899 01a4 636F6E74 		.ascii	"context\000"
 3899      65787400 
 3900              	.LASF217:
 3901 01ac 2E2E2F2E 		.ascii	"../../os/various/lwip_bindings/lwipthread.c\000"
 3901      2E2F6F73 
 3901      2F766172 
 3901      696F7573 
 3901      2F6C7769 
 3902              	.LASF5:
 3903 01d8 756E7369 		.ascii	"unsigned char\000"
 3903      676E6564 
 3903      20636861 
 3903      7200
 3904              	.LASF104:
 3905 01e6 73746D33 		.ascii	"stm32_eth_rx_descriptor_t\000"
 3905      325F6574 
 3905      685F7278 
 3905      5F646573 
 3905      63726970 
 3906              	.LASF56:
 3907 0200 76745F70 		.ascii	"vt_prev\000"
 3907      72657600 
 3908              	.LASF161:
 3909 0208 6C656E65 		.ascii	"lenerr\000"
 3909      727200
 3910              	.LASF63:
 3911 020f 725F6E65 		.ascii	"r_newer\000"
 3911      77657200 
 3912              	.LASF148:
 3913 0217 4D454D50 		.ascii	"MEMP_NETBUF\000"
 3913      5F4E4554 
 3913      42554600 
 3914              	.LASF159:
 3915 0223 64726F70 		.ascii	"drop\000"
 3915      00
 3916              	.LASF134:
 3917 0228 50425546 		.ascii	"PBUF_POOL\000"
 3917      5F504F4F 
 3917      4C00
 3918              	.LASF85:
 3919 0232 63686172 		.ascii	"char\000"
 3919      00
 3920              	.LASF187:
 3921 0237 6F757470 		.ascii	"output\000"
 3921      757400
 3922              	.LASF135:
 3923 023e 70627566 		.ascii	"pbuf\000"
 3923      00
 3924              	.LASF98:
 3925 0243 72787074 		.ascii	"rxptr\000"
 3925      7200
 3926              	.LASF30:
 3927 0249 705F7072 		.ascii	"p_prio\000"
 3927      696F00
 3928              	.LASF94:
 3929 0250 72647365 		.ascii	"rdsem\000"
 3929      6D00
ARM GAS  /var/folders/5n/p_75w94d66l9ssrldxqdhh700000gn/T//ccMff9NN.s 			page 72


 3930              	.LASF141:
 3931 0256 4D454D50 		.ascii	"MEMP_RAW_PCB\000"
 3931      5F524157 
 3931      5F504342 
 3931      00
 3932              	.LASF83:
 3933 0263 77746F62 		.ascii	"wtobjp\000"
 3933      6A7000
 3934              	.LASF95:
 3935 026a 72646576 		.ascii	"rdevent\000"
 3935      656E7400 
 3936              	.LASF140:
 3937 0272 666C6167 		.ascii	"flags\000"
 3937      7300
 3938              	.LASF219:
 3939 0278 6C6F775F 		.ascii	"low_level_init\000"
 3939      6C657665 
 3939      6C5F696E 
 3939      697400
 3940              	.LASF50:
 3941 0287 73746B61 		.ascii	"stkalign_t\000"
 3941      6C69676E 
 3941      5F7400
 3942              	.LASF125:
 3943 0292 6D656D5F 		.ascii	"mem_size_t\000"
 3943      73697A65 
 3943      5F7400
 3944              	.LASF197:
 3945 029d 6574685F 		.ascii	"eth_hdr\000"
 3945      68647200 
 3946              	.LASF181:
 3947 02a5 69705F61 		.ascii	"ip_addr\000"
 3947      64647200 
 3948              	.LASF186:
 3949 02ad 696E7075 		.ascii	"input\000"
 3949      7400
 3950              	.LASF205:
 3951 02b3 74686973 		.ascii	"thisif\000"
 3951      696600
 3952              	.LASF166:
 3953 02ba 63616368 		.ascii	"cachehit\000"
 3953      65686974 
 3953      00
 3954              	.LASF162:
 3955 02c3 6D656D65 		.ascii	"memerr\000"
 3955      727200
 3956              	.LASF175:
 3957 02ca 73746174 		.ascii	"stats_\000"
 3957      735F00
 3958              	.LASF26:
 3959 02d1 636E745F 		.ascii	"cnt_t\000"
 3959      7400
 3960              	.LASF203:
 3961 02d7 65746865 		.ascii	"ethernetif_init\000"
 3961      726E6574 
 3961      69665F69 
 3961      6E697400 
ARM GAS  /var/folders/5n/p_75w94d66l9ssrldxqdhh700000gn/T//ccMff9NN.s 			page 73


 3962              	.LASF58:
 3963 02e7 76745F66 		.ascii	"vt_func\000"
 3963      756E6300 
 3964              	.LASF150:
 3965 02ef 4D454D50 		.ascii	"MEMP_TCPIP_MSG_API\000"
 3965      5F544350 
 3965      49505F4D 
 3965      53475F41 
 3965      504900
 3966              	.LASF149:
 3967 0302 4D454D50 		.ascii	"MEMP_NETCONN\000"
 3967      5F4E4554 
 3967      434F4E4E 
 3967      00
 3968              	.LASF51:
 3969 030f 696E7463 		.ascii	"intctx\000"
 3969      747800
 3970              	.LASF43:
 3971 0316 705F6570 		.ascii	"p_epending\000"
 3971      656E6469 
 3971      6E6700
 3972              	.LASF199:
 3973 0321 6C776970 		.ascii	"lwipthread_opts\000"
 3973      74687265 
 3973      61645F6F 
 3973      70747300 
 3974              	.LASF200:
 3975 0331 6D616361 		.ascii	"macaddress\000"
 3975      64647265 
 3975      737300
 3976              	.LASF80:
 3977 033c 65735F6E 		.ascii	"es_next\000"
 3977      65787400 
 3978              	.LASF79:
 3979 0344 4576656E 		.ascii	"EventSource\000"
 3979      74536F75 
 3979      72636500 
 3980              	.LASF12:
 3981 0350 6C6F6E67 		.ascii	"long unsigned int\000"
 3981      20756E73 
 3981      69676E65 
 3981      6420696E 
 3981      7400
 3982              	.LASF184:
 3983 0362 6E657469 		.ascii	"netif\000"
 3983      6600
 3984              	.LASF201:
 3985 0368 61646472 		.ascii	"address\000"
 3985      65737300 
 3986              	.LASF132:
 3987 0370 50425546 		.ascii	"PBUF_ROM\000"
 3987      5F524F4D 
 3987      00
 3988              	.LASF190:
 3989 0379 68776164 		.ascii	"hwaddr\000"
 3989      647200
 3990              	.LASF176:
ARM GAS  /var/folders/5n/p_75w94d66l9ssrldxqdhh700000gn/T//ccMff9NN.s 			page 74


 3991 0380 6C696E6B 		.ascii	"link\000"
 3991      00
 3992              	.LASF75:
 3993 0385 656C5F6E 		.ascii	"el_next\000"
 3993      65787400 
 3994              	.LASF137:
 3995 038d 7061796C 		.ascii	"payload\000"
 3995      6F616400 
 3996              	.LASF90:
 3997 0395 4D414344 		.ascii	"MACDriver\000"
 3997      72697665 
 3997      7200
 3998              	.LASF157:
 3999 039f 786D6974 		.ascii	"xmit\000"
 3999      00
 4000              	.LASF120:
 4001 03a4 45765469 		.ascii	"EvTimer\000"
 4001      6D657200 
 4002              	.LASF70:
 4003 03ac 4D757465 		.ascii	"Mutex\000"
 4003      7800
 4004              	.LASF13:
 4005 03b2 6C6F6E67 		.ascii	"long long int\000"
 4005      206C6F6E 
 4005      6720696E 
 4005      7400
 4006              	.LASF71:
 4007 03c0 6D5F7175 		.ascii	"m_queue\000"
 4007      65756500 
 4008              	.LASF55:
 4009 03c8 76745F6E 		.ascii	"vt_next\000"
 4009      65787400 
 4010              	.LASF88:
 4011 03d0 4D41435F 		.ascii	"MAC_ACTIVE\000"
 4011      41435449 
 4011      564500
 4012              	.LASF185:
 4013 03db 6E65746D 		.ascii	"netmask\000"
 4013      61736B00 
 4014              	.LASF208:
 4015 03e3 6D61736B 		.ascii	"mask\000"
 4015      00
 4016              	.LASF173:
 4017 03e8 6D757465 		.ascii	"mutex\000"
 4017      7800
 4018              	.LASF212:
 4019 03ee 49544D5F 		.ascii	"ITM_RxBuffer\000"
 4019      52784275 
 4019      66666572 
 4019      00
 4020              	.LASF171:
 4021 03fb 73746174 		.ascii	"stats_syselem\000"
 4021      735F7379 
 4021      73656C65 
 4021      6D00
 4022              	.LASF156:
 4023 0409 73746174 		.ascii	"stats_proto\000"
ARM GAS  /var/folders/5n/p_75w94d66l9ssrldxqdhh700000gn/T//ccMff9NN.s 			page 75


 4023      735F7072 
 4023      6F746F00 
 4024              	.LASF221:
 4025 0415 6C776970 		.ascii	"lwip_thread\000"
 4025      5F746872 
 4025      65616400 
 4026              	.LASF209:
 4027 0421 63757272 		.ascii	"current_link_status\000"
 4027      656E745F 
 4027      6C696E6B 
 4027      5F737461 
 4027      74757300 
 4028              	.LASF40:
 4029 0435 705F7761 		.ascii	"p_waiting\000"
 4029      6974696E 
 4029      6700
 4030              	.LASF182:
 4031 043f 61646472 		.ascii	"addr\000"
 4031      00
 4032              	.LASF36:
 4033 0444 705F666C 		.ascii	"p_flags\000"
 4033      61677300 
 4034              	.LASF119:
 4035 044c 65745F69 		.ascii	"et_interval\000"
 4035      6E746572 
 4035      76616C00 
 4036              	.LASF0:
 4037 0458 756E7369 		.ascii	"unsigned int\000"
 4037      676E6564 
 4037      20696E74 
 4037      00
 4038              	.LASF178:
 4039 0465 69705F66 		.ascii	"ip_frag\000"
 4039      72616700 
 4040              	.LASF207:
 4041 046d 6F707473 		.ascii	"opts\000"
 4041      00
 4042              	.LASF123:
 4043 0472 7531365F 		.ascii	"u16_t\000"
 4043      7400
 4044              	.LASF46:
 4045 0478 705F6D70 		.ascii	"p_mpool\000"
 4045      6F6F6C00 
 4046              	.LASF174:
 4047 0480 6D626F78 		.ascii	"mbox\000"
 4047      00
 4048              	.LASF128:
 4049 0485 50425546 		.ascii	"PBUF_IP\000"
 4049      5F495000 
 4050              	.LASF37:
 4051 048d 705F7265 		.ascii	"p_refs\000"
 4051      667300
 4052              	.LASF102:
 4053 0494 72646573 		.ascii	"rdes2\000"
 4053      3200
 4054              	.LASF105:
 4055 049a 74646573 		.ascii	"tdes0\000"
ARM GAS  /var/folders/5n/p_75w94d66l9ssrldxqdhh700000gn/T//ccMff9NN.s 			page 76


 4055      3000
 4056              	.LASF106:
 4057 04a0 74646573 		.ascii	"tdes1\000"
 4057      3100
 4058              	.LASF107:
 4059 04a6 74646573 		.ascii	"tdes2\000"
 4059      3200
 4060              	.LASF108:
 4061 04ac 74646573 		.ascii	"tdes3\000"
 4061      3300
 4062              	.LASF192:
 4063 04b2 6E657469 		.ascii	"netif_input_fn\000"
 4063      665F696E 
 4063      7075745F 
 4063      666E00
 4064              	.LASF117:
 4065 04c1 65745F76 		.ascii	"et_vt\000"
 4065      7400
 4066              	.LASF48:
 4067 04c7 54687265 		.ascii	"ThreadsList\000"
 4067      6164734C 
 4067      69737400 
 4068              	.LASF112:
 4069 04d3 6F666673 		.ascii	"offset\000"
 4069      657400
 4070              	.LASF194:
 4071 04da 6E657469 		.ascii	"netif_linkoutput_fn\000"
 4071      665F6C69 
 4071      6E6B6F75 
 4071      74707574 
 4071      5F666E00 
 4072              	.LASF24:
 4073 04ee 666C6167 		.ascii	"flagsmask_t\000"
 4073      736D6173 
 4073      6B5F7400 
 4074              	.LASF195:
 4075 04fa 74637069 		.ascii	"tcpip_callback_fn\000"
 4075      705F6361 
 4075      6C6C6261 
 4075      636B5F66 
 4075      6E00
 4076              	.LASF39:
 4077 050c 705F7469 		.ascii	"p_time\000"
 4077      6D6500
 4078              	.LASF193:
 4079 0513 6E657469 		.ascii	"netif_output_fn\000"
 4079      665F6F75 
 4079      74707574 
 4079      5F666E00 
 4080              	.LASF158:
 4081 0523 72656376 		.ascii	"recv\000"
 4081      00
 4082              	.LASF169:
 4083 0528 75736564 		.ascii	"used\000"
 4083      00
 4084              	.LASF138:
 4085 052d 746F745F 		.ascii	"tot_len\000"
ARM GAS  /var/folders/5n/p_75w94d66l9ssrldxqdhh700000gn/T//ccMff9NN.s 			page 77


 4085      6C656E00 
 4086              	.LASF136:
 4087 0535 6E657874 		.ascii	"next\000"
 4087      00
 4088              	.LASF183:
 4089 053a 69705F61 		.ascii	"ip_addr_t\000"
 4089      6464725F 
 4089      7400
 4090              	.LASF67:
 4091 0544 53656D61 		.ascii	"Semaphore\000"
 4091      70686F72 
 4091      6500
 4092              	.LASF45:
 4093 054e 705F7265 		.ascii	"p_realprio\000"
 4093      616C7072 
 4093      696F00
 4094              	.LASF126:
 4095 0559 6572725F 		.ascii	"err_t\000"
 4095      7400
 4096              	.LASF172:
 4097 055f 73746174 		.ascii	"stats_sys\000"
 4097      735F7379 
 4097      7300
 4098              	.LASF146:
 4099 0569 4D454D50 		.ascii	"MEMP_REASSDATA\000"
 4099      5F524541 
 4099      53534441 
 4099      544100
 4100              	.LASF69:
 4101 0578 735F636E 		.ascii	"s_cnt\000"
 4101      7400
 4102              	.LASF179:
 4103 057e 69636D70 		.ascii	"icmp\000"
 4103      00
 4104              	.LASF147:
 4105 0583 4D454D50 		.ascii	"MEMP_FRAG_PBUF\000"
 4105      5F465241 
 4105      475F5042 
 4105      554600
 4106              	.LASF113:
 4107 0592 73697A65 		.ascii	"size\000"
 4107      00
 4108              	.LASF15:
 4109 0597 6C6F6E67 		.ascii	"long long unsigned int\000"
 4109      206C6F6E 
 4109      6720756E 
 4109      7369676E 
 4109      65642069 
 4110              	.LASF115:
 4111 05ae 4D414354 		.ascii	"MACTransmitDescriptor\000"
 4111      72616E73 
 4111      6D697444 
 4111      65736372 
 4111      6970746F 
 4112              	.LASF142:
 4113 05c4 4D454D50 		.ascii	"MEMP_UDP_PCB\000"
 4113      5F554450 
ARM GAS  /var/folders/5n/p_75w94d66l9ssrldxqdhh700000gn/T//ccMff9NN.s 			page 78


 4113      5F504342 
 4113      00
 4114              	.LASF33:
 4115 05d1 705F6F6C 		.ascii	"p_older\000"
 4115      64657200 
 4116              	.LASF145:
 4117 05d9 4D454D50 		.ascii	"MEMP_TCP_SEG\000"
 4117      5F544350 
 4117      5F534547 
 4117      00
 4118              	.LASF7:
 4119 05e6 75696E74 		.ascii	"uint16_t\000"
 4119      31365F74 
 4119      00
 4120              	.LASF22:
 4121 05ef 6D73675F 		.ascii	"msg_t\000"
 4121      7400
 4122              	.LASF151:
 4123 05f5 4D454D50 		.ascii	"MEMP_TCPIP_MSG_INPKT\000"
 4123      5F544350 
 4123      49505F4D 
 4123      53475F49 
 4123      4E504B54 
 4124              	.LASF20:
 4125 060a 74736C69 		.ascii	"tslices_t\000"
 4125      6365735F 
 4125      7400
 4126              	.LASF167:
 4127 0614 73746174 		.ascii	"stats_mem\000"
 4127      735F6D65 
 4127      6D00
 4128              	.LASF65:
 4129 061e 725F6375 		.ascii	"r_current\000"
 4129      7272656E 
 4129      7400
 4130              	.LASF170:
 4131 0628 696C6C65 		.ascii	"illegal\000"
 4131      67616C00 
 4132              	.LASF165:
 4133 0630 6F707465 		.ascii	"opterr\000"
 4133      727200
 4134              	.LASF215:
 4135 0637 77615F6C 		.ascii	"wa_lwip_thread\000"
 4135      7769705F 
 4135      74687265 
 4135      616400
 4136              	.LASF160:
 4137 0646 63686B65 		.ascii	"chkerr\000"
 4137      727200
 4138              	.LASF111:
 4139 064d 4D414343 		.ascii	"MACConfig\000"
 4139      6F6E6669 
 4139      6700
 4140              	.LASF60:
 4141 0657 725F7175 		.ascii	"r_queue\000"
 4141      65756500 
 4142              	.LASF198:
ARM GAS  /var/folders/5n/p_75w94d66l9ssrldxqdhh700000gn/T//ccMff9NN.s 			page 79


 4143 065f 64657374 		.ascii	"dest\000"
 4143      00
 4144              	.LASF155:
 4145 0664 4D454D50 		.ascii	"MEMP_MAX\000"
 4145      5F4D4158 
 4145      00
 4146              	.LASF124:
 4147 066d 7533325F 		.ascii	"u32_t\000"
 4147      7400
 4148              	.LASF211:
 4149 0673 726C6973 		.ascii	"rlist\000"
 4149      7400
 4150              	.LASF17:
 4151 0679 746D6F64 		.ascii	"tmode_t\000"
 4151      655F7400 
 4152              	.LASF96:
 4153 0681 6C696E6B 		.ascii	"link_up\000"
 4153      5F757000 
 4154              	.LASF64:
 4155 0689 725F6F6C 		.ascii	"r_older\000"
 4155      64657200 
 4156              	.LASF206:
 4157 0691 6D61635F 		.ascii	"mac_config\000"
 4157      636F6E66 
 4157      696700
 4158              	.LASF191:
 4159 069c 6E616D65 		.ascii	"name\000"
 4159      00
 4160              	.LASF68:
 4161 06a1 735F7175 		.ascii	"s_queue\000"
 4161      65756500 
 4162              	.LASF153:
 4163 06a9 4D454D50 		.ascii	"MEMP_PBUF\000"
 4163      5F504255 
 4163      4600
 4164              	.LASF6:
 4165 06b3 73686F72 		.ascii	"short int\000"
 4165      7420696E 
 4165      7400
 4166              	.LASF14:
 4167 06bd 75696E74 		.ascii	"uint64_t\000"
 4167      36345F74 
 4167      00
 4168              	.LASF214:
 4169 06c6 6C776970 		.ascii	"lwip_stats\000"
 4169      5F737461 
 4169      747300
 4170              	.LASF61:
 4171 06d1 725F7072 		.ascii	"r_prio\000"
 4171      696F00
 4172              	.LASF16:
 4173 06d8 626F6F6C 		.ascii	"bool_t\000"
 4173      5F7400
 4174              	.LASF27:
 4175 06df 54687265 		.ascii	"Thread\000"
 4175      616400
 4176              	.LASF202:
ARM GAS  /var/folders/5n/p_75w94d66l9ssrldxqdhh700000gn/T//ccMff9NN.s 			page 80


 4177 06e6 67617465 		.ascii	"gateway\000"
 4177      77617900 
 4178              	.LASF19:
 4179 06ee 74726566 		.ascii	"trefs_t\000"
 4179      735F7400 
 4180              	.LASF89:
 4181 06f6 6D616373 		.ascii	"macstate_t\000"
 4181      74617465 
 4181      5F7400
 4182              	.LASF74:
 4183 0701 4576656E 		.ascii	"EventListener\000"
 4183      744C6973 
 4183      74656E65 
 4183      7200
 4184              	.LASF100:
 4185 070f 72646573 		.ascii	"rdes0\000"
 4185      3000
 4186              	.LASF101:
 4187 0715 72646573 		.ascii	"rdes1\000"
 4187      3100
 4188              	.LASF216:
 4189 071b 474E5520 		.ascii	"GNU C 4.6.2 20111004 (prerelease)\000"
 4189      4320342E 
 4189      362E3220 
 4189      32303131 
 4189      31303034 
 4190              	.LASF103:
 4191 073d 72646573 		.ascii	"rdes3\000"
 4191      3300
 4192              	.LASF11:
 4193 0743 75696E74 		.ascii	"uint32_t\000"
 4193      33325F74 
 4193      00
 4194              	.LASF54:
 4195 074c 56697274 		.ascii	"VirtualTimer\000"
 4195      75616C54 
 4195      696D6572 
 4195      00
 4196              	.LASF127:
 4197 0759 50425546 		.ascii	"PBUF_TRANSPORT\000"
 4197      5F545241 
 4197      4E53504F 
 4197      525400
 4198              	.LASF47:
 4199 0768 54687265 		.ascii	"ThreadsQueue\000"
 4199      61647351 
 4199      75657565 
 4199      00
 4200              	.LASF218:
 4201 0775 2F557365 		.ascii	"/Users/sin/Documents/Eclipse/Workspace/mabl-ChibiOS"
 4201      72732F73 
 4201      696E2F44 
 4201      6F63756D 
 4201      656E7473 
 4202 07a8 2D322E35 		.ascii	"-2.5.1/demos/ARMCM4-STM32F407-LWIP\000"
 4202      2E312F64 
 4202      656D6F73 
ARM GAS  /var/folders/5n/p_75w94d66l9ssrldxqdhh700000gn/T//ccMff9NN.s 			page 81


 4202      2F41524D 
 4202      434D342D 
 4203              	.LASF87:
 4204 07cb 4D41435F 		.ascii	"MAC_STOP\000"
 4204      53544F50 
 4204      00
 4205              	.LASF81:
 4206 07d4 7264796D 		.ascii	"rdymsg\000"
 4206      736700
 4207              	.LASF114:
 4208 07db 70687973 		.ascii	"physdesc\000"
 4208      64657363 
 4208      00
 4209              	.LASF8:
 4210 07e4 73686F72 		.ascii	"short unsigned int\000"
 4210      7420756E 
 4210      7369676E 
 4210      65642069 
 4210      6E7400
 4211              	.LASF109:
 4212 07f7 73746D33 		.ascii	"stm32_eth_tx_descriptor_t\000"
 4212      325F6574 
 4212      685F7478 
 4212      5F646573 
 4212      63726970 
 4213              	.LASF220:
 4214 0811 6C6F775F 		.ascii	"low_level_input\000"
 4214      6C657665 
 4214      6C5F696E 
 4214      70757400 
 4215              	.LASF121:
 4216 0821 75385F74 		.ascii	"u8_t\000"
 4216      00
 4217              	.LASF116:
 4218 0826 4D414352 		.ascii	"MACReceiveDescriptor\000"
 4218      65636569 
 4218      76654465 
 4218      73637269 
 4218      70746F72 
 4219              	.LASF77:
 4220 083b 656C5F6D 		.ascii	"el_mask\000"
 4220      61736B00 
 4221              	.LASF66:
 4222 0843 52656164 		.ascii	"ReadyList\000"
 4222      794C6973 
 4222      7400
 4223              	.LASF131:
 4224 084d 50425546 		.ascii	"PBUF_RAM\000"
 4224      5F52414D 
 4224      00
 4225              	.LASF99:
 4226 0856 74787074 		.ascii	"txptr\000"
 4226      7200
 4227              	.LASF130:
 4228 085c 50425546 		.ascii	"PBUF_RAW\000"
 4228      5F524157 
 4228      00
ARM GAS  /var/folders/5n/p_75w94d66l9ssrldxqdhh700000gn/T//ccMff9NN.s 			page 82


 4229              	.LASF34:
 4230 0865 705F6E61 		.ascii	"p_name\000"
 4230      6D6500
 4231              	.LASF93:
 4232 086c 74647365 		.ascii	"tdsem\000"
 4232      6D00
 4233              	.LASF57:
 4234 0872 76745F74 		.ascii	"vt_time\000"
 4234      696D6500 
 4235              	.LASF73:
 4236 087a 6D5F6E65 		.ascii	"m_next\000"
 4236      787400
 4237              	.LASF144:
 4238 0881 4D454D50 		.ascii	"MEMP_TCP_PCB_LISTEN\000"
 4238      5F544350 
 4238      5F504342 
 4238      5F4C4953 
 4238      54454E00 
 4239              	.LASF129:
 4240 0895 50425546 		.ascii	"PBUF_LINK\000"
 4240      5F4C494E 
 4240      4B00
 4241              	.LASF42:
 4242 089f 705F6D73 		.ascii	"p_msg\000"
 4242      6700
 4243              	.LASF76:
 4244 08a5 656C5F6C 		.ascii	"el_listener\000"
 4244      69737465 
 4244      6E657200 
 4245              	.LASF35:
 4246 08b1 705F7374 		.ascii	"p_state\000"
 4246      61746500 
 4247              		.ident	"GCC: (Linaro GCC 4.6-2011.10) 4.6.2 20111004 (prerelease)"
ARM GAS  /var/folders/5n/p_75w94d66l9ssrldxqdhh700000gn/T//ccMff9NN.s 			page 83


DEFINED SYMBOLS
                            *ABS*:0000000000000000 lwipthread.c
/var/folders/5n/p_75w94d66l9ssrldxqdhh700000gn/T//ccMff9NN.s:18     .text.ethernetif_init:0000000000000000 $t
/var/folders/5n/p_75w94d66l9ssrldxqdhh700000gn/T//ccMff9NN.s:23     .text.ethernetif_init:0000000000000000 ethernetif_init
/var/folders/5n/p_75w94d66l9ssrldxqdhh700000gn/T//ccMff9NN.s:88     .text.low_level_output:0000000000000000 low_level_output
/var/folders/5n/p_75w94d66l9ssrldxqdhh700000gn/T//ccMff9NN.s:83     .text.low_level_output:0000000000000000 $t
/var/folders/5n/p_75w94d66l9ssrldxqdhh700000gn/T//ccMff9NN.s:153    .text.low_level_output:0000000000000040 $d
/var/folders/5n/p_75w94d66l9ssrldxqdhh700000gn/T//ccMff9NN.s:159    .text.lwip_thread:0000000000000000 $t
/var/folders/5n/p_75w94d66l9ssrldxqdhh700000gn/T//ccMff9NN.s:165    .text.lwip_thread:0000000000000000 lwip_thread
/var/folders/5n/p_75w94d66l9ssrldxqdhh700000gn/T//ccMff9NN.s:506    .text.lwip_thread:00000000000001b4 $d
/var/folders/5n/p_75w94d66l9ssrldxqdhh700000gn/T//ccMff9NN.s:529    .bss.wa_lwip_thread:0000000000000000 wa_lwip_thread
/var/folders/5n/p_75w94d66l9ssrldxqdhh700000gn/T//ccMff9NN.s:526    .bss.wa_lwip_thread:0000000000000000 $d
/var/folders/5n/p_75w94d66l9ssrldxqdhh700000gn/T//ccMff9NN.s:532    .rodata.str1.4:0000000000000000 $d
/var/folders/5n/p_75w94d66l9ssrldxqdhh700000gn/T//ccMff9NN.s:536    .bss.thisif.4483:0000000000000000 $d
/var/folders/5n/p_75w94d66l9ssrldxqdhh700000gn/T//ccMff9NN.s:540    .bss.thisif.4483:0000000000000000 thisif.4483
/var/folders/5n/p_75w94d66l9ssrldxqdhh700000gn/T//ccMff9NN.s:543    .rodata.mac_config.4484:0000000000000000 $d
/var/folders/5n/p_75w94d66l9ssrldxqdhh700000gn/T//ccMff9NN.s:547    .rodata.mac_config.4484:0000000000000000 mac_config.4484
                     .debug_frame:0000000000000010 $d
/var/folders/5n/p_75w94d66l9ssrldxqdhh700000gn/T//ccMff9NN.s:158    .text.low_level_output:0000000000000048 $t

UNDEFINED SYMBOLS
etharp_output
macWaitTransmitDescriptor
mac_lld_write_transmit_descriptor
macReleaseTransmitDescriptor
ETHD1
lwip_stats
sys_init
mem_init
memp_init
netif_init
tcpip_init
macStart
netif_add
netif_set_default
netif_set_up
evtStart
chEvtRegisterMask
chEvtAddEvents
chThdSetPriority
chEvtWaitAny
macPollLinkStatus
tcpip_callback_with_block
macWaitReceiveDescriptor
pbuf_alloc
mac_lld_read_receive_descriptor
macReleaseReceiveDescriptor
lwip_htons
pbuf_free
rlist
tcpip_input
netif_set_link_up
netif_set_link_down
