ARM GAS  /var/folders/5n/p_75w94d66l9ssrldxqdhh700000gn/T//ccMff9NN.s 			page 1


   1              		.syntax unified
   2              		.cpu cortex-m4
   3              		.fpu softvfp
   4              		.eabi_attribute 20, 1
   5              		.eabi_attribute 21, 1
   6              		.eabi_attribute 23, 3
   7              		.eabi_attribute 24, 1
   8              		.eabi_attribute 25, 1
   9              		.eabi_attribute 26, 1
  10              		.eabi_attribute 30, 2
  11              		.eabi_attribute 18, 4
  12              		.thumb
  13              		.file	"lwipthread.c"
  14              		.text
  15              	.Ltext0:
  16              		.cfi_sections	.debug_frame
  17              		.section	.text.ethernetif_init,"ax",%progbits
  18              		.align	2
  19              		.p2align 4,,15
  20              		.thumb
  21              		.thumb_func
  22              		.type	ethernetif_init, %function
  23              	ethernetif_init:
  24              	.LFB121:
  25              		.file 1 "../../os/various/lwip_bindings/lwipthread.c"
  26              		.loc 1 183 0
  27              		.cfi_startproc
  28              		@ args = 0, pretend = 0, frame = 0
  29              		@ frame_needed = 0, uses_anonymous_args = 0
  30              		@ link register save eliminated.
  31              	.LVL0:
  32              		.loc 1 183 0
  33 0000 0346     		mov	r3, r0
  34              		.loc 1 197 0
  35 0002 6D22     		movs	r2, #109
  36 0004 83F82A20 		strb	r2, [r3, #42]
  37              		.loc 1 198 0
  38 0008 7322     		movs	r2, #115
  39 000a 83F82B20 		strb	r2, [r3, #43]
  40              		.loc 1 203 0
  41 000e 40F20002 		movw	r2, #:lower16:etharp_output
  42 0012 C0F20002 		movt	r2, #:upper16:etharp_output
  43 0016 5A61     		str	r2, [r3, #20]
  44              		.loc 1 204 0
  45 0018 40F20002 		movw	r2, #:lower16:low_level_output
  46 001c C0F20002 		movt	r2, #:upper16:low_level_output
  47 0020 9A61     		str	r2, [r3, #24]
  48              	.LVL1:
  49              	.LBB4:
  50              	.LBB5:
  51              		.loc 1 93 0
  52 0022 0622     		movs	r2, #6
  53 0024 83F82220 		strb	r2, [r3, #34]
  54              		.loc 1 96 0
  55 0028 40F2DC52 		movw	r2, #1500
  56              	.LBE5:
  57              	.LBE4:
ARM GAS  /var/folders/5n/p_75w94d66l9ssrldxqdhh700000gn/T//ccMff9NN.s 			page 2


  58              		.loc 1 196 0
  59 002c 0020     		movs	r0, #0
  60              	.LVL2:
  61              	.LBB8:
  62              	.LBB6:
  63              		.loc 1 96 0
  64 002e 1A84     		strh	r2, [r3, #32]	@ movhi
  65              		.loc 1 100 0
  66 0030 3222     		movs	r2, #50
  67              	.LBE6:
  68              	.LBE8:
  69              		.loc 1 196 0
  70 0032 D861     		str	r0, [r3, #28]
  71              	.LBB9:
  72              	.LBB7:
  73              		.loc 1 100 0
  74 0034 83F82920 		strb	r2, [r3, #41]
  75              	.LBE7:
  76              	.LBE9:
  77              		.loc 1 210 0
  78 0038 7047     		bx	lr
  79              		.cfi_endproc
  80              	.LFE121:
  81              		.size	ethernetif_init, .-ethernetif_init
  82 003a 00BFAFF3 		.section	.text.low_level_output,"ax",%progbits
  82      0080
  83              		.align	2
  84              		.p2align 4,,15
  85              		.thumb
  86              		.thumb_func
  87              		.type	low_level_output, %function
  88              	low_level_output:
  89              	.LFB119:
  90              		.loc 1 108 0
  91              		.cfi_startproc
  92              		@ args = 0, pretend = 0, frame = 16
  93              		@ frame_needed = 0, uses_anonymous_args = 0
  94              	.LVL3:
  95 0000 10B5     		push	{r4, lr}
  96              	.LCFI0:
  97              		.cfi_def_cfa_offset 8
  98              		.cfi_offset 14, -4
  99              		.cfi_offset 4, -8
 100 0002 84B0     		sub	sp, sp, #16
 101              	.LCFI1:
 102              		.cfi_def_cfa_offset 24
 103              		.loc 1 108 0
 104 0004 0C46     		mov	r4, r1
 105              		.loc 1 113 0
 106 0006 0E48     		ldr	r0, .L11
 107              	.LVL4:
 108 0008 01A9     		add	r1, sp, #4
 109              	.LVL5:
 110 000a 3222     		movs	r2, #50
 111 000c FFF7FEFF 		bl	macWaitTransmitDescriptor
 112 0010 98B9     		cbnz	r0, .L6
 113              	.LVL6:
ARM GAS  /var/folders/5n/p_75w94d66l9ssrldxqdhh700000gn/T//ccMff9NN.s 			page 3


 114              		.loc 1 121 0 discriminator 2
 115 0012 3CB1     		cbz	r4, .L10
 116              	.LVL7:
 117              	.L5:
 118              		.loc 1 122 0 discriminator 2
 119 0014 6168     		ldr	r1, [r4, #4]
 120 0016 6289     		ldrh	r2, [r4, #10]
 121 0018 01A8     		add	r0, sp, #4
 122 001a FFF7FEFF 		bl	mac_lld_write_transmit_descriptor
 123              		.loc 1 121 0 discriminator 2
 124 001e 2468     		ldr	r4, [r4, #0]
 125              	.LVL8:
 126 0020 002C     		cmp	r4, #0
 127 0022 F7D1     		bne	.L5
 128              	.L10:
 129              		.loc 1 123 0
 130 0024 01A8     		add	r0, sp, #4
 131 0026 FFF7FEFF 		bl	macReleaseTransmitDescriptor
 132              		.loc 1 129 0
 133 002a 064B     		ldr	r3, .L11+4
 134 002c 1A88     		ldrh	r2, [r3, #0]
 135 002e 0132     		adds	r2, r2, #1
 136 0030 1A80     		strh	r2, [r3, #0]	@ movhi
 137              		.loc 1 131 0
 138 0032 0020     		movs	r0, #0
 139              	.LVL9:
 140              	.L3:
 141              		.loc 1 132 0
 142 0034 40B2     		sxtb	r0, r0
 143 0036 04B0     		add	sp, sp, #16
 144 0038 10BD     		pop	{r4, pc}
 145              	.LVL10:
 146              	.L6:
 147              		.loc 1 114 0
 148 003a FD20     		movs	r0, #253
 149 003c FAE7     		b	.L3
 150              	.L12:
 151 003e 00BF     		.align	2
 152              	.L11:
 153 0040 00000000 		.word	ETHD1
 154 0044 00000000 		.word	lwip_stats
 155              		.cfi_endproc
 156              	.LFE119:
 157              		.size	low_level_output, .-low_level_output
 158 0048 AFF30080 		.section	.text.lwip_thread,"ax",%progbits
 158      AFF30080 
 159              		.align	2
 160              		.p2align 4,,15
 161              		.global	lwip_thread
 162              		.thumb
 163              		.thumb_func
 164              		.type	lwip_thread, %function
 165              	lwip_thread:
 166              	.LFB122:
 167              		.loc 1 218 0
 168              		.cfi_startproc
 169              		@ args = 0, pretend = 0, frame = 88
ARM GAS  /var/folders/5n/p_75w94d66l9ssrldxqdhh700000gn/T//ccMff9NN.s 			page 4


 170              		@ frame_needed = 0, uses_anonymous_args = 0
 171              	.LVL11:
 172 0000 2DE9F041 		push	{r4, r5, r6, r7, r8, lr}
 173              	.LCFI2:
 174              		.cfi_def_cfa_offset 24
 175              		.cfi_offset 14, -4
 176              		.cfi_offset 8, -8
 177              		.cfi_offset 7, -12
 178              		.cfi_offset 6, -16
 179              		.cfi_offset 5, -20
 180              		.cfi_offset 4, -24
 181              		.loc 1 225 0
 182 0004 6B4B     		ldr	r3, .L38
 183 0006 6C4A     		ldr	r2, .L38+4
 184 0008 9B69     		ldr	r3, [r3, #24]
 185 000a 6C4C     		ldr	r4, .L38+8
 186 000c 9A61     		str	r2, [r3, #24]
 187              		.loc 1 218 0
 188 000e 9AB0     		sub	sp, sp, #104
 189              	.LCFI3:
 190              		.cfi_def_cfa_offset 128
 191              		.loc 1 218 0
 192 0010 0546     		mov	r5, r0
 193              		.loc 1 228 0
 194 0012 FFF7FEFF 		bl	sys_init
 195              	.LVL12:
 196              		.loc 1 229 0
 197 0016 FFF7FEFF 		bl	mem_init
 198              		.loc 1 230 0
 199 001a FFF7FEFF 		bl	memp_init
 200              		.loc 1 232 0
 201 001e FFF7FEFF 		bl	netif_init
 202              		.loc 1 234 0
 203 0022 0020     		movs	r0, #0
 204 0024 0146     		mov	r1, r0
 205 0026 FFF7FEFF 		bl	tcpip_init
 206              		.loc 1 237 0
 207 002a 7DB1     		cbz	r5, .L14
 208 002c 0023     		movs	r3, #0
 209              	.L15:
 210              	.LBB17:
 211              		.loc 1 242 0 discriminator 2
 212 002e 2968     		ldr	r1, [r5, #0]
 213              		.loc 1 218 0 discriminator 2
 214 0030 E218     		adds	r2, r4, r3
 215              		.loc 1 242 0 discriminator 2
 216 0032 C95C     		ldrb	r1, [r1, r3]	@ zero_extendqisi2
 217              		.loc 1 241 0 discriminator 2
 218 0034 0133     		adds	r3, r3, #1
 219              	.LVL13:
 220 0036 062B     		cmp	r3, #6
 221              		.loc 1 242 0 discriminator 2
 222 0038 82F82310 		strb	r1, [r2, #35]
 223              		.loc 1 241 0 discriminator 2
 224 003c F7D1     		bne	.L15
 225              		.loc 1 243 0
 226 003e 6968     		ldr	r1, [r5, #4]
ARM GAS  /var/folders/5n/p_75w94d66l9ssrldxqdhh700000gn/T//ccMff9NN.s 			page 5


 227              		.loc 1 244 0
 228 0040 EA68     		ldr	r2, [r5, #12]
 229              		.loc 1 245 0
 230 0042 AB68     		ldr	r3, [r5, #8]
 231              	.LVL14:
 232              		.loc 1 243 0
 233 0044 1791     		str	r1, [sp, #92]
 234              		.loc 1 244 0
 235 0046 1892     		str	r2, [sp, #96]
 236              		.loc 1 245 0
 237 0048 1993     		str	r3, [sp, #100]
 238 004a 1DE0     		b	.L16
 239              	.L14:
 240              	.LBE17:
 241              		.loc 1 248 0
 242 004c C221     		movs	r1, #194
 243 004e 84F82310 		strb	r1, [r4, #35]
 244              		.loc 1 249 0
 245 0052 AF21     		movs	r1, #175
 246              		.loc 1 254 0
 247 0054 4AF6C002 		movw	r2, #43200
 248              		.loc 1 249 0
 249 0058 84F82410 		strb	r1, [r4, #36]
 250              		.loc 1 250 0
 251 005c 5121     		movs	r1, #81
 252              		.loc 1 255 0
 253 005e 1346     		mov	r3, r2
 254              		.loc 1 250 0
 255 0060 84F82510 		strb	r1, [r4, #37]
 256              		.loc 1 251 0
 257 0064 0321     		movs	r1, #3
 258              		.loc 1 255 0
 259 0066 C0F20113 		movt	r3, 257
 260              		.loc 1 251 0
 261 006a 84F82610 		strb	r1, [r4, #38]
 262              		.loc 1 252 0
 263 006e CF21     		movs	r1, #207
 264              		.loc 1 254 0
 265 0070 C1F20142 		movt	r2, 5121
 266              		.loc 1 252 0
 267 0074 84F82710 		strb	r1, [r4, #39]
 268              		.loc 1 255 0
 269 0078 1893     		str	r3, [sp, #96]
 270              		.loc 1 253 0
 271 007a 4621     		movs	r1, #70
 272              		.loc 1 256 0
 273 007c 6FF07F43 		mvn	r3, #-16777216
 274              		.loc 1 253 0
 275 0080 84F82810 		strb	r1, [r4, #40]
 276              		.loc 1 254 0
 277 0084 1792     		str	r2, [sp, #92]
 278              		.loc 1 256 0
 279 0086 1993     		str	r3, [sp, #100]
 280              	.L16:
 281              		.loc 1 258 0
 282 0088 4D48     		ldr	r0, .L38+12
 283 008a 4E49     		ldr	r1, .L38+16
ARM GAS  /var/folders/5n/p_75w94d66l9ssrldxqdhh700000gn/T//ccMff9NN.s 			page 6


 284              		.loc 1 259 0
 285 008c 4E4F     		ldr	r7, .L38+20
 286 008e 4F4D     		ldr	r5, .L38+24
 287              	.LVL15:
 288              		.loc 1 258 0
 289 0090 FFF7FEFF 		bl	macStart
 290              		.loc 1 259 0
 291 0094 4E4B     		ldr	r3, .L38+28
 292 0096 4948     		ldr	r0, .L38+8
 293 0098 0193     		str	r3, [sp, #4]
 294 009a 17A9     		add	r1, sp, #92
 295 009c 19AA     		add	r2, sp, #100
 296 009e 18AB     		add	r3, sp, #96
 297 00a0 0026     		movs	r6, #0
 298 00a2 0297     		str	r7, [sp, #8]
 299 00a4 0096     		str	r6, [sp, #0]
 300 00a6 FFF7FEFF 		bl	netif_add
 301              		.loc 1 261 0
 302 00aa 4448     		ldr	r0, .L38+8
 303 00ac FFF7FEFF 		bl	netif_set_default
 304              		.loc 1 262 0
 305 00b0 4248     		ldr	r0, .L38+8
 306 00b2 FFF7FEFF 		bl	netif_set_up
 307              		.loc 1 265 0
 308 00b6 05AB     		add	r3, sp, #20
 309 00b8 0AAF     		add	r7, sp, #40
 310              		.loc 1 266 0
 311 00ba 1846     		mov	r0, r3
 312              		.loc 1 265 0
 313 00bc 41F28833 		movw	r3, #5000
 314 00c0 0B93     		str	r3, [sp, #44]
 315 00c2 0A97     		str	r7, [sp, #40]
 316 00c4 0896     		str	r6, [sp, #32]
 317              		.loc 1 266 0
 318 00c6 FFF7FEFF 		bl	evtStart
 319              		.loc 1 267 0
 320 00ca 3846     		mov	r0, r7
 321 00cc 0CA9     		add	r1, sp, #48
 322 00ce 0122     		movs	r2, #1
 323 00d0 FFF7FEFF 		bl	chEvtRegisterMask
 324              		.loc 1 268 0
 325 00d4 10A9     		add	r1, sp, #64
 326 00d6 0222     		movs	r2, #2
 327 00d8 3E48     		ldr	r0, .L38+32
 328 00da FFF7FEFF 		bl	chEvtRegisterMask
 329              		.loc 1 269 0
 330 00de 0320     		movs	r0, #3
 331 00e0 FFF7FEFF 		bl	chEvtAddEvents
 332              		.loc 1 272 0
 333 00e4 0220     		movs	r0, #2
 334 00e6 FFF7FEFF 		bl	chThdSetPriority
 335 00ea 01E0     		b	.L36
 336              	.LVL16:
 337              	.L17:
 338              	.LBB18:
 339              		.loc 1 287 0
 340 00ec B307     		lsls	r3, r6, #30
ARM GAS  /var/folders/5n/p_75w94d66l9ssrldxqdhh700000gn/T//ccMff9NN.s 			page 7


 341 00ee 19D4     		bmi	.L37
 342              	.LVL17:
 343              	.L36:
 344              		.loc 1 275 0
 345 00f0 4FF0FF30 		mov	r0, #-1
 346 00f4 FFF7FEFF 		bl	chEvtWaitAny
 347              		.loc 1 276 0
 348 00f8 C207     		lsls	r2, r0, #31
 349              		.loc 1 275 0
 350 00fa 0646     		mov	r6, r0
 351              	.LVL18:
 352              		.loc 1 276 0
 353 00fc F6D5     		bpl	.L17
 354              	.LBB19:
 355              		.loc 1 277 0
 356 00fe 3048     		ldr	r0, .L38+12
 357              	.LVL19:
 358 0100 FFF7FEFF 		bl	macPollLinkStatus
 359              		.loc 1 278 0
 360 0104 94F82930 		ldrb	r3, [r4, #41]	@ zero_extendqisi2
 361 0108 C3F30013 		ubfx	r3, r3, #4, #1
 362 010c 9842     		cmp	r0, r3
 363              		.loc 1 277 0
 364 010e 0246     		mov	r2, r0
 365              	.LVL20:
 366              		.loc 1 278 0
 367 0110 ECD0     		beq	.L17
 368              		.loc 1 279 0
 369 0112 0028     		cmp	r0, #0
 370 0114 37D0     		beq	.L18
 371              		.loc 1 280 0
 372 0116 0022     		movs	r2, #0
 373 0118 2849     		ldr	r1, .L38+8
 374 011a 2F48     		ldr	r0, .L38+36
 375              	.LVL21:
 376 011c FFF7FEFF 		bl	tcpip_callback_with_block
 377              	.LBE19:
 378              		.loc 1 287 0
 379 0120 B307     		lsls	r3, r6, #30
 380 0122 E5D5     		bpl	.L36
 381              	.L37:
 382              	.LBB20:
 383              	.LBB21:
 384              		.loc 1 291 0 discriminator 1
 385 0124 40F60608 		movw	r8, #2054
 386              	.LVL22:
 387              	.L35:
 388              	.LBE21:
 389              	.LBB22:
 390              	.LBB23:
 391              		.loc 1 143 0 discriminator 1
 392 0128 2548     		ldr	r0, .L38+12
 393 012a 14A9     		add	r1, sp, #80
 394 012c 0022     		movs	r2, #0
 395 012e FFF7FEFF 		bl	macWaitReceiveDescriptor
 396 0132 0028     		cmp	r0, #0
 397 0134 DCD1     		bne	.L36
ARM GAS  /var/folders/5n/p_75w94d66l9ssrldxqdhh700000gn/T//ccMff9NN.s 			page 8


 398              	.LVL23:
 399              		.loc 1 151 0
 400 0136 0320     		movs	r0, #3
 401 0138 BDF85410 		ldrh	r1, [sp, #84]
 402 013c 0246     		mov	r2, r0
 403 013e FFF7FEFF 		bl	pbuf_alloc
 404              	.LVL24:
 405              		.loc 1 153 0
 406 0142 0746     		mov	r7, r0
 407 0144 0028     		cmp	r0, #0
 408 0146 2AD0     		beq	.L25
 409 0148 0646     		mov	r6, r0
 410              	.LVL25:
 411              	.L26:
 412              		.loc 1 161 0
 413 014a 7168     		ldr	r1, [r6, #4]
 414 014c 7289     		ldrh	r2, [r6, #10]
 415 014e 14A8     		add	r0, sp, #80
 416 0150 FFF7FEFF 		bl	mac_lld_read_receive_descriptor
 417              		.loc 1 160 0
 418 0154 3668     		ldr	r6, [r6, #0]
 419              	.LVL26:
 420 0156 002E     		cmp	r6, #0
 421 0158 F7D1     		bne	.L26
 422              		.loc 1 162 0
 423 015a 14A8     		add	r0, sp, #80
 424 015c FFF7FEFF 		bl	macReleaseReceiveDescriptor
 425              		.loc 1 168 0
 426 0160 6A88     		ldrh	r2, [r5, #2]
 427              	.LBE23:
 428              	.LBE22:
 429              	.LBB26:
 430              		.loc 1 291 0
 431 0162 7B68     		ldr	r3, [r7, #4]
 432              	.LBE26:
 433              	.LBB27:
 434              	.LBB24:
 435              		.loc 1 168 0
 436 0164 0132     		adds	r2, r2, #1
 437 0166 6A80     		strh	r2, [r5, #2]	@ movhi
 438              	.LVL27:
 439              	.LBE24:
 440              	.LBE27:
 441              	.LBB28:
 442              		.loc 1 291 0
 443 0168 1A7B     		ldrb	r2, [r3, #12]	@ zero_extendqisi2
 444 016a 587B     		ldrb	r0, [r3, #13]	@ zero_extendqisi2
 445 016c 42EA0020 		orr	r0, r2, r0, lsl #8
 446 0170 FFF7FEFF 		bl	lwip_htons
 447              	.LVL28:
 448 0174 B0F5006F 		cmp	r0, #2048
 449 0178 0AD0     		beq	.L21
 450 017a 4045     		cmp	r0, r8
 451 017c 08D0     		beq	.L21
 452              	.L23:
 453              		.loc 1 305 0
 454 017e 3846     		mov	r0, r7
ARM GAS  /var/folders/5n/p_75w94d66l9ssrldxqdhh700000gn/T//ccMff9NN.s 			page 9


 455 0180 FFF7FEFF 		bl	pbuf_free
 456 0184 D0E7     		b	.L35
 457              	.LVL29:
 458              	.L18:
 459              	.LBE28:
 460              	.LBE20:
 461              	.LBB31:
 462              		.loc 1 283 0
 463 0186 0D49     		ldr	r1, .L38+8
 464 0188 1448     		ldr	r0, .L38+40
 465              	.LVL30:
 466 018a FFF7FEFF 		bl	tcpip_callback_with_block
 467              	.LVL31:
 468 018e ADE7     		b	.L17
 469              	.LVL32:
 470              	.L21:
 471              	.LBE31:
 472              	.LBB32:
 473              	.LBB29:
 474              		.loc 1 301 0
 475 0190 2369     		ldr	r3, [r4, #16]
 476 0192 0A49     		ldr	r1, .L38+8
 477 0194 3846     		mov	r0, r7
 478 0196 9847     		blx	r3
 479 0198 0028     		cmp	r0, #0
 480 019a C5D0     		beq	.L35
 481 019c EFE7     		b	.L23
 482              	.LVL33:
 483              	.L25:
 484              	.LBE29:
 485              	.LBB30:
 486              	.LBB25:
 487              		.loc 1 171 0
 488 019e 14A8     		add	r0, sp, #80
 489 01a0 FFF7FEFF 		bl	macReleaseReceiveDescriptor
 490              		.loc 1 172 0
 491 01a4 AA89     		ldrh	r2, [r5, #12]
 492              		.loc 1 173 0
 493 01a6 EB88     		ldrh	r3, [r5, #6]
 494              		.loc 1 172 0
 495 01a8 0132     		adds	r2, r2, #1
 496              		.loc 1 173 0
 497 01aa 0133     		adds	r3, r3, #1
 498              		.loc 1 172 0
 499 01ac AA81     		strh	r2, [r5, #12]	@ movhi
 500              		.loc 1 173 0
 501 01ae EB80     		strh	r3, [r5, #6]	@ movhi
 502 01b0 9EE7     		b	.L36
 503              	.L39:
 504 01b2 00BF     		.align	2
 505              	.L38:
 506 01b4 00000000 		.word	rlist
 507 01b8 00000000 		.word	.LC0
 508 01bc 00000000 		.word	.LANCHOR0
 509 01c0 00000000 		.word	ETHD1
 510 01c4 00000000 		.word	.LANCHOR1
 511 01c8 00000000 		.word	tcpip_input
ARM GAS  /var/folders/5n/p_75w94d66l9ssrldxqdhh700000gn/T//ccMff9NN.s 			page 10


 512 01cc 00000000 		.word	lwip_stats
 513 01d0 00000000 		.word	ethernetif_init
 514 01d4 20000000 		.word	ETHD1+32
 515 01d8 00000000 		.word	netif_set_link_up
 516 01dc 00000000 		.word	netif_set_link_down
 517              	.LBE25:
 518              	.LBE30:
 519              	.LBE32:
 520              	.LBE18:
 521              		.cfi_endproc
 522              	.LFE122:
 523              		.size	lwip_thread, .-lwip_thread
 524              		.global	wa_lwip_thread
 525              		.section	.bss.wa_lwip_thread,"aw",%nobits
 526              		.align	3
 527              		.type	wa_lwip_thread, %object
 528              		.size	wa_lwip_thread, 688
 529              	wa_lwip_thread:
 530 0000 00000000 		.space	688
 530      00000000 
 530      00000000 
 530      00000000 
 530      00000000 
 531              		.section	.rodata.str1.4,"aMS",%progbits,1
 532              		.align	2
 533              	.LC0:
 534 0000 6C776970 		.ascii	"lwipthread\000"
 534      74687265 
 534      616400
 535 000b 00       		.section	.bss.thisif.4483,"aw",%nobits
 536              		.align	2
 537              		.set	.LANCHOR0,. + 0
 538              		.type	thisif.4483, %object
 539              		.size	thisif.4483, 48
 540              	thisif.4483:
 541 0000 00000000 		.space	48
 541      00000000 
 541      00000000 
 541      00000000 
 541      00000000 
 542              		.section	.rodata.mac_config.4484,"a",%progbits
 543              		.align	2
 544              		.set	.LANCHOR1,. + 0
 545              		.type	mac_config.4484, %object
 546              		.size	mac_config.4484, 4
 547              	mac_config.4484:
 548 0000 23000000 		.word	thisif.4483+35
 549              		.text
 550              	.Letext0:
 551              		.file 2 "/usr/local/summon/lib/gcc/arm-none-eabi/4.6.2/include/stddef.h"
 552              		.file 3 "/usr/local/summon/lib/gcc/arm-none-eabi/4.6.2/../../../../arm-none-eabi/include/stdint.h"
 553              		.file 4 "../../os/ports/GCC/ARMCMx/chtypes.h"
 554              		.file 5 "../../os/kernel/include/chlists.h"
 555              		.file 6 "../../os/kernel/include/chthreads.h"
 556              		.file 7 "../../os/ports/GCC/ARMCMx/chcore_v7m.h"
 557              		.file 8 "../../os/kernel/include/chvt.h"
 558              		.file 9 "../../os/kernel/include/chschd.h"
ARM GAS  /var/folders/5n/p_75w94d66l9ssrldxqdhh700000gn/T//ccMff9NN.s 			page 11


 559              		.file 10 "../../os/kernel/include/chsem.h"
 560              		.file 11 "../../os/kernel/include/chmtx.h"
 561              		.file 12 "../../os/kernel/include/chevents.h"
 562              		.file 13 "../../os/hal/include/mac.h"
 563              		.file 14 "../../os/hal/platforms/STM32/mac_lld.h"
 564              		.file 15 "../../os/various/evtimer.h"
 565              		.file 16 "../../os/various/lwip_bindings/arch/cc.h"
 566              		.file 17 "../../ext/lwip/src/include/lwip/mem.h"
 567              		.file 18 "../../ext/lwip/src/include/lwip/err.h"
 568              		.file 19 "../../ext/lwip/src/include/lwip/pbuf.h"
 569              		.file 20 "../../ext/lwip/src/include/lwip/memp.h"
 570              		.file 21 "../../ext/lwip/src/include/lwip/stats.h"
 571              		.file 22 "../../ext/lwip/src/include/ipv4/lwip/ip_addr.h"
 572              		.file 23 "../../ext/lwip/src/include/lwip/netif.h"
 573              		.file 24 "../../ext/lwip/src/include/lwip/tcpip.h"
 574              		.file 25 "../../ext/lwip/src/include/netif/etharp.h"
 575              		.file 26 "../../os/various/lwip_bindings/lwipthread.h"
 576              		.file 27 "../../os/ports/common/ARMCMx/CMSIS/include/core_cm4.h"