ARM GAS  /var/folders/5n/p_75w94d66l9ssrldxqdhh700000gn/T//ccISYCG7.s 			page 1


   1              		.syntax unified
   2              		.cpu cortex-m4
   3              		.fpu softvfp
   4              		.eabi_attribute 20, 1
   5              		.eabi_attribute 21, 1
   6              		.eabi_attribute 23, 3
   7              		.eabi_attribute 24, 1
   8              		.eabi_attribute 25, 1
   9              		.eabi_attribute 26, 1
  10              		.eabi_attribute 30, 2
  11              		.eabi_attribute 18, 4
  12              		.thumb
  13              		.file	"mac.c"
  14              		.text
  15              	.Ltext0:
  16              		.cfi_sections	.debug_frame
  17              		.section	.text.macInit,"ax",%progbits
  18              		.align	2
  19              		.p2align 4,,15
  20              		.global	macInit
  21              		.thumb
  22              		.thumb_func
  23              		.type	macInit, %function
  24              	macInit:
  25              	.LFB118:
  26              		.file 1 "../../os/hal/src/mac.c"
  27              		.loc 1 65 0
  28              		.cfi_startproc
  29              		@ args = 0, pretend = 0, frame = 0
  30              		@ frame_needed = 0, uses_anonymous_args = 0
  31              		@ link register save eliminated.
  32              		.loc 1 68 0
  33              		.loc 1 67 0
  34 0000 FFF7FEBF 		b	mac_lld_init
  35              		.cfi_endproc
  36              	.LFE118:
  37              		.size	macInit, .-macInit
  38 0004 AFF30080 		.section	.text.macObjectInit,"ax",%progbits
  38      AFF30080 
  38      AFF30080 
  39              		.align	2
  40              		.p2align 4,,15
  41              		.global	macObjectInit
  42              		.thumb
  43              		.thumb_func
  44              		.type	macObjectInit, %function
  45              	macObjectInit:
  46              	.LFB119:
  47              		.loc 1 77 0
  48              		.cfi_startproc
  49              		@ args = 0, pretend = 0, frame = 0
  50              		@ frame_needed = 0, uses_anonymous_args = 0
  51              	.LVL0:
  52 0000 38B5     		push	{r3, r4, r5, lr}
  53              	.LCFI0:
  54              		.cfi_def_cfa_offset 16
  55              		.cfi_offset 14, -4
ARM GAS  /var/folders/5n/p_75w94d66l9ssrldxqdhh700000gn/T//ccISYCG7.s 			page 2


  56              		.cfi_offset 5, -8
  57              		.cfi_offset 4, -12
  58              		.cfi_offset 3, -16
  59              		.loc 1 77 0
  60 0002 0446     		mov	r4, r0
  61              		.loc 1 79 0
  62 0004 0123     		movs	r3, #1
  63              		.loc 1 80 0
  64 0006 0025     		movs	r5, #0
  65              		.loc 1 79 0
  66 0008 2370     		strb	r3, [r4, #0]
  67              		.loc 1 81 0
  68 000a 00F10800 		add	r0, r0, #8
  69              	.LVL1:
  70 000e 2946     		mov	r1, r5
  71              		.loc 1 80 0
  72 0010 6560     		str	r5, [r4, #4]
  73              		.loc 1 81 0
  74 0012 FFF7FEFF 		bl	chSemInit
  75              		.loc 1 82 0
  76 0016 04F11400 		add	r0, r4, #20
  77 001a 2946     		mov	r1, r5
  78 001c FFF7FEFF 		bl	chSemInit
  79              		.loc 1 84 0
  80 0020 04F12003 		add	r3, r4, #32
  81 0024 2362     		str	r3, [r4, #32]
  82              		.loc 1 86 0
  83 0026 38BD     		pop	{r3, r4, r5, pc}
  84              		.cfi_endproc
  85              	.LFE119:
  86              		.size	macObjectInit, .-macObjectInit
  87 0028 AFF30080 		.section	.text.macStart,"ax",%progbits
  87      AFF30080 
  88              		.align	2
  89              		.p2align 4,,15
  90              		.global	macStart
  91              		.thumb
  92              		.thumb_func
  93              		.type	macStart, %function
  94              	macStart:
  95              	.LFB120:
  96              		.loc 1 96 0
  97              		.cfi_startproc
  98              		@ args = 0, pretend = 0, frame = 0
  99              		@ frame_needed = 0, uses_anonymous_args = 0
 100              	.LVL2:
 101 0000 10B5     		push	{r4, lr}
 102              	.LCFI1:
 103              		.cfi_def_cfa_offset 8
 104              		.cfi_offset 14, -4
 105              		.cfi_offset 4, -8
 106              	.LBB2:
 107              		.loc 1 100 0
 108 0002 2023     		movs	r3, #32
 109              	.LVL3:
 110              	.LBE2:
 111              		.loc 1 96 0
ARM GAS  /var/folders/5n/p_75w94d66l9ssrldxqdhh700000gn/T//ccISYCG7.s 			page 3


 112 0004 0446     		mov	r4, r0
 113              	.LBB3:
 114              		.loc 1 100 0
 115              	@ 100 "../../os/hal/src/mac.c" 1
 116 0006 83F31188 		msr     BASEPRI, r3
 117              	@ 0 "" 2
 118              	.LVL4:
 119              		.thumb
 120              	.LBE3:
 121              		.loc 1 103 0
 122 000a 4160     		str	r1, [r0, #4]
 123              		.loc 1 104 0
 124 000c FFF7FEFF 		bl	mac_lld_start
 125              	.LVL5:
 126              		.loc 1 105 0
 127 0010 0223     		movs	r3, #2
 128 0012 2370     		strb	r3, [r4, #0]
 129              	.LBB4:
 130              		.loc 1 106 0
 131 0014 0023     		movs	r3, #0
 132              	.LVL6:
 133              	@ 106 "../../os/hal/src/mac.c" 1
 134 0016 83F31188 		msr     BASEPRI, r3
 135              	@ 0 "" 2
 136              	.LVL7:
 137              		.thumb
 138              	.LBE4:
 139              		.loc 1 107 0
 140 001a 10BD     		pop	{r4, pc}
 141              		.cfi_endproc
 142              	.LFE120:
 143              		.size	macStart, .-macStart
 144 001c AFF30080 		.section	.text.macStop,"ax",%progbits
 145              		.align	2
 146              		.p2align 4,,15
 147              		.global	macStop
 148              		.thumb
 149              		.thumb_func
 150              		.type	macStop, %function
 151              	macStop:
 152              	.LFB121:
 153              		.loc 1 116 0
 154              		.cfi_startproc
 155              		@ args = 0, pretend = 0, frame = 0
 156              		@ frame_needed = 0, uses_anonymous_args = 0
 157              	.LVL8:
 158 0000 10B5     		push	{r4, lr}
 159              	.LCFI2:
 160              		.cfi_def_cfa_offset 8
 161              		.cfi_offset 14, -4
 162              		.cfi_offset 4, -8
 163              	.LBB5:
 164              		.loc 1 120 0
 165 0002 2023     		movs	r3, #32
 166              	.LVL9:
 167              	.LBE5:
 168              		.loc 1 116 0
ARM GAS  /var/folders/5n/p_75w94d66l9ssrldxqdhh700000gn/T//ccISYCG7.s 			page 4


 169 0004 0446     		mov	r4, r0
 170              	.LBB6:
 171              		.loc 1 120 0
 172              	@ 120 "../../os/hal/src/mac.c" 1
 173 0006 83F31188 		msr     BASEPRI, r3
 174              	@ 0 "" 2
 175              	.LVL10:
 176              		.thumb
 177              	.LBE6:
 178              		.loc 1 123 0
 179 000a FFF7FEFF 		bl	mac_lld_stop
 180              	.LVL11:
 181              		.loc 1 124 0
 182 000e 0123     		movs	r3, #1
 183 0010 2370     		strb	r3, [r4, #0]
 184              	.LBB7:
 185              		.loc 1 125 0
 186 0012 0023     		movs	r3, #0
 187              	.LVL12:
 188              	@ 125 "../../os/hal/src/mac.c" 1
 189 0014 83F31188 		msr     BASEPRI, r3
 190              	@ 0 "" 2
 191              	.LVL13:
 192              		.thumb
 193              	.LBE7:
 194              		.loc 1 126 0
 195 0018 10BD     		pop	{r4, pc}
 196              		.cfi_endproc
 197              	.LFE121:
 198              		.size	macStop, .-macStop
 199 001a 00BFAFF3 		.section	.text.macWaitTransmitDescriptor,"ax",%progbits
 199      0080
 200              		.align	2
 201              		.p2align 4,,15
 202              		.global	macWaitTransmitDescriptor
 203              		.thumb
 204              		.thumb_func
 205              		.type	macWaitTransmitDescriptor, %function
 206              	macWaitTransmitDescriptor:
 207              	.LFB122:
 208              		.loc 1 149 0
 209              		.cfi_startproc
 210              		@ args = 0, pretend = 0, frame = 0
 211              		@ frame_needed = 0, uses_anonymous_args = 0
 212              	.LVL14:
 213 0000 2DE9F843 		push	{r3, r4, r5, r6, r7, r8, r9, lr}
 214              	.LCFI3:
 215              		.cfi_def_cfa_offset 32
 216              		.cfi_offset 14, -4
 217              		.cfi_offset 9, -8
 218              		.cfi_offset 8, -12
 219              		.cfi_offset 7, -16
 220              		.cfi_offset 6, -20
 221              		.cfi_offset 5, -24
 222              		.cfi_offset 4, -28
 223              		.cfi_offset 3, -32
 224              		.loc 1 149 0
ARM GAS  /var/folders/5n/p_75w94d66l9ssrldxqdhh700000gn/T//ccISYCG7.s 			page 5


 225 0004 0446     		mov	r4, r0
 226 0006 0D46     		mov	r5, r1
 227 0008 1646     		mov	r6, r2
 228              		.loc 1 160 0
 229 000a 134F     		ldr	r7, .L14
 230              		.loc 1 161 0
 231 000c 00F10808 		add	r8, r0, #8
 232 0010 13E0     		b	.L6
 233              	.LVL15:
 234              	.L13:
 235              		.loc 1 157 0 discriminator 2
 236 0012 CEB1     		cbz	r6, .L8
 237              	.LBB8:
 238              		.loc 1 159 0
 239              	@ 159 "../../os/hal/src/mac.c" 1
 240 0014 83F31188 		msr     BASEPRI, r3
 241              	@ 0 "" 2
 242              	.LVL16:
 243              		.thumb
 244              	.LBE8:
 245              		.loc 1 161 0
 246 0018 3146     		mov	r1, r6
 247 001a 4046     		mov	r0, r8
 248              	.LVL17:
 249              		.loc 1 160 0
 250 001c D7F80C90 		ldr	r9, [r7, #12]
 251              	.LVL18:
 252              		.loc 1 161 0
 253 0020 FFF7FEFF 		bl	chSemWaitTimeoutS
 254              	.LVL19:
 255 0024 421C     		adds	r2, r0, #1
 256 0026 11D0     		beq	.L12
 257              		.loc 1 165 0
 258 0028 731C     		adds	r3, r6, #1
 259              		.loc 1 166 0
 260 002a 1EBF     		ittt	ne
 261 002c FB68     		ldrne	r3, [r7, #12]
 262 002e C3EB0909 		rsbne	r9, r3, r9
 263              	.LVL20:
 264 0032 4E44     		addne	r6, r6, r9
 265              	.LVL21:
 266              	.LBB9:
 267              		.loc 1 167 0
 268 0034 0023     		movs	r3, #0
 269              	.LVL22:
 270              	@ 167 "../../os/hal/src/mac.c" 1
 271 0036 83F31188 		msr     BASEPRI, r3
 272              	@ 0 "" 2
 273              	.LVL23:
 274              		.thumb
 275              	.L6:
 276              	.LBE9:
 277              		.loc 1 157 0 discriminator 1
 278 003a 2046     		mov	r0, r4
 279 003c 2946     		mov	r1, r5
 280 003e FFF7FEFF 		bl	mac_lld_get_transmit_descriptor
 281              	.LVL24:
ARM GAS  /var/folders/5n/p_75w94d66l9ssrldxqdhh700000gn/T//ccISYCG7.s 			page 6


 282              	.LBB10:
 283              		.loc 1 159 0 discriminator 1
 284 0042 2023     		movs	r3, #32
 285              	.LBE10:
 286              		.loc 1 157 0 discriminator 1
 287 0044 0028     		cmp	r0, #0
 288 0046 E4D1     		bne	.L13
 289              	.L8:
 290              		.loc 1 170 0
 291 0048 BDE8F883 		pop	{r3, r4, r5, r6, r7, r8, r9, pc}
 292              	.LVL25:
 293              	.L12:
 294              	.LBB11:
 295              		.loc 1 162 0
 296 004c 0023     		movs	r3, #0
 297              	.LVL26:
 298              	@ 162 "../../os/hal/src/mac.c" 1
 299 004e 83F31188 		msr     BASEPRI, r3
 300              	@ 0 "" 2
 301              	.LVL27:
 302              		.thumb
 303              	.LBE11:
 304              		.loc 1 163 0
 305 0052 BDE8F883 		pop	{r3, r4, r5, r6, r7, r8, r9, pc}
 306              	.L15:
 307 0056 00BF     		.align	2
 308              	.L14:
 309 0058 00000000 		.word	vtlist
 310              		.cfi_endproc
 311              	.LFE122:
 312              		.size	macWaitTransmitDescriptor, .-macWaitTransmitDescriptor
 313 005c AFF30080 		.section	.text.macReleaseTransmitDescriptor,"ax",%progbits
 314              		.align	2
 315              		.p2align 4,,15
 316              		.global	macReleaseTransmitDescriptor
 317              		.thumb
 318              		.thumb_func
 319              		.type	macReleaseTransmitDescriptor, %function
 320              	macReleaseTransmitDescriptor:
 321              	.LFB123:
 322              		.loc 1 180 0
 323              		.cfi_startproc
 324              		@ args = 0, pretend = 0, frame = 0
 325              		@ frame_needed = 0, uses_anonymous_args = 0
 326              		@ link register save eliminated.
 327              	.LVL28:
 328              		.loc 1 185 0
 329              		.loc 1 184 0
 330 0000 FFF7FEBF 		b	mac_lld_release_transmit_descriptor
 331              	.LVL29:
 332              		.cfi_endproc
 333              	.LFE123:
 334              		.size	macReleaseTransmitDescriptor, .-macReleaseTransmitDescriptor
 335 0004 AFF30080 		.section	.text.macWaitReceiveDescriptor,"ax",%progbits
 335      AFF30080 
 335      AFF30080 
 336              		.align	2
ARM GAS  /var/folders/5n/p_75w94d66l9ssrldxqdhh700000gn/T//ccISYCG7.s 			page 7


 337              		.p2align 4,,15
 338              		.global	macWaitReceiveDescriptor
 339              		.thumb
 340              		.thumb_func
 341              		.type	macWaitReceiveDescriptor, %function
 342              	macWaitReceiveDescriptor:
 343              	.LFB124:
 344              		.loc 1 208 0
 345              		.cfi_startproc
 346              		@ args = 0, pretend = 0, frame = 0
 347              		@ frame_needed = 0, uses_anonymous_args = 0
 348              	.LVL30:
 349 0000 2DE9F843 		push	{r3, r4, r5, r6, r7, r8, r9, lr}
 350              	.LCFI4:
 351              		.cfi_def_cfa_offset 32
 352              		.cfi_offset 14, -4
 353              		.cfi_offset 9, -8
 354              		.cfi_offset 8, -12
 355              		.cfi_offset 7, -16
 356              		.cfi_offset 6, -20
 357              		.cfi_offset 5, -24
 358              		.cfi_offset 4, -28
 359              		.cfi_offset 3, -32
 360              		.loc 1 208 0
 361 0004 0446     		mov	r4, r0
 362 0006 0D46     		mov	r5, r1
 363 0008 1646     		mov	r6, r2
 364              		.loc 1 219 0
 365 000a 134F     		ldr	r7, .L25
 366              		.loc 1 220 0
 367 000c 00F11408 		add	r8, r0, #20
 368 0010 13E0     		b	.L18
 369              	.LVL31:
 370              	.L24:
 371              		.loc 1 216 0 discriminator 2
 372 0012 CEB1     		cbz	r6, .L20
 373              	.LBB12:
 374              		.loc 1 218 0
 375              	@ 218 "../../os/hal/src/mac.c" 1
 376 0014 83F31188 		msr     BASEPRI, r3
 377              	@ 0 "" 2
 378              	.LVL32:
 379              		.thumb
 380              	.LBE12:
 381              		.loc 1 220 0
 382 0018 3146     		mov	r1, r6
 383 001a 4046     		mov	r0, r8
 384              	.LVL33:
 385              		.loc 1 219 0
 386 001c D7F80C90 		ldr	r9, [r7, #12]
 387              	.LVL34:
 388              		.loc 1 220 0
 389 0020 FFF7FEFF 		bl	chSemWaitTimeoutS
 390              	.LVL35:
 391 0024 431C     		adds	r3, r0, #1
 392 0026 11D0     		beq	.L23
 393              		.loc 1 224 0
ARM GAS  /var/folders/5n/p_75w94d66l9ssrldxqdhh700000gn/T//ccISYCG7.s 			page 8


 394 0028 711C     		adds	r1, r6, #1
 395              		.loc 1 225 0
 396 002a 1EBF     		ittt	ne
 397 002c FB68     		ldrne	r3, [r7, #12]
 398 002e C3EB0909 		rsbne	r9, r3, r9
 399              	.LVL36:
 400 0032 4E44     		addne	r6, r6, r9
 401              	.LVL37:
 402              	.LBB13:
 403              		.loc 1 226 0
 404 0034 0023     		movs	r3, #0
 405              	.LVL38:
 406              	@ 226 "../../os/hal/src/mac.c" 1
 407 0036 83F31188 		msr     BASEPRI, r3
 408              	@ 0 "" 2
 409              	.LVL39:
 410              		.thumb
 411              	.L18:
 412              	.LBE13:
 413              		.loc 1 216 0 discriminator 1
 414 003a 2046     		mov	r0, r4
 415 003c 2946     		mov	r1, r5
 416 003e FFF7FEFF 		bl	mac_lld_get_receive_descriptor
 417              	.LVL40:
 418              	.LBB14:
 419              		.loc 1 218 0 discriminator 1
 420 0042 2023     		movs	r3, #32
 421              	.LBE14:
 422              		.loc 1 216 0 discriminator 1
 423 0044 0028     		cmp	r0, #0
 424 0046 E4D1     		bne	.L24
 425              	.L20:
 426              		.loc 1 229 0
 427 0048 BDE8F883 		pop	{r3, r4, r5, r6, r7, r8, r9, pc}
 428              	.LVL41:
 429              	.L23:
 430              	.LBB15:
 431              		.loc 1 221 0
 432 004c 0023     		movs	r3, #0
 433              	.LVL42:
 434              	@ 221 "../../os/hal/src/mac.c" 1
 435 004e 83F31188 		msr     BASEPRI, r3
 436              	@ 0 "" 2
 437              	.LVL43:
 438              		.thumb
 439              	.LBE15:
 440              		.loc 1 222 0
 441 0052 BDE8F883 		pop	{r3, r4, r5, r6, r7, r8, r9, pc}
 442              	.L26:
 443 0056 00BF     		.align	2
 444              	.L25:
 445 0058 00000000 		.word	vtlist
 446              		.cfi_endproc
 447              	.LFE124:
 448              		.size	macWaitReceiveDescriptor, .-macWaitReceiveDescriptor
 449 005c AFF30080 		.section	.text.macReleaseReceiveDescriptor,"ax",%progbits
 450              		.align	2
ARM GAS  /var/folders/5n/p_75w94d66l9ssrldxqdhh700000gn/T//ccISYCG7.s 			page 9


 451              		.p2align 4,,15
 452              		.global	macReleaseReceiveDescriptor
 453              		.thumb
 454              		.thumb_func
 455              		.type	macReleaseReceiveDescriptor, %function
 456              	macReleaseReceiveDescriptor:
 457              	.LFB125:
 458              		.loc 1 240 0
 459              		.cfi_startproc
 460              		@ args = 0, pretend = 0, frame = 0
 461              		@ frame_needed = 0, uses_anonymous_args = 0
 462              		@ link register save eliminated.
 463              	.LVL44:
 464              		.loc 1 245 0
 465              		.loc 1 244 0
 466 0000 FFF7FEBF 		b	mac_lld_release_receive_descriptor
 467              	.LVL45:
 468              		.cfi_endproc
 469              	.LFE125:
 470              		.size	macReleaseReceiveDescriptor, .-macReleaseReceiveDescriptor
 471 0004 AFF30080 		.section	.text.macPollLinkStatus,"ax",%progbits
 471      AFF30080 
 471      AFF30080 
 472              		.align	2
 473              		.p2align 4,,15
 474              		.global	macPollLinkStatus
 475              		.thumb
 476              		.thumb_func
 477              		.type	macPollLinkStatus, %function
 478              	macPollLinkStatus:
 479              	.LFB126:
 480              		.loc 1 257 0
 481              		.cfi_startproc
 482              		@ args = 0, pretend = 0, frame = 0
 483              		@ frame_needed = 0, uses_anonymous_args = 0
 484              		@ link register save eliminated.
 485              	.LVL46:
 486              		.loc 1 264 0
 487              		.loc 1 263 0
 488 0000 FFF7FEBF 		b	mac_lld_poll_link_status
 489              	.LVL47:
 490              		.cfi_endproc
 491              	.LFE126:
 492              		.size	macPollLinkStatus, .-macPollLinkStatus
 493 0004 AFF30080 		.text
 493      AFF30080 
 493      AFF30080 
 494              	.Letext0:
 495              		.file 2 "/usr/local/summon/lib/gcc/arm-none-eabi/4.6.2/include/stddef.h"
 496              		.file 3 "/usr/local/summon/lib/gcc/arm-none-eabi/4.6.2/../../../../arm-none-eabi/include/stdint.h"
 497              		.file 4 "../../os/ports/GCC/ARMCMx/chtypes.h"
 498              		.file 5 "../../os/kernel/include/chlists.h"
 499              		.file 6 "../../os/kernel/include/chthreads.h"
 500              		.file 7 "../../os/ports/GCC/ARMCMx/chcore_v7m.h"
 501              		.file 8 "../../os/kernel/include/chvt.h"
 502              		.file 9 "../../os/kernel/include/chsem.h"
 503              		.file 10 "../../os/kernel/include/chmtx.h"
ARM GAS  /var/folders/5n/p_75w94d66l9ssrldxqdhh700000gn/T//ccISYCG7.s 			page 10


 504              		.file 11 "../../os/kernel/include/chevents.h"
 505              		.file 12 "../../os/hal/include/mac.h"
 506              		.file 13 "../../os/hal/platforms/STM32/mac_lld.h"
 507              		.file 14 "../../os/ports/common/ARMCMx/CMSIS/include/core_cm4.h"
 508              		.section	.debug_info,"",%progbits
 509              	.Ldebug_info0:
 510 0000 CE0A0000 		.4byte	0xace
 511 0004 0200     		.2byte	0x2
 512 0006 00000000 		.4byte	.Ldebug_abbrev0
 513 000a 04       		.byte	0x4
 514 000b 01       		.uleb128 0x1
 515 000c 0F040000 		.4byte	.LASF120
 516 0010 01       		.byte	0x1
 517 0011 94020000 		.4byte	.LASF121
 518 0015 D1040000 		.4byte	.LASF122
 519 0019 00000000 		.4byte	0
 520 001d 00000000 		.4byte	0
 521 0021 60000000 		.4byte	.Ldebug_ranges0+0x60
 522 0025 00000000 		.4byte	.Ldebug_line0
 523 0029 02       		.uleb128 0x2
 524 002a 04       		.byte	0x4
 525 002b 05       		.byte	0x5
 526 002c 696E7400 		.ascii	"int\000"
 527 0030 03       		.uleb128 0x3
 528 0031 00000000 		.4byte	.LASF2
 529 0035 02       		.byte	0x2
 530 0036 D4       		.byte	0xd4
 531 0037 3B000000 		.4byte	0x3b
 532 003b 04       		.uleb128 0x4
 533 003c 04       		.byte	0x4
 534 003d 07       		.byte	0x7
 535 003e 6F010000 		.4byte	.LASF0
 536 0042 04       		.uleb128 0x4
 537 0043 01       		.byte	0x1
 538 0044 06       		.byte	0x6
 539 0045 C2000000 		.4byte	.LASF1
 540 0049 03       		.uleb128 0x3
 541 004a A5040000 		.4byte	.LASF3
 542 004e 03       		.byte	0x3
 543 004f 2A       		.byte	0x2a
 544 0050 54000000 		.4byte	0x54
 545 0054 04       		.uleb128 0x4
 546 0055 01       		.byte	0x1
 547 0056 08       		.byte	0x8
 548 0057 1E030000 		.4byte	.LASF4
 549 005b 04       		.uleb128 0x4
 550 005c 02       		.byte	0x2
 551 005d 05       		.byte	0x5
 552 005e 51030000 		.4byte	.LASF5
 553 0062 04       		.uleb128 0x4
 554 0063 02       		.byte	0x2
 555 0064 07       		.byte	0x7
 556 0065 DC010000 		.4byte	.LASF6
 557 0069 03       		.uleb128 0x3
 558 006a 16030000 		.4byte	.LASF7
 559 006e 03       		.byte	0x3
 560 006f 4F       		.byte	0x4f
ARM GAS  /var/folders/5n/p_75w94d66l9ssrldxqdhh700000gn/T//ccISYCG7.s 			page 11


 561 0070 74000000 		.4byte	0x74
 562 0074 04       		.uleb128 0x4
 563 0075 04       		.byte	0x4
 564 0076 05       		.byte	0x5
 565 0077 14010000 		.4byte	.LASF8
 566 007b 03       		.uleb128 0x3
 567 007c A9030000 		.4byte	.LASF9
 568 0080 03       		.byte	0x3
 569 0081 50       		.byte	0x50
 570 0082 86000000 		.4byte	0x86
 571 0086 04       		.uleb128 0x4
 572 0087 04       		.byte	0x4
 573 0088 07       		.byte	0x7
 574 0089 BD030000 		.4byte	.LASF10
 575 008d 04       		.uleb128 0x4
 576 008e 08       		.byte	0x8
 577 008f 05       		.byte	0x5
 578 0090 B4000000 		.4byte	.LASF11
 579 0094 04       		.uleb128 0x4
 580 0095 08       		.byte	0x8
 581 0096 07       		.byte	0x7
 582 0097 54000000 		.4byte	.LASF12
 583 009b 03       		.uleb128 0x3
 584 009c D6000000 		.4byte	.LASF13
 585 00a0 04       		.byte	0x4
 586 00a1 27       		.byte	0x27
 587 00a2 69000000 		.4byte	0x69
 588 00a6 03       		.uleb128 0x3
 589 00a7 14020000 		.4byte	.LASF14
 590 00ab 04       		.byte	0x4
 591 00ac 28       		.byte	0x28
 592 00ad 49000000 		.4byte	0x49
 593 00b1 03       		.uleb128 0x3
 594 00b2 1D010000 		.4byte	.LASF15
 595 00b6 04       		.byte	0x4
 596 00b7 29       		.byte	0x29
 597 00b8 49000000 		.4byte	0x49
 598 00bc 03       		.uleb128 0x3
 599 00bd D9020000 		.4byte	.LASF16
 600 00c1 04       		.byte	0x4
 601 00c2 2A       		.byte	0x2a
 602 00c3 49000000 		.4byte	0x49
 603 00c7 03       		.uleb128 0x3
 604 00c8 FF000000 		.4byte	.LASF17
 605 00cc 04       		.byte	0x4
 606 00cd 2B       		.byte	0x2b
 607 00ce 49000000 		.4byte	0x49
 608 00d2 03       		.uleb128 0x3
 609 00d3 0E030000 		.4byte	.LASF18
 610 00d7 04       		.byte	0x4
 611 00d8 2C       		.byte	0x2c
 612 00d9 7B000000 		.4byte	0x7b
 613 00dd 03       		.uleb128 0x3
 614 00de FA010000 		.4byte	.LASF19
 615 00e2 04       		.byte	0x4
 616 00e3 2D       		.byte	0x2d
 617 00e4 69000000 		.4byte	0x69
ARM GAS  /var/folders/5n/p_75w94d66l9ssrldxqdhh700000gn/T//ccISYCG7.s 			page 12


 618 00e8 03       		.uleb128 0x3
 619 00e9 2E020000 		.4byte	.LASF20
 620 00ed 04       		.byte	0x4
 621 00ee 2F       		.byte	0x2f
 622 00ef 7B000000 		.4byte	0x7b
 623 00f3 03       		.uleb128 0x3
 624 00f4 49040000 		.4byte	.LASF21
 625 00f8 04       		.byte	0x4
 626 00f9 30       		.byte	0x30
 627 00fa 7B000000 		.4byte	0x7b
 628 00fe 03       		.uleb128 0x3
 629 00ff E2030000 		.4byte	.LASF22
 630 0103 04       		.byte	0x4
 631 0104 31       		.byte	0x31
 632 0105 7B000000 		.4byte	0x7b
 633 0109 03       		.uleb128 0x3
 634 010a 69010000 		.4byte	.LASF23
 635 010e 04       		.byte	0x4
 636 010f 32       		.byte	0x32
 637 0110 69000000 		.4byte	0x69
 638 0114 03       		.uleb128 0x3
 639 0115 89030000 		.4byte	.LASF24
 640 0119 05       		.byte	0x5
 641 011a 23       		.byte	0x23
 642 011b 1F010000 		.4byte	0x11f
 643 011f 05       		.uleb128 0x5
 644 0120 89030000 		.4byte	.LASF24
 645 0124 48       		.byte	0x48
 646 0125 06       		.byte	0x6
 647 0126 57       		.byte	0x57
 648 0127 44020000 		.4byte	0x244
 649 012b 06       		.uleb128 0x6
 650 012c 74030000 		.4byte	.LASF25
 651 0130 06       		.byte	0x6
 652 0131 58       		.byte	0x58
 653 0132 69020000 		.4byte	0x269
 654 0136 02       		.byte	0x2
 655 0137 23       		.byte	0x23
 656 0138 00       		.uleb128 0
 657 0139 06       		.uleb128 0x6
 658 013a F5020000 		.4byte	.LASF26
 659 013e 06       		.byte	0x6
 660 013f 5A       		.byte	0x5a
 661 0140 69020000 		.4byte	0x269
 662 0144 02       		.byte	0x2
 663 0145 23       		.byte	0x23
 664 0146 04       		.uleb128 0x4
 665 0147 06       		.uleb128 0x6
 666 0148 97000000 		.4byte	.LASF27
 667 014c 06       		.byte	0x6
 668 014d 5C       		.byte	0x5c
 669 014e D2000000 		.4byte	0xd2
 670 0152 02       		.byte	0x2
 671 0153 23       		.byte	0x23
 672 0154 08       		.uleb128 0x8
 673 0155 06       		.uleb128 0x6
 674 0156 C6020000 		.4byte	.LASF28
ARM GAS  /var/folders/5n/p_75w94d66l9ssrldxqdhh700000gn/T//ccISYCG7.s 			page 13


 675 015a 06       		.byte	0x6
 676 015b 5D       		.byte	0x5d
 677 015c 37030000 		.4byte	0x337
 678 0160 02       		.byte	0x2
 679 0161 23       		.byte	0x23
 680 0162 0C       		.uleb128 0xc
 681 0163 06       		.uleb128 0x6
 682 0164 34010000 		.4byte	.LASF29
 683 0168 06       		.byte	0x6
 684 0169 5F       		.byte	0x5f
 685 016a 69020000 		.4byte	0x269
 686 016e 02       		.byte	0x2
 687 016f 23       		.byte	0x23
 688 0170 10       		.uleb128 0x10
 689 0171 06       		.uleb128 0x6
 690 0172 B1020000 		.4byte	.LASF30
 691 0176 06       		.byte	0x6
 692 0177 60       		.byte	0x60
 693 0178 69020000 		.4byte	0x269
 694 017c 02       		.byte	0x2
 695 017d 23       		.byte	0x23
 696 017e 14       		.uleb128 0x14
 697 017f 06       		.uleb128 0x6
 698 0180 CA040000 		.4byte	.LASF31
 699 0184 06       		.byte	0x6
 700 0185 67       		.byte	0x67
 701 0186 5E050000 		.4byte	0x55e
 702 018a 02       		.byte	0x2
 703 018b 23       		.byte	0x23
 704 018c 18       		.uleb128 0x18
 705 018d 06       		.uleb128 0x6
 706 018e 5B030000 		.4byte	.LASF32
 707 0192 06       		.byte	0x6
 708 0193 72       		.byte	0x72
 709 0194 B1000000 		.4byte	0xb1
 710 0198 02       		.byte	0x2
 711 0199 23       		.byte	0x23
 712 019a 1C       		.uleb128 0x1c
 713 019b 06       		.uleb128 0x6
 714 019c 7B030000 		.4byte	.LASF33
 715 01a0 06       		.byte	0x6
 716 01a1 76       		.byte	0x76
 717 01a2 A6000000 		.4byte	0xa6
 718 01a6 02       		.byte	0x2
 719 01a7 23       		.byte	0x23
 720 01a8 1D       		.uleb128 0x1d
 721 01a9 06       		.uleb128 0x6
 722 01aa 26010000 		.4byte	.LASF34
 723 01ae 06       		.byte	0x6
 724 01af 7B       		.byte	0x7b
 725 01b0 BC000000 		.4byte	0xbc
 726 01b4 02       		.byte	0x2
 727 01b5 23       		.byte	0x23
 728 01b6 1E       		.uleb128 0x1e
 729 01b7 06       		.uleb128 0x6
 730 01b8 63030000 		.4byte	.LASF35
 731 01bc 06       		.byte	0x6
ARM GAS  /var/folders/5n/p_75w94d66l9ssrldxqdhh700000gn/T//ccISYCG7.s 			page 14


 732 01bd 81       		.byte	0x81
 733 01be C7000000 		.4byte	0xc7
 734 01c2 02       		.byte	0x2
 735 01c3 23       		.byte	0x23
 736 01c4 1F       		.uleb128 0x1f
 737 01c5 06       		.uleb128 0x6
 738 01c6 2D010000 		.4byte	.LASF36
 739 01ca 06       		.byte	0x6
 740 01cb 88       		.byte	0x88
 741 01cc 21040000 		.4byte	0x421
 742 01d0 02       		.byte	0x2
 743 01d1 23       		.byte	0x23
 744 01d2 20       		.uleb128 0x20
 745 01d3 07       		.uleb128 0x7
 746 01d4 705F7500 		.ascii	"p_u\000"
 747 01d8 06       		.byte	0x6
 748 01d9 AD       		.byte	0xad
 749 01da 29050000 		.4byte	0x529
 750 01de 02       		.byte	0x2
 751 01df 23       		.byte	0x23
 752 01e0 24       		.uleb128 0x24
 753 01e1 06       		.uleb128 0x6
 754 01e2 8A020000 		.4byte	.LASF37
 755 01e6 06       		.byte	0x6
 756 01e7 B2       		.byte	0xb2
 757 01e8 91020000 		.4byte	0x291
 758 01ec 02       		.byte	0x2
 759 01ed 23       		.byte	0x23
 760 01ee 28       		.uleb128 0x28
 761 01ef 06       		.uleb128 0x6
 762 01f0 A1010000 		.4byte	.LASF38
 763 01f4 06       		.byte	0x6
 764 01f5 B8       		.byte	0xb8
 765 01f6 6F020000 		.4byte	0x26f
 766 01fa 02       		.byte	0x2
 767 01fb 23       		.byte	0x23
 768 01fc 2C       		.uleb128 0x2c
 769 01fd 06       		.uleb128 0x6
 770 01fe 27050000 		.4byte	.LASF39
 771 0202 06       		.byte	0x6
 772 0203 BC       		.byte	0xbc
 773 0204 DD000000 		.4byte	0xdd
 774 0208 02       		.byte	0x2
 775 0209 23       		.byte	0x23
 776 020a 34       		.uleb128 0x34
 777 020b 06       		.uleb128 0x6
 778 020c 9E030000 		.4byte	.LASF40
 779 0210 06       		.byte	0x6
 780 0211 C2       		.byte	0xc2
 781 0212 E8000000 		.4byte	0xe8
 782 0216 02       		.byte	0x2
 783 0217 23       		.byte	0x23
 784 0218 38       		.uleb128 0x38
 785 0219 06       		.uleb128 0x6
 786 021a 47030000 		.4byte	.LASF41
 787 021e 06       		.byte	0x6
 788 021f C9       		.byte	0xc9
ARM GAS  /var/folders/5n/p_75w94d66l9ssrldxqdhh700000gn/T//ccISYCG7.s 			page 15


 789 0220 70050000 		.4byte	0x570
 790 0224 02       		.byte	0x2
 791 0225 23       		.byte	0x23
 792 0226 3C       		.uleb128 0x3c
 793 0227 06       		.uleb128 0x6
 794 0228 EC030000 		.4byte	.LASF42
 795 022c 06       		.byte	0x6
 796 022d CD       		.byte	0xcd
 797 022e D2000000 		.4byte	0xd2
 798 0232 02       		.byte	0x2
 799 0233 23       		.byte	0x23
 800 0234 40       		.uleb128 0x40
 801 0235 06       		.uleb128 0x6
 802 0236 CE000000 		.4byte	.LASF43
 803 023a 06       		.byte	0x6
 804 023b D3       		.byte	0xd3
 805 023c A7020000 		.4byte	0x2a7
 806 0240 02       		.byte	0x2
 807 0241 23       		.byte	0x23
 808 0242 44       		.uleb128 0x44
 809 0243 00       		.byte	0
 810 0244 08       		.uleb128 0x8
 811 0245 08       		.byte	0x8
 812 0246 05       		.byte	0x5
 813 0247 5A       		.byte	0x5a
 814 0248 69020000 		.4byte	0x269
 815 024c 06       		.uleb128 0x6
 816 024d 74030000 		.4byte	.LASF25
 817 0251 05       		.byte	0x5
 818 0252 5B       		.byte	0x5b
 819 0253 69020000 		.4byte	0x269
 820 0257 02       		.byte	0x2
 821 0258 23       		.byte	0x23
 822 0259 00       		.uleb128 0
 823 025a 06       		.uleb128 0x6
 824 025b F5020000 		.4byte	.LASF26
 825 025f 05       		.byte	0x5
 826 0260 5D       		.byte	0x5d
 827 0261 69020000 		.4byte	0x269
 828 0265 02       		.byte	0x2
 829 0266 23       		.byte	0x23
 830 0267 04       		.uleb128 0x4
 831 0268 00       		.byte	0
 832 0269 09       		.uleb128 0x9
 833 026a 04       		.byte	0x4
 834 026b 14010000 		.4byte	0x114
 835 026f 03       		.uleb128 0x3
 836 0270 B9020000 		.4byte	.LASF44
 837 0274 05       		.byte	0x5
 838 0275 5F       		.byte	0x5f
 839 0276 44020000 		.4byte	0x244
 840 027a 08       		.uleb128 0x8
 841 027b 04       		.byte	0x4
 842 027c 05       		.byte	0x5
 843 027d 64       		.byte	0x64
 844 027e 91020000 		.4byte	0x291
 845 0282 06       		.uleb128 0x6
ARM GAS  /var/folders/5n/p_75w94d66l9ssrldxqdhh700000gn/T//ccISYCG7.s 			page 16


 846 0283 74030000 		.4byte	.LASF25
 847 0287 05       		.byte	0x5
 848 0288 66       		.byte	0x66
 849 0289 69020000 		.4byte	0x269
 850 028d 02       		.byte	0x2
 851 028e 23       		.byte	0x23
 852 028f 00       		.uleb128 0
 853 0290 00       		.byte	0
 854 0291 03       		.uleb128 0x3
 855 0292 22020000 		.4byte	.LASF45
 856 0296 05       		.byte	0x5
 857 0297 69       		.byte	0x69
 858 0298 7A020000 		.4byte	0x27a
 859 029c 03       		.uleb128 0x3
 860 029d 4C010000 		.4byte	.LASF46
 861 02a1 07       		.byte	0x7
 862 02a2 DE       		.byte	0xde
 863 02a3 A7020000 		.4byte	0x2a7
 864 02a7 0A       		.uleb128 0xa
 865 02a8 04       		.byte	0x4
 866 02a9 0B       		.uleb128 0xb
 867 02aa 31040000 		.4byte	.LASF47
 868 02ae 24       		.byte	0x24
 869 02af 07       		.byte	0x7
 870 02b0 0501     		.2byte	0x105
 871 02b2 37030000 		.4byte	0x337
 872 02b6 0C       		.uleb128 0xc
 873 02b7 723400   		.ascii	"r4\000"
 874 02ba 07       		.byte	0x7
 875 02bb 1801     		.2byte	0x118
 876 02bd 9C020000 		.4byte	0x29c
 877 02c1 02       		.byte	0x2
 878 02c2 23       		.byte	0x23
 879 02c3 00       		.uleb128 0
 880 02c4 0C       		.uleb128 0xc
 881 02c5 723500   		.ascii	"r5\000"
 882 02c8 07       		.byte	0x7
 883 02c9 1901     		.2byte	0x119
 884 02cb 9C020000 		.4byte	0x29c
 885 02cf 02       		.byte	0x2
 886 02d0 23       		.byte	0x23
 887 02d1 04       		.uleb128 0x4
 888 02d2 0C       		.uleb128 0xc
 889 02d3 723600   		.ascii	"r6\000"
 890 02d6 07       		.byte	0x7
 891 02d7 1A01     		.2byte	0x11a
 892 02d9 9C020000 		.4byte	0x29c
 893 02dd 02       		.byte	0x2
 894 02de 23       		.byte	0x23
 895 02df 08       		.uleb128 0x8
 896 02e0 0C       		.uleb128 0xc
 897 02e1 723700   		.ascii	"r7\000"
 898 02e4 07       		.byte	0x7
 899 02e5 1B01     		.2byte	0x11b
 900 02e7 9C020000 		.4byte	0x29c
 901 02eb 02       		.byte	0x2
 902 02ec 23       		.byte	0x23
ARM GAS  /var/folders/5n/p_75w94d66l9ssrldxqdhh700000gn/T//ccISYCG7.s 			page 17


 903 02ed 0C       		.uleb128 0xc
 904 02ee 0C       		.uleb128 0xc
 905 02ef 723800   		.ascii	"r8\000"
 906 02f2 07       		.byte	0x7
 907 02f3 1C01     		.2byte	0x11c
 908 02f5 9C020000 		.4byte	0x29c
 909 02f9 02       		.byte	0x2
 910 02fa 23       		.byte	0x23
 911 02fb 10       		.uleb128 0x10
 912 02fc 0C       		.uleb128 0xc
 913 02fd 723900   		.ascii	"r9\000"
 914 0300 07       		.byte	0x7
 915 0301 1D01     		.2byte	0x11d
 916 0303 9C020000 		.4byte	0x29c
 917 0307 02       		.byte	0x2
 918 0308 23       		.byte	0x23
 919 0309 14       		.uleb128 0x14
 920 030a 0C       		.uleb128 0xc
 921 030b 72313000 		.ascii	"r10\000"
 922 030f 07       		.byte	0x7
 923 0310 1E01     		.2byte	0x11e
 924 0312 9C020000 		.4byte	0x29c
 925 0316 02       		.byte	0x2
 926 0317 23       		.byte	0x23
 927 0318 18       		.uleb128 0x18
 928 0319 0C       		.uleb128 0xc
 929 031a 72313100 		.ascii	"r11\000"
 930 031e 07       		.byte	0x7
 931 031f 1F01     		.2byte	0x11f
 932 0321 9C020000 		.4byte	0x29c
 933 0325 02       		.byte	0x2
 934 0326 23       		.byte	0x23
 935 0327 1C       		.uleb128 0x1c
 936 0328 0C       		.uleb128 0xc
 937 0329 6C7200   		.ascii	"lr\000"
 938 032c 07       		.byte	0x7
 939 032d 2001     		.2byte	0x120
 940 032f 9C020000 		.4byte	0x29c
 941 0333 02       		.byte	0x2
 942 0334 23       		.byte	0x23
 943 0335 20       		.uleb128 0x20
 944 0336 00       		.byte	0
 945 0337 0B       		.uleb128 0xb
 946 0338 07040000 		.4byte	.LASF48
 947 033c 04       		.byte	0x4
 948 033d 07       		.byte	0x7
 949 033e 2A01     		.2byte	0x12a
 950 0340 54030000 		.4byte	0x354
 951 0344 0C       		.uleb128 0xc
 952 0345 72313300 		.ascii	"r13\000"
 953 0349 07       		.byte	0x7
 954 034a 2B01     		.2byte	0x12b
 955 034c 54030000 		.4byte	0x354
 956 0350 02       		.byte	0x2
 957 0351 23       		.byte	0x23
 958 0352 00       		.uleb128 0
 959 0353 00       		.byte	0
ARM GAS  /var/folders/5n/p_75w94d66l9ssrldxqdhh700000gn/T//ccISYCG7.s 			page 18


 960 0354 09       		.uleb128 0x9
 961 0355 04       		.byte	0x4
 962 0356 A9020000 		.4byte	0x2a9
 963 035a 0D       		.uleb128 0xd
 964 035b 7B000000 		.4byte	0x7b
 965 035f 03       		.uleb128 0x3
 966 0360 F7030000 		.4byte	.LASF49
 967 0364 08       		.byte	0x8
 968 0365 4E       		.byte	0x4e
 969 0366 6A030000 		.4byte	0x36a
 970 036a 09       		.uleb128 0x9
 971 036b 04       		.byte	0x4
 972 036c 70030000 		.4byte	0x370
 973 0370 0E       		.uleb128 0xe
 974 0371 01       		.byte	0x1
 975 0372 7C030000 		.4byte	0x37c
 976 0376 0F       		.uleb128 0xf
 977 0377 A7020000 		.4byte	0x2a7
 978 037b 00       		.byte	0
 979 037c 03       		.uleb128 0x3
 980 037d C4010000 		.4byte	.LASF50
 981 0381 08       		.byte	0x8
 982 0382 53       		.byte	0x53
 983 0383 87030000 		.4byte	0x387
 984 0387 05       		.uleb128 0x5
 985 0388 C4010000 		.4byte	.LASF50
 986 038c 14       		.byte	0x14
 987 038d 08       		.byte	0x8
 988 038e 5A       		.byte	0x5a
 989 038f DA030000 		.4byte	0x3da
 990 0393 06       		.uleb128 0x6
 991 0394 7C010000 		.4byte	.LASF51
 992 0398 08       		.byte	0x8
 993 0399 5B       		.byte	0x5b
 994 039a DA030000 		.4byte	0x3da
 995 039e 02       		.byte	0x2
 996 039f 23       		.byte	0x23
 997 03a0 00       		.uleb128 0
 998 03a1 06       		.uleb128 0x6
 999 03a2 55010000 		.4byte	.LASF52
 1000 03a6 08       		.byte	0x8
 1001 03a7 5D       		.byte	0x5d
 1002 03a8 DA030000 		.4byte	0x3da
 1003 03ac 02       		.byte	0x2
 1004 03ad 23       		.byte	0x23
 1005 03ae 04       		.uleb128 0x4
 1006 03af 06       		.uleb128 0x6
 1007 03b0 82020000 		.4byte	.LASF53
 1008 03b4 08       		.byte	0x8
 1009 03b5 5F       		.byte	0x5f
 1010 03b6 FE000000 		.4byte	0xfe
 1011 03ba 02       		.byte	0x2
 1012 03bb 23       		.byte	0x23
 1013 03bc 08       		.uleb128 0x8
 1014 03bd 06       		.uleb128 0x6
 1015 03be 3C050000 		.4byte	.LASF54
 1016 03c2 08       		.byte	0x8
ARM GAS  /var/folders/5n/p_75w94d66l9ssrldxqdhh700000gn/T//ccISYCG7.s 			page 19


 1017 03c3 60       		.byte	0x60
 1018 03c4 5F030000 		.4byte	0x35f
 1019 03c8 02       		.byte	0x2
 1020 03c9 23       		.byte	0x23
 1021 03ca 0C       		.uleb128 0xc
 1022 03cb 06       		.uleb128 0x6
 1023 03cc 38040000 		.4byte	.LASF55
 1024 03d0 08       		.byte	0x8
 1025 03d1 62       		.byte	0x62
 1026 03d2 A7020000 		.4byte	0x2a7
 1027 03d6 02       		.byte	0x2
 1028 03d7 23       		.byte	0x23
 1029 03d8 10       		.uleb128 0x10
 1030 03d9 00       		.byte	0
 1031 03da 09       		.uleb128 0x9
 1032 03db 04       		.byte	0x4
 1033 03dc 7C030000 		.4byte	0x37c
 1034 03e0 08       		.uleb128 0x8
 1035 03e1 10       		.byte	0x10
 1036 03e2 08       		.byte	0x8
 1037 03e3 6C       		.byte	0x6c
 1038 03e4 21040000 		.4byte	0x421
 1039 03e8 06       		.uleb128 0x6
 1040 03e9 7C010000 		.4byte	.LASF51
 1041 03ed 08       		.byte	0x8
 1042 03ee 6D       		.byte	0x6d
 1043 03ef DA030000 		.4byte	0x3da
 1044 03f3 02       		.byte	0x2
 1045 03f4 23       		.byte	0x23
 1046 03f5 00       		.uleb128 0
 1047 03f6 06       		.uleb128 0x6
 1048 03f7 55010000 		.4byte	.LASF52
 1049 03fb 08       		.byte	0x8
 1050 03fc 6F       		.byte	0x6f
 1051 03fd DA030000 		.4byte	0x3da
 1052 0401 02       		.byte	0x2
 1053 0402 23       		.byte	0x23
 1054 0403 04       		.uleb128 0x4
 1055 0404 06       		.uleb128 0x6
 1056 0405 82020000 		.4byte	.LASF53
 1057 0409 08       		.byte	0x8
 1058 040a 71       		.byte	0x71
 1059 040b FE000000 		.4byte	0xfe
 1060 040f 02       		.byte	0x2
 1061 0410 23       		.byte	0x23
 1062 0411 08       		.uleb128 0x8
 1063 0412 06       		.uleb128 0x6
 1064 0413 B2030000 		.4byte	.LASF56
 1065 0417 08       		.byte	0x8
 1066 0418 72       		.byte	0x72
 1067 0419 21040000 		.4byte	0x421
 1068 041d 02       		.byte	0x2
 1069 041e 23       		.byte	0x23
 1070 041f 0C       		.uleb128 0xc
 1071 0420 00       		.byte	0
 1072 0421 0D       		.uleb128 0xd
 1073 0422 FE000000 		.4byte	0xfe
ARM GAS  /var/folders/5n/p_75w94d66l9ssrldxqdhh700000gn/T//ccISYCG7.s 			page 20


 1074 0426 03       		.uleb128 0x3
 1075 0427 2D050000 		.4byte	.LASF57
 1076 042b 08       		.byte	0x8
 1077 042c 73       		.byte	0x73
 1078 042d E0030000 		.4byte	0x3e0
 1079 0431 05       		.uleb128 0x5
 1080 0432 3F040000 		.4byte	.LASF58
 1081 0436 0C       		.byte	0xc
 1082 0437 09       		.byte	0x9
 1083 0438 25       		.byte	0x25
 1084 0439 5A040000 		.4byte	0x45a
 1085 043d 06       		.uleb128 0x6
 1086 043e 3C010000 		.4byte	.LASF59
 1087 0442 09       		.byte	0x9
 1088 0443 26       		.byte	0x26
 1089 0444 6F020000 		.4byte	0x26f
 1090 0448 02       		.byte	0x2
 1091 0449 23       		.byte	0x23
 1092 044a 00       		.uleb128 0
 1093 044b 06       		.uleb128 0x6
 1094 044c D1010000 		.4byte	.LASF60
 1095 0450 09       		.byte	0x9
 1096 0451 28       		.byte	0x28
 1097 0452 09010000 		.4byte	0x109
 1098 0456 02       		.byte	0x2
 1099 0457 23       		.byte	0x23
 1100 0458 08       		.uleb128 0x8
 1101 0459 00       		.byte	0
 1102 045a 03       		.uleb128 0x3
 1103 045b 3F040000 		.4byte	.LASF58
 1104 045f 09       		.byte	0x9
 1105 0460 29       		.byte	0x29
 1106 0461 31040000 		.4byte	0x431
 1107 0465 05       		.uleb128 0x5
 1108 0466 AB020000 		.4byte	.LASF61
 1109 046a 10       		.byte	0x10
 1110 046b 0A       		.byte	0xa
 1111 046c 25       		.byte	0x25
 1112 046d 9C040000 		.4byte	0x49c
 1113 0471 06       		.uleb128 0x6
 1114 0472 DD000000 		.4byte	.LASF62
 1115 0476 0A       		.byte	0xa
 1116 0477 26       		.byte	0x26
 1117 0478 6F020000 		.4byte	0x26f
 1118 047c 02       		.byte	0x2
 1119 047d 23       		.byte	0x23
 1120 047e 00       		.uleb128 0
 1121 047f 06       		.uleb128 0x6
 1122 0480 34050000 		.4byte	.LASF63
 1123 0484 0A       		.byte	0xa
 1124 0485 28       		.byte	0x28
 1125 0486 69020000 		.4byte	0x269
 1126 048a 02       		.byte	0x2
 1127 048b 23       		.byte	0x23
 1128 048c 08       		.uleb128 0x8
 1129 048d 06       		.uleb128 0x6
 1130 048e DB030000 		.4byte	.LASF64
ARM GAS  /var/folders/5n/p_75w94d66l9ssrldxqdhh700000gn/T//ccISYCG7.s 			page 21


 1131 0492 0A       		.byte	0xa
 1132 0493 2A       		.byte	0x2a
 1133 0494 9C040000 		.4byte	0x49c
 1134 0498 02       		.byte	0x2
 1135 0499 23       		.byte	0x23
 1136 049a 0C       		.uleb128 0xc
 1137 049b 00       		.byte	0
 1138 049c 09       		.uleb128 0x9
 1139 049d 04       		.byte	0x4
 1140 049e 65040000 		.4byte	0x465
 1141 04a2 03       		.uleb128 0x3
 1142 04a3 AB020000 		.4byte	.LASF61
 1143 04a7 0A       		.byte	0xa
 1144 04a8 2C       		.byte	0x2c
 1145 04a9 65040000 		.4byte	0x465
 1146 04ad 03       		.uleb128 0x3
 1147 04ae B5040000 		.4byte	.LASF65
 1148 04b2 0B       		.byte	0xb
 1149 04b3 25       		.byte	0x25
 1150 04b4 B8040000 		.4byte	0x4b8
 1151 04b8 05       		.uleb128 0x5
 1152 04b9 B5040000 		.4byte	.LASF65
 1153 04bd 10       		.byte	0x10
 1154 04be 0B       		.byte	0xb
 1155 04bf 2A       		.byte	0x2a
 1156 04c0 FD040000 		.4byte	0x4fd
 1157 04c4 06       		.uleb128 0x6
 1158 04c5 0C020000 		.4byte	.LASF66
 1159 04c9 0B       		.byte	0xb
 1160 04ca 2B       		.byte	0x2b
 1161 04cb FD040000 		.4byte	0x4fd
 1162 04cf 02       		.byte	0x2
 1163 04d0 23       		.byte	0x23
 1164 04d1 00       		.uleb128 0
 1165 04d2 06       		.uleb128 0x6
 1166 04d3 2C030000 		.4byte	.LASF67
 1167 04d7 0B       		.byte	0xb
 1168 04d8 2E       		.byte	0x2e
 1169 04d9 69020000 		.4byte	0x269
 1170 04dd 02       		.byte	0x2
 1171 04de 23       		.byte	0x23
 1172 04df 04       		.uleb128 0x4
 1173 04e0 06       		.uleb128 0x6
 1174 04e1 D1020000 		.4byte	.LASF68
 1175 04e5 0B       		.byte	0xb
 1176 04e6 30       		.byte	0x30
 1177 04e7 E8000000 		.4byte	0xe8
 1178 04eb 02       		.byte	0x2
 1179 04ec 23       		.byte	0x23
 1180 04ed 08       		.uleb128 0x8
 1181 04ee 06       		.uleb128 0x6
 1182 04ef 3E030000 		.4byte	.LASF69
 1183 04f3 0B       		.byte	0xb
 1184 04f4 33       		.byte	0x33
 1185 04f5 F3000000 		.4byte	0xf3
 1186 04f9 02       		.byte	0x2
 1187 04fa 23       		.byte	0x23
ARM GAS  /var/folders/5n/p_75w94d66l9ssrldxqdhh700000gn/T//ccISYCG7.s 			page 22


 1188 04fb 0C       		.uleb128 0xc
 1189 04fc 00       		.byte	0
 1190 04fd 09       		.uleb128 0x9
 1191 04fe 04       		.byte	0x4
 1192 04ff AD040000 		.4byte	0x4ad
 1193 0503 05       		.uleb128 0x5
 1194 0504 5D010000 		.4byte	.LASF70
 1195 0508 04       		.byte	0x4
 1196 0509 0B       		.byte	0xb
 1197 050a 3A       		.byte	0x3a
 1198 050b 1E050000 		.4byte	0x51e
 1199 050f 06       		.uleb128 0x6
 1200 0510 79040000 		.4byte	.LASF71
 1201 0514 0B       		.byte	0xb
 1202 0515 3B       		.byte	0x3b
 1203 0516 FD040000 		.4byte	0x4fd
 1204 051a 02       		.byte	0x2
 1205 051b 23       		.byte	0x23
 1206 051c 00       		.uleb128 0
 1207 051d 00       		.byte	0
 1208 051e 03       		.uleb128 0x3
 1209 051f 5D010000 		.4byte	.LASF70
 1210 0523 0B       		.byte	0xb
 1211 0524 3E       		.byte	0x3e
 1212 0525 03050000 		.4byte	0x503
 1213 0529 10       		.uleb128 0x10
 1214 052a 04       		.byte	0x4
 1215 052b 06       		.byte	0x6
 1216 052c 8F       		.byte	0x8f
 1217 052d 5E050000 		.4byte	0x55e
 1218 0531 11       		.uleb128 0x11
 1219 0532 07000000 		.4byte	.LASF72
 1220 0536 06       		.byte	0x6
 1221 0537 96       		.byte	0x96
 1222 0538 DD000000 		.4byte	0xdd
 1223 053c 11       		.uleb128 0x11
 1224 053d 73000000 		.4byte	.LASF73
 1225 0541 06       		.byte	0x6
 1226 0542 9D       		.byte	0x9d
 1227 0543 DD000000 		.4byte	0xdd
 1228 0547 11       		.uleb128 0x11
 1229 0548 C3040000 		.4byte	.LASF74
 1230 054c 06       		.byte	0x6
 1231 054d A4       		.byte	0xa4
 1232 054e A7020000 		.4byte	0x2a7
 1233 0552 11       		.uleb128 0x11
 1234 0553 6D030000 		.4byte	.LASF75
 1235 0557 06       		.byte	0x6
 1236 0558 AB       		.byte	0xab
 1237 0559 E8000000 		.4byte	0xe8
 1238 055d 00       		.byte	0
 1239 055e 09       		.uleb128 0x9
 1240 055f 04       		.byte	0x4
 1241 0560 64050000 		.4byte	0x564
 1242 0564 12       		.uleb128 0x12
 1243 0565 69050000 		.4byte	0x569
 1244 0569 04       		.uleb128 0x4
ARM GAS  /var/folders/5n/p_75w94d66l9ssrldxqdhh700000gn/T//ccISYCG7.s 			page 23


 1245 056a 01       		.byte	0x1
 1246 056b 08       		.byte	0x8
 1247 056c CF030000 		.4byte	.LASF76
 1248 0570 09       		.uleb128 0x9
 1249 0571 04       		.byte	0x4
 1250 0572 A2040000 		.4byte	0x4a2
 1251 0576 09       		.uleb128 0x9
 1252 0577 04       		.byte	0x4
 1253 0578 49000000 		.4byte	0x49
 1254 057c 0D       		.uleb128 0xd
 1255 057d 69000000 		.4byte	0x69
 1256 0581 13       		.uleb128 0x13
 1257 0582 01       		.byte	0x1
 1258 0583 0C       		.byte	0xc
 1259 0584 48       		.byte	0x48
 1260 0585 9C050000 		.4byte	0x59c
 1261 0589 14       		.uleb128 0x14
 1262 058a EF010000 		.4byte	.LASF77
 1263 058e 00       		.sleb128 0
 1264 058f 14       		.uleb128 0x14
 1265 0590 EC020000 		.4byte	.LASF78
 1266 0594 01       		.sleb128 1
 1267 0595 14       		.uleb128 0x14
 1268 0596 E1020000 		.4byte	.LASF79
 1269 059a 02       		.sleb128 2
 1270 059b 00       		.byte	0
 1271 059c 03       		.uleb128 0x3
 1272 059d 96010000 		.4byte	.LASF80
 1273 05a1 0C       		.byte	0xc
 1274 05a2 4C       		.byte	0x4c
 1275 05a3 81050000 		.4byte	0x581
 1276 05a7 03       		.uleb128 0x3
 1277 05a8 1D000000 		.4byte	.LASF81
 1278 05ac 0C       		.byte	0xc
 1279 05ad 51       		.byte	0x51
 1280 05ae B2050000 		.4byte	0x5b2
 1281 05b2 05       		.uleb128 0x5
 1282 05b3 1D000000 		.4byte	.LASF81
 1283 05b7 34       		.byte	0x34
 1284 05b8 0D       		.byte	0xd
 1285 05b9 EB       		.byte	0xeb
 1286 05ba 42060000 		.4byte	0x642
 1287 05be 06       		.uleb128 0x6
 1288 05bf 0E010000 		.4byte	.LASF82
 1289 05c3 0D       		.byte	0xd
 1290 05c4 EF       		.byte	0xef
 1291 05c5 9C050000 		.4byte	0x59c
 1292 05c9 02       		.byte	0x2
 1293 05ca 23       		.byte	0x23
 1294 05cb 00       		.uleb128 0
 1295 05cc 06       		.uleb128 0x6
 1296 05cd D4030000 		.4byte	.LASF83
 1297 05d1 0D       		.byte	0xd
 1298 05d2 F3       		.byte	0xf3
 1299 05d3 FC060000 		.4byte	0x6fc
 1300 05d7 02       		.byte	0x2
 1301 05d8 23       		.byte	0x23
ARM GAS  /var/folders/5n/p_75w94d66l9ssrldxqdhh700000gn/T//ccISYCG7.s 			page 24


 1302 05d9 04       		.uleb128 0x4
 1303 05da 06       		.uleb128 0x6
 1304 05db 38030000 		.4byte	.LASF84
 1305 05df 0D       		.byte	0xd
 1306 05e0 F7       		.byte	0xf7
 1307 05e1 5A040000 		.4byte	0x45a
 1308 05e5 02       		.byte	0x2
 1309 05e6 23       		.byte	0x23
 1310 05e7 08       		.uleb128 0x8
 1311 05e8 06       		.uleb128 0x6
 1312 05e9 84000000 		.4byte	.LASF85
 1313 05ed 0D       		.byte	0xd
 1314 05ee FB       		.byte	0xfb
 1315 05ef 5A040000 		.4byte	0x45a
 1316 05f3 02       		.byte	0x2
 1317 05f4 23       		.byte	0x23
 1318 05f5 14       		.uleb128 0x14
 1319 05f6 15       		.uleb128 0x15
 1320 05f7 7C000000 		.4byte	.LASF86
 1321 05fb 0D       		.byte	0xd
 1322 05fc 0001     		.2byte	0x100
 1323 05fe 1E050000 		.4byte	0x51e
 1324 0602 02       		.byte	0x2
 1325 0603 23       		.byte	0x23
 1326 0604 20       		.uleb128 0x20
 1327 0605 15       		.uleb128 0x15
 1328 0606 6B000000 		.4byte	.LASF87
 1329 060a 0D       		.byte	0xd
 1330 060b 0601     		.2byte	0x106
 1331 060d 9B000000 		.4byte	0x9b
 1332 0611 02       		.byte	0x2
 1333 0612 23       		.byte	0x23
 1334 0613 24       		.uleb128 0x24
 1335 0614 15       		.uleb128 0x15
 1336 0615 AD040000 		.4byte	.LASF88
 1337 0619 0D       		.byte	0xd
 1338 061a 0A01     		.2byte	0x10a
 1339 061c 7B000000 		.4byte	0x7b
 1340 0620 02       		.byte	0x2
 1341 0621 23       		.byte	0x23
 1342 0622 28       		.uleb128 0x28
 1343 0623 15       		.uleb128 0x15
 1344 0624 1C020000 		.4byte	.LASF89
 1345 0628 0D       		.byte	0xd
 1346 0629 0E01     		.2byte	0x10e
 1347 062b 07070000 		.4byte	0x707
 1348 062f 02       		.byte	0x2
 1349 0630 23       		.byte	0x23
 1350 0631 2C       		.uleb128 0x2c
 1351 0632 15       		.uleb128 0x15
 1352 0633 83030000 		.4byte	.LASF90
 1353 0637 0D       		.byte	0xd
 1354 0638 1201     		.2byte	0x112
 1355 063a 0D070000 		.4byte	0x70d
 1356 063e 02       		.byte	0x2
 1357 063f 23       		.byte	0x23
 1358 0640 30       		.uleb128 0x30
ARM GAS  /var/folders/5n/p_75w94d66l9ssrldxqdhh700000gn/T//ccISYCG7.s 			page 25


 1359 0641 00       		.byte	0
 1360 0642 08       		.uleb128 0x8
 1361 0643 10       		.byte	0x10
 1362 0644 0D       		.byte	0xd
 1363 0645 CC       		.byte	0xcc
 1364 0646 83060000 		.4byte	0x683
 1365 064a 06       		.uleb128 0x6
 1366 064b AC010000 		.4byte	.LASF91
 1367 064f 0D       		.byte	0xd
 1368 0650 CD       		.byte	0xcd
 1369 0651 5A030000 		.4byte	0x35a
 1370 0655 02       		.byte	0x2
 1371 0656 23       		.byte	0x23
 1372 0657 00       		.uleb128 0
 1373 0658 06       		.uleb128 0x6
 1374 0659 B2010000 		.4byte	.LASF92
 1375 065d 0D       		.byte	0xd
 1376 065e CE       		.byte	0xce
 1377 065f 5A030000 		.4byte	0x35a
 1378 0663 02       		.byte	0x2
 1379 0664 23       		.byte	0x23
 1380 0665 04       		.uleb128 0x4
 1381 0666 06       		.uleb128 0x6
 1382 0667 B8010000 		.4byte	.LASF93
 1383 066b 0D       		.byte	0xd
 1384 066c CF       		.byte	0xcf
 1385 066d 5A030000 		.4byte	0x35a
 1386 0671 02       		.byte	0x2
 1387 0672 23       		.byte	0x23
 1388 0673 08       		.uleb128 0x8
 1389 0674 06       		.uleb128 0x6
 1390 0675 BE010000 		.4byte	.LASF94
 1391 0679 0D       		.byte	0xd
 1392 067a D0       		.byte	0xd0
 1393 067b 5A030000 		.4byte	0x35a
 1394 067f 02       		.byte	0x2
 1395 0680 23       		.byte	0x23
 1396 0681 0C       		.uleb128 0xc
 1397 0682 00       		.byte	0
 1398 0683 03       		.uleb128 0x3
 1399 0684 81040000 		.4byte	.LASF95
 1400 0688 0D       		.byte	0xd
 1401 0689 D1       		.byte	0xd1
 1402 068a 42060000 		.4byte	0x642
 1403 068e 08       		.uleb128 0x8
 1404 068f 10       		.byte	0x10
 1405 0690 0D       		.byte	0xd
 1406 0691 D6       		.byte	0xd6
 1407 0692 CF060000 		.4byte	0x6cf
 1408 0696 06       		.uleb128 0x6
 1409 0697 FC020000 		.4byte	.LASF96
 1410 069b 0D       		.byte	0xd
 1411 069c D7       		.byte	0xd7
 1412 069d 5A030000 		.4byte	0x35a
 1413 06a1 02       		.byte	0x2
 1414 06a2 23       		.byte	0x23
 1415 06a3 00       		.uleb128 0
ARM GAS  /var/folders/5n/p_75w94d66l9ssrldxqdhh700000gn/T//ccISYCG7.s 			page 26


 1416 06a4 06       		.uleb128 0x6
 1417 06a5 02030000 		.4byte	.LASF97
 1418 06a9 0D       		.byte	0xd
 1419 06aa D8       		.byte	0xd8
 1420 06ab 5A030000 		.4byte	0x35a
 1421 06af 02       		.byte	0x2
 1422 06b0 23       		.byte	0x23
 1423 06b1 04       		.uleb128 0x4
 1424 06b2 06       		.uleb128 0x6
 1425 06b3 08030000 		.4byte	.LASF98
 1426 06b7 0D       		.byte	0xd
 1427 06b8 D9       		.byte	0xd9
 1428 06b9 5A030000 		.4byte	0x35a
 1429 06bd 02       		.byte	0x2
 1430 06be 23       		.byte	0x23
 1431 06bf 08       		.uleb128 0x8
 1432 06c0 06       		.uleb128 0x6
 1433 06c1 17000000 		.4byte	.LASF99
 1434 06c5 0D       		.byte	0xd
 1435 06c6 DA       		.byte	0xda
 1436 06c7 5A030000 		.4byte	0x35a
 1437 06cb 02       		.byte	0x2
 1438 06cc 23       		.byte	0x23
 1439 06cd 0C       		.uleb128 0xc
 1440 06ce 00       		.byte	0
 1441 06cf 03       		.uleb128 0x3
 1442 06d0 E5000000 		.4byte	.LASF100
 1443 06d4 0D       		.byte	0xd
 1444 06d5 DB       		.byte	0xdb
 1445 06d6 8E060000 		.4byte	0x68e
 1446 06da 08       		.uleb128 0x8
 1447 06db 04       		.byte	0x4
 1448 06dc 0D       		.byte	0xd
 1449 06dd E0       		.byte	0xe0
 1450 06de F1060000 		.4byte	0x6f1
 1451 06e2 06       		.uleb128 0x6
 1452 06e3 00020000 		.4byte	.LASF101
 1453 06e7 0D       		.byte	0xd
 1454 06e8 E4       		.byte	0xe4
 1455 06e9 76050000 		.4byte	0x576
 1456 06ed 02       		.byte	0x2
 1457 06ee 23       		.byte	0x23
 1458 06ef 00       		.uleb128 0
 1459 06f0 00       		.byte	0
 1460 06f1 03       		.uleb128 0x3
 1461 06f2 9B040000 		.4byte	.LASF102
 1462 06f6 0D       		.byte	0xd
 1463 06f7 E6       		.byte	0xe6
 1464 06f8 DA060000 		.4byte	0x6da
 1465 06fc 09       		.uleb128 0x9
 1466 06fd 04       		.byte	0x4
 1467 06fe 02070000 		.4byte	0x702
 1468 0702 12       		.uleb128 0x12
 1469 0703 F1060000 		.4byte	0x6f1
 1470 0707 09       		.uleb128 0x9
 1471 0708 04       		.byte	0x4
 1472 0709 83060000 		.4byte	0x683
ARM GAS  /var/folders/5n/p_75w94d66l9ssrldxqdhh700000gn/T//ccISYCG7.s 			page 27


 1473 070d 09       		.uleb128 0x9
 1474 070e 04       		.byte	0x4
 1475 070f CF060000 		.4byte	0x6cf
 1476 0713 16       		.uleb128 0x16
 1477 0714 0C       		.byte	0xc
 1478 0715 0D       		.byte	0xd
 1479 0716 1801     		.2byte	0x118
 1480 0718 4A070000 		.4byte	0x74a
 1481 071c 15       		.uleb128 0x15
 1482 071d 00040000 		.4byte	.LASF103
 1483 0721 0D       		.byte	0xd
 1484 0722 1C01     		.2byte	0x11c
 1485 0724 30000000 		.4byte	0x30
 1486 0728 02       		.byte	0x2
 1487 0729 23       		.byte	0x23
 1488 072a 00       		.uleb128 0
 1489 072b 15       		.uleb128 0x15
 1490 072c D7010000 		.4byte	.LASF104
 1491 0730 0D       		.byte	0xd
 1492 0731 2001     		.2byte	0x120
 1493 0733 30000000 		.4byte	0x30
 1494 0737 02       		.byte	0x2
 1495 0738 23       		.byte	0x23
 1496 0739 04       		.uleb128 0x4
 1497 073a 15       		.uleb128 0x15
 1498 073b 0E000000 		.4byte	.LASF105
 1499 073f 0D       		.byte	0xd
 1500 0740 2501     		.2byte	0x125
 1501 0742 0D070000 		.4byte	0x70d
 1502 0746 02       		.byte	0x2
 1503 0747 23       		.byte	0x23
 1504 0748 08       		.uleb128 0x8
 1505 0749 00       		.byte	0
 1506 074a 17       		.uleb128 0x17
 1507 074b 9E000000 		.4byte	.LASF106
 1508 074f 0D       		.byte	0xd
 1509 0750 2601     		.2byte	0x126
 1510 0752 13070000 		.4byte	0x713
 1511 0756 16       		.uleb128 0x16
 1512 0757 0C       		.byte	0xc
 1513 0758 0D       		.byte	0xd
 1514 0759 2B01     		.2byte	0x12b
 1515 075b 8D070000 		.4byte	0x78d
 1516 075f 15       		.uleb128 0x15
 1517 0760 00040000 		.4byte	.LASF103
 1518 0764 0D       		.byte	0xd
 1519 0765 2F01     		.2byte	0x12f
 1520 0767 30000000 		.4byte	0x30
 1521 076b 02       		.byte	0x2
 1522 076c 23       		.byte	0x23
 1523 076d 00       		.uleb128 0
 1524 076e 15       		.uleb128 0x15
 1525 076f D7010000 		.4byte	.LASF104
 1526 0773 0D       		.byte	0xd
 1527 0774 3301     		.2byte	0x133
 1528 0776 30000000 		.4byte	0x30
 1529 077a 02       		.byte	0x2
ARM GAS  /var/folders/5n/p_75w94d66l9ssrldxqdhh700000gn/T//ccISYCG7.s 			page 28


 1530 077b 23       		.byte	0x23
 1531 077c 04       		.uleb128 0x4
 1532 077d 15       		.uleb128 0x15
 1533 077e 0E000000 		.4byte	.LASF105
 1534 0782 0D       		.byte	0xd
 1535 0783 3801     		.2byte	0x138
 1536 0785 07070000 		.4byte	0x707
 1537 0789 02       		.byte	0x2
 1538 078a 23       		.byte	0x23
 1539 078b 08       		.uleb128 0x8
 1540 078c 00       		.byte	0
 1541 078d 17       		.uleb128 0x17
 1542 078e 54020000 		.4byte	.LASF107
 1543 0792 0D       		.byte	0xd
 1544 0793 3901     		.2byte	0x139
 1545 0795 56070000 		.4byte	0x756
 1546 0799 18       		.uleb128 0x18
 1547 079a 01       		.byte	0x1
 1548 079b 44010000 		.4byte	.LASF123
 1549 079f 01       		.byte	0x1
 1550 07a0 41       		.byte	0x41
 1551 07a1 01       		.byte	0x1
 1552 07a2 00000000 		.4byte	.LFB118
 1553 07a6 04000000 		.4byte	.LFE118
 1554 07aa 02       		.byte	0x2
 1555 07ab 7D       		.byte	0x7d
 1556 07ac 00       		.sleb128 0
 1557 07ad 19       		.uleb128 0x19
 1558 07ae 01       		.byte	0x1
 1559 07af 90030000 		.4byte	.LASF108
 1560 07b3 01       		.byte	0x1
 1561 07b4 4D       		.byte	0x4d
 1562 07b5 01       		.byte	0x1
 1563 07b6 00000000 		.4byte	.LFB119
 1564 07ba 28000000 		.4byte	.LFE119
 1565 07be 00000000 		.4byte	.LLST0
 1566 07c2 D6070000 		.4byte	0x7d6
 1567 07c6 1A       		.uleb128 0x1a
 1568 07c7 09010000 		.4byte	.LASF110
 1569 07cb 01       		.byte	0x1
 1570 07cc 4D       		.byte	0x4d
 1571 07cd D6070000 		.4byte	0x7d6
 1572 07d1 20000000 		.4byte	.LLST1
 1573 07d5 00       		.byte	0
 1574 07d6 09       		.uleb128 0x9
 1575 07d7 04       		.byte	0x4
 1576 07d8 A7050000 		.4byte	0x5a7
 1577 07dc 19       		.uleb128 0x19
 1578 07dd 01       		.byte	0x1
 1579 07de 27000000 		.4byte	.LASF109
 1580 07e2 01       		.byte	0x1
 1581 07e3 60       		.byte	0x60
 1582 07e4 01       		.byte	0x1
 1583 07e5 00000000 		.4byte	.LFB120
 1584 07e9 1C000000 		.4byte	.LFE120
 1585 07ed 3E000000 		.4byte	.LLST2
 1586 07f1 46080000 		.4byte	0x846
ARM GAS  /var/folders/5n/p_75w94d66l9ssrldxqdhh700000gn/T//ccISYCG7.s 			page 29


 1587 07f5 1A       		.uleb128 0x1a
 1588 07f6 09010000 		.4byte	.LASF110
 1589 07fa 01       		.byte	0x1
 1590 07fb 60       		.byte	0x60
 1591 07fc D6070000 		.4byte	0x7d6
 1592 0800 5E000000 		.4byte	.LLST3
 1593 0804 1A       		.uleb128 0x1a
 1594 0805 D4030000 		.4byte	.LASF83
 1595 0809 01       		.byte	0x1
 1596 080a 60       		.byte	0x60
 1597 080b FC060000 		.4byte	0x6fc
 1598 080f 7C000000 		.4byte	.LLST4
 1599 0813 1B       		.uleb128 0x1b
 1600 0814 00000000 		.4byte	.Ldebug_ranges0+0
 1601 0818 2C080000 		.4byte	0x82c
 1602 081c 1C       		.uleb128 0x1c
 1603 081d 746D7000 		.ascii	"tmp\000"
 1604 0821 01       		.byte	0x1
 1605 0822 64       		.byte	0x64
 1606 0823 7B000000 		.4byte	0x7b
 1607 0827 8F000000 		.4byte	.LLST5
 1608 082b 00       		.byte	0
 1609 082c 1D       		.uleb128 0x1d
 1610 082d 14000000 		.4byte	.LBB4
 1611 0831 1A000000 		.4byte	.LBE4
 1612 0835 1C       		.uleb128 0x1c
 1613 0836 746D7000 		.ascii	"tmp\000"
 1614 083a 01       		.byte	0x1
 1615 083b 6A       		.byte	0x6a
 1616 083c 7B000000 		.4byte	0x7b
 1617 0840 A2000000 		.4byte	.LLST6
 1618 0844 00       		.byte	0
 1619 0845 00       		.byte	0
 1620 0846 19       		.uleb128 0x19
 1621 0847 01       		.byte	0x1
 1622 0848 71040000 		.4byte	.LASF111
 1623 084c 01       		.byte	0x1
 1624 084d 74       		.byte	0x74
 1625 084e 01       		.byte	0x1
 1626 084f 00000000 		.4byte	.LFB121
 1627 0853 1A000000 		.4byte	.LFE121
 1628 0857 B5000000 		.4byte	.LLST7
 1629 085b A1080000 		.4byte	0x8a1
 1630 085f 1A       		.uleb128 0x1a
 1631 0860 09010000 		.4byte	.LASF110
 1632 0864 01       		.byte	0x1
 1633 0865 74       		.byte	0x74
 1634 0866 D6070000 		.4byte	0x7d6
 1635 086a D5000000 		.4byte	.LLST8
 1636 086e 1B       		.uleb128 0x1b
 1637 086f 18000000 		.4byte	.Ldebug_ranges0+0x18
 1638 0873 87080000 		.4byte	0x887
 1639 0877 1C       		.uleb128 0x1c
 1640 0878 746D7000 		.ascii	"tmp\000"
 1641 087c 01       		.byte	0x1
 1642 087d 78       		.byte	0x78
 1643 087e 7B000000 		.4byte	0x7b
ARM GAS  /var/folders/5n/p_75w94d66l9ssrldxqdhh700000gn/T//ccISYCG7.s 			page 30


 1644 0882 F3000000 		.4byte	.LLST9
 1645 0886 00       		.byte	0
 1646 0887 1D       		.uleb128 0x1d
 1647 0888 12000000 		.4byte	.LBB7
 1648 088c 18000000 		.4byte	.LBE7
 1649 0890 1C       		.uleb128 0x1c
 1650 0891 746D7000 		.ascii	"tmp\000"
 1651 0895 01       		.byte	0x1
 1652 0896 7D       		.byte	0x7d
 1653 0897 7B000000 		.4byte	0x7b
 1654 089b 06010000 		.4byte	.LLST10
 1655 089f 00       		.byte	0
 1656 08a0 00       		.byte	0
 1657 08a1 1E       		.uleb128 0x1e
 1658 08a2 01       		.byte	0x1
 1659 08a3 3A020000 		.4byte	.LASF114
 1660 08a7 01       		.byte	0x1
 1661 08a8 93       		.byte	0x93
 1662 08a9 01       		.byte	0x1
 1663 08aa DD000000 		.4byte	0xdd
 1664 08ae 00000000 		.4byte	.LFB122
 1665 08b2 5C000000 		.4byte	.LFE122
 1666 08b6 19010000 		.4byte	.LLST11
 1667 08ba 59090000 		.4byte	0x959
 1668 08be 1A       		.uleb128 0x1a
 1669 08bf 09010000 		.4byte	.LASF110
 1670 08c3 01       		.byte	0x1
 1671 08c4 93       		.byte	0x93
 1672 08c5 D6070000 		.4byte	0x7d6
 1673 08c9 39010000 		.4byte	.LLST12
 1674 08cd 1F       		.uleb128 0x1f
 1675 08ce 74647000 		.ascii	"tdp\000"
 1676 08d2 01       		.byte	0x1
 1677 08d3 94       		.byte	0x94
 1678 08d4 59090000 		.4byte	0x959
 1679 08d8 57010000 		.4byte	.LLST13
 1680 08dc 1A       		.uleb128 0x1a
 1681 08dd CC020000 		.4byte	.LASF112
 1682 08e1 01       		.byte	0x1
 1683 08e2 95       		.byte	0x95
 1684 08e3 FE000000 		.4byte	0xfe
 1685 08e7 75010000 		.4byte	.LLST14
 1686 08eb 1C       		.uleb128 0x1c
 1687 08ec 6D736700 		.ascii	"msg\000"
 1688 08f0 01       		.byte	0x1
 1689 08f1 96       		.byte	0x96
 1690 08f2 DD000000 		.4byte	0xdd
 1691 08f6 93010000 		.4byte	.LLST15
 1692 08fa 1C       		.uleb128 0x1c
 1693 08fb 6E6F7700 		.ascii	"now\000"
 1694 08ff 01       		.byte	0x1
 1695 0900 97       		.byte	0x97
 1696 0901 FE000000 		.4byte	0xfe
 1697 0905 BC010000 		.4byte	.LLST16
 1698 0909 1B       		.uleb128 0x1b
 1699 090a 30000000 		.4byte	.Ldebug_ranges0+0x30
 1700 090e 22090000 		.4byte	0x922
ARM GAS  /var/folders/5n/p_75w94d66l9ssrldxqdhh700000gn/T//ccISYCG7.s 			page 31


 1701 0912 1C       		.uleb128 0x1c
 1702 0913 746D7000 		.ascii	"tmp\000"
 1703 0917 01       		.byte	0x1
 1704 0918 9F       		.byte	0x9f
 1705 0919 7B000000 		.4byte	0x7b
 1706 091d DA010000 		.4byte	.LLST17
 1707 0921 00       		.byte	0
 1708 0922 20       		.uleb128 0x20
 1709 0923 34000000 		.4byte	.LBB9
 1710 0927 3A000000 		.4byte	.LBE9
 1711 092b 3F090000 		.4byte	0x93f
 1712 092f 1C       		.uleb128 0x1c
 1713 0930 746D7000 		.ascii	"tmp\000"
 1714 0934 01       		.byte	0x1
 1715 0935 A7       		.byte	0xa7
 1716 0936 7B000000 		.4byte	0x7b
 1717 093a ED010000 		.4byte	.LLST18
 1718 093e 00       		.byte	0
 1719 093f 1D       		.uleb128 0x1d
 1720 0940 4C000000 		.4byte	.LBB11
 1721 0944 52000000 		.4byte	.LBE11
 1722 0948 1C       		.uleb128 0x1c
 1723 0949 746D7000 		.ascii	"tmp\000"
 1724 094d 01       		.byte	0x1
 1725 094e A2       		.byte	0xa2
 1726 094f 7B000000 		.4byte	0x7b
 1727 0953 00020000 		.4byte	.LLST19
 1728 0957 00       		.byte	0
 1729 0958 00       		.byte	0
 1730 0959 09       		.uleb128 0x9
 1731 095a 04       		.byte	0x4
 1732 095b 4A070000 		.4byte	0x74a
 1733 095f 21       		.uleb128 0x21
 1734 0960 01       		.byte	0x1
 1735 0961 30000000 		.4byte	.LASF113
 1736 0965 01       		.byte	0x1
 1737 0966 B4       		.byte	0xb4
 1738 0967 01       		.byte	0x1
 1739 0968 00000000 		.4byte	.LFB123
 1740 096c 04000000 		.4byte	.LFE123
 1741 0970 02       		.byte	0x2
 1742 0971 7D       		.byte	0x7d
 1743 0972 00       		.sleb128 0
 1744 0973 87090000 		.4byte	0x987
 1745 0977 1F       		.uleb128 0x1f
 1746 0978 74647000 		.ascii	"tdp\000"
 1747 097c 01       		.byte	0x1
 1748 097d B4       		.byte	0xb4
 1749 097e 59090000 		.4byte	0x959
 1750 0982 13020000 		.4byte	.LLST20
 1751 0986 00       		.byte	0
 1752 0987 1E       		.uleb128 0x1e
 1753 0988 01       		.byte	0x1
 1754 0989 69020000 		.4byte	.LASF115
 1755 098d 01       		.byte	0x1
 1756 098e CE       		.byte	0xce
 1757 098f 01       		.byte	0x1
ARM GAS  /var/folders/5n/p_75w94d66l9ssrldxqdhh700000gn/T//ccISYCG7.s 			page 32


 1758 0990 DD000000 		.4byte	0xdd
 1759 0994 00000000 		.4byte	.LFB124
 1760 0998 5C000000 		.4byte	.LFE124
 1761 099c 26020000 		.4byte	.LLST21
 1762 09a0 3F0A0000 		.4byte	0xa3f
 1763 09a4 1A       		.uleb128 0x1a
 1764 09a5 09010000 		.4byte	.LASF110
 1765 09a9 01       		.byte	0x1
 1766 09aa CE       		.byte	0xce
 1767 09ab D6070000 		.4byte	0x7d6
 1768 09af 46020000 		.4byte	.LLST22
 1769 09b3 1F       		.uleb128 0x1f
 1770 09b4 72647000 		.ascii	"rdp\000"
 1771 09b8 01       		.byte	0x1
 1772 09b9 CF       		.byte	0xcf
 1773 09ba 3F0A0000 		.4byte	0xa3f
 1774 09be 64020000 		.4byte	.LLST23
 1775 09c2 1A       		.uleb128 0x1a
 1776 09c3 CC020000 		.4byte	.LASF112
 1777 09c7 01       		.byte	0x1
 1778 09c8 D0       		.byte	0xd0
 1779 09c9 FE000000 		.4byte	0xfe
 1780 09cd 82020000 		.4byte	.LLST24
 1781 09d1 1C       		.uleb128 0x1c
 1782 09d2 6D736700 		.ascii	"msg\000"
 1783 09d6 01       		.byte	0x1
 1784 09d7 D1       		.byte	0xd1
 1785 09d8 DD000000 		.4byte	0xdd
 1786 09dc A0020000 		.4byte	.LLST25
 1787 09e0 1C       		.uleb128 0x1c
 1788 09e1 6E6F7700 		.ascii	"now\000"
 1789 09e5 01       		.byte	0x1
 1790 09e6 D2       		.byte	0xd2
 1791 09e7 FE000000 		.4byte	0xfe
 1792 09eb C9020000 		.4byte	.LLST26
 1793 09ef 1B       		.uleb128 0x1b
 1794 09f0 48000000 		.4byte	.Ldebug_ranges0+0x48
 1795 09f4 080A0000 		.4byte	0xa08
 1796 09f8 1C       		.uleb128 0x1c
 1797 09f9 746D7000 		.ascii	"tmp\000"
 1798 09fd 01       		.byte	0x1
 1799 09fe DA       		.byte	0xda
 1800 09ff 7B000000 		.4byte	0x7b
 1801 0a03 E7020000 		.4byte	.LLST27
 1802 0a07 00       		.byte	0
 1803 0a08 20       		.uleb128 0x20
 1804 0a09 34000000 		.4byte	.LBB13
 1805 0a0d 3A000000 		.4byte	.LBE13
 1806 0a11 250A0000 		.4byte	0xa25
 1807 0a15 1C       		.uleb128 0x1c
 1808 0a16 746D7000 		.ascii	"tmp\000"
 1809 0a1a 01       		.byte	0x1
 1810 0a1b E2       		.byte	0xe2
 1811 0a1c 7B000000 		.4byte	0x7b
 1812 0a20 FA020000 		.4byte	.LLST28
 1813 0a24 00       		.byte	0
 1814 0a25 1D       		.uleb128 0x1d
ARM GAS  /var/folders/5n/p_75w94d66l9ssrldxqdhh700000gn/T//ccISYCG7.s 			page 33


 1815 0a26 4C000000 		.4byte	.LBB15
 1816 0a2a 52000000 		.4byte	.LBE15
 1817 0a2e 1C       		.uleb128 0x1c
 1818 0a2f 746D7000 		.ascii	"tmp\000"
 1819 0a33 01       		.byte	0x1
 1820 0a34 DD       		.byte	0xdd
 1821 0a35 7B000000 		.4byte	0x7b
 1822 0a39 0D030000 		.4byte	.LLST29
 1823 0a3d 00       		.byte	0
 1824 0a3e 00       		.byte	0
 1825 0a3f 09       		.uleb128 0x9
 1826 0a40 04       		.byte	0x4
 1827 0a41 8D070000 		.4byte	0x78d
 1828 0a45 21       		.uleb128 0x21
 1829 0a46 01       		.byte	0x1
 1830 0a47 55040000 		.4byte	.LASF116
 1831 0a4b 01       		.byte	0x1
 1832 0a4c F0       		.byte	0xf0
 1833 0a4d 01       		.byte	0x1
 1834 0a4e 00000000 		.4byte	.LFB125
 1835 0a52 04000000 		.4byte	.LFE125
 1836 0a56 02       		.byte	0x2
 1837 0a57 7D       		.byte	0x7d
 1838 0a58 00       		.sleb128 0
 1839 0a59 6D0A0000 		.4byte	0xa6d
 1840 0a5d 1F       		.uleb128 0x1f
 1841 0a5e 72647000 		.ascii	"rdp\000"
 1842 0a62 01       		.byte	0x1
 1843 0a63 F0       		.byte	0xf0
 1844 0a64 3F0A0000 		.4byte	0xa3f
 1845 0a68 20030000 		.4byte	.LLST30
 1846 0a6c 00       		.byte	0
 1847 0a6d 22       		.uleb128 0x22
 1848 0a6e 01       		.byte	0x1
 1849 0a6f 84010000 		.4byte	.LASF117
 1850 0a73 01       		.byte	0x1
 1851 0a74 0101     		.2byte	0x101
 1852 0a76 01       		.byte	0x1
 1853 0a77 9B000000 		.4byte	0x9b
 1854 0a7b 00000000 		.4byte	.LFB126
 1855 0a7f 04000000 		.4byte	.LFE126
 1856 0a83 02       		.byte	0x2
 1857 0a84 7D       		.byte	0x7d
 1858 0a85 00       		.sleb128 0
 1859 0a86 9B0A0000 		.4byte	0xa9b
 1860 0a8a 23       		.uleb128 0x23
 1861 0a8b 09010000 		.4byte	.LASF110
 1862 0a8f 01       		.byte	0x1
 1863 0a90 0101     		.2byte	0x101
 1864 0a92 D6070000 		.4byte	0x7d6
 1865 0a96 33030000 		.4byte	.LLST31
 1866 0a9a 00       		.byte	0
 1867 0a9b 24       		.uleb128 0x24
 1868 0a9c 4D000000 		.4byte	.LASF118
 1869 0aa0 08       		.byte	0x8
 1870 0aa1 D1       		.byte	0xd1
 1871 0aa2 26040000 		.4byte	0x426
ARM GAS  /var/folders/5n/p_75w94d66l9ssrldxqdhh700000gn/T//ccISYCG7.s 			page 34


 1872 0aa6 01       		.byte	0x1
 1873 0aa7 01       		.byte	0x1
 1874 0aa8 25       		.uleb128 0x25
 1875 0aa9 8A000000 		.4byte	.LASF119
 1876 0aad 0E       		.byte	0xe
 1877 0aae 9806     		.2byte	0x698
 1878 0ab0 7C050000 		.4byte	0x57c
 1879 0ab4 01       		.byte	0x1
 1880 0ab5 01       		.byte	0x1
 1881 0ab6 24       		.uleb128 0x24
 1882 0ab7 4D000000 		.4byte	.LASF118
 1883 0abb 08       		.byte	0x8
 1884 0abc D1       		.byte	0xd1
 1885 0abd 26040000 		.4byte	0x426
 1886 0ac1 01       		.byte	0x1
 1887 0ac2 01       		.byte	0x1
 1888 0ac3 25       		.uleb128 0x25
 1889 0ac4 8A000000 		.4byte	.LASF119
 1890 0ac8 0E       		.byte	0xe
 1891 0ac9 9806     		.2byte	0x698
 1892 0acb 7C050000 		.4byte	0x57c
 1893 0acf 01       		.byte	0x1
 1894 0ad0 01       		.byte	0x1
 1895 0ad1 00       		.byte	0
 1896              		.section	.debug_abbrev,"",%progbits
 1897              	.Ldebug_abbrev0:
 1898 0000 01       		.uleb128 0x1
 1899 0001 11       		.uleb128 0x11
 1900 0002 01       		.byte	0x1
 1901 0003 25       		.uleb128 0x25
 1902 0004 0E       		.uleb128 0xe
 1903 0005 13       		.uleb128 0x13
 1904 0006 0B       		.uleb128 0xb
 1905 0007 03       		.uleb128 0x3
 1906 0008 0E       		.uleb128 0xe
 1907 0009 1B       		.uleb128 0x1b
 1908 000a 0E       		.uleb128 0xe
 1909 000b 11       		.uleb128 0x11
 1910 000c 01       		.uleb128 0x1
 1911 000d 52       		.uleb128 0x52
 1912 000e 01       		.uleb128 0x1
 1913 000f 55       		.uleb128 0x55
 1914 0010 06       		.uleb128 0x6
 1915 0011 10       		.uleb128 0x10
 1916 0012 06       		.uleb128 0x6
 1917 0013 00       		.byte	0
 1918 0014 00       		.byte	0
 1919 0015 02       		.uleb128 0x2
 1920 0016 24       		.uleb128 0x24
 1921 0017 00       		.byte	0
 1922 0018 0B       		.uleb128 0xb
 1923 0019 0B       		.uleb128 0xb
 1924 001a 3E       		.uleb128 0x3e
 1925 001b 0B       		.uleb128 0xb
 1926 001c 03       		.uleb128 0x3
 1927 001d 08       		.uleb128 0x8
 1928 001e 00       		.byte	0
ARM GAS  /var/folders/5n/p_75w94d66l9ssrldxqdhh700000gn/T//ccISYCG7.s 			page 35


 1929 001f 00       		.byte	0
 1930 0020 03       		.uleb128 0x3
 1931 0021 16       		.uleb128 0x16
 1932 0022 00       		.byte	0
 1933 0023 03       		.uleb128 0x3
 1934 0024 0E       		.uleb128 0xe
 1935 0025 3A       		.uleb128 0x3a
 1936 0026 0B       		.uleb128 0xb
 1937 0027 3B       		.uleb128 0x3b
 1938 0028 0B       		.uleb128 0xb
 1939 0029 49       		.uleb128 0x49
 1940 002a 13       		.uleb128 0x13
 1941 002b 00       		.byte	0
 1942 002c 00       		.byte	0
 1943 002d 04       		.uleb128 0x4
 1944 002e 24       		.uleb128 0x24
 1945 002f 00       		.byte	0
 1946 0030 0B       		.uleb128 0xb
 1947 0031 0B       		.uleb128 0xb
 1948 0032 3E       		.uleb128 0x3e
 1949 0033 0B       		.uleb128 0xb
 1950 0034 03       		.uleb128 0x3
 1951 0035 0E       		.uleb128 0xe
 1952 0036 00       		.byte	0
 1953 0037 00       		.byte	0
 1954 0038 05       		.uleb128 0x5
 1955 0039 13       		.uleb128 0x13
 1956 003a 01       		.byte	0x1
 1957 003b 03       		.uleb128 0x3
 1958 003c 0E       		.uleb128 0xe
 1959 003d 0B       		.uleb128 0xb
 1960 003e 0B       		.uleb128 0xb
 1961 003f 3A       		.uleb128 0x3a
 1962 0040 0B       		.uleb128 0xb
 1963 0041 3B       		.uleb128 0x3b
 1964 0042 0B       		.uleb128 0xb
 1965 0043 01       		.uleb128 0x1
 1966 0044 13       		.uleb128 0x13
 1967 0045 00       		.byte	0
 1968 0046 00       		.byte	0
 1969 0047 06       		.uleb128 0x6
 1970 0048 0D       		.uleb128 0xd
 1971 0049 00       		.byte	0
 1972 004a 03       		.uleb128 0x3
 1973 004b 0E       		.uleb128 0xe
 1974 004c 3A       		.uleb128 0x3a
 1975 004d 0B       		.uleb128 0xb
 1976 004e 3B       		.uleb128 0x3b
 1977 004f 0B       		.uleb128 0xb
 1978 0050 49       		.uleb128 0x49
 1979 0051 13       		.uleb128 0x13
 1980 0052 38       		.uleb128 0x38
 1981 0053 0A       		.uleb128 0xa
 1982 0054 00       		.byte	0
 1983 0055 00       		.byte	0
 1984 0056 07       		.uleb128 0x7
 1985 0057 0D       		.uleb128 0xd
ARM GAS  /var/folders/5n/p_75w94d66l9ssrldxqdhh700000gn/T//ccISYCG7.s 			page 36


 1986 0058 00       		.byte	0
 1987 0059 03       		.uleb128 0x3
 1988 005a 08       		.uleb128 0x8
 1989 005b 3A       		.uleb128 0x3a
 1990 005c 0B       		.uleb128 0xb
 1991 005d 3B       		.uleb128 0x3b
 1992 005e 0B       		.uleb128 0xb
 1993 005f 49       		.uleb128 0x49
 1994 0060 13       		.uleb128 0x13
 1995 0061 38       		.uleb128 0x38
 1996 0062 0A       		.uleb128 0xa
 1997 0063 00       		.byte	0
 1998 0064 00       		.byte	0
 1999 0065 08       		.uleb128 0x8
 2000 0066 13       		.uleb128 0x13
 2001 0067 01       		.byte	0x1
 2002 0068 0B       		.uleb128 0xb
 2003 0069 0B       		.uleb128 0xb
 2004 006a 3A       		.uleb128 0x3a
 2005 006b 0B       		.uleb128 0xb
 2006 006c 3B       		.uleb128 0x3b
 2007 006d 0B       		.uleb128 0xb
 2008 006e 01       		.uleb128 0x1
 2009 006f 13       		.uleb128 0x13
 2010 0070 00       		.byte	0
 2011 0071 00       		.byte	0
 2012 0072 09       		.uleb128 0x9
 2013 0073 0F       		.uleb128 0xf
 2014 0074 00       		.byte	0
 2015 0075 0B       		.uleb128 0xb
 2016 0076 0B       		.uleb128 0xb
 2017 0077 49       		.uleb128 0x49
 2018 0078 13       		.uleb128 0x13
 2019 0079 00       		.byte	0
 2020 007a 00       		.byte	0
 2021 007b 0A       		.uleb128 0xa
 2022 007c 0F       		.uleb128 0xf
 2023 007d 00       		.byte	0
 2024 007e 0B       		.uleb128 0xb
 2025 007f 0B       		.uleb128 0xb
 2026 0080 00       		.byte	0
 2027 0081 00       		.byte	0
 2028 0082 0B       		.uleb128 0xb
 2029 0083 13       		.uleb128 0x13
 2030 0084 01       		.byte	0x1
 2031 0085 03       		.uleb128 0x3
 2032 0086 0E       		.uleb128 0xe
 2033 0087 0B       		.uleb128 0xb
 2034 0088 0B       		.uleb128 0xb
 2035 0089 3A       		.uleb128 0x3a
 2036 008a 0B       		.uleb128 0xb
 2037 008b 3B       		.uleb128 0x3b
 2038 008c 05       		.uleb128 0x5
 2039 008d 01       		.uleb128 0x1
 2040 008e 13       		.uleb128 0x13
 2041 008f 00       		.byte	0
 2042 0090 00       		.byte	0
ARM GAS  /var/folders/5n/p_75w94d66l9ssrldxqdhh700000gn/T//ccISYCG7.s 			page 37


 2043 0091 0C       		.uleb128 0xc
 2044 0092 0D       		.uleb128 0xd
 2045 0093 00       		.byte	0
 2046 0094 03       		.uleb128 0x3
 2047 0095 08       		.uleb128 0x8
 2048 0096 3A       		.uleb128 0x3a
 2049 0097 0B       		.uleb128 0xb
 2050 0098 3B       		.uleb128 0x3b
 2051 0099 05       		.uleb128 0x5
 2052 009a 49       		.uleb128 0x49
 2053 009b 13       		.uleb128 0x13
 2054 009c 38       		.uleb128 0x38
 2055 009d 0A       		.uleb128 0xa
 2056 009e 00       		.byte	0
 2057 009f 00       		.byte	0
 2058 00a0 0D       		.uleb128 0xd
 2059 00a1 35       		.uleb128 0x35
 2060 00a2 00       		.byte	0
 2061 00a3 49       		.uleb128 0x49
 2062 00a4 13       		.uleb128 0x13
 2063 00a5 00       		.byte	0
 2064 00a6 00       		.byte	0
 2065 00a7 0E       		.uleb128 0xe
 2066 00a8 15       		.uleb128 0x15
 2067 00a9 01       		.byte	0x1
 2068 00aa 27       		.uleb128 0x27
 2069 00ab 0C       		.uleb128 0xc
 2070 00ac 01       		.uleb128 0x1
 2071 00ad 13       		.uleb128 0x13
 2072 00ae 00       		.byte	0
 2073 00af 00       		.byte	0
 2074 00b0 0F       		.uleb128 0xf
 2075 00b1 05       		.uleb128 0x5
 2076 00b2 00       		.byte	0
 2077 00b3 49       		.uleb128 0x49
 2078 00b4 13       		.uleb128 0x13
 2079 00b5 00       		.byte	0
 2080 00b6 00       		.byte	0
 2081 00b7 10       		.uleb128 0x10
 2082 00b8 17       		.uleb128 0x17
 2083 00b9 01       		.byte	0x1
 2084 00ba 0B       		.uleb128 0xb
 2085 00bb 0B       		.uleb128 0xb
 2086 00bc 3A       		.uleb128 0x3a
 2087 00bd 0B       		.uleb128 0xb
 2088 00be 3B       		.uleb128 0x3b
 2089 00bf 0B       		.uleb128 0xb
 2090 00c0 01       		.uleb128 0x1
 2091 00c1 13       		.uleb128 0x13
 2092 00c2 00       		.byte	0
 2093 00c3 00       		.byte	0
 2094 00c4 11       		.uleb128 0x11
 2095 00c5 0D       		.uleb128 0xd
 2096 00c6 00       		.byte	0
 2097 00c7 03       		.uleb128 0x3
 2098 00c8 0E       		.uleb128 0xe
 2099 00c9 3A       		.uleb128 0x3a
ARM GAS  /var/folders/5n/p_75w94d66l9ssrldxqdhh700000gn/T//ccISYCG7.s 			page 38


 2100 00ca 0B       		.uleb128 0xb
 2101 00cb 3B       		.uleb128 0x3b
 2102 00cc 0B       		.uleb128 0xb
 2103 00cd 49       		.uleb128 0x49
 2104 00ce 13       		.uleb128 0x13
 2105 00cf 00       		.byte	0
 2106 00d0 00       		.byte	0
 2107 00d1 12       		.uleb128 0x12
 2108 00d2 26       		.uleb128 0x26
 2109 00d3 00       		.byte	0
 2110 00d4 49       		.uleb128 0x49
 2111 00d5 13       		.uleb128 0x13
 2112 00d6 00       		.byte	0
 2113 00d7 00       		.byte	0
 2114 00d8 13       		.uleb128 0x13
 2115 00d9 04       		.uleb128 0x4
 2116 00da 01       		.byte	0x1
 2117 00db 0B       		.uleb128 0xb
 2118 00dc 0B       		.uleb128 0xb
 2119 00dd 3A       		.uleb128 0x3a
 2120 00de 0B       		.uleb128 0xb
 2121 00df 3B       		.uleb128 0x3b
 2122 00e0 0B       		.uleb128 0xb
 2123 00e1 01       		.uleb128 0x1
 2124 00e2 13       		.uleb128 0x13
 2125 00e3 00       		.byte	0
 2126 00e4 00       		.byte	0
 2127 00e5 14       		.uleb128 0x14
 2128 00e6 28       		.uleb128 0x28
 2129 00e7 00       		.byte	0
 2130 00e8 03       		.uleb128 0x3
 2131 00e9 0E       		.uleb128 0xe
 2132 00ea 1C       		.uleb128 0x1c
 2133 00eb 0D       		.uleb128 0xd
 2134 00ec 00       		.byte	0
 2135 00ed 00       		.byte	0
 2136 00ee 15       		.uleb128 0x15
 2137 00ef 0D       		.uleb128 0xd
 2138 00f0 00       		.byte	0
 2139 00f1 03       		.uleb128 0x3
 2140 00f2 0E       		.uleb128 0xe
 2141 00f3 3A       		.uleb128 0x3a
 2142 00f4 0B       		.uleb128 0xb
 2143 00f5 3B       		.uleb128 0x3b
 2144 00f6 05       		.uleb128 0x5
 2145 00f7 49       		.uleb128 0x49
 2146 00f8 13       		.uleb128 0x13
 2147 00f9 38       		.uleb128 0x38
 2148 00fa 0A       		.uleb128 0xa
 2149 00fb 00       		.byte	0
 2150 00fc 00       		.byte	0
 2151 00fd 16       		.uleb128 0x16
 2152 00fe 13       		.uleb128 0x13
 2153 00ff 01       		.byte	0x1
 2154 0100 0B       		.uleb128 0xb
 2155 0101 0B       		.uleb128 0xb
 2156 0102 3A       		.uleb128 0x3a
ARM GAS  /var/folders/5n/p_75w94d66l9ssrldxqdhh700000gn/T//ccISYCG7.s 			page 39


 2157 0103 0B       		.uleb128 0xb
 2158 0104 3B       		.uleb128 0x3b
 2159 0105 05       		.uleb128 0x5
 2160 0106 01       		.uleb128 0x1
 2161 0107 13       		.uleb128 0x13
 2162 0108 00       		.byte	0
 2163 0109 00       		.byte	0
 2164 010a 17       		.uleb128 0x17
 2165 010b 16       		.uleb128 0x16
 2166 010c 00       		.byte	0
 2167 010d 03       		.uleb128 0x3
 2168 010e 0E       		.uleb128 0xe
 2169 010f 3A       		.uleb128 0x3a
 2170 0110 0B       		.uleb128 0xb
 2171 0111 3B       		.uleb128 0x3b
 2172 0112 05       		.uleb128 0x5
 2173 0113 49       		.uleb128 0x49
 2174 0114 13       		.uleb128 0x13
 2175 0115 00       		.byte	0
 2176 0116 00       		.byte	0
 2177 0117 18       		.uleb128 0x18
 2178 0118 2E       		.uleb128 0x2e
 2179 0119 00       		.byte	0
 2180 011a 3F       		.uleb128 0x3f
 2181 011b 0C       		.uleb128 0xc
 2182 011c 03       		.uleb128 0x3
 2183 011d 0E       		.uleb128 0xe
 2184 011e 3A       		.uleb128 0x3a
 2185 011f 0B       		.uleb128 0xb
 2186 0120 3B       		.uleb128 0x3b
 2187 0121 0B       		.uleb128 0xb
 2188 0122 27       		.uleb128 0x27
 2189 0123 0C       		.uleb128 0xc
 2190 0124 11       		.uleb128 0x11
 2191 0125 01       		.uleb128 0x1
 2192 0126 12       		.uleb128 0x12
 2193 0127 01       		.uleb128 0x1
 2194 0128 40       		.uleb128 0x40
 2195 0129 0A       		.uleb128 0xa
 2196 012a 00       		.byte	0
 2197 012b 00       		.byte	0
 2198 012c 19       		.uleb128 0x19
 2199 012d 2E       		.uleb128 0x2e
 2200 012e 01       		.byte	0x1
 2201 012f 3F       		.uleb128 0x3f
 2202 0130 0C       		.uleb128 0xc
 2203 0131 03       		.uleb128 0x3
 2204 0132 0E       		.uleb128 0xe
 2205 0133 3A       		.uleb128 0x3a
 2206 0134 0B       		.uleb128 0xb
 2207 0135 3B       		.uleb128 0x3b
 2208 0136 0B       		.uleb128 0xb
 2209 0137 27       		.uleb128 0x27
 2210 0138 0C       		.uleb128 0xc
 2211 0139 11       		.uleb128 0x11
 2212 013a 01       		.uleb128 0x1
 2213 013b 12       		.uleb128 0x12
ARM GAS  /var/folders/5n/p_75w94d66l9ssrldxqdhh700000gn/T//ccISYCG7.s 			page 40


 2214 013c 01       		.uleb128 0x1
 2215 013d 40       		.uleb128 0x40
 2216 013e 06       		.uleb128 0x6
 2217 013f 01       		.uleb128 0x1
 2218 0140 13       		.uleb128 0x13
 2219 0141 00       		.byte	0
 2220 0142 00       		.byte	0
 2221 0143 1A       		.uleb128 0x1a
 2222 0144 05       		.uleb128 0x5
 2223 0145 00       		.byte	0
 2224 0146 03       		.uleb128 0x3
 2225 0147 0E       		.uleb128 0xe
 2226 0148 3A       		.uleb128 0x3a
 2227 0149 0B       		.uleb128 0xb
 2228 014a 3B       		.uleb128 0x3b
 2229 014b 0B       		.uleb128 0xb
 2230 014c 49       		.uleb128 0x49
 2231 014d 13       		.uleb128 0x13
 2232 014e 02       		.uleb128 0x2
 2233 014f 06       		.uleb128 0x6
 2234 0150 00       		.byte	0
 2235 0151 00       		.byte	0
 2236 0152 1B       		.uleb128 0x1b
 2237 0153 0B       		.uleb128 0xb
 2238 0154 01       		.byte	0x1
 2239 0155 55       		.uleb128 0x55
 2240 0156 06       		.uleb128 0x6
 2241 0157 01       		.uleb128 0x1
 2242 0158 13       		.uleb128 0x13
 2243 0159 00       		.byte	0
 2244 015a 00       		.byte	0
 2245 015b 1C       		.uleb128 0x1c
 2246 015c 34       		.uleb128 0x34
 2247 015d 00       		.byte	0
 2248 015e 03       		.uleb128 0x3
 2249 015f 08       		.uleb128 0x8
 2250 0160 3A       		.uleb128 0x3a
 2251 0161 0B       		.uleb128 0xb
 2252 0162 3B       		.uleb128 0x3b
 2253 0163 0B       		.uleb128 0xb
 2254 0164 49       		.uleb128 0x49
 2255 0165 13       		.uleb128 0x13
 2256 0166 02       		.uleb128 0x2
 2257 0167 06       		.uleb128 0x6
 2258 0168 00       		.byte	0
 2259 0169 00       		.byte	0
 2260 016a 1D       		.uleb128 0x1d
 2261 016b 0B       		.uleb128 0xb
 2262 016c 01       		.byte	0x1
 2263 016d 11       		.uleb128 0x11
 2264 016e 01       		.uleb128 0x1
 2265 016f 12       		.uleb128 0x12
 2266 0170 01       		.uleb128 0x1
 2267 0171 00       		.byte	0
 2268 0172 00       		.byte	0
 2269 0173 1E       		.uleb128 0x1e
 2270 0174 2E       		.uleb128 0x2e
ARM GAS  /var/folders/5n/p_75w94d66l9ssrldxqdhh700000gn/T//ccISYCG7.s 			page 41


 2271 0175 01       		.byte	0x1
 2272 0176 3F       		.uleb128 0x3f
 2273 0177 0C       		.uleb128 0xc
 2274 0178 03       		.uleb128 0x3
 2275 0179 0E       		.uleb128 0xe
 2276 017a 3A       		.uleb128 0x3a
 2277 017b 0B       		.uleb128 0xb
 2278 017c 3B       		.uleb128 0x3b
 2279 017d 0B       		.uleb128 0xb
 2280 017e 27       		.uleb128 0x27
 2281 017f 0C       		.uleb128 0xc
 2282 0180 49       		.uleb128 0x49
 2283 0181 13       		.uleb128 0x13
 2284 0182 11       		.uleb128 0x11
 2285 0183 01       		.uleb128 0x1
 2286 0184 12       		.uleb128 0x12
 2287 0185 01       		.uleb128 0x1
 2288 0186 40       		.uleb128 0x40
 2289 0187 06       		.uleb128 0x6
 2290 0188 01       		.uleb128 0x1
 2291 0189 13       		.uleb128 0x13
 2292 018a 00       		.byte	0
 2293 018b 00       		.byte	0
 2294 018c 1F       		.uleb128 0x1f
 2295 018d 05       		.uleb128 0x5
 2296 018e 00       		.byte	0
 2297 018f 03       		.uleb128 0x3
 2298 0190 08       		.uleb128 0x8
 2299 0191 3A       		.uleb128 0x3a
 2300 0192 0B       		.uleb128 0xb
 2301 0193 3B       		.uleb128 0x3b
 2302 0194 0B       		.uleb128 0xb
 2303 0195 49       		.uleb128 0x49
 2304 0196 13       		.uleb128 0x13
 2305 0197 02       		.uleb128 0x2
 2306 0198 06       		.uleb128 0x6
 2307 0199 00       		.byte	0
 2308 019a 00       		.byte	0
 2309 019b 20       		.uleb128 0x20
 2310 019c 0B       		.uleb128 0xb
 2311 019d 01       		.byte	0x1
 2312 019e 11       		.uleb128 0x11
 2313 019f 01       		.uleb128 0x1
 2314 01a0 12       		.uleb128 0x12
 2315 01a1 01       		.uleb128 0x1
 2316 01a2 01       		.uleb128 0x1
 2317 01a3 13       		.uleb128 0x13
 2318 01a4 00       		.byte	0
 2319 01a5 00       		.byte	0
 2320 01a6 21       		.uleb128 0x21
 2321 01a7 2E       		.uleb128 0x2e
 2322 01a8 01       		.byte	0x1
 2323 01a9 3F       		.uleb128 0x3f
 2324 01aa 0C       		.uleb128 0xc
 2325 01ab 03       		.uleb128 0x3
 2326 01ac 0E       		.uleb128 0xe
 2327 01ad 3A       		.uleb128 0x3a
ARM GAS  /var/folders/5n/p_75w94d66l9ssrldxqdhh700000gn/T//ccISYCG7.s 			page 42


 2328 01ae 0B       		.uleb128 0xb
 2329 01af 3B       		.uleb128 0x3b
 2330 01b0 0B       		.uleb128 0xb
 2331 01b1 27       		.uleb128 0x27
 2332 01b2 0C       		.uleb128 0xc
 2333 01b3 11       		.uleb128 0x11
 2334 01b4 01       		.uleb128 0x1
 2335 01b5 12       		.uleb128 0x12
 2336 01b6 01       		.uleb128 0x1
 2337 01b7 40       		.uleb128 0x40
 2338 01b8 0A       		.uleb128 0xa
 2339 01b9 01       		.uleb128 0x1
 2340 01ba 13       		.uleb128 0x13
 2341 01bb 00       		.byte	0
 2342 01bc 00       		.byte	0
 2343 01bd 22       		.uleb128 0x22
 2344 01be 2E       		.uleb128 0x2e
 2345 01bf 01       		.byte	0x1
 2346 01c0 3F       		.uleb128 0x3f
 2347 01c1 0C       		.uleb128 0xc
 2348 01c2 03       		.uleb128 0x3
 2349 01c3 0E       		.uleb128 0xe
 2350 01c4 3A       		.uleb128 0x3a
 2351 01c5 0B       		.uleb128 0xb
 2352 01c6 3B       		.uleb128 0x3b
 2353 01c7 05       		.uleb128 0x5
 2354 01c8 27       		.uleb128 0x27
 2355 01c9 0C       		.uleb128 0xc
 2356 01ca 49       		.uleb128 0x49
 2357 01cb 13       		.uleb128 0x13
 2358 01cc 11       		.uleb128 0x11
 2359 01cd 01       		.uleb128 0x1
 2360 01ce 12       		.uleb128 0x12
 2361 01cf 01       		.uleb128 0x1
 2362 01d0 40       		.uleb128 0x40
 2363 01d1 0A       		.uleb128 0xa
 2364 01d2 01       		.uleb128 0x1
 2365 01d3 13       		.uleb128 0x13
 2366 01d4 00       		.byte	0
 2367 01d5 00       		.byte	0
 2368 01d6 23       		.uleb128 0x23
 2369 01d7 05       		.uleb128 0x5
 2370 01d8 00       		.byte	0
 2371 01d9 03       		.uleb128 0x3
 2372 01da 0E       		.uleb128 0xe
 2373 01db 3A       		.uleb128 0x3a
 2374 01dc 0B       		.uleb128 0xb
 2375 01dd 3B       		.uleb128 0x3b
 2376 01de 05       		.uleb128 0x5
 2377 01df 49       		.uleb128 0x49
 2378 01e0 13       		.uleb128 0x13
 2379 01e1 02       		.uleb128 0x2
 2380 01e2 06       		.uleb128 0x6
 2381 01e3 00       		.byte	0
 2382 01e4 00       		.byte	0
 2383 01e5 24       		.uleb128 0x24
 2384 01e6 34       		.uleb128 0x34
ARM GAS  /var/folders/5n/p_75w94d66l9ssrldxqdhh700000gn/T//ccISYCG7.s 			page 43


 2385 01e7 00       		.byte	0
 2386 01e8 03       		.uleb128 0x3
 2387 01e9 0E       		.uleb128 0xe
 2388 01ea 3A       		.uleb128 0x3a
 2389 01eb 0B       		.uleb128 0xb
 2390 01ec 3B       		.uleb128 0x3b
 2391 01ed 0B       		.uleb128 0xb
 2392 01ee 49       		.uleb128 0x49
 2393 01ef 13       		.uleb128 0x13
 2394 01f0 3F       		.uleb128 0x3f
 2395 01f1 0C       		.uleb128 0xc
 2396 01f2 3C       		.uleb128 0x3c
 2397 01f3 0C       		.uleb128 0xc
 2398 01f4 00       		.byte	0
 2399 01f5 00       		.byte	0
 2400 01f6 25       		.uleb128 0x25
 2401 01f7 34       		.uleb128 0x34
 2402 01f8 00       		.byte	0
 2403 01f9 03       		.uleb128 0x3
 2404 01fa 0E       		.uleb128 0xe
 2405 01fb 3A       		.uleb128 0x3a
 2406 01fc 0B       		.uleb128 0xb
 2407 01fd 3B       		.uleb128 0x3b
 2408 01fe 05       		.uleb128 0x5
 2409 01ff 49       		.uleb128 0x49
 2410 0200 13       		.uleb128 0x13
 2411 0201 3F       		.uleb128 0x3f
 2412 0202 0C       		.uleb128 0xc
 2413 0203 3C       		.uleb128 0x3c
 2414 0204 0C       		.uleb128 0xc
 2415 0205 00       		.byte	0
 2416 0206 00       		.byte	0
 2417 0207 00       		.byte	0
 2418              		.section	.debug_loc,"",%progbits
 2419              	.Ldebug_loc0:
 2420              	.LLST0:
 2421 0000 00000000 		.4byte	.LFB119
 2422 0004 02000000 		.4byte	.LCFI0
 2423 0008 0200     		.2byte	0x2
 2424 000a 7D       		.byte	0x7d
 2425 000b 00       		.sleb128 0
 2426 000c 02000000 		.4byte	.LCFI0
 2427 0010 28000000 		.4byte	.LFE119
 2428 0014 0200     		.2byte	0x2
 2429 0016 7D       		.byte	0x7d
 2430 0017 10       		.sleb128 16
 2431 0018 00000000 		.4byte	0
 2432 001c 00000000 		.4byte	0
 2433              	.LLST1:
 2434 0020 00000000 		.4byte	.LVL0
 2435 0024 0E000000 		.4byte	.LVL1
 2436 0028 0100     		.2byte	0x1
 2437 002a 50       		.byte	0x50
 2438 002b 0E000000 		.4byte	.LVL1
 2439 002f 28000000 		.4byte	.LFE119
 2440 0033 0100     		.2byte	0x1
 2441 0035 54       		.byte	0x54
ARM GAS  /var/folders/5n/p_75w94d66l9ssrldxqdhh700000gn/T//ccISYCG7.s 			page 44


 2442 0036 00000000 		.4byte	0
 2443 003a 00000000 		.4byte	0
 2444              	.LLST2:
 2445 003e 00000000 		.4byte	.LFB120
 2446 0042 02000000 		.4byte	.LCFI1
 2447 0046 0200     		.2byte	0x2
 2448 0048 7D       		.byte	0x7d
 2449 0049 00       		.sleb128 0
 2450 004a 02000000 		.4byte	.LCFI1
 2451 004e 1C000000 		.4byte	.LFE120
 2452 0052 0200     		.2byte	0x2
 2453 0054 7D       		.byte	0x7d
 2454 0055 08       		.sleb128 8
 2455 0056 00000000 		.4byte	0
 2456 005a 00000000 		.4byte	0
 2457              	.LLST3:
 2458 005e 00000000 		.4byte	.LVL2
 2459 0062 0F000000 		.4byte	.LVL5-1
 2460 0066 0100     		.2byte	0x1
 2461 0068 50       		.byte	0x50
 2462 0069 0F000000 		.4byte	.LVL5-1
 2463 006d 1C000000 		.4byte	.LFE120
 2464 0071 0100     		.2byte	0x1
 2465 0073 54       		.byte	0x54
 2466 0074 00000000 		.4byte	0
 2467 0078 00000000 		.4byte	0
 2468              	.LLST4:
 2469 007c 00000000 		.4byte	.LVL2
 2470 0080 0F000000 		.4byte	.LVL5-1
 2471 0084 0100     		.2byte	0x1
 2472 0086 51       		.byte	0x51
 2473 0087 00000000 		.4byte	0
 2474 008b 00000000 		.4byte	0
 2475              	.LLST5:
 2476 008f 0A000000 		.4byte	.LVL4
 2477 0093 0F000000 		.4byte	.LVL5-1
 2478 0097 0100     		.2byte	0x1
 2479 0099 53       		.byte	0x53
 2480 009a 00000000 		.4byte	0
 2481 009e 00000000 		.4byte	0
 2482              	.LLST6:
 2483 00a2 1A000000 		.4byte	.LVL7
 2484 00a6 1C000000 		.4byte	.LFE120
 2485 00aa 0100     		.2byte	0x1
 2486 00ac 53       		.byte	0x53
 2487 00ad 00000000 		.4byte	0
 2488 00b1 00000000 		.4byte	0
 2489              	.LLST7:
 2490 00b5 00000000 		.4byte	.LFB121
 2491 00b9 02000000 		.4byte	.LCFI2
 2492 00bd 0200     		.2byte	0x2
 2493 00bf 7D       		.byte	0x7d
 2494 00c0 00       		.sleb128 0
 2495 00c1 02000000 		.4byte	.LCFI2
 2496 00c5 1A000000 		.4byte	.LFE121
 2497 00c9 0200     		.2byte	0x2
 2498 00cb 7D       		.byte	0x7d
ARM GAS  /var/folders/5n/p_75w94d66l9ssrldxqdhh700000gn/T//ccISYCG7.s 			page 45


 2499 00cc 08       		.sleb128 8
 2500 00cd 00000000 		.4byte	0
 2501 00d1 00000000 		.4byte	0
 2502              	.LLST8:
 2503 00d5 00000000 		.4byte	.LVL8
 2504 00d9 0D000000 		.4byte	.LVL11-1
 2505 00dd 0100     		.2byte	0x1
 2506 00df 50       		.byte	0x50
 2507 00e0 0D000000 		.4byte	.LVL11-1
 2508 00e4 1A000000 		.4byte	.LFE121
 2509 00e8 0100     		.2byte	0x1
 2510 00ea 54       		.byte	0x54
 2511 00eb 00000000 		.4byte	0
 2512 00ef 00000000 		.4byte	0
 2513              	.LLST9:
 2514 00f3 0A000000 		.4byte	.LVL10
 2515 00f7 0D000000 		.4byte	.LVL11-1
 2516 00fb 0100     		.2byte	0x1
 2517 00fd 53       		.byte	0x53
 2518 00fe 00000000 		.4byte	0
 2519 0102 00000000 		.4byte	0
 2520              	.LLST10:
 2521 0106 18000000 		.4byte	.LVL13
 2522 010a 1A000000 		.4byte	.LFE121
 2523 010e 0100     		.2byte	0x1
 2524 0110 53       		.byte	0x53
 2525 0111 00000000 		.4byte	0
 2526 0115 00000000 		.4byte	0
 2527              	.LLST11:
 2528 0119 00000000 		.4byte	.LFB122
 2529 011d 04000000 		.4byte	.LCFI3
 2530 0121 0200     		.2byte	0x2
 2531 0123 7D       		.byte	0x7d
 2532 0124 00       		.sleb128 0
 2533 0125 04000000 		.4byte	.LCFI3
 2534 0129 5C000000 		.4byte	.LFE122
 2535 012d 0200     		.2byte	0x2
 2536 012f 7D       		.byte	0x7d
 2537 0130 20       		.sleb128 32
 2538 0131 00000000 		.4byte	0
 2539 0135 00000000 		.4byte	0
 2540              	.LLST12:
 2541 0139 00000000 		.4byte	.LVL14
 2542 013d 12000000 		.4byte	.LVL15
 2543 0141 0100     		.2byte	0x1
 2544 0143 50       		.byte	0x50
 2545 0144 12000000 		.4byte	.LVL15
 2546 0148 5C000000 		.4byte	.LFE122
 2547 014c 0100     		.2byte	0x1
 2548 014e 54       		.byte	0x54
 2549 014f 00000000 		.4byte	0
 2550 0153 00000000 		.4byte	0
 2551              	.LLST13:
 2552 0157 00000000 		.4byte	.LVL14
 2553 015b 12000000 		.4byte	.LVL15
 2554 015f 0100     		.2byte	0x1
 2555 0161 51       		.byte	0x51
ARM GAS  /var/folders/5n/p_75w94d66l9ssrldxqdhh700000gn/T//ccISYCG7.s 			page 46


 2556 0162 12000000 		.4byte	.LVL15
 2557 0166 5C000000 		.4byte	.LFE122
 2558 016a 0100     		.2byte	0x1
 2559 016c 55       		.byte	0x55
 2560 016d 00000000 		.4byte	0
 2561 0171 00000000 		.4byte	0
 2562              	.LLST14:
 2563 0175 00000000 		.4byte	.LVL14
 2564 0179 12000000 		.4byte	.LVL15
 2565 017d 0100     		.2byte	0x1
 2566 017f 52       		.byte	0x52
 2567 0180 12000000 		.4byte	.LVL15
 2568 0184 5C000000 		.4byte	.LFE122
 2569 0188 0100     		.2byte	0x1
 2570 018a 56       		.byte	0x56
 2571 018b 00000000 		.4byte	0
 2572 018f 00000000 		.4byte	0
 2573              	.LLST15:
 2574 0193 12000000 		.4byte	.LVL15
 2575 0197 1C000000 		.4byte	.LVL17
 2576 019b 0100     		.2byte	0x1
 2577 019d 50       		.byte	0x50
 2578 019e 24000000 		.4byte	.LVL19
 2579 01a2 3A000000 		.4byte	.LVL23
 2580 01a6 0100     		.2byte	0x1
 2581 01a8 50       		.byte	0x50
 2582 01a9 42000000 		.4byte	.LVL24
 2583 01ad 5C000000 		.4byte	.LFE122
 2584 01b1 0100     		.2byte	0x1
 2585 01b3 50       		.byte	0x50
 2586 01b4 00000000 		.4byte	0
 2587 01b8 00000000 		.4byte	0
 2588              	.LLST16:
 2589 01bc 20000000 		.4byte	.LVL18
 2590 01c0 32000000 		.4byte	.LVL20
 2591 01c4 0100     		.2byte	0x1
 2592 01c6 59       		.byte	0x59
 2593 01c7 4C000000 		.4byte	.LVL25
 2594 01cb 5C000000 		.4byte	.LFE122
 2595 01cf 0100     		.2byte	0x1
 2596 01d1 59       		.byte	0x59
 2597 01d2 00000000 		.4byte	0
 2598 01d6 00000000 		.4byte	0
 2599              	.LLST17:
 2600 01da 18000000 		.4byte	.LVL16
 2601 01de 23000000 		.4byte	.LVL19-1
 2602 01e2 0100     		.2byte	0x1
 2603 01e4 53       		.byte	0x53
 2604 01e5 00000000 		.4byte	0
 2605 01e9 00000000 		.4byte	0
 2606              	.LLST18:
 2607 01ed 3A000000 		.4byte	.LVL23
 2608 01f1 41000000 		.4byte	.LVL24-1
 2609 01f5 0100     		.2byte	0x1
 2610 01f7 53       		.byte	0x53
 2611 01f8 00000000 		.4byte	0
 2612 01fc 00000000 		.4byte	0
ARM GAS  /var/folders/5n/p_75w94d66l9ssrldxqdhh700000gn/T//ccISYCG7.s 			page 47


 2613              	.LLST19:
 2614 0200 52000000 		.4byte	.LVL27
 2615 0204 5C000000 		.4byte	.LFE122
 2616 0208 0100     		.2byte	0x1
 2617 020a 53       		.byte	0x53
 2618 020b 00000000 		.4byte	0
 2619 020f 00000000 		.4byte	0
 2620              	.LLST20:
 2621 0213 00000000 		.4byte	.LVL28
 2622 0217 03000000 		.4byte	.LVL29-1
 2623 021b 0100     		.2byte	0x1
 2624 021d 50       		.byte	0x50
 2625 021e 00000000 		.4byte	0
 2626 0222 00000000 		.4byte	0
 2627              	.LLST21:
 2628 0226 00000000 		.4byte	.LFB124
 2629 022a 04000000 		.4byte	.LCFI4
 2630 022e 0200     		.2byte	0x2
 2631 0230 7D       		.byte	0x7d
 2632 0231 00       		.sleb128 0
 2633 0232 04000000 		.4byte	.LCFI4
 2634 0236 5C000000 		.4byte	.LFE124
 2635 023a 0200     		.2byte	0x2
 2636 023c 7D       		.byte	0x7d
 2637 023d 20       		.sleb128 32
 2638 023e 00000000 		.4byte	0
 2639 0242 00000000 		.4byte	0
 2640              	.LLST22:
 2641 0246 00000000 		.4byte	.LVL30
 2642 024a 12000000 		.4byte	.LVL31
 2643 024e 0100     		.2byte	0x1
 2644 0250 50       		.byte	0x50
 2645 0251 12000000 		.4byte	.LVL31
 2646 0255 5C000000 		.4byte	.LFE124
 2647 0259 0100     		.2byte	0x1
 2648 025b 54       		.byte	0x54
 2649 025c 00000000 		.4byte	0
 2650 0260 00000000 		.4byte	0
 2651              	.LLST23:
 2652 0264 00000000 		.4byte	.LVL30
 2653 0268 12000000 		.4byte	.LVL31
 2654 026c 0100     		.2byte	0x1
 2655 026e 51       		.byte	0x51
 2656 026f 12000000 		.4byte	.LVL31
 2657 0273 5C000000 		.4byte	.LFE124
 2658 0277 0100     		.2byte	0x1
 2659 0279 55       		.byte	0x55
 2660 027a 00000000 		.4byte	0
 2661 027e 00000000 		.4byte	0
 2662              	.LLST24:
 2663 0282 00000000 		.4byte	.LVL30
 2664 0286 12000000 		.4byte	.LVL31
 2665 028a 0100     		.2byte	0x1
 2666 028c 52       		.byte	0x52
 2667 028d 12000000 		.4byte	.LVL31
 2668 0291 5C000000 		.4byte	.LFE124
 2669 0295 0100     		.2byte	0x1
ARM GAS  /var/folders/5n/p_75w94d66l9ssrldxqdhh700000gn/T//ccISYCG7.s 			page 48


 2670 0297 56       		.byte	0x56
 2671 0298 00000000 		.4byte	0
 2672 029c 00000000 		.4byte	0
 2673              	.LLST25:
 2674 02a0 12000000 		.4byte	.LVL31
 2675 02a4 1C000000 		.4byte	.LVL33
 2676 02a8 0100     		.2byte	0x1
 2677 02aa 50       		.byte	0x50
 2678 02ab 24000000 		.4byte	.LVL35
 2679 02af 3A000000 		.4byte	.LVL39
 2680 02b3 0100     		.2byte	0x1
 2681 02b5 50       		.byte	0x50
 2682 02b6 42000000 		.4byte	.LVL40
 2683 02ba 5C000000 		.4byte	.LFE124
 2684 02be 0100     		.2byte	0x1
 2685 02c0 50       		.byte	0x50
 2686 02c1 00000000 		.4byte	0
 2687 02c5 00000000 		.4byte	0
 2688              	.LLST26:
 2689 02c9 20000000 		.4byte	.LVL34
 2690 02cd 32000000 		.4byte	.LVL36
 2691 02d1 0100     		.2byte	0x1
 2692 02d3 59       		.byte	0x59
 2693 02d4 4C000000 		.4byte	.LVL41
 2694 02d8 5C000000 		.4byte	.LFE124
 2695 02dc 0100     		.2byte	0x1
 2696 02de 59       		.byte	0x59
 2697 02df 00000000 		.4byte	0
 2698 02e3 00000000 		.4byte	0
 2699              	.LLST27:
 2700 02e7 18000000 		.4byte	.LVL32
 2701 02eb 23000000 		.4byte	.LVL35-1
 2702 02ef 0100     		.2byte	0x1
 2703 02f1 53       		.byte	0x53
 2704 02f2 00000000 		.4byte	0
 2705 02f6 00000000 		.4byte	0
 2706              	.LLST28:
 2707 02fa 3A000000 		.4byte	.LVL39
 2708 02fe 41000000 		.4byte	.LVL40-1
 2709 0302 0100     		.2byte	0x1
 2710 0304 53       		.byte	0x53
 2711 0305 00000000 		.4byte	0
 2712 0309 00000000 		.4byte	0
 2713              	.LLST29:
 2714 030d 52000000 		.4byte	.LVL43
 2715 0311 5C000000 		.4byte	.LFE124
 2716 0315 0100     		.2byte	0x1
 2717 0317 53       		.byte	0x53
 2718 0318 00000000 		.4byte	0
 2719 031c 00000000 		.4byte	0
 2720              	.LLST30:
 2721 0320 00000000 		.4byte	.LVL44
 2722 0324 03000000 		.4byte	.LVL45-1
 2723 0328 0100     		.2byte	0x1
 2724 032a 50       		.byte	0x50
 2725 032b 00000000 		.4byte	0
 2726 032f 00000000 		.4byte	0
ARM GAS  /var/folders/5n/p_75w94d66l9ssrldxqdhh700000gn/T//ccISYCG7.s 			page 49


 2727              	.LLST31:
 2728 0333 00000000 		.4byte	.LVL46
 2729 0337 03000000 		.4byte	.LVL47-1
 2730 033b 0100     		.2byte	0x1
 2731 033d 50       		.byte	0x50
 2732 033e 00000000 		.4byte	0
 2733 0342 00000000 		.4byte	0
 2734              		.section	.debug_aranges,"",%progbits
 2735 0000 5C000000 		.4byte	0x5c
 2736 0004 0200     		.2byte	0x2
 2737 0006 00000000 		.4byte	.Ldebug_info0
 2738 000a 04       		.byte	0x4
 2739 000b 00       		.byte	0
 2740 000c 0000     		.2byte	0
 2741 000e 0000     		.2byte	0
 2742 0010 00000000 		.4byte	.LFB118
 2743 0014 04000000 		.4byte	.LFE118-.LFB118
 2744 0018 00000000 		.4byte	.LFB119
 2745 001c 28000000 		.4byte	.LFE119-.LFB119
 2746 0020 00000000 		.4byte	.LFB120
 2747 0024 1C000000 		.4byte	.LFE120-.LFB120
 2748 0028 00000000 		.4byte	.LFB121
 2749 002c 1A000000 		.4byte	.LFE121-.LFB121
 2750 0030 00000000 		.4byte	.LFB122
 2751 0034 5C000000 		.4byte	.LFE122-.LFB122
 2752 0038 00000000 		.4byte	.LFB123
 2753 003c 04000000 		.4byte	.LFE123-.LFB123
 2754 0040 00000000 		.4byte	.LFB124
 2755 0044 5C000000 		.4byte	.LFE124-.LFB124
 2756 0048 00000000 		.4byte	.LFB125
 2757 004c 04000000 		.4byte	.LFE125-.LFB125
 2758 0050 00000000 		.4byte	.LFB126
 2759 0054 04000000 		.4byte	.LFE126-.LFB126
 2760 0058 00000000 		.4byte	0
 2761 005c 00000000 		.4byte	0
 2762              		.section	.debug_ranges,"",%progbits
 2763              	.Ldebug_ranges0:
 2764 0000 02000000 		.4byte	.LBB2
 2765 0004 04000000 		.4byte	.LBE2
 2766 0008 06000000 		.4byte	.LBB3
 2767 000c 0A000000 		.4byte	.LBE3
 2768 0010 00000000 		.4byte	0
 2769 0014 00000000 		.4byte	0
 2770 0018 02000000 		.4byte	.LBB5
 2771 001c 04000000 		.4byte	.LBE5
 2772 0020 06000000 		.4byte	.LBB6
 2773 0024 0A000000 		.4byte	.LBE6
 2774 0028 00000000 		.4byte	0
 2775 002c 00000000 		.4byte	0
 2776 0030 14000000 		.4byte	.LBB8
 2777 0034 18000000 		.4byte	.LBE8
 2778 0038 42000000 		.4byte	.LBB10
 2779 003c 44000000 		.4byte	.LBE10
 2780 0040 00000000 		.4byte	0
 2781 0044 00000000 		.4byte	0
 2782 0048 14000000 		.4byte	.LBB12
 2783 004c 18000000 		.4byte	.LBE12
ARM GAS  /var/folders/5n/p_75w94d66l9ssrldxqdhh700000gn/T//ccISYCG7.s 			page 50


 2784 0050 42000000 		.4byte	.LBB14
 2785 0054 44000000 		.4byte	.LBE14
 2786 0058 00000000 		.4byte	0
 2787 005c 00000000 		.4byte	0
 2788 0060 00000000 		.4byte	.LFB118
 2789 0064 04000000 		.4byte	.LFE118
 2790 0068 00000000 		.4byte	.LFB119
 2791 006c 28000000 		.4byte	.LFE119
 2792 0070 00000000 		.4byte	.LFB120
 2793 0074 1C000000 		.4byte	.LFE120
 2794 0078 00000000 		.4byte	.LFB121
 2795 007c 1A000000 		.4byte	.LFE121
 2796 0080 00000000 		.4byte	.LFB122
 2797 0084 5C000000 		.4byte	.LFE122
 2798 0088 00000000 		.4byte	.LFB123
 2799 008c 04000000 		.4byte	.LFE123
 2800 0090 00000000 		.4byte	.LFB124
 2801 0094 5C000000 		.4byte	.LFE124
 2802 0098 00000000 		.4byte	.LFB125
 2803 009c 04000000 		.4byte	.LFE125
 2804 00a0 00000000 		.4byte	.LFB126
 2805 00a4 04000000 		.4byte	.LFE126
 2806 00a8 00000000 		.4byte	0
 2807 00ac 00000000 		.4byte	0
 2808              		.section	.debug_line,"",%progbits
 2809              	.Ldebug_line0:
 2810 0000 EE020000 		.section	.debug_str,"MS",%progbits,1
 2810      0200E501 
 2810      00000201 
 2810      FB0E0D00 
 2810      01010101 
 2811              	.LASF2:
 2812 0000 73697A65 		.ascii	"size_t\000"
 2812      5F7400
 2813              	.LASF72:
 2814 0007 7264796D 		.ascii	"rdymsg\000"
 2814      736700
 2815              	.LASF105:
 2816 000e 70687973 		.ascii	"physdesc\000"
 2816      64657363 
 2816      00
 2817              	.LASF99:
 2818 0017 74646573 		.ascii	"tdes3\000"
 2818      3300
 2819              	.LASF81:
 2820 001d 4D414344 		.ascii	"MACDriver\000"
 2820      72697665 
 2820      7200
 2821              	.LASF109:
 2822 0027 6D616353 		.ascii	"macStart\000"
 2822      74617274 
 2822      00
 2823              	.LASF113:
 2824 0030 6D616352 		.ascii	"macReleaseTransmitDescriptor\000"
 2824      656C6561 
 2824      73655472 
 2824      616E736D 
ARM GAS  /var/folders/5n/p_75w94d66l9ssrldxqdhh700000gn/T//ccISYCG7.s 			page 51


 2824      69744465 
 2825              	.LASF118:
 2826 004d 76746C69 		.ascii	"vtlist\000"
 2826      737400
 2827              	.LASF12:
 2828 0054 6C6F6E67 		.ascii	"long long unsigned int\000"
 2828      206C6F6E 
 2828      6720756E 
 2828      7369676E 
 2828      65642069 
 2829              	.LASF87:
 2830 006b 6C696E6B 		.ascii	"link_up\000"
 2830      5F757000 
 2831              	.LASF73:
 2832 0073 65786974 		.ascii	"exitcode\000"
 2832      636F6465 
 2832      00
 2833              	.LASF86:
 2834 007c 72646576 		.ascii	"rdevent\000"
 2834      656E7400 
 2835              	.LASF85:
 2836 0084 72647365 		.ascii	"rdsem\000"
 2836      6D00
 2837              	.LASF119:
 2838 008a 49544D5F 		.ascii	"ITM_RxBuffer\000"
 2838      52784275 
 2838      66666572 
 2838      00
 2839              	.LASF27:
 2840 0097 705F7072 		.ascii	"p_prio\000"
 2840      696F00
 2841              	.LASF106:
 2842 009e 4D414354 		.ascii	"MACTransmitDescriptor\000"
 2842      72616E73 
 2842      6D697444 
 2842      65736372 
 2842      6970746F 
 2843              	.LASF11:
 2844 00b4 6C6F6E67 		.ascii	"long long int\000"
 2844      206C6F6E 
 2844      6720696E 
 2844      7400
 2845              	.LASF1:
 2846 00c2 7369676E 		.ascii	"signed char\000"
 2846      65642063 
 2846      68617200 
 2847              	.LASF43:
 2848 00ce 705F6D70 		.ascii	"p_mpool\000"
 2848      6F6F6C00 
 2849              	.LASF13:
 2850 00d6 626F6F6C 		.ascii	"bool_t\000"
 2850      5F7400
 2851              	.LASF62:
 2852 00dd 6D5F7175 		.ascii	"m_queue\000"
 2852      65756500 
 2853              	.LASF100:
 2854 00e5 73746D33 		.ascii	"stm32_eth_tx_descriptor_t\000"
ARM GAS  /var/folders/5n/p_75w94d66l9ssrldxqdhh700000gn/T//ccISYCG7.s 			page 52


 2854      325F6574 
 2854      685F7478 
 2854      5F646573 
 2854      63726970 
 2855              	.LASF17:
 2856 00ff 74736C69 		.ascii	"tslices_t\000"
 2856      6365735F 
 2856      7400
 2857              	.LASF110:
 2858 0109 6D616370 		.ascii	"macp\000"
 2858      00
 2859              	.LASF82:
 2860 010e 73746174 		.ascii	"state\000"
 2860      6500
 2861              	.LASF8:
 2862 0114 6C6F6E67 		.ascii	"long int\000"
 2862      20696E74 
 2862      00
 2863              	.LASF15:
 2864 011d 74737461 		.ascii	"tstate_t\000"
 2864      74655F74 
 2864      00
 2865              	.LASF34:
 2866 0126 705F7265 		.ascii	"p_refs\000"
 2866      667300
 2867              	.LASF36:
 2868 012d 705F7469 		.ascii	"p_time\000"
 2868      6D6500
 2869              	.LASF29:
 2870 0134 705F6E65 		.ascii	"p_newer\000"
 2870      77657200 
 2871              	.LASF59:
 2872 013c 735F7175 		.ascii	"s_queue\000"
 2872      65756500 
 2873              	.LASF123:
 2874 0144 6D616349 		.ascii	"macInit\000"
 2874      6E697400 
 2875              	.LASF46:
 2876 014c 72656761 		.ascii	"regarm_t\000"
 2876      726D5F74 
 2876      00
 2877              	.LASF52:
 2878 0155 76745F70 		.ascii	"vt_prev\000"
 2878      72657600 
 2879              	.LASF70:
 2880 015d 4576656E 		.ascii	"EventSource\000"
 2880      74536F75 
 2880      72636500 
 2881              	.LASF23:
 2882 0169 636E745F 		.ascii	"cnt_t\000"
 2882      7400
 2883              	.LASF0:
 2884 016f 756E7369 		.ascii	"unsigned int\000"
 2884      676E6564 
 2884      20696E74 
 2884      00
 2885              	.LASF51:
ARM GAS  /var/folders/5n/p_75w94d66l9ssrldxqdhh700000gn/T//ccISYCG7.s 			page 53


 2886 017c 76745F6E 		.ascii	"vt_next\000"
 2886      65787400 
 2887              	.LASF117:
 2888 0184 6D616350 		.ascii	"macPollLinkStatus\000"
 2888      6F6C6C4C 
 2888      696E6B53 
 2888      74617475 
 2888      7300
 2889              	.LASF80:
 2890 0196 6D616373 		.ascii	"macstate_t\000"
 2890      74617465 
 2890      5F7400
 2891              	.LASF38:
 2892 01a1 705F6D73 		.ascii	"p_msgqueue\000"
 2892      67717565 
 2892      756500
 2893              	.LASF91:
 2894 01ac 72646573 		.ascii	"rdes0\000"
 2894      3000
 2895              	.LASF92:
 2896 01b2 72646573 		.ascii	"rdes1\000"
 2896      3100
 2897              	.LASF93:
 2898 01b8 72646573 		.ascii	"rdes2\000"
 2898      3200
 2899              	.LASF94:
 2900 01be 72646573 		.ascii	"rdes3\000"
 2900      3300
 2901              	.LASF50:
 2902 01c4 56697274 		.ascii	"VirtualTimer\000"
 2902      75616C54 
 2902      696D6572 
 2902      00
 2903              	.LASF60:
 2904 01d1 735F636E 		.ascii	"s_cnt\000"
 2904      7400
 2905              	.LASF104:
 2906 01d7 73697A65 		.ascii	"size\000"
 2906      00
 2907              	.LASF6:
 2908 01dc 73686F72 		.ascii	"short unsigned int\000"
 2908      7420756E 
 2908      7369676E 
 2908      65642069 
 2908      6E7400
 2909              	.LASF77:
 2910 01ef 4D41435F 		.ascii	"MAC_UNINIT\000"
 2910      554E494E 
 2910      495400
 2911              	.LASF19:
 2912 01fa 6D73675F 		.ascii	"msg_t\000"
 2912      7400
 2913              	.LASF101:
 2914 0200 6D61635F 		.ascii	"mac_address\000"
 2914      61646472 
 2914      65737300 
 2915              	.LASF66:
ARM GAS  /var/folders/5n/p_75w94d66l9ssrldxqdhh700000gn/T//ccISYCG7.s 			page 54


 2916 020c 656C5F6E 		.ascii	"el_next\000"
 2916      65787400 
 2917              	.LASF14:
 2918 0214 746D6F64 		.ascii	"tmode_t\000"
 2918      655F7400 
 2919              	.LASF89:
 2920 021c 72787074 		.ascii	"rxptr\000"
 2920      7200
 2921              	.LASF45:
 2922 0222 54687265 		.ascii	"ThreadsList\000"
 2922      6164734C 
 2922      69737400 
 2923              	.LASF20:
 2924 022e 6576656E 		.ascii	"eventmask_t\000"
 2924      746D6173 
 2924      6B5F7400 
 2925              	.LASF114:
 2926 023a 6D616357 		.ascii	"macWaitTransmitDescriptor\000"
 2926      61697454 
 2926      72616E73 
 2926      6D697444 
 2926      65736372 
 2927              	.LASF107:
 2928 0254 4D414352 		.ascii	"MACReceiveDescriptor\000"
 2928      65636569 
 2928      76654465 
 2928      73637269 
 2928      70746F72 
 2929              	.LASF115:
 2930 0269 6D616357 		.ascii	"macWaitReceiveDescriptor\000"
 2930      61697452 
 2930      65636569 
 2930      76654465 
 2930      73637269 
 2931              	.LASF53:
 2932 0282 76745F74 		.ascii	"vt_time\000"
 2932      696D6500 
 2933              	.LASF37:
 2934 028a 705F7761 		.ascii	"p_waiting\000"
 2934      6974696E 
 2934      6700
 2935              	.LASF121:
 2936 0294 2E2E2F2E 		.ascii	"../../os/hal/src/mac.c\000"
 2936      2E2F6F73 
 2936      2F68616C 
 2936      2F737263 
 2936      2F6D6163 
 2937              	.LASF61:
 2938 02ab 4D757465 		.ascii	"Mutex\000"
 2938      7800
 2939              	.LASF30:
 2940 02b1 705F6F6C 		.ascii	"p_older\000"
 2940      64657200 
 2941              	.LASF44:
 2942 02b9 54687265 		.ascii	"ThreadsQueue\000"
 2942      61647351 
 2942      75657565 
ARM GAS  /var/folders/5n/p_75w94d66l9ssrldxqdhh700000gn/T//ccISYCG7.s 			page 55


 2942      00
 2943              	.LASF28:
 2944 02c6 705F6374 		.ascii	"p_ctx\000"
 2944      7800
 2945              	.LASF112:
 2946 02cc 74696D65 		.ascii	"time\000"
 2946      00
 2947              	.LASF68:
 2948 02d1 656C5F6D 		.ascii	"el_mask\000"
 2948      61736B00 
 2949              	.LASF16:
 2950 02d9 74726566 		.ascii	"trefs_t\000"
 2950      735F7400 
 2951              	.LASF79:
 2952 02e1 4D41435F 		.ascii	"MAC_ACTIVE\000"
 2952      41435449 
 2952      564500
 2953              	.LASF78:
 2954 02ec 4D41435F 		.ascii	"MAC_STOP\000"
 2954      53544F50 
 2954      00
 2955              	.LASF26:
 2956 02f5 705F7072 		.ascii	"p_prev\000"
 2956      657600
 2957              	.LASF96:
 2958 02fc 74646573 		.ascii	"tdes0\000"
 2958      3000
 2959              	.LASF97:
 2960 0302 74646573 		.ascii	"tdes1\000"
 2960      3100
 2961              	.LASF98:
 2962 0308 74646573 		.ascii	"tdes2\000"
 2962      3200
 2963              	.LASF18:
 2964 030e 74707269 		.ascii	"tprio_t\000"
 2964      6F5F7400 
 2965              	.LASF7:
 2966 0316 696E7433 		.ascii	"int32_t\000"
 2966      325F7400 
 2967              	.LASF4:
 2968 031e 756E7369 		.ascii	"unsigned char\000"
 2968      676E6564 
 2968      20636861 
 2968      7200
 2969              	.LASF67:
 2970 032c 656C5F6C 		.ascii	"el_listener\000"
 2970      69737465 
 2970      6E657200 
 2971              	.LASF84:
 2972 0338 74647365 		.ascii	"tdsem\000"
 2972      6D00
 2973              	.LASF69:
 2974 033e 656C5F66 		.ascii	"el_flags\000"
 2974      6C616773 
 2974      00
 2975              	.LASF41:
 2976 0347 705F6D74 		.ascii	"p_mtxlist\000"
ARM GAS  /var/folders/5n/p_75w94d66l9ssrldxqdhh700000gn/T//ccISYCG7.s 			page 56


 2976      786C6973 
 2976      7400
 2977              	.LASF5:
 2978 0351 73686F72 		.ascii	"short int\000"
 2978      7420696E 
 2978      7400
 2979              	.LASF32:
 2980 035b 705F7374 		.ascii	"p_state\000"
 2980      61746500 
 2981              	.LASF35:
 2982 0363 705F7072 		.ascii	"p_preempt\000"
 2982      65656D70 
 2982      7400
 2983              	.LASF75:
 2984 036d 65776D61 		.ascii	"ewmask\000"
 2984      736B00
 2985              	.LASF25:
 2986 0374 705F6E65 		.ascii	"p_next\000"
 2986      787400
 2987              	.LASF33:
 2988 037b 705F666C 		.ascii	"p_flags\000"
 2988      61677300 
 2989              	.LASF90:
 2990 0383 74787074 		.ascii	"txptr\000"
 2990      7200
 2991              	.LASF24:
 2992 0389 54687265 		.ascii	"Thread\000"
 2992      616400
 2993              	.LASF108:
 2994 0390 6D61634F 		.ascii	"macObjectInit\000"
 2994      626A6563 
 2994      74496E69 
 2994      7400
 2995              	.LASF40:
 2996 039e 705F6570 		.ascii	"p_epending\000"
 2996      656E6469 
 2996      6E6700
 2997              	.LASF9:
 2998 03a9 75696E74 		.ascii	"uint32_t\000"
 2998      33325F74 
 2998      00
 2999              	.LASF56:
 3000 03b2 76745F73 		.ascii	"vt_systime\000"
 3000      79737469 
 3000      6D6500
 3001              	.LASF10:
 3002 03bd 6C6F6E67 		.ascii	"long unsigned int\000"
 3002      20756E73 
 3002      69676E65 
 3002      6420696E 
 3002      7400
 3003              	.LASF76:
 3004 03cf 63686172 		.ascii	"char\000"
 3004      00
 3005              	.LASF83:
 3006 03d4 636F6E66 		.ascii	"config\000"
 3006      696700
ARM GAS  /var/folders/5n/p_75w94d66l9ssrldxqdhh700000gn/T//ccISYCG7.s 			page 57


 3007              	.LASF64:
 3008 03db 6D5F6E65 		.ascii	"m_next\000"
 3008      787400
 3009              	.LASF22:
 3010 03e2 73797374 		.ascii	"systime_t\000"
 3010      696D655F 
 3010      7400
 3011              	.LASF42:
 3012 03ec 705F7265 		.ascii	"p_realprio\000"
 3012      616C7072 
 3012      696F00
 3013              	.LASF49:
 3014 03f7 76746675 		.ascii	"vtfunc_t\000"
 3014      6E635F74 
 3014      00
 3015              	.LASF103:
 3016 0400 6F666673 		.ascii	"offset\000"
 3016      657400
 3017              	.LASF48:
 3018 0407 636F6E74 		.ascii	"context\000"
 3018      65787400 
 3019              	.LASF120:
 3020 040f 474E5520 		.ascii	"GNU C 4.6.2 20111004 (prerelease)\000"
 3020      4320342E 
 3020      362E3220 
 3020      32303131 
 3020      31303034 
 3021              	.LASF47:
 3022 0431 696E7463 		.ascii	"intctx\000"
 3022      747800
 3023              	.LASF55:
 3024 0438 76745F70 		.ascii	"vt_par\000"
 3024      617200
 3025              	.LASF58:
 3026 043f 53656D61 		.ascii	"Semaphore\000"
 3026      70686F72 
 3026      6500
 3027              	.LASF21:
 3028 0449 666C6167 		.ascii	"flagsmask_t\000"
 3028      736D6173 
 3028      6B5F7400 
 3029              	.LASF116:
 3030 0455 6D616352 		.ascii	"macReleaseReceiveDescriptor\000"
 3030      656C6561 
 3030      73655265 
 3030      63656976 
 3030      65446573 
 3031              	.LASF111:
 3032 0471 6D616353 		.ascii	"macStop\000"
 3032      746F7000 
 3033              	.LASF71:
 3034 0479 65735F6E 		.ascii	"es_next\000"
 3034      65787400 
 3035              	.LASF95:
 3036 0481 73746D33 		.ascii	"stm32_eth_rx_descriptor_t\000"
 3036      325F6574 
 3036      685F7278 
ARM GAS  /var/folders/5n/p_75w94d66l9ssrldxqdhh700000gn/T//ccISYCG7.s 			page 58


 3036      5F646573 
 3036      63726970 
 3037              	.LASF102:
 3038 049b 4D414343 		.ascii	"MACConfig\000"
 3038      6F6E6669 
 3038      6700
 3039              	.LASF3:
 3040 04a5 75696E74 		.ascii	"uint8_t\000"
 3040      385F7400 
 3041              	.LASF88:
 3042 04ad 70687961 		.ascii	"phyaddr\000"
 3042      64647200 
 3043              	.LASF65:
 3044 04b5 4576656E 		.ascii	"EventListener\000"
 3044      744C6973 
 3044      74656E65 
 3044      7200
 3045              	.LASF74:
 3046 04c3 77746F62 		.ascii	"wtobjp\000"
 3046      6A7000
 3047              	.LASF31:
 3048 04ca 705F6E61 		.ascii	"p_name\000"
 3048      6D6500
 3049              	.LASF122:
 3050 04d1 2F557365 		.ascii	"/Users/sin/Documents/Eclipse/Workspace/mabl-ChibiOS"
 3050      72732F73 
 3050      696E2F44 
 3050      6F63756D 
 3050      656E7473 
 3051 0504 2D322E35 		.ascii	"-2.5.1/demos/ARMCM4-STM32F407-LWIP\000"
 3051      2E312F64 
 3051      656D6F73 
 3051      2F41524D 
 3051      434D342D 
 3052              	.LASF39:
 3053 0527 705F6D73 		.ascii	"p_msg\000"
 3053      6700
 3054              	.LASF57:
 3055 052d 56544C69 		.ascii	"VTList\000"
 3055      737400
 3056              	.LASF63:
 3057 0534 6D5F6F77 		.ascii	"m_owner\000"
 3057      6E657200 
 3058              	.LASF54:
 3059 053c 76745F66 		.ascii	"vt_func\000"
 3059      756E6300 
 3060              		.ident	"GCC: (Linaro GCC 4.6-2011.10) 4.6.2 20111004 (prerelease)"
ARM GAS  /var/folders/5n/p_75w94d66l9ssrldxqdhh700000gn/T//ccISYCG7.s 			page 59


DEFINED SYMBOLS
                            *ABS*:0000000000000000 mac.c
/var/folders/5n/p_75w94d66l9ssrldxqdhh700000gn/T//ccISYCG7.s:18     .text.macInit:0000000000000000 $t
/var/folders/5n/p_75w94d66l9ssrldxqdhh700000gn/T//ccISYCG7.s:24     .text.macInit:0000000000000000 macInit
/var/folders/5n/p_75w94d66l9ssrldxqdhh700000gn/T//ccISYCG7.s:39     .text.macObjectInit:0000000000000000 $t
/var/folders/5n/p_75w94d66l9ssrldxqdhh700000gn/T//ccISYCG7.s:45     .text.macObjectInit:0000000000000000 macObjectInit
/var/folders/5n/p_75w94d66l9ssrldxqdhh700000gn/T//ccISYCG7.s:88     .text.macStart:0000000000000000 $t
/var/folders/5n/p_75w94d66l9ssrldxqdhh700000gn/T//ccISYCG7.s:94     .text.macStart:0000000000000000 macStart
/var/folders/5n/p_75w94d66l9ssrldxqdhh700000gn/T//ccISYCG7.s:145    .text.macStop:0000000000000000 $t
/var/folders/5n/p_75w94d66l9ssrldxqdhh700000gn/T//ccISYCG7.s:151    .text.macStop:0000000000000000 macStop
/var/folders/5n/p_75w94d66l9ssrldxqdhh700000gn/T//ccISYCG7.s:200    .text.macWaitTransmitDescriptor:0000000000000000 $t
/var/folders/5n/p_75w94d66l9ssrldxqdhh700000gn/T//ccISYCG7.s:206    .text.macWaitTransmitDescriptor:0000000000000000 macWaitTransmitDescriptor
/var/folders/5n/p_75w94d66l9ssrldxqdhh700000gn/T//ccISYCG7.s:309    .text.macWaitTransmitDescriptor:0000000000000058 $d
/var/folders/5n/p_75w94d66l9ssrldxqdhh700000gn/T//ccISYCG7.s:314    .text.macReleaseTransmitDescriptor:0000000000000000 $t
/var/folders/5n/p_75w94d66l9ssrldxqdhh700000gn/T//ccISYCG7.s:320    .text.macReleaseTransmitDescriptor:0000000000000000 macReleaseTransmitDescriptor
/var/folders/5n/p_75w94d66l9ssrldxqdhh700000gn/T//ccISYCG7.s:336    .text.macWaitReceiveDescriptor:0000000000000000 $t
/var/folders/5n/p_75w94d66l9ssrldxqdhh700000gn/T//ccISYCG7.s:342    .text.macWaitReceiveDescriptor:0000000000000000 macWaitReceiveDescriptor
/var/folders/5n/p_75w94d66l9ssrldxqdhh700000gn/T//ccISYCG7.s:445    .text.macWaitReceiveDescriptor:0000000000000058 $d
/var/folders/5n/p_75w94d66l9ssrldxqdhh700000gn/T//ccISYCG7.s:450    .text.macReleaseReceiveDescriptor:0000000000000000 $t
/var/folders/5n/p_75w94d66l9ssrldxqdhh700000gn/T//ccISYCG7.s:456    .text.macReleaseReceiveDescriptor:0000000000000000 macReleaseReceiveDescriptor
/var/folders/5n/p_75w94d66l9ssrldxqdhh700000gn/T//ccISYCG7.s:472    .text.macPollLinkStatus:0000000000000000 $t
/var/folders/5n/p_75w94d66l9ssrldxqdhh700000gn/T//ccISYCG7.s:478    .text.macPollLinkStatus:0000000000000000 macPollLinkStatus
                     .debug_frame:0000000000000010 $d
/var/folders/5n/p_75w94d66l9ssrldxqdhh700000gn/T//ccISYCG7.s:313    .text.macWaitTransmitDescriptor:000000000000005c $t
/var/folders/5n/p_75w94d66l9ssrldxqdhh700000gn/T//ccISYCG7.s:449    .text.macWaitReceiveDescriptor:000000000000005c $t

UNDEFINED SYMBOLS
mac_lld_init
chSemInit
mac_lld_start
mac_lld_stop
chSemWaitTimeoutS
mac_lld_get_transmit_descriptor
vtlist
mac_lld_release_transmit_descriptor
mac_lld_get_receive_descriptor
mac_lld_release_receive_descriptor
mac_lld_poll_link_status
