ARM GAS  /var/folders/5n/p_75w94d66l9ssrldxqdhh700000gn/T//ccISYCG7.s 			page 1


   1              		.syntax unified
   2              		.cpu cortex-m4
   3              		.fpu softvfp
   4              		.eabi_attribute 20, 1
   5              		.eabi_attribute 21, 1
   6              		.eabi_attribute 23, 3
   7              		.eabi_attribute 24, 1
   8              		.eabi_attribute 25, 1
   9              		.eabi_attribute 26, 1
  10              		.eabi_attribute 30, 2
  11              		.eabi_attribute 18, 4
  12              		.thumb
  13              		.file	"mac.c"
  14              		.text
  15              	.Ltext0:
  16              		.cfi_sections	.debug_frame
  17              		.section	.text.macInit,"ax",%progbits
  18              		.align	2
  19              		.p2align 4,,15
  20              		.global	macInit
  21              		.thumb
  22              		.thumb_func
  23              		.type	macInit, %function
  24              	macInit:
  25              	.LFB118:
  26              		.file 1 "../../os/hal/src/mac.c"
  27              		.loc 1 65 0
  28              		.cfi_startproc
  29              		@ args = 0, pretend = 0, frame = 0
  30              		@ frame_needed = 0, uses_anonymous_args = 0
  31              		@ link register save eliminated.
  32              		.loc 1 68 0
  33              		.loc 1 67 0
  34 0000 FFF7FEBF 		b	mac_lld_init
  35              		.cfi_endproc
  36              	.LFE118:
  37              		.size	macInit, .-macInit
  38 0004 AFF30080 		.section	.text.macObjectInit,"ax",%progbits
  38      AFF30080 
  38      AFF30080 
  39              		.align	2
  40              		.p2align 4,,15
  41              		.global	macObjectInit
  42              		.thumb
  43              		.thumb_func
  44              		.type	macObjectInit, %function
  45              	macObjectInit:
  46              	.LFB119:
  47              		.loc 1 77 0
  48              		.cfi_startproc
  49              		@ args = 0, pretend = 0, frame = 0
  50              		@ frame_needed = 0, uses_anonymous_args = 0
  51              	.LVL0:
  52 0000 38B5     		push	{r3, r4, r5, lr}
  53              	.LCFI0:
  54              		.cfi_def_cfa_offset 16
  55              		.cfi_offset 14, -4
ARM GAS  /var/folders/5n/p_75w94d66l9ssrldxqdhh700000gn/T//ccISYCG7.s 			page 2


  56              		.cfi_offset 5, -8
  57              		.cfi_offset 4, -12
  58              		.cfi_offset 3, -16
  59              		.loc 1 77 0
  60 0002 0446     		mov	r4, r0
  61              		.loc 1 79 0
  62 0004 0123     		movs	r3, #1
  63              		.loc 1 80 0
  64 0006 0025     		movs	r5, #0
  65              		.loc 1 79 0
  66 0008 2370     		strb	r3, [r4, #0]
  67              		.loc 1 81 0
  68 000a 00F10800 		add	r0, r0, #8
  69              	.LVL1:
  70 000e 2946     		mov	r1, r5
  71              		.loc 1 80 0
  72 0010 6560     		str	r5, [r4, #4]
  73              		.loc 1 81 0
  74 0012 FFF7FEFF 		bl	chSemInit
  75              		.loc 1 82 0
  76 0016 04F11400 		add	r0, r4, #20
  77 001a 2946     		mov	r1, r5
  78 001c FFF7FEFF 		bl	chSemInit
  79              		.loc 1 84 0
  80 0020 04F12003 		add	r3, r4, #32
  81 0024 2362     		str	r3, [r4, #32]
  82              		.loc 1 86 0
  83 0026 38BD     		pop	{r3, r4, r5, pc}
  84              		.cfi_endproc
  85              	.LFE119:
  86              		.size	macObjectInit, .-macObjectInit
  87 0028 AFF30080 		.section	.text.macStart,"ax",%progbits
  87      AFF30080 
  88              		.align	2
  89              		.p2align 4,,15
  90              		.global	macStart
  91              		.thumb
  92              		.thumb_func
  93              		.type	macStart, %function
  94              	macStart:
  95              	.LFB120:
  96              		.loc 1 96 0
  97              		.cfi_startproc
  98              		@ args = 0, pretend = 0, frame = 0
  99              		@ frame_needed = 0, uses_anonymous_args = 0
 100              	.LVL2:
 101 0000 10B5     		push	{r4, lr}
 102              	.LCFI1:
 103              		.cfi_def_cfa_offset 8
 104              		.cfi_offset 14, -4
 105              		.cfi_offset 4, -8
 106              	.LBB2:
 107              		.loc 1 100 0
 108 0002 2023     		movs	r3, #32
 109              	.LVL3:
 110              	.LBE2:
 111              		.loc 1 96 0
ARM GAS  /var/folders/5n/p_75w94d66l9ssrldxqdhh700000gn/T//ccISYCG7.s 			page 3


 112 0004 0446     		mov	r4, r0
 113              	.LBB3:
 114              		.loc 1 100 0
 115              	@ 100 "../../os/hal/src/mac.c" 1
 116 0006 83F31188 		msr     BASEPRI, r3
 117              	@ 0 "" 2
 118              	.LVL4:
 119              		.thumb
 120              	.LBE3:
 121              		.loc 1 103 0
 122 000a 4160     		str	r1, [r0, #4]
 123              		.loc 1 104 0
 124 000c FFF7FEFF 		bl	mac_lld_start
 125              	.LVL5:
 126              		.loc 1 105 0
 127 0010 0223     		movs	r3, #2
 128 0012 2370     		strb	r3, [r4, #0]
 129              	.LBB4:
 130              		.loc 1 106 0
 131 0014 0023     		movs	r3, #0
 132              	.LVL6:
 133              	@ 106 "../../os/hal/src/mac.c" 1
 134 0016 83F31188 		msr     BASEPRI, r3
 135              	@ 0 "" 2
 136              	.LVL7:
 137              		.thumb
 138              	.LBE4:
 139              		.loc 1 107 0
 140 001a 10BD     		pop	{r4, pc}
 141              		.cfi_endproc
 142              	.LFE120:
 143              		.size	macStart, .-macStart
 144 001c AFF30080 		.section	.text.macStop,"ax",%progbits
 145              		.align	2
 146              		.p2align 4,,15
 147              		.global	macStop
 148              		.thumb
 149              		.thumb_func
 150              		.type	macStop, %function
 151              	macStop:
 152              	.LFB121:
 153              		.loc 1 116 0
 154              		.cfi_startproc
 155              		@ args = 0, pretend = 0, frame = 0
 156              		@ frame_needed = 0, uses_anonymous_args = 0
 157              	.LVL8:
 158 0000 10B5     		push	{r4, lr}
 159              	.LCFI2:
 160              		.cfi_def_cfa_offset 8
 161              		.cfi_offset 14, -4
 162              		.cfi_offset 4, -8
 163              	.LBB5:
 164              		.loc 1 120 0
 165 0002 2023     		movs	r3, #32
 166              	.LVL9:
 167              	.LBE5:
 168              		.loc 1 116 0
ARM GAS  /var/folders/5n/p_75w94d66l9ssrldxqdhh700000gn/T//ccISYCG7.s 			page 4


 169 0004 0446     		mov	r4, r0
 170              	.LBB6:
 171              		.loc 1 120 0
 172              	@ 120 "../../os/hal/src/mac.c" 1
 173 0006 83F31188 		msr     BASEPRI, r3
 174              	@ 0 "" 2
 175              	.LVL10:
 176              		.thumb
 177              	.LBE6:
 178              		.loc 1 123 0
 179 000a FFF7FEFF 		bl	mac_lld_stop
 180              	.LVL11:
 181              		.loc 1 124 0
 182 000e 0123     		movs	r3, #1
 183 0010 2370     		strb	r3, [r4, #0]
 184              	.LBB7:
 185              		.loc 1 125 0
 186 0012 0023     		movs	r3, #0
 187              	.LVL12:
 188              	@ 125 "../../os/hal/src/mac.c" 1
 189 0014 83F31188 		msr     BASEPRI, r3
 190              	@ 0 "" 2
 191              	.LVL13:
 192              		.thumb
 193              	.LBE7:
 194              		.loc 1 126 0
 195 0018 10BD     		pop	{r4, pc}
 196              		.cfi_endproc
 197              	.LFE121:
 198              		.size	macStop, .-macStop
 199 001a 00BFAFF3 		.section	.text.macWaitTransmitDescriptor,"ax",%progbits
 199      0080
 200              		.align	2
 201              		.p2align 4,,15
 202              		.global	macWaitTransmitDescriptor
 203              		.thumb
 204              		.thumb_func
 205              		.type	macWaitTransmitDescriptor, %function
 206              	macWaitTransmitDescriptor:
 207              	.LFB122:
 208              		.loc 1 149 0
 209              		.cfi_startproc
 210              		@ args = 0, pretend = 0, frame = 0
 211              		@ frame_needed = 0, uses_anonymous_args = 0
 212              	.LVL14:
 213 0000 2DE9F843 		push	{r3, r4, r5, r6, r7, r8, r9, lr}
 214              	.LCFI3:
 215              		.cfi_def_cfa_offset 32
 216              		.cfi_offset 14, -4
 217              		.cfi_offset 9, -8
 218              		.cfi_offset 8, -12
 219              		.cfi_offset 7, -16
 220              		.cfi_offset 6, -20
 221              		.cfi_offset 5, -24
 222              		.cfi_offset 4, -28
 223              		.cfi_offset 3, -32
 224              		.loc 1 149 0
ARM GAS  /var/folders/5n/p_75w94d66l9ssrldxqdhh700000gn/T//ccISYCG7.s 			page 5


 225 0004 0446     		mov	r4, r0
 226 0006 0D46     		mov	r5, r1
 227 0008 1646     		mov	r6, r2
 228              		.loc 1 160 0
 229 000a 134F     		ldr	r7, .L14
 230              		.loc 1 161 0
 231 000c 00F10808 		add	r8, r0, #8
 232 0010 13E0     		b	.L6
 233              	.LVL15:
 234              	.L13:
 235              		.loc 1 157 0 discriminator 2
 236 0012 CEB1     		cbz	r6, .L8
 237              	.LBB8:
 238              		.loc 1 159 0
 239              	@ 159 "../../os/hal/src/mac.c" 1
 240 0014 83F31188 		msr     BASEPRI, r3
 241              	@ 0 "" 2
 242              	.LVL16:
 243              		.thumb
 244              	.LBE8:
 245              		.loc 1 161 0
 246 0018 3146     		mov	r1, r6
 247 001a 4046     		mov	r0, r8
 248              	.LVL17:
 249              		.loc 1 160 0
 250 001c D7F80C90 		ldr	r9, [r7, #12]
 251              	.LVL18:
 252              		.loc 1 161 0
 253 0020 FFF7FEFF 		bl	chSemWaitTimeoutS
 254              	.LVL19:
 255 0024 421C     		adds	r2, r0, #1
 256 0026 11D0     		beq	.L12
 257              		.loc 1 165 0
 258 0028 731C     		adds	r3, r6, #1
 259              		.loc 1 166 0
 260 002a 1EBF     		ittt	ne
 261 002c FB68     		ldrne	r3, [r7, #12]
 262 002e C3EB0909 		rsbne	r9, r3, r9
 263              	.LVL20:
 264 0032 4E44     		addne	r6, r6, r9
 265              	.LVL21:
 266              	.LBB9:
 267              		.loc 1 167 0
 268 0034 0023     		movs	r3, #0
 269              	.LVL22:
 270              	@ 167 "../../os/hal/src/mac.c" 1
 271 0036 83F31188 		msr     BASEPRI, r3
 272              	@ 0 "" 2
 273              	.LVL23:
 274              		.thumb
 275              	.L6:
 276              	.LBE9:
 277              		.loc 1 157 0 discriminator 1
 278 003a 2046     		mov	r0, r4
 279 003c 2946     		mov	r1, r5
 280 003e FFF7FEFF 		bl	mac_lld_get_transmit_descriptor
 281              	.LVL24:
ARM GAS  /var/folders/5n/p_75w94d66l9ssrldxqdhh700000gn/T//ccISYCG7.s 			page 6


 282              	.LBB10:
 283              		.loc 1 159 0 discriminator 1
 284 0042 2023     		movs	r3, #32
 285              	.LBE10:
 286              		.loc 1 157 0 discriminator 1
 287 0044 0028     		cmp	r0, #0
 288 0046 E4D1     		bne	.L13
 289              	.L8:
 290              		.loc 1 170 0
 291 0048 BDE8F883 		pop	{r3, r4, r5, r6, r7, r8, r9, pc}
 292              	.LVL25:
 293              	.L12:
 294              	.LBB11:
 295              		.loc 1 162 0
 296 004c 0023     		movs	r3, #0
 297              	.LVL26:
 298              	@ 162 "../../os/hal/src/mac.c" 1
 299 004e 83F31188 		msr     BASEPRI, r3
 300              	@ 0 "" 2
 301              	.LVL27:
 302              		.thumb
 303              	.LBE11:
 304              		.loc 1 163 0
 305 0052 BDE8F883 		pop	{r3, r4, r5, r6, r7, r8, r9, pc}
 306              	.L15:
 307 0056 00BF     		.align	2
 308              	.L14:
 309 0058 00000000 		.word	vtlist
 310              		.cfi_endproc
 311              	.LFE122:
 312              		.size	macWaitTransmitDescriptor, .-macWaitTransmitDescriptor
 313 005c AFF30080 		.section	.text.macReleaseTransmitDescriptor,"ax",%progbits
 314              		.align	2
 315              		.p2align 4,,15
 316              		.global	macReleaseTransmitDescriptor
 317              		.thumb
 318              		.thumb_func
 319              		.type	macReleaseTransmitDescriptor, %function
 320              	macReleaseTransmitDescriptor:
 321              	.LFB123:
 322              		.loc 1 180 0
 323              		.cfi_startproc
 324              		@ args = 0, pretend = 0, frame = 0
 325              		@ frame_needed = 0, uses_anonymous_args = 0
 326              		@ link register save eliminated.
 327              	.LVL28:
 328              		.loc 1 185 0
 329              		.loc 1 184 0
 330 0000 FFF7FEBF 		b	mac_lld_release_transmit_descriptor
 331              	.LVL29:
 332              		.cfi_endproc
 333              	.LFE123:
 334              		.size	macReleaseTransmitDescriptor, .-macReleaseTransmitDescriptor
 335 0004 AFF30080 		.section	.text.macWaitReceiveDescriptor,"ax",%progbits
 335      AFF30080 
 335      AFF30080 
 336              		.align	2
ARM GAS  /var/folders/5n/p_75w94d66l9ssrldxqdhh700000gn/T//ccISYCG7.s 			page 7


 337              		.p2align 4,,15
 338              		.global	macWaitReceiveDescriptor
 339              		.thumb
 340              		.thumb_func
 341              		.type	macWaitReceiveDescriptor, %function
 342              	macWaitReceiveDescriptor:
 343              	.LFB124:
 344              		.loc 1 208 0
 345              		.cfi_startproc
 346              		@ args = 0, pretend = 0, frame = 0
 347              		@ frame_needed = 0, uses_anonymous_args = 0
 348              	.LVL30:
 349 0000 2DE9F843 		push	{r3, r4, r5, r6, r7, r8, r9, lr}
 350              	.LCFI4:
 351              		.cfi_def_cfa_offset 32
 352              		.cfi_offset 14, -4
 353              		.cfi_offset 9, -8
 354              		.cfi_offset 8, -12
 355              		.cfi_offset 7, -16
 356              		.cfi_offset 6, -20
 357              		.cfi_offset 5, -24
 358              		.cfi_offset 4, -28
 359              		.cfi_offset 3, -32
 360              		.loc 1 208 0
 361 0004 0446     		mov	r4, r0
 362 0006 0D46     		mov	r5, r1
 363 0008 1646     		mov	r6, r2
 364              		.loc 1 219 0
 365 000a 134F     		ldr	r7, .L25
 366              		.loc 1 220 0
 367 000c 00F11408 		add	r8, r0, #20
 368 0010 13E0     		b	.L18
 369              	.LVL31:
 370              	.L24:
 371              		.loc 1 216 0 discriminator 2
 372 0012 CEB1     		cbz	r6, .L20
 373              	.LBB12:
 374              		.loc 1 218 0
 375              	@ 218 "../../os/hal/src/mac.c" 1
 376 0014 83F31188 		msr     BASEPRI, r3
 377              	@ 0 "" 2
 378              	.LVL32:
 379              		.thumb
 380              	.LBE12:
 381              		.loc 1 220 0
 382 0018 3146     		mov	r1, r6
 383 001a 4046     		mov	r0, r8
 384              	.LVL33:
 385              		.loc 1 219 0
 386 001c D7F80C90 		ldr	r9, [r7, #12]
 387              	.LVL34:
 388              		.loc 1 220 0
 389 0020 FFF7FEFF 		bl	chSemWaitTimeoutS
 390              	.LVL35:
 391 0024 431C     		adds	r3, r0, #1
 392 0026 11D0     		beq	.L23
 393              		.loc 1 224 0
ARM GAS  /var/folders/5n/p_75w94d66l9ssrldxqdhh700000gn/T//ccISYCG7.s 			page 8


 394 0028 711C     		adds	r1, r6, #1
 395              		.loc 1 225 0
 396 002a 1EBF     		ittt	ne
 397 002c FB68     		ldrne	r3, [r7, #12]
 398 002e C3EB0909 		rsbne	r9, r3, r9
 399              	.LVL36:
 400 0032 4E44     		addne	r6, r6, r9
 401              	.LVL37:
 402              	.LBB13:
 403              		.loc 1 226 0
 404 0034 0023     		movs	r3, #0
 405              	.LVL38:
 406              	@ 226 "../../os/hal/src/mac.c" 1
 407 0036 83F31188 		msr     BASEPRI, r3
 408              	@ 0 "" 2
 409              	.LVL39:
 410              		.thumb
 411              	.L18:
 412              	.LBE13:
 413              		.loc 1 216 0 discriminator 1
 414 003a 2046     		mov	r0, r4
 415 003c 2946     		mov	r1, r5
 416 003e FFF7FEFF 		bl	mac_lld_get_receive_descriptor
 417              	.LVL40:
 418              	.LBB14:
 419              		.loc 1 218 0 discriminator 1
 420 0042 2023     		movs	r3, #32
 421              	.LBE14:
 422              		.loc 1 216 0 discriminator 1
 423 0044 0028     		cmp	r0, #0
 424 0046 E4D1     		bne	.L24
 425              	.L20:
 426              		.loc 1 229 0
 427 0048 BDE8F883 		pop	{r3, r4, r5, r6, r7, r8, r9, pc}
 428              	.LVL41:
 429              	.L23:
 430              	.LBB15:
 431              		.loc 1 221 0
 432 004c 0023     		movs	r3, #0
 433              	.LVL42:
 434              	@ 221 "../../os/hal/src/mac.c" 1
 435 004e 83F31188 		msr     BASEPRI, r3
 436              	@ 0 "" 2
 437              	.LVL43:
 438              		.thumb
 439              	.LBE15:
 440              		.loc 1 222 0
 441 0052 BDE8F883 		pop	{r3, r4, r5, r6, r7, r8, r9, pc}
 442              	.L26:
 443 0056 00BF     		.align	2
 444              	.L25:
 445 0058 00000000 		.word	vtlist
 446              		.cfi_endproc
 447              	.LFE124:
 448              		.size	macWaitReceiveDescriptor, .-macWaitReceiveDescriptor
 449 005c AFF30080 		.section	.text.macReleaseReceiveDescriptor,"ax",%progbits
 450              		.align	2
ARM GAS  /var/folders/5n/p_75w94d66l9ssrldxqdhh700000gn/T//ccISYCG7.s 			page 9


 451              		.p2align 4,,15
 452              		.global	macReleaseReceiveDescriptor
 453              		.thumb
 454              		.thumb_func
 455              		.type	macReleaseReceiveDescriptor, %function
 456              	macReleaseReceiveDescriptor:
 457              	.LFB125:
 458              		.loc 1 240 0
 459              		.cfi_startproc
 460              		@ args = 0, pretend = 0, frame = 0
 461              		@ frame_needed = 0, uses_anonymous_args = 0
 462              		@ link register save eliminated.
 463              	.LVL44:
 464              		.loc 1 245 0
 465              		.loc 1 244 0
 466 0000 FFF7FEBF 		b	mac_lld_release_receive_descriptor
 467              	.LVL45:
 468              		.cfi_endproc
 469              	.LFE125:
 470              		.size	macReleaseReceiveDescriptor, .-macReleaseReceiveDescriptor
 471 0004 AFF30080 		.section	.text.macPollLinkStatus,"ax",%progbits
 471      AFF30080 
 471      AFF30080 
 472              		.align	2
 473              		.p2align 4,,15
 474              		.global	macPollLinkStatus
 475              		.thumb
 476              		.thumb_func
 477              		.type	macPollLinkStatus, %function
 478              	macPollLinkStatus:
 479              	.LFB126:
 480              		.loc 1 257 0
 481              		.cfi_startproc
 482              		@ args = 0, pretend = 0, frame = 0
 483              		@ frame_needed = 0, uses_anonymous_args = 0
 484              		@ link register save eliminated.
 485              	.LVL46:
 486              		.loc 1 264 0
 487              		.loc 1 263 0
 488 0000 FFF7FEBF 		b	mac_lld_poll_link_status
 489              	.LVL47:
 490              		.cfi_endproc
 491              	.LFE126:
 492              		.size	macPollLinkStatus, .-macPollLinkStatus
 493 0004 AFF30080 		.text
 493      AFF30080 
 493      AFF30080 
 494              	.Letext0:
 495              		.file 2 "/usr/local/summon/lib/gcc/arm-none-eabi/4.6.2/include/stddef.h"
 496              		.file 3 "/usr/local/summon/lib/gcc/arm-none-eabi/4.6.2/../../../../arm-none-eabi/include/stdint.h"
 497              		.file 4 "../../os/ports/GCC/ARMCMx/chtypes.h"
 498              		.file 5 "../../os/kernel/include/chlists.h"
 499              		.file 6 "../../os/kernel/include/chthreads.h"
 500              		.file 7 "../../os/ports/GCC/ARMCMx/chcore_v7m.h"
 501              		.file 8 "../../os/kernel/include/chvt.h"
 502              		.file 9 "../../os/kernel/include/chsem.h"
 503              		.file 10 "../../os/kernel/include/chmtx.h"
ARM GAS  /var/folders/5n/p_75w94d66l9ssrldxqdhh700000gn/T//ccISYCG7.s 			page 10


 504              		.file 11 "../../os/kernel/include/chevents.h"
 505              		.file 12 "../../os/hal/include/mac.h"
 506              		.file 13 "../../os/hal/platforms/STM32/mac_lld.h"
 507              		.file 14 "../../os/ports/common/ARMCMx/CMSIS/include/core_cm4.h"