ARM GAS  /var/folders/5n/p_75w94d66l9ssrldxqdhh700000gn/T//cc91715g.s 			page 1


   1              		.syntax unified
   2              		.cpu cortex-m4
   3              		.fpu softvfp
   4              		.eabi_attribute 20, 1
   5              		.eabi_attribute 21, 1
   6              		.eabi_attribute 23, 3
   7              		.eabi_attribute 24, 1
   8              		.eabi_attribute 25, 1
   9              		.eabi_attribute 26, 1
  10              		.eabi_attribute 30, 2
  11              		.eabi_attribute 18, 4
  12              		.thumb
  13              		.file	"main.c"
  14              		.text
  15              	.Ltext0:
  16              		.cfi_sections	.debug_frame
  17              		.section	.text.Thread1,"ax",%progbits
  18              		.align	2
  19              		.p2align 4,,15
  20              		.thumb
  21              		.thumb_func
  22              		.type	Thread1, %function
  23              	Thread1:
  24              	.LFB118:
  25              		.file 1 "main.c"
  26              		.loc 1 33 0
  27              		.cfi_startproc
  28              		@ args = 0, pretend = 0, frame = 0
  29              		@ frame_needed = 0, uses_anonymous_args = 0
  30              	.LVL0:
  31              		.loc 1 36 0
  32 0000 0A4B     		ldr	r3, .L4
  33 0002 0B4A     		ldr	r2, .L4+4
  34 0004 9B69     		ldr	r3, [r3, #24]
  35              		.loc 1 33 0
  36 0006 70B5     		push	{r4, r5, r6, lr}
  37              	.LCFI0:
  38              		.cfi_def_cfa_offset 16
  39              		.cfi_offset 14, -4
  40              		.cfi_offset 6, -8
  41              		.cfi_offset 5, -12
  42              		.cfi_offset 4, -16
  43              		.loc 1 38 0
  44 0008 4FF4A054 		mov	r4, #5120
  45 000c 4025     		movs	r5, #64
  46              		.loc 1 36 0
  47 000e 9A61     		str	r2, [r3, #24]
  48              		.loc 1 38 0
  49 0010 C4F20204 		movt	r4, 16386
  50 0014 2E46     		mov	r6, r5	@ movhi
  51              	.LVL1:
  52              	.L2:
  53              		.loc 1 38 0 is_stmt 0 discriminator 1
  54 0016 6683     		strh	r6, [r4, #26]	@ movhi
  55              		.loc 1 39 0 is_stmt 1 discriminator 1
  56 0018 4FF4FA70 		mov	r0, #500
  57 001c FFF7FEFF 		bl	chThdSleep
ARM GAS  /var/folders/5n/p_75w94d66l9ssrldxqdhh700000gn/T//cc91715g.s 			page 2


  58              		.loc 1 40 0 discriminator 1
  59 0020 2583     		strh	r5, [r4, #24]	@ movhi
  60              		.loc 1 41 0 discriminator 1
  61 0022 4FF4FA70 		mov	r0, #500
  62 0026 FFF7FEFF 		bl	chThdSleep
  63 002a F4E7     		b	.L2
  64              	.L5:
  65              		.align	2
  66              	.L4:
  67 002c 00000000 		.word	rlist
  68 0030 00000000 		.word	.LC0
  69              		.cfi_endproc
  70              	.LFE118:
  71              		.size	Thread1, .-Thread1
  72 0034 AFF30080 		.section	.text.startup.main,"ax",%progbits
  72      AFF30080 
  72      AFF30080 
  73              		.align	2
  74              		.p2align 4,,15
  75              		.global	main
  76              		.thumb
  77              		.thumb_func
  78              		.type	main, %function
  79              	main:
  80              	.LFB119:
  81              		.loc 1 48 0
  82              		.cfi_startproc
  83              		@ args = 0, pretend = 0, frame = 0
  84              		@ frame_needed = 0, uses_anonymous_args = 0
  85 0000 10B5     		push	{r4, lr}
  86              	.LCFI1:
  87              		.cfi_def_cfa_offset 8
  88              		.cfi_offset 14, -4
  89              		.cfi_offset 4, -8
  90 0002 82B0     		sub	sp, sp, #8
  91              	.LCFI2:
  92              		.cfi_def_cfa_offset 16
  93              		.loc 1 57 0
  94 0004 FFF7FEFF 		bl	halInit
  95              		.loc 1 58 0
  96 0008 FFF7FEFF 		bl	chSysInit
  97              		.loc 1 63 0
  98 000c 1648     		ldr	r0, .L9
  99 000e 0021     		movs	r1, #0
 100 0010 FFF7FEFF 		bl	sdStart
 101              		.loc 1 68 0
 102 0014 0024     		movs	r4, #0
 103 0016 4FF49871 		mov	r1, #304
 104 001a 4022     		movs	r2, #64
 105 001c 134B     		ldr	r3, .L9+4
 106 001e 1448     		ldr	r0, .L9+8
 107 0020 0094     		str	r4, [sp, #0]
 108 0022 FFF7FEFF 		bl	chThdCreateStatic
 109              		.loc 1 73 0
 110 0026 4FF40071 		mov	r1, #512
 111 002a 4122     		movs	r2, #65
 112 002c 114B     		ldr	r3, .L9+12
ARM GAS  /var/folders/5n/p_75w94d66l9ssrldxqdhh700000gn/T//cc91715g.s 			page 3


 113 002e 1248     		ldr	r0, .L9+16
 114 0030 0094     		str	r4, [sp, #0]
 115 0032 FFF7FEFF 		bl	chThdCreateStatic
 116              		.loc 1 79 0
 117 0036 0094     		str	r4, [sp, #0]
 118 0038 1048     		ldr	r0, .L9+20
 119 003a 114B     		ldr	r3, .L9+24
 120 003c 4FF49661 		mov	r1, #1200
 121 0040 4122     		movs	r2, #65
 122              		.loc 1 87 0
 123 0042 4FF40064 		mov	r4, #2048
 124              		.loc 1 79 0
 125 0046 FFF7FEFF 		bl	chThdCreateStatic
 126              		.loc 1 87 0
 127 004a C4F20204 		movt	r4, 16386
 128 004e 03E0     		b	.L8
 129              	.L7:
 130              		.loc 1 89 0
 131 0050 4FF4FA70 		mov	r0, #500
 132 0054 FFF7FEFF 		bl	chThdSleep
 133              	.L8:
 134              		.loc 1 87 0
 135 0058 2369     		ldr	r3, [r4, #16]
 136 005a 9B04     		lsls	r3, r3, #18
 137 005c F8D4     		bmi	.L7
 138              		.loc 1 88 0
 139 005e 0248     		ldr	r0, .L9
 140 0060 FFF7FEFF 		bl	TestThread
 141 0064 F4E7     		b	.L7
 142              	.L10:
 143 0066 00BF     		.align	2
 144              	.L9:
 145 0068 00000000 		.word	SD6
 146 006c 00000000 		.word	Thread1
 147 0070 00000000 		.word	.LANCHOR0
 148 0074 00000000 		.word	lwip_thread
 149 0078 00000000 		.word	wa_lwip_thread
 150 007c 00000000 		.word	wa_http_server
 151 0080 00000000 		.word	http_server
 152              		.cfi_endproc
 153              	.LFE119:
 154              		.size	main, .-main
 155 0084 AFF30080 		.section	.bss.waThread1,"aw",%nobits
 155      AFF30080 
 155      AFF30080 
 156              		.align	3
 157              		.set	.LANCHOR0,. + 0
 158              		.type	waThread1, %object
 159              		.size	waThread1, 304
 160              	waThread1:
 161 0000 00000000 		.space	304
 161      00000000 
 161      00000000 
 161      00000000 
 161      00000000 
 162              		.section	.rodata.str1.4,"aMS",%progbits,1
 163              		.align	2
ARM GAS  /var/folders/5n/p_75w94d66l9ssrldxqdhh700000gn/T//cc91715g.s 			page 4


 164              	.LC0:
 165 0000 626C696E 		.ascii	"blinker\000"
 165      6B657200 
 166              		.text
 167              	.Letext0:
 168              		.file 2 "/usr/local/summon/lib/gcc/arm-none-eabi/4.6.2/include/stddef.h"
 169              		.file 3 "/usr/local/summon/lib/gcc/arm-none-eabi/4.6.2/../../../../arm-none-eabi/include/stdint.h"
 170              		.file 4 "../../os/ports/GCC/ARMCMx/chtypes.h"
 171              		.file 5 "../../os/kernel/include/chlists.h"
 172              		.file 6 "../../os/kernel/include/chthreads.h"
 173              		.file 7 "../../os/ports/GCC/ARMCMx/chcore_v7m.h"
 174              		.file 8 "../../os/kernel/include/chschd.h"
 175              		.file 9 "../../os/kernel/include/chmtx.h"
 176              		.file 10 "../../os/kernel/include/chevents.h"
 177              		.file 11 "../../os/kernel/include/chqueues.h"
 178              		.file 12 "../../os/hal/platforms/STM32F4xx/stm32f4xx.h"
 179              		.file 13 "../../os/hal/platforms/STM32/GPIOv2/pal_lld.h"
 180              		.file 14 "../../os/hal/include/serial.h"
 181              		.file 15 "../../os/ports/common/ARMCMx/CMSIS/include/core_cm4.h"
 182              		.file 16 "../../os/various/lwip_bindings/lwipthread.h"
 183              		.file 17 "web/web.h"
 184              		.file 18 "../../os/hal/platforms/STM32/serial_lld.h"
 185              		.section	.debug_info,"",%progbits
 186              	.Ldebug_info0:
 187 0000 E30A0000 		.4byte	0xae3
 188 0004 0200     		.2byte	0x2
 189 0006 00000000 		.4byte	.Ldebug_abbrev0
 190 000a 04       		.byte	0x4
 191 000b 01       		.uleb128 0x1
 192 000c F0030000 		.4byte	.LASF126
 193 0010 01       		.byte	0x1
 194 0011 42020000 		.4byte	.LASF127
 195 0015 76040000 		.4byte	.LASF128
 196 0019 00000000 		.4byte	0
 197 001d 00000000 		.4byte	0
 198 0021 00000000 		.4byte	.Ldebug_ranges0+0
 199 0025 00000000 		.4byte	.Ldebug_line0
 200 0029 02       		.uleb128 0x2
 201 002a 04       		.byte	0x4
 202 002b 05       		.byte	0x5
 203 002c 696E7400 		.ascii	"int\000"
 204 0030 03       		.uleb128 0x3
 205 0031 00000000 		.4byte	.LASF2
 206 0035 02       		.byte	0x2
 207 0036 D4       		.byte	0xd4
 208 0037 3B000000 		.4byte	0x3b
 209 003b 04       		.uleb128 0x4
 210 003c 04       		.byte	0x4
 211 003d 07       		.byte	0x7
 212 003e 2F010000 		.4byte	.LASF0
 213 0042 04       		.uleb128 0x4
 214 0043 01       		.byte	0x1
 215 0044 06       		.byte	0x6
 216 0045 95000000 		.4byte	.LASF1
 217 0049 03       		.uleb128 0x3
 218 004a 59040000 		.4byte	.LASF3
 219 004e 03       		.byte	0x3
ARM GAS  /var/folders/5n/p_75w94d66l9ssrldxqdhh700000gn/T//cc91715g.s 			page 5


 220 004f 2A       		.byte	0x2a
 221 0050 54000000 		.4byte	0x54
 222 0054 04       		.uleb128 0x4
 223 0055 01       		.byte	0x1
 224 0056 08       		.byte	0x8
 225 0057 D0020000 		.4byte	.LASF4
 226 005b 04       		.uleb128 0x4
 227 005c 02       		.byte	0x2
 228 005d 05       		.byte	0x5
 229 005e FD020000 		.4byte	.LASF5
 230 0062 03       		.uleb128 0x3
 231 0063 3C010000 		.4byte	.LASF6
 232 0067 03       		.byte	0x3
 233 0068 36       		.byte	0x36
 234 0069 6D000000 		.4byte	0x6d
 235 006d 04       		.uleb128 0x4
 236 006e 02       		.byte	0x2
 237 006f 07       		.byte	0x7
 238 0070 86010000 		.4byte	.LASF7
 239 0074 03       		.uleb128 0x3
 240 0075 C8020000 		.4byte	.LASF8
 241 0079 03       		.byte	0x3
 242 007a 4F       		.byte	0x4f
 243 007b 7F000000 		.4byte	0x7f
 244 007f 04       		.uleb128 0x4
 245 0080 04       		.byte	0x4
 246 0081 05       		.byte	0x5
 247 0082 CB000000 		.4byte	.LASF9
 248 0086 03       		.uleb128 0x3
 249 0087 22040000 		.4byte	.LASF10
 250 008b 03       		.byte	0x3
 251 008c 50       		.byte	0x50
 252 008d 91000000 		.4byte	0x91
 253 0091 04       		.uleb128 0x4
 254 0092 04       		.byte	0x4
 255 0093 07       		.byte	0x7
 256 0094 A6030000 		.4byte	.LASF11
 257 0098 04       		.uleb128 0x4
 258 0099 08       		.byte	0x8
 259 009a 05       		.byte	0x5
 260 009b 87000000 		.4byte	.LASF12
 261 009f 03       		.uleb128 0x3
 262 00a0 0E000000 		.4byte	.LASF13
 263 00a4 03       		.byte	0x3
 264 00a5 78       		.byte	0x78
 265 00a6 AA000000 		.4byte	0xaa
 266 00aa 04       		.uleb128 0x4
 267 00ab 08       		.byte	0x8
 268 00ac 07       		.byte	0x7
 269 00ad 3D000000 		.4byte	.LASF14
 270 00b1 03       		.uleb128 0x3
 271 00b2 BB010000 		.4byte	.LASF15
 272 00b6 04       		.byte	0x4
 273 00b7 28       		.byte	0x28
 274 00b8 49000000 		.4byte	0x49
 275 00bc 03       		.uleb128 0x3
 276 00bd D4000000 		.4byte	.LASF16
ARM GAS  /var/folders/5n/p_75w94d66l9ssrldxqdhh700000gn/T//cc91715g.s 			page 6


 277 00c1 04       		.byte	0x4
 278 00c2 29       		.byte	0x29
 279 00c3 49000000 		.4byte	0x49
 280 00c7 03       		.uleb128 0x3
 281 00c8 6D020000 		.4byte	.LASF17
 282 00cc 04       		.byte	0x4
 283 00cd 2A       		.byte	0x2a
 284 00ce 49000000 		.4byte	0x49
 285 00d2 03       		.uleb128 0x3
 286 00d3 BB000000 		.4byte	.LASF18
 287 00d7 04       		.byte	0x4
 288 00d8 2B       		.byte	0x2b
 289 00d9 49000000 		.4byte	0x49
 290 00dd 03       		.uleb128 0x3
 291 00de B8020000 		.4byte	.LASF19
 292 00e2 04       		.byte	0x4
 293 00e3 2C       		.byte	0x2c
 294 00e4 86000000 		.4byte	0x86
 295 00e8 03       		.uleb128 0x3
 296 00e9 99010000 		.4byte	.LASF20
 297 00ed 04       		.byte	0x4
 298 00ee 2D       		.byte	0x2d
 299 00ef 74000000 		.4byte	0x74
 300 00f3 03       		.uleb128 0x3
 301 00f4 CF010000 		.4byte	.LASF21
 302 00f8 04       		.byte	0x4
 303 00f9 2F       		.byte	0x2f
 304 00fa 86000000 		.4byte	0x86
 305 00fe 03       		.uleb128 0x3
 306 00ff 52030000 		.4byte	.LASF22
 307 0103 04       		.byte	0x4
 308 0104 30       		.byte	0x30
 309 0105 86000000 		.4byte	0x86
 310 0109 03       		.uleb128 0x3
 311 010a D3030000 		.4byte	.LASF23
 312 010e 04       		.byte	0x4
 313 010f 31       		.byte	0x31
 314 0110 86000000 		.4byte	0x86
 315 0114 03       		.uleb128 0x3
 316 0115 46030000 		.4byte	.LASF24
 317 0119 05       		.byte	0x5
 318 011a 23       		.byte	0x23
 319 011b 1F010000 		.4byte	0x11f
 320 011f 05       		.uleb128 0x5
 321 0120 46030000 		.4byte	.LASF24
 322 0124 48       		.byte	0x48
 323 0125 06       		.byte	0x6
 324 0126 57       		.byte	0x57
 325 0127 44020000 		.4byte	0x244
 326 012b 06       		.uleb128 0x6
 327 012c 27030000 		.4byte	.LASF25
 328 0130 06       		.byte	0x6
 329 0131 58       		.byte	0x58
 330 0132 69020000 		.4byte	0x269
 331 0136 02       		.byte	0x2
 332 0137 23       		.byte	0x23
 333 0138 00       		.uleb128 0
ARM GAS  /var/folders/5n/p_75w94d66l9ssrldxqdhh700000gn/T//cc91715g.s 			page 7


 334 0139 06       		.uleb128 0x6
 335 013a A7020000 		.4byte	.LASF26
 336 013e 06       		.byte	0x6
 337 013f 5A       		.byte	0x5a
 338 0140 69020000 		.4byte	0x269
 339 0144 02       		.byte	0x2
 340 0145 23       		.byte	0x23
 341 0146 04       		.uleb128 0x4
 342 0147 06       		.uleb128 0x6
 343 0148 70000000 		.4byte	.LASF27
 344 014c 06       		.byte	0x6
 345 014d 5C       		.byte	0x5c
 346 014e DD000000 		.4byte	0xdd
 347 0152 02       		.byte	0x2
 348 0153 23       		.byte	0x23
 349 0154 08       		.uleb128 0x8
 350 0155 06       		.uleb128 0x6
 351 0156 EE040000 		.4byte	.LASF28
 352 015a 06       		.byte	0x6
 353 015b 5D       		.byte	0x5d
 354 015c 42030000 		.4byte	0x342
 355 0160 02       		.byte	0x2
 356 0161 23       		.byte	0x23
 357 0162 0C       		.uleb128 0xc
 358 0163 06       		.uleb128 0x6
 359 0164 FC000000 		.4byte	.LASF29
 360 0168 06       		.byte	0x6
 361 0169 5F       		.byte	0x5f
 362 016a 69020000 		.4byte	0x269
 363 016e 02       		.byte	0x2
 364 016f 23       		.byte	0x23
 365 0170 10       		.uleb128 0x10
 366 0171 06       		.uleb128 0x6
 367 0172 27020000 		.4byte	.LASF30
 368 0176 06       		.byte	0x6
 369 0177 60       		.byte	0x60
 370 0178 69020000 		.4byte	0x269
 371 017c 02       		.byte	0x2
 372 017d 23       		.byte	0x23
 373 017e 14       		.uleb128 0x14
 374 017f 06       		.uleb128 0x6
 375 0180 31040000 		.4byte	.LASF31
 376 0184 06       		.byte	0x6
 377 0185 67       		.byte	0x67
 378 0186 D0040000 		.4byte	0x4d0
 379 018a 02       		.byte	0x2
 380 018b 23       		.byte	0x23
 381 018c 18       		.uleb128 0x18
 382 018d 06       		.uleb128 0x6
 383 018e 07030000 		.4byte	.LASF32
 384 0192 06       		.byte	0x6
 385 0193 72       		.byte	0x72
 386 0194 BC000000 		.4byte	0xbc
 387 0198 02       		.byte	0x2
 388 0199 23       		.byte	0x23
 389 019a 1C       		.uleb128 0x1c
 390 019b 06       		.uleb128 0x6
ARM GAS  /var/folders/5n/p_75w94d66l9ssrldxqdhh700000gn/T//cc91715g.s 			page 8


 391 019c 2E030000 		.4byte	.LASF33
 392 01a0 06       		.byte	0x6
 393 01a1 76       		.byte	0x76
 394 01a2 B1000000 		.4byte	0xb1
 395 01a6 02       		.byte	0x2
 396 01a7 23       		.byte	0x23
 397 01a8 1D       		.uleb128 0x1d
 398 01a9 06       		.uleb128 0x6
 399 01aa DD000000 		.4byte	.LASF34
 400 01ae 06       		.byte	0x6
 401 01af 7B       		.byte	0x7b
 402 01b0 C7000000 		.4byte	0xc7
 403 01b4 02       		.byte	0x2
 404 01b5 23       		.byte	0x23
 405 01b6 1E       		.uleb128 0x1e
 406 01b7 06       		.uleb128 0x6
 407 01b8 0F030000 		.4byte	.LASF35
 408 01bc 06       		.byte	0x6
 409 01bd 81       		.byte	0x81
 410 01be D2000000 		.4byte	0xd2
 411 01c2 02       		.byte	0x2
 412 01c3 23       		.byte	0x23
 413 01c4 1F       		.uleb128 0x1f
 414 01c5 06       		.uleb128 0x6
 415 01c6 55010000 		.4byte	.LASF36
 416 01ca 06       		.byte	0x6
 417 01cb 88       		.byte	0x88
 418 01cc 6A030000 		.4byte	0x36a
 419 01d0 02       		.byte	0x2
 420 01d1 23       		.byte	0x23
 421 01d2 20       		.uleb128 0x20
 422 01d3 07       		.uleb128 0x7
 423 01d4 705F7500 		.ascii	"p_u\000"
 424 01d8 06       		.byte	0x6
 425 01d9 AD       		.byte	0xad
 426 01da 9B040000 		.4byte	0x49b
 427 01de 02       		.byte	0x2
 428 01df 23       		.byte	0x23
 429 01e0 24       		.uleb128 0x24
 430 01e1 06       		.uleb128 0x6
 431 01e2 F4040000 		.4byte	.LASF37
 432 01e6 06       		.byte	0x6
 433 01e7 B2       		.byte	0xb2
 434 01e8 91020000 		.4byte	0x291
 435 01ec 02       		.byte	0x2
 436 01ed 23       		.byte	0x23
 437 01ee 28       		.uleb128 0x28
 438 01ef 06       		.uleb128 0x6
 439 01f0 63010000 		.4byte	.LASF38
 440 01f4 06       		.byte	0x6
 441 01f5 B8       		.byte	0xb8
 442 01f6 6F020000 		.4byte	0x26f
 443 01fa 02       		.byte	0x2
 444 01fb 23       		.byte	0x23
 445 01fc 2C       		.uleb128 0x2c
 446 01fd 06       		.uleb128 0x6
 447 01fe DB040000 		.4byte	.LASF39
ARM GAS  /var/folders/5n/p_75w94d66l9ssrldxqdhh700000gn/T//cc91715g.s 			page 9


 448 0202 06       		.byte	0x6
 449 0203 BC       		.byte	0xbc
 450 0204 E8000000 		.4byte	0xe8
 451 0208 02       		.byte	0x2
 452 0209 23       		.byte	0x23
 453 020a 34       		.uleb128 0x34
 454 020b 06       		.uleb128 0x6
 455 020c 5E030000 		.4byte	.LASF40
 456 0210 06       		.byte	0x6
 457 0211 C2       		.byte	0xc2
 458 0212 F3000000 		.4byte	0xf3
 459 0216 02       		.byte	0x2
 460 0217 23       		.byte	0x23
 461 0218 38       		.uleb128 0x38
 462 0219 06       		.uleb128 0x6
 463 021a F3020000 		.4byte	.LASF41
 464 021e 06       		.byte	0x6
 465 021f C9       		.byte	0xc9
 466 0220 E2040000 		.4byte	0x4e2
 467 0224 02       		.byte	0x2
 468 0225 23       		.byte	0x23
 469 0226 3C       		.uleb128 0x3c
 470 0227 06       		.uleb128 0x6
 471 0228 DD030000 		.4byte	.LASF42
 472 022c 06       		.byte	0x6
 473 022d CD       		.byte	0xcd
 474 022e DD000000 		.4byte	0xdd
 475 0232 02       		.byte	0x2
 476 0233 23       		.byte	0x23
 477 0234 40       		.uleb128 0x40
 478 0235 06       		.uleb128 0x6
 479 0236 AB000000 		.4byte	.LASF43
 480 023a 06       		.byte	0x6
 481 023b D3       		.byte	0xd3
 482 023c A7020000 		.4byte	0x2a7
 483 0240 02       		.byte	0x2
 484 0241 23       		.byte	0x23
 485 0242 44       		.uleb128 0x44
 486 0243 00       		.byte	0
 487 0244 08       		.uleb128 0x8
 488 0245 08       		.byte	0x8
 489 0246 05       		.byte	0x5
 490 0247 5A       		.byte	0x5a
 491 0248 69020000 		.4byte	0x269
 492 024c 06       		.uleb128 0x6
 493 024d 27030000 		.4byte	.LASF25
 494 0251 05       		.byte	0x5
 495 0252 5B       		.byte	0x5b
 496 0253 69020000 		.4byte	0x269
 497 0257 02       		.byte	0x2
 498 0258 23       		.byte	0x23
 499 0259 00       		.uleb128 0
 500 025a 06       		.uleb128 0x6
 501 025b A7020000 		.4byte	.LASF26
 502 025f 05       		.byte	0x5
 503 0260 5D       		.byte	0x5d
 504 0261 69020000 		.4byte	0x269
ARM GAS  /var/folders/5n/p_75w94d66l9ssrldxqdhh700000gn/T//cc91715g.s 			page 10


 505 0265 02       		.byte	0x2
 506 0266 23       		.byte	0x23
 507 0267 04       		.uleb128 0x4
 508 0268 00       		.byte	0
 509 0269 09       		.uleb128 0x9
 510 026a 04       		.byte	0x4
 511 026b 14010000 		.4byte	0x114
 512 026f 03       		.uleb128 0x3
 513 0270 35020000 		.4byte	.LASF44
 514 0274 05       		.byte	0x5
 515 0275 5F       		.byte	0x5f
 516 0276 44020000 		.4byte	0x244
 517 027a 08       		.uleb128 0x8
 518 027b 04       		.byte	0x4
 519 027c 05       		.byte	0x5
 520 027d 64       		.byte	0x64
 521 027e 91020000 		.4byte	0x291
 522 0282 06       		.uleb128 0x6
 523 0283 27030000 		.4byte	.LASF25
 524 0287 05       		.byte	0x5
 525 0288 66       		.byte	0x66
 526 0289 69020000 		.4byte	0x269
 527 028d 02       		.byte	0x2
 528 028e 23       		.byte	0x23
 529 028f 00       		.uleb128 0
 530 0290 00       		.byte	0
 531 0291 03       		.uleb128 0x3
 532 0292 C3010000 		.4byte	.LASF45
 533 0296 05       		.byte	0x5
 534 0297 69       		.byte	0x69
 535 0298 7A020000 		.4byte	0x27a
 536 029c 03       		.uleb128 0x3
 537 029d 14010000 		.4byte	.LASF46
 538 02a1 07       		.byte	0x7
 539 02a2 DE       		.byte	0xde
 540 02a3 A7020000 		.4byte	0x2a7
 541 02a7 0A       		.uleb128 0xa
 542 02a8 04       		.byte	0x4
 543 02a9 03       		.uleb128 0x3
 544 02aa FD010000 		.4byte	.LASF47
 545 02ae 07       		.byte	0x7
 546 02af E4       		.byte	0xe4
 547 02b0 9F000000 		.4byte	0x9f
 548 02b4 0B       		.uleb128 0xb
 549 02b5 12040000 		.4byte	.LASF48
 550 02b9 24       		.byte	0x24
 551 02ba 07       		.byte	0x7
 552 02bb 0501     		.2byte	0x105
 553 02bd 42030000 		.4byte	0x342
 554 02c1 0C       		.uleb128 0xc
 555 02c2 723400   		.ascii	"r4\000"
 556 02c5 07       		.byte	0x7
 557 02c6 1801     		.2byte	0x118
 558 02c8 9C020000 		.4byte	0x29c
 559 02cc 02       		.byte	0x2
 560 02cd 23       		.byte	0x23
 561 02ce 00       		.uleb128 0
ARM GAS  /var/folders/5n/p_75w94d66l9ssrldxqdhh700000gn/T//cc91715g.s 			page 11


 562 02cf 0C       		.uleb128 0xc
 563 02d0 723500   		.ascii	"r5\000"
 564 02d3 07       		.byte	0x7
 565 02d4 1901     		.2byte	0x119
 566 02d6 9C020000 		.4byte	0x29c
 567 02da 02       		.byte	0x2
 568 02db 23       		.byte	0x23
 569 02dc 04       		.uleb128 0x4
 570 02dd 0C       		.uleb128 0xc
 571 02de 723600   		.ascii	"r6\000"
 572 02e1 07       		.byte	0x7
 573 02e2 1A01     		.2byte	0x11a
 574 02e4 9C020000 		.4byte	0x29c
 575 02e8 02       		.byte	0x2
 576 02e9 23       		.byte	0x23
 577 02ea 08       		.uleb128 0x8
 578 02eb 0C       		.uleb128 0xc
 579 02ec 723700   		.ascii	"r7\000"
 580 02ef 07       		.byte	0x7
 581 02f0 1B01     		.2byte	0x11b
 582 02f2 9C020000 		.4byte	0x29c
 583 02f6 02       		.byte	0x2
 584 02f7 23       		.byte	0x23
 585 02f8 0C       		.uleb128 0xc
 586 02f9 0C       		.uleb128 0xc
 587 02fa 723800   		.ascii	"r8\000"
 588 02fd 07       		.byte	0x7
 589 02fe 1C01     		.2byte	0x11c
 590 0300 9C020000 		.4byte	0x29c
 591 0304 02       		.byte	0x2
 592 0305 23       		.byte	0x23
 593 0306 10       		.uleb128 0x10
 594 0307 0C       		.uleb128 0xc
 595 0308 723900   		.ascii	"r9\000"
 596 030b 07       		.byte	0x7
 597 030c 1D01     		.2byte	0x11d
 598 030e 9C020000 		.4byte	0x29c
 599 0312 02       		.byte	0x2
 600 0313 23       		.byte	0x23
 601 0314 14       		.uleb128 0x14
 602 0315 0C       		.uleb128 0xc
 603 0316 72313000 		.ascii	"r10\000"
 604 031a 07       		.byte	0x7
 605 031b 1E01     		.2byte	0x11e
 606 031d 9C020000 		.4byte	0x29c
 607 0321 02       		.byte	0x2
 608 0322 23       		.byte	0x23
 609 0323 18       		.uleb128 0x18
 610 0324 0C       		.uleb128 0xc
 611 0325 72313100 		.ascii	"r11\000"
 612 0329 07       		.byte	0x7
 613 032a 1F01     		.2byte	0x11f
 614 032c 9C020000 		.4byte	0x29c
 615 0330 02       		.byte	0x2
 616 0331 23       		.byte	0x23
 617 0332 1C       		.uleb128 0x1c
 618 0333 0C       		.uleb128 0xc
ARM GAS  /var/folders/5n/p_75w94d66l9ssrldxqdhh700000gn/T//cc91715g.s 			page 12


 619 0334 6C7200   		.ascii	"lr\000"
 620 0337 07       		.byte	0x7
 621 0338 2001     		.2byte	0x120
 622 033a 9C020000 		.4byte	0x29c
 623 033e 02       		.byte	0x2
 624 033f 23       		.byte	0x23
 625 0340 20       		.uleb128 0x20
 626 0341 00       		.byte	0
 627 0342 0B       		.uleb128 0xb
 628 0343 E8030000 		.4byte	.LASF49
 629 0347 04       		.byte	0x4
 630 0348 07       		.byte	0x7
 631 0349 2A01     		.2byte	0x12a
 632 034b 5F030000 		.4byte	0x35f
 633 034f 0C       		.uleb128 0xc
 634 0350 72313300 		.ascii	"r13\000"
 635 0354 07       		.byte	0x7
 636 0355 2B01     		.2byte	0x12b
 637 0357 5F030000 		.4byte	0x35f
 638 035b 02       		.byte	0x2
 639 035c 23       		.byte	0x23
 640 035d 00       		.uleb128 0
 641 035e 00       		.byte	0
 642 035f 09       		.uleb128 0x9
 643 0360 04       		.byte	0x4
 644 0361 B4020000 		.4byte	0x2b4
 645 0365 0D       		.uleb128 0xd
 646 0366 86000000 		.4byte	0x86
 647 036a 0D       		.uleb128 0xd
 648 036b 09010000 		.4byte	0x109
 649 036f 08       		.uleb128 0x8
 650 0370 1C       		.byte	0x1c
 651 0371 08       		.byte	0x8
 652 0372 57       		.byte	0x57
 653 0373 CC030000 		.4byte	0x3cc
 654 0377 06       		.uleb128 0x6
 655 0378 87030000 		.4byte	.LASF50
 656 037c 08       		.byte	0x8
 657 037d 58       		.byte	0x58
 658 037e 6F020000 		.4byte	0x26f
 659 0382 02       		.byte	0x2
 660 0383 23       		.byte	0x23
 661 0384 00       		.uleb128 0
 662 0385 06       		.uleb128 0x6
 663 0386 19030000 		.4byte	.LASF51
 664 038a 08       		.byte	0x8
 665 038b 59       		.byte	0x59
 666 038c DD000000 		.4byte	0xdd
 667 0390 02       		.byte	0x2
 668 0391 23       		.byte	0x23
 669 0392 08       		.uleb128 0x8
 670 0393 06       		.uleb128 0x6
 671 0394 2F020000 		.4byte	.LASF52
 672 0398 08       		.byte	0x8
 673 0399 5B       		.byte	0x5b
 674 039a 42030000 		.4byte	0x342
 675 039e 02       		.byte	0x2
ARM GAS  /var/folders/5n/p_75w94d66l9ssrldxqdhh700000gn/T//cc91715g.s 			page 13


 676 039f 23       		.byte	0x23
 677 03a0 0C       		.uleb128 0xc
 678 03a1 06       		.uleb128 0x6
 679 03a2 0C010000 		.4byte	.LASF53
 680 03a6 08       		.byte	0x8
 681 03a7 5E       		.byte	0x5e
 682 03a8 69020000 		.4byte	0x269
 683 03ac 02       		.byte	0x2
 684 03ad 23       		.byte	0x23
 685 03ae 10       		.uleb128 0x10
 686 03af 06       		.uleb128 0x6
 687 03b0 49020000 		.4byte	.LASF54
 688 03b4 08       		.byte	0x8
 689 03b5 5F       		.byte	0x5f
 690 03b6 69020000 		.4byte	0x269
 691 03ba 02       		.byte	0x2
 692 03bb 23       		.byte	0x23
 693 03bc 14       		.uleb128 0x14
 694 03bd 06       		.uleb128 0x6
 695 03be B8030000 		.4byte	.LASF55
 696 03c2 08       		.byte	0x8
 697 03c3 62       		.byte	0x62
 698 03c4 69020000 		.4byte	0x269
 699 03c8 02       		.byte	0x2
 700 03c9 23       		.byte	0x23
 701 03ca 18       		.uleb128 0x18
 702 03cb 00       		.byte	0
 703 03cc 03       		.uleb128 0x3
 704 03cd 40040000 		.4byte	.LASF56
 705 03d1 08       		.byte	0x8
 706 03d2 64       		.byte	0x64
 707 03d3 6F030000 		.4byte	0x36f
 708 03d7 05       		.uleb128 0x5
 709 03d8 21020000 		.4byte	.LASF57
 710 03dc 10       		.byte	0x10
 711 03dd 09       		.byte	0x9
 712 03de 25       		.byte	0x25
 713 03df 0E040000 		.4byte	0x40e
 714 03e3 06       		.uleb128 0x6
 715 03e4 B3000000 		.4byte	.LASF58
 716 03e8 09       		.byte	0x9
 717 03e9 26       		.byte	0x26
 718 03ea 6F020000 		.4byte	0x26f
 719 03ee 02       		.byte	0x2
 720 03ef 23       		.byte	0x23
 721 03f0 00       		.uleb128 0
 722 03f1 06       		.uleb128 0x6
 723 03f2 E6040000 		.4byte	.LASF59
 724 03f6 09       		.byte	0x9
 725 03f7 28       		.byte	0x28
 726 03f8 69020000 		.4byte	0x269
 727 03fc 02       		.byte	0x2
 728 03fd 23       		.byte	0x23
 729 03fe 08       		.uleb128 0x8
 730 03ff 06       		.uleb128 0x6
 731 0400 CC030000 		.4byte	.LASF60
 732 0404 09       		.byte	0x9
ARM GAS  /var/folders/5n/p_75w94d66l9ssrldxqdhh700000gn/T//cc91715g.s 			page 14


 733 0405 2A       		.byte	0x2a
 734 0406 0E040000 		.4byte	0x40e
 735 040a 02       		.byte	0x2
 736 040b 23       		.byte	0x23
 737 040c 0C       		.uleb128 0xc
 738 040d 00       		.byte	0
 739 040e 09       		.uleb128 0x9
 740 040f 04       		.byte	0x4
 741 0410 D7030000 		.4byte	0x3d7
 742 0414 03       		.uleb128 0x3
 743 0415 21020000 		.4byte	.LASF57
 744 0419 09       		.byte	0x9
 745 041a 2C       		.byte	0x2c
 746 041b D7030000 		.4byte	0x3d7
 747 041f 03       		.uleb128 0x3
 748 0420 61040000 		.4byte	.LASF61
 749 0424 0A       		.byte	0xa
 750 0425 25       		.byte	0x25
 751 0426 2A040000 		.4byte	0x42a
 752 042a 05       		.uleb128 0x5
 753 042b 61040000 		.4byte	.LASF61
 754 042f 10       		.byte	0x10
 755 0430 0A       		.byte	0xa
 756 0431 2A       		.byte	0x2a
 757 0432 6F040000 		.4byte	0x46f
 758 0436 06       		.uleb128 0x6
 759 0437 36030000 		.4byte	.LASF62
 760 043b 0A       		.byte	0xa
 761 043c 2B       		.byte	0x2b
 762 043d 6F040000 		.4byte	0x46f
 763 0441 02       		.byte	0x2
 764 0442 23       		.byte	0x23
 765 0443 00       		.uleb128 0
 766 0444 06       		.uleb128 0x6
 767 0445 DE020000 		.4byte	.LASF63
 768 0449 0A       		.byte	0xa
 769 044a 2E       		.byte	0x2e
 770 044b 69020000 		.4byte	0x269
 771 044f 02       		.byte	0x2
 772 0450 23       		.byte	0x23
 773 0451 04       		.uleb128 0x4
 774 0452 06       		.uleb128 0x6
 775 0453 51020000 		.4byte	.LASF64
 776 0457 0A       		.byte	0xa
 777 0458 30       		.byte	0x30
 778 0459 F3000000 		.4byte	0xf3
 779 045d 02       		.byte	0x2
 780 045e 23       		.byte	0x23
 781 045f 08       		.uleb128 0x8
 782 0460 06       		.uleb128 0x6
 783 0461 EA020000 		.4byte	.LASF65
 784 0465 0A       		.byte	0xa
 785 0466 33       		.byte	0x33
 786 0467 FE000000 		.4byte	0xfe
 787 046b 02       		.byte	0x2
 788 046c 23       		.byte	0x23
 789 046d 0C       		.uleb128 0xc
ARM GAS  /var/folders/5n/p_75w94d66l9ssrldxqdhh700000gn/T//cc91715g.s 			page 15


 790 046e 00       		.byte	0
 791 046f 09       		.uleb128 0x9
 792 0470 04       		.byte	0x4
 793 0471 1F040000 		.4byte	0x41f
 794 0475 05       		.uleb128 0x5
 795 0476 1D010000 		.4byte	.LASF66
 796 047a 04       		.byte	0x4
 797 047b 0A       		.byte	0xa
 798 047c 3A       		.byte	0x3a
 799 047d 90040000 		.4byte	0x490
 800 0481 06       		.uleb128 0x6
 801 0482 38040000 		.4byte	.LASF67
 802 0486 0A       		.byte	0xa
 803 0487 3B       		.byte	0x3b
 804 0488 6F040000 		.4byte	0x46f
 805 048c 02       		.byte	0x2
 806 048d 23       		.byte	0x23
 807 048e 00       		.uleb128 0
 808 048f 00       		.byte	0
 809 0490 03       		.uleb128 0x3
 810 0491 1D010000 		.4byte	.LASF66
 811 0495 0A       		.byte	0xa
 812 0496 3E       		.byte	0x3e
 813 0497 75040000 		.4byte	0x475
 814 049b 0E       		.uleb128 0xe
 815 049c 04       		.byte	0x4
 816 049d 06       		.byte	0x6
 817 049e 8F       		.byte	0x8f
 818 049f D0040000 		.4byte	0x4d0
 819 04a3 0F       		.uleb128 0xf
 820 04a4 07000000 		.4byte	.LASF68
 821 04a8 06       		.byte	0x6
 822 04a9 96       		.byte	0x96
 823 04aa E8000000 		.4byte	0xe8
 824 04ae 0F       		.uleb128 0xf
 825 04af 5A000000 		.4byte	.LASF69
 826 04b3 06       		.byte	0x6
 827 04b4 9D       		.byte	0x9d
 828 04b5 E8000000 		.4byte	0xe8
 829 04b9 0F       		.uleb128 0xf
 830 04ba 6F040000 		.4byte	.LASF70
 831 04be 06       		.byte	0x6
 832 04bf A4       		.byte	0xa4
 833 04c0 A7020000 		.4byte	0x2a7
 834 04c4 0F       		.uleb128 0xf
 835 04c5 20030000 		.4byte	.LASF71
 836 04c9 06       		.byte	0x6
 837 04ca AB       		.byte	0xab
 838 04cb F3000000 		.4byte	0xf3
 839 04cf 00       		.byte	0
 840 04d0 09       		.uleb128 0x9
 841 04d1 04       		.byte	0x4
 842 04d2 D6040000 		.4byte	0x4d6
 843 04d6 10       		.uleb128 0x10
 844 04d7 DB040000 		.4byte	0x4db
 845 04db 04       		.uleb128 0x4
 846 04dc 01       		.byte	0x1
ARM GAS  /var/folders/5n/p_75w94d66l9ssrldxqdhh700000gn/T//cc91715g.s 			page 16


 847 04dd 08       		.byte	0x8
 848 04de C7030000 		.4byte	.LASF72
 849 04e2 09       		.uleb128 0x9
 850 04e3 04       		.byte	0x4
 851 04e4 14040000 		.4byte	0x414
 852 04e8 09       		.uleb128 0x9
 853 04e9 04       		.byte	0x4
 854 04ea EE040000 		.4byte	0x4ee
 855 04ee 11       		.uleb128 0x11
 856 04ef 01       		.byte	0x1
 857 04f0 E8000000 		.4byte	0xe8
 858 04f4 FE040000 		.4byte	0x4fe
 859 04f8 12       		.uleb128 0x12
 860 04f9 A7020000 		.4byte	0x2a7
 861 04fd 00       		.byte	0
 862 04fe 03       		.uleb128 0x3
 863 04ff F0010000 		.4byte	.LASF73
 864 0503 0B       		.byte	0xb
 865 0504 30       		.byte	0x30
 866 0505 09050000 		.4byte	0x509
 867 0509 05       		.uleb128 0x5
 868 050a F0010000 		.4byte	.LASF73
 869 050e 24       		.byte	0x24
 870 050f 0B       		.byte	0xb
 871 0510 3E       		.byte	0x3e
 872 0511 86050000 		.4byte	0x586
 873 0515 06       		.uleb128 0x6
 874 0516 7D000000 		.4byte	.LASF74
 875 051a 0B       		.byte	0xb
 876 051b 3F       		.byte	0x3f
 877 051c 6F020000 		.4byte	0x26f
 878 0520 02       		.byte	0x2
 879 0521 23       		.byte	0x23
 880 0522 00       		.uleb128 0
 881 0523 06       		.uleb128 0x6
 882 0524 7D030000 		.4byte	.LASF75
 883 0528 0B       		.byte	0xb
 884 0529 40       		.byte	0x40
 885 052a 30000000 		.4byte	0x30
 886 052e 02       		.byte	0x2
 887 052f 23       		.byte	0x23
 888 0530 08       		.uleb128 0x8
 889 0531 06       		.uleb128 0x6
 890 0532 E4000000 		.4byte	.LASF76
 891 0536 0B       		.byte	0xb
 892 0537 41       		.byte	0x41
 893 0538 A9050000 		.4byte	0x5a9
 894 053c 02       		.byte	0x2
 895 053d 23       		.byte	0x23
 896 053e 0C       		.uleb128 0xc
 897 053f 06       		.uleb128 0x6
 898 0540 2B040000 		.4byte	.LASF77
 899 0544 0B       		.byte	0xb
 900 0545 42       		.byte	0x42
 901 0546 A9050000 		.4byte	0x5a9
 902 054a 02       		.byte	0x2
 903 054b 23       		.byte	0x23
ARM GAS  /var/folders/5n/p_75w94d66l9ssrldxqdhh700000gn/T//cc91715g.s 			page 17


 904 054c 10       		.uleb128 0x10
 905 054d 06       		.uleb128 0x6
 906 054e ED000000 		.4byte	.LASF78
 907 0552 0B       		.byte	0xb
 908 0553 44       		.byte	0x44
 909 0554 A9050000 		.4byte	0x5a9
 910 0558 02       		.byte	0x2
 911 0559 23       		.byte	0x23
 912 055a 14       		.uleb128 0x14
 913 055b 06       		.uleb128 0x6
 914 055c C0020000 		.4byte	.LASF79
 915 0560 0B       		.byte	0xb
 916 0561 45       		.byte	0x45
 917 0562 A9050000 		.4byte	0x5a9
 918 0566 02       		.byte	0x2
 919 0567 23       		.byte	0x23
 920 0568 18       		.uleb128 0x18
 921 0569 06       		.uleb128 0x6
 922 056a 4A040000 		.4byte	.LASF80
 923 056e 0B       		.byte	0xb
 924 056f 46       		.byte	0x46
 925 0570 86050000 		.4byte	0x586
 926 0574 02       		.byte	0x2
 927 0575 23       		.byte	0x23
 928 0576 1C       		.uleb128 0x1c
 929 0577 06       		.uleb128 0x6
 930 0578 F5000000 		.4byte	.LASF81
 931 057c 0B       		.byte	0xb
 932 057d 47       		.byte	0x47
 933 057e A7020000 		.4byte	0x2a7
 934 0582 02       		.byte	0x2
 935 0583 23       		.byte	0x23
 936 0584 20       		.uleb128 0x20
 937 0585 00       		.byte	0
 938 0586 03       		.uleb128 0x3
 939 0587 E6010000 		.4byte	.LASF82
 940 058b 0B       		.byte	0xb
 941 058c 33       		.byte	0x33
 942 058d 91050000 		.4byte	0x591
 943 0591 09       		.uleb128 0x9
 944 0592 04       		.byte	0x4
 945 0593 97050000 		.4byte	0x597
 946 0597 13       		.uleb128 0x13
 947 0598 01       		.byte	0x1
 948 0599 A3050000 		.4byte	0x5a3
 949 059d 12       		.uleb128 0x12
 950 059e A3050000 		.4byte	0x5a3
 951 05a2 00       		.byte	0
 952 05a3 09       		.uleb128 0x9
 953 05a4 04       		.byte	0x4
 954 05a5 FE040000 		.4byte	0x4fe
 955 05a9 09       		.uleb128 0x9
 956 05aa 04       		.byte	0x4
 957 05ab 49000000 		.4byte	0x49
 958 05af 03       		.uleb128 0x3
 959 05b0 DB010000 		.4byte	.LASF83
 960 05b4 0B       		.byte	0xb
ARM GAS  /var/folders/5n/p_75w94d66l9ssrldxqdhh700000gn/T//cc91715g.s 			page 18


 961 05b5 7B       		.byte	0x7b
 962 05b6 FE040000 		.4byte	0x4fe
 963 05ba 03       		.uleb128 0x3
 964 05bb 17000000 		.4byte	.LASF84
 965 05bf 0B       		.byte	0xb
 966 05c0 EE       		.byte	0xee
 967 05c1 FE040000 		.4byte	0x4fe
 968 05c5 11       		.uleb128 0x11
 969 05c6 01       		.byte	0x1
 970 05c7 30000000 		.4byte	0x30
 971 05cb DF050000 		.4byte	0x5df
 972 05cf 12       		.uleb128 0x12
 973 05d0 A7020000 		.4byte	0x2a7
 974 05d4 12       		.uleb128 0x12
 975 05d5 DF050000 		.4byte	0x5df
 976 05d9 12       		.uleb128 0x12
 977 05da 30000000 		.4byte	0x30
 978 05de 00       		.byte	0
 979 05df 09       		.uleb128 0x9
 980 05e0 04       		.byte	0x4
 981 05e1 E5050000 		.4byte	0x5e5
 982 05e5 10       		.uleb128 0x10
 983 05e6 49000000 		.4byte	0x49
 984 05ea 09       		.uleb128 0x9
 985 05eb 04       		.byte	0x4
 986 05ec C5050000 		.4byte	0x5c5
 987 05f0 11       		.uleb128 0x11
 988 05f1 01       		.byte	0x1
 989 05f2 30000000 		.4byte	0x30
 990 05f6 0A060000 		.4byte	0x60a
 991 05fa 12       		.uleb128 0x12
 992 05fb A7020000 		.4byte	0x2a7
 993 05ff 12       		.uleb128 0x12
 994 0600 A9050000 		.4byte	0x5a9
 995 0604 12       		.uleb128 0x12
 996 0605 30000000 		.4byte	0x30
 997 0609 00       		.byte	0
 998 060a 09       		.uleb128 0x9
 999 060b 04       		.byte	0x4
 1000 060c F0050000 		.4byte	0x5f0
 1001 0610 11       		.uleb128 0x11
 1002 0611 01       		.byte	0x1
 1003 0612 E8000000 		.4byte	0xe8
 1004 0616 25060000 		.4byte	0x625
 1005 061a 12       		.uleb128 0x12
 1006 061b A7020000 		.4byte	0x2a7
 1007 061f 12       		.uleb128 0x12
 1008 0620 49000000 		.4byte	0x49
 1009 0624 00       		.byte	0
 1010 0625 09       		.uleb128 0x9
 1011 0626 04       		.byte	0x4
 1012 0627 10060000 		.4byte	0x610
 1013 062b 0D       		.uleb128 0xd
 1014 062c 62000000 		.4byte	0x62
 1015 0630 0D       		.uleb128 0xd
 1016 0631 74000000 		.4byte	0x74
 1017 0635 14       		.uleb128 0x14
ARM GAS  /var/folders/5n/p_75w94d66l9ssrldxqdhh700000gn/T//cc91715g.s 			page 19


 1018 0636 1C       		.byte	0x1c
 1019 0637 0C       		.byte	0xc
 1020 0638 9303     		.2byte	0x393
 1021 063a 0F070000 		.4byte	0x70f
 1022 063e 0C       		.uleb128 0xc
 1023 063f 535200   		.ascii	"SR\000"
 1024 0642 0C       		.byte	0xc
 1025 0643 9503     		.2byte	0x395
 1026 0645 2B060000 		.4byte	0x62b
 1027 0649 02       		.byte	0x2
 1028 064a 23       		.byte	0x23
 1029 064b 00       		.uleb128 0
 1030 064c 15       		.uleb128 0x15
 1031 064d 75020000 		.4byte	.LASF85
 1032 0651 0C       		.byte	0xc
 1033 0652 9603     		.2byte	0x396
 1034 0654 62000000 		.4byte	0x62
 1035 0658 02       		.byte	0x2
 1036 0659 23       		.byte	0x23
 1037 065a 02       		.uleb128 0x2
 1038 065b 0C       		.uleb128 0xc
 1039 065c 445200   		.ascii	"DR\000"
 1040 065f 0C       		.byte	0xc
 1041 0660 9703     		.2byte	0x397
 1042 0662 2B060000 		.4byte	0x62b
 1043 0666 02       		.byte	0x2
 1044 0667 23       		.byte	0x23
 1045 0668 04       		.uleb128 0x4
 1046 0669 15       		.uleb128 0x15
 1047 066a 7F020000 		.4byte	.LASF86
 1048 066e 0C       		.byte	0xc
 1049 066f 9803     		.2byte	0x398
 1050 0671 62000000 		.4byte	0x62
 1051 0675 02       		.byte	0x2
 1052 0676 23       		.byte	0x23
 1053 0677 06       		.uleb128 0x6
 1054 0678 0C       		.uleb128 0xc
 1055 0679 42525200 		.ascii	"BRR\000"
 1056 067d 0C       		.byte	0xc
 1057 067e 9903     		.2byte	0x399
 1058 0680 2B060000 		.4byte	0x62b
 1059 0684 02       		.byte	0x2
 1060 0685 23       		.byte	0x23
 1061 0686 08       		.uleb128 0x8
 1062 0687 15       		.uleb128 0x15
 1063 0688 89020000 		.4byte	.LASF87
 1064 068c 0C       		.byte	0xc
 1065 068d 9A03     		.2byte	0x39a
 1066 068f 62000000 		.4byte	0x62
 1067 0693 02       		.byte	0x2
 1068 0694 23       		.byte	0x23
 1069 0695 0A       		.uleb128 0xa
 1070 0696 0C       		.uleb128 0xc
 1071 0697 43523100 		.ascii	"CR1\000"
 1072 069b 0C       		.byte	0xc
 1073 069c 9B03     		.2byte	0x39b
 1074 069e 2B060000 		.4byte	0x62b
ARM GAS  /var/folders/5n/p_75w94d66l9ssrldxqdhh700000gn/T//cc91715g.s 			page 20


 1075 06a2 02       		.byte	0x2
 1076 06a3 23       		.byte	0x23
 1077 06a4 0C       		.uleb128 0xc
 1078 06a5 15       		.uleb128 0x15
 1079 06a6 93020000 		.4byte	.LASF88
 1080 06aa 0C       		.byte	0xc
 1081 06ab 9C03     		.2byte	0x39c
 1082 06ad 62000000 		.4byte	0x62
 1083 06b1 02       		.byte	0x2
 1084 06b2 23       		.byte	0x23
 1085 06b3 0E       		.uleb128 0xe
 1086 06b4 0C       		.uleb128 0xc
 1087 06b5 43523200 		.ascii	"CR2\000"
 1088 06b9 0C       		.byte	0xc
 1089 06ba 9D03     		.2byte	0x39d
 1090 06bc 2B060000 		.4byte	0x62b
 1091 06c0 02       		.byte	0x2
 1092 06c1 23       		.byte	0x23
 1093 06c2 10       		.uleb128 0x10
 1094 06c3 15       		.uleb128 0x15
 1095 06c4 9D020000 		.4byte	.LASF89
 1096 06c8 0C       		.byte	0xc
 1097 06c9 9E03     		.2byte	0x39e
 1098 06cb 62000000 		.4byte	0x62
 1099 06cf 02       		.byte	0x2
 1100 06d0 23       		.byte	0x23
 1101 06d1 12       		.uleb128 0x12
 1102 06d2 0C       		.uleb128 0xc
 1103 06d3 43523300 		.ascii	"CR3\000"
 1104 06d7 0C       		.byte	0xc
 1105 06d8 9F03     		.2byte	0x39f
 1106 06da 2B060000 		.4byte	0x62b
 1107 06de 02       		.byte	0x2
 1108 06df 23       		.byte	0x23
 1109 06e0 14       		.uleb128 0x14
 1110 06e1 15       		.uleb128 0x15
 1111 06e2 73030000 		.4byte	.LASF90
 1112 06e6 0C       		.byte	0xc
 1113 06e7 A003     		.2byte	0x3a0
 1114 06e9 62000000 		.4byte	0x62
 1115 06ed 02       		.byte	0x2
 1116 06ee 23       		.byte	0x23
 1117 06ef 16       		.uleb128 0x16
 1118 06f0 15       		.uleb128 0x15
 1119 06f1 A6000000 		.4byte	.LASF91
 1120 06f5 0C       		.byte	0xc
 1121 06f6 A103     		.2byte	0x3a1
 1122 06f8 2B060000 		.4byte	0x62b
 1123 06fc 02       		.byte	0x2
 1124 06fd 23       		.byte	0x23
 1125 06fe 18       		.uleb128 0x18
 1126 06ff 15       		.uleb128 0x15
 1127 0700 AE020000 		.4byte	.LASF92
 1128 0704 0C       		.byte	0xc
 1129 0705 A203     		.2byte	0x3a2
 1130 0707 62000000 		.4byte	0x62
 1131 070b 02       		.byte	0x2
ARM GAS  /var/folders/5n/p_75w94d66l9ssrldxqdhh700000gn/T//cc91715g.s 			page 21


 1132 070c 23       		.byte	0x23
 1133 070d 1A       		.uleb128 0x1a
 1134 070e 00       		.byte	0
 1135 070f 16       		.uleb128 0x16
 1136 0710 A6010000 		.4byte	.LASF93
 1137 0714 0C       		.byte	0xc
 1138 0715 A303     		.2byte	0x3a3
 1139 0717 35060000 		.4byte	0x635
 1140 071b 11       		.uleb128 0x11
 1141 071c 01       		.byte	0x1
 1142 071d E8000000 		.4byte	0xe8
 1143 0721 35070000 		.4byte	0x735
 1144 0725 12       		.uleb128 0x12
 1145 0726 A7020000 		.4byte	0x2a7
 1146 072a 12       		.uleb128 0x12
 1147 072b 49000000 		.4byte	0x49
 1148 072f 12       		.uleb128 0x12
 1149 0730 09010000 		.4byte	0x109
 1150 0734 00       		.byte	0
 1151 0735 09       		.uleb128 0x9
 1152 0736 04       		.byte	0x4
 1153 0737 1B070000 		.4byte	0x71b
 1154 073b 11       		.uleb128 0x11
 1155 073c 01       		.byte	0x1
 1156 073d E8000000 		.4byte	0xe8
 1157 0741 50070000 		.4byte	0x750
 1158 0745 12       		.uleb128 0x12
 1159 0746 A7020000 		.4byte	0x2a7
 1160 074a 12       		.uleb128 0x12
 1161 074b 09010000 		.4byte	0x109
 1162 074f 00       		.byte	0
 1163 0750 09       		.uleb128 0x9
 1164 0751 04       		.byte	0x4
 1165 0752 3B070000 		.4byte	0x73b
 1166 0756 11       		.uleb128 0x11
 1167 0757 01       		.byte	0x1
 1168 0758 30000000 		.4byte	0x30
 1169 075c 75070000 		.4byte	0x775
 1170 0760 12       		.uleb128 0x12
 1171 0761 A7020000 		.4byte	0x2a7
 1172 0765 12       		.uleb128 0x12
 1173 0766 DF050000 		.4byte	0x5df
 1174 076a 12       		.uleb128 0x12
 1175 076b 30000000 		.4byte	0x30
 1176 076f 12       		.uleb128 0x12
 1177 0770 09010000 		.4byte	0x109
 1178 0774 00       		.byte	0
 1179 0775 09       		.uleb128 0x9
 1180 0776 04       		.byte	0x4
 1181 0777 56070000 		.4byte	0x756
 1182 077b 11       		.uleb128 0x11
 1183 077c 01       		.byte	0x1
 1184 077d 30000000 		.4byte	0x30
 1185 0781 9A070000 		.4byte	0x79a
 1186 0785 12       		.uleb128 0x12
 1187 0786 A7020000 		.4byte	0x2a7
 1188 078a 12       		.uleb128 0x12
ARM GAS  /var/folders/5n/p_75w94d66l9ssrldxqdhh700000gn/T//cc91715g.s 			page 22


 1189 078b A9050000 		.4byte	0x5a9
 1190 078f 12       		.uleb128 0x12
 1191 0790 30000000 		.4byte	0x30
 1192 0794 12       		.uleb128 0x12
 1193 0795 09010000 		.4byte	0x109
 1194 0799 00       		.byte	0
 1195 079a 09       		.uleb128 0x9
 1196 079b 04       		.byte	0x4
 1197 079c 7B070000 		.4byte	0x77b
 1198 07a0 08       		.uleb128 0x8
 1199 07a1 04       		.byte	0x4
 1200 07a2 0D       		.byte	0xd
 1201 07a3 97       		.byte	0x97
 1202 07a4 C5070000 		.4byte	0x7c5
 1203 07a8 07       		.uleb128 0x7
 1204 07a9 73657400 		.ascii	"set\000"
 1205 07ad 0D       		.byte	0xd
 1206 07ae 98       		.byte	0x98
 1207 07af 62000000 		.4byte	0x62
 1208 07b3 02       		.byte	0x2
 1209 07b4 23       		.byte	0x23
 1210 07b5 00       		.uleb128 0
 1211 07b6 06       		.uleb128 0x6
 1212 07b7 1B020000 		.4byte	.LASF94
 1213 07bb 0D       		.byte	0xd
 1214 07bc 99       		.byte	0x99
 1215 07bd 62000000 		.4byte	0x62
 1216 07c1 02       		.byte	0x2
 1217 07c2 23       		.byte	0x23
 1218 07c3 02       		.uleb128 0x2
 1219 07c4 00       		.byte	0
 1220 07c5 0E       		.uleb128 0xe
 1221 07c6 04       		.byte	0x4
 1222 07c7 0D       		.byte	0xd
 1223 07c8 95       		.byte	0x95
 1224 07c9 E0070000 		.4byte	0x7e0
 1225 07cd 17       		.uleb128 0x17
 1226 07ce 5700     		.ascii	"W\000"
 1227 07d0 0D       		.byte	0xd
 1228 07d1 96       		.byte	0x96
 1229 07d2 86000000 		.4byte	0x86
 1230 07d6 17       		.uleb128 0x17
 1231 07d7 4800     		.ascii	"H\000"
 1232 07d9 0D       		.byte	0xd
 1233 07da 9A       		.byte	0x9a
 1234 07db A0070000 		.4byte	0x7a0
 1235 07df 00       		.byte	0
 1236 07e0 08       		.uleb128 0x8
 1237 07e1 28       		.byte	0x28
 1238 07e2 0D       		.byte	0xd
 1239 07e3 8D       		.byte	0x8d
 1240 07e4 75080000 		.4byte	0x875
 1241 07e8 06       		.uleb128 0x6
 1242 07e9 37000000 		.4byte	.LASF95
 1243 07ed 0D       		.byte	0xd
 1244 07ee 8F       		.byte	0x8f
 1245 07ef 65030000 		.4byte	0x365
ARM GAS  /var/folders/5n/p_75w94d66l9ssrldxqdhh700000gn/T//cc91715g.s 			page 23


 1246 07f3 02       		.byte	0x2
 1247 07f4 23       		.byte	0x23
 1248 07f5 00       		.uleb128 0
 1249 07f6 06       		.uleb128 0x6
 1250 07f7 23000000 		.4byte	.LASF96
 1251 07fb 0D       		.byte	0xd
 1252 07fc 90       		.byte	0x90
 1253 07fd 65030000 		.4byte	0x365
 1254 0801 02       		.byte	0x2
 1255 0802 23       		.byte	0x23
 1256 0803 04       		.uleb128 0x4
 1257 0804 06       		.uleb128 0x6
 1258 0805 04010000 		.4byte	.LASF97
 1259 0809 0D       		.byte	0xd
 1260 080a 91       		.byte	0x91
 1261 080b 65030000 		.4byte	0x365
 1262 080f 02       		.byte	0x2
 1263 0810 23       		.byte	0x23
 1264 0811 08       		.uleb128 0x8
 1265 0812 06       		.uleb128 0x6
 1266 0813 54000000 		.4byte	.LASF98
 1267 0817 0D       		.byte	0xd
 1268 0818 92       		.byte	0x92
 1269 0819 65030000 		.4byte	0x365
 1270 081d 02       		.byte	0x2
 1271 081e 23       		.byte	0x23
 1272 081f 0C       		.uleb128 0xc
 1273 0820 07       		.uleb128 0x7
 1274 0821 49445200 		.ascii	"IDR\000"
 1275 0825 0D       		.byte	0xd
 1276 0826 93       		.byte	0x93
 1277 0827 65030000 		.4byte	0x365
 1278 082b 02       		.byte	0x2
 1279 082c 23       		.byte	0x23
 1280 082d 10       		.uleb128 0x10
 1281 082e 07       		.uleb128 0x7
 1282 082f 4F445200 		.ascii	"ODR\000"
 1283 0833 0D       		.byte	0xd
 1284 0834 94       		.byte	0x94
 1285 0835 65030000 		.4byte	0x365
 1286 0839 02       		.byte	0x2
 1287 083a 23       		.byte	0x23
 1288 083b 14       		.uleb128 0x14
 1289 083c 06       		.uleb128 0x6
 1290 083d A1000000 		.4byte	.LASF99
 1291 0841 0D       		.byte	0xd
 1292 0842 9B       		.byte	0x9b
 1293 0843 75080000 		.4byte	0x875
 1294 0847 02       		.byte	0x2
 1295 0848 23       		.byte	0x23
 1296 0849 18       		.uleb128 0x18
 1297 084a 06       		.uleb128 0x6
 1298 084b 4D030000 		.4byte	.LASF100
 1299 084f 0D       		.byte	0xd
 1300 0850 9C       		.byte	0x9c
 1301 0851 65030000 		.4byte	0x365
 1302 0855 02       		.byte	0x2
ARM GAS  /var/folders/5n/p_75w94d66l9ssrldxqdhh700000gn/T//cc91715g.s 			page 24


 1303 0856 23       		.byte	0x23
 1304 0857 1C       		.uleb128 0x1c
 1305 0858 06       		.uleb128 0x6
 1306 0859 5E020000 		.4byte	.LASF101
 1307 085d 0D       		.byte	0xd
 1308 085e 9D       		.byte	0x9d
 1309 085f 65030000 		.4byte	0x365
 1310 0863 02       		.byte	0x2
 1311 0864 23       		.byte	0x23
 1312 0865 20       		.uleb128 0x20
 1313 0866 06       		.uleb128 0x6
 1314 0867 59020000 		.4byte	.LASF102
 1315 086b 0D       		.byte	0xd
 1316 086c 9E       		.byte	0x9e
 1317 086d 65030000 		.4byte	0x365
 1318 0871 02       		.byte	0x2
 1319 0872 23       		.byte	0x23
 1320 0873 24       		.uleb128 0x24
 1321 0874 00       		.byte	0
 1322 0875 0D       		.uleb128 0xd
 1323 0876 C5070000 		.4byte	0x7c5
 1324 087a 03       		.uleb128 0x3
 1325 087b 6E010000 		.4byte	.LASF103
 1326 087f 0D       		.byte	0xd
 1327 0880 9F       		.byte	0x9f
 1328 0881 E0070000 		.4byte	0x7e0
 1329 0885 03       		.uleb128 0x3
 1330 0886 2A000000 		.4byte	.LASF104
 1331 088a 0D       		.byte	0xd
 1332 088b E9       		.byte	0xe9
 1333 088c 86000000 		.4byte	0x86
 1334 0890 18       		.uleb128 0x18
 1335 0891 01       		.byte	0x1
 1336 0892 0E       		.byte	0xe
 1337 0893 5D       		.byte	0x5d
 1338 0894 AB080000 		.4byte	0x8ab
 1339 0898 19       		.uleb128 0x19
 1340 0899 69030000 		.4byte	.LASF105
 1341 089d 00       		.sleb128 0
 1342 089e 19       		.uleb128 0x19
 1343 089f 3E030000 		.4byte	.LASF106
 1344 08a3 01       		.sleb128 1
 1345 08a4 19       		.uleb128 0x19
 1346 08a5 19040000 		.4byte	.LASF107
 1347 08a9 02       		.sleb128 2
 1348 08aa 00       		.byte	0
 1349 08ab 03       		.uleb128 0x3
 1350 08ac 8F030000 		.4byte	.LASF108
 1351 08b0 0E       		.byte	0xe
 1352 08b1 61       		.byte	0x61
 1353 08b2 90080000 		.4byte	0x890
 1354 08b6 03       		.uleb128 0x3
 1355 08b7 99030000 		.4byte	.LASF109
 1356 08bb 0E       		.byte	0xe
 1357 08bc 66       		.byte	0x66
 1358 08bd C1080000 		.4byte	0x8c1
 1359 08c1 05       		.uleb128 0x5
ARM GAS  /var/folders/5n/p_75w94d66l9ssrldxqdhh700000gn/T//cc91715g.s 			page 25


 1360 08c2 99030000 		.4byte	.LASF109
 1361 08c6 78       		.byte	0x78
 1362 08c7 0E       		.byte	0xe
 1363 08c8 80       		.byte	0x80
 1364 08c9 3C090000 		.4byte	0x93c
 1365 08cd 07       		.uleb128 0x7
 1366 08ce 766D7400 		.ascii	"vmt\000"
 1367 08d2 0E       		.byte	0xe
 1368 08d3 82       		.byte	0x82
 1369 08d4 B9090000 		.4byte	0x9b9
 1370 08d8 02       		.byte	0x2
 1371 08d9 23       		.byte	0x23
 1372 08da 00       		.uleb128 0
 1373 08db 06       		.uleb128 0x6
 1374 08dc 80010000 		.4byte	.LASF110
 1375 08e0 0E       		.byte	0xe
 1376 08e1 83       		.byte	0x83
 1377 08e2 90040000 		.4byte	0x490
 1378 08e6 02       		.byte	0x2
 1379 08e7 23       		.byte	0x23
 1380 08e8 04       		.uleb128 0x4
 1381 08e9 06       		.uleb128 0x6
 1382 08ea C5000000 		.4byte	.LASF111
 1383 08ee 0E       		.byte	0xe
 1384 08ef 83       		.byte	0x83
 1385 08f0 AB080000 		.4byte	0x8ab
 1386 08f4 02       		.byte	0x2
 1387 08f5 23       		.byte	0x23
 1388 08f6 08       		.uleb128 0x8
 1389 08f7 06       		.uleb128 0x6
 1390 08f8 5C010000 		.4byte	.LASF112
 1391 08fc 0E       		.byte	0xe
 1392 08fd 83       		.byte	0x83
 1393 08fe AF050000 		.4byte	0x5af
 1394 0902 02       		.byte	0x2
 1395 0903 23       		.byte	0x23
 1396 0904 0C       		.uleb128 0xc
 1397 0905 06       		.uleb128 0x6
 1398 0906 9F010000 		.4byte	.LASF113
 1399 090a 0E       		.byte	0xe
 1400 090b 83       		.byte	0x83
 1401 090c BA050000 		.4byte	0x5ba
 1402 0910 02       		.byte	0x2
 1403 0911 23       		.byte	0x23
 1404 0912 30       		.uleb128 0x30
 1405 0913 07       		.uleb128 0x7
 1406 0914 696200   		.ascii	"ib\000"
 1407 0917 0E       		.byte	0xe
 1408 0918 83       		.byte	0x83
 1409 0919 C4090000 		.4byte	0x9c4
 1410 091d 02       		.byte	0x2
 1411 091e 23       		.byte	0x23
 1412 091f 54       		.uleb128 0x54
 1413 0920 07       		.uleb128 0x7
 1414 0921 6F6200   		.ascii	"ob\000"
 1415 0924 0E       		.byte	0xe
 1416 0925 83       		.byte	0x83
ARM GAS  /var/folders/5n/p_75w94d66l9ssrldxqdhh700000gn/T//cc91715g.s 			page 26


 1417 0926 C4090000 		.4byte	0x9c4
 1418 092a 02       		.byte	0x2
 1419 092b 23       		.byte	0x23
 1420 092c 64       		.uleb128 0x64
 1421 092d 06       		.uleb128 0x6
 1422 092e 29010000 		.4byte	.LASF114
 1423 0932 0E       		.byte	0xe
 1424 0933 83       		.byte	0x83
 1425 0934 D4090000 		.4byte	0x9d4
 1426 0938 02       		.byte	0x2
 1427 0939 23       		.byte	0x23
 1428 093a 74       		.uleb128 0x74
 1429 093b 00       		.byte	0
 1430 093c 05       		.uleb128 0x5
 1431 093d 45010000 		.4byte	.LASF115
 1432 0941 20       		.byte	0x20
 1433 0942 0E       		.byte	0xe
 1434 0943 75       		.byte	0x75
 1435 0944 B9090000 		.4byte	0x9b9
 1436 0948 06       		.uleb128 0x6
 1437 0949 10020000 		.4byte	.LASF116
 1438 094d 0E       		.byte	0xe
 1439 094e 76       		.byte	0x76
 1440 094f EA050000 		.4byte	0x5ea
 1441 0953 02       		.byte	0x2
 1442 0954 23       		.byte	0x23
 1443 0955 00       		.uleb128 0
 1444 0956 06       		.uleb128 0x6
 1445 0957 C2030000 		.4byte	.LASF117
 1446 095b 0E       		.byte	0xe
 1447 095c 76       		.byte	0x76
 1448 095d 0A060000 		.4byte	0x60a
 1449 0961 02       		.byte	0x2
 1450 0962 23       		.byte	0x23
 1451 0963 04       		.uleb128 0x4
 1452 0964 07       		.uleb128 0x7
 1453 0965 70757400 		.ascii	"put\000"
 1454 0969 0E       		.byte	0xe
 1455 096a 76       		.byte	0x76
 1456 096b 25060000 		.4byte	0x625
 1457 096f 02       		.byte	0x2
 1458 0970 23       		.byte	0x23
 1459 0971 08       		.uleb128 0x8
 1460 0972 07       		.uleb128 0x7
 1461 0973 67657400 		.ascii	"get\000"
 1462 0977 0E       		.byte	0xe
 1463 0978 76       		.byte	0x76
 1464 0979 E8040000 		.4byte	0x4e8
 1465 097d 02       		.byte	0x2
 1466 097e 23       		.byte	0x23
 1467 097f 0C       		.uleb128 0xc
 1468 0980 06       		.uleb128 0x6
 1469 0981 16020000 		.4byte	.LASF118
 1470 0985 0E       		.byte	0xe
 1471 0986 76       		.byte	0x76
 1472 0987 35070000 		.4byte	0x735
 1473 098b 02       		.byte	0x2
ARM GAS  /var/folders/5n/p_75w94d66l9ssrldxqdhh700000gn/T//cc91715g.s 			page 27


 1474 098c 23       		.byte	0x23
 1475 098d 10       		.uleb128 0x10
 1476 098e 06       		.uleb128 0x6
 1477 098f 7B010000 		.4byte	.LASF119
 1478 0993 0E       		.byte	0xe
 1479 0994 76       		.byte	0x76
 1480 0995 50070000 		.4byte	0x750
 1481 0999 02       		.byte	0x2
 1482 099a 23       		.byte	0x23
 1483 099b 14       		.uleb128 0x14
 1484 099c 06       		.uleb128 0x6
 1485 099d B4010000 		.4byte	.LASF120
 1486 09a1 0E       		.byte	0xe
 1487 09a2 76       		.byte	0x76
 1488 09a3 75070000 		.4byte	0x775
 1489 09a7 02       		.byte	0x2
 1490 09a8 23       		.byte	0x23
 1491 09a9 18       		.uleb128 0x18
 1492 09aa 06       		.uleb128 0x6
 1493 09ab 77000000 		.4byte	.LASF121
 1494 09af 0E       		.byte	0xe
 1495 09b0 76       		.byte	0x76
 1496 09b1 9A070000 		.4byte	0x79a
 1497 09b5 02       		.byte	0x2
 1498 09b6 23       		.byte	0x23
 1499 09b7 1C       		.uleb128 0x1c
 1500 09b8 00       		.byte	0
 1501 09b9 09       		.uleb128 0x9
 1502 09ba 04       		.byte	0x4
 1503 09bb BF090000 		.4byte	0x9bf
 1504 09bf 10       		.uleb128 0x10
 1505 09c0 3C090000 		.4byte	0x93c
 1506 09c4 1A       		.uleb128 0x1a
 1507 09c5 49000000 		.4byte	0x49
 1508 09c9 D4090000 		.4byte	0x9d4
 1509 09cd 1B       		.uleb128 0x1b
 1510 09ce 3B000000 		.4byte	0x3b
 1511 09d2 0F       		.byte	0xf
 1512 09d3 00       		.byte	0
 1513 09d4 09       		.uleb128 0x9
 1514 09d5 04       		.byte	0x4
 1515 09d6 0F070000 		.4byte	0x70f
 1516 09da 1A       		.uleb128 0x1a
 1517 09db A9020000 		.4byte	0x2a9
 1518 09df EA090000 		.4byte	0x9ea
 1519 09e3 1B       		.uleb128 0x1b
 1520 09e4 3B000000 		.4byte	0x3b
 1521 09e8 25       		.byte	0x25
 1522 09e9 00       		.byte	0
 1523 09ea 1C       		.uleb128 0x1c
 1524 09eb 08020000 		.4byte	.LASF129
 1525 09ef 01       		.byte	0x1
 1526 09f0 21       		.byte	0x21
 1527 09f1 01       		.byte	0x1
 1528 09f2 E8000000 		.4byte	0xe8
 1529 09f6 00000000 		.4byte	.LFB118
 1530 09fa 34000000 		.4byte	.LFE118
ARM GAS  /var/folders/5n/p_75w94d66l9ssrldxqdhh700000gn/T//cc91715g.s 			page 28


 1531 09fe 00000000 		.4byte	.LLST0
 1532 0a02 160A0000 		.4byte	0xa16
 1533 0a06 1D       		.uleb128 0x1d
 1534 0a07 61726700 		.ascii	"arg\000"
 1535 0a0b 01       		.byte	0x1
 1536 0a0c 21       		.byte	0x21
 1537 0a0d A7020000 		.4byte	0x2a7
 1538 0a11 20000000 		.4byte	.LLST1
 1539 0a15 00       		.byte	0
 1540 0a16 1E       		.uleb128 0x1e
 1541 0a17 01       		.byte	0x1
 1542 0a18 E1040000 		.4byte	.LASF130
 1543 0a1c 01       		.byte	0x1
 1544 0a1d 30       		.byte	0x30
 1545 0a1e 01       		.byte	0x1
 1546 0a1f 29000000 		.4byte	0x29
 1547 0a23 00000000 		.4byte	.LFB119
 1548 0a27 84000000 		.4byte	.LFE119
 1549 0a2b 33000000 		.4byte	.LLST2
 1550 0a2f 1F       		.uleb128 0x1f
 1551 0a30 53040000 		.4byte	.LASF122
 1552 0a34 08       		.byte	0x8
 1553 0a35 68       		.byte	0x68
 1554 0a36 CC030000 		.4byte	0x3cc
 1555 0a3a 01       		.byte	0x1
 1556 0a3b 01       		.byte	0x1
 1557 0a3c 20       		.uleb128 0x20
 1558 0a3d 63000000 		.4byte	.LASF123
 1559 0a41 0F       		.byte	0xf
 1560 0a42 9806     		.2byte	0x698
 1561 0a44 30060000 		.4byte	0x630
 1562 0a48 01       		.byte	0x1
 1563 0a49 01       		.byte	0x1
 1564 0a4a 21       		.uleb128 0x21
 1565 0a4b 53443600 		.ascii	"SD6\000"
 1566 0a4f 12       		.byte	0x12
 1567 0a50 2101     		.2byte	0x121
 1568 0a52 B6080000 		.4byte	0x8b6
 1569 0a56 01       		.byte	0x1
 1570 0a57 01       		.byte	0x1
 1571 0a58 1A       		.uleb128 0x1a
 1572 0a59 A9020000 		.4byte	0x2a9
 1573 0a5d 680A0000 		.4byte	0xa68
 1574 0a61 1B       		.uleb128 0x1b
 1575 0a62 3B000000 		.4byte	0x3b
 1576 0a66 55       		.byte	0x55
 1577 0a67 00       		.byte	0
 1578 0a68 1F       		.uleb128 0x1f
 1579 0a69 CC040000 		.4byte	.LASF124
 1580 0a6d 10       		.byte	0x10
 1581 0a6e 74       		.byte	0x74
 1582 0a6f 580A0000 		.4byte	0xa58
 1583 0a73 01       		.byte	0x1
 1584 0a74 01       		.byte	0x1
 1585 0a75 1A       		.uleb128 0x1a
 1586 0a76 A9020000 		.4byte	0x2a9
 1587 0a7a 850A0000 		.4byte	0xa85
ARM GAS  /var/folders/5n/p_75w94d66l9ssrldxqdhh700000gn/T//cc91715g.s 			page 29


 1588 0a7e 1B       		.uleb128 0x1b
 1589 0a7f 3B000000 		.4byte	0x3b
 1590 0a83 95       		.byte	0x95
 1591 0a84 00       		.byte	0
 1592 0a85 1F       		.uleb128 0x1f
 1593 0a86 FE040000 		.4byte	.LASF125
 1594 0a8a 11       		.byte	0x11
 1595 0a8b 2B       		.byte	0x2b
 1596 0a8c 750A0000 		.4byte	0xa75
 1597 0a90 01       		.byte	0x1
 1598 0a91 01       		.byte	0x1
 1599 0a92 22       		.uleb128 0x22
 1600 0a93 63020000 		.4byte	.LASF131
 1601 0a97 01       		.byte	0x1
 1602 0a98 20       		.byte	0x20
 1603 0a99 DA090000 		.4byte	0x9da
 1604 0a9d 05       		.byte	0x5
 1605 0a9e 03       		.byte	0x3
 1606 0a9f 00000000 		.4byte	waThread1
 1607 0aa3 1F       		.uleb128 0x1f
 1608 0aa4 53040000 		.4byte	.LASF122
 1609 0aa8 08       		.byte	0x8
 1610 0aa9 68       		.byte	0x68
 1611 0aaa CC030000 		.4byte	0x3cc
 1612 0aae 01       		.byte	0x1
 1613 0aaf 01       		.byte	0x1
 1614 0ab0 20       		.uleb128 0x20
 1615 0ab1 63000000 		.4byte	.LASF123
 1616 0ab5 0F       		.byte	0xf
 1617 0ab6 9806     		.2byte	0x698
 1618 0ab8 30060000 		.4byte	0x630
 1619 0abc 01       		.byte	0x1
 1620 0abd 01       		.byte	0x1
 1621 0abe 21       		.uleb128 0x21
 1622 0abf 53443600 		.ascii	"SD6\000"
 1623 0ac3 12       		.byte	0x12
 1624 0ac4 2101     		.2byte	0x121
 1625 0ac6 B6080000 		.4byte	0x8b6
 1626 0aca 01       		.byte	0x1
 1627 0acb 01       		.byte	0x1
 1628 0acc 1F       		.uleb128 0x1f
 1629 0acd CC040000 		.4byte	.LASF124
 1630 0ad1 10       		.byte	0x10
 1631 0ad2 74       		.byte	0x74
 1632 0ad3 580A0000 		.4byte	0xa58
 1633 0ad7 01       		.byte	0x1
 1634 0ad8 01       		.byte	0x1
 1635 0ad9 1F       		.uleb128 0x1f
 1636 0ada FE040000 		.4byte	.LASF125
 1637 0ade 11       		.byte	0x11
 1638 0adf 2B       		.byte	0x2b
 1639 0ae0 750A0000 		.4byte	0xa75
 1640 0ae4 01       		.byte	0x1
 1641 0ae5 01       		.byte	0x1
 1642 0ae6 00       		.byte	0
 1643              		.section	.debug_abbrev,"",%progbits
 1644              	.Ldebug_abbrev0:
ARM GAS  /var/folders/5n/p_75w94d66l9ssrldxqdhh700000gn/T//cc91715g.s 			page 30


 1645 0000 01       		.uleb128 0x1
 1646 0001 11       		.uleb128 0x11
 1647 0002 01       		.byte	0x1
 1648 0003 25       		.uleb128 0x25
 1649 0004 0E       		.uleb128 0xe
 1650 0005 13       		.uleb128 0x13
 1651 0006 0B       		.uleb128 0xb
 1652 0007 03       		.uleb128 0x3
 1653 0008 0E       		.uleb128 0xe
 1654 0009 1B       		.uleb128 0x1b
 1655 000a 0E       		.uleb128 0xe
 1656 000b 11       		.uleb128 0x11
 1657 000c 01       		.uleb128 0x1
 1658 000d 52       		.uleb128 0x52
 1659 000e 01       		.uleb128 0x1
 1660 000f 55       		.uleb128 0x55
 1661 0010 06       		.uleb128 0x6
 1662 0011 10       		.uleb128 0x10
 1663 0012 06       		.uleb128 0x6
 1664 0013 00       		.byte	0
 1665 0014 00       		.byte	0
 1666 0015 02       		.uleb128 0x2
 1667 0016 24       		.uleb128 0x24
 1668 0017 00       		.byte	0
 1669 0018 0B       		.uleb128 0xb
 1670 0019 0B       		.uleb128 0xb
 1671 001a 3E       		.uleb128 0x3e
 1672 001b 0B       		.uleb128 0xb
 1673 001c 03       		.uleb128 0x3
 1674 001d 08       		.uleb128 0x8
 1675 001e 00       		.byte	0
 1676 001f 00       		.byte	0
 1677 0020 03       		.uleb128 0x3
 1678 0021 16       		.uleb128 0x16
 1679 0022 00       		.byte	0
 1680 0023 03       		.uleb128 0x3
 1681 0024 0E       		.uleb128 0xe
 1682 0025 3A       		.uleb128 0x3a
 1683 0026 0B       		.uleb128 0xb
 1684 0027 3B       		.uleb128 0x3b
 1685 0028 0B       		.uleb128 0xb
 1686 0029 49       		.uleb128 0x49
 1687 002a 13       		.uleb128 0x13
 1688 002b 00       		.byte	0
 1689 002c 00       		.byte	0
 1690 002d 04       		.uleb128 0x4
 1691 002e 24       		.uleb128 0x24
 1692 002f 00       		.byte	0
 1693 0030 0B       		.uleb128 0xb
 1694 0031 0B       		.uleb128 0xb
 1695 0032 3E       		.uleb128 0x3e
 1696 0033 0B       		.uleb128 0xb
 1697 0034 03       		.uleb128 0x3
 1698 0035 0E       		.uleb128 0xe
 1699 0036 00       		.byte	0
 1700 0037 00       		.byte	0
 1701 0038 05       		.uleb128 0x5
ARM GAS  /var/folders/5n/p_75w94d66l9ssrldxqdhh700000gn/T//cc91715g.s 			page 31


 1702 0039 13       		.uleb128 0x13
 1703 003a 01       		.byte	0x1
 1704 003b 03       		.uleb128 0x3
 1705 003c 0E       		.uleb128 0xe
 1706 003d 0B       		.uleb128 0xb
 1707 003e 0B       		.uleb128 0xb
 1708 003f 3A       		.uleb128 0x3a
 1709 0040 0B       		.uleb128 0xb
 1710 0041 3B       		.uleb128 0x3b
 1711 0042 0B       		.uleb128 0xb
 1712 0043 01       		.uleb128 0x1
 1713 0044 13       		.uleb128 0x13
 1714 0045 00       		.byte	0
 1715 0046 00       		.byte	0
 1716 0047 06       		.uleb128 0x6
 1717 0048 0D       		.uleb128 0xd
 1718 0049 00       		.byte	0
 1719 004a 03       		.uleb128 0x3
 1720 004b 0E       		.uleb128 0xe
 1721 004c 3A       		.uleb128 0x3a
 1722 004d 0B       		.uleb128 0xb
 1723 004e 3B       		.uleb128 0x3b
 1724 004f 0B       		.uleb128 0xb
 1725 0050 49       		.uleb128 0x49
 1726 0051 13       		.uleb128 0x13
 1727 0052 38       		.uleb128 0x38
 1728 0053 0A       		.uleb128 0xa
 1729 0054 00       		.byte	0
 1730 0055 00       		.byte	0
 1731 0056 07       		.uleb128 0x7
 1732 0057 0D       		.uleb128 0xd
 1733 0058 00       		.byte	0
 1734 0059 03       		.uleb128 0x3
 1735 005a 08       		.uleb128 0x8
 1736 005b 3A       		.uleb128 0x3a
 1737 005c 0B       		.uleb128 0xb
 1738 005d 3B       		.uleb128 0x3b
 1739 005e 0B       		.uleb128 0xb
 1740 005f 49       		.uleb128 0x49
 1741 0060 13       		.uleb128 0x13
 1742 0061 38       		.uleb128 0x38
 1743 0062 0A       		.uleb128 0xa
 1744 0063 00       		.byte	0
 1745 0064 00       		.byte	0
 1746 0065 08       		.uleb128 0x8
 1747 0066 13       		.uleb128 0x13
 1748 0067 01       		.byte	0x1
 1749 0068 0B       		.uleb128 0xb
 1750 0069 0B       		.uleb128 0xb
 1751 006a 3A       		.uleb128 0x3a
 1752 006b 0B       		.uleb128 0xb
 1753 006c 3B       		.uleb128 0x3b
 1754 006d 0B       		.uleb128 0xb
 1755 006e 01       		.uleb128 0x1
 1756 006f 13       		.uleb128 0x13
 1757 0070 00       		.byte	0
 1758 0071 00       		.byte	0
ARM GAS  /var/folders/5n/p_75w94d66l9ssrldxqdhh700000gn/T//cc91715g.s 			page 32


 1759 0072 09       		.uleb128 0x9
 1760 0073 0F       		.uleb128 0xf
 1761 0074 00       		.byte	0
 1762 0075 0B       		.uleb128 0xb
 1763 0076 0B       		.uleb128 0xb
 1764 0077 49       		.uleb128 0x49
 1765 0078 13       		.uleb128 0x13
 1766 0079 00       		.byte	0
 1767 007a 00       		.byte	0
 1768 007b 0A       		.uleb128 0xa
 1769 007c 0F       		.uleb128 0xf
 1770 007d 00       		.byte	0
 1771 007e 0B       		.uleb128 0xb
 1772 007f 0B       		.uleb128 0xb
 1773 0080 00       		.byte	0
 1774 0081 00       		.byte	0
 1775 0082 0B       		.uleb128 0xb
 1776 0083 13       		.uleb128 0x13
 1777 0084 01       		.byte	0x1
 1778 0085 03       		.uleb128 0x3
 1779 0086 0E       		.uleb128 0xe
 1780 0087 0B       		.uleb128 0xb
 1781 0088 0B       		.uleb128 0xb
 1782 0089 3A       		.uleb128 0x3a
 1783 008a 0B       		.uleb128 0xb
 1784 008b 3B       		.uleb128 0x3b
 1785 008c 05       		.uleb128 0x5
 1786 008d 01       		.uleb128 0x1
 1787 008e 13       		.uleb128 0x13
 1788 008f 00       		.byte	0
 1789 0090 00       		.byte	0
 1790 0091 0C       		.uleb128 0xc
 1791 0092 0D       		.uleb128 0xd
 1792 0093 00       		.byte	0
 1793 0094 03       		.uleb128 0x3
 1794 0095 08       		.uleb128 0x8
 1795 0096 3A       		.uleb128 0x3a
 1796 0097 0B       		.uleb128 0xb
 1797 0098 3B       		.uleb128 0x3b
 1798 0099 05       		.uleb128 0x5
 1799 009a 49       		.uleb128 0x49
 1800 009b 13       		.uleb128 0x13
 1801 009c 38       		.uleb128 0x38
 1802 009d 0A       		.uleb128 0xa
 1803 009e 00       		.byte	0
 1804 009f 00       		.byte	0
 1805 00a0 0D       		.uleb128 0xd
 1806 00a1 35       		.uleb128 0x35
 1807 00a2 00       		.byte	0
 1808 00a3 49       		.uleb128 0x49
 1809 00a4 13       		.uleb128 0x13
 1810 00a5 00       		.byte	0
 1811 00a6 00       		.byte	0
 1812 00a7 0E       		.uleb128 0xe
 1813 00a8 17       		.uleb128 0x17
 1814 00a9 01       		.byte	0x1
 1815 00aa 0B       		.uleb128 0xb
ARM GAS  /var/folders/5n/p_75w94d66l9ssrldxqdhh700000gn/T//cc91715g.s 			page 33


 1816 00ab 0B       		.uleb128 0xb
 1817 00ac 3A       		.uleb128 0x3a
 1818 00ad 0B       		.uleb128 0xb
 1819 00ae 3B       		.uleb128 0x3b
 1820 00af 0B       		.uleb128 0xb
 1821 00b0 01       		.uleb128 0x1
 1822 00b1 13       		.uleb128 0x13
 1823 00b2 00       		.byte	0
 1824 00b3 00       		.byte	0
 1825 00b4 0F       		.uleb128 0xf
 1826 00b5 0D       		.uleb128 0xd
 1827 00b6 00       		.byte	0
 1828 00b7 03       		.uleb128 0x3
 1829 00b8 0E       		.uleb128 0xe
 1830 00b9 3A       		.uleb128 0x3a
 1831 00ba 0B       		.uleb128 0xb
 1832 00bb 3B       		.uleb128 0x3b
 1833 00bc 0B       		.uleb128 0xb
 1834 00bd 49       		.uleb128 0x49
 1835 00be 13       		.uleb128 0x13
 1836 00bf 00       		.byte	0
 1837 00c0 00       		.byte	0
 1838 00c1 10       		.uleb128 0x10
 1839 00c2 26       		.uleb128 0x26
 1840 00c3 00       		.byte	0
 1841 00c4 49       		.uleb128 0x49
 1842 00c5 13       		.uleb128 0x13
 1843 00c6 00       		.byte	0
 1844 00c7 00       		.byte	0
 1845 00c8 11       		.uleb128 0x11
 1846 00c9 15       		.uleb128 0x15
 1847 00ca 01       		.byte	0x1
 1848 00cb 27       		.uleb128 0x27
 1849 00cc 0C       		.uleb128 0xc
 1850 00cd 49       		.uleb128 0x49
 1851 00ce 13       		.uleb128 0x13
 1852 00cf 01       		.uleb128 0x1
 1853 00d0 13       		.uleb128 0x13
 1854 00d1 00       		.byte	0
 1855 00d2 00       		.byte	0
 1856 00d3 12       		.uleb128 0x12
 1857 00d4 05       		.uleb128 0x5
 1858 00d5 00       		.byte	0
 1859 00d6 49       		.uleb128 0x49
 1860 00d7 13       		.uleb128 0x13
 1861 00d8 00       		.byte	0
 1862 00d9 00       		.byte	0
 1863 00da 13       		.uleb128 0x13
 1864 00db 15       		.uleb128 0x15
 1865 00dc 01       		.byte	0x1
 1866 00dd 27       		.uleb128 0x27
 1867 00de 0C       		.uleb128 0xc
 1868 00df 01       		.uleb128 0x1
 1869 00e0 13       		.uleb128 0x13
 1870 00e1 00       		.byte	0
 1871 00e2 00       		.byte	0
 1872 00e3 14       		.uleb128 0x14
ARM GAS  /var/folders/5n/p_75w94d66l9ssrldxqdhh700000gn/T//cc91715g.s 			page 34


 1873 00e4 13       		.uleb128 0x13
 1874 00e5 01       		.byte	0x1
 1875 00e6 0B       		.uleb128 0xb
 1876 00e7 0B       		.uleb128 0xb
 1877 00e8 3A       		.uleb128 0x3a
 1878 00e9 0B       		.uleb128 0xb
 1879 00ea 3B       		.uleb128 0x3b
 1880 00eb 05       		.uleb128 0x5
 1881 00ec 01       		.uleb128 0x1
 1882 00ed 13       		.uleb128 0x13
 1883 00ee 00       		.byte	0
 1884 00ef 00       		.byte	0
 1885 00f0 15       		.uleb128 0x15
 1886 00f1 0D       		.uleb128 0xd
 1887 00f2 00       		.byte	0
 1888 00f3 03       		.uleb128 0x3
 1889 00f4 0E       		.uleb128 0xe
 1890 00f5 3A       		.uleb128 0x3a
 1891 00f6 0B       		.uleb128 0xb
 1892 00f7 3B       		.uleb128 0x3b
 1893 00f8 05       		.uleb128 0x5
 1894 00f9 49       		.uleb128 0x49
 1895 00fa 13       		.uleb128 0x13
 1896 00fb 38       		.uleb128 0x38
 1897 00fc 0A       		.uleb128 0xa
 1898 00fd 00       		.byte	0
 1899 00fe 00       		.byte	0
 1900 00ff 16       		.uleb128 0x16
 1901 0100 16       		.uleb128 0x16
 1902 0101 00       		.byte	0
 1903 0102 03       		.uleb128 0x3
 1904 0103 0E       		.uleb128 0xe
 1905 0104 3A       		.uleb128 0x3a
 1906 0105 0B       		.uleb128 0xb
 1907 0106 3B       		.uleb128 0x3b
 1908 0107 05       		.uleb128 0x5
 1909 0108 49       		.uleb128 0x49
 1910 0109 13       		.uleb128 0x13
 1911 010a 00       		.byte	0
 1912 010b 00       		.byte	0
 1913 010c 17       		.uleb128 0x17
 1914 010d 0D       		.uleb128 0xd
 1915 010e 00       		.byte	0
 1916 010f 03       		.uleb128 0x3
 1917 0110 08       		.uleb128 0x8
 1918 0111 3A       		.uleb128 0x3a
 1919 0112 0B       		.uleb128 0xb
 1920 0113 3B       		.uleb128 0x3b
 1921 0114 0B       		.uleb128 0xb
 1922 0115 49       		.uleb128 0x49
 1923 0116 13       		.uleb128 0x13
 1924 0117 00       		.byte	0
 1925 0118 00       		.byte	0
 1926 0119 18       		.uleb128 0x18
 1927 011a 04       		.uleb128 0x4
 1928 011b 01       		.byte	0x1
 1929 011c 0B       		.uleb128 0xb
ARM GAS  /var/folders/5n/p_75w94d66l9ssrldxqdhh700000gn/T//cc91715g.s 			page 35


 1930 011d 0B       		.uleb128 0xb
 1931 011e 3A       		.uleb128 0x3a
 1932 011f 0B       		.uleb128 0xb
 1933 0120 3B       		.uleb128 0x3b
 1934 0121 0B       		.uleb128 0xb
 1935 0122 01       		.uleb128 0x1
 1936 0123 13       		.uleb128 0x13
 1937 0124 00       		.byte	0
 1938 0125 00       		.byte	0
 1939 0126 19       		.uleb128 0x19
 1940 0127 28       		.uleb128 0x28
 1941 0128 00       		.byte	0
 1942 0129 03       		.uleb128 0x3
 1943 012a 0E       		.uleb128 0xe
 1944 012b 1C       		.uleb128 0x1c
 1945 012c 0D       		.uleb128 0xd
 1946 012d 00       		.byte	0
 1947 012e 00       		.byte	0
 1948 012f 1A       		.uleb128 0x1a
 1949 0130 01       		.uleb128 0x1
 1950 0131 01       		.byte	0x1
 1951 0132 49       		.uleb128 0x49
 1952 0133 13       		.uleb128 0x13
 1953 0134 01       		.uleb128 0x1
 1954 0135 13       		.uleb128 0x13
 1955 0136 00       		.byte	0
 1956 0137 00       		.byte	0
 1957 0138 1B       		.uleb128 0x1b
 1958 0139 21       		.uleb128 0x21
 1959 013a 00       		.byte	0
 1960 013b 49       		.uleb128 0x49
 1961 013c 13       		.uleb128 0x13
 1962 013d 2F       		.uleb128 0x2f
 1963 013e 0B       		.uleb128 0xb
 1964 013f 00       		.byte	0
 1965 0140 00       		.byte	0
 1966 0141 1C       		.uleb128 0x1c
 1967 0142 2E       		.uleb128 0x2e
 1968 0143 01       		.byte	0x1
 1969 0144 03       		.uleb128 0x3
 1970 0145 0E       		.uleb128 0xe
 1971 0146 3A       		.uleb128 0x3a
 1972 0147 0B       		.uleb128 0xb
 1973 0148 3B       		.uleb128 0x3b
 1974 0149 0B       		.uleb128 0xb
 1975 014a 27       		.uleb128 0x27
 1976 014b 0C       		.uleb128 0xc
 1977 014c 49       		.uleb128 0x49
 1978 014d 13       		.uleb128 0x13
 1979 014e 11       		.uleb128 0x11
 1980 014f 01       		.uleb128 0x1
 1981 0150 12       		.uleb128 0x12
 1982 0151 01       		.uleb128 0x1
 1983 0152 40       		.uleb128 0x40
 1984 0153 06       		.uleb128 0x6
 1985 0154 01       		.uleb128 0x1
 1986 0155 13       		.uleb128 0x13
ARM GAS  /var/folders/5n/p_75w94d66l9ssrldxqdhh700000gn/T//cc91715g.s 			page 36


 1987 0156 00       		.byte	0
 1988 0157 00       		.byte	0
 1989 0158 1D       		.uleb128 0x1d
 1990 0159 05       		.uleb128 0x5
 1991 015a 00       		.byte	0
 1992 015b 03       		.uleb128 0x3
 1993 015c 08       		.uleb128 0x8
 1994 015d 3A       		.uleb128 0x3a
 1995 015e 0B       		.uleb128 0xb
 1996 015f 3B       		.uleb128 0x3b
 1997 0160 0B       		.uleb128 0xb
 1998 0161 49       		.uleb128 0x49
 1999 0162 13       		.uleb128 0x13
 2000 0163 02       		.uleb128 0x2
 2001 0164 06       		.uleb128 0x6
 2002 0165 00       		.byte	0
 2003 0166 00       		.byte	0
 2004 0167 1E       		.uleb128 0x1e
 2005 0168 2E       		.uleb128 0x2e
 2006 0169 00       		.byte	0
 2007 016a 3F       		.uleb128 0x3f
 2008 016b 0C       		.uleb128 0xc
 2009 016c 03       		.uleb128 0x3
 2010 016d 0E       		.uleb128 0xe
 2011 016e 3A       		.uleb128 0x3a
 2012 016f 0B       		.uleb128 0xb
 2013 0170 3B       		.uleb128 0x3b
 2014 0171 0B       		.uleb128 0xb
 2015 0172 27       		.uleb128 0x27
 2016 0173 0C       		.uleb128 0xc
 2017 0174 49       		.uleb128 0x49
 2018 0175 13       		.uleb128 0x13
 2019 0176 11       		.uleb128 0x11
 2020 0177 01       		.uleb128 0x1
 2021 0178 12       		.uleb128 0x12
 2022 0179 01       		.uleb128 0x1
 2023 017a 40       		.uleb128 0x40
 2024 017b 06       		.uleb128 0x6
 2025 017c 00       		.byte	0
 2026 017d 00       		.byte	0
 2027 017e 1F       		.uleb128 0x1f
 2028 017f 34       		.uleb128 0x34
 2029 0180 00       		.byte	0
 2030 0181 03       		.uleb128 0x3
 2031 0182 0E       		.uleb128 0xe
 2032 0183 3A       		.uleb128 0x3a
 2033 0184 0B       		.uleb128 0xb
 2034 0185 3B       		.uleb128 0x3b
 2035 0186 0B       		.uleb128 0xb
 2036 0187 49       		.uleb128 0x49
 2037 0188 13       		.uleb128 0x13
 2038 0189 3F       		.uleb128 0x3f
 2039 018a 0C       		.uleb128 0xc
 2040 018b 3C       		.uleb128 0x3c
 2041 018c 0C       		.uleb128 0xc
 2042 018d 00       		.byte	0
 2043 018e 00       		.byte	0
ARM GAS  /var/folders/5n/p_75w94d66l9ssrldxqdhh700000gn/T//cc91715g.s 			page 37


 2044 018f 20       		.uleb128 0x20
 2045 0190 34       		.uleb128 0x34
 2046 0191 00       		.byte	0
 2047 0192 03       		.uleb128 0x3
 2048 0193 0E       		.uleb128 0xe
 2049 0194 3A       		.uleb128 0x3a
 2050 0195 0B       		.uleb128 0xb
 2051 0196 3B       		.uleb128 0x3b
 2052 0197 05       		.uleb128 0x5
 2053 0198 49       		.uleb128 0x49
 2054 0199 13       		.uleb128 0x13
 2055 019a 3F       		.uleb128 0x3f
 2056 019b 0C       		.uleb128 0xc
 2057 019c 3C       		.uleb128 0x3c
 2058 019d 0C       		.uleb128 0xc
 2059 019e 00       		.byte	0
 2060 019f 00       		.byte	0
 2061 01a0 21       		.uleb128 0x21
 2062 01a1 34       		.uleb128 0x34
 2063 01a2 00       		.byte	0
 2064 01a3 03       		.uleb128 0x3
 2065 01a4 08       		.uleb128 0x8
 2066 01a5 3A       		.uleb128 0x3a
 2067 01a6 0B       		.uleb128 0xb
 2068 01a7 3B       		.uleb128 0x3b
 2069 01a8 05       		.uleb128 0x5
 2070 01a9 49       		.uleb128 0x49
 2071 01aa 13       		.uleb128 0x13
 2072 01ab 3F       		.uleb128 0x3f
 2073 01ac 0C       		.uleb128 0xc
 2074 01ad 3C       		.uleb128 0x3c
 2075 01ae 0C       		.uleb128 0xc
 2076 01af 00       		.byte	0
 2077 01b0 00       		.byte	0
 2078 01b1 22       		.uleb128 0x22
 2079 01b2 34       		.uleb128 0x34
 2080 01b3 00       		.byte	0
 2081 01b4 03       		.uleb128 0x3
 2082 01b5 0E       		.uleb128 0xe
 2083 01b6 3A       		.uleb128 0x3a
 2084 01b7 0B       		.uleb128 0xb
 2085 01b8 3B       		.uleb128 0x3b
 2086 01b9 0B       		.uleb128 0xb
 2087 01ba 49       		.uleb128 0x49
 2088 01bb 13       		.uleb128 0x13
 2089 01bc 02       		.uleb128 0x2
 2090 01bd 0A       		.uleb128 0xa
 2091 01be 00       		.byte	0
 2092 01bf 00       		.byte	0
 2093 01c0 00       		.byte	0
 2094              		.section	.debug_loc,"",%progbits
 2095              	.Ldebug_loc0:
 2096              	.LLST0:
 2097 0000 00000000 		.4byte	.LFB118
 2098 0004 08000000 		.4byte	.LCFI0
 2099 0008 0200     		.2byte	0x2
 2100 000a 7D       		.byte	0x7d
ARM GAS  /var/folders/5n/p_75w94d66l9ssrldxqdhh700000gn/T//cc91715g.s 			page 38


 2101 000b 00       		.sleb128 0
 2102 000c 08000000 		.4byte	.LCFI0
 2103 0010 34000000 		.4byte	.LFE118
 2104 0014 0200     		.2byte	0x2
 2105 0016 7D       		.byte	0x7d
 2106 0017 10       		.sleb128 16
 2107 0018 00000000 		.4byte	0
 2108 001c 00000000 		.4byte	0
 2109              	.LLST1:
 2110 0020 00000000 		.4byte	.LVL0
 2111 0024 16000000 		.4byte	.LVL1
 2112 0028 0100     		.2byte	0x1
 2113 002a 50       		.byte	0x50
 2114 002b 00000000 		.4byte	0
 2115 002f 00000000 		.4byte	0
 2116              	.LLST2:
 2117 0033 00000000 		.4byte	.LFB119
 2118 0037 02000000 		.4byte	.LCFI1
 2119 003b 0200     		.2byte	0x2
 2120 003d 7D       		.byte	0x7d
 2121 003e 00       		.sleb128 0
 2122 003f 02000000 		.4byte	.LCFI1
 2123 0043 04000000 		.4byte	.LCFI2
 2124 0047 0200     		.2byte	0x2
 2125 0049 7D       		.byte	0x7d
 2126 004a 08       		.sleb128 8
 2127 004b 04000000 		.4byte	.LCFI2
 2128 004f 84000000 		.4byte	.LFE119
 2129 0053 0200     		.2byte	0x2
 2130 0055 7D       		.byte	0x7d
 2131 0056 10       		.sleb128 16
 2132 0057 00000000 		.4byte	0
 2133 005b 00000000 		.4byte	0
 2134              		.section	.debug_aranges,"",%progbits
 2135 0000 24000000 		.4byte	0x24
 2136 0004 0200     		.2byte	0x2
 2137 0006 00000000 		.4byte	.Ldebug_info0
 2138 000a 04       		.byte	0x4
 2139 000b 00       		.byte	0
 2140 000c 0000     		.2byte	0
 2141 000e 0000     		.2byte	0
 2142 0010 00000000 		.4byte	.LFB118
 2143 0014 34000000 		.4byte	.LFE118-.LFB118
 2144 0018 00000000 		.4byte	.LFB119
 2145 001c 84000000 		.4byte	.LFE119-.LFB119
 2146 0020 00000000 		.4byte	0
 2147 0024 00000000 		.4byte	0
 2148              		.section	.debug_ranges,"",%progbits
 2149              	.Ldebug_ranges0:
 2150 0000 00000000 		.4byte	.LFB118
 2151 0004 34000000 		.4byte	.LFE118
 2152 0008 00000000 		.4byte	.LFB119
 2153 000c 84000000 		.4byte	.LFE119
 2154 0010 00000000 		.4byte	0
 2155 0014 00000000 		.4byte	0
 2156              		.section	.debug_line,"",%progbits
 2157              	.Ldebug_line0:
ARM GAS  /var/folders/5n/p_75w94d66l9ssrldxqdhh700000gn/T//cc91715g.s 			page 39


 2158 0000 CC020000 		.section	.debug_str,"MS",%progbits,1
 2158      02007D02 
 2158      00000201 
 2158      FB0E0D00 
 2158      01010101 
 2159              	.LASF2:
 2160 0000 73697A65 		.ascii	"size_t\000"
 2160      5F7400
 2161              	.LASF68:
 2162 0007 7264796D 		.ascii	"rdymsg\000"
 2162      736700
 2163              	.LASF13:
 2164 000e 75696E74 		.ascii	"uint64_t\000"
 2164      36345F74 
 2164      00
 2165              	.LASF84:
 2166 0017 4F757470 		.ascii	"OutputQueue\000"
 2166      75745175 
 2166      65756500 
 2167              	.LASF96:
 2168 0023 4F545950 		.ascii	"OTYPER\000"
 2168      455200
 2169              	.LASF104:
 2170 002a 696F706F 		.ascii	"ioportmask_t\000"
 2170      72746D61 
 2170      736B5F74 
 2170      00
 2171              	.LASF95:
 2172 0037 4D4F4445 		.ascii	"MODER\000"
 2172      5200
 2173              	.LASF14:
 2174 003d 6C6F6E67 		.ascii	"long long unsigned int\000"
 2174      206C6F6E 
 2174      6720756E 
 2174      7369676E 
 2174      65642069 
 2175              	.LASF98:
 2176 0054 50555044 		.ascii	"PUPDR\000"
 2176      5200
 2177              	.LASF69:
 2178 005a 65786974 		.ascii	"exitcode\000"
 2178      636F6465 
 2178      00
 2179              	.LASF123:
 2180 0063 49544D5F 		.ascii	"ITM_RxBuffer\000"
 2180      52784275 
 2180      66666572 
 2180      00
 2181              	.LASF27:
 2182 0070 705F7072 		.ascii	"p_prio\000"
 2182      696F00
 2183              	.LASF121:
 2184 0077 72656164 		.ascii	"readt\000"
 2184      7400
 2185              	.LASF74:
 2186 007d 715F7761 		.ascii	"q_waiting\000"
 2186      6974696E 
ARM GAS  /var/folders/5n/p_75w94d66l9ssrldxqdhh700000gn/T//cc91715g.s 			page 40


 2186      6700
 2187              	.LASF12:
 2188 0087 6C6F6E67 		.ascii	"long long int\000"
 2188      206C6F6E 
 2188      6720696E 
 2188      7400
 2189              	.LASF1:
 2190 0095 7369676E 		.ascii	"signed char\000"
 2190      65642063 
 2190      68617200 
 2191              	.LASF99:
 2192 00a1 42535252 		.ascii	"BSRR\000"
 2192      00
 2193              	.LASF91:
 2194 00a6 47545052 		.ascii	"GTPR\000"
 2194      00
 2195              	.LASF43:
 2196 00ab 705F6D70 		.ascii	"p_mpool\000"
 2196      6F6F6C00 
 2197              	.LASF58:
 2198 00b3 6D5F7175 		.ascii	"m_queue\000"
 2198      65756500 
 2199              	.LASF18:
 2200 00bb 74736C69 		.ascii	"tslices_t\000"
 2200      6365735F 
 2200      7400
 2201              	.LASF111:
 2202 00c5 73746174 		.ascii	"state\000"
 2202      6500
 2203              	.LASF9:
 2204 00cb 6C6F6E67 		.ascii	"long int\000"
 2204      20696E74 
 2204      00
 2205              	.LASF16:
 2206 00d4 74737461 		.ascii	"tstate_t\000"
 2206      74655F74 
 2206      00
 2207              	.LASF34:
 2208 00dd 705F7265 		.ascii	"p_refs\000"
 2208      667300
 2209              	.LASF76:
 2210 00e4 715F6275 		.ascii	"q_buffer\000"
 2210      66666572 
 2210      00
 2211              	.LASF78:
 2212 00ed 715F7772 		.ascii	"q_wrptr\000"
 2212      70747200 
 2213              	.LASF81:
 2214 00f5 715F6C69 		.ascii	"q_link\000"
 2214      6E6B00
 2215              	.LASF29:
 2216 00fc 705F6E65 		.ascii	"p_newer\000"
 2216      77657200 
 2217              	.LASF97:
 2218 0104 4F535045 		.ascii	"OSPEEDR\000"
 2218      45445200 
 2219              	.LASF53:
ARM GAS  /var/folders/5n/p_75w94d66l9ssrldxqdhh700000gn/T//cc91715g.s 			page 41


 2220 010c 725F6E65 		.ascii	"r_newer\000"
 2220      77657200 
 2221              	.LASF46:
 2222 0114 72656761 		.ascii	"regarm_t\000"
 2222      726D5F74 
 2222      00
 2223              	.LASF66:
 2224 011d 4576656E 		.ascii	"EventSource\000"
 2224      74536F75 
 2224      72636500 
 2225              	.LASF114:
 2226 0129 75736172 		.ascii	"usart\000"
 2226      7400
 2227              	.LASF0:
 2228 012f 756E7369 		.ascii	"unsigned int\000"
 2228      676E6564 
 2228      20696E74 
 2228      00
 2229              	.LASF6:
 2230 013c 75696E74 		.ascii	"uint16_t\000"
 2230      31365F74 
 2230      00
 2231              	.LASF115:
 2232 0145 53657269 		.ascii	"SerialDriverVMT\000"
 2232      616C4472 
 2232      69766572 
 2232      564D5400 
 2233              	.LASF36:
 2234 0155 705F7469 		.ascii	"p_time\000"
 2234      6D6500
 2235              	.LASF112:
 2236 015c 69717565 		.ascii	"iqueue\000"
 2236      756500
 2237              	.LASF38:
 2238 0163 705F6D73 		.ascii	"p_msgqueue\000"
 2238      67717565 
 2238      756500
 2239              	.LASF103:
 2240 016e 4750494F 		.ascii	"GPIO_TypeDef\000"
 2240      5F547970 
 2240      65446566 
 2240      00
 2241              	.LASF119:
 2242 017b 67657474 		.ascii	"gett\000"
 2242      00
 2243              	.LASF110:
 2244 0180 6576656E 		.ascii	"event\000"
 2244      7400
 2245              	.LASF7:
 2246 0186 73686F72 		.ascii	"short unsigned int\000"
 2246      7420756E 
 2246      7369676E 
 2246      65642069 
 2246      6E7400
 2247              	.LASF20:
 2248 0199 6D73675F 		.ascii	"msg_t\000"
 2248      7400
ARM GAS  /var/folders/5n/p_75w94d66l9ssrldxqdhh700000gn/T//cc91715g.s 			page 42


 2249              	.LASF113:
 2250 019f 6F717565 		.ascii	"oqueue\000"
 2250      756500
 2251              	.LASF93:
 2252 01a6 55534152 		.ascii	"USART_TypeDef\000"
 2252      545F5479 
 2252      70654465 
 2252      6600
 2253              	.LASF120:
 2254 01b4 77726974 		.ascii	"writet\000"
 2254      657400
 2255              	.LASF15:
 2256 01bb 746D6F64 		.ascii	"tmode_t\000"
 2256      655F7400 
 2257              	.LASF45:
 2258 01c3 54687265 		.ascii	"ThreadsList\000"
 2258      6164734C 
 2258      69737400 
 2259              	.LASF21:
 2260 01cf 6576656E 		.ascii	"eventmask_t\000"
 2260      746D6173 
 2260      6B5F7400 
 2261              	.LASF83:
 2262 01db 496E7075 		.ascii	"InputQueue\000"
 2262      74517565 
 2262      756500
 2263              	.LASF82:
 2264 01e6 716E6F74 		.ascii	"qnotify_t\000"
 2264      6966795F 
 2264      7400
 2265              	.LASF73:
 2266 01f0 47656E65 		.ascii	"GenericQueue\000"
 2266      72696351 
 2266      75657565 
 2266      00
 2267              	.LASF47:
 2268 01fd 73746B61 		.ascii	"stkalign_t\000"
 2268      6C69676E 
 2268      5F7400
 2269              	.LASF129:
 2270 0208 54687265 		.ascii	"Thread1\000"
 2270      61643100 
 2271              	.LASF116:
 2272 0210 77726974 		.ascii	"write\000"
 2272      6500
 2273              	.LASF118:
 2274 0216 70757474 		.ascii	"putt\000"
 2274      00
 2275              	.LASF94:
 2276 021b 636C6561 		.ascii	"clear\000"
 2276      7200
 2277              	.LASF57:
 2278 0221 4D757465 		.ascii	"Mutex\000"
 2278      7800
 2279              	.LASF30:
 2280 0227 705F6F6C 		.ascii	"p_older\000"
 2280      64657200 
ARM GAS  /var/folders/5n/p_75w94d66l9ssrldxqdhh700000gn/T//cc91715g.s 			page 43


 2281              	.LASF52:
 2282 022f 725F6374 		.ascii	"r_ctx\000"
 2282      7800
 2283              	.LASF44:
 2284 0235 54687265 		.ascii	"ThreadsQueue\000"
 2284      61647351 
 2284      75657565 
 2284      00
 2285              	.LASF127:
 2286 0242 6D61696E 		.ascii	"main.c\000"
 2286      2E6300
 2287              	.LASF54:
 2288 0249 725F6F6C 		.ascii	"r_older\000"
 2288      64657200 
 2289              	.LASF64:
 2290 0251 656C5F6D 		.ascii	"el_mask\000"
 2290      61736B00 
 2291              	.LASF102:
 2292 0259 41465248 		.ascii	"AFRH\000"
 2292      00
 2293              	.LASF101:
 2294 025e 4146524C 		.ascii	"AFRL\000"
 2294      00
 2295              	.LASF131:
 2296 0263 77615468 		.ascii	"waThread1\000"
 2296      72656164 
 2296      3100
 2297              	.LASF17:
 2298 026d 74726566 		.ascii	"trefs_t\000"
 2298      735F7400 
 2299              	.LASF85:
 2300 0275 52455345 		.ascii	"RESERVED0\000"
 2300      52564544 
 2300      3000
 2301              	.LASF86:
 2302 027f 52455345 		.ascii	"RESERVED1\000"
 2302      52564544 
 2302      3100
 2303              	.LASF87:
 2304 0289 52455345 		.ascii	"RESERVED2\000"
 2304      52564544 
 2304      3200
 2305              	.LASF88:
 2306 0293 52455345 		.ascii	"RESERVED3\000"
 2306      52564544 
 2306      3300
 2307              	.LASF89:
 2308 029d 52455345 		.ascii	"RESERVED4\000"
 2308      52564544 
 2308      3400
 2309              	.LASF26:
 2310 02a7 705F7072 		.ascii	"p_prev\000"
 2310      657600
 2311              	.LASF92:
 2312 02ae 52455345 		.ascii	"RESERVED6\000"
 2312      52564544 
 2312      3600
ARM GAS  /var/folders/5n/p_75w94d66l9ssrldxqdhh700000gn/T//cc91715g.s 			page 44


 2313              	.LASF19:
 2314 02b8 74707269 		.ascii	"tprio_t\000"
 2314      6F5F7400 
 2315              	.LASF79:
 2316 02c0 715F7264 		.ascii	"q_rdptr\000"
 2316      70747200 
 2317              	.LASF8:
 2318 02c8 696E7433 		.ascii	"int32_t\000"
 2318      325F7400 
 2319              	.LASF4:
 2320 02d0 756E7369 		.ascii	"unsigned char\000"
 2320      676E6564 
 2320      20636861 
 2320      7200
 2321              	.LASF63:
 2322 02de 656C5F6C 		.ascii	"el_listener\000"
 2322      69737465 
 2322      6E657200 
 2323              	.LASF65:
 2324 02ea 656C5F66 		.ascii	"el_flags\000"
 2324      6C616773 
 2324      00
 2325              	.LASF41:
 2326 02f3 705F6D74 		.ascii	"p_mtxlist\000"
 2326      786C6973 
 2326      7400
 2327              	.LASF5:
 2328 02fd 73686F72 		.ascii	"short int\000"
 2328      7420696E 
 2328      7400
 2329              	.LASF32:
 2330 0307 705F7374 		.ascii	"p_state\000"
 2330      61746500 
 2331              	.LASF35:
 2332 030f 705F7072 		.ascii	"p_preempt\000"
 2332      65656D70 
 2332      7400
 2333              	.LASF51:
 2334 0319 725F7072 		.ascii	"r_prio\000"
 2334      696F00
 2335              	.LASF71:
 2336 0320 65776D61 		.ascii	"ewmask\000"
 2336      736B00
 2337              	.LASF25:
 2338 0327 705F6E65 		.ascii	"p_next\000"
 2338      787400
 2339              	.LASF33:
 2340 032e 705F666C 		.ascii	"p_flags\000"
 2340      61677300 
 2341              	.LASF62:
 2342 0336 656C5F6E 		.ascii	"el_next\000"
 2342      65787400 
 2343              	.LASF106:
 2344 033e 53445F53 		.ascii	"SD_STOP\000"
 2344      544F5000 
 2345              	.LASF24:
 2346 0346 54687265 		.ascii	"Thread\000"
ARM GAS  /var/folders/5n/p_75w94d66l9ssrldxqdhh700000gn/T//cc91715g.s 			page 45


 2346      616400
 2347              	.LASF100:
 2348 034d 4C434B52 		.ascii	"LCKR\000"
 2348      00
 2349              	.LASF22:
 2350 0352 666C6167 		.ascii	"flagsmask_t\000"
 2350      736D6173 
 2350      6B5F7400 
 2351              	.LASF40:
 2352 035e 705F6570 		.ascii	"p_epending\000"
 2352      656E6469 
 2352      6E6700
 2353              	.LASF105:
 2354 0369 53445F55 		.ascii	"SD_UNINIT\000"
 2354      4E494E49 
 2354      5400
 2355              	.LASF90:
 2356 0373 52455345 		.ascii	"RESERVED5\000"
 2356      52564544 
 2356      3500
 2357              	.LASF75:
 2358 037d 715F636F 		.ascii	"q_counter\000"
 2358      756E7465 
 2358      7200
 2359              	.LASF50:
 2360 0387 725F7175 		.ascii	"r_queue\000"
 2360      65756500 
 2361              	.LASF108:
 2362 038f 73647374 		.ascii	"sdstate_t\000"
 2362      6174655F 
 2362      7400
 2363              	.LASF109:
 2364 0399 53657269 		.ascii	"SerialDriver\000"
 2364      616C4472 
 2364      69766572 
 2364      00
 2365              	.LASF11:
 2366 03a6 6C6F6E67 		.ascii	"long unsigned int\000"
 2366      20756E73 
 2366      69676E65 
 2366      6420696E 
 2366      7400
 2367              	.LASF55:
 2368 03b8 725F6375 		.ascii	"r_current\000"
 2368      7272656E 
 2368      7400
 2369              	.LASF117:
 2370 03c2 72656164 		.ascii	"read\000"
 2370      00
 2371              	.LASF72:
 2372 03c7 63686172 		.ascii	"char\000"
 2372      00
 2373              	.LASF60:
 2374 03cc 6D5F6E65 		.ascii	"m_next\000"
 2374      787400
 2375              	.LASF23:
 2376 03d3 73797374 		.ascii	"systime_t\000"
ARM GAS  /var/folders/5n/p_75w94d66l9ssrldxqdhh700000gn/T//cc91715g.s 			page 46


 2376      696D655F 
 2376      7400
 2377              	.LASF42:
 2378 03dd 705F7265 		.ascii	"p_realprio\000"
 2378      616C7072 
 2378      696F00
 2379              	.LASF49:
 2380 03e8 636F6E74 		.ascii	"context\000"
 2380      65787400 
 2381              	.LASF126:
 2382 03f0 474E5520 		.ascii	"GNU C 4.6.2 20111004 (prerelease)\000"
 2382      4320342E 
 2382      362E3220 
 2382      32303131 
 2382      31303034 
 2383              	.LASF48:
 2384 0412 696E7463 		.ascii	"intctx\000"
 2384      747800
 2385              	.LASF107:
 2386 0419 53445F52 		.ascii	"SD_READY\000"
 2386      45414459 
 2386      00
 2387              	.LASF10:
 2388 0422 75696E74 		.ascii	"uint32_t\000"
 2388      33325F74 
 2388      00
 2389              	.LASF77:
 2390 042b 715F746F 		.ascii	"q_top\000"
 2390      7000
 2391              	.LASF31:
 2392 0431 705F6E61 		.ascii	"p_name\000"
 2392      6D6500
 2393              	.LASF67:
 2394 0438 65735F6E 		.ascii	"es_next\000"
 2394      65787400 
 2395              	.LASF56:
 2396 0440 52656164 		.ascii	"ReadyList\000"
 2396      794C6973 
 2396      7400
 2397              	.LASF80:
 2398 044a 715F6E6F 		.ascii	"q_notify\000"
 2398      74696679 
 2398      00
 2399              	.LASF122:
 2400 0453 726C6973 		.ascii	"rlist\000"
 2400      7400
 2401              	.LASF3:
 2402 0459 75696E74 		.ascii	"uint8_t\000"
 2402      385F7400 
 2403              	.LASF61:
 2404 0461 4576656E 		.ascii	"EventListener\000"
 2404      744C6973 
 2404      74656E65 
 2404      7200
 2405              	.LASF70:
 2406 046f 77746F62 		.ascii	"wtobjp\000"
 2406      6A7000
ARM GAS  /var/folders/5n/p_75w94d66l9ssrldxqdhh700000gn/T//cc91715g.s 			page 47


 2407              	.LASF128:
 2408 0476 2F557365 		.ascii	"/Users/sin/Documents/Eclipse/Workspace/mabl-ChibiOS"
 2408      72732F73 
 2408      696E2F44 
 2408      6F63756D 
 2408      656E7473 
 2409 04a9 2D322E35 		.ascii	"-2.5.1/demos/ARMCM4-STM32F407-LWIP\000"
 2409      2E312F64 
 2409      656D6F73 
 2409      2F41524D 
 2409      434D342D 
 2410              	.LASF124:
 2411 04cc 77615F6C 		.ascii	"wa_lwip_thread\000"
 2411      7769705F 
 2411      74687265 
 2411      616400
 2412              	.LASF39:
 2413 04db 705F6D73 		.ascii	"p_msg\000"
 2413      6700
 2414              	.LASF130:
 2415 04e1 6D61696E 		.ascii	"main\000"
 2415      00
 2416              	.LASF59:
 2417 04e6 6D5F6F77 		.ascii	"m_owner\000"
 2417      6E657200 
 2418              	.LASF28:
 2419 04ee 705F6374 		.ascii	"p_ctx\000"
 2419      7800
 2420              	.LASF37:
 2421 04f4 705F7761 		.ascii	"p_waiting\000"
 2421      6974696E 
 2421      6700
 2422              	.LASF125:
 2423 04fe 77615F68 		.ascii	"wa_http_server\000"
 2423      7474705F 
 2423      73657276 
 2423      657200
 2424              		.ident	"GCC: (Linaro GCC 4.6-2011.10) 4.6.2 20111004 (prerelease)"
ARM GAS  /var/folders/5n/p_75w94d66l9ssrldxqdhh700000gn/T//cc91715g.s 			page 48


DEFINED SYMBOLS
                            *ABS*:0000000000000000 main.c
/var/folders/5n/p_75w94d66l9ssrldxqdhh700000gn/T//cc91715g.s:18     .text.Thread1:0000000000000000 $t
/var/folders/5n/p_75w94d66l9ssrldxqdhh700000gn/T//cc91715g.s:23     .text.Thread1:0000000000000000 Thread1
/var/folders/5n/p_75w94d66l9ssrldxqdhh700000gn/T//cc91715g.s:67     .text.Thread1:000000000000002c $d
/var/folders/5n/p_75w94d66l9ssrldxqdhh700000gn/T//cc91715g.s:73     .text.startup.main:0000000000000000 $t
/var/folders/5n/p_75w94d66l9ssrldxqdhh700000gn/T//cc91715g.s:79     .text.startup.main:0000000000000000 main
/var/folders/5n/p_75w94d66l9ssrldxqdhh700000gn/T//cc91715g.s:145    .text.startup.main:0000000000000068 $d
/var/folders/5n/p_75w94d66l9ssrldxqdhh700000gn/T//cc91715g.s:156    .bss.waThread1:0000000000000000 $d
/var/folders/5n/p_75w94d66l9ssrldxqdhh700000gn/T//cc91715g.s:160    .bss.waThread1:0000000000000000 waThread1
/var/folders/5n/p_75w94d66l9ssrldxqdhh700000gn/T//cc91715g.s:163    .rodata.str1.4:0000000000000000 $d
                     .debug_frame:0000000000000010 $d
/var/folders/5n/p_75w94d66l9ssrldxqdhh700000gn/T//cc91715g.s:72     .text.Thread1:0000000000000034 $t
/var/folders/5n/p_75w94d66l9ssrldxqdhh700000gn/T//cc91715g.s:155    .text.startup.main:0000000000000084 $t

UNDEFINED SYMBOLS
chThdSleep
rlist
halInit
chSysInit
sdStart
chThdCreateStatic
TestThread
SD6
lwip_thread
wa_lwip_thread
wa_http_server
http_server
