ARM GAS  /var/folders/5n/p_75w94d66l9ssrldxqdhh700000gn/T//cc91715g.s 			page 1


   1              		.syntax unified
   2              		.cpu cortex-m4
   3              		.fpu softvfp
   4              		.eabi_attribute 20, 1
   5              		.eabi_attribute 21, 1
   6              		.eabi_attribute 23, 3
   7              		.eabi_attribute 24, 1
   8              		.eabi_attribute 25, 1
   9              		.eabi_attribute 26, 1
  10              		.eabi_attribute 30, 2
  11              		.eabi_attribute 18, 4
  12              		.thumb
  13              		.file	"main.c"
  14              		.text
  15              	.Ltext0:
  16              		.cfi_sections	.debug_frame
  17              		.section	.text.Thread1,"ax",%progbits
  18              		.align	2
  19              		.p2align 4,,15
  20              		.thumb
  21              		.thumb_func
  22              		.type	Thread1, %function
  23              	Thread1:
  24              	.LFB118:
  25              		.file 1 "main.c"
  26              		.loc 1 33 0
  27              		.cfi_startproc
  28              		@ args = 0, pretend = 0, frame = 0
  29              		@ frame_needed = 0, uses_anonymous_args = 0
  30              	.LVL0:
  31              		.loc 1 36 0
  32 0000 0A4B     		ldr	r3, .L4
  33 0002 0B4A     		ldr	r2, .L4+4
  34 0004 9B69     		ldr	r3, [r3, #24]
  35              		.loc 1 33 0
  36 0006 70B5     		push	{r4, r5, r6, lr}
  37              	.LCFI0:
  38              		.cfi_def_cfa_offset 16
  39              		.cfi_offset 14, -4
  40              		.cfi_offset 6, -8
  41              		.cfi_offset 5, -12
  42              		.cfi_offset 4, -16
  43              		.loc 1 38 0
  44 0008 4FF4A054 		mov	r4, #5120
  45 000c 4025     		movs	r5, #64
  46              		.loc 1 36 0
  47 000e 9A61     		str	r2, [r3, #24]
  48              		.loc 1 38 0
  49 0010 C4F20204 		movt	r4, 16386
  50 0014 2E46     		mov	r6, r5	@ movhi
  51              	.LVL1:
  52              	.L2:
  53              		.loc 1 38 0 is_stmt 0 discriminator 1
  54 0016 6683     		strh	r6, [r4, #26]	@ movhi
  55              		.loc 1 39 0 is_stmt 1 discriminator 1
  56 0018 4FF4FA70 		mov	r0, #500
  57 001c FFF7FEFF 		bl	chThdSleep
ARM GAS  /var/folders/5n/p_75w94d66l9ssrldxqdhh700000gn/T//cc91715g.s 			page 2


  58              		.loc 1 40 0 discriminator 1
  59 0020 2583     		strh	r5, [r4, #24]	@ movhi
  60              		.loc 1 41 0 discriminator 1
  61 0022 4FF4FA70 		mov	r0, #500
  62 0026 FFF7FEFF 		bl	chThdSleep
  63 002a F4E7     		b	.L2
  64              	.L5:
  65              		.align	2
  66              	.L4:
  67 002c 00000000 		.word	rlist
  68 0030 00000000 		.word	.LC0
  69              		.cfi_endproc
  70              	.LFE118:
  71              		.size	Thread1, .-Thread1
  72 0034 AFF30080 		.section	.text.startup.main,"ax",%progbits
  72      AFF30080 
  72      AFF30080 
  73              		.align	2
  74              		.p2align 4,,15
  75              		.global	main
  76              		.thumb
  77              		.thumb_func
  78              		.type	main, %function
  79              	main:
  80              	.LFB119:
  81              		.loc 1 48 0
  82              		.cfi_startproc
  83              		@ args = 0, pretend = 0, frame = 0
  84              		@ frame_needed = 0, uses_anonymous_args = 0
  85 0000 10B5     		push	{r4, lr}
  86              	.LCFI1:
  87              		.cfi_def_cfa_offset 8
  88              		.cfi_offset 14, -4
  89              		.cfi_offset 4, -8
  90 0002 82B0     		sub	sp, sp, #8
  91              	.LCFI2:
  92              		.cfi_def_cfa_offset 16
  93              		.loc 1 57 0
  94 0004 FFF7FEFF 		bl	halInit
  95              		.loc 1 58 0
  96 0008 FFF7FEFF 		bl	chSysInit
  97              		.loc 1 63 0
  98 000c 1648     		ldr	r0, .L9
  99 000e 0021     		movs	r1, #0
 100 0010 FFF7FEFF 		bl	sdStart
 101              		.loc 1 68 0
 102 0014 0024     		movs	r4, #0
 103 0016 4FF49871 		mov	r1, #304
 104 001a 4022     		movs	r2, #64
 105 001c 134B     		ldr	r3, .L9+4
 106 001e 1448     		ldr	r0, .L9+8
 107 0020 0094     		str	r4, [sp, #0]
 108 0022 FFF7FEFF 		bl	chThdCreateStatic
 109              		.loc 1 73 0
 110 0026 4FF40071 		mov	r1, #512
 111 002a 4122     		movs	r2, #65
 112 002c 114B     		ldr	r3, .L9+12
ARM GAS  /var/folders/5n/p_75w94d66l9ssrldxqdhh700000gn/T//cc91715g.s 			page 3


 113 002e 1248     		ldr	r0, .L9+16
 114 0030 0094     		str	r4, [sp, #0]
 115 0032 FFF7FEFF 		bl	chThdCreateStatic
 116              		.loc 1 79 0
 117 0036 0094     		str	r4, [sp, #0]
 118 0038 1048     		ldr	r0, .L9+20
 119 003a 114B     		ldr	r3, .L9+24
 120 003c 4FF49661 		mov	r1, #1200
 121 0040 4122     		movs	r2, #65
 122              		.loc 1 87 0
 123 0042 4FF40064 		mov	r4, #2048
 124              		.loc 1 79 0
 125 0046 FFF7FEFF 		bl	chThdCreateStatic
 126              		.loc 1 87 0
 127 004a C4F20204 		movt	r4, 16386
 128 004e 03E0     		b	.L8
 129              	.L7:
 130              		.loc 1 89 0
 131 0050 4FF4FA70 		mov	r0, #500
 132 0054 FFF7FEFF 		bl	chThdSleep
 133              	.L8:
 134              		.loc 1 87 0
 135 0058 2369     		ldr	r3, [r4, #16]
 136 005a 9B04     		lsls	r3, r3, #18
 137 005c F8D4     		bmi	.L7
 138              		.loc 1 88 0
 139 005e 0248     		ldr	r0, .L9
 140 0060 FFF7FEFF 		bl	TestThread
 141 0064 F4E7     		b	.L7
 142              	.L10:
 143 0066 00BF     		.align	2
 144              	.L9:
 145 0068 00000000 		.word	SD6
 146 006c 00000000 		.word	Thread1
 147 0070 00000000 		.word	.LANCHOR0
 148 0074 00000000 		.word	lwip_thread
 149 0078 00000000 		.word	wa_lwip_thread
 150 007c 00000000 		.word	wa_http_server
 151 0080 00000000 		.word	http_server
 152              		.cfi_endproc
 153              	.LFE119:
 154              		.size	main, .-main
 155 0084 AFF30080 		.section	.bss.waThread1,"aw",%nobits
 155      AFF30080 
 155      AFF30080 
 156              		.align	3
 157              		.set	.LANCHOR0,. + 0
 158              		.type	waThread1, %object
 159              		.size	waThread1, 304
 160              	waThread1:
 161 0000 00000000 		.space	304
 161      00000000 
 161      00000000 
 161      00000000 
 161      00000000 
 162              		.section	.rodata.str1.4,"aMS",%progbits,1
 163              		.align	2
ARM GAS  /var/folders/5n/p_75w94d66l9ssrldxqdhh700000gn/T//cc91715g.s 			page 4


 164              	.LC0:
 165 0000 626C696E 		.ascii	"blinker\000"
 165      6B657200 
 166              		.text
 167              	.Letext0:
 168              		.file 2 "/usr/local/summon/lib/gcc/arm-none-eabi/4.6.2/include/stddef.h"
 169              		.file 3 "/usr/local/summon/lib/gcc/arm-none-eabi/4.6.2/../../../../arm-none-eabi/include/stdint.h"
 170              		.file 4 "../../os/ports/GCC/ARMCMx/chtypes.h"
 171              		.file 5 "../../os/kernel/include/chlists.h"
 172              		.file 6 "../../os/kernel/include/chthreads.h"
 173              		.file 7 "../../os/ports/GCC/ARMCMx/chcore_v7m.h"
 174              		.file 8 "../../os/kernel/include/chschd.h"
 175              		.file 9 "../../os/kernel/include/chmtx.h"
 176              		.file 10 "../../os/kernel/include/chevents.h"
 177              		.file 11 "../../os/kernel/include/chqueues.h"
 178              		.file 12 "../../os/hal/platforms/STM32F4xx/stm32f4xx.h"
 179              		.file 13 "../../os/hal/platforms/STM32/GPIOv2/pal_lld.h"
 180              		.file 14 "../../os/hal/include/serial.h"
 181              		.file 15 "../../os/ports/common/ARMCMx/CMSIS/include/core_cm4.h"
 182              		.file 16 "../../os/various/lwip_bindings/lwipthread.h"
 183              		.file 17 "web/web.h"
 184              		.file 18 "../../os/hal/platforms/STM32/serial_lld.h"