ARM GAS  /var/folders/5n/p_75w94d66l9ssrldxqdhh700000gn/T//cc0BOilB.s 			page 1


   1              		.syntax unified
   2              		.cpu cortex-m4
   3              		.fpu softvfp
   4              		.eabi_attribute 20, 1
   5              		.eabi_attribute 21, 1
   6              		.eabi_attribute 23, 3
   7              		.eabi_attribute 24, 1
   8              		.eabi_attribute 25, 1
   9              		.eabi_attribute 26, 1
  10              		.eabi_attribute 30, 2
  11              		.eabi_attribute 18, 4
  12              		.thumb
  13              		.file	"mem.c"
  14              		.text
  15              	.Ltext0:
  16              		.cfi_sections	.debug_frame
  17              		.section	.text.mem_init,"ax",%progbits
  18              		.align	2
  19              		.p2align 4,,15
  20              		.global	mem_init
  21              		.thumb
  22              		.thumb_func
  23              		.type	mem_init, %function
  24              	mem_init:
  25              	.LFB8:
  26              		.file 1 "../../ext/lwip/src/core/mem.c"
  27              		.loc 1 272 0
  28              		.cfi_startproc
  29              		@ args = 0, pretend = 0, frame = 0
  30              		@ frame_needed = 0, uses_anonymous_args = 0
  31 0000 F8B5     		push	{r3, r4, r5, r6, r7, lr}
  32              	.LCFI0:
  33              		.cfi_def_cfa_offset 24
  34              		.cfi_offset 14, -4
  35              		.cfi_offset 7, -8
  36              		.cfi_offset 6, -12
  37              		.cfi_offset 5, -16
  38              		.cfi_offset 4, -20
  39              		.cfi_offset 3, -24
  40              		.loc 1 279 0
  41 0002 134B     		ldr	r3, .L5
  42 0004 DFF85CE0 		ldr	lr, .L5+20
  43              		.loc 1 296 0
  44 0008 1248     		ldr	r0, .L5+4
  45              		.loc 1 279 0
  46 000a 23F00303 		bic	r3, r3, #3
  47              		.loc 1 287 0
  48 000e 0124     		movs	r4, #1
  49 0010 83F84446 		strb	r4, [r3, #1604]
  50              		.loc 1 296 0
  51 0014 2146     		mov	r1, r4
  52              		.loc 1 292 0
  53 0016 104C     		ldr	r4, .L5+8
  54              		.loc 1 279 0
  55 0018 CEF80030 		str	r3, [lr, #0]
  56              	.LVL0:
  57              		.loc 1 282 0
ARM GAS  /var/folders/5n/p_75w94d66l9ssrldxqdhh700000gn/T//cc0BOilB.s 			page 2


  58 001c 4FF4C862 		mov	r2, #1600
  59              		.loc 1 283 0
  60 0020 0025     		movs	r5, #0
  61              		.loc 1 286 0
  62 0022 9E18     		adds	r6, r3, r2
  63              		.loc 1 283 0
  64 0024 5D80     		strh	r5, [r3, #2]	@ movhi
  65              		.loc 1 284 0
  66 0026 1D71     		strb	r5, [r3, #4]
  67              		.loc 1 283 0
  68 0028 2F46     		mov	r7, r5	@ movhi
  69              		.loc 1 282 0
  70 002a 1A80     		strh	r2, [r3, #0]	@ movhi
  71              		.loc 1 286 0
  72 002c 0B4D     		ldr	r5, .L5+12
  73              		.loc 1 288 0
  74 002e A3F84026 		strh	r2, [r3, #1600]	@ movhi
  75              		.loc 1 289 0
  76 0032 A3F84226 		strh	r2, [r3, #1602]	@ movhi
  77              		.loc 1 292 0
  78 0036 2360     		str	r3, [r4, #0]
  79              		.loc 1 294 0
  80 0038 094B     		ldr	r3, .L5+16
  81              	.LVL1:
  82              		.loc 1 286 0
  83 003a 2E60     		str	r6, [r5, #0]
  84              		.loc 1 294 0
  85 003c A3F8A820 		strh	r2, [r3, #168]	@ movhi
  86              		.loc 1 296 0
  87 0040 FFF7FEFF 		bl	sys_sem_new
  88              	.LVL2:
  89 0044 00B9     		cbnz	r0, .L4
  90 0046 F8BD     		pop	{r3, r4, r5, r6, r7, pc}
  91              	.L4:
  92              		.loc 1 299 0 discriminator 1
  93 0048 BDE8F840 		pop	{r3, r4, r5, r6, r7, lr}
  94              		.loc 1 297 0 discriminator 1
  95 004c FFF7FEBF 		b	port_halt
  96              	.L6:
  97              		.align	2
  98              	.L5:
  99 0050 03000000 		.word	.LANCHOR0+3
 100 0054 00000000 		.word	.LANCHOR4
 101 0058 00000000 		.word	.LANCHOR3
 102 005c 00000000 		.word	.LANCHOR2
 103 0060 00000000 		.word	lwip_stats
 104 0064 00000000 		.word	.LANCHOR1
 105              		.cfi_endproc
 106              	.LFE8:
 107              		.size	mem_init, .-mem_init
 108 0068 AFF30080 		.section	.text.mem_free,"ax",%progbits
 108      AFF30080 
 109              		.align	2
 110              		.p2align 4,,15
 111              		.global	mem_free
 112              		.thumb
 113              		.thumb_func
ARM GAS  /var/folders/5n/p_75w94d66l9ssrldxqdhh700000gn/T//cc0BOilB.s 			page 3


 114              		.type	mem_free, %function
 115              	mem_free:
 116              	.LFB9:
 117              		.loc 1 309 0
 118              		.cfi_startproc
 119              		@ args = 0, pretend = 0, frame = 0
 120              		@ frame_needed = 0, uses_anonymous_args = 0
 121              	.LVL3:
 122 0000 2DE9F843 		push	{r3, r4, r5, r6, r7, r8, r9, lr}
 123              	.LCFI1:
 124              		.cfi_def_cfa_offset 32
 125              		.cfi_offset 14, -4
 126              		.cfi_offset 9, -8
 127              		.cfi_offset 8, -12
 128              		.cfi_offset 7, -16
 129              		.cfi_offset 6, -20
 130              		.cfi_offset 5, -24
 131              		.cfi_offset 4, -28
 132              		.cfi_offset 3, -32
 133              		.loc 1 313 0
 134 0004 0446     		mov	r4, r0
 135 0006 B0B1     		cbz	r0, .L7
 136              		.loc 1 317 0
 137 0008 8307     		lsls	r3, r0, #30
 138 000a 7CD1     		bne	.L23
 139              	.LVL4:
 140              	.L9:
 141              		.loc 1 319 0
 142 000c 484D     		ldr	r5, .L30
 143 000e 2B68     		ldr	r3, [r5, #0]
 144 0010 9C42     		cmp	r4, r3
 145 0012 03D3     		bcc	.L10
 146              		.loc 1 319 0 is_stmt 0 discriminator 2
 147 0014 474E     		ldr	r6, .L30+4
 148 0016 3368     		ldr	r3, [r6, #0]
 149 0018 9C42     		cmp	r4, r3
 150 001a 12D3     		bcc	.L11
 151              	.L10:
 152              		.loc 1 319 0 discriminator 1
 153 001c FFF7FEFF 		bl	port_halt
 154              		.loc 1 322 0 is_stmt 1 discriminator 1
 155 0020 2B68     		ldr	r3, [r5, #0]
 156 0022 9C42     		cmp	r4, r3
 157 0024 09D2     		bcs	.L24
 158              	.L12:
 159              		.loc 1 327 0
 160 0026 444B     		ldr	r3, .L30+8
 161 0028 B3F8B020 		ldrh	r2, [r3, #176]
 162 002c 0132     		adds	r2, r2, #1
 163 002e A3F8B020 		strh	r2, [r3, #176]	@ movhi
 164              		.loc 1 329 0
 165 0032 BDE8F883 		pop	{r3, r4, r5, r6, r7, r8, r9, pc}
 166              	.L7:
 167 0036 BDE8F883 		pop	{r3, r4, r5, r6, r7, r8, r9, pc}
 168              	.L24:
 169              		.loc 1 322 0
 170 003a 3E4E     		ldr	r6, .L30+4
ARM GAS  /var/folders/5n/p_75w94d66l9ssrldxqdhh700000gn/T//cc0BOilB.s 			page 4


 171 003c 3368     		ldr	r3, [r6, #0]
 172 003e 9C42     		cmp	r4, r3
 173 0040 F1D2     		bcs	.L12
 174              	.L11:
 175              		.loc 1 332 0
 176 0042 3E48     		ldr	r0, .L30+12
 177 0044 0021     		movs	r1, #0
 178 0046 FFF7FEFF 		bl	sys_arch_sem_wait
 179              		.loc 1 336 0
 180 004a 14F8043C 		ldrb	r3, [r4, #-4]	@ zero_extendqisi2
 181              		.loc 1 334 0
 182 004e A4F10807 		sub	r7, r4, #8
 183              	.LVL5:
 184              		.loc 1 336 0
 185 0052 002B     		cmp	r3, #0
 186 0054 68D0     		beq	.L25
 187              	.L13:
 188              		.loc 1 338 0
 189 0056 0022     		movs	r2, #0
 190              		.loc 1 340 0
 191 0058 DFF8E480 		ldr	r8, .L30+16
 192              		.loc 1 338 0
 193 005c 04F8042C 		strb	r2, [r4, #-4]
 194              		.loc 1 345 0
 195 0060 354A     		ldr	r2, .L30+8
 196              		.loc 1 340 0
 197 0062 D8F80030 		ldr	r3, [r8, #0]
 198              		.loc 1 345 0
 199 0066 34F8081C 		ldrh	r1, [r4, #-8]
 200 006a B2F8AA00 		ldrh	r0, [r2, #170]
 201              		.loc 1 340 0
 202 006e 9F42     		cmp	r7, r3
 203              		.loc 1 345 0
 204 0070 2B68     		ldr	r3, [r5, #0]
 205              		.loc 1 342 0
 206 0072 38BF     		it	cc
 207 0074 C8F80070 		strcc	r7, [r8, #0]
 208              		.loc 1 345 0
 209 0078 411A     		subs	r1, r0, r1
 210 007a 1FFA87F9 		uxth	r9, r7
 211 007e C91A     		subs	r1, r1, r3
 212 0080 4944     		add	r1, r9, r1
 213              	.LBB4:
 214              	.LBB5:
 215              		.loc 1 238 0
 216 0082 9F42     		cmp	r7, r3
 217              	.LBE5:
 218              	.LBE4:
 219              		.loc 1 345 0
 220 0084 A2F8AA10 		strh	r1, [r2, #170]	@ movhi
 221              	.LVL6:
 222              	.LBB8:
 223              	.LBB6:
 224              		.loc 1 238 0
 225 0088 4BD3     		bcc	.L26
 226              	.L15:
 227              		.loc 1 239 0
ARM GAS  /var/folders/5n/p_75w94d66l9ssrldxqdhh700000gn/T//cc0BOilB.s 			page 5


 228 008a 3368     		ldr	r3, [r6, #0]
 229 008c 9F42     		cmp	r7, r3
 230 008e 45D2     		bcs	.L27
 231              	.L16:
 232              		.loc 1 240 0
 233 0090 14F8043C 		ldrb	r3, [r4, #-4]	@ zero_extendqisi2
 234 0094 002B     		cmp	r3, #0
 235 0096 3ED1     		bne	.L28
 236              	.L17:
 237              		.loc 1 243 0
 238 0098 34F8082C 		ldrh	r2, [r4, #-8]
 239 009c B2F5C86F 		cmp	r2, #1600
 240 00a0 34D8     		bhi	.L29
 241              	.L18:
 242              		.loc 1 245 0
 243 00a2 2B68     		ldr	r3, [r5, #0]
 244 00a4 9A18     		adds	r2, r3, r2
 245              	.LVL7:
 246              		.loc 1 246 0
 247 00a6 9742     		cmp	r7, r2
 248 00a8 13D0     		beq	.L19
 249 00aa 1179     		ldrb	r1, [r2, #4]	@ zero_extendqisi2
 250 00ac 89B9     		cbnz	r1, .L19
 251 00ae 3168     		ldr	r1, [r6, #0]
 252 00b0 8A42     		cmp	r2, r1
 253 00b2 0ED0     		beq	.L19
 254              		.loc 1 248 0
 255 00b4 D8F80010 		ldr	r1, [r8, #0]
 256 00b8 8A42     		cmp	r2, r1
 257              		.loc 1 249 0
 258 00ba 04BF     		itt	eq
 259 00bc 2049     		ldreq	r1, .L30+16
 260 00be 0F60     		streq	r7, [r1, #0]
 261              		.loc 1 251 0
 262 00c0 1188     		ldrh	r1, [r2, #0]
 263 00c2 24F8081C 		strh	r1, [r4, #-8]	@ movhi
 264              		.loc 1 252 0
 265 00c6 1288     		ldrh	r2, [r2, #0]
 266              	.LVL8:
 267 00c8 9A18     		adds	r2, r3, r2
 268 00ca C3EB0909 		rsb	r9, r3, r9
 269 00ce A2F80290 		strh	r9, [r2, #2]	@ movhi
 270              	.L19:
 271              		.loc 1 256 0
 272 00d2 34F8061C 		ldrh	r1, [r4, #-6]
 273 00d6 5A18     		adds	r2, r3, r1
 274              	.LVL9:
 275              		.loc 1 257 0
 276 00d8 9742     		cmp	r7, r2
 277 00da 0FD0     		beq	.L21
 278 00dc 1079     		ldrb	r0, [r2, #4]	@ zero_extendqisi2
 279 00de 68B9     		cbnz	r0, .L21
 280              		.loc 1 259 0
 281 00e0 D8F80000 		ldr	r0, [r8, #0]
 282 00e4 8742     		cmp	r7, r0
 283              		.loc 1 260 0
 284 00e6 04BF     		itt	eq
ARM GAS  /var/folders/5n/p_75w94d66l9ssrldxqdhh700000gn/T//cc0BOilB.s 			page 6


 285 00e8 1548     		ldreq	r0, .L30+16
 286 00ea 0260     		streq	r2, [r0, #0]
 287              		.loc 1 262 0
 288 00ec 34F8080C 		ldrh	r0, [r4, #-8]
 289 00f0 5852     		strh	r0, [r3, r1]	@ movhi
 290              		.loc 1 263 0
 291 00f2 34F8081C 		ldrh	r1, [r4, #-8]
 292 00f6 5918     		adds	r1, r3, r1
 293 00f8 D31A     		subs	r3, r2, r3
 294 00fa 4B80     		strh	r3, [r1, #2]	@ movhi
 295              	.L21:
 296              	.LBE6:
 297              	.LBE8:
 298              		.loc 1 352 0
 299 00fc 0F48     		ldr	r0, .L30+12
 300              		.loc 1 353 0
 301 00fe BDE8F843 		pop	{r3, r4, r5, r6, r7, r8, r9, lr}
 302              		.loc 1 352 0
 303 0102 FFF7FEBF 		b	sys_sem_signal
 304              	.LVL10:
 305              	.L23:
 306              		.loc 1 317 0 discriminator 1
 307 0106 FFF7FEFF 		bl	port_halt
 308 010a 7FE7     		b	.L9
 309              	.LVL11:
 310              	.L29:
 311              	.LBB9:
 312              	.LBB7:
 313              		.loc 1 243 0
 314 010c FFF7FEFF 		bl	port_halt
 315 0110 34F8082C 		ldrh	r2, [r4, #-8]
 316 0114 C5E7     		b	.L18
 317              	.L28:
 318              		.loc 1 240 0
 319 0116 FFF7FEFF 		bl	port_halt
 320 011a BDE7     		b	.L17
 321              	.L27:
 322              		.loc 1 239 0
 323 011c FFF7FEFF 		bl	port_halt
 324 0120 B6E7     		b	.L16
 325              	.L26:
 326              		.loc 1 238 0
 327 0122 FFF7FEFF 		bl	port_halt
 328 0126 B0E7     		b	.L15
 329              	.LVL12:
 330              	.L25:
 331              	.LBE7:
 332              	.LBE9:
 333              		.loc 1 336 0 discriminator 1
 334 0128 FFF7FEFF 		bl	port_halt
 335 012c 93E7     		b	.L13
 336              	.L31:
 337 012e 00BF     		.align	2
 338              	.L30:
 339 0130 00000000 		.word	.LANCHOR1
 340 0134 00000000 		.word	.LANCHOR2
 341 0138 00000000 		.word	lwip_stats
ARM GAS  /var/folders/5n/p_75w94d66l9ssrldxqdhh700000gn/T//cc0BOilB.s 			page 7


 342 013c 00000000 		.word	.LANCHOR4
 343 0140 00000000 		.word	.LANCHOR3
 344              		.cfi_endproc
 345              	.LFE9:
 346              		.size	mem_free, .-mem_free
 347 0144 AFF30080 		.section	.text.mem_trim,"ax",%progbits
 347      AFF30080 
 347      AFF30080 
 348              		.align	2
 349              		.p2align 4,,15
 350              		.global	mem_trim
 351              		.thumb
 352              		.thumb_func
 353              		.type	mem_trim, %function
 354              	mem_trim:
 355              	.LFB10:
 356              		.loc 1 367 0
 357              		.cfi_startproc
 358              		@ args = 0, pretend = 0, frame = 0
 359              		@ frame_needed = 0, uses_anonymous_args = 0
 360              	.LVL13:
 361 0000 2DE9F041 		push	{r4, r5, r6, r7, r8, lr}
 362              	.LCFI2:
 363              		.cfi_def_cfa_offset 24
 364              		.cfi_offset 14, -4
 365              		.cfi_offset 8, -8
 366              		.cfi_offset 7, -12
 367              		.cfi_offset 6, -16
 368              		.cfi_offset 5, -20
 369              		.cfi_offset 4, -24
 370              		.loc 1 376 0
 371 0004 0331     		adds	r1, r1, #3
 372              	.LVL14:
 373 0006 4FF6FC74 		movw	r4, #65532
 374 000a 0C40     		ands	r4, r4, r1
 375              	.LVL15:
 376              		.loc 1 378 0
 377 000c 0B2C     		cmp	r4, #11
 378              		.loc 1 367 0
 379 000e 0546     		mov	r5, r0
 380              		.loc 1 378 0
 381 0010 5BD9     		bls	.L46
 382              		.loc 1 383 0
 383 0012 B4F5C86F 		cmp	r4, #1600
 384 0016 5FD8     		bhi	.L48
 385              	.LVL16:
 386              	.L33:
 387              		.loc 1 387 0
 388 0018 424E     		ldr	r6, .L51
 389 001a 3368     		ldr	r3, [r6, #0]
 390 001c AB42     		cmp	r3, r5
 391 001e 46D8     		bhi	.L35
 392              		.loc 1 387 0 is_stmt 0 discriminator 2
 393 0020 414A     		ldr	r2, .L51+4
 394 0022 1268     		ldr	r2, [r2, #0]
 395 0024 9542     		cmp	r5, r2
 396 0026 42D2     		bcs	.L35
ARM GAS  /var/folders/5n/p_75w94d66l9ssrldxqdhh700000gn/T//cc0BOilB.s 			page 8


 397              	.LVL17:
 398              	.L36:
 399              		.loc 1 400 0 is_stmt 1
 400 0028 A5F10807 		sub	r7, r5, #8
 401              		.loc 1 404 0
 402 002c 35F8088C 		ldrh	r8, [r5, #-8]
 403              		.loc 1 402 0
 404 0030 FF1A     		subs	r7, r7, r3
 405 0032 BFB2     		uxth	r7, r7
 406              	.LVL18:
 407              		.loc 1 404 0
 408 0034 A8F10808 		sub	r8, r8, #8
 409 0038 C7EB0808 		rsb	r8, r7, r8
 410 003c 1FFA88F8 		uxth	r8, r8
 411              	.LVL19:
 412              		.loc 1 405 0
 413 0040 4445     		cmp	r4, r8
 414 0042 4DD8     		bhi	.L49
 415              		.loc 1 410 0
 416 0044 3ED0     		beq	.L34
 417              		.loc 1 416 0
 418 0046 0021     		movs	r1, #0
 419 0048 3848     		ldr	r0, .L51+8
 420 004a FFF7FEFF 		bl	sys_arch_sem_wait
 421              		.loc 1 418 0
 422 004e 3368     		ldr	r3, [r6, #0]
 423 0050 35F8082C 		ldrh	r2, [r5, #-8]
 424 0054 9918     		adds	r1, r3, r2
 425              	.LVL20:
 426              		.loc 1 419 0
 427 0056 0879     		ldrb	r0, [r1, #4]	@ zero_extendqisi2
 428 0058 0028     		cmp	r0, #0
 429 005a 45D1     		bne	.L39
 430              	.LBB10:
 431              		.loc 1 426 0
 432 005c 344E     		ldr	r6, .L51+12
 433              		.loc 1 423 0
 434 005e 33F802E0 		ldrh	lr, [r3, r2]
 435              	.LVL21:
 436              		.loc 1 426 0
 437 0062 3268     		ldr	r2, [r6, #0]
 438              		.loc 1 425 0
 439 0064 04F10800 		add	r0, r4, #8
 440 0068 3818     		adds	r0, r7, r0
 441 006a 80B2     		uxth	r0, r0
 442              	.LVL22:
 443              		.loc 1 426 0
 444 006c 8A42     		cmp	r2, r1
 445              		.loc 1 427 0
 446 006e 03EB0002 		add	r2, r3, r0
 447 0072 08BF     		it	eq
 448 0074 3260     		streq	r2, [r6, #0]
 449              	.LVL23:
 450              		.loc 1 432 0
 451 0076 A2F800E0 		strh	lr, [r2, #0]	@ movhi
 452              		.loc 1 436 0
 453 007a 25F8080C 		strh	r0, [r5, #-8]	@ movhi
ARM GAS  /var/folders/5n/p_75w94d66l9ssrldxqdhh700000gn/T//cc0BOilB.s 			page 9


 454              		.loc 1 440 0
 455 007e 1188     		ldrh	r1, [r2, #0]
 456              		.loc 1 434 0
 457 0080 5780     		strh	r7, [r2, #2]	@ movhi
 458              		.loc 1 430 0
 459 0082 0026     		movs	r6, #0
 460              		.loc 1 440 0
 461 0084 B1F5C86F 		cmp	r1, #1600
 462              		.loc 1 441 0
 463 0088 18BF     		it	ne
 464 008a 5B18     		addne	r3, r3, r1
 465              		.loc 1 430 0
 466 008c 1671     		strb	r6, [r2, #4]
 467              		.loc 1 441 0
 468 008e 18BF     		it	ne
 469 0090 5880     		strhne	r0, [r3, #2]	@ movhi
 470              	.LVL24:
 471              	.L45:
 472              	.LBE10:
 473              		.loc 1 465 0
 474 0092 284B     		ldr	r3, .L51+16
 475 0094 B3F8AA20 		ldrh	r2, [r3, #170]
 476 0098 A418     		adds	r4, r4, r2
 477 009a C8EB0408 		rsb	r8, r8, r4
 478              	.LVL25:
 479 009e A3F8AA80 		strh	r8, [r3, #170]	@ movhi
 480              	.L43:
 481              		.loc 1 477 0
 482 00a2 2248     		ldr	r0, .L51+8
 483 00a4 FFF7FEFF 		bl	sys_sem_signal
 484              		.loc 1 479 0
 485 00a8 2846     		mov	r0, r5
 486 00aa BDE8F081 		pop	{r4, r5, r6, r7, r8, pc}
 487              	.LVL26:
 488              	.L35:
 489              		.loc 1 387 0 discriminator 1
 490 00ae FFF7FEFF 		bl	port_halt
 491              		.loc 1 390 0 discriminator 1
 492 00b2 3368     		ldr	r3, [r6, #0]
 493 00b4 9D42     		cmp	r5, r3
 494 00b6 0AD2     		bcs	.L50
 495              	.L37:
 496              		.loc 1 395 0
 497 00b8 1E4B     		ldr	r3, .L51+16
 498 00ba B3F8B020 		ldrh	r2, [r3, #176]
 499 00be 0132     		adds	r2, r2, #1
 500 00c0 A3F8B020 		strh	r2, [r3, #176]	@ movhi
 501              	.LVL27:
 502              	.L34:
 503              		.loc 1 479 0
 504 00c4 2846     		mov	r0, r5
 505 00c6 BDE8F081 		pop	{r4, r5, r6, r7, r8, pc}
 506              	.LVL28:
 507              	.L46:
 508              		.loc 1 380 0
 509 00ca 0C24     		movs	r4, #12
 510              	.LVL29:
ARM GAS  /var/folders/5n/p_75w94d66l9ssrldxqdhh700000gn/T//cc0BOilB.s 			page 10


 511 00cc A4E7     		b	.L33
 512              	.LVL30:
 513              	.L50:
 514              		.loc 1 390 0
 515 00ce 164A     		ldr	r2, .L51+4
 516 00d0 1268     		ldr	r2, [r2, #0]
 517 00d2 9542     		cmp	r5, r2
 518 00d4 F0D2     		bcs	.L37
 519 00d6 A7E7     		b	.L36
 520              	.LVL31:
 521              	.L48:
 522              		.loc 1 384 0
 523 00d8 0025     		movs	r5, #0
 524              	.LVL32:
 525              		.loc 1 479 0
 526 00da 2846     		mov	r0, r5
 527              	.LVL33:
 528 00dc BDE8F081 		pop	{r4, r5, r6, r7, r8, pc}
 529              	.LVL34:
 530              	.L49:
 531              		.loc 1 405 0 discriminator 1
 532 00e0 FFF7FEFF 		bl	port_halt
 533              		.loc 1 408 0 discriminator 1
 534 00e4 0025     		movs	r5, #0
 535              	.LVL35:
 536 00e6 EDE7     		b	.L34
 537              	.LVL36:
 538              	.L39:
 539              		.loc 1 445 0
 540 00e8 04F11401 		add	r1, r4, #20
 541              	.LVL37:
 542 00ec 4145     		cmp	r1, r8
 543 00ee D8D8     		bhi	.L43
 544              		.loc 1 453 0
 545 00f0 04F10801 		add	r1, r4, #8
 546 00f4 7918     		adds	r1, r7, r1
 547 00f6 89B2     		uxth	r1, r1
 548              	.LVL38:
 549              		.loc 1 455 0
 550 00f8 0D4E     		ldr	r6, .L51+12
 551              		.loc 1 459 0
 552 00fa 5A52     		strh	r2, [r3, r1]	@ movhi
 553              		.loc 1 455 0
 554 00fc D6F800E0 		ldr	lr, [r6, #0]
 555              		.loc 1 461 0
 556 0100 25F8081C 		strh	r1, [r5, #-8]	@ movhi
 557              		.loc 1 454 0
 558 0104 5818     		adds	r0, r3, r1
 559              	.LVL39:
 560              		.loc 1 462 0
 561 0106 5A5A     		ldrh	r2, [r3, r1]
 562              		.loc 1 460 0
 563 0108 4780     		strh	r7, [r0, #2]	@ movhi
 564              		.loc 1 455 0
 565 010a 7045     		cmp	r0, lr
 566              		.loc 1 456 0
 567 010c 38BF     		it	cc
ARM GAS  /var/folders/5n/p_75w94d66l9ssrldxqdhh700000gn/T//cc0BOilB.s 			page 11


 568 010e 3060     		strcc	r0, [r6, #0]
 569              		.loc 1 458 0
 570 0110 0026     		movs	r6, #0
 571              		.loc 1 462 0
 572 0112 B2F5C86F 		cmp	r2, #1600
 573              		.loc 1 463 0
 574 0116 18BF     		it	ne
 575 0118 9B18     		addne	r3, r3, r2
 576              	.LVL40:
 577              		.loc 1 458 0
 578 011a 0671     		strb	r6, [r0, #4]
 579              		.loc 1 463 0
 580 011c 18BF     		it	ne
 581 011e 5980     		strhne	r1, [r3, #2]	@ movhi
 582 0120 B7E7     		b	.L45
 583              	.L52:
 584 0122 00BF     		.align	2
 585              	.L51:
 586 0124 00000000 		.word	.LANCHOR1
 587 0128 00000000 		.word	.LANCHOR2
 588 012c 00000000 		.word	.LANCHOR4
 589 0130 00000000 		.word	.LANCHOR3
 590 0134 00000000 		.word	lwip_stats
 591              		.cfi_endproc
 592              	.LFE10:
 593              		.size	mem_trim, .-mem_trim
 594 0138 AFF30080 		.section	.text.mem_malloc,"ax",%progbits
 594      AFF30080 
 595              		.align	2
 596              		.p2align 4,,15
 597              		.global	mem_malloc
 598              		.thumb
 599              		.thumb_func
 600              		.type	mem_malloc, %function
 601              	mem_malloc:
 602              	.LFB11:
 603              		.loc 1 492 0
 604              		.cfi_startproc
 605              		@ args = 0, pretend = 0, frame = 0
 606              		@ frame_needed = 0, uses_anonymous_args = 0
 607              	.LVL41:
 608 0000 2DE9F843 		push	{r3, r4, r5, r6, r7, r8, r9, lr}
 609              	.LCFI3:
 610              		.cfi_def_cfa_offset 32
 611              		.cfi_offset 14, -4
 612              		.cfi_offset 9, -8
 613              		.cfi_offset 8, -12
 614              		.cfi_offset 7, -16
 615              		.cfi_offset 6, -20
 616              		.cfi_offset 5, -24
 617              		.cfi_offset 4, -28
 618              		.cfi_offset 3, -32
 619              		.loc 1 500 0
 620 0004 0028     		cmp	r0, #0
 621 0006 37D0     		beq	.L54
 622              		.loc 1 506 0
 623 0008 0330     		adds	r0, r0, #3
ARM GAS  /var/folders/5n/p_75w94d66l9ssrldxqdhh700000gn/T//cc0BOilB.s 			page 12


 624              	.LVL42:
 625 000a 4FF6FC75 		movw	r5, #65532
 626 000e 0540     		ands	r5, r5, r0
 627              	.LVL43:
 628              		.loc 1 508 0
 629 0010 0B2D     		cmp	r5, #11
 630 0012 33D9     		bls	.L71
 631              		.loc 1 513 0
 632 0014 B5F5C86F 		cmp	r5, #1600
 633 0018 98BF     		it	ls
 634 001a C5F5C864 		rsbls	r4, r5, #1600
 635 001e 2AD8     		bhi	.L86
 636              	.LVL44:
 637              	.L55:
 638              		.loc 1 518 0
 639 0020 4F48     		ldr	r0, .L93
 640              		.loc 1 529 0
 641 0022 DFF84881 		ldr	r8, .L93+12
 642              		.loc 1 518 0
 643 0026 0021     		movs	r1, #0
 644 0028 FFF7FEFF 		bl	sys_arch_sem_wait
 645              		.loc 1 529 0
 646 002c DFF840C1 		ldr	ip, .L93+16
 647 0030 D8F800E0 		ldr	lr, [r8, #0]
 648 0034 DCF80020 		ldr	r2, [ip, #0]
 649 0038 1FFA82F9 		uxth	r9, r2
 650 003c C9EB0E03 		rsb	r3, r9, lr
 651 0040 9BB2     		uxth	r3, r3
 652              	.L83:
 653              	.LVL45:
 654 0042 A342     		cmp	r3, r4
 655 0044 0BDA     		bge	.L56
 656              	.LVL46:
 657              	.L88:
 658              		.loc 1 531 0
 659 0046 D618     		adds	r6, r2, r3
 660              	.LVL47:
 661              		.loc 1 543 0
 662 0048 3179     		ldrb	r1, [r6, #4]	@ zero_extendqisi2
 663 004a D9B9     		cbnz	r1, .L57
 664              		.loc 1 544 0 discriminator 1
 665 004c D05A     		ldrh	r0, [r2, r3]
 666 004e A0F10807 		sub	r7, r0, #8
 667 0052 FF1A     		subs	r7, r7, r3
 668              		.loc 1 543 0 discriminator 1
 669 0054 AF42     		cmp	r7, r5
 670 0056 17D2     		bcs	.L87
 671              		.loc 1 544 0
 672 0058 0346     		mov	r3, r0
 673              	.LVL48:
 674              		.loc 1 529 0
 675 005a A342     		cmp	r3, r4
 676 005c F3DB     		blt	.L88
 677              	.LVL49:
 678              	.L56:
 679              		.loc 1 612 0
 680 005e 414B     		ldr	r3, .L93+4
ARM GAS  /var/folders/5n/p_75w94d66l9ssrldxqdhh700000gn/T//cc0BOilB.s 			page 13


 681              		.loc 1 614 0
 682 0060 3F48     		ldr	r0, .L93
 683              		.loc 1 612 0
 684 0062 B3F8AE20 		ldrh	r2, [r3, #174]
 685 0066 0132     		adds	r2, r2, #1
 686 0068 A3F8AE20 		strh	r2, [r3, #174]	@ movhi
 687              		.loc 1 614 0
 688 006c FFF7FEFF 		bl	sys_sem_signal
 689              		.loc 1 615 0
 690 0070 0020     		movs	r0, #0
 691 0072 BDE8F883 		pop	{r3, r4, r5, r6, r7, r8, r9, pc}
 692              	.LVL50:
 693              	.L86:
 694              		.loc 1 514 0
 695 0076 0020     		movs	r0, #0
 696              	.LVL51:
 697              	.L54:
 698              		.loc 1 616 0
 699 0078 BDE8F883 		pop	{r3, r4, r5, r6, r7, r8, r9, pc}
 700              	.LVL52:
 701              	.L71:
 702              		.loc 1 508 0
 703 007c 40F23464 		movw	r4, #1588
 704              		.loc 1 510 0
 705 0080 0C25     		movs	r5, #12
 706              	.LVL53:
 707 0082 CDE7     		b	.L55
 708              	.LVL54:
 709              	.L57:
 710              		.loc 1 604 0
 711 0084 D35A     		ldrh	r3, [r2, r3]
 712 0086 DCE7     		b	.L83
 713              	.L87:
 714              		.loc 1 548 0
 715 0088 05F11404 		add	r4, r5, #20
 716 008c BC42     		cmp	r4, r7
 717 008e 23D9     		bls	.L89
 718              		.loc 1 582 0
 719 0090 344B     		ldr	r3, .L93+4
 720              		.loc 1 581 0
 721 0092 0122     		movs	r2, #1
 722 0094 3271     		strb	r2, [r6, #4]
 723              		.loc 1 582 0
 724 0096 B3F8AA20 		ldrh	r2, [r3, #170]
 725 009a B3F8AC10 		ldrh	r1, [r3, #172]
 726 009e 4A44     		add	r2, r9, r2
 727 00a0 8218     		adds	r2, r0, r2
 728 00a2 921B     		subs	r2, r2, r6
 729 00a4 92B2     		uxth	r2, r2
 730 00a6 9142     		cmp	r1, r2
 731 00a8 A3F8AA20 		strh	r2, [r3, #170]	@ movhi
 732 00ac 38BF     		it	cc
 733 00ae A3F8AC20 		strhcc	r2, [r3, #172]	@ movhi
 734 00b2 05F10804 		add	r4, r5, #8
 735              	.L61:
 736              		.loc 1 585 0
 737 00b6 B645     		cmp	lr, r6
ARM GAS  /var/folders/5n/p_75w94d66l9ssrldxqdhh700000gn/T//cc0BOilB.s 			page 14


 738 00b8 18BF     		it	ne
 739 00ba 2B4D     		ldrne	r5, .L93+8
 740 00bc 38D0     		beq	.L90
 741              	.L62:
 742              		.loc 1 596 0
 743 00be 2848     		ldr	r0, .L93
 744 00c0 FFF7FEFF 		bl	sys_sem_signal
 745              		.loc 1 597 0
 746 00c4 2B68     		ldr	r3, [r5, #0]
 747 00c6 3419     		adds	r4, r6, r4
 748 00c8 A342     		cmp	r3, r4
 749 00ca 2ED3     		bcc	.L91
 750              	.L67:
 751              		.loc 1 599 0
 752 00cc B207     		lsls	r2, r6, #30
 753 00ce 27D1     		bne	.L92
 754              	.L68:
 755              		.loc 1 604 0
 756 00d0 06F10800 		add	r0, r6, #8
 757 00d4 BDE8F883 		pop	{r3, r4, r5, r6, r7, r8, r9, pc}
 758              	.L89:
 759              		.loc 1 559 0
 760 00d8 05F10804 		add	r4, r5, #8
 761 00dc 1F19     		adds	r7, r3, r4
 762 00de BFB2     		uxth	r7, r7
 763              	.LVL55:
 764              		.loc 1 561 0
 765 00e0 02EB0709 		add	r9, r2, r7
 766              	.LVL56:
 767              		.loc 1 563 0
 768 00e4 D053     		strh	r0, [r2, r7]	@ movhi
 769              		.loc 1 566 0
 770 00e6 3780     		strh	r7, [r6, #0]	@ movhi
 771              		.loc 1 569 0
 772 00e8 D05B     		ldrh	r0, [r2, r7]
 773              		.loc 1 564 0
 774 00ea A9F80230 		strh	r3, [r9, #2]	@ movhi
 775              		.loc 1 567 0
 776 00ee 0123     		movs	r3, #1
 777              		.loc 1 569 0
 778 00f0 B0F5C86F 		cmp	r0, #1600
 779              		.loc 1 562 0
 780 00f4 89F80410 		strb	r1, [r9, #4]
 781              		.loc 1 570 0
 782 00f8 18BF     		it	ne
 783 00fa 1218     		addne	r2, r2, r0
 784              		.loc 1 567 0
 785 00fc 3371     		strb	r3, [r6, #4]
 786              		.loc 1 572 0
 787 00fe 194B     		ldr	r3, .L93+4
 788              		.loc 1 570 0
 789 0100 18BF     		it	ne
 790 0102 5780     		strhne	r7, [r2, #2]	@ movhi
 791              		.loc 1 572 0
 792 0104 B3F8AA20 		ldrh	r2, [r3, #170]
 793 0108 B3F8AC10 		ldrh	r1, [r3, #172]
 794 010c 0832     		adds	r2, r2, #8
ARM GAS  /var/folders/5n/p_75w94d66l9ssrldxqdhh700000gn/T//cc0BOilB.s 			page 15


 795 010e AA18     		adds	r2, r5, r2
 796 0110 92B2     		uxth	r2, r2
 797 0112 9142     		cmp	r1, r2
 798 0114 A3F8AA20 		strh	r2, [r3, #170]	@ movhi
 799 0118 38BF     		it	cc
 800 011a A3F8AC20 		strhcc	r2, [r3, #172]	@ movhi
 801 011e CAE7     		b	.L61
 802              	.LVL57:
 803              	.L92:
 804              		.loc 1 599 0 discriminator 1
 805 0120 FFF7FEFF 		bl	port_halt
 806              		.loc 1 601 0 discriminator 1
 807 0124 FFF7FEFF 		bl	port_halt
 808 0128 D2E7     		b	.L68
 809              	.L91:
 810              		.loc 1 597 0 discriminator 1
 811 012a FFF7FEFF 		bl	port_halt
 812 012e CDE7     		b	.L67
 813              	.L90:
 814              		.loc 1 587 0 discriminator 1
 815 0130 9EF80430 		ldrb	r3, [lr, #4]	@ zero_extendqisi2
 816 0134 0C4D     		ldr	r5, .L93+8
 817 0136 002B     		cmp	r3, #0
 818 0138 C1D0     		beq	.L62
 819              		.loc 1 587 0 is_stmt 0
 820 013a 2A68     		ldr	r2, [r5, #0]
 821 013c 9645     		cmp	lr, r2
 822 013e BED0     		beq	.L62
 823 0140 DCF80010 		ldr	r1, [ip, #0]
 824 0144 01E0     		b	.L66
 825              	.L65:
 826              		.loc 1 587 0 discriminator 2
 827 0146 9645     		cmp	lr, r2
 828 0148 06D0     		beq	.L85
 829              	.L66:
 830              		.loc 1 591 0 is_stmt 1
 831 014a BEF800E0 		ldrh	lr, [lr, #0]
 832 014e 8E44     		add	lr, r1, lr
 833              		.loc 1 587 0
 834 0150 9EF80430 		ldrb	r3, [lr, #4]	@ zero_extendqisi2
 835 0154 002B     		cmp	r3, #0
 836 0156 F6D1     		bne	.L65
 837              	.L85:
 838 0158 C8F800E0 		str	lr, [r8, #0]
 839 015c AFE7     		b	.L62
 840              	.L94:
 841 015e 00BF     		.align	2
 842              	.L93:
 843 0160 00000000 		.word	.LANCHOR4
 844 0164 00000000 		.word	lwip_stats
 845 0168 00000000 		.word	.LANCHOR2
 846 016c 00000000 		.word	.LANCHOR3
 847 0170 00000000 		.word	.LANCHOR1
 848              		.cfi_endproc
 849              	.LFE11:
 850              		.size	mem_malloc, .-mem_malloc
 851 0174 AFF30080 		.section	.text.mem_calloc,"ax",%progbits
ARM GAS  /var/folders/5n/p_75w94d66l9ssrldxqdhh700000gn/T//cc0BOilB.s 			page 16


 851      AFF30080 
 851      AFF30080 
 852              		.align	2
 853              		.p2align 4,,15
 854              		.global	mem_calloc
 855              		.thumb
 856              		.thumb_func
 857              		.type	mem_calloc, %function
 858              	mem_calloc:
 859              	.LFB12:
 860              		.loc 1 630 0
 861              		.cfi_startproc
 862              		@ args = 0, pretend = 0, frame = 0
 863              		@ frame_needed = 0, uses_anonymous_args = 0
 864              	.LVL58:
 865 0000 38B5     		push	{r3, r4, r5, lr}
 866              	.LCFI4:
 867              		.cfi_def_cfa_offset 16
 868              		.cfi_offset 14, -4
 869              		.cfi_offset 5, -8
 870              		.cfi_offset 4, -12
 871              		.cfi_offset 3, -16
 872              		.loc 1 634 0
 873 0002 00FB01F5 		mul	r5, r0, r1
 874 0006 A8B2     		uxth	r0, r5
 875              	.LVL59:
 876 0008 FFF7FEFF 		bl	mem_malloc
 877              	.LVL60:
 878              		.loc 1 635 0
 879 000c 0446     		mov	r4, r0
 880 000e 18B1     		cbz	r0, .L96
 881              		.loc 1 637 0
 882 0010 0021     		movs	r1, #0
 883 0012 2A46     		mov	r2, r5
 884 0014 FFF7FEFF 		bl	memset
 885              	.LVL61:
 886              	.L96:
 887              		.loc 1 640 0
 888 0018 2046     		mov	r0, r4
 889 001a 38BD     		pop	{r3, r4, r5, pc}
 890              		.cfi_endproc
 891              	.LFE12:
 892              		.size	mem_calloc, .-mem_calloc
 893              		.global	ram_heap
 894 001c AFF30080 		.section	.bss.ram_heap,"aw",%nobits
 895              		.align	2
 896              		.set	.LANCHOR0,. + 0
 897              		.type	ram_heap, %object
 898              		.size	ram_heap, 1620
 899              	ram_heap:
 900 0000 00000000 		.space	1620
 900      00000000 
 900      00000000 
 900      00000000 
 900      00000000 
 901              		.section	.bss.lfree,"aw",%nobits
 902              		.align	2
ARM GAS  /var/folders/5n/p_75w94d66l9ssrldxqdhh700000gn/T//cc0BOilB.s 			page 17


 903              		.set	.LANCHOR3,. + 0
 904              		.type	lfree, %object
 905              		.size	lfree, 4
 906              	lfree:
 907 0000 00000000 		.space	4
 908              		.section	.bss.ram_end,"aw",%nobits
 909              		.align	2
 910              		.set	.LANCHOR2,. + 0
 911              		.type	ram_end, %object
 912              		.size	ram_end, 4
 913              	ram_end:
 914 0000 00000000 		.space	4
 915              		.section	.bss.mem_mutex,"aw",%nobits
 916              		.align	2
 917              		.set	.LANCHOR4,. + 0
 918              		.type	mem_mutex, %object
 919              		.size	mem_mutex, 4
 920              	mem_mutex:
 921 0000 00000000 		.space	4
 922              		.section	.bss.ram,"aw",%nobits
 923              		.align	2
 924              		.set	.LANCHOR1,. + 0
 925              		.type	ram, %object
 926              		.size	ram, 4
 927              	ram:
 928 0000 00000000 		.space	4
 929              		.text
 930              	.Letext0:
 931              		.file 2 "/usr/local/summon/lib/gcc/arm-none-eabi/4.6.2/../../../../arm-none-eabi/include/stdint.h"
 932              		.file 3 "../../os/ports/GCC/ARMCMx/chtypes.h"
 933              		.file 4 "../../os/kernel/include/chlists.h"
 934              		.file 5 "../../os/kernel/include/chthreads.h"
 935              		.file 6 "../../os/ports/GCC/ARMCMx/chcore_v7m.h"
 936              		.file 7 "../../os/kernel/include/chsem.h"
 937              		.file 8 "../../os/kernel/include/chmtx.h"
 938              		.file 9 "../../os/various/lwip_bindings/arch/cc.h"
 939              		.file 10 "../../ext/lwip/src/include/lwip/mem.h"
 940              		.file 11 "../../os/various/lwip_bindings/arch/sys_arch.h"
 941              		.file 12 "../../ext/lwip/src/include/lwip/stats.h"
 942              		.file 13 "../../ext/lwip/src/include/lwip/memp.h"