ARM GAS  /var/folders/5n/p_75w94d66l9ssrldxqdhh700000gn/T//ccpaw5tw.s 			page 1


   1              		.syntax unified
   2              		.cpu cortex-m4
   3              		.fpu softvfp
   4              		.eabi_attribute 20, 1
   5              		.eabi_attribute 21, 1
   6              		.eabi_attribute 23, 3
   7              		.eabi_attribute 24, 1
   8              		.eabi_attribute 25, 1
   9              		.eabi_attribute 26, 1
  10              		.eabi_attribute 30, 2
  11              		.eabi_attribute 18, 4
  12              		.thumb
  13              		.file	"memp.c"
  14              		.text
  15              	.Ltext0:
  16              		.cfi_sections	.debug_frame
  17              		.section	.text.memp_init,"ax",%progbits
  18              		.align	2
  19              		.p2align 4,,15
  20              		.global	memp_init
  21              		.thumb
  22              		.thumb_func
  23              		.type	memp_init, %function
  24              	memp_init:
  25              	.LFB7:
  26              		.file 1 "../../ext/lwip/src/core/memp.c"
  27              		.loc 1 338 0
  28              		.cfi_startproc
  29              		@ args = 0, pretend = 0, frame = 0
  30              		@ frame_needed = 0, uses_anonymous_args = 0
  31              		@ link register save eliminated.
  32              	.LVL0:
  33              		.loc 1 359 0
  34 0000 214B     		ldr	r3, .L10
  35 0002 2249     		ldr	r1, .L10+4
  36              		.loc 1 338 0
  37 0004 2DE9F00F 		push	{r4, r5, r6, r7, r8, r9, sl, fp}
  38              	.LCFI0:
  39              		.cfi_def_cfa_offset 32
  40              		.cfi_offset 11, -4
  41              		.cfi_offset 10, -8
  42              		.cfi_offset 9, -12
  43              		.cfi_offset 8, -16
  44              		.cfi_offset 7, -20
  45              		.cfi_offset 6, -24
  46              		.cfi_offset 5, -28
  47              		.cfi_offset 4, -32
  48              		.loc 1 343 0
  49 0008 0022     		movs	r2, #0
  50              		.loc 1 337 0
  51 000a 03F18C04 		add	r4, r3, #140
  52              	.LVL1:
  53              	.L2:
  54              		.loc 1 346 0 discriminator 2
  55 000e 31F8020F 		ldrh	r0, [r1, #2]!
  56              		.loc 1 343 0 discriminator 2
  57 0012 A3F8B420 		strh	r2, [r3, #180]	@ movhi
ARM GAS  /var/folders/5n/p_75w94d66l9ssrldxqdhh700000gn/T//ccpaw5tw.s 			page 2


  58              		.loc 1 344 0 discriminator 2
  59 0016 A3F8B620 		strh	r2, [r3, #182]	@ movhi
  60              		.loc 1 345 0 discriminator 2
  61 001a A3F8B820 		strh	r2, [r3, #184]	@ movhi
  62              		.loc 1 346 0 discriminator 2
  63 001e A3F8B200 		strh	r0, [r3, #178]	@ movhi
  64 0022 0A33     		adds	r3, r3, #10
  65              		.loc 1 342 0 discriminator 2
  66 0024 A342     		cmp	r3, r4
  67 0026 F2D1     		bne	.L2
  68              		.loc 1 350 0
  69 0028 194F     		ldr	r7, .L10+8
  70 002a 1A4B     		ldr	r3, .L10+12
  71 002c DFF868A0 		ldr	sl, .L10+16
  72              		.loc 1 359 0
  73 0030 DFF868B0 		ldr	fp, .L10+20
  74              		.loc 1 337 0
  75 0034 0026     		movs	r6, #0
  76              		.loc 1 350 0
  77 0036 23F0030C 		bic	ip, r3, #3
  78              	.LVL2:
  79              		.loc 1 337 0
  80 003a 07F13809 		add	r9, r7, #56
  81              		.loc 1 354 0
  82 003e B046     		mov	r8, r6
  83              	.LVL3:
  84              	.L5:
  85              		.loc 1 359 0
  86 0040 3AF80650 		ldrh	r5, [sl, r6]
  87              		.loc 1 354 0
  88 0044 47F8048B 		str	r8, [r7], #4
  89              	.LVL4:
  90              		.loc 1 359 0
  91 0048 BDB1     		cbz	r5, .L3
  92 004a 0021     		movs	r1, #0
  93 004c 36F80B40 		ldrh	r4, [r6, fp]
  94 0050 6346     		mov	r3, ip
  95 0052 0A46     		mov	r2, r1
  96 0054 01E0     		b	.L4
  97              	.LVL5:
  98              	.L6:
  99 0056 1946     		mov	r1, r3
 100              		.loc 1 362 0
 101 0058 0346     		mov	r3, r0
 102              	.LVL6:
 103              	.L4:
 104              		.loc 1 359 0 discriminator 2
 105 005a 0132     		adds	r2, r2, #1
 106 005c 92B2     		uxth	r2, r2
 107 005e AA42     		cmp	r2, r5
 108              		.loc 1 360 0 discriminator 2
 109 0060 1960     		str	r1, [r3, #0]
 110              		.loc 1 362 0 discriminator 2
 111 0062 03EB0400 		add	r0, r3, r4
 112              	.LVL7:
 113              		.loc 1 359 0 discriminator 2
 114 0066 F6D1     		bne	.L6
ARM GAS  /var/folders/5n/p_75w94d66l9ssrldxqdhh700000gn/T//ccpaw5tw.s 			page 3


 115              		.loc 1 337 0
 116 0068 013A     		subs	r2, r2, #1
 117              	.LVL8:
 118 006a 92B2     		uxth	r2, r2
 119              	.LVL9:
 120 006c 04FB02C3 		mla	r3, r4, r2, ip
 121 0070 02FB0444 		mla	r4, r2, r4, r4
 122 0074 A444     		add	ip, ip, r4
 123 0076 47F8043C 		str	r3, [r7, #-4]
 124              	.LVL10:
 125              	.L3:
 126 007a 0236     		adds	r6, r6, #2
 127              		.loc 1 353 0
 128 007c 4F45     		cmp	r7, r9
 129 007e DFD1     		bne	.L5
 130              		.loc 1 374 0
 131 0080 BDE8F00F 		pop	{r4, r5, r6, r7, r8, r9, sl, fp}
 132 0084 7047     		bx	lr
 133              	.L11:
 134 0086 00BF     		.align	2
 135              	.L10:
 136 0088 00000000 		.word	lwip_stats
 137 008c FEFFFFFF 		.word	.LANCHOR0-2
 138 0090 00000000 		.word	.LANCHOR2
 139 0094 03000000 		.word	.LANCHOR1+3
 140 0098 00000000 		.word	.LANCHOR0
 141 009c 00000000 		.word	.LANCHOR3
 142              		.cfi_endproc
 143              	.LFE7:
 144              		.size	memp_init, .-memp_init
 145              		.section	.text.memp_malloc,"ax",%progbits
 146              		.align	2
 147              		.p2align 4,,15
 148              		.global	memp_malloc
 149              		.thumb
 150              		.thumb_func
 151              		.type	memp_malloc, %function
 152              	memp_malloc:
 153              	.LFB8:
 154              		.loc 1 393 0
 155              		.cfi_startproc
 156              		@ args = 0, pretend = 0, frame = 0
 157              		@ frame_needed = 0, uses_anonymous_args = 0
 158              	.LVL11:
 159              		.loc 1 397 0
 160 0000 0D28     		cmp	r0, #13
 161              		.loc 1 393 0
 162 0002 38B5     		push	{r3, r4, r5, lr}
 163              	.LCFI1:
 164              		.cfi_def_cfa_offset 16
 165              		.cfi_offset 14, -4
 166              		.cfi_offset 5, -8
 167              		.cfi_offset 4, -12
 168              		.cfi_offset 3, -16
 169              		.loc 1 397 0
 170 0004 2BD8     		bhi	.L17
 171              		.loc 1 404 0
ARM GAS  /var/folders/5n/p_75w94d66l9ssrldxqdhh700000gn/T//ccpaw5tw.s 			page 4


 172 0006 184A     		ldr	r2, .L19
 173 0008 52F82040 		ldr	r4, [r2, r0, lsl #2]
 174              	.LVL12:
 175              		.loc 1 406 0
 176 000c DCB1     		cbz	r4, .L15
 177              		.loc 1 413 0
 178 000e 174B     		ldr	r3, .L19+4
 179              		.loc 1 407 0
 180 0010 2168     		ldr	r1, [r4, #0]
 181              		.loc 1 413 0
 182 0012 00EB8005 		add	r5, r0, r0, lsl #2
 183 0016 03EB4503 		add	r3, r3, r5, lsl #1
 184              		.loc 1 407 0
 185 001a 42F82010 		str	r1, [r2, r0, lsl #2]
 186              		.loc 1 413 0
 187 001e B3F8B420 		ldrh	r2, [r3, #180]
 188              	.LVL13:
 189 0022 B3F8B610 		ldrh	r1, [r3, #182]
 190 0026 0132     		adds	r2, r2, #1
 191 0028 92B2     		uxth	r2, r2
 192 002a 9142     		cmp	r1, r2
 193 002c A3F8B420 		strh	r2, [r3, #180]	@ movhi
 194 0030 38BF     		it	cc
 195 0032 A3F8B620 		strhcc	r2, [r3, #182]	@ movhi
 196              		.loc 1 414 0
 197 0036 A307     		lsls	r3, r4, #30
 198 0038 01D1     		bne	.L18
 199              	.LVL14:
 200              	.L14:
 201              		.loc 1 425 0
 202 003a 2046     		mov	r0, r4
 203 003c 38BD     		pop	{r3, r4, r5, pc}
 204              	.LVL15:
 205              	.L18:
 206              		.loc 1 414 0 discriminator 1
 207 003e FFF7FEFF 		bl	port_halt
 208              	.LVL16:
 209              		.loc 1 425 0 discriminator 1
 210 0042 2046     		mov	r0, r4
 211 0044 38BD     		pop	{r3, r4, r5, pc}
 212              	.LVL17:
 213              	.L15:
 214              		.loc 1 419 0
 215 0046 094B     		ldr	r3, .L19+4
 216 0048 00EB8000 		add	r0, r0, r0, lsl #2
 217              	.LVL18:
 218 004c 03EB4000 		add	r0, r3, r0, lsl #1
 219 0050 B0F8B830 		ldrh	r3, [r0, #184]
 220 0054 0133     		adds	r3, r3, #1
 221 0056 A0F8B830 		strh	r3, [r0, #184]	@ movhi
 222              		.loc 1 425 0
 223 005a 2046     		mov	r0, r4
 224 005c 38BD     		pop	{r3, r4, r5, pc}
 225              	.LVL19:
 226              	.L17:
 227              		.loc 1 397 0 discriminator 1
 228 005e FFF7FEFF 		bl	port_halt
ARM GAS  /var/folders/5n/p_75w94d66l9ssrldxqdhh700000gn/T//ccpaw5tw.s 			page 5


 229              	.LVL20:
 230 0062 0024     		movs	r4, #0
 231 0064 E9E7     		b	.L14
 232              	.L20:
 233 0066 00BF     		.align	2
 234              	.L19:
 235 0068 00000000 		.word	.LANCHOR2
 236 006c 00000000 		.word	lwip_stats
 237              		.cfi_endproc
 238              	.LFE8:
 239              		.size	memp_malloc, .-memp_malloc
 240              		.section	.text.memp_free,"ax",%progbits
 241              		.align	2
 242              		.p2align 4,,15
 243              		.global	memp_free
 244              		.thumb
 245              		.thumb_func
 246              		.type	memp_free, %function
 247              	memp_free:
 248              	.LFB9:
 249              		.loc 1 435 0
 250              		.cfi_startproc
 251              		@ args = 0, pretend = 0, frame = 0
 252              		@ frame_needed = 0, uses_anonymous_args = 0
 253              	.LVL21:
 254 0000 38B5     		push	{r3, r4, r5, lr}
 255              	.LCFI2:
 256              		.cfi_def_cfa_offset 16
 257              		.cfi_offset 14, -4
 258              		.cfi_offset 5, -8
 259              		.cfi_offset 4, -12
 260              		.cfi_offset 3, -16
 261              		.loc 1 439 0
 262 0002 0C46     		mov	r4, r1
 263              		.loc 1 435 0
 264 0004 0546     		mov	r5, r0
 265              		.loc 1 439 0
 266 0006 89B1     		cbz	r1, .L21
 267              		.loc 1 442 0
 268 0008 8A07     		lsls	r2, r1, #30
 269 000a 10D1     		bne	.L24
 270              	.LVL22:
 271              	.L23:
 272              		.loc 1 457 0
 273 000c 094A     		ldr	r2, .L25
 274              		.loc 1 459 0
 275 000e 0A4B     		ldr	r3, .L25+4
 276              		.loc 1 457 0
 277 0010 05EB8501 		add	r1, r5, r5, lsl #2
 278 0014 02EB4102 		add	r2, r2, r1, lsl #1
 279              		.loc 1 459 0
 280 0018 53F82510 		ldr	r1, [r3, r5, lsl #2]
 281              		.loc 1 457 0
 282 001c B2F8B400 		ldrh	r0, [r2, #180]
 283 0020 0138     		subs	r0, r0, #1
 284 0022 A2F8B400 		strh	r0, [r2, #180]	@ movhi
 285              		.loc 1 459 0
ARM GAS  /var/folders/5n/p_75w94d66l9ssrldxqdhh700000gn/T//ccpaw5tw.s 			page 6


 286 0026 2160     		str	r1, [r4, #0]
 287              		.loc 1 460 0
 288 0028 43F82540 		str	r4, [r3, r5, lsl #2]
 289              	.LVL23:
 290              	.L21:
 291 002c 38BD     		pop	{r3, r4, r5, pc}
 292              	.LVL24:
 293              	.L24:
 294              		.loc 1 442 0 discriminator 1
 295 002e FFF7FEFF 		bl	port_halt
 296              	.LVL25:
 297 0032 EBE7     		b	.L23
 298              	.L26:
 299              		.align	2
 300              	.L25:
 301 0034 00000000 		.word	lwip_stats
 302 0038 00000000 		.word	.LANCHOR2
 303              		.cfi_endproc
 304              	.LFE9:
 305              		.size	memp_free, .-memp_free
 306 003c AFF30080 		.section	.rodata.memp_num,"a",%progbits
 307              		.align	2
 308              		.set	.LANCHOR0,. + 0
 309              		.type	memp_num, %object
 310              		.size	memp_num, 28
 311              	memp_num:
 312 0000 0400     		.short	4
 313 0002 0400     		.short	4
 314 0004 0500     		.short	5
 315 0006 0800     		.short	8
 316 0008 1000     		.short	16
 317 000a 0500     		.short	5
 318 000c 0F00     		.short	15
 319 000e 0200     		.short	2
 320 0010 0400     		.short	4
 321 0012 0800     		.short	8
 322 0014 0800     		.short	8
 323 0016 0300     		.short	3
 324 0018 1000     		.short	16
 325 001a 1000     		.short	16
 326              		.section	.bss.memp_memory,"aw",%nobits
 327              		.align	2
 328              		.set	.LANCHOR1,. + 0
 329              		.type	memp_memory, %object
 330              		.size	memp_memory, 12655
 331              	memp_memory:
 332 0000 00000000 		.space	12655
 332      00000000 
 332      00000000 
 332      00000000 
 332      00000000 
 333 316f 00       		.section	.bss.memp_tab,"aw",%nobits
 334              		.align	2
 335              		.set	.LANCHOR2,. + 0
 336              		.type	memp_tab, %object
 337              		.size	memp_tab, 56
 338              	memp_tab:
ARM GAS  /var/folders/5n/p_75w94d66l9ssrldxqdhh700000gn/T//ccpaw5tw.s 			page 7


 339 0000 00000000 		.space	56
 339      00000000 
 339      00000000 
 339      00000000 
 339      00000000 
 340              		.section	.rodata.memp_sizes,"a",%progbits
 341              		.align	2
 342              		.set	.LANCHOR3,. + 0
 343              		.type	memp_sizes, %object
 344              		.size	memp_sizes, 28
 345              	memp_sizes:
 346 0000 1C00     		.short	28
 347 0002 2000     		.short	32
 348 0004 A400     		.short	164
 349 0006 2000     		.short	32
 350 0008 1000     		.short	16
 351 000a 2000     		.short	32
 352 000c 1800     		.short	24
 353 000e 1000     		.short	16
 354 0010 2C00     		.short	44
 355 0012 1400     		.short	20
 356 0014 1400     		.short	20
 357 0016 1000     		.short	16
 358 0018 1000     		.short	16
 359 001a 6002     		.short	608
 360              		.text
 361              	.Letext0:
 362              		.file 2 "/usr/local/summon/lib/gcc/arm-none-eabi/4.6.2/../../../../arm-none-eabi/include/stdint.h"
 363              		.file 3 "../../os/various/lwip_bindings/arch/cc.h"
 364              		.file 4 "../../ext/lwip/src/include/lwip/memp.h"
 365              		.file 5 "../../ext/lwip/src/include/lwip/mem.h"
 366              		.file 6 "../../ext/lwip/src/include/lwip/stats.h"