ARM GAS  /var/folders/5n/p_75w94d66l9ssrldxqdhh700000gn/T//ccpaw5tw.s 			page 1


   1              		.syntax unified
   2              		.cpu cortex-m4
   3              		.fpu softvfp
   4              		.eabi_attribute 20, 1
   5              		.eabi_attribute 21, 1
   6              		.eabi_attribute 23, 3
   7              		.eabi_attribute 24, 1
   8              		.eabi_attribute 25, 1
   9              		.eabi_attribute 26, 1
  10              		.eabi_attribute 30, 2
  11              		.eabi_attribute 18, 4
  12              		.thumb
  13              		.file	"memp.c"
  14              		.text
  15              	.Ltext0:
  16              		.cfi_sections	.debug_frame
  17              		.section	.text.memp_init,"ax",%progbits
  18              		.align	2
  19              		.p2align 4,,15
  20              		.global	memp_init
  21              		.thumb
  22              		.thumb_func
  23              		.type	memp_init, %function
  24              	memp_init:
  25              	.LFB7:
  26              		.file 1 "../../ext/lwip/src/core/memp.c"
  27              		.loc 1 338 0
  28              		.cfi_startproc
  29              		@ args = 0, pretend = 0, frame = 0
  30              		@ frame_needed = 0, uses_anonymous_args = 0
  31              		@ link register save eliminated.
  32              	.LVL0:
  33              		.loc 1 359 0
  34 0000 214B     		ldr	r3, .L10
  35 0002 2249     		ldr	r1, .L10+4
  36              		.loc 1 338 0
  37 0004 2DE9F00F 		push	{r4, r5, r6, r7, r8, r9, sl, fp}
  38              	.LCFI0:
  39              		.cfi_def_cfa_offset 32
  40              		.cfi_offset 11, -4
  41              		.cfi_offset 10, -8
  42              		.cfi_offset 9, -12
  43              		.cfi_offset 8, -16
  44              		.cfi_offset 7, -20
  45              		.cfi_offset 6, -24
  46              		.cfi_offset 5, -28
  47              		.cfi_offset 4, -32
  48              		.loc 1 343 0
  49 0008 0022     		movs	r2, #0
  50              		.loc 1 337 0
  51 000a 03F18C04 		add	r4, r3, #140
  52              	.LVL1:
  53              	.L2:
  54              		.loc 1 346 0 discriminator 2
  55 000e 31F8020F 		ldrh	r0, [r1, #2]!
  56              		.loc 1 343 0 discriminator 2
  57 0012 A3F8B420 		strh	r2, [r3, #180]	@ movhi
ARM GAS  /var/folders/5n/p_75w94d66l9ssrldxqdhh700000gn/T//ccpaw5tw.s 			page 2


  58              		.loc 1 344 0 discriminator 2
  59 0016 A3F8B620 		strh	r2, [r3, #182]	@ movhi
  60              		.loc 1 345 0 discriminator 2
  61 001a A3F8B820 		strh	r2, [r3, #184]	@ movhi
  62              		.loc 1 346 0 discriminator 2
  63 001e A3F8B200 		strh	r0, [r3, #178]	@ movhi
  64 0022 0A33     		adds	r3, r3, #10
  65              		.loc 1 342 0 discriminator 2
  66 0024 A342     		cmp	r3, r4
  67 0026 F2D1     		bne	.L2
  68              		.loc 1 350 0
  69 0028 194F     		ldr	r7, .L10+8
  70 002a 1A4B     		ldr	r3, .L10+12
  71 002c DFF868A0 		ldr	sl, .L10+16
  72              		.loc 1 359 0
  73 0030 DFF868B0 		ldr	fp, .L10+20
  74              		.loc 1 337 0
  75 0034 0026     		movs	r6, #0
  76              		.loc 1 350 0
  77 0036 23F0030C 		bic	ip, r3, #3
  78              	.LVL2:
  79              		.loc 1 337 0
  80 003a 07F13809 		add	r9, r7, #56
  81              		.loc 1 354 0
  82 003e B046     		mov	r8, r6
  83              	.LVL3:
  84              	.L5:
  85              		.loc 1 359 0
  86 0040 3AF80650 		ldrh	r5, [sl, r6]
  87              		.loc 1 354 0
  88 0044 47F8048B 		str	r8, [r7], #4
  89              	.LVL4:
  90              		.loc 1 359 0
  91 0048 BDB1     		cbz	r5, .L3
  92 004a 0021     		movs	r1, #0
  93 004c 36F80B40 		ldrh	r4, [r6, fp]
  94 0050 6346     		mov	r3, ip
  95 0052 0A46     		mov	r2, r1
  96 0054 01E0     		b	.L4
  97              	.LVL5:
  98              	.L6:
  99 0056 1946     		mov	r1, r3
 100              		.loc 1 362 0
 101 0058 0346     		mov	r3, r0
 102              	.LVL6:
 103              	.L4:
 104              		.loc 1 359 0 discriminator 2
 105 005a 0132     		adds	r2, r2, #1
 106 005c 92B2     		uxth	r2, r2
 107 005e AA42     		cmp	r2, r5
 108              		.loc 1 360 0 discriminator 2
 109 0060 1960     		str	r1, [r3, #0]
 110              		.loc 1 362 0 discriminator 2
 111 0062 03EB0400 		add	r0, r3, r4
 112              	.LVL7:
 113              		.loc 1 359 0 discriminator 2
 114 0066 F6D1     		bne	.L6
ARM GAS  /var/folders/5n/p_75w94d66l9ssrldxqdhh700000gn/T//ccpaw5tw.s 			page 3


 115              		.loc 1 337 0
 116 0068 013A     		subs	r2, r2, #1
 117              	.LVL8:
 118 006a 92B2     		uxth	r2, r2
 119              	.LVL9:
 120 006c 04FB02C3 		mla	r3, r4, r2, ip
 121 0070 02FB0444 		mla	r4, r2, r4, r4
 122 0074 A444     		add	ip, ip, r4
 123 0076 47F8043C 		str	r3, [r7, #-4]
 124              	.LVL10:
 125              	.L3:
 126 007a 0236     		adds	r6, r6, #2
 127              		.loc 1 353 0
 128 007c 4F45     		cmp	r7, r9
 129 007e DFD1     		bne	.L5
 130              		.loc 1 374 0
 131 0080 BDE8F00F 		pop	{r4, r5, r6, r7, r8, r9, sl, fp}
 132 0084 7047     		bx	lr
 133              	.L11:
 134 0086 00BF     		.align	2
 135              	.L10:
 136 0088 00000000 		.word	lwip_stats
 137 008c FEFFFFFF 		.word	.LANCHOR0-2
 138 0090 00000000 		.word	.LANCHOR2
 139 0094 03000000 		.word	.LANCHOR1+3
 140 0098 00000000 		.word	.LANCHOR0
 141 009c 00000000 		.word	.LANCHOR3
 142              		.cfi_endproc
 143              	.LFE7:
 144              		.size	memp_init, .-memp_init
 145              		.section	.text.memp_malloc,"ax",%progbits
 146              		.align	2
 147              		.p2align 4,,15
 148              		.global	memp_malloc
 149              		.thumb
 150              		.thumb_func
 151              		.type	memp_malloc, %function
 152              	memp_malloc:
 153              	.LFB8:
 154              		.loc 1 393 0
 155              		.cfi_startproc
 156              		@ args = 0, pretend = 0, frame = 0
 157              		@ frame_needed = 0, uses_anonymous_args = 0
 158              	.LVL11:
 159              		.loc 1 397 0
 160 0000 0D28     		cmp	r0, #13
 161              		.loc 1 393 0
 162 0002 38B5     		push	{r3, r4, r5, lr}
 163              	.LCFI1:
 164              		.cfi_def_cfa_offset 16
 165              		.cfi_offset 14, -4
 166              		.cfi_offset 5, -8
 167              		.cfi_offset 4, -12
 168              		.cfi_offset 3, -16
 169              		.loc 1 397 0
 170 0004 2BD8     		bhi	.L17
 171              		.loc 1 404 0
ARM GAS  /var/folders/5n/p_75w94d66l9ssrldxqdhh700000gn/T//ccpaw5tw.s 			page 4


 172 0006 184A     		ldr	r2, .L19
 173 0008 52F82040 		ldr	r4, [r2, r0, lsl #2]
 174              	.LVL12:
 175              		.loc 1 406 0
 176 000c DCB1     		cbz	r4, .L15
 177              		.loc 1 413 0
 178 000e 174B     		ldr	r3, .L19+4
 179              		.loc 1 407 0
 180 0010 2168     		ldr	r1, [r4, #0]
 181              		.loc 1 413 0
 182 0012 00EB8005 		add	r5, r0, r0, lsl #2
 183 0016 03EB4503 		add	r3, r3, r5, lsl #1
 184              		.loc 1 407 0
 185 001a 42F82010 		str	r1, [r2, r0, lsl #2]
 186              		.loc 1 413 0
 187 001e B3F8B420 		ldrh	r2, [r3, #180]
 188              	.LVL13:
 189 0022 B3F8B610 		ldrh	r1, [r3, #182]
 190 0026 0132     		adds	r2, r2, #1
 191 0028 92B2     		uxth	r2, r2
 192 002a 9142     		cmp	r1, r2
 193 002c A3F8B420 		strh	r2, [r3, #180]	@ movhi
 194 0030 38BF     		it	cc
 195 0032 A3F8B620 		strhcc	r2, [r3, #182]	@ movhi
 196              		.loc 1 414 0
 197 0036 A307     		lsls	r3, r4, #30
 198 0038 01D1     		bne	.L18
 199              	.LVL14:
 200              	.L14:
 201              		.loc 1 425 0
 202 003a 2046     		mov	r0, r4
 203 003c 38BD     		pop	{r3, r4, r5, pc}
 204              	.LVL15:
 205              	.L18:
 206              		.loc 1 414 0 discriminator 1
 207 003e FFF7FEFF 		bl	port_halt
 208              	.LVL16:
 209              		.loc 1 425 0 discriminator 1
 210 0042 2046     		mov	r0, r4
 211 0044 38BD     		pop	{r3, r4, r5, pc}
 212              	.LVL17:
 213              	.L15:
 214              		.loc 1 419 0
 215 0046 094B     		ldr	r3, .L19+4
 216 0048 00EB8000 		add	r0, r0, r0, lsl #2
 217              	.LVL18:
 218 004c 03EB4000 		add	r0, r3, r0, lsl #1
 219 0050 B0F8B830 		ldrh	r3, [r0, #184]
 220 0054 0133     		adds	r3, r3, #1
 221 0056 A0F8B830 		strh	r3, [r0, #184]	@ movhi
 222              		.loc 1 425 0
 223 005a 2046     		mov	r0, r4
 224 005c 38BD     		pop	{r3, r4, r5, pc}
 225              	.LVL19:
 226              	.L17:
 227              		.loc 1 397 0 discriminator 1
 228 005e FFF7FEFF 		bl	port_halt
ARM GAS  /var/folders/5n/p_75w94d66l9ssrldxqdhh700000gn/T//ccpaw5tw.s 			page 5


 229              	.LVL20:
 230 0062 0024     		movs	r4, #0
 231 0064 E9E7     		b	.L14
 232              	.L20:
 233 0066 00BF     		.align	2
 234              	.L19:
 235 0068 00000000 		.word	.LANCHOR2
 236 006c 00000000 		.word	lwip_stats
 237              		.cfi_endproc
 238              	.LFE8:
 239              		.size	memp_malloc, .-memp_malloc
 240              		.section	.text.memp_free,"ax",%progbits
 241              		.align	2
 242              		.p2align 4,,15
 243              		.global	memp_free
 244              		.thumb
 245              		.thumb_func
 246              		.type	memp_free, %function
 247              	memp_free:
 248              	.LFB9:
 249              		.loc 1 435 0
 250              		.cfi_startproc
 251              		@ args = 0, pretend = 0, frame = 0
 252              		@ frame_needed = 0, uses_anonymous_args = 0
 253              	.LVL21:
 254 0000 38B5     		push	{r3, r4, r5, lr}
 255              	.LCFI2:
 256              		.cfi_def_cfa_offset 16
 257              		.cfi_offset 14, -4
 258              		.cfi_offset 5, -8
 259              		.cfi_offset 4, -12
 260              		.cfi_offset 3, -16
 261              		.loc 1 439 0
 262 0002 0C46     		mov	r4, r1
 263              		.loc 1 435 0
 264 0004 0546     		mov	r5, r0
 265              		.loc 1 439 0
 266 0006 89B1     		cbz	r1, .L21
 267              		.loc 1 442 0
 268 0008 8A07     		lsls	r2, r1, #30
 269 000a 10D1     		bne	.L24
 270              	.LVL22:
 271              	.L23:
 272              		.loc 1 457 0
 273 000c 094A     		ldr	r2, .L25
 274              		.loc 1 459 0
 275 000e 0A4B     		ldr	r3, .L25+4
 276              		.loc 1 457 0
 277 0010 05EB8501 		add	r1, r5, r5, lsl #2
 278 0014 02EB4102 		add	r2, r2, r1, lsl #1
 279              		.loc 1 459 0
 280 0018 53F82510 		ldr	r1, [r3, r5, lsl #2]
 281              		.loc 1 457 0
 282 001c B2F8B400 		ldrh	r0, [r2, #180]
 283 0020 0138     		subs	r0, r0, #1
 284 0022 A2F8B400 		strh	r0, [r2, #180]	@ movhi
 285              		.loc 1 459 0
ARM GAS  /var/folders/5n/p_75w94d66l9ssrldxqdhh700000gn/T//ccpaw5tw.s 			page 6


 286 0026 2160     		str	r1, [r4, #0]
 287              		.loc 1 460 0
 288 0028 43F82540 		str	r4, [r3, r5, lsl #2]
 289              	.LVL23:
 290              	.L21:
 291 002c 38BD     		pop	{r3, r4, r5, pc}
 292              	.LVL24:
 293              	.L24:
 294              		.loc 1 442 0 discriminator 1
 295 002e FFF7FEFF 		bl	port_halt
 296              	.LVL25:
 297 0032 EBE7     		b	.L23
 298              	.L26:
 299              		.align	2
 300              	.L25:
 301 0034 00000000 		.word	lwip_stats
 302 0038 00000000 		.word	.LANCHOR2
 303              		.cfi_endproc
 304              	.LFE9:
 305              		.size	memp_free, .-memp_free
 306 003c AFF30080 		.section	.rodata.memp_num,"a",%progbits
 307              		.align	2
 308              		.set	.LANCHOR0,. + 0
 309              		.type	memp_num, %object
 310              		.size	memp_num, 28
 311              	memp_num:
 312 0000 0400     		.short	4
 313 0002 0400     		.short	4
 314 0004 0500     		.short	5
 315 0006 0800     		.short	8
 316 0008 1000     		.short	16
 317 000a 0500     		.short	5
 318 000c 0F00     		.short	15
 319 000e 0200     		.short	2
 320 0010 0400     		.short	4
 321 0012 0800     		.short	8
 322 0014 0800     		.short	8
 323 0016 0300     		.short	3
 324 0018 1000     		.short	16
 325 001a 1000     		.short	16
 326              		.section	.bss.memp_memory,"aw",%nobits
 327              		.align	2
 328              		.set	.LANCHOR1,. + 0
 329              		.type	memp_memory, %object
 330              		.size	memp_memory, 12655
 331              	memp_memory:
 332 0000 00000000 		.space	12655
 332      00000000 
 332      00000000 
 332      00000000 
 332      00000000 
 333 316f 00       		.section	.bss.memp_tab,"aw",%nobits
 334              		.align	2
 335              		.set	.LANCHOR2,. + 0
 336              		.type	memp_tab, %object
 337              		.size	memp_tab, 56
 338              	memp_tab:
ARM GAS  /var/folders/5n/p_75w94d66l9ssrldxqdhh700000gn/T//ccpaw5tw.s 			page 7


 339 0000 00000000 		.space	56
 339      00000000 
 339      00000000 
 339      00000000 
 339      00000000 
 340              		.section	.rodata.memp_sizes,"a",%progbits
 341              		.align	2
 342              		.set	.LANCHOR3,. + 0
 343              		.type	memp_sizes, %object
 344              		.size	memp_sizes, 28
 345              	memp_sizes:
 346 0000 1C00     		.short	28
 347 0002 2000     		.short	32
 348 0004 A400     		.short	164
 349 0006 2000     		.short	32
 350 0008 1000     		.short	16
 351 000a 2000     		.short	32
 352 000c 1800     		.short	24
 353 000e 1000     		.short	16
 354 0010 2C00     		.short	44
 355 0012 1400     		.short	20
 356 0014 1400     		.short	20
 357 0016 1000     		.short	16
 358 0018 1000     		.short	16
 359 001a 6002     		.short	608
 360              		.text
 361              	.Letext0:
 362              		.file 2 "/usr/local/summon/lib/gcc/arm-none-eabi/4.6.2/../../../../arm-none-eabi/include/stdint.h"
 363              		.file 3 "../../os/various/lwip_bindings/arch/cc.h"
 364              		.file 4 "../../ext/lwip/src/include/lwip/memp.h"
 365              		.file 5 "../../ext/lwip/src/include/lwip/mem.h"
 366              		.file 6 "../../ext/lwip/src/include/lwip/stats.h"
 367              		.section	.debug_info,"",%progbits
 368              	.Ldebug_info0:
 369 0000 DD040000 		.4byte	0x4dd
 370 0004 0200     		.2byte	0x2
 371 0006 00000000 		.4byte	.Ldebug_abbrev0
 372 000a 04       		.byte	0x4
 373 000b 01       		.uleb128 0x1
 374 000c 50020000 		.4byte	.LASF67
 375 0010 01       		.byte	0x1
 376 0011 92020000 		.4byte	.LASF68
 377 0015 CE000000 		.4byte	.LASF69
 378 0019 00000000 		.4byte	0
 379 001d 00000000 		.4byte	0
 380 0021 00000000 		.4byte	.Ldebug_ranges0+0
 381 0025 00000000 		.4byte	.Ldebug_line0
 382 0029 02       		.uleb128 0x2
 383 002a 04       		.byte	0x4
 384 002b 05       		.byte	0x5
 385 002c 696E7400 		.ascii	"int\000"
 386 0030 03       		.uleb128 0x3
 387 0031 04       		.byte	0x4
 388 0032 07       		.byte	0x7
 389 0033 20030000 		.4byte	.LASF0
 390 0037 03       		.uleb128 0x3
 391 0038 01       		.byte	0x1
ARM GAS  /var/folders/5n/p_75w94d66l9ssrldxqdhh700000gn/T//ccpaw5tw.s 			page 8


 392 0039 06       		.byte	0x6
 393 003a 9E010000 		.4byte	.LASF1
 394 003e 04       		.uleb128 0x4
 395 003f C6000000 		.4byte	.LASF4
 396 0043 02       		.byte	0x2
 397 0044 2A       		.byte	0x2a
 398 0045 49000000 		.4byte	0x49
 399 0049 03       		.uleb128 0x3
 400 004a 01       		.byte	0x1
 401 004b 08       		.byte	0x8
 402 004c 87010000 		.4byte	.LASF2
 403 0050 03       		.uleb128 0x3
 404 0051 02       		.byte	0x2
 405 0052 05       		.byte	0x5
 406 0053 2E000000 		.4byte	.LASF3
 407 0057 04       		.uleb128 0x4
 408 0058 D0010000 		.4byte	.LASF5
 409 005c 02       		.byte	0x2
 410 005d 36       		.byte	0x36
 411 005e 62000000 		.4byte	0x62
 412 0062 03       		.uleb128 0x3
 413 0063 02       		.byte	0x2
 414 0064 07       		.byte	0x7
 415 0065 F1010000 		.4byte	.LASF6
 416 0069 03       		.uleb128 0x3
 417 006a 04       		.byte	0x4
 418 006b 05       		.byte	0x5
 419 006c 5D010000 		.4byte	.LASF7
 420 0070 04       		.uleb128 0x4
 421 0071 41010000 		.4byte	.LASF8
 422 0075 02       		.byte	0x2
 423 0076 50       		.byte	0x50
 424 0077 7B000000 		.4byte	0x7b
 425 007b 03       		.uleb128 0x3
 426 007c 04       		.byte	0x4
 427 007d 07       		.byte	0x7
 428 007e 80020000 		.4byte	.LASF9
 429 0082 03       		.uleb128 0x3
 430 0083 08       		.byte	0x8
 431 0084 05       		.byte	0x5
 432 0085 4F010000 		.4byte	.LASF10
 433 0089 03       		.uleb128 0x3
 434 008a 08       		.byte	0x8
 435 008b 07       		.byte	0x7
 436 008c B4010000 		.4byte	.LASF11
 437 0090 05       		.uleb128 0x5
 438 0091 04       		.byte	0x4
 439 0092 03       		.uleb128 0x3
 440 0093 01       		.byte	0x1
 441 0094 08       		.byte	0x8
 442 0095 13020000 		.4byte	.LASF12
 443 0099 04       		.uleb128 0x4
 444 009a C9020000 		.4byte	.LASF13
 445 009e 03       		.byte	0x3
 446 009f 3C       		.byte	0x3c
 447 00a0 3E000000 		.4byte	0x3e
 448 00a4 04       		.uleb128 0x4
ARM GAS  /var/folders/5n/p_75w94d66l9ssrldxqdhh700000gn/T//ccpaw5tw.s 			page 9


 449 00a5 CE020000 		.4byte	.LASF14
 450 00a9 03       		.byte	0x3
 451 00aa 3E       		.byte	0x3e
 452 00ab 57000000 		.4byte	0x57
 453 00af 04       		.uleb128 0x4
 454 00b0 95000000 		.4byte	.LASF15
 455 00b4 03       		.byte	0x3
 456 00b5 42       		.byte	0x42
 457 00b6 70000000 		.4byte	0x70
 458 00ba 06       		.uleb128 0x6
 459 00bb 01       		.byte	0x1
 460 00bc 04       		.byte	0x4
 461 00bd 2B       		.byte	0x2b
 462 00be 1D010000 		.4byte	0x11d
 463 00c2 07       		.uleb128 0x7
 464 00c3 B6020000 		.4byte	.LASF16
 465 00c7 00       		.sleb128 0
 466 00c8 07       		.uleb128 0x7
 467 00c9 58000000 		.4byte	.LASF17
 468 00cd 01       		.sleb128 1
 469 00ce 07       		.uleb128 0x7
 470 00cf FB020000 		.4byte	.LASF18
 471 00d3 02       		.sleb128 2
 472 00d4 07       		.uleb128 0x7
 473 00d5 2D010000 		.4byte	.LASF19
 474 00d9 03       		.sleb128 3
 475 00da 07       		.uleb128 0x7
 476 00db 3F000000 		.4byte	.LASF20
 477 00df 04       		.sleb128 4
 478 00e0 07       		.uleb128 0x7
 479 00e1 04020000 		.4byte	.LASF21
 480 00e5 05       		.sleb128 5
 481 00e6 07       		.uleb128 0x7
 482 00e7 B7000000 		.4byte	.LASF22
 483 00eb 06       		.sleb128 6
 484 00ec 07       		.uleb128 0x7
 485 00ed 40030000 		.4byte	.LASF23
 486 00f1 07       		.sleb128 7
 487 00f2 07       		.uleb128 0x7
 488 00f3 EE020000 		.4byte	.LASF24
 489 00f7 08       		.sleb128 8
 490 00f8 07       		.uleb128 0x7
 491 00f9 18020000 		.4byte	.LASF25
 492 00fd 09       		.sleb128 9
 493 00fe 07       		.uleb128 0x7
 494 00ff 76000000 		.4byte	.LASF26
 495 0103 0A       		.sleb128 10
 496 0104 07       		.uleb128 0x7
 497 0105 A6000000 		.4byte	.LASF27
 498 0109 0B       		.sleb128 11
 499 010a 07       		.uleb128 0x7
 500 010b 46020000 		.4byte	.LASF28
 501 010f 0C       		.sleb128 12
 502 0110 07       		.uleb128 0x7
 503 0111 D4020000 		.4byte	.LASF29
 504 0115 0D       		.sleb128 13
 505 0116 07       		.uleb128 0x7
ARM GAS  /var/folders/5n/p_75w94d66l9ssrldxqdhh700000gn/T//ccpaw5tw.s 			page 10


 506 0117 95010000 		.4byte	.LASF30
 507 011b 0E       		.sleb128 14
 508 011c 00       		.byte	0
 509 011d 04       		.uleb128 0x4
 510 011e 38000000 		.4byte	.LASF31
 511 0122 04       		.byte	0x4
 512 0123 2F       		.byte	0x2f
 513 0124 BA000000 		.4byte	0xba
 514 0128 04       		.uleb128 0x4
 515 0129 70010000 		.4byte	.LASF32
 516 012d 05       		.byte	0x5
 517 012e 4B       		.byte	0x4b
 518 012f A4000000 		.4byte	0xa4
 519 0133 08       		.uleb128 0x8
 520 0134 4C000000 		.4byte	.LASF43
 521 0138 18       		.byte	0x18
 522 0139 06       		.byte	0x6
 523 013a 3A       		.byte	0x3a
 524 013b E7010000 		.4byte	0x1e7
 525 013f 09       		.uleb128 0x9
 526 0140 71000000 		.4byte	.LASF33
 527 0144 06       		.byte	0x6
 528 0145 3B       		.byte	0x3b
 529 0146 A4000000 		.4byte	0xa4
 530 014a 02       		.byte	0x2
 531 014b 23       		.byte	0x23
 532 014c 00       		.uleb128 0
 533 014d 09       		.uleb128 0x9
 534 014e 1B030000 		.4byte	.LASF34
 535 0152 06       		.byte	0x6
 536 0153 3C       		.byte	0x3c
 537 0154 A4000000 		.4byte	0xa4
 538 0158 02       		.byte	0x2
 539 0159 23       		.byte	0x23
 540 015a 02       		.uleb128 0x2
 541 015b 0A       		.uleb128 0xa
 542 015c 667700   		.ascii	"fw\000"
 543 015f 06       		.byte	0x6
 544 0160 3D       		.byte	0x3d
 545 0161 A4000000 		.4byte	0xa4
 546 0165 02       		.byte	0x2
 547 0166 23       		.byte	0x23
 548 0167 04       		.uleb128 0x4
 549 0168 09       		.uleb128 0x9
 550 0169 82010000 		.4byte	.LASF35
 551 016d 06       		.byte	0x6
 552 016e 3E       		.byte	0x3e
 553 016f A4000000 		.4byte	0xa4
 554 0173 02       		.byte	0x2
 555 0174 23       		.byte	0x23
 556 0175 06       		.uleb128 0x6
 557 0176 09       		.uleb128 0x9
 558 0177 10000000 		.4byte	.LASF36
 559 017b 06       		.byte	0x6
 560 017c 3F       		.byte	0x3f
 561 017d A4000000 		.4byte	0xa4
 562 0181 02       		.byte	0x2
ARM GAS  /var/folders/5n/p_75w94d66l9ssrldxqdhh700000gn/T//ccpaw5tw.s 			page 11


 563 0182 23       		.byte	0x23
 564 0183 08       		.uleb128 0x8
 565 0184 09       		.uleb128 0x9
 566 0185 9F000000 		.4byte	.LASF37
 567 0189 06       		.byte	0x6
 568 018a 40       		.byte	0x40
 569 018b A4000000 		.4byte	0xa4
 570 018f 02       		.byte	0x2
 571 0190 23       		.byte	0x23
 572 0191 0A       		.uleb128 0xa
 573 0192 09       		.uleb128 0x9
 574 0193 7B010000 		.4byte	.LASF38
 575 0197 06       		.byte	0x6
 576 0198 41       		.byte	0x41
 577 0199 A4000000 		.4byte	0xa4
 578 019d 02       		.byte	0x2
 579 019e 23       		.byte	0x23
 580 019f 0C       		.uleb128 0xc
 581 01a0 09       		.uleb128 0x9
 582 01a1 C3020000 		.4byte	.LASF39
 583 01a5 06       		.byte	0x6
 584 01a6 42       		.byte	0x42
 585 01a7 A4000000 		.4byte	0xa4
 586 01ab 02       		.byte	0x2
 587 01ac 23       		.byte	0x23
 588 01ad 0E       		.uleb128 0xe
 589 01ae 09       		.uleb128 0x9
 590 01af 36020000 		.4byte	.LASF40
 591 01b3 06       		.byte	0x6
 592 01b4 43       		.byte	0x43
 593 01b5 A4000000 		.4byte	0xa4
 594 01b9 02       		.byte	0x2
 595 01ba 23       		.byte	0x23
 596 01bb 10       		.uleb128 0x10
 597 01bc 09       		.uleb128 0x9
 598 01bd E4010000 		.4byte	.LASF41
 599 01c1 06       		.byte	0x6
 600 01c2 44       		.byte	0x44
 601 01c3 A4000000 		.4byte	0xa4
 602 01c7 02       		.byte	0x2
 603 01c8 23       		.byte	0x23
 604 01c9 12       		.uleb128 0x12
 605 01ca 0A       		.uleb128 0xa
 606 01cb 65727200 		.ascii	"err\000"
 607 01cf 06       		.byte	0x6
 608 01d0 45       		.byte	0x45
 609 01d1 A4000000 		.4byte	0xa4
 610 01d5 02       		.byte	0x2
 611 01d6 23       		.byte	0x23
 612 01d7 14       		.uleb128 0x14
 613 01d8 09       		.uleb128 0x9
 614 01d9 24010000 		.4byte	.LASF42
 615 01dd 06       		.byte	0x6
 616 01de 46       		.byte	0x46
 617 01df A4000000 		.4byte	0xa4
 618 01e3 02       		.byte	0x2
 619 01e4 23       		.byte	0x23
ARM GAS  /var/folders/5n/p_75w94d66l9ssrldxqdhh700000gn/T//ccpaw5tw.s 			page 12


 620 01e5 16       		.uleb128 0x16
 621 01e6 00       		.byte	0
 622 01e7 08       		.uleb128 0x8
 623 01e8 8B000000 		.4byte	.LASF44
 624 01ec 0A       		.byte	0xa
 625 01ed 06       		.byte	0x6
 626 01ee 5A       		.byte	0x5a
 627 01ef 3A020000 		.4byte	0x23a
 628 01f3 09       		.uleb128 0x9
 629 01f4 E8020000 		.4byte	.LASF45
 630 01f8 06       		.byte	0x6
 631 01f9 5E       		.byte	0x5e
 632 01fa 28010000 		.4byte	0x128
 633 01fe 02       		.byte	0x2
 634 01ff 23       		.byte	0x23
 635 0200 00       		.uleb128 0
 636 0201 09       		.uleb128 0x9
 637 0202 E3020000 		.4byte	.LASF46
 638 0206 06       		.byte	0x6
 639 0207 5F       		.byte	0x5f
 640 0208 28010000 		.4byte	0x128
 641 020c 02       		.byte	0x2
 642 020d 23       		.byte	0x23
 643 020e 02       		.uleb128 0x2
 644 020f 0A       		.uleb128 0xa
 645 0210 6D617800 		.ascii	"max\000"
 646 0214 06       		.byte	0x6
 647 0215 60       		.byte	0x60
 648 0216 28010000 		.4byte	0x128
 649 021a 02       		.byte	0x2
 650 021b 23       		.byte	0x23
 651 021c 04       		.uleb128 0x4
 652 021d 0A       		.uleb128 0xa
 653 021e 65727200 		.ascii	"err\000"
 654 0222 06       		.byte	0x6
 655 0223 61       		.byte	0x61
 656 0224 A4000000 		.4byte	0xa4
 657 0228 02       		.byte	0x2
 658 0229 23       		.byte	0x23
 659 022a 06       		.uleb128 0x6
 660 022b 09       		.uleb128 0x9
 661 022c 3E020000 		.4byte	.LASF47
 662 0230 06       		.byte	0x6
 663 0231 62       		.byte	0x62
 664 0232 A4000000 		.4byte	0xa4
 665 0236 02       		.byte	0x2
 666 0237 23       		.byte	0x23
 667 0238 08       		.uleb128 0x8
 668 0239 00       		.byte	0
 669 023a 08       		.uleb128 0x8
 670 023b 72020000 		.4byte	.LASF48
 671 023f 06       		.byte	0x6
 672 0240 06       		.byte	0x6
 673 0241 65       		.byte	0x65
 674 0242 71020000 		.4byte	0x271
 675 0246 09       		.uleb128 0x9
 676 0247 E3020000 		.4byte	.LASF46
ARM GAS  /var/folders/5n/p_75w94d66l9ssrldxqdhh700000gn/T//ccpaw5tw.s 			page 13


 677 024b 06       		.byte	0x6
 678 024c 66       		.byte	0x66
 679 024d A4000000 		.4byte	0xa4
 680 0251 02       		.byte	0x2
 681 0252 23       		.byte	0x23
 682 0253 00       		.uleb128 0
 683 0254 0A       		.uleb128 0xa
 684 0255 6D617800 		.ascii	"max\000"
 685 0259 06       		.byte	0x6
 686 025a 67       		.byte	0x67
 687 025b A4000000 		.4byte	0xa4
 688 025f 02       		.byte	0x2
 689 0260 23       		.byte	0x23
 690 0261 02       		.uleb128 0x2
 691 0262 0A       		.uleb128 0xa
 692 0263 65727200 		.ascii	"err\000"
 693 0267 06       		.byte	0x6
 694 0268 68       		.byte	0x68
 695 0269 A4000000 		.4byte	0xa4
 696 026d 02       		.byte	0x2
 697 026e 23       		.byte	0x23
 698 026f 04       		.uleb128 0x4
 699 0270 00       		.byte	0
 700 0271 08       		.uleb128 0x8
 701 0272 AA010000 		.4byte	.LASF49
 702 0276 12       		.byte	0x12
 703 0277 06       		.byte	0x6
 704 0278 6B       		.byte	0x6b
 705 0279 A8020000 		.4byte	0x2a8
 706 027d 0A       		.uleb128 0xa
 707 027e 73656D00 		.ascii	"sem\000"
 708 0282 06       		.byte	0x6
 709 0283 6C       		.byte	0x6c
 710 0284 3A020000 		.4byte	0x23a
 711 0288 02       		.byte	0x2
 712 0289 23       		.byte	0x23
 713 028a 00       		.uleb128 0
 714 028b 09       		.uleb128 0x9
 715 028c EB010000 		.4byte	.LASF50
 716 0290 06       		.byte	0x6
 717 0291 6D       		.byte	0x6d
 718 0292 3A020000 		.4byte	0x23a
 719 0296 02       		.byte	0x2
 720 0297 23       		.byte	0x23
 721 0298 06       		.uleb128 0x6
 722 0299 09       		.uleb128 0x9
 723 029a 21000000 		.4byte	.LASF51
 724 029e 06       		.byte	0x6
 725 029f 6E       		.byte	0x6e
 726 02a0 3A020000 		.4byte	0x23a
 727 02a4 02       		.byte	0x2
 728 02a5 23       		.byte	0x23
 729 02a6 0C       		.uleb128 0xc
 730 02a7 00       		.byte	0
 731 02a8 0B       		.uleb128 0xb
 732 02a9 00000000 		.4byte	.LASF52
 733 02ad 5001     		.2byte	0x150
ARM GAS  /var/folders/5n/p_75w94d66l9ssrldxqdhh700000gn/T//ccpaw5tw.s 			page 14


 734 02af 06       		.byte	0x6
 735 02b0 71       		.byte	0x71
 736 02b1 45030000 		.4byte	0x345
 737 02b5 09       		.uleb128 0x9
 738 02b6 4A010000 		.4byte	.LASF53
 739 02ba 06       		.byte	0x6
 740 02bb 73       		.byte	0x73
 741 02bc 33010000 		.4byte	0x133
 742 02c0 02       		.byte	0x2
 743 02c1 23       		.byte	0x23
 744 02c2 00       		.uleb128 0
 745 02c3 09       		.uleb128 0x9
 746 02c4 08030000 		.4byte	.LASF54
 747 02c8 06       		.byte	0x6
 748 02c9 76       		.byte	0x76
 749 02ca 33010000 		.4byte	0x133
 750 02ce 02       		.byte	0x2
 751 02cf 23       		.byte	0x23
 752 02d0 18       		.uleb128 0x18
 753 02d1 09       		.uleb128 0x9
 754 02d2 26000000 		.4byte	.LASF55
 755 02d6 06       		.byte	0x6
 756 02d7 79       		.byte	0x79
 757 02d8 33010000 		.4byte	0x133
 758 02dc 02       		.byte	0x2
 759 02dd 23       		.byte	0x23
 760 02de 30       		.uleb128 0x30
 761 02df 0A       		.uleb128 0xa
 762 02e0 697000   		.ascii	"ip\000"
 763 02e3 06       		.byte	0x6
 764 02e4 7C       		.byte	0x7c
 765 02e5 33010000 		.4byte	0x133
 766 02e9 02       		.byte	0x2
 767 02ea 23       		.byte	0x23
 768 02eb 48       		.uleb128 0x48
 769 02ec 09       		.uleb128 0x9
 770 02ed 36030000 		.4byte	.LASF56
 771 02f1 06       		.byte	0x6
 772 02f2 7F       		.byte	0x7f
 773 02f3 33010000 		.4byte	0x133
 774 02f7 02       		.byte	0x2
 775 02f8 23       		.byte	0x23
 776 02f9 60       		.uleb128 0x60
 777 02fa 0A       		.uleb128 0xa
 778 02fb 75647000 		.ascii	"udp\000"
 779 02ff 06       		.byte	0x6
 780 0300 85       		.byte	0x85
 781 0301 33010000 		.4byte	0x133
 782 0305 02       		.byte	0x2
 783 0306 23       		.byte	0x23
 784 0307 78       		.uleb128 0x78
 785 0308 0A       		.uleb128 0xa
 786 0309 74637000 		.ascii	"tcp\000"
 787 030d 06       		.byte	0x6
 788 030e 88       		.byte	0x88
 789 030f 33010000 		.4byte	0x133
 790 0313 03       		.byte	0x3
ARM GAS  /var/folders/5n/p_75w94d66l9ssrldxqdhh700000gn/T//ccpaw5tw.s 			page 15


 791 0314 23       		.byte	0x23
 792 0315 9001     		.uleb128 0x90
 793 0317 0A       		.uleb128 0xa
 794 0318 6D656D00 		.ascii	"mem\000"
 795 031c 06       		.byte	0x6
 796 031d 8B       		.byte	0x8b
 797 031e E7010000 		.4byte	0x1e7
 798 0322 03       		.byte	0x3
 799 0323 23       		.byte	0x23
 800 0324 A801     		.uleb128 0xa8
 801 0326 09       		.uleb128 0x9
 802 0327 B1020000 		.4byte	.LASF57
 803 032b 06       		.byte	0x6
 804 032c 8E       		.byte	0x8e
 805 032d 45030000 		.4byte	0x345
 806 0331 03       		.byte	0x3
 807 0332 23       		.byte	0x23
 808 0333 B201     		.uleb128 0xb2
 809 0335 0A       		.uleb128 0xa
 810 0336 73797300 		.ascii	"sys\000"
 811 033a 06       		.byte	0x6
 812 033b 91       		.byte	0x91
 813 033c 71020000 		.4byte	0x271
 814 0340 03       		.byte	0x3
 815 0341 23       		.byte	0x23
 816 0342 BE02     		.uleb128 0x13e
 817 0344 00       		.byte	0
 818 0345 0C       		.uleb128 0xc
 819 0346 E7010000 		.4byte	0x1e7
 820 034a 55030000 		.4byte	0x355
 821 034e 0D       		.uleb128 0xd
 822 034f 30000000 		.4byte	0x30
 823 0353 0D       		.byte	0xd
 824 0354 00       		.byte	0
 825 0355 08       		.uleb128 0x8
 826 0356 B1020000 		.4byte	.LASF57
 827 035a 04       		.byte	0x4
 828 035b 01       		.byte	0x1
 829 035c 42       		.byte	0x42
 830 035d 70030000 		.4byte	0x370
 831 0361 09       		.uleb128 0x9
 832 0362 3B030000 		.4byte	.LASF58
 833 0366 01       		.byte	0x1
 834 0367 43       		.byte	0x43
 835 0368 70030000 		.4byte	0x370
 836 036c 02       		.byte	0x2
 837 036d 23       		.byte	0x23
 838 036e 00       		.uleb128 0
 839 036f 00       		.byte	0
 840 0370 0E       		.uleb128 0xe
 841 0371 04       		.byte	0x4
 842 0372 55030000 		.4byte	0x355
 843 0376 0F       		.uleb128 0xf
 844 0377 01       		.byte	0x1
 845 0378 66010000 		.4byte	.LASF59
 846 037c 01       		.byte	0x1
 847 037d 5101     		.2byte	0x151
ARM GAS  /var/folders/5n/p_75w94d66l9ssrldxqdhh700000gn/T//ccpaw5tw.s 			page 16


 848 037f 01       		.byte	0x1
 849 0380 00000000 		.4byte	.LFB7
 850 0384 A0000000 		.4byte	.LFE7
 851 0388 00000000 		.4byte	.LLST0
 852 038c BD030000 		.4byte	0x3bd
 853 0390 10       		.uleb128 0x10
 854 0391 B1020000 		.4byte	.LASF57
 855 0395 01       		.byte	0x1
 856 0396 5301     		.2byte	0x153
 857 0398 70030000 		.4byte	0x370
 858 039c 20000000 		.4byte	.LLST1
 859 03a0 11       		.uleb128 0x11
 860 03a1 6900     		.ascii	"i\000"
 861 03a3 01       		.byte	0x1
 862 03a4 5401     		.2byte	0x154
 863 03a6 A4000000 		.4byte	0xa4
 864 03aa 5F000000 		.4byte	.LLST2
 865 03ae 11       		.uleb128 0x11
 866 03af 6A00     		.ascii	"j\000"
 867 03b1 01       		.byte	0x1
 868 03b2 5401     		.2byte	0x154
 869 03b4 A4000000 		.4byte	0xa4
 870 03b8 7F000000 		.4byte	.LLST3
 871 03bc 00       		.byte	0
 872 03bd 12       		.uleb128 0x12
 873 03be 01       		.byte	0x1
 874 03bf 0F030000 		.4byte	.LASF70
 875 03c3 01       		.byte	0x1
 876 03c4 8501     		.2byte	0x185
 877 03c6 01       		.byte	0x1
 878 03c7 90000000 		.4byte	0x90
 879 03cb 00000000 		.4byte	.LFB8
 880 03cf 70000000 		.4byte	.LFE8
 881 03d3 A9000000 		.4byte	.LLST4
 882 03d7 FC030000 		.4byte	0x3fc
 883 03db 13       		.uleb128 0x13
 884 03dc CB010000 		.4byte	.LASF61
 885 03e0 01       		.byte	0x1
 886 03e1 8501     		.2byte	0x185
 887 03e3 1D010000 		.4byte	0x11d
 888 03e7 C9000000 		.4byte	.LLST5
 889 03eb 10       		.uleb128 0x10
 890 03ec B1020000 		.4byte	.LASF57
 891 03f0 01       		.byte	0x1
 892 03f1 8A01     		.2byte	0x18a
 893 03f3 70030000 		.4byte	0x370
 894 03f7 FD000000 		.4byte	.LLST6
 895 03fb 00       		.byte	0
 896 03fc 0F       		.uleb128 0xf
 897 03fd 01       		.byte	0x1
 898 03fe 17000000 		.4byte	.LASF60
 899 0402 01       		.byte	0x1
 900 0403 B201     		.2byte	0x1b2
 901 0405 01       		.byte	0x1
 902 0406 00000000 		.4byte	.LFB9
 903 040a 3C000000 		.4byte	.LFE9
 904 040e 35010000 		.4byte	.LLST7
ARM GAS  /var/folders/5n/p_75w94d66l9ssrldxqdhh700000gn/T//ccpaw5tw.s 			page 17


 905 0412 47040000 		.4byte	0x447
 906 0416 13       		.uleb128 0x13
 907 0417 CB010000 		.4byte	.LASF61
 908 041b 01       		.byte	0x1
 909 041c B201     		.2byte	0x1b2
 910 041e 1D010000 		.4byte	0x11d
 911 0422 55010000 		.4byte	.LLST8
 912 0426 14       		.uleb128 0x14
 913 0427 6D656D00 		.ascii	"mem\000"
 914 042b 01       		.byte	0x1
 915 042c B201     		.2byte	0x1b2
 916 042e 90000000 		.4byte	0x90
 917 0432 73010000 		.4byte	.LLST9
 918 0436 10       		.uleb128 0x10
 919 0437 B1020000 		.4byte	.LASF57
 920 043b 01       		.byte	0x1
 921 043c B401     		.2byte	0x1b4
 922 043e 70030000 		.4byte	0x370
 923 0442 91010000 		.4byte	.LLST10
 924 0446 00       		.byte	0
 925 0447 15       		.uleb128 0x15
 926 0448 2B020000 		.4byte	.LASF66
 927 044c 06       		.byte	0x6
 928 044d 95       		.byte	0x95
 929 044e A8020000 		.4byte	0x2a8
 930 0452 01       		.byte	0x1
 931 0453 01       		.byte	0x1
 932 0454 0C       		.uleb128 0xc
 933 0455 70030000 		.4byte	0x370
 934 0459 64040000 		.4byte	0x464
 935 045d 0D       		.uleb128 0xd
 936 045e 30000000 		.4byte	0x30
 937 0462 0D       		.byte	0xd
 938 0463 00       		.byte	0
 939 0464 16       		.uleb128 0x16
 940 0465 2D030000 		.4byte	.LASF62
 941 0469 01       		.byte	0x1
 942 046a 75       		.byte	0x75
 943 046b 54040000 		.4byte	0x454
 944 046f 05       		.byte	0x5
 945 0470 03       		.byte	0x3
 946 0471 00000000 		.4byte	memp_tab
 947 0475 0C       		.uleb128 0xc
 948 0476 A4000000 		.4byte	0xa4
 949 047a 85040000 		.4byte	0x485
 950 047e 0D       		.uleb128 0xd
 951 047f 30000000 		.4byte	0x30
 952 0483 0D       		.byte	0xd
 953 0484 00       		.byte	0
 954 0485 16       		.uleb128 0x16
 955 0486 D9010000 		.4byte	.LASF63
 956 048a 01       		.byte	0x1
 957 048b 81       		.byte	0x81
 958 048c 96040000 		.4byte	0x496
 959 0490 05       		.byte	0x5
 960 0491 03       		.byte	0x3
 961 0492 00000000 		.4byte	memp_sizes
ARM GAS  /var/folders/5n/p_75w94d66l9ssrldxqdhh700000gn/T//ccpaw5tw.s 			page 18


 962 0496 17       		.uleb128 0x17
 963 0497 75040000 		.4byte	0x475
 964 049b 16       		.uleb128 0x16
 965 049c 07000000 		.4byte	.LASF64
 966 04a0 01       		.byte	0x1
 967 04a1 89       		.byte	0x89
 968 04a2 AC040000 		.4byte	0x4ac
 969 04a6 05       		.byte	0x5
 970 04a7 03       		.byte	0x3
 971 04a8 00000000 		.4byte	memp_num
 972 04ac 17       		.uleb128 0x17
 973 04ad 75040000 		.4byte	0x475
 974 04b1 0C       		.uleb128 0xc
 975 04b2 99000000 		.4byte	0x99
 976 04b6 C2040000 		.4byte	0x4c2
 977 04ba 18       		.uleb128 0x18
 978 04bb 30000000 		.4byte	0x30
 979 04bf 6E31     		.2byte	0x316e
 980 04c1 00       		.byte	0
 981 04c2 16       		.uleb128 0x16
 982 04c3 65000000 		.4byte	.LASF65
 983 04c7 01       		.byte	0x1
 984 04c8 AA       		.byte	0xaa
 985 04c9 B1040000 		.4byte	0x4b1
 986 04cd 05       		.byte	0x5
 987 04ce 03       		.byte	0x3
 988 04cf 00000000 		.4byte	memp_memory
 989 04d3 15       		.uleb128 0x15
 990 04d4 2B020000 		.4byte	.LASF66
 991 04d8 06       		.byte	0x6
 992 04d9 95       		.byte	0x95
 993 04da A8020000 		.4byte	0x2a8
 994 04de 01       		.byte	0x1
 995 04df 01       		.byte	0x1
 996 04e0 00       		.byte	0
 997              		.section	.debug_abbrev,"",%progbits
 998              	.Ldebug_abbrev0:
 999 0000 01       		.uleb128 0x1
 1000 0001 11       		.uleb128 0x11
 1001 0002 01       		.byte	0x1
 1002 0003 25       		.uleb128 0x25
 1003 0004 0E       		.uleb128 0xe
 1004 0005 13       		.uleb128 0x13
 1005 0006 0B       		.uleb128 0xb
 1006 0007 03       		.uleb128 0x3
 1007 0008 0E       		.uleb128 0xe
 1008 0009 1B       		.uleb128 0x1b
 1009 000a 0E       		.uleb128 0xe
 1010 000b 11       		.uleb128 0x11
 1011 000c 01       		.uleb128 0x1
 1012 000d 52       		.uleb128 0x52
 1013 000e 01       		.uleb128 0x1
 1014 000f 55       		.uleb128 0x55
 1015 0010 06       		.uleb128 0x6
 1016 0011 10       		.uleb128 0x10
 1017 0012 06       		.uleb128 0x6
 1018 0013 00       		.byte	0
ARM GAS  /var/folders/5n/p_75w94d66l9ssrldxqdhh700000gn/T//ccpaw5tw.s 			page 19


 1019 0014 00       		.byte	0
 1020 0015 02       		.uleb128 0x2
 1021 0016 24       		.uleb128 0x24
 1022 0017 00       		.byte	0
 1023 0018 0B       		.uleb128 0xb
 1024 0019 0B       		.uleb128 0xb
 1025 001a 3E       		.uleb128 0x3e
 1026 001b 0B       		.uleb128 0xb
 1027 001c 03       		.uleb128 0x3
 1028 001d 08       		.uleb128 0x8
 1029 001e 00       		.byte	0
 1030 001f 00       		.byte	0
 1031 0020 03       		.uleb128 0x3
 1032 0021 24       		.uleb128 0x24
 1033 0022 00       		.byte	0
 1034 0023 0B       		.uleb128 0xb
 1035 0024 0B       		.uleb128 0xb
 1036 0025 3E       		.uleb128 0x3e
 1037 0026 0B       		.uleb128 0xb
 1038 0027 03       		.uleb128 0x3
 1039 0028 0E       		.uleb128 0xe
 1040 0029 00       		.byte	0
 1041 002a 00       		.byte	0
 1042 002b 04       		.uleb128 0x4
 1043 002c 16       		.uleb128 0x16
 1044 002d 00       		.byte	0
 1045 002e 03       		.uleb128 0x3
 1046 002f 0E       		.uleb128 0xe
 1047 0030 3A       		.uleb128 0x3a
 1048 0031 0B       		.uleb128 0xb
 1049 0032 3B       		.uleb128 0x3b
 1050 0033 0B       		.uleb128 0xb
 1051 0034 49       		.uleb128 0x49
 1052 0035 13       		.uleb128 0x13
 1053 0036 00       		.byte	0
 1054 0037 00       		.byte	0
 1055 0038 05       		.uleb128 0x5
 1056 0039 0F       		.uleb128 0xf
 1057 003a 00       		.byte	0
 1058 003b 0B       		.uleb128 0xb
 1059 003c 0B       		.uleb128 0xb
 1060 003d 00       		.byte	0
 1061 003e 00       		.byte	0
 1062 003f 06       		.uleb128 0x6
 1063 0040 04       		.uleb128 0x4
 1064 0041 01       		.byte	0x1
 1065 0042 0B       		.uleb128 0xb
 1066 0043 0B       		.uleb128 0xb
 1067 0044 3A       		.uleb128 0x3a
 1068 0045 0B       		.uleb128 0xb
 1069 0046 3B       		.uleb128 0x3b
 1070 0047 0B       		.uleb128 0xb
 1071 0048 01       		.uleb128 0x1
 1072 0049 13       		.uleb128 0x13
 1073 004a 00       		.byte	0
 1074 004b 00       		.byte	0
 1075 004c 07       		.uleb128 0x7
ARM GAS  /var/folders/5n/p_75w94d66l9ssrldxqdhh700000gn/T//ccpaw5tw.s 			page 20


 1076 004d 28       		.uleb128 0x28
 1077 004e 00       		.byte	0
 1078 004f 03       		.uleb128 0x3
 1079 0050 0E       		.uleb128 0xe
 1080 0051 1C       		.uleb128 0x1c
 1081 0052 0D       		.uleb128 0xd
 1082 0053 00       		.byte	0
 1083 0054 00       		.byte	0
 1084 0055 08       		.uleb128 0x8
 1085 0056 13       		.uleb128 0x13
 1086 0057 01       		.byte	0x1
 1087 0058 03       		.uleb128 0x3
 1088 0059 0E       		.uleb128 0xe
 1089 005a 0B       		.uleb128 0xb
 1090 005b 0B       		.uleb128 0xb
 1091 005c 3A       		.uleb128 0x3a
 1092 005d 0B       		.uleb128 0xb
 1093 005e 3B       		.uleb128 0x3b
 1094 005f 0B       		.uleb128 0xb
 1095 0060 01       		.uleb128 0x1
 1096 0061 13       		.uleb128 0x13
 1097 0062 00       		.byte	0
 1098 0063 00       		.byte	0
 1099 0064 09       		.uleb128 0x9
 1100 0065 0D       		.uleb128 0xd
 1101 0066 00       		.byte	0
 1102 0067 03       		.uleb128 0x3
 1103 0068 0E       		.uleb128 0xe
 1104 0069 3A       		.uleb128 0x3a
 1105 006a 0B       		.uleb128 0xb
 1106 006b 3B       		.uleb128 0x3b
 1107 006c 0B       		.uleb128 0xb
 1108 006d 49       		.uleb128 0x49
 1109 006e 13       		.uleb128 0x13
 1110 006f 38       		.uleb128 0x38
 1111 0070 0A       		.uleb128 0xa
 1112 0071 00       		.byte	0
 1113 0072 00       		.byte	0
 1114 0073 0A       		.uleb128 0xa
 1115 0074 0D       		.uleb128 0xd
 1116 0075 00       		.byte	0
 1117 0076 03       		.uleb128 0x3
 1118 0077 08       		.uleb128 0x8
 1119 0078 3A       		.uleb128 0x3a
 1120 0079 0B       		.uleb128 0xb
 1121 007a 3B       		.uleb128 0x3b
 1122 007b 0B       		.uleb128 0xb
 1123 007c 49       		.uleb128 0x49
 1124 007d 13       		.uleb128 0x13
 1125 007e 38       		.uleb128 0x38
 1126 007f 0A       		.uleb128 0xa
 1127 0080 00       		.byte	0
 1128 0081 00       		.byte	0
 1129 0082 0B       		.uleb128 0xb
 1130 0083 13       		.uleb128 0x13
 1131 0084 01       		.byte	0x1
 1132 0085 03       		.uleb128 0x3
ARM GAS  /var/folders/5n/p_75w94d66l9ssrldxqdhh700000gn/T//ccpaw5tw.s 			page 21


 1133 0086 0E       		.uleb128 0xe
 1134 0087 0B       		.uleb128 0xb
 1135 0088 05       		.uleb128 0x5
 1136 0089 3A       		.uleb128 0x3a
 1137 008a 0B       		.uleb128 0xb
 1138 008b 3B       		.uleb128 0x3b
 1139 008c 0B       		.uleb128 0xb
 1140 008d 01       		.uleb128 0x1
 1141 008e 13       		.uleb128 0x13
 1142 008f 00       		.byte	0
 1143 0090 00       		.byte	0
 1144 0091 0C       		.uleb128 0xc
 1145 0092 01       		.uleb128 0x1
 1146 0093 01       		.byte	0x1
 1147 0094 49       		.uleb128 0x49
 1148 0095 13       		.uleb128 0x13
 1149 0096 01       		.uleb128 0x1
 1150 0097 13       		.uleb128 0x13
 1151 0098 00       		.byte	0
 1152 0099 00       		.byte	0
 1153 009a 0D       		.uleb128 0xd
 1154 009b 21       		.uleb128 0x21
 1155 009c 00       		.byte	0
 1156 009d 49       		.uleb128 0x49
 1157 009e 13       		.uleb128 0x13
 1158 009f 2F       		.uleb128 0x2f
 1159 00a0 0B       		.uleb128 0xb
 1160 00a1 00       		.byte	0
 1161 00a2 00       		.byte	0
 1162 00a3 0E       		.uleb128 0xe
 1163 00a4 0F       		.uleb128 0xf
 1164 00a5 00       		.byte	0
 1165 00a6 0B       		.uleb128 0xb
 1166 00a7 0B       		.uleb128 0xb
 1167 00a8 49       		.uleb128 0x49
 1168 00a9 13       		.uleb128 0x13
 1169 00aa 00       		.byte	0
 1170 00ab 00       		.byte	0
 1171 00ac 0F       		.uleb128 0xf
 1172 00ad 2E       		.uleb128 0x2e
 1173 00ae 01       		.byte	0x1
 1174 00af 3F       		.uleb128 0x3f
 1175 00b0 0C       		.uleb128 0xc
 1176 00b1 03       		.uleb128 0x3
 1177 00b2 0E       		.uleb128 0xe
 1178 00b3 3A       		.uleb128 0x3a
 1179 00b4 0B       		.uleb128 0xb
 1180 00b5 3B       		.uleb128 0x3b
 1181 00b6 05       		.uleb128 0x5
 1182 00b7 27       		.uleb128 0x27
 1183 00b8 0C       		.uleb128 0xc
 1184 00b9 11       		.uleb128 0x11
 1185 00ba 01       		.uleb128 0x1
 1186 00bb 12       		.uleb128 0x12
 1187 00bc 01       		.uleb128 0x1
 1188 00bd 40       		.uleb128 0x40
 1189 00be 06       		.uleb128 0x6
ARM GAS  /var/folders/5n/p_75w94d66l9ssrldxqdhh700000gn/T//ccpaw5tw.s 			page 22


 1190 00bf 01       		.uleb128 0x1
 1191 00c0 13       		.uleb128 0x13
 1192 00c1 00       		.byte	0
 1193 00c2 00       		.byte	0
 1194 00c3 10       		.uleb128 0x10
 1195 00c4 34       		.uleb128 0x34
 1196 00c5 00       		.byte	0
 1197 00c6 03       		.uleb128 0x3
 1198 00c7 0E       		.uleb128 0xe
 1199 00c8 3A       		.uleb128 0x3a
 1200 00c9 0B       		.uleb128 0xb
 1201 00ca 3B       		.uleb128 0x3b
 1202 00cb 05       		.uleb128 0x5
 1203 00cc 49       		.uleb128 0x49
 1204 00cd 13       		.uleb128 0x13
 1205 00ce 02       		.uleb128 0x2
 1206 00cf 06       		.uleb128 0x6
 1207 00d0 00       		.byte	0
 1208 00d1 00       		.byte	0
 1209 00d2 11       		.uleb128 0x11
 1210 00d3 34       		.uleb128 0x34
 1211 00d4 00       		.byte	0
 1212 00d5 03       		.uleb128 0x3
 1213 00d6 08       		.uleb128 0x8
 1214 00d7 3A       		.uleb128 0x3a
 1215 00d8 0B       		.uleb128 0xb
 1216 00d9 3B       		.uleb128 0x3b
 1217 00da 05       		.uleb128 0x5
 1218 00db 49       		.uleb128 0x49
 1219 00dc 13       		.uleb128 0x13
 1220 00dd 02       		.uleb128 0x2
 1221 00de 06       		.uleb128 0x6
 1222 00df 00       		.byte	0
 1223 00e0 00       		.byte	0
 1224 00e1 12       		.uleb128 0x12
 1225 00e2 2E       		.uleb128 0x2e
 1226 00e3 01       		.byte	0x1
 1227 00e4 3F       		.uleb128 0x3f
 1228 00e5 0C       		.uleb128 0xc
 1229 00e6 03       		.uleb128 0x3
 1230 00e7 0E       		.uleb128 0xe
 1231 00e8 3A       		.uleb128 0x3a
 1232 00e9 0B       		.uleb128 0xb
 1233 00ea 3B       		.uleb128 0x3b
 1234 00eb 05       		.uleb128 0x5
 1235 00ec 27       		.uleb128 0x27
 1236 00ed 0C       		.uleb128 0xc
 1237 00ee 49       		.uleb128 0x49
 1238 00ef 13       		.uleb128 0x13
 1239 00f0 11       		.uleb128 0x11
 1240 00f1 01       		.uleb128 0x1
 1241 00f2 12       		.uleb128 0x12
 1242 00f3 01       		.uleb128 0x1
 1243 00f4 40       		.uleb128 0x40
 1244 00f5 06       		.uleb128 0x6
 1245 00f6 01       		.uleb128 0x1
 1246 00f7 13       		.uleb128 0x13
ARM GAS  /var/folders/5n/p_75w94d66l9ssrldxqdhh700000gn/T//ccpaw5tw.s 			page 23


 1247 00f8 00       		.byte	0
 1248 00f9 00       		.byte	0
 1249 00fa 13       		.uleb128 0x13
 1250 00fb 05       		.uleb128 0x5
 1251 00fc 00       		.byte	0
 1252 00fd 03       		.uleb128 0x3
 1253 00fe 0E       		.uleb128 0xe
 1254 00ff 3A       		.uleb128 0x3a
 1255 0100 0B       		.uleb128 0xb
 1256 0101 3B       		.uleb128 0x3b
 1257 0102 05       		.uleb128 0x5
 1258 0103 49       		.uleb128 0x49
 1259 0104 13       		.uleb128 0x13
 1260 0105 02       		.uleb128 0x2
 1261 0106 06       		.uleb128 0x6
 1262 0107 00       		.byte	0
 1263 0108 00       		.byte	0
 1264 0109 14       		.uleb128 0x14
 1265 010a 05       		.uleb128 0x5
 1266 010b 00       		.byte	0
 1267 010c 03       		.uleb128 0x3
 1268 010d 08       		.uleb128 0x8
 1269 010e 3A       		.uleb128 0x3a
 1270 010f 0B       		.uleb128 0xb
 1271 0110 3B       		.uleb128 0x3b
 1272 0111 05       		.uleb128 0x5
 1273 0112 49       		.uleb128 0x49
 1274 0113 13       		.uleb128 0x13
 1275 0114 02       		.uleb128 0x2
 1276 0115 06       		.uleb128 0x6
 1277 0116 00       		.byte	0
 1278 0117 00       		.byte	0
 1279 0118 15       		.uleb128 0x15
 1280 0119 34       		.uleb128 0x34
 1281 011a 00       		.byte	0
 1282 011b 03       		.uleb128 0x3
 1283 011c 0E       		.uleb128 0xe
 1284 011d 3A       		.uleb128 0x3a
 1285 011e 0B       		.uleb128 0xb
 1286 011f 3B       		.uleb128 0x3b
 1287 0120 0B       		.uleb128 0xb
 1288 0121 49       		.uleb128 0x49
 1289 0122 13       		.uleb128 0x13
 1290 0123 3F       		.uleb128 0x3f
 1291 0124 0C       		.uleb128 0xc
 1292 0125 3C       		.uleb128 0x3c
 1293 0126 0C       		.uleb128 0xc
 1294 0127 00       		.byte	0
 1295 0128 00       		.byte	0
 1296 0129 16       		.uleb128 0x16
 1297 012a 34       		.uleb128 0x34
 1298 012b 00       		.byte	0
 1299 012c 03       		.uleb128 0x3
 1300 012d 0E       		.uleb128 0xe
 1301 012e 3A       		.uleb128 0x3a
 1302 012f 0B       		.uleb128 0xb
 1303 0130 3B       		.uleb128 0x3b
ARM GAS  /var/folders/5n/p_75w94d66l9ssrldxqdhh700000gn/T//ccpaw5tw.s 			page 24


 1304 0131 0B       		.uleb128 0xb
 1305 0132 49       		.uleb128 0x49
 1306 0133 13       		.uleb128 0x13
 1307 0134 02       		.uleb128 0x2
 1308 0135 0A       		.uleb128 0xa
 1309 0136 00       		.byte	0
 1310 0137 00       		.byte	0
 1311 0138 17       		.uleb128 0x17
 1312 0139 26       		.uleb128 0x26
 1313 013a 00       		.byte	0
 1314 013b 49       		.uleb128 0x49
 1315 013c 13       		.uleb128 0x13
 1316 013d 00       		.byte	0
 1317 013e 00       		.byte	0
 1318 013f 18       		.uleb128 0x18
 1319 0140 21       		.uleb128 0x21
 1320 0141 00       		.byte	0
 1321 0142 49       		.uleb128 0x49
 1322 0143 13       		.uleb128 0x13
 1323 0144 2F       		.uleb128 0x2f
 1324 0145 05       		.uleb128 0x5
 1325 0146 00       		.byte	0
 1326 0147 00       		.byte	0
 1327 0148 00       		.byte	0
 1328              		.section	.debug_loc,"",%progbits
 1329              	.Ldebug_loc0:
 1330              	.LLST0:
 1331 0000 00000000 		.4byte	.LFB7
 1332 0004 08000000 		.4byte	.LCFI0
 1333 0008 0200     		.2byte	0x2
 1334 000a 7D       		.byte	0x7d
 1335 000b 00       		.sleb128 0
 1336 000c 08000000 		.4byte	.LCFI0
 1337 0010 A0000000 		.4byte	.LFE7
 1338 0014 0200     		.2byte	0x2
 1339 0016 7D       		.byte	0x7d
 1340 0017 20       		.sleb128 32
 1341 0018 00000000 		.4byte	0
 1342 001c 00000000 		.4byte	0
 1343              	.LLST1:
 1344 0020 3A000000 		.4byte	.LVL2
 1345 0024 56000000 		.4byte	.LVL5
 1346 0028 0100     		.2byte	0x1
 1347 002a 5C       		.byte	0x5c
 1348 002b 56000000 		.4byte	.LVL5
 1349 002f 5A000000 		.4byte	.LVL6
 1350 0033 0100     		.2byte	0x1
 1351 0035 50       		.byte	0x50
 1352 0036 5A000000 		.4byte	.LVL6
 1353 003a 66000000 		.4byte	.LVL7
 1354 003e 0100     		.2byte	0x1
 1355 0040 53       		.byte	0x53
 1356 0041 66000000 		.4byte	.LVL7
 1357 0045 7A000000 		.4byte	.LVL10
 1358 0049 0100     		.2byte	0x1
 1359 004b 50       		.byte	0x50
 1360 004c 7A000000 		.4byte	.LVL10
ARM GAS  /var/folders/5n/p_75w94d66l9ssrldxqdhh700000gn/T//ccpaw5tw.s 			page 25


 1361 0050 A0000000 		.4byte	.LFE7
 1362 0054 0100     		.2byte	0x1
 1363 0056 5C       		.byte	0x5c
 1364 0057 00000000 		.4byte	0
 1365 005b 00000000 		.4byte	0
 1366              	.LLST2:
 1367 005f 00000000 		.4byte	.LVL0
 1368 0063 0E000000 		.4byte	.LVL1
 1369 0067 0200     		.2byte	0x2
 1370 0069 30       		.byte	0x30
 1371 006a 9F       		.byte	0x9f
 1372 006b 3A000000 		.4byte	.LVL2
 1373 006f 40000000 		.4byte	.LVL3
 1374 0073 0200     		.2byte	0x2
 1375 0075 30       		.byte	0x30
 1376 0076 9F       		.byte	0x9f
 1377 0077 00000000 		.4byte	0
 1378 007b 00000000 		.4byte	0
 1379              	.LLST3:
 1380 007f 48000000 		.4byte	.LVL4
 1381 0083 56000000 		.4byte	.LVL5
 1382 0087 0200     		.2byte	0x2
 1383 0089 30       		.byte	0x30
 1384 008a 9F       		.byte	0x9f
 1385 008b 56000000 		.4byte	.LVL5
 1386 008f 5A000000 		.4byte	.LVL6
 1387 0093 0100     		.2byte	0x1
 1388 0095 52       		.byte	0x52
 1389 0096 66000000 		.4byte	.LVL7
 1390 009a 6A000000 		.4byte	.LVL8
 1391 009e 0100     		.2byte	0x1
 1392 00a0 52       		.byte	0x52
 1393 00a1 00000000 		.4byte	0
 1394 00a5 00000000 		.4byte	0
 1395              	.LLST4:
 1396 00a9 00000000 		.4byte	.LFB8
 1397 00ad 04000000 		.4byte	.LCFI1
 1398 00b1 0200     		.2byte	0x2
 1399 00b3 7D       		.byte	0x7d
 1400 00b4 00       		.sleb128 0
 1401 00b5 04000000 		.4byte	.LCFI1
 1402 00b9 70000000 		.4byte	.LFE8
 1403 00bd 0200     		.2byte	0x2
 1404 00bf 7D       		.byte	0x7d
 1405 00c0 10       		.sleb128 16
 1406 00c1 00000000 		.4byte	0
 1407 00c5 00000000 		.4byte	0
 1408              	.LLST5:
 1409 00c9 00000000 		.4byte	.LVL11
 1410 00cd 3A000000 		.4byte	.LVL14
 1411 00d1 0100     		.2byte	0x1
 1412 00d3 50       		.byte	0x50
 1413 00d4 3E000000 		.4byte	.LVL15
 1414 00d8 41000000 		.4byte	.LVL16-1
 1415 00dc 0100     		.2byte	0x1
 1416 00de 50       		.byte	0x50
 1417 00df 46000000 		.4byte	.LVL17
ARM GAS  /var/folders/5n/p_75w94d66l9ssrldxqdhh700000gn/T//ccpaw5tw.s 			page 26


 1418 00e3 4C000000 		.4byte	.LVL18
 1419 00e7 0100     		.2byte	0x1
 1420 00e9 50       		.byte	0x50
 1421 00ea 5E000000 		.4byte	.LVL19
 1422 00ee 61000000 		.4byte	.LVL20-1
 1423 00f2 0100     		.2byte	0x1
 1424 00f4 50       		.byte	0x50
 1425 00f5 00000000 		.4byte	0
 1426 00f9 00000000 		.4byte	0
 1427              	.LLST6:
 1428 00fd 0C000000 		.4byte	.LVL12
 1429 0101 22000000 		.4byte	.LVL13
 1430 0105 0700     		.2byte	0x7
 1431 0107 70       		.byte	0x70
 1432 0108 00       		.sleb128 0
 1433 0109 32       		.byte	0x32
 1434 010a 24       		.byte	0x24
 1435 010b 72       		.byte	0x72
 1436 010c 00       		.sleb128 0
 1437 010d 22       		.byte	0x22
 1438 010e 22000000 		.4byte	.LVL13
 1439 0112 3A000000 		.4byte	.LVL14
 1440 0116 0A00     		.2byte	0xa
 1441 0118 70       		.byte	0x70
 1442 0119 00       		.sleb128 0
 1443 011a 32       		.byte	0x32
 1444 011b 24       		.byte	0x24
 1445 011c 03       		.byte	0x3
 1446 011d 00000000 		.4byte	.LANCHOR2
 1447 0121 22       		.byte	0x22
 1448 0122 3E000000 		.4byte	.LVL15
 1449 0126 5E000000 		.4byte	.LVL19
 1450 012a 0100     		.2byte	0x1
 1451 012c 54       		.byte	0x54
 1452 012d 00000000 		.4byte	0
 1453 0131 00000000 		.4byte	0
 1454              	.LLST7:
 1455 0135 00000000 		.4byte	.LFB9
 1456 0139 02000000 		.4byte	.LCFI2
 1457 013d 0200     		.2byte	0x2
 1458 013f 7D       		.byte	0x7d
 1459 0140 00       		.sleb128 0
 1460 0141 02000000 		.4byte	.LCFI2
 1461 0145 3C000000 		.4byte	.LFE9
 1462 0149 0200     		.2byte	0x2
 1463 014b 7D       		.byte	0x7d
 1464 014c 10       		.sleb128 16
 1465 014d 00000000 		.4byte	0
 1466 0151 00000000 		.4byte	0
 1467              	.LLST8:
 1468 0155 00000000 		.4byte	.LVL21
 1469 0159 0C000000 		.4byte	.LVL22
 1470 015d 0100     		.2byte	0x1
 1471 015f 50       		.byte	0x50
 1472 0160 2E000000 		.4byte	.LVL24
 1473 0164 31000000 		.4byte	.LVL25-1
 1474 0168 0100     		.2byte	0x1
ARM GAS  /var/folders/5n/p_75w94d66l9ssrldxqdhh700000gn/T//ccpaw5tw.s 			page 27


 1475 016a 50       		.byte	0x50
 1476 016b 00000000 		.4byte	0
 1477 016f 00000000 		.4byte	0
 1478              	.LLST9:
 1479 0173 00000000 		.4byte	.LVL21
 1480 0177 0C000000 		.4byte	.LVL22
 1481 017b 0100     		.2byte	0x1
 1482 017d 51       		.byte	0x51
 1483 017e 0C000000 		.4byte	.LVL22
 1484 0182 3C000000 		.4byte	.LFE9
 1485 0186 0100     		.2byte	0x1
 1486 0188 54       		.byte	0x54
 1487 0189 00000000 		.4byte	0
 1488 018d 00000000 		.4byte	0
 1489              	.LLST10:
 1490 0191 0C000000 		.4byte	.LVL22
 1491 0195 2C000000 		.4byte	.LVL23
 1492 0199 0100     		.2byte	0x1
 1493 019b 54       		.byte	0x54
 1494 019c 00000000 		.4byte	0
 1495 01a0 00000000 		.4byte	0
 1496              		.section	.debug_aranges,"",%progbits
 1497 0000 2C000000 		.4byte	0x2c
 1498 0004 0200     		.2byte	0x2
 1499 0006 00000000 		.4byte	.Ldebug_info0
 1500 000a 04       		.byte	0x4
 1501 000b 00       		.byte	0
 1502 000c 0000     		.2byte	0
 1503 000e 0000     		.2byte	0
 1504 0010 00000000 		.4byte	.LFB7
 1505 0014 A0000000 		.4byte	.LFE7-.LFB7
 1506 0018 00000000 		.4byte	.LFB8
 1507 001c 70000000 		.4byte	.LFE8-.LFB8
 1508 0020 00000000 		.4byte	.LFB9
 1509 0024 3C000000 		.4byte	.LFE9-.LFB9
 1510 0028 00000000 		.4byte	0
 1511 002c 00000000 		.4byte	0
 1512              		.section	.debug_ranges,"",%progbits
 1513              	.Ldebug_ranges0:
 1514 0000 00000000 		.4byte	.LFB7
 1515 0004 A0000000 		.4byte	.LFE7
 1516 0008 00000000 		.4byte	.LFB8
 1517 000c 70000000 		.4byte	.LFE8
 1518 0010 00000000 		.4byte	.LFB9
 1519 0014 3C000000 		.4byte	.LFE9
 1520 0018 00000000 		.4byte	0
 1521 001c 00000000 		.4byte	0
 1522              		.section	.debug_line,"",%progbits
 1523              	.Ldebug_line0:
 1524 0000 CB010000 		.section	.debug_str,"MS",%progbits,1
 1524      0200FB00 
 1524      00000201 
 1524      FB0E0D00 
 1524      01010101 
 1525              	.LASF52:
 1526 0000 73746174 		.ascii	"stats_\000"
 1526      735F00
ARM GAS  /var/folders/5n/p_75w94d66l9ssrldxqdhh700000gn/T//ccpaw5tw.s 			page 28


 1527              	.LASF64:
 1528 0007 6D656D70 		.ascii	"memp_num\000"
 1528      5F6E756D 
 1528      00
 1529              	.LASF36:
 1530 0010 63686B65 		.ascii	"chkerr\000"
 1530      727200
 1531              	.LASF60:
 1532 0017 6D656D70 		.ascii	"memp_free\000"
 1532      5F667265 
 1532      6500
 1533              	.LASF51:
 1534 0021 6D626F78 		.ascii	"mbox\000"
 1534      00
 1535              	.LASF55:
 1536 0026 69705F66 		.ascii	"ip_frag\000"
 1536      72616700 
 1537              	.LASF3:
 1538 002e 73686F72 		.ascii	"short int\000"
 1538      7420696E 
 1538      7400
 1539              	.LASF31:
 1540 0038 6D656D70 		.ascii	"memp_t\000"
 1540      5F7400
 1541              	.LASF20:
 1542 003f 4D454D50 		.ascii	"MEMP_TCP_SEG\000"
 1542      5F544350 
 1542      5F534547 
 1542      00
 1543              	.LASF43:
 1544 004c 73746174 		.ascii	"stats_proto\000"
 1544      735F7072 
 1544      6F746F00 
 1545              	.LASF17:
 1546 0058 4D454D50 		.ascii	"MEMP_UDP_PCB\000"
 1546      5F554450 
 1546      5F504342 
 1546      00
 1547              	.LASF65:
 1548 0065 6D656D70 		.ascii	"memp_memory\000"
 1548      5F6D656D 
 1548      6F727900 
 1549              	.LASF33:
 1550 0071 786D6974 		.ascii	"xmit\000"
 1550      00
 1551              	.LASF26:
 1552 0076 4D454D50 		.ascii	"MEMP_TCPIP_MSG_INPKT\000"
 1552      5F544350 
 1552      49505F4D 
 1552      53475F49 
 1552      4E504B54 
 1553              	.LASF44:
 1554 008b 73746174 		.ascii	"stats_mem\000"
 1554      735F6D65 
 1554      6D00
 1555              	.LASF15:
 1556 0095 6D656D5F 		.ascii	"mem_ptr_t\000"
ARM GAS  /var/folders/5n/p_75w94d66l9ssrldxqdhh700000gn/T//ccpaw5tw.s 			page 29


 1556      7074725F 
 1556      7400
 1557              	.LASF37:
 1558 009f 6C656E65 		.ascii	"lenerr\000"
 1558      727200
 1559              	.LASF27:
 1560 00a6 4D454D50 		.ascii	"MEMP_SYS_TIMEOUT\000"
 1560      5F535953 
 1560      5F54494D 
 1560      454F5554 
 1560      00
 1561              	.LASF22:
 1562 00b7 4D454D50 		.ascii	"MEMP_FRAG_PBUF\000"
 1562      5F465241 
 1562      475F5042 
 1562      554600
 1563              	.LASF4:
 1564 00c6 75696E74 		.ascii	"uint8_t\000"
 1564      385F7400 
 1565              	.LASF69:
 1566 00ce 2F557365 		.ascii	"/Users/sin/Documents/Eclipse/Workspace/mabl-ChibiOS"
 1566      72732F73 
 1566      696E2F44 
 1566      6F63756D 
 1566      656E7473 
 1567 0101 2D322E35 		.ascii	"-2.5.1/demos/ARMCM4-STM32F407-LWIP\000"
 1567      2E312F64 
 1567      656D6F73 
 1567      2F41524D 
 1567      434D342D 
 1568              	.LASF42:
 1569 0124 63616368 		.ascii	"cachehit\000"
 1569      65686974 
 1569      00
 1570              	.LASF19:
 1571 012d 4D454D50 		.ascii	"MEMP_TCP_PCB_LISTEN\000"
 1571      5F544350 
 1571      5F504342 
 1571      5F4C4953 
 1571      54454E00 
 1572              	.LASF8:
 1573 0141 75696E74 		.ascii	"uint32_t\000"
 1573      33325F74 
 1573      00
 1574              	.LASF53:
 1575 014a 6C696E6B 		.ascii	"link\000"
 1575      00
 1576              	.LASF10:
 1577 014f 6C6F6E67 		.ascii	"long long int\000"
 1577      206C6F6E 
 1577      6720696E 
 1577      7400
 1578              	.LASF7:
 1579 015d 6C6F6E67 		.ascii	"long int\000"
 1579      20696E74 
 1579      00
 1580              	.LASF59:
ARM GAS  /var/folders/5n/p_75w94d66l9ssrldxqdhh700000gn/T//ccpaw5tw.s 			page 30


 1581 0166 6D656D70 		.ascii	"memp_init\000"
 1581      5F696E69 
 1581      7400
 1582              	.LASF32:
 1583 0170 6D656D5F 		.ascii	"mem_size_t\000"
 1583      73697A65 
 1583      5F7400
 1584              	.LASF38:
 1585 017b 6D656D65 		.ascii	"memerr\000"
 1585      727200
 1586              	.LASF35:
 1587 0182 64726F70 		.ascii	"drop\000"
 1587      00
 1588              	.LASF2:
 1589 0187 756E7369 		.ascii	"unsigned char\000"
 1589      676E6564 
 1589      20636861 
 1589      7200
 1590              	.LASF30:
 1591 0195 4D454D50 		.ascii	"MEMP_MAX\000"
 1591      5F4D4158 
 1591      00
 1592              	.LASF1:
 1593 019e 7369676E 		.ascii	"signed char\000"
 1593      65642063 
 1593      68617200 
 1594              	.LASF49:
 1595 01aa 73746174 		.ascii	"stats_sys\000"
 1595      735F7379 
 1595      7300
 1596              	.LASF11:
 1597 01b4 6C6F6E67 		.ascii	"long long unsigned int\000"
 1597      206C6F6E 
 1597      6720756E 
 1597      7369676E 
 1597      65642069 
 1598              	.LASF61:
 1599 01cb 74797065 		.ascii	"type\000"
 1599      00
 1600              	.LASF5:
 1601 01d0 75696E74 		.ascii	"uint16_t\000"
 1601      31365F74 
 1601      00
 1602              	.LASF63:
 1603 01d9 6D656D70 		.ascii	"memp_sizes\000"
 1603      5F73697A 
 1603      657300
 1604              	.LASF41:
 1605 01e4 6F707465 		.ascii	"opterr\000"
 1605      727200
 1606              	.LASF50:
 1607 01eb 6D757465 		.ascii	"mutex\000"
 1607      7800
 1608              	.LASF6:
 1609 01f1 73686F72 		.ascii	"short unsigned int\000"
 1609      7420756E 
 1609      7369676E 
ARM GAS  /var/folders/5n/p_75w94d66l9ssrldxqdhh700000gn/T//ccpaw5tw.s 			page 31


 1609      65642069 
 1609      6E7400
 1610              	.LASF21:
 1611 0204 4D454D50 		.ascii	"MEMP_REASSDATA\000"
 1611      5F524541 
 1611      53534441 
 1611      544100
 1612              	.LASF12:
 1613 0213 63686172 		.ascii	"char\000"
 1613      00
 1614              	.LASF25:
 1615 0218 4D454D50 		.ascii	"MEMP_TCPIP_MSG_API\000"
 1615      5F544350 
 1615      49505F4D 
 1615      53475F41 
 1615      504900
 1616              	.LASF66:
 1617 022b 6C776970 		.ascii	"lwip_stats\000"
 1617      5F737461 
 1617      747300
 1618              	.LASF40:
 1619 0236 70726F74 		.ascii	"proterr\000"
 1619      65727200 
 1620              	.LASF47:
 1621 023e 696C6C65 		.ascii	"illegal\000"
 1621      67616C00 
 1622              	.LASF28:
 1623 0246 4D454D50 		.ascii	"MEMP_PBUF\000"
 1623      5F504255 
 1623      4600
 1624              	.LASF67:
 1625 0250 474E5520 		.ascii	"GNU C 4.6.2 20111004 (prerelease)\000"
 1625      4320342E 
 1625      362E3220 
 1625      32303131 
 1625      31303034 
 1626              	.LASF48:
 1627 0272 73746174 		.ascii	"stats_syselem\000"
 1627      735F7379 
 1627      73656C65 
 1627      6D00
 1628              	.LASF9:
 1629 0280 6C6F6E67 		.ascii	"long unsigned int\000"
 1629      20756E73 
 1629      69676E65 
 1629      6420696E 
 1629      7400
 1630              	.LASF68:
 1631 0292 2E2E2F2E 		.ascii	"../../ext/lwip/src/core/memp.c\000"
 1631      2E2F6578 
 1631      742F6C77 
 1631      69702F73 
 1631      72632F63 
 1632              	.LASF57:
 1633 02b1 6D656D70 		.ascii	"memp\000"
 1633      00
 1634              	.LASF16:
ARM GAS  /var/folders/5n/p_75w94d66l9ssrldxqdhh700000gn/T//ccpaw5tw.s 			page 32


 1635 02b6 4D454D50 		.ascii	"MEMP_RAW_PCB\000"
 1635      5F524157 
 1635      5F504342 
 1635      00
 1636              	.LASF39:
 1637 02c3 72746572 		.ascii	"rterr\000"
 1637      7200
 1638              	.LASF13:
 1639 02c9 75385F74 		.ascii	"u8_t\000"
 1639      00
 1640              	.LASF14:
 1641 02ce 7531365F 		.ascii	"u16_t\000"
 1641      7400
 1642              	.LASF29:
 1643 02d4 4D454D50 		.ascii	"MEMP_PBUF_POOL\000"
 1643      5F504255 
 1643      465F504F 
 1643      4F4C00
 1644              	.LASF46:
 1645 02e3 75736564 		.ascii	"used\000"
 1645      00
 1646              	.LASF45:
 1647 02e8 61766169 		.ascii	"avail\000"
 1647      6C00
 1648              	.LASF24:
 1649 02ee 4D454D50 		.ascii	"MEMP_NETCONN\000"
 1649      5F4E4554 
 1649      434F4E4E 
 1649      00
 1650              	.LASF18:
 1651 02fb 4D454D50 		.ascii	"MEMP_TCP_PCB\000"
 1651      5F544350 
 1651      5F504342 
 1651      00
 1652              	.LASF54:
 1653 0308 65746861 		.ascii	"etharp\000"
 1653      727000
 1654              	.LASF70:
 1655 030f 6D656D70 		.ascii	"memp_malloc\000"
 1655      5F6D616C 
 1655      6C6F6300 
 1656              	.LASF34:
 1657 031b 72656376 		.ascii	"recv\000"
 1657      00
 1658              	.LASF0:
 1659 0320 756E7369 		.ascii	"unsigned int\000"
 1659      676E6564 
 1659      20696E74 
 1659      00
 1660              	.LASF62:
 1661 032d 6D656D70 		.ascii	"memp_tab\000"
 1661      5F746162 
 1661      00
 1662              	.LASF56:
 1663 0336 69636D70 		.ascii	"icmp\000"
 1663      00
 1664              	.LASF58:
ARM GAS  /var/folders/5n/p_75w94d66l9ssrldxqdhh700000gn/T//ccpaw5tw.s 			page 33


 1665 033b 6E657874 		.ascii	"next\000"
 1665      00
 1666              	.LASF23:
 1667 0340 4D454D50 		.ascii	"MEMP_NETBUF\000"
 1667      5F4E4554 
 1667      42554600 
 1668              		.ident	"GCC: (Linaro GCC 4.6-2011.10) 4.6.2 20111004 (prerelease)"
ARM GAS  /var/folders/5n/p_75w94d66l9ssrldxqdhh700000gn/T//ccpaw5tw.s 			page 34


DEFINED SYMBOLS
                            *ABS*:0000000000000000 memp.c
/var/folders/5n/p_75w94d66l9ssrldxqdhh700000gn/T//ccpaw5tw.s:18     .text.memp_init:0000000000000000 $t
/var/folders/5n/p_75w94d66l9ssrldxqdhh700000gn/T//ccpaw5tw.s:24     .text.memp_init:0000000000000000 memp_init
/var/folders/5n/p_75w94d66l9ssrldxqdhh700000gn/T//ccpaw5tw.s:136    .text.memp_init:0000000000000088 $d
/var/folders/5n/p_75w94d66l9ssrldxqdhh700000gn/T//ccpaw5tw.s:146    .text.memp_malloc:0000000000000000 $t
/var/folders/5n/p_75w94d66l9ssrldxqdhh700000gn/T//ccpaw5tw.s:152    .text.memp_malloc:0000000000000000 memp_malloc
/var/folders/5n/p_75w94d66l9ssrldxqdhh700000gn/T//ccpaw5tw.s:235    .text.memp_malloc:0000000000000068 $d
/var/folders/5n/p_75w94d66l9ssrldxqdhh700000gn/T//ccpaw5tw.s:241    .text.memp_free:0000000000000000 $t
/var/folders/5n/p_75w94d66l9ssrldxqdhh700000gn/T//ccpaw5tw.s:247    .text.memp_free:0000000000000000 memp_free
/var/folders/5n/p_75w94d66l9ssrldxqdhh700000gn/T//ccpaw5tw.s:301    .text.memp_free:0000000000000034 $d
/var/folders/5n/p_75w94d66l9ssrldxqdhh700000gn/T//ccpaw5tw.s:307    .rodata.memp_num:0000000000000000 $d
/var/folders/5n/p_75w94d66l9ssrldxqdhh700000gn/T//ccpaw5tw.s:311    .rodata.memp_num:0000000000000000 memp_num
/var/folders/5n/p_75w94d66l9ssrldxqdhh700000gn/T//ccpaw5tw.s:327    .bss.memp_memory:0000000000000000 $d
/var/folders/5n/p_75w94d66l9ssrldxqdhh700000gn/T//ccpaw5tw.s:331    .bss.memp_memory:0000000000000000 memp_memory
/var/folders/5n/p_75w94d66l9ssrldxqdhh700000gn/T//ccpaw5tw.s:334    .bss.memp_tab:0000000000000000 $d
/var/folders/5n/p_75w94d66l9ssrldxqdhh700000gn/T//ccpaw5tw.s:338    .bss.memp_tab:0000000000000000 memp_tab
/var/folders/5n/p_75w94d66l9ssrldxqdhh700000gn/T//ccpaw5tw.s:341    .rodata.memp_sizes:0000000000000000 $d
/var/folders/5n/p_75w94d66l9ssrldxqdhh700000gn/T//ccpaw5tw.s:345    .rodata.memp_sizes:0000000000000000 memp_sizes
                     .debug_frame:0000000000000010 $d
/var/folders/5n/p_75w94d66l9ssrldxqdhh700000gn/T//ccpaw5tw.s:306    .text.memp_free:000000000000003c $t

UNDEFINED SYMBOLS
lwip_stats
port_halt
