ARM GAS  /var/folders/5n/p_75w94d66l9ssrldxqdhh700000gn/T//cc7gqFm2.s 			page 1


   1              		.syntax unified
   2              		.cpu cortex-m4
   3              		.fpu softvfp
   4              		.eabi_attribute 20, 1
   5              		.eabi_attribute 21, 1
   6              		.eabi_attribute 23, 3
   7              		.eabi_attribute 24, 1
   8              		.eabi_attribute 25, 1
   9              		.eabi_attribute 26, 1
  10              		.eabi_attribute 30, 2
  11              		.eabi_attribute 18, 4
  12              		.thumb
  13              		.file	"netbuf.c"
  14              		.text
  15              	.Ltext0:
  16              		.cfi_sections	.debug_frame
  17              		.section	.text.netbuf_new,"ax",%progbits
  18              		.align	2
  19              		.p2align 4,,15
  20              		.global	netbuf_new
  21              		.thumb
  22              		.thumb_func
  23              		.type	netbuf_new, %function
  24              	netbuf_new:
  25              	.LFB7:
  26              		.file 1 "../../ext/lwip/src/api/netbuf.c"
  27              		.loc 1 57 0
  28              		.cfi_startproc
  29              		@ args = 0, pretend = 0, frame = 0
  30              		@ frame_needed = 0, uses_anonymous_args = 0
  31 0000 08B5     		push	{r3, lr}
  32              	.LCFI0:
  33              		.cfi_def_cfa_offset 8
  34              		.cfi_offset 14, -4
  35              		.cfi_offset 3, -8
  36              		.loc 1 60 0
  37 0002 0720     		movs	r0, #7
  38 0004 FFF7FEFF 		bl	memp_malloc
  39              	.LVL0:
  40              		.loc 1 61 0
  41 0008 20B1     		cbz	r0, .L2
  42              		.loc 1 62 0
  43 000a 0023     		movs	r3, #0
  44 000c 0360     		str	r3, [r0, #0]
  45              		.loc 1 63 0
  46 000e 4360     		str	r3, [r0, #4]
  47              		.loc 1 64 0
  48 0010 8360     		str	r3, [r0, #8]
  49              		.loc 1 65 0
  50 0012 8381     		strh	r3, [r0, #12]	@ movhi
  51              	.L2:
  52              		.loc 1 79 0
  53 0014 08BD     		pop	{r3, pc}
  54              		.cfi_endproc
  55              	.LFE7:
  56              		.size	netbuf_new, .-netbuf_new
  57 0016 00BFAFF3 		.section	.text.netbuf_delete,"ax",%progbits
ARM GAS  /var/folders/5n/p_75w94d66l9ssrldxqdhh700000gn/T//cc7gqFm2.s 			page 2


  57      0080AFF3 
  57      0080
  58              		.align	2
  59              		.p2align 4,,15
  60              		.global	netbuf_delete
  61              		.thumb
  62              		.thumb_func
  63              		.type	netbuf_delete, %function
  64              	netbuf_delete:
  65              	.LFB8:
  66              		.loc 1 88 0
  67              		.cfi_startproc
  68              		@ args = 0, pretend = 0, frame = 0
  69              		@ frame_needed = 0, uses_anonymous_args = 0
  70              	.LVL1:
  71 0000 10B5     		push	{r4, lr}
  72              	.LCFI1:
  73              		.cfi_def_cfa_offset 8
  74              		.cfi_offset 14, -4
  75              		.cfi_offset 4, -8
  76              		.loc 1 89 0
  77 0002 0446     		mov	r4, r0
  78 0004 60B1     		cbz	r0, .L4
  79              		.loc 1 90 0
  80 0006 0068     		ldr	r0, [r0, #0]
  81              	.LVL2:
  82 0008 20B1     		cbz	r0, .L6
  83              		.loc 1 91 0
  84 000a FFF7FEFF 		bl	pbuf_free
  85              		.loc 1 92 0
  86 000e 0023     		movs	r3, #0
  87 0010 6360     		str	r3, [r4, #4]
  88 0012 2360     		str	r3, [r4, #0]
  89              	.L6:
  90              		.loc 1 94 0
  91 0014 0720     		movs	r0, #7
  92 0016 2146     		mov	r1, r4
  93              		.loc 1 96 0
  94 0018 BDE81040 		pop	{r4, lr}
  95              		.loc 1 94 0
  96 001c FFF7FEBF 		b	memp_free
  97              	.L4:
  98 0020 10BD     		pop	{r4, pc}
  99              		.cfi_endproc
 100              	.LFE8:
 101              		.size	netbuf_delete, .-netbuf_delete
 102 0022 00BFAFF3 		.section	.text.netbuf_alloc,"ax",%progbits
 102      0080AFF3 
 102      0080AFF3 
 102      0080
 103              		.align	2
 104              		.p2align 4,,15
 105              		.global	netbuf_alloc
 106              		.thumb
 107              		.thumb_func
 108              		.type	netbuf_alloc, %function
 109              	netbuf_alloc:
ARM GAS  /var/folders/5n/p_75w94d66l9ssrldxqdhh700000gn/T//cc7gqFm2.s 			page 3


 110              	.LFB9:
 111              		.loc 1 108 0
 112              		.cfi_startproc
 113              		@ args = 0, pretend = 0, frame = 0
 114              		@ frame_needed = 0, uses_anonymous_args = 0
 115              	.LVL3:
 116 0000 38B5     		push	{r3, r4, r5, lr}
 117              	.LCFI2:
 118              		.cfi_def_cfa_offset 16
 119              		.cfi_offset 14, -4
 120              		.cfi_offset 5, -8
 121              		.cfi_offset 4, -12
 122              		.cfi_offset 3, -16
 123              		.loc 1 109 0
 124 0002 0446     		mov	r4, r0
 125              		.loc 1 108 0
 126 0004 0D46     		mov	r5, r1
 127              		.loc 1 109 0
 128 0006 A0B1     		cbz	r0, .L13
 129              		.loc 1 112 0
 130 0008 0068     		ldr	r0, [r0, #0]
 131              	.LVL4:
 132 000a 08B1     		cbz	r0, .L10
 133              		.loc 1 113 0
 134 000c FFF7FEFF 		bl	pbuf_free
 135              	.LVL5:
 136              	.L10:
 137              		.loc 1 115 0
 138 0010 0020     		movs	r0, #0
 139 0012 2946     		mov	r1, r5
 140 0014 0246     		mov	r2, r0
 141 0016 FFF7FEFF 		bl	pbuf_alloc
 142 001a 2060     		str	r0, [r4, #0]
 143              		.loc 1 116 0
 144 001c 20B1     		cbz	r0, .L9
 145              		.loc 1 119 0
 146 001e 4389     		ldrh	r3, [r0, #10]
 147 0020 AB42     		cmp	r3, r5
 148 0022 02D3     		bcc	.L14
 149              	.L11:
 150              		.loc 1 121 0
 151 0024 6060     		str	r0, [r4, #4]
 152              		.loc 1 122 0
 153 0026 4068     		ldr	r0, [r0, #4]
 154              	.L9:
 155              		.loc 1 123 0
 156 0028 38BD     		pop	{r3, r4, r5, pc}
 157              	.L14:
 158              		.loc 1 119 0 discriminator 1
 159 002a FFF7FEFF 		bl	port_halt
 160 002e 2068     		ldr	r0, [r4, #0]
 161 0030 F8E7     		b	.L11
 162              	.LVL6:
 163              	.L13:
 164              		.loc 1 109 0 discriminator 1
 165 0032 FFF7FEFF 		bl	port_halt
 166              	.LVL7:
ARM GAS  /var/folders/5n/p_75w94d66l9ssrldxqdhh700000gn/T//cc7gqFm2.s 			page 4


 167 0036 2046     		mov	r0, r4
 168 0038 38BD     		pop	{r3, r4, r5, pc}
 169              		.cfi_endproc
 170              	.LFE9:
 171              		.size	netbuf_alloc, .-netbuf_alloc
 172 003a 00BFAFF3 		.section	.text.netbuf_free,"ax",%progbits
 172      0080
 173              		.align	2
 174              		.p2align 4,,15
 175              		.global	netbuf_free
 176              		.thumb
 177              		.thumb_func
 178              		.type	netbuf_free, %function
 179              	netbuf_free:
 180              	.LFB10:
 181              		.loc 1 132 0
 182              		.cfi_startproc
 183              		@ args = 0, pretend = 0, frame = 0
 184              		@ frame_needed = 0, uses_anonymous_args = 0
 185              	.LVL8:
 186 0000 10B5     		push	{r4, lr}
 187              	.LCFI3:
 188              		.cfi_def_cfa_offset 8
 189              		.cfi_offset 14, -4
 190              		.cfi_offset 4, -8
 191              		.loc 1 133 0
 192 0002 0446     		mov	r4, r0
 193 0004 38B1     		cbz	r0, .L18
 194              		.loc 1 134 0
 195 0006 0068     		ldr	r0, [r0, #0]
 196              	.LVL9:
 197 0008 08B1     		cbz	r0, .L17
 198              		.loc 1 135 0
 199 000a FFF7FEFF 		bl	pbuf_free
 200              	.L17:
 201              		.loc 1 137 0
 202 000e 0023     		movs	r3, #0
 203 0010 6360     		str	r3, [r4, #4]
 204 0012 2360     		str	r3, [r4, #0]
 205              		.loc 1 138 0
 206 0014 10BD     		pop	{r4, pc}
 207              	.L18:
 208              		.loc 1 138 0 is_stmt 0 discriminator 1
 209 0016 BDE81040 		pop	{r4, lr}
 210              		.loc 1 133 0 is_stmt 1 discriminator 1
 211 001a FFF7FEBF 		b	port_halt
 212              		.cfi_endproc
 213              	.LFE10:
 214              		.size	netbuf_free, .-netbuf_free
 215 001e 00BF     		.section	.text.netbuf_ref,"ax",%progbits
 216              		.align	2
 217              		.p2align 4,,15
 218              		.global	netbuf_ref
 219              		.thumb
 220              		.thumb_func
 221              		.type	netbuf_ref, %function
 222              	netbuf_ref:
ARM GAS  /var/folders/5n/p_75w94d66l9ssrldxqdhh700000gn/T//cc7gqFm2.s 			page 5


 223              	.LFB11:
 224              		.loc 1 151 0
 225              		.cfi_startproc
 226              		@ args = 0, pretend = 0, frame = 0
 227              		@ frame_needed = 0, uses_anonymous_args = 0
 228              	.LVL10:
 229 0000 70B5     		push	{r4, r5, r6, lr}
 230              	.LCFI4:
 231              		.cfi_def_cfa_offset 16
 232              		.cfi_offset 14, -4
 233              		.cfi_offset 6, -8
 234              		.cfi_offset 5, -12
 235              		.cfi_offset 4, -16
 236              		.loc 1 152 0
 237 0002 0446     		mov	r4, r0
 238              		.loc 1 151 0
 239 0004 0E46     		mov	r6, r1
 240 0006 1546     		mov	r5, r2
 241              		.loc 1 152 0
 242 0008 A0B1     		cbz	r0, .L24
 243              		.loc 1 153 0
 244 000a 0068     		ldr	r0, [r0, #0]
 245              	.LVL11:
 246 000c 08B1     		cbz	r0, .L22
 247              		.loc 1 154 0
 248 000e FFF7FEFF 		bl	pbuf_free
 249              	.LVL12:
 250              	.L22:
 251              		.loc 1 156 0
 252 0012 0020     		movs	r0, #0
 253 0014 0146     		mov	r1, r0
 254 0016 0222     		movs	r2, #2
 255 0018 FFF7FEFF 		bl	pbuf_alloc
 256 001c 2060     		str	r0, [r4, #0]
 257              		.loc 1 157 0
 258 001e 30B1     		cbz	r0, .L25
 259              		.loc 1 161 0
 260 0020 4660     		str	r6, [r0, #4]
 261              		.loc 1 162 0
 262 0022 0581     		strh	r5, [r0, #8]	@ movhi
 263 0024 4581     		strh	r5, [r0, #10]	@ movhi
 264              		.loc 1 164 0
 265 0026 0023     		movs	r3, #0
 266              		.loc 1 163 0
 267 0028 6060     		str	r0, [r4, #4]
 268              	.L21:
 269              		.loc 1 165 0
 270 002a 58B2     		sxtb	r0, r3
 271 002c 70BD     		pop	{r4, r5, r6, pc}
 272              	.L25:
 273              		.loc 1 158 0
 274 002e 6060     		str	r0, [r4, #4]
 275              		.loc 1 159 0
 276 0030 FF23     		movs	r3, #255
 277 0032 FAE7     		b	.L21
 278              	.LVL13:
 279              	.L24:
ARM GAS  /var/folders/5n/p_75w94d66l9ssrldxqdhh700000gn/T//cc7gqFm2.s 			page 6


 280              		.loc 1 152 0 discriminator 1
 281 0034 FFF7FEFF 		bl	port_halt
 282              	.LVL14:
 283 0038 F223     		movs	r3, #242
 284 003a F6E7     		b	.L21
 285              		.cfi_endproc
 286              	.LFE11:
 287              		.size	netbuf_ref, .-netbuf_ref
 288 003c AFF30080 		.section	.text.netbuf_chain,"ax",%progbits
 289              		.align	2
 290              		.p2align 4,,15
 291              		.global	netbuf_chain
 292              		.thumb
 293              		.thumb_func
 294              		.type	netbuf_chain, %function
 295              	netbuf_chain:
 296              	.LFB12:
 297              		.loc 1 175 0
 298              		.cfi_startproc
 299              		@ args = 0, pretend = 0, frame = 0
 300              		@ frame_needed = 0, uses_anonymous_args = 0
 301              	.LVL15:
 302 0000 38B5     		push	{r3, r4, r5, lr}
 303              	.LCFI5:
 304              		.cfi_def_cfa_offset 16
 305              		.cfi_offset 14, -4
 306              		.cfi_offset 5, -8
 307              		.cfi_offset 4, -12
 308              		.cfi_offset 3, -16
 309              		.loc 1 176 0
 310 0002 0446     		mov	r4, r0
 311              		.loc 1 175 0
 312 0004 0D46     		mov	r5, r1
 313              		.loc 1 176 0
 314 0006 60B1     		cbz	r0, .L29
 315              		.loc 1 177 0
 316 0008 59B1     		cbz	r1, .L29
 317              		.loc 1 178 0
 318 000a 0068     		ldr	r0, [r0, #0]
 319              	.LVL16:
 320 000c 0968     		ldr	r1, [r1, #0]
 321              	.LVL17:
 322 000e FFF7FEFF 		bl	pbuf_cat
 323              		.loc 1 179 0
 324 0012 2368     		ldr	r3, [r4, #0]
 325              		.loc 1 180 0
 326 0014 0720     		movs	r0, #7
 327 0016 2946     		mov	r1, r5
 328              		.loc 1 179 0
 329 0018 6360     		str	r3, [r4, #4]
 330              		.loc 1 181 0
 331 001a BDE83840 		pop	{r3, r4, r5, lr}
 332              		.loc 1 180 0
 333 001e FFF7FEBF 		b	memp_free
 334              	.L29:
 335              		.loc 1 181 0 discriminator 1
 336 0022 BDE83840 		pop	{r3, r4, r5, lr}
ARM GAS  /var/folders/5n/p_75w94d66l9ssrldxqdhh700000gn/T//cc7gqFm2.s 			page 7


 337              		.loc 1 177 0 discriminator 1
 338 0026 FFF7FEBF 		b	port_halt
 339              		.cfi_endproc
 340              	.LFE12:
 341              		.size	netbuf_chain, .-netbuf_chain
 342 002a 00BFAFF3 		.section	.text.netbuf_data,"ax",%progbits
 342      0080
 343              		.align	2
 344              		.p2align 4,,15
 345              		.global	netbuf_data
 346              		.thumb
 347              		.thumb_func
 348              		.type	netbuf_data, %function
 349              	netbuf_data:
 350              	.LFB13:
 351              		.loc 1 194 0
 352              		.cfi_startproc
 353              		@ args = 0, pretend = 0, frame = 0
 354              		@ frame_needed = 0, uses_anonymous_args = 0
 355              	.LVL18:
 356 0000 08B5     		push	{r3, lr}
 357              	.LCFI6:
 358              		.cfi_def_cfa_offset 8
 359              		.cfi_offset 14, -4
 360              		.cfi_offset 3, -8
 361              		.loc 1 195 0
 362 0002 58B1     		cbz	r0, .L36
 363              		.loc 1 196 0
 364 0004 51B1     		cbz	r1, .L36
 365              		.loc 1 197 0
 366 0006 4AB1     		cbz	r2, .L36
 367              		.loc 1 199 0
 368 0008 4368     		ldr	r3, [r0, #4]
 369 000a 5BB1     		cbz	r3, .L35
 370              		.loc 1 202 0
 371 000c 5B68     		ldr	r3, [r3, #4]
 372 000e 0B60     		str	r3, [r1, #0]
 373              		.loc 1 203 0
 374 0010 4368     		ldr	r3, [r0, #4]
 375 0012 5B89     		ldrh	r3, [r3, #10]
 376              		.loc 1 204 0
 377 0014 0020     		movs	r0, #0
 378              	.LVL19:
 379              		.loc 1 203 0
 380 0016 1380     		strh	r3, [r2, #0]	@ movhi
 381              	.LVL20:
 382              	.L32:
 383              		.loc 1 205 0
 384 0018 40B2     		sxtb	r0, r0
 385 001a 08BD     		pop	{r3, pc}
 386              	.LVL21:
 387              	.L36:
 388              		.loc 1 197 0 discriminator 1
 389 001c FFF7FEFF 		bl	port_halt
 390              	.LVL22:
 391 0020 F220     		movs	r0, #242
 392 0022 F9E7     		b	.L32
ARM GAS  /var/folders/5n/p_75w94d66l9ssrldxqdhh700000gn/T//cc7gqFm2.s 			page 8


 393              	.LVL23:
 394              	.L35:
 395              		.loc 1 200 0
 396 0024 FE20     		movs	r0, #254
 397              	.LVL24:
 398 0026 F7E7     		b	.L32
 399              		.cfi_endproc
 400              	.LFE13:
 401              		.size	netbuf_data, .-netbuf_data
 402 0028 AFF30080 		.section	.text.netbuf_next,"ax",%progbits
 402      AFF30080 
 403              		.align	2
 404              		.p2align 4,,15
 405              		.global	netbuf_next
 406              		.thumb
 407              		.thumb_func
 408              		.type	netbuf_next, %function
 409              	netbuf_next:
 410              	.LFB14:
 411              		.loc 1 219 0
 412              		.cfi_startproc
 413              		@ args = 0, pretend = 0, frame = 0
 414              		@ frame_needed = 0, uses_anonymous_args = 0
 415              	.LVL25:
 416 0000 08B5     		push	{r3, lr}
 417              	.LCFI7:
 418              		.cfi_def_cfa_offset 8
 419              		.cfi_offset 14, -4
 420              		.cfi_offset 3, -8
 421              		.loc 1 220 0
 422 0002 60B1     		cbz	r0, .L41
 423              		.loc 1 221 0
 424 0004 4368     		ldr	r3, [r0, #4]
 425 0006 1B68     		ldr	r3, [r3, #0]
 426 0008 3BB1     		cbz	r3, .L40
 427              		.loc 1 220 0
 428 000a 1A68     		ldr	r2, [r3, #0]
 429              		.loc 1 224 0
 430 000c 4360     		str	r3, [r0, #4]
 431              		.loc 1 220 0
 432 000e D2F10100 		rsbs	r0, r2, #1
 433              	.LVL26:
 434 0012 38BF     		it	cc
 435 0014 0020     		movcc	r0, #0
 436              	.L39:
 437              		.loc 1 229 0
 438 0016 40B2     		sxtb	r0, r0
 439 0018 08BD     		pop	{r3, pc}
 440              	.LVL27:
 441              	.L40:
 442              		.loc 1 222 0
 443 001a FF20     		movs	r0, #255
 444              	.LVL28:
 445 001c FBE7     		b	.L39
 446              	.LVL29:
 447              	.L41:
 448              		.loc 1 220 0 discriminator 1
ARM GAS  /var/folders/5n/p_75w94d66l9ssrldxqdhh700000gn/T//cc7gqFm2.s 			page 9


 449 001e FFF7FEFF 		bl	port_halt
 450              	.LVL30:
 451 0022 FF20     		movs	r0, #255
 452 0024 F7E7     		b	.L39
 453              		.cfi_endproc
 454              	.LFE14:
 455              		.size	netbuf_next, .-netbuf_next
 456 0026 00BFAFF3 		.section	.text.netbuf_first,"ax",%progbits
 456      0080AFF3 
 456      0080
 457              		.align	2
 458              		.p2align 4,,15
 459              		.global	netbuf_first
 460              		.thumb
 461              		.thumb_func
 462              		.type	netbuf_first, %function
 463              	netbuf_first:
 464              	.LFB15:
 465              		.loc 1 240 0
 466              		.cfi_startproc
 467              		@ args = 0, pretend = 0, frame = 0
 468              		@ frame_needed = 0, uses_anonymous_args = 0
 469              		@ link register save eliminated.
 470              	.LVL31:
 471              		.loc 1 241 0
 472 0000 10B1     		cbz	r0, .L44
 473              		.loc 1 242 0
 474 0002 0368     		ldr	r3, [r0, #0]
 475 0004 4360     		str	r3, [r0, #4]
 476              		.loc 1 243 0
 477 0006 7047     		bx	lr
 478              	.L44:
 479              		.loc 1 243 0 is_stmt 0 discriminator 1
 480              		.loc 1 241 0 is_stmt 1 discriminator 1
 481 0008 FFF7FEBF 		b	port_halt
 482              	.LVL32:
 483              		.cfi_endproc
 484              	.LFE15:
 485              		.size	netbuf_first, .-netbuf_first
 486 000c AFF30080 		.text
 487              	.Letext0:
 488              		.file 2 "/usr/local/summon/lib/gcc/arm-none-eabi/4.6.2/../../../../arm-none-eabi/include/stdint.h"
 489              		.file 3 "../../os/various/lwip_bindings/arch/cc.h"
 490              		.file 4 "../../ext/lwip/src/include/lwip/err.h"
 491              		.file 5 "../../ext/lwip/src/include/lwip/pbuf.h"
 492              		.file 6 "../../ext/lwip/src/include/ipv4/lwip/ip_addr.h"
 493              		.file 7 "../../ext/lwip/src/include/lwip/netbuf.h"
 494              		.file 8 "../../ext/lwip/src/include/lwip/memp.h"