ARM GAS  /var/folders/5n/p_75w94d66l9ssrldxqdhh700000gn/T//cc7gqFm2.s 			page 1


   1              		.syntax unified
   2              		.cpu cortex-m4
   3              		.fpu softvfp
   4              		.eabi_attribute 20, 1
   5              		.eabi_attribute 21, 1
   6              		.eabi_attribute 23, 3
   7              		.eabi_attribute 24, 1
   8              		.eabi_attribute 25, 1
   9              		.eabi_attribute 26, 1
  10              		.eabi_attribute 30, 2
  11              		.eabi_attribute 18, 4
  12              		.thumb
  13              		.file	"netbuf.c"
  14              		.text
  15              	.Ltext0:
  16              		.cfi_sections	.debug_frame
  17              		.section	.text.netbuf_new,"ax",%progbits
  18              		.align	2
  19              		.p2align 4,,15
  20              		.global	netbuf_new
  21              		.thumb
  22              		.thumb_func
  23              		.type	netbuf_new, %function
  24              	netbuf_new:
  25              	.LFB7:
  26              		.file 1 "../../ext/lwip/src/api/netbuf.c"
  27              		.loc 1 57 0
  28              		.cfi_startproc
  29              		@ args = 0, pretend = 0, frame = 0
  30              		@ frame_needed = 0, uses_anonymous_args = 0
  31 0000 08B5     		push	{r3, lr}
  32              	.LCFI0:
  33              		.cfi_def_cfa_offset 8
  34              		.cfi_offset 14, -4
  35              		.cfi_offset 3, -8
  36              		.loc 1 60 0
  37 0002 0720     		movs	r0, #7
  38 0004 FFF7FEFF 		bl	memp_malloc
  39              	.LVL0:
  40              		.loc 1 61 0
  41 0008 20B1     		cbz	r0, .L2
  42              		.loc 1 62 0
  43 000a 0023     		movs	r3, #0
  44 000c 0360     		str	r3, [r0, #0]
  45              		.loc 1 63 0
  46 000e 4360     		str	r3, [r0, #4]
  47              		.loc 1 64 0
  48 0010 8360     		str	r3, [r0, #8]
  49              		.loc 1 65 0
  50 0012 8381     		strh	r3, [r0, #12]	@ movhi
  51              	.L2:
  52              		.loc 1 79 0
  53 0014 08BD     		pop	{r3, pc}
  54              		.cfi_endproc
  55              	.LFE7:
  56              		.size	netbuf_new, .-netbuf_new
  57 0016 00BFAFF3 		.section	.text.netbuf_delete,"ax",%progbits
ARM GAS  /var/folders/5n/p_75w94d66l9ssrldxqdhh700000gn/T//cc7gqFm2.s 			page 2


  57      0080AFF3 
  57      0080
  58              		.align	2
  59              		.p2align 4,,15
  60              		.global	netbuf_delete
  61              		.thumb
  62              		.thumb_func
  63              		.type	netbuf_delete, %function
  64              	netbuf_delete:
  65              	.LFB8:
  66              		.loc 1 88 0
  67              		.cfi_startproc
  68              		@ args = 0, pretend = 0, frame = 0
  69              		@ frame_needed = 0, uses_anonymous_args = 0
  70              	.LVL1:
  71 0000 10B5     		push	{r4, lr}
  72              	.LCFI1:
  73              		.cfi_def_cfa_offset 8
  74              		.cfi_offset 14, -4
  75              		.cfi_offset 4, -8
  76              		.loc 1 89 0
  77 0002 0446     		mov	r4, r0
  78 0004 60B1     		cbz	r0, .L4
  79              		.loc 1 90 0
  80 0006 0068     		ldr	r0, [r0, #0]
  81              	.LVL2:
  82 0008 20B1     		cbz	r0, .L6
  83              		.loc 1 91 0
  84 000a FFF7FEFF 		bl	pbuf_free
  85              		.loc 1 92 0
  86 000e 0023     		movs	r3, #0
  87 0010 6360     		str	r3, [r4, #4]
  88 0012 2360     		str	r3, [r4, #0]
  89              	.L6:
  90              		.loc 1 94 0
  91 0014 0720     		movs	r0, #7
  92 0016 2146     		mov	r1, r4
  93              		.loc 1 96 0
  94 0018 BDE81040 		pop	{r4, lr}
  95              		.loc 1 94 0
  96 001c FFF7FEBF 		b	memp_free
  97              	.L4:
  98 0020 10BD     		pop	{r4, pc}
  99              		.cfi_endproc
 100              	.LFE8:
 101              		.size	netbuf_delete, .-netbuf_delete
 102 0022 00BFAFF3 		.section	.text.netbuf_alloc,"ax",%progbits
 102      0080AFF3 
 102      0080AFF3 
 102      0080
 103              		.align	2
 104              		.p2align 4,,15
 105              		.global	netbuf_alloc
 106              		.thumb
 107              		.thumb_func
 108              		.type	netbuf_alloc, %function
 109              	netbuf_alloc:
ARM GAS  /var/folders/5n/p_75w94d66l9ssrldxqdhh700000gn/T//cc7gqFm2.s 			page 3


 110              	.LFB9:
 111              		.loc 1 108 0
 112              		.cfi_startproc
 113              		@ args = 0, pretend = 0, frame = 0
 114              		@ frame_needed = 0, uses_anonymous_args = 0
 115              	.LVL3:
 116 0000 38B5     		push	{r3, r4, r5, lr}
 117              	.LCFI2:
 118              		.cfi_def_cfa_offset 16
 119              		.cfi_offset 14, -4
 120              		.cfi_offset 5, -8
 121              		.cfi_offset 4, -12
 122              		.cfi_offset 3, -16
 123              		.loc 1 109 0
 124 0002 0446     		mov	r4, r0
 125              		.loc 1 108 0
 126 0004 0D46     		mov	r5, r1
 127              		.loc 1 109 0
 128 0006 A0B1     		cbz	r0, .L13
 129              		.loc 1 112 0
 130 0008 0068     		ldr	r0, [r0, #0]
 131              	.LVL4:
 132 000a 08B1     		cbz	r0, .L10
 133              		.loc 1 113 0
 134 000c FFF7FEFF 		bl	pbuf_free
 135              	.LVL5:
 136              	.L10:
 137              		.loc 1 115 0
 138 0010 0020     		movs	r0, #0
 139 0012 2946     		mov	r1, r5
 140 0014 0246     		mov	r2, r0
 141 0016 FFF7FEFF 		bl	pbuf_alloc
 142 001a 2060     		str	r0, [r4, #0]
 143              		.loc 1 116 0
 144 001c 20B1     		cbz	r0, .L9
 145              		.loc 1 119 0
 146 001e 4389     		ldrh	r3, [r0, #10]
 147 0020 AB42     		cmp	r3, r5
 148 0022 02D3     		bcc	.L14
 149              	.L11:
 150              		.loc 1 121 0
 151 0024 6060     		str	r0, [r4, #4]
 152              		.loc 1 122 0
 153 0026 4068     		ldr	r0, [r0, #4]
 154              	.L9:
 155              		.loc 1 123 0
 156 0028 38BD     		pop	{r3, r4, r5, pc}
 157              	.L14:
 158              		.loc 1 119 0 discriminator 1
 159 002a FFF7FEFF 		bl	port_halt
 160 002e 2068     		ldr	r0, [r4, #0]
 161 0030 F8E7     		b	.L11
 162              	.LVL6:
 163              	.L13:
 164              		.loc 1 109 0 discriminator 1
 165 0032 FFF7FEFF 		bl	port_halt
 166              	.LVL7:
ARM GAS  /var/folders/5n/p_75w94d66l9ssrldxqdhh700000gn/T//cc7gqFm2.s 			page 4


 167 0036 2046     		mov	r0, r4
 168 0038 38BD     		pop	{r3, r4, r5, pc}
 169              		.cfi_endproc
 170              	.LFE9:
 171              		.size	netbuf_alloc, .-netbuf_alloc
 172 003a 00BFAFF3 		.section	.text.netbuf_free,"ax",%progbits
 172      0080
 173              		.align	2
 174              		.p2align 4,,15
 175              		.global	netbuf_free
 176              		.thumb
 177              		.thumb_func
 178              		.type	netbuf_free, %function
 179              	netbuf_free:
 180              	.LFB10:
 181              		.loc 1 132 0
 182              		.cfi_startproc
 183              		@ args = 0, pretend = 0, frame = 0
 184              		@ frame_needed = 0, uses_anonymous_args = 0
 185              	.LVL8:
 186 0000 10B5     		push	{r4, lr}
 187              	.LCFI3:
 188              		.cfi_def_cfa_offset 8
 189              		.cfi_offset 14, -4
 190              		.cfi_offset 4, -8
 191              		.loc 1 133 0
 192 0002 0446     		mov	r4, r0
 193 0004 38B1     		cbz	r0, .L18
 194              		.loc 1 134 0
 195 0006 0068     		ldr	r0, [r0, #0]
 196              	.LVL9:
 197 0008 08B1     		cbz	r0, .L17
 198              		.loc 1 135 0
 199 000a FFF7FEFF 		bl	pbuf_free
 200              	.L17:
 201              		.loc 1 137 0
 202 000e 0023     		movs	r3, #0
 203 0010 6360     		str	r3, [r4, #4]
 204 0012 2360     		str	r3, [r4, #0]
 205              		.loc 1 138 0
 206 0014 10BD     		pop	{r4, pc}
 207              	.L18:
 208              		.loc 1 138 0 is_stmt 0 discriminator 1
 209 0016 BDE81040 		pop	{r4, lr}
 210              		.loc 1 133 0 is_stmt 1 discriminator 1
 211 001a FFF7FEBF 		b	port_halt
 212              		.cfi_endproc
 213              	.LFE10:
 214              		.size	netbuf_free, .-netbuf_free
 215 001e 00BF     		.section	.text.netbuf_ref,"ax",%progbits
 216              		.align	2
 217              		.p2align 4,,15
 218              		.global	netbuf_ref
 219              		.thumb
 220              		.thumb_func
 221              		.type	netbuf_ref, %function
 222              	netbuf_ref:
ARM GAS  /var/folders/5n/p_75w94d66l9ssrldxqdhh700000gn/T//cc7gqFm2.s 			page 5


 223              	.LFB11:
 224              		.loc 1 151 0
 225              		.cfi_startproc
 226              		@ args = 0, pretend = 0, frame = 0
 227              		@ frame_needed = 0, uses_anonymous_args = 0
 228              	.LVL10:
 229 0000 70B5     		push	{r4, r5, r6, lr}
 230              	.LCFI4:
 231              		.cfi_def_cfa_offset 16
 232              		.cfi_offset 14, -4
 233              		.cfi_offset 6, -8
 234              		.cfi_offset 5, -12
 235              		.cfi_offset 4, -16
 236              		.loc 1 152 0
 237 0002 0446     		mov	r4, r0
 238              		.loc 1 151 0
 239 0004 0E46     		mov	r6, r1
 240 0006 1546     		mov	r5, r2
 241              		.loc 1 152 0
 242 0008 A0B1     		cbz	r0, .L24
 243              		.loc 1 153 0
 244 000a 0068     		ldr	r0, [r0, #0]
 245              	.LVL11:
 246 000c 08B1     		cbz	r0, .L22
 247              		.loc 1 154 0
 248 000e FFF7FEFF 		bl	pbuf_free
 249              	.LVL12:
 250              	.L22:
 251              		.loc 1 156 0
 252 0012 0020     		movs	r0, #0
 253 0014 0146     		mov	r1, r0
 254 0016 0222     		movs	r2, #2
 255 0018 FFF7FEFF 		bl	pbuf_alloc
 256 001c 2060     		str	r0, [r4, #0]
 257              		.loc 1 157 0
 258 001e 30B1     		cbz	r0, .L25
 259              		.loc 1 161 0
 260 0020 4660     		str	r6, [r0, #4]
 261              		.loc 1 162 0
 262 0022 0581     		strh	r5, [r0, #8]	@ movhi
 263 0024 4581     		strh	r5, [r0, #10]	@ movhi
 264              		.loc 1 164 0
 265 0026 0023     		movs	r3, #0
 266              		.loc 1 163 0
 267 0028 6060     		str	r0, [r4, #4]
 268              	.L21:
 269              		.loc 1 165 0
 270 002a 58B2     		sxtb	r0, r3
 271 002c 70BD     		pop	{r4, r5, r6, pc}
 272              	.L25:
 273              		.loc 1 158 0
 274 002e 6060     		str	r0, [r4, #4]
 275              		.loc 1 159 0
 276 0030 FF23     		movs	r3, #255
 277 0032 FAE7     		b	.L21
 278              	.LVL13:
 279              	.L24:
ARM GAS  /var/folders/5n/p_75w94d66l9ssrldxqdhh700000gn/T//cc7gqFm2.s 			page 6


 280              		.loc 1 152 0 discriminator 1
 281 0034 FFF7FEFF 		bl	port_halt
 282              	.LVL14:
 283 0038 F223     		movs	r3, #242
 284 003a F6E7     		b	.L21
 285              		.cfi_endproc
 286              	.LFE11:
 287              		.size	netbuf_ref, .-netbuf_ref
 288 003c AFF30080 		.section	.text.netbuf_chain,"ax",%progbits
 289              		.align	2
 290              		.p2align 4,,15
 291              		.global	netbuf_chain
 292              		.thumb
 293              		.thumb_func
 294              		.type	netbuf_chain, %function
 295              	netbuf_chain:
 296              	.LFB12:
 297              		.loc 1 175 0
 298              		.cfi_startproc
 299              		@ args = 0, pretend = 0, frame = 0
 300              		@ frame_needed = 0, uses_anonymous_args = 0
 301              	.LVL15:
 302 0000 38B5     		push	{r3, r4, r5, lr}
 303              	.LCFI5:
 304              		.cfi_def_cfa_offset 16
 305              		.cfi_offset 14, -4
 306              		.cfi_offset 5, -8
 307              		.cfi_offset 4, -12
 308              		.cfi_offset 3, -16
 309              		.loc 1 176 0
 310 0002 0446     		mov	r4, r0
 311              		.loc 1 175 0
 312 0004 0D46     		mov	r5, r1
 313              		.loc 1 176 0
 314 0006 60B1     		cbz	r0, .L29
 315              		.loc 1 177 0
 316 0008 59B1     		cbz	r1, .L29
 317              		.loc 1 178 0
 318 000a 0068     		ldr	r0, [r0, #0]
 319              	.LVL16:
 320 000c 0968     		ldr	r1, [r1, #0]
 321              	.LVL17:
 322 000e FFF7FEFF 		bl	pbuf_cat
 323              		.loc 1 179 0
 324 0012 2368     		ldr	r3, [r4, #0]
 325              		.loc 1 180 0
 326 0014 0720     		movs	r0, #7
 327 0016 2946     		mov	r1, r5
 328              		.loc 1 179 0
 329 0018 6360     		str	r3, [r4, #4]
 330              		.loc 1 181 0
 331 001a BDE83840 		pop	{r3, r4, r5, lr}
 332              		.loc 1 180 0
 333 001e FFF7FEBF 		b	memp_free
 334              	.L29:
 335              		.loc 1 181 0 discriminator 1
 336 0022 BDE83840 		pop	{r3, r4, r5, lr}
ARM GAS  /var/folders/5n/p_75w94d66l9ssrldxqdhh700000gn/T//cc7gqFm2.s 			page 7


 337              		.loc 1 177 0 discriminator 1
 338 0026 FFF7FEBF 		b	port_halt
 339              		.cfi_endproc
 340              	.LFE12:
 341              		.size	netbuf_chain, .-netbuf_chain
 342 002a 00BFAFF3 		.section	.text.netbuf_data,"ax",%progbits
 342      0080
 343              		.align	2
 344              		.p2align 4,,15
 345              		.global	netbuf_data
 346              		.thumb
 347              		.thumb_func
 348              		.type	netbuf_data, %function
 349              	netbuf_data:
 350              	.LFB13:
 351              		.loc 1 194 0
 352              		.cfi_startproc
 353              		@ args = 0, pretend = 0, frame = 0
 354              		@ frame_needed = 0, uses_anonymous_args = 0
 355              	.LVL18:
 356 0000 08B5     		push	{r3, lr}
 357              	.LCFI6:
 358              		.cfi_def_cfa_offset 8
 359              		.cfi_offset 14, -4
 360              		.cfi_offset 3, -8
 361              		.loc 1 195 0
 362 0002 58B1     		cbz	r0, .L36
 363              		.loc 1 196 0
 364 0004 51B1     		cbz	r1, .L36
 365              		.loc 1 197 0
 366 0006 4AB1     		cbz	r2, .L36
 367              		.loc 1 199 0
 368 0008 4368     		ldr	r3, [r0, #4]
 369 000a 5BB1     		cbz	r3, .L35
 370              		.loc 1 202 0
 371 000c 5B68     		ldr	r3, [r3, #4]
 372 000e 0B60     		str	r3, [r1, #0]
 373              		.loc 1 203 0
 374 0010 4368     		ldr	r3, [r0, #4]
 375 0012 5B89     		ldrh	r3, [r3, #10]
 376              		.loc 1 204 0
 377 0014 0020     		movs	r0, #0
 378              	.LVL19:
 379              		.loc 1 203 0
 380 0016 1380     		strh	r3, [r2, #0]	@ movhi
 381              	.LVL20:
 382              	.L32:
 383              		.loc 1 205 0
 384 0018 40B2     		sxtb	r0, r0
 385 001a 08BD     		pop	{r3, pc}
 386              	.LVL21:
 387              	.L36:
 388              		.loc 1 197 0 discriminator 1
 389 001c FFF7FEFF 		bl	port_halt
 390              	.LVL22:
 391 0020 F220     		movs	r0, #242
 392 0022 F9E7     		b	.L32
ARM GAS  /var/folders/5n/p_75w94d66l9ssrldxqdhh700000gn/T//cc7gqFm2.s 			page 8


 393              	.LVL23:
 394              	.L35:
 395              		.loc 1 200 0
 396 0024 FE20     		movs	r0, #254
 397              	.LVL24:
 398 0026 F7E7     		b	.L32
 399              		.cfi_endproc
 400              	.LFE13:
 401              		.size	netbuf_data, .-netbuf_data
 402 0028 AFF30080 		.section	.text.netbuf_next,"ax",%progbits
 402      AFF30080 
 403              		.align	2
 404              		.p2align 4,,15
 405              		.global	netbuf_next
 406              		.thumb
 407              		.thumb_func
 408              		.type	netbuf_next, %function
 409              	netbuf_next:
 410              	.LFB14:
 411              		.loc 1 219 0
 412              		.cfi_startproc
 413              		@ args = 0, pretend = 0, frame = 0
 414              		@ frame_needed = 0, uses_anonymous_args = 0
 415              	.LVL25:
 416 0000 08B5     		push	{r3, lr}
 417              	.LCFI7:
 418              		.cfi_def_cfa_offset 8
 419              		.cfi_offset 14, -4
 420              		.cfi_offset 3, -8
 421              		.loc 1 220 0
 422 0002 60B1     		cbz	r0, .L41
 423              		.loc 1 221 0
 424 0004 4368     		ldr	r3, [r0, #4]
 425 0006 1B68     		ldr	r3, [r3, #0]
 426 0008 3BB1     		cbz	r3, .L40
 427              		.loc 1 220 0
 428 000a 1A68     		ldr	r2, [r3, #0]
 429              		.loc 1 224 0
 430 000c 4360     		str	r3, [r0, #4]
 431              		.loc 1 220 0
 432 000e D2F10100 		rsbs	r0, r2, #1
 433              	.LVL26:
 434 0012 38BF     		it	cc
 435 0014 0020     		movcc	r0, #0
 436              	.L39:
 437              		.loc 1 229 0
 438 0016 40B2     		sxtb	r0, r0
 439 0018 08BD     		pop	{r3, pc}
 440              	.LVL27:
 441              	.L40:
 442              		.loc 1 222 0
 443 001a FF20     		movs	r0, #255
 444              	.LVL28:
 445 001c FBE7     		b	.L39
 446              	.LVL29:
 447              	.L41:
 448              		.loc 1 220 0 discriminator 1
ARM GAS  /var/folders/5n/p_75w94d66l9ssrldxqdhh700000gn/T//cc7gqFm2.s 			page 9


 449 001e FFF7FEFF 		bl	port_halt
 450              	.LVL30:
 451 0022 FF20     		movs	r0, #255
 452 0024 F7E7     		b	.L39
 453              		.cfi_endproc
 454              	.LFE14:
 455              		.size	netbuf_next, .-netbuf_next
 456 0026 00BFAFF3 		.section	.text.netbuf_first,"ax",%progbits
 456      0080AFF3 
 456      0080
 457              		.align	2
 458              		.p2align 4,,15
 459              		.global	netbuf_first
 460              		.thumb
 461              		.thumb_func
 462              		.type	netbuf_first, %function
 463              	netbuf_first:
 464              	.LFB15:
 465              		.loc 1 240 0
 466              		.cfi_startproc
 467              		@ args = 0, pretend = 0, frame = 0
 468              		@ frame_needed = 0, uses_anonymous_args = 0
 469              		@ link register save eliminated.
 470              	.LVL31:
 471              		.loc 1 241 0
 472 0000 10B1     		cbz	r0, .L44
 473              		.loc 1 242 0
 474 0002 0368     		ldr	r3, [r0, #0]
 475 0004 4360     		str	r3, [r0, #4]
 476              		.loc 1 243 0
 477 0006 7047     		bx	lr
 478              	.L44:
 479              		.loc 1 243 0 is_stmt 0 discriminator 1
 480              		.loc 1 241 0 is_stmt 1 discriminator 1
 481 0008 FFF7FEBF 		b	port_halt
 482              	.LVL32:
 483              		.cfi_endproc
 484              	.LFE15:
 485              		.size	netbuf_first, .-netbuf_first
 486 000c AFF30080 		.text
 487              	.Letext0:
 488              		.file 2 "/usr/local/summon/lib/gcc/arm-none-eabi/4.6.2/../../../../arm-none-eabi/include/stdint.h"
 489              		.file 3 "../../os/various/lwip_bindings/arch/cc.h"
 490              		.file 4 "../../ext/lwip/src/include/lwip/err.h"
 491              		.file 5 "../../ext/lwip/src/include/lwip/pbuf.h"
 492              		.file 6 "../../ext/lwip/src/include/ipv4/lwip/ip_addr.h"
 493              		.file 7 "../../ext/lwip/src/include/lwip/netbuf.h"
 494              		.file 8 "../../ext/lwip/src/include/lwip/memp.h"
 495              		.section	.debug_info,"",%progbits
 496              	.Ldebug_info0:
 497 0000 4C040000 		.4byte	0x44c
 498 0004 0200     		.2byte	0x2
 499 0006 00000000 		.4byte	.Ldebug_abbrev0
 500 000a 04       		.byte	0x4
 501 000b 01       		.uleb128 0x1
 502 000c 78020000 		.4byte	.LASF65
 503 0010 01       		.byte	0x1
ARM GAS  /var/folders/5n/p_75w94d66l9ssrldxqdhh700000gn/T//cc7gqFm2.s 			page 10


 504 0011 00000000 		.4byte	.LASF66
 505 0015 8F000000 		.4byte	.LASF67
 506 0019 00000000 		.4byte	0
 507 001d 00000000 		.4byte	0
 508 0021 00000000 		.4byte	.Ldebug_ranges0+0
 509 0025 00000000 		.4byte	.Ldebug_line0
 510 0029 02       		.uleb128 0x2
 511 002a 04       		.byte	0x4
 512 002b 05       		.byte	0x5
 513 002c 696E7400 		.ascii	"int\000"
 514 0030 03       		.uleb128 0x3
 515 0031 04       		.byte	0x4
 516 0032 07       		.byte	0x7
 517 0033 A8010000 		.4byte	.LASF0
 518 0037 04       		.uleb128 0x4
 519 0038 2C000000 		.4byte	.LASF2
 520 003c 02       		.byte	0x2
 521 003d 29       		.byte	0x29
 522 003e 42000000 		.4byte	0x42
 523 0042 03       		.uleb128 0x3
 524 0043 01       		.byte	0x1
 525 0044 06       		.byte	0x6
 526 0045 76010000 		.4byte	.LASF1
 527 0049 04       		.uleb128 0x4
 528 004a B8020000 		.4byte	.LASF3
 529 004e 02       		.byte	0x2
 530 004f 2A       		.byte	0x2a
 531 0050 54000000 		.4byte	0x54
 532 0054 03       		.uleb128 0x3
 533 0055 01       		.byte	0x1
 534 0056 08       		.byte	0x8
 535 0057 5A010000 		.4byte	.LASF4
 536 005b 03       		.uleb128 0x3
 537 005c 02       		.byte	0x2
 538 005d 05       		.byte	0x5
 539 005e 4D000000 		.4byte	.LASF5
 540 0062 04       		.uleb128 0x4
 541 0063 B5010000 		.4byte	.LASF6
 542 0067 02       		.byte	0x2
 543 0068 36       		.byte	0x36
 544 0069 6D000000 		.4byte	0x6d
 545 006d 03       		.uleb128 0x3
 546 006e 02       		.byte	0x2
 547 006f 07       		.byte	0x7
 548 0070 06020000 		.4byte	.LASF7
 549 0074 03       		.uleb128 0x3
 550 0075 04       		.byte	0x4
 551 0076 05       		.byte	0x5
 552 0077 42010000 		.4byte	.LASF8
 553 007b 04       		.uleb128 0x4
 554 007c 9F010000 		.4byte	.LASF9
 555 0080 02       		.byte	0x2
 556 0081 50       		.byte	0x50
 557 0082 86000000 		.4byte	0x86
 558 0086 03       		.uleb128 0x3
 559 0087 04       		.byte	0x4
 560 0088 07       		.byte	0x7
ARM GAS  /var/folders/5n/p_75w94d66l9ssrldxqdhh700000gn/T//cc7gqFm2.s 			page 11


 561 0089 59020000 		.4byte	.LASF10
 562 008d 03       		.uleb128 0x3
 563 008e 08       		.byte	0x8
 564 008f 05       		.byte	0x5
 565 0090 16010000 		.4byte	.LASF11
 566 0094 03       		.uleb128 0x3
 567 0095 08       		.byte	0x8
 568 0096 07       		.byte	0x7
 569 0097 88010000 		.4byte	.LASF12
 570 009b 05       		.uleb128 0x5
 571 009c 04       		.byte	0x4
 572 009d 03       		.uleb128 0x3
 573 009e 01       		.byte	0x1
 574 009f 08       		.byte	0x8
 575 00a0 E9010000 		.4byte	.LASF13
 576 00a4 04       		.uleb128 0x4
 577 00a5 AD020000 		.4byte	.LASF14
 578 00a9 03       		.byte	0x3
 579 00aa 3C       		.byte	0x3c
 580 00ab 49000000 		.4byte	0x49
 581 00af 04       		.uleb128 0x4
 582 00b0 11010000 		.4byte	.LASF15
 583 00b4 03       		.byte	0x3
 584 00b5 3D       		.byte	0x3d
 585 00b6 37000000 		.4byte	0x37
 586 00ba 04       		.uleb128 0x4
 587 00bb C0020000 		.4byte	.LASF16
 588 00bf 03       		.byte	0x3
 589 00c0 3E       		.byte	0x3e
 590 00c1 62000000 		.4byte	0x62
 591 00c5 04       		.uleb128 0x4
 592 00c6 B2020000 		.4byte	.LASF17
 593 00ca 03       		.byte	0x3
 594 00cb 40       		.byte	0x40
 595 00cc 7B000000 		.4byte	0x7b
 596 00d0 04       		.uleb128 0x4
 597 00d1 E3010000 		.4byte	.LASF18
 598 00d5 04       		.byte	0x4
 599 00d6 2F       		.byte	0x2f
 600 00d7 AF000000 		.4byte	0xaf
 601 00db 06       		.uleb128 0x6
 602 00dc 01       		.byte	0x1
 603 00dd 05       		.byte	0x5
 604 00de 32       		.byte	0x32
 605 00df FC000000 		.4byte	0xfc
 606 00e3 07       		.uleb128 0x7
 607 00e4 30020000 		.4byte	.LASF19
 608 00e8 00       		.sleb128 0
 609 00e9 07       		.uleb128 0x7
 610 00ea 3F020000 		.4byte	.LASF20
 611 00ee 01       		.sleb128 1
 612 00ef 07       		.uleb128 0x7
 613 00f0 4B030000 		.4byte	.LASF21
 614 00f4 02       		.sleb128 2
 615 00f5 07       		.uleb128 0x7
 616 00f6 F9000000 		.4byte	.LASF22
 617 00fa 03       		.sleb128 3
ARM GAS  /var/folders/5n/p_75w94d66l9ssrldxqdhh700000gn/T//cc7gqFm2.s 			page 12


 618 00fb 00       		.byte	0
 619 00fc 06       		.uleb128 0x6
 620 00fd 01       		.byte	0x1
 621 00fe 05       		.byte	0x5
 622 00ff 39       		.byte	0x39
 623 0100 1D010000 		.4byte	0x11d
 624 0104 07       		.uleb128 0x7
 625 0105 86000000 		.4byte	.LASF23
 626 0109 00       		.sleb128 0
 627 010a 07       		.uleb128 0x7
 628 010b 30030000 		.4byte	.LASF24
 629 010f 01       		.sleb128 1
 630 0110 07       		.uleb128 0x7
 631 0111 1F030000 		.4byte	.LASF25
 632 0115 02       		.sleb128 2
 633 0116 07       		.uleb128 0x7
 634 0117 BE010000 		.4byte	.LASF26
 635 011b 03       		.sleb128 3
 636 011c 00       		.byte	0
 637 011d 08       		.uleb128 0x8
 638 011e 46030000 		.4byte	.LASF32
 639 0122 10       		.byte	0x10
 640 0123 05       		.byte	0x5
 641 0124 49       		.byte	0x49
 642 0125 8C010000 		.4byte	0x18c
 643 0129 09       		.uleb128 0x9
 644 012a 41030000 		.4byte	.LASF27
 645 012e 05       		.byte	0x5
 646 012f 4B       		.byte	0x4b
 647 0130 8C010000 		.4byte	0x18c
 648 0134 02       		.byte	0x2
 649 0135 23       		.byte	0x23
 650 0136 00       		.uleb128 0
 651 0137 09       		.uleb128 0x9
 652 0138 39030000 		.4byte	.LASF28
 653 013c 05       		.byte	0x5
 654 013d 4E       		.byte	0x4e
 655 013e 9B000000 		.4byte	0x9b
 656 0142 02       		.byte	0x2
 657 0143 23       		.byte	0x23
 658 0144 04       		.uleb128 0x4
 659 0145 09       		.uleb128 0x9
 660 0146 FD020000 		.4byte	.LASF29
 661 014a 05       		.byte	0x5
 662 014b 57       		.byte	0x57
 663 014c BA000000 		.4byte	0xba
 664 0150 02       		.byte	0x2
 665 0151 23       		.byte	0x23
 666 0152 08       		.uleb128 0x8
 667 0153 0A       		.uleb128 0xa
 668 0154 6C656E00 		.ascii	"len\000"
 669 0158 05       		.byte	0x5
 670 0159 5A       		.byte	0x5a
 671 015a BA000000 		.4byte	0xba
 672 015e 02       		.byte	0x2
 673 015f 23       		.byte	0x23
 674 0160 0A       		.uleb128 0xa
ARM GAS  /var/folders/5n/p_75w94d66l9ssrldxqdhh700000gn/T//cc7gqFm2.s 			page 13


 675 0161 09       		.uleb128 0x9
 676 0162 EE010000 		.4byte	.LASF30
 677 0166 05       		.byte	0x5
 678 0167 5D       		.byte	0x5d
 679 0168 A4000000 		.4byte	0xa4
 680 016c 02       		.byte	0x2
 681 016d 23       		.byte	0x23
 682 016e 0C       		.uleb128 0xc
 683 016f 09       		.uleb128 0x9
 684 0170 82010000 		.4byte	.LASF31
 685 0174 05       		.byte	0x5
 686 0175 60       		.byte	0x60
 687 0176 A4000000 		.4byte	0xa4
 688 017a 02       		.byte	0x2
 689 017b 23       		.byte	0x23
 690 017c 0D       		.uleb128 0xd
 691 017d 0A       		.uleb128 0xa
 692 017e 72656600 		.ascii	"ref\000"
 693 0182 05       		.byte	0x5
 694 0183 67       		.byte	0x67
 695 0184 BA000000 		.4byte	0xba
 696 0188 02       		.byte	0x2
 697 0189 23       		.byte	0x23
 698 018a 0E       		.uleb128 0xe
 699 018b 00       		.byte	0
 700 018c 0B       		.uleb128 0xb
 701 018d 04       		.byte	0x4
 702 018e 1D010000 		.4byte	0x11d
 703 0192 08       		.uleb128 0x8
 704 0193 28030000 		.4byte	.LASF33
 705 0197 04       		.byte	0x4
 706 0198 06       		.byte	0x6
 707 0199 2C       		.byte	0x2c
 708 019a AD010000 		.4byte	0x1ad
 709 019e 09       		.uleb128 0x9
 710 019f 55010000 		.4byte	.LASF34
 711 01a3 06       		.byte	0x6
 712 01a4 2D       		.byte	0x2d
 713 01a5 C5000000 		.4byte	0xc5
 714 01a9 02       		.byte	0x2
 715 01aa 23       		.byte	0x23
 716 01ab 00       		.uleb128 0
 717 01ac 00       		.byte	0
 718 01ad 04       		.uleb128 0x4
 719 01ae 4B010000 		.4byte	.LASF35
 720 01b2 06       		.byte	0x6
 721 01b3 40       		.byte	0x40
 722 01b4 92010000 		.4byte	0x192
 723 01b8 08       		.uleb128 0x8
 724 01b9 3B010000 		.4byte	.LASF36
 725 01bd 10       		.byte	0x10
 726 01be 07       		.byte	0x7
 727 01bf 30       		.byte	0x30
 728 01c0 FB010000 		.4byte	0x1fb
 729 01c4 0A       		.uleb128 0xa
 730 01c5 7000     		.ascii	"p\000"
 731 01c7 07       		.byte	0x7
ARM GAS  /var/folders/5n/p_75w94d66l9ssrldxqdhh700000gn/T//cc7gqFm2.s 			page 14


 732 01c8 31       		.byte	0x31
 733 01c9 8C010000 		.4byte	0x18c
 734 01cd 02       		.byte	0x2
 735 01ce 23       		.byte	0x23
 736 01cf 00       		.uleb128 0
 737 01d0 0A       		.uleb128 0xa
 738 01d1 70747200 		.ascii	"ptr\000"
 739 01d5 07       		.byte	0x7
 740 01d6 31       		.byte	0x31
 741 01d7 8C010000 		.4byte	0x18c
 742 01db 02       		.byte	0x2
 743 01dc 23       		.byte	0x23
 744 01dd 04       		.uleb128 0x4
 745 01de 09       		.uleb128 0x9
 746 01df 55010000 		.4byte	.LASF34
 747 01e3 07       		.byte	0x7
 748 01e4 32       		.byte	0x32
 749 01e5 AD010000 		.4byte	0x1ad
 750 01e9 02       		.byte	0x2
 751 01ea 23       		.byte	0x23
 752 01eb 08       		.uleb128 0x8
 753 01ec 09       		.uleb128 0x9
 754 01ed 47020000 		.4byte	.LASF37
 755 01f1 07       		.byte	0x7
 756 01f2 33       		.byte	0x33
 757 01f3 BA000000 		.4byte	0xba
 758 01f7 02       		.byte	0x2
 759 01f8 23       		.byte	0x23
 760 01f9 0C       		.uleb128 0xc
 761 01fa 00       		.byte	0
 762 01fb 06       		.uleb128 0x6
 763 01fc 01       		.byte	0x1
 764 01fd 08       		.byte	0x8
 765 01fe 2B       		.byte	0x2b
 766 01ff 5E020000 		.4byte	0x25e
 767 0203 07       		.uleb128 0x7
 768 0204 6B020000 		.4byte	.LASF38
 769 0208 00       		.sleb128 0
 770 0209 07       		.uleb128 0x7
 771 020a 12030000 		.4byte	.LASF39
 772 020e 01       		.sleb128 1
 773 020f 07       		.uleb128 0x7
 774 0210 05030000 		.4byte	.LASF40
 775 0214 02       		.sleb128 2
 776 0215 07       		.uleb128 0x7
 777 0216 E5000000 		.4byte	.LASF41
 778 021a 03       		.sleb128 3
 779 021b 07       		.uleb128 0x7
 780 021c 63000000 		.4byte	.LASF42
 781 0220 04       		.sleb128 4
 782 0221 07       		.uleb128 0x7
 783 0222 C8010000 		.4byte	.LASF43
 784 0226 05       		.sleb128 5
 785 0227 07       		.uleb128 0x7
 786 0228 02010000 		.4byte	.LASF44
 787 022c 06       		.sleb128 6
 788 022d 07       		.uleb128 0x7
ARM GAS  /var/folders/5n/p_75w94d66l9ssrldxqdhh700000gn/T//cc7gqFm2.s 			page 15


 789 022e 57000000 		.4byte	.LASF45
 790 0232 07       		.sleb128 7
 791 0233 07       		.uleb128 0x7
 792 0234 40000000 		.4byte	.LASF46
 793 0238 08       		.sleb128 8
 794 0239 07       		.uleb128 0x7
 795 023a F3010000 		.4byte	.LASF47
 796 023e 09       		.sleb128 9
 797 023f 07       		.uleb128 0x7
 798 0240 E0020000 		.4byte	.LASF48
 799 0244 0A       		.sleb128 10
 800 0245 07       		.uleb128 0x7
 801 0246 70000000 		.4byte	.LASF49
 802 024a 0B       		.sleb128 11
 803 024b 07       		.uleb128 0x7
 804 024c 19020000 		.4byte	.LASF50
 805 0250 0C       		.sleb128 12
 806 0251 07       		.uleb128 0x7
 807 0252 C6020000 		.4byte	.LASF51
 808 0256 0D       		.sleb128 13
 809 0257 07       		.uleb128 0x7
 810 0258 6D010000 		.4byte	.LASF52
 811 025c 0E       		.sleb128 14
 812 025d 00       		.byte	0
 813 025e 0C       		.uleb128 0xc
 814 025f 01       		.byte	0x1
 815 0260 D5020000 		.4byte	.LASF53
 816 0264 01       		.byte	0x1
 817 0265 38       		.byte	0x38
 818 0266 01       		.byte	0x1
 819 0267 89020000 		.4byte	0x289
 820 026b 00000000 		.4byte	.LFB7
 821 026f 16000000 		.4byte	.LFE7
 822 0273 00000000 		.4byte	.LLST0
 823 0277 89020000 		.4byte	0x289
 824 027b 0D       		.uleb128 0xd
 825 027c 62756600 		.ascii	"buf\000"
 826 0280 01       		.byte	0x1
 827 0281 3A       		.byte	0x3a
 828 0282 89020000 		.4byte	0x289
 829 0286 01       		.byte	0x1
 830 0287 50       		.byte	0x50
 831 0288 00       		.byte	0
 832 0289 0B       		.uleb128 0xb
 833 028a 04       		.byte	0x4
 834 028b B8010000 		.4byte	0x1b8
 835 028f 0E       		.uleb128 0xe
 836 0290 01       		.byte	0x1
 837 0291 9F020000 		.4byte	.LASF56
 838 0295 01       		.byte	0x1
 839 0296 57       		.byte	0x57
 840 0297 01       		.byte	0x1
 841 0298 00000000 		.4byte	.LFB8
 842 029c 22000000 		.4byte	.LFE8
 843 02a0 20000000 		.4byte	.LLST1
 844 02a4 B8020000 		.4byte	0x2b8
 845 02a8 0F       		.uleb128 0xf
ARM GAS  /var/folders/5n/p_75w94d66l9ssrldxqdhh700000gn/T//cc7gqFm2.s 			page 16


 846 02a9 62756600 		.ascii	"buf\000"
 847 02ad 01       		.byte	0x1
 848 02ae 57       		.byte	0x57
 849 02af 89020000 		.4byte	0x289
 850 02b3 40000000 		.4byte	.LLST2
 851 02b7 00       		.byte	0
 852 02b8 0C       		.uleb128 0xc
 853 02b9 01       		.byte	0x1
 854 02ba 33000000 		.4byte	.LASF54
 855 02be 01       		.byte	0x1
 856 02bf 6B       		.byte	0x6b
 857 02c0 01       		.byte	0x1
 858 02c1 9B000000 		.4byte	0x9b
 859 02c5 00000000 		.4byte	.LFB9
 860 02c9 3A000000 		.4byte	.LFE9
 861 02cd 5E000000 		.4byte	.LLST3
 862 02d1 F4020000 		.4byte	0x2f4
 863 02d5 0F       		.uleb128 0xf
 864 02d6 62756600 		.ascii	"buf\000"
 865 02da 01       		.byte	0x1
 866 02db 6B       		.byte	0x6b
 867 02dc 89020000 		.4byte	0x289
 868 02e0 7E000000 		.4byte	.LLST4
 869 02e4 10       		.uleb128 0x10
 870 02e5 9A020000 		.4byte	.LASF55
 871 02e9 01       		.byte	0x1
 872 02ea 6B       		.byte	0x6b
 873 02eb BA000000 		.4byte	0xba
 874 02ef 9C000000 		.4byte	.LLST5
 875 02f3 00       		.byte	0
 876 02f4 0E       		.uleb128 0xe
 877 02f5 01       		.byte	0x1
 878 02f6 D7010000 		.4byte	.LASF57
 879 02fa 01       		.byte	0x1
 880 02fb 83       		.byte	0x83
 881 02fc 01       		.byte	0x1
 882 02fd 00000000 		.4byte	.LFB10
 883 0301 1E000000 		.4byte	.LFE10
 884 0305 BA000000 		.4byte	.LLST6
 885 0309 1D030000 		.4byte	0x31d
 886 030d 0F       		.uleb128 0xf
 887 030e 62756600 		.ascii	"buf\000"
 888 0312 01       		.byte	0x1
 889 0313 83       		.byte	0x83
 890 0314 89020000 		.4byte	0x289
 891 0318 DA000000 		.4byte	.LLST7
 892 031c 00       		.byte	0
 893 031d 0C       		.uleb128 0xc
 894 031e 01       		.byte	0x1
 895 031f 30010000 		.4byte	.LASF58
 896 0323 01       		.byte	0x1
 897 0324 96       		.byte	0x96
 898 0325 01       		.byte	0x1
 899 0326 D0000000 		.4byte	0xd0
 900 032a 00000000 		.4byte	.LFB11
 901 032e 3C000000 		.4byte	.LFE11
 902 0332 F8000000 		.4byte	.LLST8
ARM GAS  /var/folders/5n/p_75w94d66l9ssrldxqdhh700000gn/T//cc7gqFm2.s 			page 17


 903 0336 68030000 		.4byte	0x368
 904 033a 0F       		.uleb128 0xf
 905 033b 62756600 		.ascii	"buf\000"
 906 033f 01       		.byte	0x1
 907 0340 96       		.byte	0x96
 908 0341 89020000 		.4byte	0x289
 909 0345 18010000 		.4byte	.LLST9
 910 0349 10       		.uleb128 0x10
 911 034a F5020000 		.4byte	.LASF59
 912 034e 01       		.byte	0x1
 913 034f 96       		.byte	0x96
 914 0350 68030000 		.4byte	0x368
 915 0354 36010000 		.4byte	.LLST10
 916 0358 10       		.uleb128 0x10
 917 0359 9A020000 		.4byte	.LASF55
 918 035d 01       		.byte	0x1
 919 035e 96       		.byte	0x96
 920 035f BA000000 		.4byte	0xba
 921 0363 54010000 		.4byte	.LLST11
 922 0367 00       		.byte	0
 923 0368 0B       		.uleb128 0xb
 924 0369 04       		.byte	0x4
 925 036a 6E030000 		.4byte	0x36e
 926 036e 11       		.uleb128 0x11
 927 036f 0E       		.uleb128 0xe
 928 0370 01       		.byte	0x1
 929 0371 23020000 		.4byte	.LASF60
 930 0375 01       		.byte	0x1
 931 0376 AE       		.byte	0xae
 932 0377 01       		.byte	0x1
 933 0378 00000000 		.4byte	.LFB12
 934 037c 2A000000 		.4byte	.LFE12
 935 0380 72010000 		.4byte	.LLST12
 936 0384 A7030000 		.4byte	0x3a7
 937 0388 10       		.uleb128 0x10
 938 0389 81000000 		.4byte	.LASF61
 939 038d 01       		.byte	0x1
 940 038e AE       		.byte	0xae
 941 038f 89020000 		.4byte	0x289
 942 0393 92010000 		.4byte	.LLST13
 943 0397 10       		.uleb128 0x10
 944 0398 68010000 		.4byte	.LASF62
 945 039c 01       		.byte	0x1
 946 039d AE       		.byte	0xae
 947 039e 89020000 		.4byte	0x289
 948 03a2 B0010000 		.4byte	.LLST14
 949 03a6 00       		.byte	0
 950 03a7 0C       		.uleb128 0xc
 951 03a8 01       		.byte	0x1
 952 03a9 20000000 		.4byte	.LASF63
 953 03ad 01       		.byte	0x1
 954 03ae C1       		.byte	0xc1
 955 03af 01       		.byte	0x1
 956 03b0 D0000000 		.4byte	0xd0
 957 03b4 00000000 		.4byte	.LFB13
 958 03b8 28000000 		.4byte	.LFE13
 959 03bc CE010000 		.4byte	.LLST15
ARM GAS  /var/folders/5n/p_75w94d66l9ssrldxqdhh700000gn/T//cc7gqFm2.s 			page 18


 960 03c0 F2030000 		.4byte	0x3f2
 961 03c4 0F       		.uleb128 0xf
 962 03c5 62756600 		.ascii	"buf\000"
 963 03c9 01       		.byte	0x1
 964 03ca C1       		.byte	0xc1
 965 03cb 89020000 		.4byte	0x289
 966 03cf EE010000 		.4byte	.LLST16
 967 03d3 10       		.uleb128 0x10
 968 03d4 F5020000 		.4byte	.LASF59
 969 03d8 01       		.byte	0x1
 970 03d9 C1       		.byte	0xc1
 971 03da F2030000 		.4byte	0x3f2
 972 03de 17020000 		.4byte	.LLST17
 973 03e2 0F       		.uleb128 0xf
 974 03e3 6C656E00 		.ascii	"len\000"
 975 03e7 01       		.byte	0x1
 976 03e8 C1       		.byte	0xc1
 977 03e9 F8030000 		.4byte	0x3f8
 978 03ed 40020000 		.4byte	.LLST18
 979 03f1 00       		.byte	0
 980 03f2 0B       		.uleb128 0xb
 981 03f3 04       		.byte	0x4
 982 03f4 9B000000 		.4byte	0x9b
 983 03f8 0B       		.uleb128 0xb
 984 03f9 04       		.byte	0x4
 985 03fa BA000000 		.4byte	0xba
 986 03fe 0C       		.uleb128 0xc
 987 03ff 01       		.byte	0x1
 988 0400 24010000 		.4byte	.LASF64
 989 0404 01       		.byte	0x1
 990 0405 DA       		.byte	0xda
 991 0406 01       		.byte	0x1
 992 0407 AF000000 		.4byte	0xaf
 993 040b 00000000 		.4byte	.LFB14
 994 040f 26000000 		.4byte	.LFE14
 995 0413 69020000 		.4byte	.LLST19
 996 0417 2B040000 		.4byte	0x42b
 997 041b 0F       		.uleb128 0xf
 998 041c 62756600 		.ascii	"buf\000"
 999 0420 01       		.byte	0x1
 1000 0421 DA       		.byte	0xda
 1001 0422 89020000 		.4byte	0x289
 1002 0426 89020000 		.4byte	.LLST20
 1003 042a 00       		.byte	0
 1004 042b 12       		.uleb128 0x12
 1005 042c 01       		.byte	0x1
 1006 042d 4C020000 		.4byte	.LASF68
 1007 0431 01       		.byte	0x1
 1008 0432 EF       		.byte	0xef
 1009 0433 01       		.byte	0x1
 1010 0434 00000000 		.4byte	.LFB15
 1011 0438 0C000000 		.4byte	.LFE15
 1012 043c 02       		.byte	0x2
 1013 043d 7D       		.byte	0x7d
 1014 043e 00       		.sleb128 0
 1015 043f 0F       		.uleb128 0xf
 1016 0440 62756600 		.ascii	"buf\000"
ARM GAS  /var/folders/5n/p_75w94d66l9ssrldxqdhh700000gn/T//cc7gqFm2.s 			page 19


 1017 0444 01       		.byte	0x1
 1018 0445 EF       		.byte	0xef
 1019 0446 89020000 		.4byte	0x289
 1020 044a B2020000 		.4byte	.LLST21
 1021 044e 00       		.byte	0
 1022 044f 00       		.byte	0
 1023              		.section	.debug_abbrev,"",%progbits
 1024              	.Ldebug_abbrev0:
 1025 0000 01       		.uleb128 0x1
 1026 0001 11       		.uleb128 0x11
 1027 0002 01       		.byte	0x1
 1028 0003 25       		.uleb128 0x25
 1029 0004 0E       		.uleb128 0xe
 1030 0005 13       		.uleb128 0x13
 1031 0006 0B       		.uleb128 0xb
 1032 0007 03       		.uleb128 0x3
 1033 0008 0E       		.uleb128 0xe
 1034 0009 1B       		.uleb128 0x1b
 1035 000a 0E       		.uleb128 0xe
 1036 000b 11       		.uleb128 0x11
 1037 000c 01       		.uleb128 0x1
 1038 000d 52       		.uleb128 0x52
 1039 000e 01       		.uleb128 0x1
 1040 000f 55       		.uleb128 0x55
 1041 0010 06       		.uleb128 0x6
 1042 0011 10       		.uleb128 0x10
 1043 0012 06       		.uleb128 0x6
 1044 0013 00       		.byte	0
 1045 0014 00       		.byte	0
 1046 0015 02       		.uleb128 0x2
 1047 0016 24       		.uleb128 0x24
 1048 0017 00       		.byte	0
 1049 0018 0B       		.uleb128 0xb
 1050 0019 0B       		.uleb128 0xb
 1051 001a 3E       		.uleb128 0x3e
 1052 001b 0B       		.uleb128 0xb
 1053 001c 03       		.uleb128 0x3
 1054 001d 08       		.uleb128 0x8
 1055 001e 00       		.byte	0
 1056 001f 00       		.byte	0
 1057 0020 03       		.uleb128 0x3
 1058 0021 24       		.uleb128 0x24
 1059 0022 00       		.byte	0
 1060 0023 0B       		.uleb128 0xb
 1061 0024 0B       		.uleb128 0xb
 1062 0025 3E       		.uleb128 0x3e
 1063 0026 0B       		.uleb128 0xb
 1064 0027 03       		.uleb128 0x3
 1065 0028 0E       		.uleb128 0xe
 1066 0029 00       		.byte	0
 1067 002a 00       		.byte	0
 1068 002b 04       		.uleb128 0x4
 1069 002c 16       		.uleb128 0x16
 1070 002d 00       		.byte	0
 1071 002e 03       		.uleb128 0x3
 1072 002f 0E       		.uleb128 0xe
 1073 0030 3A       		.uleb128 0x3a
ARM GAS  /var/folders/5n/p_75w94d66l9ssrldxqdhh700000gn/T//cc7gqFm2.s 			page 20


 1074 0031 0B       		.uleb128 0xb
 1075 0032 3B       		.uleb128 0x3b
 1076 0033 0B       		.uleb128 0xb
 1077 0034 49       		.uleb128 0x49
 1078 0035 13       		.uleb128 0x13
 1079 0036 00       		.byte	0
 1080 0037 00       		.byte	0
 1081 0038 05       		.uleb128 0x5
 1082 0039 0F       		.uleb128 0xf
 1083 003a 00       		.byte	0
 1084 003b 0B       		.uleb128 0xb
 1085 003c 0B       		.uleb128 0xb
 1086 003d 00       		.byte	0
 1087 003e 00       		.byte	0
 1088 003f 06       		.uleb128 0x6
 1089 0040 04       		.uleb128 0x4
 1090 0041 01       		.byte	0x1
 1091 0042 0B       		.uleb128 0xb
 1092 0043 0B       		.uleb128 0xb
 1093 0044 3A       		.uleb128 0x3a
 1094 0045 0B       		.uleb128 0xb
 1095 0046 3B       		.uleb128 0x3b
 1096 0047 0B       		.uleb128 0xb
 1097 0048 01       		.uleb128 0x1
 1098 0049 13       		.uleb128 0x13
 1099 004a 00       		.byte	0
 1100 004b 00       		.byte	0
 1101 004c 07       		.uleb128 0x7
 1102 004d 28       		.uleb128 0x28
 1103 004e 00       		.byte	0
 1104 004f 03       		.uleb128 0x3
 1105 0050 0E       		.uleb128 0xe
 1106 0051 1C       		.uleb128 0x1c
 1107 0052 0D       		.uleb128 0xd
 1108 0053 00       		.byte	0
 1109 0054 00       		.byte	0
 1110 0055 08       		.uleb128 0x8
 1111 0056 13       		.uleb128 0x13
 1112 0057 01       		.byte	0x1
 1113 0058 03       		.uleb128 0x3
 1114 0059 0E       		.uleb128 0xe
 1115 005a 0B       		.uleb128 0xb
 1116 005b 0B       		.uleb128 0xb
 1117 005c 3A       		.uleb128 0x3a
 1118 005d 0B       		.uleb128 0xb
 1119 005e 3B       		.uleb128 0x3b
 1120 005f 0B       		.uleb128 0xb
 1121 0060 01       		.uleb128 0x1
 1122 0061 13       		.uleb128 0x13
 1123 0062 00       		.byte	0
 1124 0063 00       		.byte	0
 1125 0064 09       		.uleb128 0x9
 1126 0065 0D       		.uleb128 0xd
 1127 0066 00       		.byte	0
 1128 0067 03       		.uleb128 0x3
 1129 0068 0E       		.uleb128 0xe
 1130 0069 3A       		.uleb128 0x3a
ARM GAS  /var/folders/5n/p_75w94d66l9ssrldxqdhh700000gn/T//cc7gqFm2.s 			page 21


 1131 006a 0B       		.uleb128 0xb
 1132 006b 3B       		.uleb128 0x3b
 1133 006c 0B       		.uleb128 0xb
 1134 006d 49       		.uleb128 0x49
 1135 006e 13       		.uleb128 0x13
 1136 006f 38       		.uleb128 0x38
 1137 0070 0A       		.uleb128 0xa
 1138 0071 00       		.byte	0
 1139 0072 00       		.byte	0
 1140 0073 0A       		.uleb128 0xa
 1141 0074 0D       		.uleb128 0xd
 1142 0075 00       		.byte	0
 1143 0076 03       		.uleb128 0x3
 1144 0077 08       		.uleb128 0x8
 1145 0078 3A       		.uleb128 0x3a
 1146 0079 0B       		.uleb128 0xb
 1147 007a 3B       		.uleb128 0x3b
 1148 007b 0B       		.uleb128 0xb
 1149 007c 49       		.uleb128 0x49
 1150 007d 13       		.uleb128 0x13
 1151 007e 38       		.uleb128 0x38
 1152 007f 0A       		.uleb128 0xa
 1153 0080 00       		.byte	0
 1154 0081 00       		.byte	0
 1155 0082 0B       		.uleb128 0xb
 1156 0083 0F       		.uleb128 0xf
 1157 0084 00       		.byte	0
 1158 0085 0B       		.uleb128 0xb
 1159 0086 0B       		.uleb128 0xb
 1160 0087 49       		.uleb128 0x49
 1161 0088 13       		.uleb128 0x13
 1162 0089 00       		.byte	0
 1163 008a 00       		.byte	0
 1164 008b 0C       		.uleb128 0xc
 1165 008c 2E       		.uleb128 0x2e
 1166 008d 01       		.byte	0x1
 1167 008e 3F       		.uleb128 0x3f
 1168 008f 0C       		.uleb128 0xc
 1169 0090 03       		.uleb128 0x3
 1170 0091 0E       		.uleb128 0xe
 1171 0092 3A       		.uleb128 0x3a
 1172 0093 0B       		.uleb128 0xb
 1173 0094 3B       		.uleb128 0x3b
 1174 0095 0B       		.uleb128 0xb
 1175 0096 27       		.uleb128 0x27
 1176 0097 0C       		.uleb128 0xc
 1177 0098 49       		.uleb128 0x49
 1178 0099 13       		.uleb128 0x13
 1179 009a 11       		.uleb128 0x11
 1180 009b 01       		.uleb128 0x1
 1181 009c 12       		.uleb128 0x12
 1182 009d 01       		.uleb128 0x1
 1183 009e 40       		.uleb128 0x40
 1184 009f 06       		.uleb128 0x6
 1185 00a0 01       		.uleb128 0x1
 1186 00a1 13       		.uleb128 0x13
 1187 00a2 00       		.byte	0
ARM GAS  /var/folders/5n/p_75w94d66l9ssrldxqdhh700000gn/T//cc7gqFm2.s 			page 22


 1188 00a3 00       		.byte	0
 1189 00a4 0D       		.uleb128 0xd
 1190 00a5 34       		.uleb128 0x34
 1191 00a6 00       		.byte	0
 1192 00a7 03       		.uleb128 0x3
 1193 00a8 08       		.uleb128 0x8
 1194 00a9 3A       		.uleb128 0x3a
 1195 00aa 0B       		.uleb128 0xb
 1196 00ab 3B       		.uleb128 0x3b
 1197 00ac 0B       		.uleb128 0xb
 1198 00ad 49       		.uleb128 0x49
 1199 00ae 13       		.uleb128 0x13
 1200 00af 02       		.uleb128 0x2
 1201 00b0 0A       		.uleb128 0xa
 1202 00b1 00       		.byte	0
 1203 00b2 00       		.byte	0
 1204 00b3 0E       		.uleb128 0xe
 1205 00b4 2E       		.uleb128 0x2e
 1206 00b5 01       		.byte	0x1
 1207 00b6 3F       		.uleb128 0x3f
 1208 00b7 0C       		.uleb128 0xc
 1209 00b8 03       		.uleb128 0x3
 1210 00b9 0E       		.uleb128 0xe
 1211 00ba 3A       		.uleb128 0x3a
 1212 00bb 0B       		.uleb128 0xb
 1213 00bc 3B       		.uleb128 0x3b
 1214 00bd 0B       		.uleb128 0xb
 1215 00be 27       		.uleb128 0x27
 1216 00bf 0C       		.uleb128 0xc
 1217 00c0 11       		.uleb128 0x11
 1218 00c1 01       		.uleb128 0x1
 1219 00c2 12       		.uleb128 0x12
 1220 00c3 01       		.uleb128 0x1
 1221 00c4 40       		.uleb128 0x40
 1222 00c5 06       		.uleb128 0x6
 1223 00c6 01       		.uleb128 0x1
 1224 00c7 13       		.uleb128 0x13
 1225 00c8 00       		.byte	0
 1226 00c9 00       		.byte	0
 1227 00ca 0F       		.uleb128 0xf
 1228 00cb 05       		.uleb128 0x5
 1229 00cc 00       		.byte	0
 1230 00cd 03       		.uleb128 0x3
 1231 00ce 08       		.uleb128 0x8
 1232 00cf 3A       		.uleb128 0x3a
 1233 00d0 0B       		.uleb128 0xb
 1234 00d1 3B       		.uleb128 0x3b
 1235 00d2 0B       		.uleb128 0xb
 1236 00d3 49       		.uleb128 0x49
 1237 00d4 13       		.uleb128 0x13
 1238 00d5 02       		.uleb128 0x2
 1239 00d6 06       		.uleb128 0x6
 1240 00d7 00       		.byte	0
 1241 00d8 00       		.byte	0
 1242 00d9 10       		.uleb128 0x10
 1243 00da 05       		.uleb128 0x5
 1244 00db 00       		.byte	0
ARM GAS  /var/folders/5n/p_75w94d66l9ssrldxqdhh700000gn/T//cc7gqFm2.s 			page 23


 1245 00dc 03       		.uleb128 0x3
 1246 00dd 0E       		.uleb128 0xe
 1247 00de 3A       		.uleb128 0x3a
 1248 00df 0B       		.uleb128 0xb
 1249 00e0 3B       		.uleb128 0x3b
 1250 00e1 0B       		.uleb128 0xb
 1251 00e2 49       		.uleb128 0x49
 1252 00e3 13       		.uleb128 0x13
 1253 00e4 02       		.uleb128 0x2
 1254 00e5 06       		.uleb128 0x6
 1255 00e6 00       		.byte	0
 1256 00e7 00       		.byte	0
 1257 00e8 11       		.uleb128 0x11
 1258 00e9 26       		.uleb128 0x26
 1259 00ea 00       		.byte	0
 1260 00eb 00       		.byte	0
 1261 00ec 00       		.byte	0
 1262 00ed 12       		.uleb128 0x12
 1263 00ee 2E       		.uleb128 0x2e
 1264 00ef 01       		.byte	0x1
 1265 00f0 3F       		.uleb128 0x3f
 1266 00f1 0C       		.uleb128 0xc
 1267 00f2 03       		.uleb128 0x3
 1268 00f3 0E       		.uleb128 0xe
 1269 00f4 3A       		.uleb128 0x3a
 1270 00f5 0B       		.uleb128 0xb
 1271 00f6 3B       		.uleb128 0x3b
 1272 00f7 0B       		.uleb128 0xb
 1273 00f8 27       		.uleb128 0x27
 1274 00f9 0C       		.uleb128 0xc
 1275 00fa 11       		.uleb128 0x11
 1276 00fb 01       		.uleb128 0x1
 1277 00fc 12       		.uleb128 0x12
 1278 00fd 01       		.uleb128 0x1
 1279 00fe 40       		.uleb128 0x40
 1280 00ff 0A       		.uleb128 0xa
 1281 0100 00       		.byte	0
 1282 0101 00       		.byte	0
 1283 0102 00       		.byte	0
 1284              		.section	.debug_loc,"",%progbits
 1285              	.Ldebug_loc0:
 1286              	.LLST0:
 1287 0000 00000000 		.4byte	.LFB7
 1288 0004 02000000 		.4byte	.LCFI0
 1289 0008 0200     		.2byte	0x2
 1290 000a 7D       		.byte	0x7d
 1291 000b 00       		.sleb128 0
 1292 000c 02000000 		.4byte	.LCFI0
 1293 0010 16000000 		.4byte	.LFE7
 1294 0014 0200     		.2byte	0x2
 1295 0016 7D       		.byte	0x7d
 1296 0017 08       		.sleb128 8
 1297 0018 00000000 		.4byte	0
 1298 001c 00000000 		.4byte	0
 1299              	.LLST1:
 1300 0020 00000000 		.4byte	.LFB8
 1301 0024 02000000 		.4byte	.LCFI1
ARM GAS  /var/folders/5n/p_75w94d66l9ssrldxqdhh700000gn/T//cc7gqFm2.s 			page 24


 1302 0028 0200     		.2byte	0x2
 1303 002a 7D       		.byte	0x7d
 1304 002b 00       		.sleb128 0
 1305 002c 02000000 		.4byte	.LCFI1
 1306 0030 22000000 		.4byte	.LFE8
 1307 0034 0200     		.2byte	0x2
 1308 0036 7D       		.byte	0x7d
 1309 0037 08       		.sleb128 8
 1310 0038 00000000 		.4byte	0
 1311 003c 00000000 		.4byte	0
 1312              	.LLST2:
 1313 0040 00000000 		.4byte	.LVL1
 1314 0044 08000000 		.4byte	.LVL2
 1315 0048 0100     		.2byte	0x1
 1316 004a 50       		.byte	0x50
 1317 004b 08000000 		.4byte	.LVL2
 1318 004f 22000000 		.4byte	.LFE8
 1319 0053 0100     		.2byte	0x1
 1320 0055 54       		.byte	0x54
 1321 0056 00000000 		.4byte	0
 1322 005a 00000000 		.4byte	0
 1323              	.LLST3:
 1324 005e 00000000 		.4byte	.LFB9
 1325 0062 02000000 		.4byte	.LCFI2
 1326 0066 0200     		.2byte	0x2
 1327 0068 7D       		.byte	0x7d
 1328 0069 00       		.sleb128 0
 1329 006a 02000000 		.4byte	.LCFI2
 1330 006e 3A000000 		.4byte	.LFE9
 1331 0072 0200     		.2byte	0x2
 1332 0074 7D       		.byte	0x7d
 1333 0075 10       		.sleb128 16
 1334 0076 00000000 		.4byte	0
 1335 007a 00000000 		.4byte	0
 1336              	.LLST4:
 1337 007e 00000000 		.4byte	.LVL3
 1338 0082 0A000000 		.4byte	.LVL4
 1339 0086 0100     		.2byte	0x1
 1340 0088 50       		.byte	0x50
 1341 0089 0A000000 		.4byte	.LVL4
 1342 008d 3A000000 		.4byte	.LFE9
 1343 0091 0100     		.2byte	0x1
 1344 0093 54       		.byte	0x54
 1345 0094 00000000 		.4byte	0
 1346 0098 00000000 		.4byte	0
 1347              	.LLST5:
 1348 009c 00000000 		.4byte	.LVL3
 1349 00a0 0F000000 		.4byte	.LVL5-1
 1350 00a4 0100     		.2byte	0x1
 1351 00a6 51       		.byte	0x51
 1352 00a7 32000000 		.4byte	.LVL6
 1353 00ab 35000000 		.4byte	.LVL7-1
 1354 00af 0100     		.2byte	0x1
 1355 00b1 51       		.byte	0x51
 1356 00b2 00000000 		.4byte	0
 1357 00b6 00000000 		.4byte	0
 1358              	.LLST6:
ARM GAS  /var/folders/5n/p_75w94d66l9ssrldxqdhh700000gn/T//cc7gqFm2.s 			page 25


 1359 00ba 00000000 		.4byte	.LFB10
 1360 00be 02000000 		.4byte	.LCFI3
 1361 00c2 0200     		.2byte	0x2
 1362 00c4 7D       		.byte	0x7d
 1363 00c5 00       		.sleb128 0
 1364 00c6 02000000 		.4byte	.LCFI3
 1365 00ca 1E000000 		.4byte	.LFE10
 1366 00ce 0200     		.2byte	0x2
 1367 00d0 7D       		.byte	0x7d
 1368 00d1 08       		.sleb128 8
 1369 00d2 00000000 		.4byte	0
 1370 00d6 00000000 		.4byte	0
 1371              	.LLST7:
 1372 00da 00000000 		.4byte	.LVL8
 1373 00de 08000000 		.4byte	.LVL9
 1374 00e2 0100     		.2byte	0x1
 1375 00e4 50       		.byte	0x50
 1376 00e5 08000000 		.4byte	.LVL9
 1377 00e9 1E000000 		.4byte	.LFE10
 1378 00ed 0100     		.2byte	0x1
 1379 00ef 54       		.byte	0x54
 1380 00f0 00000000 		.4byte	0
 1381 00f4 00000000 		.4byte	0
 1382              	.LLST8:
 1383 00f8 00000000 		.4byte	.LFB11
 1384 00fc 02000000 		.4byte	.LCFI4
 1385 0100 0200     		.2byte	0x2
 1386 0102 7D       		.byte	0x7d
 1387 0103 00       		.sleb128 0
 1388 0104 02000000 		.4byte	.LCFI4
 1389 0108 3C000000 		.4byte	.LFE11
 1390 010c 0200     		.2byte	0x2
 1391 010e 7D       		.byte	0x7d
 1392 010f 10       		.sleb128 16
 1393 0110 00000000 		.4byte	0
 1394 0114 00000000 		.4byte	0
 1395              	.LLST9:
 1396 0118 00000000 		.4byte	.LVL10
 1397 011c 0C000000 		.4byte	.LVL11
 1398 0120 0100     		.2byte	0x1
 1399 0122 50       		.byte	0x50
 1400 0123 0C000000 		.4byte	.LVL11
 1401 0127 3C000000 		.4byte	.LFE11
 1402 012b 0100     		.2byte	0x1
 1403 012d 54       		.byte	0x54
 1404 012e 00000000 		.4byte	0
 1405 0132 00000000 		.4byte	0
 1406              	.LLST10:
 1407 0136 00000000 		.4byte	.LVL10
 1408 013a 11000000 		.4byte	.LVL12-1
 1409 013e 0100     		.2byte	0x1
 1410 0140 51       		.byte	0x51
 1411 0141 11000000 		.4byte	.LVL12-1
 1412 0145 3C000000 		.4byte	.LFE11
 1413 0149 0100     		.2byte	0x1
 1414 014b 56       		.byte	0x56
 1415 014c 00000000 		.4byte	0
ARM GAS  /var/folders/5n/p_75w94d66l9ssrldxqdhh700000gn/T//cc7gqFm2.s 			page 26


 1416 0150 00000000 		.4byte	0
 1417              	.LLST11:
 1418 0154 00000000 		.4byte	.LVL10
 1419 0158 11000000 		.4byte	.LVL12-1
 1420 015c 0100     		.2byte	0x1
 1421 015e 52       		.byte	0x52
 1422 015f 34000000 		.4byte	.LVL13
 1423 0163 37000000 		.4byte	.LVL14-1
 1424 0167 0100     		.2byte	0x1
 1425 0169 52       		.byte	0x52
 1426 016a 00000000 		.4byte	0
 1427 016e 00000000 		.4byte	0
 1428              	.LLST12:
 1429 0172 00000000 		.4byte	.LFB12
 1430 0176 02000000 		.4byte	.LCFI5
 1431 017a 0200     		.2byte	0x2
 1432 017c 7D       		.byte	0x7d
 1433 017d 00       		.sleb128 0
 1434 017e 02000000 		.4byte	.LCFI5
 1435 0182 2A000000 		.4byte	.LFE12
 1436 0186 0200     		.2byte	0x2
 1437 0188 7D       		.byte	0x7d
 1438 0189 10       		.sleb128 16
 1439 018a 00000000 		.4byte	0
 1440 018e 00000000 		.4byte	0
 1441              	.LLST13:
 1442 0192 00000000 		.4byte	.LVL15
 1443 0196 0C000000 		.4byte	.LVL16
 1444 019a 0100     		.2byte	0x1
 1445 019c 50       		.byte	0x50
 1446 019d 0C000000 		.4byte	.LVL16
 1447 01a1 2A000000 		.4byte	.LFE12
 1448 01a5 0100     		.2byte	0x1
 1449 01a7 54       		.byte	0x54
 1450 01a8 00000000 		.4byte	0
 1451 01ac 00000000 		.4byte	0
 1452              	.LLST14:
 1453 01b0 00000000 		.4byte	.LVL15
 1454 01b4 0E000000 		.4byte	.LVL17
 1455 01b8 0100     		.2byte	0x1
 1456 01ba 51       		.byte	0x51
 1457 01bb 0E000000 		.4byte	.LVL17
 1458 01bf 2A000000 		.4byte	.LFE12
 1459 01c3 0100     		.2byte	0x1
 1460 01c5 55       		.byte	0x55
 1461 01c6 00000000 		.4byte	0
 1462 01ca 00000000 		.4byte	0
 1463              	.LLST15:
 1464 01ce 00000000 		.4byte	.LFB13
 1465 01d2 02000000 		.4byte	.LCFI6
 1466 01d6 0200     		.2byte	0x2
 1467 01d8 7D       		.byte	0x7d
 1468 01d9 00       		.sleb128 0
 1469 01da 02000000 		.4byte	.LCFI6
 1470 01de 28000000 		.4byte	.LFE13
 1471 01e2 0200     		.2byte	0x2
 1472 01e4 7D       		.byte	0x7d
ARM GAS  /var/folders/5n/p_75w94d66l9ssrldxqdhh700000gn/T//cc7gqFm2.s 			page 27


 1473 01e5 08       		.sleb128 8
 1474 01e6 00000000 		.4byte	0
 1475 01ea 00000000 		.4byte	0
 1476              	.LLST16:
 1477 01ee 00000000 		.4byte	.LVL18
 1478 01f2 16000000 		.4byte	.LVL19
 1479 01f6 0100     		.2byte	0x1
 1480 01f8 50       		.byte	0x50
 1481 01f9 1C000000 		.4byte	.LVL21
 1482 01fd 1F000000 		.4byte	.LVL22-1
 1483 0201 0100     		.2byte	0x1
 1484 0203 50       		.byte	0x50
 1485 0204 24000000 		.4byte	.LVL23
 1486 0208 26000000 		.4byte	.LVL24
 1487 020c 0100     		.2byte	0x1
 1488 020e 50       		.byte	0x50
 1489 020f 00000000 		.4byte	0
 1490 0213 00000000 		.4byte	0
 1491              	.LLST17:
 1492 0217 00000000 		.4byte	.LVL18
 1493 021b 18000000 		.4byte	.LVL20
 1494 021f 0100     		.2byte	0x1
 1495 0221 51       		.byte	0x51
 1496 0222 1C000000 		.4byte	.LVL21
 1497 0226 1F000000 		.4byte	.LVL22-1
 1498 022a 0100     		.2byte	0x1
 1499 022c 51       		.byte	0x51
 1500 022d 24000000 		.4byte	.LVL23
 1501 0231 28000000 		.4byte	.LFE13
 1502 0235 0100     		.2byte	0x1
 1503 0237 51       		.byte	0x51
 1504 0238 00000000 		.4byte	0
 1505 023c 00000000 		.4byte	0
 1506              	.LLST18:
 1507 0240 00000000 		.4byte	.LVL18
 1508 0244 18000000 		.4byte	.LVL20
 1509 0248 0100     		.2byte	0x1
 1510 024a 52       		.byte	0x52
 1511 024b 1C000000 		.4byte	.LVL21
 1512 024f 1F000000 		.4byte	.LVL22-1
 1513 0253 0100     		.2byte	0x1
 1514 0255 52       		.byte	0x52
 1515 0256 24000000 		.4byte	.LVL23
 1516 025a 28000000 		.4byte	.LFE13
 1517 025e 0100     		.2byte	0x1
 1518 0260 52       		.byte	0x52
 1519 0261 00000000 		.4byte	0
 1520 0265 00000000 		.4byte	0
 1521              	.LLST19:
 1522 0269 00000000 		.4byte	.LFB14
 1523 026d 02000000 		.4byte	.LCFI7
 1524 0271 0200     		.2byte	0x2
 1525 0273 7D       		.byte	0x7d
 1526 0274 00       		.sleb128 0
 1527 0275 02000000 		.4byte	.LCFI7
 1528 0279 26000000 		.4byte	.LFE14
 1529 027d 0200     		.2byte	0x2
ARM GAS  /var/folders/5n/p_75w94d66l9ssrldxqdhh700000gn/T//cc7gqFm2.s 			page 28


 1530 027f 7D       		.byte	0x7d
 1531 0280 08       		.sleb128 8
 1532 0281 00000000 		.4byte	0
 1533 0285 00000000 		.4byte	0
 1534              	.LLST20:
 1535 0289 00000000 		.4byte	.LVL25
 1536 028d 12000000 		.4byte	.LVL26
 1537 0291 0100     		.2byte	0x1
 1538 0293 50       		.byte	0x50
 1539 0294 1A000000 		.4byte	.LVL27
 1540 0298 1C000000 		.4byte	.LVL28
 1541 029c 0100     		.2byte	0x1
 1542 029e 50       		.byte	0x50
 1543 029f 1E000000 		.4byte	.LVL29
 1544 02a3 21000000 		.4byte	.LVL30-1
 1545 02a7 0100     		.2byte	0x1
 1546 02a9 50       		.byte	0x50
 1547 02aa 00000000 		.4byte	0
 1548 02ae 00000000 		.4byte	0
 1549              	.LLST21:
 1550 02b2 00000000 		.4byte	.LVL31
 1551 02b6 0B000000 		.4byte	.LVL32-1
 1552 02ba 0100     		.2byte	0x1
 1553 02bc 50       		.byte	0x50
 1554 02bd 00000000 		.4byte	0
 1555 02c1 00000000 		.4byte	0
 1556              		.section	.debug_aranges,"",%progbits
 1557 0000 5C000000 		.4byte	0x5c
 1558 0004 0200     		.2byte	0x2
 1559 0006 00000000 		.4byte	.Ldebug_info0
 1560 000a 04       		.byte	0x4
 1561 000b 00       		.byte	0
 1562 000c 0000     		.2byte	0
 1563 000e 0000     		.2byte	0
 1564 0010 00000000 		.4byte	.LFB7
 1565 0014 16000000 		.4byte	.LFE7-.LFB7
 1566 0018 00000000 		.4byte	.LFB8
 1567 001c 22000000 		.4byte	.LFE8-.LFB8
 1568 0020 00000000 		.4byte	.LFB9
 1569 0024 3A000000 		.4byte	.LFE9-.LFB9
 1570 0028 00000000 		.4byte	.LFB10
 1571 002c 1E000000 		.4byte	.LFE10-.LFB10
 1572 0030 00000000 		.4byte	.LFB11
 1573 0034 3C000000 		.4byte	.LFE11-.LFB11
 1574 0038 00000000 		.4byte	.LFB12
 1575 003c 2A000000 		.4byte	.LFE12-.LFB12
 1576 0040 00000000 		.4byte	.LFB13
 1577 0044 28000000 		.4byte	.LFE13-.LFB13
 1578 0048 00000000 		.4byte	.LFB14
 1579 004c 26000000 		.4byte	.LFE14-.LFB14
 1580 0050 00000000 		.4byte	.LFB15
 1581 0054 0C000000 		.4byte	.LFE15-.LFB15
 1582 0058 00000000 		.4byte	0
 1583 005c 00000000 		.4byte	0
 1584              		.section	.debug_ranges,"",%progbits
 1585              	.Ldebug_ranges0:
 1586 0000 00000000 		.4byte	.LFB7
ARM GAS  /var/folders/5n/p_75w94d66l9ssrldxqdhh700000gn/T//cc7gqFm2.s 			page 29


 1587 0004 16000000 		.4byte	.LFE7
 1588 0008 00000000 		.4byte	.LFB8
 1589 000c 22000000 		.4byte	.LFE8
 1590 0010 00000000 		.4byte	.LFB9
 1591 0014 3A000000 		.4byte	.LFE9
 1592 0018 00000000 		.4byte	.LFB10
 1593 001c 1E000000 		.4byte	.LFE10
 1594 0020 00000000 		.4byte	.LFB11
 1595 0024 3C000000 		.4byte	.LFE11
 1596 0028 00000000 		.4byte	.LFB12
 1597 002c 2A000000 		.4byte	.LFE12
 1598 0030 00000000 		.4byte	.LFB13
 1599 0034 28000000 		.4byte	.LFE13
 1600 0038 00000000 		.4byte	.LFB14
 1601 003c 26000000 		.4byte	.LFE14
 1602 0040 00000000 		.4byte	.LFB15
 1603 0044 0C000000 		.4byte	.LFE15
 1604 0048 00000000 		.4byte	0
 1605 004c 00000000 		.4byte	0
 1606              		.section	.debug_line,"",%progbits
 1607              	.Ldebug_line0:
 1608 0000 61020000 		.section	.debug_str,"MS",%progbits,1
 1608      02003901 
 1608      00000201 
 1608      FB0E0D00 
 1608      01010101 
 1609              	.LASF66:
 1610 0000 2E2E2F2E 		.ascii	"../../ext/lwip/src/api/netbuf.c\000"
 1610      2E2F6578 
 1610      742F6C77 
 1610      69702F73 
 1610      72632F61 
 1611              	.LASF63:
 1612 0020 6E657462 		.ascii	"netbuf_data\000"
 1612      75665F64 
 1612      61746100 
 1613              	.LASF2:
 1614 002c 696E7438 		.ascii	"int8_t\000"
 1614      5F7400
 1615              	.LASF54:
 1616 0033 6E657462 		.ascii	"netbuf_alloc\000"
 1616      75665F61 
 1616      6C6C6F63 
 1616      00
 1617              	.LASF46:
 1618 0040 4D454D50 		.ascii	"MEMP_NETCONN\000"
 1618      5F4E4554 
 1618      434F4E4E 
 1618      00
 1619              	.LASF5:
 1620 004d 73686F72 		.ascii	"short int\000"
 1620      7420696E 
 1620      7400
 1621              	.LASF45:
 1622 0057 4D454D50 		.ascii	"MEMP_NETBUF\000"
 1622      5F4E4554 
 1622      42554600 
ARM GAS  /var/folders/5n/p_75w94d66l9ssrldxqdhh700000gn/T//cc7gqFm2.s 			page 30


 1623              	.LASF42:
 1624 0063 4D454D50 		.ascii	"MEMP_TCP_SEG\000"
 1624      5F544350 
 1624      5F534547 
 1624      00
 1625              	.LASF49:
 1626 0070 4D454D50 		.ascii	"MEMP_SYS_TIMEOUT\000"
 1626      5F535953 
 1626      5F54494D 
 1626      454F5554 
 1626      00
 1627              	.LASF61:
 1628 0081 68656164 		.ascii	"head\000"
 1628      00
 1629              	.LASF23:
 1630 0086 50425546 		.ascii	"PBUF_RAM\000"
 1630      5F52414D 
 1630      00
 1631              	.LASF67:
 1632 008f 2F557365 		.ascii	"/Users/sin/Documents/Eclipse/Workspace/mabl-ChibiOS"
 1632      72732F73 
 1632      696E2F44 
 1632      6F63756D 
 1632      656E7473 
 1633 00c2 2D322E35 		.ascii	"-2.5.1/demos/ARMCM4-STM32F407-LWIP\000"
 1633      2E312F64 
 1633      656D6F73 
 1633      2F41524D 
 1633      434D342D 
 1634              	.LASF41:
 1635 00e5 4D454D50 		.ascii	"MEMP_TCP_PCB_LISTEN\000"
 1635      5F544350 
 1635      5F504342 
 1635      5F4C4953 
 1635      54454E00 
 1636              	.LASF22:
 1637 00f9 50425546 		.ascii	"PBUF_RAW\000"
 1637      5F524157 
 1637      00
 1638              	.LASF44:
 1639 0102 4D454D50 		.ascii	"MEMP_FRAG_PBUF\000"
 1639      5F465241 
 1639      475F5042 
 1639      554600
 1640              	.LASF15:
 1641 0111 73385F74 		.ascii	"s8_t\000"
 1641      00
 1642              	.LASF11:
 1643 0116 6C6F6E67 		.ascii	"long long int\000"
 1643      206C6F6E 
 1643      6720696E 
 1643      7400
 1644              	.LASF64:
 1645 0124 6E657462 		.ascii	"netbuf_next\000"
 1645      75665F6E 
 1645      65787400 
 1646              	.LASF58:
ARM GAS  /var/folders/5n/p_75w94d66l9ssrldxqdhh700000gn/T//cc7gqFm2.s 			page 31


 1647 0130 6E657462 		.ascii	"netbuf_ref\000"
 1647      75665F72 
 1647      656600
 1648              	.LASF36:
 1649 013b 6E657462 		.ascii	"netbuf\000"
 1649      756600
 1650              	.LASF8:
 1651 0142 6C6F6E67 		.ascii	"long int\000"
 1651      20696E74 
 1651      00
 1652              	.LASF35:
 1653 014b 69705F61 		.ascii	"ip_addr_t\000"
 1653      6464725F 
 1653      7400
 1654              	.LASF34:
 1655 0155 61646472 		.ascii	"addr\000"
 1655      00
 1656              	.LASF4:
 1657 015a 756E7369 		.ascii	"unsigned char\000"
 1657      676E6564 
 1657      20636861 
 1657      7200
 1658              	.LASF62:
 1659 0168 7461696C 		.ascii	"tail\000"
 1659      00
 1660              	.LASF52:
 1661 016d 4D454D50 		.ascii	"MEMP_MAX\000"
 1661      5F4D4158 
 1661      00
 1662              	.LASF1:
 1663 0176 7369676E 		.ascii	"signed char\000"
 1663      65642063 
 1663      68617200 
 1664              	.LASF31:
 1665 0182 666C6167 		.ascii	"flags\000"
 1665      7300
 1666              	.LASF12:
 1667 0188 6C6F6E67 		.ascii	"long long unsigned int\000"
 1667      206C6F6E 
 1667      6720756E 
 1667      7369676E 
 1667      65642069 
 1668              	.LASF9:
 1669 019f 75696E74 		.ascii	"uint32_t\000"
 1669      33325F74 
 1669      00
 1670              	.LASF0:
 1671 01a8 756E7369 		.ascii	"unsigned int\000"
 1671      676E6564 
 1671      20696E74 
 1671      00
 1672              	.LASF6:
 1673 01b5 75696E74 		.ascii	"uint16_t\000"
 1673      31365F74 
 1673      00
 1674              	.LASF26:
 1675 01be 50425546 		.ascii	"PBUF_POOL\000"
ARM GAS  /var/folders/5n/p_75w94d66l9ssrldxqdhh700000gn/T//cc7gqFm2.s 			page 32


 1675      5F504F4F 
 1675      4C00
 1676              	.LASF43:
 1677 01c8 4D454D50 		.ascii	"MEMP_REASSDATA\000"
 1677      5F524541 
 1677      53534441 
 1677      544100
 1678              	.LASF57:
 1679 01d7 6E657462 		.ascii	"netbuf_free\000"
 1679      75665F66 
 1679      72656500 
 1680              	.LASF18:
 1681 01e3 6572725F 		.ascii	"err_t\000"
 1681      7400
 1682              	.LASF13:
 1683 01e9 63686172 		.ascii	"char\000"
 1683      00
 1684              	.LASF30:
 1685 01ee 74797065 		.ascii	"type\000"
 1685      00
 1686              	.LASF47:
 1687 01f3 4D454D50 		.ascii	"MEMP_TCPIP_MSG_API\000"
 1687      5F544350 
 1687      49505F4D 
 1687      53475F41 
 1687      504900
 1688              	.LASF7:
 1689 0206 73686F72 		.ascii	"short unsigned int\000"
 1689      7420756E 
 1689      7369676E 
 1689      65642069 
 1689      6E7400
 1690              	.LASF50:
 1691 0219 4D454D50 		.ascii	"MEMP_PBUF\000"
 1691      5F504255 
 1691      4600
 1692              	.LASF60:
 1693 0223 6E657462 		.ascii	"netbuf_chain\000"
 1693      75665F63 
 1693      6861696E 
 1693      00
 1694              	.LASF19:
 1695 0230 50425546 		.ascii	"PBUF_TRANSPORT\000"
 1695      5F545241 
 1695      4E53504F 
 1695      525400
 1696              	.LASF20:
 1697 023f 50425546 		.ascii	"PBUF_IP\000"
 1697      5F495000 
 1698              	.LASF37:
 1699 0247 706F7274 		.ascii	"port\000"
 1699      00
 1700              	.LASF68:
 1701 024c 6E657462 		.ascii	"netbuf_first\000"
 1701      75665F66 
 1701      69727374 
 1701      00
ARM GAS  /var/folders/5n/p_75w94d66l9ssrldxqdhh700000gn/T//cc7gqFm2.s 			page 33


 1702              	.LASF10:
 1703 0259 6C6F6E67 		.ascii	"long unsigned int\000"
 1703      20756E73 
 1703      69676E65 
 1703      6420696E 
 1703      7400
 1704              	.LASF38:
 1705 026b 4D454D50 		.ascii	"MEMP_RAW_PCB\000"
 1705      5F524157 
 1705      5F504342 
 1705      00
 1706              	.LASF65:
 1707 0278 474E5520 		.ascii	"GNU C 4.6.2 20111004 (prerelease)\000"
 1707      4320342E 
 1707      362E3220 
 1707      32303131 
 1707      31303034 
 1708              	.LASF55:
 1709 029a 73697A65 		.ascii	"size\000"
 1709      00
 1710              	.LASF56:
 1711 029f 6E657462 		.ascii	"netbuf_delete\000"
 1711      75665F64 
 1711      656C6574 
 1711      6500
 1712              	.LASF14:
 1713 02ad 75385F74 		.ascii	"u8_t\000"
 1713      00
 1714              	.LASF17:
 1715 02b2 7533325F 		.ascii	"u32_t\000"
 1715      7400
 1716              	.LASF3:
 1717 02b8 75696E74 		.ascii	"uint8_t\000"
 1717      385F7400 
 1718              	.LASF16:
 1719 02c0 7531365F 		.ascii	"u16_t\000"
 1719      7400
 1720              	.LASF51:
 1721 02c6 4D454D50 		.ascii	"MEMP_PBUF_POOL\000"
 1721      5F504255 
 1721      465F504F 
 1721      4F4C00
 1722              	.LASF53:
 1723 02d5 6E657462 		.ascii	"netbuf_new\000"
 1723      75665F6E 
 1723      657700
 1724              	.LASF48:
 1725 02e0 4D454D50 		.ascii	"MEMP_TCPIP_MSG_INPKT\000"
 1725      5F544350 
 1725      49505F4D 
 1725      53475F49 
 1725      4E504B54 
 1726              	.LASF59:
 1727 02f5 64617461 		.ascii	"dataptr\000"
 1727      70747200 
 1728              	.LASF29:
 1729 02fd 746F745F 		.ascii	"tot_len\000"
ARM GAS  /var/folders/5n/p_75w94d66l9ssrldxqdhh700000gn/T//cc7gqFm2.s 			page 34


 1729      6C656E00 
 1730              	.LASF40:
 1731 0305 4D454D50 		.ascii	"MEMP_TCP_PCB\000"
 1731      5F544350 
 1731      5F504342 
 1731      00
 1732              	.LASF39:
 1733 0312 4D454D50 		.ascii	"MEMP_UDP_PCB\000"
 1733      5F554450 
 1733      5F504342 
 1733      00
 1734              	.LASF25:
 1735 031f 50425546 		.ascii	"PBUF_REF\000"
 1735      5F524546 
 1735      00
 1736              	.LASF33:
 1737 0328 69705F61 		.ascii	"ip_addr\000"
 1737      64647200 
 1738              	.LASF24:
 1739 0330 50425546 		.ascii	"PBUF_ROM\000"
 1739      5F524F4D 
 1739      00
 1740              	.LASF28:
 1741 0339 7061796C 		.ascii	"payload\000"
 1741      6F616400 
 1742              	.LASF27:
 1743 0341 6E657874 		.ascii	"next\000"
 1743      00
 1744              	.LASF32:
 1745 0346 70627566 		.ascii	"pbuf\000"
 1745      00
 1746              	.LASF21:
 1747 034b 50425546 		.ascii	"PBUF_LINK\000"
 1747      5F4C494E 
 1747      4B00
 1748              		.ident	"GCC: (Linaro GCC 4.6-2011.10) 4.6.2 20111004 (prerelease)"
ARM GAS  /var/folders/5n/p_75w94d66l9ssrldxqdhh700000gn/T//cc7gqFm2.s 			page 35


DEFINED SYMBOLS
                            *ABS*:0000000000000000 netbuf.c
/var/folders/5n/p_75w94d66l9ssrldxqdhh700000gn/T//cc7gqFm2.s:18     .text.netbuf_new:0000000000000000 $t
/var/folders/5n/p_75w94d66l9ssrldxqdhh700000gn/T//cc7gqFm2.s:24     .text.netbuf_new:0000000000000000 netbuf_new
/var/folders/5n/p_75w94d66l9ssrldxqdhh700000gn/T//cc7gqFm2.s:58     .text.netbuf_delete:0000000000000000 $t
/var/folders/5n/p_75w94d66l9ssrldxqdhh700000gn/T//cc7gqFm2.s:64     .text.netbuf_delete:0000000000000000 netbuf_delete
/var/folders/5n/p_75w94d66l9ssrldxqdhh700000gn/T//cc7gqFm2.s:103    .text.netbuf_alloc:0000000000000000 $t
/var/folders/5n/p_75w94d66l9ssrldxqdhh700000gn/T//cc7gqFm2.s:109    .text.netbuf_alloc:0000000000000000 netbuf_alloc
/var/folders/5n/p_75w94d66l9ssrldxqdhh700000gn/T//cc7gqFm2.s:173    .text.netbuf_free:0000000000000000 $t
/var/folders/5n/p_75w94d66l9ssrldxqdhh700000gn/T//cc7gqFm2.s:179    .text.netbuf_free:0000000000000000 netbuf_free
/var/folders/5n/p_75w94d66l9ssrldxqdhh700000gn/T//cc7gqFm2.s:216    .text.netbuf_ref:0000000000000000 $t
/var/folders/5n/p_75w94d66l9ssrldxqdhh700000gn/T//cc7gqFm2.s:222    .text.netbuf_ref:0000000000000000 netbuf_ref
/var/folders/5n/p_75w94d66l9ssrldxqdhh700000gn/T//cc7gqFm2.s:289    .text.netbuf_chain:0000000000000000 $t
/var/folders/5n/p_75w94d66l9ssrldxqdhh700000gn/T//cc7gqFm2.s:295    .text.netbuf_chain:0000000000000000 netbuf_chain
/var/folders/5n/p_75w94d66l9ssrldxqdhh700000gn/T//cc7gqFm2.s:343    .text.netbuf_data:0000000000000000 $t
/var/folders/5n/p_75w94d66l9ssrldxqdhh700000gn/T//cc7gqFm2.s:349    .text.netbuf_data:0000000000000000 netbuf_data
/var/folders/5n/p_75w94d66l9ssrldxqdhh700000gn/T//cc7gqFm2.s:403    .text.netbuf_next:0000000000000000 $t
/var/folders/5n/p_75w94d66l9ssrldxqdhh700000gn/T//cc7gqFm2.s:409    .text.netbuf_next:0000000000000000 netbuf_next
/var/folders/5n/p_75w94d66l9ssrldxqdhh700000gn/T//cc7gqFm2.s:457    .text.netbuf_first:0000000000000000 $t
/var/folders/5n/p_75w94d66l9ssrldxqdhh700000gn/T//cc7gqFm2.s:463    .text.netbuf_first:0000000000000000 netbuf_first
                     .debug_frame:0000000000000010 $d

UNDEFINED SYMBOLS
memp_malloc
pbuf_free
memp_free
pbuf_alloc
port_halt
pbuf_cat
