ARM GAS  /var/folders/5n/p_75w94d66l9ssrldxqdhh700000gn/T//cct23kAn.s 			page 1


   1              		.syntax unified
   2              		.cpu cortex-m4
   3              		.fpu softvfp
   4              		.eabi_attribute 20, 1
   5              		.eabi_attribute 21, 1
   6              		.eabi_attribute 23, 3
   7              		.eabi_attribute 24, 1
   8              		.eabi_attribute 25, 1
   9              		.eabi_attribute 26, 1
  10              		.eabi_attribute 30, 2
  11              		.eabi_attribute 18, 4
  12              		.thumb
  13              		.file	"nvic.c"
  14              		.text
  15              	.Ltext0:
  16              		.cfi_sections	.debug_frame
  17              		.section	.text.nvicEnableVector,"ax",%progbits
  18              		.align	2
  19              		.p2align 4,,15
  20              		.global	nvicEnableVector
  21              		.thumb
  22              		.thumb_func
  23              		.type	nvicEnableVector, %function
  24              	nvicEnableVector:
  25              	.LFB7:
  26              		.file 1 "../../os/ports/common/ARMCMx/nvic.c"
  27              		.loc 1 39 0
  28              		.cfi_startproc
  29              		@ args = 0, pretend = 0, frame = 0
  30              		@ frame_needed = 0, uses_anonymous_args = 0
  31              		@ link register save eliminated.
  32              	.LVL0:
  33 0000 F0B4     		push	{r4, r5, r6, r7}
  34              	.LCFI0:
  35              		.cfi_def_cfa_offset 16
  36              		.cfi_offset 7, -4
  37              		.cfi_offset 6, -8
  38              		.cfi_offset 5, -12
  39              		.cfi_offset 4, -16
  40              		.loc 1 42 0
  41 0002 4FF46143 		mov	r3, #57600
  42 0006 8408     		lsrs	r4, r0, #2
  43 0008 CEF20003 		movt	r3, 57344
  44 000c C034     		adds	r4, r4, #192
  45              		.loc 1 40 0
  46 000e 00F00305 		and	r5, r0, #3
  47              		.loc 1 42 0
  48 0012 53F82470 		ldr	r7, [r3, r4, lsl #2]
  49              		.loc 1 40 0
  50 0016 ED00     		lsls	r5, r5, #3
  51              		.loc 1 42 0
  52 0018 FF26     		movs	r6, #255
  53              		.loc 1 43 0
  54 001a 4209     		lsrs	r2, r0, #5
  55              		.loc 1 42 0
  56 001c AE40     		lsls	r6, r6, r5
  57 001e 27EA0606 		bic	r6, r7, r6
ARM GAS  /var/folders/5n/p_75w94d66l9ssrldxqdhh700000gn/T//cct23kAn.s 			page 2


  58 0022 11FA05F5 		lsls	r5, r1, r5
  59              		.loc 1 43 0
  60 0026 00F01F00 		and	r0, r0, #31
  61              	.LVL1:
  62 002a 02F16007 		add	r7, r2, #96
  63 002e 0121     		movs	r1, #1
  64              	.LVL2:
  65 0030 11FA00F0 		lsls	r0, r1, r0
  66              		.loc 1 42 0
  67 0034 2E43     		orrs	r6, r6, r5
  68 0036 43F82460 		str	r6, [r3, r4, lsl #2]
  69              		.loc 1 43 0
  70 003a 43F82700 		str	r0, [r3, r7, lsl #2]
  71              		.loc 1 44 0
  72 003e 43F82200 		str	r0, [r3, r2, lsl #2]
  73              		.loc 1 45 0
  74 0042 F0BC     		pop	{r4, r5, r6, r7}
  75 0044 7047     		bx	lr
  76              		.cfi_endproc
  77              	.LFE7:
  78              		.size	nvicEnableVector, .-nvicEnableVector
  79 0046 00BFAFF3 		.section	.text.nvicDisableVector,"ax",%progbits
  79      0080AFF3 
  79      0080
  80              		.align	2
  81              		.p2align 4,,15
  82              		.global	nvicDisableVector
  83              		.thumb
  84              		.thumb_func
  85              		.type	nvicDisableVector, %function
  86              	nvicDisableVector:
  87              	.LFB8:
  88              		.loc 1 53 0
  89              		.cfi_startproc
  90              		@ args = 0, pretend = 0, frame = 0
  91              		@ frame_needed = 0, uses_anonymous_args = 0
  92              		@ link register save eliminated.
  93              	.LVL3:
  94              		.loc 1 56 0
  95 0000 4109     		lsrs	r1, r0, #5
  96 0002 4FF46143 		mov	r3, #57600
  97              		.loc 1 53 0
  98 0006 10B4     		push	{r4}
  99              	.LCFI1:
 100              		.cfi_def_cfa_offset 4
 101              		.cfi_offset 4, -4
 102              		.loc 1 56 0
 103 0008 CEF20003 		movt	r3, 57344
 104 000c 00F01F02 		and	r2, r0, #31
 105 0010 2031     		adds	r1, r1, #32
 106 0012 0124     		movs	r4, #1
 107 0014 9440     		lsls	r4, r4, r2
 108              		.loc 1 57 0
 109 0016 8208     		lsrs	r2, r0, #2
 110              		.loc 1 56 0
 111 0018 43F82140 		str	r4, [r3, r1, lsl #2]
 112              		.loc 1 57 0
ARM GAS  /var/folders/5n/p_75w94d66l9ssrldxqdhh700000gn/T//cct23kAn.s 			page 3


 113 001c C032     		adds	r2, r2, #192
 114              		.loc 1 54 0
 115 001e 00F00300 		and	r0, r0, #3
 116              	.LVL4:
 117              		.loc 1 57 0
 118 0022 53F82210 		ldr	r1, [r3, r2, lsl #2]
 119              		.loc 1 54 0
 120 0026 C000     		lsls	r0, r0, #3
 121              	.LVL5:
 122              		.loc 1 57 0
 123 0028 FF24     		movs	r4, #255
 124 002a 14FA00F0 		lsls	r0, r4, r0
 125              	.LVL6:
 126 002e 21EA0000 		bic	r0, r1, r0
 127 0032 43F82200 		str	r0, [r3, r2, lsl #2]
 128              		.loc 1 58 0
 129 0036 10BC     		pop	{r4}
 130 0038 7047     		bx	lr
 131              		.cfi_endproc
 132              	.LFE8:
 133              		.size	nvicDisableVector, .-nvicDisableVector
 134 003a 00BFAFF3 		.section	.text.nvicSetSystemHandlerPriority,"ax",%progbits
 134      0080
 135              		.align	2
 136              		.p2align 4,,15
 137              		.global	nvicSetSystemHandlerPriority
 138              		.thumb
 139              		.thumb_func
 140              		.type	nvicSetSystemHandlerPriority, %function
 141              	nvicSetSystemHandlerPriority:
 142              	.LFB9:
 143              		.loc 1 67 0
 144              		.cfi_startproc
 145              		@ args = 0, pretend = 0, frame = 0
 146              		@ frame_needed = 0, uses_anonymous_args = 0
 147              		@ link register save eliminated.
 148              	.LVL7:
 149              		.loc 1 70 0
 150 0000 8208     		lsrs	r2, r0, #2
 151 0002 4FF46D43 		mov	r3, #60672
 152 0006 CEF20003 		movt	r3, 57344
 153 000a 0632     		adds	r2, r2, #6
 154              		.loc 1 68 0
 155 000c 00F00300 		and	r0, r0, #3
 156              	.LVL8:
 157              		.loc 1 67 0
 158 0010 30B4     		push	{r4, r5}
 159              	.LCFI2:
 160              		.cfi_def_cfa_offset 8
 161              		.cfi_offset 5, -4
 162              		.cfi_offset 4, -8
 163              		.loc 1 68 0
 164 0012 C000     		lsls	r0, r0, #3
 165              		.loc 1 70 0
 166 0014 53F82250 		ldr	r5, [r3, r2, lsl #2]
 167              		.loc 1 71 0
 168 0018 FF24     		movs	r4, #255
ARM GAS  /var/folders/5n/p_75w94d66l9ssrldxqdhh700000gn/T//cct23kAn.s 			page 4


 169 001a 8440     		lsls	r4, r4, r0
 170              		.loc 1 70 0
 171 001c 25EA0404 		bic	r4, r5, r4
 172              		.loc 1 71 0
 173 0020 11FA00F0 		lsls	r0, r1, r0
 174 0024 0443     		orrs	r4, r4, r0
 175              		.loc 1 70 0
 176 0026 43F82240 		str	r4, [r3, r2, lsl #2]
 177              		.loc 1 72 0
 178 002a 30BC     		pop	{r4, r5}
 179 002c 7047     		bx	lr
 180              		.cfi_endproc
 181              	.LFE9:
 182              		.size	nvicSetSystemHandlerPriority, .-nvicSetSystemHandlerPriority
 183 002e 00BF     		.text
 184              	.Letext0:
 185              		.file 2 "../../os/ports/common/ARMCMx/nvic.h"
 186              		.file 3 "/usr/local/summon/lib/gcc/arm-none-eabi/4.6.2/../../../../arm-none-eabi/include/stdint.h"
 187              		.section	.debug_info,"",%progbits
 188              	.Ldebug_info0:
 189 0000 33040000 		.4byte	0x433
 190 0004 0200     		.2byte	0x2
 191 0006 00000000 		.4byte	.Ldebug_abbrev0
 192 000a 04       		.byte	0x4
 193 000b 01       		.uleb128 0x1
 194 000c 0A000000 		.4byte	.LASF43
 195 0010 01       		.byte	0x1
 196 0011 31000000 		.4byte	.LASF44
 197 0015 FC000000 		.4byte	.LASF45
 198 0019 00000000 		.4byte	0
 199 001d 00000000 		.4byte	0
 200 0021 00000000 		.4byte	.Ldebug_ranges0+0
 201 0025 00000000 		.4byte	.Ldebug_line0
 202 0029 02       		.uleb128 0x2
 203 002a 04       		.byte	0x4
 204 002b 05       		.byte	0x5
 205 002c 696E7400 		.ascii	"int\000"
 206 0030 03       		.uleb128 0x3
 207 0031 04       		.byte	0x4
 208 0032 07       		.byte	0x7
 209 0033 52010000 		.4byte	.LASF0
 210 0037 03       		.uleb128 0x3
 211 0038 01       		.byte	0x1
 212 0039 06       		.byte	0x6
 213 003a E6010000 		.4byte	.LASF1
 214 003e 03       		.uleb128 0x3
 215 003f 01       		.byte	0x1
 216 0040 08       		.byte	0x8
 217 0041 7A000000 		.4byte	.LASF2
 218 0045 03       		.uleb128 0x3
 219 0046 02       		.byte	0x2
 220 0047 05       		.byte	0x5
 221 0048 F2000000 		.4byte	.LASF3
 222 004c 03       		.uleb128 0x3
 223 004d 02       		.byte	0x2
 224 004e 07       		.byte	0x7
 225 004f B8000000 		.4byte	.LASF4
ARM GAS  /var/folders/5n/p_75w94d66l9ssrldxqdhh700000gn/T//cct23kAn.s 			page 5


 226 0053 03       		.uleb128 0x3
 227 0054 04       		.byte	0x4
 228 0055 05       		.byte	0x5
 229 0056 D8010000 		.4byte	.LASF5
 230 005a 04       		.uleb128 0x4
 231 005b CF010000 		.4byte	.LASF21
 232 005f 03       		.byte	0x3
 233 0060 50       		.byte	0x50
 234 0061 65000000 		.4byte	0x65
 235 0065 03       		.uleb128 0x3
 236 0066 04       		.byte	0x4
 237 0067 07       		.byte	0x7
 238 0068 D5000000 		.4byte	.LASF6
 239 006c 03       		.uleb128 0x3
 240 006d 08       		.byte	0x8
 241 006e 05       		.byte	0x5
 242 006f A0010000 		.4byte	.LASF7
 243 0073 03       		.uleb128 0x3
 244 0074 08       		.byte	0x8
 245 0075 07       		.byte	0x7
 246 0076 69010000 		.4byte	.LASF8
 247 007a 05       		.uleb128 0x5
 248 007b 65000000 		.4byte	0x65
 249 007f 06       		.uleb128 0x6
 250 0080 040E     		.2byte	0xe04
 251 0082 02       		.byte	0x2
 252 0083 63       		.byte	0x63
 253 0084 4A010000 		.4byte	0x14a
 254 0088 07       		.uleb128 0x7
 255 0089 B9010000 		.4byte	.LASF9
 256 008d 02       		.byte	0x2
 257 008e 64       		.byte	0x64
 258 008f 5A010000 		.4byte	0x15a
 259 0093 02       		.byte	0x2
 260 0094 23       		.byte	0x23
 261 0095 00       		.uleb128 0
 262 0096 07       		.uleb128 0x7
 263 0097 88000000 		.4byte	.LASF10
 264 009b 02       		.byte	0x2
 265 009c 65       		.byte	0x65
 266 009d 6F010000 		.4byte	0x16f
 267 00a1 02       		.byte	0x2
 268 00a2 23       		.byte	0x23
 269 00a3 20       		.uleb128 0x20
 270 00a4 07       		.uleb128 0x7
 271 00a5 75000000 		.4byte	.LASF11
 272 00a9 02       		.byte	0x2
 273 00aa 66       		.byte	0x66
 274 00ab 74010000 		.4byte	0x174
 275 00af 03       		.byte	0x3
 276 00b0 23       		.byte	0x23
 277 00b1 8001     		.uleb128 0x80
 278 00b3 07       		.uleb128 0x7
 279 00b4 90000000 		.4byte	.LASF12
 280 00b8 02       		.byte	0x2
 281 00b9 67       		.byte	0x67
 282 00ba 79010000 		.4byte	0x179
ARM GAS  /var/folders/5n/p_75w94d66l9ssrldxqdhh700000gn/T//cct23kAn.s 			page 6


 283 00be 03       		.byte	0x3
 284 00bf 23       		.byte	0x23
 285 00c0 A001     		.uleb128 0xa0
 286 00c2 07       		.uleb128 0x7
 287 00c3 5F010000 		.4byte	.LASF13
 288 00c7 02       		.byte	0x2
 289 00c8 68       		.byte	0x68
 290 00c9 7E010000 		.4byte	0x17e
 291 00cd 03       		.byte	0x3
 292 00ce 23       		.byte	0x23
 293 00cf 8002     		.uleb128 0x100
 294 00d1 07       		.uleb128 0x7
 295 00d2 98000000 		.4byte	.LASF14
 296 00d6 02       		.byte	0x2
 297 00d7 69       		.byte	0x69
 298 00d8 83010000 		.4byte	0x183
 299 00dc 03       		.byte	0x3
 300 00dd 23       		.byte	0x23
 301 00de A002     		.uleb128 0x120
 302 00e0 07       		.uleb128 0x7
 303 00e1 05000000 		.4byte	.LASF15
 304 00e5 02       		.byte	0x2
 305 00e6 6A       		.byte	0x6a
 306 00e7 88010000 		.4byte	0x188
 307 00eb 03       		.byte	0x3
 308 00ec 23       		.byte	0x23
 309 00ed 8003     		.uleb128 0x180
 310 00ef 07       		.uleb128 0x7
 311 00f0 A0000000 		.4byte	.LASF16
 312 00f4 02       		.byte	0x2
 313 00f5 6B       		.byte	0x6b
 314 00f6 8D010000 		.4byte	0x18d
 315 00fa 03       		.byte	0x3
 316 00fb 23       		.byte	0x23
 317 00fc A003     		.uleb128 0x1a0
 318 00fe 07       		.uleb128 0x7
 319 00ff 0F020000 		.4byte	.LASF17
 320 0103 02       		.byte	0x2
 321 0104 6C       		.byte	0x6c
 322 0105 92010000 		.4byte	0x192
 323 0109 03       		.byte	0x3
 324 010a 23       		.byte	0x23
 325 010b 8004     		.uleb128 0x200
 326 010d 07       		.uleb128 0x7
 327 010e A8000000 		.4byte	.LASF18
 328 0112 02       		.byte	0x2
 329 0113 6D       		.byte	0x6d
 330 0114 A7010000 		.4byte	0x1a7
 331 0118 03       		.byte	0x3
 332 0119 23       		.byte	0x23
 333 011a A004     		.uleb128 0x220
 334 011c 08       		.uleb128 0x8
 335 011d 49505200 		.ascii	"IPR\000"
 336 0121 02       		.byte	0x2
 337 0122 6E       		.byte	0x6e
 338 0123 BC010000 		.4byte	0x1bc
 339 0127 03       		.byte	0x3
ARM GAS  /var/folders/5n/p_75w94d66l9ssrldxqdhh700000gn/T//cct23kAn.s 			page 7


 340 0128 23       		.byte	0x23
 341 0129 8006     		.uleb128 0x300
 342 012b 07       		.uleb128 0x7
 343 012c B0000000 		.4byte	.LASF19
 344 0130 02       		.byte	0x2
 345 0131 6F       		.byte	0x6f
 346 0132 D2010000 		.4byte	0x1d2
 347 0136 03       		.byte	0x3
 348 0137 23       		.byte	0x23
 349 0138 F007     		.uleb128 0x3f0
 350 013a 07       		.uleb128 0x7
 351 013b ED000000 		.4byte	.LASF20
 352 013f 02       		.byte	0x2
 353 0140 70       		.byte	0x70
 354 0141 7A000000 		.4byte	0x7a
 355 0145 03       		.byte	0x3
 356 0146 23       		.byte	0x23
 357 0147 801C     		.uleb128 0xe00
 358 0149 00       		.byte	0
 359 014a 09       		.uleb128 0x9
 360 014b 65000000 		.4byte	0x65
 361 014f 5A010000 		.4byte	0x15a
 362 0153 0A       		.uleb128 0xa
 363 0154 30000000 		.4byte	0x30
 364 0158 07       		.byte	0x7
 365 0159 00       		.byte	0
 366 015a 05       		.uleb128 0x5
 367 015b 4A010000 		.4byte	0x14a
 368 015f 09       		.uleb128 0x9
 369 0160 65000000 		.4byte	0x65
 370 0164 6F010000 		.4byte	0x16f
 371 0168 0A       		.uleb128 0xa
 372 0169 30000000 		.4byte	0x30
 373 016d 17       		.byte	0x17
 374 016e 00       		.byte	0
 375 016f 05       		.uleb128 0x5
 376 0170 5F010000 		.4byte	0x15f
 377 0174 05       		.uleb128 0x5
 378 0175 4A010000 		.4byte	0x14a
 379 0179 05       		.uleb128 0x5
 380 017a 5F010000 		.4byte	0x15f
 381 017e 05       		.uleb128 0x5
 382 017f 4A010000 		.4byte	0x14a
 383 0183 05       		.uleb128 0x5
 384 0184 5F010000 		.4byte	0x15f
 385 0188 05       		.uleb128 0x5
 386 0189 4A010000 		.4byte	0x14a
 387 018d 05       		.uleb128 0x5
 388 018e 5F010000 		.4byte	0x15f
 389 0192 05       		.uleb128 0x5
 390 0193 4A010000 		.4byte	0x14a
 391 0197 09       		.uleb128 0x9
 392 0198 65000000 		.4byte	0x65
 393 019c A7010000 		.4byte	0x1a7
 394 01a0 0A       		.uleb128 0xa
 395 01a1 30000000 		.4byte	0x30
 396 01a5 37       		.byte	0x37
ARM GAS  /var/folders/5n/p_75w94d66l9ssrldxqdhh700000gn/T//cct23kAn.s 			page 8


 397 01a6 00       		.byte	0
 398 01a7 05       		.uleb128 0x5
 399 01a8 97010000 		.4byte	0x197
 400 01ac 09       		.uleb128 0x9
 401 01ad 65000000 		.4byte	0x65
 402 01b1 BC010000 		.4byte	0x1bc
 403 01b5 0A       		.uleb128 0xa
 404 01b6 30000000 		.4byte	0x30
 405 01ba 3B       		.byte	0x3b
 406 01bb 00       		.byte	0
 407 01bc 05       		.uleb128 0x5
 408 01bd AC010000 		.4byte	0x1ac
 409 01c1 09       		.uleb128 0x9
 410 01c2 65000000 		.4byte	0x65
 411 01c6 D2010000 		.4byte	0x1d2
 412 01ca 0B       		.uleb128 0xb
 413 01cb 30000000 		.4byte	0x30
 414 01cf 8302     		.2byte	0x283
 415 01d1 00       		.byte	0
 416 01d2 05       		.uleb128 0x5
 417 01d3 C1010000 		.4byte	0x1c1
 418 01d7 04       		.uleb128 0x4
 419 01d8 67000000 		.4byte	.LASF22
 420 01dc 02       		.byte	0x2
 421 01dd 71       		.byte	0x71
 422 01de 7F000000 		.4byte	0x7f
 423 01e2 0C       		.uleb128 0xc
 424 01e3 8C       		.byte	0x8c
 425 01e4 02       		.byte	0x2
 426 01e5 82       		.byte	0x82
 427 01e6 12030000 		.4byte	0x312
 428 01ea 07       		.uleb128 0x7
 429 01eb AE010000 		.4byte	.LASF23
 430 01ef 02       		.byte	0x2
 431 01f0 83       		.byte	0x83
 432 01f1 7A000000 		.4byte	0x7a
 433 01f5 02       		.byte	0x2
 434 01f6 23       		.byte	0x23
 435 01f7 00       		.uleb128 0
 436 01f8 07       		.uleb128 0x7
 437 01f9 80010000 		.4byte	.LASF24
 438 01fd 02       		.byte	0x2
 439 01fe 84       		.byte	0x84
 440 01ff 7A000000 		.4byte	0x7a
 441 0203 02       		.byte	0x2
 442 0204 23       		.byte	0x23
 443 0205 04       		.uleb128 0x4
 444 0206 07       		.uleb128 0x7
 445 0207 70000000 		.4byte	.LASF25
 446 020b 02       		.byte	0x2
 447 020c 85       		.byte	0x85
 448 020d 7A000000 		.4byte	0x7a
 449 0211 02       		.byte	0x2
 450 0212 23       		.byte	0x23
 451 0213 08       		.uleb128 0x8
 452 0214 07       		.uleb128 0x7
 453 0215 8D010000 		.4byte	.LASF26
ARM GAS  /var/folders/5n/p_75w94d66l9ssrldxqdhh700000gn/T//cct23kAn.s 			page 9


 454 0219 02       		.byte	0x2
 455 021a 86       		.byte	0x86
 456 021b 7A000000 		.4byte	0x7a
 457 021f 02       		.byte	0x2
 458 0220 23       		.byte	0x23
 459 0221 0C       		.uleb128 0xc
 460 0222 08       		.uleb128 0x8
 461 0223 53435200 		.ascii	"SCR\000"
 462 0227 02       		.byte	0x2
 463 0228 87       		.byte	0x87
 464 0229 7A000000 		.4byte	0x7a
 465 022d 02       		.byte	0x2
 466 022e 23       		.byte	0x23
 467 022f 10       		.uleb128 0x10
 468 0230 08       		.uleb128 0x8
 469 0231 43435200 		.ascii	"CCR\000"
 470 0235 02       		.byte	0x2
 471 0236 88       		.byte	0x88
 472 0237 7A000000 		.4byte	0x7a
 473 023b 02       		.byte	0x2
 474 023c 23       		.byte	0x23
 475 023d 14       		.uleb128 0x14
 476 023e 07       		.uleb128 0x7
 477 023f E1010000 		.4byte	.LASF27
 478 0243 02       		.byte	0x2
 479 0244 89       		.byte	0x89
 480 0245 22030000 		.4byte	0x322
 481 0249 02       		.byte	0x2
 482 024a 23       		.byte	0x23
 483 024b 18       		.uleb128 0x18
 484 024c 07       		.uleb128 0x7
 485 024d C9010000 		.4byte	.LASF28
 486 0251 02       		.byte	0x2
 487 0252 8A       		.byte	0x8a
 488 0253 7A000000 		.4byte	0x7a
 489 0257 02       		.byte	0x2
 490 0258 23       		.byte	0x23
 491 0259 24       		.uleb128 0x24
 492 025a 07       		.uleb128 0x7
 493 025b CB000000 		.4byte	.LASF29
 494 025f 02       		.byte	0x2
 495 0260 8B       		.byte	0x8b
 496 0261 7A000000 		.4byte	0x7a
 497 0265 02       		.byte	0x2
 498 0266 23       		.byte	0x23
 499 0267 28       		.uleb128 0x28
 500 0268 07       		.uleb128 0x7
 501 0269 D0000000 		.4byte	.LASF30
 502 026d 02       		.byte	0x2
 503 026e 8C       		.byte	0x8c
 504 026f 7A000000 		.4byte	0x7a
 505 0273 02       		.byte	0x2
 506 0274 23       		.byte	0x23
 507 0275 2C       		.uleb128 0x2c
 508 0276 07       		.uleb128 0x7
 509 0277 64010000 		.4byte	.LASF31
 510 027b 02       		.byte	0x2
ARM GAS  /var/folders/5n/p_75w94d66l9ssrldxqdhh700000gn/T//cct23kAn.s 			page 10


 511 027c 8D       		.byte	0x8d
 512 027d 7A000000 		.4byte	0x7a
 513 0281 02       		.byte	0x2
 514 0282 23       		.byte	0x23
 515 0283 30       		.uleb128 0x30
 516 0284 07       		.uleb128 0x7
 517 0285 C3010000 		.4byte	.LASF32
 518 0289 02       		.byte	0x2
 519 028a 8E       		.byte	0x8e
 520 028b 7A000000 		.4byte	0x7a
 521 028f 02       		.byte	0x2
 522 0290 23       		.byte	0x23
 523 0291 34       		.uleb128 0x34
 524 0292 07       		.uleb128 0x7
 525 0293 93010000 		.4byte	.LASF33
 526 0297 02       		.byte	0x2
 527 0298 8F       		.byte	0x8f
 528 0299 7A000000 		.4byte	0x7a
 529 029d 02       		.byte	0x2
 530 029e 23       		.byte	0x23
 531 029f 38       		.uleb128 0x38
 532 02a0 07       		.uleb128 0x7
 533 02a1 BE010000 		.4byte	.LASF34
 534 02a5 02       		.byte	0x2
 535 02a6 90       		.byte	0x90
 536 02a7 7A000000 		.4byte	0x7a
 537 02ab 02       		.byte	0x2
 538 02ac 23       		.byte	0x23
 539 02ad 3C       		.uleb128 0x3c
 540 02ae 08       		.uleb128 0x8
 541 02af 50465200 		.ascii	"PFR\000"
 542 02b3 02       		.byte	0x2
 543 02b4 91       		.byte	0x91
 544 02b5 37030000 		.4byte	0x337
 545 02b9 02       		.byte	0x2
 546 02ba 23       		.byte	0x23
 547 02bb 40       		.uleb128 0x40
 548 02bc 08       		.uleb128 0x8
 549 02bd 44465200 		.ascii	"DFR\000"
 550 02c1 02       		.byte	0x2
 551 02c2 92       		.byte	0x92
 552 02c3 7A000000 		.4byte	0x7a
 553 02c7 02       		.byte	0x2
 554 02c8 23       		.byte	0x23
 555 02c9 48       		.uleb128 0x48
 556 02ca 08       		.uleb128 0x8
 557 02cb 41445200 		.ascii	"ADR\000"
 558 02cf 02       		.byte	0x2
 559 02d0 93       		.byte	0x93
 560 02d1 7A000000 		.4byte	0x7a
 561 02d5 02       		.byte	0x2
 562 02d6 23       		.byte	0x23
 563 02d7 4C       		.uleb128 0x4c
 564 02d8 07       		.uleb128 0x7
 565 02d9 2C000000 		.4byte	.LASF35
 566 02dd 02       		.byte	0x2
 567 02de 94       		.byte	0x94
ARM GAS  /var/folders/5n/p_75w94d66l9ssrldxqdhh700000gn/T//cct23kAn.s 			page 11


 568 02df 4C030000 		.4byte	0x34c
 569 02e3 02       		.byte	0x2
 570 02e4 23       		.byte	0x23
 571 02e5 50       		.uleb128 0x50
 572 02e6 08       		.uleb128 0x8
 573 02e7 53415200 		.ascii	"SAR\000"
 574 02eb 02       		.byte	0x2
 575 02ec 95       		.byte	0x95
 576 02ed 61030000 		.4byte	0x361
 577 02f1 02       		.byte	0x2
 578 02f2 23       		.byte	0x23
 579 02f3 60       		.uleb128 0x60
 580 02f4 07       		.uleb128 0x7
 581 02f5 88000000 		.4byte	.LASF10
 582 02f9 02       		.byte	0x2
 583 02fa 96       		.byte	0x96
 584 02fb 66030000 		.4byte	0x366
 585 02ff 02       		.byte	0x2
 586 0300 23       		.byte	0x23
 587 0301 74       		.uleb128 0x74
 588 0302 07       		.uleb128 0x7
 589 0303 E7000000 		.4byte	.LASF36
 590 0307 02       		.byte	0x2
 591 0308 97       		.byte	0x97
 592 0309 7A000000 		.4byte	0x7a
 593 030d 03       		.byte	0x3
 594 030e 23       		.byte	0x23
 595 030f 8801     		.uleb128 0x88
 596 0311 00       		.byte	0
 597 0312 09       		.uleb128 0x9
 598 0313 65000000 		.4byte	0x65
 599 0317 22030000 		.4byte	0x322
 600 031b 0A       		.uleb128 0xa
 601 031c 30000000 		.4byte	0x30
 602 0320 02       		.byte	0x2
 603 0321 00       		.byte	0
 604 0322 05       		.uleb128 0x5
 605 0323 12030000 		.4byte	0x312
 606 0327 09       		.uleb128 0x9
 607 0328 65000000 		.4byte	0x65
 608 032c 37030000 		.4byte	0x337
 609 0330 0A       		.uleb128 0xa
 610 0331 30000000 		.4byte	0x30
 611 0335 01       		.byte	0x1
 612 0336 00       		.byte	0
 613 0337 05       		.uleb128 0x5
 614 0338 27030000 		.4byte	0x327
 615 033c 09       		.uleb128 0x9
 616 033d 65000000 		.4byte	0x65
 617 0341 4C030000 		.4byte	0x34c
 618 0345 0A       		.uleb128 0xa
 619 0346 30000000 		.4byte	0x30
 620 034a 03       		.byte	0x3
 621 034b 00       		.byte	0
 622 034c 05       		.uleb128 0x5
 623 034d 3C030000 		.4byte	0x33c
 624 0351 09       		.uleb128 0x9
ARM GAS  /var/folders/5n/p_75w94d66l9ssrldxqdhh700000gn/T//cct23kAn.s 			page 12


 625 0352 65000000 		.4byte	0x65
 626 0356 61030000 		.4byte	0x361
 627 035a 0A       		.uleb128 0xa
 628 035b 30000000 		.4byte	0x30
 629 035f 04       		.byte	0x4
 630 0360 00       		.byte	0
 631 0361 05       		.uleb128 0x5
 632 0362 51030000 		.4byte	0x351
 633 0366 05       		.uleb128 0x5
 634 0367 51030000 		.4byte	0x351
 635 036b 04       		.uleb128 0x4
 636 036c 85010000 		.4byte	.LASF37
 637 0370 02       		.byte	0x2
 638 0371 98       		.byte	0x98
 639 0372 E2010000 		.4byte	0x1e2
 640 0376 03       		.uleb128 0x3
 641 0377 01       		.byte	0x1
 642 0378 08       		.byte	0x8
 643 0379 B4010000 		.4byte	.LASF38
 644 037d 0D       		.uleb128 0xd
 645 037e 01       		.byte	0x1
 646 037f 14020000 		.4byte	.LASF40
 647 0383 01       		.byte	0x1
 648 0384 27       		.byte	0x27
 649 0385 01       		.byte	0x1
 650 0386 00000000 		.4byte	.LFB7
 651 038a 46000000 		.4byte	.LFE7
 652 038e 00000000 		.4byte	.LLST0
 653 0392 C1030000 		.4byte	0x3c1
 654 0396 0E       		.uleb128 0xe
 655 0397 6E00     		.ascii	"n\000"
 656 0399 01       		.byte	0x1
 657 039a 27       		.byte	0x27
 658 039b 5A000000 		.4byte	0x5a
 659 039f 20000000 		.4byte	.LLST1
 660 03a3 0F       		.uleb128 0xf
 661 03a4 00000000 		.4byte	.LASF39
 662 03a8 01       		.byte	0x1
 663 03a9 27       		.byte	0x27
 664 03aa 5A000000 		.4byte	0x5a
 665 03ae 33000000 		.4byte	.LLST2
 666 03b2 10       		.uleb128 0x10
 667 03b3 736800   		.ascii	"sh\000"
 668 03b6 01       		.byte	0x1
 669 03b7 28       		.byte	0x28
 670 03b8 30000000 		.4byte	0x30
 671 03bc 46000000 		.4byte	.LLST3
 672 03c0 00       		.byte	0
 673 03c1 0D       		.uleb128 0xd
 674 03c2 01       		.byte	0x1
 675 03c3 55000000 		.4byte	.LASF41
 676 03c7 01       		.byte	0x1
 677 03c8 35       		.byte	0x35
 678 03c9 01       		.byte	0x1
 679 03ca 00000000 		.4byte	.LFB8
 680 03ce 3A000000 		.4byte	.LFE8
 681 03d2 5F000000 		.4byte	.LLST4
ARM GAS  /var/folders/5n/p_75w94d66l9ssrldxqdhh700000gn/T//cct23kAn.s 			page 13


 682 03d6 F6030000 		.4byte	0x3f6
 683 03da 0E       		.uleb128 0xe
 684 03db 6E00     		.ascii	"n\000"
 685 03dd 01       		.byte	0x1
 686 03de 35       		.byte	0x35
 687 03df 5A000000 		.4byte	0x5a
 688 03e3 7F000000 		.4byte	.LLST5
 689 03e7 10       		.uleb128 0x10
 690 03e8 736800   		.ascii	"sh\000"
 691 03eb 01       		.byte	0x1
 692 03ec 36       		.byte	0x36
 693 03ed 30000000 		.4byte	0x30
 694 03f1 92000000 		.4byte	.LLST6
 695 03f5 00       		.byte	0
 696 03f6 11       		.uleb128 0x11
 697 03f7 01       		.byte	0x1
 698 03f8 F2010000 		.4byte	.LASF46
 699 03fc 01       		.byte	0x1
 700 03fd 43       		.byte	0x43
 701 03fe 01       		.byte	0x1
 702 03ff 00000000 		.4byte	.LFB9
 703 0403 2E000000 		.4byte	.LFE9
 704 0407 B6000000 		.4byte	.LLST7
 705 040b 0F       		.uleb128 0xf
 706 040c 98010000 		.4byte	.LASF42
 707 0410 01       		.byte	0x1
 708 0411 43       		.byte	0x43
 709 0412 5A000000 		.4byte	0x5a
 710 0416 D6000000 		.4byte	.LLST8
 711 041a 12       		.uleb128 0x12
 712 041b 00000000 		.4byte	.LASF39
 713 041f 01       		.byte	0x1
 714 0420 43       		.byte	0x43
 715 0421 5A000000 		.4byte	0x5a
 716 0425 01       		.byte	0x1
 717 0426 51       		.byte	0x51
 718 0427 10       		.uleb128 0x10
 719 0428 736800   		.ascii	"sh\000"
 720 042b 01       		.byte	0x1
 721 042c 44       		.byte	0x44
 722 042d 30000000 		.4byte	0x30
 723 0431 E9000000 		.4byte	.LLST9
 724 0435 00       		.byte	0
 725 0436 00       		.byte	0
 726              		.section	.debug_abbrev,"",%progbits
 727              	.Ldebug_abbrev0:
 728 0000 01       		.uleb128 0x1
 729 0001 11       		.uleb128 0x11
 730 0002 01       		.byte	0x1
 731 0003 25       		.uleb128 0x25
 732 0004 0E       		.uleb128 0xe
 733 0005 13       		.uleb128 0x13
 734 0006 0B       		.uleb128 0xb
 735 0007 03       		.uleb128 0x3
 736 0008 0E       		.uleb128 0xe
 737 0009 1B       		.uleb128 0x1b
 738 000a 0E       		.uleb128 0xe
ARM GAS  /var/folders/5n/p_75w94d66l9ssrldxqdhh700000gn/T//cct23kAn.s 			page 14


 739 000b 11       		.uleb128 0x11
 740 000c 01       		.uleb128 0x1
 741 000d 52       		.uleb128 0x52
 742 000e 01       		.uleb128 0x1
 743 000f 55       		.uleb128 0x55
 744 0010 06       		.uleb128 0x6
 745 0011 10       		.uleb128 0x10
 746 0012 06       		.uleb128 0x6
 747 0013 00       		.byte	0
 748 0014 00       		.byte	0
 749 0015 02       		.uleb128 0x2
 750 0016 24       		.uleb128 0x24
 751 0017 00       		.byte	0
 752 0018 0B       		.uleb128 0xb
 753 0019 0B       		.uleb128 0xb
 754 001a 3E       		.uleb128 0x3e
 755 001b 0B       		.uleb128 0xb
 756 001c 03       		.uleb128 0x3
 757 001d 08       		.uleb128 0x8
 758 001e 00       		.byte	0
 759 001f 00       		.byte	0
 760 0020 03       		.uleb128 0x3
 761 0021 24       		.uleb128 0x24
 762 0022 00       		.byte	0
 763 0023 0B       		.uleb128 0xb
 764 0024 0B       		.uleb128 0xb
 765 0025 3E       		.uleb128 0x3e
 766 0026 0B       		.uleb128 0xb
 767 0027 03       		.uleb128 0x3
 768 0028 0E       		.uleb128 0xe
 769 0029 00       		.byte	0
 770 002a 00       		.byte	0
 771 002b 04       		.uleb128 0x4
 772 002c 16       		.uleb128 0x16
 773 002d 00       		.byte	0
 774 002e 03       		.uleb128 0x3
 775 002f 0E       		.uleb128 0xe
 776 0030 3A       		.uleb128 0x3a
 777 0031 0B       		.uleb128 0xb
 778 0032 3B       		.uleb128 0x3b
 779 0033 0B       		.uleb128 0xb
 780 0034 49       		.uleb128 0x49
 781 0035 13       		.uleb128 0x13
 782 0036 00       		.byte	0
 783 0037 00       		.byte	0
 784 0038 05       		.uleb128 0x5
 785 0039 35       		.uleb128 0x35
 786 003a 00       		.byte	0
 787 003b 49       		.uleb128 0x49
 788 003c 13       		.uleb128 0x13
 789 003d 00       		.byte	0
 790 003e 00       		.byte	0
 791 003f 06       		.uleb128 0x6
 792 0040 13       		.uleb128 0x13
 793 0041 01       		.byte	0x1
 794 0042 0B       		.uleb128 0xb
 795 0043 05       		.uleb128 0x5
ARM GAS  /var/folders/5n/p_75w94d66l9ssrldxqdhh700000gn/T//cct23kAn.s 			page 15


 796 0044 3A       		.uleb128 0x3a
 797 0045 0B       		.uleb128 0xb
 798 0046 3B       		.uleb128 0x3b
 799 0047 0B       		.uleb128 0xb
 800 0048 01       		.uleb128 0x1
 801 0049 13       		.uleb128 0x13
 802 004a 00       		.byte	0
 803 004b 00       		.byte	0
 804 004c 07       		.uleb128 0x7
 805 004d 0D       		.uleb128 0xd
 806 004e 00       		.byte	0
 807 004f 03       		.uleb128 0x3
 808 0050 0E       		.uleb128 0xe
 809 0051 3A       		.uleb128 0x3a
 810 0052 0B       		.uleb128 0xb
 811 0053 3B       		.uleb128 0x3b
 812 0054 0B       		.uleb128 0xb
 813 0055 49       		.uleb128 0x49
 814 0056 13       		.uleb128 0x13
 815 0057 38       		.uleb128 0x38
 816 0058 0A       		.uleb128 0xa
 817 0059 00       		.byte	0
 818 005a 00       		.byte	0
 819 005b 08       		.uleb128 0x8
 820 005c 0D       		.uleb128 0xd
 821 005d 00       		.byte	0
 822 005e 03       		.uleb128 0x3
 823 005f 08       		.uleb128 0x8
 824 0060 3A       		.uleb128 0x3a
 825 0061 0B       		.uleb128 0xb
 826 0062 3B       		.uleb128 0x3b
 827 0063 0B       		.uleb128 0xb
 828 0064 49       		.uleb128 0x49
 829 0065 13       		.uleb128 0x13
 830 0066 38       		.uleb128 0x38
 831 0067 0A       		.uleb128 0xa
 832 0068 00       		.byte	0
 833 0069 00       		.byte	0
 834 006a 09       		.uleb128 0x9
 835 006b 01       		.uleb128 0x1
 836 006c 01       		.byte	0x1
 837 006d 49       		.uleb128 0x49
 838 006e 13       		.uleb128 0x13
 839 006f 01       		.uleb128 0x1
 840 0070 13       		.uleb128 0x13
 841 0071 00       		.byte	0
 842 0072 00       		.byte	0
 843 0073 0A       		.uleb128 0xa
 844 0074 21       		.uleb128 0x21
 845 0075 00       		.byte	0
 846 0076 49       		.uleb128 0x49
 847 0077 13       		.uleb128 0x13
 848 0078 2F       		.uleb128 0x2f
 849 0079 0B       		.uleb128 0xb
 850 007a 00       		.byte	0
 851 007b 00       		.byte	0
 852 007c 0B       		.uleb128 0xb
ARM GAS  /var/folders/5n/p_75w94d66l9ssrldxqdhh700000gn/T//cct23kAn.s 			page 16


 853 007d 21       		.uleb128 0x21
 854 007e 00       		.byte	0
 855 007f 49       		.uleb128 0x49
 856 0080 13       		.uleb128 0x13
 857 0081 2F       		.uleb128 0x2f
 858 0082 05       		.uleb128 0x5
 859 0083 00       		.byte	0
 860 0084 00       		.byte	0
 861 0085 0C       		.uleb128 0xc
 862 0086 13       		.uleb128 0x13
 863 0087 01       		.byte	0x1
 864 0088 0B       		.uleb128 0xb
 865 0089 0B       		.uleb128 0xb
 866 008a 3A       		.uleb128 0x3a
 867 008b 0B       		.uleb128 0xb
 868 008c 3B       		.uleb128 0x3b
 869 008d 0B       		.uleb128 0xb
 870 008e 01       		.uleb128 0x1
 871 008f 13       		.uleb128 0x13
 872 0090 00       		.byte	0
 873 0091 00       		.byte	0
 874 0092 0D       		.uleb128 0xd
 875 0093 2E       		.uleb128 0x2e
 876 0094 01       		.byte	0x1
 877 0095 3F       		.uleb128 0x3f
 878 0096 0C       		.uleb128 0xc
 879 0097 03       		.uleb128 0x3
 880 0098 0E       		.uleb128 0xe
 881 0099 3A       		.uleb128 0x3a
 882 009a 0B       		.uleb128 0xb
 883 009b 3B       		.uleb128 0x3b
 884 009c 0B       		.uleb128 0xb
 885 009d 27       		.uleb128 0x27
 886 009e 0C       		.uleb128 0xc
 887 009f 11       		.uleb128 0x11
 888 00a0 01       		.uleb128 0x1
 889 00a1 12       		.uleb128 0x12
 890 00a2 01       		.uleb128 0x1
 891 00a3 40       		.uleb128 0x40
 892 00a4 06       		.uleb128 0x6
 893 00a5 01       		.uleb128 0x1
 894 00a6 13       		.uleb128 0x13
 895 00a7 00       		.byte	0
 896 00a8 00       		.byte	0
 897 00a9 0E       		.uleb128 0xe
 898 00aa 05       		.uleb128 0x5
 899 00ab 00       		.byte	0
 900 00ac 03       		.uleb128 0x3
 901 00ad 08       		.uleb128 0x8
 902 00ae 3A       		.uleb128 0x3a
 903 00af 0B       		.uleb128 0xb
 904 00b0 3B       		.uleb128 0x3b
 905 00b1 0B       		.uleb128 0xb
 906 00b2 49       		.uleb128 0x49
 907 00b3 13       		.uleb128 0x13
 908 00b4 02       		.uleb128 0x2
 909 00b5 06       		.uleb128 0x6
ARM GAS  /var/folders/5n/p_75w94d66l9ssrldxqdhh700000gn/T//cct23kAn.s 			page 17


 910 00b6 00       		.byte	0
 911 00b7 00       		.byte	0
 912 00b8 0F       		.uleb128 0xf
 913 00b9 05       		.uleb128 0x5
 914 00ba 00       		.byte	0
 915 00bb 03       		.uleb128 0x3
 916 00bc 0E       		.uleb128 0xe
 917 00bd 3A       		.uleb128 0x3a
 918 00be 0B       		.uleb128 0xb
 919 00bf 3B       		.uleb128 0x3b
 920 00c0 0B       		.uleb128 0xb
 921 00c1 49       		.uleb128 0x49
 922 00c2 13       		.uleb128 0x13
 923 00c3 02       		.uleb128 0x2
 924 00c4 06       		.uleb128 0x6
 925 00c5 00       		.byte	0
 926 00c6 00       		.byte	0
 927 00c7 10       		.uleb128 0x10
 928 00c8 34       		.uleb128 0x34
 929 00c9 00       		.byte	0
 930 00ca 03       		.uleb128 0x3
 931 00cb 08       		.uleb128 0x8
 932 00cc 3A       		.uleb128 0x3a
 933 00cd 0B       		.uleb128 0xb
 934 00ce 3B       		.uleb128 0x3b
 935 00cf 0B       		.uleb128 0xb
 936 00d0 49       		.uleb128 0x49
 937 00d1 13       		.uleb128 0x13
 938 00d2 02       		.uleb128 0x2
 939 00d3 06       		.uleb128 0x6
 940 00d4 00       		.byte	0
 941 00d5 00       		.byte	0
 942 00d6 11       		.uleb128 0x11
 943 00d7 2E       		.uleb128 0x2e
 944 00d8 01       		.byte	0x1
 945 00d9 3F       		.uleb128 0x3f
 946 00da 0C       		.uleb128 0xc
 947 00db 03       		.uleb128 0x3
 948 00dc 0E       		.uleb128 0xe
 949 00dd 3A       		.uleb128 0x3a
 950 00de 0B       		.uleb128 0xb
 951 00df 3B       		.uleb128 0x3b
 952 00e0 0B       		.uleb128 0xb
 953 00e1 27       		.uleb128 0x27
 954 00e2 0C       		.uleb128 0xc
 955 00e3 11       		.uleb128 0x11
 956 00e4 01       		.uleb128 0x1
 957 00e5 12       		.uleb128 0x12
 958 00e6 01       		.uleb128 0x1
 959 00e7 40       		.uleb128 0x40
 960 00e8 06       		.uleb128 0x6
 961 00e9 00       		.byte	0
 962 00ea 00       		.byte	0
 963 00eb 12       		.uleb128 0x12
 964 00ec 05       		.uleb128 0x5
 965 00ed 00       		.byte	0
 966 00ee 03       		.uleb128 0x3
ARM GAS  /var/folders/5n/p_75w94d66l9ssrldxqdhh700000gn/T//cct23kAn.s 			page 18


 967 00ef 0E       		.uleb128 0xe
 968 00f0 3A       		.uleb128 0x3a
 969 00f1 0B       		.uleb128 0xb
 970 00f2 3B       		.uleb128 0x3b
 971 00f3 0B       		.uleb128 0xb
 972 00f4 49       		.uleb128 0x49
 973 00f5 13       		.uleb128 0x13
 974 00f6 02       		.uleb128 0x2
 975 00f7 0A       		.uleb128 0xa
 976 00f8 00       		.byte	0
 977 00f9 00       		.byte	0
 978 00fa 00       		.byte	0
 979              		.section	.debug_loc,"",%progbits
 980              	.Ldebug_loc0:
 981              	.LLST0:
 982 0000 00000000 		.4byte	.LFB7
 983 0004 02000000 		.4byte	.LCFI0
 984 0008 0200     		.2byte	0x2
 985 000a 7D       		.byte	0x7d
 986 000b 00       		.sleb128 0
 987 000c 02000000 		.4byte	.LCFI0
 988 0010 46000000 		.4byte	.LFE7
 989 0014 0200     		.2byte	0x2
 990 0016 7D       		.byte	0x7d
 991 0017 10       		.sleb128 16
 992 0018 00000000 		.4byte	0
 993 001c 00000000 		.4byte	0
 994              	.LLST1:
 995 0020 00000000 		.4byte	.LVL0
 996 0024 2A000000 		.4byte	.LVL1
 997 0028 0100     		.2byte	0x1
 998 002a 50       		.byte	0x50
 999 002b 00000000 		.4byte	0
 1000 002f 00000000 		.4byte	0
 1001              	.LLST2:
 1002 0033 00000000 		.4byte	.LVL0
 1003 0037 30000000 		.4byte	.LVL2
 1004 003b 0100     		.2byte	0x1
 1005 003d 51       		.byte	0x51
 1006 003e 00000000 		.4byte	0
 1007 0042 00000000 		.4byte	0
 1008              	.LLST3:
 1009 0046 00000000 		.4byte	.LVL0
 1010 004a 2A000000 		.4byte	.LVL1
 1011 004e 0700     		.2byte	0x7
 1012 0050 70       		.byte	0x70
 1013 0051 00       		.sleb128 0
 1014 0052 33       		.byte	0x33
 1015 0053 1A       		.byte	0x1a
 1016 0054 33       		.byte	0x33
 1017 0055 24       		.byte	0x24
 1018 0056 9F       		.byte	0x9f
 1019 0057 00000000 		.4byte	0
 1020 005b 00000000 		.4byte	0
 1021              	.LLST4:
 1022 005f 00000000 		.4byte	.LFB8
 1023 0063 08000000 		.4byte	.LCFI1
ARM GAS  /var/folders/5n/p_75w94d66l9ssrldxqdhh700000gn/T//cct23kAn.s 			page 19


 1024 0067 0200     		.2byte	0x2
 1025 0069 7D       		.byte	0x7d
 1026 006a 00       		.sleb128 0
 1027 006b 08000000 		.4byte	.LCFI1
 1028 006f 3A000000 		.4byte	.LFE8
 1029 0073 0200     		.2byte	0x2
 1030 0075 7D       		.byte	0x7d
 1031 0076 04       		.sleb128 4
 1032 0077 00000000 		.4byte	0
 1033 007b 00000000 		.4byte	0
 1034              	.LLST5:
 1035 007f 00000000 		.4byte	.LVL3
 1036 0083 22000000 		.4byte	.LVL4
 1037 0087 0100     		.2byte	0x1
 1038 0089 50       		.byte	0x50
 1039 008a 00000000 		.4byte	0
 1040 008e 00000000 		.4byte	0
 1041              	.LLST6:
 1042 0092 00000000 		.4byte	.LVL3
 1043 0096 22000000 		.4byte	.LVL4
 1044 009a 0700     		.2byte	0x7
 1045 009c 70       		.byte	0x70
 1046 009d 00       		.sleb128 0
 1047 009e 33       		.byte	0x33
 1048 009f 1A       		.byte	0x1a
 1049 00a0 33       		.byte	0x33
 1050 00a1 24       		.byte	0x24
 1051 00a2 9F       		.byte	0x9f
 1052 00a3 28000000 		.4byte	.LVL5
 1053 00a7 2E000000 		.4byte	.LVL6
 1054 00ab 0100     		.2byte	0x1
 1055 00ad 50       		.byte	0x50
 1056 00ae 00000000 		.4byte	0
 1057 00b2 00000000 		.4byte	0
 1058              	.LLST7:
 1059 00b6 00000000 		.4byte	.LFB9
 1060 00ba 12000000 		.4byte	.LCFI2
 1061 00be 0200     		.2byte	0x2
 1062 00c0 7D       		.byte	0x7d
 1063 00c1 00       		.sleb128 0
 1064 00c2 12000000 		.4byte	.LCFI2
 1065 00c6 2E000000 		.4byte	.LFE9
 1066 00ca 0200     		.2byte	0x2
 1067 00cc 7D       		.byte	0x7d
 1068 00cd 08       		.sleb128 8
 1069 00ce 00000000 		.4byte	0
 1070 00d2 00000000 		.4byte	0
 1071              	.LLST8:
 1072 00d6 00000000 		.4byte	.LVL7
 1073 00da 10000000 		.4byte	.LVL8
 1074 00de 0100     		.2byte	0x1
 1075 00e0 50       		.byte	0x50
 1076 00e1 00000000 		.4byte	0
 1077 00e5 00000000 		.4byte	0
 1078              	.LLST9:
 1079 00e9 00000000 		.4byte	.LVL7
 1080 00ed 10000000 		.4byte	.LVL8
ARM GAS  /var/folders/5n/p_75w94d66l9ssrldxqdhh700000gn/T//cct23kAn.s 			page 20


 1081 00f1 0700     		.2byte	0x7
 1082 00f3 70       		.byte	0x70
 1083 00f4 00       		.sleb128 0
 1084 00f5 33       		.byte	0x33
 1085 00f6 1A       		.byte	0x1a
 1086 00f7 33       		.byte	0x33
 1087 00f8 24       		.byte	0x24
 1088 00f9 9F       		.byte	0x9f
 1089 00fa 00000000 		.4byte	0
 1090 00fe 00000000 		.4byte	0
 1091              		.section	.debug_aranges,"",%progbits
 1092 0000 2C000000 		.4byte	0x2c
 1093 0004 0200     		.2byte	0x2
 1094 0006 00000000 		.4byte	.Ldebug_info0
 1095 000a 04       		.byte	0x4
 1096 000b 00       		.byte	0
 1097 000c 0000     		.2byte	0
 1098 000e 0000     		.2byte	0
 1099 0010 00000000 		.4byte	.LFB7
 1100 0014 46000000 		.4byte	.LFE7-.LFB7
 1101 0018 00000000 		.4byte	.LFB8
 1102 001c 3A000000 		.4byte	.LFE8-.LFB8
 1103 0020 00000000 		.4byte	.LFB9
 1104 0024 2E000000 		.4byte	.LFE9-.LFB9
 1105 0028 00000000 		.4byte	0
 1106 002c 00000000 		.4byte	0
 1107              		.section	.debug_ranges,"",%progbits
 1108              	.Ldebug_ranges0:
 1109 0000 00000000 		.4byte	.LFB7
 1110 0004 46000000 		.4byte	.LFE7
 1111 0008 00000000 		.4byte	.LFB8
 1112 000c 3A000000 		.4byte	.LFE8
 1113 0010 00000000 		.4byte	.LFB9
 1114 0014 2E000000 		.4byte	.LFE9
 1115 0018 00000000 		.4byte	0
 1116 001c 00000000 		.4byte	0
 1117              		.section	.debug_line,"",%progbits
 1118              	.Ldebug_line0:
 1119 0000 F5000000 		.section	.debug_str,"MS",%progbits,1
 1119      0200A000 
 1119      00000201 
 1119      FB0E0D00 
 1119      01010101 
 1120              	.LASF39:
 1121 0000 7072696F 		.ascii	"prio\000"
 1121      00
 1122              	.LASF15:
 1123 0005 49435052 		.ascii	"ICPR\000"
 1123      00
 1124              	.LASF43:
 1125 000a 474E5520 		.ascii	"GNU C 4.6.2 20111004 (prerelease)\000"
 1125      4320342E 
 1125      362E3220 
 1125      32303131 
 1125      31303034 
 1126              	.LASF35:
 1127 002c 4D4D4652 		.ascii	"MMFR\000"
ARM GAS  /var/folders/5n/p_75w94d66l9ssrldxqdhh700000gn/T//cct23kAn.s 			page 21


 1127      00
 1128              	.LASF44:
 1129 0031 2E2E2F2E 		.ascii	"../../os/ports/common/ARMCMx/nvic.c\000"
 1129      2E2F6F73 
 1129      2F706F72 
 1129      74732F63 
 1129      6F6D6D6F 
 1130              	.LASF41:
 1131 0055 6E766963 		.ascii	"nvicDisableVector\000"
 1131      44697361 
 1131      626C6556 
 1131      6563746F 
 1131      7200
 1132              	.LASF22:
 1133 0067 434D785F 		.ascii	"CMx_NVIC\000"
 1133      4E564943 
 1133      00
 1134              	.LASF25:
 1135 0070 56544F52 		.ascii	"VTOR\000"
 1135      00
 1136              	.LASF11:
 1137 0075 49434552 		.ascii	"ICER\000"
 1137      00
 1138              	.LASF2:
 1139 007a 756E7369 		.ascii	"unsigned char\000"
 1139      676E6564 
 1139      20636861 
 1139      7200
 1140              	.LASF10:
 1141 0088 756E7573 		.ascii	"unused1\000"
 1141      65643100 
 1142              	.LASF12:
 1143 0090 756E7573 		.ascii	"unused2\000"
 1143      65643200 
 1144              	.LASF14:
 1145 0098 756E7573 		.ascii	"unused3\000"
 1145      65643300 
 1146              	.LASF16:
 1147 00a0 756E7573 		.ascii	"unused4\000"
 1147      65643400 
 1148              	.LASF18:
 1149 00a8 756E7573 		.ascii	"unused5\000"
 1149      65643500 
 1150              	.LASF19:
 1151 00b0 756E7573 		.ascii	"unused6\000"
 1151      65643600 
 1152              	.LASF4:
 1153 00b8 73686F72 		.ascii	"short unsigned int\000"
 1153      7420756E 
 1153      7369676E 
 1153      65642069 
 1153      6E7400
 1154              	.LASF29:
 1155 00cb 43465352 		.ascii	"CFSR\000"
 1155      00
 1156              	.LASF30:
 1157 00d0 48465352 		.ascii	"HFSR\000"
ARM GAS  /var/folders/5n/p_75w94d66l9ssrldxqdhh700000gn/T//cct23kAn.s 			page 22


 1157      00
 1158              	.LASF6:
 1159 00d5 6C6F6E67 		.ascii	"long unsigned int\000"
 1159      20756E73 
 1159      69676E65 
 1159      6420696E 
 1159      7400
 1160              	.LASF36:
 1161 00e7 43504143 		.ascii	"CPACR\000"
 1161      5200
 1162              	.LASF20:
 1163 00ed 53544952 		.ascii	"STIR\000"
 1163      00
 1164              	.LASF3:
 1165 00f2 73686F72 		.ascii	"short int\000"
 1165      7420696E 
 1165      7400
 1166              	.LASF45:
 1167 00fc 2F557365 		.ascii	"/Users/sin/Documents/Eclipse/Workspace/mabl-ChibiOS"
 1167      72732F73 
 1167      696E2F44 
 1167      6F63756D 
 1167      656E7473 
 1168 012f 2D322E35 		.ascii	"-2.5.1/demos/ARMCM4-STM32F407-LWIP\000"
 1168      2E312F64 
 1168      656D6F73 
 1168      2F41524D 
 1168      434D342D 
 1169              	.LASF0:
 1170 0152 756E7369 		.ascii	"unsigned int\000"
 1170      676E6564 
 1170      20696E74 
 1170      00
 1171              	.LASF13:
 1172 015f 49535052 		.ascii	"ISPR\000"
 1172      00
 1173              	.LASF31:
 1174 0164 44465352 		.ascii	"DFSR\000"
 1174      00
 1175              	.LASF8:
 1176 0169 6C6F6E67 		.ascii	"long long unsigned int\000"
 1176      206C6F6E 
 1176      6720756E 
 1176      7369676E 
 1176      65642069 
 1177              	.LASF24:
 1178 0180 49435352 		.ascii	"ICSR\000"
 1178      00
 1179              	.LASF37:
 1180 0185 434D785F 		.ascii	"CMx_SCB\000"
 1180      53434200 
 1181              	.LASF26:
 1182 018d 41495243 		.ascii	"AIRCR\000"
 1182      5200
 1183              	.LASF33:
 1184 0193 42464152 		.ascii	"BFAR\000"
 1184      00
ARM GAS  /var/folders/5n/p_75w94d66l9ssrldxqdhh700000gn/T//cct23kAn.s 			page 23


 1185              	.LASF42:
 1186 0198 68616E64 		.ascii	"handler\000"
 1186      6C657200 
 1187              	.LASF7:
 1188 01a0 6C6F6E67 		.ascii	"long long int\000"
 1188      206C6F6E 
 1188      6720696E 
 1188      7400
 1189              	.LASF23:
 1190 01ae 43505549 		.ascii	"CPUID\000"
 1190      4400
 1191              	.LASF38:
 1192 01b4 63686172 		.ascii	"char\000"
 1192      00
 1193              	.LASF9:
 1194 01b9 49534552 		.ascii	"ISER\000"
 1194      00
 1195              	.LASF34:
 1196 01be 41465352 		.ascii	"AFSR\000"
 1196      00
 1197              	.LASF32:
 1198 01c3 4D4D4641 		.ascii	"MMFAR\000"
 1198      5200
 1199              	.LASF28:
 1200 01c9 53484353 		.ascii	"SHCSR\000"
 1200      5200
 1201              	.LASF21:
 1202 01cf 75696E74 		.ascii	"uint32_t\000"
 1202      33325F74 
 1202      00
 1203              	.LASF5:
 1204 01d8 6C6F6E67 		.ascii	"long int\000"
 1204      20696E74 
 1204      00
 1205              	.LASF27:
 1206 01e1 53485052 		.ascii	"SHPR\000"
 1206      00
 1207              	.LASF1:
 1208 01e6 7369676E 		.ascii	"signed char\000"
 1208      65642063 
 1208      68617200 
 1209              	.LASF46:
 1210 01f2 6E766963 		.ascii	"nvicSetSystemHandlerPriority\000"
 1210      53657453 
 1210      79737465 
 1210      6D48616E 
 1210      646C6572 
 1211              	.LASF17:
 1212 020f 49414252 		.ascii	"IABR\000"
 1212      00
 1213              	.LASF40:
 1214 0214 6E766963 		.ascii	"nvicEnableVector\000"
 1214      456E6162 
 1214      6C655665 
 1214      63746F72 
 1214      00
 1215              		.ident	"GCC: (Linaro GCC 4.6-2011.10) 4.6.2 20111004 (prerelease)"
ARM GAS  /var/folders/5n/p_75w94d66l9ssrldxqdhh700000gn/T//cct23kAn.s 			page 24


ARM GAS  /var/folders/5n/p_75w94d66l9ssrldxqdhh700000gn/T//cct23kAn.s 			page 25


DEFINED SYMBOLS
                            *ABS*:0000000000000000 nvic.c
/var/folders/5n/p_75w94d66l9ssrldxqdhh700000gn/T//cct23kAn.s:18     .text.nvicEnableVector:0000000000000000 $t
/var/folders/5n/p_75w94d66l9ssrldxqdhh700000gn/T//cct23kAn.s:24     .text.nvicEnableVector:0000000000000000 nvicEnableVector
/var/folders/5n/p_75w94d66l9ssrldxqdhh700000gn/T//cct23kAn.s:80     .text.nvicDisableVector:0000000000000000 $t
/var/folders/5n/p_75w94d66l9ssrldxqdhh700000gn/T//cct23kAn.s:86     .text.nvicDisableVector:0000000000000000 nvicDisableVector
/var/folders/5n/p_75w94d66l9ssrldxqdhh700000gn/T//cct23kAn.s:135    .text.nvicSetSystemHandlerPriority:0000000000000000 $t
/var/folders/5n/p_75w94d66l9ssrldxqdhh700000gn/T//cct23kAn.s:141    .text.nvicSetSystemHandlerPriority:0000000000000000 nvicSetSystemHandlerPriority
                     .debug_frame:0000000000000010 $d

NO UNDEFINED SYMBOLS
