ARM GAS  /var/folders/5n/p_75w94d66l9ssrldxqdhh700000gn/T//cct23kAn.s 			page 1


   1              		.syntax unified
   2              		.cpu cortex-m4
   3              		.fpu softvfp
   4              		.eabi_attribute 20, 1
   5              		.eabi_attribute 21, 1
   6              		.eabi_attribute 23, 3
   7              		.eabi_attribute 24, 1
   8              		.eabi_attribute 25, 1
   9              		.eabi_attribute 26, 1
  10              		.eabi_attribute 30, 2
  11              		.eabi_attribute 18, 4
  12              		.thumb
  13              		.file	"nvic.c"
  14              		.text
  15              	.Ltext0:
  16              		.cfi_sections	.debug_frame
  17              		.section	.text.nvicEnableVector,"ax",%progbits
  18              		.align	2
  19              		.p2align 4,,15
  20              		.global	nvicEnableVector
  21              		.thumb
  22              		.thumb_func
  23              		.type	nvicEnableVector, %function
  24              	nvicEnableVector:
  25              	.LFB7:
  26              		.file 1 "../../os/ports/common/ARMCMx/nvic.c"
  27              		.loc 1 39 0
  28              		.cfi_startproc
  29              		@ args = 0, pretend = 0, frame = 0
  30              		@ frame_needed = 0, uses_anonymous_args = 0
  31              		@ link register save eliminated.
  32              	.LVL0:
  33 0000 F0B4     		push	{r4, r5, r6, r7}
  34              	.LCFI0:
  35              		.cfi_def_cfa_offset 16
  36              		.cfi_offset 7, -4
  37              		.cfi_offset 6, -8
  38              		.cfi_offset 5, -12
  39              		.cfi_offset 4, -16
  40              		.loc 1 42 0
  41 0002 4FF46143 		mov	r3, #57600
  42 0006 8408     		lsrs	r4, r0, #2
  43 0008 CEF20003 		movt	r3, 57344
  44 000c C034     		adds	r4, r4, #192
  45              		.loc 1 40 0
  46 000e 00F00305 		and	r5, r0, #3
  47              		.loc 1 42 0
  48 0012 53F82470 		ldr	r7, [r3, r4, lsl #2]
  49              		.loc 1 40 0
  50 0016 ED00     		lsls	r5, r5, #3
  51              		.loc 1 42 0
  52 0018 FF26     		movs	r6, #255
  53              		.loc 1 43 0
  54 001a 4209     		lsrs	r2, r0, #5
  55              		.loc 1 42 0
  56 001c AE40     		lsls	r6, r6, r5
  57 001e 27EA0606 		bic	r6, r7, r6
ARM GAS  /var/folders/5n/p_75w94d66l9ssrldxqdhh700000gn/T//cct23kAn.s 			page 2


  58 0022 11FA05F5 		lsls	r5, r1, r5
  59              		.loc 1 43 0
  60 0026 00F01F00 		and	r0, r0, #31
  61              	.LVL1:
  62 002a 02F16007 		add	r7, r2, #96
  63 002e 0121     		movs	r1, #1
  64              	.LVL2:
  65 0030 11FA00F0 		lsls	r0, r1, r0
  66              		.loc 1 42 0
  67 0034 2E43     		orrs	r6, r6, r5
  68 0036 43F82460 		str	r6, [r3, r4, lsl #2]
  69              		.loc 1 43 0
  70 003a 43F82700 		str	r0, [r3, r7, lsl #2]
  71              		.loc 1 44 0
  72 003e 43F82200 		str	r0, [r3, r2, lsl #2]
  73              		.loc 1 45 0
  74 0042 F0BC     		pop	{r4, r5, r6, r7}
  75 0044 7047     		bx	lr
  76              		.cfi_endproc
  77              	.LFE7:
  78              		.size	nvicEnableVector, .-nvicEnableVector
  79 0046 00BFAFF3 		.section	.text.nvicDisableVector,"ax",%progbits
  79      0080AFF3 
  79      0080
  80              		.align	2
  81              		.p2align 4,,15
  82              		.global	nvicDisableVector
  83              		.thumb
  84              		.thumb_func
  85              		.type	nvicDisableVector, %function
  86              	nvicDisableVector:
  87              	.LFB8:
  88              		.loc 1 53 0
  89              		.cfi_startproc
  90              		@ args = 0, pretend = 0, frame = 0
  91              		@ frame_needed = 0, uses_anonymous_args = 0
  92              		@ link register save eliminated.
  93              	.LVL3:
  94              		.loc 1 56 0
  95 0000 4109     		lsrs	r1, r0, #5
  96 0002 4FF46143 		mov	r3, #57600
  97              		.loc 1 53 0
  98 0006 10B4     		push	{r4}
  99              	.LCFI1:
 100              		.cfi_def_cfa_offset 4
 101              		.cfi_offset 4, -4
 102              		.loc 1 56 0
 103 0008 CEF20003 		movt	r3, 57344
 104 000c 00F01F02 		and	r2, r0, #31
 105 0010 2031     		adds	r1, r1, #32
 106 0012 0124     		movs	r4, #1
 107 0014 9440     		lsls	r4, r4, r2
 108              		.loc 1 57 0
 109 0016 8208     		lsrs	r2, r0, #2
 110              		.loc 1 56 0
 111 0018 43F82140 		str	r4, [r3, r1, lsl #2]
 112              		.loc 1 57 0
ARM GAS  /var/folders/5n/p_75w94d66l9ssrldxqdhh700000gn/T//cct23kAn.s 			page 3


 113 001c C032     		adds	r2, r2, #192
 114              		.loc 1 54 0
 115 001e 00F00300 		and	r0, r0, #3
 116              	.LVL4:
 117              		.loc 1 57 0
 118 0022 53F82210 		ldr	r1, [r3, r2, lsl #2]
 119              		.loc 1 54 0
 120 0026 C000     		lsls	r0, r0, #3
 121              	.LVL5:
 122              		.loc 1 57 0
 123 0028 FF24     		movs	r4, #255
 124 002a 14FA00F0 		lsls	r0, r4, r0
 125              	.LVL6:
 126 002e 21EA0000 		bic	r0, r1, r0
 127 0032 43F82200 		str	r0, [r3, r2, lsl #2]
 128              		.loc 1 58 0
 129 0036 10BC     		pop	{r4}
 130 0038 7047     		bx	lr
 131              		.cfi_endproc
 132              	.LFE8:
 133              		.size	nvicDisableVector, .-nvicDisableVector
 134 003a 00BFAFF3 		.section	.text.nvicSetSystemHandlerPriority,"ax",%progbits
 134      0080
 135              		.align	2
 136              		.p2align 4,,15
 137              		.global	nvicSetSystemHandlerPriority
 138              		.thumb
 139              		.thumb_func
 140              		.type	nvicSetSystemHandlerPriority, %function
 141              	nvicSetSystemHandlerPriority:
 142              	.LFB9:
 143              		.loc 1 67 0
 144              		.cfi_startproc
 145              		@ args = 0, pretend = 0, frame = 0
 146              		@ frame_needed = 0, uses_anonymous_args = 0
 147              		@ link register save eliminated.
 148              	.LVL7:
 149              		.loc 1 70 0
 150 0000 8208     		lsrs	r2, r0, #2
 151 0002 4FF46D43 		mov	r3, #60672
 152 0006 CEF20003 		movt	r3, 57344
 153 000a 0632     		adds	r2, r2, #6
 154              		.loc 1 68 0
 155 000c 00F00300 		and	r0, r0, #3
 156              	.LVL8:
 157              		.loc 1 67 0
 158 0010 30B4     		push	{r4, r5}
 159              	.LCFI2:
 160              		.cfi_def_cfa_offset 8
 161              		.cfi_offset 5, -4
 162              		.cfi_offset 4, -8
 163              		.loc 1 68 0
 164 0012 C000     		lsls	r0, r0, #3
 165              		.loc 1 70 0
 166 0014 53F82250 		ldr	r5, [r3, r2, lsl #2]
 167              		.loc 1 71 0
 168 0018 FF24     		movs	r4, #255
ARM GAS  /var/folders/5n/p_75w94d66l9ssrldxqdhh700000gn/T//cct23kAn.s 			page 4


 169 001a 8440     		lsls	r4, r4, r0
 170              		.loc 1 70 0
 171 001c 25EA0404 		bic	r4, r5, r4
 172              		.loc 1 71 0
 173 0020 11FA00F0 		lsls	r0, r1, r0
 174 0024 0443     		orrs	r4, r4, r0
 175              		.loc 1 70 0
 176 0026 43F82240 		str	r4, [r3, r2, lsl #2]
 177              		.loc 1 72 0
 178 002a 30BC     		pop	{r4, r5}
 179 002c 7047     		bx	lr
 180              		.cfi_endproc
 181              	.LFE9:
 182              		.size	nvicSetSystemHandlerPriority, .-nvicSetSystemHandlerPriority
 183 002e 00BF     		.text
 184              	.Letext0:
 185              		.file 2 "../../os/ports/common/ARMCMx/nvic.h"
 186              		.file 3 "/usr/local/summon/lib/gcc/arm-none-eabi/4.6.2/../../../../arm-none-eabi/include/stdint.h"