ARM GAS  /var/folders/5n/p_75w94d66l9ssrldxqdhh700000gn/T//ccb1V42B.s 			page 1


   1              		.syntax unified
   2              		.cpu cortex-m4
   3              		.fpu softvfp
   4              		.eabi_attribute 20, 1
   5              		.eabi_attribute 21, 1
   6              		.eabi_attribute 23, 3
   7              		.eabi_attribute 24, 1
   8              		.eabi_attribute 25, 1
   9              		.eabi_attribute 26, 1
  10              		.eabi_attribute 30, 2
  11              		.eabi_attribute 18, 4
  12              		.thumb
  13              		.file	"raw.c"
  14              		.text
  15              	.Ltext0:
  16              		.cfi_sections	.debug_frame
  17              		.section	.text.raw_input,"ax",%progbits
  18              		.align	2
  19              		.p2align 4,,15
  20              		.global	raw_input
  21              		.thumb
  22              		.thumb_func
  23              		.type	raw_input, %function
  24              	raw_input:
  25              	.LFB7:
  26              		.file 1 "../../ext/lwip/src/core/raw.c"
  27              		.loc 1 77 0
  28              		.cfi_startproc
  29              		@ args = 0, pretend = 0, frame = 0
  30              		@ frame_needed = 0, uses_anonymous_args = 0
  31              	.LVL0:
  32 0000 2DE9F047 		push	{r4, r5, r6, r7, r8, r9, sl, lr}
  33              	.LCFI0:
  34              		.cfi_def_cfa_offset 32
  35              		.cfi_offset 14, -4
  36              		.cfi_offset 10, -8
  37              		.cfi_offset 9, -12
  38              		.cfi_offset 8, -16
  39              		.cfi_offset 7, -20
  40              		.cfi_offset 6, -24
  41              		.cfi_offset 5, -28
  42              		.cfi_offset 4, -32
  43              		.loc 1 89 0
  44 0004 DFF870A0 		ldr	sl, .L11+4
  45              		.loc 1 86 0
  46 0008 4368     		ldr	r3, [r0, #4]
  47              		.loc 1 89 0
  48 000a DAF80040 		ldr	r4, [sl, #0]
  49              		.loc 1 86 0
  50 000e 5E7A     		ldrb	r6, [r3, #9]	@ zero_extendqisi2
  51              		.loc 1 77 0
  52 0010 8046     		mov	r8, r0
  53              	.LVL1:
  54              		.loc 1 92 0
  55 0012 002C     		cmp	r4, #0
  56 0014 2BD0     		beq	.L6
  57 0016 36B2     		sxth	r6, r6
ARM GAS  /var/folders/5n/p_75w94d66l9ssrldxqdhh700000gn/T//ccb1V42B.s 			page 2


  58              	.LVL2:
  59              		.loc 1 88 0
  60 0018 0025     		movs	r5, #0
  61              		.loc 1 95 0
  62 001a DFF86090 		ldr	r9, .L11+8
  63 001e 03E0     		b	.L5
  64              	.LVL3:
  65              	.L3:
  66              		.loc 1 122 0
  67 0020 E068     		ldr	r0, [r4, #12]
  68              	.LVL4:
  69              		.loc 1 92 0
  70 0022 F8B1     		cbz	r0, .L10
  71 0024 2546     		mov	r5, r4
  72              		.loc 1 122 0
  73 0026 0446     		mov	r4, r0
  74              	.LVL5:
  75              	.L5:
  76              		.loc 1 93 0
  77 0028 237C     		ldrb	r3, [r4, #16]	@ zero_extendqisi2
  78 002a 9E42     		cmp	r6, r3
  79 002c F8D1     		bne	.L3
  80              		.loc 1 94 0 discriminator 1
  81 002e 2068     		ldr	r0, [r4, #0]
  82              		.loc 1 104 0 discriminator 1
  83 0030 104B     		ldr	r3, .L11
  84 0032 2146     		mov	r1, r4
  85 0034 4246     		mov	r2, r8
  86              		.loc 1 94 0 discriminator 1
  87 0036 18B1     		cbz	r0, .L4
  88 0038 D9F80070 		ldr	r7, [r9, #0]
  89 003c B842     		cmp	r0, r7
  90 003e EFD1     		bne	.L3
  91              	.L4:
  92              		.loc 1 102 0
  93 0040 6769     		ldr	r7, [r4, #20]
  94 0042 002F     		cmp	r7, #0
  95 0044 ECD0     		beq	.L3
  96              		.loc 1 104 0
  97 0046 A069     		ldr	r0, [r4, #24]
  98 0048 B847     		blx	r7
  99 004a 0028     		cmp	r0, #0
 100 004c E8D0     		beq	.L3
 101              	.LVL6:
 102              		.loc 1 108 0
 103 004e 5DB1     		cbz	r5, .L7
 104              		.loc 1 111 0
 105 0050 E268     		ldr	r2, [r4, #12]
 106              		.loc 1 112 0
 107 0052 DAF80030 		ldr	r3, [sl, #0]
 108              		.loc 1 111 0
 109 0056 EA60     		str	r2, [r5, #12]
 110              		.loc 1 113 0
 111 0058 CAF80040 		str	r4, [sl, #0]
 112              		.loc 1 112 0
 113 005c E360     		str	r3, [r4, #12]
 114              		.loc 1 113 0
ARM GAS  /var/folders/5n/p_75w94d66l9ssrldxqdhh700000gn/T//ccb1V42B.s 			page 3


 115 005e 0120     		movs	r0, #1
 116 0060 BDE8F087 		pop	{r4, r5, r6, r7, r8, r9, sl, pc}
 117              	.LVL7:
 118              	.L10:
 119 0064 BDE8F087 		pop	{r4, r5, r6, r7, r8, r9, sl, pc}
 120              	.LVL8:
 121              	.L7:
 122              		.loc 1 108 0
 123 0068 0120     		movs	r0, #1
 124              		.loc 1 125 0
 125 006a BDE8F087 		pop	{r4, r5, r6, r7, r8, r9, sl, pc}
 126              	.LVL9:
 127              	.L6:
 128              		.loc 1 81 0
 129 006e 2046     		mov	r0, r4
 130 0070 BDE8F087 		pop	{r4, r5, r6, r7, r8, r9, sl, pc}
 131              	.L12:
 132              		.align	2
 133              	.L11:
 134 0074 00000000 		.word	current_iphdr_src
 135 0078 00000000 		.word	.LANCHOR0
 136 007c 00000000 		.word	current_iphdr_dest
 137              		.cfi_endproc
 138              	.LFE7:
 139              		.size	raw_input, .-raw_input
 140              		.section	.text.raw_bind,"ax",%progbits
 141              		.align	2
 142              		.p2align 4,,15
 143              		.global	raw_bind
 144              		.thumb
 145              		.thumb_func
 146              		.type	raw_bind, %function
 147              	raw_bind:
 148              	.LFB8:
 149              		.loc 1 143 0
 150              		.cfi_startproc
 151              		@ args = 0, pretend = 0, frame = 0
 152              		@ frame_needed = 0, uses_anonymous_args = 0
 153              		@ link register save eliminated.
 154              	.LVL10:
 155              		.loc 1 144 0
 156 0000 01B1     		cbz	r1, .L14
 157              		.loc 1 144 0 is_stmt 0 discriminator 1
 158 0002 0968     		ldr	r1, [r1, #0]
 159              	.LVL11:
 160              	.L14:
 161              		.loc 1 144 0 discriminator 3
 162 0004 0160     		str	r1, [r0, #0]
 163              		.loc 1 146 0 is_stmt 1 discriminator 3
 164 0006 0020     		movs	r0, #0
 165              	.LVL12:
 166 0008 7047     		bx	lr
 167              		.cfi_endproc
 168              	.LFE8:
 169              		.size	raw_bind, .-raw_bind
 170 000a 00BFAFF3 		.section	.text.raw_connect,"ax",%progbits
 170      0080
ARM GAS  /var/folders/5n/p_75w94d66l9ssrldxqdhh700000gn/T//ccb1V42B.s 			page 4


 171              		.align	2
 172              		.p2align 4,,15
 173              		.global	raw_connect
 174              		.thumb
 175              		.thumb_func
 176              		.type	raw_connect, %function
 177              	raw_connect:
 178              	.LFB9:
 179              		.loc 1 163 0
 180              		.cfi_startproc
 181              		@ args = 0, pretend = 0, frame = 0
 182              		@ frame_needed = 0, uses_anonymous_args = 0
 183              		@ link register save eliminated.
 184              	.LVL13:
 185              		.loc 1 164 0
 186 0000 01B1     		cbz	r1, .L17
 187              		.loc 1 164 0 is_stmt 0 discriminator 1
 188 0002 0968     		ldr	r1, [r1, #0]
 189              	.LVL14:
 190              	.L17:
 191              		.loc 1 164 0 discriminator 3
 192 0004 4160     		str	r1, [r0, #4]
 193              		.loc 1 166 0 is_stmt 1 discriminator 3
 194 0006 0020     		movs	r0, #0
 195              	.LVL15:
 196 0008 7047     		bx	lr
 197              		.cfi_endproc
 198              	.LFE9:
 199              		.size	raw_connect, .-raw_connect
 200 000a 00BFAFF3 		.section	.text.raw_recv,"ax",%progbits
 200      0080
 201              		.align	2
 202              		.p2align 4,,15
 203              		.global	raw_recv
 204              		.thumb
 205              		.thumb_func
 206              		.type	raw_recv, %function
 207              	raw_recv:
 208              	.LFB10:
 209              		.loc 1 184 0
 210              		.cfi_startproc
 211              		@ args = 0, pretend = 0, frame = 0
 212              		@ frame_needed = 0, uses_anonymous_args = 0
 213              		@ link register save eliminated.
 214              	.LVL16:
 215              		.loc 1 186 0
 216 0000 4161     		str	r1, [r0, #20]
 217              		.loc 1 187 0
 218 0002 8261     		str	r2, [r0, #24]
 219              		.loc 1 188 0
 220 0004 7047     		bx	lr
 221              		.cfi_endproc
 222              	.LFE10:
 223              		.size	raw_recv, .-raw_recv
 224 0006 00BFAFF3 		.section	.text.raw_sendto,"ax",%progbits
 224      0080AFF3 
 224      0080
ARM GAS  /var/folders/5n/p_75w94d66l9ssrldxqdhh700000gn/T//ccb1V42B.s 			page 5


 225              		.align	2
 226              		.p2align 4,,15
 227              		.global	raw_sendto
 228              		.thumb
 229              		.thumb_func
 230              		.type	raw_sendto, %function
 231              	raw_sendto:
 232              	.LFB11:
 233              		.loc 1 204 0
 234              		.cfi_startproc
 235              		@ args = 0, pretend = 0, frame = 0
 236              		@ frame_needed = 0, uses_anonymous_args = 0
 237              	.LVL17:
 238 0000 2DE9F041 		push	{r4, r5, r6, r7, r8, lr}
 239              	.LCFI1:
 240              		.cfi_def_cfa_offset 24
 241              		.cfi_offset 14, -4
 242              		.cfi_offset 8, -8
 243              		.cfi_offset 7, -12
 244              		.cfi_offset 6, -16
 245              		.cfi_offset 5, -20
 246              		.cfi_offset 4, -24
 247 0004 0C46     		mov	r4, r1
 248 0006 0746     		mov	r7, r0
 249 0008 84B0     		sub	sp, sp, #16
 250              	.LCFI2:
 251              		.cfi_def_cfa_offset 40
 252              		.loc 1 213 0
 253 000a 1421     		movs	r1, #20
 254              	.LVL18:
 255 000c 2046     		mov	r0, r4
 256              	.LVL19:
 257              		.loc 1 204 0
 258 000e 9046     		mov	r8, r2
 259              		.loc 1 213 0
 260 0010 FFF7FEFF 		bl	pbuf_header
 261              	.LVL20:
 262 0014 0028     		cmp	r0, #0
 263 0016 2AD0     		beq	.L21
 264              		.loc 1 215 0
 265 0018 0021     		movs	r1, #0
 266 001a 0120     		movs	r0, #1
 267 001c 0A46     		mov	r2, r1
 268 001e FFF7FEFF 		bl	pbuf_alloc
 269              	.LVL21:
 270              		.loc 1 219 0
 271 0022 FF26     		movs	r6, #255
 272              		.loc 1 217 0
 273 0024 0546     		mov	r5, r0
 274 0026 F0B1     		cbz	r0, .L22
 275              		.loc 1 221 0
 276 0028 2389     		ldrh	r3, [r4, #8]
 277 002a 002B     		cmp	r3, #0
 278 002c 36D1     		bne	.L30
 279              	.LVL22:
 280              	.L23:
 281              		.loc 1 236 0
ARM GAS  /var/folders/5n/p_75w94d66l9ssrldxqdhh700000gn/T//ccb1V42B.s 			page 6


 282 002e 4046     		mov	r0, r8
 283 0030 FFF7FEFF 		bl	ip_route
 284              	.LVL23:
 285 0034 0646     		mov	r6, r0
 286 0036 0028     		cmp	r0, #0
 287 0038 26D0     		beq	.L31
 288              	.L24:
 289              		.loc 1 258 0
 290 003a 3946     		mov	r1, r7
 291 003c 002F     		cmp	r7, #0
 292 003e 2BD0     		beq	.L25
 293              		.loc 1 258 0 is_stmt 0 discriminator 1
 294 0040 3B68     		ldr	r3, [r7, #0]
 295 0042 002B     		cmp	r3, #0
 296 0044 28D0     		beq	.L25
 297              	.L26:
 298              	.LVL24:
 299              		.loc 1 269 0 is_stmt 1
 300 0046 7A7A     		ldrb	r2, [r7, #9]	@ zero_extendqisi2
 301 0048 BB7A     		ldrb	r3, [r7, #10]	@ zero_extendqisi2
 302 004a 3F7C     		ldrb	r7, [r7, #16]	@ zero_extendqisi2
 303              	.LVL25:
 304 004c 0092     		str	r2, [sp, #0]
 305 004e 2846     		mov	r0, r5
 306              	.LVL26:
 307 0050 4246     		mov	r2, r8
 308 0052 0296     		str	r6, [sp, #8]
 309 0054 0197     		str	r7, [sp, #4]
 310 0056 FFF7FEFF 		bl	ip_output_if
 311              	.LVL27:
 312              		.loc 1 275 0
 313 005a A542     		cmp	r5, r4
 314              		.loc 1 269 0
 315 005c 0646     		mov	r6, r0
 316              	.LVL28:
 317              		.loc 1 275 0
 318 005e 02D0     		beq	.L22
 319              		.loc 1 277 0
 320 0060 2846     		mov	r0, r5
 321              	.LVL29:
 322 0062 FFF7FEFF 		bl	pbuf_free
 323              	.LVL30:
 324              	.L22:
 325              		.loc 1 280 0
 326 0066 70B2     		sxtb	r0, r6
 327 0068 04B0     		add	sp, sp, #16
 328 006a BDE8F081 		pop	{r4, r5, r6, r7, r8, pc}
 329              	.LVL31:
 330              	.L21:
 331              		.loc 1 230 0
 332 006e 2046     		mov	r0, r4
 333 0070 6FF01301 		mvn	r1, #19
 334 0074 FFF7FEFF 		bl	pbuf_header
 335 0078 A0B9     		cbnz	r0, .L32
 336              		.loc 1 236 0
 337 007a 4046     		mov	r0, r8
 338 007c FFF7FEFF 		bl	ip_route
ARM GAS  /var/folders/5n/p_75w94d66l9ssrldxqdhh700000gn/T//ccb1V42B.s 			page 7


 339              		.loc 1 230 0
 340 0080 2546     		mov	r5, r4
 341              	.LVL32:
 342              		.loc 1 236 0
 343 0082 0646     		mov	r6, r0
 344 0084 0028     		cmp	r0, #0
 345 0086 D8D1     		bne	.L24
 346              	.LVL33:
 347              	.L31:
 348              		.loc 1 243 0
 349 0088 FC26     		movs	r6, #252
 350              		.loc 1 240 0
 351 008a A542     		cmp	r5, r4
 352 008c EBD0     		beq	.L22
 353              		.loc 1 241 0
 354 008e 2846     		mov	r0, r5
 355              	.LVL34:
 356 0090 FFF7FEFF 		bl	pbuf_free
 357              		.loc 1 243 0
 358 0094 FC26     		movs	r6, #252
 359 0096 E6E7     		b	.L22
 360              	.LVL35:
 361              	.L25:
 362              		.loc 1 260 0
 363 0098 311D     		adds	r1, r6, #4
 364              	.LVL36:
 365 009a D4E7     		b	.L26
 366              	.LVL37:
 367              	.L30:
 368              		.loc 1 223 0
 369 009c 2146     		mov	r1, r4
 370 009e FFF7FEFF 		bl	pbuf_chain
 371              	.LVL38:
 372 00a2 C4E7     		b	.L23
 373              	.LVL39:
 374              	.L32:
 375              		.loc 1 231 0 discriminator 1
 376 00a4 FFF7FEFF 		bl	port_halt
 377              		.loc 1 232 0 discriminator 1
 378 00a8 FF26     		movs	r6, #255
 379 00aa DCE7     		b	.L22
 380              		.cfi_endproc
 381              	.LFE11:
 382              		.size	raw_sendto, .-raw_sendto
 383 00ac AFF30080 		.section	.text.raw_send,"ax",%progbits
 384              		.align	2
 385              		.p2align 4,,15
 386              		.global	raw_send
 387              		.thumb
 388              		.thumb_func
 389              		.type	raw_send, %function
 390              	raw_send:
 391              	.LFB12:
 392              		.loc 1 291 0
 393              		.cfi_startproc
 394              		@ args = 0, pretend = 0, frame = 0
 395              		@ frame_needed = 0, uses_anonymous_args = 0
ARM GAS  /var/folders/5n/p_75w94d66l9ssrldxqdhh700000gn/T//ccb1V42B.s 			page 8


 396              		@ link register save eliminated.
 397              	.LVL40:
 398              		.loc 1 292 0
 399 0000 021D     		adds	r2, r0, #4
 400              		.loc 1 293 0
 401              		.loc 1 292 0
 402 0002 FFF7FEBF 		b	raw_sendto
 403              	.LVL41:
 404              	.LVL42:
 405              		.cfi_endproc
 406              	.LFE12:
 407              		.size	raw_send, .-raw_send
 408 0006 00BFAFF3 		.section	.text.raw_remove,"ax",%progbits
 408      0080AFF3 
 408      0080
 409              		.align	2
 410              		.p2align 4,,15
 411              		.global	raw_remove
 412              		.thumb
 413              		.thumb_func
 414              		.type	raw_remove, %function
 415              	raw_remove:
 416              	.LFB13:
 417              		.loc 1 305 0
 418              		.cfi_startproc
 419              		@ args = 0, pretend = 0, frame = 0
 420              		@ frame_needed = 0, uses_anonymous_args = 0
 421              		@ link register save eliminated.
 422              	.LVL43:
 423              		.loc 1 308 0
 424 0000 0B4A     		ldr	r2, .L42
 425 0002 1368     		ldr	r3, [r2, #0]
 426 0004 8342     		cmp	r3, r0
 427              		.loc 1 305 0
 428 0006 0146     		mov	r1, r0
 429              		.loc 1 308 0
 430 0008 0FD0     		beq	.L35
 431              	.LVL44:
 432              		.loc 1 313 0 discriminator 1
 433 000a 1BB9     		cbnz	r3, .L39
 434 000c 05E0     		b	.L36
 435              	.LVL45:
 436              	.L41:
 437              		.loc 1 315 0 discriminator 1
 438 000e 9142     		cmp	r1, r2
 439 0010 06D0     		beq	.L40
 440              	.L38:
 441              		.loc 1 305 0
 442 0012 1346     		mov	r3, r2
 443              	.L39:
 444              		.loc 1 315 0
 445 0014 DA68     		ldr	r2, [r3, #12]
 446 0016 002A     		cmp	r2, #0
 447 0018 F9D1     		bne	.L41
 448              	.L36:
 449              		.loc 1 321 0
 450 001a 0020     		movs	r0, #0
ARM GAS  /var/folders/5n/p_75w94d66l9ssrldxqdhh700000gn/T//ccb1V42B.s 			page 9


 451              	.LVL46:
 452              		.loc 1 322 0
 453              		.loc 1 321 0
 454 001c FFF7FEBF 		b	memp_free
 455              	.LVL47:
 456              	.L40:
 457              		.loc 1 317 0
 458 0020 CA68     		ldr	r2, [r1, #12]
 459 0022 DA60     		str	r2, [r3, #12]
 460              	.LVL48:
 461              		.loc 1 313 0
 462 0024 002A     		cmp	r2, #0
 463 0026 F4D1     		bne	.L38
 464 0028 F7E7     		b	.L36
 465              	.LVL49:
 466              	.L35:
 467              		.loc 1 310 0
 468 002a C368     		ldr	r3, [r0, #12]
 469 002c 1360     		str	r3, [r2, #0]
 470 002e F4E7     		b	.L36
 471              	.L43:
 472              		.align	2
 473              	.L42:
 474 0030 00000000 		.word	.LANCHOR0
 475              		.cfi_endproc
 476              	.LFE13:
 477              		.size	raw_remove, .-raw_remove
 478 0034 AFF30080 		.section	.text.raw_new,"ax",%progbits
 478      AFF30080 
 478      AFF30080 
 479              		.align	2
 480              		.p2align 4,,15
 481              		.global	raw_new
 482              		.thumb
 483              		.thumb_func
 484              		.type	raw_new, %function
 485              	raw_new:
 486              	.LFB14:
 487              		.loc 1 336 0
 488              		.cfi_startproc
 489              		@ args = 0, pretend = 0, frame = 0
 490              		@ frame_needed = 0, uses_anonymous_args = 0
 491              	.LVL50:
 492 0000 38B5     		push	{r3, r4, r5, lr}
 493              	.LCFI3:
 494              		.cfi_def_cfa_offset 16
 495              		.cfi_offset 14, -4
 496              		.cfi_offset 5, -8
 497              		.cfi_offset 4, -12
 498              		.cfi_offset 3, -16
 499              		.loc 1 336 0
 500 0002 0546     		mov	r5, r0
 501              		.loc 1 341 0
 502 0004 0020     		movs	r0, #0
 503              	.LVL51:
 504 0006 FFF7FEFF 		bl	memp_malloc
 505              	.LVL52:
ARM GAS  /var/folders/5n/p_75w94d66l9ssrldxqdhh700000gn/T//ccb1V42B.s 			page 10


 506              		.loc 1 343 0
 507 000a 0446     		mov	r4, r0
 508 000c 50B1     		cbz	r0, .L45
 509              		.loc 1 345 0
 510 000e 1C22     		movs	r2, #28
 511 0010 0021     		movs	r1, #0
 512 0012 FFF7FEFF 		bl	memset
 513              	.LVL53:
 514              		.loc 1 348 0
 515 0016 044B     		ldr	r3, .L46
 516              		.loc 1 346 0
 517 0018 2574     		strb	r5, [r4, #16]
 518              		.loc 1 348 0
 519 001a 1A68     		ldr	r2, [r3, #0]
 520              		.loc 1 349 0
 521 001c 1C60     		str	r4, [r3, #0]
 522              		.loc 1 347 0
 523 001e FF23     		movs	r3, #255
 524 0020 A372     		strb	r3, [r4, #10]
 525              		.loc 1 348 0
 526 0022 E260     		str	r2, [r4, #12]
 527              	.L45:
 528              		.loc 1 352 0
 529 0024 2046     		mov	r0, r4
 530 0026 38BD     		pop	{r3, r4, r5, pc}
 531              	.L47:
 532              		.align	2
 533              	.L46:
 534 0028 00000000 		.word	.LANCHOR0
 535              		.cfi_endproc
 536              	.LFE14:
 537              		.size	raw_new, .-raw_new
 538 002c AFF30080 		.section	.bss.raw_pcbs,"aw",%nobits
 539              		.align	2
 540              		.set	.LANCHOR0,. + 0
 541              		.type	raw_pcbs, %object
 542              		.size	raw_pcbs, 4
 543              	raw_pcbs:
 544 0000 00000000 		.space	4
 545              		.text
 546              	.Letext0:
 547              		.file 2 "/usr/local/summon/lib/gcc/arm-none-eabi/4.6.2/../../../../arm-none-eabi/include/stdint.h"
 548              		.file 3 "../../os/various/lwip_bindings/arch/cc.h"
 549              		.file 4 "../../ext/lwip/src/include/ipv4/lwip/ip_addr.h"
 550              		.file 5 "../../ext/lwip/src/include/lwip/err.h"
 551              		.file 6 "../../ext/lwip/src/include/lwip/memp.h"
 552              		.file 7 "../../ext/lwip/src/include/lwip/pbuf.h"
 553              		.file 8 "../../ext/lwip/src/include/lwip/netif.h"
 554              		.file 9 "../../ext/lwip/src/include/ipv4/lwip/ip.h"
 555              		.file 10 "../../ext/lwip/src/include/lwip/raw.h"