ARM GAS  /var/folders/5n/p_75w94d66l9ssrldxqdhh700000gn/T//ccb1V42B.s 			page 1


   1              		.syntax unified
   2              		.cpu cortex-m4
   3              		.fpu softvfp
   4              		.eabi_attribute 20, 1
   5              		.eabi_attribute 21, 1
   6              		.eabi_attribute 23, 3
   7              		.eabi_attribute 24, 1
   8              		.eabi_attribute 25, 1
   9              		.eabi_attribute 26, 1
  10              		.eabi_attribute 30, 2
  11              		.eabi_attribute 18, 4
  12              		.thumb
  13              		.file	"raw.c"
  14              		.text
  15              	.Ltext0:
  16              		.cfi_sections	.debug_frame
  17              		.section	.text.raw_input,"ax",%progbits
  18              		.align	2
  19              		.p2align 4,,15
  20              		.global	raw_input
  21              		.thumb
  22              		.thumb_func
  23              		.type	raw_input, %function
  24              	raw_input:
  25              	.LFB7:
  26              		.file 1 "../../ext/lwip/src/core/raw.c"
  27              		.loc 1 77 0
  28              		.cfi_startproc
  29              		@ args = 0, pretend = 0, frame = 0
  30              		@ frame_needed = 0, uses_anonymous_args = 0
  31              	.LVL0:
  32 0000 2DE9F047 		push	{r4, r5, r6, r7, r8, r9, sl, lr}
  33              	.LCFI0:
  34              		.cfi_def_cfa_offset 32
  35              		.cfi_offset 14, -4
  36              		.cfi_offset 10, -8
  37              		.cfi_offset 9, -12
  38              		.cfi_offset 8, -16
  39              		.cfi_offset 7, -20
  40              		.cfi_offset 6, -24
  41              		.cfi_offset 5, -28
  42              		.cfi_offset 4, -32
  43              		.loc 1 89 0
  44 0004 DFF870A0 		ldr	sl, .L11+4
  45              		.loc 1 86 0
  46 0008 4368     		ldr	r3, [r0, #4]
  47              		.loc 1 89 0
  48 000a DAF80040 		ldr	r4, [sl, #0]
  49              		.loc 1 86 0
  50 000e 5E7A     		ldrb	r6, [r3, #9]	@ zero_extendqisi2
  51              		.loc 1 77 0
  52 0010 8046     		mov	r8, r0
  53              	.LVL1:
  54              		.loc 1 92 0
  55 0012 002C     		cmp	r4, #0
  56 0014 2BD0     		beq	.L6
  57 0016 36B2     		sxth	r6, r6
ARM GAS  /var/folders/5n/p_75w94d66l9ssrldxqdhh700000gn/T//ccb1V42B.s 			page 2


  58              	.LVL2:
  59              		.loc 1 88 0
  60 0018 0025     		movs	r5, #0
  61              		.loc 1 95 0
  62 001a DFF86090 		ldr	r9, .L11+8
  63 001e 03E0     		b	.L5
  64              	.LVL3:
  65              	.L3:
  66              		.loc 1 122 0
  67 0020 E068     		ldr	r0, [r4, #12]
  68              	.LVL4:
  69              		.loc 1 92 0
  70 0022 F8B1     		cbz	r0, .L10
  71 0024 2546     		mov	r5, r4
  72              		.loc 1 122 0
  73 0026 0446     		mov	r4, r0
  74              	.LVL5:
  75              	.L5:
  76              		.loc 1 93 0
  77 0028 237C     		ldrb	r3, [r4, #16]	@ zero_extendqisi2
  78 002a 9E42     		cmp	r6, r3
  79 002c F8D1     		bne	.L3
  80              		.loc 1 94 0 discriminator 1
  81 002e 2068     		ldr	r0, [r4, #0]
  82              		.loc 1 104 0 discriminator 1
  83 0030 104B     		ldr	r3, .L11
  84 0032 2146     		mov	r1, r4
  85 0034 4246     		mov	r2, r8
  86              		.loc 1 94 0 discriminator 1
  87 0036 18B1     		cbz	r0, .L4
  88 0038 D9F80070 		ldr	r7, [r9, #0]
  89 003c B842     		cmp	r0, r7
  90 003e EFD1     		bne	.L3
  91              	.L4:
  92              		.loc 1 102 0
  93 0040 6769     		ldr	r7, [r4, #20]
  94 0042 002F     		cmp	r7, #0
  95 0044 ECD0     		beq	.L3
  96              		.loc 1 104 0
  97 0046 A069     		ldr	r0, [r4, #24]
  98 0048 B847     		blx	r7
  99 004a 0028     		cmp	r0, #0
 100 004c E8D0     		beq	.L3
 101              	.LVL6:
 102              		.loc 1 108 0
 103 004e 5DB1     		cbz	r5, .L7
 104              		.loc 1 111 0
 105 0050 E268     		ldr	r2, [r4, #12]
 106              		.loc 1 112 0
 107 0052 DAF80030 		ldr	r3, [sl, #0]
 108              		.loc 1 111 0
 109 0056 EA60     		str	r2, [r5, #12]
 110              		.loc 1 113 0
 111 0058 CAF80040 		str	r4, [sl, #0]
 112              		.loc 1 112 0
 113 005c E360     		str	r3, [r4, #12]
 114              		.loc 1 113 0
ARM GAS  /var/folders/5n/p_75w94d66l9ssrldxqdhh700000gn/T//ccb1V42B.s 			page 3


 115 005e 0120     		movs	r0, #1
 116 0060 BDE8F087 		pop	{r4, r5, r6, r7, r8, r9, sl, pc}
 117              	.LVL7:
 118              	.L10:
 119 0064 BDE8F087 		pop	{r4, r5, r6, r7, r8, r9, sl, pc}
 120              	.LVL8:
 121              	.L7:
 122              		.loc 1 108 0
 123 0068 0120     		movs	r0, #1
 124              		.loc 1 125 0
 125 006a BDE8F087 		pop	{r4, r5, r6, r7, r8, r9, sl, pc}
 126              	.LVL9:
 127              	.L6:
 128              		.loc 1 81 0
 129 006e 2046     		mov	r0, r4
 130 0070 BDE8F087 		pop	{r4, r5, r6, r7, r8, r9, sl, pc}
 131              	.L12:
 132              		.align	2
 133              	.L11:
 134 0074 00000000 		.word	current_iphdr_src
 135 0078 00000000 		.word	.LANCHOR0
 136 007c 00000000 		.word	current_iphdr_dest
 137              		.cfi_endproc
 138              	.LFE7:
 139              		.size	raw_input, .-raw_input
 140              		.section	.text.raw_bind,"ax",%progbits
 141              		.align	2
 142              		.p2align 4,,15
 143              		.global	raw_bind
 144              		.thumb
 145              		.thumb_func
 146              		.type	raw_bind, %function
 147              	raw_bind:
 148              	.LFB8:
 149              		.loc 1 143 0
 150              		.cfi_startproc
 151              		@ args = 0, pretend = 0, frame = 0
 152              		@ frame_needed = 0, uses_anonymous_args = 0
 153              		@ link register save eliminated.
 154              	.LVL10:
 155              		.loc 1 144 0
 156 0000 01B1     		cbz	r1, .L14
 157              		.loc 1 144 0 is_stmt 0 discriminator 1
 158 0002 0968     		ldr	r1, [r1, #0]
 159              	.LVL11:
 160              	.L14:
 161              		.loc 1 144 0 discriminator 3
 162 0004 0160     		str	r1, [r0, #0]
 163              		.loc 1 146 0 is_stmt 1 discriminator 3
 164 0006 0020     		movs	r0, #0
 165              	.LVL12:
 166 0008 7047     		bx	lr
 167              		.cfi_endproc
 168              	.LFE8:
 169              		.size	raw_bind, .-raw_bind
 170 000a 00BFAFF3 		.section	.text.raw_connect,"ax",%progbits
 170      0080
ARM GAS  /var/folders/5n/p_75w94d66l9ssrldxqdhh700000gn/T//ccb1V42B.s 			page 4


 171              		.align	2
 172              		.p2align 4,,15
 173              		.global	raw_connect
 174              		.thumb
 175              		.thumb_func
 176              		.type	raw_connect, %function
 177              	raw_connect:
 178              	.LFB9:
 179              		.loc 1 163 0
 180              		.cfi_startproc
 181              		@ args = 0, pretend = 0, frame = 0
 182              		@ frame_needed = 0, uses_anonymous_args = 0
 183              		@ link register save eliminated.
 184              	.LVL13:
 185              		.loc 1 164 0
 186 0000 01B1     		cbz	r1, .L17
 187              		.loc 1 164 0 is_stmt 0 discriminator 1
 188 0002 0968     		ldr	r1, [r1, #0]
 189              	.LVL14:
 190              	.L17:
 191              		.loc 1 164 0 discriminator 3
 192 0004 4160     		str	r1, [r0, #4]
 193              		.loc 1 166 0 is_stmt 1 discriminator 3
 194 0006 0020     		movs	r0, #0
 195              	.LVL15:
 196 0008 7047     		bx	lr
 197              		.cfi_endproc
 198              	.LFE9:
 199              		.size	raw_connect, .-raw_connect
 200 000a 00BFAFF3 		.section	.text.raw_recv,"ax",%progbits
 200      0080
 201              		.align	2
 202              		.p2align 4,,15
 203              		.global	raw_recv
 204              		.thumb
 205              		.thumb_func
 206              		.type	raw_recv, %function
 207              	raw_recv:
 208              	.LFB10:
 209              		.loc 1 184 0
 210              		.cfi_startproc
 211              		@ args = 0, pretend = 0, frame = 0
 212              		@ frame_needed = 0, uses_anonymous_args = 0
 213              		@ link register save eliminated.
 214              	.LVL16:
 215              		.loc 1 186 0
 216 0000 4161     		str	r1, [r0, #20]
 217              		.loc 1 187 0
 218 0002 8261     		str	r2, [r0, #24]
 219              		.loc 1 188 0
 220 0004 7047     		bx	lr
 221              		.cfi_endproc
 222              	.LFE10:
 223              		.size	raw_recv, .-raw_recv
 224 0006 00BFAFF3 		.section	.text.raw_sendto,"ax",%progbits
 224      0080AFF3 
 224      0080
ARM GAS  /var/folders/5n/p_75w94d66l9ssrldxqdhh700000gn/T//ccb1V42B.s 			page 5


 225              		.align	2
 226              		.p2align 4,,15
 227              		.global	raw_sendto
 228              		.thumb
 229              		.thumb_func
 230              		.type	raw_sendto, %function
 231              	raw_sendto:
 232              	.LFB11:
 233              		.loc 1 204 0
 234              		.cfi_startproc
 235              		@ args = 0, pretend = 0, frame = 0
 236              		@ frame_needed = 0, uses_anonymous_args = 0
 237              	.LVL17:
 238 0000 2DE9F041 		push	{r4, r5, r6, r7, r8, lr}
 239              	.LCFI1:
 240              		.cfi_def_cfa_offset 24
 241              		.cfi_offset 14, -4
 242              		.cfi_offset 8, -8
 243              		.cfi_offset 7, -12
 244              		.cfi_offset 6, -16
 245              		.cfi_offset 5, -20
 246              		.cfi_offset 4, -24
 247 0004 0C46     		mov	r4, r1
 248 0006 0746     		mov	r7, r0
 249 0008 84B0     		sub	sp, sp, #16
 250              	.LCFI2:
 251              		.cfi_def_cfa_offset 40
 252              		.loc 1 213 0
 253 000a 1421     		movs	r1, #20
 254              	.LVL18:
 255 000c 2046     		mov	r0, r4
 256              	.LVL19:
 257              		.loc 1 204 0
 258 000e 9046     		mov	r8, r2
 259              		.loc 1 213 0
 260 0010 FFF7FEFF 		bl	pbuf_header
 261              	.LVL20:
 262 0014 0028     		cmp	r0, #0
 263 0016 2AD0     		beq	.L21
 264              		.loc 1 215 0
 265 0018 0021     		movs	r1, #0
 266 001a 0120     		movs	r0, #1
 267 001c 0A46     		mov	r2, r1
 268 001e FFF7FEFF 		bl	pbuf_alloc
 269              	.LVL21:
 270              		.loc 1 219 0
 271 0022 FF26     		movs	r6, #255
 272              		.loc 1 217 0
 273 0024 0546     		mov	r5, r0
 274 0026 F0B1     		cbz	r0, .L22
 275              		.loc 1 221 0
 276 0028 2389     		ldrh	r3, [r4, #8]
 277 002a 002B     		cmp	r3, #0
 278 002c 36D1     		bne	.L30
 279              	.LVL22:
 280              	.L23:
 281              		.loc 1 236 0
ARM GAS  /var/folders/5n/p_75w94d66l9ssrldxqdhh700000gn/T//ccb1V42B.s 			page 6


 282 002e 4046     		mov	r0, r8
 283 0030 FFF7FEFF 		bl	ip_route
 284              	.LVL23:
 285 0034 0646     		mov	r6, r0
 286 0036 0028     		cmp	r0, #0
 287 0038 26D0     		beq	.L31
 288              	.L24:
 289              		.loc 1 258 0
 290 003a 3946     		mov	r1, r7
 291 003c 002F     		cmp	r7, #0
 292 003e 2BD0     		beq	.L25
 293              		.loc 1 258 0 is_stmt 0 discriminator 1
 294 0040 3B68     		ldr	r3, [r7, #0]
 295 0042 002B     		cmp	r3, #0
 296 0044 28D0     		beq	.L25
 297              	.L26:
 298              	.LVL24:
 299              		.loc 1 269 0 is_stmt 1
 300 0046 7A7A     		ldrb	r2, [r7, #9]	@ zero_extendqisi2
 301 0048 BB7A     		ldrb	r3, [r7, #10]	@ zero_extendqisi2
 302 004a 3F7C     		ldrb	r7, [r7, #16]	@ zero_extendqisi2
 303              	.LVL25:
 304 004c 0092     		str	r2, [sp, #0]
 305 004e 2846     		mov	r0, r5
 306              	.LVL26:
 307 0050 4246     		mov	r2, r8
 308 0052 0296     		str	r6, [sp, #8]
 309 0054 0197     		str	r7, [sp, #4]
 310 0056 FFF7FEFF 		bl	ip_output_if
 311              	.LVL27:
 312              		.loc 1 275 0
 313 005a A542     		cmp	r5, r4
 314              		.loc 1 269 0
 315 005c 0646     		mov	r6, r0
 316              	.LVL28:
 317              		.loc 1 275 0
 318 005e 02D0     		beq	.L22
 319              		.loc 1 277 0
 320 0060 2846     		mov	r0, r5
 321              	.LVL29:
 322 0062 FFF7FEFF 		bl	pbuf_free
 323              	.LVL30:
 324              	.L22:
 325              		.loc 1 280 0
 326 0066 70B2     		sxtb	r0, r6
 327 0068 04B0     		add	sp, sp, #16
 328 006a BDE8F081 		pop	{r4, r5, r6, r7, r8, pc}
 329              	.LVL31:
 330              	.L21:
 331              		.loc 1 230 0
 332 006e 2046     		mov	r0, r4
 333 0070 6FF01301 		mvn	r1, #19
 334 0074 FFF7FEFF 		bl	pbuf_header
 335 0078 A0B9     		cbnz	r0, .L32
 336              		.loc 1 236 0
 337 007a 4046     		mov	r0, r8
 338 007c FFF7FEFF 		bl	ip_route
ARM GAS  /var/folders/5n/p_75w94d66l9ssrldxqdhh700000gn/T//ccb1V42B.s 			page 7


 339              		.loc 1 230 0
 340 0080 2546     		mov	r5, r4
 341              	.LVL32:
 342              		.loc 1 236 0
 343 0082 0646     		mov	r6, r0
 344 0084 0028     		cmp	r0, #0
 345 0086 D8D1     		bne	.L24
 346              	.LVL33:
 347              	.L31:
 348              		.loc 1 243 0
 349 0088 FC26     		movs	r6, #252
 350              		.loc 1 240 0
 351 008a A542     		cmp	r5, r4
 352 008c EBD0     		beq	.L22
 353              		.loc 1 241 0
 354 008e 2846     		mov	r0, r5
 355              	.LVL34:
 356 0090 FFF7FEFF 		bl	pbuf_free
 357              		.loc 1 243 0
 358 0094 FC26     		movs	r6, #252
 359 0096 E6E7     		b	.L22
 360              	.LVL35:
 361              	.L25:
 362              		.loc 1 260 0
 363 0098 311D     		adds	r1, r6, #4
 364              	.LVL36:
 365 009a D4E7     		b	.L26
 366              	.LVL37:
 367              	.L30:
 368              		.loc 1 223 0
 369 009c 2146     		mov	r1, r4
 370 009e FFF7FEFF 		bl	pbuf_chain
 371              	.LVL38:
 372 00a2 C4E7     		b	.L23
 373              	.LVL39:
 374              	.L32:
 375              		.loc 1 231 0 discriminator 1
 376 00a4 FFF7FEFF 		bl	port_halt
 377              		.loc 1 232 0 discriminator 1
 378 00a8 FF26     		movs	r6, #255
 379 00aa DCE7     		b	.L22
 380              		.cfi_endproc
 381              	.LFE11:
 382              		.size	raw_sendto, .-raw_sendto
 383 00ac AFF30080 		.section	.text.raw_send,"ax",%progbits
 384              		.align	2
 385              		.p2align 4,,15
 386              		.global	raw_send
 387              		.thumb
 388              		.thumb_func
 389              		.type	raw_send, %function
 390              	raw_send:
 391              	.LFB12:
 392              		.loc 1 291 0
 393              		.cfi_startproc
 394              		@ args = 0, pretend = 0, frame = 0
 395              		@ frame_needed = 0, uses_anonymous_args = 0
ARM GAS  /var/folders/5n/p_75w94d66l9ssrldxqdhh700000gn/T//ccb1V42B.s 			page 8


 396              		@ link register save eliminated.
 397              	.LVL40:
 398              		.loc 1 292 0
 399 0000 021D     		adds	r2, r0, #4
 400              		.loc 1 293 0
 401              		.loc 1 292 0
 402 0002 FFF7FEBF 		b	raw_sendto
 403              	.LVL41:
 404              	.LVL42:
 405              		.cfi_endproc
 406              	.LFE12:
 407              		.size	raw_send, .-raw_send
 408 0006 00BFAFF3 		.section	.text.raw_remove,"ax",%progbits
 408      0080AFF3 
 408      0080
 409              		.align	2
 410              		.p2align 4,,15
 411              		.global	raw_remove
 412              		.thumb
 413              		.thumb_func
 414              		.type	raw_remove, %function
 415              	raw_remove:
 416              	.LFB13:
 417              		.loc 1 305 0
 418              		.cfi_startproc
 419              		@ args = 0, pretend = 0, frame = 0
 420              		@ frame_needed = 0, uses_anonymous_args = 0
 421              		@ link register save eliminated.
 422              	.LVL43:
 423              		.loc 1 308 0
 424 0000 0B4A     		ldr	r2, .L42
 425 0002 1368     		ldr	r3, [r2, #0]
 426 0004 8342     		cmp	r3, r0
 427              		.loc 1 305 0
 428 0006 0146     		mov	r1, r0
 429              		.loc 1 308 0
 430 0008 0FD0     		beq	.L35
 431              	.LVL44:
 432              		.loc 1 313 0 discriminator 1
 433 000a 1BB9     		cbnz	r3, .L39
 434 000c 05E0     		b	.L36
 435              	.LVL45:
 436              	.L41:
 437              		.loc 1 315 0 discriminator 1
 438 000e 9142     		cmp	r1, r2
 439 0010 06D0     		beq	.L40
 440              	.L38:
 441              		.loc 1 305 0
 442 0012 1346     		mov	r3, r2
 443              	.L39:
 444              		.loc 1 315 0
 445 0014 DA68     		ldr	r2, [r3, #12]
 446 0016 002A     		cmp	r2, #0
 447 0018 F9D1     		bne	.L41
 448              	.L36:
 449              		.loc 1 321 0
 450 001a 0020     		movs	r0, #0
ARM GAS  /var/folders/5n/p_75w94d66l9ssrldxqdhh700000gn/T//ccb1V42B.s 			page 9


 451              	.LVL46:
 452              		.loc 1 322 0
 453              		.loc 1 321 0
 454 001c FFF7FEBF 		b	memp_free
 455              	.LVL47:
 456              	.L40:
 457              		.loc 1 317 0
 458 0020 CA68     		ldr	r2, [r1, #12]
 459 0022 DA60     		str	r2, [r3, #12]
 460              	.LVL48:
 461              		.loc 1 313 0
 462 0024 002A     		cmp	r2, #0
 463 0026 F4D1     		bne	.L38
 464 0028 F7E7     		b	.L36
 465              	.LVL49:
 466              	.L35:
 467              		.loc 1 310 0
 468 002a C368     		ldr	r3, [r0, #12]
 469 002c 1360     		str	r3, [r2, #0]
 470 002e F4E7     		b	.L36
 471              	.L43:
 472              		.align	2
 473              	.L42:
 474 0030 00000000 		.word	.LANCHOR0
 475              		.cfi_endproc
 476              	.LFE13:
 477              		.size	raw_remove, .-raw_remove
 478 0034 AFF30080 		.section	.text.raw_new,"ax",%progbits
 478      AFF30080 
 478      AFF30080 
 479              		.align	2
 480              		.p2align 4,,15
 481              		.global	raw_new
 482              		.thumb
 483              		.thumb_func
 484              		.type	raw_new, %function
 485              	raw_new:
 486              	.LFB14:
 487              		.loc 1 336 0
 488              		.cfi_startproc
 489              		@ args = 0, pretend = 0, frame = 0
 490              		@ frame_needed = 0, uses_anonymous_args = 0
 491              	.LVL50:
 492 0000 38B5     		push	{r3, r4, r5, lr}
 493              	.LCFI3:
 494              		.cfi_def_cfa_offset 16
 495              		.cfi_offset 14, -4
 496              		.cfi_offset 5, -8
 497              		.cfi_offset 4, -12
 498              		.cfi_offset 3, -16
 499              		.loc 1 336 0
 500 0002 0546     		mov	r5, r0
 501              		.loc 1 341 0
 502 0004 0020     		movs	r0, #0
 503              	.LVL51:
 504 0006 FFF7FEFF 		bl	memp_malloc
 505              	.LVL52:
ARM GAS  /var/folders/5n/p_75w94d66l9ssrldxqdhh700000gn/T//ccb1V42B.s 			page 10


 506              		.loc 1 343 0
 507 000a 0446     		mov	r4, r0
 508 000c 50B1     		cbz	r0, .L45
 509              		.loc 1 345 0
 510 000e 1C22     		movs	r2, #28
 511 0010 0021     		movs	r1, #0
 512 0012 FFF7FEFF 		bl	memset
 513              	.LVL53:
 514              		.loc 1 348 0
 515 0016 044B     		ldr	r3, .L46
 516              		.loc 1 346 0
 517 0018 2574     		strb	r5, [r4, #16]
 518              		.loc 1 348 0
 519 001a 1A68     		ldr	r2, [r3, #0]
 520              		.loc 1 349 0
 521 001c 1C60     		str	r4, [r3, #0]
 522              		.loc 1 347 0
 523 001e FF23     		movs	r3, #255
 524 0020 A372     		strb	r3, [r4, #10]
 525              		.loc 1 348 0
 526 0022 E260     		str	r2, [r4, #12]
 527              	.L45:
 528              		.loc 1 352 0
 529 0024 2046     		mov	r0, r4
 530 0026 38BD     		pop	{r3, r4, r5, pc}
 531              	.L47:
 532              		.align	2
 533              	.L46:
 534 0028 00000000 		.word	.LANCHOR0
 535              		.cfi_endproc
 536              	.LFE14:
 537              		.size	raw_new, .-raw_new
 538 002c AFF30080 		.section	.bss.raw_pcbs,"aw",%nobits
 539              		.align	2
 540              		.set	.LANCHOR0,. + 0
 541              		.type	raw_pcbs, %object
 542              		.size	raw_pcbs, 4
 543              	raw_pcbs:
 544 0000 00000000 		.space	4
 545              		.text
 546              	.Letext0:
 547              		.file 2 "/usr/local/summon/lib/gcc/arm-none-eabi/4.6.2/../../../../arm-none-eabi/include/stdint.h"
 548              		.file 3 "../../os/various/lwip_bindings/arch/cc.h"
 549              		.file 4 "../../ext/lwip/src/include/ipv4/lwip/ip_addr.h"
 550              		.file 5 "../../ext/lwip/src/include/lwip/err.h"
 551              		.file 6 "../../ext/lwip/src/include/lwip/memp.h"
 552              		.file 7 "../../ext/lwip/src/include/lwip/pbuf.h"
 553              		.file 8 "../../ext/lwip/src/include/lwip/netif.h"
 554              		.file 9 "../../ext/lwip/src/include/ipv4/lwip/ip.h"
 555              		.file 10 "../../ext/lwip/src/include/lwip/raw.h"
 556              		.section	.debug_info,"",%progbits
 557              	.Ldebug_info0:
 558 0000 D1070000 		.4byte	0x7d1
 559 0004 0200     		.2byte	0x2
 560 0006 00000000 		.4byte	.Ldebug_abbrev0
 561 000a 04       		.byte	0x4
 562 000b 01       		.uleb128 0x1
ARM GAS  /var/folders/5n/p_75w94d66l9ssrldxqdhh700000gn/T//ccb1V42B.s 			page 11


 563 000c 9F030000 		.4byte	.LASF101
 564 0010 01       		.byte	0x1
 565 0011 71000000 		.4byte	.LASF102
 566 0015 F7000000 		.4byte	.LASF103
 567 0019 00000000 		.4byte	0
 568 001d 00000000 		.4byte	0
 569 0021 00000000 		.4byte	.Ldebug_ranges0+0
 570 0025 00000000 		.4byte	.Ldebug_line0
 571 0029 02       		.uleb128 0x2
 572 002a 04       		.byte	0x4
 573 002b 05       		.byte	0x5
 574 002c 696E7400 		.ascii	"int\000"
 575 0030 03       		.uleb128 0x3
 576 0031 04       		.byte	0x4
 577 0032 07       		.byte	0x7
 578 0033 91020000 		.4byte	.LASF0
 579 0037 04       		.uleb128 0x4
 580 0038 18000000 		.4byte	.LASF2
 581 003c 02       		.byte	0x2
 582 003d 29       		.byte	0x29
 583 003e 42000000 		.4byte	0x42
 584 0042 03       		.uleb128 0x3
 585 0043 01       		.byte	0x1
 586 0044 06       		.byte	0x6
 587 0045 89010000 		.4byte	.LASF1
 588 0049 04       		.uleb128 0x4
 589 004a D5030000 		.4byte	.LASF3
 590 004e 02       		.byte	0x2
 591 004f 2A       		.byte	0x2a
 592 0050 54000000 		.4byte	0x54
 593 0054 03       		.uleb128 0x3
 594 0055 01       		.byte	0x1
 595 0056 08       		.byte	0x8
 596 0057 20020000 		.4byte	.LASF4
 597 005b 04       		.uleb128 0x4
 598 005c 2E030000 		.4byte	.LASF5
 599 0060 02       		.byte	0x2
 600 0061 35       		.byte	0x35
 601 0062 66000000 		.4byte	0x66
 602 0066 03       		.uleb128 0x3
 603 0067 02       		.byte	0x2
 604 0068 05       		.byte	0x5
 605 0069 3C000000 		.4byte	.LASF6
 606 006d 04       		.uleb128 0x4
 607 006e 9E020000 		.4byte	.LASF7
 608 0072 02       		.byte	0x2
 609 0073 36       		.byte	0x36
 610 0074 78000000 		.4byte	0x78
 611 0078 03       		.uleb128 0x3
 612 0079 02       		.byte	0x2
 613 007a 07       		.byte	0x7
 614 007b 10030000 		.4byte	.LASF8
 615 007f 03       		.uleb128 0x3
 616 0080 04       		.byte	0x4
 617 0081 05       		.byte	0x5
 618 0082 EA010000 		.4byte	.LASF9
 619 0086 04       		.uleb128 0x4
ARM GAS  /var/folders/5n/p_75w94d66l9ssrldxqdhh700000gn/T//ccb1V42B.s 			page 12


 620 0087 88020000 		.4byte	.LASF10
 621 008b 02       		.byte	0x2
 622 008c 50       		.byte	0x50
 623 008d 91000000 		.4byte	0x91
 624 0091 03       		.uleb128 0x3
 625 0092 04       		.byte	0x4
 626 0093 07       		.byte	0x7
 627 0094 60030000 		.4byte	.LASF11
 628 0098 03       		.uleb128 0x3
 629 0099 08       		.byte	0x8
 630 009a 05       		.byte	0x5
 631 009b C1010000 		.4byte	.LASF12
 632 009f 03       		.uleb128 0x3
 633 00a0 08       		.byte	0x8
 634 00a1 07       		.byte	0x7
 635 00a2 71020000 		.4byte	.LASF13
 636 00a6 05       		.uleb128 0x5
 637 00a7 04       		.byte	0x4
 638 00a8 03       		.uleb128 0x3
 639 00a9 01       		.byte	0x1
 640 00aa 08       		.byte	0x8
 641 00ab E3020000 		.4byte	.LASF14
 642 00af 04       		.uleb128 0x4
 643 00b0 05000000 		.4byte	.LASF15
 644 00b4 03       		.byte	0x3
 645 00b5 3C       		.byte	0x3c
 646 00b6 49000000 		.4byte	0x49
 647 00ba 04       		.uleb128 0x4
 648 00bb AD010000 		.4byte	.LASF16
 649 00bf 03       		.byte	0x3
 650 00c0 3D       		.byte	0x3d
 651 00c1 37000000 		.4byte	0x37
 652 00c5 04       		.uleb128 0x4
 653 00c6 DD030000 		.4byte	.LASF17
 654 00ca 03       		.byte	0x3
 655 00cb 3E       		.byte	0x3e
 656 00cc 6D000000 		.4byte	0x6d
 657 00d0 04       		.uleb128 0x4
 658 00d1 9B000000 		.4byte	.LASF18
 659 00d5 03       		.byte	0x3
 660 00d6 3F       		.byte	0x3f
 661 00d7 5B000000 		.4byte	0x5b
 662 00db 04       		.uleb128 0x4
 663 00dc CF030000 		.4byte	.LASF19
 664 00e0 03       		.byte	0x3
 665 00e1 40       		.byte	0x40
 666 00e2 86000000 		.4byte	0x86
 667 00e6 06       		.uleb128 0x6
 668 00e7 01       		.byte	0x1
 669 00e8 06       		.byte	0x6
 670 00e9 2B       		.byte	0x2b
 671 00ea 49010000 		.4byte	0x149
 672 00ee 07       		.uleb128 0x7
 673 00ef 92030000 		.4byte	.LASF20
 674 00f3 00       		.sleb128 0
 675 00f4 07       		.uleb128 0x7
 676 00f5 95010000 		.4byte	.LASF21
ARM GAS  /var/folders/5n/p_75w94d66l9ssrldxqdhh700000gn/T//ccb1V42B.s 			page 13


 677 00f9 01       		.sleb128 1
 678 00fa 07       		.uleb128 0x7
 679 00fb 39040000 		.4byte	.LASF22
 680 00ff 02       		.sleb128 2
 681 0100 07       		.uleb128 0x7
 682 0101 55010000 		.4byte	.LASF23
 683 0105 03       		.sleb128 3
 684 0106 07       		.uleb128 0x7
 685 0107 F2030000 		.4byte	.LASF24
 686 010b 04       		.sleb128 4
 687 010c 07       		.uleb128 0x7
 688 010d CE020000 		.4byte	.LASF25
 689 0111 05       		.sleb128 5
 690 0112 07       		.uleb128 0x7
 691 0113 D6000000 		.4byte	.LASF26
 692 0117 06       		.sleb128 6
 693 0118 07       		.uleb128 0x7
 694 0119 46000000 		.4byte	.LASF27
 695 011d 07       		.sleb128 7
 696 011e 07       		.uleb128 0x7
 697 011f 5E020000 		.4byte	.LASF28
 698 0123 08       		.sleb128 8
 699 0124 07       		.uleb128 0x7
 700 0125 F4020000 		.4byte	.LASF29
 701 0129 09       		.sleb128 9
 702 012a 07       		.uleb128 0x7
 703 012b 12040000 		.4byte	.LASF30
 704 012f 0A       		.sleb128 10
 705 0130 07       		.uleb128 0x7
 706 0131 C5000000 		.4byte	.LASF31
 707 0135 0B       		.sleb128 11
 708 0136 07       		.uleb128 0x7
 709 0137 36030000 		.4byte	.LASF32
 710 013b 0C       		.sleb128 12
 711 013c 07       		.uleb128 0x7
 712 013d E3030000 		.4byte	.LASF33
 713 0141 0D       		.sleb128 13
 714 0142 07       		.uleb128 0x7
 715 0143 4B020000 		.4byte	.LASF34
 716 0147 0E       		.sleb128 14
 717 0148 00       		.byte	0
 718 0149 08       		.uleb128 0x8
 719 014a 4D010000 		.4byte	.LASF35
 720 014e 04       		.byte	0x4
 721 014f 04       		.byte	0x4
 722 0150 2C       		.byte	0x2c
 723 0151 64010000 		.4byte	0x164
 724 0155 09       		.uleb128 0x9
 725 0156 00000000 		.4byte	.LASF37
 726 015a 04       		.byte	0x4
 727 015b 2D       		.byte	0x2d
 728 015c DB000000 		.4byte	0xdb
 729 0160 02       		.byte	0x2
 730 0161 23       		.byte	0x23
 731 0162 00       		.uleb128 0
 732 0163 00       		.byte	0
 733 0164 08       		.uleb128 0x8
ARM GAS  /var/folders/5n/p_75w94d66l9ssrldxqdhh700000gn/T//ccb1V42B.s 			page 14


 734 0165 4E040000 		.4byte	.LASF36
 735 0169 04       		.byte	0x4
 736 016a 04       		.byte	0x4
 737 016b 36       		.byte	0x36
 738 016c 7F010000 		.4byte	0x17f
 739 0170 09       		.uleb128 0x9
 740 0171 00000000 		.4byte	.LASF37
 741 0175 04       		.byte	0x4
 742 0176 37       		.byte	0x37
 743 0177 DB000000 		.4byte	0xdb
 744 017b 02       		.byte	0x2
 745 017c 23       		.byte	0x23
 746 017d 00       		.uleb128 0
 747 017e 00       		.byte	0
 748 017f 04       		.uleb128 0x4
 749 0180 F3010000 		.4byte	.LASF38
 750 0184 04       		.byte	0x4
 751 0185 40       		.byte	0x40
 752 0186 49010000 		.4byte	0x149
 753 018a 04       		.uleb128 0x4
 754 018b 86030000 		.4byte	.LASF39
 755 018f 04       		.byte	0x4
 756 0190 41       		.byte	0x41
 757 0191 64010000 		.4byte	0x164
 758 0195 04       		.uleb128 0x4
 759 0196 DD020000 		.4byte	.LASF40
 760 019a 05       		.byte	0x5
 761 019b 2F       		.byte	0x2f
 762 019c BA000000 		.4byte	0xba
 763 01a0 06       		.uleb128 0x6
 764 01a1 01       		.byte	0x1
 765 01a2 07       		.byte	0x7
 766 01a3 32       		.byte	0x32
 767 01a4 C1010000 		.4byte	0x1c1
 768 01a8 07       		.uleb128 0x7
 769 01a9 49030000 		.4byte	.LASF41
 770 01ad 00       		.sleb128 0
 771 01ae 07       		.uleb128 0x7
 772 01af 58030000 		.4byte	.LASF42
 773 01b3 01       		.sleb128 1
 774 01b4 07       		.uleb128 0x7
 775 01b5 7D040000 		.4byte	.LASF43
 776 01b9 02       		.sleb128 2
 777 01ba 07       		.uleb128 0x7
 778 01bb 6E010000 		.4byte	.LASF44
 779 01bf 03       		.sleb128 3
 780 01c0 00       		.byte	0
 781 01c1 06       		.uleb128 0x6
 782 01c2 01       		.byte	0x1
 783 01c3 07       		.byte	0x7
 784 01c4 39       		.byte	0x39
 785 01c5 E2010000 		.4byte	0x1e2
 786 01c9 07       		.uleb128 0x7
 787 01ca EE000000 		.4byte	.LASF45
 788 01ce 00       		.sleb128 0
 789 01cf 07       		.uleb128 0x7
 790 01d0 62040000 		.4byte	.LASF46
ARM GAS  /var/folders/5n/p_75w94d66l9ssrldxqdhh700000gn/T//ccb1V42B.s 			page 15


 791 01d4 01       		.sleb128 1
 792 01d5 07       		.uleb128 0x7
 793 01d6 AD020000 		.4byte	.LASF47
 794 01da 02       		.sleb128 2
 795 01db 07       		.uleb128 0x7
 796 01dc C4020000 		.4byte	.LASF48
 797 01e0 03       		.sleb128 3
 798 01e1 00       		.byte	0
 799 01e2 08       		.uleb128 0x8
 800 01e3 78040000 		.4byte	.LASF49
 801 01e7 10       		.byte	0x10
 802 01e8 07       		.byte	0x7
 803 01e9 49       		.byte	0x49
 804 01ea 51020000 		.4byte	0x251
 805 01ee 09       		.uleb128 0x9
 806 01ef 73040000 		.4byte	.LASF50
 807 01f3 07       		.byte	0x7
 808 01f4 4B       		.byte	0x4b
 809 01f5 51020000 		.4byte	0x251
 810 01f9 02       		.byte	0x2
 811 01fa 23       		.byte	0x23
 812 01fb 00       		.uleb128 0
 813 01fc 09       		.uleb128 0x9
 814 01fd 6B040000 		.4byte	.LASF51
 815 0201 07       		.byte	0x7
 816 0202 4E       		.byte	0x4e
 817 0203 A6000000 		.4byte	0xa6
 818 0207 02       		.byte	0x2
 819 0208 23       		.byte	0x23
 820 0209 04       		.uleb128 0x4
 821 020a 09       		.uleb128 0x9
 822 020b D9010000 		.4byte	.LASF52
 823 020f 07       		.byte	0x7
 824 0210 57       		.byte	0x57
 825 0211 C5000000 		.4byte	0xc5
 826 0215 02       		.byte	0x2
 827 0216 23       		.byte	0x23
 828 0217 08       		.uleb128 0x8
 829 0218 0A       		.uleb128 0xa
 830 0219 6C656E00 		.ascii	"len\000"
 831 021d 07       		.byte	0x7
 832 021e 5A       		.byte	0x5a
 833 021f C5000000 		.4byte	0xc5
 834 0223 02       		.byte	0x2
 835 0224 23       		.byte	0x23
 836 0225 0A       		.uleb128 0xa
 837 0226 09       		.uleb128 0x9
 838 0227 EF020000 		.4byte	.LASF53
 839 022b 07       		.byte	0x7
 840 022c 5D       		.byte	0x5d
 841 022d AF000000 		.4byte	0xaf
 842 0231 02       		.byte	0x2
 843 0232 23       		.byte	0x23
 844 0233 0C       		.uleb128 0xc
 845 0234 09       		.uleb128 0x9
 846 0235 6B020000 		.4byte	.LASF54
 847 0239 07       		.byte	0x7
ARM GAS  /var/folders/5n/p_75w94d66l9ssrldxqdhh700000gn/T//ccb1V42B.s 			page 16


 848 023a 60       		.byte	0x60
 849 023b AF000000 		.4byte	0xaf
 850 023f 02       		.byte	0x2
 851 0240 23       		.byte	0x23
 852 0241 0D       		.uleb128 0xd
 853 0242 0A       		.uleb128 0xa
 854 0243 72656600 		.ascii	"ref\000"
 855 0247 07       		.byte	0x7
 856 0248 67       		.byte	0x67
 857 0249 C5000000 		.4byte	0xc5
 858 024d 02       		.byte	0x2
 859 024e 23       		.byte	0x23
 860 024f 0E       		.uleb128 0xe
 861 0250 00       		.byte	0
 862 0251 0B       		.uleb128 0xb
 863 0252 04       		.byte	0x4
 864 0253 E2010000 		.4byte	0x1e2
 865 0257 0B       		.uleb128 0xb
 866 0258 04       		.byte	0x4
 867 0259 5D020000 		.4byte	0x25d
 868 025d 08       		.uleb128 0x8
 869 025e C1030000 		.4byte	.LASF55
 870 0262 30       		.byte	0x30
 871 0263 08       		.byte	0x8
 872 0264 88       		.byte	0x88
 873 0265 2D030000 		.4byte	0x32d
 874 0269 09       		.uleb128 0x9
 875 026a 73040000 		.4byte	.LASF50
 876 026e 08       		.byte	0x8
 877 026f 8A       		.byte	0x8a
 878 0270 57020000 		.4byte	0x257
 879 0274 02       		.byte	0x2
 880 0275 23       		.byte	0x23
 881 0276 00       		.uleb128 0
 882 0277 09       		.uleb128 0x9
 883 0278 4D010000 		.4byte	.LASF35
 884 027c 08       		.byte	0x8
 885 027d 8D       		.byte	0x8d
 886 027e 7F010000 		.4byte	0x17f
 887 0282 02       		.byte	0x2
 888 0283 23       		.byte	0x23
 889 0284 04       		.uleb128 0x4
 890 0285 09       		.uleb128 0x9
 891 0286 C7030000 		.4byte	.LASF56
 892 028a 08       		.byte	0x8
 893 028b 8E       		.byte	0x8e
 894 028c 7F010000 		.4byte	0x17f
 895 0290 02       		.byte	0x2
 896 0291 23       		.byte	0x23
 897 0292 08       		.uleb128 0x8
 898 0293 0A       		.uleb128 0xa
 899 0294 677700   		.ascii	"gw\000"
 900 0297 08       		.byte	0x8
 901 0298 8F       		.byte	0x8f
 902 0299 7F010000 		.4byte	0x17f
 903 029d 02       		.byte	0x2
 904 029e 23       		.byte	0x23
ARM GAS  /var/folders/5n/p_75w94d66l9ssrldxqdhh700000gn/T//ccb1V42B.s 			page 17


 905 029f 0C       		.uleb128 0xc
 906 02a0 09       		.uleb128 0x9
 907 02a1 52000000 		.4byte	.LASF57
 908 02a5 08       		.byte	0x8
 909 02a6 93       		.byte	0x93
 910 02a7 2D030000 		.4byte	0x32d
 911 02ab 02       		.byte	0x2
 912 02ac 23       		.byte	0x23
 913 02ad 10       		.uleb128 0x10
 914 02ae 09       		.uleb128 0x9
 915 02af 32040000 		.4byte	.LASF58
 916 02b3 08       		.byte	0x8
 917 02b4 97       		.byte	0x97
 918 02b5 53030000 		.4byte	0x353
 919 02b9 02       		.byte	0x2
 920 02ba 23       		.byte	0x23
 921 02bb 14       		.uleb128 0x14
 922 02bc 09       		.uleb128 0x9
 923 02bd A2010000 		.4byte	.LASF59
 924 02c1 08       		.byte	0x8
 925 02c2 9B       		.byte	0x9b
 926 02c3 84030000 		.4byte	0x384
 927 02c7 02       		.byte	0x2
 928 02c8 23       		.byte	0x23
 929 02c9 18       		.uleb128 0x18
 930 02ca 09       		.uleb128 0x9
 931 02cb 1F000000 		.4byte	.LASF60
 932 02cf 08       		.byte	0x8
 933 02d0 A8       		.byte	0xa8
 934 02d1 A6000000 		.4byte	0xa6
 935 02d5 02       		.byte	0x2
 936 02d6 23       		.byte	0x23
 937 02d7 1C       		.uleb128 0x1c
 938 02d8 0A       		.uleb128 0xa
 939 02d9 6D747500 		.ascii	"mtu\000"
 940 02dd 08       		.byte	0x8
 941 02de B6       		.byte	0xb6
 942 02df C5000000 		.4byte	0xc5
 943 02e3 02       		.byte	0x2
 944 02e4 23       		.byte	0x23
 945 02e5 20       		.uleb128 0x20
 946 02e6 09       		.uleb128 0x9
 947 02e7 A1000000 		.4byte	.LASF61
 948 02eb 08       		.byte	0x8
 949 02ec B8       		.byte	0xb8
 950 02ed AF000000 		.4byte	0xaf
 951 02f1 02       		.byte	0x2
 952 02f2 23       		.byte	0x23
 953 02f3 22       		.uleb128 0x22
 954 02f4 09       		.uleb128 0x9
 955 02f5 11000000 		.4byte	.LASF62
 956 02f9 08       		.byte	0x8
 957 02fa BA       		.byte	0xba
 958 02fb AA030000 		.4byte	0x3aa
 959 02ff 02       		.byte	0x2
 960 0300 23       		.byte	0x23
 961 0301 23       		.uleb128 0x23
ARM GAS  /var/folders/5n/p_75w94d66l9ssrldxqdhh700000gn/T//ccb1V42B.s 			page 18


 962 0302 09       		.uleb128 0x9
 963 0303 6B020000 		.4byte	.LASF54
 964 0307 08       		.byte	0x8
 965 0308 BC       		.byte	0xbc
 966 0309 AF000000 		.4byte	0xaf
 967 030d 02       		.byte	0x2
 968 030e 23       		.byte	0x23
 969 030f 29       		.uleb128 0x29
 970 0310 09       		.uleb128 0x9
 971 0311 1B020000 		.4byte	.LASF63
 972 0315 08       		.byte	0x8
 973 0316 BE       		.byte	0xbe
 974 0317 BA030000 		.4byte	0x3ba
 975 031b 02       		.byte	0x2
 976 031c 23       		.byte	0x23
 977 031d 2A       		.uleb128 0x2a
 978 031e 0A       		.uleb128 0xa
 979 031f 6E756D00 		.ascii	"num\000"
 980 0323 08       		.byte	0x8
 981 0324 C0       		.byte	0xc0
 982 0325 AF000000 		.4byte	0xaf
 983 0329 02       		.byte	0x2
 984 032a 23       		.byte	0x23
 985 032b 2C       		.uleb128 0x2c
 986 032c 00       		.byte	0
 987 032d 04       		.uleb128 0x4
 988 032e 2E020000 		.4byte	.LASF64
 989 0332 08       		.byte	0x8
 990 0333 6D       		.byte	0x6d
 991 0334 38030000 		.4byte	0x338
 992 0338 0B       		.uleb128 0xb
 993 0339 04       		.byte	0x4
 994 033a 3E030000 		.4byte	0x33e
 995 033e 0C       		.uleb128 0xc
 996 033f 01       		.byte	0x1
 997 0340 95010000 		.4byte	0x195
 998 0344 53030000 		.4byte	0x353
 999 0348 0D       		.uleb128 0xd
 1000 0349 51020000 		.4byte	0x251
 1001 034d 0D       		.uleb128 0xd
 1002 034e 57020000 		.4byte	0x257
 1003 0352 00       		.byte	0
 1004 0353 04       		.uleb128 0x4
 1005 0354 25000000 		.4byte	.LASF65
 1006 0358 08       		.byte	0x8
 1007 0359 76       		.byte	0x76
 1008 035a 5E030000 		.4byte	0x35e
 1009 035e 0B       		.uleb128 0xb
 1010 035f 04       		.byte	0x4
 1011 0360 64030000 		.4byte	0x364
 1012 0364 0C       		.uleb128 0xc
 1013 0365 01       		.byte	0x1
 1014 0366 95010000 		.4byte	0x195
 1015 036a 7E030000 		.4byte	0x37e
 1016 036e 0D       		.uleb128 0xd
 1017 036f 57020000 		.4byte	0x257
 1018 0373 0D       		.uleb128 0xd
ARM GAS  /var/folders/5n/p_75w94d66l9ssrldxqdhh700000gn/T//ccb1V42B.s 			page 19


 1019 0374 51020000 		.4byte	0x251
 1020 0378 0D       		.uleb128 0xd
 1021 0379 7E030000 		.4byte	0x37e
 1022 037d 00       		.byte	0
 1023 037e 0B       		.uleb128 0xb
 1024 037f 04       		.byte	0x4
 1025 0380 7F010000 		.4byte	0x17f
 1026 0384 04       		.uleb128 0x4
 1027 0385 AC000000 		.4byte	.LASF66
 1028 0389 08       		.byte	0x8
 1029 038a 7E       		.byte	0x7e
 1030 038b 8F030000 		.4byte	0x38f
 1031 038f 0B       		.uleb128 0xb
 1032 0390 04       		.byte	0x4
 1033 0391 95030000 		.4byte	0x395
 1034 0395 0C       		.uleb128 0xc
 1035 0396 01       		.byte	0x1
 1036 0397 95010000 		.4byte	0x195
 1037 039b AA030000 		.4byte	0x3aa
 1038 039f 0D       		.uleb128 0xd
 1039 03a0 57020000 		.4byte	0x257
 1040 03a4 0D       		.uleb128 0xd
 1041 03a5 51020000 		.4byte	0x251
 1042 03a9 00       		.byte	0
 1043 03aa 0E       		.uleb128 0xe
 1044 03ab AF000000 		.4byte	0xaf
 1045 03af BA030000 		.4byte	0x3ba
 1046 03b3 0F       		.uleb128 0xf
 1047 03b4 30000000 		.4byte	0x30
 1048 03b8 05       		.byte	0x5
 1049 03b9 00       		.byte	0
 1050 03ba 0E       		.uleb128 0xe
 1051 03bb A8000000 		.4byte	0xa8
 1052 03bf CA030000 		.4byte	0x3ca
 1053 03c3 0F       		.uleb128 0xf
 1054 03c4 30000000 		.4byte	0x30
 1055 03c8 01       		.byte	0x1
 1056 03c9 00       		.byte	0
 1057 03ca 08       		.uleb128 0x8
 1058 03cb 58000000 		.4byte	.LASF67
 1059 03cf 14       		.byte	0x14
 1060 03d0 09       		.byte	0x9
 1061 03d1 74       		.byte	0x74
 1062 03d2 55040000 		.4byte	0x455
 1063 03d6 09       		.uleb128 0x9
 1064 03d7 CF010000 		.4byte	.LASF68
 1065 03db 09       		.byte	0x9
 1066 03dc 76       		.byte	0x76
 1067 03dd C5000000 		.4byte	0xc5
 1068 03e1 02       		.byte	0x2
 1069 03e2 23       		.byte	0x23
 1070 03e3 00       		.uleb128 0
 1071 03e4 09       		.uleb128 0x9
 1072 03e5 C0000000 		.4byte	.LASF69
 1073 03e9 09       		.byte	0x9
 1074 03ea 78       		.byte	0x78
 1075 03eb C5000000 		.4byte	0xc5
ARM GAS  /var/folders/5n/p_75w94d66l9ssrldxqdhh700000gn/T//ccb1V42B.s 			page 20


 1076 03ef 02       		.byte	0x2
 1077 03f0 23       		.byte	0x23
 1078 03f1 02       		.uleb128 0x2
 1079 03f2 0A       		.uleb128 0xa
 1080 03f3 5F696400 		.ascii	"_id\000"
 1081 03f7 09       		.byte	0x9
 1082 03f8 7A       		.byte	0x7a
 1083 03f9 C5000000 		.4byte	0xc5
 1084 03fd 02       		.byte	0x2
 1085 03fe 23       		.byte	0x23
 1086 03ff 04       		.uleb128 0x4
 1087 0400 09       		.uleb128 0x9
 1088 0401 5F000000 		.4byte	.LASF70
 1089 0405 09       		.byte	0x9
 1090 0406 7C       		.byte	0x7c
 1091 0407 C5000000 		.4byte	0xc5
 1092 040b 02       		.byte	0x2
 1093 040c 23       		.byte	0x23
 1094 040d 06       		.uleb128 0x6
 1095 040e 09       		.uleb128 0x9
 1096 040f 69010000 		.4byte	.LASF71
 1097 0413 09       		.byte	0x9
 1098 0414 82       		.byte	0x82
 1099 0415 AF000000 		.4byte	0xaf
 1100 0419 02       		.byte	0x2
 1101 041a 23       		.byte	0x23
 1102 041b 08       		.uleb128 0x8
 1103 041c 09       		.uleb128 0x9
 1104 041d 0A000000 		.4byte	.LASF72
 1105 0421 09       		.byte	0x9
 1106 0422 84       		.byte	0x84
 1107 0423 AF000000 		.4byte	0xaf
 1108 0427 02       		.byte	0x2
 1109 0428 23       		.byte	0x23
 1110 0429 09       		.uleb128 0x9
 1111 042a 09       		.uleb128 0x9
 1112 042b 13020000 		.4byte	.LASF73
 1113 042f 09       		.byte	0x9
 1114 0430 86       		.byte	0x86
 1115 0431 C5000000 		.4byte	0xc5
 1116 0435 02       		.byte	0x2
 1117 0436 23       		.byte	0x23
 1118 0437 0A       		.uleb128 0xa
 1119 0438 0A       		.uleb128 0xa
 1120 0439 73726300 		.ascii	"src\000"
 1121 043d 09       		.byte	0x9
 1122 043e 88       		.byte	0x88
 1123 043f 8A010000 		.4byte	0x18a
 1124 0443 02       		.byte	0x2
 1125 0444 23       		.byte	0x23
 1126 0445 0C       		.uleb128 0xc
 1127 0446 09       		.uleb128 0x9
 1128 0447 0E020000 		.4byte	.LASF74
 1129 044b 09       		.byte	0x9
 1130 044c 89       		.byte	0x89
 1131 044d 8A010000 		.4byte	0x18a
 1132 0451 02       		.byte	0x2
ARM GAS  /var/folders/5n/p_75w94d66l9ssrldxqdhh700000gn/T//ccb1V42B.s 			page 21


 1133 0452 23       		.byte	0x23
 1134 0453 10       		.uleb128 0x10
 1135 0454 00       		.byte	0
 1136 0455 04       		.uleb128 0x4
 1137 0456 8F000000 		.4byte	.LASF75
 1138 045a 0A       		.byte	0xa
 1139 045b 3C       		.byte	0x3c
 1140 045c 60040000 		.4byte	0x460
 1141 0460 0B       		.uleb128 0xb
 1142 0461 04       		.byte	0x4
 1143 0462 66040000 		.4byte	0x466
 1144 0466 0C       		.uleb128 0xc
 1145 0467 01       		.byte	0x1
 1146 0468 AF000000 		.4byte	0xaf
 1147 046c 85040000 		.4byte	0x485
 1148 0470 0D       		.uleb128 0xd
 1149 0471 A6000000 		.4byte	0xa6
 1150 0475 0D       		.uleb128 0xd
 1151 0476 85040000 		.4byte	0x485
 1152 047a 0D       		.uleb128 0xd
 1153 047b 51020000 		.4byte	0x251
 1154 047f 0D       		.uleb128 0xd
 1155 0480 7E030000 		.4byte	0x37e
 1156 0484 00       		.byte	0
 1157 0485 0B       		.uleb128 0xb
 1158 0486 04       		.byte	0x4
 1159 0487 8B040000 		.4byte	0x48b
 1160 048b 08       		.uleb128 0x8
 1161 048c 46040000 		.4byte	.LASF76
 1162 0490 1C       		.byte	0x1c
 1163 0491 0A       		.byte	0xa
 1164 0492 3F       		.byte	0x3f
 1165 0493 16050000 		.4byte	0x516
 1166 0497 09       		.uleb128 0x9
 1167 0498 B8010000 		.4byte	.LASF77
 1168 049c 0A       		.byte	0xa
 1169 049d 41       		.byte	0x41
 1170 049e 7F010000 		.4byte	0x17f
 1171 04a2 02       		.byte	0x2
 1172 04a3 23       		.byte	0x23
 1173 04a4 00       		.uleb128 0
 1174 04a5 09       		.uleb128 0x9
 1175 04a6 67000000 		.4byte	.LASF78
 1176 04aa 0A       		.byte	0xa
 1177 04ab 41       		.byte	0x41
 1178 04ac 7F010000 		.4byte	0x17f
 1179 04b0 02       		.byte	0x2
 1180 04b1 23       		.byte	0x23
 1181 04b2 04       		.uleb128 0x4
 1182 04b3 09       		.uleb128 0x9
 1183 04b4 27040000 		.4byte	.LASF79
 1184 04b8 0A       		.byte	0xa
 1185 04b9 41       		.byte	0x41
 1186 04ba AF000000 		.4byte	0xaf
 1187 04be 02       		.byte	0x2
 1188 04bf 23       		.byte	0x23
 1189 04c0 08       		.uleb128 0x8
ARM GAS  /var/folders/5n/p_75w94d66l9ssrldxqdhh700000gn/T//ccb1V42B.s 			page 22


 1190 04c1 0A       		.uleb128 0xa
 1191 04c2 746F7300 		.ascii	"tos\000"
 1192 04c6 0A       		.byte	0xa
 1193 04c7 41       		.byte	0x41
 1194 04c8 AF000000 		.4byte	0xaf
 1195 04cc 02       		.byte	0x2
 1196 04cd 23       		.byte	0x23
 1197 04ce 09       		.uleb128 0x9
 1198 04cf 0A       		.uleb128 0xa
 1199 04d0 74746C00 		.ascii	"ttl\000"
 1200 04d4 0A       		.byte	0xa
 1201 04d5 41       		.byte	0x41
 1202 04d6 AF000000 		.4byte	0xaf
 1203 04da 02       		.byte	0x2
 1204 04db 23       		.byte	0x23
 1205 04dc 0A       		.uleb128 0xa
 1206 04dd 09       		.uleb128 0x9
 1207 04de 73040000 		.4byte	.LASF50
 1208 04e2 0A       		.byte	0xa
 1209 04e3 43       		.byte	0x43
 1210 04e4 85040000 		.4byte	0x485
 1211 04e8 02       		.byte	0x2
 1212 04e9 23       		.byte	0x23
 1213 04ea 0C       		.uleb128 0xc
 1214 04eb 09       		.uleb128 0x9
 1215 04ec 40030000 		.4byte	.LASF80
 1216 04f0 0A       		.byte	0xa
 1217 04f1 45       		.byte	0x45
 1218 04f2 AF000000 		.4byte	0xaf
 1219 04f6 02       		.byte	0x2
 1220 04f7 23       		.byte	0x23
 1221 04f8 10       		.uleb128 0x10
 1222 04f9 09       		.uleb128 0x9
 1223 04fa 46020000 		.4byte	.LASF81
 1224 04fe 0A       		.byte	0xa
 1225 04ff 48       		.byte	0x48
 1226 0500 55040000 		.4byte	0x455
 1227 0504 02       		.byte	0x2
 1228 0505 23       		.byte	0x23
 1229 0506 14       		.uleb128 0x14
 1230 0507 09       		.uleb128 0x9
 1231 0508 BB020000 		.4byte	.LASF82
 1232 050c 0A       		.byte	0xa
 1233 050d 4A       		.byte	0x4a
 1234 050e A6000000 		.4byte	0xa6
 1235 0512 02       		.byte	0x2
 1236 0513 23       		.byte	0x23
 1237 0514 18       		.uleb128 0x18
 1238 0515 00       		.byte	0
 1239 0516 10       		.uleb128 0x10
 1240 0517 01       		.byte	0x1
 1241 0518 54020000 		.4byte	.LASF87
 1242 051c 01       		.byte	0x1
 1243 051d 4C       		.byte	0x4c
 1244 051e 01       		.byte	0x1
 1245 051f AF000000 		.4byte	0xaf
 1246 0523 00000000 		.4byte	.LFB7
ARM GAS  /var/folders/5n/p_75w94d66l9ssrldxqdhh700000gn/T//ccb1V42B.s 			page 23


 1247 0527 80000000 		.4byte	.LFE7
 1248 052b 00000000 		.4byte	.LLST0
 1249 052f 9B050000 		.4byte	0x59b
 1250 0533 11       		.uleb128 0x11
 1251 0534 7000     		.ascii	"p\000"
 1252 0536 01       		.byte	0x1
 1253 0537 4C       		.byte	0x4c
 1254 0538 51020000 		.4byte	0x251
 1255 053c 20000000 		.4byte	.LLST1
 1256 0540 11       		.uleb128 0x11
 1257 0541 696E7000 		.ascii	"inp\000"
 1258 0545 01       		.byte	0x1
 1259 0546 4C       		.byte	0x4c
 1260 0547 57020000 		.4byte	0x257
 1261 054b 56000000 		.4byte	.LLST2
 1262 054f 12       		.uleb128 0x12
 1263 0550 70636200 		.ascii	"pcb\000"
 1264 0554 01       		.byte	0x1
 1265 0555 4E       		.byte	0x4e
 1266 0556 85040000 		.4byte	0x485
 1267 055a 74000000 		.4byte	.LLST3
 1268 055e 13       		.uleb128 0x13
 1269 055f 5D040000 		.4byte	.LASF83
 1270 0563 01       		.byte	0x1
 1271 0564 4E       		.byte	0x4e
 1272 0565 85040000 		.4byte	0x485
 1273 0569 C3000000 		.4byte	.LLST4
 1274 056d 13       		.uleb128 0x13
 1275 056e B2010000 		.4byte	.LASF84
 1276 0572 01       		.byte	0x1
 1277 0573 4F       		.byte	0x4f
 1278 0574 9B050000 		.4byte	0x59b
 1279 0578 F9000000 		.4byte	.LLST5
 1280 057c 13       		.uleb128 0x13
 1281 057d 08020000 		.4byte	.LASF85
 1282 0581 01       		.byte	0x1
 1283 0582 50       		.byte	0x50
 1284 0583 D0000000 		.4byte	0xd0
 1285 0587 18010000 		.4byte	.LLST6
 1286 058b 13       		.uleb128 0x13
 1287 058c A7020000 		.4byte	.LASF86
 1288 0590 01       		.byte	0x1
 1289 0591 51       		.byte	0x51
 1290 0592 AF000000 		.4byte	0xaf
 1291 0596 42010000 		.4byte	.LLST7
 1292 059a 00       		.byte	0
 1293 059b 0B       		.uleb128 0xb
 1294 059c 04       		.byte	0x4
 1295 059d CA030000 		.4byte	0x3ca
 1296 05a1 14       		.uleb128 0x14
 1297 05a2 01       		.byte	0x1
 1298 05a3 3D020000 		.4byte	.LASF88
 1299 05a7 01       		.byte	0x1
 1300 05a8 8E       		.byte	0x8e
 1301 05a9 01       		.byte	0x1
 1302 05aa 95010000 		.4byte	0x195
 1303 05ae 00000000 		.4byte	.LFB8
ARM GAS  /var/folders/5n/p_75w94d66l9ssrldxqdhh700000gn/T//ccb1V42B.s 			page 24


 1304 05b2 0A000000 		.4byte	.LFE8
 1305 05b6 02       		.byte	0x2
 1306 05b7 7D       		.byte	0x7d
 1307 05b8 00       		.sleb128 0
 1308 05b9 DC050000 		.4byte	0x5dc
 1309 05bd 11       		.uleb128 0x11
 1310 05be 70636200 		.ascii	"pcb\000"
 1311 05c2 01       		.byte	0x1
 1312 05c3 8E       		.byte	0x8e
 1313 05c4 85040000 		.4byte	0x485
 1314 05c8 86010000 		.4byte	.LLST8
 1315 05cc 15       		.uleb128 0x15
 1316 05cd 35000000 		.4byte	.LASF89
 1317 05d1 01       		.byte	0x1
 1318 05d2 8E       		.byte	0x8e
 1319 05d3 7E030000 		.4byte	0x37e
 1320 05d7 99010000 		.4byte	.LLST9
 1321 05db 00       		.byte	0
 1322 05dc 14       		.uleb128 0x14
 1323 05dd 01       		.byte	0x1
 1324 05de 72030000 		.4byte	.LASF90
 1325 05e2 01       		.byte	0x1
 1326 05e3 A2       		.byte	0xa2
 1327 05e4 01       		.byte	0x1
 1328 05e5 95010000 		.4byte	0x195
 1329 05e9 00000000 		.4byte	.LFB9
 1330 05ed 0A000000 		.4byte	.LFE9
 1331 05f1 02       		.byte	0x2
 1332 05f2 7D       		.byte	0x7d
 1333 05f3 00       		.sleb128 0
 1334 05f4 17060000 		.4byte	0x617
 1335 05f8 11       		.uleb128 0x11
 1336 05f9 70636200 		.ascii	"pcb\000"
 1337 05fd 01       		.byte	0x1
 1338 05fe A2       		.byte	0xa2
 1339 05ff 85040000 		.4byte	0x485
 1340 0603 AC010000 		.4byte	.LLST10
 1341 0607 15       		.uleb128 0x15
 1342 0608 35000000 		.4byte	.LASF89
 1343 060c 01       		.byte	0x1
 1344 060d A2       		.byte	0xa2
 1345 060e 7E030000 		.4byte	0x37e
 1346 0612 BF010000 		.4byte	.LLST11
 1347 0616 00       		.byte	0
 1348 0617 16       		.uleb128 0x16
 1349 0618 01       		.byte	0x1
 1350 0619 E5000000 		.4byte	.LASF94
 1351 061d 01       		.byte	0x1
 1352 061e B7       		.byte	0xb7
 1353 061f 01       		.byte	0x1
 1354 0620 00000000 		.4byte	.LFB10
 1355 0624 06000000 		.4byte	.LFE10
 1356 0628 02       		.byte	0x2
 1357 0629 7D       		.byte	0x7d
 1358 062a 00       		.sleb128 0
 1359 062b 57060000 		.4byte	0x657
 1360 062f 17       		.uleb128 0x17
ARM GAS  /var/folders/5n/p_75w94d66l9ssrldxqdhh700000gn/T//ccb1V42B.s 			page 25


 1361 0630 70636200 		.ascii	"pcb\000"
 1362 0634 01       		.byte	0x1
 1363 0635 B7       		.byte	0xb7
 1364 0636 85040000 		.4byte	0x485
 1365 063a 01       		.byte	0x1
 1366 063b 50       		.byte	0x50
 1367 063c 18       		.uleb128 0x18
 1368 063d 46020000 		.4byte	.LASF81
 1369 0641 01       		.byte	0x1
 1370 0642 B7       		.byte	0xb7
 1371 0643 55040000 		.4byte	0x455
 1372 0647 01       		.byte	0x1
 1373 0648 51       		.byte	0x51
 1374 0649 18       		.uleb128 0x18
 1375 064a BB020000 		.4byte	.LASF82
 1376 064e 01       		.byte	0x1
 1377 064f B7       		.byte	0xb7
 1378 0650 A6000000 		.4byte	0xa6
 1379 0654 01       		.byte	0x1
 1380 0655 52       		.byte	0x52
 1381 0656 00       		.byte	0
 1382 0657 10       		.uleb128 0x10
 1383 0658 01       		.byte	0x1
 1384 0659 23030000 		.4byte	.LASF91
 1385 065d 01       		.byte	0x1
 1386 065e CB       		.byte	0xcb
 1387 065f 01       		.byte	0x1
 1388 0660 95010000 		.4byte	0x195
 1389 0664 00000000 		.4byte	.LFB11
 1390 0668 AC000000 		.4byte	.LFE11
 1391 066c D2010000 		.4byte	.LLST12
 1392 0670 DA060000 		.4byte	0x6da
 1393 0674 11       		.uleb128 0x11
 1394 0675 70636200 		.ascii	"pcb\000"
 1395 0679 01       		.byte	0x1
 1396 067a CB       		.byte	0xcb
 1397 067b 85040000 		.4byte	0x485
 1398 067f FE010000 		.4byte	.LLST13
 1399 0683 11       		.uleb128 0x11
 1400 0684 7000     		.ascii	"p\000"
 1401 0686 01       		.byte	0x1
 1402 0687 CB       		.byte	0xcb
 1403 0688 51020000 		.4byte	0x251
 1404 068c 27020000 		.4byte	.LLST14
 1405 0690 15       		.uleb128 0x15
 1406 0691 35000000 		.4byte	.LASF89
 1407 0695 01       		.byte	0x1
 1408 0696 CB       		.byte	0xcb
 1409 0697 7E030000 		.4byte	0x37e
 1410 069b 45020000 		.4byte	.LLST15
 1411 069f 12       		.uleb128 0x12
 1412 06a0 65727200 		.ascii	"err\000"
 1413 06a4 01       		.byte	0x1
 1414 06a5 CD       		.byte	0xcd
 1415 06a6 95010000 		.4byte	0x195
 1416 06aa 63020000 		.4byte	.LLST16
 1417 06ae 13       		.uleb128 0x13
ARM GAS  /var/folders/5n/p_75w94d66l9ssrldxqdhh700000gn/T//ccb1V42B.s 			page 26


 1418 06af C1030000 		.4byte	.LASF55
 1419 06b3 01       		.byte	0x1
 1420 06b4 CE       		.byte	0xce
 1421 06b5 57020000 		.4byte	0x257
 1422 06b9 81020000 		.4byte	.LLST17
 1423 06bd 13       		.uleb128 0x13
 1424 06be E8020000 		.4byte	.LASF92
 1425 06c2 01       		.byte	0x1
 1426 06c3 CF       		.byte	0xcf
 1427 06c4 7E030000 		.4byte	0x37e
 1428 06c8 B5020000 		.4byte	.LLST18
 1429 06cc 12       		.uleb128 0x12
 1430 06cd 7100     		.ascii	"q\000"
 1431 06cf 01       		.byte	0x1
 1432 06d0 D0       		.byte	0xd0
 1433 06d1 51020000 		.4byte	0x251
 1434 06d5 D3020000 		.4byte	.LLST19
 1435 06d9 00       		.byte	0
 1436 06da 19       		.uleb128 0x19
 1437 06db 01       		.byte	0x1
 1438 06dc E1010000 		.4byte	.LASF93
 1439 06e0 01       		.byte	0x1
 1440 06e1 2201     		.2byte	0x122
 1441 06e3 01       		.byte	0x1
 1442 06e4 95010000 		.4byte	0x195
 1443 06e8 00000000 		.4byte	.LFB12
 1444 06ec 06000000 		.4byte	.LFE12
 1445 06f0 02       		.byte	0x2
 1446 06f1 7D       		.byte	0x7d
 1447 06f2 00       		.sleb128 0
 1448 06f3 16070000 		.4byte	0x716
 1449 06f7 1A       		.uleb128 0x1a
 1450 06f8 70636200 		.ascii	"pcb\000"
 1451 06fc 01       		.byte	0x1
 1452 06fd 2201     		.2byte	0x122
 1453 06ff 85040000 		.4byte	0x485
 1454 0703 28030000 		.4byte	.LLST20
 1455 0707 1A       		.uleb128 0x1a
 1456 0708 7000     		.ascii	"p\000"
 1457 070a 01       		.byte	0x1
 1458 070b 2201     		.2byte	0x122
 1459 070d 51020000 		.4byte	0x251
 1460 0711 3B030000 		.4byte	.LLST21
 1461 0715 00       		.byte	0
 1462 0716 1B       		.uleb128 0x1b
 1463 0717 01       		.byte	0x1
 1464 0718 FD010000 		.4byte	.LASF95
 1465 071c 01       		.byte	0x1
 1466 071d 3001     		.2byte	0x130
 1467 071f 01       		.byte	0x1
 1468 0720 00000000 		.4byte	.LFB13
 1469 0724 34000000 		.4byte	.LFE13
 1470 0728 02       		.byte	0x2
 1471 0729 7D       		.byte	0x7d
 1472 072a 00       		.sleb128 0
 1473 072b 50070000 		.4byte	0x750
 1474 072f 1A       		.uleb128 0x1a
ARM GAS  /var/folders/5n/p_75w94d66l9ssrldxqdhh700000gn/T//ccb1V42B.s 			page 27


 1475 0730 70636200 		.ascii	"pcb\000"
 1476 0734 01       		.byte	0x1
 1477 0735 3001     		.2byte	0x130
 1478 0737 85040000 		.4byte	0x485
 1479 073b 4E030000 		.4byte	.LLST22
 1480 073f 1C       		.uleb128 0x1c
 1481 0740 B6020000 		.4byte	.LASF96
 1482 0744 01       		.byte	0x1
 1483 0745 3201     		.2byte	0x132
 1484 0747 85040000 		.4byte	0x485
 1485 074b 77030000 		.4byte	.LLST23
 1486 074f 00       		.byte	0
 1487 0750 1D       		.uleb128 0x1d
 1488 0751 01       		.byte	0x1
 1489 0752 7E030000 		.4byte	.LASF97
 1490 0756 01       		.byte	0x1
 1491 0757 4F01     		.2byte	0x14f
 1492 0759 01       		.byte	0x1
 1493 075a 85040000 		.4byte	0x485
 1494 075e 00000000 		.4byte	.LFB14
 1495 0762 2C000000 		.4byte	.LFE14
 1496 0766 9A030000 		.4byte	.LLST24
 1497 076a 8F070000 		.4byte	0x78f
 1498 076e 1E       		.uleb128 0x1e
 1499 076f 08020000 		.4byte	.LASF85
 1500 0773 01       		.byte	0x1
 1501 0774 4F01     		.2byte	0x14f
 1502 0776 AF000000 		.4byte	0xaf
 1503 077a BA030000 		.4byte	.LLST25
 1504 077e 1F       		.uleb128 0x1f
 1505 077f 70636200 		.ascii	"pcb\000"
 1506 0783 01       		.byte	0x1
 1507 0784 5101     		.2byte	0x151
 1508 0786 85040000 		.4byte	0x485
 1509 078a CD030000 		.4byte	.LLST26
 1510 078e 00       		.byte	0
 1511 078f 20       		.uleb128 0x20
 1512 0790 77010000 		.4byte	.LASF98
 1513 0794 09       		.byte	0x9
 1514 0795 A7       		.byte	0xa7
 1515 0796 7F010000 		.4byte	0x17f
 1516 079a 01       		.byte	0x1
 1517 079b 01       		.byte	0x1
 1518 079c 20       		.uleb128 0x20
 1519 079d FF030000 		.4byte	.LASF99
 1520 07a1 09       		.byte	0x9
 1521 07a2 A9       		.byte	0xa9
 1522 07a3 7F010000 		.4byte	0x17f
 1523 07a7 01       		.byte	0x1
 1524 07a8 01       		.byte	0x1
 1525 07a9 21       		.uleb128 0x21
 1526 07aa 07030000 		.4byte	.LASF100
 1527 07ae 01       		.byte	0x1
 1528 07af 38       		.byte	0x38
 1529 07b0 85040000 		.4byte	0x485
 1530 07b4 05       		.byte	0x5
 1531 07b5 03       		.byte	0x3
ARM GAS  /var/folders/5n/p_75w94d66l9ssrldxqdhh700000gn/T//ccb1V42B.s 			page 28


 1532 07b6 00000000 		.4byte	raw_pcbs
 1533 07ba 20       		.uleb128 0x20
 1534 07bb 77010000 		.4byte	.LASF98
 1535 07bf 09       		.byte	0x9
 1536 07c0 A7       		.byte	0xa7
 1537 07c1 7F010000 		.4byte	0x17f
 1538 07c5 01       		.byte	0x1
 1539 07c6 01       		.byte	0x1
 1540 07c7 20       		.uleb128 0x20
 1541 07c8 FF030000 		.4byte	.LASF99
 1542 07cc 09       		.byte	0x9
 1543 07cd A9       		.byte	0xa9
 1544 07ce 7F010000 		.4byte	0x17f
 1545 07d2 01       		.byte	0x1
 1546 07d3 01       		.byte	0x1
 1547 07d4 00       		.byte	0
 1548              		.section	.debug_abbrev,"",%progbits
 1549              	.Ldebug_abbrev0:
 1550 0000 01       		.uleb128 0x1
 1551 0001 11       		.uleb128 0x11
 1552 0002 01       		.byte	0x1
 1553 0003 25       		.uleb128 0x25
 1554 0004 0E       		.uleb128 0xe
 1555 0005 13       		.uleb128 0x13
 1556 0006 0B       		.uleb128 0xb
 1557 0007 03       		.uleb128 0x3
 1558 0008 0E       		.uleb128 0xe
 1559 0009 1B       		.uleb128 0x1b
 1560 000a 0E       		.uleb128 0xe
 1561 000b 11       		.uleb128 0x11
 1562 000c 01       		.uleb128 0x1
 1563 000d 52       		.uleb128 0x52
 1564 000e 01       		.uleb128 0x1
 1565 000f 55       		.uleb128 0x55
 1566 0010 06       		.uleb128 0x6
 1567 0011 10       		.uleb128 0x10
 1568 0012 06       		.uleb128 0x6
 1569 0013 00       		.byte	0
 1570 0014 00       		.byte	0
 1571 0015 02       		.uleb128 0x2
 1572 0016 24       		.uleb128 0x24
 1573 0017 00       		.byte	0
 1574 0018 0B       		.uleb128 0xb
 1575 0019 0B       		.uleb128 0xb
 1576 001a 3E       		.uleb128 0x3e
 1577 001b 0B       		.uleb128 0xb
 1578 001c 03       		.uleb128 0x3
 1579 001d 08       		.uleb128 0x8
 1580 001e 00       		.byte	0
 1581 001f 00       		.byte	0
 1582 0020 03       		.uleb128 0x3
 1583 0021 24       		.uleb128 0x24
 1584 0022 00       		.byte	0
 1585 0023 0B       		.uleb128 0xb
 1586 0024 0B       		.uleb128 0xb
 1587 0025 3E       		.uleb128 0x3e
 1588 0026 0B       		.uleb128 0xb
ARM GAS  /var/folders/5n/p_75w94d66l9ssrldxqdhh700000gn/T//ccb1V42B.s 			page 29


 1589 0027 03       		.uleb128 0x3
 1590 0028 0E       		.uleb128 0xe
 1591 0029 00       		.byte	0
 1592 002a 00       		.byte	0
 1593 002b 04       		.uleb128 0x4
 1594 002c 16       		.uleb128 0x16
 1595 002d 00       		.byte	0
 1596 002e 03       		.uleb128 0x3
 1597 002f 0E       		.uleb128 0xe
 1598 0030 3A       		.uleb128 0x3a
 1599 0031 0B       		.uleb128 0xb
 1600 0032 3B       		.uleb128 0x3b
 1601 0033 0B       		.uleb128 0xb
 1602 0034 49       		.uleb128 0x49
 1603 0035 13       		.uleb128 0x13
 1604 0036 00       		.byte	0
 1605 0037 00       		.byte	0
 1606 0038 05       		.uleb128 0x5
 1607 0039 0F       		.uleb128 0xf
 1608 003a 00       		.byte	0
 1609 003b 0B       		.uleb128 0xb
 1610 003c 0B       		.uleb128 0xb
 1611 003d 00       		.byte	0
 1612 003e 00       		.byte	0
 1613 003f 06       		.uleb128 0x6
 1614 0040 04       		.uleb128 0x4
 1615 0041 01       		.byte	0x1
 1616 0042 0B       		.uleb128 0xb
 1617 0043 0B       		.uleb128 0xb
 1618 0044 3A       		.uleb128 0x3a
 1619 0045 0B       		.uleb128 0xb
 1620 0046 3B       		.uleb128 0x3b
 1621 0047 0B       		.uleb128 0xb
 1622 0048 01       		.uleb128 0x1
 1623 0049 13       		.uleb128 0x13
 1624 004a 00       		.byte	0
 1625 004b 00       		.byte	0
 1626 004c 07       		.uleb128 0x7
 1627 004d 28       		.uleb128 0x28
 1628 004e 00       		.byte	0
 1629 004f 03       		.uleb128 0x3
 1630 0050 0E       		.uleb128 0xe
 1631 0051 1C       		.uleb128 0x1c
 1632 0052 0D       		.uleb128 0xd
 1633 0053 00       		.byte	0
 1634 0054 00       		.byte	0
 1635 0055 08       		.uleb128 0x8
 1636 0056 13       		.uleb128 0x13
 1637 0057 01       		.byte	0x1
 1638 0058 03       		.uleb128 0x3
 1639 0059 0E       		.uleb128 0xe
 1640 005a 0B       		.uleb128 0xb
 1641 005b 0B       		.uleb128 0xb
 1642 005c 3A       		.uleb128 0x3a
 1643 005d 0B       		.uleb128 0xb
 1644 005e 3B       		.uleb128 0x3b
 1645 005f 0B       		.uleb128 0xb
ARM GAS  /var/folders/5n/p_75w94d66l9ssrldxqdhh700000gn/T//ccb1V42B.s 			page 30


 1646 0060 01       		.uleb128 0x1
 1647 0061 13       		.uleb128 0x13
 1648 0062 00       		.byte	0
 1649 0063 00       		.byte	0
 1650 0064 09       		.uleb128 0x9
 1651 0065 0D       		.uleb128 0xd
 1652 0066 00       		.byte	0
 1653 0067 03       		.uleb128 0x3
 1654 0068 0E       		.uleb128 0xe
 1655 0069 3A       		.uleb128 0x3a
 1656 006a 0B       		.uleb128 0xb
 1657 006b 3B       		.uleb128 0x3b
 1658 006c 0B       		.uleb128 0xb
 1659 006d 49       		.uleb128 0x49
 1660 006e 13       		.uleb128 0x13
 1661 006f 38       		.uleb128 0x38
 1662 0070 0A       		.uleb128 0xa
 1663 0071 00       		.byte	0
 1664 0072 00       		.byte	0
 1665 0073 0A       		.uleb128 0xa
 1666 0074 0D       		.uleb128 0xd
 1667 0075 00       		.byte	0
 1668 0076 03       		.uleb128 0x3
 1669 0077 08       		.uleb128 0x8
 1670 0078 3A       		.uleb128 0x3a
 1671 0079 0B       		.uleb128 0xb
 1672 007a 3B       		.uleb128 0x3b
 1673 007b 0B       		.uleb128 0xb
 1674 007c 49       		.uleb128 0x49
 1675 007d 13       		.uleb128 0x13
 1676 007e 38       		.uleb128 0x38
 1677 007f 0A       		.uleb128 0xa
 1678 0080 00       		.byte	0
 1679 0081 00       		.byte	0
 1680 0082 0B       		.uleb128 0xb
 1681 0083 0F       		.uleb128 0xf
 1682 0084 00       		.byte	0
 1683 0085 0B       		.uleb128 0xb
 1684 0086 0B       		.uleb128 0xb
 1685 0087 49       		.uleb128 0x49
 1686 0088 13       		.uleb128 0x13
 1687 0089 00       		.byte	0
 1688 008a 00       		.byte	0
 1689 008b 0C       		.uleb128 0xc
 1690 008c 15       		.uleb128 0x15
 1691 008d 01       		.byte	0x1
 1692 008e 27       		.uleb128 0x27
 1693 008f 0C       		.uleb128 0xc
 1694 0090 49       		.uleb128 0x49
 1695 0091 13       		.uleb128 0x13
 1696 0092 01       		.uleb128 0x1
 1697 0093 13       		.uleb128 0x13
 1698 0094 00       		.byte	0
 1699 0095 00       		.byte	0
 1700 0096 0D       		.uleb128 0xd
 1701 0097 05       		.uleb128 0x5
 1702 0098 00       		.byte	0
ARM GAS  /var/folders/5n/p_75w94d66l9ssrldxqdhh700000gn/T//ccb1V42B.s 			page 31


 1703 0099 49       		.uleb128 0x49
 1704 009a 13       		.uleb128 0x13
 1705 009b 00       		.byte	0
 1706 009c 00       		.byte	0
 1707 009d 0E       		.uleb128 0xe
 1708 009e 01       		.uleb128 0x1
 1709 009f 01       		.byte	0x1
 1710 00a0 49       		.uleb128 0x49
 1711 00a1 13       		.uleb128 0x13
 1712 00a2 01       		.uleb128 0x1
 1713 00a3 13       		.uleb128 0x13
 1714 00a4 00       		.byte	0
 1715 00a5 00       		.byte	0
 1716 00a6 0F       		.uleb128 0xf
 1717 00a7 21       		.uleb128 0x21
 1718 00a8 00       		.byte	0
 1719 00a9 49       		.uleb128 0x49
 1720 00aa 13       		.uleb128 0x13
 1721 00ab 2F       		.uleb128 0x2f
 1722 00ac 0B       		.uleb128 0xb
 1723 00ad 00       		.byte	0
 1724 00ae 00       		.byte	0
 1725 00af 10       		.uleb128 0x10
 1726 00b0 2E       		.uleb128 0x2e
 1727 00b1 01       		.byte	0x1
 1728 00b2 3F       		.uleb128 0x3f
 1729 00b3 0C       		.uleb128 0xc
 1730 00b4 03       		.uleb128 0x3
 1731 00b5 0E       		.uleb128 0xe
 1732 00b6 3A       		.uleb128 0x3a
 1733 00b7 0B       		.uleb128 0xb
 1734 00b8 3B       		.uleb128 0x3b
 1735 00b9 0B       		.uleb128 0xb
 1736 00ba 27       		.uleb128 0x27
 1737 00bb 0C       		.uleb128 0xc
 1738 00bc 49       		.uleb128 0x49
 1739 00bd 13       		.uleb128 0x13
 1740 00be 11       		.uleb128 0x11
 1741 00bf 01       		.uleb128 0x1
 1742 00c0 12       		.uleb128 0x12
 1743 00c1 01       		.uleb128 0x1
 1744 00c2 40       		.uleb128 0x40
 1745 00c3 06       		.uleb128 0x6
 1746 00c4 01       		.uleb128 0x1
 1747 00c5 13       		.uleb128 0x13
 1748 00c6 00       		.byte	0
 1749 00c7 00       		.byte	0
 1750 00c8 11       		.uleb128 0x11
 1751 00c9 05       		.uleb128 0x5
 1752 00ca 00       		.byte	0
 1753 00cb 03       		.uleb128 0x3
 1754 00cc 08       		.uleb128 0x8
 1755 00cd 3A       		.uleb128 0x3a
 1756 00ce 0B       		.uleb128 0xb
 1757 00cf 3B       		.uleb128 0x3b
 1758 00d0 0B       		.uleb128 0xb
 1759 00d1 49       		.uleb128 0x49
ARM GAS  /var/folders/5n/p_75w94d66l9ssrldxqdhh700000gn/T//ccb1V42B.s 			page 32


 1760 00d2 13       		.uleb128 0x13
 1761 00d3 02       		.uleb128 0x2
 1762 00d4 06       		.uleb128 0x6
 1763 00d5 00       		.byte	0
 1764 00d6 00       		.byte	0
 1765 00d7 12       		.uleb128 0x12
 1766 00d8 34       		.uleb128 0x34
 1767 00d9 00       		.byte	0
 1768 00da 03       		.uleb128 0x3
 1769 00db 08       		.uleb128 0x8
 1770 00dc 3A       		.uleb128 0x3a
 1771 00dd 0B       		.uleb128 0xb
 1772 00de 3B       		.uleb128 0x3b
 1773 00df 0B       		.uleb128 0xb
 1774 00e0 49       		.uleb128 0x49
 1775 00e1 13       		.uleb128 0x13
 1776 00e2 02       		.uleb128 0x2
 1777 00e3 06       		.uleb128 0x6
 1778 00e4 00       		.byte	0
 1779 00e5 00       		.byte	0
 1780 00e6 13       		.uleb128 0x13
 1781 00e7 34       		.uleb128 0x34
 1782 00e8 00       		.byte	0
 1783 00e9 03       		.uleb128 0x3
 1784 00ea 0E       		.uleb128 0xe
 1785 00eb 3A       		.uleb128 0x3a
 1786 00ec 0B       		.uleb128 0xb
 1787 00ed 3B       		.uleb128 0x3b
 1788 00ee 0B       		.uleb128 0xb
 1789 00ef 49       		.uleb128 0x49
 1790 00f0 13       		.uleb128 0x13
 1791 00f1 02       		.uleb128 0x2
 1792 00f2 06       		.uleb128 0x6
 1793 00f3 00       		.byte	0
 1794 00f4 00       		.byte	0
 1795 00f5 14       		.uleb128 0x14
 1796 00f6 2E       		.uleb128 0x2e
 1797 00f7 01       		.byte	0x1
 1798 00f8 3F       		.uleb128 0x3f
 1799 00f9 0C       		.uleb128 0xc
 1800 00fa 03       		.uleb128 0x3
 1801 00fb 0E       		.uleb128 0xe
 1802 00fc 3A       		.uleb128 0x3a
 1803 00fd 0B       		.uleb128 0xb
 1804 00fe 3B       		.uleb128 0x3b
 1805 00ff 0B       		.uleb128 0xb
 1806 0100 27       		.uleb128 0x27
 1807 0101 0C       		.uleb128 0xc
 1808 0102 49       		.uleb128 0x49
 1809 0103 13       		.uleb128 0x13
 1810 0104 11       		.uleb128 0x11
 1811 0105 01       		.uleb128 0x1
 1812 0106 12       		.uleb128 0x12
 1813 0107 01       		.uleb128 0x1
 1814 0108 40       		.uleb128 0x40
 1815 0109 0A       		.uleb128 0xa
 1816 010a 01       		.uleb128 0x1
ARM GAS  /var/folders/5n/p_75w94d66l9ssrldxqdhh700000gn/T//ccb1V42B.s 			page 33


 1817 010b 13       		.uleb128 0x13
 1818 010c 00       		.byte	0
 1819 010d 00       		.byte	0
 1820 010e 15       		.uleb128 0x15
 1821 010f 05       		.uleb128 0x5
 1822 0110 00       		.byte	0
 1823 0111 03       		.uleb128 0x3
 1824 0112 0E       		.uleb128 0xe
 1825 0113 3A       		.uleb128 0x3a
 1826 0114 0B       		.uleb128 0xb
 1827 0115 3B       		.uleb128 0x3b
 1828 0116 0B       		.uleb128 0xb
 1829 0117 49       		.uleb128 0x49
 1830 0118 13       		.uleb128 0x13
 1831 0119 02       		.uleb128 0x2
 1832 011a 06       		.uleb128 0x6
 1833 011b 00       		.byte	0
 1834 011c 00       		.byte	0
 1835 011d 16       		.uleb128 0x16
 1836 011e 2E       		.uleb128 0x2e
 1837 011f 01       		.byte	0x1
 1838 0120 3F       		.uleb128 0x3f
 1839 0121 0C       		.uleb128 0xc
 1840 0122 03       		.uleb128 0x3
 1841 0123 0E       		.uleb128 0xe
 1842 0124 3A       		.uleb128 0x3a
 1843 0125 0B       		.uleb128 0xb
 1844 0126 3B       		.uleb128 0x3b
 1845 0127 0B       		.uleb128 0xb
 1846 0128 27       		.uleb128 0x27
 1847 0129 0C       		.uleb128 0xc
 1848 012a 11       		.uleb128 0x11
 1849 012b 01       		.uleb128 0x1
 1850 012c 12       		.uleb128 0x12
 1851 012d 01       		.uleb128 0x1
 1852 012e 40       		.uleb128 0x40
 1853 012f 0A       		.uleb128 0xa
 1854 0130 01       		.uleb128 0x1
 1855 0131 13       		.uleb128 0x13
 1856 0132 00       		.byte	0
 1857 0133 00       		.byte	0
 1858 0134 17       		.uleb128 0x17
 1859 0135 05       		.uleb128 0x5
 1860 0136 00       		.byte	0
 1861 0137 03       		.uleb128 0x3
 1862 0138 08       		.uleb128 0x8
 1863 0139 3A       		.uleb128 0x3a
 1864 013a 0B       		.uleb128 0xb
 1865 013b 3B       		.uleb128 0x3b
 1866 013c 0B       		.uleb128 0xb
 1867 013d 49       		.uleb128 0x49
 1868 013e 13       		.uleb128 0x13
 1869 013f 02       		.uleb128 0x2
 1870 0140 0A       		.uleb128 0xa
 1871 0141 00       		.byte	0
 1872 0142 00       		.byte	0
 1873 0143 18       		.uleb128 0x18
ARM GAS  /var/folders/5n/p_75w94d66l9ssrldxqdhh700000gn/T//ccb1V42B.s 			page 34


 1874 0144 05       		.uleb128 0x5
 1875 0145 00       		.byte	0
 1876 0146 03       		.uleb128 0x3
 1877 0147 0E       		.uleb128 0xe
 1878 0148 3A       		.uleb128 0x3a
 1879 0149 0B       		.uleb128 0xb
 1880 014a 3B       		.uleb128 0x3b
 1881 014b 0B       		.uleb128 0xb
 1882 014c 49       		.uleb128 0x49
 1883 014d 13       		.uleb128 0x13
 1884 014e 02       		.uleb128 0x2
 1885 014f 0A       		.uleb128 0xa
 1886 0150 00       		.byte	0
 1887 0151 00       		.byte	0
 1888 0152 19       		.uleb128 0x19
 1889 0153 2E       		.uleb128 0x2e
 1890 0154 01       		.byte	0x1
 1891 0155 3F       		.uleb128 0x3f
 1892 0156 0C       		.uleb128 0xc
 1893 0157 03       		.uleb128 0x3
 1894 0158 0E       		.uleb128 0xe
 1895 0159 3A       		.uleb128 0x3a
 1896 015a 0B       		.uleb128 0xb
 1897 015b 3B       		.uleb128 0x3b
 1898 015c 05       		.uleb128 0x5
 1899 015d 27       		.uleb128 0x27
 1900 015e 0C       		.uleb128 0xc
 1901 015f 49       		.uleb128 0x49
 1902 0160 13       		.uleb128 0x13
 1903 0161 11       		.uleb128 0x11
 1904 0162 01       		.uleb128 0x1
 1905 0163 12       		.uleb128 0x12
 1906 0164 01       		.uleb128 0x1
 1907 0165 40       		.uleb128 0x40
 1908 0166 0A       		.uleb128 0xa
 1909 0167 01       		.uleb128 0x1
 1910 0168 13       		.uleb128 0x13
 1911 0169 00       		.byte	0
 1912 016a 00       		.byte	0
 1913 016b 1A       		.uleb128 0x1a
 1914 016c 05       		.uleb128 0x5
 1915 016d 00       		.byte	0
 1916 016e 03       		.uleb128 0x3
 1917 016f 08       		.uleb128 0x8
 1918 0170 3A       		.uleb128 0x3a
 1919 0171 0B       		.uleb128 0xb
 1920 0172 3B       		.uleb128 0x3b
 1921 0173 05       		.uleb128 0x5
 1922 0174 49       		.uleb128 0x49
 1923 0175 13       		.uleb128 0x13
 1924 0176 02       		.uleb128 0x2
 1925 0177 06       		.uleb128 0x6
 1926 0178 00       		.byte	0
 1927 0179 00       		.byte	0
 1928 017a 1B       		.uleb128 0x1b
 1929 017b 2E       		.uleb128 0x2e
 1930 017c 01       		.byte	0x1
ARM GAS  /var/folders/5n/p_75w94d66l9ssrldxqdhh700000gn/T//ccb1V42B.s 			page 35


 1931 017d 3F       		.uleb128 0x3f
 1932 017e 0C       		.uleb128 0xc
 1933 017f 03       		.uleb128 0x3
 1934 0180 0E       		.uleb128 0xe
 1935 0181 3A       		.uleb128 0x3a
 1936 0182 0B       		.uleb128 0xb
 1937 0183 3B       		.uleb128 0x3b
 1938 0184 05       		.uleb128 0x5
 1939 0185 27       		.uleb128 0x27
 1940 0186 0C       		.uleb128 0xc
 1941 0187 11       		.uleb128 0x11
 1942 0188 01       		.uleb128 0x1
 1943 0189 12       		.uleb128 0x12
 1944 018a 01       		.uleb128 0x1
 1945 018b 40       		.uleb128 0x40
 1946 018c 0A       		.uleb128 0xa
 1947 018d 01       		.uleb128 0x1
 1948 018e 13       		.uleb128 0x13
 1949 018f 00       		.byte	0
 1950 0190 00       		.byte	0
 1951 0191 1C       		.uleb128 0x1c
 1952 0192 34       		.uleb128 0x34
 1953 0193 00       		.byte	0
 1954 0194 03       		.uleb128 0x3
 1955 0195 0E       		.uleb128 0xe
 1956 0196 3A       		.uleb128 0x3a
 1957 0197 0B       		.uleb128 0xb
 1958 0198 3B       		.uleb128 0x3b
 1959 0199 05       		.uleb128 0x5
 1960 019a 49       		.uleb128 0x49
 1961 019b 13       		.uleb128 0x13
 1962 019c 02       		.uleb128 0x2
 1963 019d 06       		.uleb128 0x6
 1964 019e 00       		.byte	0
 1965 019f 00       		.byte	0
 1966 01a0 1D       		.uleb128 0x1d
 1967 01a1 2E       		.uleb128 0x2e
 1968 01a2 01       		.byte	0x1
 1969 01a3 3F       		.uleb128 0x3f
 1970 01a4 0C       		.uleb128 0xc
 1971 01a5 03       		.uleb128 0x3
 1972 01a6 0E       		.uleb128 0xe
 1973 01a7 3A       		.uleb128 0x3a
 1974 01a8 0B       		.uleb128 0xb
 1975 01a9 3B       		.uleb128 0x3b
 1976 01aa 05       		.uleb128 0x5
 1977 01ab 27       		.uleb128 0x27
 1978 01ac 0C       		.uleb128 0xc
 1979 01ad 49       		.uleb128 0x49
 1980 01ae 13       		.uleb128 0x13
 1981 01af 11       		.uleb128 0x11
 1982 01b0 01       		.uleb128 0x1
 1983 01b1 12       		.uleb128 0x12
 1984 01b2 01       		.uleb128 0x1
 1985 01b3 40       		.uleb128 0x40
 1986 01b4 06       		.uleb128 0x6
 1987 01b5 01       		.uleb128 0x1
ARM GAS  /var/folders/5n/p_75w94d66l9ssrldxqdhh700000gn/T//ccb1V42B.s 			page 36


 1988 01b6 13       		.uleb128 0x13
 1989 01b7 00       		.byte	0
 1990 01b8 00       		.byte	0
 1991 01b9 1E       		.uleb128 0x1e
 1992 01ba 05       		.uleb128 0x5
 1993 01bb 00       		.byte	0
 1994 01bc 03       		.uleb128 0x3
 1995 01bd 0E       		.uleb128 0xe
 1996 01be 3A       		.uleb128 0x3a
 1997 01bf 0B       		.uleb128 0xb
 1998 01c0 3B       		.uleb128 0x3b
 1999 01c1 05       		.uleb128 0x5
 2000 01c2 49       		.uleb128 0x49
 2001 01c3 13       		.uleb128 0x13
 2002 01c4 02       		.uleb128 0x2
 2003 01c5 06       		.uleb128 0x6
 2004 01c6 00       		.byte	0
 2005 01c7 00       		.byte	0
 2006 01c8 1F       		.uleb128 0x1f
 2007 01c9 34       		.uleb128 0x34
 2008 01ca 00       		.byte	0
 2009 01cb 03       		.uleb128 0x3
 2010 01cc 08       		.uleb128 0x8
 2011 01cd 3A       		.uleb128 0x3a
 2012 01ce 0B       		.uleb128 0xb
 2013 01cf 3B       		.uleb128 0x3b
 2014 01d0 05       		.uleb128 0x5
 2015 01d1 49       		.uleb128 0x49
 2016 01d2 13       		.uleb128 0x13
 2017 01d3 02       		.uleb128 0x2
 2018 01d4 06       		.uleb128 0x6
 2019 01d5 00       		.byte	0
 2020 01d6 00       		.byte	0
 2021 01d7 20       		.uleb128 0x20
 2022 01d8 34       		.uleb128 0x34
 2023 01d9 00       		.byte	0
 2024 01da 03       		.uleb128 0x3
 2025 01db 0E       		.uleb128 0xe
 2026 01dc 3A       		.uleb128 0x3a
 2027 01dd 0B       		.uleb128 0xb
 2028 01de 3B       		.uleb128 0x3b
 2029 01df 0B       		.uleb128 0xb
 2030 01e0 49       		.uleb128 0x49
 2031 01e1 13       		.uleb128 0x13
 2032 01e2 3F       		.uleb128 0x3f
 2033 01e3 0C       		.uleb128 0xc
 2034 01e4 3C       		.uleb128 0x3c
 2035 01e5 0C       		.uleb128 0xc
 2036 01e6 00       		.byte	0
 2037 01e7 00       		.byte	0
 2038 01e8 21       		.uleb128 0x21
 2039 01e9 34       		.uleb128 0x34
 2040 01ea 00       		.byte	0
 2041 01eb 03       		.uleb128 0x3
 2042 01ec 0E       		.uleb128 0xe
 2043 01ed 3A       		.uleb128 0x3a
 2044 01ee 0B       		.uleb128 0xb
ARM GAS  /var/folders/5n/p_75w94d66l9ssrldxqdhh700000gn/T//ccb1V42B.s 			page 37


 2045 01ef 3B       		.uleb128 0x3b
 2046 01f0 0B       		.uleb128 0xb
 2047 01f1 49       		.uleb128 0x49
 2048 01f2 13       		.uleb128 0x13
 2049 01f3 02       		.uleb128 0x2
 2050 01f4 0A       		.uleb128 0xa
 2051 01f5 00       		.byte	0
 2052 01f6 00       		.byte	0
 2053 01f7 00       		.byte	0
 2054              		.section	.debug_loc,"",%progbits
 2055              	.Ldebug_loc0:
 2056              	.LLST0:
 2057 0000 00000000 		.4byte	.LFB7
 2058 0004 04000000 		.4byte	.LCFI0
 2059 0008 0200     		.2byte	0x2
 2060 000a 7D       		.byte	0x7d
 2061 000b 00       		.sleb128 0
 2062 000c 04000000 		.4byte	.LCFI0
 2063 0010 80000000 		.4byte	.LFE7
 2064 0014 0200     		.2byte	0x2
 2065 0016 7D       		.byte	0x7d
 2066 0017 20       		.sleb128 32
 2067 0018 00000000 		.4byte	0
 2068 001c 00000000 		.4byte	0
 2069              	.LLST1:
 2070 0020 00000000 		.4byte	.LVL0
 2071 0024 20000000 		.4byte	.LVL3
 2072 0028 0100     		.2byte	0x1
 2073 002a 50       		.byte	0x50
 2074 002b 4E000000 		.4byte	.LVL6
 2075 002f 64000000 		.4byte	.LVL7
 2076 0033 0200     		.2byte	0x2
 2077 0035 30       		.byte	0x30
 2078 0036 9F       		.byte	0x9f
 2079 0037 68000000 		.4byte	.LVL8
 2080 003b 6E000000 		.4byte	.LVL9
 2081 003f 0200     		.2byte	0x2
 2082 0041 30       		.byte	0x30
 2083 0042 9F       		.byte	0x9f
 2084 0043 6E000000 		.4byte	.LVL9
 2085 0047 80000000 		.4byte	.LFE7
 2086 004b 0100     		.2byte	0x1
 2087 004d 58       		.byte	0x58
 2088 004e 00000000 		.4byte	0
 2089 0052 00000000 		.4byte	0
 2090              	.LLST2:
 2091 0056 00000000 		.4byte	.LVL0
 2092 005a 20000000 		.4byte	.LVL3
 2093 005e 0100     		.2byte	0x1
 2094 0060 51       		.byte	0x51
 2095 0061 6E000000 		.4byte	.LVL9
 2096 0065 80000000 		.4byte	.LFE7
 2097 0069 0100     		.2byte	0x1
 2098 006b 51       		.byte	0x51
 2099 006c 00000000 		.4byte	0
 2100 0070 00000000 		.4byte	0
 2101              	.LLST3:
ARM GAS  /var/folders/5n/p_75w94d66l9ssrldxqdhh700000gn/T//ccb1V42B.s 			page 38


 2102 0074 12000000 		.4byte	.LVL1
 2103 0078 20000000 		.4byte	.LVL3
 2104 007c 0500     		.2byte	0x5
 2105 007e 03       		.byte	0x3
 2106 007f 00000000 		.4byte	raw_pcbs
 2107 0083 20000000 		.4byte	.LVL3
 2108 0087 22000000 		.4byte	.LVL4
 2109 008b 0100     		.2byte	0x1
 2110 008d 54       		.byte	0x54
 2111 008e 22000000 		.4byte	.LVL4
 2112 0092 28000000 		.4byte	.LVL5
 2113 0096 0200     		.2byte	0x2
 2114 0098 74       		.byte	0x74
 2115 0099 0C       		.sleb128 12
 2116 009a 28000000 		.4byte	.LVL5
 2117 009e 64000000 		.4byte	.LVL7
 2118 00a2 0100     		.2byte	0x1
 2119 00a4 54       		.byte	0x54
 2120 00a5 64000000 		.4byte	.LVL7
 2121 00a9 68000000 		.4byte	.LVL8
 2122 00ad 0100     		.2byte	0x1
 2123 00af 50       		.byte	0x50
 2124 00b0 68000000 		.4byte	.LVL8
 2125 00b4 80000000 		.4byte	.LFE7
 2126 00b8 0100     		.2byte	0x1
 2127 00ba 54       		.byte	0x54
 2128 00bb 00000000 		.4byte	0
 2129 00bf 00000000 		.4byte	0
 2130              	.LLST4:
 2131 00c3 12000000 		.4byte	.LVL1
 2132 00c7 20000000 		.4byte	.LVL3
 2133 00cb 0200     		.2byte	0x2
 2134 00cd 30       		.byte	0x30
 2135 00ce 9F       		.byte	0x9f
 2136 00cf 20000000 		.4byte	.LVL3
 2137 00d3 28000000 		.4byte	.LVL5
 2138 00d7 0100     		.2byte	0x1
 2139 00d9 54       		.byte	0x54
 2140 00da 64000000 		.4byte	.LVL7
 2141 00de 68000000 		.4byte	.LVL8
 2142 00e2 0100     		.2byte	0x1
 2143 00e4 54       		.byte	0x54
 2144 00e5 6E000000 		.4byte	.LVL9
 2145 00e9 80000000 		.4byte	.LFE7
 2146 00ed 0200     		.2byte	0x2
 2147 00ef 30       		.byte	0x30
 2148 00f0 9F       		.byte	0x9f
 2149 00f1 00000000 		.4byte	0
 2150 00f5 00000000 		.4byte	0
 2151              	.LLST5:
 2152 00f9 12000000 		.4byte	.LVL1
 2153 00fd 20000000 		.4byte	.LVL3
 2154 0101 0200     		.2byte	0x2
 2155 0103 70       		.byte	0x70
 2156 0104 04       		.sleb128 4
 2157 0105 6E000000 		.4byte	.LVL9
 2158 0109 80000000 		.4byte	.LFE7
ARM GAS  /var/folders/5n/p_75w94d66l9ssrldxqdhh700000gn/T//ccb1V42B.s 			page 39


 2159 010d 0100     		.2byte	0x1
 2160 010f 53       		.byte	0x53
 2161 0110 00000000 		.4byte	0
 2162 0114 00000000 		.4byte	0
 2163              	.LLST6:
 2164 0118 12000000 		.4byte	.LVL1
 2165 011c 18000000 		.4byte	.LVL2
 2166 0120 0700     		.2byte	0x7
 2167 0122 76       		.byte	0x76
 2168 0123 00       		.sleb128 0
 2169 0124 48       		.byte	0x48
 2170 0125 24       		.byte	0x24
 2171 0126 48       		.byte	0x48
 2172 0127 25       		.byte	0x25
 2173 0128 9F       		.byte	0x9f
 2174 0129 6E000000 		.4byte	.LVL9
 2175 012d 80000000 		.4byte	.LFE7
 2176 0131 0700     		.2byte	0x7
 2177 0133 76       		.byte	0x76
 2178 0134 00       		.sleb128 0
 2179 0135 48       		.byte	0x48
 2180 0136 24       		.byte	0x24
 2181 0137 48       		.byte	0x48
 2182 0138 25       		.byte	0x25
 2183 0139 9F       		.byte	0x9f
 2184 013a 00000000 		.4byte	0
 2185 013e 00000000 		.4byte	0
 2186              	.LLST7:
 2187 0142 00000000 		.4byte	.LVL0
 2188 0146 4E000000 		.4byte	.LVL6
 2189 014a 0200     		.2byte	0x2
 2190 014c 30       		.byte	0x30
 2191 014d 9F       		.byte	0x9f
 2192 014e 4E000000 		.4byte	.LVL6
 2193 0152 64000000 		.4byte	.LVL7
 2194 0156 0200     		.2byte	0x2
 2195 0158 31       		.byte	0x31
 2196 0159 9F       		.byte	0x9f
 2197 015a 64000000 		.4byte	.LVL7
 2198 015e 68000000 		.4byte	.LVL8
 2199 0162 0200     		.2byte	0x2
 2200 0164 30       		.byte	0x30
 2201 0165 9F       		.byte	0x9f
 2202 0166 68000000 		.4byte	.LVL8
 2203 016a 6E000000 		.4byte	.LVL9
 2204 016e 0200     		.2byte	0x2
 2205 0170 31       		.byte	0x31
 2206 0171 9F       		.byte	0x9f
 2207 0172 6E000000 		.4byte	.LVL9
 2208 0176 80000000 		.4byte	.LFE7
 2209 017a 0200     		.2byte	0x2
 2210 017c 30       		.byte	0x30
 2211 017d 9F       		.byte	0x9f
 2212 017e 00000000 		.4byte	0
 2213 0182 00000000 		.4byte	0
 2214              	.LLST8:
 2215 0186 00000000 		.4byte	.LVL10
ARM GAS  /var/folders/5n/p_75w94d66l9ssrldxqdhh700000gn/T//ccb1V42B.s 			page 40


 2216 018a 08000000 		.4byte	.LVL12
 2217 018e 0100     		.2byte	0x1
 2218 0190 50       		.byte	0x50
 2219 0191 00000000 		.4byte	0
 2220 0195 00000000 		.4byte	0
 2221              	.LLST9:
 2222 0199 00000000 		.4byte	.LVL10
 2223 019d 04000000 		.4byte	.LVL11
 2224 01a1 0100     		.2byte	0x1
 2225 01a3 51       		.byte	0x51
 2226 01a4 00000000 		.4byte	0
 2227 01a8 00000000 		.4byte	0
 2228              	.LLST10:
 2229 01ac 00000000 		.4byte	.LVL13
 2230 01b0 08000000 		.4byte	.LVL15
 2231 01b4 0100     		.2byte	0x1
 2232 01b6 50       		.byte	0x50
 2233 01b7 00000000 		.4byte	0
 2234 01bb 00000000 		.4byte	0
 2235              	.LLST11:
 2236 01bf 00000000 		.4byte	.LVL13
 2237 01c3 04000000 		.4byte	.LVL14
 2238 01c7 0100     		.2byte	0x1
 2239 01c9 51       		.byte	0x51
 2240 01ca 00000000 		.4byte	0
 2241 01ce 00000000 		.4byte	0
 2242              	.LLST12:
 2243 01d2 00000000 		.4byte	.LFB11
 2244 01d6 04000000 		.4byte	.LCFI1
 2245 01da 0200     		.2byte	0x2
 2246 01dc 7D       		.byte	0x7d
 2247 01dd 00       		.sleb128 0
 2248 01de 04000000 		.4byte	.LCFI1
 2249 01e2 0A000000 		.4byte	.LCFI2
 2250 01e6 0200     		.2byte	0x2
 2251 01e8 7D       		.byte	0x7d
 2252 01e9 18       		.sleb128 24
 2253 01ea 0A000000 		.4byte	.LCFI2
 2254 01ee AC000000 		.4byte	.LFE11
 2255 01f2 0200     		.2byte	0x2
 2256 01f4 7D       		.byte	0x7d
 2257 01f5 28       		.sleb128 40
 2258 01f6 00000000 		.4byte	0
 2259 01fa 00000000 		.4byte	0
 2260              	.LLST13:
 2261 01fe 00000000 		.4byte	.LVL17
 2262 0202 0E000000 		.4byte	.LVL19
 2263 0206 0100     		.2byte	0x1
 2264 0208 50       		.byte	0x50
 2265 0209 0E000000 		.4byte	.LVL19
 2266 020d 4C000000 		.4byte	.LVL25
 2267 0211 0100     		.2byte	0x1
 2268 0213 57       		.byte	0x57
 2269 0214 6E000000 		.4byte	.LVL31
 2270 0218 AC000000 		.4byte	.LFE11
 2271 021c 0100     		.2byte	0x1
 2272 021e 57       		.byte	0x57
ARM GAS  /var/folders/5n/p_75w94d66l9ssrldxqdhh700000gn/T//ccb1V42B.s 			page 41


 2273 021f 00000000 		.4byte	0
 2274 0223 00000000 		.4byte	0
 2275              	.LLST14:
 2276 0227 00000000 		.4byte	.LVL17
 2277 022b 0C000000 		.4byte	.LVL18
 2278 022f 0100     		.2byte	0x1
 2279 0231 51       		.byte	0x51
 2280 0232 0C000000 		.4byte	.LVL18
 2281 0236 AC000000 		.4byte	.LFE11
 2282 023a 0100     		.2byte	0x1
 2283 023c 54       		.byte	0x54
 2284 023d 00000000 		.4byte	0
 2285 0241 00000000 		.4byte	0
 2286              	.LLST15:
 2287 0245 00000000 		.4byte	.LVL17
 2288 0249 13000000 		.4byte	.LVL20-1
 2289 024d 0100     		.2byte	0x1
 2290 024f 52       		.byte	0x52
 2291 0250 13000000 		.4byte	.LVL20-1
 2292 0254 AC000000 		.4byte	.LFE11
 2293 0258 0100     		.2byte	0x1
 2294 025a 58       		.byte	0x58
 2295 025b 00000000 		.4byte	0
 2296 025f 00000000 		.4byte	0
 2297              	.LLST16:
 2298 0263 5E000000 		.4byte	.LVL28
 2299 0267 62000000 		.4byte	.LVL29
 2300 026b 0100     		.2byte	0x1
 2301 026d 50       		.byte	0x50
 2302 026e 62000000 		.4byte	.LVL29
 2303 0272 66000000 		.4byte	.LVL30
 2304 0276 0100     		.2byte	0x1
 2305 0278 56       		.byte	0x56
 2306 0279 00000000 		.4byte	0
 2307 027d 00000000 		.4byte	0
 2308              	.LLST17:
 2309 0281 34000000 		.4byte	.LVL23
 2310 0285 50000000 		.4byte	.LVL26
 2311 0289 0100     		.2byte	0x1
 2312 028b 50       		.byte	0x50
 2313 028c 50000000 		.4byte	.LVL26
 2314 0290 5E000000 		.4byte	.LVL28
 2315 0294 0100     		.2byte	0x1
 2316 0296 56       		.byte	0x56
 2317 0297 82000000 		.4byte	.LVL32
 2318 029b 90000000 		.4byte	.LVL34
 2319 029f 0100     		.2byte	0x1
 2320 02a1 50       		.byte	0x50
 2321 02a2 98000000 		.4byte	.LVL35
 2322 02a6 9C000000 		.4byte	.LVL37
 2323 02aa 0100     		.2byte	0x1
 2324 02ac 50       		.byte	0x50
 2325 02ad 00000000 		.4byte	0
 2326 02b1 00000000 		.4byte	0
 2327              	.LLST18:
 2328 02b5 46000000 		.4byte	.LVL24
 2329 02b9 59000000 		.4byte	.LVL27-1
ARM GAS  /var/folders/5n/p_75w94d66l9ssrldxqdhh700000gn/T//ccb1V42B.s 			page 42


 2330 02bd 0100     		.2byte	0x1
 2331 02bf 51       		.byte	0x51
 2332 02c0 9A000000 		.4byte	.LVL36
 2333 02c4 9C000000 		.4byte	.LVL37
 2334 02c8 0100     		.2byte	0x1
 2335 02ca 51       		.byte	0x51
 2336 02cb 00000000 		.4byte	0
 2337 02cf 00000000 		.4byte	0
 2338              	.LLST19:
 2339 02d3 22000000 		.4byte	.LVL21
 2340 02d7 2E000000 		.4byte	.LVL22
 2341 02db 0100     		.2byte	0x1
 2342 02dd 50       		.byte	0x50
 2343 02de 2E000000 		.4byte	.LVL22
 2344 02e2 66000000 		.4byte	.LVL30
 2345 02e6 0100     		.2byte	0x1
 2346 02e8 55       		.byte	0x55
 2347 02e9 6E000000 		.4byte	.LVL31
 2348 02ed 88000000 		.4byte	.LVL33
 2349 02f1 0100     		.2byte	0x1
 2350 02f3 54       		.byte	0x54
 2351 02f4 88000000 		.4byte	.LVL33
 2352 02f8 9C000000 		.4byte	.LVL37
 2353 02fc 0100     		.2byte	0x1
 2354 02fe 55       		.byte	0x55
 2355 02ff 9C000000 		.4byte	.LVL37
 2356 0303 A1000000 		.4byte	.LVL38-1
 2357 0307 0100     		.2byte	0x1
 2358 0309 50       		.byte	0x50
 2359 030a A1000000 		.4byte	.LVL38-1
 2360 030e A4000000 		.4byte	.LVL39
 2361 0312 0100     		.2byte	0x1
 2362 0314 55       		.byte	0x55
 2363 0315 A4000000 		.4byte	.LVL39
 2364 0319 AC000000 		.4byte	.LFE11
 2365 031d 0100     		.2byte	0x1
 2366 031f 54       		.byte	0x54
 2367 0320 00000000 		.4byte	0
 2368 0324 00000000 		.4byte	0
 2369              	.LLST20:
 2370 0328 00000000 		.4byte	.LVL40
 2371 032c 05000000 		.4byte	.LVL42-1
 2372 0330 0100     		.2byte	0x1
 2373 0332 50       		.byte	0x50
 2374 0333 00000000 		.4byte	0
 2375 0337 00000000 		.4byte	0
 2376              	.LLST21:
 2377 033b 00000000 		.4byte	.LVL40
 2378 033f 05000000 		.4byte	.LVL41-1
 2379 0343 0100     		.2byte	0x1
 2380 0345 51       		.byte	0x51
 2381 0346 00000000 		.4byte	0
 2382 034a 00000000 		.4byte	0
 2383              	.LLST22:
 2384 034e 00000000 		.4byte	.LVL43
 2385 0352 1C000000 		.4byte	.LVL46
 2386 0356 0100     		.2byte	0x1
ARM GAS  /var/folders/5n/p_75w94d66l9ssrldxqdhh700000gn/T//ccb1V42B.s 			page 43


 2387 0358 50       		.byte	0x50
 2388 0359 1C000000 		.4byte	.LVL46
 2389 035d 1F000000 		.4byte	.LVL47-1
 2390 0361 0100     		.2byte	0x1
 2391 0363 51       		.byte	0x51
 2392 0364 20000000 		.4byte	.LVL47
 2393 0368 34000000 		.4byte	.LFE13
 2394 036c 0100     		.2byte	0x1
 2395 036e 50       		.byte	0x50
 2396 036f 00000000 		.4byte	0
 2397 0373 00000000 		.4byte	0
 2398              	.LLST23:
 2399 0377 0A000000 		.4byte	.LVL44
 2400 037b 0E000000 		.4byte	.LVL45
 2401 037f 0500     		.2byte	0x5
 2402 0381 03       		.byte	0x3
 2403 0382 00000000 		.4byte	raw_pcbs
 2404 0386 24000000 		.4byte	.LVL48
 2405 038a 2A000000 		.4byte	.LVL49
 2406 038e 0200     		.2byte	0x2
 2407 0390 70       		.byte	0x70
 2408 0391 0C       		.sleb128 12
 2409 0392 00000000 		.4byte	0
 2410 0396 00000000 		.4byte	0
 2411              	.LLST24:
 2412 039a 00000000 		.4byte	.LFB14
 2413 039e 02000000 		.4byte	.LCFI3
 2414 03a2 0200     		.2byte	0x2
 2415 03a4 7D       		.byte	0x7d
 2416 03a5 00       		.sleb128 0
 2417 03a6 02000000 		.4byte	.LCFI3
 2418 03aa 2C000000 		.4byte	.LFE14
 2419 03ae 0200     		.2byte	0x2
 2420 03b0 7D       		.byte	0x7d
 2421 03b1 10       		.sleb128 16
 2422 03b2 00000000 		.4byte	0
 2423 03b6 00000000 		.4byte	0
 2424              	.LLST25:
 2425 03ba 00000000 		.4byte	.LVL50
 2426 03be 06000000 		.4byte	.LVL51
 2427 03c2 0100     		.2byte	0x1
 2428 03c4 50       		.byte	0x50
 2429 03c5 00000000 		.4byte	0
 2430 03c9 00000000 		.4byte	0
 2431              	.LLST26:
 2432 03cd 0A000000 		.4byte	.LVL52
 2433 03d1 15000000 		.4byte	.LVL53-1
 2434 03d5 0100     		.2byte	0x1
 2435 03d7 50       		.byte	0x50
 2436 03d8 15000000 		.4byte	.LVL53-1
 2437 03dc 2C000000 		.4byte	.LFE14
 2438 03e0 0100     		.2byte	0x1
 2439 03e2 54       		.byte	0x54
 2440 03e3 00000000 		.4byte	0
 2441 03e7 00000000 		.4byte	0
 2442              		.section	.debug_aranges,"",%progbits
 2443 0000 54000000 		.4byte	0x54
ARM GAS  /var/folders/5n/p_75w94d66l9ssrldxqdhh700000gn/T//ccb1V42B.s 			page 44


 2444 0004 0200     		.2byte	0x2
 2445 0006 00000000 		.4byte	.Ldebug_info0
 2446 000a 04       		.byte	0x4
 2447 000b 00       		.byte	0
 2448 000c 0000     		.2byte	0
 2449 000e 0000     		.2byte	0
 2450 0010 00000000 		.4byte	.LFB7
 2451 0014 80000000 		.4byte	.LFE7-.LFB7
 2452 0018 00000000 		.4byte	.LFB8
 2453 001c 0A000000 		.4byte	.LFE8-.LFB8
 2454 0020 00000000 		.4byte	.LFB9
 2455 0024 0A000000 		.4byte	.LFE9-.LFB9
 2456 0028 00000000 		.4byte	.LFB10
 2457 002c 06000000 		.4byte	.LFE10-.LFB10
 2458 0030 00000000 		.4byte	.LFB11
 2459 0034 AC000000 		.4byte	.LFE11-.LFB11
 2460 0038 00000000 		.4byte	.LFB12
 2461 003c 06000000 		.4byte	.LFE12-.LFB12
 2462 0040 00000000 		.4byte	.LFB13
 2463 0044 34000000 		.4byte	.LFE13-.LFB13
 2464 0048 00000000 		.4byte	.LFB14
 2465 004c 2C000000 		.4byte	.LFE14-.LFB14
 2466 0050 00000000 		.4byte	0
 2467 0054 00000000 		.4byte	0
 2468              		.section	.debug_ranges,"",%progbits
 2469              	.Ldebug_ranges0:
 2470 0000 00000000 		.4byte	.LFB7
 2471 0004 80000000 		.4byte	.LFE7
 2472 0008 00000000 		.4byte	.LFB8
 2473 000c 0A000000 		.4byte	.LFE8
 2474 0010 00000000 		.4byte	.LFB9
 2475 0014 0A000000 		.4byte	.LFE9
 2476 0018 00000000 		.4byte	.LFB10
 2477 001c 06000000 		.4byte	.LFE10
 2478 0020 00000000 		.4byte	.LFB11
 2479 0024 AC000000 		.4byte	.LFE11
 2480 0028 00000000 		.4byte	.LFB12
 2481 002c 06000000 		.4byte	.LFE12
 2482 0030 00000000 		.4byte	.LFB13
 2483 0034 34000000 		.4byte	.LFE13
 2484 0038 00000000 		.4byte	.LFB14
 2485 003c 2C000000 		.4byte	.LFE14
 2486 0040 00000000 		.4byte	0
 2487 0044 00000000 		.4byte	0
 2488              		.section	.debug_line,"",%progbits
 2489              	.Ldebug_line0:
 2490 0000 98020000 		.section	.debug_str,"MS",%progbits,1
 2490      02004701 
 2490      00000201 
 2490      FB0E0D00 
 2490      01010101 
 2491              	.LASF37:
 2492 0000 61646472 		.ascii	"addr\000"
 2492      00
 2493              	.LASF15:
 2494 0005 75385F74 		.ascii	"u8_t\000"
 2494      00
ARM GAS  /var/folders/5n/p_75w94d66l9ssrldxqdhh700000gn/T//ccb1V42B.s 			page 45


 2495              	.LASF72:
 2496 000a 5F70726F 		.ascii	"_proto\000"
 2496      746F00
 2497              	.LASF62:
 2498 0011 68776164 		.ascii	"hwaddr\000"
 2498      647200
 2499              	.LASF2:
 2500 0018 696E7438 		.ascii	"int8_t\000"
 2500      5F7400
 2501              	.LASF60:
 2502 001f 73746174 		.ascii	"state\000"
 2502      6500
 2503              	.LASF65:
 2504 0025 6E657469 		.ascii	"netif_output_fn\000"
 2504      665F6F75 
 2504      74707574 
 2504      5F666E00 
 2505              	.LASF89:
 2506 0035 69706164 		.ascii	"ipaddr\000"
 2506      647200
 2507              	.LASF6:
 2508 003c 73686F72 		.ascii	"short int\000"
 2508      7420696E 
 2508      7400
 2509              	.LASF27:
 2510 0046 4D454D50 		.ascii	"MEMP_NETBUF\000"
 2510      5F4E4554 
 2510      42554600 
 2511              	.LASF57:
 2512 0052 696E7075 		.ascii	"input\000"
 2512      7400
 2513              	.LASF67:
 2514 0058 69705F68 		.ascii	"ip_hdr\000"
 2514      647200
 2515              	.LASF70:
 2516 005f 5F6F6666 		.ascii	"_offset\000"
 2516      73657400 
 2517              	.LASF78:
 2518 0067 72656D6F 		.ascii	"remote_ip\000"
 2518      74655F69 
 2518      7000
 2519              	.LASF102:
 2520 0071 2E2E2F2E 		.ascii	"../../ext/lwip/src/core/raw.c\000"
 2520      2E2F6578 
 2520      742F6C77 
 2520      69702F73 
 2520      72632F63 
 2521              	.LASF75:
 2522 008f 7261775F 		.ascii	"raw_recv_fn\000"
 2522      72656376 
 2522      5F666E00 
 2523              	.LASF18:
 2524 009b 7331365F 		.ascii	"s16_t\000"
 2524      7400
 2525              	.LASF61:
 2526 00a1 68776164 		.ascii	"hwaddr_len\000"
 2526      64725F6C 
ARM GAS  /var/folders/5n/p_75w94d66l9ssrldxqdhh700000gn/T//ccb1V42B.s 			page 46


 2526      656E00
 2527              	.LASF66:
 2528 00ac 6E657469 		.ascii	"netif_linkoutput_fn\000"
 2528      665F6C69 
 2528      6E6B6F75 
 2528      74707574 
 2528      5F666E00 
 2529              	.LASF69:
 2530 00c0 5F6C656E 		.ascii	"_len\000"
 2530      00
 2531              	.LASF31:
 2532 00c5 4D454D50 		.ascii	"MEMP_SYS_TIMEOUT\000"
 2532      5F535953 
 2532      5F54494D 
 2532      454F5554 
 2532      00
 2533              	.LASF26:
 2534 00d6 4D454D50 		.ascii	"MEMP_FRAG_PBUF\000"
 2534      5F465241 
 2534      475F5042 
 2534      554600
 2535              	.LASF94:
 2536 00e5 7261775F 		.ascii	"raw_recv\000"
 2536      72656376 
 2536      00
 2537              	.LASF45:
 2538 00ee 50425546 		.ascii	"PBUF_RAM\000"
 2538      5F52414D 
 2538      00
 2539              	.LASF103:
 2540 00f7 2F557365 		.ascii	"/Users/sin/Documents/Eclipse/Workspace/mabl-ChibiOS"
 2540      72732F73 
 2540      696E2F44 
 2540      6F63756D 
 2540      656E7473 
 2541 012a 2D322E35 		.ascii	"-2.5.1/demos/ARMCM4-STM32F407-LWIP\000"
 2541      2E312F64 
 2541      656D6F73 
 2541      2F41524D 
 2541      434D342D 
 2542              	.LASF35:
 2543 014d 69705F61 		.ascii	"ip_addr\000"
 2543      64647200 
 2544              	.LASF23:
 2545 0155 4D454D50 		.ascii	"MEMP_TCP_PCB_LISTEN\000"
 2545      5F544350 
 2545      5F504342 
 2545      5F4C4953 
 2545      54454E00 
 2546              	.LASF71:
 2547 0169 5F74746C 		.ascii	"_ttl\000"
 2547      00
 2548              	.LASF44:
 2549 016e 50425546 		.ascii	"PBUF_RAW\000"
 2549      5F524157 
 2549      00
 2550              	.LASF98:
ARM GAS  /var/folders/5n/p_75w94d66l9ssrldxqdhh700000gn/T//ccb1V42B.s 			page 47


 2551 0177 63757272 		.ascii	"current_iphdr_src\000"
 2551      656E745F 
 2551      69706864 
 2551      725F7372 
 2551      6300
 2552              	.LASF1:
 2553 0189 7369676E 		.ascii	"signed char\000"
 2553      65642063 
 2553      68617200 
 2554              	.LASF21:
 2555 0195 4D454D50 		.ascii	"MEMP_UDP_PCB\000"
 2555      5F554450 
 2555      5F504342 
 2555      00
 2556              	.LASF59:
 2557 01a2 6C696E6B 		.ascii	"linkoutput\000"
 2557      6F757470 
 2557      757400
 2558              	.LASF16:
 2559 01ad 73385F74 		.ascii	"s8_t\000"
 2559      00
 2560              	.LASF84:
 2561 01b2 69706864 		.ascii	"iphdr\000"
 2561      7200
 2562              	.LASF77:
 2563 01b8 6C6F6361 		.ascii	"local_ip\000"
 2563      6C5F6970 
 2563      00
 2564              	.LASF12:
 2565 01c1 6C6F6E67 		.ascii	"long long int\000"
 2565      206C6F6E 
 2565      6720696E 
 2565      7400
 2566              	.LASF68:
 2567 01cf 5F765F68 		.ascii	"_v_hl_tos\000"
 2567      6C5F746F 
 2567      7300
 2568              	.LASF52:
 2569 01d9 746F745F 		.ascii	"tot_len\000"
 2569      6C656E00 
 2570              	.LASF93:
 2571 01e1 7261775F 		.ascii	"raw_send\000"
 2571      73656E64 
 2571      00
 2572              	.LASF9:
 2573 01ea 6C6F6E67 		.ascii	"long int\000"
 2573      20696E74 
 2573      00
 2574              	.LASF38:
 2575 01f3 69705F61 		.ascii	"ip_addr_t\000"
 2575      6464725F 
 2575      7400
 2576              	.LASF95:
 2577 01fd 7261775F 		.ascii	"raw_remove\000"
 2577      72656D6F 
 2577      766500
 2578              	.LASF85:
ARM GAS  /var/folders/5n/p_75w94d66l9ssrldxqdhh700000gn/T//ccb1V42B.s 			page 48


 2579 0208 70726F74 		.ascii	"proto\000"
 2579      6F00
 2580              	.LASF74:
 2581 020e 64657374 		.ascii	"dest\000"
 2581      00
 2582              	.LASF73:
 2583 0213 5F63686B 		.ascii	"_chksum\000"
 2583      73756D00 
 2584              	.LASF63:
 2585 021b 6E616D65 		.ascii	"name\000"
 2585      00
 2586              	.LASF4:
 2587 0220 756E7369 		.ascii	"unsigned char\000"
 2587      676E6564 
 2587      20636861 
 2587      7200
 2588              	.LASF64:
 2589 022e 6E657469 		.ascii	"netif_input_fn\000"
 2589      665F696E 
 2589      7075745F 
 2589      666E00
 2590              	.LASF88:
 2591 023d 7261775F 		.ascii	"raw_bind\000"
 2591      62696E64 
 2591      00
 2592              	.LASF81:
 2593 0246 72656376 		.ascii	"recv\000"
 2593      00
 2594              	.LASF34:
 2595 024b 4D454D50 		.ascii	"MEMP_MAX\000"
 2595      5F4D4158 
 2595      00
 2596              	.LASF87:
 2597 0254 7261775F 		.ascii	"raw_input\000"
 2597      696E7075 
 2597      7400
 2598              	.LASF28:
 2599 025e 4D454D50 		.ascii	"MEMP_NETCONN\000"
 2599      5F4E4554 
 2599      434F4E4E 
 2599      00
 2600              	.LASF54:
 2601 026b 666C6167 		.ascii	"flags\000"
 2601      7300
 2602              	.LASF13:
 2603 0271 6C6F6E67 		.ascii	"long long unsigned int\000"
 2603      206C6F6E 
 2603      6720756E 
 2603      7369676E 
 2603      65642069 
 2604              	.LASF10:
 2605 0288 75696E74 		.ascii	"uint32_t\000"
 2605      33325F74 
 2605      00
 2606              	.LASF0:
 2607 0291 756E7369 		.ascii	"unsigned int\000"
 2607      676E6564 
ARM GAS  /var/folders/5n/p_75w94d66l9ssrldxqdhh700000gn/T//ccb1V42B.s 			page 49


 2607      20696E74 
 2607      00
 2608              	.LASF7:
 2609 029e 75696E74 		.ascii	"uint16_t\000"
 2609      31365F74 
 2609      00
 2610              	.LASF86:
 2611 02a7 65617465 		.ascii	"eaten\000"
 2611      6E00
 2612              	.LASF47:
 2613 02ad 50425546 		.ascii	"PBUF_REF\000"
 2613      5F524546 
 2613      00
 2614              	.LASF96:
 2615 02b6 70636232 		.ascii	"pcb2\000"
 2615      00
 2616              	.LASF82:
 2617 02bb 72656376 		.ascii	"recv_arg\000"
 2617      5F617267 
 2617      00
 2618              	.LASF48:
 2619 02c4 50425546 		.ascii	"PBUF_POOL\000"
 2619      5F504F4F 
 2619      4C00
 2620              	.LASF25:
 2621 02ce 4D454D50 		.ascii	"MEMP_REASSDATA\000"
 2621      5F524541 
 2621      53534441 
 2621      544100
 2622              	.LASF40:
 2623 02dd 6572725F 		.ascii	"err_t\000"
 2623      7400
 2624              	.LASF14:
 2625 02e3 63686172 		.ascii	"char\000"
 2625      00
 2626              	.LASF92:
 2627 02e8 7372635F 		.ascii	"src_ip\000"
 2627      697000
 2628              	.LASF53:
 2629 02ef 74797065 		.ascii	"type\000"
 2629      00
 2630              	.LASF29:
 2631 02f4 4D454D50 		.ascii	"MEMP_TCPIP_MSG_API\000"
 2631      5F544350 
 2631      49505F4D 
 2631      53475F41 
 2631      504900
 2632              	.LASF100:
 2633 0307 7261775F 		.ascii	"raw_pcbs\000"
 2633      70636273 
 2633      00
 2634              	.LASF8:
 2635 0310 73686F72 		.ascii	"short unsigned int\000"
 2635      7420756E 
 2635      7369676E 
 2635      65642069 
 2635      6E7400
ARM GAS  /var/folders/5n/p_75w94d66l9ssrldxqdhh700000gn/T//ccb1V42B.s 			page 50


 2636              	.LASF91:
 2637 0323 7261775F 		.ascii	"raw_sendto\000"
 2637      73656E64 
 2637      746F00
 2638              	.LASF5:
 2639 032e 696E7431 		.ascii	"int16_t\000"
 2639      365F7400 
 2640              	.LASF32:
 2641 0336 4D454D50 		.ascii	"MEMP_PBUF\000"
 2641      5F504255 
 2641      4600
 2642              	.LASF80:
 2643 0340 70726F74 		.ascii	"protocol\000"
 2643      6F636F6C 
 2643      00
 2644              	.LASF41:
 2645 0349 50425546 		.ascii	"PBUF_TRANSPORT\000"
 2645      5F545241 
 2645      4E53504F 
 2645      525400
 2646              	.LASF42:
 2647 0358 50425546 		.ascii	"PBUF_IP\000"
 2647      5F495000 
 2648              	.LASF11:
 2649 0360 6C6F6E67 		.ascii	"long unsigned int\000"
 2649      20756E73 
 2649      69676E65 
 2649      6420696E 
 2649      7400
 2650              	.LASF90:
 2651 0372 7261775F 		.ascii	"raw_connect\000"
 2651      636F6E6E 
 2651      65637400 
 2652              	.LASF97:
 2653 037e 7261775F 		.ascii	"raw_new\000"
 2653      6E657700 
 2654              	.LASF39:
 2655 0386 69705F61 		.ascii	"ip_addr_p_t\000"
 2655      6464725F 
 2655      705F7400 
 2656              	.LASF20:
 2657 0392 4D454D50 		.ascii	"MEMP_RAW_PCB\000"
 2657      5F524157 
 2657      5F504342 
 2657      00
 2658              	.LASF101:
 2659 039f 474E5520 		.ascii	"GNU C 4.6.2 20111004 (prerelease)\000"
 2659      4320342E 
 2659      362E3220 
 2659      32303131 
 2659      31303034 
 2660              	.LASF55:
 2661 03c1 6E657469 		.ascii	"netif\000"
 2661      6600
 2662              	.LASF56:
 2663 03c7 6E65746D 		.ascii	"netmask\000"
 2663      61736B00 
ARM GAS  /var/folders/5n/p_75w94d66l9ssrldxqdhh700000gn/T//ccb1V42B.s 			page 51


 2664              	.LASF19:
 2665 03cf 7533325F 		.ascii	"u32_t\000"
 2665      7400
 2666              	.LASF3:
 2667 03d5 75696E74 		.ascii	"uint8_t\000"
 2667      385F7400 
 2668              	.LASF17:
 2669 03dd 7531365F 		.ascii	"u16_t\000"
 2669      7400
 2670              	.LASF33:
 2671 03e3 4D454D50 		.ascii	"MEMP_PBUF_POOL\000"
 2671      5F504255 
 2671      465F504F 
 2671      4F4C00
 2672              	.LASF24:
 2673 03f2 4D454D50 		.ascii	"MEMP_TCP_SEG\000"
 2673      5F544350 
 2673      5F534547 
 2673      00
 2674              	.LASF99:
 2675 03ff 63757272 		.ascii	"current_iphdr_dest\000"
 2675      656E745F 
 2675      69706864 
 2675      725F6465 
 2675      737400
 2676              	.LASF30:
 2677 0412 4D454D50 		.ascii	"MEMP_TCPIP_MSG_INPKT\000"
 2677      5F544350 
 2677      49505F4D 
 2677      53475F49 
 2677      4E504B54 
 2678              	.LASF79:
 2679 0427 736F5F6F 		.ascii	"so_options\000"
 2679      7074696F 
 2679      6E7300
 2680              	.LASF58:
 2681 0432 6F757470 		.ascii	"output\000"
 2681      757400
 2682              	.LASF22:
 2683 0439 4D454D50 		.ascii	"MEMP_TCP_PCB\000"
 2683      5F544350 
 2683      5F504342 
 2683      00
 2684              	.LASF76:
 2685 0446 7261775F 		.ascii	"raw_pcb\000"
 2685      70636200 
 2686              	.LASF36:
 2687 044e 69705F61 		.ascii	"ip_addr_packed\000"
 2687      6464725F 
 2687      7061636B 
 2687      656400
 2688              	.LASF83:
 2689 045d 70726576 		.ascii	"prev\000"
 2689      00
 2690              	.LASF46:
 2691 0462 50425546 		.ascii	"PBUF_ROM\000"
 2691      5F524F4D 
ARM GAS  /var/folders/5n/p_75w94d66l9ssrldxqdhh700000gn/T//ccb1V42B.s 			page 52


 2691      00
 2692              	.LASF51:
 2693 046b 7061796C 		.ascii	"payload\000"
 2693      6F616400 
 2694              	.LASF50:
 2695 0473 6E657874 		.ascii	"next\000"
 2695      00
 2696              	.LASF49:
 2697 0478 70627566 		.ascii	"pbuf\000"
 2697      00
 2698              	.LASF43:
 2699 047d 50425546 		.ascii	"PBUF_LINK\000"
 2699      5F4C494E 
 2699      4B00
 2700              		.ident	"GCC: (Linaro GCC 4.6-2011.10) 4.6.2 20111004 (prerelease)"
ARM GAS  /var/folders/5n/p_75w94d66l9ssrldxqdhh700000gn/T//ccb1V42B.s 			page 53


DEFINED SYMBOLS
                            *ABS*:0000000000000000 raw.c
/var/folders/5n/p_75w94d66l9ssrldxqdhh700000gn/T//ccb1V42B.s:18     .text.raw_input:0000000000000000 $t
/var/folders/5n/p_75w94d66l9ssrldxqdhh700000gn/T//ccb1V42B.s:24     .text.raw_input:0000000000000000 raw_input
/var/folders/5n/p_75w94d66l9ssrldxqdhh700000gn/T//ccb1V42B.s:134    .text.raw_input:0000000000000074 $d
/var/folders/5n/p_75w94d66l9ssrldxqdhh700000gn/T//ccb1V42B.s:141    .text.raw_bind:0000000000000000 $t
/var/folders/5n/p_75w94d66l9ssrldxqdhh700000gn/T//ccb1V42B.s:147    .text.raw_bind:0000000000000000 raw_bind
/var/folders/5n/p_75w94d66l9ssrldxqdhh700000gn/T//ccb1V42B.s:171    .text.raw_connect:0000000000000000 $t
/var/folders/5n/p_75w94d66l9ssrldxqdhh700000gn/T//ccb1V42B.s:177    .text.raw_connect:0000000000000000 raw_connect
/var/folders/5n/p_75w94d66l9ssrldxqdhh700000gn/T//ccb1V42B.s:201    .text.raw_recv:0000000000000000 $t
/var/folders/5n/p_75w94d66l9ssrldxqdhh700000gn/T//ccb1V42B.s:207    .text.raw_recv:0000000000000000 raw_recv
/var/folders/5n/p_75w94d66l9ssrldxqdhh700000gn/T//ccb1V42B.s:225    .text.raw_sendto:0000000000000000 $t
/var/folders/5n/p_75w94d66l9ssrldxqdhh700000gn/T//ccb1V42B.s:231    .text.raw_sendto:0000000000000000 raw_sendto
/var/folders/5n/p_75w94d66l9ssrldxqdhh700000gn/T//ccb1V42B.s:384    .text.raw_send:0000000000000000 $t
/var/folders/5n/p_75w94d66l9ssrldxqdhh700000gn/T//ccb1V42B.s:390    .text.raw_send:0000000000000000 raw_send
/var/folders/5n/p_75w94d66l9ssrldxqdhh700000gn/T//ccb1V42B.s:409    .text.raw_remove:0000000000000000 $t
/var/folders/5n/p_75w94d66l9ssrldxqdhh700000gn/T//ccb1V42B.s:415    .text.raw_remove:0000000000000000 raw_remove
/var/folders/5n/p_75w94d66l9ssrldxqdhh700000gn/T//ccb1V42B.s:474    .text.raw_remove:0000000000000030 $d
/var/folders/5n/p_75w94d66l9ssrldxqdhh700000gn/T//ccb1V42B.s:479    .text.raw_new:0000000000000000 $t
/var/folders/5n/p_75w94d66l9ssrldxqdhh700000gn/T//ccb1V42B.s:485    .text.raw_new:0000000000000000 raw_new
/var/folders/5n/p_75w94d66l9ssrldxqdhh700000gn/T//ccb1V42B.s:534    .text.raw_new:0000000000000028 $d
/var/folders/5n/p_75w94d66l9ssrldxqdhh700000gn/T//ccb1V42B.s:539    .bss.raw_pcbs:0000000000000000 $d
/var/folders/5n/p_75w94d66l9ssrldxqdhh700000gn/T//ccb1V42B.s:543    .bss.raw_pcbs:0000000000000000 raw_pcbs
                     .debug_frame:0000000000000010 $d
/var/folders/5n/p_75w94d66l9ssrldxqdhh700000gn/T//ccb1V42B.s:478    .text.raw_remove:0000000000000034 $t
/var/folders/5n/p_75w94d66l9ssrldxqdhh700000gn/T//ccb1V42B.s:538    .text.raw_new:000000000000002c $t

UNDEFINED SYMBOLS
current_iphdr_src
current_iphdr_dest
pbuf_header
pbuf_alloc
ip_route
ip_output_if
pbuf_free
pbuf_chain
port_halt
memp_free
memp_malloc
memset
