ARM GAS  /var/folders/5n/p_75w94d66l9ssrldxqdhh700000gn/T//ccnXI7YX.s 			page 1


   1              		.syntax unified
   2              		.cpu cortex-m4
   3              		.fpu softvfp
   4              		.eabi_attribute 20, 1
   5              		.eabi_attribute 21, 1
   6              		.eabi_attribute 23, 3
   7              		.eabi_attribute 24, 1
   8              		.eabi_attribute 25, 1
   9              		.eabi_attribute 26, 1
  10              		.eabi_attribute 30, 2
  11              		.eabi_attribute 18, 4
  12              		.thumb
  13              		.file	"serial.c"
  14              		.text
  15              	.Ltext0:
  16              		.cfi_sections	.debug_frame
  17              		.section	.text.readt,"ax",%progbits
  18              		.align	2
  19              		.p2align 4,,15
  20              		.thumb
  21              		.thumb_func
  22              		.type	readt, %function
  23              	readt:
  24              	.LFB125:
  25              		.file 1 "../../os/hal/src/serial.c"
  26              		.loc 1 92 0
  27              		.cfi_startproc
  28              		@ args = 0, pretend = 0, frame = 0
  29              		@ frame_needed = 0, uses_anonymous_args = 0
  30              		@ link register save eliminated.
  31              	.LVL0:
  32              		.loc 1 94 0
  33 0000 0C30     		adds	r0, r0, #12
  34              	.LVL1:
  35              		.loc 1 95 0
  36              		.loc 1 94 0
  37 0002 FFF7FEBF 		b	chIQReadTimeout
  38              	.LVL2:
  39              	.LVL3:
  40              	.LVL4:
  41              	.LVL5:
  42              		.cfi_endproc
  43              	.LFE125:
  44              		.size	readt, .-readt
  45 0006 00BFAFF3 		.section	.text.read,"ax",%progbits
  45      0080AFF3 
  45      0080
  46              		.align	2
  47              		.p2align 4,,15
  48              		.thumb
  49              		.thumb_func
  50              		.type	read, %function
  51              	read:
  52              	.LFB119:
  53              		.loc 1 61 0
  54              		.cfi_startproc
  55              		@ args = 0, pretend = 0, frame = 0
ARM GAS  /var/folders/5n/p_75w94d66l9ssrldxqdhh700000gn/T//ccnXI7YX.s 			page 2


  56              		@ frame_needed = 0, uses_anonymous_args = 0
  57              		@ link register save eliminated.
  58              	.LVL6:
  59              		.loc 1 63 0
  60 0000 0C30     		adds	r0, r0, #12
  61              	.LVL7:
  62 0002 4FF0FF33 		mov	r3, #-1
  63              		.loc 1 65 0
  64              		.loc 1 63 0
  65 0006 FFF7FEBF 		b	chIQReadTimeout
  66              	.LVL8:
  67              	.LVL9:
  68              	.LVL10:
  69              		.cfi_endproc
  70              	.LFE119:
  71              		.size	read, .-read
  72 000a 00BFAFF3 		.section	.text.writet,"ax",%progbits
  72      0080
  73              		.align	2
  74              		.p2align 4,,15
  75              		.thumb
  76              		.thumb_func
  77              		.type	writet, %function
  78              	writet:
  79              	.LFB124:
  80              		.loc 1 87 0
  81              		.cfi_startproc
  82              		@ args = 0, pretend = 0, frame = 0
  83              		@ frame_needed = 0, uses_anonymous_args = 0
  84              		@ link register save eliminated.
  85              	.LVL11:
  86              		.loc 1 89 0
  87 0000 3030     		adds	r0, r0, #48
  88              	.LVL12:
  89              		.loc 1 90 0
  90              		.loc 1 89 0
  91 0002 FFF7FEBF 		b	chOQWriteTimeout
  92              	.LVL13:
  93              	.LVL14:
  94              	.LVL15:
  95              	.LVL16:
  96              		.cfi_endproc
  97              	.LFE124:
  98              		.size	writet, .-writet
  99 0006 00BFAFF3 		.section	.text.write,"ax",%progbits
  99      0080AFF3 
  99      0080
 100              		.align	2
 101              		.p2align 4,,15
 102              		.thumb
 103              		.thumb_func
 104              		.type	write, %function
 105              	write:
 106              	.LFB118:
 107              		.loc 1 55 0
 108              		.cfi_startproc
 109              		@ args = 0, pretend = 0, frame = 0
ARM GAS  /var/folders/5n/p_75w94d66l9ssrldxqdhh700000gn/T//ccnXI7YX.s 			page 3


 110              		@ frame_needed = 0, uses_anonymous_args = 0
 111              		@ link register save eliminated.
 112              	.LVL17:
 113              		.loc 1 57 0
 114 0000 3030     		adds	r0, r0, #48
 115              	.LVL18:
 116 0002 4FF0FF33 		mov	r3, #-1
 117              		.loc 1 59 0
 118              		.loc 1 57 0
 119 0006 FFF7FEBF 		b	chOQWriteTimeout
 120              	.LVL19:
 121              	.LVL20:
 122              	.LVL21:
 123              		.cfi_endproc
 124              	.LFE118:
 125              		.size	write, .-write
 126 000a 00BFAFF3 		.section	.text.gett,"ax",%progbits
 126      0080
 127              		.align	2
 128              		.p2align 4,,15
 129              		.thumb
 130              		.thumb_func
 131              		.type	gett, %function
 132              	gett:
 133              	.LFB123:
 134              		.loc 1 82 0
 135              		.cfi_startproc
 136              		@ args = 0, pretend = 0, frame = 0
 137              		@ frame_needed = 0, uses_anonymous_args = 0
 138              		@ link register save eliminated.
 139              	.LVL22:
 140              		.loc 1 84 0
 141 0000 0C30     		adds	r0, r0, #12
 142              	.LVL23:
 143              		.loc 1 85 0
 144              		.loc 1 84 0
 145 0002 FFF7FEBF 		b	chIQGetTimeout
 146              	.LVL24:
 147              	.LVL25:
 148              		.cfi_endproc
 149              	.LFE123:
 150              		.size	gett, .-gett
 151 0006 00BFAFF3 		.section	.text.get,"ax",%progbits
 151      0080AFF3 
 151      0080
 152              		.align	2
 153              		.p2align 4,,15
 154              		.thumb
 155              		.thumb_func
 156              		.type	get, %function
 157              	get:
 158              	.LFB121:
 159              		.loc 1 72 0
 160              		.cfi_startproc
 161              		@ args = 0, pretend = 0, frame = 0
 162              		@ frame_needed = 0, uses_anonymous_args = 0
 163              		@ link register save eliminated.
ARM GAS  /var/folders/5n/p_75w94d66l9ssrldxqdhh700000gn/T//ccnXI7YX.s 			page 4


 164              	.LVL26:
 165              		.loc 1 74 0
 166 0000 0C30     		adds	r0, r0, #12
 167              	.LVL27:
 168 0002 4FF0FF31 		mov	r1, #-1
 169              		.loc 1 75 0
 170              		.loc 1 74 0
 171 0006 FFF7FEBF 		b	chIQGetTimeout
 172              	.LVL28:
 173              		.cfi_endproc
 174              	.LFE121:
 175              		.size	get, .-get
 176 000a 00BFAFF3 		.section	.text.putt,"ax",%progbits
 176      0080
 177              		.align	2
 178              		.p2align 4,,15
 179              		.thumb
 180              		.thumb_func
 181              		.type	putt, %function
 182              	putt:
 183              	.LFB122:
 184              		.loc 1 77 0
 185              		.cfi_startproc
 186              		@ args = 0, pretend = 0, frame = 0
 187              		@ frame_needed = 0, uses_anonymous_args = 0
 188              		@ link register save eliminated.
 189              	.LVL29:
 190              		.loc 1 79 0
 191 0000 3030     		adds	r0, r0, #48
 192              	.LVL30:
 193              		.loc 1 80 0
 194              		.loc 1 79 0
 195 0002 FFF7FEBF 		b	chOQPutTimeout
 196              	.LVL31:
 197              	.LVL32:
 198              	.LVL33:
 199              		.cfi_endproc
 200              	.LFE122:
 201              		.size	putt, .-putt
 202 0006 00BFAFF3 		.section	.text.put,"ax",%progbits
 202      0080AFF3 
 202      0080
 203              		.align	2
 204              		.p2align 4,,15
 205              		.thumb
 206              		.thumb_func
 207              		.type	put, %function
 208              	put:
 209              	.LFB120:
 210              		.loc 1 67 0
 211              		.cfi_startproc
 212              		@ args = 0, pretend = 0, frame = 0
 213              		@ frame_needed = 0, uses_anonymous_args = 0
 214              		@ link register save eliminated.
 215              	.LVL34:
 216              		.loc 1 69 0
 217 0000 3030     		adds	r0, r0, #48
ARM GAS  /var/folders/5n/p_75w94d66l9ssrldxqdhh700000gn/T//ccnXI7YX.s 			page 5


 218              	.LVL35:
 219 0002 4FF0FF32 		mov	r2, #-1
 220              		.loc 1 70 0
 221              		.loc 1 69 0
 222 0006 FFF7FEBF 		b	chOQPutTimeout
 223              	.LVL36:
 224              	.LVL37:
 225              		.cfi_endproc
 226              	.LFE120:
 227              		.size	put, .-put
 228 000a 00BFAFF3 		.section	.text.sdInit,"ax",%progbits
 228      0080
 229              		.align	2
 230              		.p2align 4,,15
 231              		.global	sdInit
 232              		.thumb
 233              		.thumb_func
 234              		.type	sdInit, %function
 235              	sdInit:
 236              	.LFB126:
 237              		.loc 1 113 0
 238              		.cfi_startproc
 239              		@ args = 0, pretend = 0, frame = 0
 240              		@ frame_needed = 0, uses_anonymous_args = 0
 241              		@ link register save eliminated.
 242              		.loc 1 116 0
 243              		.loc 1 115 0
 244 0000 FFF7FEBF 		b	sd_lld_init
 245              		.cfi_endproc
 246              	.LFE126:
 247              		.size	sdInit, .-sdInit
 248 0004 AFF30080 		.section	.text.sdObjectInit,"ax",%progbits
 248      AFF30080 
 248      AFF30080 
 249              		.align	2
 250              		.p2align 4,,15
 251              		.global	sdObjectInit
 252              		.thumb
 253              		.thumb_func
 254              		.type	sdObjectInit, %function
 255              	sdObjectInit:
 256              	.LFB127:
 257              		.loc 1 133 0
 258              		.cfi_startproc
 259              		@ args = 0, pretend = 0, frame = 0
 260              		@ frame_needed = 0, uses_anonymous_args = 0
 261              	.LVL38:
 262 0000 70B5     		push	{r4, r5, r6, lr}
 263              	.LCFI0:
 264              		.cfi_def_cfa_offset 16
 265              		.cfi_offset 14, -4
 266              		.cfi_offset 6, -8
 267              		.cfi_offset 5, -12
 268              		.cfi_offset 4, -16
 269              		.loc 1 135 0
 270 0002 40F20003 		movw	r3, #:lower16:.LANCHOR0
 271 0006 0646     		mov	r6, r0
ARM GAS  /var/folders/5n/p_75w94d66l9ssrldxqdhh700000gn/T//ccnXI7YX.s 			page 6


 272 0008 C0F20003 		movt	r3, #:upper16:.LANCHOR0
 273              		.loc 1 133 0
 274 000c 0446     		mov	r4, r0
 275              		.loc 1 135 0
 276 000e 46F8043B 		str	r3, [r6], #4
 277              		.loc 1 133 0
 278 0012 82B0     		sub	sp, sp, #8
 279              	.LCFI1:
 280              		.cfi_def_cfa_offset 24
 281              		.loc 1 136 0
 282 0014 6660     		str	r6, [r4, #4]
 283              		.loc 1 137 0
 284 0016 0126     		movs	r6, #1
 285              		.loc 1 133 0
 286 0018 0B46     		mov	r3, r1
 287 001a 1546     		mov	r5, r2
 288              		.loc 1 138 0
 289 001c 04F15401 		add	r1, r4, #84
 290              	.LVL39:
 291 0020 1022     		movs	r2, #16
 292              	.LVL40:
 293              		.loc 1 137 0
 294 0022 2672     		strb	r6, [r4, #8]
 295              		.loc 1 138 0
 296 0024 00F10C00 		add	r0, r0, #12
 297              	.LVL41:
 298 0028 0094     		str	r4, [sp, #0]
 299 002a FFF7FEFF 		bl	chIQInit
 300              	.LVL42:
 301              		.loc 1 139 0
 302 002e 04F13000 		add	r0, r4, #48
 303 0032 04F16401 		add	r1, r4, #100
 304 0036 1022     		movs	r2, #16
 305 0038 2B46     		mov	r3, r5
 306 003a 0094     		str	r4, [sp, #0]
 307 003c FFF7FEFF 		bl	chOQInit
 308              		.loc 1 140 0
 309 0040 02B0     		add	sp, sp, #8
 310 0042 70BD     		pop	{r4, r5, r6, pc}
 311              		.cfi_endproc
 312              	.LFE127:
 313              		.size	sdObjectInit, .-sdObjectInit
 314 0044 AFF30080 		.section	.text.sdStart,"ax",%progbits
 314      AFF30080 
 314      AFF30080 
 315              		.align	2
 316              		.p2align 4,,15
 317              		.global	sdStart
 318              		.thumb
 319              		.thumb_func
 320              		.type	sdStart, %function
 321              	sdStart:
 322              	.LFB128:
 323              		.loc 1 152 0
 324              		.cfi_startproc
 325              		@ args = 0, pretend = 0, frame = 0
 326              		@ frame_needed = 0, uses_anonymous_args = 0
ARM GAS  /var/folders/5n/p_75w94d66l9ssrldxqdhh700000gn/T//ccnXI7YX.s 			page 7


 327              	.LVL43:
 328 0000 10B5     		push	{r4, lr}
 329              	.LCFI2:
 330              		.cfi_def_cfa_offset 8
 331              		.cfi_offset 14, -4
 332              		.cfi_offset 4, -8
 333              	.LBB2:
 334              		.loc 1 156 0
 335 0002 2023     		movs	r3, #32
 336              	.LVL44:
 337              	.LBE2:
 338              		.loc 1 152 0
 339 0004 0446     		mov	r4, r0
 340              	.LBB3:
 341              		.loc 1 156 0
 342              	@ 156 "../../os/hal/src/serial.c" 1
 343 0006 83F31188 		msr     BASEPRI, r3
 344              	@ 0 "" 2
 345              	.LVL45:
 346              		.thumb
 347              	.LBE3:
 348              		.loc 1 160 0
 349 000a FFF7FEFF 		bl	sd_lld_start
 350              	.LVL46:
 351              		.loc 1 161 0
 352 000e 0223     		movs	r3, #2
 353 0010 2372     		strb	r3, [r4, #8]
 354              	.LBB4:
 355              		.loc 1 162 0
 356 0012 0023     		movs	r3, #0
 357              	.LVL47:
 358              	@ 162 "../../os/hal/src/serial.c" 1
 359 0014 83F31188 		msr     BASEPRI, r3
 360              	@ 0 "" 2
 361              	.LVL48:
 362              		.thumb
 363              	.LBE4:
 364              		.loc 1 163 0
 365 0018 10BD     		pop	{r4, pc}
 366              		.cfi_endproc
 367              	.LFE128:
 368              		.size	sdStart, .-sdStart
 369 001a 00BFAFF3 		.section	.text.sdStop,"ax",%progbits
 369      0080
 370              		.align	2
 371              		.p2align 4,,15
 372              		.global	sdStop
 373              		.thumb
 374              		.thumb_func
 375              		.type	sdStop, %function
 376              	sdStop:
 377              	.LFB129:
 378              		.loc 1 174 0
 379              		.cfi_startproc
 380              		@ args = 0, pretend = 0, frame = 0
 381              		@ frame_needed = 0, uses_anonymous_args = 0
 382              	.LVL49:
ARM GAS  /var/folders/5n/p_75w94d66l9ssrldxqdhh700000gn/T//ccnXI7YX.s 			page 8


 383 0000 10B5     		push	{r4, lr}
 384              	.LCFI3:
 385              		.cfi_def_cfa_offset 8
 386              		.cfi_offset 14, -4
 387              		.cfi_offset 4, -8
 388              	.LBB5:
 389              		.loc 1 178 0
 390 0002 2023     		movs	r3, #32
 391              	.LVL50:
 392              	.LBE5:
 393              		.loc 1 174 0
 394 0004 0446     		mov	r4, r0
 395              	.LBB6:
 396              		.loc 1 178 0
 397              	@ 178 "../../os/hal/src/serial.c" 1
 398 0006 83F31188 		msr     BASEPRI, r3
 399              	@ 0 "" 2
 400              	.LVL51:
 401              		.thumb
 402              	.LBE6:
 403              		.loc 1 182 0
 404 000a FFF7FEFF 		bl	sd_lld_stop
 405              	.LVL52:
 406              		.loc 1 183 0
 407 000e 0123     		movs	r3, #1
 408 0010 2372     		strb	r3, [r4, #8]
 409              		.loc 1 184 0
 410 0012 04F13000 		add	r0, r4, #48
 411 0016 FFF7FEFF 		bl	chOQResetI
 412              		.loc 1 185 0
 413 001a 04F10C00 		add	r0, r4, #12
 414 001e FFF7FEFF 		bl	chIQResetI
 415              		.loc 1 186 0
 416 0022 FFF7FEFF 		bl	chSchRescheduleS
 417              	.LBB7:
 418              		.loc 1 187 0
 419 0026 0023     		movs	r3, #0
 420              	.LVL53:
 421              	@ 187 "../../os/hal/src/serial.c" 1
 422 0028 83F31188 		msr     BASEPRI, r3
 423              	@ 0 "" 2
 424              	.LVL54:
 425              		.thumb
 426              	.LBE7:
 427              		.loc 1 188 0
 428 002c 10BD     		pop	{r4, pc}
 429              		.cfi_endproc
 430              	.LFE129:
 431              		.size	sdStop, .-sdStop
 432 002e 00BF     		.section	.text.sdIncomingDataI,"ax",%progbits
 433              		.align	2
 434              		.p2align 4,,15
 435              		.global	sdIncomingDataI
 436              		.thumb
 437              		.thumb_func
 438              		.type	sdIncomingDataI, %function
 439              	sdIncomingDataI:
ARM GAS  /var/folders/5n/p_75w94d66l9ssrldxqdhh700000gn/T//ccnXI7YX.s 			page 9


 440              	.LFB130:
 441              		.loc 1 206 0
 442              		.cfi_startproc
 443              		@ args = 0, pretend = 0, frame = 0
 444              		@ frame_needed = 0, uses_anonymous_args = 0
 445              	.LVL55:
 446 0000 38B5     		push	{r3, r4, r5, lr}
 447              	.LCFI4:
 448              		.cfi_def_cfa_offset 16
 449              		.cfi_offset 14, -4
 450              		.cfi_offset 5, -8
 451              		.cfi_offset 4, -12
 452              		.cfi_offset 3, -16
 453              		.loc 1 211 0
 454 0002 4369     		ldr	r3, [r0, #20]
 455              		.loc 1 206 0
 456 0004 0446     		mov	r4, r0
 457 0006 0D46     		mov	r5, r1
 458              		.loc 1 211 0
 459 0008 3BB1     		cbz	r3, .L17
 460              		.loc 1 213 0
 461 000a 04F10C00 		add	r0, r4, #12
 462              	.LVL56:
 463 000e 2946     		mov	r1, r5
 464              	.LVL57:
 465 0010 FFF7FEFF 		bl	chIQPutI
 466 0014 0028     		cmp	r0, #0
 467 0016 0BDB     		blt	.L18
 468              	.L13:
 469 0018 38BD     		pop	{r3, r4, r5, pc}
 470              	.LVL58:
 471              	.L17:
 472              		.loc 1 212 0
 473 001a 0430     		adds	r0, r0, #4
 474 001c 0421     		movs	r1, #4
 475              	.LVL59:
 476 001e FFF7FEFF 		bl	chEvtBroadcastFlagsI
 477              		.loc 1 213 0
 478 0022 04F10C00 		add	r0, r4, #12
 479 0026 2946     		mov	r1, r5
 480 0028 FFF7FEFF 		bl	chIQPutI
 481 002c 0028     		cmp	r0, #0
 482 002e F3DA     		bge	.L13
 483              	.L18:
 484              		.loc 1 214 0
 485 0030 201D     		adds	r0, r4, #4
 486 0032 8021     		movs	r1, #128
 487              		.loc 1 215 0
 488 0034 BDE83840 		pop	{r3, r4, r5, lr}
 489              		.loc 1 214 0
 490 0038 FFF7FEBF 		b	chEvtBroadcastFlagsI
 491              		.cfi_endproc
 492              	.LFE130:
 493              		.size	sdIncomingDataI, .-sdIncomingDataI
 494 003c AFF30080 		.section	.text.sdRequestDataI,"ax",%progbits
 495              		.align	2
 496              		.p2align 4,,15
ARM GAS  /var/folders/5n/p_75w94d66l9ssrldxqdhh700000gn/T//ccnXI7YX.s 			page 10


 497              		.global	sdRequestDataI
 498              		.thumb
 499              		.thumb_func
 500              		.type	sdRequestDataI, %function
 501              	sdRequestDataI:
 502              	.LFB131:
 503              		.loc 1 232 0
 504              		.cfi_startproc
 505              		@ args = 0, pretend = 0, frame = 0
 506              		@ frame_needed = 0, uses_anonymous_args = 0
 507              	.LVL60:
 508 0000 38B5     		push	{r3, r4, r5, lr}
 509              	.LCFI5:
 510              		.cfi_def_cfa_offset 16
 511              		.cfi_offset 14, -4
 512              		.cfi_offset 5, -8
 513              		.cfi_offset 4, -12
 514              		.cfi_offset 3, -16
 515              		.loc 1 232 0
 516 0002 0546     		mov	r5, r0
 517              		.loc 1 238 0
 518 0004 00F13000 		add	r0, r0, #48
 519              	.LVL61:
 520 0008 FFF7FEFF 		bl	chOQGetI
 521              	.LVL62:
 522              		.loc 1 239 0
 523 000c 041E     		subs	r4, r0, #0
 524 000e 01DB     		blt	.L21
 525              		.loc 1 242 0
 526 0010 2046     		mov	r0, r4
 527 0012 38BD     		pop	{r3, r4, r5, pc}
 528              	.L21:
 529              		.loc 1 240 0
 530 0014 281D     		adds	r0, r5, #4
 531              	.LVL63:
 532 0016 0821     		movs	r1, #8
 533 0018 FFF7FEFF 		bl	chEvtBroadcastFlagsI
 534              		.loc 1 242 0
 535 001c 2046     		mov	r0, r4
 536 001e 38BD     		pop	{r3, r4, r5, pc}
 537              		.cfi_endproc
 538              	.LFE131:
 539              		.size	sdRequestDataI, .-sdRequestDataI
 540              		.section	.rodata.vmt,"a",%progbits
 541              		.align	2
 542              		.set	.LANCHOR0,. + 0
 543              		.type	vmt, %object
 544              		.size	vmt, 32
 545              	vmt:
 546 0000 00000000 		.word	write
 547 0004 00000000 		.word	read
 548 0008 00000000 		.word	put
 549 000c 00000000 		.word	get
 550 0010 00000000 		.word	putt
 551 0014 00000000 		.word	gett
 552 0018 00000000 		.word	writet
 553 001c 00000000 		.word	readt
ARM GAS  /var/folders/5n/p_75w94d66l9ssrldxqdhh700000gn/T//ccnXI7YX.s 			page 11


 554              		.text
 555              	.Letext0:
 556              		.file 2 "/usr/local/summon/lib/gcc/arm-none-eabi/4.6.2/include/stddef.h"
 557              		.file 3 "/usr/local/summon/lib/gcc/arm-none-eabi/4.6.2/../../../../arm-none-eabi/include/stdint.h"
 558              		.file 4 "../../os/ports/GCC/ARMCMx/chtypes.h"
 559              		.file 5 "../../os/kernel/include/chlists.h"
 560              		.file 6 "../../os/kernel/include/chthreads.h"
 561              		.file 7 "../../os/ports/GCC/ARMCMx/chcore_v7m.h"
 562              		.file 8 "../../os/kernel/include/chmtx.h"
 563              		.file 9 "../../os/kernel/include/chevents.h"
 564              		.file 10 "../../os/kernel/include/chqueues.h"
 565              		.file 11 "../../os/hal/platforms/STM32F4xx/stm32f4xx.h"
 566              		.file 12 "../../os/hal/include/serial.h"
 567              		.file 13 "../../os/hal/platforms/STM32/serial_lld.h"
 568              		.file 14 "../../os/ports/common/ARMCMx/CMSIS/include/core_cm4.h"
 569              		.section	.debug_info,"",%progbits
 570              	.Ldebug_info0:
 571 0000 9B0C0000 		.4byte	0xc9b
 572 0004 0200     		.2byte	0x2
 573 0006 00000000 		.4byte	.Ldebug_abbrev0
 574 000a 04       		.byte	0x4
 575 000b 01       		.uleb128 0x1
 576 000c A0030000 		.4byte	.LASF118
 577 0010 01       		.byte	0x1
 578 0011 13040000 		.4byte	.LASF119
 579 0015 4A040000 		.4byte	.LASF120
 580 0019 00000000 		.4byte	0
 581 001d 00000000 		.4byte	0
 582 0021 30000000 		.4byte	.Ldebug_ranges0+0x30
 583 0025 00000000 		.4byte	.Ldebug_line0
 584 0029 02       		.uleb128 0x2
 585 002a 04       		.byte	0x4
 586 002b 05       		.byte	0x5
 587 002c 696E7400 		.ascii	"int\000"
 588 0030 03       		.uleb128 0x3
 589 0031 09000000 		.4byte	.LASF2
 590 0035 02       		.byte	0x2
 591 0036 D4       		.byte	0xd4
 592 0037 3B000000 		.4byte	0x3b
 593 003b 04       		.uleb128 0x4
 594 003c 04       		.byte	0x4
 595 003d 07       		.byte	0x7
 596 003e 07010000 		.4byte	.LASF0
 597 0042 04       		.uleb128 0x4
 598 0043 01       		.byte	0x1
 599 0044 06       		.byte	0x6
 600 0045 7B000000 		.4byte	.LASF1
 601 0049 03       		.uleb128 0x3
 602 004a 0B040000 		.4byte	.LASF3
 603 004e 03       		.byte	0x3
 604 004f 2A       		.byte	0x2a
 605 0050 54000000 		.4byte	0x54
 606 0054 04       		.uleb128 0x4
 607 0055 01       		.byte	0x1
 608 0056 08       		.byte	0x8
 609 0057 8C020000 		.4byte	.LASF4
 610 005b 04       		.uleb128 0x4
ARM GAS  /var/folders/5n/p_75w94d66l9ssrldxqdhh700000gn/T//ccnXI7YX.s 			page 12


 611 005c 02       		.byte	0x2
 612 005d 05       		.byte	0x5
 613 005e C1020000 		.4byte	.LASF5
 614 0062 03       		.uleb128 0x3
 615 0063 14010000 		.4byte	.LASF6
 616 0067 03       		.byte	0x3
 617 0068 36       		.byte	0x36
 618 0069 6D000000 		.4byte	0x6d
 619 006d 04       		.uleb128 0x4
 620 006e 02       		.byte	0x2
 621 006f 07       		.byte	0x7
 622 0070 5A010000 		.4byte	.LASF7
 623 0074 03       		.uleb128 0x3
 624 0075 84020000 		.4byte	.LASF8
 625 0079 03       		.byte	0x3
 626 007a 4F       		.byte	0x4f
 627 007b 7F000000 		.4byte	0x7f
 628 007f 04       		.uleb128 0x4
 629 0080 04       		.byte	0x4
 630 0081 05       		.byte	0x5
 631 0082 B3000000 		.4byte	.LASF9
 632 0086 03       		.uleb128 0x3
 633 0087 21030000 		.4byte	.LASF10
 634 008b 03       		.byte	0x3
 635 008c 50       		.byte	0x50
 636 008d 91000000 		.4byte	0x91
 637 0091 04       		.uleb128 0x4
 638 0092 04       		.byte	0x4
 639 0093 07       		.byte	0x7
 640 0094 41030000 		.4byte	.LASF11
 641 0098 04       		.uleb128 0x4
 642 0099 08       		.byte	0x8
 643 009a 05       		.byte	0x5
 644 009b 6D000000 		.4byte	.LASF12
 645 009f 04       		.uleb128 0x4
 646 00a0 08       		.byte	0x8
 647 00a1 07       		.byte	0x7
 648 00a2 23000000 		.4byte	.LASF13
 649 00a6 03       		.uleb128 0x3
 650 00a7 94000000 		.4byte	.LASF14
 651 00ab 04       		.byte	0x4
 652 00ac 27       		.byte	0x27
 653 00ad 74000000 		.4byte	0x74
 654 00b1 03       		.uleb128 0x3
 655 00b2 8F010000 		.4byte	.LASF15
 656 00b6 04       		.byte	0x4
 657 00b7 28       		.byte	0x28
 658 00b8 49000000 		.4byte	0x49
 659 00bc 03       		.uleb128 0x3
 660 00bd BC000000 		.4byte	.LASF16
 661 00c1 04       		.byte	0x4
 662 00c2 29       		.byte	0x29
 663 00c3 49000000 		.4byte	0x49
 664 00c7 03       		.uleb128 0x3
 665 00c8 29020000 		.4byte	.LASF17
 666 00cc 04       		.byte	0x4
 667 00cd 2A       		.byte	0x2a
ARM GAS  /var/folders/5n/p_75w94d66l9ssrldxqdhh700000gn/T//ccnXI7YX.s 			page 13


 668 00ce 49000000 		.4byte	0x49
 669 00d2 03       		.uleb128 0x3
 670 00d3 A3000000 		.4byte	.LASF18
 671 00d7 04       		.byte	0x4
 672 00d8 2B       		.byte	0x2b
 673 00d9 49000000 		.4byte	0x49
 674 00dd 03       		.uleb128 0x3
 675 00de 74020000 		.4byte	.LASF19
 676 00e2 04       		.byte	0x4
 677 00e3 2C       		.byte	0x2c
 678 00e4 86000000 		.4byte	0x86
 679 00e8 03       		.uleb128 0x3
 680 00e9 6D010000 		.4byte	.LASF20
 681 00ed 04       		.byte	0x4
 682 00ee 2D       		.byte	0x2d
 683 00ef 74000000 		.4byte	0x74
 684 00f3 03       		.uleb128 0x3
 685 00f4 A3010000 		.4byte	.LASF21
 686 00f8 04       		.byte	0x4
 687 00f9 2F       		.byte	0x2f
 688 00fa 86000000 		.4byte	0x86
 689 00fe 03       		.uleb128 0x3
 690 00ff D2030000 		.4byte	.LASF22
 691 0103 04       		.byte	0x4
 692 0104 30       		.byte	0x30
 693 0105 86000000 		.4byte	0x86
 694 0109 03       		.uleb128 0x3
 695 010a 83030000 		.4byte	.LASF23
 696 010e 04       		.byte	0x4
 697 010f 31       		.byte	0x31
 698 0110 86000000 		.4byte	0x86
 699 0114 03       		.uleb128 0x3
 700 0115 FB020000 		.4byte	.LASF24
 701 0119 05       		.byte	0x5
 702 011a 23       		.byte	0x23
 703 011b 1F010000 		.4byte	0x11f
 704 011f 05       		.uleb128 0x5
 705 0120 FB020000 		.4byte	.LASF24
 706 0124 48       		.byte	0x48
 707 0125 06       		.byte	0x6
 708 0126 57       		.byte	0x57
 709 0127 44020000 		.4byte	0x244
 710 012b 06       		.uleb128 0x6
 711 012c DC020000 		.4byte	.LASF25
 712 0130 06       		.byte	0x6
 713 0131 58       		.byte	0x58
 714 0132 69020000 		.4byte	0x269
 715 0136 02       		.byte	0x2
 716 0137 23       		.byte	0x23
 717 0138 00       		.uleb128 0
 718 0139 06       		.uleb128 0x6
 719 013a 63020000 		.4byte	.LASF26
 720 013e 06       		.byte	0x6
 721 013f 5A       		.byte	0x5a
 722 0140 69020000 		.4byte	0x269
 723 0144 02       		.byte	0x2
 724 0145 23       		.byte	0x23
ARM GAS  /var/folders/5n/p_75w94d66l9ssrldxqdhh700000gn/T//ccnXI7YX.s 			page 14


 725 0146 04       		.uleb128 0x4
 726 0147 06       		.uleb128 0x6
 727 0148 EC010000 		.4byte	.LASF27
 728 014c 06       		.byte	0x6
 729 014d 5C       		.byte	0x5c
 730 014e DD000000 		.4byte	0xdd
 731 0152 02       		.byte	0x2
 732 0153 23       		.byte	0x23
 733 0154 08       		.uleb128 0x8
 734 0155 06       		.uleb128 0x6
 735 0156 D1040000 		.4byte	.LASF28
 736 015a 06       		.byte	0x6
 737 015b 5D       		.byte	0x5d
 738 015c 37030000 		.4byte	0x337
 739 0160 02       		.byte	0x2
 740 0161 23       		.byte	0x23
 741 0162 0C       		.uleb128 0xc
 742 0163 06       		.uleb128 0x6
 743 0164 E4000000 		.4byte	.LASF29
 744 0168 06       		.byte	0x6
 745 0169 5F       		.byte	0x5f
 746 016a 69020000 		.4byte	0x269
 747 016e 02       		.byte	0x2
 748 016f 23       		.byte	0x23
 749 0170 10       		.uleb128 0x10
 750 0171 06       		.uleb128 0x6
 751 0172 FB010000 		.4byte	.LASF30
 752 0176 06       		.byte	0x6
 753 0177 60       		.byte	0x60
 754 0178 69020000 		.4byte	0x269
 755 017c 02       		.byte	0x2
 756 017d 23       		.byte	0x23
 757 017e 14       		.uleb128 0x14
 758 017f 06       		.uleb128 0x6
 759 0180 E4030000 		.4byte	.LASF31
 760 0184 06       		.byte	0x6
 761 0185 67       		.byte	0x67
 762 0186 58040000 		.4byte	0x458
 763 018a 02       		.byte	0x2
 764 018b 23       		.byte	0x23
 765 018c 18       		.uleb128 0x18
 766 018d 06       		.uleb128 0x6
 767 018e AF020000 		.4byte	.LASF32
 768 0192 06       		.byte	0x6
 769 0193 72       		.byte	0x72
 770 0194 BC000000 		.4byte	0xbc
 771 0198 02       		.byte	0x2
 772 0199 23       		.byte	0x23
 773 019a 1C       		.uleb128 0x1c
 774 019b 06       		.uleb128 0x6
 775 019c E3020000 		.4byte	.LASF33
 776 01a0 06       		.byte	0x6
 777 01a1 76       		.byte	0x76
 778 01a2 B1000000 		.4byte	0xb1
 779 01a6 02       		.byte	0x2
 780 01a7 23       		.byte	0x23
 781 01a8 1D       		.uleb128 0x1d
ARM GAS  /var/folders/5n/p_75w94d66l9ssrldxqdhh700000gn/T//ccnXI7YX.s 			page 15


 782 01a9 06       		.uleb128 0x6
 783 01aa C5000000 		.4byte	.LASF34
 784 01ae 06       		.byte	0x6
 785 01af 7B       		.byte	0x7b
 786 01b0 C7000000 		.4byte	0xc7
 787 01b4 02       		.byte	0x2
 788 01b5 23       		.byte	0x23
 789 01b6 1E       		.uleb128 0x1e
 790 01b7 06       		.uleb128 0x6
 791 01b8 CB020000 		.4byte	.LASF35
 792 01bc 06       		.byte	0x6
 793 01bd 81       		.byte	0x81
 794 01be D2000000 		.4byte	0xd2
 795 01c2 02       		.byte	0x2
 796 01c3 23       		.byte	0x23
 797 01c4 1F       		.uleb128 0x1f
 798 01c5 06       		.uleb128 0x6
 799 01c6 DD000000 		.4byte	.LASF36
 800 01ca 06       		.byte	0x6
 801 01cb 88       		.byte	0x88
 802 01cc 5A030000 		.4byte	0x35a
 803 01d0 02       		.byte	0x2
 804 01d1 23       		.byte	0x23
 805 01d2 20       		.uleb128 0x20
 806 01d3 07       		.uleb128 0x7
 807 01d4 705F7500 		.ascii	"p_u\000"
 808 01d8 06       		.byte	0x6
 809 01d9 AD       		.byte	0xad
 810 01da 23040000 		.4byte	0x423
 811 01de 02       		.byte	0x2
 812 01df 23       		.byte	0x23
 813 01e0 24       		.uleb128 0x24
 814 01e1 06       		.uleb128 0x6
 815 01e2 D7040000 		.4byte	.LASF37
 816 01e6 06       		.byte	0x6
 817 01e7 B2       		.byte	0xb2
 818 01e8 91020000 		.4byte	0x291
 819 01ec 02       		.byte	0x2
 820 01ed 23       		.byte	0x23
 821 01ee 28       		.uleb128 0x28
 822 01ef 06       		.uleb128 0x6
 823 01f0 3C010000 		.4byte	.LASF38
 824 01f4 06       		.byte	0x6
 825 01f5 B8       		.byte	0xb8
 826 01f6 6F020000 		.4byte	0x26f
 827 01fa 02       		.byte	0x2
 828 01fb 23       		.byte	0x23
 829 01fc 2C       		.uleb128 0x2c
 830 01fd 06       		.uleb128 0x6
 831 01fe A0040000 		.4byte	.LASF39
 832 0202 06       		.byte	0x6
 833 0203 BC       		.byte	0xbc
 834 0204 E8000000 		.4byte	0xe8
 835 0208 02       		.byte	0x2
 836 0209 23       		.byte	0x23
 837 020a 34       		.uleb128 0x34
 838 020b 06       		.uleb128 0x6
ARM GAS  /var/folders/5n/p_75w94d66l9ssrldxqdhh700000gn/T//ccnXI7YX.s 			page 16


 839 020c 02030000 		.4byte	.LASF40
 840 0210 06       		.byte	0x6
 841 0211 C2       		.byte	0xc2
 842 0212 F3000000 		.4byte	0xf3
 843 0216 02       		.byte	0x2
 844 0217 23       		.byte	0x23
 845 0218 38       		.uleb128 0x38
 846 0219 06       		.uleb128 0x6
 847 021a B7020000 		.4byte	.LASF41
 848 021e 06       		.byte	0x6
 849 021f C9       		.byte	0xc9
 850 0220 6A040000 		.4byte	0x46a
 851 0224 02       		.byte	0x2
 852 0225 23       		.byte	0x23
 853 0226 3C       		.uleb128 0x3c
 854 0227 06       		.uleb128 0x6
 855 0228 8D030000 		.4byte	.LASF42
 856 022c 06       		.byte	0x6
 857 022d CD       		.byte	0xcd
 858 022e DD000000 		.4byte	0xdd
 859 0232 02       		.byte	0x2
 860 0233 23       		.byte	0x23
 861 0234 40       		.uleb128 0x40
 862 0235 06       		.uleb128 0x6
 863 0236 8C000000 		.4byte	.LASF43
 864 023a 06       		.byte	0x6
 865 023b D3       		.byte	0xd3
 866 023c A7020000 		.4byte	0x2a7
 867 0240 02       		.byte	0x2
 868 0241 23       		.byte	0x23
 869 0242 44       		.uleb128 0x44
 870 0243 00       		.byte	0
 871 0244 08       		.uleb128 0x8
 872 0245 08       		.byte	0x8
 873 0246 05       		.byte	0x5
 874 0247 5A       		.byte	0x5a
 875 0248 69020000 		.4byte	0x269
 876 024c 06       		.uleb128 0x6
 877 024d DC020000 		.4byte	.LASF25
 878 0251 05       		.byte	0x5
 879 0252 5B       		.byte	0x5b
 880 0253 69020000 		.4byte	0x269
 881 0257 02       		.byte	0x2
 882 0258 23       		.byte	0x23
 883 0259 00       		.uleb128 0
 884 025a 06       		.uleb128 0x6
 885 025b 63020000 		.4byte	.LASF26
 886 025f 05       		.byte	0x5
 887 0260 5D       		.byte	0x5d
 888 0261 69020000 		.4byte	0x269
 889 0265 02       		.byte	0x2
 890 0266 23       		.byte	0x23
 891 0267 04       		.uleb128 0x4
 892 0268 00       		.byte	0
 893 0269 09       		.uleb128 0x9
 894 026a 04       		.byte	0x4
 895 026b 14010000 		.4byte	0x114
ARM GAS  /var/folders/5n/p_75w94d66l9ssrldxqdhh700000gn/T//ccnXI7YX.s 			page 17


 896 026f 03       		.uleb128 0x3
 897 0270 03020000 		.4byte	.LASF44
 898 0274 05       		.byte	0x5
 899 0275 5F       		.byte	0x5f
 900 0276 44020000 		.4byte	0x244
 901 027a 08       		.uleb128 0x8
 902 027b 04       		.byte	0x4
 903 027c 05       		.byte	0x5
 904 027d 64       		.byte	0x64
 905 027e 91020000 		.4byte	0x291
 906 0282 06       		.uleb128 0x6
 907 0283 DC020000 		.4byte	.LASF25
 908 0287 05       		.byte	0x5
 909 0288 66       		.byte	0x66
 910 0289 69020000 		.4byte	0x269
 911 028d 02       		.byte	0x2
 912 028e 23       		.byte	0x23
 913 028f 00       		.uleb128 0
 914 0290 00       		.byte	0
 915 0291 03       		.uleb128 0x3
 916 0292 97010000 		.4byte	.LASF45
 917 0296 05       		.byte	0x5
 918 0297 69       		.byte	0x69
 919 0298 7A020000 		.4byte	0x27a
 920 029c 03       		.uleb128 0x3
 921 029d EC000000 		.4byte	.LASF46
 922 02a1 07       		.byte	0x7
 923 02a2 DE       		.byte	0xde
 924 02a3 A7020000 		.4byte	0x2a7
 925 02a7 0A       		.uleb128 0xa
 926 02a8 04       		.byte	0x4
 927 02a9 0B       		.uleb128 0xb
 928 02aa C2030000 		.4byte	.LASF47
 929 02ae 24       		.byte	0x24
 930 02af 07       		.byte	0x7
 931 02b0 0501     		.2byte	0x105
 932 02b2 37030000 		.4byte	0x337
 933 02b6 0C       		.uleb128 0xc
 934 02b7 723400   		.ascii	"r4\000"
 935 02ba 07       		.byte	0x7
 936 02bb 1801     		.2byte	0x118
 937 02bd 9C020000 		.4byte	0x29c
 938 02c1 02       		.byte	0x2
 939 02c2 23       		.byte	0x23
 940 02c3 00       		.uleb128 0
 941 02c4 0C       		.uleb128 0xc
 942 02c5 723500   		.ascii	"r5\000"
 943 02c8 07       		.byte	0x7
 944 02c9 1901     		.2byte	0x119
 945 02cb 9C020000 		.4byte	0x29c
 946 02cf 02       		.byte	0x2
 947 02d0 23       		.byte	0x23
 948 02d1 04       		.uleb128 0x4
 949 02d2 0C       		.uleb128 0xc
 950 02d3 723600   		.ascii	"r6\000"
 951 02d6 07       		.byte	0x7
 952 02d7 1A01     		.2byte	0x11a
ARM GAS  /var/folders/5n/p_75w94d66l9ssrldxqdhh700000gn/T//ccnXI7YX.s 			page 18


 953 02d9 9C020000 		.4byte	0x29c
 954 02dd 02       		.byte	0x2
 955 02de 23       		.byte	0x23
 956 02df 08       		.uleb128 0x8
 957 02e0 0C       		.uleb128 0xc
 958 02e1 723700   		.ascii	"r7\000"
 959 02e4 07       		.byte	0x7
 960 02e5 1B01     		.2byte	0x11b
 961 02e7 9C020000 		.4byte	0x29c
 962 02eb 02       		.byte	0x2
 963 02ec 23       		.byte	0x23
 964 02ed 0C       		.uleb128 0xc
 965 02ee 0C       		.uleb128 0xc
 966 02ef 723800   		.ascii	"r8\000"
 967 02f2 07       		.byte	0x7
 968 02f3 1C01     		.2byte	0x11c
 969 02f5 9C020000 		.4byte	0x29c
 970 02f9 02       		.byte	0x2
 971 02fa 23       		.byte	0x23
 972 02fb 10       		.uleb128 0x10
 973 02fc 0C       		.uleb128 0xc
 974 02fd 723900   		.ascii	"r9\000"
 975 0300 07       		.byte	0x7
 976 0301 1D01     		.2byte	0x11d
 977 0303 9C020000 		.4byte	0x29c
 978 0307 02       		.byte	0x2
 979 0308 23       		.byte	0x23
 980 0309 14       		.uleb128 0x14
 981 030a 0C       		.uleb128 0xc
 982 030b 72313000 		.ascii	"r10\000"
 983 030f 07       		.byte	0x7
 984 0310 1E01     		.2byte	0x11e
 985 0312 9C020000 		.4byte	0x29c
 986 0316 02       		.byte	0x2
 987 0317 23       		.byte	0x23
 988 0318 18       		.uleb128 0x18
 989 0319 0C       		.uleb128 0xc
 990 031a 72313100 		.ascii	"r11\000"
 991 031e 07       		.byte	0x7
 992 031f 1F01     		.2byte	0x11f
 993 0321 9C020000 		.4byte	0x29c
 994 0325 02       		.byte	0x2
 995 0326 23       		.byte	0x23
 996 0327 1C       		.uleb128 0x1c
 997 0328 0C       		.uleb128 0xc
 998 0329 6C7200   		.ascii	"lr\000"
 999 032c 07       		.byte	0x7
 1000 032d 2001     		.2byte	0x120
 1001 032f 9C020000 		.4byte	0x29c
 1002 0333 02       		.byte	0x2
 1003 0334 23       		.byte	0x23
 1004 0335 20       		.uleb128 0x20
 1005 0336 00       		.byte	0
 1006 0337 0B       		.uleb128 0xb
 1007 0338 98030000 		.4byte	.LASF48
 1008 033c 04       		.byte	0x4
 1009 033d 07       		.byte	0x7
ARM GAS  /var/folders/5n/p_75w94d66l9ssrldxqdhh700000gn/T//ccnXI7YX.s 			page 19


 1010 033e 2A01     		.2byte	0x12a
 1011 0340 54030000 		.4byte	0x354
 1012 0344 0C       		.uleb128 0xc
 1013 0345 72313300 		.ascii	"r13\000"
 1014 0349 07       		.byte	0x7
 1015 034a 2B01     		.2byte	0x12b
 1016 034c 54030000 		.4byte	0x354
 1017 0350 02       		.byte	0x2
 1018 0351 23       		.byte	0x23
 1019 0352 00       		.uleb128 0
 1020 0353 00       		.byte	0
 1021 0354 09       		.uleb128 0x9
 1022 0355 04       		.byte	0x4
 1023 0356 A9020000 		.4byte	0x2a9
 1024 035a 0D       		.uleb128 0xd
 1025 035b 09010000 		.4byte	0x109
 1026 035f 05       		.uleb128 0x5
 1027 0360 E6010000 		.4byte	.LASF49
 1028 0364 10       		.byte	0x10
 1029 0365 08       		.byte	0x8
 1030 0366 25       		.byte	0x25
 1031 0367 96030000 		.4byte	0x396
 1032 036b 06       		.uleb128 0x6
 1033 036c 9B000000 		.4byte	.LASF50
 1034 0370 08       		.byte	0x8
 1035 0371 26       		.byte	0x26
 1036 0372 6F020000 		.4byte	0x26f
 1037 0376 02       		.byte	0x2
 1038 0377 23       		.byte	0x23
 1039 0378 00       		.uleb128 0
 1040 0379 06       		.uleb128 0x6
 1041 037a C9040000 		.4byte	.LASF51
 1042 037e 08       		.byte	0x8
 1043 037f 28       		.byte	0x28
 1044 0380 69020000 		.4byte	0x269
 1045 0384 02       		.byte	0x2
 1046 0385 23       		.byte	0x23
 1047 0386 08       		.uleb128 0x8
 1048 0387 06       		.uleb128 0x6
 1049 0388 7C030000 		.4byte	.LASF52
 1050 038c 08       		.byte	0x8
 1051 038d 2A       		.byte	0x2a
 1052 038e 96030000 		.4byte	0x396
 1053 0392 02       		.byte	0x2
 1054 0393 23       		.byte	0x23
 1055 0394 0C       		.uleb128 0xc
 1056 0395 00       		.byte	0
 1057 0396 09       		.uleb128 0x9
 1058 0397 04       		.byte	0x4
 1059 0398 5F030000 		.4byte	0x35f
 1060 039c 03       		.uleb128 0x3
 1061 039d E6010000 		.4byte	.LASF49
 1062 03a1 08       		.byte	0x8
 1063 03a2 2C       		.byte	0x2c
 1064 03a3 5F030000 		.4byte	0x35f
 1065 03a7 03       		.uleb128 0x3
 1066 03a8 35040000 		.4byte	.LASF53
ARM GAS  /var/folders/5n/p_75w94d66l9ssrldxqdhh700000gn/T//ccnXI7YX.s 			page 20


 1067 03ac 09       		.byte	0x9
 1068 03ad 25       		.byte	0x25
 1069 03ae B2030000 		.4byte	0x3b2
 1070 03b2 05       		.uleb128 0x5
 1071 03b3 35040000 		.4byte	.LASF53
 1072 03b7 10       		.byte	0x10
 1073 03b8 09       		.byte	0x9
 1074 03b9 2A       		.byte	0x2a
 1075 03ba F7030000 		.4byte	0x3f7
 1076 03be 06       		.uleb128 0x6
 1077 03bf EB020000 		.4byte	.LASF54
 1078 03c3 09       		.byte	0x9
 1079 03c4 2B       		.byte	0x2b
 1080 03c5 F7030000 		.4byte	0x3f7
 1081 03c9 02       		.byte	0x2
 1082 03ca 23       		.byte	0x23
 1083 03cb 00       		.uleb128 0
 1084 03cc 06       		.uleb128 0x6
 1085 03cd 9A020000 		.4byte	.LASF55
 1086 03d1 09       		.byte	0x9
 1087 03d2 2E       		.byte	0x2e
 1088 03d3 69020000 		.4byte	0x269
 1089 03d7 02       		.byte	0x2
 1090 03d8 23       		.byte	0x23
 1091 03d9 04       		.uleb128 0x4
 1092 03da 06       		.uleb128 0x6
 1093 03db F3010000 		.4byte	.LASF56
 1094 03df 09       		.byte	0x9
 1095 03e0 30       		.byte	0x30
 1096 03e1 F3000000 		.4byte	0xf3
 1097 03e5 02       		.byte	0x2
 1098 03e6 23       		.byte	0x23
 1099 03e7 08       		.uleb128 0x8
 1100 03e8 06       		.uleb128 0x6
 1101 03e9 A6020000 		.4byte	.LASF57
 1102 03ed 09       		.byte	0x9
 1103 03ee 33       		.byte	0x33
 1104 03ef FE000000 		.4byte	0xfe
 1105 03f3 02       		.byte	0x2
 1106 03f4 23       		.byte	0x23
 1107 03f5 0C       		.uleb128 0xc
 1108 03f6 00       		.byte	0
 1109 03f7 09       		.uleb128 0x9
 1110 03f8 04       		.byte	0x4
 1111 03f9 A7030000 		.4byte	0x3a7
 1112 03fd 05       		.uleb128 0x5
 1113 03fe F5000000 		.4byte	.LASF58
 1114 0402 04       		.byte	0x4
 1115 0403 09       		.byte	0x9
 1116 0404 3A       		.byte	0x3a
 1117 0405 18040000 		.4byte	0x418
 1118 0409 06       		.uleb128 0x6
 1119 040a EB030000 		.4byte	.LASF59
 1120 040e 09       		.byte	0x9
 1121 040f 3B       		.byte	0x3b
 1122 0410 F7030000 		.4byte	0x3f7
 1123 0414 02       		.byte	0x2
ARM GAS  /var/folders/5n/p_75w94d66l9ssrldxqdhh700000gn/T//ccnXI7YX.s 			page 21


 1124 0415 23       		.byte	0x23
 1125 0416 00       		.uleb128 0
 1126 0417 00       		.byte	0
 1127 0418 03       		.uleb128 0x3
 1128 0419 F5000000 		.4byte	.LASF58
 1129 041d 09       		.byte	0x9
 1130 041e 3E       		.byte	0x3e
 1131 041f FD030000 		.4byte	0x3fd
 1132 0423 0E       		.uleb128 0xe
 1133 0424 04       		.byte	0x4
 1134 0425 06       		.byte	0x6
 1135 0426 8F       		.byte	0x8f
 1136 0427 58040000 		.4byte	0x458
 1137 042b 0F       		.uleb128 0xf
 1138 042c 10000000 		.4byte	.LASF60
 1139 0430 06       		.byte	0x6
 1140 0431 96       		.byte	0x96
 1141 0432 E8000000 		.4byte	0xe8
 1142 0436 0F       		.uleb128 0xf
 1143 0437 3A000000 		.4byte	.LASF61
 1144 043b 06       		.byte	0x6
 1145 043c 9D       		.byte	0x9d
 1146 043d E8000000 		.4byte	0xe8
 1147 0441 0F       		.uleb128 0xf
 1148 0442 43040000 		.4byte	.LASF62
 1149 0446 06       		.byte	0x6
 1150 0447 A4       		.byte	0xa4
 1151 0448 A7020000 		.4byte	0x2a7
 1152 044c 0F       		.uleb128 0xf
 1153 044d D5020000 		.4byte	.LASF63
 1154 0451 06       		.byte	0x6
 1155 0452 AB       		.byte	0xab
 1156 0453 F3000000 		.4byte	0xf3
 1157 0457 00       		.byte	0
 1158 0458 09       		.uleb128 0x9
 1159 0459 04       		.byte	0x4
 1160 045a 5E040000 		.4byte	0x45e
 1161 045e 10       		.uleb128 0x10
 1162 045f 63040000 		.4byte	0x463
 1163 0463 04       		.uleb128 0x4
 1164 0464 01       		.byte	0x1
 1165 0465 08       		.byte	0x8
 1166 0466 58030000 		.4byte	.LASF64
 1167 046a 09       		.uleb128 0x9
 1168 046b 04       		.byte	0x4
 1169 046c 9C030000 		.4byte	0x39c
 1170 0470 09       		.uleb128 0x9
 1171 0471 04       		.byte	0x4
 1172 0472 76040000 		.4byte	0x476
 1173 0476 11       		.uleb128 0x11
 1174 0477 01       		.byte	0x1
 1175 0478 E8000000 		.4byte	0xe8
 1176 047c 86040000 		.4byte	0x486
 1177 0480 12       		.uleb128 0x12
 1178 0481 A7020000 		.4byte	0x2a7
 1179 0485 00       		.byte	0
 1180 0486 03       		.uleb128 0x3
ARM GAS  /var/folders/5n/p_75w94d66l9ssrldxqdhh700000gn/T//ccnXI7YX.s 			page 22


 1181 0487 C4010000 		.4byte	.LASF65
 1182 048b 0A       		.byte	0xa
 1183 048c 30       		.byte	0x30
 1184 048d 91040000 		.4byte	0x491
 1185 0491 05       		.uleb128 0x5
 1186 0492 C4010000 		.4byte	.LASF65
 1187 0496 24       		.byte	0x24
 1188 0497 0A       		.byte	0xa
 1189 0498 3E       		.byte	0x3e
 1190 0499 0E050000 		.4byte	0x50e
 1191 049d 06       		.uleb128 0x6
 1192 049e 63000000 		.4byte	.LASF66
 1193 04a2 0A       		.byte	0xa
 1194 04a3 3F       		.byte	0x3f
 1195 04a4 6F020000 		.4byte	0x26f
 1196 04a8 02       		.byte	0x2
 1197 04a9 23       		.byte	0x23
 1198 04aa 00       		.uleb128 0
 1199 04ab 06       		.uleb128 0x6
 1200 04ac DC010000 		.4byte	.LASF67
 1201 04b0 0A       		.byte	0xa
 1202 04b1 40       		.byte	0x40
 1203 04b2 30000000 		.4byte	0x30
 1204 04b6 02       		.byte	0x2
 1205 04b7 23       		.byte	0x23
 1206 04b8 08       		.uleb128 0x8
 1207 04b9 06       		.uleb128 0x6
 1208 04ba CC000000 		.4byte	.LASF68
 1209 04be 0A       		.byte	0xa
 1210 04bf 41       		.byte	0x41
 1211 04c0 31050000 		.4byte	0x531
 1212 04c4 02       		.byte	0x2
 1213 04c5 23       		.byte	0x23
 1214 04c6 0C       		.uleb128 0xc
 1215 04c7 06       		.uleb128 0x6
 1216 04c8 DE030000 		.4byte	.LASF69
 1217 04cc 0A       		.byte	0xa
 1218 04cd 42       		.byte	0x42
 1219 04ce 31050000 		.4byte	0x531
 1220 04d2 02       		.byte	0x2
 1221 04d3 23       		.byte	0x23
 1222 04d4 10       		.uleb128 0x10
 1223 04d5 06       		.uleb128 0x6
 1224 04d6 D5000000 		.4byte	.LASF70
 1225 04da 0A       		.byte	0xa
 1226 04db 44       		.byte	0x44
 1227 04dc 31050000 		.4byte	0x531
 1228 04e0 02       		.byte	0x2
 1229 04e1 23       		.byte	0x23
 1230 04e2 14       		.uleb128 0x14
 1231 04e3 06       		.uleb128 0x6
 1232 04e4 7C020000 		.4byte	.LASF71
 1233 04e8 0A       		.byte	0xa
 1234 04e9 45       		.byte	0x45
 1235 04ea 31050000 		.4byte	0x531
 1236 04ee 02       		.byte	0x2
 1237 04ef 23       		.byte	0x23
ARM GAS  /var/folders/5n/p_75w94d66l9ssrldxqdhh700000gn/T//ccnXI7YX.s 			page 23


 1238 04f0 18       		.uleb128 0x18
 1239 04f1 06       		.uleb128 0x6
 1240 04f2 F3030000 		.4byte	.LASF72
 1241 04f6 0A       		.byte	0xa
 1242 04f7 46       		.byte	0x46
 1243 04f8 0E050000 		.4byte	0x50e
 1244 04fc 02       		.byte	0x2
 1245 04fd 23       		.byte	0x23
 1246 04fe 1C       		.uleb128 0x1c
 1247 04ff 06       		.uleb128 0x6
 1248 0500 C2040000 		.4byte	.LASF73
 1249 0504 0A       		.byte	0xa
 1250 0505 47       		.byte	0x47
 1251 0506 A7020000 		.4byte	0x2a7
 1252 050a 02       		.byte	0x2
 1253 050b 23       		.byte	0x23
 1254 050c 20       		.uleb128 0x20
 1255 050d 00       		.byte	0
 1256 050e 03       		.uleb128 0x3
 1257 050f BA010000 		.4byte	.LASF74
 1258 0513 0A       		.byte	0xa
 1259 0514 33       		.byte	0x33
 1260 0515 19050000 		.4byte	0x519
 1261 0519 09       		.uleb128 0x9
 1262 051a 04       		.byte	0x4
 1263 051b 1F050000 		.4byte	0x51f
 1264 051f 13       		.uleb128 0x13
 1265 0520 01       		.byte	0x1
 1266 0521 2B050000 		.4byte	0x52b
 1267 0525 12       		.uleb128 0x12
 1268 0526 2B050000 		.4byte	0x52b
 1269 052a 00       		.byte	0
 1270 052b 09       		.uleb128 0x9
 1271 052c 04       		.byte	0x4
 1272 052d 86040000 		.4byte	0x486
 1273 0531 09       		.uleb128 0x9
 1274 0532 04       		.byte	0x4
 1275 0533 49000000 		.4byte	0x49
 1276 0537 03       		.uleb128 0x3
 1277 0538 AF010000 		.4byte	.LASF75
 1278 053c 0A       		.byte	0xa
 1279 053d 7B       		.byte	0x7b
 1280 053e 86040000 		.4byte	0x486
 1281 0542 03       		.uleb128 0x3
 1282 0543 17000000 		.4byte	.LASF76
 1283 0547 0A       		.byte	0xa
 1284 0548 EE       		.byte	0xee
 1285 0549 86040000 		.4byte	0x486
 1286 054d 11       		.uleb128 0x11
 1287 054e 01       		.byte	0x1
 1288 054f 30000000 		.4byte	0x30
 1289 0553 67050000 		.4byte	0x567
 1290 0557 12       		.uleb128 0x12
 1291 0558 A7020000 		.4byte	0x2a7
 1292 055c 12       		.uleb128 0x12
 1293 055d 67050000 		.4byte	0x567
 1294 0561 12       		.uleb128 0x12
ARM GAS  /var/folders/5n/p_75w94d66l9ssrldxqdhh700000gn/T//ccnXI7YX.s 			page 24


 1295 0562 30000000 		.4byte	0x30
 1296 0566 00       		.byte	0
 1297 0567 09       		.uleb128 0x9
 1298 0568 04       		.byte	0x4
 1299 0569 6D050000 		.4byte	0x56d
 1300 056d 10       		.uleb128 0x10
 1301 056e 49000000 		.4byte	0x49
 1302 0572 09       		.uleb128 0x9
 1303 0573 04       		.byte	0x4
 1304 0574 4D050000 		.4byte	0x54d
 1305 0578 11       		.uleb128 0x11
 1306 0579 01       		.byte	0x1
 1307 057a 30000000 		.4byte	0x30
 1308 057e 92050000 		.4byte	0x592
 1309 0582 12       		.uleb128 0x12
 1310 0583 A7020000 		.4byte	0x2a7
 1311 0587 12       		.uleb128 0x12
 1312 0588 31050000 		.4byte	0x531
 1313 058c 12       		.uleb128 0x12
 1314 058d 30000000 		.4byte	0x30
 1315 0591 00       		.byte	0
 1316 0592 09       		.uleb128 0x9
 1317 0593 04       		.byte	0x4
 1318 0594 78050000 		.4byte	0x578
 1319 0598 11       		.uleb128 0x11
 1320 0599 01       		.byte	0x1
 1321 059a E8000000 		.4byte	0xe8
 1322 059e AD050000 		.4byte	0x5ad
 1323 05a2 12       		.uleb128 0x12
 1324 05a3 A7020000 		.4byte	0x2a7
 1325 05a7 12       		.uleb128 0x12
 1326 05a8 49000000 		.4byte	0x49
 1327 05ac 00       		.byte	0
 1328 05ad 09       		.uleb128 0x9
 1329 05ae 04       		.byte	0x4
 1330 05af 98050000 		.4byte	0x598
 1331 05b3 0D       		.uleb128 0xd
 1332 05b4 62000000 		.4byte	0x62
 1333 05b8 0D       		.uleb128 0xd
 1334 05b9 74000000 		.4byte	0x74
 1335 05bd 14       		.uleb128 0x14
 1336 05be 1C       		.byte	0x1c
 1337 05bf 0B       		.byte	0xb
 1338 05c0 9303     		.2byte	0x393
 1339 05c2 97060000 		.4byte	0x697
 1340 05c6 0C       		.uleb128 0xc
 1341 05c7 535200   		.ascii	"SR\000"
 1342 05ca 0B       		.byte	0xb
 1343 05cb 9503     		.2byte	0x395
 1344 05cd B3050000 		.4byte	0x5b3
 1345 05d1 02       		.byte	0x2
 1346 05d2 23       		.byte	0x23
 1347 05d3 00       		.uleb128 0
 1348 05d4 15       		.uleb128 0x15
 1349 05d5 31020000 		.4byte	.LASF77
 1350 05d9 0B       		.byte	0xb
 1351 05da 9603     		.2byte	0x396
ARM GAS  /var/folders/5n/p_75w94d66l9ssrldxqdhh700000gn/T//ccnXI7YX.s 			page 25


 1352 05dc 62000000 		.4byte	0x62
 1353 05e0 02       		.byte	0x2
 1354 05e1 23       		.byte	0x23
 1355 05e2 02       		.uleb128 0x2
 1356 05e3 0C       		.uleb128 0xc
 1357 05e4 445200   		.ascii	"DR\000"
 1358 05e7 0B       		.byte	0xb
 1359 05e8 9703     		.2byte	0x397
 1360 05ea B3050000 		.4byte	0x5b3
 1361 05ee 02       		.byte	0x2
 1362 05ef 23       		.byte	0x23
 1363 05f0 04       		.uleb128 0x4
 1364 05f1 15       		.uleb128 0x15
 1365 05f2 3B020000 		.4byte	.LASF78
 1366 05f6 0B       		.byte	0xb
 1367 05f7 9803     		.2byte	0x398
 1368 05f9 62000000 		.4byte	0x62
 1369 05fd 02       		.byte	0x2
 1370 05fe 23       		.byte	0x23
 1371 05ff 06       		.uleb128 0x6
 1372 0600 0C       		.uleb128 0xc
 1373 0601 42525200 		.ascii	"BRR\000"
 1374 0605 0B       		.byte	0xb
 1375 0606 9903     		.2byte	0x399
 1376 0608 B3050000 		.4byte	0x5b3
 1377 060c 02       		.byte	0x2
 1378 060d 23       		.byte	0x23
 1379 060e 08       		.uleb128 0x8
 1380 060f 15       		.uleb128 0x15
 1381 0610 45020000 		.4byte	.LASF79
 1382 0614 0B       		.byte	0xb
 1383 0615 9A03     		.2byte	0x39a
 1384 0617 62000000 		.4byte	0x62
 1385 061b 02       		.byte	0x2
 1386 061c 23       		.byte	0x23
 1387 061d 0A       		.uleb128 0xa
 1388 061e 0C       		.uleb128 0xc
 1389 061f 43523100 		.ascii	"CR1\000"
 1390 0623 0B       		.byte	0xb
 1391 0624 9B03     		.2byte	0x39b
 1392 0626 B3050000 		.4byte	0x5b3
 1393 062a 02       		.byte	0x2
 1394 062b 23       		.byte	0x23
 1395 062c 0C       		.uleb128 0xc
 1396 062d 15       		.uleb128 0x15
 1397 062e 4F020000 		.4byte	.LASF80
 1398 0632 0B       		.byte	0xb
 1399 0633 9C03     		.2byte	0x39c
 1400 0635 62000000 		.4byte	0x62
 1401 0639 02       		.byte	0x2
 1402 063a 23       		.byte	0x23
 1403 063b 0E       		.uleb128 0xe
 1404 063c 0C       		.uleb128 0xc
 1405 063d 43523200 		.ascii	"CR2\000"
 1406 0641 0B       		.byte	0xb
 1407 0642 9D03     		.2byte	0x39d
 1408 0644 B3050000 		.4byte	0x5b3
ARM GAS  /var/folders/5n/p_75w94d66l9ssrldxqdhh700000gn/T//ccnXI7YX.s 			page 26


 1409 0648 02       		.byte	0x2
 1410 0649 23       		.byte	0x23
 1411 064a 10       		.uleb128 0x10
 1412 064b 15       		.uleb128 0x15
 1413 064c 59020000 		.4byte	.LASF81
 1414 0650 0B       		.byte	0xb
 1415 0651 9E03     		.2byte	0x39e
 1416 0653 62000000 		.4byte	0x62
 1417 0657 02       		.byte	0x2
 1418 0658 23       		.byte	0x23
 1419 0659 12       		.uleb128 0x12
 1420 065a 0C       		.uleb128 0xc
 1421 065b 43523300 		.ascii	"CR3\000"
 1422 065f 0B       		.byte	0xb
 1423 0660 9F03     		.2byte	0x39f
 1424 0662 B3050000 		.4byte	0x5b3
 1425 0666 02       		.byte	0x2
 1426 0667 23       		.byte	0x23
 1427 0668 14       		.uleb128 0x14
 1428 0669 15       		.uleb128 0x15
 1429 066a 17030000 		.4byte	.LASF82
 1430 066e 0B       		.byte	0xb
 1431 066f A003     		.2byte	0x3a0
 1432 0671 62000000 		.4byte	0x62
 1433 0675 02       		.byte	0x2
 1434 0676 23       		.byte	0x23
 1435 0677 16       		.uleb128 0x16
 1436 0678 15       		.uleb128 0x15
 1437 0679 87000000 		.4byte	.LASF83
 1438 067d 0B       		.byte	0xb
 1439 067e A103     		.2byte	0x3a1
 1440 0680 B3050000 		.4byte	0x5b3
 1441 0684 02       		.byte	0x2
 1442 0685 23       		.byte	0x23
 1443 0686 18       		.uleb128 0x18
 1444 0687 15       		.uleb128 0x15
 1445 0688 6A020000 		.4byte	.LASF84
 1446 068c 0B       		.byte	0xb
 1447 068d A203     		.2byte	0x3a2
 1448 068f 62000000 		.4byte	0x62
 1449 0693 02       		.byte	0x2
 1450 0694 23       		.byte	0x23
 1451 0695 1A       		.uleb128 0x1a
 1452 0696 00       		.byte	0
 1453 0697 16       		.uleb128 0x16
 1454 0698 7A010000 		.4byte	.LASF85
 1455 069c 0B       		.byte	0xb
 1456 069d A303     		.2byte	0x3a3
 1457 069f BD050000 		.4byte	0x5bd
 1458 06a3 11       		.uleb128 0x11
 1459 06a4 01       		.byte	0x1
 1460 06a5 E8000000 		.4byte	0xe8
 1461 06a9 BD060000 		.4byte	0x6bd
 1462 06ad 12       		.uleb128 0x12
 1463 06ae A7020000 		.4byte	0x2a7
 1464 06b2 12       		.uleb128 0x12
 1465 06b3 49000000 		.4byte	0x49
ARM GAS  /var/folders/5n/p_75w94d66l9ssrldxqdhh700000gn/T//ccnXI7YX.s 			page 27


 1466 06b7 12       		.uleb128 0x12
 1467 06b8 09010000 		.4byte	0x109
 1468 06bc 00       		.byte	0
 1469 06bd 09       		.uleb128 0x9
 1470 06be 04       		.byte	0x4
 1471 06bf A3060000 		.4byte	0x6a3
 1472 06c3 11       		.uleb128 0x11
 1473 06c4 01       		.byte	0x1
 1474 06c5 E8000000 		.4byte	0xe8
 1475 06c9 D8060000 		.4byte	0x6d8
 1476 06cd 12       		.uleb128 0x12
 1477 06ce A7020000 		.4byte	0x2a7
 1478 06d2 12       		.uleb128 0x12
 1479 06d3 09010000 		.4byte	0x109
 1480 06d7 00       		.byte	0
 1481 06d8 09       		.uleb128 0x9
 1482 06d9 04       		.byte	0x4
 1483 06da C3060000 		.4byte	0x6c3
 1484 06de 11       		.uleb128 0x11
 1485 06df 01       		.byte	0x1
 1486 06e0 30000000 		.4byte	0x30
 1487 06e4 FD060000 		.4byte	0x6fd
 1488 06e8 12       		.uleb128 0x12
 1489 06e9 A7020000 		.4byte	0x2a7
 1490 06ed 12       		.uleb128 0x12
 1491 06ee 67050000 		.4byte	0x567
 1492 06f2 12       		.uleb128 0x12
 1493 06f3 30000000 		.4byte	0x30
 1494 06f7 12       		.uleb128 0x12
 1495 06f8 09010000 		.4byte	0x109
 1496 06fc 00       		.byte	0
 1497 06fd 09       		.uleb128 0x9
 1498 06fe 04       		.byte	0x4
 1499 06ff DE060000 		.4byte	0x6de
 1500 0703 11       		.uleb128 0x11
 1501 0704 01       		.byte	0x1
 1502 0705 30000000 		.4byte	0x30
 1503 0709 22070000 		.4byte	0x722
 1504 070d 12       		.uleb128 0x12
 1505 070e A7020000 		.4byte	0x2a7
 1506 0712 12       		.uleb128 0x12
 1507 0713 31050000 		.4byte	0x531
 1508 0717 12       		.uleb128 0x12
 1509 0718 30000000 		.4byte	0x30
 1510 071c 12       		.uleb128 0x12
 1511 071d 09010000 		.4byte	0x109
 1512 0721 00       		.byte	0
 1513 0722 09       		.uleb128 0x9
 1514 0723 04       		.byte	0x4
 1515 0724 03070000 		.4byte	0x703
 1516 0728 17       		.uleb128 0x17
 1517 0729 01       		.byte	0x1
 1518 072a 0C       		.byte	0xc
 1519 072b 5D       		.byte	0x5d
 1520 072c 43070000 		.4byte	0x743
 1521 0730 18       		.uleb128 0x18
 1522 0731 0D030000 		.4byte	.LASF86
ARM GAS  /var/folders/5n/p_75w94d66l9ssrldxqdhh700000gn/T//ccnXI7YX.s 			page 28


 1523 0735 00       		.sleb128 0
 1524 0736 18       		.uleb128 0x18
 1525 0737 F3020000 		.4byte	.LASF87
 1526 073b 01       		.sleb128 1
 1527 073c 18       		.uleb128 0x18
 1528 073d C9030000 		.4byte	.LASF88
 1529 0741 02       		.sleb128 2
 1530 0742 00       		.byte	0
 1531 0743 03       		.uleb128 0x3
 1532 0744 2A030000 		.4byte	.LASF89
 1533 0748 0C       		.byte	0xc
 1534 0749 61       		.byte	0x61
 1535 074a 28070000 		.4byte	0x728
 1536 074e 03       		.uleb128 0x3
 1537 074f 34030000 		.4byte	.LASF90
 1538 0753 0C       		.byte	0xc
 1539 0754 66       		.byte	0x66
 1540 0755 59070000 		.4byte	0x759
 1541 0759 05       		.uleb128 0x5
 1542 075a 34030000 		.4byte	.LASF90
 1543 075e 78       		.byte	0x78
 1544 075f 0C       		.byte	0xc
 1545 0760 80       		.byte	0x80
 1546 0761 D4070000 		.4byte	0x7d4
 1547 0765 07       		.uleb128 0x7
 1548 0766 766D7400 		.ascii	"vmt\000"
 1549 076a 0C       		.byte	0xc
 1550 076b 82       		.byte	0x82
 1551 076c 9D080000 		.4byte	0x89d
 1552 0770 02       		.byte	0x2
 1553 0771 23       		.byte	0x23
 1554 0772 00       		.uleb128 0
 1555 0773 06       		.uleb128 0x6
 1556 0774 54010000 		.4byte	.LASF91
 1557 0778 0C       		.byte	0xc
 1558 0779 83       		.byte	0x83
 1559 077a 18040000 		.4byte	0x418
 1560 077e 02       		.byte	0x2
 1561 077f 23       		.byte	0x23
 1562 0780 04       		.uleb128 0x4
 1563 0781 06       		.uleb128 0x6
 1564 0782 AD000000 		.4byte	.LASF92
 1565 0786 0C       		.byte	0xc
 1566 0787 83       		.byte	0x83
 1567 0788 43070000 		.4byte	0x743
 1568 078c 02       		.byte	0x2
 1569 078d 23       		.byte	0x23
 1570 078e 08       		.uleb128 0x8
 1571 078f 06       		.uleb128 0x6
 1572 0790 35010000 		.4byte	.LASF93
 1573 0794 0C       		.byte	0xc
 1574 0795 83       		.byte	0x83
 1575 0796 37050000 		.4byte	0x537
 1576 079a 02       		.byte	0x2
 1577 079b 23       		.byte	0x23
 1578 079c 0C       		.uleb128 0xc
 1579 079d 06       		.uleb128 0x6
ARM GAS  /var/folders/5n/p_75w94d66l9ssrldxqdhh700000gn/T//ccnXI7YX.s 			page 29


 1580 079e 73010000 		.4byte	.LASF94
 1581 07a2 0C       		.byte	0xc
 1582 07a3 83       		.byte	0x83
 1583 07a4 42050000 		.4byte	0x542
 1584 07a8 02       		.byte	0x2
 1585 07a9 23       		.byte	0x23
 1586 07aa 30       		.uleb128 0x30
 1587 07ab 07       		.uleb128 0x7
 1588 07ac 696200   		.ascii	"ib\000"
 1589 07af 0C       		.byte	0xc
 1590 07b0 83       		.byte	0x83
 1591 07b1 A8080000 		.4byte	0x8a8
 1592 07b5 02       		.byte	0x2
 1593 07b6 23       		.byte	0x23
 1594 07b7 54       		.uleb128 0x54
 1595 07b8 07       		.uleb128 0x7
 1596 07b9 6F6200   		.ascii	"ob\000"
 1597 07bc 0C       		.byte	0xc
 1598 07bd 83       		.byte	0x83
 1599 07be A8080000 		.4byte	0x8a8
 1600 07c2 02       		.byte	0x2
 1601 07c3 23       		.byte	0x23
 1602 07c4 64       		.uleb128 0x64
 1603 07c5 06       		.uleb128 0x6
 1604 07c6 01010000 		.4byte	.LASF95
 1605 07ca 0C       		.byte	0xc
 1606 07cb 83       		.byte	0x83
 1607 07cc B8080000 		.4byte	0x8b8
 1608 07d0 02       		.byte	0x2
 1609 07d1 23       		.byte	0x23
 1610 07d2 74       		.uleb128 0x74
 1611 07d3 00       		.byte	0
 1612 07d4 08       		.uleb128 0x8
 1613 07d5 0C       		.byte	0xc
 1614 07d6 0D       		.byte	0xd
 1615 07d7 DB       		.byte	0xdb
 1616 07d8 15080000 		.4byte	0x815
 1617 07dc 06       		.uleb128 0x6
 1618 07dd 00000000 		.4byte	.LASF96
 1619 07e1 0D       		.byte	0xd
 1620 07e2 DF       		.byte	0xdf
 1621 07e3 86000000 		.4byte	0x86
 1622 07e7 02       		.byte	0x2
 1623 07e8 23       		.byte	0x23
 1624 07e9 00       		.uleb128 0
 1625 07ea 06       		.uleb128 0x6
 1626 07eb A6040000 		.4byte	.LASF97
 1627 07ef 0D       		.byte	0xd
 1628 07f0 E3       		.byte	0xe3
 1629 07f1 62000000 		.4byte	0x62
 1630 07f5 02       		.byte	0x2
 1631 07f6 23       		.byte	0x23
 1632 07f7 04       		.uleb128 0x4
 1633 07f8 06       		.uleb128 0x6
 1634 07f9 AD040000 		.4byte	.LASF98
 1635 07fd 0D       		.byte	0xd
 1636 07fe E7       		.byte	0xe7
ARM GAS  /var/folders/5n/p_75w94d66l9ssrldxqdhh700000gn/T//ccnXI7YX.s 			page 30


 1637 07ff 62000000 		.4byte	0x62
 1638 0803 02       		.byte	0x2
 1639 0804 23       		.byte	0x23
 1640 0805 06       		.uleb128 0x6
 1641 0806 06       		.uleb128 0x6
 1642 0807 B4040000 		.4byte	.LASF99
 1643 080b 0D       		.byte	0xd
 1644 080c EB       		.byte	0xeb
 1645 080d 62000000 		.4byte	0x62
 1646 0811 02       		.byte	0x2
 1647 0812 23       		.byte	0x23
 1648 0813 08       		.uleb128 0x8
 1649 0814 00       		.byte	0
 1650 0815 03       		.uleb128 0x3
 1651 0816 1C020000 		.4byte	.LASF100
 1652 081a 0D       		.byte	0xd
 1653 081b EC       		.byte	0xec
 1654 081c D4070000 		.4byte	0x7d4
 1655 0820 05       		.uleb128 0x5
 1656 0821 1D010000 		.4byte	.LASF101
 1657 0825 20       		.byte	0x20
 1658 0826 0C       		.byte	0xc
 1659 0827 75       		.byte	0x75
 1660 0828 9D080000 		.4byte	0x89d
 1661 082c 06       		.uleb128 0x6
 1662 082d D1010000 		.4byte	.LASF102
 1663 0831 0C       		.byte	0xc
 1664 0832 76       		.byte	0x76
 1665 0833 72050000 		.4byte	0x572
 1666 0837 02       		.byte	0x2
 1667 0838 23       		.byte	0x23
 1668 0839 00       		.uleb128 0
 1669 083a 06       		.uleb128 0x6
 1670 083b 53030000 		.4byte	.LASF103
 1671 083f 0C       		.byte	0xc
 1672 0840 76       		.byte	0x76
 1673 0841 92050000 		.4byte	0x592
 1674 0845 02       		.byte	0x2
 1675 0846 23       		.byte	0x23
 1676 0847 04       		.uleb128 0x4
 1677 0848 07       		.uleb128 0x7
 1678 0849 70757400 		.ascii	"put\000"
 1679 084d 0C       		.byte	0xc
 1680 084e 76       		.byte	0x76
 1681 084f AD050000 		.4byte	0x5ad
 1682 0853 02       		.byte	0x2
 1683 0854 23       		.byte	0x23
 1684 0855 08       		.uleb128 0x8
 1685 0856 07       		.uleb128 0x7
 1686 0857 67657400 		.ascii	"get\000"
 1687 085b 0C       		.byte	0xc
 1688 085c 76       		.byte	0x76
 1689 085d 70040000 		.4byte	0x470
 1690 0861 02       		.byte	0x2
 1691 0862 23       		.byte	0x23
 1692 0863 0C       		.uleb128 0xc
 1693 0864 06       		.uleb128 0x6
ARM GAS  /var/folders/5n/p_75w94d66l9ssrldxqdhh700000gn/T//ccnXI7YX.s 			page 31


 1694 0865 D7010000 		.4byte	.LASF104
 1695 0869 0C       		.byte	0xc
 1696 086a 76       		.byte	0x76
 1697 086b BD060000 		.4byte	0x6bd
 1698 086f 02       		.byte	0x2
 1699 0870 23       		.byte	0x23
 1700 0871 10       		.uleb128 0x10
 1701 0872 06       		.uleb128 0x6
 1702 0873 4F010000 		.4byte	.LASF105
 1703 0877 0C       		.byte	0xc
 1704 0878 76       		.byte	0x76
 1705 0879 D8060000 		.4byte	0x6d8
 1706 087d 02       		.byte	0x2
 1707 087e 23       		.byte	0x23
 1708 087f 14       		.uleb128 0x14
 1709 0880 06       		.uleb128 0x6
 1710 0881 88010000 		.4byte	.LASF106
 1711 0885 0C       		.byte	0xc
 1712 0886 76       		.byte	0x76
 1713 0887 FD060000 		.4byte	0x6fd
 1714 088b 02       		.byte	0x2
 1715 088c 23       		.byte	0x23
 1716 088d 18       		.uleb128 0x18
 1717 088e 06       		.uleb128 0x6
 1718 088f 5D000000 		.4byte	.LASF107
 1719 0893 0C       		.byte	0xc
 1720 0894 76       		.byte	0x76
 1721 0895 22070000 		.4byte	0x722
 1722 0899 02       		.byte	0x2
 1723 089a 23       		.byte	0x23
 1724 089b 1C       		.uleb128 0x1c
 1725 089c 00       		.byte	0
 1726 089d 09       		.uleb128 0x9
 1727 089e 04       		.byte	0x4
 1728 089f A3080000 		.4byte	0x8a3
 1729 08a3 10       		.uleb128 0x10
 1730 08a4 20080000 		.4byte	0x820
 1731 08a8 19       		.uleb128 0x19
 1732 08a9 49000000 		.4byte	0x49
 1733 08ad B8080000 		.4byte	0x8b8
 1734 08b1 1A       		.uleb128 0x1a
 1735 08b2 3B000000 		.4byte	0x3b
 1736 08b6 0F       		.byte	0xf
 1737 08b7 00       		.byte	0
 1738 08b8 09       		.uleb128 0x9
 1739 08b9 04       		.byte	0x4
 1740 08ba 97060000 		.4byte	0x697
 1741 08be 1B       		.uleb128 0x1b
 1742 08bf 5D000000 		.4byte	.LASF107
 1743 08c3 01       		.byte	0x1
 1744 08c4 5C       		.byte	0x5c
 1745 08c5 01       		.byte	0x1
 1746 08c6 30000000 		.4byte	0x30
 1747 08ca 00000000 		.4byte	.LFB125
 1748 08ce 06000000 		.4byte	.LFE125
 1749 08d2 02       		.byte	0x2
 1750 08d3 7D       		.byte	0x7d
ARM GAS  /var/folders/5n/p_75w94d66l9ssrldxqdhh700000gn/T//ccnXI7YX.s 			page 32


 1751 08d4 00       		.sleb128 0
 1752 08d5 12090000 		.4byte	0x912
 1753 08d9 1C       		.uleb128 0x1c
 1754 08da 697000   		.ascii	"ip\000"
 1755 08dd 01       		.byte	0x1
 1756 08de 5C       		.byte	0x5c
 1757 08df A7020000 		.4byte	0x2a7
 1758 08e3 00000000 		.4byte	.LLST0
 1759 08e7 1C       		.uleb128 0x1c
 1760 08e8 627000   		.ascii	"bp\000"
 1761 08eb 01       		.byte	0x1
 1762 08ec 5C       		.byte	0x5c
 1763 08ed 31050000 		.4byte	0x531
 1764 08f1 20000000 		.4byte	.LLST1
 1765 08f5 1C       		.uleb128 0x1c
 1766 08f6 6E00     		.ascii	"n\000"
 1767 08f8 01       		.byte	0x1
 1768 08f9 5C       		.byte	0x5c
 1769 08fa 30000000 		.4byte	0x30
 1770 08fe 33000000 		.4byte	.LLST2
 1771 0902 1D       		.uleb128 0x1d
 1772 0903 17020000 		.4byte	.LASF108
 1773 0907 01       		.byte	0x1
 1774 0908 5C       		.byte	0x5c
 1775 0909 09010000 		.4byte	0x109
 1776 090d 46000000 		.4byte	.LLST3
 1777 0911 00       		.byte	0
 1778 0912 1B       		.uleb128 0x1b
 1779 0913 53030000 		.4byte	.LASF103
 1780 0917 01       		.byte	0x1
 1781 0918 3D       		.byte	0x3d
 1782 0919 01       		.byte	0x1
 1783 091a 30000000 		.4byte	0x30
 1784 091e 00000000 		.4byte	.LFB119
 1785 0922 0A000000 		.4byte	.LFE119
 1786 0926 02       		.byte	0x2
 1787 0927 7D       		.byte	0x7d
 1788 0928 00       		.sleb128 0
 1789 0929 57090000 		.4byte	0x957
 1790 092d 1C       		.uleb128 0x1c
 1791 092e 697000   		.ascii	"ip\000"
 1792 0931 01       		.byte	0x1
 1793 0932 3D       		.byte	0x3d
 1794 0933 A7020000 		.4byte	0x2a7
 1795 0937 59000000 		.4byte	.LLST4
 1796 093b 1C       		.uleb128 0x1c
 1797 093c 627000   		.ascii	"bp\000"
 1798 093f 01       		.byte	0x1
 1799 0940 3D       		.byte	0x3d
 1800 0941 31050000 		.4byte	0x531
 1801 0945 79000000 		.4byte	.LLST5
 1802 0949 1C       		.uleb128 0x1c
 1803 094a 6E00     		.ascii	"n\000"
 1804 094c 01       		.byte	0x1
 1805 094d 3D       		.byte	0x3d
 1806 094e 30000000 		.4byte	0x30
 1807 0952 8C000000 		.4byte	.LLST6
ARM GAS  /var/folders/5n/p_75w94d66l9ssrldxqdhh700000gn/T//ccnXI7YX.s 			page 33


 1808 0956 00       		.byte	0
 1809 0957 1B       		.uleb128 0x1b
 1810 0958 88010000 		.4byte	.LASF106
 1811 095c 01       		.byte	0x1
 1812 095d 57       		.byte	0x57
 1813 095e 01       		.byte	0x1
 1814 095f 30000000 		.4byte	0x30
 1815 0963 00000000 		.4byte	.LFB124
 1816 0967 06000000 		.4byte	.LFE124
 1817 096b 02       		.byte	0x2
 1818 096c 7D       		.byte	0x7d
 1819 096d 00       		.sleb128 0
 1820 096e AB090000 		.4byte	0x9ab
 1821 0972 1C       		.uleb128 0x1c
 1822 0973 697000   		.ascii	"ip\000"
 1823 0976 01       		.byte	0x1
 1824 0977 57       		.byte	0x57
 1825 0978 A7020000 		.4byte	0x2a7
 1826 097c 9F000000 		.4byte	.LLST7
 1827 0980 1C       		.uleb128 0x1c
 1828 0981 627000   		.ascii	"bp\000"
 1829 0984 01       		.byte	0x1
 1830 0985 57       		.byte	0x57
 1831 0986 67050000 		.4byte	0x567
 1832 098a BF000000 		.4byte	.LLST8
 1833 098e 1C       		.uleb128 0x1c
 1834 098f 6E00     		.ascii	"n\000"
 1835 0991 01       		.byte	0x1
 1836 0992 57       		.byte	0x57
 1837 0993 30000000 		.4byte	0x30
 1838 0997 D2000000 		.4byte	.LLST9
 1839 099b 1D       		.uleb128 0x1d
 1840 099c 17020000 		.4byte	.LASF108
 1841 09a0 01       		.byte	0x1
 1842 09a1 57       		.byte	0x57
 1843 09a2 09010000 		.4byte	0x109
 1844 09a6 E5000000 		.4byte	.LLST10
 1845 09aa 00       		.byte	0
 1846 09ab 1B       		.uleb128 0x1b
 1847 09ac D1010000 		.4byte	.LASF102
 1848 09b0 01       		.byte	0x1
 1849 09b1 37       		.byte	0x37
 1850 09b2 01       		.byte	0x1
 1851 09b3 30000000 		.4byte	0x30
 1852 09b7 00000000 		.4byte	.LFB118
 1853 09bb 0A000000 		.4byte	.LFE118
 1854 09bf 02       		.byte	0x2
 1855 09c0 7D       		.byte	0x7d
 1856 09c1 00       		.sleb128 0
 1857 09c2 F0090000 		.4byte	0x9f0
 1858 09c6 1C       		.uleb128 0x1c
 1859 09c7 697000   		.ascii	"ip\000"
 1860 09ca 01       		.byte	0x1
 1861 09cb 37       		.byte	0x37
 1862 09cc A7020000 		.4byte	0x2a7
 1863 09d0 F8000000 		.4byte	.LLST11
 1864 09d4 1C       		.uleb128 0x1c
ARM GAS  /var/folders/5n/p_75w94d66l9ssrldxqdhh700000gn/T//ccnXI7YX.s 			page 34


 1865 09d5 627000   		.ascii	"bp\000"
 1866 09d8 01       		.byte	0x1
 1867 09d9 37       		.byte	0x37
 1868 09da 67050000 		.4byte	0x567
 1869 09de 18010000 		.4byte	.LLST12
 1870 09e2 1C       		.uleb128 0x1c
 1871 09e3 6E00     		.ascii	"n\000"
 1872 09e5 01       		.byte	0x1
 1873 09e6 37       		.byte	0x37
 1874 09e7 30000000 		.4byte	0x30
 1875 09eb 2B010000 		.4byte	.LLST13
 1876 09ef 00       		.byte	0
 1877 09f0 1B       		.uleb128 0x1b
 1878 09f1 4F010000 		.4byte	.LASF105
 1879 09f5 01       		.byte	0x1
 1880 09f6 52       		.byte	0x52
 1881 09f7 01       		.byte	0x1
 1882 09f8 E8000000 		.4byte	0xe8
 1883 09fc 00000000 		.4byte	.LFB123
 1884 0a00 06000000 		.4byte	.LFE123
 1885 0a04 02       		.byte	0x2
 1886 0a05 7D       		.byte	0x7d
 1887 0a06 00       		.sleb128 0
 1888 0a07 290A0000 		.4byte	0xa29
 1889 0a0b 1C       		.uleb128 0x1c
 1890 0a0c 697000   		.ascii	"ip\000"
 1891 0a0f 01       		.byte	0x1
 1892 0a10 52       		.byte	0x52
 1893 0a11 A7020000 		.4byte	0x2a7
 1894 0a15 3E010000 		.4byte	.LLST14
 1895 0a19 1D       		.uleb128 0x1d
 1896 0a1a 47010000 		.4byte	.LASF109
 1897 0a1e 01       		.byte	0x1
 1898 0a1f 52       		.byte	0x52
 1899 0a20 09010000 		.4byte	0x109
 1900 0a24 5E010000 		.4byte	.LLST15
 1901 0a28 00       		.byte	0
 1902 0a29 1E       		.uleb128 0x1e
 1903 0a2a 67657400 		.ascii	"get\000"
 1904 0a2e 01       		.byte	0x1
 1905 0a2f 48       		.byte	0x48
 1906 0a30 01       		.byte	0x1
 1907 0a31 E8000000 		.4byte	0xe8
 1908 0a35 00000000 		.4byte	.LFB121
 1909 0a39 0A000000 		.4byte	.LFE121
 1910 0a3d 02       		.byte	0x2
 1911 0a3e 7D       		.byte	0x7d
 1912 0a3f 00       		.sleb128 0
 1913 0a40 530A0000 		.4byte	0xa53
 1914 0a44 1C       		.uleb128 0x1c
 1915 0a45 697000   		.ascii	"ip\000"
 1916 0a48 01       		.byte	0x1
 1917 0a49 48       		.byte	0x48
 1918 0a4a A7020000 		.4byte	0x2a7
 1919 0a4e 71010000 		.4byte	.LLST16
 1920 0a52 00       		.byte	0
 1921 0a53 1B       		.uleb128 0x1b
ARM GAS  /var/folders/5n/p_75w94d66l9ssrldxqdhh700000gn/T//ccnXI7YX.s 			page 35


 1922 0a54 D7010000 		.4byte	.LASF104
 1923 0a58 01       		.byte	0x1
 1924 0a59 4D       		.byte	0x4d
 1925 0a5a 01       		.byte	0x1
 1926 0a5b E8000000 		.4byte	0xe8
 1927 0a5f 00000000 		.4byte	.LFB122
 1928 0a63 06000000 		.4byte	.LFE122
 1929 0a67 02       		.byte	0x2
 1930 0a68 7D       		.byte	0x7d
 1931 0a69 00       		.sleb128 0
 1932 0a6a 990A0000 		.4byte	0xa99
 1933 0a6e 1C       		.uleb128 0x1c
 1934 0a6f 697000   		.ascii	"ip\000"
 1935 0a72 01       		.byte	0x1
 1936 0a73 4D       		.byte	0x4d
 1937 0a74 A7020000 		.4byte	0x2a7
 1938 0a78 91010000 		.4byte	.LLST17
 1939 0a7c 1C       		.uleb128 0x1c
 1940 0a7d 6200     		.ascii	"b\000"
 1941 0a7f 01       		.byte	0x1
 1942 0a80 4D       		.byte	0x4d
 1943 0a81 49000000 		.4byte	0x49
 1944 0a85 B1010000 		.4byte	.LLST18
 1945 0a89 1D       		.uleb128 0x1d
 1946 0a8a 47010000 		.4byte	.LASF109
 1947 0a8e 01       		.byte	0x1
 1948 0a8f 4D       		.byte	0x4d
 1949 0a90 09010000 		.4byte	0x109
 1950 0a94 C4010000 		.4byte	.LLST19
 1951 0a98 00       		.byte	0
 1952 0a99 1E       		.uleb128 0x1e
 1953 0a9a 70757400 		.ascii	"put\000"
 1954 0a9e 01       		.byte	0x1
 1955 0a9f 43       		.byte	0x43
 1956 0aa0 01       		.byte	0x1
 1957 0aa1 E8000000 		.4byte	0xe8
 1958 0aa5 00000000 		.4byte	.LFB120
 1959 0aa9 0A000000 		.4byte	.LFE120
 1960 0aad 02       		.byte	0x2
 1961 0aae 7D       		.byte	0x7d
 1962 0aaf 00       		.sleb128 0
 1963 0ab0 D00A0000 		.4byte	0xad0
 1964 0ab4 1C       		.uleb128 0x1c
 1965 0ab5 697000   		.ascii	"ip\000"
 1966 0ab8 01       		.byte	0x1
 1967 0ab9 43       		.byte	0x43
 1968 0aba A7020000 		.4byte	0x2a7
 1969 0abe D7010000 		.4byte	.LLST20
 1970 0ac2 1C       		.uleb128 0x1c
 1971 0ac3 6200     		.ascii	"b\000"
 1972 0ac5 01       		.byte	0x1
 1973 0ac6 43       		.byte	0x43
 1974 0ac7 49000000 		.4byte	0x49
 1975 0acb F7010000 		.4byte	.LLST21
 1976 0acf 00       		.byte	0
 1977 0ad0 1F       		.uleb128 0x1f
 1978 0ad1 01       		.byte	0x1
ARM GAS  /var/folders/5n/p_75w94d66l9ssrldxqdhh700000gn/T//ccnXI7YX.s 			page 36


 1979 0ad2 BB040000 		.4byte	.LASF121
 1980 0ad6 01       		.byte	0x1
 1981 0ad7 71       		.byte	0x71
 1982 0ad8 01       		.byte	0x1
 1983 0ad9 00000000 		.4byte	.LFB126
 1984 0add 04000000 		.4byte	.LFE126
 1985 0ae1 02       		.byte	0x2
 1986 0ae2 7D       		.byte	0x7d
 1987 0ae3 00       		.sleb128 0
 1988 0ae4 20       		.uleb128 0x20
 1989 0ae5 01       		.byte	0x1
 1990 0ae6 50000000 		.4byte	.LASF112
 1991 0aea 01       		.byte	0x1
 1992 0aeb 85       		.byte	0x85
 1993 0aec 01       		.byte	0x1
 1994 0aed 00000000 		.4byte	.LFB127
 1995 0af1 44000000 		.4byte	.LFE127
 1996 0af5 0A020000 		.4byte	.LLST22
 1997 0af9 2B0B0000 		.4byte	0xb2b
 1998 0afd 1C       		.uleb128 0x1c
 1999 0afe 73647000 		.ascii	"sdp\000"
 2000 0b02 01       		.byte	0x1
 2001 0b03 85       		.byte	0x85
 2002 0b04 2B0B0000 		.4byte	0xb2b
 2003 0b08 36020000 		.4byte	.LLST23
 2004 0b0c 1D       		.uleb128 0x1d
 2005 0b0d 2D010000 		.4byte	.LASF110
 2006 0b11 01       		.byte	0x1
 2007 0b12 85       		.byte	0x85
 2008 0b13 0E050000 		.4byte	0x50e
 2009 0b17 54020000 		.4byte	.LLST24
 2010 0b1b 1D       		.uleb128 0x1d
 2011 0b1c 2D040000 		.4byte	.LASF111
 2012 0b20 01       		.byte	0x1
 2013 0b21 85       		.byte	0x85
 2014 0b22 0E050000 		.4byte	0x50e
 2015 0b26 72020000 		.4byte	.LLST25
 2016 0b2a 00       		.byte	0
 2017 0b2b 09       		.uleb128 0x9
 2018 0b2c 04       		.byte	0x4
 2019 0b2d 4E070000 		.4byte	0x74e
 2020 0b31 20       		.uleb128 0x20
 2021 0b32 01       		.byte	0x1
 2022 0b33 74030000 		.4byte	.LASF113
 2023 0b37 01       		.byte	0x1
 2024 0b38 98       		.byte	0x98
 2025 0b39 01       		.byte	0x1
 2026 0b3a 00000000 		.4byte	.LFB128
 2027 0b3e 1A000000 		.4byte	.LFE128
 2028 0b42 90020000 		.4byte	.LLST26
 2029 0b46 9B0B0000 		.4byte	0xb9b
 2030 0b4a 1C       		.uleb128 0x1c
 2031 0b4b 73647000 		.ascii	"sdp\000"
 2032 0b4f 01       		.byte	0x1
 2033 0b50 98       		.byte	0x98
 2034 0b51 2B0B0000 		.4byte	0xb2b
 2035 0b55 B0020000 		.4byte	.LLST27
ARM GAS  /var/folders/5n/p_75w94d66l9ssrldxqdhh700000gn/T//ccnXI7YX.s 			page 37


 2036 0b59 1D       		.uleb128 0x1d
 2037 0b5a 6D030000 		.4byte	.LASF114
 2038 0b5e 01       		.byte	0x1
 2039 0b5f 98       		.byte	0x98
 2040 0b60 9B0B0000 		.4byte	0xb9b
 2041 0b64 CE020000 		.4byte	.LLST28
 2042 0b68 21       		.uleb128 0x21
 2043 0b69 00000000 		.4byte	.Ldebug_ranges0+0
 2044 0b6d 810B0000 		.4byte	0xb81
 2045 0b71 22       		.uleb128 0x22
 2046 0b72 746D7000 		.ascii	"tmp\000"
 2047 0b76 01       		.byte	0x1
 2048 0b77 9C       		.byte	0x9c
 2049 0b78 86000000 		.4byte	0x86
 2050 0b7c E1020000 		.4byte	.LLST29
 2051 0b80 00       		.byte	0
 2052 0b81 23       		.uleb128 0x23
 2053 0b82 12000000 		.4byte	.LBB4
 2054 0b86 18000000 		.4byte	.LBE4
 2055 0b8a 22       		.uleb128 0x22
 2056 0b8b 746D7000 		.ascii	"tmp\000"
 2057 0b8f 01       		.byte	0x1
 2058 0b90 A2       		.byte	0xa2
 2059 0b91 86000000 		.4byte	0x86
 2060 0b95 F4020000 		.4byte	.LLST30
 2061 0b99 00       		.byte	0
 2062 0b9a 00       		.byte	0
 2063 0b9b 09       		.uleb128 0x9
 2064 0b9c 04       		.byte	0x4
 2065 0b9d A10B0000 		.4byte	0xba1
 2066 0ba1 10       		.uleb128 0x10
 2067 0ba2 15080000 		.4byte	0x815
 2068 0ba6 20       		.uleb128 0x20
 2069 0ba7 01       		.byte	0x1
 2070 0ba8 10020000 		.4byte	.LASF115
 2071 0bac 01       		.byte	0x1
 2072 0bad AE       		.byte	0xae
 2073 0bae 01       		.byte	0x1
 2074 0baf 00000000 		.4byte	.LFB129
 2075 0bb3 2E000000 		.4byte	.LFE129
 2076 0bb7 07030000 		.4byte	.LLST31
 2077 0bbb 010C0000 		.4byte	0xc01
 2078 0bbf 1C       		.uleb128 0x1c
 2079 0bc0 73647000 		.ascii	"sdp\000"
 2080 0bc4 01       		.byte	0x1
 2081 0bc5 AE       		.byte	0xae
 2082 0bc6 2B0B0000 		.4byte	0xb2b
 2083 0bca 27030000 		.4byte	.LLST32
 2084 0bce 21       		.uleb128 0x21
 2085 0bcf 18000000 		.4byte	.Ldebug_ranges0+0x18
 2086 0bd3 E70B0000 		.4byte	0xbe7
 2087 0bd7 22       		.uleb128 0x22
 2088 0bd8 746D7000 		.ascii	"tmp\000"
 2089 0bdc 01       		.byte	0x1
 2090 0bdd B2       		.byte	0xb2
 2091 0bde 86000000 		.4byte	0x86
 2092 0be2 45030000 		.4byte	.LLST33
ARM GAS  /var/folders/5n/p_75w94d66l9ssrldxqdhh700000gn/T//ccnXI7YX.s 			page 38


 2093 0be6 00       		.byte	0
 2094 0be7 23       		.uleb128 0x23
 2095 0be8 26000000 		.4byte	.LBB7
 2096 0bec 2C000000 		.4byte	.LBE7
 2097 0bf0 22       		.uleb128 0x22
 2098 0bf1 746D7000 		.ascii	"tmp\000"
 2099 0bf5 01       		.byte	0x1
 2100 0bf6 BB       		.byte	0xbb
 2101 0bf7 86000000 		.4byte	0x86
 2102 0bfb 58030000 		.4byte	.LLST34
 2103 0bff 00       		.byte	0
 2104 0c00 00       		.byte	0
 2105 0c01 20       		.uleb128 0x20
 2106 0c02 01       		.byte	0x1
 2107 0c03 5D030000 		.4byte	.LASF116
 2108 0c07 01       		.byte	0x1
 2109 0c08 CE       		.byte	0xce
 2110 0c09 01       		.byte	0x1
 2111 0c0a 00000000 		.4byte	.LFB130
 2112 0c0e 3C000000 		.4byte	.LFE130
 2113 0c12 6B030000 		.4byte	.LLST35
 2114 0c16 370C0000 		.4byte	0xc37
 2115 0c1a 1C       		.uleb128 0x1c
 2116 0c1b 73647000 		.ascii	"sdp\000"
 2117 0c1f 01       		.byte	0x1
 2118 0c20 CE       		.byte	0xce
 2119 0c21 2B0B0000 		.4byte	0xb2b
 2120 0c25 8B030000 		.4byte	.LLST36
 2121 0c29 1C       		.uleb128 0x1c
 2122 0c2a 6200     		.ascii	"b\000"
 2123 0c2c 01       		.byte	0x1
 2124 0c2d CE       		.byte	0xce
 2125 0c2e 49000000 		.4byte	0x49
 2126 0c32 A9030000 		.4byte	.LLST37
 2127 0c36 00       		.byte	0
 2128 0c37 24       		.uleb128 0x24
 2129 0c38 01       		.byte	0x1
 2130 0c39 FC030000 		.4byte	.LASF122
 2131 0c3d 01       		.byte	0x1
 2132 0c3e E8       		.byte	0xe8
 2133 0c3f 01       		.byte	0x1
 2134 0c40 E8000000 		.4byte	0xe8
 2135 0c44 00000000 		.4byte	.LFB131
 2136 0c48 20000000 		.4byte	.LFE131
 2137 0c4c C7030000 		.4byte	.LLST38
 2138 0c50 710C0000 		.4byte	0xc71
 2139 0c54 1C       		.uleb128 0x1c
 2140 0c55 73647000 		.ascii	"sdp\000"
 2141 0c59 01       		.byte	0x1
 2142 0c5a E8       		.byte	0xe8
 2143 0c5b 2B0B0000 		.4byte	0xb2b
 2144 0c5f E7030000 		.4byte	.LLST39
 2145 0c63 22       		.uleb128 0x22
 2146 0c64 6200     		.ascii	"b\000"
 2147 0c66 01       		.byte	0x1
 2148 0c67 E9       		.byte	0xe9
 2149 0c68 E8000000 		.4byte	0xe8
ARM GAS  /var/folders/5n/p_75w94d66l9ssrldxqdhh700000gn/T//ccnXI7YX.s 			page 39


 2150 0c6c 05040000 		.4byte	.LLST40
 2151 0c70 00       		.byte	0
 2152 0c71 25       		.uleb128 0x25
 2153 0c72 43000000 		.4byte	.LASF117
 2154 0c76 0E       		.byte	0xe
 2155 0c77 9806     		.2byte	0x698
 2156 0c79 B8050000 		.4byte	0x5b8
 2157 0c7d 01       		.byte	0x1
 2158 0c7e 01       		.byte	0x1
 2159 0c7f 26       		.uleb128 0x26
 2160 0c80 766D7400 		.ascii	"vmt\000"
 2161 0c84 01       		.byte	0x1
 2162 0c85 61       		.byte	0x61
 2163 0c86 A3080000 		.4byte	0x8a3
 2164 0c8a 05       		.byte	0x5
 2165 0c8b 03       		.byte	0x3
 2166 0c8c 00000000 		.4byte	vmt
 2167 0c90 25       		.uleb128 0x25
 2168 0c91 43000000 		.4byte	.LASF117
 2169 0c95 0E       		.byte	0xe
 2170 0c96 9806     		.2byte	0x698
 2171 0c98 B8050000 		.4byte	0x5b8
 2172 0c9c 01       		.byte	0x1
 2173 0c9d 01       		.byte	0x1
 2174 0c9e 00       		.byte	0
 2175              		.section	.debug_abbrev,"",%progbits
 2176              	.Ldebug_abbrev0:
 2177 0000 01       		.uleb128 0x1
 2178 0001 11       		.uleb128 0x11
 2179 0002 01       		.byte	0x1
 2180 0003 25       		.uleb128 0x25
 2181 0004 0E       		.uleb128 0xe
 2182 0005 13       		.uleb128 0x13
 2183 0006 0B       		.uleb128 0xb
 2184 0007 03       		.uleb128 0x3
 2185 0008 0E       		.uleb128 0xe
 2186 0009 1B       		.uleb128 0x1b
 2187 000a 0E       		.uleb128 0xe
 2188 000b 11       		.uleb128 0x11
 2189 000c 01       		.uleb128 0x1
 2190 000d 52       		.uleb128 0x52
 2191 000e 01       		.uleb128 0x1
 2192 000f 55       		.uleb128 0x55
 2193 0010 06       		.uleb128 0x6
 2194 0011 10       		.uleb128 0x10
 2195 0012 06       		.uleb128 0x6
 2196 0013 00       		.byte	0
 2197 0014 00       		.byte	0
 2198 0015 02       		.uleb128 0x2
 2199 0016 24       		.uleb128 0x24
 2200 0017 00       		.byte	0
 2201 0018 0B       		.uleb128 0xb
 2202 0019 0B       		.uleb128 0xb
 2203 001a 3E       		.uleb128 0x3e
 2204 001b 0B       		.uleb128 0xb
 2205 001c 03       		.uleb128 0x3
 2206 001d 08       		.uleb128 0x8
ARM GAS  /var/folders/5n/p_75w94d66l9ssrldxqdhh700000gn/T//ccnXI7YX.s 			page 40


 2207 001e 00       		.byte	0
 2208 001f 00       		.byte	0
 2209 0020 03       		.uleb128 0x3
 2210 0021 16       		.uleb128 0x16
 2211 0022 00       		.byte	0
 2212 0023 03       		.uleb128 0x3
 2213 0024 0E       		.uleb128 0xe
 2214 0025 3A       		.uleb128 0x3a
 2215 0026 0B       		.uleb128 0xb
 2216 0027 3B       		.uleb128 0x3b
 2217 0028 0B       		.uleb128 0xb
 2218 0029 49       		.uleb128 0x49
 2219 002a 13       		.uleb128 0x13
 2220 002b 00       		.byte	0
 2221 002c 00       		.byte	0
 2222 002d 04       		.uleb128 0x4
 2223 002e 24       		.uleb128 0x24
 2224 002f 00       		.byte	0
 2225 0030 0B       		.uleb128 0xb
 2226 0031 0B       		.uleb128 0xb
 2227 0032 3E       		.uleb128 0x3e
 2228 0033 0B       		.uleb128 0xb
 2229 0034 03       		.uleb128 0x3
 2230 0035 0E       		.uleb128 0xe
 2231 0036 00       		.byte	0
 2232 0037 00       		.byte	0
 2233 0038 05       		.uleb128 0x5
 2234 0039 13       		.uleb128 0x13
 2235 003a 01       		.byte	0x1
 2236 003b 03       		.uleb128 0x3
 2237 003c 0E       		.uleb128 0xe
 2238 003d 0B       		.uleb128 0xb
 2239 003e 0B       		.uleb128 0xb
 2240 003f 3A       		.uleb128 0x3a
 2241 0040 0B       		.uleb128 0xb
 2242 0041 3B       		.uleb128 0x3b
 2243 0042 0B       		.uleb128 0xb
 2244 0043 01       		.uleb128 0x1
 2245 0044 13       		.uleb128 0x13
 2246 0045 00       		.byte	0
 2247 0046 00       		.byte	0
 2248 0047 06       		.uleb128 0x6
 2249 0048 0D       		.uleb128 0xd
 2250 0049 00       		.byte	0
 2251 004a 03       		.uleb128 0x3
 2252 004b 0E       		.uleb128 0xe
 2253 004c 3A       		.uleb128 0x3a
 2254 004d 0B       		.uleb128 0xb
 2255 004e 3B       		.uleb128 0x3b
 2256 004f 0B       		.uleb128 0xb
 2257 0050 49       		.uleb128 0x49
 2258 0051 13       		.uleb128 0x13
 2259 0052 38       		.uleb128 0x38
 2260 0053 0A       		.uleb128 0xa
 2261 0054 00       		.byte	0
 2262 0055 00       		.byte	0
 2263 0056 07       		.uleb128 0x7
ARM GAS  /var/folders/5n/p_75w94d66l9ssrldxqdhh700000gn/T//ccnXI7YX.s 			page 41


 2264 0057 0D       		.uleb128 0xd
 2265 0058 00       		.byte	0
 2266 0059 03       		.uleb128 0x3
 2267 005a 08       		.uleb128 0x8
 2268 005b 3A       		.uleb128 0x3a
 2269 005c 0B       		.uleb128 0xb
 2270 005d 3B       		.uleb128 0x3b
 2271 005e 0B       		.uleb128 0xb
 2272 005f 49       		.uleb128 0x49
 2273 0060 13       		.uleb128 0x13
 2274 0061 38       		.uleb128 0x38
 2275 0062 0A       		.uleb128 0xa
 2276 0063 00       		.byte	0
 2277 0064 00       		.byte	0
 2278 0065 08       		.uleb128 0x8
 2279 0066 13       		.uleb128 0x13
 2280 0067 01       		.byte	0x1
 2281 0068 0B       		.uleb128 0xb
 2282 0069 0B       		.uleb128 0xb
 2283 006a 3A       		.uleb128 0x3a
 2284 006b 0B       		.uleb128 0xb
 2285 006c 3B       		.uleb128 0x3b
 2286 006d 0B       		.uleb128 0xb
 2287 006e 01       		.uleb128 0x1
 2288 006f 13       		.uleb128 0x13
 2289 0070 00       		.byte	0
 2290 0071 00       		.byte	0
 2291 0072 09       		.uleb128 0x9
 2292 0073 0F       		.uleb128 0xf
 2293 0074 00       		.byte	0
 2294 0075 0B       		.uleb128 0xb
 2295 0076 0B       		.uleb128 0xb
 2296 0077 49       		.uleb128 0x49
 2297 0078 13       		.uleb128 0x13
 2298 0079 00       		.byte	0
 2299 007a 00       		.byte	0
 2300 007b 0A       		.uleb128 0xa
 2301 007c 0F       		.uleb128 0xf
 2302 007d 00       		.byte	0
 2303 007e 0B       		.uleb128 0xb
 2304 007f 0B       		.uleb128 0xb
 2305 0080 00       		.byte	0
 2306 0081 00       		.byte	0
 2307 0082 0B       		.uleb128 0xb
 2308 0083 13       		.uleb128 0x13
 2309 0084 01       		.byte	0x1
 2310 0085 03       		.uleb128 0x3
 2311 0086 0E       		.uleb128 0xe
 2312 0087 0B       		.uleb128 0xb
 2313 0088 0B       		.uleb128 0xb
 2314 0089 3A       		.uleb128 0x3a
 2315 008a 0B       		.uleb128 0xb
 2316 008b 3B       		.uleb128 0x3b
 2317 008c 05       		.uleb128 0x5
 2318 008d 01       		.uleb128 0x1
 2319 008e 13       		.uleb128 0x13
 2320 008f 00       		.byte	0
ARM GAS  /var/folders/5n/p_75w94d66l9ssrldxqdhh700000gn/T//ccnXI7YX.s 			page 42


 2321 0090 00       		.byte	0
 2322 0091 0C       		.uleb128 0xc
 2323 0092 0D       		.uleb128 0xd
 2324 0093 00       		.byte	0
 2325 0094 03       		.uleb128 0x3
 2326 0095 08       		.uleb128 0x8
 2327 0096 3A       		.uleb128 0x3a
 2328 0097 0B       		.uleb128 0xb
 2329 0098 3B       		.uleb128 0x3b
 2330 0099 05       		.uleb128 0x5
 2331 009a 49       		.uleb128 0x49
 2332 009b 13       		.uleb128 0x13
 2333 009c 38       		.uleb128 0x38
 2334 009d 0A       		.uleb128 0xa
 2335 009e 00       		.byte	0
 2336 009f 00       		.byte	0
 2337 00a0 0D       		.uleb128 0xd
 2338 00a1 35       		.uleb128 0x35
 2339 00a2 00       		.byte	0
 2340 00a3 49       		.uleb128 0x49
 2341 00a4 13       		.uleb128 0x13
 2342 00a5 00       		.byte	0
 2343 00a6 00       		.byte	0
 2344 00a7 0E       		.uleb128 0xe
 2345 00a8 17       		.uleb128 0x17
 2346 00a9 01       		.byte	0x1
 2347 00aa 0B       		.uleb128 0xb
 2348 00ab 0B       		.uleb128 0xb
 2349 00ac 3A       		.uleb128 0x3a
 2350 00ad 0B       		.uleb128 0xb
 2351 00ae 3B       		.uleb128 0x3b
 2352 00af 0B       		.uleb128 0xb
 2353 00b0 01       		.uleb128 0x1
 2354 00b1 13       		.uleb128 0x13
 2355 00b2 00       		.byte	0
 2356 00b3 00       		.byte	0
 2357 00b4 0F       		.uleb128 0xf
 2358 00b5 0D       		.uleb128 0xd
 2359 00b6 00       		.byte	0
 2360 00b7 03       		.uleb128 0x3
 2361 00b8 0E       		.uleb128 0xe
 2362 00b9 3A       		.uleb128 0x3a
 2363 00ba 0B       		.uleb128 0xb
 2364 00bb 3B       		.uleb128 0x3b
 2365 00bc 0B       		.uleb128 0xb
 2366 00bd 49       		.uleb128 0x49
 2367 00be 13       		.uleb128 0x13
 2368 00bf 00       		.byte	0
 2369 00c0 00       		.byte	0
 2370 00c1 10       		.uleb128 0x10
 2371 00c2 26       		.uleb128 0x26
 2372 00c3 00       		.byte	0
 2373 00c4 49       		.uleb128 0x49
 2374 00c5 13       		.uleb128 0x13
 2375 00c6 00       		.byte	0
 2376 00c7 00       		.byte	0
 2377 00c8 11       		.uleb128 0x11
ARM GAS  /var/folders/5n/p_75w94d66l9ssrldxqdhh700000gn/T//ccnXI7YX.s 			page 43


 2378 00c9 15       		.uleb128 0x15
 2379 00ca 01       		.byte	0x1
 2380 00cb 27       		.uleb128 0x27
 2381 00cc 0C       		.uleb128 0xc
 2382 00cd 49       		.uleb128 0x49
 2383 00ce 13       		.uleb128 0x13
 2384 00cf 01       		.uleb128 0x1
 2385 00d0 13       		.uleb128 0x13
 2386 00d1 00       		.byte	0
 2387 00d2 00       		.byte	0
 2388 00d3 12       		.uleb128 0x12
 2389 00d4 05       		.uleb128 0x5
 2390 00d5 00       		.byte	0
 2391 00d6 49       		.uleb128 0x49
 2392 00d7 13       		.uleb128 0x13
 2393 00d8 00       		.byte	0
 2394 00d9 00       		.byte	0
 2395 00da 13       		.uleb128 0x13
 2396 00db 15       		.uleb128 0x15
 2397 00dc 01       		.byte	0x1
 2398 00dd 27       		.uleb128 0x27
 2399 00de 0C       		.uleb128 0xc
 2400 00df 01       		.uleb128 0x1
 2401 00e0 13       		.uleb128 0x13
 2402 00e1 00       		.byte	0
 2403 00e2 00       		.byte	0
 2404 00e3 14       		.uleb128 0x14
 2405 00e4 13       		.uleb128 0x13
 2406 00e5 01       		.byte	0x1
 2407 00e6 0B       		.uleb128 0xb
 2408 00e7 0B       		.uleb128 0xb
 2409 00e8 3A       		.uleb128 0x3a
 2410 00e9 0B       		.uleb128 0xb
 2411 00ea 3B       		.uleb128 0x3b
 2412 00eb 05       		.uleb128 0x5
 2413 00ec 01       		.uleb128 0x1
 2414 00ed 13       		.uleb128 0x13
 2415 00ee 00       		.byte	0
 2416 00ef 00       		.byte	0
 2417 00f0 15       		.uleb128 0x15
 2418 00f1 0D       		.uleb128 0xd
 2419 00f2 00       		.byte	0
 2420 00f3 03       		.uleb128 0x3
 2421 00f4 0E       		.uleb128 0xe
 2422 00f5 3A       		.uleb128 0x3a
 2423 00f6 0B       		.uleb128 0xb
 2424 00f7 3B       		.uleb128 0x3b
 2425 00f8 05       		.uleb128 0x5
 2426 00f9 49       		.uleb128 0x49
 2427 00fa 13       		.uleb128 0x13
 2428 00fb 38       		.uleb128 0x38
 2429 00fc 0A       		.uleb128 0xa
 2430 00fd 00       		.byte	0
 2431 00fe 00       		.byte	0
 2432 00ff 16       		.uleb128 0x16
 2433 0100 16       		.uleb128 0x16
 2434 0101 00       		.byte	0
ARM GAS  /var/folders/5n/p_75w94d66l9ssrldxqdhh700000gn/T//ccnXI7YX.s 			page 44


 2435 0102 03       		.uleb128 0x3
 2436 0103 0E       		.uleb128 0xe
 2437 0104 3A       		.uleb128 0x3a
 2438 0105 0B       		.uleb128 0xb
 2439 0106 3B       		.uleb128 0x3b
 2440 0107 05       		.uleb128 0x5
 2441 0108 49       		.uleb128 0x49
 2442 0109 13       		.uleb128 0x13
 2443 010a 00       		.byte	0
 2444 010b 00       		.byte	0
 2445 010c 17       		.uleb128 0x17
 2446 010d 04       		.uleb128 0x4
 2447 010e 01       		.byte	0x1
 2448 010f 0B       		.uleb128 0xb
 2449 0110 0B       		.uleb128 0xb
 2450 0111 3A       		.uleb128 0x3a
 2451 0112 0B       		.uleb128 0xb
 2452 0113 3B       		.uleb128 0x3b
 2453 0114 0B       		.uleb128 0xb
 2454 0115 01       		.uleb128 0x1
 2455 0116 13       		.uleb128 0x13
 2456 0117 00       		.byte	0
 2457 0118 00       		.byte	0
 2458 0119 18       		.uleb128 0x18
 2459 011a 28       		.uleb128 0x28
 2460 011b 00       		.byte	0
 2461 011c 03       		.uleb128 0x3
 2462 011d 0E       		.uleb128 0xe
 2463 011e 1C       		.uleb128 0x1c
 2464 011f 0D       		.uleb128 0xd
 2465 0120 00       		.byte	0
 2466 0121 00       		.byte	0
 2467 0122 19       		.uleb128 0x19
 2468 0123 01       		.uleb128 0x1
 2469 0124 01       		.byte	0x1
 2470 0125 49       		.uleb128 0x49
 2471 0126 13       		.uleb128 0x13
 2472 0127 01       		.uleb128 0x1
 2473 0128 13       		.uleb128 0x13
 2474 0129 00       		.byte	0
 2475 012a 00       		.byte	0
 2476 012b 1A       		.uleb128 0x1a
 2477 012c 21       		.uleb128 0x21
 2478 012d 00       		.byte	0
 2479 012e 49       		.uleb128 0x49
 2480 012f 13       		.uleb128 0x13
 2481 0130 2F       		.uleb128 0x2f
 2482 0131 0B       		.uleb128 0xb
 2483 0132 00       		.byte	0
 2484 0133 00       		.byte	0
 2485 0134 1B       		.uleb128 0x1b
 2486 0135 2E       		.uleb128 0x2e
 2487 0136 01       		.byte	0x1
 2488 0137 03       		.uleb128 0x3
 2489 0138 0E       		.uleb128 0xe
 2490 0139 3A       		.uleb128 0x3a
 2491 013a 0B       		.uleb128 0xb
ARM GAS  /var/folders/5n/p_75w94d66l9ssrldxqdhh700000gn/T//ccnXI7YX.s 			page 45


 2492 013b 3B       		.uleb128 0x3b
 2493 013c 0B       		.uleb128 0xb
 2494 013d 27       		.uleb128 0x27
 2495 013e 0C       		.uleb128 0xc
 2496 013f 49       		.uleb128 0x49
 2497 0140 13       		.uleb128 0x13
 2498 0141 11       		.uleb128 0x11
 2499 0142 01       		.uleb128 0x1
 2500 0143 12       		.uleb128 0x12
 2501 0144 01       		.uleb128 0x1
 2502 0145 40       		.uleb128 0x40
 2503 0146 0A       		.uleb128 0xa
 2504 0147 01       		.uleb128 0x1
 2505 0148 13       		.uleb128 0x13
 2506 0149 00       		.byte	0
 2507 014a 00       		.byte	0
 2508 014b 1C       		.uleb128 0x1c
 2509 014c 05       		.uleb128 0x5
 2510 014d 00       		.byte	0
 2511 014e 03       		.uleb128 0x3
 2512 014f 08       		.uleb128 0x8
 2513 0150 3A       		.uleb128 0x3a
 2514 0151 0B       		.uleb128 0xb
 2515 0152 3B       		.uleb128 0x3b
 2516 0153 0B       		.uleb128 0xb
 2517 0154 49       		.uleb128 0x49
 2518 0155 13       		.uleb128 0x13
 2519 0156 02       		.uleb128 0x2
 2520 0157 06       		.uleb128 0x6
 2521 0158 00       		.byte	0
 2522 0159 00       		.byte	0
 2523 015a 1D       		.uleb128 0x1d
 2524 015b 05       		.uleb128 0x5
 2525 015c 00       		.byte	0
 2526 015d 03       		.uleb128 0x3
 2527 015e 0E       		.uleb128 0xe
 2528 015f 3A       		.uleb128 0x3a
 2529 0160 0B       		.uleb128 0xb
 2530 0161 3B       		.uleb128 0x3b
 2531 0162 0B       		.uleb128 0xb
 2532 0163 49       		.uleb128 0x49
 2533 0164 13       		.uleb128 0x13
 2534 0165 02       		.uleb128 0x2
 2535 0166 06       		.uleb128 0x6
 2536 0167 00       		.byte	0
 2537 0168 00       		.byte	0
 2538 0169 1E       		.uleb128 0x1e
 2539 016a 2E       		.uleb128 0x2e
 2540 016b 01       		.byte	0x1
 2541 016c 03       		.uleb128 0x3
 2542 016d 08       		.uleb128 0x8
 2543 016e 3A       		.uleb128 0x3a
 2544 016f 0B       		.uleb128 0xb
 2545 0170 3B       		.uleb128 0x3b
 2546 0171 0B       		.uleb128 0xb
 2547 0172 27       		.uleb128 0x27
 2548 0173 0C       		.uleb128 0xc
ARM GAS  /var/folders/5n/p_75w94d66l9ssrldxqdhh700000gn/T//ccnXI7YX.s 			page 46


 2549 0174 49       		.uleb128 0x49
 2550 0175 13       		.uleb128 0x13
 2551 0176 11       		.uleb128 0x11
 2552 0177 01       		.uleb128 0x1
 2553 0178 12       		.uleb128 0x12
 2554 0179 01       		.uleb128 0x1
 2555 017a 40       		.uleb128 0x40
 2556 017b 0A       		.uleb128 0xa
 2557 017c 01       		.uleb128 0x1
 2558 017d 13       		.uleb128 0x13
 2559 017e 00       		.byte	0
 2560 017f 00       		.byte	0
 2561 0180 1F       		.uleb128 0x1f
 2562 0181 2E       		.uleb128 0x2e
 2563 0182 00       		.byte	0
 2564 0183 3F       		.uleb128 0x3f
 2565 0184 0C       		.uleb128 0xc
 2566 0185 03       		.uleb128 0x3
 2567 0186 0E       		.uleb128 0xe
 2568 0187 3A       		.uleb128 0x3a
 2569 0188 0B       		.uleb128 0xb
 2570 0189 3B       		.uleb128 0x3b
 2571 018a 0B       		.uleb128 0xb
 2572 018b 27       		.uleb128 0x27
 2573 018c 0C       		.uleb128 0xc
 2574 018d 11       		.uleb128 0x11
 2575 018e 01       		.uleb128 0x1
 2576 018f 12       		.uleb128 0x12
 2577 0190 01       		.uleb128 0x1
 2578 0191 40       		.uleb128 0x40
 2579 0192 0A       		.uleb128 0xa
 2580 0193 00       		.byte	0
 2581 0194 00       		.byte	0
 2582 0195 20       		.uleb128 0x20
 2583 0196 2E       		.uleb128 0x2e
 2584 0197 01       		.byte	0x1
 2585 0198 3F       		.uleb128 0x3f
 2586 0199 0C       		.uleb128 0xc
 2587 019a 03       		.uleb128 0x3
 2588 019b 0E       		.uleb128 0xe
 2589 019c 3A       		.uleb128 0x3a
 2590 019d 0B       		.uleb128 0xb
 2591 019e 3B       		.uleb128 0x3b
 2592 019f 0B       		.uleb128 0xb
 2593 01a0 27       		.uleb128 0x27
 2594 01a1 0C       		.uleb128 0xc
 2595 01a2 11       		.uleb128 0x11
 2596 01a3 01       		.uleb128 0x1
 2597 01a4 12       		.uleb128 0x12
 2598 01a5 01       		.uleb128 0x1
 2599 01a6 40       		.uleb128 0x40
 2600 01a7 06       		.uleb128 0x6
 2601 01a8 01       		.uleb128 0x1
 2602 01a9 13       		.uleb128 0x13
 2603 01aa 00       		.byte	0
 2604 01ab 00       		.byte	0
 2605 01ac 21       		.uleb128 0x21
ARM GAS  /var/folders/5n/p_75w94d66l9ssrldxqdhh700000gn/T//ccnXI7YX.s 			page 47


 2606 01ad 0B       		.uleb128 0xb
 2607 01ae 01       		.byte	0x1
 2608 01af 55       		.uleb128 0x55
 2609 01b0 06       		.uleb128 0x6
 2610 01b1 01       		.uleb128 0x1
 2611 01b2 13       		.uleb128 0x13
 2612 01b3 00       		.byte	0
 2613 01b4 00       		.byte	0
 2614 01b5 22       		.uleb128 0x22
 2615 01b6 34       		.uleb128 0x34
 2616 01b7 00       		.byte	0
 2617 01b8 03       		.uleb128 0x3
 2618 01b9 08       		.uleb128 0x8
 2619 01ba 3A       		.uleb128 0x3a
 2620 01bb 0B       		.uleb128 0xb
 2621 01bc 3B       		.uleb128 0x3b
 2622 01bd 0B       		.uleb128 0xb
 2623 01be 49       		.uleb128 0x49
 2624 01bf 13       		.uleb128 0x13
 2625 01c0 02       		.uleb128 0x2
 2626 01c1 06       		.uleb128 0x6
 2627 01c2 00       		.byte	0
 2628 01c3 00       		.byte	0
 2629 01c4 23       		.uleb128 0x23
 2630 01c5 0B       		.uleb128 0xb
 2631 01c6 01       		.byte	0x1
 2632 01c7 11       		.uleb128 0x11
 2633 01c8 01       		.uleb128 0x1
 2634 01c9 12       		.uleb128 0x12
 2635 01ca 01       		.uleb128 0x1
 2636 01cb 00       		.byte	0
 2637 01cc 00       		.byte	0
 2638 01cd 24       		.uleb128 0x24
 2639 01ce 2E       		.uleb128 0x2e
 2640 01cf 01       		.byte	0x1
 2641 01d0 3F       		.uleb128 0x3f
 2642 01d1 0C       		.uleb128 0xc
 2643 01d2 03       		.uleb128 0x3
 2644 01d3 0E       		.uleb128 0xe
 2645 01d4 3A       		.uleb128 0x3a
 2646 01d5 0B       		.uleb128 0xb
 2647 01d6 3B       		.uleb128 0x3b
 2648 01d7 0B       		.uleb128 0xb
 2649 01d8 27       		.uleb128 0x27
 2650 01d9 0C       		.uleb128 0xc
 2651 01da 49       		.uleb128 0x49
 2652 01db 13       		.uleb128 0x13
 2653 01dc 11       		.uleb128 0x11
 2654 01dd 01       		.uleb128 0x1
 2655 01de 12       		.uleb128 0x12
 2656 01df 01       		.uleb128 0x1
 2657 01e0 40       		.uleb128 0x40
 2658 01e1 06       		.uleb128 0x6
 2659 01e2 01       		.uleb128 0x1
 2660 01e3 13       		.uleb128 0x13
 2661 01e4 00       		.byte	0
 2662 01e5 00       		.byte	0
ARM GAS  /var/folders/5n/p_75w94d66l9ssrldxqdhh700000gn/T//ccnXI7YX.s 			page 48


 2663 01e6 25       		.uleb128 0x25
 2664 01e7 34       		.uleb128 0x34
 2665 01e8 00       		.byte	0
 2666 01e9 03       		.uleb128 0x3
 2667 01ea 0E       		.uleb128 0xe
 2668 01eb 3A       		.uleb128 0x3a
 2669 01ec 0B       		.uleb128 0xb
 2670 01ed 3B       		.uleb128 0x3b
 2671 01ee 05       		.uleb128 0x5
 2672 01ef 49       		.uleb128 0x49
 2673 01f0 13       		.uleb128 0x13
 2674 01f1 3F       		.uleb128 0x3f
 2675 01f2 0C       		.uleb128 0xc
 2676 01f3 3C       		.uleb128 0x3c
 2677 01f4 0C       		.uleb128 0xc
 2678 01f5 00       		.byte	0
 2679 01f6 00       		.byte	0
 2680 01f7 26       		.uleb128 0x26
 2681 01f8 34       		.uleb128 0x34
 2682 01f9 00       		.byte	0
 2683 01fa 03       		.uleb128 0x3
 2684 01fb 08       		.uleb128 0x8
 2685 01fc 3A       		.uleb128 0x3a
 2686 01fd 0B       		.uleb128 0xb
 2687 01fe 3B       		.uleb128 0x3b
 2688 01ff 0B       		.uleb128 0xb
 2689 0200 49       		.uleb128 0x49
 2690 0201 13       		.uleb128 0x13
 2691 0202 02       		.uleb128 0x2
 2692 0203 0A       		.uleb128 0xa
 2693 0204 00       		.byte	0
 2694 0205 00       		.byte	0
 2695 0206 00       		.byte	0
 2696              		.section	.debug_loc,"",%progbits
 2697              	.Ldebug_loc0:
 2698              	.LLST0:
 2699 0000 00000000 		.4byte	.LVL0
 2700 0004 02000000 		.4byte	.LVL1
 2701 0008 0100     		.2byte	0x1
 2702 000a 50       		.byte	0x50
 2703 000b 02000000 		.4byte	.LVL1
 2704 000f 05000000 		.4byte	.LVL2-1
 2705 0013 0300     		.2byte	0x3
 2706 0015 70       		.byte	0x70
 2707 0016 74       		.sleb128 -12
 2708 0017 9F       		.byte	0x9f
 2709 0018 00000000 		.4byte	0
 2710 001c 00000000 		.4byte	0
 2711              	.LLST1:
 2712 0020 00000000 		.4byte	.LVL0
 2713 0024 05000000 		.4byte	.LVL5-1
 2714 0028 0100     		.2byte	0x1
 2715 002a 51       		.byte	0x51
 2716 002b 00000000 		.4byte	0
 2717 002f 00000000 		.4byte	0
 2718              	.LLST2:
 2719 0033 00000000 		.4byte	.LVL0
ARM GAS  /var/folders/5n/p_75w94d66l9ssrldxqdhh700000gn/T//ccnXI7YX.s 			page 49


 2720 0037 05000000 		.4byte	.LVL4-1
 2721 003b 0100     		.2byte	0x1
 2722 003d 52       		.byte	0x52
 2723 003e 00000000 		.4byte	0
 2724 0042 00000000 		.4byte	0
 2725              	.LLST3:
 2726 0046 00000000 		.4byte	.LVL0
 2727 004a 05000000 		.4byte	.LVL3-1
 2728 004e 0100     		.2byte	0x1
 2729 0050 53       		.byte	0x53
 2730 0051 00000000 		.4byte	0
 2731 0055 00000000 		.4byte	0
 2732              	.LLST4:
 2733 0059 00000000 		.4byte	.LVL6
 2734 005d 02000000 		.4byte	.LVL7
 2735 0061 0100     		.2byte	0x1
 2736 0063 50       		.byte	0x50
 2737 0064 02000000 		.4byte	.LVL7
 2738 0068 09000000 		.4byte	.LVL9-1
 2739 006c 0300     		.2byte	0x3
 2740 006e 70       		.byte	0x70
 2741 006f 74       		.sleb128 -12
 2742 0070 9F       		.byte	0x9f
 2743 0071 00000000 		.4byte	0
 2744 0075 00000000 		.4byte	0
 2745              	.LLST5:
 2746 0079 00000000 		.4byte	.LVL6
 2747 007d 09000000 		.4byte	.LVL8-1
 2748 0081 0100     		.2byte	0x1
 2749 0083 51       		.byte	0x51
 2750 0084 00000000 		.4byte	0
 2751 0088 00000000 		.4byte	0
 2752              	.LLST6:
 2753 008c 00000000 		.4byte	.LVL6
 2754 0090 09000000 		.4byte	.LVL10-1
 2755 0094 0100     		.2byte	0x1
 2756 0096 52       		.byte	0x52
 2757 0097 00000000 		.4byte	0
 2758 009b 00000000 		.4byte	0
 2759              	.LLST7:
 2760 009f 00000000 		.4byte	.LVL11
 2761 00a3 02000000 		.4byte	.LVL12
 2762 00a7 0100     		.2byte	0x1
 2763 00a9 50       		.byte	0x50
 2764 00aa 02000000 		.4byte	.LVL12
 2765 00ae 05000000 		.4byte	.LVL16-1
 2766 00b2 0300     		.2byte	0x3
 2767 00b4 70       		.byte	0x70
 2768 00b5 50       		.sleb128 -48
 2769 00b6 9F       		.byte	0x9f
 2770 00b7 00000000 		.4byte	0
 2771 00bb 00000000 		.4byte	0
 2772              	.LLST8:
 2773 00bf 00000000 		.4byte	.LVL11
 2774 00c3 05000000 		.4byte	.LVL15-1
 2775 00c7 0100     		.2byte	0x1
 2776 00c9 51       		.byte	0x51
ARM GAS  /var/folders/5n/p_75w94d66l9ssrldxqdhh700000gn/T//ccnXI7YX.s 			page 50


 2777 00ca 00000000 		.4byte	0
 2778 00ce 00000000 		.4byte	0
 2779              	.LLST9:
 2780 00d2 00000000 		.4byte	.LVL11
 2781 00d6 05000000 		.4byte	.LVL14-1
 2782 00da 0100     		.2byte	0x1
 2783 00dc 52       		.byte	0x52
 2784 00dd 00000000 		.4byte	0
 2785 00e1 00000000 		.4byte	0
 2786              	.LLST10:
 2787 00e5 00000000 		.4byte	.LVL11
 2788 00e9 05000000 		.4byte	.LVL13-1
 2789 00ed 0100     		.2byte	0x1
 2790 00ef 53       		.byte	0x53
 2791 00f0 00000000 		.4byte	0
 2792 00f4 00000000 		.4byte	0
 2793              	.LLST11:
 2794 00f8 00000000 		.4byte	.LVL17
 2795 00fc 02000000 		.4byte	.LVL18
 2796 0100 0100     		.2byte	0x1
 2797 0102 50       		.byte	0x50
 2798 0103 02000000 		.4byte	.LVL18
 2799 0107 09000000 		.4byte	.LVL21-1
 2800 010b 0300     		.2byte	0x3
 2801 010d 70       		.byte	0x70
 2802 010e 50       		.sleb128 -48
 2803 010f 9F       		.byte	0x9f
 2804 0110 00000000 		.4byte	0
 2805 0114 00000000 		.4byte	0
 2806              	.LLST12:
 2807 0118 00000000 		.4byte	.LVL17
 2808 011c 09000000 		.4byte	.LVL20-1
 2809 0120 0100     		.2byte	0x1
 2810 0122 51       		.byte	0x51
 2811 0123 00000000 		.4byte	0
 2812 0127 00000000 		.4byte	0
 2813              	.LLST13:
 2814 012b 00000000 		.4byte	.LVL17
 2815 012f 09000000 		.4byte	.LVL19-1
 2816 0133 0100     		.2byte	0x1
 2817 0135 52       		.byte	0x52
 2818 0136 00000000 		.4byte	0
 2819 013a 00000000 		.4byte	0
 2820              	.LLST14:
 2821 013e 00000000 		.4byte	.LVL22
 2822 0142 02000000 		.4byte	.LVL23
 2823 0146 0100     		.2byte	0x1
 2824 0148 50       		.byte	0x50
 2825 0149 02000000 		.4byte	.LVL23
 2826 014d 05000000 		.4byte	.LVL25-1
 2827 0151 0300     		.2byte	0x3
 2828 0153 70       		.byte	0x70
 2829 0154 74       		.sleb128 -12
 2830 0155 9F       		.byte	0x9f
 2831 0156 00000000 		.4byte	0
 2832 015a 00000000 		.4byte	0
 2833              	.LLST15:
ARM GAS  /var/folders/5n/p_75w94d66l9ssrldxqdhh700000gn/T//ccnXI7YX.s 			page 51


 2834 015e 00000000 		.4byte	.LVL22
 2835 0162 05000000 		.4byte	.LVL24-1
 2836 0166 0100     		.2byte	0x1
 2837 0168 51       		.byte	0x51
 2838 0169 00000000 		.4byte	0
 2839 016d 00000000 		.4byte	0
 2840              	.LLST16:
 2841 0171 00000000 		.4byte	.LVL26
 2842 0175 02000000 		.4byte	.LVL27
 2843 0179 0100     		.2byte	0x1
 2844 017b 50       		.byte	0x50
 2845 017c 02000000 		.4byte	.LVL27
 2846 0180 09000000 		.4byte	.LVL28-1
 2847 0184 0300     		.2byte	0x3
 2848 0186 70       		.byte	0x70
 2849 0187 74       		.sleb128 -12
 2850 0188 9F       		.byte	0x9f
 2851 0189 00000000 		.4byte	0
 2852 018d 00000000 		.4byte	0
 2853              	.LLST17:
 2854 0191 00000000 		.4byte	.LVL29
 2855 0195 02000000 		.4byte	.LVL30
 2856 0199 0100     		.2byte	0x1
 2857 019b 50       		.byte	0x50
 2858 019c 02000000 		.4byte	.LVL30
 2859 01a0 05000000 		.4byte	.LVL32-1
 2860 01a4 0300     		.2byte	0x3
 2861 01a6 70       		.byte	0x70
 2862 01a7 50       		.sleb128 -48
 2863 01a8 9F       		.byte	0x9f
 2864 01a9 00000000 		.4byte	0
 2865 01ad 00000000 		.4byte	0
 2866              	.LLST18:
 2867 01b1 00000000 		.4byte	.LVL29
 2868 01b5 05000000 		.4byte	.LVL31-1
 2869 01b9 0100     		.2byte	0x1
 2870 01bb 51       		.byte	0x51
 2871 01bc 00000000 		.4byte	0
 2872 01c0 00000000 		.4byte	0
 2873              	.LLST19:
 2874 01c4 00000000 		.4byte	.LVL29
 2875 01c8 05000000 		.4byte	.LVL33-1
 2876 01cc 0100     		.2byte	0x1
 2877 01ce 52       		.byte	0x52
 2878 01cf 00000000 		.4byte	0
 2879 01d3 00000000 		.4byte	0
 2880              	.LLST20:
 2881 01d7 00000000 		.4byte	.LVL34
 2882 01db 02000000 		.4byte	.LVL35
 2883 01df 0100     		.2byte	0x1
 2884 01e1 50       		.byte	0x50
 2885 01e2 02000000 		.4byte	.LVL35
 2886 01e6 09000000 		.4byte	.LVL37-1
 2887 01ea 0300     		.2byte	0x3
 2888 01ec 70       		.byte	0x70
 2889 01ed 50       		.sleb128 -48
 2890 01ee 9F       		.byte	0x9f
ARM GAS  /var/folders/5n/p_75w94d66l9ssrldxqdhh700000gn/T//ccnXI7YX.s 			page 52


 2891 01ef 00000000 		.4byte	0
 2892 01f3 00000000 		.4byte	0
 2893              	.LLST21:
 2894 01f7 00000000 		.4byte	.LVL34
 2895 01fb 09000000 		.4byte	.LVL36-1
 2896 01ff 0100     		.2byte	0x1
 2897 0201 51       		.byte	0x51
 2898 0202 00000000 		.4byte	0
 2899 0206 00000000 		.4byte	0
 2900              	.LLST22:
 2901 020a 00000000 		.4byte	.LFB127
 2902 020e 02000000 		.4byte	.LCFI0
 2903 0212 0200     		.2byte	0x2
 2904 0214 7D       		.byte	0x7d
 2905 0215 00       		.sleb128 0
 2906 0216 02000000 		.4byte	.LCFI0
 2907 021a 14000000 		.4byte	.LCFI1
 2908 021e 0200     		.2byte	0x2
 2909 0220 7D       		.byte	0x7d
 2910 0221 10       		.sleb128 16
 2911 0222 14000000 		.4byte	.LCFI1
 2912 0226 44000000 		.4byte	.LFE127
 2913 022a 0200     		.2byte	0x2
 2914 022c 7D       		.byte	0x7d
 2915 022d 18       		.sleb128 24
 2916 022e 00000000 		.4byte	0
 2917 0232 00000000 		.4byte	0
 2918              	.LLST23:
 2919 0236 00000000 		.4byte	.LVL38
 2920 023a 28000000 		.4byte	.LVL41
 2921 023e 0100     		.2byte	0x1
 2922 0240 50       		.byte	0x50
 2923 0241 28000000 		.4byte	.LVL41
 2924 0245 44000000 		.4byte	.LFE127
 2925 0249 0100     		.2byte	0x1
 2926 024b 54       		.byte	0x54
 2927 024c 00000000 		.4byte	0
 2928 0250 00000000 		.4byte	0
 2929              	.LLST24:
 2930 0254 00000000 		.4byte	.LVL38
 2931 0258 20000000 		.4byte	.LVL39
 2932 025c 0100     		.2byte	0x1
 2933 025e 51       		.byte	0x51
 2934 025f 20000000 		.4byte	.LVL39
 2935 0263 2D000000 		.4byte	.LVL42-1
 2936 0267 0100     		.2byte	0x1
 2937 0269 53       		.byte	0x53
 2938 026a 00000000 		.4byte	0
 2939 026e 00000000 		.4byte	0
 2940              	.LLST25:
 2941 0272 00000000 		.4byte	.LVL38
 2942 0276 22000000 		.4byte	.LVL40
 2943 027a 0100     		.2byte	0x1
 2944 027c 52       		.byte	0x52
 2945 027d 22000000 		.4byte	.LVL40
 2946 0281 44000000 		.4byte	.LFE127
 2947 0285 0100     		.2byte	0x1
ARM GAS  /var/folders/5n/p_75w94d66l9ssrldxqdhh700000gn/T//ccnXI7YX.s 			page 53


 2948 0287 55       		.byte	0x55
 2949 0288 00000000 		.4byte	0
 2950 028c 00000000 		.4byte	0
 2951              	.LLST26:
 2952 0290 00000000 		.4byte	.LFB128
 2953 0294 02000000 		.4byte	.LCFI2
 2954 0298 0200     		.2byte	0x2
 2955 029a 7D       		.byte	0x7d
 2956 029b 00       		.sleb128 0
 2957 029c 02000000 		.4byte	.LCFI2
 2958 02a0 1A000000 		.4byte	.LFE128
 2959 02a4 0200     		.2byte	0x2
 2960 02a6 7D       		.byte	0x7d
 2961 02a7 08       		.sleb128 8
 2962 02a8 00000000 		.4byte	0
 2963 02ac 00000000 		.4byte	0
 2964              	.LLST27:
 2965 02b0 00000000 		.4byte	.LVL43
 2966 02b4 0D000000 		.4byte	.LVL46-1
 2967 02b8 0100     		.2byte	0x1
 2968 02ba 50       		.byte	0x50
 2969 02bb 0D000000 		.4byte	.LVL46-1
 2970 02bf 1A000000 		.4byte	.LFE128
 2971 02c3 0100     		.2byte	0x1
 2972 02c5 54       		.byte	0x54
 2973 02c6 00000000 		.4byte	0
 2974 02ca 00000000 		.4byte	0
 2975              	.LLST28:
 2976 02ce 00000000 		.4byte	.LVL43
 2977 02d2 0D000000 		.4byte	.LVL46-1
 2978 02d6 0100     		.2byte	0x1
 2979 02d8 51       		.byte	0x51
 2980 02d9 00000000 		.4byte	0
 2981 02dd 00000000 		.4byte	0
 2982              	.LLST29:
 2983 02e1 0A000000 		.4byte	.LVL45
 2984 02e5 0D000000 		.4byte	.LVL46-1
 2985 02e9 0100     		.2byte	0x1
 2986 02eb 53       		.byte	0x53
 2987 02ec 00000000 		.4byte	0
 2988 02f0 00000000 		.4byte	0
 2989              	.LLST30:
 2990 02f4 18000000 		.4byte	.LVL48
 2991 02f8 1A000000 		.4byte	.LFE128
 2992 02fc 0100     		.2byte	0x1
 2993 02fe 53       		.byte	0x53
 2994 02ff 00000000 		.4byte	0
 2995 0303 00000000 		.4byte	0
 2996              	.LLST31:
 2997 0307 00000000 		.4byte	.LFB129
 2998 030b 02000000 		.4byte	.LCFI3
 2999 030f 0200     		.2byte	0x2
 3000 0311 7D       		.byte	0x7d
 3001 0312 00       		.sleb128 0
 3002 0313 02000000 		.4byte	.LCFI3
 3003 0317 2E000000 		.4byte	.LFE129
 3004 031b 0200     		.2byte	0x2
ARM GAS  /var/folders/5n/p_75w94d66l9ssrldxqdhh700000gn/T//ccnXI7YX.s 			page 54


 3005 031d 7D       		.byte	0x7d
 3006 031e 08       		.sleb128 8
 3007 031f 00000000 		.4byte	0
 3008 0323 00000000 		.4byte	0
 3009              	.LLST32:
 3010 0327 00000000 		.4byte	.LVL49
 3011 032b 0D000000 		.4byte	.LVL52-1
 3012 032f 0100     		.2byte	0x1
 3013 0331 50       		.byte	0x50
 3014 0332 0D000000 		.4byte	.LVL52-1
 3015 0336 2E000000 		.4byte	.LFE129
 3016 033a 0100     		.2byte	0x1
 3017 033c 54       		.byte	0x54
 3018 033d 00000000 		.4byte	0
 3019 0341 00000000 		.4byte	0
 3020              	.LLST33:
 3021 0345 0A000000 		.4byte	.LVL51
 3022 0349 0D000000 		.4byte	.LVL52-1
 3023 034d 0100     		.2byte	0x1
 3024 034f 53       		.byte	0x53
 3025 0350 00000000 		.4byte	0
 3026 0354 00000000 		.4byte	0
 3027              	.LLST34:
 3028 0358 2C000000 		.4byte	.LVL54
 3029 035c 2E000000 		.4byte	.LFE129
 3030 0360 0100     		.2byte	0x1
 3031 0362 53       		.byte	0x53
 3032 0363 00000000 		.4byte	0
 3033 0367 00000000 		.4byte	0
 3034              	.LLST35:
 3035 036b 00000000 		.4byte	.LFB130
 3036 036f 02000000 		.4byte	.LCFI4
 3037 0373 0200     		.2byte	0x2
 3038 0375 7D       		.byte	0x7d
 3039 0376 00       		.sleb128 0
 3040 0377 02000000 		.4byte	.LCFI4
 3041 037b 3C000000 		.4byte	.LFE130
 3042 037f 0200     		.2byte	0x2
 3043 0381 7D       		.byte	0x7d
 3044 0382 10       		.sleb128 16
 3045 0383 00000000 		.4byte	0
 3046 0387 00000000 		.4byte	0
 3047              	.LLST36:
 3048 038b 00000000 		.4byte	.LVL55
 3049 038f 0E000000 		.4byte	.LVL56
 3050 0393 0100     		.2byte	0x1
 3051 0395 50       		.byte	0x50
 3052 0396 0E000000 		.4byte	.LVL56
 3053 039a 3C000000 		.4byte	.LFE130
 3054 039e 0100     		.2byte	0x1
 3055 03a0 54       		.byte	0x54
 3056 03a1 00000000 		.4byte	0
 3057 03a5 00000000 		.4byte	0
 3058              	.LLST37:
 3059 03a9 00000000 		.4byte	.LVL55
 3060 03ad 10000000 		.4byte	.LVL57
 3061 03b1 0100     		.2byte	0x1
ARM GAS  /var/folders/5n/p_75w94d66l9ssrldxqdhh700000gn/T//ccnXI7YX.s 			page 55


 3062 03b3 51       		.byte	0x51
 3063 03b4 1A000000 		.4byte	.LVL58
 3064 03b8 1E000000 		.4byte	.LVL59
 3065 03bc 0100     		.2byte	0x1
 3066 03be 51       		.byte	0x51
 3067 03bf 00000000 		.4byte	0
 3068 03c3 00000000 		.4byte	0
 3069              	.LLST38:
 3070 03c7 00000000 		.4byte	.LFB131
 3071 03cb 02000000 		.4byte	.LCFI5
 3072 03cf 0200     		.2byte	0x2
 3073 03d1 7D       		.byte	0x7d
 3074 03d2 00       		.sleb128 0
 3075 03d3 02000000 		.4byte	.LCFI5
 3076 03d7 20000000 		.4byte	.LFE131
 3077 03db 0200     		.2byte	0x2
 3078 03dd 7D       		.byte	0x7d
 3079 03de 10       		.sleb128 16
 3080 03df 00000000 		.4byte	0
 3081 03e3 00000000 		.4byte	0
 3082              	.LLST39:
 3083 03e7 00000000 		.4byte	.LVL60
 3084 03eb 08000000 		.4byte	.LVL61
 3085 03ef 0100     		.2byte	0x1
 3086 03f1 50       		.byte	0x50
 3087 03f2 08000000 		.4byte	.LVL61
 3088 03f6 20000000 		.4byte	.LFE131
 3089 03fa 0100     		.2byte	0x1
 3090 03fc 55       		.byte	0x55
 3091 03fd 00000000 		.4byte	0
 3092 0401 00000000 		.4byte	0
 3093              	.LLST40:
 3094 0405 0C000000 		.4byte	.LVL62
 3095 0409 16000000 		.4byte	.LVL63
 3096 040d 0100     		.2byte	0x1
 3097 040f 50       		.byte	0x50
 3098 0410 16000000 		.4byte	.LVL63
 3099 0414 20000000 		.4byte	.LFE131
 3100 0418 0100     		.2byte	0x1
 3101 041a 54       		.byte	0x54
 3102 041b 00000000 		.4byte	0
 3103 041f 00000000 		.4byte	0
 3104              		.section	.debug_aranges,"",%progbits
 3105 0000 84000000 		.4byte	0x84
 3106 0004 0200     		.2byte	0x2
 3107 0006 00000000 		.4byte	.Ldebug_info0
 3108 000a 04       		.byte	0x4
 3109 000b 00       		.byte	0
 3110 000c 0000     		.2byte	0
 3111 000e 0000     		.2byte	0
 3112 0010 00000000 		.4byte	.LFB125
 3113 0014 06000000 		.4byte	.LFE125-.LFB125
 3114 0018 00000000 		.4byte	.LFB119
 3115 001c 0A000000 		.4byte	.LFE119-.LFB119
 3116 0020 00000000 		.4byte	.LFB124
 3117 0024 06000000 		.4byte	.LFE124-.LFB124
 3118 0028 00000000 		.4byte	.LFB118
ARM GAS  /var/folders/5n/p_75w94d66l9ssrldxqdhh700000gn/T//ccnXI7YX.s 			page 56


 3119 002c 0A000000 		.4byte	.LFE118-.LFB118
 3120 0030 00000000 		.4byte	.LFB123
 3121 0034 06000000 		.4byte	.LFE123-.LFB123
 3122 0038 00000000 		.4byte	.LFB121
 3123 003c 0A000000 		.4byte	.LFE121-.LFB121
 3124 0040 00000000 		.4byte	.LFB122
 3125 0044 06000000 		.4byte	.LFE122-.LFB122
 3126 0048 00000000 		.4byte	.LFB120
 3127 004c 0A000000 		.4byte	.LFE120-.LFB120
 3128 0050 00000000 		.4byte	.LFB126
 3129 0054 04000000 		.4byte	.LFE126-.LFB126
 3130 0058 00000000 		.4byte	.LFB127
 3131 005c 44000000 		.4byte	.LFE127-.LFB127
 3132 0060 00000000 		.4byte	.LFB128
 3133 0064 1A000000 		.4byte	.LFE128-.LFB128
 3134 0068 00000000 		.4byte	.LFB129
 3135 006c 2E000000 		.4byte	.LFE129-.LFB129
 3136 0070 00000000 		.4byte	.LFB130
 3137 0074 3C000000 		.4byte	.LFE130-.LFB130
 3138 0078 00000000 		.4byte	.LFB131
 3139 007c 20000000 		.4byte	.LFE131-.LFB131
 3140 0080 00000000 		.4byte	0
 3141 0084 00000000 		.4byte	0
 3142              		.section	.debug_ranges,"",%progbits
 3143              	.Ldebug_ranges0:
 3144 0000 02000000 		.4byte	.LBB2
 3145 0004 04000000 		.4byte	.LBE2
 3146 0008 06000000 		.4byte	.LBB3
 3147 000c 0A000000 		.4byte	.LBE3
 3148 0010 00000000 		.4byte	0
 3149 0014 00000000 		.4byte	0
 3150 0018 02000000 		.4byte	.LBB5
 3151 001c 04000000 		.4byte	.LBE5
 3152 0020 06000000 		.4byte	.LBB6
 3153 0024 0A000000 		.4byte	.LBE6
 3154 0028 00000000 		.4byte	0
 3155 002c 00000000 		.4byte	0
 3156 0030 00000000 		.4byte	.LFB125
 3157 0034 06000000 		.4byte	.LFE125
 3158 0038 00000000 		.4byte	.LFB119
 3159 003c 0A000000 		.4byte	.LFE119
 3160 0040 00000000 		.4byte	.LFB124
 3161 0044 06000000 		.4byte	.LFE124
 3162 0048 00000000 		.4byte	.LFB118
 3163 004c 0A000000 		.4byte	.LFE118
 3164 0050 00000000 		.4byte	.LFB123
 3165 0054 06000000 		.4byte	.LFE123
 3166 0058 00000000 		.4byte	.LFB121
 3167 005c 0A000000 		.4byte	.LFE121
 3168 0060 00000000 		.4byte	.LFB122
 3169 0064 06000000 		.4byte	.LFE122
 3170 0068 00000000 		.4byte	.LFB120
 3171 006c 0A000000 		.4byte	.LFE120
 3172 0070 00000000 		.4byte	.LFB126
 3173 0074 04000000 		.4byte	.LFE126
 3174 0078 00000000 		.4byte	.LFB127
 3175 007c 44000000 		.4byte	.LFE127
ARM GAS  /var/folders/5n/p_75w94d66l9ssrldxqdhh700000gn/T//ccnXI7YX.s 			page 57


 3176 0080 00000000 		.4byte	.LFB128
 3177 0084 1A000000 		.4byte	.LFE128
 3178 0088 00000000 		.4byte	.LFB129
 3179 008c 2E000000 		.4byte	.LFE129
 3180 0090 00000000 		.4byte	.LFB130
 3181 0094 3C000000 		.4byte	.LFE130
 3182 0098 00000000 		.4byte	.LFB131
 3183 009c 20000000 		.4byte	.LFE131
 3184 00a0 00000000 		.4byte	0
 3185 00a4 00000000 		.4byte	0
 3186              		.section	.debug_line,"",%progbits
 3187              	.Ldebug_line0:
 3188 0000 41030000 		.section	.debug_str,"MS",%progbits,1
 3188      02001702 
 3188      00000201 
 3188      FB0E0D00 
 3188      01010101 
 3189              	.LASF96:
 3190 0000 73635F73 		.ascii	"sc_speed\000"
 3190      70656564 
 3190      00
 3191              	.LASF2:
 3192 0009 73697A65 		.ascii	"size_t\000"
 3192      5F7400
 3193              	.LASF60:
 3194 0010 7264796D 		.ascii	"rdymsg\000"
 3194      736700
 3195              	.LASF76:
 3196 0017 4F757470 		.ascii	"OutputQueue\000"
 3196      75745175 
 3196      65756500 
 3197              	.LASF13:
 3198 0023 6C6F6E67 		.ascii	"long long unsigned int\000"
 3198      206C6F6E 
 3198      6720756E 
 3198      7369676E 
 3198      65642069 
 3199              	.LASF61:
 3200 003a 65786974 		.ascii	"exitcode\000"
 3200      636F6465 
 3200      00
 3201              	.LASF117:
 3202 0043 49544D5F 		.ascii	"ITM_RxBuffer\000"
 3202      52784275 
 3202      66666572 
 3202      00
 3203              	.LASF112:
 3204 0050 73644F62 		.ascii	"sdObjectInit\000"
 3204      6A656374 
 3204      496E6974 
 3204      00
 3205              	.LASF107:
 3206 005d 72656164 		.ascii	"readt\000"
 3206      7400
 3207              	.LASF66:
 3208 0063 715F7761 		.ascii	"q_waiting\000"
 3208      6974696E 
ARM GAS  /var/folders/5n/p_75w94d66l9ssrldxqdhh700000gn/T//ccnXI7YX.s 			page 58


 3208      6700
 3209              	.LASF12:
 3210 006d 6C6F6E67 		.ascii	"long long int\000"
 3210      206C6F6E 
 3210      6720696E 
 3210      7400
 3211              	.LASF1:
 3212 007b 7369676E 		.ascii	"signed char\000"
 3212      65642063 
 3212      68617200 
 3213              	.LASF83:
 3214 0087 47545052 		.ascii	"GTPR\000"
 3214      00
 3215              	.LASF43:
 3216 008c 705F6D70 		.ascii	"p_mpool\000"
 3216      6F6F6C00 
 3217              	.LASF14:
 3218 0094 626F6F6C 		.ascii	"bool_t\000"
 3218      5F7400
 3219              	.LASF50:
 3220 009b 6D5F7175 		.ascii	"m_queue\000"
 3220      65756500 
 3221              	.LASF18:
 3222 00a3 74736C69 		.ascii	"tslices_t\000"
 3222      6365735F 
 3222      7400
 3223              	.LASF92:
 3224 00ad 73746174 		.ascii	"state\000"
 3224      6500
 3225              	.LASF9:
 3226 00b3 6C6F6E67 		.ascii	"long int\000"
 3226      20696E74 
 3226      00
 3227              	.LASF16:
 3228 00bc 74737461 		.ascii	"tstate_t\000"
 3228      74655F74 
 3228      00
 3229              	.LASF34:
 3230 00c5 705F7265 		.ascii	"p_refs\000"
 3230      667300
 3231              	.LASF68:
 3232 00cc 715F6275 		.ascii	"q_buffer\000"
 3232      66666572 
 3232      00
 3233              	.LASF70:
 3234 00d5 715F7772 		.ascii	"q_wrptr\000"
 3234      70747200 
 3235              	.LASF36:
 3236 00dd 705F7469 		.ascii	"p_time\000"
 3236      6D6500
 3237              	.LASF29:
 3238 00e4 705F6E65 		.ascii	"p_newer\000"
 3238      77657200 
 3239              	.LASF46:
 3240 00ec 72656761 		.ascii	"regarm_t\000"
 3240      726D5F74 
 3240      00
ARM GAS  /var/folders/5n/p_75w94d66l9ssrldxqdhh700000gn/T//ccnXI7YX.s 			page 59


 3241              	.LASF58:
 3242 00f5 4576656E 		.ascii	"EventSource\000"
 3242      74536F75 
 3242      72636500 
 3243              	.LASF95:
 3244 0101 75736172 		.ascii	"usart\000"
 3244      7400
 3245              	.LASF0:
 3246 0107 756E7369 		.ascii	"unsigned int\000"
 3246      676E6564 
 3246      20696E74 
 3246      00
 3247              	.LASF6:
 3248 0114 75696E74 		.ascii	"uint16_t\000"
 3248      31365F74 
 3248      00
 3249              	.LASF101:
 3250 011d 53657269 		.ascii	"SerialDriverVMT\000"
 3250      616C4472 
 3250      69766572 
 3250      564D5400 
 3251              	.LASF110:
 3252 012d 696E6F74 		.ascii	"inotify\000"
 3252      69667900 
 3253              	.LASF93:
 3254 0135 69717565 		.ascii	"iqueue\000"
 3254      756500
 3255              	.LASF38:
 3256 013c 705F6D73 		.ascii	"p_msgqueue\000"
 3256      67717565 
 3256      756500
 3257              	.LASF109:
 3258 0147 74696D65 		.ascii	"timeout\000"
 3258      6F757400 
 3259              	.LASF105:
 3260 014f 67657474 		.ascii	"gett\000"
 3260      00
 3261              	.LASF91:
 3262 0154 6576656E 		.ascii	"event\000"
 3262      7400
 3263              	.LASF7:
 3264 015a 73686F72 		.ascii	"short unsigned int\000"
 3264      7420756E 
 3264      7369676E 
 3264      65642069 
 3264      6E7400
 3265              	.LASF20:
 3266 016d 6D73675F 		.ascii	"msg_t\000"
 3266      7400
 3267              	.LASF94:
 3268 0173 6F717565 		.ascii	"oqueue\000"
 3268      756500
 3269              	.LASF85:
 3270 017a 55534152 		.ascii	"USART_TypeDef\000"
 3270      545F5479 
 3270      70654465 
 3270      6600
ARM GAS  /var/folders/5n/p_75w94d66l9ssrldxqdhh700000gn/T//ccnXI7YX.s 			page 60


 3271              	.LASF106:
 3272 0188 77726974 		.ascii	"writet\000"
 3272      657400
 3273              	.LASF15:
 3274 018f 746D6F64 		.ascii	"tmode_t\000"
 3274      655F7400 
 3275              	.LASF45:
 3276 0197 54687265 		.ascii	"ThreadsList\000"
 3276      6164734C 
 3276      69737400 
 3277              	.LASF21:
 3278 01a3 6576656E 		.ascii	"eventmask_t\000"
 3278      746D6173 
 3278      6B5F7400 
 3279              	.LASF75:
 3280 01af 496E7075 		.ascii	"InputQueue\000"
 3280      74517565 
 3280      756500
 3281              	.LASF74:
 3282 01ba 716E6F74 		.ascii	"qnotify_t\000"
 3282      6966795F 
 3282      7400
 3283              	.LASF65:
 3284 01c4 47656E65 		.ascii	"GenericQueue\000"
 3284      72696351 
 3284      75657565 
 3284      00
 3285              	.LASF102:
 3286 01d1 77726974 		.ascii	"write\000"
 3286      6500
 3287              	.LASF104:
 3288 01d7 70757474 		.ascii	"putt\000"
 3288      00
 3289              	.LASF67:
 3290 01dc 715F636F 		.ascii	"q_counter\000"
 3290      756E7465 
 3290      7200
 3291              	.LASF49:
 3292 01e6 4D757465 		.ascii	"Mutex\000"
 3292      7800
 3293              	.LASF27:
 3294 01ec 705F7072 		.ascii	"p_prio\000"
 3294      696F00
 3295              	.LASF56:
 3296 01f3 656C5F6D 		.ascii	"el_mask\000"
 3296      61736B00 
 3297              	.LASF30:
 3298 01fb 705F6F6C 		.ascii	"p_older\000"
 3298      64657200 
 3299              	.LASF44:
 3300 0203 54687265 		.ascii	"ThreadsQueue\000"
 3300      61647351 
 3300      75657565 
 3300      00
 3301              	.LASF115:
 3302 0210 73645374 		.ascii	"sdStop\000"
 3302      6F7000
ARM GAS  /var/folders/5n/p_75w94d66l9ssrldxqdhh700000gn/T//ccnXI7YX.s 			page 61


 3303              	.LASF108:
 3304 0217 74696D65 		.ascii	"time\000"
 3304      00
 3305              	.LASF100:
 3306 021c 53657269 		.ascii	"SerialConfig\000"
 3306      616C436F 
 3306      6E666967 
 3306      00
 3307              	.LASF17:
 3308 0229 74726566 		.ascii	"trefs_t\000"
 3308      735F7400 
 3309              	.LASF77:
 3310 0231 52455345 		.ascii	"RESERVED0\000"
 3310      52564544 
 3310      3000
 3311              	.LASF78:
 3312 023b 52455345 		.ascii	"RESERVED1\000"
 3312      52564544 
 3312      3100
 3313              	.LASF79:
 3314 0245 52455345 		.ascii	"RESERVED2\000"
 3314      52564544 
 3314      3200
 3315              	.LASF80:
 3316 024f 52455345 		.ascii	"RESERVED3\000"
 3316      52564544 
 3316      3300
 3317              	.LASF81:
 3318 0259 52455345 		.ascii	"RESERVED4\000"
 3318      52564544 
 3318      3400
 3319              	.LASF26:
 3320 0263 705F7072 		.ascii	"p_prev\000"
 3320      657600
 3321              	.LASF84:
 3322 026a 52455345 		.ascii	"RESERVED6\000"
 3322      52564544 
 3322      3600
 3323              	.LASF19:
 3324 0274 74707269 		.ascii	"tprio_t\000"
 3324      6F5F7400 
 3325              	.LASF71:
 3326 027c 715F7264 		.ascii	"q_rdptr\000"
 3326      70747200 
 3327              	.LASF8:
 3328 0284 696E7433 		.ascii	"int32_t\000"
 3328      325F7400 
 3329              	.LASF4:
 3330 028c 756E7369 		.ascii	"unsigned char\000"
 3330      676E6564 
 3330      20636861 
 3330      7200
 3331              	.LASF55:
 3332 029a 656C5F6C 		.ascii	"el_listener\000"
 3332      69737465 
 3332      6E657200 
 3333              	.LASF57:
ARM GAS  /var/folders/5n/p_75w94d66l9ssrldxqdhh700000gn/T//ccnXI7YX.s 			page 62


 3334 02a6 656C5F66 		.ascii	"el_flags\000"
 3334      6C616773 
 3334      00
 3335              	.LASF32:
 3336 02af 705F7374 		.ascii	"p_state\000"
 3336      61746500 
 3337              	.LASF41:
 3338 02b7 705F6D74 		.ascii	"p_mtxlist\000"
 3338      786C6973 
 3338      7400
 3339              	.LASF5:
 3340 02c1 73686F72 		.ascii	"short int\000"
 3340      7420696E 
 3340      7400
 3341              	.LASF35:
 3342 02cb 705F7072 		.ascii	"p_preempt\000"
 3342      65656D70 
 3342      7400
 3343              	.LASF63:
 3344 02d5 65776D61 		.ascii	"ewmask\000"
 3344      736B00
 3345              	.LASF25:
 3346 02dc 705F6E65 		.ascii	"p_next\000"
 3346      787400
 3347              	.LASF33:
 3348 02e3 705F666C 		.ascii	"p_flags\000"
 3348      61677300 
 3349              	.LASF54:
 3350 02eb 656C5F6E 		.ascii	"el_next\000"
 3350      65787400 
 3351              	.LASF87:
 3352 02f3 53445F53 		.ascii	"SD_STOP\000"
 3352      544F5000 
 3353              	.LASF24:
 3354 02fb 54687265 		.ascii	"Thread\000"
 3354      616400
 3355              	.LASF40:
 3356 0302 705F6570 		.ascii	"p_epending\000"
 3356      656E6469 
 3356      6E6700
 3357              	.LASF86:
 3358 030d 53445F55 		.ascii	"SD_UNINIT\000"
 3358      4E494E49 
 3358      5400
 3359              	.LASF82:
 3360 0317 52455345 		.ascii	"RESERVED5\000"
 3360      52564544 
 3360      3500
 3361              	.LASF10:
 3362 0321 75696E74 		.ascii	"uint32_t\000"
 3362      33325F74 
 3362      00
 3363              	.LASF89:
 3364 032a 73647374 		.ascii	"sdstate_t\000"
 3364      6174655F 
 3364      7400
 3365              	.LASF90:
ARM GAS  /var/folders/5n/p_75w94d66l9ssrldxqdhh700000gn/T//ccnXI7YX.s 			page 63


 3366 0334 53657269 		.ascii	"SerialDriver\000"
 3366      616C4472 
 3366      69766572 
 3366      00
 3367              	.LASF11:
 3368 0341 6C6F6E67 		.ascii	"long unsigned int\000"
 3368      20756E73 
 3368      69676E65 
 3368      6420696E 
 3368      7400
 3369              	.LASF103:
 3370 0353 72656164 		.ascii	"read\000"
 3370      00
 3371              	.LASF64:
 3372 0358 63686172 		.ascii	"char\000"
 3372      00
 3373              	.LASF116:
 3374 035d 7364496E 		.ascii	"sdIncomingDataI\000"
 3374      636F6D69 
 3374      6E674461 
 3374      74614900 
 3375              	.LASF114:
 3376 036d 636F6E66 		.ascii	"config\000"
 3376      696700
 3377              	.LASF113:
 3378 0374 73645374 		.ascii	"sdStart\000"
 3378      61727400 
 3379              	.LASF52:
 3380 037c 6D5F6E65 		.ascii	"m_next\000"
 3380      787400
 3381              	.LASF23:
 3382 0383 73797374 		.ascii	"systime_t\000"
 3382      696D655F 
 3382      7400
 3383              	.LASF42:
 3384 038d 705F7265 		.ascii	"p_realprio\000"
 3384      616C7072 
 3384      696F00
 3385              	.LASF48:
 3386 0398 636F6E74 		.ascii	"context\000"
 3386      65787400 
 3387              	.LASF118:
 3388 03a0 474E5520 		.ascii	"GNU C 4.6.2 20111004 (prerelease)\000"
 3388      4320342E 
 3388      362E3220 
 3388      32303131 
 3388      31303034 
 3389              	.LASF47:
 3390 03c2 696E7463 		.ascii	"intctx\000"
 3390      747800
 3391              	.LASF88:
 3392 03c9 53445F52 		.ascii	"SD_READY\000"
 3392      45414459 
 3392      00
 3393              	.LASF22:
 3394 03d2 666C6167 		.ascii	"flagsmask_t\000"
 3394      736D6173 
ARM GAS  /var/folders/5n/p_75w94d66l9ssrldxqdhh700000gn/T//ccnXI7YX.s 			page 64


 3394      6B5F7400 
 3395              	.LASF69:
 3396 03de 715F746F 		.ascii	"q_top\000"
 3396      7000
 3397              	.LASF31:
 3398 03e4 705F6E61 		.ascii	"p_name\000"
 3398      6D6500
 3399              	.LASF59:
 3400 03eb 65735F6E 		.ascii	"es_next\000"
 3400      65787400 
 3401              	.LASF72:
 3402 03f3 715F6E6F 		.ascii	"q_notify\000"
 3402      74696679 
 3402      00
 3403              	.LASF122:
 3404 03fc 73645265 		.ascii	"sdRequestDataI\000"
 3404      71756573 
 3404      74446174 
 3404      614900
 3405              	.LASF3:
 3406 040b 75696E74 		.ascii	"uint8_t\000"
 3406      385F7400 
 3407              	.LASF119:
 3408 0413 2E2E2F2E 		.ascii	"../../os/hal/src/serial.c\000"
 3408      2E2F6F73 
 3408      2F68616C 
 3408      2F737263 
 3408      2F736572 
 3409              	.LASF111:
 3410 042d 6F6E6F74 		.ascii	"onotify\000"
 3410      69667900 
 3411              	.LASF53:
 3412 0435 4576656E 		.ascii	"EventListener\000"
 3412      744C6973 
 3412      74656E65 
 3412      7200
 3413              	.LASF62:
 3414 0443 77746F62 		.ascii	"wtobjp\000"
 3414      6A7000
 3415              	.LASF120:
 3416 044a 2F557365 		.ascii	"/Users/sin/Documents/Eclipse/Workspace/mabl-ChibiOS"
 3416      72732F73 
 3416      696E2F44 
 3416      6F63756D 
 3416      656E7473 
 3417 047d 2D322E35 		.ascii	"-2.5.1/demos/ARMCM4-STM32F407-LWIP\000"
 3417      2E312F64 
 3417      656D6F73 
 3417      2F41524D 
 3417      434D342D 
 3418              	.LASF39:
 3419 04a0 705F6D73 		.ascii	"p_msg\000"
 3419      6700
 3420              	.LASF97:
 3421 04a6 73635F63 		.ascii	"sc_cr1\000"
 3421      723100
 3422              	.LASF98:
ARM GAS  /var/folders/5n/p_75w94d66l9ssrldxqdhh700000gn/T//ccnXI7YX.s 			page 65


 3423 04ad 73635F63 		.ascii	"sc_cr2\000"
 3423      723200
 3424              	.LASF99:
 3425 04b4 73635F63 		.ascii	"sc_cr3\000"
 3425      723300
 3426              	.LASF121:
 3427 04bb 7364496E 		.ascii	"sdInit\000"
 3427      697400
 3428              	.LASF73:
 3429 04c2 715F6C69 		.ascii	"q_link\000"
 3429      6E6B00
 3430              	.LASF51:
 3431 04c9 6D5F6F77 		.ascii	"m_owner\000"
 3431      6E657200 
 3432              	.LASF28:
 3433 04d1 705F6374 		.ascii	"p_ctx\000"
 3433      7800
 3434              	.LASF37:
 3435 04d7 705F7761 		.ascii	"p_waiting\000"
 3435      6974696E 
 3435      6700
 3436              		.ident	"GCC: (Linaro GCC 4.6-2011.10) 4.6.2 20111004 (prerelease)"
ARM GAS  /var/folders/5n/p_75w94d66l9ssrldxqdhh700000gn/T//ccnXI7YX.s 			page 66


DEFINED SYMBOLS
                            *ABS*:0000000000000000 serial.c
/var/folders/5n/p_75w94d66l9ssrldxqdhh700000gn/T//ccnXI7YX.s:18     .text.readt:0000000000000000 $t
/var/folders/5n/p_75w94d66l9ssrldxqdhh700000gn/T//ccnXI7YX.s:23     .text.readt:0000000000000000 readt
/var/folders/5n/p_75w94d66l9ssrldxqdhh700000gn/T//ccnXI7YX.s:46     .text.read:0000000000000000 $t
/var/folders/5n/p_75w94d66l9ssrldxqdhh700000gn/T//ccnXI7YX.s:51     .text.read:0000000000000000 read
/var/folders/5n/p_75w94d66l9ssrldxqdhh700000gn/T//ccnXI7YX.s:73     .text.writet:0000000000000000 $t
/var/folders/5n/p_75w94d66l9ssrldxqdhh700000gn/T//ccnXI7YX.s:78     .text.writet:0000000000000000 writet
/var/folders/5n/p_75w94d66l9ssrldxqdhh700000gn/T//ccnXI7YX.s:100    .text.write:0000000000000000 $t
/var/folders/5n/p_75w94d66l9ssrldxqdhh700000gn/T//ccnXI7YX.s:105    .text.write:0000000000000000 write
/var/folders/5n/p_75w94d66l9ssrldxqdhh700000gn/T//ccnXI7YX.s:127    .text.gett:0000000000000000 $t
/var/folders/5n/p_75w94d66l9ssrldxqdhh700000gn/T//ccnXI7YX.s:132    .text.gett:0000000000000000 gett
/var/folders/5n/p_75w94d66l9ssrldxqdhh700000gn/T//ccnXI7YX.s:152    .text.get:0000000000000000 $t
/var/folders/5n/p_75w94d66l9ssrldxqdhh700000gn/T//ccnXI7YX.s:157    .text.get:0000000000000000 get
/var/folders/5n/p_75w94d66l9ssrldxqdhh700000gn/T//ccnXI7YX.s:177    .text.putt:0000000000000000 $t
/var/folders/5n/p_75w94d66l9ssrldxqdhh700000gn/T//ccnXI7YX.s:182    .text.putt:0000000000000000 putt
/var/folders/5n/p_75w94d66l9ssrldxqdhh700000gn/T//ccnXI7YX.s:203    .text.put:0000000000000000 $t
/var/folders/5n/p_75w94d66l9ssrldxqdhh700000gn/T//ccnXI7YX.s:208    .text.put:0000000000000000 put
/var/folders/5n/p_75w94d66l9ssrldxqdhh700000gn/T//ccnXI7YX.s:229    .text.sdInit:0000000000000000 $t
/var/folders/5n/p_75w94d66l9ssrldxqdhh700000gn/T//ccnXI7YX.s:235    .text.sdInit:0000000000000000 sdInit
/var/folders/5n/p_75w94d66l9ssrldxqdhh700000gn/T//ccnXI7YX.s:249    .text.sdObjectInit:0000000000000000 $t
/var/folders/5n/p_75w94d66l9ssrldxqdhh700000gn/T//ccnXI7YX.s:255    .text.sdObjectInit:0000000000000000 sdObjectInit
/var/folders/5n/p_75w94d66l9ssrldxqdhh700000gn/T//ccnXI7YX.s:542    .rodata.vmt:0000000000000000 .LANCHOR0
/var/folders/5n/p_75w94d66l9ssrldxqdhh700000gn/T//ccnXI7YX.s:315    .text.sdStart:0000000000000000 $t
/var/folders/5n/p_75w94d66l9ssrldxqdhh700000gn/T//ccnXI7YX.s:321    .text.sdStart:0000000000000000 sdStart
/var/folders/5n/p_75w94d66l9ssrldxqdhh700000gn/T//ccnXI7YX.s:370    .text.sdStop:0000000000000000 $t
/var/folders/5n/p_75w94d66l9ssrldxqdhh700000gn/T//ccnXI7YX.s:376    .text.sdStop:0000000000000000 sdStop
/var/folders/5n/p_75w94d66l9ssrldxqdhh700000gn/T//ccnXI7YX.s:433    .text.sdIncomingDataI:0000000000000000 $t
/var/folders/5n/p_75w94d66l9ssrldxqdhh700000gn/T//ccnXI7YX.s:439    .text.sdIncomingDataI:0000000000000000 sdIncomingDataI
/var/folders/5n/p_75w94d66l9ssrldxqdhh700000gn/T//ccnXI7YX.s:495    .text.sdRequestDataI:0000000000000000 $t
/var/folders/5n/p_75w94d66l9ssrldxqdhh700000gn/T//ccnXI7YX.s:501    .text.sdRequestDataI:0000000000000000 sdRequestDataI
/var/folders/5n/p_75w94d66l9ssrldxqdhh700000gn/T//ccnXI7YX.s:541    .rodata.vmt:0000000000000000 $d
/var/folders/5n/p_75w94d66l9ssrldxqdhh700000gn/T//ccnXI7YX.s:545    .rodata.vmt:0000000000000000 vmt
                     .debug_frame:0000000000000010 $d

UNDEFINED SYMBOLS
chIQReadTimeout
chOQWriteTimeout
chIQGetTimeout
chOQPutTimeout
sd_lld_init
chIQInit
chOQInit
sd_lld_start
sd_lld_stop
chOQResetI
chIQResetI
chSchRescheduleS
chIQPutI
chEvtBroadcastFlagsI
chOQGetI
