ARM GAS  /var/folders/5n/p_75w94d66l9ssrldxqdhh700000gn/T//ccmZInrG.s 			page 1


   1              		.syntax unified
   2              		.cpu cortex-m4
   3              		.fpu softvfp
   4              		.eabi_attribute 20, 1
   5              		.eabi_attribute 21, 1
   6              		.eabi_attribute 23, 3
   7              		.eabi_attribute 24, 1
   8              		.eabi_attribute 25, 1
   9              		.eabi_attribute 26, 1
  10              		.eabi_attribute 30, 2
  11              		.eabi_attribute 18, 4
  12              		.thumb
  13              		.file	"serial_lld.c"
  14              		.text
  15              	.Ltext0:
  16              		.cfi_sections	.debug_frame
  17              		.section	.text.notify6,"ax",%progbits
  18              		.align	2
  19              		.p2align 4,,15
  20              		.thumb
  21              		.thumb_func
  22              		.type	notify6, %function
  23              	notify6:
  24              	.LFB122:
  25              		.file 1 "../../os/hal/platforms/STM32/serial_lld.c"
  26              		.loc 1 363 0
  27              		.cfi_startproc
  28              		@ args = 0, pretend = 0, frame = 0
  29              		@ frame_needed = 0, uses_anonymous_args = 0
  30              		@ link register save eliminated.
  31              	.LVL0:
  32              		.loc 1 366 0
  33 0000 4FF4A053 		mov	r3, #5120
  34 0004 C4F20103 		movt	r3, 16385
  35 0008 9A89     		ldrh	r2, [r3, #12]
  36 000a 92B2     		uxth	r2, r2
  37 000c 42F08002 		orr	r2, r2, #128
  38 0010 9A81     		strh	r2, [r3, #12]	@ movhi
  39              		.loc 1 367 0
  40 0012 7047     		bx	lr
  41              		.cfi_endproc
  42              	.LFE122:
  43              		.size	notify6, .-notify6
  44 0014 AFF30080 		.section	.text.Vector15C,"ax",%progbits
  44      AFF30080 
  44      AFF30080 
  45              		.align	2
  46              		.p2align 4,,15
  47              		.global	Vector15C
  48              		.thumb
  49              		.thumb_func
  50              		.type	Vector15C, %function
  51              	Vector15C:
  52              	.LFB123:
  53              		.loc 1 478 0
  54              		.cfi_startproc
  55              		@ args = 0, pretend = 0, frame = 0
ARM GAS  /var/folders/5n/p_75w94d66l9ssrldxqdhh700000gn/T//ccmZInrG.s 			page 2


  56              		@ frame_needed = 0, uses_anonymous_args = 0
  57              	.LVL1:
  58 0000 F8B5     		push	{r3, r4, r5, r6, r7, lr}
  59              	.LCFI0:
  60              		.cfi_def_cfa_offset 24
  61              		.cfi_offset 14, -4
  62              		.cfi_offset 7, -8
  63              		.cfi_offset 6, -12
  64              		.cfi_offset 5, -16
  65              		.cfi_offset 4, -20
  66              		.cfi_offset 3, -24
  67              	.LBB47:
  68              	.LBB48:
  69              		.loc 1 276 0
  70 0002 3D4B     		ldr	r3, .L20
  71 0004 5D6F     		ldr	r5, [r3, #116]
  72              	.LVL2:
  73              		.loc 1 277 0
  74 0006 AE89     		ldrh	r6, [r5, #12]
  75              		.loc 1 278 0
  76 0008 2C88     		ldrh	r4, [r5, #0]
  77              		.loc 1 279 0
  78 000a AF88     		ldrh	r7, [r5, #4]
  79              		.loc 1 278 0
  80 000c A4B2     		uxth	r4, r4
  81              		.loc 1 282 0
  82 000e 2207     		lsls	r2, r4, #28
  83              		.loc 1 277 0
  84 0010 B6B2     		uxth	r6, r6
  85              	.LVL3:
  86              		.loc 1 279 0
  87 0012 BFB2     		uxth	r7, r7
  88              	.LVL4:
  89              		.loc 1 282 0
  90 0014 18D0     		beq	.L3
  91              	.LVL5:
  92              	.LBB49:
  93              	.LBB50:
  94              		.loc 1 257 0
  95 0016 14F00801 		ands	r1, r4, #8
  96              		.loc 1 258 0
  97 001a 18BF     		it	ne
  98 001c 8021     		movne	r1, #128
  99              	.LVL6:
 100              		.loc 1 259 0
 101 001e E307     		lsls	r3, r4, #31
 102              		.loc 1 260 0
 103 0020 48BF     		it	mi
 104 0022 41F02001 		orrmi	r1, r1, #32
 105              	.LVL7:
 106              		.loc 1 261 0
 107 0026 A007     		lsls	r0, r4, #30
 108              		.loc 1 262 0
 109 0028 48BF     		it	mi
 110 002a 41F04001 		orrmi	r1, r1, #64
 111              	.LVL8:
 112              		.loc 1 263 0
ARM GAS  /var/folders/5n/p_75w94d66l9ssrldxqdhh700000gn/T//ccmZInrG.s 			page 3


 113 002e 6207     		lsls	r2, r4, #29
 114              		.loc 1 264 0
 115 0030 48BF     		it	mi
 116 0032 41F48071 		orrmi	r1, r1, #256
 117              	.LVL9:
 118              	.LBB51:
 119              		.loc 1 265 0
 120 0036 2023     		movs	r3, #32
 121              	.LVL10:
 122              	@ 265 "../../os/hal/platforms/STM32/serial_lld.c" 1
 123 0038 83F31188 		msr     BASEPRI, r3
 124              	@ 0 "" 2
 125              	.LVL11:
 126              		.thumb
 127              	.LBE51:
 128              		.loc 1 266 0
 129 003c 2F48     		ldr	r0, .L20+4
 130 003e FFF7FEFF 		bl	chEvtBroadcastFlagsI
 131              	.LVL12:
 132              	.LBB52:
 133              		.loc 1 267 0
 134 0042 0023     		movs	r3, #0
 135              	.LVL13:
 136              	@ 267 "../../os/hal/platforms/STM32/serial_lld.c" 1
 137 0044 83F31188 		msr     BASEPRI, r3
 138              	@ 0 "" 2
 139              	.LVL14:
 140              		.thumb
 141              	.L3:
 142              	.LBE52:
 143              	.LBE50:
 144              	.LBE49:
 145              		.loc 1 285 0
 146 0048 E305     		lsls	r3, r4, #23
 147              	.LVL15:
 148 004a 2AD4     		bmi	.L16
 149              	.L8:
 150              		.loc 1 292 0
 151 004c A006     		lsls	r0, r4, #26
 152 004e 1DD4     		bmi	.L17
 153              	.LVL16:
 154              	.L9:
 155              		.loc 1 298 0
 156 0050 3106     		lsls	r1, r6, #24
 157 0052 01D5     		bpl	.L10
 158 0054 2206     		lsls	r2, r4, #24
 159 0056 36D4     		bmi	.L18
 160              	.LVL17:
 161              	.L10:
 162              		.loc 1 311 0
 163 0058 6306     		lsls	r3, r4, #25
 164              	.LVL18:
 165 005a 13D5     		bpl	.L13
 166              	.LBB53:
 167              		.loc 1 312 0
 168 005c 2023     		movs	r3, #32
 169              	.LVL19:
ARM GAS  /var/folders/5n/p_75w94d66l9ssrldxqdhh700000gn/T//ccmZInrG.s 			page 4


 170              	@ 312 "../../os/hal/platforms/STM32/serial_lld.c" 1
 171 005e 83F31188 		msr     BASEPRI, r3
 172              	@ 0 "" 2
 173              	.LVL20:
 174              		.thumb
 175              	.LBE53:
 176              		.loc 1 313 0
 177 0062 2648     		ldr	r0, .L20+4
 178 0064 1021     		movs	r1, #16
 179 0066 FFF7FEFF 		bl	chEvtBroadcastFlagsI
 180              	.LVL21:
 181              	.LBB54:
 182              		.loc 1 314 0
 183 006a 0023     		movs	r3, #0
 184              	.LVL22:
 185              	@ 314 "../../os/hal/platforms/STM32/serial_lld.c" 1
 186 006c 83F31188 		msr     BASEPRI, r3
 187              	@ 0 "" 2
 188              	.LVL23:
 189              		.thumb
 190              	.LBE54:
 191              		.loc 1 315 0
 192 0070 4FF6BF73 		movw	r3, #65471
 193              	.LVL24:
 194 0074 3340     		ands	r3, r3, r6
 195 0076 AB81     		strh	r3, [r5, #12]	@ movhi
 196              		.loc 1 316 0
 197 0078 2B88     		ldrh	r3, [r5, #0]
 198 007a 23F04003 		bic	r3, r3, #64
 199 007e 1B04     		lsls	r3, r3, #16
 200 0080 1B0C     		lsrs	r3, r3, #16
 201 0082 2B80     		strh	r3, [r5, #0]	@ movhi
 202              	.L13:
 203              	.LBE48:
 204              	.LBE47:
 205              		.loc 1 485 0
 206 0084 BDE8F840 		pop	{r3, r4, r5, r6, r7, lr}
 207              		.loc 1 484 0
 208 0088 FFF7FEBF 		b	_port_irq_epilogue
 209              	.L17:
 210              	.LBB63:
 211              	.LBB62:
 212              	.LBB55:
 213              		.loc 1 293 0
 214 008c 2023     		movs	r3, #32
 215              	.LVL25:
 216              	@ 293 "../../os/hal/platforms/STM32/serial_lld.c" 1
 217 008e 83F31188 		msr     BASEPRI, r3
 218              	@ 0 "" 2
 219              	.LVL26:
 220              		.thumb
 221              	.LBE55:
 222              		.loc 1 294 0
 223 0092 1948     		ldr	r0, .L20
 224 0094 F9B2     		uxtb	r1, r7
 225 0096 FFF7FEFF 		bl	sdIncomingDataI
 226              	.LVL27:
ARM GAS  /var/folders/5n/p_75w94d66l9ssrldxqdhh700000gn/T//ccmZInrG.s 			page 5


 227              	.LBB56:
 228              		.loc 1 295 0
 229 009a 0023     		movs	r3, #0
 230              	@ 295 "../../os/hal/platforms/STM32/serial_lld.c" 1
 231 009c 83F31188 		msr     BASEPRI, r3
 232              	@ 0 "" 2
 233              	.LVL28:
 234              		.thumb
 235 00a0 D6E7     		b	.L9
 236              	.LVL29:
 237              	.L16:
 238              	.LBE56:
 239              	.LBB57:
 240              		.loc 1 286 0
 241 00a2 2023     		movs	r3, #32
 242              	.LVL30:
 243              	@ 286 "../../os/hal/platforms/STM32/serial_lld.c" 1
 244 00a4 83F31188 		msr     BASEPRI, r3
 245              	@ 0 "" 2
 246              	.LVL31:
 247              		.thumb
 248              	.LBE57:
 249              		.loc 1 287 0
 250 00a8 1448     		ldr	r0, .L20+4
 251 00aa 4FF40071 		mov	r1, #512
 252 00ae FFF7FEFF 		bl	chEvtBroadcastFlagsI
 253              	.LVL32:
 254              	.LBB58:
 255              		.loc 1 288 0
 256 00b2 0023     		movs	r3, #0
 257              	.LVL33:
 258              	@ 288 "../../os/hal/platforms/STM32/serial_lld.c" 1
 259 00b4 83F31188 		msr     BASEPRI, r3
 260              	@ 0 "" 2
 261              	.LVL34:
 262              		.thumb
 263              	.LBE58:
 264              		.loc 1 289 0
 265 00b8 2B88     		ldrh	r3, [r5, #0]
 266              	.LVL35:
 267 00ba 23F48073 		bic	r3, r3, #256
 268 00be 1B04     		lsls	r3, r3, #16
 269 00c0 1B0C     		lsrs	r3, r3, #16
 270 00c2 2B80     		strh	r3, [r5, #0]	@ movhi
 271 00c4 C2E7     		b	.L8
 272              	.LVL36:
 273              	.L18:
 274              	.LBB59:
 275              	.LBB60:
 276              		.loc 1 300 0
 277 00c6 2023     		movs	r3, #32
 278              	.LVL37:
 279              	@ 300 "../../os/hal/platforms/STM32/serial_lld.c" 1
 280 00c8 83F31188 		msr     BASEPRI, r3
 281              	@ 0 "" 2
 282              	.LVL38:
 283              		.thumb
ARM GAS  /var/folders/5n/p_75w94d66l9ssrldxqdhh700000gn/T//ccmZInrG.s 			page 6


 284              	.LBE60:
 285              		.loc 1 301 0
 286 00cc 0C48     		ldr	r0, .L20+8
 287 00ce FFF7FEFF 		bl	chOQGetI
 288              	.LVL39:
 289              		.loc 1 302 0
 290 00d2 0028     		cmp	r0, #0
 291              		.loc 1 307 0
 292 00d4 A4BF     		itt	ge
 293 00d6 80B2     		uxthge	r0, r0
 294              	.LVL40:
 295 00d8 A880     		strhge	r0, [r5, #4]	@ movhi
 296              		.loc 1 302 0
 297 00da 03DB     		blt	.L19
 298              	.L12:
 299              	.LBB61:
 300              		.loc 1 308 0
 301 00dc 0023     		movs	r3, #0
 302              	@ 308 "../../os/hal/platforms/STM32/serial_lld.c" 1
 303 00de 83F31188 		msr     BASEPRI, r3
 304              	@ 0 "" 2
 305              	.LVL41:
 306              		.thumb
 307 00e2 B9E7     		b	.L10
 308              	.LVL42:
 309              	.L19:
 310              	.LBE61:
 311              		.loc 1 303 0
 312 00e4 0548     		ldr	r0, .L20+4
 313 00e6 0821     		movs	r1, #8
 314 00e8 FFF7FEFF 		bl	chEvtBroadcastFlagsI
 315              		.loc 1 304 0
 316 00ec 26F0C003 		bic	r3, r6, #192
 317 00f0 43F04003 		orr	r3, r3, #64
 318 00f4 AB81     		strh	r3, [r5, #12]	@ movhi
 319 00f6 F1E7     		b	.L12
 320              	.L21:
 321              		.align	2
 322              	.L20:
 323 00f8 00000000 		.word	.LANCHOR0
 324 00fc 04000000 		.word	.LANCHOR0+4
 325 0100 30000000 		.word	.LANCHOR0+48
 326              	.LBE59:
 327              	.LBE62:
 328              	.LBE63:
 329              		.cfi_endproc
 330              	.LFE123:
 331              		.size	Vector15C, .-Vector15C
 332 0104 AFF30080 		.section	.text.sd_lld_init,"ax",%progbits
 332      AFF30080 
 332      AFF30080 
 333              		.align	2
 334              		.p2align 4,,15
 335              		.global	sd_lld_init
 336              		.thumb
 337              		.thumb_func
 338              		.type	sd_lld_init, %function
ARM GAS  /var/folders/5n/p_75w94d66l9ssrldxqdhh700000gn/T//ccmZInrG.s 			page 7


 339              	sd_lld_init:
 340              	.LFB124:
 341              		.loc 1 497 0
 342              		.cfi_startproc
 343              		@ args = 0, pretend = 0, frame = 0
 344              		@ frame_needed = 0, uses_anonymous_args = 0
 345 0000 10B5     		push	{r4, lr}
 346              	.LCFI1:
 347              		.cfi_def_cfa_offset 8
 348              		.cfi_offset 14, -4
 349              		.cfi_offset 4, -8
 350              		.loc 1 525 0
 351 0002 40F20004 		movw	r4, #:lower16:.LANCHOR0
 352 0006 C0F20004 		movt	r4, #:upper16:.LANCHOR0
 353 000a 40F20002 		movw	r2, #:lower16:notify6
 354 000e 2046     		mov	r0, r4
 355 0010 0021     		movs	r1, #0
 356 0012 C0F20002 		movt	r2, #:upper16:notify6
 357 0016 FFF7FEFF 		bl	sdObjectInit
 358              		.loc 1 526 0
 359 001a 4FF4A053 		mov	r3, #5120
 360 001e C4F20103 		movt	r3, 16385
 361 0022 6367     		str	r3, [r4, #116]
 362              		.loc 1 528 0
 363 0024 10BD     		pop	{r4, pc}
 364              		.cfi_endproc
 365              	.LFE124:
 366              		.size	sd_lld_init, .-sd_lld_init
 367 0026 00BFAFF3 		.section	.text.sd_lld_start,"ax",%progbits
 367      0080AFF3 
 367      0080
 368              		.align	2
 369              		.p2align 4,,15
 370              		.global	sd_lld_start
 371              		.thumb
 372              		.thumb_func
 373              		.type	sd_lld_start, %function
 374              	sd_lld_start:
 375              	.LFB125:
 376              		.loc 1 540 0
 377              		.cfi_startproc
 378              		@ args = 0, pretend = 0, frame = 0
 379              		@ frame_needed = 0, uses_anonymous_args = 0
 380              	.LVL43:
 381 0000 38B5     		push	{r3, r4, r5, lr}
 382              	.LCFI2:
 383              		.cfi_def_cfa_offset 16
 384              		.cfi_offset 14, -4
 385              		.cfi_offset 5, -8
 386              		.cfi_offset 4, -12
 387              		.cfi_offset 3, -16
 388              		.loc 1 545 0
 389 0002 037A     		ldrb	r3, [r0, #8]	@ zero_extendqisi2
 390              		.loc 1 543 0
 391 0004 234C     		ldr	r4, .L30
 392 0006 0029     		cmp	r1, #0
 393 0008 18BF     		it	ne
ARM GAS  /var/folders/5n/p_75w94d66l9ssrldxqdhh700000gn/T//ccmZInrG.s 			page 8


 394 000a 0C46     		movne	r4, r1
 395              	.LVL44:
 396              		.loc 1 545 0
 397 000c 012B     		cmp	r3, #1
 398              		.loc 1 540 0
 399 000e 0546     		mov	r5, r0
 400              		.loc 1 545 0
 401 0010 30D0     		beq	.L29
 402              	.LVL45:
 403              	.L25:
 404              	.LBB64:
 405              	.LBB65:
 406              		.loc 1 212 0
 407 0012 6B6F     		ldr	r3, [r5, #116]
 408              	.LVL46:
 409              		.loc 1 216 0
 410 0014 4FF4A051 		mov	r1, #5120
 411 0018 4FF48052 		mov	r2, #4096
 412 001c C4F20102 		movt	r2, 16385
 413 0020 C4F20101 		movt	r1, 16385
 414 0024 9342     		cmp	r3, r2
 415 0026 18BF     		it	ne
 416 0028 8B42     		cmpne	r3, r1
 417              		.loc 1 220 0
 418 002a 08BF     		it	eq
 419 002c 4FF43D42 		moveq	r2, #48384
 420 0030 2168     		ldr	r1, [r4, #0]
 421              		.loc 1 222 0
 422 0032 16BF     		itet	ne
 423 0034 4DF68062 		movwne	r2, #56960
 424              		.loc 1 220 0
 425 0038 C0F20152 		movteq	r2, 1281
 426              		.loc 1 222 0
 427 003c C0F28022 		movtne	r2, 640
 428 0040 B2FBF1F2 		udiv	r2, r2, r1
 429 0044 92B2     		uxth	r2, r2
 430 0046 1A81     		strh	r2, [r3, #8]	@ movhi
 431              		.loc 1 225 0
 432 0048 A288     		ldrh	r2, [r4, #4]
 433              		.loc 1 228 0
 434 004a E088     		ldrh	r0, [r4, #6]
 435              		.loc 1 229 0
 436 004c 2189     		ldrh	r1, [r4, #8]
 437              		.loc 1 225 0
 438 004e 42F40452 		orr	r2, r2, #8448
 439 0052 42F02C02 		orr	r2, r2, #44
 440 0056 92B2     		uxth	r2, r2
 441              		.loc 1 228 0
 442 0058 40F04000 		orr	r0, r0, #64
 443              		.loc 1 229 0
 444 005c 41F00101 		orr	r1, r1, #1
 445              		.loc 1 225 0
 446 0060 9A81     		strh	r2, [r3, #12]	@ movhi
 447              		.loc 1 228 0
 448 0062 80B2     		uxth	r0, r0
 449              		.loc 1 230 0
 450 0064 0022     		movs	r2, #0
ARM GAS  /var/folders/5n/p_75w94d66l9ssrldxqdhh700000gn/T//ccmZInrG.s 			page 9


 451              		.loc 1 229 0
 452 0066 89B2     		uxth	r1, r1
 453              		.loc 1 228 0
 454 0068 1882     		strh	r0, [r3, #16]	@ movhi
 455              		.loc 1 229 0
 456 006a 9982     		strh	r1, [r3, #20]	@ movhi
 457              		.loc 1 230 0
 458 006c 1A80     		strh	r2, [r3, #0]	@ movhi
 459              		.loc 1 231 0
 460 006e 1A88     		ldrh	r2, [r3, #0]
 461              		.loc 1 232 0
 462 0070 9B88     		ldrh	r3, [r3, #4]
 463              	.LBE65:
 464              	.LBE64:
 465              		.loc 1 590 0
 466 0072 38BD     		pop	{r3, r4, r5, pc}
 467              	.LVL47:
 468              	.L29:
 469              		.loc 1 582 0
 470 0074 084B     		ldr	r3, .L30+4
 471 0076 9842     		cmp	r0, r3
 472 0078 CBD1     		bne	.L25
 473              		.loc 1 583 0
 474 007a 4FF46053 		mov	r3, #14336
 475 007e C4F20203 		movt	r3, 16386
 476              		.loc 1 584 0
 477 0082 4720     		movs	r0, #71
 478              		.loc 1 583 0
 479 0084 5A6C     		ldr	r2, [r3, #68]
 480 0086 42F02002 		orr	r2, r2, #32
 481 008a 5A64     		str	r2, [r3, #68]
 482              		.loc 1 584 0
 483 008c C021     		movs	r1, #192
 484 008e FFF7FEFF 		bl	nvicEnableVector
 485 0092 BEE7     		b	.L25
 486              	.L31:
 487              		.align	2
 488              	.L30:
 489 0094 00000000 		.word	.LANCHOR1
 490 0098 00000000 		.word	.LANCHOR0
 491              		.cfi_endproc
 492              	.LFE125:
 493              		.size	sd_lld_start, .-sd_lld_start
 494 009c AFF30080 		.section	.text.sd_lld_stop,"ax",%progbits
 495              		.align	2
 496              		.p2align 4,,15
 497              		.global	sd_lld_stop
 498              		.thumb
 499              		.thumb_func
 500              		.type	sd_lld_stop, %function
 501              	sd_lld_stop:
 502              	.LFB126:
 503              		.loc 1 601 0
 504              		.cfi_startproc
 505              		@ args = 0, pretend = 0, frame = 0
 506              		@ frame_needed = 0, uses_anonymous_args = 0
 507              		@ link register save eliminated.
ARM GAS  /var/folders/5n/p_75w94d66l9ssrldxqdhh700000gn/T//ccmZInrG.s 			page 10


 508              	.LVL48:
 509              		.loc 1 603 0
 510 0000 037A     		ldrb	r3, [r0, #8]	@ zero_extendqisi2
 511 0002 022B     		cmp	r3, #2
 512 0004 00D0     		beq	.L34
 513              	.L32:
 514 0006 7047     		bx	lr
 515              	.LVL49:
 516              	.L34:
 517              		.loc 1 604 0
 518 0008 436F     		ldr	r3, [r0, #116]
 519              	.LVL50:
 520              	.LBB66:
 521              	.LBB67:
 522              		.loc 1 243 0
 523 000a 0022     		movs	r2, #0
 524 000c 9A81     		strh	r2, [r3, #12]	@ movhi
 525              		.loc 1 244 0
 526 000e 1A82     		strh	r2, [r3, #16]	@ movhi
 527              		.loc 1 245 0
 528 0010 9A82     		strh	r2, [r3, #20]	@ movhi
 529              	.LBE67:
 530              	.LBE66:
 531              		.loc 1 641 0
 532 0012 074B     		ldr	r3, .L35
 533 0014 9842     		cmp	r0, r3
 534 0016 F6D1     		bne	.L32
 535              		.loc 1 642 0
 536 0018 4FF46053 		mov	r3, #14336
 537 001c C4F20203 		movt	r3, 16386
 538              		.loc 1 643 0
 539 0020 4720     		movs	r0, #71
 540              	.LVL51:
 541              		.loc 1 642 0
 542 0022 5A6C     		ldr	r2, [r3, #68]
 543 0024 22F02002 		bic	r2, r2, #32
 544 0028 5A64     		str	r2, [r3, #68]
 545              		.loc 1 648 0
 546              		.loc 1 643 0
 547 002a FFF7FEBF 		b	nvicDisableVector
 548              	.L36:
 549 002e 00BF     		.align	2
 550              	.L35:
 551 0030 00000000 		.word	.LANCHOR0
 552              		.cfi_endproc
 553              	.LFE126:
 554              		.size	sd_lld_stop, .-sd_lld_stop
 555              		.global	SD6
 556 0034 AFF30080 		.section	.rodata.default_config,"a",%progbits
 556      AFF30080 
 556      AFF30080 
 557              		.align	2
 558              		.set	.LANCHOR1,. + 0
 559              		.type	default_config, %object
 560              		.size	default_config, 12
 561              	default_config:
 562 0000 00960000 		.word	38400
ARM GAS  /var/folders/5n/p_75w94d66l9ssrldxqdhh700000gn/T//ccmZInrG.s 			page 11


 563 0004 0000     		.short	0
 564 0006 0040     		.short	16384
 565 0008 0000     		.short	0
 566 000a 0000     		.space	2
 567              		.section	.bss.SD6,"aw",%nobits
 568              		.align	2
 569              		.set	.LANCHOR0,. + 0
 570              		.type	SD6, %object
 571              		.size	SD6, 120
 572              	SD6:
 573 0000 00000000 		.space	120
 573      00000000 
 573      00000000 
 573      00000000 
 573      00000000 
 574              		.text
 575              	.Letext0:
 576              		.file 2 "/usr/local/summon/lib/gcc/arm-none-eabi/4.6.2/include/stddef.h"
 577              		.file 3 "/usr/local/summon/lib/gcc/arm-none-eabi/4.6.2/../../../../arm-none-eabi/include/stdint.h"
 578              		.file 4 "../../os/ports/GCC/ARMCMx/chtypes.h"
 579              		.file 5 "../../os/kernel/include/chlists.h"
 580              		.file 6 "../../os/kernel/include/chthreads.h"
 581              		.file 7 "../../os/ports/GCC/ARMCMx/chcore_v7m.h"
 582              		.file 8 "../../os/kernel/include/chmtx.h"
 583              		.file 9 "../../os/kernel/include/chevents.h"
 584              		.file 10 "../../os/kernel/include/chqueues.h"
 585              		.file 11 "../../os/hal/platforms/STM32F4xx/stm32f4xx.h"
 586              		.file 12 "../../os/hal/include/serial.h"
 587              		.file 13 "../../os/hal/platforms/STM32/serial_lld.h"
 588              		.file 14 "../../os/ports/common/ARMCMx/CMSIS/include/core_cm4.h"
 589              		.section	.debug_info,"",%progbits
 590              	.Ldebug_info0:
 591 0000 20110000 		.4byte	0x1120
 592 0004 0200     		.2byte	0x2
 593 0006 00000000 		.4byte	.Ldebug_abbrev0
 594 000a 04       		.byte	0x4
 595 000b 01       		.uleb128 0x1
 596 000c 28090000 		.4byte	.LASF227
 597 0010 01       		.byte	0x1
 598 0011 70070000 		.4byte	.LASF228
 599 0015 6E090000 		.4byte	.LASF229
 600 0019 00000000 		.4byte	0
 601 001d 00000000 		.4byte	0
 602 0021 30000000 		.4byte	.Ldebug_ranges0+0x30
 603 0025 00000000 		.4byte	.Ldebug_line0
 604 0029 02       		.uleb128 0x2
 605 002a 04       		.byte	0x4
 606 002b 05       		.byte	0x5
 607 002c 696E7400 		.ascii	"int\000"
 608 0030 03       		.uleb128 0x3
 609 0031 00000000 		.4byte	.LASF2
 610 0035 02       		.byte	0x2
 611 0036 D4       		.byte	0xd4
 612 0037 3B000000 		.4byte	0x3b
 613 003b 04       		.uleb128 0x4
 614 003c 04       		.byte	0x4
 615 003d 07       		.byte	0x7
ARM GAS  /var/folders/5n/p_75w94d66l9ssrldxqdhh700000gn/T//ccmZInrG.s 			page 12


 616 003e FE050000 		.4byte	.LASF0
 617 0042 04       		.uleb128 0x4
 618 0043 01       		.byte	0x1
 619 0044 06       		.byte	0x6
 620 0045 1F020000 		.4byte	.LASF1
 621 0049 03       		.uleb128 0x3
 622 004a 35020000 		.4byte	.LASF3
 623 004e 03       		.byte	0x3
 624 004f 2A       		.byte	0x2a
 625 0050 54000000 		.4byte	0x54
 626 0054 04       		.uleb128 0x4
 627 0055 01       		.byte	0x1
 628 0056 08       		.byte	0x8
 629 0057 77020000 		.4byte	.LASF4
 630 005b 04       		.uleb128 0x4
 631 005c 02       		.byte	0x2
 632 005d 05       		.byte	0x5
 633 005e 9D080000 		.4byte	.LASF5
 634 0062 03       		.uleb128 0x3
 635 0063 57070000 		.4byte	.LASF6
 636 0067 03       		.byte	0x3
 637 0068 36       		.byte	0x36
 638 0069 6D000000 		.4byte	0x6d
 639 006d 04       		.uleb128 0x4
 640 006e 02       		.byte	0x2
 641 006f 07       		.byte	0x7
 642 0070 E3090000 		.4byte	.LASF7
 643 0074 03       		.uleb128 0x3
 644 0075 48000000 		.4byte	.LASF8
 645 0079 03       		.byte	0x3
 646 007a 4F       		.byte	0x4f
 647 007b 7F000000 		.4byte	0x7f
 648 007f 04       		.uleb128 0x4
 649 0080 04       		.byte	0x4
 650 0081 05       		.byte	0x5
 651 0082 73010000 		.4byte	.LASF9
 652 0086 03       		.uleb128 0x3
 653 0087 4A090000 		.4byte	.LASF10
 654 008b 03       		.byte	0x3
 655 008c 50       		.byte	0x50
 656 008d 91000000 		.4byte	0x91
 657 0091 04       		.uleb128 0x4
 658 0092 04       		.byte	0x4
 659 0093 07       		.byte	0x7
 660 0094 52040000 		.4byte	.LASF11
 661 0098 04       		.uleb128 0x4
 662 0099 08       		.byte	0x8
 663 009a 05       		.byte	0x5
 664 009b 37050000 		.4byte	.LASF12
 665 009f 04       		.uleb128 0x4
 666 00a0 08       		.byte	0x8
 667 00a1 07       		.byte	0x7
 668 00a2 38070000 		.4byte	.LASF13
 669 00a6 03       		.uleb128 0x3
 670 00a7 07080000 		.4byte	.LASF14
 671 00ab 04       		.byte	0x4
 672 00ac 28       		.byte	0x28
ARM GAS  /var/folders/5n/p_75w94d66l9ssrldxqdhh700000gn/T//ccmZInrG.s 			page 13


 673 00ad 49000000 		.4byte	0x49
 674 00b1 03       		.uleb128 0x3
 675 00b2 B3010000 		.4byte	.LASF15
 676 00b6 04       		.byte	0x4
 677 00b7 29       		.byte	0x29
 678 00b8 49000000 		.4byte	0x49
 679 00bc 03       		.uleb128 0x3
 680 00bd F0080000 		.4byte	.LASF16
 681 00c1 04       		.byte	0x4
 682 00c2 2A       		.byte	0x2a
 683 00c3 49000000 		.4byte	0x49
 684 00c7 03       		.uleb128 0x3
 685 00c8 A6070000 		.4byte	.LASF17
 686 00cc 04       		.byte	0x4
 687 00cd 2B       		.byte	0x2b
 688 00ce 49000000 		.4byte	0x49
 689 00d2 03       		.uleb128 0x3
 690 00d3 35000000 		.4byte	.LASF18
 691 00d7 04       		.byte	0x4
 692 00d8 2C       		.byte	0x2c
 693 00d9 86000000 		.4byte	0x86
 694 00dd 03       		.uleb128 0x3
 695 00de 60070000 		.4byte	.LASF19
 696 00e2 04       		.byte	0x4
 697 00e3 2D       		.byte	0x2d
 698 00e4 74000000 		.4byte	0x74
 699 00e8 03       		.uleb128 0x3
 700 00e9 3D020000 		.4byte	.LASF20
 701 00ed 04       		.byte	0x4
 702 00ee 2F       		.byte	0x2f
 703 00ef 86000000 		.4byte	0x86
 704 00f3 03       		.uleb128 0x3
 705 00f4 66060000 		.4byte	.LASF21
 706 00f8 04       		.byte	0x4
 707 00f9 30       		.byte	0x30
 708 00fa 86000000 		.4byte	0x86
 709 00fe 03       		.uleb128 0x3
 710 00ff 1A000000 		.4byte	.LASF22
 711 0103 04       		.byte	0x4
 712 0104 31       		.byte	0x31
 713 0105 86000000 		.4byte	0x86
 714 0109 03       		.uleb128 0x3
 715 010a C9080000 		.4byte	.LASF23
 716 010e 05       		.byte	0x5
 717 010f 23       		.byte	0x23
 718 0110 14010000 		.4byte	0x114
 719 0114 05       		.uleb128 0x5
 720 0115 C9080000 		.4byte	.LASF23
 721 0119 48       		.byte	0x48
 722 011a 06       		.byte	0x6
 723 011b 57       		.byte	0x57
 724 011c 39020000 		.4byte	0x239
 725 0120 06       		.uleb128 0x6
 726 0121 7C010000 		.4byte	.LASF24
 727 0125 06       		.byte	0x6
 728 0126 58       		.byte	0x58
 729 0127 5E020000 		.4byte	0x25e
ARM GAS  /var/folders/5n/p_75w94d66l9ssrldxqdhh700000gn/T//ccmZInrG.s 			page 14


 730 012b 02       		.byte	0x2
 731 012c 23       		.byte	0x23
 732 012d 00       		.uleb128 0
 733 012e 06       		.uleb128 0x6
 734 012f 8B010000 		.4byte	.LASF25
 735 0133 06       		.byte	0x6
 736 0134 5A       		.byte	0x5a
 737 0135 5E020000 		.4byte	0x25e
 738 0139 02       		.byte	0x2
 739 013a 23       		.byte	0x23
 740 013b 04       		.uleb128 0x4
 741 013c 06       		.uleb128 0x6
 742 013d 14030000 		.4byte	.LASF26
 743 0141 06       		.byte	0x6
 744 0142 5C       		.byte	0x5c
 745 0143 D2000000 		.4byte	0xd2
 746 0147 02       		.byte	0x2
 747 0148 23       		.byte	0x23
 748 0149 08       		.uleb128 0x8
 749 014a 06       		.uleb128 0x6
 750 014b 2F000000 		.4byte	.LASF27
 751 014f 06       		.byte	0x6
 752 0150 5D       		.byte	0x5d
 753 0151 2C030000 		.4byte	0x32c
 754 0155 02       		.byte	0x2
 755 0156 23       		.byte	0x23
 756 0157 0C       		.uleb128 0xc
 757 0158 06       		.uleb128 0x6
 758 0159 6B010000 		.4byte	.LASF28
 759 015d 06       		.byte	0x6
 760 015e 5F       		.byte	0x5f
 761 015f 5E020000 		.4byte	0x25e
 762 0163 02       		.byte	0x2
 763 0164 23       		.byte	0x23
 764 0165 10       		.uleb128 0x10
 765 0166 06       		.uleb128 0x6
 766 0167 4F070000 		.4byte	.LASF29
 767 016b 06       		.byte	0x6
 768 016c 60       		.byte	0x60
 769 016d 5E020000 		.4byte	0x25e
 770 0171 02       		.byte	0x2
 771 0172 23       		.byte	0x23
 772 0173 14       		.uleb128 0x14
 773 0174 06       		.uleb128 0x6
 774 0175 790A0000 		.4byte	.LASF30
 775 0179 06       		.byte	0x6
 776 017a 67       		.byte	0x67
 777 017b 52040000 		.4byte	0x452
 778 017f 02       		.byte	0x2
 779 0180 23       		.byte	0x23
 780 0181 18       		.uleb128 0x18
 781 0182 06       		.uleb128 0x6
 782 0183 B30A0000 		.4byte	.LASF31
 783 0187 06       		.byte	0x6
 784 0188 72       		.byte	0x72
 785 0189 B1000000 		.4byte	0xb1
 786 018d 02       		.byte	0x2
ARM GAS  /var/folders/5n/p_75w94d66l9ssrldxqdhh700000gn/T//ccmZInrG.s 			page 15


 787 018e 23       		.byte	0x23
 788 018f 1C       		.uleb128 0x1c
 789 0190 06       		.uleb128 0x6
 790 0191 F1050000 		.4byte	.LASF32
 791 0195 06       		.byte	0x6
 792 0196 76       		.byte	0x76
 793 0197 A6000000 		.4byte	0xa6
 794 019b 02       		.byte	0x2
 795 019c 23       		.byte	0x23
 796 019d 1D       		.uleb128 0x1d
 797 019e 06       		.uleb128 0x6
 798 019f 2E060000 		.4byte	.LASF33
 799 01a3 06       		.byte	0x6
 800 01a4 7B       		.byte	0x7b
 801 01a5 BC000000 		.4byte	0xbc
 802 01a9 02       		.byte	0x2
 803 01aa 23       		.byte	0x23
 804 01ab 1E       		.uleb128 0x1e
 805 01ac 06       		.uleb128 0x6
 806 01ad 2B020000 		.4byte	.LASF34
 807 01b1 06       		.byte	0x6
 808 01b2 81       		.byte	0x81
 809 01b3 C7000000 		.4byte	0xc7
 810 01b7 02       		.byte	0x2
 811 01b8 23       		.byte	0x23
 812 01b9 1F       		.uleb128 0x1f
 813 01ba 06       		.uleb128 0x6
 814 01bb 91060000 		.4byte	.LASF35
 815 01bf 06       		.byte	0x6
 816 01c0 88       		.byte	0x88
 817 01c1 54030000 		.4byte	0x354
 818 01c5 02       		.byte	0x2
 819 01c6 23       		.byte	0x23
 820 01c7 20       		.uleb128 0x20
 821 01c8 07       		.uleb128 0x7
 822 01c9 705F7500 		.ascii	"p_u\000"
 823 01cd 06       		.byte	0x6
 824 01ce AD       		.byte	0xad
 825 01cf 1D040000 		.4byte	0x41d
 826 01d3 02       		.byte	0x2
 827 01d4 23       		.byte	0x23
 828 01d5 24       		.uleb128 0x24
 829 01d6 06       		.uleb128 0x6
 830 01d7 BE050000 		.4byte	.LASF36
 831 01db 06       		.byte	0x6
 832 01dc B2       		.byte	0xb2
 833 01dd 86020000 		.4byte	0x286
 834 01e1 02       		.byte	0x2
 835 01e2 23       		.byte	0x23
 836 01e3 28       		.uleb128 0x28
 837 01e4 06       		.uleb128 0x6
 838 01e5 3D000000 		.4byte	.LASF37
 839 01e9 06       		.byte	0x6
 840 01ea B8       		.byte	0xb8
 841 01eb 64020000 		.4byte	0x264
 842 01ef 02       		.byte	0x2
 843 01f0 23       		.byte	0x23
ARM GAS  /var/folders/5n/p_75w94d66l9ssrldxqdhh700000gn/T//ccmZInrG.s 			page 16


 844 01f1 2C       		.uleb128 0x2c
 845 01f2 06       		.uleb128 0x6
 846 01f3 A10A0000 		.4byte	.LASF38
 847 01f7 06       		.byte	0x6
 848 01f8 BC       		.byte	0xbc
 849 01f9 DD000000 		.4byte	0xdd
 850 01fd 02       		.byte	0x2
 851 01fe 23       		.byte	0x23
 852 01ff 34       		.uleb128 0x34
 853 0200 06       		.uleb128 0x6
 854 0201 93030000 		.4byte	.LASF39
 855 0205 06       		.byte	0x6
 856 0206 C2       		.byte	0xc2
 857 0207 E8000000 		.4byte	0xe8
 858 020b 02       		.byte	0x2
 859 020c 23       		.byte	0x23
 860 020d 38       		.uleb128 0x38
 861 020e 06       		.uleb128 0x6
 862 020f BC010000 		.4byte	.LASF40
 863 0213 06       		.byte	0x6
 864 0214 C9       		.byte	0xc9
 865 0215 64040000 		.4byte	0x464
 866 0219 02       		.byte	0x2
 867 021a 23       		.byte	0x23
 868 021b 3C       		.uleb128 0x3c
 869 021c 06       		.uleb128 0x6
 870 021d B8060000 		.4byte	.LASF41
 871 0221 06       		.byte	0x6
 872 0222 CD       		.byte	0xcd
 873 0223 D2000000 		.4byte	0xd2
 874 0227 02       		.byte	0x2
 875 0228 23       		.byte	0x23
 876 0229 40       		.uleb128 0x40
 877 022a 06       		.uleb128 0x6
 878 022b 19060000 		.4byte	.LASF42
 879 022f 06       		.byte	0x6
 880 0230 D3       		.byte	0xd3
 881 0231 9C020000 		.4byte	0x29c
 882 0235 02       		.byte	0x2
 883 0236 23       		.byte	0x23
 884 0237 44       		.uleb128 0x44
 885 0238 00       		.byte	0
 886 0239 08       		.uleb128 0x8
 887 023a 08       		.byte	0x8
 888 023b 05       		.byte	0x5
 889 023c 5A       		.byte	0x5a
 890 023d 5E020000 		.4byte	0x25e
 891 0241 06       		.uleb128 0x6
 892 0242 7C010000 		.4byte	.LASF24
 893 0246 05       		.byte	0x5
 894 0247 5B       		.byte	0x5b
 895 0248 5E020000 		.4byte	0x25e
 896 024c 02       		.byte	0x2
 897 024d 23       		.byte	0x23
 898 024e 00       		.uleb128 0
 899 024f 06       		.uleb128 0x6
 900 0250 8B010000 		.4byte	.LASF25
ARM GAS  /var/folders/5n/p_75w94d66l9ssrldxqdhh700000gn/T//ccmZInrG.s 			page 17


 901 0254 05       		.byte	0x5
 902 0255 5D       		.byte	0x5d
 903 0256 5E020000 		.4byte	0x25e
 904 025a 02       		.byte	0x2
 905 025b 23       		.byte	0x23
 906 025c 04       		.uleb128 0x4
 907 025d 00       		.byte	0
 908 025e 09       		.uleb128 0x9
 909 025f 04       		.byte	0x4
 910 0260 09010000 		.4byte	0x109
 911 0264 03       		.uleb128 0x3
 912 0265 61090000 		.4byte	.LASF43
 913 0269 05       		.byte	0x5
 914 026a 5F       		.byte	0x5f
 915 026b 39020000 		.4byte	0x239
 916 026f 08       		.uleb128 0x8
 917 0270 04       		.byte	0x4
 918 0271 05       		.byte	0x5
 919 0272 64       		.byte	0x64
 920 0273 86020000 		.4byte	0x286
 921 0277 06       		.uleb128 0x6
 922 0278 7C010000 		.4byte	.LASF24
 923 027c 05       		.byte	0x5
 924 027d 66       		.byte	0x66
 925 027e 5E020000 		.4byte	0x25e
 926 0282 02       		.byte	0x2
 927 0283 23       		.byte	0x23
 928 0284 00       		.uleb128 0
 929 0285 00       		.byte	0
 930 0286 03       		.uleb128 0x3
 931 0287 3E060000 		.4byte	.LASF44
 932 028b 05       		.byte	0x5
 933 028c 69       		.byte	0x69
 934 028d 6F020000 		.4byte	0x26f
 935 0291 03       		.uleb128 0x3
 936 0292 E5010000 		.4byte	.LASF45
 937 0296 07       		.byte	0x7
 938 0297 DE       		.byte	0xde
 939 0298 9C020000 		.4byte	0x29c
 940 029c 0A       		.uleb128 0xa
 941 029d 04       		.byte	0x4
 942 029e 0B       		.uleb128 0xb
 943 029f 8C030000 		.4byte	.LASF46
 944 02a3 24       		.byte	0x24
 945 02a4 07       		.byte	0x7
 946 02a5 0501     		.2byte	0x105
 947 02a7 2C030000 		.4byte	0x32c
 948 02ab 0C       		.uleb128 0xc
 949 02ac 723400   		.ascii	"r4\000"
 950 02af 07       		.byte	0x7
 951 02b0 1801     		.2byte	0x118
 952 02b2 91020000 		.4byte	0x291
 953 02b6 02       		.byte	0x2
 954 02b7 23       		.byte	0x23
 955 02b8 00       		.uleb128 0
 956 02b9 0C       		.uleb128 0xc
 957 02ba 723500   		.ascii	"r5\000"
ARM GAS  /var/folders/5n/p_75w94d66l9ssrldxqdhh700000gn/T//ccmZInrG.s 			page 18


 958 02bd 07       		.byte	0x7
 959 02be 1901     		.2byte	0x119
 960 02c0 91020000 		.4byte	0x291
 961 02c4 02       		.byte	0x2
 962 02c5 23       		.byte	0x23
 963 02c6 04       		.uleb128 0x4
 964 02c7 0C       		.uleb128 0xc
 965 02c8 723600   		.ascii	"r6\000"
 966 02cb 07       		.byte	0x7
 967 02cc 1A01     		.2byte	0x11a
 968 02ce 91020000 		.4byte	0x291
 969 02d2 02       		.byte	0x2
 970 02d3 23       		.byte	0x23
 971 02d4 08       		.uleb128 0x8
 972 02d5 0C       		.uleb128 0xc
 973 02d6 723700   		.ascii	"r7\000"
 974 02d9 07       		.byte	0x7
 975 02da 1B01     		.2byte	0x11b
 976 02dc 91020000 		.4byte	0x291
 977 02e0 02       		.byte	0x2
 978 02e1 23       		.byte	0x23
 979 02e2 0C       		.uleb128 0xc
 980 02e3 0C       		.uleb128 0xc
 981 02e4 723800   		.ascii	"r8\000"
 982 02e7 07       		.byte	0x7
 983 02e8 1C01     		.2byte	0x11c
 984 02ea 91020000 		.4byte	0x291
 985 02ee 02       		.byte	0x2
 986 02ef 23       		.byte	0x23
 987 02f0 10       		.uleb128 0x10
 988 02f1 0C       		.uleb128 0xc
 989 02f2 723900   		.ascii	"r9\000"
 990 02f5 07       		.byte	0x7
 991 02f6 1D01     		.2byte	0x11d
 992 02f8 91020000 		.4byte	0x291
 993 02fc 02       		.byte	0x2
 994 02fd 23       		.byte	0x23
 995 02fe 14       		.uleb128 0x14
 996 02ff 0C       		.uleb128 0xc
 997 0300 72313000 		.ascii	"r10\000"
 998 0304 07       		.byte	0x7
 999 0305 1E01     		.2byte	0x11e
 1000 0307 91020000 		.4byte	0x291
 1001 030b 02       		.byte	0x2
 1002 030c 23       		.byte	0x23
 1003 030d 18       		.uleb128 0x18
 1004 030e 0C       		.uleb128 0xc
 1005 030f 72313100 		.ascii	"r11\000"
 1006 0313 07       		.byte	0x7
 1007 0314 1F01     		.2byte	0x11f
 1008 0316 91020000 		.4byte	0x291
 1009 031a 02       		.byte	0x2
 1010 031b 23       		.byte	0x23
 1011 031c 1C       		.uleb128 0x1c
 1012 031d 0C       		.uleb128 0xc
 1013 031e 6C7200   		.ascii	"lr\000"
 1014 0321 07       		.byte	0x7
ARM GAS  /var/folders/5n/p_75w94d66l9ssrldxqdhh700000gn/T//ccmZInrG.s 			page 19


 1015 0322 2001     		.2byte	0x120
 1016 0324 91020000 		.4byte	0x291
 1017 0328 02       		.byte	0x2
 1018 0329 23       		.byte	0x23
 1019 032a 20       		.uleb128 0x20
 1020 032b 00       		.byte	0
 1021 032c 0B       		.uleb128 0xb
 1022 032d 49020000 		.4byte	.LASF47
 1023 0331 04       		.byte	0x4
 1024 0332 07       		.byte	0x7
 1025 0333 2A01     		.2byte	0x12a
 1026 0335 49030000 		.4byte	0x349
 1027 0339 0C       		.uleb128 0xc
 1028 033a 72313300 		.ascii	"r13\000"
 1029 033e 07       		.byte	0x7
 1030 033f 2B01     		.2byte	0x12b
 1031 0341 49030000 		.4byte	0x349
 1032 0345 02       		.byte	0x2
 1033 0346 23       		.byte	0x23
 1034 0347 00       		.uleb128 0
 1035 0348 00       		.byte	0
 1036 0349 09       		.uleb128 0x9
 1037 034a 04       		.byte	0x4
 1038 034b 9E020000 		.4byte	0x29e
 1039 034f 0D       		.uleb128 0xd
 1040 0350 86000000 		.4byte	0x86
 1041 0354 0D       		.uleb128 0xd
 1042 0355 FE000000 		.4byte	0xfe
 1043 0359 05       		.uleb128 0x5
 1044 035a 27050000 		.4byte	.LASF48
 1045 035e 10       		.byte	0x10
 1046 035f 08       		.byte	0x8
 1047 0360 25       		.byte	0x25
 1048 0361 90030000 		.4byte	0x390
 1049 0365 06       		.uleb128 0x6
 1050 0366 69050000 		.4byte	.LASF49
 1051 036a 08       		.byte	0x8
 1052 036b 26       		.byte	0x26
 1053 036c 64020000 		.4byte	0x264
 1054 0370 02       		.byte	0x2
 1055 0371 23       		.byte	0x23
 1056 0372 00       		.uleb128 0
 1057 0373 06       		.uleb128 0x6
 1058 0374 F9000000 		.4byte	.LASF50
 1059 0378 08       		.byte	0x8
 1060 0379 28       		.byte	0x28
 1061 037a 5E020000 		.4byte	0x25e
 1062 037e 02       		.byte	0x2
 1063 037f 23       		.byte	0x23
 1064 0380 08       		.uleb128 0x8
 1065 0381 06       		.uleb128 0x6
 1066 0382 800A0000 		.4byte	.LASF51
 1067 0386 08       		.byte	0x8
 1068 0387 2A       		.byte	0x2a
 1069 0388 90030000 		.4byte	0x390
 1070 038c 02       		.byte	0x2
 1071 038d 23       		.byte	0x23
ARM GAS  /var/folders/5n/p_75w94d66l9ssrldxqdhh700000gn/T//ccmZInrG.s 			page 20


 1072 038e 0C       		.uleb128 0xc
 1073 038f 00       		.byte	0
 1074 0390 09       		.uleb128 0x9
 1075 0391 04       		.byte	0x4
 1076 0392 59030000 		.4byte	0x359
 1077 0396 03       		.uleb128 0x3
 1078 0397 27050000 		.4byte	.LASF48
 1079 039b 08       		.byte	0x8
 1080 039c 2C       		.byte	0x2c
 1081 039d 59030000 		.4byte	0x359
 1082 03a1 03       		.uleb128 0x3
 1083 03a2 1A090000 		.4byte	.LASF52
 1084 03a6 09       		.byte	0x9
 1085 03a7 25       		.byte	0x25
 1086 03a8 AC030000 		.4byte	0x3ac
 1087 03ac 05       		.uleb128 0x5
 1088 03ad 1A090000 		.4byte	.LASF52
 1089 03b1 10       		.byte	0x10
 1090 03b2 09       		.byte	0x9
 1091 03b3 2A       		.byte	0x2a
 1092 03b4 F1030000 		.4byte	0x3f1
 1093 03b8 06       		.uleb128 0x6
 1094 03b9 98040000 		.4byte	.LASF53
 1095 03bd 09       		.byte	0x9
 1096 03be 2B       		.byte	0x2b
 1097 03bf F1030000 		.4byte	0x3f1
 1098 03c3 02       		.byte	0x2
 1099 03c4 23       		.byte	0x23
 1100 03c5 00       		.uleb128 0
 1101 03c6 06       		.uleb128 0x6
 1102 03c7 A70A0000 		.4byte	.LASF54
 1103 03cb 09       		.byte	0x9
 1104 03cc 2E       		.byte	0x2e
 1105 03cd 5E020000 		.4byte	0x25e
 1106 03d1 02       		.byte	0x2
 1107 03d2 23       		.byte	0x23
 1108 03d3 04       		.uleb128 0x4
 1109 03d4 06       		.uleb128 0x6
 1110 03d5 710A0000 		.4byte	.LASF55
 1111 03d9 09       		.byte	0x9
 1112 03da 30       		.byte	0x30
 1113 03db E8000000 		.4byte	0xe8
 1114 03df 02       		.byte	0x2
 1115 03e0 23       		.byte	0x23
 1116 03e1 08       		.uleb128 0x8
 1117 03e2 06       		.uleb128 0x6
 1118 03e3 A0000000 		.4byte	.LASF56
 1119 03e7 09       		.byte	0x9
 1120 03e8 33       		.byte	0x33
 1121 03e9 F3000000 		.4byte	0xf3
 1122 03ed 02       		.byte	0x2
 1123 03ee 23       		.byte	0x23
 1124 03ef 0C       		.uleb128 0xc
 1125 03f0 00       		.byte	0
 1126 03f1 09       		.uleb128 0x9
 1127 03f2 04       		.byte	0x4
 1128 03f3 A1030000 		.4byte	0x3a1
ARM GAS  /var/folders/5n/p_75w94d66l9ssrldxqdhh700000gn/T//ccmZInrG.s 			page 21


 1129 03f7 05       		.uleb128 0x5
 1130 03f8 3C040000 		.4byte	.LASF57
 1131 03fc 04       		.byte	0x4
 1132 03fd 09       		.byte	0x9
 1133 03fe 3A       		.byte	0x3a
 1134 03ff 12040000 		.4byte	0x412
 1135 0403 06       		.uleb128 0x6
 1136 0404 00040000 		.4byte	.LASF58
 1137 0408 09       		.byte	0x9
 1138 0409 3B       		.byte	0x3b
 1139 040a F1030000 		.4byte	0x3f1
 1140 040e 02       		.byte	0x2
 1141 040f 23       		.byte	0x23
 1142 0410 00       		.uleb128 0
 1143 0411 00       		.byte	0
 1144 0412 03       		.uleb128 0x3
 1145 0413 3C040000 		.4byte	.LASF57
 1146 0417 09       		.byte	0x9
 1147 0418 3E       		.byte	0x3e
 1148 0419 F7030000 		.4byte	0x3f7
 1149 041d 0E       		.uleb128 0xe
 1150 041e 04       		.byte	0x4
 1151 041f 06       		.byte	0x6
 1152 0420 8F       		.byte	0x8f
 1153 0421 52040000 		.4byte	0x452
 1154 0425 0F       		.uleb128 0xf
 1155 0426 D1090000 		.4byte	.LASF59
 1156 042a 06       		.byte	0x6
 1157 042b 96       		.byte	0x96
 1158 042c DD000000 		.4byte	0xdd
 1159 0430 0F       		.uleb128 0xf
 1160 0431 01010000 		.4byte	.LASF60
 1161 0435 06       		.byte	0x6
 1162 0436 9D       		.byte	0x9d
 1163 0437 DD000000 		.4byte	0xdd
 1164 043b 0F       		.uleb128 0xf
 1165 043c 30030000 		.4byte	.LASF61
 1166 0440 06       		.byte	0x6
 1167 0441 A4       		.byte	0xa4
 1168 0442 9C020000 		.4byte	0x29c
 1169 0446 0F       		.uleb128 0xf
 1170 0447 21010000 		.4byte	.LASF62
 1171 044b 06       		.byte	0x6
 1172 044c AB       		.byte	0xab
 1173 044d E8000000 		.4byte	0xe8
 1174 0451 00       		.byte	0
 1175 0452 09       		.uleb128 0x9
 1176 0453 04       		.byte	0x4
 1177 0454 58040000 		.4byte	0x458
 1178 0458 10       		.uleb128 0x10
 1179 0459 5D040000 		.4byte	0x45d
 1180 045d 04       		.uleb128 0x4
 1181 045e 01       		.byte	0x1
 1182 045f 08       		.byte	0x8
 1183 0460 0F030000 		.4byte	.LASF63
 1184 0464 09       		.uleb128 0x9
 1185 0465 04       		.byte	0x4
ARM GAS  /var/folders/5n/p_75w94d66l9ssrldxqdhh700000gn/T//ccmZInrG.s 			page 22


 1186 0466 96030000 		.4byte	0x396
 1187 046a 09       		.uleb128 0x9
 1188 046b 04       		.byte	0x4
 1189 046c 70040000 		.4byte	0x470
 1190 0470 11       		.uleb128 0x11
 1191 0471 01       		.byte	0x1
 1192 0472 DD000000 		.4byte	0xdd
 1193 0476 80040000 		.4byte	0x480
 1194 047a 12       		.uleb128 0x12
 1195 047b 9C020000 		.4byte	0x29c
 1196 047f 00       		.byte	0
 1197 0480 03       		.uleb128 0x3
 1198 0481 23030000 		.4byte	.LASF64
 1199 0485 0A       		.byte	0xa
 1200 0486 30       		.byte	0x30
 1201 0487 8B040000 		.4byte	0x48b
 1202 048b 05       		.uleb128 0x5
 1203 048c 23030000 		.4byte	.LASF64
 1204 0490 24       		.byte	0x24
 1205 0491 0A       		.byte	0xa
 1206 0492 3E       		.byte	0x3e
 1207 0493 08050000 		.4byte	0x508
 1208 0497 06       		.uleb128 0x6
 1209 0498 F2070000 		.4byte	.LASF65
 1210 049c 0A       		.byte	0xa
 1211 049d 3F       		.byte	0x3f
 1212 049e 64020000 		.4byte	0x264
 1213 04a2 02       		.byte	0x2
 1214 04a3 23       		.byte	0x23
 1215 04a4 00       		.uleb128 0
 1216 04a5 06       		.uleb128 0x6
 1217 04a6 08040000 		.4byte	.LASF66
 1218 04aa 0A       		.byte	0xa
 1219 04ab 40       		.byte	0x40
 1220 04ac 30000000 		.4byte	0x30
 1221 04b0 02       		.byte	0x2
 1222 04b1 23       		.byte	0x23
 1223 04b2 08       		.uleb128 0x8
 1224 04b3 06       		.uleb128 0x6
 1225 04b4 59010000 		.4byte	.LASF67
 1226 04b8 0A       		.byte	0xa
 1227 04b9 41       		.byte	0x41
 1228 04ba 2B050000 		.4byte	0x52b
 1229 04be 02       		.byte	0x2
 1230 04bf 23       		.byte	0x23
 1231 04c0 0C       		.uleb128 0xc
 1232 04c1 06       		.uleb128 0x6
 1233 04c2 1B010000 		.4byte	.LASF68
 1234 04c6 0A       		.byte	0xa
 1235 04c7 42       		.byte	0x42
 1236 04c8 2B050000 		.4byte	0x52b
 1237 04cc 02       		.byte	0x2
 1238 04cd 23       		.byte	0x23
 1239 04ce 10       		.uleb128 0x10
 1240 04cf 06       		.uleb128 0x6
 1241 04d0 A0040000 		.4byte	.LASF69
 1242 04d4 0A       		.byte	0xa
ARM GAS  /var/folders/5n/p_75w94d66l9ssrldxqdhh700000gn/T//ccmZInrG.s 			page 23


 1243 04d5 44       		.byte	0x44
 1244 04d6 2B050000 		.4byte	0x52b
 1245 04da 02       		.byte	0x2
 1246 04db 23       		.byte	0x23
 1247 04dc 14       		.uleb128 0x14
 1248 04dd 06       		.uleb128 0x6
 1249 04de 83010000 		.4byte	.LASF70
 1250 04e2 0A       		.byte	0xa
 1251 04e3 45       		.byte	0x45
 1252 04e4 2B050000 		.4byte	0x52b
 1253 04e8 02       		.byte	0x2
 1254 04e9 23       		.byte	0x23
 1255 04ea 18       		.uleb128 0x18
 1256 04eb 06       		.uleb128 0x6
 1257 04ec 62010000 		.4byte	.LASF71
 1258 04f0 0A       		.byte	0xa
 1259 04f1 46       		.byte	0x46
 1260 04f2 08050000 		.4byte	0x508
 1261 04f6 02       		.byte	0x2
 1262 04f7 23       		.byte	0x23
 1263 04f8 1C       		.uleb128 0x1c
 1264 04f9 06       		.uleb128 0x6
 1265 04fa A1020000 		.4byte	.LASF72
 1266 04fe 0A       		.byte	0xa
 1267 04ff 47       		.byte	0x47
 1268 0500 9C020000 		.4byte	0x29c
 1269 0504 02       		.byte	0x2
 1270 0505 23       		.byte	0x23
 1271 0506 20       		.uleb128 0x20
 1272 0507 00       		.byte	0
 1273 0508 03       		.uleb128 0x3
 1274 0509 B4050000 		.4byte	.LASF73
 1275 050d 0A       		.byte	0xa
 1276 050e 33       		.byte	0x33
 1277 050f 13050000 		.4byte	0x513
 1278 0513 09       		.uleb128 0x9
 1279 0514 04       		.byte	0x4
 1280 0515 19050000 		.4byte	0x519
 1281 0519 13       		.uleb128 0x13
 1282 051a 01       		.byte	0x1
 1283 051b 25050000 		.4byte	0x525
 1284 051f 12       		.uleb128 0x12
 1285 0520 25050000 		.4byte	0x525
 1286 0524 00       		.byte	0
 1287 0525 09       		.uleb128 0x9
 1288 0526 04       		.byte	0x4
 1289 0527 80040000 		.4byte	0x480
 1290 052b 09       		.uleb128 0x9
 1291 052c 04       		.byte	0x4
 1292 052d 49000000 		.4byte	0x49
 1293 0531 03       		.uleb128 0x3
 1294 0532 190A0000 		.4byte	.LASF74
 1295 0536 0A       		.byte	0xa
 1296 0537 7B       		.byte	0x7b
 1297 0538 80040000 		.4byte	0x480
 1298 053c 03       		.uleb128 0x3
 1299 053d 58030000 		.4byte	.LASF75
ARM GAS  /var/folders/5n/p_75w94d66l9ssrldxqdhh700000gn/T//ccmZInrG.s 			page 24


 1300 0541 0A       		.byte	0xa
 1301 0542 EE       		.byte	0xee
 1302 0543 80040000 		.4byte	0x480
 1303 0547 11       		.uleb128 0x11
 1304 0548 01       		.byte	0x1
 1305 0549 30000000 		.4byte	0x30
 1306 054d 61050000 		.4byte	0x561
 1307 0551 12       		.uleb128 0x12
 1308 0552 9C020000 		.4byte	0x29c
 1309 0556 12       		.uleb128 0x12
 1310 0557 61050000 		.4byte	0x561
 1311 055b 12       		.uleb128 0x12
 1312 055c 30000000 		.4byte	0x30
 1313 0560 00       		.byte	0
 1314 0561 09       		.uleb128 0x9
 1315 0562 04       		.byte	0x4
 1316 0563 67050000 		.4byte	0x567
 1317 0567 10       		.uleb128 0x10
 1318 0568 49000000 		.4byte	0x49
 1319 056c 09       		.uleb128 0x9
 1320 056d 04       		.byte	0x4
 1321 056e 47050000 		.4byte	0x547
 1322 0572 11       		.uleb128 0x11
 1323 0573 01       		.byte	0x1
 1324 0574 30000000 		.4byte	0x30
 1325 0578 8C050000 		.4byte	0x58c
 1326 057c 12       		.uleb128 0x12
 1327 057d 9C020000 		.4byte	0x29c
 1328 0581 12       		.uleb128 0x12
 1329 0582 2B050000 		.4byte	0x52b
 1330 0586 12       		.uleb128 0x12
 1331 0587 30000000 		.4byte	0x30
 1332 058b 00       		.byte	0
 1333 058c 09       		.uleb128 0x9
 1334 058d 04       		.byte	0x4
 1335 058e 72050000 		.4byte	0x572
 1336 0592 11       		.uleb128 0x11
 1337 0593 01       		.byte	0x1
 1338 0594 DD000000 		.4byte	0xdd
 1339 0598 A7050000 		.4byte	0x5a7
 1340 059c 12       		.uleb128 0x12
 1341 059d 9C020000 		.4byte	0x29c
 1342 05a1 12       		.uleb128 0x12
 1343 05a2 49000000 		.4byte	0x49
 1344 05a6 00       		.byte	0
 1345 05a7 09       		.uleb128 0x9
 1346 05a8 04       		.byte	0x4
 1347 05a9 92050000 		.4byte	0x592
 1348 05ad 14       		.uleb128 0x14
 1349 05ae 98060000 		.4byte	.LASF230
 1350 05b2 01       		.byte	0x1
 1351 05b3 0B       		.byte	0xb
 1352 05b4 8C       		.byte	0x8c
 1353 05b5 E8070000 		.4byte	0x7e8
 1354 05b9 15       		.uleb128 0x15
 1355 05ba 1E040000 		.4byte	.LASF76
 1356 05be 72       		.sleb128 -14
ARM GAS  /var/folders/5n/p_75w94d66l9ssrldxqdhh700000gn/T//ccmZInrG.s 			page 25


 1357 05bf 15       		.uleb128 0x15
 1358 05c0 64040000 		.4byte	.LASF77
 1359 05c4 74       		.sleb128 -12
 1360 05c5 15       		.uleb128 0x15
 1361 05c6 D2040000 		.4byte	.LASF78
 1362 05ca 75       		.sleb128 -11
 1363 05cb 15       		.uleb128 0x15
 1364 05cc FF020000 		.4byte	.LASF79
 1365 05d0 76       		.sleb128 -10
 1366 05d1 15       		.uleb128 0x15
 1367 05d2 81050000 		.4byte	.LASF80
 1368 05d6 7B       		.sleb128 -5
 1369 05d7 15       		.uleb128 0x15
 1370 05d8 45080000 		.4byte	.LASF81
 1371 05dc 7C       		.sleb128 -4
 1372 05dd 15       		.uleb128 0x15
 1373 05de 2F0A0000 		.4byte	.LASF82
 1374 05e2 7E       		.sleb128 -2
 1375 05e3 15       		.uleb128 0x15
 1376 05e4 00020000 		.4byte	.LASF83
 1377 05e8 7F       		.sleb128 -1
 1378 05e9 15       		.uleb128 0x15
 1379 05ea 48040000 		.4byte	.LASF84
 1380 05ee 00       		.sleb128 0
 1381 05ef 15       		.uleb128 0x15
 1382 05f0 DC070000 		.4byte	.LASF85
 1383 05f4 01       		.sleb128 1
 1384 05f5 15       		.uleb128 0x15
 1385 05f6 7A040000 		.4byte	.LASF86
 1386 05fa 02       		.sleb128 2
 1387 05fb 15       		.uleb128 0x15
 1388 05fc 0C090000 		.4byte	.LASF87
 1389 0600 03       		.sleb128 3
 1390 0601 15       		.uleb128 0x15
 1391 0602 8B000000 		.4byte	.LASF88
 1392 0606 04       		.sleb128 4
 1393 0607 15       		.uleb128 0x15
 1394 0608 A7080000 		.4byte	.LASF89
 1395 060c 05       		.sleb128 5
 1396 060d 15       		.uleb128 0x15
 1397 060e FC070000 		.4byte	.LASF90
 1398 0612 06       		.sleb128 6
 1399 0613 15       		.uleb128 0x15
 1400 0614 BE030000 		.4byte	.LASF91
 1401 0618 07       		.sleb128 7
 1402 0619 15       		.uleb128 0x15
 1403 061a B0070000 		.4byte	.LASF92
 1404 061e 08       		.sleb128 8
 1405 061f 15       		.uleb128 0x15
 1406 0620 240A0000 		.4byte	.LASF93
 1407 0624 09       		.sleb128 9
 1408 0625 15       		.uleb128 0x15
 1409 0626 D8090000 		.4byte	.LASF94
 1410 062a 0A       		.sleb128 10
 1411 062b 15       		.uleb128 0x15
 1412 062c D5060000 		.4byte	.LASF95
 1413 0630 0B       		.sleb128 11
ARM GAS  /var/folders/5n/p_75w94d66l9ssrldxqdhh700000gn/T//ccmZInrG.s 			page 26


 1414 0631 15       		.uleb128 0x15
 1415 0632 54060000 		.4byte	.LASF96
 1416 0636 0C       		.sleb128 12
 1417 0637 15       		.uleb128 0x15
 1418 0638 51020000 		.4byte	.LASF97
 1419 063c 0D       		.sleb128 13
 1420 063d 15       		.uleb128 0x15
 1421 063e B7080000 		.4byte	.LASF98
 1422 0642 0E       		.sleb128 14
 1423 0643 15       		.uleb128 0x15
 1424 0644 0F080000 		.4byte	.LASF99
 1425 0648 0F       		.sleb128 15
 1426 0649 15       		.uleb128 0x15
 1427 064a D6030000 		.4byte	.LASF100
 1428 064e 10       		.sleb128 16
 1429 064f 15       		.uleb128 0x15
 1430 0650 9D060000 		.4byte	.LASF101
 1431 0654 11       		.sleb128 17
 1432 0655 15       		.uleb128 0x15
 1433 0656 C9070000 		.4byte	.LASF102
 1434 065a 12       		.sleb128 18
 1435 065b 15       		.uleb128 0x15
 1436 065c C9030000 		.4byte	.LASF103
 1437 0660 13       		.sleb128 19
 1438 0661 15       		.uleb128 0x15
 1439 0662 37030000 		.4byte	.LASF104
 1440 0666 14       		.sleb128 20
 1441 0667 15       		.uleb128 0x15
 1442 0668 53090000 		.4byte	.LASF105
 1443 066c 15       		.sleb128 21
 1444 066d 15       		.uleb128 0x15
 1445 066e 8A040000 		.4byte	.LASF106
 1446 0672 16       		.sleb128 22
 1447 0673 15       		.uleb128 0x15
 1448 0674 C4090000 		.4byte	.LASF107
 1449 0678 17       		.sleb128 23
 1450 0679 15       		.uleb128 0x15
 1451 067a FF040000 		.4byte	.LASF108
 1452 067e 18       		.sleb128 24
 1453 067f 15       		.uleb128 0x15
 1454 0680 D0080000 		.4byte	.LASF109
 1455 0684 19       		.sleb128 25
 1456 0685 15       		.uleb128 0x15
 1457 0686 C6010000 		.4byte	.LASF110
 1458 068a 1A       		.sleb128 26
 1459 068b 15       		.uleb128 0x15
 1460 068c A3030000 		.4byte	.LASF111
 1461 0690 1B       		.sleb128 27
 1462 0691 15       		.uleb128 0x15
 1463 0692 BB000000 		.4byte	.LASF112
 1464 0696 1C       		.sleb128 28
 1465 0697 15       		.uleb128 0x15
 1466 0698 66070000 		.4byte	.LASF113
 1467 069c 1D       		.sleb128 29
 1468 069d 15       		.uleb128 0x15
 1469 069e 64030000 		.4byte	.LASF114
 1470 06a2 1E       		.sleb128 30
ARM GAS  /var/folders/5n/p_75w94d66l9ssrldxqdhh700000gn/T//ccmZInrG.s 			page 27


 1471 06a3 15       		.uleb128 0x15
 1472 06a4 7F030000 		.4byte	.LASF115
 1473 06a8 1F       		.sleb128 31
 1474 06a9 15       		.uleb128 0x15
 1475 06aa B2020000 		.4byte	.LASF116
 1476 06ae 20       		.sleb128 32
 1477 06af 15       		.uleb128 0x15
 1478 06b0 21060000 		.4byte	.LASF117
 1479 06b4 21       		.sleb128 33
 1480 06b5 15       		.uleb128 0x15
 1481 06b6 C5040000 		.4byte	.LASF118
 1482 06ba 22       		.sleb128 34
 1483 06bb 15       		.uleb128 0x15
 1484 06bc 77050000 		.4byte	.LASF119
 1485 06c0 23       		.sleb128 35
 1486 06c1 15       		.uleb128 0x15
 1487 06c2 53050000 		.4byte	.LASF120
 1488 06c6 24       		.sleb128 36
 1489 06c7 15       		.uleb128 0x15
 1490 06c8 9A070000 		.4byte	.LASF121
 1491 06cc 25       		.sleb128 37
 1492 06cd 15       		.uleb128 0x15
 1493 06ce 6E030000 		.4byte	.LASF122
 1494 06d2 26       		.sleb128 38
 1495 06d3 15       		.uleb128 0x15
 1496 06d4 0D020000 		.4byte	.LASF123
 1497 06d8 27       		.sleb128 39
 1498 06d9 15       		.uleb128 0x15
 1499 06da 29070000 		.4byte	.LASF124
 1500 06de 28       		.sleb128 40
 1501 06df 15       		.uleb128 0x15
 1502 06e0 FB060000 		.4byte	.LASF125
 1503 06e4 29       		.sleb128 41
 1504 06e5 15       		.uleb128 0x15
 1505 06e6 E0050000 		.4byte	.LASF126
 1506 06ea 2A       		.sleb128 42
 1507 06eb 15       		.uleb128 0x15
 1508 06ec 28010000 		.4byte	.LASF127
 1509 06f0 2B       		.sleb128 43
 1510 06f1 15       		.uleb128 0x15
 1511 06f2 07000000 		.4byte	.LASF128
 1512 06f6 2C       		.sleb128 44
 1513 06f7 15       		.uleb128 0x15
 1514 06f8 E8030000 		.4byte	.LASF129
 1515 06fc 2D       		.sleb128 45
 1516 06fd 15       		.uleb128 0x15
 1517 06fe 020A0000 		.4byte	.LASF130
 1518 0702 2E       		.sleb128 46
 1519 0703 15       		.uleb128 0x15
 1520 0704 4E0A0000 		.4byte	.LASF131
 1521 0708 2F       		.sleb128 47
 1522 0709 15       		.uleb128 0x15
 1523 070a 32040000 		.4byte	.LASF132
 1524 070e 30       		.sleb128 48
 1525 070f 15       		.uleb128 0x15
 1526 0710 0F0A0000 		.4byte	.LASF133
 1527 0714 31       		.sleb128 49
ARM GAS  /var/folders/5n/p_75w94d66l9ssrldxqdhh700000gn/T//ccmZInrG.s 			page 28


 1528 0715 15       		.uleb128 0x15
 1529 0716 EB020000 		.4byte	.LASF134
 1530 071a 32       		.sleb128 50
 1531 071b 15       		.uleb128 0x15
 1532 071c 81000000 		.4byte	.LASF135
 1533 0720 33       		.sleb128 51
 1534 0721 15       		.uleb128 0x15
 1535 0722 9F050000 		.4byte	.LASF136
 1536 0726 34       		.sleb128 52
 1537 0727 15       		.uleb128 0x15
 1538 0728 F4040000 		.4byte	.LASF137
 1539 072c 35       		.sleb128 53
 1540 072d 15       		.uleb128 0x15
 1541 072e 0B060000 		.4byte	.LASF138
 1542 0732 36       		.sleb128 54
 1543 0733 15       		.uleb128 0x15
 1544 0734 2D050000 		.4byte	.LASF139
 1545 0738 37       		.sleb128 55
 1546 0739 15       		.uleb128 0x15
 1547 073a C8050000 		.4byte	.LASF140
 1548 073e 38       		.sleb128 56
 1549 073f 15       		.uleb128 0x15
 1550 0740 6F000000 		.4byte	.LASF141
 1551 0744 39       		.sleb128 57
 1552 0745 15       		.uleb128 0x15
 1553 0746 8F0A0000 		.4byte	.LASF142
 1554 074a 3A       		.sleb128 58
 1555 074b 15       		.uleb128 0x15
 1556 074c 72060000 		.4byte	.LASF143
 1557 0750 3B       		.sleb128 59
 1558 0751 15       		.uleb128 0x15
 1559 0752 85020000 		.4byte	.LASF144
 1560 0756 3C       		.sleb128 60
 1561 0757 15       		.uleb128 0x15
 1562 0758 76080000 		.4byte	.LASF145
 1563 075c 3D       		.sleb128 61
 1564 075d 15       		.uleb128 0x15
 1565 075e 45050000 		.4byte	.LASF146
 1566 0762 3E       		.sleb128 62
 1567 0763 15       		.uleb128 0x15
 1568 0764 84060000 		.4byte	.LASF147
 1569 0768 3F       		.sleb128 63
 1570 0769 15       		.uleb128 0x15
 1571 076a DF000000 		.4byte	.LASF148
 1572 076e C000     		.sleb128 64
 1573 0770 15       		.uleb128 0x15
 1574 0771 BB070000 		.4byte	.LASF149
 1575 0775 C100     		.sleb128 65
 1576 0777 15       		.uleb128 0x15
 1577 0778 BF020000 		.4byte	.LASF150
 1578 077c C200     		.sleb128 66
 1579 077e 15       		.uleb128 0x15
 1580 077f 12040000 		.4byte	.LASF151
 1581 0783 C300     		.sleb128 67
 1582 0785 15       		.uleb128 0x15
 1583 0786 A1010000 		.4byte	.LASF152
 1584 078a C400     		.sleb128 68
ARM GAS  /var/folders/5n/p_75w94d66l9ssrldxqdhh700000gn/T//ccmZInrG.s 			page 29


 1585 078c 15       		.uleb128 0x15
 1586 078d 2B080000 		.4byte	.LASF153
 1587 0791 C500     		.sleb128 69
 1588 0793 15       		.uleb128 0x15
 1589 0794 C3060000 		.4byte	.LASF154
 1590 0798 C600     		.sleb128 70
 1591 079a 15       		.uleb128 0x15
 1592 079b ED000000 		.4byte	.LASF155
 1593 079f C700     		.sleb128 71
 1594 07a1 15       		.uleb128 0x15
 1595 07a2 60080000 		.4byte	.LASF156
 1596 07a6 C800     		.sleb128 72
 1597 07a8 15       		.uleb128 0x15
 1598 07a9 12070000 		.4byte	.LASF157
 1599 07ad C900     		.sleb128 73
 1600 07af 15       		.uleb128 0x15
 1601 07b0 F8080000 		.4byte	.LASF158
 1602 07b4 CA00     		.sleb128 74
 1603 07b6 15       		.uleb128 0x15
 1604 07b7 3B0A0000 		.4byte	.LASF159
 1605 07bb CB00     		.sleb128 75
 1606 07bd 15       		.uleb128 0x15
 1607 07be 0A010000 		.4byte	.LASF160
 1608 07c2 CC00     		.sleb128 76
 1609 07c4 15       		.uleb128 0x15
 1610 07c5 5D050000 		.4byte	.LASF161
 1611 07c9 CD00     		.sleb128 77
 1612 07cb 15       		.uleb128 0x15
 1613 07cc 96000000 		.4byte	.LASF162
 1614 07d0 CE00     		.sleb128 78
 1615 07d2 15       		.uleb128 0x15
 1616 07d3 1F070000 		.4byte	.LASF163
 1617 07d7 CF00     		.sleb128 79
 1618 07d9 15       		.uleb128 0x15
 1619 07da B0030000 		.4byte	.LASF164
 1620 07de D000     		.sleb128 80
 1621 07e0 15       		.uleb128 0x15
 1622 07e1 96050000 		.4byte	.LASF165
 1623 07e5 D100     		.sleb128 81
 1624 07e7 00       		.byte	0
 1625 07e8 16       		.uleb128 0x16
 1626 07e9 86000000 		.4byte	0x86
 1627 07ed F8070000 		.4byte	0x7f8
 1628 07f1 17       		.uleb128 0x17
 1629 07f2 3B000000 		.4byte	0x3b
 1630 07f6 01       		.byte	0x1
 1631 07f7 00       		.byte	0
 1632 07f8 0D       		.uleb128 0xd
 1633 07f9 62000000 		.4byte	0x62
 1634 07fd 0D       		.uleb128 0xd
 1635 07fe 74000000 		.4byte	0x74
 1636 0802 18       		.uleb128 0x18
 1637 0803 88       		.byte	0x88
 1638 0804 0B       		.byte	0xb
 1639 0805 DB02     		.2byte	0x2db
 1640 0807 CF090000 		.4byte	0x9cf
 1641 080b 0C       		.uleb128 0xc
ARM GAS  /var/folders/5n/p_75w94d66l9ssrldxqdhh700000gn/T//ccmZInrG.s 			page 30


 1642 080c 435200   		.ascii	"CR\000"
 1643 080f 0B       		.byte	0xb
 1644 0810 DD02     		.2byte	0x2dd
 1645 0812 4F030000 		.4byte	0x34f
 1646 0816 02       		.byte	0x2
 1647 0817 23       		.byte	0x23
 1648 0818 00       		.uleb128 0
 1649 0819 19       		.uleb128 0x19
 1650 081a EC040000 		.4byte	.LASF166
 1651 081e 0B       		.byte	0xb
 1652 081f DE02     		.2byte	0x2de
 1653 0821 4F030000 		.4byte	0x34f
 1654 0825 02       		.byte	0x2
 1655 0826 23       		.byte	0x23
 1656 0827 04       		.uleb128 0x4
 1657 0828 19       		.uleb128 0x19
 1658 0829 9E030000 		.4byte	.LASF167
 1659 082d 0B       		.byte	0xb
 1660 082e DF02     		.2byte	0x2df
 1661 0830 4F030000 		.4byte	0x34f
 1662 0834 02       		.byte	0x2
 1663 0835 23       		.byte	0x23
 1664 0836 08       		.uleb128 0x8
 1665 0837 0C       		.uleb128 0xc
 1666 0838 43495200 		.ascii	"CIR\000"
 1667 083c 0B       		.byte	0xb
 1668 083d E002     		.2byte	0x2e0
 1669 083f 4F030000 		.4byte	0x34f
 1670 0843 02       		.byte	0x2
 1671 0844 23       		.byte	0x23
 1672 0845 0C       		.uleb128 0xc
 1673 0846 19       		.uleb128 0x19
 1674 0847 600A0000 		.4byte	.LASF168
 1675 084b 0B       		.byte	0xb
 1676 084c E102     		.2byte	0x2e1
 1677 084e 4F030000 		.4byte	0x34f
 1678 0852 02       		.byte	0x2
 1679 0853 23       		.byte	0x23
 1680 0854 10       		.uleb128 0x10
 1681 0855 19       		.uleb128 0x19
 1682 0856 6D080000 		.4byte	.LASF169
 1683 085a 0B       		.byte	0xb
 1684 085b E202     		.2byte	0x2e2
 1685 085d 4F030000 		.4byte	0x34f
 1686 0861 02       		.byte	0x2
 1687 0862 23       		.byte	0x23
 1688 0863 14       		.uleb128 0x14
 1689 0864 19       		.uleb128 0x19
 1690 0865 AF060000 		.4byte	.LASF170
 1691 0869 0B       		.byte	0xb
 1692 086a E302     		.2byte	0x2e3
 1693 086c 4F030000 		.4byte	0x34f
 1694 0870 02       		.byte	0x2
 1695 0871 23       		.byte	0x23
 1696 0872 18       		.uleb128 0x18
 1697 0873 19       		.uleb128 0x19
 1698 0874 63020000 		.4byte	.LASF171
ARM GAS  /var/folders/5n/p_75w94d66l9ssrldxqdhh700000gn/T//ccmZInrG.s 			page 31


 1699 0878 0B       		.byte	0xb
 1700 0879 E402     		.2byte	0x2e4
 1701 087b 86000000 		.4byte	0x86
 1702 087f 02       		.byte	0x2
 1703 0880 23       		.byte	0x23
 1704 0881 1C       		.uleb128 0x1c
 1705 0882 19       		.uleb128 0x19
 1706 0883 E7060000 		.4byte	.LASF172
 1707 0887 0B       		.byte	0xb
 1708 0888 E502     		.2byte	0x2e5
 1709 088a 4F030000 		.4byte	0x34f
 1710 088e 02       		.byte	0x2
 1711 088f 23       		.byte	0x23
 1712 0890 20       		.uleb128 0x20
 1713 0891 19       		.uleb128 0x19
 1714 0892 8D050000 		.4byte	.LASF173
 1715 0896 0B       		.byte	0xb
 1716 0897 E602     		.2byte	0x2e6
 1717 0899 4F030000 		.4byte	0x34f
 1718 089d 02       		.byte	0x2
 1719 089e 23       		.byte	0x23
 1720 089f 24       		.uleb128 0x24
 1721 08a0 19       		.uleb128 0x19
 1722 08a1 6D020000 		.4byte	.LASF174
 1723 08a5 0B       		.byte	0xb
 1724 08a6 E702     		.2byte	0x2e7
 1725 08a8 E8070000 		.4byte	0x7e8
 1726 08ac 02       		.byte	0x2
 1727 08ad 23       		.byte	0x23
 1728 08ae 28       		.uleb128 0x28
 1729 08af 19       		.uleb128 0x19
 1730 08b0 3D080000 		.4byte	.LASF175
 1731 08b4 0B       		.byte	0xb
 1732 08b5 E802     		.2byte	0x2e8
 1733 08b7 4F030000 		.4byte	0x34f
 1734 08bb 02       		.byte	0x2
 1735 08bc 23       		.byte	0x23
 1736 08bd 30       		.uleb128 0x30
 1737 08be 19       		.uleb128 0x19
 1738 08bf 1B030000 		.4byte	.LASF176
 1739 08c3 0B       		.byte	0xb
 1740 08c4 E902     		.2byte	0x2e9
 1741 08c6 4F030000 		.4byte	0x34f
 1742 08ca 02       		.byte	0x2
 1743 08cb 23       		.byte	0x23
 1744 08cc 34       		.uleb128 0x34
 1745 08cd 19       		.uleb128 0x19
 1746 08ce 870A0000 		.4byte	.LASF177
 1747 08d2 0B       		.byte	0xb
 1748 08d3 EA02     		.2byte	0x2ea
 1749 08d5 4F030000 		.4byte	0x34f
 1750 08d9 02       		.byte	0x2
 1751 08da 23       		.byte	0x23
 1752 08db 38       		.uleb128 0x38
 1753 08dc 19       		.uleb128 0x19
 1754 08dd D7020000 		.4byte	.LASF178
 1755 08e1 0B       		.byte	0xb
ARM GAS  /var/folders/5n/p_75w94d66l9ssrldxqdhh700000gn/T//ccmZInrG.s 			page 32


 1756 08e2 EB02     		.2byte	0x2eb
 1757 08e4 86000000 		.4byte	0x86
 1758 08e8 02       		.byte	0x2
 1759 08e9 23       		.byte	0x23
 1760 08ea 3C       		.uleb128 0x3c
 1761 08eb 19       		.uleb128 0x19
 1762 08ec 0A070000 		.4byte	.LASF179
 1763 08f0 0B       		.byte	0xb
 1764 08f1 EC02     		.2byte	0x2ec
 1765 08f3 4F030000 		.4byte	0x34f
 1766 08f7 02       		.byte	0x2
 1767 08f8 23       		.byte	0x23
 1768 08f9 40       		.uleb128 0x40
 1769 08fa 19       		.uleb128 0x19
 1770 08fb EE010000 		.4byte	.LASF180
 1771 08ff 0B       		.byte	0xb
 1772 0900 ED02     		.2byte	0x2ed
 1773 0902 4F030000 		.4byte	0x34f
 1774 0906 02       		.byte	0x2
 1775 0907 23       		.byte	0x23
 1776 0908 44       		.uleb128 0x44
 1777 0909 19       		.uleb128 0x19
 1778 090a E1020000 		.4byte	.LASF181
 1779 090e 0B       		.byte	0xb
 1780 090f EE02     		.2byte	0x2ee
 1781 0911 E8070000 		.4byte	0x7e8
 1782 0915 02       		.byte	0x2
 1783 0916 23       		.byte	0x23
 1784 0917 48       		.uleb128 0x48
 1785 0918 19       		.uleb128 0x19
 1786 0919 F6010000 		.4byte	.LASF182
 1787 091d 0B       		.byte	0xb
 1788 091e EF02     		.2byte	0x2ef
 1789 0920 4F030000 		.4byte	0x34f
 1790 0924 02       		.byte	0x2
 1791 0925 23       		.byte	0x23
 1792 0926 50       		.uleb128 0x50
 1793 0927 19       		.uleb128 0x19
 1794 0928 3C010000 		.4byte	.LASF183
 1795 092c 0B       		.byte	0xb
 1796 092d F002     		.2byte	0x2f0
 1797 092f 4F030000 		.4byte	0x34f
 1798 0933 02       		.byte	0x2
 1799 0934 23       		.byte	0x23
 1800 0935 54       		.uleb128 0x54
 1801 0936 19       		.uleb128 0x19
 1802 0937 D2070000 		.4byte	.LASF184
 1803 093b 0B       		.byte	0xb
 1804 093c F102     		.2byte	0x2f1
 1805 093e 4F030000 		.4byte	0x34f
 1806 0942 02       		.byte	0x2
 1807 0943 23       		.byte	0x23
 1808 0944 58       		.uleb128 0x58
 1809 0945 19       		.uleb128 0x19
 1810 0946 97020000 		.4byte	.LASF185
 1811 094a 0B       		.byte	0xb
 1812 094b F202     		.2byte	0x2f2
ARM GAS  /var/folders/5n/p_75w94d66l9ssrldxqdhh700000gn/T//ccmZInrG.s 			page 33


 1813 094d 86000000 		.4byte	0x86
 1814 0951 02       		.byte	0x2
 1815 0952 23       		.byte	0x23
 1816 0953 5C       		.uleb128 0x5c
 1817 0954 19       		.uleb128 0x19
 1818 0955 4A060000 		.4byte	.LASF186
 1819 0959 0B       		.byte	0xb
 1820 095a F302     		.2byte	0x2f3
 1821 095c 4F030000 		.4byte	0x34f
 1822 0960 02       		.byte	0x2
 1823 0961 23       		.byte	0x23
 1824 0962 60       		.uleb128 0x60
 1825 0963 19       		.uleb128 0x19
 1826 0964 AA050000 		.4byte	.LASF187
 1827 0968 0B       		.byte	0xb
 1828 0969 F402     		.2byte	0x2f4
 1829 096b 4F030000 		.4byte	0x34f
 1830 096f 02       		.byte	0x2
 1831 0970 23       		.byte	0x23
 1832 0971 64       		.uleb128 0x64
 1833 0972 19       		.uleb128 0x19
 1834 0973 F5020000 		.4byte	.LASF188
 1835 0977 0B       		.byte	0xb
 1836 0978 F502     		.2byte	0x2f5
 1837 097a E8070000 		.4byte	0x7e8
 1838 097e 02       		.byte	0x2
 1839 097f 23       		.byte	0x23
 1840 0980 68       		.uleb128 0x68
 1841 0981 19       		.uleb128 0x19
 1842 0982 7A030000 		.4byte	.LASF189
 1843 0986 0B       		.byte	0xb
 1844 0987 F602     		.2byte	0x2f6
 1845 0989 4F030000 		.4byte	0x34f
 1846 098d 02       		.byte	0x2
 1847 098e 23       		.byte	0x23
 1848 098f 70       		.uleb128 0x70
 1849 0990 0C       		.uleb128 0xc
 1850 0991 43535200 		.ascii	"CSR\000"
 1851 0995 0B       		.byte	0xb
 1852 0996 F702     		.2byte	0x2f7
 1853 0998 4F030000 		.4byte	0x34f
 1854 099c 02       		.byte	0x2
 1855 099d 23       		.byte	0x23
 1856 099e 74       		.uleb128 0x74
 1857 099f 19       		.uleb128 0x19
 1858 09a0 A8020000 		.4byte	.LASF190
 1859 09a4 0B       		.byte	0xb
 1860 09a5 F802     		.2byte	0x2f8
 1861 09a7 E8070000 		.4byte	0x7e8
 1862 09ab 02       		.byte	0x2
 1863 09ac 23       		.byte	0x23
 1864 09ad 78       		.uleb128 0x78
 1865 09ae 19       		.uleb128 0x19
 1866 09af 71050000 		.4byte	.LASF191
 1867 09b3 0B       		.byte	0xb
 1868 09b4 F902     		.2byte	0x2f9
 1869 09b6 4F030000 		.4byte	0x34f
ARM GAS  /var/folders/5n/p_75w94d66l9ssrldxqdhh700000gn/T//ccmZInrG.s 			page 34


 1870 09ba 03       		.byte	0x3
 1871 09bb 23       		.byte	0x23
 1872 09bc 8001     		.uleb128 0x80
 1873 09be 19       		.uleb128 0x19
 1874 09bf 24000000 		.4byte	.LASF192
 1875 09c3 0B       		.byte	0xb
 1876 09c4 FA02     		.2byte	0x2fa
 1877 09c6 4F030000 		.4byte	0x34f
 1878 09ca 03       		.byte	0x3
 1879 09cb 23       		.byte	0x23
 1880 09cc 8401     		.uleb128 0x84
 1881 09ce 00       		.byte	0
 1882 09cf 1A       		.uleb128 0x1a
 1883 09d0 87080000 		.4byte	.LASF193
 1884 09d4 0B       		.byte	0xb
 1885 09d5 FB02     		.2byte	0x2fb
 1886 09d7 02080000 		.4byte	0x802
 1887 09db 18       		.uleb128 0x18
 1888 09dc 1C       		.byte	0x1c
 1889 09dd 0B       		.byte	0xb
 1890 09de 9303     		.2byte	0x393
 1891 09e0 B50A0000 		.4byte	0xab5
 1892 09e4 0C       		.uleb128 0xc
 1893 09e5 535200   		.ascii	"SR\000"
 1894 09e8 0B       		.byte	0xb
 1895 09e9 9503     		.2byte	0x395
 1896 09eb F8070000 		.4byte	0x7f8
 1897 09ef 02       		.byte	0x2
 1898 09f0 23       		.byte	0x23
 1899 09f1 00       		.uleb128 0
 1900 09f2 19       		.uleb128 0x19
 1901 09f3 63020000 		.4byte	.LASF171
 1902 09f7 0B       		.byte	0xb
 1903 09f8 9603     		.2byte	0x396
 1904 09fa 62000000 		.4byte	0x62
 1905 09fe 02       		.byte	0x2
 1906 09ff 23       		.byte	0x23
 1907 0a00 02       		.uleb128 0x2
 1908 0a01 0C       		.uleb128 0xc
 1909 0a02 445200   		.ascii	"DR\000"
 1910 0a05 0B       		.byte	0xb
 1911 0a06 9703     		.2byte	0x397
 1912 0a08 F8070000 		.4byte	0x7f8
 1913 0a0c 02       		.byte	0x2
 1914 0a0d 23       		.byte	0x23
 1915 0a0e 04       		.uleb128 0x4
 1916 0a0f 19       		.uleb128 0x19
 1917 0a10 6D020000 		.4byte	.LASF174
 1918 0a14 0B       		.byte	0xb
 1919 0a15 9803     		.2byte	0x398
 1920 0a17 62000000 		.4byte	0x62
 1921 0a1b 02       		.byte	0x2
 1922 0a1c 23       		.byte	0x23
 1923 0a1d 06       		.uleb128 0x6
 1924 0a1e 0C       		.uleb128 0xc
 1925 0a1f 42525200 		.ascii	"BRR\000"
 1926 0a23 0B       		.byte	0xb
ARM GAS  /var/folders/5n/p_75w94d66l9ssrldxqdhh700000gn/T//ccmZInrG.s 			page 35


 1927 0a24 9903     		.2byte	0x399
 1928 0a26 F8070000 		.4byte	0x7f8
 1929 0a2a 02       		.byte	0x2
 1930 0a2b 23       		.byte	0x23
 1931 0a2c 08       		.uleb128 0x8
 1932 0a2d 19       		.uleb128 0x19
 1933 0a2e D7020000 		.4byte	.LASF178
 1934 0a32 0B       		.byte	0xb
 1935 0a33 9A03     		.2byte	0x39a
 1936 0a35 62000000 		.4byte	0x62
 1937 0a39 02       		.byte	0x2
 1938 0a3a 23       		.byte	0x23
 1939 0a3b 0A       		.uleb128 0xa
 1940 0a3c 0C       		.uleb128 0xc
 1941 0a3d 43523100 		.ascii	"CR1\000"
 1942 0a41 0B       		.byte	0xb
 1943 0a42 9B03     		.2byte	0x39b
 1944 0a44 F8070000 		.4byte	0x7f8
 1945 0a48 02       		.byte	0x2
 1946 0a49 23       		.byte	0x23
 1947 0a4a 0C       		.uleb128 0xc
 1948 0a4b 19       		.uleb128 0x19
 1949 0a4c E1020000 		.4byte	.LASF181
 1950 0a50 0B       		.byte	0xb
 1951 0a51 9C03     		.2byte	0x39c
 1952 0a53 62000000 		.4byte	0x62
 1953 0a57 02       		.byte	0x2
 1954 0a58 23       		.byte	0x23
 1955 0a59 0E       		.uleb128 0xe
 1956 0a5a 0C       		.uleb128 0xc
 1957 0a5b 43523200 		.ascii	"CR2\000"
 1958 0a5f 0B       		.byte	0xb
 1959 0a60 9D03     		.2byte	0x39d
 1960 0a62 F8070000 		.4byte	0x7f8
 1961 0a66 02       		.byte	0x2
 1962 0a67 23       		.byte	0x23
 1963 0a68 10       		.uleb128 0x10
 1964 0a69 19       		.uleb128 0x19
 1965 0a6a 97020000 		.4byte	.LASF185
 1966 0a6e 0B       		.byte	0xb
 1967 0a6f 9E03     		.2byte	0x39e
 1968 0a71 62000000 		.4byte	0x62
 1969 0a75 02       		.byte	0x2
 1970 0a76 23       		.byte	0x23
 1971 0a77 12       		.uleb128 0x12
 1972 0a78 0C       		.uleb128 0xc
 1973 0a79 43523300 		.ascii	"CR3\000"
 1974 0a7d 0B       		.byte	0xb
 1975 0a7e 9F03     		.2byte	0x39f
 1976 0a80 F8070000 		.4byte	0x7f8
 1977 0a84 02       		.byte	0x2
 1978 0a85 23       		.byte	0x23
 1979 0a86 14       		.uleb128 0x14
 1980 0a87 19       		.uleb128 0x19
 1981 0a88 F5020000 		.4byte	.LASF188
 1982 0a8c 0B       		.byte	0xb
 1983 0a8d A003     		.2byte	0x3a0
ARM GAS  /var/folders/5n/p_75w94d66l9ssrldxqdhh700000gn/T//ccmZInrG.s 			page 36


 1984 0a8f 62000000 		.4byte	0x62
 1985 0a93 02       		.byte	0x2
 1986 0a94 23       		.byte	0x23
 1987 0a95 16       		.uleb128 0x16
 1988 0a96 19       		.uleb128 0x19
 1989 0a97 64000000 		.4byte	.LASF194
 1990 0a9b 0B       		.byte	0xb
 1991 0a9c A103     		.2byte	0x3a1
 1992 0a9e F8070000 		.4byte	0x7f8
 1993 0aa2 02       		.byte	0x2
 1994 0aa3 23       		.byte	0x23
 1995 0aa4 18       		.uleb128 0x18
 1996 0aa5 19       		.uleb128 0x19
 1997 0aa6 A8020000 		.4byte	.LASF190
 1998 0aaa 0B       		.byte	0xb
 1999 0aab A203     		.2byte	0x3a2
 2000 0aad 62000000 		.4byte	0x62
 2001 0ab1 02       		.byte	0x2
 2002 0ab2 23       		.byte	0x23
 2003 0ab3 1A       		.uleb128 0x1a
 2004 0ab4 00       		.byte	0
 2005 0ab5 1A       		.uleb128 0x1a
 2006 0ab6 4A030000 		.4byte	.LASF195
 2007 0aba 0B       		.byte	0xb
 2008 0abb A303     		.2byte	0x3a3
 2009 0abd DB090000 		.4byte	0x9db
 2010 0ac1 11       		.uleb128 0x11
 2011 0ac2 01       		.byte	0x1
 2012 0ac3 DD000000 		.4byte	0xdd
 2013 0ac7 DB0A0000 		.4byte	0xadb
 2014 0acb 12       		.uleb128 0x12
 2015 0acc 9C020000 		.4byte	0x29c
 2016 0ad0 12       		.uleb128 0x12
 2017 0ad1 49000000 		.4byte	0x49
 2018 0ad5 12       		.uleb128 0x12
 2019 0ad6 FE000000 		.4byte	0xfe
 2020 0ada 00       		.byte	0
 2021 0adb 09       		.uleb128 0x9
 2022 0adc 04       		.byte	0x4
 2023 0add C10A0000 		.4byte	0xac1
 2024 0ae1 11       		.uleb128 0x11
 2025 0ae2 01       		.byte	0x1
 2026 0ae3 DD000000 		.4byte	0xdd
 2027 0ae7 F60A0000 		.4byte	0xaf6
 2028 0aeb 12       		.uleb128 0x12
 2029 0aec 9C020000 		.4byte	0x29c
 2030 0af0 12       		.uleb128 0x12
 2031 0af1 FE000000 		.4byte	0xfe
 2032 0af5 00       		.byte	0
 2033 0af6 09       		.uleb128 0x9
 2034 0af7 04       		.byte	0x4
 2035 0af8 E10A0000 		.4byte	0xae1
 2036 0afc 11       		.uleb128 0x11
 2037 0afd 01       		.byte	0x1
 2038 0afe 30000000 		.4byte	0x30
 2039 0b02 1B0B0000 		.4byte	0xb1b
 2040 0b06 12       		.uleb128 0x12
ARM GAS  /var/folders/5n/p_75w94d66l9ssrldxqdhh700000gn/T//ccmZInrG.s 			page 37


 2041 0b07 9C020000 		.4byte	0x29c
 2042 0b0b 12       		.uleb128 0x12
 2043 0b0c 61050000 		.4byte	0x561
 2044 0b10 12       		.uleb128 0x12
 2045 0b11 30000000 		.4byte	0x30
 2046 0b15 12       		.uleb128 0x12
 2047 0b16 FE000000 		.4byte	0xfe
 2048 0b1a 00       		.byte	0
 2049 0b1b 09       		.uleb128 0x9
 2050 0b1c 04       		.byte	0x4
 2051 0b1d FC0A0000 		.4byte	0xafc
 2052 0b21 11       		.uleb128 0x11
 2053 0b22 01       		.byte	0x1
 2054 0b23 30000000 		.4byte	0x30
 2055 0b27 400B0000 		.4byte	0xb40
 2056 0b2b 12       		.uleb128 0x12
 2057 0b2c 9C020000 		.4byte	0x29c
 2058 0b30 12       		.uleb128 0x12
 2059 0b31 2B050000 		.4byte	0x52b
 2060 0b35 12       		.uleb128 0x12
 2061 0b36 30000000 		.4byte	0x30
 2062 0b3a 12       		.uleb128 0x12
 2063 0b3b FE000000 		.4byte	0xfe
 2064 0b3f 00       		.byte	0
 2065 0b40 09       		.uleb128 0x9
 2066 0b41 04       		.byte	0x4
 2067 0b42 210B0000 		.4byte	0xb21
 2068 0b46 1B       		.uleb128 0x1b
 2069 0b47 01       		.byte	0x1
 2070 0b48 0C       		.byte	0xc
 2071 0b49 5D       		.byte	0x5d
 2072 0b4a 610B0000 		.4byte	0xb61
 2073 0b4e 15       		.uleb128 0x15
 2074 0b4f CD020000 		.4byte	.LASF196
 2075 0b53 00       		.sleb128 0
 2076 0b54 15       		.uleb128 0x15
 2077 0b55 690A0000 		.4byte	.LASF197
 2078 0b59 01       		.sleb128 1
 2079 0b5a 15       		.uleb128 0x15
 2080 0b5b 57080000 		.4byte	.LASF198
 2081 0b5f 02       		.sleb128 2
 2082 0b60 00       		.byte	0
 2083 0b61 03       		.uleb128 0x3
 2084 0b62 21080000 		.4byte	.LASF199
 2085 0b66 0C       		.byte	0xc
 2086 0b67 61       		.byte	0x61
 2087 0b68 460B0000 		.4byte	0xb46
 2088 0b6c 03       		.uleb128 0x3
 2089 0b6d E5070000 		.4byte	.LASF200
 2090 0b71 0C       		.byte	0xc
 2091 0b72 66       		.byte	0x66
 2092 0b73 770B0000 		.4byte	0xb77
 2093 0b77 05       		.uleb128 0x5
 2094 0b78 E5070000 		.4byte	.LASF200
 2095 0b7c 78       		.byte	0x78
 2096 0b7d 0C       		.byte	0xc
 2097 0b7e 80       		.byte	0x80
ARM GAS  /var/folders/5n/p_75w94d66l9ssrldxqdhh700000gn/T//ccmZInrG.s 			page 38


 2098 0b7f F20B0000 		.4byte	0xbf2
 2099 0b83 07       		.uleb128 0x7
 2100 0b84 766D7400 		.ascii	"vmt\000"
 2101 0b88 0C       		.byte	0xc
 2102 0b89 82       		.byte	0x82
 2103 0b8a BB0C0000 		.4byte	0xcbb
 2104 0b8e 02       		.byte	0x2
 2105 0b8f 23       		.byte	0x23
 2106 0b90 00       		.uleb128 0
 2107 0b91 06       		.uleb128 0x6
 2108 0b92 DA050000 		.4byte	.LASF201
 2109 0b96 0C       		.byte	0xc
 2110 0b97 83       		.byte	0x83
 2111 0b98 12040000 		.4byte	0x412
 2112 0b9c 02       		.byte	0x2
 2113 0b9d 23       		.byte	0x23
 2114 0b9e 04       		.uleb128 0x4
 2115 0b9f 06       		.uleb128 0x6
 2116 0ba0 B0000000 		.4byte	.LASF202
 2117 0ba4 0C       		.byte	0xc
 2118 0ba5 83       		.byte	0x83
 2119 0ba6 610B0000 		.4byte	0xb61
 2120 0baa 02       		.byte	0x2
 2121 0bab 23       		.byte	0x23
 2122 0bac 08       		.uleb128 0x8
 2123 0bad 06       		.uleb128 0x6
 2124 0bae B0080000 		.4byte	.LASF203
 2125 0bb2 0C       		.byte	0xc
 2126 0bb3 83       		.byte	0x83
 2127 0bb4 31050000 		.4byte	0x531
 2128 0bb8 02       		.byte	0x2
 2129 0bb9 23       		.byte	0x23
 2130 0bba 0C       		.uleb128 0xc
 2131 0bbb 06       		.uleb128 0x6
 2132 0bbc DE010000 		.4byte	.LASF204
 2133 0bc0 0C       		.byte	0xc
 2134 0bc1 83       		.byte	0x83
 2135 0bc2 3C050000 		.4byte	0x53c
 2136 0bc6 02       		.byte	0x2
 2137 0bc7 23       		.byte	0x23
 2138 0bc8 30       		.uleb128 0x30
 2139 0bc9 07       		.uleb128 0x7
 2140 0bca 696200   		.ascii	"ib\000"
 2141 0bcd 0C       		.byte	0xc
 2142 0bce 83       		.byte	0x83
 2143 0bcf C60C0000 		.4byte	0xcc6
 2144 0bd3 02       		.byte	0x2
 2145 0bd4 23       		.byte	0x23
 2146 0bd5 54       		.uleb128 0x54
 2147 0bd6 07       		.uleb128 0x7
 2148 0bd7 6F6200   		.ascii	"ob\000"
 2149 0bda 0C       		.byte	0xc
 2150 0bdb 83       		.byte	0x83
 2151 0bdc C60C0000 		.4byte	0xcc6
 2152 0be0 02       		.byte	0x2
 2153 0be1 23       		.byte	0x23
 2154 0be2 64       		.uleb128 0x64
ARM GAS  /var/folders/5n/p_75w94d66l9ssrldxqdhh700000gn/T//ccmZInrG.s 			page 39


 2155 0be3 06       		.uleb128 0x6
 2156 0be4 19020000 		.4byte	.LASF205
 2157 0be8 0C       		.byte	0xc
 2158 0be9 83       		.byte	0x83
 2159 0bea D60C0000 		.4byte	0xcd6
 2160 0bee 02       		.byte	0x2
 2161 0bef 23       		.byte	0x23
 2162 0bf0 74       		.uleb128 0x74
 2163 0bf1 00       		.byte	0
 2164 0bf2 08       		.uleb128 0x8
 2165 0bf3 0C       		.byte	0xc
 2166 0bf4 0D       		.byte	0xd
 2167 0bf5 DB       		.byte	0xdb
 2168 0bf6 330C0000 		.4byte	0xc33
 2169 0bfa 06       		.uleb128 0x6
 2170 0bfb 35060000 		.4byte	.LASF206
 2171 0bff 0D       		.byte	0xd
 2172 0c00 DF       		.byte	0xdf
 2173 0c01 86000000 		.4byte	0x86
 2174 0c05 02       		.byte	0x2
 2175 0c06 23       		.byte	0x23
 2176 0c07 00       		.uleb128 0
 2177 0c08 06       		.uleb128 0x6
 2178 0c09 12050000 		.4byte	.LASF207
 2179 0c0d 0D       		.byte	0xd
 2180 0c0e E3       		.byte	0xe3
 2181 0c0f 62000000 		.4byte	0x62
 2182 0c13 02       		.byte	0x2
 2183 0c14 23       		.byte	0x23
 2184 0c15 04       		.uleb128 0x4
 2185 0c16 06       		.uleb128 0x6
 2186 0c17 19050000 		.4byte	.LASF208
 2187 0c1b 0D       		.byte	0xd
 2188 0c1c E7       		.byte	0xe7
 2189 0c1d 62000000 		.4byte	0x62
 2190 0c21 02       		.byte	0x2
 2191 0c22 23       		.byte	0x23
 2192 0c23 06       		.uleb128 0x6
 2193 0c24 06       		.uleb128 0x6
 2194 0c25 20050000 		.4byte	.LASF209
 2195 0c29 0D       		.byte	0xd
 2196 0c2a EB       		.byte	0xeb
 2197 0c2b 62000000 		.4byte	0x62
 2198 0c2f 02       		.byte	0x2
 2199 0c30 23       		.byte	0x23
 2200 0c31 08       		.uleb128 0x8
 2201 0c32 00       		.byte	0
 2202 0c33 03       		.uleb128 0x3
 2203 0c34 50000000 		.4byte	.LASF210
 2204 0c38 0D       		.byte	0xd
 2205 0c39 EC       		.byte	0xec
 2206 0c3a F20B0000 		.4byte	0xbf2
 2207 0c3e 05       		.uleb128 0x5
 2208 0c3f A8040000 		.4byte	.LASF211
 2209 0c43 20       		.byte	0x20
 2210 0c44 0C       		.byte	0xc
 2211 0c45 75       		.byte	0x75
ARM GAS  /var/folders/5n/p_75w94d66l9ssrldxqdhh700000gn/T//ccmZInrG.s 			page 40


 2212 0c46 BB0C0000 		.4byte	0xcbb
 2213 0c4a 06       		.uleb128 0x6
 2214 0c4b 69000000 		.4byte	.LASF212
 2215 0c4f 0C       		.byte	0xc
 2216 0c50 76       		.byte	0x76
 2217 0c51 6C050000 		.4byte	0x56c
 2218 0c55 02       		.byte	0x2
 2219 0c56 23       		.byte	0x23
 2220 0c57 00       		.uleb128 0
 2221 0c58 06       		.uleb128 0x6
 2222 0c59 F9050000 		.4byte	.LASF213
 2223 0c5d 0C       		.byte	0xc
 2224 0c5e 76       		.byte	0x76
 2225 0c5f 8C050000 		.4byte	0x58c
 2226 0c63 02       		.byte	0x2
 2227 0c64 23       		.byte	0x23
 2228 0c65 04       		.uleb128 0x4
 2229 0c66 07       		.uleb128 0x7
 2230 0c67 70757400 		.ascii	"put\000"
 2231 0c6b 0C       		.byte	0xc
 2232 0c6c 76       		.byte	0x76
 2233 0c6d A7050000 		.4byte	0x5a7
 2234 0c71 02       		.byte	0x2
 2235 0c72 23       		.byte	0x23
 2236 0c73 08       		.uleb128 0x8
 2237 0c74 07       		.uleb128 0x7
 2238 0c75 67657400 		.ascii	"get\000"
 2239 0c79 0C       		.byte	0xc
 2240 0c7a 76       		.byte	0x76
 2241 0c7b 6A040000 		.4byte	0x46a
 2242 0c7f 02       		.byte	0x2
 2243 0c80 23       		.byte	0x23
 2244 0c81 0C       		.uleb128 0xc
 2245 0c82 06       		.uleb128 0x6
 2246 0c83 B6000000 		.4byte	.LASF214
 2247 0c87 0C       		.byte	0xc
 2248 0c88 76       		.byte	0x76
 2249 0c89 DB0A0000 		.4byte	0xadb
 2250 0c8d 02       		.byte	0x2
 2251 0c8e 23       		.byte	0x23
 2252 0c8f 10       		.uleb128 0x10
 2253 0c90 06       		.uleb128 0x6
 2254 0c91 45030000 		.4byte	.LASF215
 2255 0c95 0C       		.byte	0xc
 2256 0c96 76       		.byte	0x76
 2257 0c97 F60A0000 		.4byte	0xaf6
 2258 0c9b 02       		.byte	0x2
 2259 0c9c 23       		.byte	0x23
 2260 0c9d 14       		.uleb128 0x14
 2261 0c9e 06       		.uleb128 0x6
 2262 0c9f 5D000000 		.4byte	.LASF216
 2263 0ca3 0C       		.byte	0xc
 2264 0ca4 76       		.byte	0x76
 2265 0ca5 1B0B0000 		.4byte	0xb1b
 2266 0ca9 02       		.byte	0x2
 2267 0caa 23       		.byte	0x23
 2268 0cab 18       		.uleb128 0x18
ARM GAS  /var/folders/5n/p_75w94d66l9ssrldxqdhh700000gn/T//ccmZInrG.s 			page 41


 2269 0cac 06       		.uleb128 0x6
 2270 0cad 46010000 		.4byte	.LASF217
 2271 0cb1 0C       		.byte	0xc
 2272 0cb2 76       		.byte	0x76
 2273 0cb3 400B0000 		.4byte	0xb40
 2274 0cb7 02       		.byte	0x2
 2275 0cb8 23       		.byte	0x23
 2276 0cb9 1C       		.uleb128 0x1c
 2277 0cba 00       		.byte	0
 2278 0cbb 09       		.uleb128 0x9
 2279 0cbc 04       		.byte	0x4
 2280 0cbd C10C0000 		.4byte	0xcc1
 2281 0cc1 10       		.uleb128 0x10
 2282 0cc2 3E0C0000 		.4byte	0xc3e
 2283 0cc6 16       		.uleb128 0x16
 2284 0cc7 49000000 		.4byte	0x49
 2285 0ccb D60C0000 		.4byte	0xcd6
 2286 0ccf 17       		.uleb128 0x17
 2287 0cd0 3B000000 		.4byte	0x3b
 2288 0cd4 0F       		.byte	0xf
 2289 0cd5 00       		.byte	0
 2290 0cd6 09       		.uleb128 0x9
 2291 0cd7 04       		.byte	0x4
 2292 0cd8 B50A0000 		.4byte	0xab5
 2293 0cdc 1C       		.uleb128 0x1c
 2294 0cdd D5000000 		.4byte	.LASF218
 2295 0ce1 01       		.byte	0x1
 2296 0ce2 FE       		.byte	0xfe
 2297 0ce3 01       		.byte	0x1
 2298 0ce4 01       		.byte	0x1
 2299 0ce5 2A0D0000 		.4byte	0xd2a
 2300 0ce9 1D       		.uleb128 0x1d
 2301 0cea 73647000 		.ascii	"sdp\000"
 2302 0cee 01       		.byte	0x1
 2303 0cef FE       		.byte	0xfe
 2304 0cf0 2A0D0000 		.4byte	0xd2a
 2305 0cf4 1D       		.uleb128 0x1d
 2306 0cf5 737200   		.ascii	"sr\000"
 2307 0cf8 01       		.byte	0x1
 2308 0cf9 FE       		.byte	0xfe
 2309 0cfa 62000000 		.4byte	0x62
 2310 0cfe 1E       		.uleb128 0x1e
 2311 0cff 73747300 		.ascii	"sts\000"
 2312 0d03 01       		.byte	0x1
 2313 0d04 FF       		.byte	0xff
 2314 0d05 F3000000 		.4byte	0xf3
 2315 0d09 1F       		.uleb128 0x1f
 2316 0d0a 1B0D0000 		.4byte	0xd1b
 2317 0d0e 20       		.uleb128 0x20
 2318 0d0f 746D7000 		.ascii	"tmp\000"
 2319 0d13 01       		.byte	0x1
 2320 0d14 0901     		.2byte	0x109
 2321 0d16 86000000 		.4byte	0x86
 2322 0d1a 00       		.byte	0
 2323 0d1b 21       		.uleb128 0x21
 2324 0d1c 20       		.uleb128 0x20
 2325 0d1d 746D7000 		.ascii	"tmp\000"
ARM GAS  /var/folders/5n/p_75w94d66l9ssrldxqdhh700000gn/T//ccmZInrG.s 			page 42


 2326 0d21 01       		.byte	0x1
 2327 0d22 0B01     		.2byte	0x10b
 2328 0d24 86000000 		.4byte	0x86
 2329 0d28 00       		.byte	0
 2330 0d29 00       		.byte	0
 2331 0d2a 09       		.uleb128 0x9
 2332 0d2b 04       		.byte	0x4
 2333 0d2c 6C0B0000 		.4byte	0xb6c
 2334 0d30 1C       		.uleb128 0x1c
 2335 0d31 F0060000 		.4byte	.LASF219
 2336 0d35 01       		.byte	0x1
 2337 0d36 D3       		.byte	0xd3
 2338 0d37 01       		.byte	0x1
 2339 0d38 01       		.byte	0x1
 2340 0d39 5D0D0000 		.4byte	0xd5d
 2341 0d3d 1D       		.uleb128 0x1d
 2342 0d3e 73647000 		.ascii	"sdp\000"
 2343 0d42 01       		.byte	0x1
 2344 0d43 D3       		.byte	0xd3
 2345 0d44 2A0D0000 		.4byte	0xd2a
 2346 0d48 22       		.uleb128 0x22
 2347 0d49 A9000000 		.4byte	.LASF220
 2348 0d4d 01       		.byte	0x1
 2349 0d4e D3       		.byte	0xd3
 2350 0d4f 5D0D0000 		.4byte	0xd5d
 2351 0d53 1E       		.uleb128 0x1e
 2352 0d54 7500     		.ascii	"u\000"
 2353 0d56 01       		.byte	0x1
 2354 0d57 D4       		.byte	0xd4
 2355 0d58 D60C0000 		.4byte	0xcd6
 2356 0d5c 00       		.byte	0
 2357 0d5d 09       		.uleb128 0x9
 2358 0d5e 04       		.byte	0x4
 2359 0d5f 630D0000 		.4byte	0xd63
 2360 0d63 10       		.uleb128 0x10
 2361 0d64 330C0000 		.4byte	0xc33
 2362 0d68 1C       		.uleb128 0x1c
 2363 0d69 B8040000 		.4byte	.LASF221
 2364 0d6d 01       		.byte	0x1
 2365 0d6e F1       		.byte	0xf1
 2366 0d6f 01       		.byte	0x1
 2367 0d70 01       		.byte	0x1
 2368 0d71 7F0D0000 		.4byte	0xd7f
 2369 0d75 1D       		.uleb128 0x1d
 2370 0d76 7500     		.ascii	"u\000"
 2371 0d78 01       		.byte	0x1
 2372 0d79 F1       		.byte	0xf1
 2373 0d7a D60C0000 		.4byte	0xcd6
 2374 0d7e 00       		.byte	0
 2375 0d7f 23       		.uleb128 0x23
 2376 0d80 C5000000 		.4byte	.LASF222
 2377 0d84 01       		.byte	0x1
 2378 0d85 1301     		.2byte	0x113
 2379 0d87 01       		.byte	0x1
 2380 0d88 01       		.byte	0x1
 2381 0d89 5E0E0000 		.4byte	0xe5e
 2382 0d8d 24       		.uleb128 0x24
ARM GAS  /var/folders/5n/p_75w94d66l9ssrldxqdhh700000gn/T//ccmZInrG.s 			page 43


 2383 0d8e 73647000 		.ascii	"sdp\000"
 2384 0d92 01       		.byte	0x1
 2385 0d93 1301     		.2byte	0x113
 2386 0d95 2A0D0000 		.4byte	0xd2a
 2387 0d99 20       		.uleb128 0x20
 2388 0d9a 7500     		.ascii	"u\000"
 2389 0d9c 01       		.byte	0x1
 2390 0d9d 1401     		.2byte	0x114
 2391 0d9f D60C0000 		.4byte	0xcd6
 2392 0da3 20       		.uleb128 0x20
 2393 0da4 63723100 		.ascii	"cr1\000"
 2394 0da8 01       		.byte	0x1
 2395 0da9 1501     		.2byte	0x115
 2396 0dab 62000000 		.4byte	0x62
 2397 0daf 20       		.uleb128 0x20
 2398 0db0 737200   		.ascii	"sr\000"
 2399 0db3 01       		.byte	0x1
 2400 0db4 1601     		.2byte	0x116
 2401 0db6 62000000 		.4byte	0x62
 2402 0dba 20       		.uleb128 0x20
 2403 0dbb 647200   		.ascii	"dr\000"
 2404 0dbe 01       		.byte	0x1
 2405 0dbf 1701     		.2byte	0x117
 2406 0dc1 62000000 		.4byte	0x62
 2407 0dc5 1F       		.uleb128 0x1f
 2408 0dc6 D70D0000 		.4byte	0xdd7
 2409 0dca 20       		.uleb128 0x20
 2410 0dcb 746D7000 		.ascii	"tmp\000"
 2411 0dcf 01       		.byte	0x1
 2412 0dd0 1E01     		.2byte	0x11e
 2413 0dd2 86000000 		.4byte	0x86
 2414 0dd6 00       		.byte	0
 2415 0dd7 1F       		.uleb128 0x1f
 2416 0dd8 E90D0000 		.4byte	0xde9
 2417 0ddc 20       		.uleb128 0x20
 2418 0ddd 746D7000 		.ascii	"tmp\000"
 2419 0de1 01       		.byte	0x1
 2420 0de2 2001     		.2byte	0x120
 2421 0de4 86000000 		.4byte	0x86
 2422 0de8 00       		.byte	0
 2423 0de9 1F       		.uleb128 0x1f
 2424 0dea FB0D0000 		.4byte	0xdfb
 2425 0dee 20       		.uleb128 0x20
 2426 0def 746D7000 		.ascii	"tmp\000"
 2427 0df3 01       		.byte	0x1
 2428 0df4 2501     		.2byte	0x125
 2429 0df6 86000000 		.4byte	0x86
 2430 0dfa 00       		.byte	0
 2431 0dfb 1F       		.uleb128 0x1f
 2432 0dfc 0D0E0000 		.4byte	0xe0d
 2433 0e00 20       		.uleb128 0x20
 2434 0e01 746D7000 		.ascii	"tmp\000"
 2435 0e05 01       		.byte	0x1
 2436 0e06 2701     		.2byte	0x127
 2437 0e08 86000000 		.4byte	0x86
 2438 0e0c 00       		.byte	0
 2439 0e0d 1F       		.uleb128 0x1f
ARM GAS  /var/folders/5n/p_75w94d66l9ssrldxqdhh700000gn/T//ccmZInrG.s 			page 44


 2440 0e0e 3D0E0000 		.4byte	0xe3d
 2441 0e12 20       		.uleb128 0x20
 2442 0e13 6200     		.ascii	"b\000"
 2443 0e15 01       		.byte	0x1
 2444 0e16 2B01     		.2byte	0x12b
 2445 0e18 DD000000 		.4byte	0xdd
 2446 0e1c 1F       		.uleb128 0x1f
 2447 0e1d 2E0E0000 		.4byte	0xe2e
 2448 0e21 20       		.uleb128 0x20
 2449 0e22 746D7000 		.ascii	"tmp\000"
 2450 0e26 01       		.byte	0x1
 2451 0e27 2C01     		.2byte	0x12c
 2452 0e29 86000000 		.4byte	0x86
 2453 0e2d 00       		.byte	0
 2454 0e2e 21       		.uleb128 0x21
 2455 0e2f 20       		.uleb128 0x20
 2456 0e30 746D7000 		.ascii	"tmp\000"
 2457 0e34 01       		.byte	0x1
 2458 0e35 3401     		.2byte	0x134
 2459 0e37 86000000 		.4byte	0x86
 2460 0e3b 00       		.byte	0
 2461 0e3c 00       		.byte	0
 2462 0e3d 1F       		.uleb128 0x1f
 2463 0e3e 4F0E0000 		.4byte	0xe4f
 2464 0e42 20       		.uleb128 0x20
 2465 0e43 746D7000 		.ascii	"tmp\000"
 2466 0e47 01       		.byte	0x1
 2467 0e48 3801     		.2byte	0x138
 2468 0e4a 86000000 		.4byte	0x86
 2469 0e4e 00       		.byte	0
 2470 0e4f 21       		.uleb128 0x21
 2471 0e50 20       		.uleb128 0x20
 2472 0e51 746D7000 		.ascii	"tmp\000"
 2473 0e55 01       		.byte	0x1
 2474 0e56 3A01     		.2byte	0x13a
 2475 0e58 86000000 		.4byte	0x86
 2476 0e5c 00       		.byte	0
 2477 0e5d 00       		.byte	0
 2478 0e5e 25       		.uleb128 0x25
 2479 0e5f 7F080000 		.4byte	.LASF231
 2480 0e63 01       		.byte	0x1
 2481 0e64 6B01     		.2byte	0x16b
 2482 0e66 01       		.byte	0x1
 2483 0e67 00000000 		.4byte	.LFB122
 2484 0e6b 14000000 		.4byte	.LFE122
 2485 0e6f 02       		.byte	0x2
 2486 0e70 7D       		.byte	0x7d
 2487 0e71 00       		.sleb128 0
 2488 0e72 840E0000 		.4byte	0xe84
 2489 0e76 26       		.uleb128 0x26
 2490 0e77 717000   		.ascii	"qp\000"
 2491 0e7a 01       		.byte	0x1
 2492 0e7b 6B01     		.2byte	0x16b
 2493 0e7d 25050000 		.4byte	0x525
 2494 0e81 01       		.byte	0x1
 2495 0e82 50       		.byte	0x50
 2496 0e83 00       		.byte	0
ARM GAS  /var/folders/5n/p_75w94d66l9ssrldxqdhh700000gn/T//ccmZInrG.s 			page 45


 2497 0e84 27       		.uleb128 0x27
 2498 0e85 01       		.byte	0x1
 2499 0e86 93080000 		.4byte	.LASF223
 2500 0e8a 01       		.byte	0x1
 2501 0e8b DE01     		.2byte	0x1de
 2502 0e8d 01       		.byte	0x1
 2503 0e8e 00000000 		.4byte	.LFB123
 2504 0e92 04010000 		.4byte	.LFE123
 2505 0e96 00000000 		.4byte	.LLST0
 2506 0e9a 0B100000 		.4byte	0x100b
 2507 0e9e 28       		.uleb128 0x28
 2508 0e9f 7F0D0000 		.4byte	0xd7f
 2509 0ea3 02000000 		.4byte	.LBB47
 2510 0ea7 00000000 		.4byte	.Ldebug_ranges0+0
 2511 0eab 01       		.byte	0x1
 2512 0eac E201     		.2byte	0x1e2
 2513 0eae 29       		.uleb128 0x29
 2514 0eaf 18000000 		.4byte	.Ldebug_ranges0+0x18
 2515 0eb3 2A       		.uleb128 0x2a
 2516 0eb4 990D0000 		.4byte	0xd99
 2517 0eb8 20000000 		.4byte	.LLST1
 2518 0ebc 2B       		.uleb128 0x2b
 2519 0ebd A30D0000 		.4byte	0xda3
 2520 0ec1 01       		.byte	0x1
 2521 0ec2 56       		.byte	0x56
 2522 0ec3 2B       		.uleb128 0x2b
 2523 0ec4 AF0D0000 		.4byte	0xdaf
 2524 0ec8 01       		.byte	0x1
 2525 0ec9 54       		.byte	0x54
 2526 0eca 2B       		.uleb128 0x2b
 2527 0ecb BA0D0000 		.4byte	0xdba
 2528 0ecf 01       		.byte	0x1
 2529 0ed0 57       		.byte	0x57
 2530 0ed1 2C       		.uleb128 0x2c
 2531 0ed2 8D0D0000 		.4byte	0xd8d
 2532 0ed6 06       		.byte	0x6
 2533 0ed7 03       		.byte	0x3
 2534 0ed8 00000000 		.4byte	SD6
 2535 0edc 9F       		.byte	0x9f
 2536 0edd 2D       		.uleb128 0x2d
 2537 0ede DC0C0000 		.4byte	0xcdc
 2538 0ee2 16000000 		.4byte	.LBB49
 2539 0ee6 48000000 		.4byte	.LBE49
 2540 0eea 01       		.byte	0x1
 2541 0eeb 1B01     		.2byte	0x11b
 2542 0eed 410F0000 		.4byte	0xf41
 2543 0ef1 2E       		.uleb128 0x2e
 2544 0ef2 F40C0000 		.4byte	0xcf4
 2545 0ef6 42000000 		.4byte	.LLST2
 2546 0efa 2E       		.uleb128 0x2e
 2547 0efb E90C0000 		.4byte	0xce9
 2548 0eff 55000000 		.4byte	.LLST3
 2549 0f03 2F       		.uleb128 0x2f
 2550 0f04 16000000 		.4byte	.LBB50
 2551 0f08 48000000 		.4byte	.LBE50
 2552 0f0c 2A       		.uleb128 0x2a
 2553 0f0d FE0C0000 		.4byte	0xcfe
ARM GAS  /var/folders/5n/p_75w94d66l9ssrldxqdhh700000gn/T//ccmZInrG.s 			page 46


 2554 0f11 6D000000 		.4byte	.LLST4
 2555 0f15 30       		.uleb128 0x30
 2556 0f16 36000000 		.4byte	.LBB51
 2557 0f1a 3C000000 		.4byte	.LBE51
 2558 0f1e 2C0F0000 		.4byte	0xf2c
 2559 0f22 2A       		.uleb128 0x2a
 2560 0f23 0E0D0000 		.4byte	0xd0e
 2561 0f27 8C000000 		.4byte	.LLST5
 2562 0f2b 00       		.byte	0
 2563 0f2c 2F       		.uleb128 0x2f
 2564 0f2d 42000000 		.4byte	.LBB52
 2565 0f31 48000000 		.4byte	.LBE52
 2566 0f35 2A       		.uleb128 0x2a
 2567 0f36 1C0D0000 		.4byte	0xd1c
 2568 0f3a 9F000000 		.4byte	.LLST6
 2569 0f3e 00       		.byte	0
 2570 0f3f 00       		.byte	0
 2571 0f40 00       		.byte	0
 2572 0f41 30       		.uleb128 0x30
 2573 0f42 5C000000 		.4byte	.LBB53
 2574 0f46 62000000 		.4byte	.LBE53
 2575 0f4a 580F0000 		.4byte	0xf58
 2576 0f4e 2A       		.uleb128 0x2a
 2577 0f4f 420E0000 		.4byte	0xe42
 2578 0f53 B2000000 		.4byte	.LLST7
 2579 0f57 00       		.byte	0
 2580 0f58 30       		.uleb128 0x30
 2581 0f59 6A000000 		.4byte	.LBB54
 2582 0f5d 70000000 		.4byte	.LBE54
 2583 0f61 6F0F0000 		.4byte	0xf6f
 2584 0f65 2A       		.uleb128 0x2a
 2585 0f66 500E0000 		.4byte	0xe50
 2586 0f6a C5000000 		.4byte	.LLST8
 2587 0f6e 00       		.byte	0
 2588 0f6f 30       		.uleb128 0x30
 2589 0f70 8C000000 		.4byte	.LBB55
 2590 0f74 92000000 		.4byte	.LBE55
 2591 0f78 860F0000 		.4byte	0xf86
 2592 0f7c 2A       		.uleb128 0x2a
 2593 0f7d EE0D0000 		.4byte	0xdee
 2594 0f81 D8000000 		.4byte	.LLST9
 2595 0f85 00       		.byte	0
 2596 0f86 30       		.uleb128 0x30
 2597 0f87 9A000000 		.4byte	.LBB56
 2598 0f8b A2000000 		.4byte	.LBE56
 2599 0f8f 9D0F0000 		.4byte	0xf9d
 2600 0f93 2A       		.uleb128 0x2a
 2601 0f94 000E0000 		.4byte	0xe00
 2602 0f98 EB000000 		.4byte	.LLST10
 2603 0f9c 00       		.byte	0
 2604 0f9d 30       		.uleb128 0x30
 2605 0f9e A2000000 		.4byte	.LBB57
 2606 0fa2 A8000000 		.4byte	.LBE57
 2607 0fa6 B40F0000 		.4byte	0xfb4
 2608 0faa 2A       		.uleb128 0x2a
 2609 0fab CA0D0000 		.4byte	0xdca
 2610 0faf 14010000 		.4byte	.LLST11
ARM GAS  /var/folders/5n/p_75w94d66l9ssrldxqdhh700000gn/T//ccmZInrG.s 			page 47


 2611 0fb3 00       		.byte	0
 2612 0fb4 30       		.uleb128 0x30
 2613 0fb5 B2000000 		.4byte	.LBB58
 2614 0fb9 B8000000 		.4byte	.LBE58
 2615 0fbd CB0F0000 		.4byte	0xfcb
 2616 0fc1 2A       		.uleb128 0x2a
 2617 0fc2 DC0D0000 		.4byte	0xddc
 2618 0fc6 27010000 		.4byte	.LLST12
 2619 0fca 00       		.byte	0
 2620 0fcb 2F       		.uleb128 0x2f
 2621 0fcc C6000000 		.4byte	.LBB59
 2622 0fd0 04010000 		.4byte	.LBE59
 2623 0fd4 2A       		.uleb128 0x2a
 2624 0fd5 120E0000 		.4byte	0xe12
 2625 0fd9 3A010000 		.4byte	.LLST13
 2626 0fdd 30       		.uleb128 0x30
 2627 0fde C6000000 		.4byte	.LBB60
 2628 0fe2 CC000000 		.4byte	.LBE60
 2629 0fe6 F40F0000 		.4byte	0xff4
 2630 0fea 2A       		.uleb128 0x2a
 2631 0feb 210E0000 		.4byte	0xe21
 2632 0fef 4D010000 		.4byte	.LLST14
 2633 0ff3 00       		.byte	0
 2634 0ff4 2F       		.uleb128 0x2f
 2635 0ff5 DC000000 		.4byte	.LBB61
 2636 0ff9 E4000000 		.4byte	.LBE61
 2637 0ffd 2A       		.uleb128 0x2a
 2638 0ffe 2F0E0000 		.4byte	0xe2f
 2639 1002 60010000 		.4byte	.LLST15
 2640 1006 00       		.byte	0
 2641 1007 00       		.byte	0
 2642 1008 00       		.byte	0
 2643 1009 00       		.byte	0
 2644 100a 00       		.byte	0
 2645 100b 31       		.uleb128 0x31
 2646 100c 01       		.byte	0x1
 2647 100d E0040000 		.4byte	.LASF232
 2648 1011 01       		.byte	0x1
 2649 1012 F101     		.2byte	0x1f1
 2650 1014 01       		.byte	0x1
 2651 1015 00000000 		.4byte	.LFB124
 2652 1019 26000000 		.4byte	.LFE124
 2653 101d 7E010000 		.4byte	.LLST16
 2654 1021 27       		.uleb128 0x27
 2655 1022 01       		.byte	0x1
 2656 1023 4C010000 		.4byte	.LASF224
 2657 1027 01       		.byte	0x1
 2658 1028 1C02     		.2byte	0x21c
 2659 102a 01       		.byte	0x1
 2660 102b 00000000 		.4byte	.LFB125
 2661 102f 9C000000 		.4byte	.LFE125
 2662 1033 9E010000 		.4byte	.LLST17
 2663 1037 92100000 		.4byte	0x1092
 2664 103b 32       		.uleb128 0x32
 2665 103c 73647000 		.ascii	"sdp\000"
 2666 1040 01       		.byte	0x1
 2667 1041 1C02     		.2byte	0x21c
ARM GAS  /var/folders/5n/p_75w94d66l9ssrldxqdhh700000gn/T//ccmZInrG.s 			page 48


 2668 1043 2A0D0000 		.4byte	0xd2a
 2669 1047 BE010000 		.4byte	.LLST18
 2670 104b 33       		.uleb128 0x33
 2671 104c A9000000 		.4byte	.LASF220
 2672 1050 01       		.byte	0x1
 2673 1051 1C02     		.2byte	0x21c
 2674 1053 5D0D0000 		.4byte	0xd5d
 2675 1057 DC010000 		.4byte	.LLST19
 2676 105b 34       		.uleb128 0x34
 2677 105c 300D0000 		.4byte	0xd30
 2678 1060 12000000 		.4byte	.LBB64
 2679 1064 72000000 		.4byte	.LBE64
 2680 1068 01       		.byte	0x1
 2681 1069 4D02     		.2byte	0x24d
 2682 106b 2E       		.uleb128 0x2e
 2683 106c 480D0000 		.4byte	0xd48
 2684 1070 FA010000 		.4byte	.LLST20
 2685 1074 2E       		.uleb128 0x2e
 2686 1075 3D0D0000 		.4byte	0xd3d
 2687 1079 0D020000 		.4byte	.LLST21
 2688 107d 2F       		.uleb128 0x2f
 2689 107e 12000000 		.4byte	.LBB65
 2690 1082 72000000 		.4byte	.LBE65
 2691 1086 2A       		.uleb128 0x2a
 2692 1087 530D0000 		.4byte	0xd53
 2693 108b 20020000 		.4byte	.LLST22
 2694 108f 00       		.byte	0
 2695 1090 00       		.byte	0
 2696 1091 00       		.byte	0
 2697 1092 35       		.uleb128 0x35
 2698 1093 01       		.byte	0x1
 2699 1094 F6090000 		.4byte	.LASF225
 2700 1098 01       		.byte	0x1
 2701 1099 5902     		.2byte	0x259
 2702 109b 01       		.byte	0x1
 2703 109c 00000000 		.4byte	.LFB126
 2704 10a0 34000000 		.4byte	.LFE126
 2705 10a4 02       		.byte	0x2
 2706 10a5 7D       		.byte	0x7d
 2707 10a6 00       		.sleb128 0
 2708 10a7 D6100000 		.4byte	0x10d6
 2709 10ab 32       		.uleb128 0x32
 2710 10ac 73647000 		.ascii	"sdp\000"
 2711 10b0 01       		.byte	0x1
 2712 10b1 5902     		.2byte	0x259
 2713 10b3 2A0D0000 		.4byte	0xd2a
 2714 10b7 35020000 		.4byte	.LLST23
 2715 10bb 34       		.uleb128 0x34
 2716 10bc 680D0000 		.4byte	0xd68
 2717 10c0 0A000000 		.4byte	.LBB66
 2718 10c4 12000000 		.4byte	.LBE66
 2719 10c8 01       		.byte	0x1
 2720 10c9 5C02     		.2byte	0x25c
 2721 10cb 2E       		.uleb128 0x2e
 2722 10cc 750D0000 		.4byte	0xd75
 2723 10d0 48020000 		.4byte	.LLST24
 2724 10d4 00       		.byte	0
ARM GAS  /var/folders/5n/p_75w94d66l9ssrldxqdhh700000gn/T//ccmZInrG.s 			page 49


 2725 10d5 00       		.byte	0
 2726 10d6 36       		.uleb128 0x36
 2727 10d7 E3080000 		.4byte	.LASF226
 2728 10db 0E       		.byte	0xe
 2729 10dc 9806     		.2byte	0x698
 2730 10de FD070000 		.4byte	0x7fd
 2731 10e2 01       		.byte	0x1
 2732 10e3 01       		.byte	0x1
 2733 10e4 37       		.uleb128 0x37
 2734 10e5 53443600 		.ascii	"SD6\000"
 2735 10e9 0D       		.byte	0xd
 2736 10ea 2101     		.2byte	0x121
 2737 10ec 6C0B0000 		.4byte	0xb6c
 2738 10f0 01       		.byte	0x1
 2739 10f1 01       		.byte	0x1
 2740 10f2 38       		.uleb128 0x38
 2741 10f3 92010000 		.4byte	.LASF233
 2742 10f7 01       		.byte	0x1
 2743 10f8 49       		.byte	0x49
 2744 10f9 630D0000 		.4byte	0xd63
 2745 10fd 05       		.byte	0x5
 2746 10fe 03       		.byte	0x3
 2747 10ff 00000000 		.4byte	default_config
 2748 1103 36       		.uleb128 0x36
 2749 1104 E3080000 		.4byte	.LASF226
 2750 1108 0E       		.byte	0xe
 2751 1109 9806     		.2byte	0x698
 2752 110b FD070000 		.4byte	0x7fd
 2753 110f 01       		.byte	0x1
 2754 1110 01       		.byte	0x1
 2755 1111 39       		.uleb128 0x39
 2756 1112 53443600 		.ascii	"SD6\000"
 2757 1116 01       		.byte	0x1
 2758 1117 41       		.byte	0x41
 2759 1118 6C0B0000 		.4byte	0xb6c
 2760 111c 01       		.byte	0x1
 2761 111d 05       		.byte	0x5
 2762 111e 03       		.byte	0x3
 2763 111f 00000000 		.4byte	SD6
 2764 1123 00       		.byte	0
 2765              		.section	.debug_abbrev,"",%progbits
 2766              	.Ldebug_abbrev0:
 2767 0000 01       		.uleb128 0x1
 2768 0001 11       		.uleb128 0x11
 2769 0002 01       		.byte	0x1
 2770 0003 25       		.uleb128 0x25
 2771 0004 0E       		.uleb128 0xe
 2772 0005 13       		.uleb128 0x13
 2773 0006 0B       		.uleb128 0xb
 2774 0007 03       		.uleb128 0x3
 2775 0008 0E       		.uleb128 0xe
 2776 0009 1B       		.uleb128 0x1b
 2777 000a 0E       		.uleb128 0xe
 2778 000b 11       		.uleb128 0x11
 2779 000c 01       		.uleb128 0x1
 2780 000d 52       		.uleb128 0x52
 2781 000e 01       		.uleb128 0x1
ARM GAS  /var/folders/5n/p_75w94d66l9ssrldxqdhh700000gn/T//ccmZInrG.s 			page 50


 2782 000f 55       		.uleb128 0x55
 2783 0010 06       		.uleb128 0x6
 2784 0011 10       		.uleb128 0x10
 2785 0012 06       		.uleb128 0x6
 2786 0013 00       		.byte	0
 2787 0014 00       		.byte	0
 2788 0015 02       		.uleb128 0x2
 2789 0016 24       		.uleb128 0x24
 2790 0017 00       		.byte	0
 2791 0018 0B       		.uleb128 0xb
 2792 0019 0B       		.uleb128 0xb
 2793 001a 3E       		.uleb128 0x3e
 2794 001b 0B       		.uleb128 0xb
 2795 001c 03       		.uleb128 0x3
 2796 001d 08       		.uleb128 0x8
 2797 001e 00       		.byte	0
 2798 001f 00       		.byte	0
 2799 0020 03       		.uleb128 0x3
 2800 0021 16       		.uleb128 0x16
 2801 0022 00       		.byte	0
 2802 0023 03       		.uleb128 0x3
 2803 0024 0E       		.uleb128 0xe
 2804 0025 3A       		.uleb128 0x3a
 2805 0026 0B       		.uleb128 0xb
 2806 0027 3B       		.uleb128 0x3b
 2807 0028 0B       		.uleb128 0xb
 2808 0029 49       		.uleb128 0x49
 2809 002a 13       		.uleb128 0x13
 2810 002b 00       		.byte	0
 2811 002c 00       		.byte	0
 2812 002d 04       		.uleb128 0x4
 2813 002e 24       		.uleb128 0x24
 2814 002f 00       		.byte	0
 2815 0030 0B       		.uleb128 0xb
 2816 0031 0B       		.uleb128 0xb
 2817 0032 3E       		.uleb128 0x3e
 2818 0033 0B       		.uleb128 0xb
 2819 0034 03       		.uleb128 0x3
 2820 0035 0E       		.uleb128 0xe
 2821 0036 00       		.byte	0
 2822 0037 00       		.byte	0
 2823 0038 05       		.uleb128 0x5
 2824 0039 13       		.uleb128 0x13
 2825 003a 01       		.byte	0x1
 2826 003b 03       		.uleb128 0x3
 2827 003c 0E       		.uleb128 0xe
 2828 003d 0B       		.uleb128 0xb
 2829 003e 0B       		.uleb128 0xb
 2830 003f 3A       		.uleb128 0x3a
 2831 0040 0B       		.uleb128 0xb
 2832 0041 3B       		.uleb128 0x3b
 2833 0042 0B       		.uleb128 0xb
 2834 0043 01       		.uleb128 0x1
 2835 0044 13       		.uleb128 0x13
 2836 0045 00       		.byte	0
 2837 0046 00       		.byte	0
 2838 0047 06       		.uleb128 0x6
ARM GAS  /var/folders/5n/p_75w94d66l9ssrldxqdhh700000gn/T//ccmZInrG.s 			page 51


 2839 0048 0D       		.uleb128 0xd
 2840 0049 00       		.byte	0
 2841 004a 03       		.uleb128 0x3
 2842 004b 0E       		.uleb128 0xe
 2843 004c 3A       		.uleb128 0x3a
 2844 004d 0B       		.uleb128 0xb
 2845 004e 3B       		.uleb128 0x3b
 2846 004f 0B       		.uleb128 0xb
 2847 0050 49       		.uleb128 0x49
 2848 0051 13       		.uleb128 0x13
 2849 0052 38       		.uleb128 0x38
 2850 0053 0A       		.uleb128 0xa
 2851 0054 00       		.byte	0
 2852 0055 00       		.byte	0
 2853 0056 07       		.uleb128 0x7
 2854 0057 0D       		.uleb128 0xd
 2855 0058 00       		.byte	0
 2856 0059 03       		.uleb128 0x3
 2857 005a 08       		.uleb128 0x8
 2858 005b 3A       		.uleb128 0x3a
 2859 005c 0B       		.uleb128 0xb
 2860 005d 3B       		.uleb128 0x3b
 2861 005e 0B       		.uleb128 0xb
 2862 005f 49       		.uleb128 0x49
 2863 0060 13       		.uleb128 0x13
 2864 0061 38       		.uleb128 0x38
 2865 0062 0A       		.uleb128 0xa
 2866 0063 00       		.byte	0
 2867 0064 00       		.byte	0
 2868 0065 08       		.uleb128 0x8
 2869 0066 13       		.uleb128 0x13
 2870 0067 01       		.byte	0x1
 2871 0068 0B       		.uleb128 0xb
 2872 0069 0B       		.uleb128 0xb
 2873 006a 3A       		.uleb128 0x3a
 2874 006b 0B       		.uleb128 0xb
 2875 006c 3B       		.uleb128 0x3b
 2876 006d 0B       		.uleb128 0xb
 2877 006e 01       		.uleb128 0x1
 2878 006f 13       		.uleb128 0x13
 2879 0070 00       		.byte	0
 2880 0071 00       		.byte	0
 2881 0072 09       		.uleb128 0x9
 2882 0073 0F       		.uleb128 0xf
 2883 0074 00       		.byte	0
 2884 0075 0B       		.uleb128 0xb
 2885 0076 0B       		.uleb128 0xb
 2886 0077 49       		.uleb128 0x49
 2887 0078 13       		.uleb128 0x13
 2888 0079 00       		.byte	0
 2889 007a 00       		.byte	0
 2890 007b 0A       		.uleb128 0xa
 2891 007c 0F       		.uleb128 0xf
 2892 007d 00       		.byte	0
 2893 007e 0B       		.uleb128 0xb
 2894 007f 0B       		.uleb128 0xb
 2895 0080 00       		.byte	0
ARM GAS  /var/folders/5n/p_75w94d66l9ssrldxqdhh700000gn/T//ccmZInrG.s 			page 52


 2896 0081 00       		.byte	0
 2897 0082 0B       		.uleb128 0xb
 2898 0083 13       		.uleb128 0x13
 2899 0084 01       		.byte	0x1
 2900 0085 03       		.uleb128 0x3
 2901 0086 0E       		.uleb128 0xe
 2902 0087 0B       		.uleb128 0xb
 2903 0088 0B       		.uleb128 0xb
 2904 0089 3A       		.uleb128 0x3a
 2905 008a 0B       		.uleb128 0xb
 2906 008b 3B       		.uleb128 0x3b
 2907 008c 05       		.uleb128 0x5
 2908 008d 01       		.uleb128 0x1
 2909 008e 13       		.uleb128 0x13
 2910 008f 00       		.byte	0
 2911 0090 00       		.byte	0
 2912 0091 0C       		.uleb128 0xc
 2913 0092 0D       		.uleb128 0xd
 2914 0093 00       		.byte	0
 2915 0094 03       		.uleb128 0x3
 2916 0095 08       		.uleb128 0x8
 2917 0096 3A       		.uleb128 0x3a
 2918 0097 0B       		.uleb128 0xb
 2919 0098 3B       		.uleb128 0x3b
 2920 0099 05       		.uleb128 0x5
 2921 009a 49       		.uleb128 0x49
 2922 009b 13       		.uleb128 0x13
 2923 009c 38       		.uleb128 0x38
 2924 009d 0A       		.uleb128 0xa
 2925 009e 00       		.byte	0
 2926 009f 00       		.byte	0
 2927 00a0 0D       		.uleb128 0xd
 2928 00a1 35       		.uleb128 0x35
 2929 00a2 00       		.byte	0
 2930 00a3 49       		.uleb128 0x49
 2931 00a4 13       		.uleb128 0x13
 2932 00a5 00       		.byte	0
 2933 00a6 00       		.byte	0
 2934 00a7 0E       		.uleb128 0xe
 2935 00a8 17       		.uleb128 0x17
 2936 00a9 01       		.byte	0x1
 2937 00aa 0B       		.uleb128 0xb
 2938 00ab 0B       		.uleb128 0xb
 2939 00ac 3A       		.uleb128 0x3a
 2940 00ad 0B       		.uleb128 0xb
 2941 00ae 3B       		.uleb128 0x3b
 2942 00af 0B       		.uleb128 0xb
 2943 00b0 01       		.uleb128 0x1
 2944 00b1 13       		.uleb128 0x13
 2945 00b2 00       		.byte	0
 2946 00b3 00       		.byte	0
 2947 00b4 0F       		.uleb128 0xf
 2948 00b5 0D       		.uleb128 0xd
 2949 00b6 00       		.byte	0
 2950 00b7 03       		.uleb128 0x3
 2951 00b8 0E       		.uleb128 0xe
 2952 00b9 3A       		.uleb128 0x3a
ARM GAS  /var/folders/5n/p_75w94d66l9ssrldxqdhh700000gn/T//ccmZInrG.s 			page 53


 2953 00ba 0B       		.uleb128 0xb
 2954 00bb 3B       		.uleb128 0x3b
 2955 00bc 0B       		.uleb128 0xb
 2956 00bd 49       		.uleb128 0x49
 2957 00be 13       		.uleb128 0x13
 2958 00bf 00       		.byte	0
 2959 00c0 00       		.byte	0
 2960 00c1 10       		.uleb128 0x10
 2961 00c2 26       		.uleb128 0x26
 2962 00c3 00       		.byte	0
 2963 00c4 49       		.uleb128 0x49
 2964 00c5 13       		.uleb128 0x13
 2965 00c6 00       		.byte	0
 2966 00c7 00       		.byte	0
 2967 00c8 11       		.uleb128 0x11
 2968 00c9 15       		.uleb128 0x15
 2969 00ca 01       		.byte	0x1
 2970 00cb 27       		.uleb128 0x27
 2971 00cc 0C       		.uleb128 0xc
 2972 00cd 49       		.uleb128 0x49
 2973 00ce 13       		.uleb128 0x13
 2974 00cf 01       		.uleb128 0x1
 2975 00d0 13       		.uleb128 0x13
 2976 00d1 00       		.byte	0
 2977 00d2 00       		.byte	0
 2978 00d3 12       		.uleb128 0x12
 2979 00d4 05       		.uleb128 0x5
 2980 00d5 00       		.byte	0
 2981 00d6 49       		.uleb128 0x49
 2982 00d7 13       		.uleb128 0x13
 2983 00d8 00       		.byte	0
 2984 00d9 00       		.byte	0
 2985 00da 13       		.uleb128 0x13
 2986 00db 15       		.uleb128 0x15
 2987 00dc 01       		.byte	0x1
 2988 00dd 27       		.uleb128 0x27
 2989 00de 0C       		.uleb128 0xc
 2990 00df 01       		.uleb128 0x1
 2991 00e0 13       		.uleb128 0x13
 2992 00e1 00       		.byte	0
 2993 00e2 00       		.byte	0
 2994 00e3 14       		.uleb128 0x14
 2995 00e4 04       		.uleb128 0x4
 2996 00e5 01       		.byte	0x1
 2997 00e6 03       		.uleb128 0x3
 2998 00e7 0E       		.uleb128 0xe
 2999 00e8 0B       		.uleb128 0xb
 3000 00e9 0B       		.uleb128 0xb
 3001 00ea 3A       		.uleb128 0x3a
 3002 00eb 0B       		.uleb128 0xb
 3003 00ec 3B       		.uleb128 0x3b
 3004 00ed 0B       		.uleb128 0xb
 3005 00ee 01       		.uleb128 0x1
 3006 00ef 13       		.uleb128 0x13
 3007 00f0 00       		.byte	0
 3008 00f1 00       		.byte	0
 3009 00f2 15       		.uleb128 0x15
ARM GAS  /var/folders/5n/p_75w94d66l9ssrldxqdhh700000gn/T//ccmZInrG.s 			page 54


 3010 00f3 28       		.uleb128 0x28
 3011 00f4 00       		.byte	0
 3012 00f5 03       		.uleb128 0x3
 3013 00f6 0E       		.uleb128 0xe
 3014 00f7 1C       		.uleb128 0x1c
 3015 00f8 0D       		.uleb128 0xd
 3016 00f9 00       		.byte	0
 3017 00fa 00       		.byte	0
 3018 00fb 16       		.uleb128 0x16
 3019 00fc 01       		.uleb128 0x1
 3020 00fd 01       		.byte	0x1
 3021 00fe 49       		.uleb128 0x49
 3022 00ff 13       		.uleb128 0x13
 3023 0100 01       		.uleb128 0x1
 3024 0101 13       		.uleb128 0x13
 3025 0102 00       		.byte	0
 3026 0103 00       		.byte	0
 3027 0104 17       		.uleb128 0x17
 3028 0105 21       		.uleb128 0x21
 3029 0106 00       		.byte	0
 3030 0107 49       		.uleb128 0x49
 3031 0108 13       		.uleb128 0x13
 3032 0109 2F       		.uleb128 0x2f
 3033 010a 0B       		.uleb128 0xb
 3034 010b 00       		.byte	0
 3035 010c 00       		.byte	0
 3036 010d 18       		.uleb128 0x18
 3037 010e 13       		.uleb128 0x13
 3038 010f 01       		.byte	0x1
 3039 0110 0B       		.uleb128 0xb
 3040 0111 0B       		.uleb128 0xb
 3041 0112 3A       		.uleb128 0x3a
 3042 0113 0B       		.uleb128 0xb
 3043 0114 3B       		.uleb128 0x3b
 3044 0115 05       		.uleb128 0x5
 3045 0116 01       		.uleb128 0x1
 3046 0117 13       		.uleb128 0x13
 3047 0118 00       		.byte	0
 3048 0119 00       		.byte	0
 3049 011a 19       		.uleb128 0x19
 3050 011b 0D       		.uleb128 0xd
 3051 011c 00       		.byte	0
 3052 011d 03       		.uleb128 0x3
 3053 011e 0E       		.uleb128 0xe
 3054 011f 3A       		.uleb128 0x3a
 3055 0120 0B       		.uleb128 0xb
 3056 0121 3B       		.uleb128 0x3b
 3057 0122 05       		.uleb128 0x5
 3058 0123 49       		.uleb128 0x49
 3059 0124 13       		.uleb128 0x13
 3060 0125 38       		.uleb128 0x38
 3061 0126 0A       		.uleb128 0xa
 3062 0127 00       		.byte	0
 3063 0128 00       		.byte	0
 3064 0129 1A       		.uleb128 0x1a
 3065 012a 16       		.uleb128 0x16
 3066 012b 00       		.byte	0
ARM GAS  /var/folders/5n/p_75w94d66l9ssrldxqdhh700000gn/T//ccmZInrG.s 			page 55


 3067 012c 03       		.uleb128 0x3
 3068 012d 0E       		.uleb128 0xe
 3069 012e 3A       		.uleb128 0x3a
 3070 012f 0B       		.uleb128 0xb
 3071 0130 3B       		.uleb128 0x3b
 3072 0131 05       		.uleb128 0x5
 3073 0132 49       		.uleb128 0x49
 3074 0133 13       		.uleb128 0x13
 3075 0134 00       		.byte	0
 3076 0135 00       		.byte	0
 3077 0136 1B       		.uleb128 0x1b
 3078 0137 04       		.uleb128 0x4
 3079 0138 01       		.byte	0x1
 3080 0139 0B       		.uleb128 0xb
 3081 013a 0B       		.uleb128 0xb
 3082 013b 3A       		.uleb128 0x3a
 3083 013c 0B       		.uleb128 0xb
 3084 013d 3B       		.uleb128 0x3b
 3085 013e 0B       		.uleb128 0xb
 3086 013f 01       		.uleb128 0x1
 3087 0140 13       		.uleb128 0x13
 3088 0141 00       		.byte	0
 3089 0142 00       		.byte	0
 3090 0143 1C       		.uleb128 0x1c
 3091 0144 2E       		.uleb128 0x2e
 3092 0145 01       		.byte	0x1
 3093 0146 03       		.uleb128 0x3
 3094 0147 0E       		.uleb128 0xe
 3095 0148 3A       		.uleb128 0x3a
 3096 0149 0B       		.uleb128 0xb
 3097 014a 3B       		.uleb128 0x3b
 3098 014b 0B       		.uleb128 0xb
 3099 014c 27       		.uleb128 0x27
 3100 014d 0C       		.uleb128 0xc
 3101 014e 20       		.uleb128 0x20
 3102 014f 0B       		.uleb128 0xb
 3103 0150 01       		.uleb128 0x1
 3104 0151 13       		.uleb128 0x13
 3105 0152 00       		.byte	0
 3106 0153 00       		.byte	0
 3107 0154 1D       		.uleb128 0x1d
 3108 0155 05       		.uleb128 0x5
 3109 0156 00       		.byte	0
 3110 0157 03       		.uleb128 0x3
 3111 0158 08       		.uleb128 0x8
 3112 0159 3A       		.uleb128 0x3a
 3113 015a 0B       		.uleb128 0xb
 3114 015b 3B       		.uleb128 0x3b
 3115 015c 0B       		.uleb128 0xb
 3116 015d 49       		.uleb128 0x49
 3117 015e 13       		.uleb128 0x13
 3118 015f 00       		.byte	0
 3119 0160 00       		.byte	0
 3120 0161 1E       		.uleb128 0x1e
 3121 0162 34       		.uleb128 0x34
 3122 0163 00       		.byte	0
 3123 0164 03       		.uleb128 0x3
ARM GAS  /var/folders/5n/p_75w94d66l9ssrldxqdhh700000gn/T//ccmZInrG.s 			page 56


 3124 0165 08       		.uleb128 0x8
 3125 0166 3A       		.uleb128 0x3a
 3126 0167 0B       		.uleb128 0xb
 3127 0168 3B       		.uleb128 0x3b
 3128 0169 0B       		.uleb128 0xb
 3129 016a 49       		.uleb128 0x49
 3130 016b 13       		.uleb128 0x13
 3131 016c 00       		.byte	0
 3132 016d 00       		.byte	0
 3133 016e 1F       		.uleb128 0x1f
 3134 016f 0B       		.uleb128 0xb
 3135 0170 01       		.byte	0x1
 3136 0171 01       		.uleb128 0x1
 3137 0172 13       		.uleb128 0x13
 3138 0173 00       		.byte	0
 3139 0174 00       		.byte	0
 3140 0175 20       		.uleb128 0x20
 3141 0176 34       		.uleb128 0x34
 3142 0177 00       		.byte	0
 3143 0178 03       		.uleb128 0x3
 3144 0179 08       		.uleb128 0x8
 3145 017a 3A       		.uleb128 0x3a
 3146 017b 0B       		.uleb128 0xb
 3147 017c 3B       		.uleb128 0x3b
 3148 017d 05       		.uleb128 0x5
 3149 017e 49       		.uleb128 0x49
 3150 017f 13       		.uleb128 0x13
 3151 0180 00       		.byte	0
 3152 0181 00       		.byte	0
 3153 0182 21       		.uleb128 0x21
 3154 0183 0B       		.uleb128 0xb
 3155 0184 01       		.byte	0x1
 3156 0185 00       		.byte	0
 3157 0186 00       		.byte	0
 3158 0187 22       		.uleb128 0x22
 3159 0188 05       		.uleb128 0x5
 3160 0189 00       		.byte	0
 3161 018a 03       		.uleb128 0x3
 3162 018b 0E       		.uleb128 0xe
 3163 018c 3A       		.uleb128 0x3a
 3164 018d 0B       		.uleb128 0xb
 3165 018e 3B       		.uleb128 0x3b
 3166 018f 0B       		.uleb128 0xb
 3167 0190 49       		.uleb128 0x49
 3168 0191 13       		.uleb128 0x13
 3169 0192 00       		.byte	0
 3170 0193 00       		.byte	0
 3171 0194 23       		.uleb128 0x23
 3172 0195 2E       		.uleb128 0x2e
 3173 0196 01       		.byte	0x1
 3174 0197 03       		.uleb128 0x3
 3175 0198 0E       		.uleb128 0xe
 3176 0199 3A       		.uleb128 0x3a
 3177 019a 0B       		.uleb128 0xb
 3178 019b 3B       		.uleb128 0x3b
 3179 019c 05       		.uleb128 0x5
 3180 019d 27       		.uleb128 0x27
ARM GAS  /var/folders/5n/p_75w94d66l9ssrldxqdhh700000gn/T//ccmZInrG.s 			page 57


 3181 019e 0C       		.uleb128 0xc
 3182 019f 20       		.uleb128 0x20
 3183 01a0 0B       		.uleb128 0xb
 3184 01a1 01       		.uleb128 0x1
 3185 01a2 13       		.uleb128 0x13
 3186 01a3 00       		.byte	0
 3187 01a4 00       		.byte	0
 3188 01a5 24       		.uleb128 0x24
 3189 01a6 05       		.uleb128 0x5
 3190 01a7 00       		.byte	0
 3191 01a8 03       		.uleb128 0x3
 3192 01a9 08       		.uleb128 0x8
 3193 01aa 3A       		.uleb128 0x3a
 3194 01ab 0B       		.uleb128 0xb
 3195 01ac 3B       		.uleb128 0x3b
 3196 01ad 05       		.uleb128 0x5
 3197 01ae 49       		.uleb128 0x49
 3198 01af 13       		.uleb128 0x13
 3199 01b0 00       		.byte	0
 3200 01b1 00       		.byte	0
 3201 01b2 25       		.uleb128 0x25
 3202 01b3 2E       		.uleb128 0x2e
 3203 01b4 01       		.byte	0x1
 3204 01b5 03       		.uleb128 0x3
 3205 01b6 0E       		.uleb128 0xe
 3206 01b7 3A       		.uleb128 0x3a
 3207 01b8 0B       		.uleb128 0xb
 3208 01b9 3B       		.uleb128 0x3b
 3209 01ba 05       		.uleb128 0x5
 3210 01bb 27       		.uleb128 0x27
 3211 01bc 0C       		.uleb128 0xc
 3212 01bd 11       		.uleb128 0x11
 3213 01be 01       		.uleb128 0x1
 3214 01bf 12       		.uleb128 0x12
 3215 01c0 01       		.uleb128 0x1
 3216 01c1 40       		.uleb128 0x40
 3217 01c2 0A       		.uleb128 0xa
 3218 01c3 01       		.uleb128 0x1
 3219 01c4 13       		.uleb128 0x13
 3220 01c5 00       		.byte	0
 3221 01c6 00       		.byte	0
 3222 01c7 26       		.uleb128 0x26
 3223 01c8 05       		.uleb128 0x5
 3224 01c9 00       		.byte	0
 3225 01ca 03       		.uleb128 0x3
 3226 01cb 08       		.uleb128 0x8
 3227 01cc 3A       		.uleb128 0x3a
 3228 01cd 0B       		.uleb128 0xb
 3229 01ce 3B       		.uleb128 0x3b
 3230 01cf 05       		.uleb128 0x5
 3231 01d0 49       		.uleb128 0x49
 3232 01d1 13       		.uleb128 0x13
 3233 01d2 02       		.uleb128 0x2
 3234 01d3 0A       		.uleb128 0xa
 3235 01d4 00       		.byte	0
 3236 01d5 00       		.byte	0
 3237 01d6 27       		.uleb128 0x27
ARM GAS  /var/folders/5n/p_75w94d66l9ssrldxqdhh700000gn/T//ccmZInrG.s 			page 58


 3238 01d7 2E       		.uleb128 0x2e
 3239 01d8 01       		.byte	0x1
 3240 01d9 3F       		.uleb128 0x3f
 3241 01da 0C       		.uleb128 0xc
 3242 01db 03       		.uleb128 0x3
 3243 01dc 0E       		.uleb128 0xe
 3244 01dd 3A       		.uleb128 0x3a
 3245 01de 0B       		.uleb128 0xb
 3246 01df 3B       		.uleb128 0x3b
 3247 01e0 05       		.uleb128 0x5
 3248 01e1 27       		.uleb128 0x27
 3249 01e2 0C       		.uleb128 0xc
 3250 01e3 11       		.uleb128 0x11
 3251 01e4 01       		.uleb128 0x1
 3252 01e5 12       		.uleb128 0x12
 3253 01e6 01       		.uleb128 0x1
 3254 01e7 40       		.uleb128 0x40
 3255 01e8 06       		.uleb128 0x6
 3256 01e9 01       		.uleb128 0x1
 3257 01ea 13       		.uleb128 0x13
 3258 01eb 00       		.byte	0
 3259 01ec 00       		.byte	0
 3260 01ed 28       		.uleb128 0x28
 3261 01ee 1D       		.uleb128 0x1d
 3262 01ef 01       		.byte	0x1
 3263 01f0 31       		.uleb128 0x31
 3264 01f1 13       		.uleb128 0x13
 3265 01f2 52       		.uleb128 0x52
 3266 01f3 01       		.uleb128 0x1
 3267 01f4 55       		.uleb128 0x55
 3268 01f5 06       		.uleb128 0x6
 3269 01f6 58       		.uleb128 0x58
 3270 01f7 0B       		.uleb128 0xb
 3271 01f8 59       		.uleb128 0x59
 3272 01f9 05       		.uleb128 0x5
 3273 01fa 00       		.byte	0
 3274 01fb 00       		.byte	0
 3275 01fc 29       		.uleb128 0x29
 3276 01fd 0B       		.uleb128 0xb
 3277 01fe 01       		.byte	0x1
 3278 01ff 55       		.uleb128 0x55
 3279 0200 06       		.uleb128 0x6
 3280 0201 00       		.byte	0
 3281 0202 00       		.byte	0
 3282 0203 2A       		.uleb128 0x2a
 3283 0204 34       		.uleb128 0x34
 3284 0205 00       		.byte	0
 3285 0206 31       		.uleb128 0x31
 3286 0207 13       		.uleb128 0x13
 3287 0208 02       		.uleb128 0x2
 3288 0209 06       		.uleb128 0x6
 3289 020a 00       		.byte	0
 3290 020b 00       		.byte	0
 3291 020c 2B       		.uleb128 0x2b
 3292 020d 34       		.uleb128 0x34
 3293 020e 00       		.byte	0
 3294 020f 31       		.uleb128 0x31
ARM GAS  /var/folders/5n/p_75w94d66l9ssrldxqdhh700000gn/T//ccmZInrG.s 			page 59


 3295 0210 13       		.uleb128 0x13
 3296 0211 02       		.uleb128 0x2
 3297 0212 0A       		.uleb128 0xa
 3298 0213 00       		.byte	0
 3299 0214 00       		.byte	0
 3300 0215 2C       		.uleb128 0x2c
 3301 0216 05       		.uleb128 0x5
 3302 0217 00       		.byte	0
 3303 0218 31       		.uleb128 0x31
 3304 0219 13       		.uleb128 0x13
 3305 021a 02       		.uleb128 0x2
 3306 021b 0A       		.uleb128 0xa
 3307 021c 00       		.byte	0
 3308 021d 00       		.byte	0
 3309 021e 2D       		.uleb128 0x2d
 3310 021f 1D       		.uleb128 0x1d
 3311 0220 01       		.byte	0x1
 3312 0221 31       		.uleb128 0x31
 3313 0222 13       		.uleb128 0x13
 3314 0223 11       		.uleb128 0x11
 3315 0224 01       		.uleb128 0x1
 3316 0225 12       		.uleb128 0x12
 3317 0226 01       		.uleb128 0x1
 3318 0227 58       		.uleb128 0x58
 3319 0228 0B       		.uleb128 0xb
 3320 0229 59       		.uleb128 0x59
 3321 022a 05       		.uleb128 0x5
 3322 022b 01       		.uleb128 0x1
 3323 022c 13       		.uleb128 0x13
 3324 022d 00       		.byte	0
 3325 022e 00       		.byte	0
 3326 022f 2E       		.uleb128 0x2e
 3327 0230 05       		.uleb128 0x5
 3328 0231 00       		.byte	0
 3329 0232 31       		.uleb128 0x31
 3330 0233 13       		.uleb128 0x13
 3331 0234 02       		.uleb128 0x2
 3332 0235 06       		.uleb128 0x6
 3333 0236 00       		.byte	0
 3334 0237 00       		.byte	0
 3335 0238 2F       		.uleb128 0x2f
 3336 0239 0B       		.uleb128 0xb
 3337 023a 01       		.byte	0x1
 3338 023b 11       		.uleb128 0x11
 3339 023c 01       		.uleb128 0x1
 3340 023d 12       		.uleb128 0x12
 3341 023e 01       		.uleb128 0x1
 3342 023f 00       		.byte	0
 3343 0240 00       		.byte	0
 3344 0241 30       		.uleb128 0x30
 3345 0242 0B       		.uleb128 0xb
 3346 0243 01       		.byte	0x1
 3347 0244 11       		.uleb128 0x11
 3348 0245 01       		.uleb128 0x1
 3349 0246 12       		.uleb128 0x12
 3350 0247 01       		.uleb128 0x1
 3351 0248 01       		.uleb128 0x1
ARM GAS  /var/folders/5n/p_75w94d66l9ssrldxqdhh700000gn/T//ccmZInrG.s 			page 60


 3352 0249 13       		.uleb128 0x13
 3353 024a 00       		.byte	0
 3354 024b 00       		.byte	0
 3355 024c 31       		.uleb128 0x31
 3356 024d 2E       		.uleb128 0x2e
 3357 024e 00       		.byte	0
 3358 024f 3F       		.uleb128 0x3f
 3359 0250 0C       		.uleb128 0xc
 3360 0251 03       		.uleb128 0x3
 3361 0252 0E       		.uleb128 0xe
 3362 0253 3A       		.uleb128 0x3a
 3363 0254 0B       		.uleb128 0xb
 3364 0255 3B       		.uleb128 0x3b
 3365 0256 05       		.uleb128 0x5
 3366 0257 27       		.uleb128 0x27
 3367 0258 0C       		.uleb128 0xc
 3368 0259 11       		.uleb128 0x11
 3369 025a 01       		.uleb128 0x1
 3370 025b 12       		.uleb128 0x12
 3371 025c 01       		.uleb128 0x1
 3372 025d 40       		.uleb128 0x40
 3373 025e 06       		.uleb128 0x6
 3374 025f 00       		.byte	0
 3375 0260 00       		.byte	0
 3376 0261 32       		.uleb128 0x32
 3377 0262 05       		.uleb128 0x5
 3378 0263 00       		.byte	0
 3379 0264 03       		.uleb128 0x3
 3380 0265 08       		.uleb128 0x8
 3381 0266 3A       		.uleb128 0x3a
 3382 0267 0B       		.uleb128 0xb
 3383 0268 3B       		.uleb128 0x3b
 3384 0269 05       		.uleb128 0x5
 3385 026a 49       		.uleb128 0x49
 3386 026b 13       		.uleb128 0x13
 3387 026c 02       		.uleb128 0x2
 3388 026d 06       		.uleb128 0x6
 3389 026e 00       		.byte	0
 3390 026f 00       		.byte	0
 3391 0270 33       		.uleb128 0x33
 3392 0271 05       		.uleb128 0x5
 3393 0272 00       		.byte	0
 3394 0273 03       		.uleb128 0x3
 3395 0274 0E       		.uleb128 0xe
 3396 0275 3A       		.uleb128 0x3a
 3397 0276 0B       		.uleb128 0xb
 3398 0277 3B       		.uleb128 0x3b
 3399 0278 05       		.uleb128 0x5
 3400 0279 49       		.uleb128 0x49
 3401 027a 13       		.uleb128 0x13
 3402 027b 02       		.uleb128 0x2
 3403 027c 06       		.uleb128 0x6
 3404 027d 00       		.byte	0
 3405 027e 00       		.byte	0
 3406 027f 34       		.uleb128 0x34
 3407 0280 1D       		.uleb128 0x1d
 3408 0281 01       		.byte	0x1
ARM GAS  /var/folders/5n/p_75w94d66l9ssrldxqdhh700000gn/T//ccmZInrG.s 			page 61


 3409 0282 31       		.uleb128 0x31
 3410 0283 13       		.uleb128 0x13
 3411 0284 11       		.uleb128 0x11
 3412 0285 01       		.uleb128 0x1
 3413 0286 12       		.uleb128 0x12
 3414 0287 01       		.uleb128 0x1
 3415 0288 58       		.uleb128 0x58
 3416 0289 0B       		.uleb128 0xb
 3417 028a 59       		.uleb128 0x59
 3418 028b 05       		.uleb128 0x5
 3419 028c 00       		.byte	0
 3420 028d 00       		.byte	0
 3421 028e 35       		.uleb128 0x35
 3422 028f 2E       		.uleb128 0x2e
 3423 0290 01       		.byte	0x1
 3424 0291 3F       		.uleb128 0x3f
 3425 0292 0C       		.uleb128 0xc
 3426 0293 03       		.uleb128 0x3
 3427 0294 0E       		.uleb128 0xe
 3428 0295 3A       		.uleb128 0x3a
 3429 0296 0B       		.uleb128 0xb
 3430 0297 3B       		.uleb128 0x3b
 3431 0298 05       		.uleb128 0x5
 3432 0299 27       		.uleb128 0x27
 3433 029a 0C       		.uleb128 0xc
 3434 029b 11       		.uleb128 0x11
 3435 029c 01       		.uleb128 0x1
 3436 029d 12       		.uleb128 0x12
 3437 029e 01       		.uleb128 0x1
 3438 029f 40       		.uleb128 0x40
 3439 02a0 0A       		.uleb128 0xa
 3440 02a1 01       		.uleb128 0x1
 3441 02a2 13       		.uleb128 0x13
 3442 02a3 00       		.byte	0
 3443 02a4 00       		.byte	0
 3444 02a5 36       		.uleb128 0x36
 3445 02a6 34       		.uleb128 0x34
 3446 02a7 00       		.byte	0
 3447 02a8 03       		.uleb128 0x3
 3448 02a9 0E       		.uleb128 0xe
 3449 02aa 3A       		.uleb128 0x3a
 3450 02ab 0B       		.uleb128 0xb
 3451 02ac 3B       		.uleb128 0x3b
 3452 02ad 05       		.uleb128 0x5
 3453 02ae 49       		.uleb128 0x49
 3454 02af 13       		.uleb128 0x13
 3455 02b0 3F       		.uleb128 0x3f
 3456 02b1 0C       		.uleb128 0xc
 3457 02b2 3C       		.uleb128 0x3c
 3458 02b3 0C       		.uleb128 0xc
 3459 02b4 00       		.byte	0
 3460 02b5 00       		.byte	0
 3461 02b6 37       		.uleb128 0x37
 3462 02b7 34       		.uleb128 0x34
 3463 02b8 00       		.byte	0
 3464 02b9 03       		.uleb128 0x3
 3465 02ba 08       		.uleb128 0x8
ARM GAS  /var/folders/5n/p_75w94d66l9ssrldxqdhh700000gn/T//ccmZInrG.s 			page 62


 3466 02bb 3A       		.uleb128 0x3a
 3467 02bc 0B       		.uleb128 0xb
 3468 02bd 3B       		.uleb128 0x3b
 3469 02be 05       		.uleb128 0x5
 3470 02bf 49       		.uleb128 0x49
 3471 02c0 13       		.uleb128 0x13
 3472 02c1 3F       		.uleb128 0x3f
 3473 02c2 0C       		.uleb128 0xc
 3474 02c3 3C       		.uleb128 0x3c
 3475 02c4 0C       		.uleb128 0xc
 3476 02c5 00       		.byte	0
 3477 02c6 00       		.byte	0
 3478 02c7 38       		.uleb128 0x38
 3479 02c8 34       		.uleb128 0x34
 3480 02c9 00       		.byte	0
 3481 02ca 03       		.uleb128 0x3
 3482 02cb 0E       		.uleb128 0xe
 3483 02cc 3A       		.uleb128 0x3a
 3484 02cd 0B       		.uleb128 0xb
 3485 02ce 3B       		.uleb128 0x3b
 3486 02cf 0B       		.uleb128 0xb
 3487 02d0 49       		.uleb128 0x49
 3488 02d1 13       		.uleb128 0x13
 3489 02d2 02       		.uleb128 0x2
 3490 02d3 0A       		.uleb128 0xa
 3491 02d4 00       		.byte	0
 3492 02d5 00       		.byte	0
 3493 02d6 39       		.uleb128 0x39
 3494 02d7 34       		.uleb128 0x34
 3495 02d8 00       		.byte	0
 3496 02d9 03       		.uleb128 0x3
 3497 02da 08       		.uleb128 0x8
 3498 02db 3A       		.uleb128 0x3a
 3499 02dc 0B       		.uleb128 0xb
 3500 02dd 3B       		.uleb128 0x3b
 3501 02de 0B       		.uleb128 0xb
 3502 02df 49       		.uleb128 0x49
 3503 02e0 13       		.uleb128 0x13
 3504 02e1 3F       		.uleb128 0x3f
 3505 02e2 0C       		.uleb128 0xc
 3506 02e3 02       		.uleb128 0x2
 3507 02e4 0A       		.uleb128 0xa
 3508 02e5 00       		.byte	0
 3509 02e6 00       		.byte	0
 3510 02e7 00       		.byte	0
 3511              		.section	.debug_loc,"",%progbits
 3512              	.Ldebug_loc0:
 3513              	.LLST0:
 3514 0000 00000000 		.4byte	.LFB123
 3515 0004 02000000 		.4byte	.LCFI0
 3516 0008 0200     		.2byte	0x2
 3517 000a 7D       		.byte	0x7d
 3518 000b 00       		.sleb128 0
 3519 000c 02000000 		.4byte	.LCFI0
 3520 0010 04010000 		.4byte	.LFE123
 3521 0014 0200     		.2byte	0x2
 3522 0016 7D       		.byte	0x7d
ARM GAS  /var/folders/5n/p_75w94d66l9ssrldxqdhh700000gn/T//ccmZInrG.s 			page 63


 3523 0017 18       		.sleb128 24
 3524 0018 00000000 		.4byte	0
 3525 001c 00000000 		.4byte	0
 3526              	.LLST1:
 3527 0020 06000000 		.4byte	.LVL2
 3528 0024 41000000 		.4byte	.LVL12-1
 3529 0028 0500     		.2byte	0x5
 3530 002a 03       		.byte	0x3
 3531 002b 74000000 		.4byte	SD6+116
 3532 002f 41000000 		.4byte	.LVL12-1
 3533 0033 04010000 		.4byte	.LFE123
 3534 0037 0100     		.2byte	0x1
 3535 0039 55       		.byte	0x55
 3536 003a 00000000 		.4byte	0
 3537 003e 00000000 		.4byte	0
 3538              	.LLST2:
 3539 0042 16000000 		.4byte	.LVL5
 3540 0046 48000000 		.4byte	.LVL14
 3541 004a 0100     		.2byte	0x1
 3542 004c 54       		.byte	0x54
 3543 004d 00000000 		.4byte	0
 3544 0051 00000000 		.4byte	0
 3545              	.LLST3:
 3546 0055 16000000 		.4byte	.LVL5
 3547 0059 48000000 		.4byte	.LVL14
 3548 005d 0600     		.2byte	0x6
 3549 005f 03       		.byte	0x3
 3550 0060 00000000 		.4byte	SD6
 3551 0064 9F       		.byte	0x9f
 3552 0065 00000000 		.4byte	0
 3553 0069 00000000 		.4byte	0
 3554              	.LLST4:
 3555 006d 16000000 		.4byte	.LVL5
 3556 0071 1E000000 		.4byte	.LVL6
 3557 0075 0200     		.2byte	0x2
 3558 0077 30       		.byte	0x30
 3559 0078 9F       		.byte	0x9f
 3560 0079 1E000000 		.4byte	.LVL6
 3561 007d 41000000 		.4byte	.LVL12-1
 3562 0081 0100     		.2byte	0x1
 3563 0083 51       		.byte	0x51
 3564 0084 00000000 		.4byte	0
 3565 0088 00000000 		.4byte	0
 3566              	.LLST5:
 3567 008c 3C000000 		.4byte	.LVL11
 3568 0090 41000000 		.4byte	.LVL12-1
 3569 0094 0100     		.2byte	0x1
 3570 0096 53       		.byte	0x53
 3571 0097 00000000 		.4byte	0
 3572 009b 00000000 		.4byte	0
 3573              	.LLST6:
 3574 009f 48000000 		.4byte	.LVL14
 3575 00a3 4A000000 		.4byte	.LVL15
 3576 00a7 0100     		.2byte	0x1
 3577 00a9 53       		.byte	0x53
 3578 00aa 00000000 		.4byte	0
 3579 00ae 00000000 		.4byte	0
ARM GAS  /var/folders/5n/p_75w94d66l9ssrldxqdhh700000gn/T//ccmZInrG.s 			page 64


 3580              	.LLST7:
 3581 00b2 62000000 		.4byte	.LVL20
 3582 00b6 69000000 		.4byte	.LVL21-1
 3583 00ba 0100     		.2byte	0x1
 3584 00bc 53       		.byte	0x53
 3585 00bd 00000000 		.4byte	0
 3586 00c1 00000000 		.4byte	0
 3587              	.LLST8:
 3588 00c5 70000000 		.4byte	.LVL23
 3589 00c9 74000000 		.4byte	.LVL24
 3590 00cd 0100     		.2byte	0x1
 3591 00cf 53       		.byte	0x53
 3592 00d0 00000000 		.4byte	0
 3593 00d4 00000000 		.4byte	0
 3594              	.LLST9:
 3595 00d8 92000000 		.4byte	.LVL26
 3596 00dc 99000000 		.4byte	.LVL27-1
 3597 00e0 0100     		.2byte	0x1
 3598 00e2 53       		.byte	0x53
 3599 00e3 00000000 		.4byte	0
 3600 00e7 00000000 		.4byte	0
 3601              	.LLST10:
 3602 00eb 50000000 		.4byte	.LVL16
 3603 00ef 5A000000 		.4byte	.LVL18
 3604 00f3 0100     		.2byte	0x1
 3605 00f5 53       		.byte	0x53
 3606 00f6 A0000000 		.4byte	.LVL28
 3607 00fa A2000000 		.4byte	.LVL29
 3608 00fe 0100     		.2byte	0x1
 3609 0100 53       		.byte	0x53
 3610 0101 C6000000 		.4byte	.LVL36
 3611 0105 C8000000 		.4byte	.LVL37
 3612 0109 0100     		.2byte	0x1
 3613 010b 53       		.byte	0x53
 3614 010c 00000000 		.4byte	0
 3615 0110 00000000 		.4byte	0
 3616              	.LLST11:
 3617 0114 A8000000 		.4byte	.LVL31
 3618 0118 B1000000 		.4byte	.LVL32-1
 3619 011c 0100     		.2byte	0x1
 3620 011e 53       		.byte	0x53
 3621 011f 00000000 		.4byte	0
 3622 0123 00000000 		.4byte	0
 3623              	.LLST12:
 3624 0127 B8000000 		.4byte	.LVL34
 3625 012b BA000000 		.4byte	.LVL35
 3626 012f 0100     		.2byte	0x1
 3627 0131 53       		.byte	0x53
 3628 0132 00000000 		.4byte	0
 3629 0136 00000000 		.4byte	0
 3630              	.LLST13:
 3631 013a D2000000 		.4byte	.LVL39
 3632 013e D8000000 		.4byte	.LVL40
 3633 0142 0100     		.2byte	0x1
 3634 0144 50       		.byte	0x50
 3635 0145 00000000 		.4byte	0
 3636 0149 00000000 		.4byte	0
ARM GAS  /var/folders/5n/p_75w94d66l9ssrldxqdhh700000gn/T//ccmZInrG.s 			page 65


 3637              	.LLST14:
 3638 014d CC000000 		.4byte	.LVL38
 3639 0151 D1000000 		.4byte	.LVL39-1
 3640 0155 0100     		.2byte	0x1
 3641 0157 53       		.byte	0x53
 3642 0158 00000000 		.4byte	0
 3643 015c 00000000 		.4byte	0
 3644              	.LLST15:
 3645 0160 58000000 		.4byte	.LVL17
 3646 0164 5A000000 		.4byte	.LVL18
 3647 0168 0100     		.2byte	0x1
 3648 016a 53       		.byte	0x53
 3649 016b E2000000 		.4byte	.LVL41
 3650 016f E4000000 		.4byte	.LVL42
 3651 0173 0100     		.2byte	0x1
 3652 0175 53       		.byte	0x53
 3653 0176 00000000 		.4byte	0
 3654 017a 00000000 		.4byte	0
 3655              	.LLST16:
 3656 017e 00000000 		.4byte	.LFB124
 3657 0182 02000000 		.4byte	.LCFI1
 3658 0186 0200     		.2byte	0x2
 3659 0188 7D       		.byte	0x7d
 3660 0189 00       		.sleb128 0
 3661 018a 02000000 		.4byte	.LCFI1
 3662 018e 26000000 		.4byte	.LFE124
 3663 0192 0200     		.2byte	0x2
 3664 0194 7D       		.byte	0x7d
 3665 0195 08       		.sleb128 8
 3666 0196 00000000 		.4byte	0
 3667 019a 00000000 		.4byte	0
 3668              	.LLST17:
 3669 019e 00000000 		.4byte	.LFB125
 3670 01a2 02000000 		.4byte	.LCFI2
 3671 01a6 0200     		.2byte	0x2
 3672 01a8 7D       		.byte	0x7d
 3673 01a9 00       		.sleb128 0
 3674 01aa 02000000 		.4byte	.LCFI2
 3675 01ae 9C000000 		.4byte	.LFE125
 3676 01b2 0200     		.2byte	0x2
 3677 01b4 7D       		.byte	0x7d
 3678 01b5 10       		.sleb128 16
 3679 01b6 00000000 		.4byte	0
 3680 01ba 00000000 		.4byte	0
 3681              	.LLST18:
 3682 01be 00000000 		.4byte	.LVL43
 3683 01c2 12000000 		.4byte	.LVL45
 3684 01c6 0100     		.2byte	0x1
 3685 01c8 50       		.byte	0x50
 3686 01c9 12000000 		.4byte	.LVL45
 3687 01cd 9C000000 		.4byte	.LFE125
 3688 01d1 0100     		.2byte	0x1
 3689 01d3 55       		.byte	0x55
 3690 01d4 00000000 		.4byte	0
 3691 01d8 00000000 		.4byte	0
 3692              	.LLST19:
 3693 01dc 00000000 		.4byte	.LVL43
ARM GAS  /var/folders/5n/p_75w94d66l9ssrldxqdhh700000gn/T//ccmZInrG.s 			page 66


 3694 01e0 0C000000 		.4byte	.LVL44
 3695 01e4 0100     		.2byte	0x1
 3696 01e6 51       		.byte	0x51
 3697 01e7 0C000000 		.4byte	.LVL44
 3698 01eb 9C000000 		.4byte	.LFE125
 3699 01ef 0100     		.2byte	0x1
 3700 01f1 54       		.byte	0x54
 3701 01f2 00000000 		.4byte	0
 3702 01f6 00000000 		.4byte	0
 3703              	.LLST20:
 3704 01fa 12000000 		.4byte	.LVL45
 3705 01fe 74000000 		.4byte	.LVL47
 3706 0202 0100     		.2byte	0x1
 3707 0204 54       		.byte	0x54
 3708 0205 00000000 		.4byte	0
 3709 0209 00000000 		.4byte	0
 3710              	.LLST21:
 3711 020d 12000000 		.4byte	.LVL45
 3712 0211 74000000 		.4byte	.LVL47
 3713 0215 0100     		.2byte	0x1
 3714 0217 55       		.byte	0x55
 3715 0218 00000000 		.4byte	0
 3716 021c 00000000 		.4byte	0
 3717              	.LLST22:
 3718 0220 14000000 		.4byte	.LVL46
 3719 0224 74000000 		.4byte	.LVL47
 3720 0228 0300     		.2byte	0x3
 3721 022a 75       		.byte	0x75
 3722 022b F400     		.sleb128 116
 3723 022d 00000000 		.4byte	0
 3724 0231 00000000 		.4byte	0
 3725              	.LLST23:
 3726 0235 00000000 		.4byte	.LVL48
 3727 0239 22000000 		.4byte	.LVL51
 3728 023d 0100     		.2byte	0x1
 3729 023f 50       		.byte	0x50
 3730 0240 00000000 		.4byte	0
 3731 0244 00000000 		.4byte	0
 3732              	.LLST24:
 3733 0248 0A000000 		.4byte	.LVL50
 3734 024c 22000000 		.4byte	.LVL51
 3735 0250 0300     		.2byte	0x3
 3736 0252 70       		.byte	0x70
 3737 0253 F400     		.sleb128 116
 3738 0255 00000000 		.4byte	0
 3739 0259 00000000 		.4byte	0
 3740              		.section	.debug_aranges,"",%progbits
 3741 0000 3C000000 		.4byte	0x3c
 3742 0004 0200     		.2byte	0x2
 3743 0006 00000000 		.4byte	.Ldebug_info0
 3744 000a 04       		.byte	0x4
 3745 000b 00       		.byte	0
 3746 000c 0000     		.2byte	0
 3747 000e 0000     		.2byte	0
 3748 0010 00000000 		.4byte	.LFB122
 3749 0014 14000000 		.4byte	.LFE122-.LFB122
 3750 0018 00000000 		.4byte	.LFB123
ARM GAS  /var/folders/5n/p_75w94d66l9ssrldxqdhh700000gn/T//ccmZInrG.s 			page 67


 3751 001c 04010000 		.4byte	.LFE123-.LFB123
 3752 0020 00000000 		.4byte	.LFB124
 3753 0024 26000000 		.4byte	.LFE124-.LFB124
 3754 0028 00000000 		.4byte	.LFB125
 3755 002c 9C000000 		.4byte	.LFE125-.LFB125
 3756 0030 00000000 		.4byte	.LFB126
 3757 0034 34000000 		.4byte	.LFE126-.LFB126
 3758 0038 00000000 		.4byte	0
 3759 003c 00000000 		.4byte	0
 3760              		.section	.debug_ranges,"",%progbits
 3761              	.Ldebug_ranges0:
 3762 0000 02000000 		.4byte	.LBB47
 3763 0004 84000000 		.4byte	.LBE47
 3764 0008 8C000000 		.4byte	.LBB63
 3765 000c 04010000 		.4byte	.LBE63
 3766 0010 00000000 		.4byte	0
 3767 0014 00000000 		.4byte	0
 3768 0018 02000000 		.4byte	.LBB48
 3769 001c 84000000 		.4byte	.LBE48
 3770 0020 8C000000 		.4byte	.LBB62
 3771 0024 04010000 		.4byte	.LBE62
 3772 0028 00000000 		.4byte	0
 3773 002c 00000000 		.4byte	0
 3774 0030 00000000 		.4byte	.LFB122
 3775 0034 14000000 		.4byte	.LFE122
 3776 0038 00000000 		.4byte	.LFB123
 3777 003c 04010000 		.4byte	.LFE123
 3778 0040 00000000 		.4byte	.LFB124
 3779 0044 26000000 		.4byte	.LFE124
 3780 0048 00000000 		.4byte	.LFB125
 3781 004c 9C000000 		.4byte	.LFE125
 3782 0050 00000000 		.4byte	.LFB126
 3783 0054 34000000 		.4byte	.LFE126
 3784 0058 00000000 		.4byte	0
 3785 005c 00000000 		.4byte	0
 3786              		.section	.debug_line,"",%progbits
 3787              	.Ldebug_line0:
 3788 0000 E1020000 		.section	.debug_str,"MS",%progbits,1
 3788      02000A02 
 3788      00000201 
 3788      FB0E0D00 
 3788      01010101 
 3789              	.LASF2:
 3790 0000 73697A65 		.ascii	"size_t\000"
 3790      5F7400
 3791              	.LASF128:
 3792 0007 54494D38 		.ascii	"TIM8_UP_TIM13_IRQn\000"
 3792      5F55505F 
 3792      54494D31 
 3792      335F4952 
 3792      516E00
 3793              	.LASF22:
 3794 001a 73797374 		.ascii	"systime_t\000"
 3794      696D655F 
 3794      7400
 3795              	.LASF192:
 3796 0024 504C4C49 		.ascii	"PLLI2SCFGR\000"
ARM GAS  /var/folders/5n/p_75w94d66l9ssrldxqdhh700000gn/T//ccmZInrG.s 			page 68


 3796      32534346 
 3796      475200
 3797              	.LASF27:
 3798 002f 705F6374 		.ascii	"p_ctx\000"
 3798      7800
 3799              	.LASF18:
 3800 0035 74707269 		.ascii	"tprio_t\000"
 3800      6F5F7400 
 3801              	.LASF37:
 3802 003d 705F6D73 		.ascii	"p_msgqueue\000"
 3802      67717565 
 3802      756500
 3803              	.LASF8:
 3804 0048 696E7433 		.ascii	"int32_t\000"
 3804      325F7400 
 3805              	.LASF210:
 3806 0050 53657269 		.ascii	"SerialConfig\000"
 3806      616C436F 
 3806      6E666967 
 3806      00
 3807              	.LASF216:
 3808 005d 77726974 		.ascii	"writet\000"
 3808      657400
 3809              	.LASF194:
 3810 0064 47545052 		.ascii	"GTPR\000"
 3810      00
 3811              	.LASF212:
 3812 0069 77726974 		.ascii	"write\000"
 3812      6500
 3813              	.LASF141:
 3814 006f 444D4132 		.ascii	"DMA2_Stream1_IRQn\000"
 3814      5F537472 
 3814      65616D31 
 3814      5F495251 
 3814      6E00
 3815              	.LASF135:
 3816 0081 53504933 		.ascii	"SPI3_IRQn\000"
 3816      5F495251 
 3816      6E00
 3817              	.LASF88:
 3818 008b 464C4153 		.ascii	"FLASH_IRQn\000"
 3818      485F4952 
 3818      516E00
 3819              	.LASF162:
 3820 0096 44434D49 		.ascii	"DCMI_IRQn\000"
 3820      5F495251 
 3820      6E00
 3821              	.LASF56:
 3822 00a0 656C5F66 		.ascii	"el_flags\000"
 3822      6C616773 
 3822      00
 3823              	.LASF220:
 3824 00a9 636F6E66 		.ascii	"config\000"
 3824      696700
 3825              	.LASF202:
 3826 00b0 73746174 		.ascii	"state\000"
 3826      6500
ARM GAS  /var/folders/5n/p_75w94d66l9ssrldxqdhh700000gn/T//ccmZInrG.s 			page 69


 3827              	.LASF214:
 3828 00b6 70757474 		.ascii	"putt\000"
 3828      00
 3829              	.LASF112:
 3830 00bb 54494D32 		.ascii	"TIM2_IRQn\000"
 3830      5F495251 
 3830      6E00
 3831              	.LASF222:
 3832 00c5 73657276 		.ascii	"serve_interrupt\000"
 3832      655F696E 
 3832      74657272 
 3832      75707400 
 3833              	.LASF218:
 3834 00d5 7365745F 		.ascii	"set_error\000"
 3834      6572726F 
 3834      7200
 3835              	.LASF148:
 3836 00df 43414E32 		.ascii	"CAN2_RX0_IRQn\000"
 3836      5F525830 
 3836      5F495251 
 3836      6E00
 3837              	.LASF155:
 3838 00ed 55534152 		.ascii	"USART6_IRQn\000"
 3838      54365F49 
 3838      52516E00 
 3839              	.LASF50:
 3840 00f9 6D5F6F77 		.ascii	"m_owner\000"
 3840      6E657200 
 3841              	.LASF60:
 3842 0101 65786974 		.ascii	"exitcode\000"
 3842      636F6465 
 3842      00
 3843              	.LASF160:
 3844 010a 4F54475F 		.ascii	"OTG_HS_WKUP_IRQn\000"
 3844      48535F57 
 3844      4B55505F 
 3844      4952516E 
 3844      00
 3845              	.LASF68:
 3846 011b 715F746F 		.ascii	"q_top\000"
 3846      7000
 3847              	.LASF62:
 3848 0121 65776D61 		.ascii	"ewmask\000"
 3848      736B00
 3849              	.LASF127:
 3850 0128 54494D38 		.ascii	"TIM8_BRK_TIM12_IRQn\000"
 3850      5F42524B 
 3850      5F54494D 
 3850      31325F49 
 3850      52516E00 
 3851              	.LASF183:
 3852 013c 41484232 		.ascii	"AHB2LPENR\000"
 3852      4C50454E 
 3852      5200
 3853              	.LASF217:
 3854 0146 72656164 		.ascii	"readt\000"
 3854      7400
ARM GAS  /var/folders/5n/p_75w94d66l9ssrldxqdhh700000gn/T//ccmZInrG.s 			page 70


 3855              	.LASF224:
 3856 014c 73645F6C 		.ascii	"sd_lld_start\000"
 3856      6C645F73 
 3856      74617274 
 3856      00
 3857              	.LASF67:
 3858 0159 715F6275 		.ascii	"q_buffer\000"
 3858      66666572 
 3858      00
 3859              	.LASF71:
 3860 0162 715F6E6F 		.ascii	"q_notify\000"
 3860      74696679 
 3860      00
 3861              	.LASF28:
 3862 016b 705F6E65 		.ascii	"p_newer\000"
 3862      77657200 
 3863              	.LASF9:
 3864 0173 6C6F6E67 		.ascii	"long int\000"
 3864      20696E74 
 3864      00
 3865              	.LASF24:
 3866 017c 705F6E65 		.ascii	"p_next\000"
 3866      787400
 3867              	.LASF70:
 3868 0183 715F7264 		.ascii	"q_rdptr\000"
 3868      70747200 
 3869              	.LASF25:
 3870 018b 705F7072 		.ascii	"p_prev\000"
 3870      657600
 3871              	.LASF233:
 3872 0192 64656661 		.ascii	"default_config\000"
 3872      756C745F 
 3872      636F6E66 
 3872      696700
 3873              	.LASF152:
 3874 01a1 444D4132 		.ascii	"DMA2_Stream5_IRQn\000"
 3874      5F537472 
 3874      65616D35 
 3874      5F495251 
 3874      6E00
 3875              	.LASF15:
 3876 01b3 74737461 		.ascii	"tstate_t\000"
 3876      74655F74 
 3876      00
 3877              	.LASF40:
 3878 01bc 705F6D74 		.ascii	"p_mtxlist\000"
 3878      786C6973 
 3878      7400
 3879              	.LASF110:
 3880 01c6 54494D31 		.ascii	"TIM1_TRG_COM_TIM11_IRQn\000"
 3880      5F545247 
 3880      5F434F4D 
 3880      5F54494D 
 3880      31315F49 
 3881              	.LASF204:
 3882 01de 6F717565 		.ascii	"oqueue\000"
 3882      756500
ARM GAS  /var/folders/5n/p_75w94d66l9ssrldxqdhh700000gn/T//ccmZInrG.s 			page 71


 3883              	.LASF45:
 3884 01e5 72656761 		.ascii	"regarm_t\000"
 3884      726D5F74 
 3884      00
 3885              	.LASF180:
 3886 01ee 41504232 		.ascii	"APB2ENR\000"
 3886      454E5200 
 3887              	.LASF182:
 3888 01f6 41484231 		.ascii	"AHB1LPENR\000"
 3888      4C50454E 
 3888      5200
 3889              	.LASF83:
 3890 0200 53797354 		.ascii	"SysTick_IRQn\000"
 3890      69636B5F 
 3890      4952516E 
 3890      00
 3891              	.LASF123:
 3892 020d 55534152 		.ascii	"USART3_IRQn\000"
 3892      54335F49 
 3892      52516E00 
 3893              	.LASF205:
 3894 0219 75736172 		.ascii	"usart\000"
 3894      7400
 3895              	.LASF1:
 3896 021f 7369676E 		.ascii	"signed char\000"
 3896      65642063 
 3896      68617200 
 3897              	.LASF34:
 3898 022b 705F7072 		.ascii	"p_preempt\000"
 3898      65656D70 
 3898      7400
 3899              	.LASF3:
 3900 0235 75696E74 		.ascii	"uint8_t\000"
 3900      385F7400 
 3901              	.LASF20:
 3902 023d 6576656E 		.ascii	"eventmask_t\000"
 3902      746D6173 
 3902      6B5F7400 
 3903              	.LASF47:
 3904 0249 636F6E74 		.ascii	"context\000"
 3904      65787400 
 3905              	.LASF97:
 3906 0251 444D4131 		.ascii	"DMA1_Stream2_IRQn\000"
 3906      5F537472 
 3906      65616D32 
 3906      5F495251 
 3906      6E00
 3907              	.LASF171:
 3908 0263 52455345 		.ascii	"RESERVED0\000"
 3908      52564544 
 3908      3000
 3909              	.LASF174:
 3910 026d 52455345 		.ascii	"RESERVED1\000"
 3910      52564544 
 3910      3100
 3911              	.LASF4:
 3912 0277 756E7369 		.ascii	"unsigned char\000"
ARM GAS  /var/folders/5n/p_75w94d66l9ssrldxqdhh700000gn/T//ccmZInrG.s 			page 72


 3912      676E6564 
 3912      20636861 
 3912      7200
 3913              	.LASF144:
 3914 0285 444D4132 		.ascii	"DMA2_Stream4_IRQn\000"
 3914      5F537472 
 3914      65616D34 
 3914      5F495251 
 3914      6E00
 3915              	.LASF185:
 3916 0297 52455345 		.ascii	"RESERVED4\000"
 3916      52564544 
 3916      3400
 3917              	.LASF72:
 3918 02a1 715F6C69 		.ascii	"q_link\000"
 3918      6E6B00
 3919              	.LASF190:
 3920 02a8 52455345 		.ascii	"RESERVED6\000"
 3920      52564544 
 3920      3600
 3921              	.LASF116:
 3922 02b2 49324331 		.ascii	"I2C1_ER_IRQn\000"
 3922      5F45525F 
 3922      4952516E 
 3922      00
 3923              	.LASF150:
 3924 02bf 43414E32 		.ascii	"CAN2_SCE_IRQn\000"
 3924      5F534345 
 3924      5F495251 
 3924      6E00
 3925              	.LASF196:
 3926 02cd 53445F55 		.ascii	"SD_UNINIT\000"
 3926      4E494E49 
 3926      5400
 3927              	.LASF178:
 3928 02d7 52455345 		.ascii	"RESERVED2\000"
 3928      52564544 
 3928      3200
 3929              	.LASF181:
 3930 02e1 52455345 		.ascii	"RESERVED3\000"
 3930      52564544 
 3930      3300
 3931              	.LASF134:
 3932 02eb 54494D35 		.ascii	"TIM5_IRQn\000"
 3932      5F495251 
 3932      6E00
 3933              	.LASF188:
 3934 02f5 52455345 		.ascii	"RESERVED5\000"
 3934      52564544 
 3934      3500
 3935              	.LASF79:
 3936 02ff 55736167 		.ascii	"UsageFault_IRQn\000"
 3936      65466175 
 3936      6C745F49 
 3936      52516E00 
 3937              	.LASF63:
 3938 030f 63686172 		.ascii	"char\000"
ARM GAS  /var/folders/5n/p_75w94d66l9ssrldxqdhh700000gn/T//ccmZInrG.s 			page 73


 3938      00
 3939              	.LASF26:
 3940 0314 705F7072 		.ascii	"p_prio\000"
 3940      696F00
 3941              	.LASF176:
 3942 031b 41484232 		.ascii	"AHB2ENR\000"
 3942      454E5200 
 3943              	.LASF64:
 3944 0323 47656E65 		.ascii	"GenericQueue\000"
 3944      72696351 
 3944      75657565 
 3944      00
 3945              	.LASF61:
 3946 0330 77746F62 		.ascii	"wtobjp\000"
 3946      6A7000
 3947              	.LASF104:
 3948 0337 43414E31 		.ascii	"CAN1_RX0_IRQn\000"
 3948      5F525830 
 3948      5F495251 
 3948      6E00
 3949              	.LASF215:
 3950 0345 67657474 		.ascii	"gett\000"
 3950      00
 3951              	.LASF195:
 3952 034a 55534152 		.ascii	"USART_TypeDef\000"
 3952      545F5479 
 3952      70654465 
 3952      6600
 3953              	.LASF75:
 3954 0358 4F757470 		.ascii	"OutputQueue\000"
 3954      75745175 
 3954      65756500 
 3955              	.LASF114:
 3956 0364 54494D34 		.ascii	"TIM4_IRQn\000"
 3956      5F495251 
 3956      6E00
 3957              	.LASF122:
 3958 036e 55534152 		.ascii	"USART2_IRQn\000"
 3958      54325F49 
 3958      52516E00 
 3959              	.LASF189:
 3960 037a 42444352 		.ascii	"BDCR\000"
 3960      00
 3961              	.LASF115:
 3962 037f 49324331 		.ascii	"I2C1_EV_IRQn\000"
 3962      5F45565F 
 3962      4952516E 
 3962      00
 3963              	.LASF46:
 3964 038c 696E7463 		.ascii	"intctx\000"
 3964      747800
 3965              	.LASF39:
 3966 0393 705F6570 		.ascii	"p_epending\000"
 3966      656E6469 
 3966      6E6700
 3967              	.LASF167:
 3968 039e 43464752 		.ascii	"CFGR\000"
ARM GAS  /var/folders/5n/p_75w94d66l9ssrldxqdhh700000gn/T//ccmZInrG.s 			page 74


 3968      00
 3969              	.LASF111:
 3970 03a3 54494D31 		.ascii	"TIM1_CC_IRQn\000"
 3970      5F43435F 
 3970      4952516E 
 3970      00
 3971              	.LASF164:
 3972 03b0 48415348 		.ascii	"HASH_RNG_IRQn\000"
 3972      5F524E47 
 3972      5F495251 
 3972      6E00
 3973              	.LASF91:
 3974 03be 45585449 		.ascii	"EXTI1_IRQn\000"
 3974      315F4952 
 3974      516E00
 3975              	.LASF103:
 3976 03c9 43414E31 		.ascii	"CAN1_TX_IRQn\000"
 3976      5F54585F 
 3976      4952516E 
 3976      00
 3977              	.LASF100:
 3978 03d6 444D4131 		.ascii	"DMA1_Stream5_IRQn\000"
 3978      5F537472 
 3978      65616D35 
 3978      5F495251 
 3978      6E00
 3979              	.LASF129:
 3980 03e8 54494D38 		.ascii	"TIM8_TRG_COM_TIM14_IRQn\000"
 3980      5F545247 
 3980      5F434F4D 
 3980      5F54494D 
 3980      31345F49 
 3981              	.LASF58:
 3982 0400 65735F6E 		.ascii	"es_next\000"
 3982      65787400 
 3983              	.LASF66:
 3984 0408 715F636F 		.ascii	"q_counter\000"
 3984      756E7465 
 3984      7200
 3985              	.LASF151:
 3986 0412 4F54475F 		.ascii	"OTG_FS_IRQn\000"
 3986      46535F49 
 3986      52516E00 
 3987              	.LASF76:
 3988 041e 4E6F6E4D 		.ascii	"NonMaskableInt_IRQn\000"
 3988      61736B61 
 3988      626C6549 
 3988      6E745F49 
 3988      52516E00 
 3989              	.LASF132:
 3990 0432 46534D43 		.ascii	"FSMC_IRQn\000"
 3990      5F495251 
 3990      6E00
 3991              	.LASF57:
 3992 043c 4576656E 		.ascii	"EventSource\000"
 3992      74536F75 
 3992      72636500 
ARM GAS  /var/folders/5n/p_75w94d66l9ssrldxqdhh700000gn/T//ccmZInrG.s 			page 75


 3993              	.LASF84:
 3994 0448 57574447 		.ascii	"WWDG_IRQn\000"
 3994      5F495251 
 3994      6E00
 3995              	.LASF11:
 3996 0452 6C6F6E67 		.ascii	"long unsigned int\000"
 3996      20756E73 
 3996      69676E65 
 3996      6420696E 
 3996      7400
 3997              	.LASF77:
 3998 0464 4D656D6F 		.ascii	"MemoryManagement_IRQn\000"
 3998      72794D61 
 3998      6E616765 
 3998      6D656E74 
 3998      5F495251 
 3999              	.LASF86:
 4000 047a 54414D50 		.ascii	"TAMP_STAMP_IRQn\000"
 4000      5F535441 
 4000      4D505F49 
 4000      52516E00 
 4001              	.LASF106:
 4002 048a 43414E31 		.ascii	"CAN1_SCE_IRQn\000"
 4002      5F534345 
 4002      5F495251 
 4002      6E00
 4003              	.LASF53:
 4004 0498 656C5F6E 		.ascii	"el_next\000"
 4004      65787400 
 4005              	.LASF69:
 4006 04a0 715F7772 		.ascii	"q_wrptr\000"
 4006      70747200 
 4007              	.LASF211:
 4008 04a8 53657269 		.ascii	"SerialDriverVMT\000"
 4008      616C4472 
 4008      69766572 
 4008      564D5400 
 4009              	.LASF221:
 4010 04b8 75736172 		.ascii	"usart_deinit\000"
 4010      745F6465 
 4010      696E6974 
 4010      00
 4011              	.LASF118:
 4012 04c5 49324332 		.ascii	"I2C2_ER_IRQn\000"
 4012      5F45525F 
 4012      4952516E 
 4012      00
 4013              	.LASF78:
 4014 04d2 42757346 		.ascii	"BusFault_IRQn\000"
 4014      61756C74 
 4014      5F495251 
 4014      6E00
 4015              	.LASF232:
 4016 04e0 73645F6C 		.ascii	"sd_lld_init\000"
 4016      6C645F69 
 4016      6E697400 
 4017              	.LASF166:
ARM GAS  /var/folders/5n/p_75w94d66l9ssrldxqdhh700000gn/T//ccmZInrG.s 			page 76


 4018 04ec 504C4C43 		.ascii	"PLLCFGR\000"
 4018      46475200 
 4019              	.LASF137:
 4020 04f4 55415254 		.ascii	"UART5_IRQn\000"
 4020      355F4952 
 4020      516E00
 4021              	.LASF108:
 4022 04ff 54494D31 		.ascii	"TIM1_BRK_TIM9_IRQn\000"
 4022      5F42524B 
 4022      5F54494D 
 4022      395F4952 
 4022      516E00
 4023              	.LASF207:
 4024 0512 73635F63 		.ascii	"sc_cr1\000"
 4024      723100
 4025              	.LASF208:
 4026 0519 73635F63 		.ascii	"sc_cr2\000"
 4026      723200
 4027              	.LASF209:
 4028 0520 73635F63 		.ascii	"sc_cr3\000"
 4028      723300
 4029              	.LASF48:
 4030 0527 4D757465 		.ascii	"Mutex\000"
 4030      7800
 4031              	.LASF139:
 4032 052d 54494D37 		.ascii	"TIM7_IRQn\000"
 4032      5F495251 
 4032      6E00
 4033              	.LASF12:
 4034 0537 6C6F6E67 		.ascii	"long long int\000"
 4034      206C6F6E 
 4034      6720696E 
 4034      7400
 4035              	.LASF146:
 4036 0545 4554485F 		.ascii	"ETH_WKUP_IRQn\000"
 4036      574B5550 
 4036      5F495251 
 4036      6E00
 4037              	.LASF120:
 4038 0553 53504932 		.ascii	"SPI2_IRQn\000"
 4038      5F495251 
 4038      6E00
 4039              	.LASF161:
 4040 055d 4F54475F 		.ascii	"OTG_HS_IRQn\000"
 4040      48535F49 
 4040      52516E00 
 4041              	.LASF49:
 4042 0569 6D5F7175 		.ascii	"m_queue\000"
 4042      65756500 
 4043              	.LASF191:
 4044 0571 53534347 		.ascii	"SSCGR\000"
 4044      5200
 4045              	.LASF119:
 4046 0577 53504931 		.ascii	"SPI1_IRQn\000"
 4046      5F495251 
 4046      6E00
 4047              	.LASF80:
ARM GAS  /var/folders/5n/p_75w94d66l9ssrldxqdhh700000gn/T//ccmZInrG.s 			page 77


 4048 0581 53564361 		.ascii	"SVCall_IRQn\000"
 4048      6C6C5F49 
 4048      52516E00 
 4049              	.LASF173:
 4050 058d 41504232 		.ascii	"APB2RSTR\000"
 4050      52535452 
 4050      00
 4051              	.LASF165:
 4052 0596 4650555F 		.ascii	"FPU_IRQn\000"
 4052      4952516E 
 4052      00
 4053              	.LASF136:
 4054 059f 55415254 		.ascii	"UART4_IRQn\000"
 4054      345F4952 
 4054      516E00
 4055              	.LASF187:
 4056 05aa 41504232 		.ascii	"APB2LPENR\000"
 4056      4C50454E 
 4056      5200
 4057              	.LASF73:
 4058 05b4 716E6F74 		.ascii	"qnotify_t\000"
 4058      6966795F 
 4058      7400
 4059              	.LASF36:
 4060 05be 705F7761 		.ascii	"p_waiting\000"
 4060      6974696E 
 4060      6700
 4061              	.LASF140:
 4062 05c8 444D4132 		.ascii	"DMA2_Stream0_IRQn\000"
 4062      5F537472 
 4062      65616D30 
 4062      5F495251 
 4062      6E00
 4063              	.LASF201:
 4064 05da 6576656E 		.ascii	"event\000"
 4064      7400
 4065              	.LASF126:
 4066 05e0 4F54475F 		.ascii	"OTG_FS_WKUP_IRQn\000"
 4066      46535F57 
 4066      4B55505F 
 4066      4952516E 
 4066      00
 4067              	.LASF32:
 4068 05f1 705F666C 		.ascii	"p_flags\000"
 4068      61677300 
 4069              	.LASF213:
 4070 05f9 72656164 		.ascii	"read\000"
 4070      00
 4071              	.LASF0:
 4072 05fe 756E7369 		.ascii	"unsigned int\000"
 4072      676E6564 
 4072      20696E74 
 4072      00
 4073              	.LASF138:
 4074 060b 54494D36 		.ascii	"TIM6_DAC_IRQn\000"
 4074      5F444143 
 4074      5F495251 
ARM GAS  /var/folders/5n/p_75w94d66l9ssrldxqdhh700000gn/T//ccmZInrG.s 			page 78


 4074      6E00
 4075              	.LASF42:
 4076 0619 705F6D70 		.ascii	"p_mpool\000"
 4076      6F6F6C00 
 4077              	.LASF117:
 4078 0621 49324332 		.ascii	"I2C2_EV_IRQn\000"
 4078      5F45565F 
 4078      4952516E 
 4078      00
 4079              	.LASF33:
 4080 062e 705F7265 		.ascii	"p_refs\000"
 4080      667300
 4081              	.LASF206:
 4082 0635 73635F73 		.ascii	"sc_speed\000"
 4082      70656564 
 4082      00
 4083              	.LASF44:
 4084 063e 54687265 		.ascii	"ThreadsList\000"
 4084      6164734C 
 4084      69737400 
 4085              	.LASF186:
 4086 064a 41504231 		.ascii	"APB1LPENR\000"
 4086      4C50454E 
 4086      5200
 4087              	.LASF96:
 4088 0654 444D4131 		.ascii	"DMA1_Stream1_IRQn\000"
 4088      5F537472 
 4088      65616D31 
 4088      5F495251 
 4088      6E00
 4089              	.LASF21:
 4090 0666 666C6167 		.ascii	"flagsmask_t\000"
 4090      736D6173 
 4090      6B5F7400 
 4091              	.LASF143:
 4092 0672 444D4132 		.ascii	"DMA2_Stream3_IRQn\000"
 4092      5F537472 
 4092      65616D33 
 4092      5F495251 
 4092      6E00
 4093              	.LASF147:
 4094 0684 43414E32 		.ascii	"CAN2_TX_IRQn\000"
 4094      5F54585F 
 4094      4952516E 
 4094      00
 4095              	.LASF35:
 4096 0691 705F7469 		.ascii	"p_time\000"
 4096      6D6500
 4097              	.LASF230:
 4098 0698 4952516E 		.ascii	"IRQn\000"
 4098      00
 4099              	.LASF101:
 4100 069d 444D4131 		.ascii	"DMA1_Stream6_IRQn\000"
 4100      5F537472 
 4100      65616D36 
 4100      5F495251 
 4100      6E00
ARM GAS  /var/folders/5n/p_75w94d66l9ssrldxqdhh700000gn/T//ccmZInrG.s 			page 79


 4101              	.LASF170:
 4102 06af 41484233 		.ascii	"AHB3RSTR\000"
 4102      52535452 
 4102      00
 4103              	.LASF41:
 4104 06b8 705F7265 		.ascii	"p_realprio\000"
 4104      616C7072 
 4104      696F00
 4105              	.LASF154:
 4106 06c3 444D4132 		.ascii	"DMA2_Stream7_IRQn\000"
 4106      5F537472 
 4106      65616D37 
 4106      5F495251 
 4106      6E00
 4107              	.LASF95:
 4108 06d5 444D4131 		.ascii	"DMA1_Stream0_IRQn\000"
 4108      5F537472 
 4108      65616D30 
 4108      5F495251 
 4108      6E00
 4109              	.LASF172:
 4110 06e7 41504231 		.ascii	"APB1RSTR\000"
 4110      52535452 
 4110      00
 4111              	.LASF219:
 4112 06f0 75736172 		.ascii	"usart_init\000"
 4112      745F696E 
 4112      697400
 4113              	.LASF125:
 4114 06fb 5254435F 		.ascii	"RTC_Alarm_IRQn\000"
 4114      416C6172 
 4114      6D5F4952 
 4114      516E00
 4115              	.LASF179:
 4116 070a 41504231 		.ascii	"APB1ENR\000"
 4116      454E5200 
 4117              	.LASF157:
 4118 0712 49324333 		.ascii	"I2C3_ER_IRQn\000"
 4118      5F45525F 
 4118      4952516E 
 4118      00
 4119              	.LASF163:
 4120 071f 43525950 		.ascii	"CRYP_IRQn\000"
 4120      5F495251 
 4120      6E00
 4121              	.LASF124:
 4122 0729 45585449 		.ascii	"EXTI15_10_IRQn\000"
 4122      31355F31 
 4122      305F4952 
 4122      516E00
 4123              	.LASF13:
 4124 0738 6C6F6E67 		.ascii	"long long unsigned int\000"
 4124      206C6F6E 
 4124      6720756E 
 4124      7369676E 
 4124      65642069 
 4125              	.LASF29:
ARM GAS  /var/folders/5n/p_75w94d66l9ssrldxqdhh700000gn/T//ccmZInrG.s 			page 80


 4126 074f 705F6F6C 		.ascii	"p_older\000"
 4126      64657200 
 4127              	.LASF6:
 4128 0757 75696E74 		.ascii	"uint16_t\000"
 4128      31365F74 
 4128      00
 4129              	.LASF19:
 4130 0760 6D73675F 		.ascii	"msg_t\000"
 4130      7400
 4131              	.LASF113:
 4132 0766 54494D33 		.ascii	"TIM3_IRQn\000"
 4132      5F495251 
 4132      6E00
 4133              	.LASF228:
 4134 0770 2E2E2F2E 		.ascii	"../../os/hal/platforms/STM32/serial_lld.c\000"
 4134      2E2F6F73 
 4134      2F68616C 
 4134      2F706C61 
 4134      74666F72 
 4135              	.LASF121:
 4136 079a 55534152 		.ascii	"USART1_IRQn\000"
 4136      54315F49 
 4136      52516E00 
 4137              	.LASF17:
 4138 07a6 74736C69 		.ascii	"tslices_t\000"
 4138      6365735F 
 4138      7400
 4139              	.LASF92:
 4140 07b0 45585449 		.ascii	"EXTI2_IRQn\000"
 4140      325F4952 
 4140      516E00
 4141              	.LASF149:
 4142 07bb 43414E32 		.ascii	"CAN2_RX1_IRQn\000"
 4142      5F525831 
 4142      5F495251 
 4142      6E00
 4143              	.LASF102:
 4144 07c9 4144435F 		.ascii	"ADC_IRQn\000"
 4144      4952516E 
 4144      00
 4145              	.LASF184:
 4146 07d2 41484233 		.ascii	"AHB3LPENR\000"
 4146      4C50454E 
 4146      5200
 4147              	.LASF85:
 4148 07dc 5056445F 		.ascii	"PVD_IRQn\000"
 4148      4952516E 
 4148      00
 4149              	.LASF200:
 4150 07e5 53657269 		.ascii	"SerialDriver\000"
 4150      616C4472 
 4150      69766572 
 4150      00
 4151              	.LASF65:
 4152 07f2 715F7761 		.ascii	"q_waiting\000"
 4152      6974696E 
 4152      6700
ARM GAS  /var/folders/5n/p_75w94d66l9ssrldxqdhh700000gn/T//ccmZInrG.s 			page 81


 4153              	.LASF90:
 4154 07fc 45585449 		.ascii	"EXTI0_IRQn\000"
 4154      305F4952 
 4154      516E00
 4155              	.LASF14:
 4156 0807 746D6F64 		.ascii	"tmode_t\000"
 4156      655F7400 
 4157              	.LASF99:
 4158 080f 444D4131 		.ascii	"DMA1_Stream4_IRQn\000"
 4158      5F537472 
 4158      65616D34 
 4158      5F495251 
 4158      6E00
 4159              	.LASF199:
 4160 0821 73647374 		.ascii	"sdstate_t\000"
 4160      6174655F 
 4160      7400
 4161              	.LASF153:
 4162 082b 444D4132 		.ascii	"DMA2_Stream6_IRQn\000"
 4162      5F537472 
 4162      65616D36 
 4162      5F495251 
 4162      6E00
 4163              	.LASF175:
 4164 083d 41484231 		.ascii	"AHB1ENR\000"
 4164      454E5200 
 4165              	.LASF81:
 4166 0845 44656275 		.ascii	"DebugMonitor_IRQn\000"
 4166      674D6F6E 
 4166      69746F72 
 4166      5F495251 
 4166      6E00
 4167              	.LASF198:
 4168 0857 53445F52 		.ascii	"SD_READY\000"
 4168      45414459 
 4168      00
 4169              	.LASF156:
 4170 0860 49324333 		.ascii	"I2C3_EV_IRQn\000"
 4170      5F45565F 
 4170      4952516E 
 4170      00
 4171              	.LASF169:
 4172 086d 41484232 		.ascii	"AHB2RSTR\000"
 4172      52535452 
 4172      00
 4173              	.LASF145:
 4174 0876 4554485F 		.ascii	"ETH_IRQn\000"
 4174      4952516E 
 4174      00
 4175              	.LASF231:
 4176 087f 6E6F7469 		.ascii	"notify6\000"
 4176      66793600 
 4177              	.LASF193:
 4178 0887 5243435F 		.ascii	"RCC_TypeDef\000"
 4178      54797065 
 4178      44656600 
 4179              	.LASF223:
ARM GAS  /var/folders/5n/p_75w94d66l9ssrldxqdhh700000gn/T//ccmZInrG.s 			page 82


 4180 0893 56656374 		.ascii	"Vector15C\000"
 4180      6F723135 
 4180      4300
 4181              	.LASF5:
 4182 089d 73686F72 		.ascii	"short int\000"
 4182      7420696E 
 4182      7400
 4183              	.LASF89:
 4184 08a7 5243435F 		.ascii	"RCC_IRQn\000"
 4184      4952516E 
 4184      00
 4185              	.LASF203:
 4186 08b0 69717565 		.ascii	"iqueue\000"
 4186      756500
 4187              	.LASF98:
 4188 08b7 444D4131 		.ascii	"DMA1_Stream3_IRQn\000"
 4188      5F537472 
 4188      65616D33 
 4188      5F495251 
 4188      6E00
 4189              	.LASF23:
 4190 08c9 54687265 		.ascii	"Thread\000"
 4190      616400
 4191              	.LASF109:
 4192 08d0 54494D31 		.ascii	"TIM1_UP_TIM10_IRQn\000"
 4192      5F55505F 
 4192      54494D31 
 4192      305F4952 
 4192      516E00
 4193              	.LASF226:
 4194 08e3 49544D5F 		.ascii	"ITM_RxBuffer\000"
 4194      52784275 
 4194      66666572 
 4194      00
 4195              	.LASF16:
 4196 08f0 74726566 		.ascii	"trefs_t\000"
 4196      735F7400 
 4197              	.LASF158:
 4198 08f8 4F54475F 		.ascii	"OTG_HS_EP1_OUT_IRQn\000"
 4198      48535F45 
 4198      50315F4F 
 4198      55545F49 
 4198      52516E00 
 4199              	.LASF87:
 4200 090c 5254435F 		.ascii	"RTC_WKUP_IRQn\000"
 4200      574B5550 
 4200      5F495251 
 4200      6E00
 4201              	.LASF52:
 4202 091a 4576656E 		.ascii	"EventListener\000"
 4202      744C6973 
 4202      74656E65 
 4202      7200
 4203              	.LASF227:
 4204 0928 474E5520 		.ascii	"GNU C 4.6.2 20111004 (prerelease)\000"
 4204      4320342E 
 4204      362E3220 
ARM GAS  /var/folders/5n/p_75w94d66l9ssrldxqdhh700000gn/T//ccmZInrG.s 			page 83


 4204      32303131 
 4204      31303034 
 4205              	.LASF10:
 4206 094a 75696E74 		.ascii	"uint32_t\000"
 4206      33325F74 
 4206      00
 4207              	.LASF105:
 4208 0953 43414E31 		.ascii	"CAN1_RX1_IRQn\000"
 4208      5F525831 
 4208      5F495251 
 4208      6E00
 4209              	.LASF43:
 4210 0961 54687265 		.ascii	"ThreadsQueue\000"
 4210      61647351 
 4210      75657565 
 4210      00
 4211              	.LASF229:
 4212 096e 2F557365 		.ascii	"/Users/sin/Documents/Eclipse/Workspace/mabl-ChibiOS"
 4212      72732F73 
 4212      696E2F44 
 4212      6F63756D 
 4212      656E7473 
 4213 09a1 2D322E35 		.ascii	"-2.5.1/demos/ARMCM4-STM32F407-LWIP\000"
 4213      2E312F64 
 4213      656D6F73 
 4213      2F41524D 
 4213      434D342D 
 4214              	.LASF107:
 4215 09c4 45585449 		.ascii	"EXTI9_5_IRQn\000"
 4215      395F355F 
 4215      4952516E 
 4215      00
 4216              	.LASF59:
 4217 09d1 7264796D 		.ascii	"rdymsg\000"
 4217      736700
 4218              	.LASF94:
 4219 09d8 45585449 		.ascii	"EXTI4_IRQn\000"
 4219      345F4952 
 4219      516E00
 4220              	.LASF7:
 4221 09e3 73686F72 		.ascii	"short unsigned int\000"
 4221      7420756E 
 4221      7369676E 
 4221      65642069 
 4221      6E7400
 4222              	.LASF225:
 4223 09f6 73645F6C 		.ascii	"sd_lld_stop\000"
 4223      6C645F73 
 4223      746F7000 
 4224              	.LASF130:
 4225 0a02 54494D38 		.ascii	"TIM8_CC_IRQn\000"
 4225      5F43435F 
 4225      4952516E 
 4225      00
 4226              	.LASF133:
 4227 0a0f 5344494F 		.ascii	"SDIO_IRQn\000"
 4227      5F495251 
ARM GAS  /var/folders/5n/p_75w94d66l9ssrldxqdhh700000gn/T//ccmZInrG.s 			page 84


 4227      6E00
 4228              	.LASF74:
 4229 0a19 496E7075 		.ascii	"InputQueue\000"
 4229      74517565 
 4229      756500
 4230              	.LASF93:
 4231 0a24 45585449 		.ascii	"EXTI3_IRQn\000"
 4231      335F4952 
 4231      516E00
 4232              	.LASF82:
 4233 0a2f 50656E64 		.ascii	"PendSV_IRQn\000"
 4233      53565F49 
 4233      52516E00 
 4234              	.LASF159:
 4235 0a3b 4F54475F 		.ascii	"OTG_HS_EP1_IN_IRQn\000"
 4235      48535F45 
 4235      50315F49 
 4235      4E5F4952 
 4235      516E00
 4236              	.LASF131:
 4237 0a4e 444D4131 		.ascii	"DMA1_Stream7_IRQn\000"
 4237      5F537472 
 4237      65616D37 
 4237      5F495251 
 4237      6E00
 4238              	.LASF168:
 4239 0a60 41484231 		.ascii	"AHB1RSTR\000"
 4239      52535452 
 4239      00
 4240              	.LASF197:
 4241 0a69 53445F53 		.ascii	"SD_STOP\000"
 4241      544F5000 
 4242              	.LASF55:
 4243 0a71 656C5F6D 		.ascii	"el_mask\000"
 4243      61736B00 
 4244              	.LASF30:
 4245 0a79 705F6E61 		.ascii	"p_name\000"
 4245      6D6500
 4246              	.LASF51:
 4247 0a80 6D5F6E65 		.ascii	"m_next\000"
 4247      787400
 4248              	.LASF177:
 4249 0a87 41484233 		.ascii	"AHB3ENR\000"
 4249      454E5200 
 4250              	.LASF142:
 4251 0a8f 444D4132 		.ascii	"DMA2_Stream2_IRQn\000"
 4251      5F537472 
 4251      65616D32 
 4251      5F495251 
 4251      6E00
 4252              	.LASF38:
 4253 0aa1 705F6D73 		.ascii	"p_msg\000"
 4253      6700
 4254              	.LASF54:
 4255 0aa7 656C5F6C 		.ascii	"el_listener\000"
 4255      69737465 
 4255      6E657200 
ARM GAS  /var/folders/5n/p_75w94d66l9ssrldxqdhh700000gn/T//ccmZInrG.s 			page 85


 4256              	.LASF31:
 4257 0ab3 705F7374 		.ascii	"p_state\000"
 4257      61746500 
 4258              		.ident	"GCC: (Linaro GCC 4.6-2011.10) 4.6.2 20111004 (prerelease)"
ARM GAS  /var/folders/5n/p_75w94d66l9ssrldxqdhh700000gn/T//ccmZInrG.s 			page 86


DEFINED SYMBOLS
                            *ABS*:0000000000000000 serial_lld.c
/var/folders/5n/p_75w94d66l9ssrldxqdhh700000gn/T//ccmZInrG.s:18     .text.notify6:0000000000000000 $t
/var/folders/5n/p_75w94d66l9ssrldxqdhh700000gn/T//ccmZInrG.s:23     .text.notify6:0000000000000000 notify6
/var/folders/5n/p_75w94d66l9ssrldxqdhh700000gn/T//ccmZInrG.s:45     .text.Vector15C:0000000000000000 $t
/var/folders/5n/p_75w94d66l9ssrldxqdhh700000gn/T//ccmZInrG.s:51     .text.Vector15C:0000000000000000 Vector15C
/var/folders/5n/p_75w94d66l9ssrldxqdhh700000gn/T//ccmZInrG.s:323    .text.Vector15C:00000000000000f8 $d
/var/folders/5n/p_75w94d66l9ssrldxqdhh700000gn/T//ccmZInrG.s:333    .text.sd_lld_init:0000000000000000 $t
/var/folders/5n/p_75w94d66l9ssrldxqdhh700000gn/T//ccmZInrG.s:339    .text.sd_lld_init:0000000000000000 sd_lld_init
/var/folders/5n/p_75w94d66l9ssrldxqdhh700000gn/T//ccmZInrG.s:569    .bss.SD6:0000000000000000 .LANCHOR0
/var/folders/5n/p_75w94d66l9ssrldxqdhh700000gn/T//ccmZInrG.s:368    .text.sd_lld_start:0000000000000000 $t
/var/folders/5n/p_75w94d66l9ssrldxqdhh700000gn/T//ccmZInrG.s:374    .text.sd_lld_start:0000000000000000 sd_lld_start
/var/folders/5n/p_75w94d66l9ssrldxqdhh700000gn/T//ccmZInrG.s:489    .text.sd_lld_start:0000000000000094 $d
/var/folders/5n/p_75w94d66l9ssrldxqdhh700000gn/T//ccmZInrG.s:495    .text.sd_lld_stop:0000000000000000 $t
/var/folders/5n/p_75w94d66l9ssrldxqdhh700000gn/T//ccmZInrG.s:501    .text.sd_lld_stop:0000000000000000 sd_lld_stop
/var/folders/5n/p_75w94d66l9ssrldxqdhh700000gn/T//ccmZInrG.s:551    .text.sd_lld_stop:0000000000000030 $d
/var/folders/5n/p_75w94d66l9ssrldxqdhh700000gn/T//ccmZInrG.s:572    .bss.SD6:0000000000000000 SD6
/var/folders/5n/p_75w94d66l9ssrldxqdhh700000gn/T//ccmZInrG.s:557    .rodata.default_config:0000000000000000 $d
/var/folders/5n/p_75w94d66l9ssrldxqdhh700000gn/T//ccmZInrG.s:561    .rodata.default_config:0000000000000000 default_config
/var/folders/5n/p_75w94d66l9ssrldxqdhh700000gn/T//ccmZInrG.s:568    .bss.SD6:0000000000000000 $d
                     .debug_frame:0000000000000010 $d
/var/folders/5n/p_75w94d66l9ssrldxqdhh700000gn/T//ccmZInrG.s:332    .text.Vector15C:0000000000000104 $t
/var/folders/5n/p_75w94d66l9ssrldxqdhh700000gn/T//ccmZInrG.s:494    .text.sd_lld_start:000000000000009c $t
/var/folders/5n/p_75w94d66l9ssrldxqdhh700000gn/T//ccmZInrG.s:556    .text.sd_lld_stop:0000000000000034 $t

UNDEFINED SYMBOLS
chEvtBroadcastFlagsI
_port_irq_epilogue
sdIncomingDataI
chOQGetI
sdObjectInit
nvicEnableVector
nvicDisableVector
