ARM GAS  /var/folders/5n/p_75w94d66l9ssrldxqdhh700000gn/T//ccmZInrG.s 			page 1


   1              		.syntax unified
   2              		.cpu cortex-m4
   3              		.fpu softvfp
   4              		.eabi_attribute 20, 1
   5              		.eabi_attribute 21, 1
   6              		.eabi_attribute 23, 3
   7              		.eabi_attribute 24, 1
   8              		.eabi_attribute 25, 1
   9              		.eabi_attribute 26, 1
  10              		.eabi_attribute 30, 2
  11              		.eabi_attribute 18, 4
  12              		.thumb
  13              		.file	"serial_lld.c"
  14              		.text
  15              	.Ltext0:
  16              		.cfi_sections	.debug_frame
  17              		.section	.text.notify6,"ax",%progbits
  18              		.align	2
  19              		.p2align 4,,15
  20              		.thumb
  21              		.thumb_func
  22              		.type	notify6, %function
  23              	notify6:
  24              	.LFB122:
  25              		.file 1 "../../os/hal/platforms/STM32/serial_lld.c"
  26              		.loc 1 363 0
  27              		.cfi_startproc
  28              		@ args = 0, pretend = 0, frame = 0
  29              		@ frame_needed = 0, uses_anonymous_args = 0
  30              		@ link register save eliminated.
  31              	.LVL0:
  32              		.loc 1 366 0
  33 0000 4FF4A053 		mov	r3, #5120
  34 0004 C4F20103 		movt	r3, 16385
  35 0008 9A89     		ldrh	r2, [r3, #12]
  36 000a 92B2     		uxth	r2, r2
  37 000c 42F08002 		orr	r2, r2, #128
  38 0010 9A81     		strh	r2, [r3, #12]	@ movhi
  39              		.loc 1 367 0
  40 0012 7047     		bx	lr
  41              		.cfi_endproc
  42              	.LFE122:
  43              		.size	notify6, .-notify6
  44 0014 AFF30080 		.section	.text.Vector15C,"ax",%progbits
  44      AFF30080 
  44      AFF30080 
  45              		.align	2
  46              		.p2align 4,,15
  47              		.global	Vector15C
  48              		.thumb
  49              		.thumb_func
  50              		.type	Vector15C, %function
  51              	Vector15C:
  52              	.LFB123:
  53              		.loc 1 478 0
  54              		.cfi_startproc
  55              		@ args = 0, pretend = 0, frame = 0
ARM GAS  /var/folders/5n/p_75w94d66l9ssrldxqdhh700000gn/T//ccmZInrG.s 			page 2


  56              		@ frame_needed = 0, uses_anonymous_args = 0
  57              	.LVL1:
  58 0000 F8B5     		push	{r3, r4, r5, r6, r7, lr}
  59              	.LCFI0:
  60              		.cfi_def_cfa_offset 24
  61              		.cfi_offset 14, -4
  62              		.cfi_offset 7, -8
  63              		.cfi_offset 6, -12
  64              		.cfi_offset 5, -16
  65              		.cfi_offset 4, -20
  66              		.cfi_offset 3, -24
  67              	.LBB47:
  68              	.LBB48:
  69              		.loc 1 276 0
  70 0002 3D4B     		ldr	r3, .L20
  71 0004 5D6F     		ldr	r5, [r3, #116]
  72              	.LVL2:
  73              		.loc 1 277 0
  74 0006 AE89     		ldrh	r6, [r5, #12]
  75              		.loc 1 278 0
  76 0008 2C88     		ldrh	r4, [r5, #0]
  77              		.loc 1 279 0
  78 000a AF88     		ldrh	r7, [r5, #4]
  79              		.loc 1 278 0
  80 000c A4B2     		uxth	r4, r4
  81              		.loc 1 282 0
  82 000e 2207     		lsls	r2, r4, #28
  83              		.loc 1 277 0
  84 0010 B6B2     		uxth	r6, r6
  85              	.LVL3:
  86              		.loc 1 279 0
  87 0012 BFB2     		uxth	r7, r7
  88              	.LVL4:
  89              		.loc 1 282 0
  90 0014 18D0     		beq	.L3
  91              	.LVL5:
  92              	.LBB49:
  93              	.LBB50:
  94              		.loc 1 257 0
  95 0016 14F00801 		ands	r1, r4, #8
  96              		.loc 1 258 0
  97 001a 18BF     		it	ne
  98 001c 8021     		movne	r1, #128
  99              	.LVL6:
 100              		.loc 1 259 0
 101 001e E307     		lsls	r3, r4, #31
 102              		.loc 1 260 0
 103 0020 48BF     		it	mi
 104 0022 41F02001 		orrmi	r1, r1, #32
 105              	.LVL7:
 106              		.loc 1 261 0
 107 0026 A007     		lsls	r0, r4, #30
 108              		.loc 1 262 0
 109 0028 48BF     		it	mi
 110 002a 41F04001 		orrmi	r1, r1, #64
 111              	.LVL8:
 112              		.loc 1 263 0
ARM GAS  /var/folders/5n/p_75w94d66l9ssrldxqdhh700000gn/T//ccmZInrG.s 			page 3


 113 002e 6207     		lsls	r2, r4, #29
 114              		.loc 1 264 0
 115 0030 48BF     		it	mi
 116 0032 41F48071 		orrmi	r1, r1, #256
 117              	.LVL9:
 118              	.LBB51:
 119              		.loc 1 265 0
 120 0036 2023     		movs	r3, #32
 121              	.LVL10:
 122              	@ 265 "../../os/hal/platforms/STM32/serial_lld.c" 1
 123 0038 83F31188 		msr     BASEPRI, r3
 124              	@ 0 "" 2
 125              	.LVL11:
 126              		.thumb
 127              	.LBE51:
 128              		.loc 1 266 0
 129 003c 2F48     		ldr	r0, .L20+4
 130 003e FFF7FEFF 		bl	chEvtBroadcastFlagsI
 131              	.LVL12:
 132              	.LBB52:
 133              		.loc 1 267 0
 134 0042 0023     		movs	r3, #0
 135              	.LVL13:
 136              	@ 267 "../../os/hal/platforms/STM32/serial_lld.c" 1
 137 0044 83F31188 		msr     BASEPRI, r3
 138              	@ 0 "" 2
 139              	.LVL14:
 140              		.thumb
 141              	.L3:
 142              	.LBE52:
 143              	.LBE50:
 144              	.LBE49:
 145              		.loc 1 285 0
 146 0048 E305     		lsls	r3, r4, #23
 147              	.LVL15:
 148 004a 2AD4     		bmi	.L16
 149              	.L8:
 150              		.loc 1 292 0
 151 004c A006     		lsls	r0, r4, #26
 152 004e 1DD4     		bmi	.L17
 153              	.LVL16:
 154              	.L9:
 155              		.loc 1 298 0
 156 0050 3106     		lsls	r1, r6, #24
 157 0052 01D5     		bpl	.L10
 158 0054 2206     		lsls	r2, r4, #24
 159 0056 36D4     		bmi	.L18
 160              	.LVL17:
 161              	.L10:
 162              		.loc 1 311 0
 163 0058 6306     		lsls	r3, r4, #25
 164              	.LVL18:
 165 005a 13D5     		bpl	.L13
 166              	.LBB53:
 167              		.loc 1 312 0
 168 005c 2023     		movs	r3, #32
 169              	.LVL19:
ARM GAS  /var/folders/5n/p_75w94d66l9ssrldxqdhh700000gn/T//ccmZInrG.s 			page 4


 170              	@ 312 "../../os/hal/platforms/STM32/serial_lld.c" 1
 171 005e 83F31188 		msr     BASEPRI, r3
 172              	@ 0 "" 2
 173              	.LVL20:
 174              		.thumb
 175              	.LBE53:
 176              		.loc 1 313 0
 177 0062 2648     		ldr	r0, .L20+4
 178 0064 1021     		movs	r1, #16
 179 0066 FFF7FEFF 		bl	chEvtBroadcastFlagsI
 180              	.LVL21:
 181              	.LBB54:
 182              		.loc 1 314 0
 183 006a 0023     		movs	r3, #0
 184              	.LVL22:
 185              	@ 314 "../../os/hal/platforms/STM32/serial_lld.c" 1
 186 006c 83F31188 		msr     BASEPRI, r3
 187              	@ 0 "" 2
 188              	.LVL23:
 189              		.thumb
 190              	.LBE54:
 191              		.loc 1 315 0
 192 0070 4FF6BF73 		movw	r3, #65471
 193              	.LVL24:
 194 0074 3340     		ands	r3, r3, r6
 195 0076 AB81     		strh	r3, [r5, #12]	@ movhi
 196              		.loc 1 316 0
 197 0078 2B88     		ldrh	r3, [r5, #0]
 198 007a 23F04003 		bic	r3, r3, #64
 199 007e 1B04     		lsls	r3, r3, #16
 200 0080 1B0C     		lsrs	r3, r3, #16
 201 0082 2B80     		strh	r3, [r5, #0]	@ movhi
 202              	.L13:
 203              	.LBE48:
 204              	.LBE47:
 205              		.loc 1 485 0
 206 0084 BDE8F840 		pop	{r3, r4, r5, r6, r7, lr}
 207              		.loc 1 484 0
 208 0088 FFF7FEBF 		b	_port_irq_epilogue
 209              	.L17:
 210              	.LBB63:
 211              	.LBB62:
 212              	.LBB55:
 213              		.loc 1 293 0
 214 008c 2023     		movs	r3, #32
 215              	.LVL25:
 216              	@ 293 "../../os/hal/platforms/STM32/serial_lld.c" 1
 217 008e 83F31188 		msr     BASEPRI, r3
 218              	@ 0 "" 2
 219              	.LVL26:
 220              		.thumb
 221              	.LBE55:
 222              		.loc 1 294 0
 223 0092 1948     		ldr	r0, .L20
 224 0094 F9B2     		uxtb	r1, r7
 225 0096 FFF7FEFF 		bl	sdIncomingDataI
 226              	.LVL27:
ARM GAS  /var/folders/5n/p_75w94d66l9ssrldxqdhh700000gn/T//ccmZInrG.s 			page 5


 227              	.LBB56:
 228              		.loc 1 295 0
 229 009a 0023     		movs	r3, #0
 230              	@ 295 "../../os/hal/platforms/STM32/serial_lld.c" 1
 231 009c 83F31188 		msr     BASEPRI, r3
 232              	@ 0 "" 2
 233              	.LVL28:
 234              		.thumb
 235 00a0 D6E7     		b	.L9
 236              	.LVL29:
 237              	.L16:
 238              	.LBE56:
 239              	.LBB57:
 240              		.loc 1 286 0
 241 00a2 2023     		movs	r3, #32
 242              	.LVL30:
 243              	@ 286 "../../os/hal/platforms/STM32/serial_lld.c" 1
 244 00a4 83F31188 		msr     BASEPRI, r3
 245              	@ 0 "" 2
 246              	.LVL31:
 247              		.thumb
 248              	.LBE57:
 249              		.loc 1 287 0
 250 00a8 1448     		ldr	r0, .L20+4
 251 00aa 4FF40071 		mov	r1, #512
 252 00ae FFF7FEFF 		bl	chEvtBroadcastFlagsI
 253              	.LVL32:
 254              	.LBB58:
 255              		.loc 1 288 0
 256 00b2 0023     		movs	r3, #0
 257              	.LVL33:
 258              	@ 288 "../../os/hal/platforms/STM32/serial_lld.c" 1
 259 00b4 83F31188 		msr     BASEPRI, r3
 260              	@ 0 "" 2
 261              	.LVL34:
 262              		.thumb
 263              	.LBE58:
 264              		.loc 1 289 0
 265 00b8 2B88     		ldrh	r3, [r5, #0]
 266              	.LVL35:
 267 00ba 23F48073 		bic	r3, r3, #256
 268 00be 1B04     		lsls	r3, r3, #16
 269 00c0 1B0C     		lsrs	r3, r3, #16
 270 00c2 2B80     		strh	r3, [r5, #0]	@ movhi
 271 00c4 C2E7     		b	.L8
 272              	.LVL36:
 273              	.L18:
 274              	.LBB59:
 275              	.LBB60:
 276              		.loc 1 300 0
 277 00c6 2023     		movs	r3, #32
 278              	.LVL37:
 279              	@ 300 "../../os/hal/platforms/STM32/serial_lld.c" 1
 280 00c8 83F31188 		msr     BASEPRI, r3
 281              	@ 0 "" 2
 282              	.LVL38:
 283              		.thumb
ARM GAS  /var/folders/5n/p_75w94d66l9ssrldxqdhh700000gn/T//ccmZInrG.s 			page 6


 284              	.LBE60:
 285              		.loc 1 301 0
 286 00cc 0C48     		ldr	r0, .L20+8
 287 00ce FFF7FEFF 		bl	chOQGetI
 288              	.LVL39:
 289              		.loc 1 302 0
 290 00d2 0028     		cmp	r0, #0
 291              		.loc 1 307 0
 292 00d4 A4BF     		itt	ge
 293 00d6 80B2     		uxthge	r0, r0
 294              	.LVL40:
 295 00d8 A880     		strhge	r0, [r5, #4]	@ movhi
 296              		.loc 1 302 0
 297 00da 03DB     		blt	.L19
 298              	.L12:
 299              	.LBB61:
 300              		.loc 1 308 0
 301 00dc 0023     		movs	r3, #0
 302              	@ 308 "../../os/hal/platforms/STM32/serial_lld.c" 1
 303 00de 83F31188 		msr     BASEPRI, r3
 304              	@ 0 "" 2
 305              	.LVL41:
 306              		.thumb
 307 00e2 B9E7     		b	.L10
 308              	.LVL42:
 309              	.L19:
 310              	.LBE61:
 311              		.loc 1 303 0
 312 00e4 0548     		ldr	r0, .L20+4
 313 00e6 0821     		movs	r1, #8
 314 00e8 FFF7FEFF 		bl	chEvtBroadcastFlagsI
 315              		.loc 1 304 0
 316 00ec 26F0C003 		bic	r3, r6, #192
 317 00f0 43F04003 		orr	r3, r3, #64
 318 00f4 AB81     		strh	r3, [r5, #12]	@ movhi
 319 00f6 F1E7     		b	.L12
 320              	.L21:
 321              		.align	2
 322              	.L20:
 323 00f8 00000000 		.word	.LANCHOR0
 324 00fc 04000000 		.word	.LANCHOR0+4
 325 0100 30000000 		.word	.LANCHOR0+48
 326              	.LBE59:
 327              	.LBE62:
 328              	.LBE63:
 329              		.cfi_endproc
 330              	.LFE123:
 331              		.size	Vector15C, .-Vector15C
 332 0104 AFF30080 		.section	.text.sd_lld_init,"ax",%progbits
 332      AFF30080 
 332      AFF30080 
 333              		.align	2
 334              		.p2align 4,,15
 335              		.global	sd_lld_init
 336              		.thumb
 337              		.thumb_func
 338              		.type	sd_lld_init, %function
ARM GAS  /var/folders/5n/p_75w94d66l9ssrldxqdhh700000gn/T//ccmZInrG.s 			page 7


 339              	sd_lld_init:
 340              	.LFB124:
 341              		.loc 1 497 0
 342              		.cfi_startproc
 343              		@ args = 0, pretend = 0, frame = 0
 344              		@ frame_needed = 0, uses_anonymous_args = 0
 345 0000 10B5     		push	{r4, lr}
 346              	.LCFI1:
 347              		.cfi_def_cfa_offset 8
 348              		.cfi_offset 14, -4
 349              		.cfi_offset 4, -8
 350              		.loc 1 525 0
 351 0002 40F20004 		movw	r4, #:lower16:.LANCHOR0
 352 0006 C0F20004 		movt	r4, #:upper16:.LANCHOR0
 353 000a 40F20002 		movw	r2, #:lower16:notify6
 354 000e 2046     		mov	r0, r4
 355 0010 0021     		movs	r1, #0
 356 0012 C0F20002 		movt	r2, #:upper16:notify6
 357 0016 FFF7FEFF 		bl	sdObjectInit
 358              		.loc 1 526 0
 359 001a 4FF4A053 		mov	r3, #5120
 360 001e C4F20103 		movt	r3, 16385
 361 0022 6367     		str	r3, [r4, #116]
 362              		.loc 1 528 0
 363 0024 10BD     		pop	{r4, pc}
 364              		.cfi_endproc
 365              	.LFE124:
 366              		.size	sd_lld_init, .-sd_lld_init
 367 0026 00BFAFF3 		.section	.text.sd_lld_start,"ax",%progbits
 367      0080AFF3 
 367      0080
 368              		.align	2
 369              		.p2align 4,,15
 370              		.global	sd_lld_start
 371              		.thumb
 372              		.thumb_func
 373              		.type	sd_lld_start, %function
 374              	sd_lld_start:
 375              	.LFB125:
 376              		.loc 1 540 0
 377              		.cfi_startproc
 378              		@ args = 0, pretend = 0, frame = 0
 379              		@ frame_needed = 0, uses_anonymous_args = 0
 380              	.LVL43:
 381 0000 38B5     		push	{r3, r4, r5, lr}
 382              	.LCFI2:
 383              		.cfi_def_cfa_offset 16
 384              		.cfi_offset 14, -4
 385              		.cfi_offset 5, -8
 386              		.cfi_offset 4, -12
 387              		.cfi_offset 3, -16
 388              		.loc 1 545 0
 389 0002 037A     		ldrb	r3, [r0, #8]	@ zero_extendqisi2
 390              		.loc 1 543 0
 391 0004 234C     		ldr	r4, .L30
 392 0006 0029     		cmp	r1, #0
 393 0008 18BF     		it	ne
ARM GAS  /var/folders/5n/p_75w94d66l9ssrldxqdhh700000gn/T//ccmZInrG.s 			page 8


 394 000a 0C46     		movne	r4, r1
 395              	.LVL44:
 396              		.loc 1 545 0
 397 000c 012B     		cmp	r3, #1
 398              		.loc 1 540 0
 399 000e 0546     		mov	r5, r0
 400              		.loc 1 545 0
 401 0010 30D0     		beq	.L29
 402              	.LVL45:
 403              	.L25:
 404              	.LBB64:
 405              	.LBB65:
 406              		.loc 1 212 0
 407 0012 6B6F     		ldr	r3, [r5, #116]
 408              	.LVL46:
 409              		.loc 1 216 0
 410 0014 4FF4A051 		mov	r1, #5120
 411 0018 4FF48052 		mov	r2, #4096
 412 001c C4F20102 		movt	r2, 16385
 413 0020 C4F20101 		movt	r1, 16385
 414 0024 9342     		cmp	r3, r2
 415 0026 18BF     		it	ne
 416 0028 8B42     		cmpne	r3, r1
 417              		.loc 1 220 0
 418 002a 08BF     		it	eq
 419 002c 4FF43D42 		moveq	r2, #48384
 420 0030 2168     		ldr	r1, [r4, #0]
 421              		.loc 1 222 0
 422 0032 16BF     		itet	ne
 423 0034 4DF68062 		movwne	r2, #56960
 424              		.loc 1 220 0
 425 0038 C0F20152 		movteq	r2, 1281
 426              		.loc 1 222 0
 427 003c C0F28022 		movtne	r2, 640
 428 0040 B2FBF1F2 		udiv	r2, r2, r1
 429 0044 92B2     		uxth	r2, r2
 430 0046 1A81     		strh	r2, [r3, #8]	@ movhi
 431              		.loc 1 225 0
 432 0048 A288     		ldrh	r2, [r4, #4]
 433              		.loc 1 228 0
 434 004a E088     		ldrh	r0, [r4, #6]
 435              		.loc 1 229 0
 436 004c 2189     		ldrh	r1, [r4, #8]
 437              		.loc 1 225 0
 438 004e 42F40452 		orr	r2, r2, #8448
 439 0052 42F02C02 		orr	r2, r2, #44
 440 0056 92B2     		uxth	r2, r2
 441              		.loc 1 228 0
 442 0058 40F04000 		orr	r0, r0, #64
 443              		.loc 1 229 0
 444 005c 41F00101 		orr	r1, r1, #1
 445              		.loc 1 225 0
 446 0060 9A81     		strh	r2, [r3, #12]	@ movhi
 447              		.loc 1 228 0
 448 0062 80B2     		uxth	r0, r0
 449              		.loc 1 230 0
 450 0064 0022     		movs	r2, #0
ARM GAS  /var/folders/5n/p_75w94d66l9ssrldxqdhh700000gn/T//ccmZInrG.s 			page 9


 451              		.loc 1 229 0
 452 0066 89B2     		uxth	r1, r1
 453              		.loc 1 228 0
 454 0068 1882     		strh	r0, [r3, #16]	@ movhi
 455              		.loc 1 229 0
 456 006a 9982     		strh	r1, [r3, #20]	@ movhi
 457              		.loc 1 230 0
 458 006c 1A80     		strh	r2, [r3, #0]	@ movhi
 459              		.loc 1 231 0
 460 006e 1A88     		ldrh	r2, [r3, #0]
 461              		.loc 1 232 0
 462 0070 9B88     		ldrh	r3, [r3, #4]
 463              	.LBE65:
 464              	.LBE64:
 465              		.loc 1 590 0
 466 0072 38BD     		pop	{r3, r4, r5, pc}
 467              	.LVL47:
 468              	.L29:
 469              		.loc 1 582 0
 470 0074 084B     		ldr	r3, .L30+4
 471 0076 9842     		cmp	r0, r3
 472 0078 CBD1     		bne	.L25
 473              		.loc 1 583 0
 474 007a 4FF46053 		mov	r3, #14336
 475 007e C4F20203 		movt	r3, 16386
 476              		.loc 1 584 0
 477 0082 4720     		movs	r0, #71
 478              		.loc 1 583 0
 479 0084 5A6C     		ldr	r2, [r3, #68]
 480 0086 42F02002 		orr	r2, r2, #32
 481 008a 5A64     		str	r2, [r3, #68]
 482              		.loc 1 584 0
 483 008c C021     		movs	r1, #192
 484 008e FFF7FEFF 		bl	nvicEnableVector
 485 0092 BEE7     		b	.L25
 486              	.L31:
 487              		.align	2
 488              	.L30:
 489 0094 00000000 		.word	.LANCHOR1
 490 0098 00000000 		.word	.LANCHOR0
 491              		.cfi_endproc
 492              	.LFE125:
 493              		.size	sd_lld_start, .-sd_lld_start
 494 009c AFF30080 		.section	.text.sd_lld_stop,"ax",%progbits
 495              		.align	2
 496              		.p2align 4,,15
 497              		.global	sd_lld_stop
 498              		.thumb
 499              		.thumb_func
 500              		.type	sd_lld_stop, %function
 501              	sd_lld_stop:
 502              	.LFB126:
 503              		.loc 1 601 0
 504              		.cfi_startproc
 505              		@ args = 0, pretend = 0, frame = 0
 506              		@ frame_needed = 0, uses_anonymous_args = 0
 507              		@ link register save eliminated.
ARM GAS  /var/folders/5n/p_75w94d66l9ssrldxqdhh700000gn/T//ccmZInrG.s 			page 10


 508              	.LVL48:
 509              		.loc 1 603 0
 510 0000 037A     		ldrb	r3, [r0, #8]	@ zero_extendqisi2
 511 0002 022B     		cmp	r3, #2
 512 0004 00D0     		beq	.L34
 513              	.L32:
 514 0006 7047     		bx	lr
 515              	.LVL49:
 516              	.L34:
 517              		.loc 1 604 0
 518 0008 436F     		ldr	r3, [r0, #116]
 519              	.LVL50:
 520              	.LBB66:
 521              	.LBB67:
 522              		.loc 1 243 0
 523 000a 0022     		movs	r2, #0
 524 000c 9A81     		strh	r2, [r3, #12]	@ movhi
 525              		.loc 1 244 0
 526 000e 1A82     		strh	r2, [r3, #16]	@ movhi
 527              		.loc 1 245 0
 528 0010 9A82     		strh	r2, [r3, #20]	@ movhi
 529              	.LBE67:
 530              	.LBE66:
 531              		.loc 1 641 0
 532 0012 074B     		ldr	r3, .L35
 533 0014 9842     		cmp	r0, r3
 534 0016 F6D1     		bne	.L32
 535              		.loc 1 642 0
 536 0018 4FF46053 		mov	r3, #14336
 537 001c C4F20203 		movt	r3, 16386
 538              		.loc 1 643 0
 539 0020 4720     		movs	r0, #71
 540              	.LVL51:
 541              		.loc 1 642 0
 542 0022 5A6C     		ldr	r2, [r3, #68]
 543 0024 22F02002 		bic	r2, r2, #32
 544 0028 5A64     		str	r2, [r3, #68]
 545              		.loc 1 648 0
 546              		.loc 1 643 0
 547 002a FFF7FEBF 		b	nvicDisableVector
 548              	.L36:
 549 002e 00BF     		.align	2
 550              	.L35:
 551 0030 00000000 		.word	.LANCHOR0
 552              		.cfi_endproc
 553              	.LFE126:
 554              		.size	sd_lld_stop, .-sd_lld_stop
 555              		.global	SD6
 556 0034 AFF30080 		.section	.rodata.default_config,"a",%progbits
 556      AFF30080 
 556      AFF30080 
 557              		.align	2
 558              		.set	.LANCHOR1,. + 0
 559              		.type	default_config, %object
 560              		.size	default_config, 12
 561              	default_config:
 562 0000 00960000 		.word	38400
ARM GAS  /var/folders/5n/p_75w94d66l9ssrldxqdhh700000gn/T//ccmZInrG.s 			page 11


 563 0004 0000     		.short	0
 564 0006 0040     		.short	16384
 565 0008 0000     		.short	0
 566 000a 0000     		.space	2
 567              		.section	.bss.SD6,"aw",%nobits
 568              		.align	2
 569              		.set	.LANCHOR0,. + 0
 570              		.type	SD6, %object
 571              		.size	SD6, 120
 572              	SD6:
 573 0000 00000000 		.space	120
 573      00000000 
 573      00000000 
 573      00000000 
 573      00000000 
 574              		.text
 575              	.Letext0:
 576              		.file 2 "/usr/local/summon/lib/gcc/arm-none-eabi/4.6.2/include/stddef.h"
 577              		.file 3 "/usr/local/summon/lib/gcc/arm-none-eabi/4.6.2/../../../../arm-none-eabi/include/stdint.h"
 578              		.file 4 "../../os/ports/GCC/ARMCMx/chtypes.h"
 579              		.file 5 "../../os/kernel/include/chlists.h"
 580              		.file 6 "../../os/kernel/include/chthreads.h"
 581              		.file 7 "../../os/ports/GCC/ARMCMx/chcore_v7m.h"
 582              		.file 8 "../../os/kernel/include/chmtx.h"
 583              		.file 9 "../../os/kernel/include/chevents.h"
 584              		.file 10 "../../os/kernel/include/chqueues.h"
 585              		.file 11 "../../os/hal/platforms/STM32F4xx/stm32f4xx.h"
 586              		.file 12 "../../os/hal/include/serial.h"
 587              		.file 13 "../../os/hal/platforms/STM32/serial_lld.h"
 588              		.file 14 "../../os/ports/common/ARMCMx/CMSIS/include/core_cm4.h"