ARM GAS  /var/folders/5n/p_75w94d66l9ssrldxqdhh700000gn/T//cciPPkzE.s 			page 1


   1              		.syntax unified
   2              		.cpu cortex-m4
   3              		.fpu softvfp
   4              		.eabi_attribute 20, 1
   5              		.eabi_attribute 21, 1
   6              		.eabi_attribute 23, 3
   7              		.eabi_attribute 24, 1
   8              		.eabi_attribute 25, 1
   9              		.eabi_attribute 26, 1
  10              		.eabi_attribute 30, 2
  11              		.eabi_attribute 18, 4
  12              		.thumb
  13              		.file	"sockets.c"
  14              		.text
  15              	.Ltext0:
  16              		.cfi_sections	.debug_frame
  17              		.section	.text.lwip_setsockopt_internal,"ax",%progbits
  18              		.align	2
  19              		.p2align 4,,15
  20              		.thumb
  21              		.thumb_func
  22              		.type	lwip_setsockopt_internal, %function
  23              	lwip_setsockopt_internal:
  24              	.LFB34:
  25              		.file 1 "../../ext/lwip/src/api/sockets.c"
  26              		.loc 1 2051 0
  27              		.cfi_startproc
  28              		@ args = 0, pretend = 0, frame = 8
  29              		@ frame_needed = 0, uses_anonymous_args = 0
  30              	.LVL0:
  31 0000 10B5     		push	{r4, lr}
  32              	.LCFI0:
  33              		.cfi_def_cfa_offset 8
  34              		.cfi_offset 14, -4
  35              		.cfi_offset 4, -8
  36 0002 82B0     		sub	sp, sp, #8
  37              	.LCFI1:
  38              		.cfi_def_cfa_offset 16
  39              		.loc 1 2060 0
  40 0004 0028     		cmp	r0, #0
  41 0006 56D0     		beq	.L25
  42              	.LVL1:
  43              	.L2:
  44              		.loc 1 2071 0
  45 0008 4368     		ldr	r3, [r0, #4]
  46              		.loc 1 2063 0
  47 000a 0468     		ldr	r4, [r0, #0]
  48              	.LVL2:
  49              		.loc 1 2068 0
  50 000c 8268     		ldr	r2, [r0, #8]
  51              	.LVL3:
  52              		.loc 1 2069 0
  53 000e C168     		ldr	r1, [r0, #12]
  54              	.LVL4:
  55              		.loc 1 2071 0
  56 0010 062B     		cmp	r3, #6
  57 0012 29D0     		beq	.L5
ARM GAS  /var/folders/5n/p_75w94d66l9ssrldxqdhh700000gn/T//cciPPkzE.s 			page 2


  58 0014 40F6FF70 		movw	r0, #4095
  59              	.LVL5:
  60 0018 8342     		cmp	r3, r0
  61 001a 13D0     		beq	.L6
  62 001c 43B1     		cbz	r3, .L4
  63              	.LVL6:
  64              	.L20:
  65              		.loc 1 2247 0 discriminator 1
  66 001e FFF7FEFF 		bl	port_halt
  67              	.LVL7:
  68 0022 2068     		ldr	r0, [r4, #0]
  69              	.L11:
  70              		.loc 1 2250 0
  71 0024 0C30     		adds	r0, r0, #12
  72              		.loc 1 2251 0
  73 0026 02B0     		add	sp, sp, #8
  74 0028 BDE81040 		pop	{r4, lr}
  75              		.loc 1 2250 0
  76 002c FFF7FEBF 		b	sys_sem_signal
  77              	.LVL8:
  78              	.L4:
  79              		.loc 1 2123 0
  80 0030 012A     		cmp	r2, #1
  81 0032 30D0     		beq	.L14
  82 0034 022A     		cmp	r2, #2
  83 0036 F2D1     		bne	.L20
  84              		.loc 1 2125 0
  85 0038 2368     		ldr	r3, [r4, #0]
  86              	.LVL9:
  87 003a 0A68     		ldr	r2, [r1, #0]
  88              	.LVL10:
  89 003c 5B68     		ldr	r3, [r3, #4]
  90 003e 9A72     		strb	r2, [r3, #10]
  91 0040 2068     		ldr	r0, [r4, #0]
  92              		.loc 1 2128 0
  93 0042 EFE7     		b	.L11
  94              	.LVL11:
  95              	.L6:
  96              		.loc 1 2075 0
  97 0044 202A     		cmp	r2, #32
  98 0046 05D0     		beq	.L8
  99 0048 41F20A03 		movw	r3, #4106
 100              	.LVL12:
 101 004c 9A42     		cmp	r2, r3
 102 004e 28D0     		beq	.L9
 103 0050 082A     		cmp	r2, #8
 104 0052 E4D1     		bne	.L20
 105              	.L8:
 106              		.loc 1 2088 0
 107 0054 0B68     		ldr	r3, [r1, #0]
 108 0056 002B     		cmp	r3, #0
 109 0058 3AD0     		beq	.L10
 110              		.loc 1 2089 0
 111 005a 2368     		ldr	r3, [r4, #0]
 112 005c 5B68     		ldr	r3, [r3, #4]
 113 005e 197A     		ldrb	r1, [r3, #8]	@ zero_extendqisi2
 114              	.LVL13:
ARM GAS  /var/folders/5n/p_75w94d66l9ssrldxqdhh700000gn/T//cciPPkzE.s 			page 3


 115 0060 0A43     		orrs	r2, r2, r1
 116              	.LVL14:
 117 0062 1A72     		strb	r2, [r3, #8]
 118 0064 2068     		ldr	r0, [r4, #0]
 119 0066 DDE7     		b	.L11
 120              	.LVL15:
 121              	.L5:
 122              		.loc 1 2177 0
 123 0068 012A     		cmp	r2, #1
 124 006a 07D0     		beq	.L17
 125 006c 022A     		cmp	r2, #2
 126 006e D6D1     		bne	.L20
 127              		.loc 1 2188 0
 128 0070 2068     		ldr	r0, [r4, #0]
 129              	.LVL16:
 130 0072 0A68     		ldr	r2, [r1, #0]
 131              	.LVL17:
 132 0074 4368     		ldr	r3, [r0, #4]
 133              	.LVL18:
 134 0076 C3F89820 		str	r2, [r3, #152]
 135              		.loc 1 2191 0
 136 007a D3E7     		b	.L11
 137              	.LVL19:
 138              	.L17:
 139              		.loc 1 2179 0
 140 007c 0B68     		ldr	r3, [r1, #0]
 141              	.LVL20:
 142 007e 002B     		cmp	r3, #0
 143 0080 2ED0     		beq	.L19
 144              		.loc 1 2180 0
 145 0082 2368     		ldr	r3, [r4, #0]
 146 0084 5B68     		ldr	r3, [r3, #4]
 147 0086 93F82020 		ldrb	r2, [r3, #32]	@ zero_extendqisi2
 148              	.LVL21:
 149 008a 42F04002 		orr	r2, r2, #64
 150 008e 83F82020 		strb	r2, [r3, #32]
 151 0092 2068     		ldr	r0, [r4, #0]
 152              	.LVL22:
 153 0094 C6E7     		b	.L11
 154              	.LVL23:
 155              	.L14:
 156              		.loc 1 2130 0
 157 0096 2368     		ldr	r3, [r4, #0]
 158              	.LVL24:
 159 0098 0A68     		ldr	r2, [r1, #0]
 160              	.LVL25:
 161 009a 5B68     		ldr	r3, [r3, #4]
 162 009c 5A72     		strb	r2, [r3, #9]
 163 009e 2068     		ldr	r0, [r4, #0]
 164              		.loc 1 2133 0
 165 00a0 C0E7     		b	.L11
 166              	.LVL26:
 167              	.L9:
 168              		.loc 1 2108 0
 169 00a2 0B68     		ldr	r3, [r1, #0]
 170 00a4 63B1     		cbz	r3, .L12
 171              		.loc 1 2109 0
ARM GAS  /var/folders/5n/p_75w94d66l9ssrldxqdhh700000gn/T//cciPPkzE.s 			page 4


 172 00a6 2368     		ldr	r3, [r4, #0]
 173 00a8 5B68     		ldr	r3, [r3, #4]
 174 00aa 1A7C     		ldrb	r2, [r3, #16]	@ zero_extendqisi2
 175              	.LVL27:
 176 00ac 42F00102 		orr	r2, r2, #1
 177 00b0 1A74     		strb	r2, [r3, #16]
 178 00b2 2068     		ldr	r0, [r4, #0]
 179 00b4 B6E7     		b	.L11
 180              	.LVL28:
 181              	.L25:
 182              		.loc 1 2060 0 discriminator 1
 183 00b6 0190     		str	r0, [sp, #4]
 184 00b8 FFF7FEFF 		bl	port_halt
 185              	.LVL29:
 186 00bc 0198     		ldr	r0, [sp, #4]
 187 00be A3E7     		b	.L2
 188              	.LVL30:
 189              	.L12:
 190              		.loc 1 2111 0
 191 00c0 2368     		ldr	r3, [r4, #0]
 192 00c2 5B68     		ldr	r3, [r3, #4]
 193 00c4 1A7C     		ldrb	r2, [r3, #16]	@ zero_extendqisi2
 194              	.LVL31:
 195 00c6 22F00102 		bic	r2, r2, #1
 196 00ca 1A74     		strb	r2, [r3, #16]
 197 00cc 2068     		ldr	r0, [r4, #0]
 198 00ce A9E7     		b	.L11
 199              	.LVL32:
 200              	.L10:
 201              		.loc 1 2091 0
 202 00d0 2368     		ldr	r3, [r4, #0]
 203 00d2 5B68     		ldr	r3, [r3, #4]
 204 00d4 197A     		ldrb	r1, [r3, #8]	@ zero_extendqisi2
 205              	.LVL33:
 206 00d6 21EA0202 		bic	r2, r1, r2
 207              	.LVL34:
 208 00da 1A72     		strb	r2, [r3, #8]
 209 00dc 2068     		ldr	r0, [r4, #0]
 210 00de A1E7     		b	.L11
 211              	.LVL35:
 212              	.L19:
 213              		.loc 1 2182 0
 214 00e0 2368     		ldr	r3, [r4, #0]
 215 00e2 5B68     		ldr	r3, [r3, #4]
 216 00e4 93F82020 		ldrb	r2, [r3, #32]	@ zero_extendqisi2
 217              	.LVL36:
 218 00e8 22F04002 		bic	r2, r2, #64
 219 00ec 83F82020 		strb	r2, [r3, #32]
 220 00f0 2068     		ldr	r0, [r4, #0]
 221              	.LVL37:
 222 00f2 97E7     		b	.L11
 223              		.cfi_endproc
 224              	.LFE34:
 225              		.size	lwip_setsockopt_internal, .-lwip_setsockopt_internal
 226 00f4 AFF30080 		.section	.text.lwip_getsockopt_internal,"ax",%progbits
 226      AFF30080 
 226      AFF30080 
ARM GAS  /var/folders/5n/p_75w94d66l9ssrldxqdhh700000gn/T//cciPPkzE.s 			page 5


 227              		.align	2
 228              		.p2align 4,,15
 229              		.thumb
 230              		.thumb_func
 231              		.type	lwip_getsockopt_internal, %function
 232              	lwip_getsockopt_internal:
 233              	.LFB32:
 234              		.loc 1 1641 0
 235              		.cfi_startproc
 236              		@ args = 0, pretend = 0, frame = 8
 237              		@ frame_needed = 0, uses_anonymous_args = 0
 238              	.LVL38:
 239 0000 10B5     		push	{r4, lr}
 240              	.LCFI2:
 241              		.cfi_def_cfa_offset 8
 242              		.cfi_offset 14, -4
 243              		.cfi_offset 4, -8
 244 0002 82B0     		sub	sp, sp, #8
 245              	.LCFI3:
 246              		.cfi_def_cfa_offset 16
 247              		.loc 1 1650 0
 248 0004 0028     		cmp	r0, #0
 249 0006 66D0     		beq	.L57
 250              	.LVL39:
 251              	.L27:
 252              		.loc 1 1661 0
 253 0008 4368     		ldr	r3, [r0, #4]
 254              		.loc 1 1653 0
 255 000a 0468     		ldr	r4, [r0, #0]
 256              	.LVL40:
 257              		.loc 1 1658 0
 258 000c 8268     		ldr	r2, [r0, #8]
 259              	.LVL41:
 260              		.loc 1 1659 0
 261 000e C168     		ldr	r1, [r0, #12]
 262              	.LVL42:
 263              		.loc 1 1661 0
 264 0010 062B     		cmp	r3, #6
 265 0012 23D0     		beq	.L30
 266 0014 40F6FF70 		movw	r0, #4095
 267              	.LVL43:
 268 0018 8342     		cmp	r3, r0
 269 001a 12D0     		beq	.L31
 270 001c 43B1     		cbz	r3, .L29
 271              	.LVL44:
 272              	.L53:
 273              		.loc 1 1836 0 discriminator 1
 274 001e FFF7FEFF 		bl	port_halt
 275              	.LVL45:
 276 0022 2068     		ldr	r0, [r4, #0]
 277              	.L38:
 278              		.loc 1 1839 0
 279 0024 0C30     		adds	r0, r0, #12
 280              		.loc 1 1840 0
 281 0026 02B0     		add	sp, sp, #8
 282 0028 BDE81040 		pop	{r4, lr}
 283              		.loc 1 1839 0
ARM GAS  /var/folders/5n/p_75w94d66l9ssrldxqdhh700000gn/T//cciPPkzE.s 			page 6


 284 002c FFF7FEBF 		b	sys_sem_signal
 285              	.LVL46:
 286              	.L29:
 287              		.loc 1 1739 0
 288 0030 012A     		cmp	r2, #1
 289 0032 25D0     		beq	.L47
 290 0034 022A     		cmp	r2, #2
 291 0036 F2D1     		bne	.L53
 292              		.loc 1 1741 0
 293 0038 2068     		ldr	r0, [r4, #0]
 294 003a 4368     		ldr	r3, [r0, #4]
 295              	.LVL47:
 296 003c 9B7A     		ldrb	r3, [r3, #10]	@ zero_extendqisi2
 297 003e 0B60     		str	r3, [r1, #0]
 298              		.loc 1 1744 0
 299 0040 F0E7     		b	.L38
 300              	.LVL48:
 301              	.L31:
 302              		.loc 1 1665 0
 303 0042 202A     		cmp	r2, #32
 304 0044 04D0     		beq	.L33
 305 0046 20DC     		bgt	.L37
 306 0048 022A     		cmp	r2, #2
 307 004a 01D0     		beq	.L33
 308 004c 082A     		cmp	r2, #8
 309 004e E6D1     		bne	.L53
 310              	.L33:
 311              		.loc 1 1679 0
 312 0050 2068     		ldr	r0, [r4, #0]
 313 0052 4368     		ldr	r3, [r0, #4]
 314              	.LVL49:
 315 0054 1B7A     		ldrb	r3, [r3, #8]	@ zero_extendqisi2
 316 0056 1A40     		ands	r2, r2, r3
 317              	.LVL50:
 318 0058 0A60     		str	r2, [r1, #0]
 319              		.loc 1 1682 0
 320 005a E3E7     		b	.L38
 321              	.LVL51:
 322              	.L30:
 323              		.loc 1 1780 0
 324 005c 012A     		cmp	r2, #1
 325 005e 07D0     		beq	.L50
 326 0060 022A     		cmp	r2, #2
 327 0062 DCD1     		bne	.L53
 328              		.loc 1 1787 0
 329 0064 2068     		ldr	r0, [r4, #0]
 330              	.LVL52:
 331 0066 4368     		ldr	r3, [r0, #4]
 332              	.LVL53:
 333 0068 D3F89830 		ldr	r3, [r3, #152]
 334 006c 0B60     		str	r3, [r1, #0]
 335              		.loc 1 1790 0
 336 006e D9E7     		b	.L38
 337              	.LVL54:
 338              	.L50:
 339              		.loc 1 1782 0
 340 0070 2068     		ldr	r0, [r4, #0]
ARM GAS  /var/folders/5n/p_75w94d66l9ssrldxqdhh700000gn/T//cciPPkzE.s 			page 7


 341              	.LVL55:
 342 0072 4368     		ldr	r3, [r0, #4]
 343              	.LVL56:
 344 0074 93F82030 		ldrb	r3, [r3, #32]	@ zero_extendqisi2
 345 0078 C3F38013 		ubfx	r3, r3, #6, #1
 346 007c 0B60     		str	r3, [r1, #0]
 347              		.loc 1 1785 0
 348 007e D1E7     		b	.L38
 349              	.LVL57:
 350              	.L47:
 351              		.loc 1 1746 0
 352 0080 2068     		ldr	r0, [r4, #0]
 353 0082 4368     		ldr	r3, [r0, #4]
 354              	.LVL58:
 355 0084 5B7A     		ldrb	r3, [r3, #9]	@ zero_extendqisi2
 356 0086 0B60     		str	r3, [r1, #0]
 357              		.loc 1 1749 0
 358 0088 CCE7     		b	.L38
 359              	.LVL59:
 360              	.L37:
 361              		.loc 1 1665 0
 362 008a 41F20803 		movw	r3, #4104
 363              	.LVL60:
 364 008e 9A42     		cmp	r2, r3
 365 0090 26D0     		beq	.L35
 366 0092 0233     		adds	r3, r3, #2
 367 0094 9A42     		cmp	r2, r3
 368 0096 17D0     		beq	.L36
 369 0098 41F20703 		movw	r3, #4103
 370 009c 9A42     		cmp	r2, r3
 371 009e BED1     		bne	.L53
 372              		.loc 1 1707 0
 373 00a0 2369     		ldr	r3, [r4, #16]
 374              		.loc 1 1708 0
 375 00a2 2068     		ldr	r0, [r4, #0]
 376              		.loc 1 1707 0
 377 00a4 002B     		cmp	r3, #0
 378 00a6 18BF     		it	ne
 379 00a8 732B     		cmpne	r3, #115
 380 00aa 09D1     		bne	.L44
 381              		.loc 1 1708 0
 382 00ac 90F90830 		ldrsb	r3, [r0, #8]
 383 00b0 5B42     		negs	r3, r3
 384 00b2 0F2B     		cmp	r3, #15
 385 00b4 9ABF     		itte	ls
 386 00b6 154A     		ldrls	r2, .L58
 387              	.LVL61:
 388 00b8 52F82330 		ldrls	r3, [r2, r3, lsl #2]
 389 00bc 0523     		movhi	r3, #5
 390 00be 2361     		str	r3, [r4, #16]
 391              	.L44:
 392              		.loc 1 1710 0
 393 00c0 0B60     		str	r3, [r1, #0]
 394              		.loc 1 1711 0
 395 00c2 0023     		movs	r3, #0
 396 00c4 2361     		str	r3, [r4, #16]
 397              		.loc 1 1714 0
ARM GAS  /var/folders/5n/p_75w94d66l9ssrldxqdhh700000gn/T//cciPPkzE.s 			page 8


 398 00c6 ADE7     		b	.L38
 399              	.LVL62:
 400              	.L36:
 401              		.loc 1 1728 0
 402 00c8 2068     		ldr	r0, [r4, #0]
 403 00ca 4368     		ldr	r3, [r0, #4]
 404 00cc 1B7C     		ldrb	r3, [r3, #16]	@ zero_extendqisi2
 405 00ce 03F00103 		and	r3, r3, #1
 406 00d2 0B60     		str	r3, [r1, #0]
 407              		.loc 1 1729 0
 408 00d4 A6E7     		b	.L38
 409              	.LVL63:
 410              	.L57:
 411              		.loc 1 1650 0 discriminator 1
 412 00d6 0190     		str	r0, [sp, #4]
 413 00d8 FFF7FEFF 		bl	port_halt
 414              	.LVL64:
 415 00dc 0198     		ldr	r0, [sp, #4]
 416 00de 93E7     		b	.L27
 417              	.LVL65:
 418              	.L35:
 419              		.loc 1 1685 0
 420 00e0 2068     		ldr	r0, [r4, #0]
 421 00e2 0278     		ldrb	r2, [r0, #0]	@ zero_extendqisi2
 422              	.LVL66:
 423 00e4 02F0F003 		and	r3, r2, #240
 424 00e8 202B     		cmp	r3, #32
 425 00ea 08D0     		beq	.L41
 426 00ec 402B     		cmp	r3, #64
 427 00ee 09D0     		beq	.L42
 428 00f0 102B     		cmp	r3, #16
 429              		.loc 1 1696 0
 430 00f2 18BF     		it	ne
 431 00f4 0A60     		strne	r2, [r1, #0]
 432              		.loc 1 1685 0
 433 00f6 95D1     		bne	.L38
 434              		.loc 1 1690 0
 435 00f8 0123     		movs	r3, #1
 436 00fa 0B60     		str	r3, [r1, #0]
 437              		.loc 1 1691 0
 438 00fc 92E7     		b	.L38
 439              	.L41:
 440              		.loc 1 1693 0
 441 00fe 0223     		movs	r3, #2
 442 0100 0B60     		str	r3, [r1, #0]
 443              		.loc 1 1694 0
 444 0102 8FE7     		b	.L38
 445              	.L42:
 446              		.loc 1 1687 0
 447 0104 0323     		movs	r3, #3
 448 0106 0B60     		str	r3, [r1, #0]
 449              		.loc 1 1688 0
 450 0108 8CE7     		b	.L38
 451              	.L59:
 452 010a 00BF     		.align	2
 453              	.L58:
 454 010c 00000000 		.word	.LANCHOR0
ARM GAS  /var/folders/5n/p_75w94d66l9ssrldxqdhh700000gn/T//cciPPkzE.s 			page 9


 455              		.cfi_endproc
 456              	.LFE32:
 457              		.size	lwip_getsockopt_internal, .-lwip_getsockopt_internal
 458              		.section	.text.event_callback,"ax",%progbits
 459              		.align	2
 460              		.p2align 4,,15
 461              		.thumb
 462              		.thumb_func
 463              		.type	event_callback, %function
 464              	event_callback:
 465              	.LFB26:
 466              		.loc 1 1235 0
 467              		.cfi_startproc
 468              		@ args = 0, pretend = 0, frame = 0
 469              		@ frame_needed = 0, uses_anonymous_args = 0
 470              	.LVL67:
 471 0000 2DE9F047 		push	{r4, r5, r6, r7, r8, r9, sl, lr}
 472              	.LCFI4:
 473              		.cfi_def_cfa_offset 32
 474              		.cfi_offset 14, -4
 475              		.cfi_offset 10, -8
 476              		.cfi_offset 9, -12
 477              		.cfi_offset 8, -16
 478              		.cfi_offset 7, -20
 479              		.cfi_offset 6, -24
 480              		.cfi_offset 5, -28
 481              		.cfi_offset 4, -32
 482              		.loc 1 1245 0
 483 0004 B8B1     		cbz	r0, .L60
 484              		.loc 1 1246 0
 485 0006 D0F81880 		ldr	r8, [r0, #24]
 486              	.LVL68:
 487              		.loc 1 1247 0
 488 000a B8F1000F 		cmp	r8, #0
 489 000e 10DB     		blt	.L84
 490              	.LVL69:
 491              	.LBB51:
 492              	.LBB52:
 493              		.loc 1 199 0
 494 0010 B8F1030F 		cmp	r8, #3
 495 0014 0FD8     		bhi	.L60
 496              		.loc 1 205 0
 497 0016 08EB4803 		add	r3, r8, r8, lsl #1
 498 001a 364A     		ldr	r2, .L88
 499              	.LVL70:
 500 001c DB00     		lsls	r3, r3, #3
 501 001e D618     		adds	r6, r2, r3
 502              	.LVL71:
 503              		.loc 1 207 0
 504 0020 D358     		ldr	r3, [r2, r3]
 505 0022 43B1     		cbz	r3, .L60
 506              	.LBE52:
 507              	.LBE51:
 508              		.loc 1 1275 0
 509 0024 0429     		cmp	r1, #4
 510 0026 5BD8     		bhi	.L63
 511 0028 DFE801F0 		tbb	[pc, r1]
ARM GAS  /var/folders/5n/p_75w94d66l9ssrldxqdhh700000gn/T//cciPPkzE.s 			page 10


 512              	.L69:
 513 002c 50       		.byte	(.L64-.L69)/2
 514 002d 4C       		.byte	(.L65-.L69)/2
 515 002e 57       		.byte	(.L66-.L69)/2
 516 002f 54       		.byte	(.L67-.L69)/2
 517 0030 07       		.byte	(.L68-.L69)/2
 518 0031 00       		.align	1
 519              	.LVL72:
 520              	.L84:
 521              		.loc 1 1255 0
 522 0032 0029     		cmp	r1, #0
 523 0034 59D0     		beq	.L85
 524              	.LVL73:
 525              	.L60:
 526 0036 BDE8F087 		pop	{r4, r5, r6, r7, r8, r9, sl, pc}
 527              	.LVL74:
 528              	.L68:
 529              		.loc 1 1289 0
 530 003a 0123     		movs	r3, #1
 531 003c F381     		strh	r3, [r6, #14]	@ movhi
 532              	.LVL75:
 533              	.L70:
 534              		.loc 1 1296 0
 535 003e 7369     		ldr	r3, [r6, #20]
 536 0040 002B     		cmp	r3, #0
 537 0042 F8D0     		beq	.L60
 538 0044 4FF00109 		mov	r9, #1
 539 0048 2B4F     		ldr	r7, .L88+4
 540 004a 2C4D     		ldr	r5, .L88+8
 541 004c 09FA08FA 		lsl	sl, r9, r8
 542 0050 10E0     		b	.L76
 543              	.LVL76:
 544              	.L87:
 545              	.LBB53:
 546              		.loc 1 1325 0
 547 0052 2BB9     		cbnz	r3, .L75
 548              		.loc 1 1325 0 is_stmt 0 discriminator 1
 549 0054 2369     		ldr	r3, [r4, #16]
 550              	.LVL77:
 551 0056 4BB1     		cbz	r3, .L71
 552 0058 1B78     		ldrb	r3, [r3, #0]	@ zero_extendqisi2
 553 005a 13EA0A0F 		tst	r3, sl
 554 005e 05D0     		beq	.L71
 555              	.L75:
 556              		.loc 1 1330 0 is_stmt 1
 557 0060 C4F81490 		str	r9, [r4, #20]
 558              		.loc 1 1333 0
 559 0064 04F11800 		add	r0, r4, #24
 560 0068 FFF7FEFF 		bl	sys_sem_signal
 561              	.L71:
 562              	.LBE53:
 563              		.loc 1 1337 0
 564 006c 2A68     		ldr	r2, [r5, #0]
 565              	.LVL78:
 566              		.loc 1 1341 0
 567 006e 2B68     		ldr	r3, [r5, #0]
 568 0070 9A42     		cmp	r2, r3
ARM GAS  /var/folders/5n/p_75w94d66l9ssrldxqdhh700000gn/T//cciPPkzE.s 			page 11


 569 0072 23D0     		beq	.L86
 570              	.LVL79:
 571              	.L76:
 572              		.loc 1 1309 0
 573 0074 3C68     		ldr	r4, [r7, #0]
 574              	.LVL80:
 575 0076 002C     		cmp	r4, #0
 576 0078 DDD0     		beq	.L60
 577              	.LVL81:
 578              	.L77:
 579              		.loc 1 1310 0
 580 007a 6369     		ldr	r3, [r4, #20]
 581 007c 002B     		cmp	r3, #0
 582 007e F5D1     		bne	.L71
 583              	.LVL82:
 584              	.LBB54:
 585              		.loc 1 1314 0
 586 0080 B6F90A20 		ldrsh	r2, [r6, #10]
 587 0084 002A     		cmp	r2, #0
 588 0086 06DD     		ble	.L72
 589              		.loc 1 1315 0
 590 0088 A368     		ldr	r3, [r4, #8]
 591 008a 23B1     		cbz	r3, .L72
 592              		.loc 1 1315 0 is_stmt 0 discriminator 1
 593 008c 1B78     		ldrb	r3, [r3, #0]	@ zero_extendqisi2
 594 008e 43FA08F3 		asr	r3, r3, r8
 595 0092 03F00103 		and	r3, r3, #1
 596              	.L72:
 597              	.LVL83:
 598              		.loc 1 1319 0 is_stmt 1
 599 0096 B289     		ldrh	r2, [r6, #12]
 600 0098 3AB1     		cbz	r2, .L73
 601              		.loc 1 1320 0
 602 009a 23BB     		cbnz	r3, .L80
 603              		.loc 1 1320 0 is_stmt 0 discriminator 1
 604 009c E268     		ldr	r2, [r4, #12]
 605 009e 22B1     		cbz	r2, .L73
 606 00a0 1378     		ldrb	r3, [r2, #0]	@ zero_extendqisi2
 607              	.LVL84:
 608 00a2 43FA08F3 		asr	r3, r3, r8
 609 00a6 03F00103 		and	r3, r3, #1
 610              	.L73:
 611              	.LVL85:
 612              		.loc 1 1324 0 is_stmt 1
 613 00aa F289     		ldrh	r2, [r6, #14]
 614 00ac 002A     		cmp	r2, #0
 615 00ae D0D1     		bne	.L87
 616              		.loc 1 1329 0
 617 00b0 002B     		cmp	r3, #0
 618 00b2 D5D1     		bne	.L75
 619              	.LBE54:
 620              		.loc 1 1337 0
 621 00b4 2A68     		ldr	r2, [r5, #0]
 622              	.LVL86:
 623              		.loc 1 1341 0
 624 00b6 2B68     		ldr	r3, [r5, #0]
 625              	.LVL87:
ARM GAS  /var/folders/5n/p_75w94d66l9ssrldxqdhh700000gn/T//cciPPkzE.s 			page 12


 626 00b8 9A42     		cmp	r2, r3
 627 00ba DBD1     		bne	.L76
 628              	.L86:
 629              		.loc 1 1309 0
 630 00bc 2468     		ldr	r4, [r4, #0]
 631              	.LVL88:
 632 00be 002C     		cmp	r4, #0
 633 00c0 DBD1     		bne	.L77
 634 00c2 B8E7     		b	.L60
 635              	.LVL89:
 636              	.L65:
 637              		.loc 1 1280 0
 638 00c4 7389     		ldrh	r3, [r6, #10]
 639 00c6 013B     		subs	r3, r3, #1
 640 00c8 7381     		strh	r3, [r6, #10]	@ movhi
 641              		.loc 1 1281 0
 642 00ca B8E7     		b	.L70
 643              	.L64:
 644              		.loc 1 1277 0
 645 00cc 7389     		ldrh	r3, [r6, #10]
 646 00ce 0133     		adds	r3, r3, #1
 647 00d0 7381     		strh	r3, [r6, #10]	@ movhi
 648              		.loc 1 1278 0
 649 00d2 B4E7     		b	.L70
 650              	.L67:
 651              		.loc 1 1286 0
 652 00d4 0023     		movs	r3, #0
 653 00d6 B381     		strh	r3, [r6, #12]	@ movhi
 654              		.loc 1 1287 0
 655 00d8 B1E7     		b	.L70
 656              	.L66:
 657              		.loc 1 1283 0
 658 00da 0123     		movs	r3, #1
 659 00dc B381     		strh	r3, [r6, #12]	@ movhi
 660              		.loc 1 1284 0
 661 00de AEE7     		b	.L70
 662              	.L63:
 663              		.loc 1 1292 0 discriminator 1
 664 00e0 FFF7FEFF 		bl	port_halt
 665              	.LVL90:
 666              		.loc 1 1293 0 discriminator 1
 667 00e4 ABE7     		b	.L70
 668              	.LVL91:
 669              	.L80:
 670              	.LBB55:
 671              		.loc 1 1320 0
 672 00e6 0123     		movs	r3, #1
 673              	.LVL92:
 674 00e8 DFE7     		b	.L73
 675              	.LVL93:
 676              	.L85:
 677              	.LBE55:
 678              		.loc 1 1256 0
 679 00ea 08F1FF33 		add	r3, r8, #-1
 680 00ee 8361     		str	r3, [r0, #24]
 681 00f0 BDE8F087 		pop	{r4, r5, r6, r7, r8, r9, sl, pc}
 682              	.L89:
ARM GAS  /var/folders/5n/p_75w94d66l9ssrldxqdhh700000gn/T//cciPPkzE.s 			page 13


 683              		.align	2
 684              	.L88:
 685 00f4 00000000 		.word	.LANCHOR1
 686 00f8 00000000 		.word	.LANCHOR2
 687 00fc 00000000 		.word	.LANCHOR3
 688              		.cfi_endproc
 689              	.LFE26:
 690              		.size	event_callback, .-event_callback
 691              		.section	.text.lwip_selscan,"ax",%progbits
 692              		.align	2
 693              		.p2align 4,,15
 694              		.thumb
 695              		.thumb_func
 696              		.type	lwip_selscan, %function
 697              	lwip_selscan:
 698              	.LFB24:
 699              		.loc 1 1015 0
 700              		.cfi_startproc
 701              		@ args = 12, pretend = 0, frame = 24
 702              		@ frame_needed = 0, uses_anonymous_args = 0
 703              		@ link register save eliminated.
 704              	.LVL94:
 705 0000 2DE9F00F 		push	{r4, r5, r6, r7, r8, r9, sl, fp}
 706              	.LCFI5:
 707              		.cfi_def_cfa_offset 32
 708              		.cfi_offset 11, -4
 709              		.cfi_offset 10, -8
 710              		.cfi_offset 9, -12
 711              		.cfi_offset 8, -16
 712              		.cfi_offset 7, -20
 713              		.cfi_offset 6, -24
 714              		.cfi_offset 5, -28
 715              		.cfi_offset 4, -32
 716 0004 86B0     		sub	sp, sp, #24
 717              	.LCFI6:
 718              		.cfi_def_cfa_offset 56
 719              		.loc 1 1021 0
 720 0006 0026     		movs	r6, #0
 721              		.loc 1 1027 0
 722 0008 0028     		cmp	r0, #0
 723 000a 0190     		str	r0, [sp, #4]
 724              		.loc 1 1021 0
 725 000c 8DF80C60 		strb	r6, [sp, #12]
 726              		.loc 1 1022 0
 727 0010 8DF81060 		strb	r6, [sp, #16]
 728              		.loc 1 1023 0
 729 0014 8DF81460 		strb	r6, [sp, #20]
 730              	.LVL95:
 731              		.loc 1 1027 0
 732 0018 3046     		mov	r0, r6
 733              	.LVL96:
 734 001a 7BDD     		ble	.L91
 735 001c 3446     		mov	r4, r6
 736              	.LVL97:
 737              	.L96:
 738              	.LBB56:
 739              	.LBB57:
ARM GAS  /var/folders/5n/p_75w94d66l9ssrldxqdhh700000gn/T//cciPPkzE.s 			page 14


 740              	.LBB58:
 741              		.loc 1 225 0
 742 001e 032C     		cmp	r4, #3
 743 0020 00F28880 		bhi	.L98
 744              		.loc 1 228 0
 745 0024 40F20007 		movw	r7, #:lower16:.LANCHOR1
 746 0028 C0F20007 		movt	r7, #:upper16:.LANCHOR1
 747 002c F559     		ldr	r5, [r6, r7]
 748              		.loc 1 1030 0
 749 002e A846     		mov	r8, r5
 750              		.loc 1 1029 0
 751 0030 AA46     		mov	sl, r5
 752              		.loc 1 1028 0
 753 0032 AB46     		mov	fp, r5
 754              		.loc 1 228 0
 755 0034 55B1     		cbz	r5, .L92
 756              		.loc 1 231 0
 757 0036 04EB4405 		add	r5, r4, r4, lsl #1
 758 003a 07EBC505 		add	r5, r7, r5, lsl #3
 759              	.LBE58:
 760              	.LBE57:
 761              		.loc 1 1036 0
 762 003e D5F804B0 		ldr	fp, [r5, #4]
 763              	.LVL98:
 764              		.loc 1 1037 0
 765 0042 B5F80AA0 		ldrh	sl, [r5, #10]
 766              	.LVL99:
 767              		.loc 1 1038 0
 768 0046 B5F80C80 		ldrh	r8, [r5, #12]
 769              	.LVL100:
 770              		.loc 1 1039 0
 771 004a ED89     		ldrh	r5, [r5, #14]
 772              	.LVL101:
 773              	.L92:
 774              		.loc 1 1044 0
 775 004c 01B3     		cbz	r1, .L93
 776              		.loc 1 1044 0 is_stmt 0 discriminator 1
 777 004e 4FEAE40C 		asr	ip, r4, #3
 778 0052 04F00707 		and	r7, r4, #7
 779 0056 11F80C90 		ldrb	r9, [r1, ip]	@ zero_extendqisi2
 780 005a 49FA07F9 		asr	r9, r9, r7
 781 005e 19F0010F 		tst	r9, #1
 782 0062 15D0     		beq	.L93
 783 0064 0FFA8AFA 		sxth	sl, sl
 784              	.LVL102:
 785 0068 BAF1000F 		cmp	sl, #0
 786 006c D8BF     		it	le
 787 006e BBF1000F 		cmple	fp, #0
 788 0072 0DD0     		beq	.L93
 789              		.loc 1 1045 0 is_stmt 1
 790 0074 0DF11809 		add	r9, sp, #24
 791 0078 CC44     		add	ip, r9, ip
 792 007a 4FF00109 		mov	r9, #1
 793 007e 09FA07F7 		lsl	r7, r9, r7
 794 0082 1CF80C9C 		ldrb	r9, [ip, #-12]	@ zero_extendqisi2
 795 0086 47EA0907 		orr	r7, r7, r9
 796 008a 0CF80C7C 		strb	r7, [ip, #-12]
ARM GAS  /var/folders/5n/p_75w94d66l9ssrldxqdhh700000gn/T//cciPPkzE.s 			page 15


 797              		.loc 1 1047 0
 798 008e 0130     		adds	r0, r0, #1
 799              	.LVL103:
 800              	.L93:
 801              		.loc 1 1050 0
 802 0090 FAB1     		cbz	r2, .L94
 803              		.loc 1 1050 0 is_stmt 0 discriminator 1
 804 0092 4FEAE40C 		asr	ip, r4, #3
 805 0096 04F00707 		and	r7, r4, #7
 806 009a 12F80C90 		ldrb	r9, [r2, ip]	@ zero_extendqisi2
 807 009e 49FA07F9 		asr	r9, r9, r7
 808 00a2 B8F1000F 		cmp	r8, #0
 809 00a6 0CBF     		ite	eq
 810 00a8 4FF00008 		moveq	r8, #0
 811 00ac 09F00108 		andne	r8, r9, #1
 812              	.LVL104:
 813 00b0 B8F1000F 		cmp	r8, #0
 814 00b4 0DD0     		beq	.L94
 815              		.loc 1 1051 0 is_stmt 1
 816 00b6 0DF11808 		add	r8, sp, #24
 817 00ba C444     		add	ip, r8, ip
 818 00bc 4FF00109 		mov	r9, #1
 819 00c0 1CF8088C 		ldrb	r8, [ip, #-8]	@ zero_extendqisi2
 820 00c4 09FA07F7 		lsl	r7, r9, r7
 821 00c8 47EA0807 		orr	r7, r7, r8
 822 00cc 0CF8087C 		strb	r7, [ip, #-8]
 823              		.loc 1 1053 0
 824 00d0 4844     		add	r0, r0, r9
 825              	.LVL105:
 826              	.L94:
 827              		.loc 1 1056 0
 828 00d2 CBB1     		cbz	r3, .L95
 829              		.loc 1 1056 0 is_stmt 0 discriminator 1
 830 00d4 4FEAE40C 		asr	ip, r4, #3
 831 00d8 04F00707 		and	r7, r4, #7
 832 00dc 13F80C80 		ldrb	r8, [r3, ip]	@ zero_extendqisi2
 833 00e0 48FA07F8 		asr	r8, r8, r7
 834 00e4 002D     		cmp	r5, #0
 835 00e6 0CBF     		ite	eq
 836 00e8 0025     		moveq	r5, #0
 837 00ea 08F00105 		andne	r5, r8, #1
 838              	.LVL106:
 839 00ee 5DB1     		cbz	r5, .L95
 840              		.loc 1 1057 0 is_stmt 1
 841 00f0 06AD     		add	r5, sp, #24
 842 00f2 AC44     		add	ip, r5, ip
 843 00f4 4FF00108 		mov	r8, #1
 844 00f8 1CF8045C 		ldrb	r5, [ip, #-4]	@ zero_extendqisi2
 845 00fc 08FA07F7 		lsl	r7, r8, r7
 846 0100 2F43     		orrs	r7, r7, r5
 847 0102 0CF8047C 		strb	r7, [ip, #-4]
 848              		.loc 1 1059 0
 849 0106 4044     		add	r0, r0, r8
 850              	.LVL107:
 851              	.L95:
 852              	.LBE56:
 853              		.loc 1 1027 0
ARM GAS  /var/folders/5n/p_75w94d66l9ssrldxqdhh700000gn/T//cciPPkzE.s 			page 16


 854 0108 DDF80490 		ldr	r9, [sp, #4]
 855 010c 0134     		adds	r4, r4, #1
 856              	.LVL108:
 857 010e 1836     		adds	r6, r6, #24
 858 0110 4C45     		cmp	r4, r9
 859 0112 84D1     		bne	.L96
 860              	.LVL109:
 861              	.L91:
 862              		.loc 1 1063 0
 863 0114 0E9B     		ldr	r3, [sp, #56]
 864              	.LVL110:
 865 0116 9DF80C40 		ldrb	r4, [sp, #12]	@ zero_extendqisi2
 866              		.loc 1 1064 0
 867 011a 9DF81010 		ldrb	r1, [sp, #16]	@ zero_extendqisi2
 868              	.LVL111:
 869              		.loc 1 1063 0
 870 011e 1C70     		strb	r4, [r3, #0]
 871              		.loc 1 1064 0
 872 0120 0F9B     		ldr	r3, [sp, #60]
 873              		.loc 1 1065 0
 874 0122 9DF81420 		ldrb	r2, [sp, #20]	@ zero_extendqisi2
 875              	.LVL112:
 876              		.loc 1 1064 0
 877 0126 1970     		strb	r1, [r3, #0]
 878              		.loc 1 1065 0
 879 0128 109B     		ldr	r3, [sp, #64]
 880 012a 1A70     		strb	r2, [r3, #0]
 881              		.loc 1 1069 0
 882 012c 06B0     		add	sp, sp, #24
 883 012e BDE8F00F 		pop	{r4, r5, r6, r7, r8, r9, sl, fp}
 884 0132 7047     		bx	lr
 885              	.LVL113:
 886              	.L98:
 887              	.LBB61:
 888              	.LBB60:
 889              	.LBB59:
 890              		.loc 1 1031 0
 891 0134 0025     		movs	r5, #0
 892              		.loc 1 1030 0
 893 0136 A846     		mov	r8, r5
 894              		.loc 1 1029 0
 895 0138 AA46     		mov	sl, r5
 896              		.loc 1 1028 0
 897 013a AB46     		mov	fp, r5
 898 013c 86E7     		b	.L92
 899              	.LBE59:
 900              	.LBE60:
 901              	.LBE61:
 902              		.cfi_endproc
 903              	.LFE24:
 904              		.size	lwip_selscan, .-lwip_selscan
 905 013e 00BF     		.section	.text.lwip_getaddrname,"ax",%progbits
 906              		.align	2
 907              		.p2align 4,,15
 908              		.thumb
 909              		.thumb_func
 910              		.type	lwip_getaddrname, %function
ARM GAS  /var/folders/5n/p_75w94d66l9ssrldxqdhh700000gn/T//cciPPkzE.s 			page 17


 911              	lwip_getaddrname:
 912              	.LFB28:
 913              		.loc 1 1396 0
 914              		.cfi_startproc
 915              		@ args = 0, pretend = 0, frame = 24
 916              		@ frame_needed = 0, uses_anonymous_args = 0
 917              	.LVL114:
 918 0000 F0B5     		push	{r4, r5, r6, r7, lr}
 919              	.LCFI7:
 920              		.cfi_def_cfa_offset 20
 921              		.cfi_offset 14, -4
 922              		.cfi_offset 7, -8
 923              		.cfi_offset 6, -12
 924              		.cfi_offset 5, -16
 925              		.cfi_offset 4, -20
 926              	.LBB62:
 927              	.LBB63:
 928              		.loc 1 199 0
 929 0002 0328     		cmp	r0, #3
 930              	.LBE63:
 931              	.LBE62:
 932              		.loc 1 1396 0
 933 0004 87B0     		sub	sp, sp, #28
 934              	.LCFI8:
 935              		.cfi_def_cfa_offset 48
 936              		.loc 1 1396 0
 937 0006 0E46     		mov	r6, r1
 938 0008 1546     		mov	r5, r2
 939              	.LBB66:
 940              	.LBB64:
 941              		.loc 1 199 0
 942 000a 32D8     		bhi	.L105
 943              		.loc 1 205 0
 944 000c 00EB4000 		add	r0, r0, r0, lsl #1
 945              	.LVL115:
 946 0010 194A     		ldr	r2, .L106
 947              	.LVL116:
 948 0012 C000     		lsls	r0, r0, #3
 949 0014 1718     		adds	r7, r2, r0
 950              	.LVL117:
 951              		.loc 1 207 0
 952 0016 1058     		ldr	r0, [r2, r0]
 953 0018 0028     		cmp	r0, #0
 954 001a 2AD0     		beq	.L105
 955              	.LBE64:
 956              	.LBE66:
 957              		.loc 1 1406 0
 958 001c 4FF0000E 		mov	lr, #0
 959              		.loc 1 1407 0
 960 0020 1024     		movs	r4, #16
 961              		.loc 1 1406 0
 962 0022 CDF804E0 		str	lr, [sp, #4]
 963              		.loc 1 1411 0
 964 0026 05A9     		add	r1, sp, #20
 965              	.LVL118:
 966 0028 0DF10602 		add	r2, sp, #6
 967              		.loc 1 1406 0
ARM GAS  /var/folders/5n/p_75w94d66l9ssrldxqdhh700000gn/T//cciPPkzE.s 			page 18


 968 002c CDF808E0 		str	lr, [sp, #8]
 969 0030 CDF80CE0 		str	lr, [sp, #12]
 970 0034 CDF810E0 		str	lr, [sp, #16]
 971              		.loc 1 1408 0
 972 0038 4FF0020E 		mov	lr, #2
 973 003c 8DF805E0 		strb	lr, [sp, #5]
 974              		.loc 1 1407 0
 975 0040 8DF80440 		strb	r4, [sp, #4]
 976              		.loc 1 1411 0
 977 0044 FFF7FEFF 		bl	netconn_getaddr
 978              	.LVL119:
 979              		.loc 1 1417 0
 980 0048 BDF80600 		ldrh	r0, [sp, #6]
 981 004c FFF7FEFF 		bl	lwip_htons
 982              		.loc 1 1420 0
 983 0050 2A68     		ldr	r2, [r5, #0]
 984              		.loc 1 1418 0
 985 0052 059B     		ldr	r3, [sp, #20]
 986              		.loc 1 1417 0
 987 0054 ADF80600 		strh	r0, [sp, #6]	@ movhi
 988              		.loc 1 1420 0
 989 0058 A242     		cmp	r2, r4
 990              		.loc 1 1421 0
 991 005a 84BF     		itt	hi
 992 005c 2C60     		strhi	r4, [r5, #0]
 993 005e 2246     		movhi	r2, r4
 994              		.loc 1 1424 0
 995 0060 3046     		mov	r0, r6
 996 0062 01A9     		add	r1, sp, #4
 997              		.loc 1 1418 0
 998 0064 0293     		str	r3, [sp, #8]
 999              		.loc 1 1424 0
 1000 0066 FFF7FEFF 		bl	memcpy
 1001              		.loc 1 1425 0
 1002 006a 0020     		movs	r0, #0
 1003 006c 3861     		str	r0, [r7, #16]
 1004              	.LVL120:
 1005              	.L102:
 1006              		.loc 1 1427 0
 1007 006e 07B0     		add	sp, sp, #28
 1008 0070 F0BD     		pop	{r4, r5, r6, r7, pc}
 1009              	.LVL121:
 1010              	.L105:
 1011              	.LBB67:
 1012              	.LBB65:
 1013              		.loc 1 1403 0
 1014 0072 4FF0FF30 		mov	r0, #-1
 1015 0076 FAE7     		b	.L102
 1016              	.L107:
 1017              		.align	2
 1018              	.L106:
 1019 0078 00000000 		.word	.LANCHOR1
 1020              	.LBE65:
 1021              	.LBE67:
 1022              		.cfi_endproc
 1023              	.LFE28:
 1024              		.size	lwip_getaddrname, .-lwip_getaddrname
ARM GAS  /var/folders/5n/p_75w94d66l9ssrldxqdhh700000gn/T//cciPPkzE.s 			page 19


 1025 007c AFF30080 		.section	.text.lwip_socket_init,"ax",%progbits
 1026              		.align	2
 1027              		.p2align 4,,15
 1028              		.global	lwip_socket_init
 1029              		.thumb
 1030              		.thumb_func
 1031              		.type	lwip_socket_init, %function
 1032              	lwip_socket_init:
 1033              	.LFB7:
 1034              		.loc 1 185 0
 1035              		.cfi_startproc
 1036              		@ args = 0, pretend = 0, frame = 0
 1037              		@ frame_needed = 0, uses_anonymous_args = 0
 1038              		@ link register save eliminated.
 1039              		.loc 1 186 0
 1040 0000 7047     		bx	lr
 1041              		.cfi_endproc
 1042              	.LFE7:
 1043              		.size	lwip_socket_init, .-lwip_socket_init
 1044 0002 00BFAFF3 		.section	.text.lwip_accept,"ax",%progbits
 1044      0080AFF3 
 1044      0080AFF3 
 1044      0080
 1045              		.align	2
 1046              		.p2align 4,,15
 1047              		.global	lwip_accept
 1048              		.thumb
 1049              		.thumb_func
 1050              		.type	lwip_accept, %function
 1051              	lwip_accept:
 1052              	.LFB12:
 1053              		.loc 1 313 0
 1054              		.cfi_startproc
 1055              		@ args = 0, pretend = 0, frame = 40
 1056              		@ frame_needed = 0, uses_anonymous_args = 0
 1057              	.LVL122:
 1058 0000 2DE9F043 		push	{r4, r5, r6, r7, r8, r9, lr}
 1059              	.LCFI9:
 1060              		.cfi_def_cfa_offset 28
 1061              		.cfi_offset 14, -4
 1062              		.cfi_offset 9, -8
 1063              		.cfi_offset 8, -12
 1064              		.cfi_offset 7, -16
 1065              		.cfi_offset 6, -20
 1066              		.cfi_offset 5, -24
 1067              		.cfi_offset 4, -28
 1068              	.LBB68:
 1069              	.LBB69:
 1070              		.loc 1 199 0
 1071 0004 0328     		cmp	r0, #3
 1072              	.LBE69:
 1073              	.LBE68:
 1074              		.loc 1 313 0
 1075 0006 8BB0     		sub	sp, sp, #44
 1076              	.LCFI10:
 1077              		.cfi_def_cfa_offset 72
 1078              		.loc 1 313 0
ARM GAS  /var/folders/5n/p_75w94d66l9ssrldxqdhh700000gn/T//cciPPkzE.s 			page 20


 1079 0008 0F46     		mov	r7, r1
 1080 000a 1646     		mov	r6, r2
 1081              	.LBB72:
 1082              	.LBB70:
 1083              		.loc 1 199 0
 1084 000c 59D8     		bhi	.L126
 1085              	.LVL123:
 1086              		.loc 1 205 0
 1087 000e 00EB4000 		add	r0, r0, r0, lsl #1
 1088              	.LVL124:
 1089 0012 504C     		ldr	r4, .L138
 1090 0014 C000     		lsls	r0, r0, #3
 1091 0016 2518     		adds	r5, r4, r0
 1092              	.LVL125:
 1093              		.loc 1 207 0
 1094 0018 2058     		ldr	r0, [r4, r0]
 1095 001a 0028     		cmp	r0, #0
 1096 001c 51D0     		beq	.L126
 1097              	.LBE70:
 1098              	.LBE72:
 1099              		.loc 1 329 0
 1100 001e 037F     		ldrb	r3, [r0, #28]	@ zero_extendqisi2
 1101 0020 9B07     		lsls	r3, r3, #30
 1102 0022 04D5     		bpl	.L111
 1103              		.loc 1 329 0 is_stmt 0 discriminator 1
 1104 0024 B5F90A30 		ldrsh	r3, [r5, #10]
 1105 0028 002B     		cmp	r3, #0
 1106 002a 40F38E80 		ble	.L132
 1107              	.L111:
 1108              		.loc 1 336 0 is_stmt 1
 1109 002e 07A9     		add	r1, sp, #28
 1110              	.LVL126:
 1111 0030 FFF7FEFF 		bl	netconn_accept
 1112              	.LVL127:
 1113              		.loc 1 337 0
 1114 0034 0028     		cmp	r0, #0
 1115 0036 73D1     		bne	.L133
 1116              	.LVL128:
 1117              		.loc 1 342 0
 1118 0038 0798     		ldr	r0, [sp, #28]
 1119              	.LVL129:
 1120 003a 0028     		cmp	r0, #0
 1121 003c 69D0     		beq	.L134
 1122              	.L114:
 1123              		.loc 1 344 0 discriminator 1
 1124 003e 037F     		ldrb	r3, [r0, #28]	@ zero_extendqisi2
 1125 0040 43F00803 		orr	r3, r3, #8
 1126 0044 0377     		strb	r3, [r0, #28]
 1127              		.loc 1 347 0 discriminator 1
 1128 0046 08A9     		add	r1, sp, #32
 1129 0048 0023     		movs	r3, #0
 1130 004a 0DF12602 		add	r2, sp, #38
 1131 004e FFF7FEFF 		bl	netconn_getaddr
 1132              	.LVL130:
 1133              		.loc 1 348 0 discriminator 1
 1134 0052 0346     		mov	r3, r0
 1135 0054 0028     		cmp	r0, #0
ARM GAS  /var/folders/5n/p_75w94d66l9ssrldxqdhh700000gn/T//cciPPkzE.s 			page 21


 1136 0056 6CD1     		bne	.L135
 1137              		.loc 1 358 0
 1138 0058 FFB1     		cbz	r7, .L117
 1139              		.loc 1 359 0
 1140 005a 002E     		cmp	r6, #0
 1141 005c 5DD0     		beq	.L136
 1142              	.LVL131:
 1143              	.L118:
 1144              		.loc 1 360 0
 1145 005e 0023     		movs	r3, #0
 1146              		.loc 1 361 0
 1147 0060 4FF01008 		mov	r8, #16
 1148              		.loc 1 360 0
 1149 0064 0393     		str	r3, [sp, #12]
 1150 0066 0493     		str	r3, [sp, #16]
 1151 0068 0593     		str	r3, [sp, #20]
 1152 006a 0693     		str	r3, [sp, #24]
 1153              	.LVL132:
 1154              		.loc 1 363 0
 1155 006c BDF82600 		ldrh	r0, [sp, #38]
 1156              		.loc 1 361 0
 1157 0070 8DF80C80 		strb	r8, [sp, #12]
 1158              		.loc 1 362 0
 1159 0074 0223     		movs	r3, #2
 1160 0076 8DF80D30 		strb	r3, [sp, #13]
 1161              		.loc 1 363 0
 1162 007a FFF7FEFF 		bl	lwip_htons
 1163              		.loc 1 366 0
 1164 007e 3268     		ldr	r2, [r6, #0]
 1165              		.loc 1 364 0
 1166 0080 089B     		ldr	r3, [sp, #32]
 1167              		.loc 1 363 0
 1168 0082 ADF80E00 		strh	r0, [sp, #14]	@ movhi
 1169              		.loc 1 366 0
 1170 0086 4245     		cmp	r2, r8
 1171              		.loc 1 367 0
 1172 0088 84BF     		itt	hi
 1173 008a C6F80080 		strhi	r8, [r6, #0]
 1174 008e 4246     		movhi	r2, r8
 1175              		.loc 1 369 0
 1176 0090 3846     		mov	r0, r7
 1177 0092 03A9     		add	r1, sp, #12
 1178              		.loc 1 364 0
 1179 0094 0493     		str	r3, [sp, #16]
 1180              		.loc 1 369 0
 1181 0096 FFF7FEFF 		bl	memcpy
 1182              	.L117:
 1183              		.loc 1 372 0
 1184 009a 0023     		movs	r3, #0
 1185 009c 0798     		ldr	r0, [sp, #28]
 1186              	.LVL133:
 1187              		.loc 1 249 0
 1188 009e 1E46     		mov	r6, r3
 1189              	.LVL134:
 1190              	.L123:
 1191              	.LBB73:
 1192              	.LBB74:
ARM GAS  /var/folders/5n/p_75w94d66l9ssrldxqdhh700000gn/T//cciPPkzE.s 			page 22


 1193              		.loc 1 252 0
 1194 00a0 E258     		ldr	r2, [r4, r3]
 1195 00a2 2C49     		ldr	r1, .L138
 1196              		.loc 1 249 0
 1197 00a4 1833     		adds	r3, r3, #24
 1198              		.loc 1 252 0
 1199 00a6 7AB1     		cbz	r2, .L137
 1200              		.loc 1 249 0
 1201 00a8 0136     		adds	r6, r6, #1
 1202              	.LVL135:
 1203 00aa 042E     		cmp	r6, #4
 1204 00ac F8D1     		bne	.L123
 1205              	.LBE74:
 1206              	.LBE73:
 1207              		.loc 1 374 0
 1208 00ae FFF7FEFF 		bl	netconn_delete
 1209              	.LVL136:
 1210              		.loc 1 375 0
 1211 00b2 1723     		movs	r3, #23
 1212              	.LVL137:
 1213              	.L131:
 1214 00b4 2B61     		str	r3, [r5, #16]
 1215              		.loc 1 376 0
 1216 00b6 4FF0FF36 		mov	r6, #-1
 1217              	.LVL138:
 1218              	.L110:
 1219              		.loc 1 398 0
 1220 00ba 3046     		mov	r0, r6
 1221 00bc 0BB0     		add	sp, sp, #44
 1222 00be BDE8F083 		pop	{r4, r5, r6, r7, r8, r9, pc}
 1223              	.LVL139:
 1224              	.L126:
 1225              	.LBB77:
 1226              	.LBB71:
 1227              		.loc 1 326 0
 1228 00c2 4FF0FF36 		mov	r6, #-1
 1229 00c6 F8E7     		b	.L110
 1230              	.LVL140:
 1231              	.L137:
 1232              	.LBE71:
 1233              	.LBE77:
 1234              	.LBB78:
 1235              	.LBB75:
 1236              		.loc 1 253 0
 1237 00c8 7700     		lsls	r7, r6, #1
 1238              	.LVL141:
 1239 00ca 07EB0608 		add	r8, r7, r6
 1240 00ce 4FEAC808 		lsl	r8, r8, #3
 1241 00d2 01EB0803 		add	r3, r1, r8
 1242              	.LBE75:
 1243              	.LBE78:
 1244              		.loc 1 379 0
 1245 00d6 D0F82890 		ldr	r9, [r0, #40]
 1246              	.LBB79:
 1247              	.LBB76:
 1248              		.loc 1 253 0
 1249 00da 41F80800 		str	r0, [r1, r8]
ARM GAS  /var/folders/5n/p_75w94d66l9ssrldxqdhh700000gn/T//cciPPkzE.s 			page 23


 1250              		.loc 1 262 0
 1251 00de 0121     		movs	r1, #1
 1252              		.loc 1 257 0
 1253 00e0 5A60     		str	r2, [r3, #4]
 1254              		.loc 1 258 0
 1255 00e2 1A81     		strh	r2, [r3, #8]	@ movhi
 1256              		.loc 1 259 0
 1257 00e4 5A81     		strh	r2, [r3, #10]	@ movhi
 1258              		.loc 1 262 0
 1259 00e6 9981     		strh	r1, [r3, #12]	@ movhi
 1260              		.loc 1 263 0
 1261 00e8 DA81     		strh	r2, [r3, #14]	@ movhi
 1262              		.loc 1 264 0
 1263 00ea 1A61     		str	r2, [r3, #16]
 1264              		.loc 1 265 0
 1265 00ec 5A61     		str	r2, [r3, #20]
 1266              	.LBE76:
 1267              	.LBE79:
 1268              		.loc 1 379 0
 1269 00ee 1A4B     		ldr	r3, .L138+4
 1270 00f0 9945     		cmp	r9, r3
 1271 00f2 02D0     		beq	.L122
 1272              		.loc 1 379 0 is_stmt 0 discriminator 1
 1273 00f4 FFF7FEFF 		bl	port_halt
 1274              	.LVL142:
 1275 00f8 0798     		ldr	r0, [sp, #28]
 1276              	.L122:
 1277              		.loc 1 380 0 is_stmt 1
 1278 00fa BB19     		adds	r3, r7, r6
 1279 00fc 04EBC304 		add	r4, r4, r3, lsl #3
 1280              	.LVL143:
 1281              		.loc 1 388 0
 1282 0100 8369     		ldr	r3, [r0, #24]
 1283 0102 6289     		ldrh	r2, [r4, #10]
 1284 0104 DB43     		mvns	r3, r3
 1285 0106 9B18     		adds	r3, r3, r2
 1286 0108 6381     		strh	r3, [r4, #10]	@ movhi
 1287              		.loc 1 396 0
 1288 010a 0023     		movs	r3, #0
 1289              		.loc 1 389 0
 1290 010c 8661     		str	r6, [r0, #24]
 1291              		.loc 1 396 0
 1292 010e 2B61     		str	r3, [r5, #16]
 1293              		.loc 1 397 0
 1294 0110 D3E7     		b	.L110
 1295              	.LVL144:
 1296              	.L134:
 1297              		.loc 1 342 0 discriminator 1
 1298 0112 FFF7FEFF 		bl	port_halt
 1299 0116 0798     		ldr	r0, [sp, #28]
 1300 0118 91E7     		b	.L114
 1301              	.LVL145:
 1302              	.L136:
 1303              		.loc 1 359 0 discriminator 1
 1304 011a FFF7FEFF 		bl	port_halt
 1305              	.LVL146:
 1306 011e 9EE7     		b	.L118
ARM GAS  /var/folders/5n/p_75w94d66l9ssrldxqdhh700000gn/T//cciPPkzE.s 			page 24


 1307              	.LVL147:
 1308              	.L133:
 1309              		.loc 1 339 0
 1310 0120 4042     		negs	r0, r0
 1311              	.LVL148:
 1312 0122 0F28     		cmp	r0, #15
 1313 0124 03D8     		bhi	.L128
 1314              		.loc 1 339 0 is_stmt 0 discriminator 1
 1315 0126 0D4B     		ldr	r3, .L138+8
 1316 0128 53F82030 		ldr	r3, [r3, r0, lsl #2]
 1317 012c C2E7     		b	.L131
 1318              	.LVL149:
 1319              	.L128:
 1320              		.loc 1 351 0 is_stmt 1
 1321 012e 0523     		movs	r3, #5
 1322 0130 C0E7     		b	.L131
 1323              	.LVL150:
 1324              	.L135:
 1325              		.loc 1 350 0
 1326 0132 0798     		ldr	r0, [sp, #28]
 1327              	.LVL151:
 1328 0134 0193     		str	r3, [sp, #4]
 1329 0136 FFF7FEFF 		bl	netconn_delete
 1330              		.loc 1 351 0
 1331 013a 019B     		ldr	r3, [sp, #4]
 1332 013c 5B42     		negs	r3, r3
 1333 013e 0F2B     		cmp	r3, #15
 1334 0140 F5D8     		bhi	.L128
 1335              		.loc 1 351 0 is_stmt 0 discriminator 1
 1336 0142 064A     		ldr	r2, .L138+8
 1337 0144 52F82330 		ldr	r3, [r2, r3, lsl #2]
 1338 0148 B4E7     		b	.L131
 1339              	.LVL152:
 1340              	.L132:
 1341              		.loc 1 331 0 is_stmt 1
 1342 014a 0B23     		movs	r3, #11
 1343 014c 2B61     		str	r3, [r5, #16]
 1344              		.loc 1 332 0
 1345 014e 4FF0FF36 		mov	r6, #-1
 1346              	.LVL153:
 1347 0152 B2E7     		b	.L110
 1348              	.L139:
 1349              		.align	2
 1350              	.L138:
 1351 0154 00000000 		.word	.LANCHOR1
 1352 0158 00000000 		.word	event_callback
 1353 015c 00000000 		.word	.LANCHOR0
 1354              		.cfi_endproc
 1355              	.LFE12:
 1356              		.size	lwip_accept, .-lwip_accept
 1357              		.section	.text.lwip_bind,"ax",%progbits
 1358              		.align	2
 1359              		.p2align 4,,15
 1360              		.global	lwip_bind
 1361              		.thumb
 1362              		.thumb_func
 1363              		.type	lwip_bind, %function
ARM GAS  /var/folders/5n/p_75w94d66l9ssrldxqdhh700000gn/T//cciPPkzE.s 			page 25


 1364              	lwip_bind:
 1365              	.LFB13:
 1366              		.loc 1 402 0
 1367              		.cfi_startproc
 1368              		@ args = 0, pretend = 0, frame = 8
 1369              		@ frame_needed = 0, uses_anonymous_args = 0
 1370              	.LVL154:
 1371 0000 70B5     		push	{r4, r5, r6, lr}
 1372              	.LCFI11:
 1373              		.cfi_def_cfa_offset 16
 1374              		.cfi_offset 14, -4
 1375              		.cfi_offset 6, -8
 1376              		.cfi_offset 5, -12
 1377              		.cfi_offset 4, -16
 1378              	.LBB80:
 1379              	.LBB81:
 1380              		.loc 1 199 0
 1381 0002 0328     		cmp	r0, #3
 1382              	.LBE81:
 1383              	.LBE80:
 1384              		.loc 1 402 0
 1385 0004 82B0     		sub	sp, sp, #8
 1386              	.LCFI12:
 1387              		.cfi_def_cfa_offset 24
 1388              	.LBB84:
 1389              	.LBB82:
 1390              		.loc 1 199 0
 1391 0006 1DD8     		bhi	.L147
 1392              	.LVL155:
 1393              		.loc 1 205 0
 1394 0008 00EB4000 		add	r0, r0, r0, lsl #1
 1395              	.LVL156:
 1396 000c 184B     		ldr	r3, .L150
 1397 000e C000     		lsls	r0, r0, #3
 1398 0010 1C18     		adds	r4, r3, r0
 1399              	.LVL157:
 1400              		.loc 1 207 0
 1401 0012 1E58     		ldr	r6, [r3, r0]
 1402 0014 B6B1     		cbz	r6, .L147
 1403              	.LBE82:
 1404              	.LBE84:
 1405              		.loc 1 415 0
 1406 0016 102A     		cmp	r2, #16
 1407 0018 17D1     		bne	.L142
 1408              		.loc 1 415 0 is_stmt 0 discriminator 2
 1409 001a 4B78     		ldrb	r3, [r1, #1]	@ zero_extendqisi2
 1410 001c 022B     		cmp	r3, #2
 1411 001e 14D1     		bne	.L142
 1412              		.loc 1 415 0 discriminator 3
 1413 0020 8A07     		lsls	r2, r1, #30
 1414              	.LVL158:
 1415 0022 12D1     		bne	.L142
 1416              	.LVL159:
 1417              		.loc 1 420 0 is_stmt 1
 1418 0024 4B68     		ldr	r3, [r1, #4]
 1419              		.loc 1 427 0
 1420 0026 4888     		ldrh	r0, [r1, #2]
ARM GAS  /var/folders/5n/p_75w94d66l9ssrldxqdhh700000gn/T//cciPPkzE.s 			page 26


 1421              		.loc 1 420 0
 1422 0028 02AD     		add	r5, sp, #8
 1423 002a 45F8043D 		str	r3, [r5, #-4]!
 1424              	.LVL160:
 1425              		.loc 1 427 0
 1426 002e FFF7FEFF 		bl	lwip_ntohs
 1427              	.LVL161:
 1428 0032 2946     		mov	r1, r5
 1429 0034 0246     		mov	r2, r0
 1430 0036 3046     		mov	r0, r6
 1431 0038 FFF7FEFF 		bl	netconn_bind
 1432              	.LVL162:
 1433              		.loc 1 429 0
 1434 003c 60B9     		cbnz	r0, .L149
 1435              		.loc 1 436 0
 1436 003e 2061     		str	r0, [r4, #16]
 1437              	.LVL163:
 1438              	.L141:
 1439              		.loc 1 438 0
 1440 0040 02B0     		add	sp, sp, #8
 1441 0042 70BD     		pop	{r4, r5, r6, pc}
 1442              	.LVL164:
 1443              	.L147:
 1444              	.LBB85:
 1445              	.LBB83:
 1446              		.loc 1 411 0
 1447 0044 4FF0FF30 		mov	r0, #-1
 1448 0048 FAE7     		b	.L141
 1449              	.LVL165:
 1450              	.L142:
 1451              	.LBE83:
 1452              	.LBE85:
 1453              		.loc 1 415 0 discriminator 1
 1454 004a FFF7FEFF 		bl	port_halt
 1455              	.LVL166:
 1456 004e 0523     		movs	r3, #5
 1457 0050 2361     		str	r3, [r4, #16]
 1458 0052 4FF0FF30 		mov	r0, #-1
 1459 0056 F3E7     		b	.L141
 1460              	.LVL167:
 1461              	.L149:
 1462              		.loc 1 431 0
 1463 0058 4042     		negs	r0, r0
 1464              	.LVL168:
 1465 005a 0F28     		cmp	r0, #15
 1466 005c 9ABF     		itte	ls
 1467 005e 054B     		ldrls	r3, .L150+4
 1468 0060 53F82030 		ldrls	r3, [r3, r0, lsl #2]
 1469 0064 0523     		movhi	r3, #5
 1470 0066 2361     		str	r3, [r4, #16]
 1471              		.loc 1 432 0
 1472 0068 4FF0FF30 		mov	r0, #-1
 1473 006c E8E7     		b	.L141
 1474              	.L151:
 1475 006e 00BF     		.align	2
 1476              	.L150:
 1477 0070 00000000 		.word	.LANCHOR1
ARM GAS  /var/folders/5n/p_75w94d66l9ssrldxqdhh700000gn/T//cciPPkzE.s 			page 27


 1478 0074 00000000 		.word	.LANCHOR0
 1479              		.cfi_endproc
 1480              	.LFE13:
 1481              		.size	lwip_bind, .-lwip_bind
 1482 0078 AFF30080 		.section	.text.lwip_close,"ax",%progbits
 1482      AFF30080 
 1483              		.align	2
 1484              		.p2align 4,,15
 1485              		.global	lwip_close
 1486              		.thumb
 1487              		.thumb_func
 1488              		.type	lwip_close, %function
 1489              	lwip_close:
 1490              	.LFB14:
 1491              		.loc 1 442 0
 1492              		.cfi_startproc
 1493              		@ args = 0, pretend = 0, frame = 0
 1494              		@ frame_needed = 0, uses_anonymous_args = 0
 1495              	.LVL169:
 1496              	.LBB86:
 1497              	.LBB87:
 1498              		.loc 1 199 0
 1499 0000 0328     		cmp	r0, #3
 1500              	.LBE87:
 1501              	.LBE86:
 1502              		.loc 1 442 0
 1503 0002 2DE9F041 		push	{r4, r5, r6, r7, r8, lr}
 1504              	.LCFI13:
 1505              		.cfi_def_cfa_offset 24
 1506              		.cfi_offset 14, -4
 1507              		.cfi_offset 8, -8
 1508              		.cfi_offset 7, -12
 1509              		.cfi_offset 6, -16
 1510              		.cfi_offset 5, -20
 1511              		.cfi_offset 4, -24
 1512              	.LBB91:
 1513              	.LBB88:
 1514              		.loc 1 199 0
 1515 0006 1ED8     		bhi	.L155
 1516              	.LVL170:
 1517              		.loc 1 205 0
 1518 0008 00EB4000 		add	r0, r0, r0, lsl #1
 1519              	.LVL171:
 1520 000c 124F     		ldr	r7, .L159
 1521 000e C600     		lsls	r6, r0, #3
 1522 0010 BD19     		adds	r5, r7, r6
 1523              	.LVL172:
 1524              		.loc 1 207 0
 1525 0012 BB59     		ldr	r3, [r7, r6]
 1526 0014 9BB1     		cbz	r3, .L156
 1527              	.LBE88:
 1528              	.LBE91:
 1529              		.loc 1 459 0
 1530 0016 1846     		mov	r0, r3
 1531              		.loc 1 454 0
 1532 0018 93F80080 		ldrb	r8, [r3, #0]	@ zero_extendqisi2
 1533              	.LVL173:
ARM GAS  /var/folders/5n/p_75w94d66l9ssrldxqdhh700000gn/T//cciPPkzE.s 			page 28


 1534              		.loc 1 459 0
 1535 001c FFF7FEFF 		bl	netconn_delete
 1536              	.LVL174:
 1537              	.LBB92:
 1538              	.LBB93:
 1539              		.loc 1 285 0
 1540 0020 6868     		ldr	r0, [r5, #4]
 1541              	.LVL175:
 1542              		.loc 1 286 0
 1543 0022 0024     		movs	r4, #0
 1544 0024 6C60     		str	r4, [r5, #4]
 1545              		.loc 1 287 0
 1546 0026 2C81     		strh	r4, [r5, #8]	@ movhi
 1547              		.loc 1 288 0
 1548 0028 2C61     		str	r4, [r5, #16]
 1549              		.loc 1 292 0
 1550 002a BC51     		str	r4, [r7, r6]
 1551              		.loc 1 296 0
 1552 002c 48B1     		cbz	r0, .L153
 1553              		.loc 1 297 0
 1554 002e B8F1100F 		cmp	r8, #16
 1555 0032 0CD0     		beq	.L158
 1556              		.loc 1 300 0
 1557 0034 FFF7FEFF 		bl	netbuf_delete
 1558              	.LVL176:
 1559              		.loc 1 463 0
 1560 0038 2046     		mov	r0, r4
 1561 003a BDE8F081 		pop	{r4, r5, r6, r7, r8, pc}
 1562              	.LVL177:
 1563              	.L156:
 1564              	.LBE93:
 1565              	.LBE92:
 1566              	.LBB95:
 1567              	.LBB89:
 1568              		.loc 1 450 0
 1569 003e 4FF0FF30 		mov	r0, #-1
 1570              	.LVL178:
 1571              	.L153:
 1572              	.LBE89:
 1573              	.LBE95:
 1574              		.loc 1 464 0
 1575 0042 BDE8F081 		pop	{r4, r5, r6, r7, r8, pc}
 1576              	.LVL179:
 1577              	.L155:
 1578              	.LBB96:
 1579              	.LBB90:
 1580              		.loc 1 450 0
 1581 0046 4FF0FF30 		mov	r0, #-1
 1582              	.LVL180:
 1583 004a BDE8F081 		pop	{r4, r5, r6, r7, r8, pc}
 1584              	.LVL181:
 1585              	.L158:
 1586              	.LBE90:
 1587              	.LBE96:
 1588              	.LBB97:
 1589              	.LBB94:
 1590              		.loc 1 298 0
ARM GAS  /var/folders/5n/p_75w94d66l9ssrldxqdhh700000gn/T//cciPPkzE.s 			page 29


 1591 004e FFF7FEFF 		bl	pbuf_free
 1592              	.LVL182:
 1593              		.loc 1 463 0
 1594 0052 2046     		mov	r0, r4
 1595 0054 BDE8F081 		pop	{r4, r5, r6, r7, r8, pc}
 1596              	.L160:
 1597              		.align	2
 1598              	.L159:
 1599 0058 00000000 		.word	.LANCHOR1
 1600              	.LBE94:
 1601              	.LBE97:
 1602              		.cfi_endproc
 1603              	.LFE14:
 1604              		.size	lwip_close, .-lwip_close
 1605 005c AFF30080 		.section	.text.lwip_connect,"ax",%progbits
 1606              		.align	2
 1607              		.p2align 4,,15
 1608              		.global	lwip_connect
 1609              		.thumb
 1610              		.thumb_func
 1611              		.type	lwip_connect, %function
 1612              	lwip_connect:
 1613              	.LFB15:
 1614              		.loc 1 468 0
 1615              		.cfi_startproc
 1616              		@ args = 0, pretend = 0, frame = 8
 1617              		@ frame_needed = 0, uses_anonymous_args = 0
 1618              	.LVL183:
 1619 0000 70B5     		push	{r4, r5, r6, lr}
 1620              	.LCFI14:
 1621              		.cfi_def_cfa_offset 16
 1622              		.cfi_offset 14, -4
 1623              		.cfi_offset 6, -8
 1624              		.cfi_offset 5, -12
 1625              		.cfi_offset 4, -16
 1626              	.LBB98:
 1627              	.LBB99:
 1628              		.loc 1 199 0
 1629 0002 0328     		cmp	r0, #3
 1630              	.LBE99:
 1631              	.LBE98:
 1632              		.loc 1 468 0
 1633 0004 82B0     		sub	sp, sp, #8
 1634              	.LCFI15:
 1635              		.cfi_def_cfa_offset 24
 1636              	.LBB102:
 1637              	.LBB100:
 1638              		.loc 1 199 0
 1639 0006 1DD8     		bhi	.L168
 1640              		.loc 1 205 0
 1641 0008 00EB4000 		add	r0, r0, r0, lsl #1
 1642              	.LVL184:
 1643 000c 184B     		ldr	r3, .L171
 1644 000e C000     		lsls	r0, r0, #3
 1645 0010 1C18     		adds	r4, r3, r0
 1646              	.LVL185:
 1647              		.loc 1 207 0
ARM GAS  /var/folders/5n/p_75w94d66l9ssrldxqdhh700000gn/T//cciPPkzE.s 			page 30


 1648 0012 1E58     		ldr	r6, [r3, r0]
 1649 0014 B6B1     		cbz	r6, .L168
 1650              	.LBE100:
 1651              	.LBE102:
 1652              		.loc 1 479 0
 1653 0016 102A     		cmp	r2, #16
 1654 0018 17D1     		bne	.L163
 1655              		.loc 1 479 0 is_stmt 0 discriminator 2
 1656 001a 4B78     		ldrb	r3, [r1, #1]	@ zero_extendqisi2
 1657 001c 022B     		cmp	r3, #2
 1658 001e 14D1     		bne	.L163
 1659              		.loc 1 479 0 discriminator 3
 1660 0020 8807     		lsls	r0, r1, #30
 1661 0022 12D1     		bne	.L163
 1662              	.LVL186:
 1663              	.LBB103:
 1664              		.loc 1 491 0 is_stmt 1
 1665 0024 4B68     		ldr	r3, [r1, #4]
 1666              		.loc 1 498 0
 1667 0026 4888     		ldrh	r0, [r1, #2]
 1668              		.loc 1 491 0
 1669 0028 02AD     		add	r5, sp, #8
 1670 002a 45F8043D 		str	r3, [r5, #-4]!
 1671              	.LVL187:
 1672              		.loc 1 498 0
 1673 002e FFF7FEFF 		bl	lwip_ntohs
 1674              	.LVL188:
 1675 0032 2946     		mov	r1, r5
 1676 0034 0246     		mov	r2, r0
 1677 0036 3046     		mov	r0, r6
 1678 0038 FFF7FEFF 		bl	netconn_connect
 1679              	.LVL189:
 1680              	.LBE103:
 1681              		.loc 1 501 0
 1682 003c 60B9     		cbnz	r0, .L170
 1683              		.loc 1 508 0
 1684 003e 2061     		str	r0, [r4, #16]
 1685              	.LVL190:
 1686              	.L162:
 1687              		.loc 1 510 0
 1688 0040 02B0     		add	sp, sp, #8
 1689 0042 70BD     		pop	{r4, r5, r6, pc}
 1690              	.LVL191:
 1691              	.L168:
 1692              	.LBB104:
 1693              	.LBB101:
 1694              		.loc 1 475 0
 1695 0044 4FF0FF30 		mov	r0, #-1
 1696 0048 FAE7     		b	.L162
 1697              	.LVL192:
 1698              	.L163:
 1699              	.LBE101:
 1700              	.LBE104:
 1701              		.loc 1 479 0 discriminator 1
 1702 004a FFF7FEFF 		bl	port_halt
 1703              	.LVL193:
 1704 004e 0523     		movs	r3, #5
ARM GAS  /var/folders/5n/p_75w94d66l9ssrldxqdhh700000gn/T//cciPPkzE.s 			page 31


 1705 0050 2361     		str	r3, [r4, #16]
 1706 0052 4FF0FF30 		mov	r0, #-1
 1707 0056 F3E7     		b	.L162
 1708              	.LVL194:
 1709              	.L170:
 1710              		.loc 1 503 0
 1711 0058 4042     		negs	r0, r0
 1712              	.LVL195:
 1713 005a 0F28     		cmp	r0, #15
 1714 005c 9ABF     		itte	ls
 1715 005e 054B     		ldrls	r3, .L171+4
 1716 0060 53F82030 		ldrls	r3, [r3, r0, lsl #2]
 1717 0064 0523     		movhi	r3, #5
 1718 0066 2361     		str	r3, [r4, #16]
 1719              		.loc 1 504 0
 1720 0068 4FF0FF30 		mov	r0, #-1
 1721 006c E8E7     		b	.L162
 1722              	.L172:
 1723 006e 00BF     		.align	2
 1724              	.L171:
 1725 0070 00000000 		.word	.LANCHOR1
 1726 0074 00000000 		.word	.LANCHOR0
 1727              		.cfi_endproc
 1728              	.LFE15:
 1729              		.size	lwip_connect, .-lwip_connect
 1730 0078 AFF30080 		.section	.text.lwip_listen,"ax",%progbits
 1730      AFF30080 
 1731              		.align	2
 1732              		.p2align 4,,15
 1733              		.global	lwip_listen
 1734              		.thumb
 1735              		.thumb_func
 1736              		.type	lwip_listen, %function
 1737              	lwip_listen:
 1738              	.LFB16:
 1739              		.loc 1 522 0
 1740              		.cfi_startproc
 1741              		@ args = 0, pretend = 0, frame = 0
 1742              		@ frame_needed = 0, uses_anonymous_args = 0
 1743              	.LVL196:
 1744              	.LBB105:
 1745              	.LBB106:
 1746              		.loc 1 199 0
 1747 0000 0328     		cmp	r0, #3
 1748              	.LBE106:
 1749              	.LBE105:
 1750              		.loc 1 522 0
 1751 0002 10B5     		push	{r4, lr}
 1752              	.LCFI16:
 1753              		.cfi_def_cfa_offset 8
 1754              		.cfi_offset 14, -4
 1755              		.cfi_offset 4, -8
 1756              	.LBB109:
 1757              	.LBB107:
 1758              		.loc 1 199 0
 1759 0004 11D8     		bhi	.L178
 1760              	.LVL197:
ARM GAS  /var/folders/5n/p_75w94d66l9ssrldxqdhh700000gn/T//cciPPkzE.s 			page 32


 1761              		.loc 1 205 0
 1762 0006 00EB4000 		add	r0, r0, r0, lsl #1
 1763              	.LVL198:
 1764 000a 104B     		ldr	r3, .L183
 1765 000c C000     		lsls	r0, r0, #3
 1766 000e 1C18     		adds	r4, r3, r0
 1767              	.LVL199:
 1768              		.loc 1 207 0
 1769 0010 1858     		ldr	r0, [r3, r0]
 1770 0012 68B1     		cbz	r0, .L179
 1771              	.LVL200:
 1772              	.LBE107:
 1773              	.LBE109:
 1774              		.loc 1 534 0
 1775 0014 FE29     		cmp	r1, #254
 1776 0016 DABF     		itte	le
 1777 0018 21EAE171 		bicle	r1, r1, r1, asr #31
 1778 001c C9B2     		uxtble	r1, r1
 1779 001e FF21     		movgt	r1, #255
 1780              		.loc 1 536 0
 1781 0020 FFF7FEFF 		bl	netconn_listen_with_backlog
 1782              	.LVL201:
 1783              		.loc 1 538 0
 1784 0024 38B9     		cbnz	r0, .L182
 1785              		.loc 1 544 0
 1786 0026 2061     		str	r0, [r4, #16]
 1787              		.loc 1 545 0
 1788 0028 10BD     		pop	{r4, pc}
 1789              	.LVL202:
 1790              	.L178:
 1791              	.LBB110:
 1792              	.LBB108:
 1793              		.loc 1 530 0
 1794 002a 4FF0FF30 		mov	r0, #-1
 1795              	.LVL203:
 1796 002e 10BD     		pop	{r4, pc}
 1797              	.LVL204:
 1798              	.L179:
 1799 0030 4FF0FF30 		mov	r0, #-1
 1800              	.LBE108:
 1801              	.LBE110:
 1802              		.loc 1 546 0
 1803 0034 10BD     		pop	{r4, pc}
 1804              	.LVL205:
 1805              	.L182:
 1806              		.loc 1 540 0
 1807 0036 4042     		negs	r0, r0
 1808              	.LVL206:
 1809 0038 0F28     		cmp	r0, #15
 1810 003a 9ABF     		itte	ls
 1811 003c 044B     		ldrls	r3, .L183+4
 1812 003e 53F82030 		ldrls	r3, [r3, r0, lsl #2]
 1813 0042 0523     		movhi	r3, #5
 1814 0044 2361     		str	r3, [r4, #16]
 1815              		.loc 1 541 0
 1816 0046 4FF0FF30 		mov	r0, #-1
 1817 004a 10BD     		pop	{r4, pc}
ARM GAS  /var/folders/5n/p_75w94d66l9ssrldxqdhh700000gn/T//cciPPkzE.s 			page 33


 1818              	.L184:
 1819              		.align	2
 1820              	.L183:
 1821 004c 00000000 		.word	.LANCHOR1
 1822 0050 00000000 		.word	.LANCHOR0
 1823              		.cfi_endproc
 1824              	.LFE16:
 1825              		.size	lwip_listen, .-lwip_listen
 1826 0054 AFF30080 		.section	.text.lwip_recvfrom,"ax",%progbits
 1826      AFF30080 
 1826      AFF30080 
 1827              		.align	2
 1828              		.p2align 4,,15
 1829              		.global	lwip_recvfrom
 1830              		.thumb
 1831              		.thumb_func
 1832              		.type	lwip_recvfrom, %function
 1833              	lwip_recvfrom:
 1834              	.LFB17:
 1835              		.loc 1 551 0
 1836              		.cfi_startproc
 1837              		@ args = 8, pretend = 0, frame = 48
 1838              		@ frame_needed = 0, uses_anonymous_args = 0
 1839              	.LVL207:
 1840 0000 2DE9F04F 		push	{r4, r5, r6, r7, r8, r9, sl, fp, lr}
 1841              	.LCFI17:
 1842              		.cfi_def_cfa_offset 36
 1843              		.cfi_offset 14, -4
 1844              		.cfi_offset 11, -8
 1845              		.cfi_offset 10, -12
 1846              		.cfi_offset 9, -16
 1847              		.cfi_offset 8, -20
 1848              		.cfi_offset 7, -24
 1849              		.cfi_offset 6, -28
 1850              		.cfi_offset 5, -32
 1851              		.cfi_offset 4, -36
 1852 0004 8DB0     		sub	sp, sp, #52
 1853              	.LCFI18:
 1854              		.cfi_def_cfa_offset 88
 1855              		.loc 1 553 0
 1856 0006 0027     		movs	r7, #0
 1857              	.LBB111:
 1858              	.LBB112:
 1859              		.loc 1 199 0
 1860 0008 0328     		cmp	r0, #3
 1861              	.LBE112:
 1862              	.LBE111:
 1863              		.loc 1 553 0
 1864 000a 0997     		str	r7, [sp, #36]
 1865              	.LVL208:
 1866              		.loc 1 551 0
 1867 000c 0291     		str	r1, [sp, #8]
 1868 000e 9146     		mov	r9, r2
 1869 0010 0193     		str	r3, [sp, #4]
 1870 0012 DDF85CB0 		ldr	fp, [sp, #92]
 1871              	.LBB115:
 1872              	.LBB113:
ARM GAS  /var/folders/5n/p_75w94d66l9ssrldxqdhh700000gn/T//cciPPkzE.s 			page 34


 1873              		.loc 1 199 0
 1874 0016 6CD8     		bhi	.L220
 1875              		.loc 1 205 0
 1876 0018 00EB4000 		add	r0, r0, r0, lsl #1
 1877              	.LVL209:
 1878 001c 7B4B     		ldr	r3, .L239
 1879              	.LVL210:
 1880 001e C000     		lsls	r0, r0, #3
 1881 0020 1D18     		adds	r5, r3, r0
 1882              	.LVL211:
 1883              		.loc 1 207 0
 1884 0022 1B58     		ldr	r3, [r3, r0]
 1885 0024 002B     		cmp	r3, #0
 1886 0026 64D0     		beq	.L220
 1887              	.LVL212:
 1888              	.LBE113:
 1889              	.LBE115:
 1890              		.loc 1 575 0
 1891 0028 019A     		ldr	r2, [sp, #4]
 1892              	.LVL213:
 1893              		.loc 1 571 0
 1894 002a 6C68     		ldr	r4, [r5, #4]
 1895              		.loc 1 575 0
 1896 002c 02F00802 		and	r2, r2, #8
 1897 0030 0392     		str	r2, [sp, #12]
 1898              	.LBB116:
 1899              	.LBB117:
 1900              		.loc 1 671 0
 1901 0032 BA46     		mov	sl, r7
 1902              	.LBE117:
 1903              	.LBE116:
 1904              		.loc 1 571 0
 1905 0034 002C     		cmp	r4, #0
 1906 0036 73D0     		beq	.L187
 1907              	.LVL214:
 1908              	.L234:
 1909              		.loc 1 572 0
 1910 0038 0994     		str	r4, [sp, #36]
 1911              	.L188:
 1912              		.loc 1 621 0
 1913 003a 2B68     		ldr	r3, [r5, #0]
 1914              		.loc 1 640 0
 1915 003c 029A     		ldr	r2, [sp, #8]
 1916              		.loc 1 621 0
 1917 003e 1B78     		ldrb	r3, [r3, #0]	@ zero_extendqisi2
 1918 0040 102B     		cmp	r3, #16
 1919              		.loc 1 624 0
 1920 0042 18BF     		it	ne
 1921 0044 2468     		ldrne	r4, [r4, #0]
 1922              	.LVL215:
 1923              		.loc 1 630 0
 1924 0046 2B89     		ldrh	r3, [r5, #8]
 1925              		.loc 1 626 0
 1926 0048 B4F80880 		ldrh	r8, [r4, #8]
 1927              	.LVL216:
 1928              		.loc 1 630 0
 1929 004c C3EB0808 		rsb	r8, r3, r8
ARM GAS  /var/folders/5n/p_75w94d66l9ssrldxqdhh700000gn/T//cciPPkzE.s 			page 35


 1930              	.LVL217:
 1931 0050 1FFA88F8 		uxth	r8, r8
 1932              	.LVL218:
 1933              		.loc 1 632 0
 1934 0054 C145     		cmp	r9, r8
 1935              		.loc 1 635 0
 1936 0056 94BF     		ite	ls
 1937 0058 1FFA89F6 		uxthls	r6, r9
 1938              	.LVL219:
 1939              		.loc 1 633 0
 1940 005c 4646     		movhi	r6, r8
 1941              	.LVL220:
 1942              		.loc 1 640 0
 1943 005e D119     		adds	r1, r2, r7
 1944 0060 2046     		mov	r0, r4
 1945 0062 3246     		mov	r2, r6
 1946 0064 FFF7FEFF 		bl	pbuf_copy_partial
 1947              		.loc 1 644 0
 1948 0068 2B68     		ldr	r3, [r5, #0]
 1949 006a 1B78     		ldrb	r3, [r3, #0]	@ zero_extendqisi2
 1950 006c 102B     		cmp	r3, #16
 1951              		.loc 1 642 0
 1952 006e 3744     		add	r7, r7, r6
 1953              	.LVL221:
 1954              		.loc 1 644 0
 1955 0070 6ED0     		beq	.L230
 1956              	.LVL222:
 1957              	.L201:
 1958              		.loc 1 730 0
 1959 0072 019A     		ldr	r2, [sp, #4]
 1960 0074 02F00104 		and	r4, r2, #1
 1961              	.L204:
 1962              	.LVL223:
 1963              	.LBB120:
 1964              		.loc 1 660 0
 1965 0078 169B     		ldr	r3, [sp, #88]
 1966 007a BBF1000F 		cmp	fp, #0
 1967 007e 18BF     		it	ne
 1968 0080 002B     		cmpne	r3, #0
 1969 0082 2DD0     		beq	.L218
 1970              	.LBB118:
 1971              		.loc 1 663 0
 1972 0084 2868     		ldr	r0, [r5, #0]
 1973 0086 0378     		ldrb	r3, [r0, #0]	@ zero_extendqisi2
 1974 0088 102B     		cmp	r3, #16
 1975 008a 00F09480 		beq	.L231
 1976              		.loc 1 667 0
 1977 008e 099B     		ldr	r3, [sp, #36]
 1978              		.loc 1 668 0
 1979 0090 9A89     		ldrh	r2, [r3, #12]
 1980              		.loc 1 667 0
 1981 0092 0833     		adds	r3, r3, #8
 1982              	.LVL224:
 1983              		.loc 1 668 0
 1984 0094 ADF82E20 		strh	r2, [sp, #46]	@ movhi
 1985              	.L209:
 1986              		.loc 1 672 0
ARM GAS  /var/folders/5n/p_75w94d66l9ssrldxqdhh700000gn/T//cciPPkzE.s 			page 36


 1987 0098 1022     		movs	r2, #16
 1988              		.loc 1 671 0
 1989 009a CDF814A0 		str	sl, [sp, #20]
 1990              		.loc 1 674 0
 1991 009e BDF82E00 		ldrh	r0, [sp, #46]
 1992              		.loc 1 672 0
 1993 00a2 8DF81420 		strb	r2, [sp, #20]
 1994              		.loc 1 673 0
 1995 00a6 0222     		movs	r2, #2
 1996 00a8 8DF81520 		strb	r2, [sp, #21]
 1997              		.loc 1 674 0
 1998 00ac 0093     		str	r3, [sp, #0]
 1999              		.loc 1 671 0
 2000 00ae CDF818A0 		str	sl, [sp, #24]
 2001 00b2 CDF81CA0 		str	sl, [sp, #28]
 2002 00b6 CDF820A0 		str	sl, [sp, #32]
 2003              		.loc 1 674 0
 2004 00ba FFF7FEFF 		bl	lwip_htons
 2005              	.LVL225:
 2006              		.loc 1 675 0
 2007 00be 009B     		ldr	r3, [sp, #0]
 2008              		.loc 1 677 0
 2009 00c0 DBF80020 		ldr	r2, [fp, #0]
 2010              		.loc 1 675 0
 2011 00c4 1B68     		ldr	r3, [r3, #0]
 2012              		.loc 1 674 0
 2013 00c6 ADF81600 		strh	r0, [sp, #22]	@ movhi
 2014              		.loc 1 677 0
 2015 00ca 102A     		cmp	r2, #16
 2016              		.loc 1 675 0
 2017 00cc 0693     		str	r3, [sp, #24]
 2018              		.loc 1 677 0
 2019 00ce 03D9     		bls	.L210
 2020              		.loc 1 678 0
 2021 00d0 1023     		movs	r3, #16
 2022 00d2 CBF80030 		str	r3, [fp, #0]
 2023 00d6 1A46     		mov	r2, r3
 2024              	.L210:
 2025              		.loc 1 681 0
 2026 00d8 1698     		ldr	r0, [sp, #88]
 2027 00da 05A9     		add	r1, sp, #20
 2028 00dc FFF7FEFF 		bl	memcpy
 2029              	.L218:
 2030              	.LBE118:
 2031              	.LBE120:
 2032              		.loc 1 704 0
 2033 00e0 6CB1     		cbz	r4, .L232
 2034              	.LVL226:
 2035              	.L211:
 2036              		.loc 1 725 0
 2037 00e2 1FB1     		cbz	r7, .L216
 2038              		.loc 1 727 0
 2039 00e4 2868     		ldr	r0, [r5, #0]
 2040 00e6 3946     		mov	r1, r7
 2041 00e8 FFF7FEFF 		bl	netconn_recved
 2042              	.L216:
 2043              		.loc 1 729 0
ARM GAS  /var/folders/5n/p_75w94d66l9ssrldxqdhh700000gn/T//cciPPkzE.s 			page 37


 2044 00ec 0023     		movs	r3, #0
 2045 00ee 2B61     		str	r3, [r5, #16]
 2046              		.loc 1 730 0
 2047 00f0 01E0     		b	.L186
 2048              	.LVL227:
 2049              	.L220:
 2050              	.LBB121:
 2051              	.LBB114:
 2052              		.loc 1 565 0
 2053 00f2 4FF0FF37 		mov	r7, #-1
 2054              	.LVL228:
 2055              	.L186:
 2056              	.LBE114:
 2057              	.LBE121:
 2058              		.loc 1 731 0
 2059 00f6 3846     		mov	r0, r7
 2060 00f8 0DB0     		add	sp, sp, #52
 2061 00fa BDE8F08F 		pop	{r4, r5, r6, r7, r8, r9, sl, fp, pc}
 2062              	.LVL229:
 2063              	.L232:
 2064              		.loc 1 704 0
 2065 00fe 0124     		movs	r4, #1
 2066              	.LVL230:
 2067              	.L207:
 2068              		.loc 1 708 0
 2069 0100 2B68     		ldr	r3, [r5, #0]
 2070 0102 1B78     		ldrb	r3, [r3, #0]	@ zero_extendqisi2
 2071 0104 102B     		cmp	r3, #16
 2072 0106 39D0     		beq	.L233
 2073              		.loc 1 719 0
 2074 0108 0998     		ldr	r0, [sp, #36]
 2075              		.loc 1 713 0
 2076 010a C5F804A0 		str	sl, [r5, #4]
 2077              		.loc 1 714 0
 2078 010e A5F808A0 		strh	sl, [r5, #8]	@ movhi
 2079              		.loc 1 719 0
 2080 0112 FFF7FEFF 		bl	netbuf_delete
 2081              		.loc 1 723 0
 2082 0116 002C     		cmp	r4, #0
 2083 0118 E3D1     		bne	.L211
 2084              	.LVL231:
 2085              	.L229:
 2086              		.loc 1 571 0
 2087 011a 6C68     		ldr	r4, [r5, #4]
 2088 011c 002C     		cmp	r4, #0
 2089 011e 8BD1     		bne	.L234
 2090              	.L187:
 2091              		.loc 1 575 0
 2092 0120 039B     		ldr	r3, [sp, #12]
 2093 0122 1BB9     		cbnz	r3, .L189
 2094              		.loc 1 575 0 is_stmt 0 discriminator 2
 2095 0124 2868     		ldr	r0, [r5, #0]
 2096 0126 037F     		ldrb	r3, [r0, #28]	@ zero_extendqisi2
 2097 0128 9B07     		lsls	r3, r3, #30
 2098 012a 04D5     		bpl	.L190
 2099              	.L189:
 2100              		.loc 1 575 0 discriminator 1
ARM GAS  /var/folders/5n/p_75w94d66l9ssrldxqdhh700000gn/T//cciPPkzE.s 			page 38


 2101 012c B5F90A30 		ldrsh	r3, [r5, #10]
 2102 0130 002B     		cmp	r3, #0
 2103 0132 64DD     		ble	.L191
 2104              		.loc 1 575 0
 2105 0134 2868     		ldr	r0, [r5, #0]
 2106              	.L190:
 2107              		.loc 1 591 0 is_stmt 1
 2108 0136 0378     		ldrb	r3, [r0, #0]	@ zero_extendqisi2
 2109 0138 102B     		cmp	r3, #16
 2110              		.loc 1 592 0
 2111 013a 09A9     		add	r1, sp, #36
 2112              		.loc 1 591 0
 2113 013c 2ED0     		beq	.L235
 2114              		.loc 1 594 0
 2115 013e FFF7FEFF 		bl	netconn_recv
 2116              	.LVL232:
 2117              	.L194:
 2118              		.loc 1 599 0
 2119 0142 0028     		cmp	r0, #0
 2120 0144 43D1     		bne	.L236
 2121              		.loc 1 617 0
 2122 0146 099C     		ldr	r4, [sp, #36]
 2123 0148 002C     		cmp	r4, #0
 2124 014a 3CD0     		beq	.L237
 2125              	.LVL233:
 2126              	.L198:
 2127              		.loc 1 618 0
 2128 014c 6C60     		str	r4, [r5, #4]
 2129 014e 74E7     		b	.L188
 2130              	.LVL234:
 2131              	.L230:
 2132              		.loc 1 645 0
 2133 0150 B145     		cmp	r9, r6
 2134 0152 20D3     		bcc	.L238
 2135              	.L202:
 2136              	.LVL235:
 2137              		.loc 1 647 0
 2138 0154 B9EB0609 		subs	r9, r9, r6
 2139              	.LVL236:
 2140 0158 0CD0     		beq	.L228
 2141              		.loc 1 647 0 is_stmt 0 discriminator 1
 2142 015a 637B     		ldrb	r3, [r4, #13]	@ zero_extendqisi2
 2143 015c DC07     		lsls	r4, r3, #31
 2144              	.LVL237:
 2145 015e 88D4     		bmi	.L201
 2146              		.loc 1 648 0 is_stmt 1
 2147 0160 B5F90A30 		ldrsh	r3, [r5, #10]
 2148 0164 002B     		cmp	r3, #0
 2149 0166 05DD     		ble	.L228
 2150              		.loc 1 649 0
 2151 0168 019A     		ldr	r2, [sp, #4]
 2152 016a 12F00104 		ands	r4, r2, #1
 2153 016e C7D0     		beq	.L207
 2154 0170 0124     		movs	r4, #1
 2155 0172 81E7     		b	.L204
 2156              	.L228:
 2157              		.loc 1 648 0
ARM GAS  /var/folders/5n/p_75w94d66l9ssrldxqdhh700000gn/T//cciPPkzE.s 			page 39


 2158 0174 019B     		ldr	r3, [sp, #4]
 2159 0176 03F00104 		and	r4, r3, #1
 2160 017a 7DE7     		b	.L204
 2161              	.LVL238:
 2162              	.L233:
 2163              		.loc 1 708 0 discriminator 1
 2164 017c C6EB0808 		rsb	r8, r6, r8
 2165              	.LVL239:
 2166 0180 B8F1000F 		cmp	r8, #0
 2167 0184 0DDD     		ble	.L213
 2168              		.loc 1 710 0
 2169 0186 2B89     		ldrh	r3, [r5, #8]
 2170 0188 F618     		adds	r6, r6, r3
 2171              	.LVL240:
 2172              		.loc 1 709 0
 2173 018a 099B     		ldr	r3, [sp, #36]
 2174              		.loc 1 710 0
 2175 018c 2E81     		strh	r6, [r5, #8]	@ movhi
 2176              		.loc 1 709 0
 2177 018e 6B60     		str	r3, [r5, #4]
 2178              		.loc 1 723 0
 2179 0190 002C     		cmp	r4, #0
 2180 0192 C2D0     		beq	.L229
 2181 0194 A5E7     		b	.L211
 2182              	.LVL241:
 2183              	.L238:
 2184              		.loc 1 645 0 discriminator 1
 2185 0196 FFF7FEFF 		bl	port_halt
 2186 019a DBE7     		b	.L202
 2187              	.LVL242:
 2188              	.L235:
 2189              		.loc 1 592 0
 2190 019c FFF7FEFF 		bl	netconn_recv_tcp_pbuf
 2191              	.LVL243:
 2192 01a0 CFE7     		b	.L194
 2193              	.LVL244:
 2194              	.L213:
 2195              		.loc 1 717 0
 2196 01a2 0998     		ldr	r0, [sp, #36]
 2197              		.loc 1 713 0
 2198 01a4 C5F804A0 		str	sl, [r5, #4]
 2199              		.loc 1 714 0
 2200 01a8 A5F808A0 		strh	sl, [r5, #8]	@ movhi
 2201              		.loc 1 717 0
 2202 01ac FFF7FEFF 		bl	pbuf_free
 2203              		.loc 1 723 0
 2204 01b0 002C     		cmp	r4, #0
 2205 01b2 B2D0     		beq	.L229
 2206 01b4 95E7     		b	.L211
 2207              	.LVL245:
 2208              	.L231:
 2209              	.LBB122:
 2210              	.LBB119:
 2211              		.loc 1 665 0
 2212 01b6 0023     		movs	r3, #0
 2213 01b8 0AA9     		add	r1, sp, #40
 2214 01ba 0DF12E02 		add	r2, sp, #46
ARM GAS  /var/folders/5n/p_75w94d66l9ssrldxqdhh700000gn/T//cciPPkzE.s 			page 40


 2215 01be FFF7FEFF 		bl	netconn_getaddr
 2216              		.loc 1 664 0
 2217 01c2 0AAB     		add	r3, sp, #40
 2218 01c4 68E7     		b	.L209
 2219              	.LVL246:
 2220              	.L237:
 2221              	.LBE119:
 2222              	.LBE122:
 2223              		.loc 1 617 0 discriminator 1
 2224 01c6 FFF7FEFF 		bl	port_halt
 2225              	.LVL247:
 2226 01ca 099C     		ldr	r4, [sp, #36]
 2227 01cc BEE7     		b	.L198
 2228              	.LVL248:
 2229              	.L236:
 2230              		.loc 1 600 0
 2231 01ce 7FB9     		cbnz	r7, .L227
 2232              		.loc 1 610 0
 2233 01d0 40B2     		sxtb	r0, r0
 2234              	.LVL249:
 2235 01d2 4342     		negs	r3, r0
 2236 01d4 0F2B     		cmp	r3, #15
 2237 01d6 9ABF     		itte	ls
 2238 01d8 0D4A     		ldrls	r2, .L239+4
 2239 01da 52F82330 		ldrls	r3, [r2, r3, lsl #2]
 2240 01de 0523     		movhi	r3, #5
 2241 01e0 2B61     		str	r3, [r5, #16]
 2242              		.loc 1 612 0
 2243 01e2 10F10C0F 		cmn	r0, #12
 2244 01e6 14BF     		ite	ne
 2245 01e8 4FF0FF37 		movne	r7, #-1
 2246 01ec 0027     		moveq	r7, #0
 2247              	.LVL250:
 2248 01ee 82E7     		b	.L186
 2249              	.LVL251:
 2250              	.L227:
 2251              		.loc 1 602 0
 2252 01f0 2868     		ldr	r0, [r5, #0]
 2253 01f2 3946     		mov	r1, r7
 2254 01f4 FFF7FEFF 		bl	netconn_recved
 2255              		.loc 1 604 0
 2256 01f8 0023     		movs	r3, #0
 2257 01fa 2B61     		str	r3, [r5, #16]
 2258              		.loc 1 605 0
 2259 01fc 7BE7     		b	.L186
 2260              	.L191:
 2261              		.loc 1 577 0
 2262 01fe 002F     		cmp	r7, #0
 2263 0200 F6D1     		bne	.L227
 2264              		.loc 1 585 0
 2265 0202 0B23     		movs	r3, #11
 2266 0204 2B61     		str	r3, [r5, #16]
 2267              		.loc 1 586 0
 2268 0206 4FF0FF37 		mov	r7, #-1
 2269              	.LVL252:
 2270 020a 74E7     		b	.L186
 2271              	.L240:
ARM GAS  /var/folders/5n/p_75w94d66l9ssrldxqdhh700000gn/T//cciPPkzE.s 			page 41


 2272              		.align	2
 2273              	.L239:
 2274 020c 00000000 		.word	.LANCHOR1
 2275 0210 00000000 		.word	.LANCHOR0
 2276              		.cfi_endproc
 2277              	.LFE17:
 2278              		.size	lwip_recvfrom, .-lwip_recvfrom
 2279 0214 AFF30080 		.section	.text.lwip_read,"ax",%progbits
 2279      AFF30080 
 2279      AFF30080 
 2280              		.align	2
 2281              		.p2align 4,,15
 2282              		.global	lwip_read
 2283              		.thumb
 2284              		.thumb_func
 2285              		.type	lwip_read, %function
 2286              	lwip_read:
 2287              	.LFB18:
 2288              		.loc 1 735 0
 2289              		.cfi_startproc
 2290              		@ args = 0, pretend = 0, frame = 0
 2291              		@ frame_needed = 0, uses_anonymous_args = 0
 2292              	.LVL253:
 2293 0000 10B5     		push	{r4, lr}
 2294              	.LCFI19:
 2295              		.cfi_def_cfa_offset 8
 2296              		.cfi_offset 14, -4
 2297              		.cfi_offset 4, -8
 2298              		.loc 1 736 0
 2299 0002 0024     		movs	r4, #0
 2300              		.loc 1 735 0
 2301 0004 82B0     		sub	sp, sp, #8
 2302              	.LCFI20:
 2303              		.cfi_def_cfa_offset 16
 2304              		.loc 1 736 0
 2305 0006 2346     		mov	r3, r4
 2306 0008 0094     		str	r4, [sp, #0]
 2307 000a 0194     		str	r4, [sp, #4]
 2308 000c FFF7FEFF 		bl	lwip_recvfrom
 2309              	.LVL254:
 2310              		.loc 1 737 0
 2311 0010 02B0     		add	sp, sp, #8
 2312 0012 10BD     		pop	{r4, pc}
 2313              		.cfi_endproc
 2314              	.LFE18:
 2315              		.size	lwip_read, .-lwip_read
 2316              		.section	.text.lwip_recv,"ax",%progbits
 2317              		.align	2
 2318              		.p2align 4,,15
 2319              		.global	lwip_recv
 2320              		.thumb
 2321              		.thumb_func
 2322              		.type	lwip_recv, %function
 2323              	lwip_recv:
 2324              	.LFB19:
 2325              		.loc 1 741 0
 2326              		.cfi_startproc
ARM GAS  /var/folders/5n/p_75w94d66l9ssrldxqdhh700000gn/T//cciPPkzE.s 			page 42


 2327              		@ args = 0, pretend = 0, frame = 0
 2328              		@ frame_needed = 0, uses_anonymous_args = 0
 2329              	.LVL255:
 2330 0000 10B5     		push	{r4, lr}
 2331              	.LCFI21:
 2332              		.cfi_def_cfa_offset 8
 2333              		.cfi_offset 14, -4
 2334              		.cfi_offset 4, -8
 2335 0002 82B0     		sub	sp, sp, #8
 2336              	.LCFI22:
 2337              		.cfi_def_cfa_offset 16
 2338              		.loc 1 742 0
 2339 0004 0024     		movs	r4, #0
 2340 0006 0094     		str	r4, [sp, #0]
 2341 0008 0194     		str	r4, [sp, #4]
 2342 000a FFF7FEFF 		bl	lwip_recvfrom
 2343              	.LVL256:
 2344              		.loc 1 743 0
 2345 000e 02B0     		add	sp, sp, #8
 2346 0010 10BD     		pop	{r4, pc}
 2347              		.cfi_endproc
 2348              	.LFE19:
 2349              		.size	lwip_recv, .-lwip_recv
 2350 0012 00BFAFF3 		.section	.text.lwip_sendto,"ax",%progbits
 2350      0080AFF3 
 2350      0080AFF3 
 2350      0080
 2351              		.align	2
 2352              		.p2align 4,,15
 2353              		.global	lwip_sendto
 2354              		.thumb
 2355              		.thumb_func
 2356              		.type	lwip_sendto, %function
 2357              	lwip_sendto:
 2358              	.LFB21:
 2359              		.loc 1 790 0
 2360              		.cfi_startproc
 2361              		@ args = 8, pretend = 0, frame = 16
 2362              		@ frame_needed = 0, uses_anonymous_args = 0
 2363              	.LVL257:
 2364 0000 2DE9F043 		push	{r4, r5, r6, r7, r8, r9, lr}
 2365              	.LCFI23:
 2366              		.cfi_def_cfa_offset 28
 2367              		.cfi_offset 14, -4
 2368              		.cfi_offset 9, -8
 2369              		.cfi_offset 8, -12
 2370              		.cfi_offset 7, -16
 2371              		.cfi_offset 6, -20
 2372              		.cfi_offset 5, -24
 2373              		.cfi_offset 4, -28
 2374 0004 85B0     		sub	sp, sp, #20
 2375              	.LCFI24:
 2376              		.cfi_def_cfa_offset 48
 2377              	.LBB123:
 2378              	.LBB124:
 2379              		.loc 1 199 0
 2380 0006 0328     		cmp	r0, #3
ARM GAS  /var/folders/5n/p_75w94d66l9ssrldxqdhh700000gn/T//cciPPkzE.s 			page 43


 2381              	.LBE124:
 2382              	.LBE123:
 2383              		.loc 1 790 0
 2384 0008 0646     		mov	r6, r0
 2385              	.LVL258:
 2386 000a 0F46     		mov	r7, r1
 2387 000c 1546     		mov	r5, r2
 2388 000e 0C9C     		ldr	r4, [sp, #48]
 2389 0010 DDF83490 		ldr	r9, [sp, #52]
 2390              	.LBB127:
 2391              	.LBB125:
 2392              		.loc 1 199 0
 2393 0014 2DD8     		bhi	.L255
 2394              	.LVL259:
 2395              		.loc 1 205 0
 2396 0016 00EB4006 		add	r6, r0, r0, lsl #1
 2397 001a DFF8D0C0 		ldr	ip, .L261+4
 2398 001e F600     		lsls	r6, r6, #3
 2399 0020 0CEB0608 		add	r8, ip, r6
 2400              	.LVL260:
 2401              		.loc 1 207 0
 2402 0024 5CF80660 		ldr	r6, [ip, r6]
 2403 0028 1EB3     		cbz	r6, .L255
 2404              	.LBE125:
 2405              	.LBE127:
 2406              		.loc 1 805 0
 2407 002a 3678     		ldrb	r6, [r6, #0]	@ zero_extendqisi2
 2408 002c 102E     		cmp	r6, #16
 2409 002e 50D0     		beq	.L258
 2410              		.loc 1 816 0
 2411 0030 B2F5803F 		cmp	r2, #65536
 2412 0034 43D2     		bcs	.L259
 2413              	.LVL261:
 2414              	.L246:
 2415              		.loc 1 818 0
 2416 0036 221C     		adds	r2, r4, #0
 2417 0038 18BF     		it	ne
 2418 003a 0122     		movne	r2, #1
 2419 003c B9F1000F 		cmp	r9, #0
 2420 0040 0CBF     		ite	eq
 2421 0042 1346     		moveq	r3, r2
 2422 0044 42F00103 		orrne	r3, r2, #1
 2423 0048 C3B1     		cbz	r3, .L247
 2424              		.loc 1 818 0 is_stmt 0 discriminator 1
 2425 004a B9F1100F 		cmp	r9, #16
 2426 004e 43D1     		bne	.L248
 2427              		.loc 1 818 0 discriminator 3
 2428 0050 6378     		ldrb	r3, [r4, #1]	@ zero_extendqisi2
 2429 0052 022B     		cmp	r3, #2
 2430 0054 40D1     		bne	.L248
 2431              		.loc 1 818 0 discriminator 4
 2432 0056 14F00303 		ands	r3, r4, #3
 2433 005a 3DD1     		bne	.L248
 2434              	.LVL262:
 2435              		.loc 1 883 0 is_stmt 1
 2436 005c 0193     		str	r3, [sp, #4]
 2437 005e 0093     		str	r3, [sp, #0]
ARM GAS  /var/folders/5n/p_75w94d66l9ssrldxqdhh700000gn/T//cciPPkzE.s 			page 44


 2438              		.loc 1 887 0
 2439 0060 72B1     		cbz	r2, .L250
 2440              		.loc 1 888 0
 2441 0062 6368     		ldr	r3, [r4, #4]
 2442              		.loc 1 889 0
 2443 0064 6088     		ldrh	r0, [r4, #2]
 2444              		.loc 1 888 0
 2445 0066 0293     		str	r3, [sp, #8]
 2446              		.loc 1 889 0
 2447 0068 FFF7FEFF 		bl	lwip_ntohs
 2448              	.LVL263:
 2449              		.loc 1 890 0
 2450 006c ADF80C00 		strh	r0, [sp, #12]	@ movhi
 2451 0070 0AE0     		b	.L251
 2452              	.LVL264:
 2453              	.L255:
 2454              	.LBB128:
 2455              	.LBB126:
 2456              		.loc 1 802 0
 2457 0072 4FF0FF30 		mov	r0, #-1
 2458              	.LVL265:
 2459              	.L244:
 2460              	.LBE126:
 2461              	.LBE128:
 2462              		.loc 1 932 0
 2463 0076 05B0     		add	sp, sp, #20
 2464 0078 BDE8F083 		pop	{r4, r5, r6, r7, r8, r9, pc}
 2465              	.LVL266:
 2466              	.L247:
 2467              		.loc 1 883 0
 2468 007c 0193     		str	r3, [sp, #4]
 2469 007e 0093     		str	r3, [sp, #0]
 2470              	.L250:
 2471              	.LVL267:
 2472              		.loc 1 893 0
 2473 0080 0023     		movs	r3, #0
 2474 0082 0293     		str	r3, [sp, #8]
 2475              		.loc 1 894 0
 2476 0084 ADF80C30 		strh	r3, [sp, #12]	@ movhi
 2477              	.LVL268:
 2478              	.L251:
 2479              		.loc 1 817 0
 2480 0088 ADB2     		uxth	r5, r5
 2481              	.LVL269:
 2482              		.loc 1 920 0
 2483 008a 6846     		mov	r0, sp
 2484 008c 3946     		mov	r1, r7
 2485 008e 2A46     		mov	r2, r5
 2486 0090 FFF7FEFF 		bl	netbuf_ref
 2487              	.LVL270:
 2488              		.loc 1 922 0
 2489 0094 0446     		mov	r4, r0
 2490 0096 A8B1     		cbz	r0, .L260
 2491              	.LVL271:
 2492              	.L252:
 2493              		.loc 1 928 0
 2494 0098 6846     		mov	r0, sp
ARM GAS  /var/folders/5n/p_75w94d66l9ssrldxqdhh700000gn/T//cciPPkzE.s 			page 45


 2495 009a FFF7FEFF 		bl	netbuf_free
 2496              		.loc 1 930 0
 2497 009e 63B2     		sxtb	r3, r4
 2498 00a0 5B42     		negs	r3, r3
 2499 00a2 0F2B     		cmp	r3, #15
 2500 00a4 9ABF     		itte	ls
 2501 00a6 104A     		ldrls	r2, .L261
 2502 00a8 52F82330 		ldrls	r3, [r2, r3, lsl #2]
 2503 00ac 0523     		movhi	r3, #5
 2504 00ae C8F81030 		str	r3, [r8, #16]
 2505              		.loc 1 931 0
 2506 00b2 002C     		cmp	r4, #0
 2507 00b4 0CBF     		ite	eq
 2508 00b6 2846     		moveq	r0, r5
 2509 00b8 4FF0FF30 		movne	r0, #-1
 2510 00bc DBE7     		b	.L244
 2511              	.LVL272:
 2512              	.L259:
 2513              		.loc 1 816 0 discriminator 1
 2514 00be FFF7FEFF 		bl	port_halt
 2515              	.LVL273:
 2516 00c2 B8E7     		b	.L246
 2517              	.LVL274:
 2518              	.L260:
 2519              		.loc 1 924 0
 2520 00c4 D8F80000 		ldr	r0, [r8, #0]
 2521              	.LVL275:
 2522 00c8 6946     		mov	r1, sp
 2523 00ca FFF7FEFF 		bl	netconn_send
 2524 00ce 0446     		mov	r4, r0
 2525              	.LVL276:
 2526 00d0 E2E7     		b	.L252
 2527              	.LVL277:
 2528              	.L258:
 2529              		.loc 1 807 0
 2530 00d2 FFF7FEFF 		bl	lwip_send
 2531              	.LVL278:
 2532 00d6 CEE7     		b	.L244
 2533              	.LVL279:
 2534              	.L248:
 2535              		.loc 1 818 0 discriminator 2
 2536 00d8 FFF7FEFF 		bl	port_halt
 2537 00dc 0523     		movs	r3, #5
 2538 00de C8F81030 		str	r3, [r8, #16]
 2539 00e2 4FF0FF30 		mov	r0, #-1
 2540 00e6 C6E7     		b	.L244
 2541              	.L262:
 2542              		.align	2
 2543              	.L261:
 2544 00e8 00000000 		.word	.LANCHOR0
 2545 00ec 00000000 		.word	.LANCHOR1
 2546              		.cfi_endproc
 2547              	.LFE21:
 2548              		.size	lwip_sendto, .-lwip_sendto
 2549              		.section	.text.lwip_send,"ax",%progbits
 2550              		.align	2
 2551              		.p2align 4,,15
ARM GAS  /var/folders/5n/p_75w94d66l9ssrldxqdhh700000gn/T//cciPPkzE.s 			page 46


 2552              		.global	lwip_send
 2553              		.thumb
 2554              		.thumb_func
 2555              		.type	lwip_send, %function
 2556              	lwip_send:
 2557              	.LFB20:
 2558              		.loc 1 747 0
 2559              		.cfi_startproc
 2560              		@ args = 0, pretend = 0, frame = 0
 2561              		@ frame_needed = 0, uses_anonymous_args = 0
 2562              	.LVL280:
 2563 0000 2DE9F041 		push	{r4, r5, r6, r7, r8, lr}
 2564              	.LCFI25:
 2565              		.cfi_def_cfa_offset 24
 2566              		.cfi_offset 14, -4
 2567              		.cfi_offset 8, -8
 2568              		.cfi_offset 7, -12
 2569              		.cfi_offset 6, -16
 2570              		.cfi_offset 5, -20
 2571              		.cfi_offset 4, -24
 2572              	.LBB129:
 2573              	.LBB130:
 2574              		.loc 1 199 0
 2575 0004 0328     		cmp	r0, #3
 2576              	.LBE130:
 2577              	.LBE129:
 2578              		.loc 1 747 0
 2579 0006 82B0     		sub	sp, sp, #8
 2580              	.LCFI26:
 2581              		.cfi_def_cfa_offset 32
 2582              		.loc 1 747 0
 2583 0008 0446     		mov	r4, r0
 2584              	.LVL281:
 2585 000a 8C46     		mov	ip, r1
 2586 000c 1646     		mov	r6, r2
 2587 000e 1D46     		mov	r5, r3
 2588              	.LBB133:
 2589              	.LBB131:
 2590              		.loc 1 199 0
 2591 0010 2DD8     		bhi	.L272
 2592              	.LVL282:
 2593              		.loc 1 205 0
 2594 0012 00EB4004 		add	r4, r0, r0, lsl #1
 2595 0016 204F     		ldr	r7, .L280
 2596 0018 E400     		lsls	r4, r4, #3
 2597 001a 07EB0408 		add	r8, r7, r4
 2598              	.LVL283:
 2599              		.loc 1 207 0
 2600 001e 3C59     		ldr	r4, [r7, r4]
 2601 0020 2CB3     		cbz	r4, .L272
 2602              	.LBE131:
 2603              	.LBE133:
 2604              		.loc 1 760 0
 2605 0022 2778     		ldrb	r7, [r4, #0]	@ zero_extendqisi2
 2606 0024 102F     		cmp	r7, #16
 2607 0026 2BD1     		bne	.L277
 2608              		.loc 1 769 0
ARM GAS  /var/folders/5n/p_75w94d66l9ssrldxqdhh700000gn/T//cciPPkzE.s 			page 47


 2609 0028 13F00803 		ands	r3, r3, #8
 2610              	.LVL284:
 2611 002c 24D0     		beq	.L278
 2612              	.LVL285:
 2613              	.L266:
 2614              		.loc 1 770 0
 2615 002e B6F5807F 		cmp	r6, #256
 2616 0032 2BD8     		bhi	.L279
 2617              	.L267:
 2618              		.loc 1 777 0
 2619 0034 15F0100F 		tst	r5, #16
 2620 0038 0CBF     		ite	eq
 2621 003a 0125     		moveq	r5, #1
 2622 003c 0325     		movne	r5, #3
 2623              	.LVL286:
 2624 003e 002B     		cmp	r3, #0
 2625 0040 18BF     		it	ne
 2626 0042 0423     		movne	r3, #4
 2627              	.LVL287:
 2628              		.loc 1 780 0
 2629 0044 3246     		mov	r2, r6
 2630 0046 2B43     		orrs	r3, r3, r5
 2631              	.LVL288:
 2632 0048 2046     		mov	r0, r4
 2633              	.LVL289:
 2634 004a 6146     		mov	r1, ip
 2635              	.LVL290:
 2636 004c FFF7FEFF 		bl	netconn_write
 2637              	.LVL291:
 2638              		.loc 1 783 0
 2639 0050 4342     		negs	r3, r0
 2640 0052 0F2B     		cmp	r3, #15
 2641 0054 9ABF     		itte	ls
 2642 0056 114A     		ldrls	r2, .L280+4
 2643 0058 52F82330 		ldrls	r3, [r2, r3, lsl #2]
 2644 005c 0523     		movhi	r3, #5
 2645 005e C8F81030 		str	r3, [r8, #16]
 2646              		.loc 1 784 0
 2647 0062 0028     		cmp	r0, #0
 2648 0064 0CBF     		ite	eq
 2649 0066 3046     		moveq	r0, r6
 2650 0068 4FF0FF30 		movne	r0, #-1
 2651              	.LVL292:
 2652 006c 01E0     		b	.L264
 2653              	.LVL293:
 2654              	.L272:
 2655              	.LBB134:
 2656              	.LBB132:
 2657              		.loc 1 757 0
 2658 006e 4FF0FF30 		mov	r0, #-1
 2659              	.LVL294:
 2660              	.L264:
 2661              	.LBE132:
 2662              	.LBE134:
 2663              		.loc 1 785 0
 2664 0072 02B0     		add	sp, sp, #8
 2665 0074 BDE8F081 		pop	{r4, r5, r6, r7, r8, pc}
ARM GAS  /var/folders/5n/p_75w94d66l9ssrldxqdhh700000gn/T//cciPPkzE.s 			page 48


 2666              	.LVL295:
 2667              	.L278:
 2668              		.loc 1 769 0 discriminator 1
 2669 0078 227F     		ldrb	r2, [r4, #28]	@ zero_extendqisi2
 2670 007a 9207     		lsls	r2, r2, #30
 2671 007c DAD5     		bpl	.L267
 2672 007e D6E7     		b	.L266
 2673              	.L277:
 2674              		.loc 1 762 0
 2675 0080 0024     		movs	r4, #0
 2676 0082 0094     		str	r4, [sp, #0]
 2677 0084 0194     		str	r4, [sp, #4]
 2678 0086 FFF7FEFF 		bl	lwip_sendto
 2679              	.LVL296:
 2680 008a F2E7     		b	.L264
 2681              	.LVL297:
 2682              	.L279:
 2683              		.loc 1 772 0
 2684 008c 5A23     		movs	r3, #90
 2685 008e C8F81030 		str	r3, [r8, #16]
 2686              		.loc 1 773 0
 2687 0092 4FF0FF30 		mov	r0, #-1
 2688              	.LVL298:
 2689 0096 ECE7     		b	.L264
 2690              	.L281:
 2691              		.align	2
 2692              	.L280:
 2693 0098 00000000 		.word	.LANCHOR1
 2694 009c 00000000 		.word	.LANCHOR0
 2695              		.cfi_endproc
 2696              	.LFE20:
 2697              		.size	lwip_send, .-lwip_send
 2698              		.section	.text.lwip_socket,"ax",%progbits
 2699              		.align	2
 2700              		.p2align 4,,15
 2701              		.global	lwip_socket
 2702              		.thumb
 2703              		.thumb_func
 2704              		.type	lwip_socket, %function
 2705              	lwip_socket:
 2706              	.LFB22:
 2707              		.loc 1 936 0
 2708              		.cfi_startproc
 2709              		@ args = 0, pretend = 0, frame = 0
 2710              		@ frame_needed = 0, uses_anonymous_args = 0
 2711              	.LVL299:
 2712              		.loc 1 943 0
 2713 0000 0229     		cmp	r1, #2
 2714              		.loc 1 936 0
 2715 0002 70B5     		push	{r4, r5, r6, lr}
 2716              	.LCFI27:
 2717              		.cfi_def_cfa_offset 16
 2718              		.cfi_offset 14, -4
 2719              		.cfi_offset 6, -8
 2720              		.cfi_offset 5, -12
 2721              		.cfi_offset 4, -16
 2722              		.loc 1 943 0
ARM GAS  /var/folders/5n/p_75w94d66l9ssrldxqdhh700000gn/T//cciPPkzE.s 			page 49


 2723 0004 2AD0     		beq	.L285
 2724 0006 0329     		cmp	r1, #3
 2725 0008 20D0     		beq	.L286
 2726 000a 0129     		cmp	r1, #1
 2727 000c 03D0     		beq	.L300
 2728              	.LVL300:
 2729              	.L296:
 2730              		.loc 1 974 0
 2731 000e 4FF0FF33 		mov	r3, #-1
 2732              		.loc 1 988 0
 2733 0012 1846     		mov	r0, r3
 2734 0014 70BD     		pop	{r4, r5, r6, pc}
 2735              	.LVL301:
 2736              	.L300:
 2737              		.loc 1 956 0
 2738 0016 1020     		movs	r0, #16
 2739              	.LVL302:
 2740 0018 0021     		movs	r1, #0
 2741              	.LVL303:
 2742 001a 214A     		ldr	r2, .L302
 2743              	.LVL304:
 2744 001c FFF7FEFF 		bl	netconn_new_with_proto_and_callback
 2745              	.LVL305:
 2746              		.loc 1 959 0
 2747 0020 0028     		cmp	r0, #0
 2748 0022 F4D0     		beq	.L296
 2749              		.loc 1 961 0 discriminator 1
 2750 0024 037F     		ldrb	r3, [r0, #28]	@ zero_extendqisi2
 2751 0026 43F00803 		orr	r3, r3, #8
 2752 002a 0377     		strb	r3, [r0, #28]
 2753              	.L289:
 2754              	.LVL306:
 2755              		.loc 1 950 0
 2756 002c 0022     		movs	r2, #0
 2757 002e 1D4C     		ldr	r4, .L302+4
 2758 0030 1346     		mov	r3, r2
 2759              	.LVL307:
 2760              	.L291:
 2761              	.LBB135:
 2762              	.LBB136:
 2763              		.loc 1 252 0
 2764 0032 A158     		ldr	r1, [r4, r2]
 2765 0034 1B4D     		ldr	r5, .L302+4
 2766              		.loc 1 249 0
 2767 0036 1832     		adds	r2, r2, #24
 2768              		.loc 1 252 0
 2769 0038 D9B1     		cbz	r1, .L301
 2770              		.loc 1 249 0
 2771 003a 0133     		adds	r3, r3, #1
 2772              	.LVL308:
 2773 003c 042B     		cmp	r3, #4
 2774 003e F8D1     		bne	.L291
 2775              	.LBE136:
 2776              	.LBE135:
 2777              		.loc 1 980 0
 2778 0040 FFF7FEFF 		bl	netconn_delete
 2779              	.LVL309:
ARM GAS  /var/folders/5n/p_75w94d66l9ssrldxqdhh700000gn/T//cciPPkzE.s 			page 50


 2780              		.loc 1 982 0
 2781 0044 4FF0FF33 		mov	r3, #-1
 2782              		.loc 1 988 0
 2783 0048 1846     		mov	r0, r3
 2784 004a 70BD     		pop	{r4, r5, r6, pc}
 2785              	.LVL310:
 2786              	.L286:
 2787              		.loc 1 945 0
 2788 004c D1B2     		uxtb	r1, r2
 2789              	.LVL311:
 2790 004e 4020     		movs	r0, #64
 2791              	.LVL312:
 2792 0050 134A     		ldr	r2, .L302
 2793              	.LVL313:
 2794 0052 FFF7FEFF 		bl	netconn_new_with_proto_and_callback
 2795              	.LVL314:
 2796              		.loc 1 971 0
 2797 0056 0028     		cmp	r0, #0
 2798 0058 E8D1     		bne	.L289
 2799 005a D8E7     		b	.L296
 2800              	.LVL315:
 2801              	.L285:
 2802              		.loc 1 950 0
 2803 005c 882A     		cmp	r2, #136
 2804 005e 14BF     		ite	ne
 2805 0060 2020     		movne	r0, #32
 2806 0062 2120     		moveq	r0, #33
 2807              	.LVL316:
 2808 0064 0021     		movs	r1, #0
 2809              	.LVL317:
 2810 0066 0E4A     		ldr	r2, .L302
 2811              	.LVL318:
 2812 0068 FFF7FEFF 		bl	netconn_new_with_proto_and_callback
 2813              	.LVL319:
 2814              		.loc 1 971 0
 2815 006c 0028     		cmp	r0, #0
 2816 006e DDD1     		bne	.L289
 2817 0070 CDE7     		b	.L296
 2818              	.L301:
 2819              	.LBB138:
 2820              	.LBB137:
 2821              		.loc 1 253 0
 2822 0072 03EB4304 		add	r4, r3, r3, lsl #1
 2823              		.loc 1 262 0
 2824 0076 0678     		ldrb	r6, [r0, #0]	@ zero_extendqisi2
 2825              		.loc 1 253 0
 2826 0078 E400     		lsls	r4, r4, #3
 2827 007a 2A19     		adds	r2, r5, r4
 2828 007c 2851     		str	r0, [r5, r4]
 2829              		.loc 1 262 0
 2830 007e B6F11005 		subs	r5, r6, #16
 2831 0082 18BF     		it	ne
 2832 0084 0125     		movne	r5, #1
 2833              		.loc 1 257 0
 2834 0086 5160     		str	r1, [r2, #4]
 2835              		.loc 1 258 0
 2836 0088 1181     		strh	r1, [r2, #8]	@ movhi
ARM GAS  /var/folders/5n/p_75w94d66l9ssrldxqdhh700000gn/T//cciPPkzE.s 			page 51


 2837              		.loc 1 259 0
 2838 008a 5181     		strh	r1, [r2, #10]	@ movhi
 2839              		.loc 1 262 0
 2840 008c 9581     		strh	r5, [r2, #12]	@ movhi
 2841              		.loc 1 263 0
 2842 008e D181     		strh	r1, [r2, #14]	@ movhi
 2843              		.loc 1 264 0
 2844 0090 1161     		str	r1, [r2, #16]
 2845              		.loc 1 265 0
 2846 0092 5161     		str	r1, [r2, #20]
 2847              		.loc 1 258 0
 2848 0094 02F10804 		add	r4, r2, #8
 2849              	.LBE137:
 2850              	.LBE138:
 2851              		.loc 1 984 0
 2852 0098 8361     		str	r3, [r0, #24]
 2853              		.loc 1 988 0
 2854 009a 1846     		mov	r0, r3
 2855              	.LVL320:
 2856 009c 70BD     		pop	{r4, r5, r6, pc}
 2857              	.L303:
 2858 009e 00BF     		.align	2
 2859              	.L302:
 2860 00a0 00000000 		.word	event_callback
 2861 00a4 00000000 		.word	.LANCHOR1
 2862              		.cfi_endproc
 2863              	.LFE22:
 2864              		.size	lwip_socket, .-lwip_socket
 2865 00a8 AFF30080 		.section	.text.lwip_write,"ax",%progbits
 2865      AFF30080 
 2866              		.align	2
 2867              		.p2align 4,,15
 2868              		.global	lwip_write
 2869              		.thumb
 2870              		.thumb_func
 2871              		.type	lwip_write, %function
 2872              	lwip_write:
 2873              	.LFB23:
 2874              		.loc 1 992 0
 2875              		.cfi_startproc
 2876              		@ args = 0, pretend = 0, frame = 0
 2877              		@ frame_needed = 0, uses_anonymous_args = 0
 2878              		@ link register save eliminated.
 2879              	.LVL321:
 2880              		.loc 1 993 0
 2881 0000 0023     		movs	r3, #0
 2882              		.loc 1 994 0
 2883              		.loc 1 993 0
 2884 0002 FFF7FEBF 		b	lwip_send
 2885              	.LVL322:
 2886              	.LVL323:
 2887              	.LVL324:
 2888              		.cfi_endproc
 2889              	.LFE23:
 2890              		.size	lwip_write, .-lwip_write
 2891 0006 00BFAFF3 		.section	.text.lwip_select,"ax",%progbits
 2891      0080AFF3 
ARM GAS  /var/folders/5n/p_75w94d66l9ssrldxqdhh700000gn/T//cciPPkzE.s 			page 52


 2891      0080
 2892              		.align	2
 2893              		.p2align 4,,15
 2894              		.global	lwip_select
 2895              		.thumb
 2896              		.thumb_func
 2897              		.type	lwip_select, %function
 2898              	lwip_select:
 2899              	.LFB25:
 2900              		.loc 1 1077 0
 2901              		.cfi_startproc
 2902              		@ args = 4, pretend = 0, frame = 64
 2903              		@ frame_needed = 0, uses_anonymous_args = 0
 2904              	.LVL325:
 2905 0000 2DE9F04F 		push	{r4, r5, r6, r7, r8, r9, sl, fp, lr}
 2906              	.LCFI28:
 2907              		.cfi_def_cfa_offset 36
 2908              		.cfi_offset 14, -4
 2909              		.cfi_offset 11, -8
 2910              		.cfi_offset 10, -12
 2911              		.cfi_offset 9, -16
 2912              		.cfi_offset 8, -20
 2913              		.cfi_offset 7, -24
 2914              		.cfi_offset 6, -28
 2915              		.cfi_offset 5, -32
 2916              		.cfi_offset 4, -36
 2917 0004 95B0     		sub	sp, sp, #84
 2918              	.LCFI29:
 2919              		.cfi_def_cfa_offset 120
 2920              		.loc 1 1094 0
 2921 0006 0DF14408 		add	r8, sp, #68
 2922 000a 0DF14809 		add	r9, sp, #72
 2923 000e 0DF14C0A 		add	sl, sp, #76
 2924              		.loc 1 1077 0
 2925 0012 0490     		str	r0, [sp, #16]
 2926 0014 0C46     		mov	r4, r1
 2927 0016 1546     		mov	r5, r2
 2928 0018 1E46     		mov	r6, r3
 2929              		.loc 1 1094 0
 2930 001a 8DE80007 		stmia	sp, {r8, r9, sl}
 2931 001e FFF7FEFF 		bl	lwip_selscan
 2932              	.LVL326:
 2933              		.loc 1 1097 0
 2934 0022 8346     		mov	fp, r0
 2935 0024 0028     		cmp	r0, #0
 2936 0026 40F0F380 		bne	.L306
 2937              		.loc 1 1098 0
 2938 002a 1E9F     		ldr	r7, [sp, #120]
 2939 002c 2FB1     		cbz	r7, .L307
 2940              		.loc 1 1098 0 is_stmt 0 discriminator 1
 2941 002e 3B68     		ldr	r3, [r7, #0]
 2942 0030 1BB9     		cbnz	r3, .L307
 2943 0032 7B68     		ldr	r3, [r7, #4]
 2944 0034 002B     		cmp	r3, #0
 2945 0036 00F0EB80 		beq	.L306
 2946              	.L307:
 2947              		.loc 1 1110 0 is_stmt 1
ARM GAS  /var/folders/5n/p_75w94d66l9ssrldxqdhh700000gn/T//cciPPkzE.s 			page 53


 2948 003a 0023     		movs	r3, #0
 2949              		.loc 1 1116 0
 2950 003c 10A8     		add	r0, sp, #64
 2951              	.LVL327:
 2952 003e 1946     		mov	r1, r3
 2953 0040 0AAF     		add	r7, sp, #40
 2954              		.loc 1 1110 0
 2955 0042 0A93     		str	r3, [sp, #40]
 2956              		.loc 1 1111 0
 2957 0044 0B93     		str	r3, [sp, #44]
 2958              		.loc 1 1112 0
 2959 0046 0C94     		str	r4, [sp, #48]
 2960              		.loc 1 1113 0
 2961 0048 0D95     		str	r5, [sp, #52]
 2962              		.loc 1 1114 0
 2963 004a 0E96     		str	r6, [sp, #56]
 2964              		.loc 1 1115 0
 2965 004c 0F93     		str	r3, [sp, #60]
 2966              		.loc 1 1116 0
 2967 004e 0897     		str	r7, [sp, #32]
 2968 0050 FFF7FEFF 		bl	sys_sem_new
 2969              	.LVL328:
 2970              		.loc 1 1120 0
 2971 0054 4FF0FF3B 		mov	fp, #-1
 2972              	.LVL329:
 2973              		.loc 1 1117 0
 2974 0058 0028     		cmp	r0, #0
 2975 005a 40F0E580 		bne	.L308
 2976              		.loc 1 1127 0
 2977 005e 40F20001 		movw	r1, #:lower16:.LANCHOR2
 2978 0062 C0F20001 		movt	r1, #:upper16:.LANCHOR2
 2979 0066 0B68     		ldr	r3, [r1, #0]
 2980 0068 0A93     		str	r3, [sp, #40]
 2981              		.loc 1 1128 0
 2982 006a 0BB1     		cbz	r3, .L309
 2983              		.loc 1 1129 0
 2984 006c 0AAA     		add	r2, sp, #40
 2985 006e 5A60     		str	r2, [r3, #4]
 2986              	.L309:
 2987              		.loc 1 1131 0
 2988 0070 40F20007 		movw	r7, #:lower16:.LANCHOR2
 2989              		.loc 1 1133 0
 2990 0074 40F20001 		movw	r1, #:lower16:.LANCHOR3
 2991 0078 C0F20001 		movt	r1, #:upper16:.LANCHOR3
 2992              		.loc 1 1131 0
 2993 007c C0F20007 		movt	r7, #:upper16:.LANCHOR2
 2994 0080 0AAB     		add	r3, sp, #40
 2995 0082 3B60     		str	r3, [r7, #0]
 2996              		.loc 1 1139 0
 2997 0084 049A     		ldr	r2, [sp, #16]
 2998              		.loc 1 1133 0
 2999 0086 0B68     		ldr	r3, [r1, #0]
 3000 0088 0133     		adds	r3, r3, #1
 3001              		.loc 1 1139 0
 3002 008a 002A     		cmp	r2, #0
 3003              		.loc 1 1133 0
 3004 008c 0B60     		str	r3, [r1, #0]
ARM GAS  /var/folders/5n/p_75w94d66l9ssrldxqdhh700000gn/T//cciPPkzE.s 			page 54


 3005              	.LVL330:
 3006              		.loc 1 1139 0
 3007 008e 46DD     		ble	.L310
 3008 0090 0023     		movs	r3, #0
 3009 0092 3146     		mov	r1, r6
 3010              	.LBB139:
 3011              	.LBB140:
 3012              	.LBB141:
 3013              		.loc 1 228 0
 3014 0094 964A     		ldr	r2, .L350
 3015              	.LBE141:
 3016              	.LBE140:
 3017              	.LBE139:
 3018              		.loc 1 1139 0
 3019 0096 049F     		ldr	r7, [sp, #16]
 3020 0098 9B46     		mov	fp, r3
 3021 009a 2E46     		mov	r6, r5
 3022              	.LVL331:
 3023 009c 2546     		mov	r5, r4
 3024              	.LVL332:
 3025 009e 1C46     		mov	r4, r3
 3026              	.LVL333:
 3027 00a0 0B46     		mov	r3, r1
 3028              	.LVL334:
 3029              	.L317:
 3030              		.loc 1 1140 0
 3031 00a2 FDB1     		cbz	r5, .L311
 3032              		.loc 1 1140 0 is_stmt 0 discriminator 1
 3033 00a4 4FEAEB00 		asr	r0, fp, #3
 3034 00a8 0BF00701 		and	r1, fp, #7
 3035 00ac 285C     		ldrb	r0, [r5, r0]	@ zero_extendqisi2
 3036 00ae 50FA01F1 		asrs	r1, r0, r1
 3037 00b2 C907     		lsls	r1, r1, #31
 3038 00b4 16D5     		bpl	.L311
 3039              	.L312:
 3040              	.LVL335:
 3041              	.LBB146:
 3042              	.LBB144:
 3043              	.LBB142:
 3044              		.loc 1 225 0 is_stmt 1
 3045 00b6 BBF1030F 		cmp	fp, #3
 3046 00ba 40F2B980 		bls	.L343
 3047              	.L315:
 3048              	.LBE142:
 3049              	.LBE144:
 3050              		.loc 1 1144 0 discriminator 1
 3051 00be 0692     		str	r2, [sp, #24]
 3052 00c0 0593     		str	r3, [sp, #20]
 3053 00c2 FFF7FEFF 		bl	port_halt
 3054 00c6 0020     		movs	r0, #0
 3055 00c8 059B     		ldr	r3, [sp, #20]
 3056              		.loc 1 1146 0 discriminator 1
 3057 00ca 4169     		ldr	r1, [r0, #20]
 3058              		.loc 1 1144 0 discriminator 1
 3059 00cc 069A     		ldr	r2, [sp, #24]
 3060              		.loc 1 1146 0 discriminator 1
 3061 00ce 0131     		adds	r1, r1, #1
ARM GAS  /var/folders/5n/p_75w94d66l9ssrldxqdhh700000gn/T//cciPPkzE.s 			page 55


 3062              		.loc 1 1147 0 discriminator 1
 3063 00d0 0029     		cmp	r1, #0
 3064              		.loc 1 1146 0 discriminator 1
 3065 00d2 4161     		str	r1, [r0, #20]
 3066              		.loc 1 1147 0 discriminator 1
 3067 00d4 1ADC     		bgt	.L314
 3068              	.L349:
 3069 00d6 0692     		str	r2, [sp, #24]
 3070 00d8 0593     		str	r3, [sp, #20]
 3071 00da FFF7FEFF 		bl	port_halt
 3072 00de 059B     		ldr	r3, [sp, #20]
 3073 00e0 069A     		ldr	r2, [sp, #24]
 3074 00e2 13E0     		b	.L314
 3075              	.LVL336:
 3076              	.L311:
 3077              	.LBE146:
 3078              		.loc 1 1140 0 discriminator 2
 3079 00e4 46B1     		cbz	r6, .L313
 3080              		.loc 1 1141 0
 3081 00e6 4FEAEB00 		asr	r0, fp, #3
 3082 00ea 0BF00701 		and	r1, fp, #7
 3083 00ee 305C     		ldrb	r0, [r6, r0]	@ zero_extendqisi2
 3084 00f0 50FA01F1 		asrs	r1, r0, r1
 3085 00f4 C807     		lsls	r0, r1, #31
 3086 00f6 DED4     		bmi	.L312
 3087              	.L313:
 3088              		.loc 1 1141 0 is_stmt 0 discriminator 1
 3089 00f8 43B1     		cbz	r3, .L314
 3090              		.loc 1 1142 0 is_stmt 1
 3091 00fa 4FEAEB00 		asr	r0, fp, #3
 3092 00fe 0BF00701 		and	r1, fp, #7
 3093 0102 185C     		ldrb	r0, [r3, r0]	@ zero_extendqisi2
 3094 0104 50FA01F1 		asrs	r1, r0, r1
 3095 0108 C907     		lsls	r1, r1, #31
 3096 010a D4D4     		bmi	.L312
 3097              	.L314:
 3098              		.loc 1 1139 0
 3099 010c 0BF1010B 		add	fp, fp, #1
 3100              	.LVL337:
 3101 0110 1834     		adds	r4, r4, #24
 3102 0112 BB45     		cmp	fp, r7
 3103 0114 C5D1     		bne	.L317
 3104 0116 2C46     		mov	r4, r5
 3105 0118 0497     		str	r7, [sp, #16]
 3106 011a 3546     		mov	r5, r6
 3107              	.LVL338:
 3108 011c 1E46     		mov	r6, r3
 3109              	.LVL339:
 3110              	.L310:
 3111              		.loc 1 1154 0
 3112 011e 0498     		ldr	r0, [sp, #16]
 3113 0120 2146     		mov	r1, r4
 3114 0122 2A46     		mov	r2, r5
 3115 0124 3346     		mov	r3, r6
 3116 0126 8DE80007 		stmia	sp, {r8, r9, sl}
 3117 012a FFF7FEFF 		bl	lwip_selscan
 3118              	.LVL340:
ARM GAS  /var/folders/5n/p_75w94d66l9ssrldxqdhh700000gn/T//cciPPkzE.s 			page 56


 3119              		.loc 1 1155 0
 3120 012e 8346     		mov	fp, r0
 3121 0130 0028     		cmp	r0, #0
 3122 0132 00F0B180 		beq	.L344
 3123              		.loc 1 1078 0
 3124 0136 0022     		movs	r2, #0
 3125 0138 0992     		str	r2, [sp, #36]
 3126              	.LVL341:
 3127              	.L318:
 3128              		.loc 1 1171 0
 3129 013a 049B     		ldr	r3, [sp, #16]
 3130 013c 002B     		cmp	r3, #0
 3131 013e 40DD     		ble	.L320
 3132 0140 0022     		movs	r2, #0
 3133 0142 1346     		mov	r3, r2
 3134 0144 2846     		mov	r0, r5
 3135 0146 B646     		mov	lr, r6
 3136 0148 1546     		mov	r5, r2
 3137              	.LVL342:
 3138              	.LBB147:
 3139              	.LBB148:
 3140              	.LBB149:
 3141              		.loc 1 228 0
 3142 014a 6949     		ldr	r1, .L350
 3143              	.LBE149:
 3144              	.LBE148:
 3145              	.LBE147:
 3146              		.loc 1 1171 0
 3147 014c 5A46     		mov	r2, fp
 3148 014e DDF810B0 		ldr	fp, [sp, #16]
 3149              	.LVL343:
 3150 0152 2646     		mov	r6, r4
 3151 0154 0746     		mov	r7, r0
 3152 0156 1C46     		mov	r4, r3
 3153              	.LVL344:
 3154 0158 7346     		mov	r3, lr
 3155              	.LVL345:
 3156              	.L327:
 3157              		.loc 1 1172 0
 3158 015a 4EB1     		cbz	r6, .L321
 3159              		.loc 1 1172 0 is_stmt 0 discriminator 1
 3160 015c 4FEAE40E 		asr	lr, r4, #3
 3161 0160 04F00700 		and	r0, r4, #7
 3162 0164 16F80EE0 		ldrb	lr, [r6, lr]	@ zero_extendqisi2
 3163 0168 4EFA00F0 		asr	r0, lr, r0
 3164 016c C007     		lsls	r0, r0, #31
 3165 016e 0BD4     		bmi	.L322
 3166              	.L321:
 3167              		.loc 1 1172 0 discriminator 2
 3168 0170 002F     		cmp	r7, #0
 3169 0172 6CD0     		beq	.L323
 3170              		.loc 1 1173 0 is_stmt 1
 3171 0174 4FEAE40E 		asr	lr, r4, #3
 3172 0178 04F00700 		and	r0, r4, #7
 3173 017c 17F80EE0 		ldrb	lr, [r7, lr]	@ zero_extendqisi2
 3174 0180 4EFA00F0 		asr	r0, lr, r0
 3175 0184 C007     		lsls	r0, r0, #31
ARM GAS  /var/folders/5n/p_75w94d66l9ssrldxqdhh700000gn/T//cciPPkzE.s 			page 57


 3176 0186 62D5     		bpl	.L323
 3177              	.L322:
 3178              	.LVL346:
 3179              	.LBB154:
 3180              	.LBB152:
 3181              	.LBB150:
 3182              		.loc 1 225 0
 3183 0188 032C     		cmp	r4, #3
 3184 018a 6ED9     		bls	.L345
 3185              	.L325:
 3186              	.LBE150:
 3187              	.LBE152:
 3188              		.loc 1 1176 0 discriminator 1
 3189 018c 0791     		str	r1, [sp, #28]
 3190 018e 0692     		str	r2, [sp, #24]
 3191 0190 0593     		str	r3, [sp, #20]
 3192 0192 FFF7FEFF 		bl	port_halt
 3193 0196 4FF0000E 		mov	lr, #0
 3194 019a 059B     		ldr	r3, [sp, #20]
 3195              		.loc 1 1178 0 discriminator 1
 3196 019c DEF81400 		ldr	r0, [lr, #20]
 3197              		.loc 1 1176 0 discriminator 1
 3198 01a0 069A     		ldr	r2, [sp, #24]
 3199 01a2 0799     		ldr	r1, [sp, #28]
 3200              		.loc 1 1178 0 discriminator 1
 3201 01a4 0138     		subs	r0, r0, #1
 3202              		.loc 1 1179 0 discriminator 1
 3203 01a6 0028     		cmp	r0, #0
 3204              		.loc 1 1178 0 discriminator 1
 3205 01a8 CEF81400 		str	r0, [lr, #20]
 3206              		.loc 1 1179 0 discriminator 1
 3207 01ac 6BDB     		blt	.L346
 3208              	.LVL347:
 3209              	.L324:
 3210              	.LBE154:
 3211              		.loc 1 1171 0
 3212 01ae 0134     		adds	r4, r4, #1
 3213              	.LVL348:
 3214 01b0 1835     		adds	r5, r5, #24
 3215 01b2 5C45     		cmp	r4, fp
 3216 01b4 D1D1     		bne	.L327
 3217 01b6 3446     		mov	r4, r6
 3218              	.LVL349:
 3219 01b8 CDF810B0 		str	fp, [sp, #16]
 3220 01bc 3D46     		mov	r5, r7
 3221 01be 9346     		mov	fp, r2
 3222 01c0 1E46     		mov	r6, r3
 3223              	.LVL350:
 3224              	.L320:
 3225              		.loc 1 1185 0
 3226 01c2 0A9B     		ldr	r3, [sp, #40]
 3227 01c4 0BB1     		cbz	r3, .L328
 3228              		.loc 1 1186 0
 3229 01c6 0B9A     		ldr	r2, [sp, #44]
 3230 01c8 5A60     		str	r2, [r3, #4]
 3231              	.L328:
 3232              		.loc 1 1188 0
ARM GAS  /var/folders/5n/p_75w94d66l9ssrldxqdhh700000gn/T//cciPPkzE.s 			page 58


 3233 01ca 40F20007 		movw	r7, #:lower16:.LANCHOR2
 3234 01ce C0F20007 		movt	r7, #:upper16:.LANCHOR2
 3235 01d2 3A68     		ldr	r2, [r7, #0]
 3236 01d4 089F     		ldr	r7, [sp, #32]
 3237 01d6 BA42     		cmp	r2, r7
 3238              		.loc 1 1189 0
 3239 01d8 0B9A     		ldr	r2, [sp, #44]
 3240              		.loc 1 1188 0
 3241 01da 79D0     		beq	.L347
 3242              		.loc 1 1192 0
 3243 01dc 002A     		cmp	r2, #0
 3244 01de 00F08180 		beq	.L348
 3245              	.L332:
 3246              		.loc 1 1193 0
 3247 01e2 1360     		str	r3, [r2, #0]
 3248              	.L331:
 3249              		.loc 1 1196 0
 3250 01e4 40F20002 		movw	r2, #:lower16:.LANCHOR3
 3251 01e8 C0F20002 		movt	r2, #:upper16:.LANCHOR3
 3252              		.loc 1 1199 0
 3253 01ec 10A8     		add	r0, sp, #64
 3254              		.loc 1 1196 0
 3255 01ee 1368     		ldr	r3, [r2, #0]
 3256 01f0 0133     		adds	r3, r3, #1
 3257 01f2 1360     		str	r3, [r2, #0]
 3258              		.loc 1 1199 0
 3259 01f4 FFF7FEFF 		bl	sys_sem_free
 3260              		.loc 1 1200 0
 3261 01f8 099B     		ldr	r3, [sp, #36]
 3262 01fa 0133     		adds	r3, r3, #1
 3263 01fc 08D0     		beq	.L306
 3264              		.loc 1 1209 0
 3265 01fe 0498     		ldr	r0, [sp, #16]
 3266 0200 2146     		mov	r1, r4
 3267 0202 2A46     		mov	r2, r5
 3268 0204 3346     		mov	r3, r6
 3269 0206 8DE80007 		stmia	sp, {r8, r9, sl}
 3270 020a FFF7FEFF 		bl	lwip_selscan
 3271 020e 8346     		mov	fp, r0
 3272              	.LVL351:
 3273              	.L306:
 3274              		.loc 1 1215 0
 3275 0210 14B1     		cbz	r4, .L333
 3276              		.loc 1 1216 0
 3277 0212 9DF84430 		ldrb	r3, [sp, #68]	@ zero_extendqisi2
 3278 0216 2370     		strb	r3, [r4, #0]
 3279              	.L333:
 3280              		.loc 1 1218 0
 3281 0218 15B1     		cbz	r5, .L334
 3282              		.loc 1 1219 0
 3283 021a 9DF84830 		ldrb	r3, [sp, #72]	@ zero_extendqisi2
 3284 021e 2B70     		strb	r3, [r5, #0]
 3285              	.L334:
 3286              		.loc 1 1221 0
 3287 0220 16B1     		cbz	r6, .L308
 3288              		.loc 1 1222 0
 3289 0222 9DF84C30 		ldrb	r3, [sp, #76]	@ zero_extendqisi2
ARM GAS  /var/folders/5n/p_75w94d66l9ssrldxqdhh700000gn/T//cciPPkzE.s 			page 59


 3290 0226 3370     		strb	r3, [r6, #0]
 3291              	.LVL352:
 3292              	.L308:
 3293              		.loc 1 1227 0
 3294 0228 5846     		mov	r0, fp
 3295 022a 15B0     		add	sp, sp, #84
 3296 022c BDE8F08F 		pop	{r4, r5, r6, r7, r8, r9, sl, fp, pc}
 3297              	.LVL353:
 3298              	.L343:
 3299              	.LBB155:
 3300              	.LBB145:
 3301              	.LBB143:
 3302              		.loc 1 228 0
 3303 0230 A158     		ldr	r1, [r4, r2]
 3304              		.loc 1 231 0
 3305 0232 0BEB4B00 		add	r0, fp, fp, lsl #1
 3306 0236 02EBC000 		add	r0, r2, r0, lsl #3
 3307              		.loc 1 228 0
 3308 023a 0029     		cmp	r1, #0
 3309 023c 3FF43FAF 		beq	.L315
 3310              	.LBE143:
 3311              	.LBE145:
 3312              		.loc 1 1146 0
 3313 0240 4169     		ldr	r1, [r0, #20]
 3314 0242 0131     		adds	r1, r1, #1
 3315              		.loc 1 1147 0
 3316 0244 0029     		cmp	r1, #0
 3317              		.loc 1 1146 0
 3318 0246 4161     		str	r1, [r0, #20]
 3319              		.loc 1 1147 0
 3320 0248 3FF760AF 		bgt	.L314
 3321 024c 43E7     		b	.L349
 3322              	.LVL354:
 3323              	.L323:
 3324              	.LBE155:
 3325              		.loc 1 1173 0 discriminator 1
 3326 024e 002B     		cmp	r3, #0
 3327 0250 ADD0     		beq	.L324
 3328              		.loc 1 1174 0
 3329 0252 4FEAE40E 		asr	lr, r4, #3
 3330 0256 04F00700 		and	r0, r4, #7
 3331 025a 13F80EE0 		ldrb	lr, [r3, lr]	@ zero_extendqisi2
 3332 025e 4EFA00F0 		asr	r0, lr, r0
 3333 0262 C007     		lsls	r0, r0, #31
 3334 0264 A3D5     		bpl	.L324
 3335              	.LVL355:
 3336              	.LBB156:
 3337              	.LBB153:
 3338              	.LBB151:
 3339              		.loc 1 225 0
 3340 0266 032C     		cmp	r4, #3
 3341 0268 90D8     		bhi	.L325
 3342              	.L345:
 3343              		.loc 1 228 0
 3344 026a 6858     		ldr	r0, [r5, r1]
 3345              		.loc 1 231 0
 3346 026c 04EB440E 		add	lr, r4, r4, lsl #1
ARM GAS  /var/folders/5n/p_75w94d66l9ssrldxqdhh700000gn/T//cciPPkzE.s 			page 60


 3347 0270 01EBCE0E 		add	lr, r1, lr, lsl #3
 3348              		.loc 1 228 0
 3349 0274 0028     		cmp	r0, #0
 3350 0276 89D0     		beq	.L325
 3351              	.LBE151:
 3352              	.LBE153:
 3353              		.loc 1 1178 0
 3354 0278 DEF81400 		ldr	r0, [lr, #20]
 3355 027c 0138     		subs	r0, r0, #1
 3356              		.loc 1 1179 0
 3357 027e 0028     		cmp	r0, #0
 3358              		.loc 1 1178 0
 3359 0280 CEF81400 		str	r0, [lr, #20]
 3360              		.loc 1 1179 0
 3361 0284 93DA     		bge	.L324
 3362              	.L346:
 3363              		.loc 1 1179 0 is_stmt 0 discriminator 1
 3364 0286 0791     		str	r1, [sp, #28]
 3365 0288 0692     		str	r2, [sp, #24]
 3366 028a 0593     		str	r3, [sp, #20]
 3367 028c FFF7FEFF 		bl	port_halt
 3368 0290 059B     		ldr	r3, [sp, #20]
 3369 0292 069A     		ldr	r2, [sp, #24]
 3370 0294 0799     		ldr	r1, [sp, #28]
 3371 0296 8AE7     		b	.L324
 3372              	.LVL356:
 3373              	.L344:
 3374              	.LBE156:
 3375              		.loc 1 1157 0 is_stmt 1
 3376 0298 1E9F     		ldr	r7, [sp, #120]
 3377              		.loc 1 1159 0
 3378 029a 0146     		mov	r1, r0
 3379              		.loc 1 1157 0
 3380 029c 9FB1     		cbz	r7, .L319
 3381              		.loc 1 1161 0
 3382 029e 97E80500 		ldmia	r7, {r0, r2}
 3383              	.LVL357:
 3384 02a2 44F6D353 		movw	r3, #19923
 3385 02a6 02F5FA72 		add	r2, r2, #500
 3386 02aa C1F26203 		movt	r3, 4194
 3387 02ae 83FB0213 		smull	r1, r3, r3, r2
 3388              	.LVL358:
 3389 02b2 D217     		asrs	r2, r2, #31
 3390 02b4 C2EBA312 		rsb	r2, r2, r3, asr #6
 3391 02b8 4FF47A71 		mov	r1, #1000
 3392 02bc 01FB0021 		mla	r1, r1, r0, r2
 3393              	.LVL359:
 3394              		.loc 1 1164 0
 3395 02c0 0029     		cmp	r1, #0
 3396 02c2 08BF     		it	eq
 3397 02c4 0121     		moveq	r1, #1
 3398              	.LVL360:
 3399              	.L319:
 3400              		.loc 1 1168 0
 3401 02c6 10A8     		add	r0, sp, #64
 3402 02c8 FFF7FEFF 		bl	sys_arch_sem_wait
 3403              	.LVL361:
ARM GAS  /var/folders/5n/p_75w94d66l9ssrldxqdhh700000gn/T//cciPPkzE.s 			page 61


 3404 02cc 0990     		str	r0, [sp, #36]
 3405              	.LVL362:
 3406 02ce 34E7     		b	.L318
 3407              	.LVL363:
 3408              	.L347:
 3409              		.loc 1 1189 0
 3410 02d0 12B1     		cbz	r2, .L330
 3411              		.loc 1 1189 0 is_stmt 0 discriminator 1
 3412 02d2 FFF7FEFF 		bl	port_halt
 3413 02d6 0A9B     		ldr	r3, [sp, #40]
 3414              	.L330:
 3415              		.loc 1 1190 0 is_stmt 1
 3416 02d8 40F20001 		movw	r1, #:lower16:.LANCHOR2
 3417 02dc C0F20001 		movt	r1, #:upper16:.LANCHOR2
 3418 02e0 0B60     		str	r3, [r1, #0]
 3419 02e2 7FE7     		b	.L331
 3420              	.L348:
 3421              		.loc 1 1192 0 discriminator 1
 3422 02e4 FFF7FEFF 		bl	port_halt
 3423 02e8 0B9A     		ldr	r2, [sp, #44]
 3424 02ea 0A9B     		ldr	r3, [sp, #40]
 3425 02ec 79E7     		b	.L332
 3426              	.L351:
 3427 02ee 00BF     		.align	2
 3428              	.L350:
 3429 02f0 00000000 		.word	.LANCHOR1
 3430              		.cfi_endproc
 3431              	.LFE25:
 3432              		.size	lwip_select, .-lwip_select
 3433 02f4 AFF30080 		.section	.text.lwip_shutdown,"ax",%progbits
 3433      AFF30080 
 3433      AFF30080 
 3434              		.align	2
 3435              		.p2align 4,,15
 3436              		.global	lwip_shutdown
 3437              		.thumb
 3438              		.thumb_func
 3439              		.type	lwip_shutdown, %function
 3440              	lwip_shutdown:
 3441              	.LFB27:
 3442              		.loc 1 1355 0
 3443              		.cfi_startproc
 3444              		@ args = 0, pretend = 0, frame = 0
 3445              		@ frame_needed = 0, uses_anonymous_args = 0
 3446              	.LVL364:
 3447              	.LBB157:
 3448              	.LBB158:
 3449              		.loc 1 199 0
 3450 0000 0328     		cmp	r0, #3
 3451              	.LBE158:
 3452              	.LBE157:
 3453              		.loc 1 1355 0
 3454 0002 10B5     		push	{r4, lr}
 3455              	.LCFI30:
 3456              		.cfi_def_cfa_offset 8
 3457              		.cfi_offset 14, -4
 3458              		.cfi_offset 4, -8
ARM GAS  /var/folders/5n/p_75w94d66l9ssrldxqdhh700000gn/T//cciPPkzE.s 			page 62


 3459              	.LBB161:
 3460              	.LBB159:
 3461              		.loc 1 199 0
 3462 0004 0CD8     		bhi	.L357
 3463              	.LVL365:
 3464              		.loc 1 205 0
 3465 0006 00EB4000 		add	r0, r0, r0, lsl #1
 3466              	.LVL366:
 3467 000a 184B     		ldr	r3, .L364
 3468 000c C000     		lsls	r0, r0, #3
 3469 000e 1C18     		adds	r4, r3, r0
 3470              	.LVL367:
 3471              		.loc 1 207 0
 3472 0010 1858     		ldr	r0, [r3, r0]
 3473 0012 40B1     		cbz	r0, .L358
 3474              	.LBE159:
 3475              	.LBE161:
 3476              		.loc 1 1368 0
 3477 0014 0378     		ldrb	r3, [r0, #0]	@ zero_extendqisi2
 3478 0016 102B     		cmp	r3, #16
 3479 0018 08D0     		beq	.L354
 3480              		.loc 1 1369 0
 3481 001a 5F20     		movs	r0, #95
 3482 001c 2061     		str	r0, [r4, #16]
 3483              		.loc 1 1370 0
 3484 001e 10BD     		pop	{r4, pc}
 3485              	.LVL368:
 3486              	.L357:
 3487              	.LBB162:
 3488              	.LBB160:
 3489              		.loc 1 1364 0
 3490 0020 4FF0FF30 		mov	r0, #-1
 3491              	.LVL369:
 3492 0024 10BD     		pop	{r4, pc}
 3493              	.LVL370:
 3494              	.L358:
 3495 0026 4FF0FF30 		mov	r0, #-1
 3496              	.LBE160:
 3497              	.LBE162:
 3498              		.loc 1 1392 0
 3499 002a 10BD     		pop	{r4, pc}
 3500              	.L354:
 3501              		.loc 1 1377 0
 3502 002c 31B1     		cbz	r1, .L359
 3503              		.loc 1 1379 0
 3504 002e 0129     		cmp	r1, #1
 3505 0030 15D0     		beq	.L360
 3506              		.loc 1 1381 0
 3507 0032 0229     		cmp	r1, #2
 3508 0034 16D0     		beq	.L361
 3509              		.loc 1 1385 0
 3510 0036 1620     		movs	r0, #22
 3511 0038 2061     		str	r0, [r4, #16]
 3512              		.loc 1 1386 0
 3513 003a 10BD     		pop	{r4, pc}
 3514              	.L359:
 3515              		.loc 1 1358 0
ARM GAS  /var/folders/5n/p_75w94d66l9ssrldxqdhh700000gn/T//cciPPkzE.s 			page 63


 3516 003c 0A46     		mov	r2, r1
 3517              		.loc 1 1378 0
 3518 003e 0121     		movs	r1, #1
 3519              	.LVL371:
 3520              	.L355:
 3521              		.loc 1 1388 0
 3522 0040 FFF7FEFF 		bl	netconn_shutdown
 3523              	.LVL372:
 3524              		.loc 1 1390 0
 3525 0044 4342     		negs	r3, r0
 3526 0046 0F2B     		cmp	r3, #15
 3527 0048 9ABF     		itte	ls
 3528 004a 094A     		ldrls	r2, .L364+4
 3529 004c 52F82330 		ldrls	r3, [r2, r3, lsl #2]
 3530 0050 0523     		movhi	r3, #5
 3531              		.loc 1 1391 0
 3532 0052 0028     		cmp	r0, #0
 3533              		.loc 1 1390 0
 3534 0054 2361     		str	r3, [r4, #16]
 3535              		.loc 1 1391 0
 3536 0056 18BF     		it	ne
 3537 0058 4FF0FF30 		movne	r0, #-1
 3538              	.LVL373:
 3539 005c 10BD     		pop	{r4, pc}
 3540              	.LVL374:
 3541              	.L360:
 3542              		.loc 1 1380 0
 3543 005e 0A46     		mov	r2, r1
 3544              		.loc 1 1358 0
 3545 0060 0021     		movs	r1, #0
 3546              	.LVL375:
 3547 0062 EDE7     		b	.L355
 3548              	.LVL376:
 3549              	.L361:
 3550              		.loc 1 1383 0
 3551 0064 0122     		movs	r2, #1
 3552              		.loc 1 1382 0
 3553 0066 1146     		mov	r1, r2
 3554              	.LVL377:
 3555 0068 EAE7     		b	.L355
 3556              	.L365:
 3557 006a 00BF     		.align	2
 3558              	.L364:
 3559 006c 00000000 		.word	.LANCHOR1
 3560 0070 00000000 		.word	.LANCHOR0
 3561              		.cfi_endproc
 3562              	.LFE27:
 3563              		.size	lwip_shutdown, .-lwip_shutdown
 3564 0074 AFF30080 		.section	.text.lwip_getpeername,"ax",%progbits
 3564      AFF30080 
 3564      AFF30080 
 3565              		.align	2
 3566              		.p2align 4,,15
 3567              		.global	lwip_getpeername
 3568              		.thumb
 3569              		.thumb_func
 3570              		.type	lwip_getpeername, %function
ARM GAS  /var/folders/5n/p_75w94d66l9ssrldxqdhh700000gn/T//cciPPkzE.s 			page 64


 3571              	lwip_getpeername:
 3572              	.LFB29:
 3573              		.loc 1 1431 0
 3574              		.cfi_startproc
 3575              		@ args = 0, pretend = 0, frame = 0
 3576              		@ frame_needed = 0, uses_anonymous_args = 0
 3577              		@ link register save eliminated.
 3578              	.LVL378:
 3579              		.loc 1 1432 0
 3580 0000 0023     		movs	r3, #0
 3581              		.loc 1 1433 0
 3582              		.loc 1 1432 0
 3583 0002 FFF7FEBF 		b	lwip_getaddrname
 3584              	.LVL379:
 3585              	.LVL380:
 3586              	.LVL381:
 3587              		.cfi_endproc
 3588              	.LFE29:
 3589              		.size	lwip_getpeername, .-lwip_getpeername
 3590 0006 00BFAFF3 		.section	.text.lwip_getsockname,"ax",%progbits
 3590      0080AFF3 
 3590      0080
 3591              		.align	2
 3592              		.p2align 4,,15
 3593              		.global	lwip_getsockname
 3594              		.thumb
 3595              		.thumb_func
 3596              		.type	lwip_getsockname, %function
 3597              	lwip_getsockname:
 3598              	.LFB30:
 3599              		.loc 1 1437 0
 3600              		.cfi_startproc
 3601              		@ args = 0, pretend = 0, frame = 0
 3602              		@ frame_needed = 0, uses_anonymous_args = 0
 3603              		@ link register save eliminated.
 3604              	.LVL382:
 3605              		.loc 1 1438 0
 3606 0000 0123     		movs	r3, #1
 3607              		.loc 1 1439 0
 3608              		.loc 1 1438 0
 3609 0002 FFF7FEBF 		b	lwip_getaddrname
 3610              	.LVL383:
 3611              	.LVL384:
 3612              	.LVL385:
 3613              		.cfi_endproc
 3614              	.LFE30:
 3615              		.size	lwip_getsockname, .-lwip_getsockname
 3616 0006 00BFAFF3 		.section	.text.lwip_getsockopt,"ax",%progbits
 3616      0080AFF3 
 3616      0080
 3617              		.align	2
 3618              		.p2align 4,,15
 3619              		.global	lwip_getsockopt
 3620              		.thumb
 3621              		.thumb_func
 3622              		.type	lwip_getsockopt, %function
 3623              	lwip_getsockopt:
ARM GAS  /var/folders/5n/p_75w94d66l9ssrldxqdhh700000gn/T//cciPPkzE.s 			page 65


 3624              	.LFB31:
 3625              		.loc 1 1443 0
 3626              		.cfi_startproc
 3627              		@ args = 4, pretend = 0, frame = 24
 3628              		@ frame_needed = 0, uses_anonymous_args = 0
 3629              	.LVL386:
 3630 0000 2DE9F041 		push	{r4, r5, r6, r7, r8, lr}
 3631              	.LCFI31:
 3632              		.cfi_def_cfa_offset 24
 3633              		.cfi_offset 14, -4
 3634              		.cfi_offset 8, -8
 3635              		.cfi_offset 7, -12
 3636              		.cfi_offset 6, -16
 3637              		.cfi_offset 5, -20
 3638              		.cfi_offset 4, -24
 3639 0004 86B0     		sub	sp, sp, #24
 3640              	.LCFI32:
 3641              		.cfi_def_cfa_offset 48
 3642              	.LBB163:
 3643              	.LBB164:
 3644              		.loc 1 199 0
 3645 0006 0328     		cmp	r0, #3
 3646              	.LBE164:
 3647              	.LBE163:
 3648              		.loc 1 1443 0
 3649 0008 0C46     		mov	r4, r1
 3650 000a 1546     		mov	r5, r2
 3651 000c 0C9E     		ldr	r6, [sp, #48]
 3652              	.LBB167:
 3653              	.LBB165:
 3654              		.loc 1 199 0
 3655 000e 1CD8     		bhi	.L384
 3656              		.loc 1 205 0
 3657 0010 00EB4000 		add	r0, r0, r0, lsl #1
 3658              	.LVL387:
 3659 0014 394A     		ldr	r2, .L402
 3660              	.LVL388:
 3661 0016 C000     		lsls	r0, r0, #3
 3662 0018 1718     		adds	r7, r2, r0
 3663              	.LVL389:
 3664              		.loc 1 207 0
 3665 001a 1158     		ldr	r1, [r2, r0]
 3666              	.LVL390:
 3667 001c A9B1     		cbz	r1, .L384
 3668              	.LBE165:
 3669              	.LBE167:
 3670              		.loc 1 1452 0
 3671 001e 002B     		cmp	r3, #0
 3672 0020 18BF     		it	ne
 3673 0022 002E     		cmpne	r6, #0
 3674 0024 14BF     		ite	ne
 3675 0026 0020     		movne	r0, #0
 3676 0028 0120     		moveq	r0, #1
 3677 002a 61D0     		beq	.L399
 3678              		.loc 1 1458 0
 3679 002c 062C     		cmp	r4, #6
 3680 002e 37D0     		beq	.L373
ARM GAS  /var/folders/5n/p_75w94d66l9ssrldxqdhh700000gn/T//cciPPkzE.s 			page 66


 3681 0030 40F6FF72 		movw	r2, #4095
 3682 0034 9442     		cmp	r4, r2
 3683 0036 0DD0     		beq	.L374
 3684 0038 14B9     		cbnz	r4, .L391
 3685              		.loc 1 1515 0
 3686 003a 6A1E     		subs	r2, r5, #1
 3687 003c 012A     		cmp	r2, #1
 3688 003e 10D9     		bls	.L398
 3689              	.L391:
 3690 0040 5C23     		movs	r3, #92
 3691              	.LVL391:
 3692              	.L382:
 3693              		.loc 1 1616 0
 3694 0042 3B61     		str	r3, [r7, #16]
 3695              		.loc 1 1617 0
 3696 0044 4FF0FF30 		mov	r0, #-1
 3697 0048 01E0     		b	.L369
 3698              	.LVL392:
 3699              	.L384:
 3700              	.LBB168:
 3701              	.LBB166:
 3702              		.loc 1 1449 0
 3703 004a 4FF0FF30 		mov	r0, #-1
 3704              	.LVL393:
 3705              	.L369:
 3706              	.LBE166:
 3707              	.LBE168:
 3708              		.loc 1 1637 0
 3709 004e 06B0     		add	sp, sp, #24
 3710 0050 BDE8F081 		pop	{r4, r5, r6, r7, r8, pc}
 3711              	.LVL394:
 3712              	.L374:
 3713              		.loc 1 1462 0
 3714 0054 202D     		cmp	r5, #32
 3715 0056 04D0     		beq	.L398
 3716 0058 2EDC     		bgt	.L377
 3717 005a 022D     		cmp	r5, #2
 3718 005c 01D0     		beq	.L398
 3719 005e 082D     		cmp	r5, #8
 3720 0060 EED1     		bne	.L391
 3721              	.L398:
 3722              		.loc 1 1521 0
 3723 0062 3268     		ldr	r2, [r6, #0]
 3724 0064 032A     		cmp	r2, #3
 3725 0066 1ED9     		bls	.L393
 3726              	.LVL395:
 3727              	.L378:
 3728              		.loc 1 1629 0
 3729 0068 4FF00008 		mov	r8, #0
 3730              		.loc 1 1630 0
 3731 006c 0122     		movs	r2, #1
 3732 006e 6946     		mov	r1, sp
 3733 0070 2348     		ldr	r0, .L402+4
 3734              		.loc 1 1627 0
 3735 0072 0393     		str	r3, [sp, #12]
 3736              		.loc 1 1621 0
 3737 0074 0097     		str	r7, [sp, #0]
ARM GAS  /var/folders/5n/p_75w94d66l9ssrldxqdhh700000gn/T//cciPPkzE.s 			page 67


 3738              		.loc 1 1625 0
 3739 0076 0194     		str	r4, [sp, #4]
 3740              		.loc 1 1626 0
 3741 0078 0295     		str	r5, [sp, #8]
 3742              		.loc 1 1628 0
 3743 007a 0496     		str	r6, [sp, #16]
 3744              		.loc 1 1629 0
 3745 007c 8DF81480 		strb	r8, [sp, #20]
 3746              		.loc 1 1630 0
 3747 0080 FFF7FEFF 		bl	tcpip_callback_with_block
 3748              	.LVL396:
 3749              		.loc 1 1631 0
 3750 0084 3868     		ldr	r0, [r7, #0]
 3751 0086 4146     		mov	r1, r8
 3752 0088 0C30     		adds	r0, r0, #12
 3753 008a FFF7FEFF 		bl	sys_arch_sem_wait
 3754              		.loc 1 1633 0
 3755 008e 9DF81400 		ldrb	r0, [sp, #20]	@ zero_extendqisi2
 3756              	.LVL397:
 3757              		.loc 1 1635 0
 3758 0092 43B2     		sxtb	r3, r0
 3759              		.loc 1 1636 0
 3760 0094 4045     		cmp	r0, r8
 3761              		.loc 1 1635 0
 3762 0096 3B61     		str	r3, [r7, #16]
 3763              		.loc 1 1636 0
 3764 0098 18BF     		it	ne
 3765 009a 4FF0FF30 		movne	r0, #-1
 3766              	.LVL398:
 3767 009e D6E7     		b	.L369
 3768              	.LVL399:
 3769              	.L373:
 3770              		.loc 1 1556 0
 3771 00a0 3268     		ldr	r2, [r6, #0]
 3772 00a2 032A     		cmp	r2, #3
 3773 00a4 01D8     		bhi	.L400
 3774              	.L393:
 3775 00a6 1623     		movs	r3, #22
 3776              	.LVL400:
 3777 00a8 CBE7     		b	.L382
 3778              	.LVL401:
 3779              	.L400:
 3780              		.loc 1 1562 0
 3781 00aa 0A78     		ldrb	r2, [r1, #0]	@ zero_extendqisi2
 3782 00ac 102A     		cmp	r2, #16
 3783 00ae CED1     		bne	.L369
 3784 00b0 6A1E     		subs	r2, r5, #1
 3785 00b2 012A     		cmp	r2, #1
 3786 00b4 C4D8     		bhi	.L391
 3787 00b6 D7E7     		b	.L378
 3788              	.L377:
 3789              		.loc 1 1462 0
 3790 00b8 41F20702 		movw	r2, #4103
 3791 00bc 9542     		cmp	r5, r2
 3792 00be BFDB     		blt	.L391
 3793 00c0 0132     		adds	r2, r2, #1
 3794 00c2 9542     		cmp	r5, r2
ARM GAS  /var/folders/5n/p_75w94d66l9ssrldxqdhh700000gn/T//cciPPkzE.s 			page 68


 3795 00c4 CDDD     		ble	.L398
 3796 00c6 0232     		adds	r2, r2, #2
 3797 00c8 9542     		cmp	r5, r2
 3798 00ca B9D1     		bne	.L391
 3799              		.loc 1 1494 0
 3800 00cc 3068     		ldr	r0, [r6, #0]
 3801              		.loc 1 1498 0
 3802 00ce 0A78     		ldrb	r2, [r1, #0]	@ zero_extendqisi2
 3803              		.loc 1 1444 0
 3804 00d0 0328     		cmp	r0, #3
 3805 00d2 94BF     		ite	ls
 3806 00d4 1620     		movls	r0, #22
 3807 00d6 0020     		movhi	r0, #0
 3808              	.LVL402:
 3809              		.loc 1 1498 0
 3810 00d8 202A     		cmp	r2, #32
 3811 00da 01D0     		beq	.L401
 3812              	.L390:
 3813 00dc 6123     		movs	r3, #97
 3814              	.LVL403:
 3815 00de B0E7     		b	.L382
 3816              	.LVL404:
 3817              	.L401:
 3818              		.loc 1 1499 0 discriminator 1
 3819 00e0 4A68     		ldr	r2, [r1, #4]
 3820 00e2 127C     		ldrb	r2, [r2, #16]	@ zero_extendqisi2
 3821              		.loc 1 1498 0 discriminator 1
 3822 00e4 9207     		lsls	r2, r2, #30
 3823 00e6 F9D4     		bmi	.L390
 3824              		.loc 1 1615 0
 3825 00e8 0028     		cmp	r0, #0
 3826 00ea BDD0     		beq	.L378
 3827 00ec 43B2     		sxtb	r3, r0
 3828              	.LVL405:
 3829 00ee A8E7     		b	.L382
 3830              	.LVL406:
 3831              	.L399:
 3832              		.loc 1 1453 0
 3833 00f0 0E23     		movs	r3, #14
 3834              	.LVL407:
 3835 00f2 3B61     		str	r3, [r7, #16]
 3836              		.loc 1 1454 0
 3837 00f4 4FF0FF30 		mov	r0, #-1
 3838 00f8 A9E7     		b	.L369
 3839              	.L403:
 3840 00fa 00BF     		.align	2
 3841              	.L402:
 3842 00fc 00000000 		.word	.LANCHOR1
 3843 0100 00000000 		.word	lwip_getsockopt_internal
 3844              		.cfi_endproc
 3845              	.LFE31:
 3846              		.size	lwip_getsockopt, .-lwip_getsockopt
 3847 0104 AFF30080 		.section	.text.lwip_setsockopt,"ax",%progbits
 3847      AFF30080 
 3847      AFF30080 
 3848              		.align	2
 3849              		.p2align 4,,15
ARM GAS  /var/folders/5n/p_75w94d66l9ssrldxqdhh700000gn/T//cciPPkzE.s 			page 69


 3850              		.global	lwip_setsockopt
 3851              		.thumb
 3852              		.thumb_func
 3853              		.type	lwip_setsockopt, %function
 3854              	lwip_setsockopt:
 3855              	.LFB33:
 3856              		.loc 1 1844 0
 3857              		.cfi_startproc
 3858              		@ args = 4, pretend = 0, frame = 24
 3859              		@ frame_needed = 0, uses_anonymous_args = 0
 3860              	.LVL408:
 3861 0000 F0B5     		push	{r4, r5, r6, r7, lr}
 3862              	.LCFI33:
 3863              		.cfi_def_cfa_offset 20
 3864              		.cfi_offset 14, -4
 3865              		.cfi_offset 7, -8
 3866              		.cfi_offset 6, -12
 3867              		.cfi_offset 5, -16
 3868              		.cfi_offset 4, -20
 3869              	.LBB169:
 3870              	.LBB170:
 3871              		.loc 1 199 0
 3872 0002 0328     		cmp	r0, #3
 3873              	.LBE170:
 3874              	.LBE169:
 3875              		.loc 1 1844 0
 3876 0004 87B0     		sub	sp, sp, #28
 3877              	.LCFI34:
 3878              		.cfi_def_cfa_offset 48
 3879              		.loc 1 1844 0
 3880 0006 0C46     		mov	r4, r1
 3881 0008 1546     		mov	r5, r2
 3882              	.LBB173:
 3883              	.LBB171:
 3884              		.loc 1 199 0
 3885 000a 17D8     		bhi	.L419
 3886              		.loc 1 205 0
 3887 000c 00EB4000 		add	r0, r0, r0, lsl #1
 3888              	.LVL409:
 3889 0010 314A     		ldr	r2, .L437
 3890              	.LVL410:
 3891 0012 C000     		lsls	r0, r0, #3
 3892 0014 1618     		adds	r6, r2, r0
 3893              	.LVL411:
 3894              		.loc 1 207 0
 3895 0016 1158     		ldr	r1, [r2, r0]
 3896              	.LVL412:
 3897 0018 81B1     		cbz	r1, .L419
 3898              	.LVL413:
 3899              	.LBE171:
 3900              	.LBE173:
 3901              		.loc 1 1853 0
 3902 001a 002B     		cmp	r3, #0
 3903 001c 57D0     		beq	.L435
 3904              		.loc 1 1859 0
 3905 001e 062C     		cmp	r4, #6
 3906 0020 1DD0     		beq	.L409
ARM GAS  /var/folders/5n/p_75w94d66l9ssrldxqdhh700000gn/T//cciPPkzE.s 			page 70


 3907 0022 40F6FF72 		movw	r2, #4095
 3908 0026 9442     		cmp	r4, r2
 3909 0028 0CD0     		beq	.L410
 3910 002a 14B9     		cbnz	r4, .L426
 3911              		.loc 1 1911 0
 3912 002c 6A1E     		subs	r2, r5, #1
 3913 002e 012A     		cmp	r2, #1
 3914 0030 10D9     		bls	.L434
 3915              	.L426:
 3916 0032 5C23     		movs	r3, #92
 3917              	.LVL414:
 3918              	.L417:
 3919              		.loc 1 2025 0
 3920 0034 3361     		str	r3, [r6, #16]
 3921              		.loc 1 2026 0
 3922 0036 4FF0FF30 		mov	r0, #-1
 3923 003a 01E0     		b	.L405
 3924              	.LVL415:
 3925              	.L419:
 3926              	.LBB174:
 3927              	.LBB172:
 3928              		.loc 1 1850 0
 3929 003c 4FF0FF30 		mov	r0, #-1
 3930              	.LVL416:
 3931              	.L405:
 3932              	.LBE172:
 3933              	.LBE174:
 3934              		.loc 1 2047 0
 3935 0040 07B0     		add	sp, sp, #28
 3936 0042 F0BD     		pop	{r4, r5, r6, r7, pc}
 3937              	.LVL417:
 3938              	.L410:
 3939              		.loc 1 1863 0
 3940 0044 202D     		cmp	r5, #32
 3941 0046 05D0     		beq	.L434
 3942 0048 41F20A02 		movw	r2, #4106
 3943 004c 9542     		cmp	r5, r2
 3944 004e 2CD0     		beq	.L412
 3945 0050 082D     		cmp	r5, #8
 3946 0052 EED1     		bne	.L426
 3947              	.L434:
 3948              		.loc 1 1917 0
 3949 0054 0C9A     		ldr	r2, [sp, #48]
 3950 0056 032A     		cmp	r2, #3
 3951 0058 0BD8     		bhi	.L413
 3952              	.L428:
 3953              		.loc 1 1966 0
 3954 005a 1623     		movs	r3, #22
 3955              	.LVL418:
 3956 005c EAE7     		b	.L417
 3957              	.LVL419:
 3958              	.L409:
 3959 005e 0C9A     		ldr	r2, [sp, #48]
 3960 0060 032A     		cmp	r2, #3
 3961 0062 FAD9     		bls	.L428
 3962              		.loc 1 1972 0
 3963 0064 0A78     		ldrb	r2, [r1, #0]	@ zero_extendqisi2
ARM GAS  /var/folders/5n/p_75w94d66l9ssrldxqdhh700000gn/T//cciPPkzE.s 			page 71


 3964              		.loc 1 1973 0
 3965 0066 0020     		movs	r0, #0
 3966              		.loc 1 1972 0
 3967 0068 102A     		cmp	r2, #16
 3968 006a E9D1     		bne	.L405
 3969 006c 6A1E     		subs	r2, r5, #1
 3970 006e 012A     		cmp	r2, #1
 3971 0070 DFD8     		bhi	.L426
 3972              	.LVL420:
 3973              	.L413:
 3974              		.loc 1 2039 0
 3975 0072 0027     		movs	r7, #0
 3976              		.loc 1 2040 0
 3977 0074 0122     		movs	r2, #1
 3978 0076 6946     		mov	r1, sp
 3979              		.loc 1 2037 0
 3980 0078 0393     		str	r3, [sp, #12]
 3981              		.loc 1 2040 0
 3982 007a 1848     		ldr	r0, .L437+4
 3983              		.loc 1 2031 0
 3984 007c 0096     		str	r6, [sp, #0]
 3985              		.loc 1 2038 0
 3986 007e 0CAB     		add	r3, sp, #48
 3987              	.LVL421:
 3988 0080 0493     		str	r3, [sp, #16]
 3989              		.loc 1 2035 0
 3990 0082 0194     		str	r4, [sp, #4]
 3991              		.loc 1 2036 0
 3992 0084 0295     		str	r5, [sp, #8]
 3993              		.loc 1 2039 0
 3994 0086 8DF81470 		strb	r7, [sp, #20]
 3995              		.loc 1 2040 0
 3996 008a FFF7FEFF 		bl	tcpip_callback_with_block
 3997              	.LVL422:
 3998              		.loc 1 2041 0
 3999 008e 3068     		ldr	r0, [r6, #0]
 4000 0090 3946     		mov	r1, r7
 4001 0092 0C30     		adds	r0, r0, #12
 4002 0094 FFF7FEFF 		bl	sys_arch_sem_wait
 4003              		.loc 1 2043 0
 4004 0098 9DF81400 		ldrb	r0, [sp, #20]	@ zero_extendqisi2
 4005              	.LVL423:
 4006              		.loc 1 2045 0
 4007 009c 43B2     		sxtb	r3, r0
 4008              		.loc 1 2046 0
 4009 009e B842     		cmp	r0, r7
 4010              		.loc 1 2045 0
 4011 00a0 3361     		str	r3, [r6, #16]
 4012              		.loc 1 2046 0
 4013 00a2 18BF     		it	ne
 4014 00a4 4FF0FF30 		movne	r0, #-1
 4015              	.LVL424:
 4016 00a8 CAE7     		b	.L405
 4017              	.LVL425:
 4018              	.L412:
 4019              		.loc 1 1895 0
 4020 00aa 0A78     		ldrb	r2, [r1, #0]	@ zero_extendqisi2
ARM GAS  /var/folders/5n/p_75w94d66l9ssrldxqdhh700000gn/T//cciPPkzE.s 			page 72


 4021              		.loc 1 1846 0
 4022 00ac 0C98     		ldr	r0, [sp, #48]
 4023 00ae 0328     		cmp	r0, #3
 4024 00b0 94BF     		ite	ls
 4025 00b2 1620     		movls	r0, #22
 4026 00b4 0020     		movhi	r0, #0
 4027              	.LVL426:
 4028              		.loc 1 1895 0
 4029 00b6 202A     		cmp	r2, #32
 4030 00b8 01D0     		beq	.L436
 4031              	.L425:
 4032 00ba 6123     		movs	r3, #97
 4033              	.LVL427:
 4034 00bc BAE7     		b	.L417
 4035              	.LVL428:
 4036              	.L436:
 4037              		.loc 1 1896 0 discriminator 1
 4038 00be 4A68     		ldr	r2, [r1, #4]
 4039 00c0 127C     		ldrb	r2, [r2, #16]	@ zero_extendqisi2
 4040              		.loc 1 1895 0 discriminator 1
 4041 00c2 9107     		lsls	r1, r2, #30
 4042 00c4 F9D4     		bmi	.L425
 4043              		.loc 1 2024 0
 4044 00c6 0028     		cmp	r0, #0
 4045 00c8 D3D0     		beq	.L413
 4046 00ca 43B2     		sxtb	r3, r0
 4047              	.LVL429:
 4048 00cc B2E7     		b	.L417
 4049              	.LVL430:
 4050              	.L435:
 4051              		.loc 1 1854 0
 4052 00ce 0E23     		movs	r3, #14
 4053              	.LVL431:
 4054 00d0 3361     		str	r3, [r6, #16]
 4055              		.loc 1 1855 0
 4056 00d2 4FF0FF30 		mov	r0, #-1
 4057 00d6 B3E7     		b	.L405
 4058              	.L438:
 4059              		.align	2
 4060              	.L437:
 4061 00d8 00000000 		.word	.LANCHOR1
 4062 00dc 00000000 		.word	lwip_setsockopt_internal
 4063              		.cfi_endproc
 4064              	.LFE33:
 4065              		.size	lwip_setsockopt, .-lwip_setsockopt
 4066              		.section	.text.lwip_ioctl,"ax",%progbits
 4067              		.align	2
 4068              		.p2align 4,,15
 4069              		.global	lwip_ioctl
 4070              		.thumb
 4071              		.thumb_func
 4072              		.type	lwip_ioctl, %function
 4073              	lwip_ioctl:
 4074              	.LFB35:
 4075              		.loc 1 2255 0
 4076              		.cfi_startproc
 4077              		@ args = 0, pretend = 0, frame = 0
ARM GAS  /var/folders/5n/p_75w94d66l9ssrldxqdhh700000gn/T//cciPPkzE.s 			page 73


 4078              		@ frame_needed = 0, uses_anonymous_args = 0
 4079              		@ link register save eliminated.
 4080              	.LVL432:
 4081              	.LBB175:
 4082              	.LBB176:
 4083              		.loc 1 199 0
 4084 0000 0328     		cmp	r0, #3
 4085              	.LBE176:
 4086              	.LBE175:
 4087              		.loc 1 2255 0
 4088 0002 10B4     		push	{r4}
 4089              	.LCFI35:
 4090              		.cfi_def_cfa_offset 4
 4091              		.cfi_offset 4, -4
 4092              	.LBB179:
 4093              	.LBB177:
 4094              		.loc 1 199 0
 4095 0004 11D8     		bhi	.L447
 4096              	.LVL433:
 4097              		.loc 1 205 0
 4098 0006 00EB4000 		add	r0, r0, r0, lsl #1
 4099              	.LVL434:
 4100 000a 114B     		ldr	r3, .L450
 4101 000c C000     		lsls	r0, r0, #3
 4102 000e 1C18     		adds	r4, r3, r0
 4103              	.LVL435:
 4104              		.loc 1 207 0
 4105 0010 1858     		ldr	r0, [r3, r0]
 4106 0012 50B1     		cbz	r0, .L447
 4107              	.LBE177:
 4108              	.LBE179:
 4109              		.loc 1 2267 0
 4110 0014 46F27E63 		movw	r3, #26238
 4111 0018 C8F20403 		movt	r3, 32772
 4112 001c 9942     		cmp	r1, r3
 4113 001e 08D0     		beq	.L449
 4114              		.loc 1 2310 0
 4115 0020 2623     		movs	r3, #38
 4116 0022 2361     		str	r3, [r4, #16]
 4117              		.loc 1 2311 0
 4118 0024 4FF0FF30 		mov	r0, #-1
 4119 0028 01E0     		b	.L440
 4120              	.LVL436:
 4121              	.L447:
 4122              	.LBB180:
 4123              	.LBB178:
 4124              		.loc 1 2264 0
 4125 002a 4FF0FF30 		mov	r0, #-1
 4126              	.L440:
 4127              	.LBE178:
 4128              	.LBE180:
 4129              		.loc 1 2313 0
 4130 002e 10BC     		pop	{r4}
 4131 0030 7047     		bx	lr
 4132              	.LVL437:
 4133              	.L449:
 4134              		.loc 1 2300 0
ARM GAS  /var/folders/5n/p_75w94d66l9ssrldxqdhh700000gn/T//cciPPkzE.s 			page 74


 4135 0032 42B1     		cbz	r2, .L443
 4136              		.loc 1 2300 0 is_stmt 0 discriminator 1
 4137 0034 1368     		ldr	r3, [r2, #0]
 4138 0036 33B1     		cbz	r3, .L443
 4139              	.LVL438:
 4140              		.loc 1 2303 0 is_stmt 1
 4141 0038 037F     		ldrb	r3, [r0, #28]	@ zero_extendqisi2
 4142 003a 43F00203 		orr	r3, r3, #2
 4143 003e 0377     		strb	r3, [r0, #28]
 4144              	.LVL439:
 4145              	.L445:
 4146              		.loc 1 2305 0
 4147 0040 0020     		movs	r0, #0
 4148 0042 2061     		str	r0, [r4, #16]
 4149              		.loc 1 2306 0
 4150 0044 F3E7     		b	.L440
 4151              	.LVL440:
 4152              	.L443:
 4153              		.loc 1 2303 0
 4154 0046 037F     		ldrb	r3, [r0, #28]	@ zero_extendqisi2
 4155 0048 23F00203 		bic	r3, r3, #2
 4156 004c 0377     		strb	r3, [r0, #28]
 4157 004e F7E7     		b	.L445
 4158              	.L451:
 4159              		.align	2
 4160              	.L450:
 4161 0050 00000000 		.word	.LANCHOR1
 4162              		.cfi_endproc
 4163              	.LFE35:
 4164              		.size	lwip_ioctl, .-lwip_ioctl
 4165 0054 AFF30080 		.section	.text.lwip_fcntl,"ax",%progbits
 4165      AFF30080 
 4165      AFF30080 
 4166              		.align	2
 4167              		.p2align 4,,15
 4168              		.global	lwip_fcntl
 4169              		.thumb
 4170              		.thumb_func
 4171              		.type	lwip_fcntl, %function
 4172              	lwip_fcntl:
 4173              	.LFB36:
 4174              		.loc 1 2321 0
 4175              		.cfi_startproc
 4176              		@ args = 0, pretend = 0, frame = 0
 4177              		@ frame_needed = 0, uses_anonymous_args = 0
 4178              		@ link register save eliminated.
 4179              	.LVL441:
 4180              	.LBB181:
 4181              	.LBB182:
 4182              		.loc 1 199 0
 4183 0000 0328     		cmp	r0, #3
 4184 0002 09D8     		bhi	.L461
 4185              	.LVL442:
 4186              		.loc 1 205 0
 4187 0004 00EB4000 		add	r0, r0, r0, lsl #1
 4188              	.LVL443:
 4189              		.loc 1 207 0
ARM GAS  /var/folders/5n/p_75w94d66l9ssrldxqdhh700000gn/T//cciPPkzE.s 			page 75


 4190 0008 104B     		ldr	r3, .L463
 4191 000a 53F83030 		ldr	r3, [r3, r0, lsl #3]
 4192 000e 1BB1     		cbz	r3, .L461
 4193              	.LVL444:
 4194              	.LBE182:
 4195              	.LBE181:
 4196              		.loc 1 2329 0
 4197 0010 0329     		cmp	r1, #3
 4198 0012 14D0     		beq	.L454
 4199 0014 0429     		cmp	r1, #4
 4200 0016 02D0     		beq	.L462
 4201              	.LVL445:
 4202              	.L461:
 4203              		.loc 1 2323 0
 4204 0018 4FF0FF30 		mov	r0, #-1
 4205 001c 7047     		bx	lr
 4206              	.LVL446:
 4207              	.L462:
 4208              		.loc 1 2334 0
 4209 001e 32F00101 		bics	r1, r2, #1
 4210              	.LVL447:
 4211 0022 10D1     		bne	.L460
 4212              		.loc 1 2336 0
 4213 0024 12F00100 		ands	r0, r2, #1
 4214 0028 1A7F     		ldrb	r2, [r3, #28]	@ zero_extendqisi2
 4215              	.LVL448:
 4216 002a 17BF     		itett	ne
 4217 002c 42F00202 		orrne	r2, r2, #2
 4218 0030 22F00202 		biceq	r2, r2, #2
 4219 0034 1A77     		strbne	r2, [r3, #28]
 4220              		.loc 1 2337 0
 4221 0036 0846     		movne	r0, r1
 4222              		.loc 1 2336 0
 4223 0038 08BF     		it	eq
 4224 003a 1A77     		strbeq	r2, [r3, #28]
 4225 003c 7047     		bx	lr
 4226              	.LVL449:
 4227              	.L454:
 4228              		.loc 1 2331 0
 4229 003e 187F     		ldrb	r0, [r3, #28]	@ zero_extendqisi2
 4230 0040 C0F34000 		ubfx	r0, r0, #1, #1
 4231              	.LVL450:
 4232              		.loc 1 2332 0
 4233 0044 7047     		bx	lr
 4234              	.LVL451:
 4235              	.L460:
 4236              		.loc 1 2323 0
 4237 0046 4FF0FF30 		mov	r0, #-1
 4238              		.loc 1 2345 0
 4239 004a 7047     		bx	lr
 4240              	.L464:
 4241              		.align	2
 4242              	.L463:
 4243 004c 00000000 		.word	.LANCHOR1
 4244              		.cfi_endproc
 4245              	.LFE36:
 4246              		.size	lwip_fcntl, .-lwip_fcntl
ARM GAS  /var/folders/5n/p_75w94d66l9ssrldxqdhh700000gn/T//cciPPkzE.s 			page 76


 4247              		.section	.rodata.err_to_errno_table,"a",%progbits
 4248              		.align	2
 4249              		.set	.LANCHOR0,. + 0
 4250              		.type	err_to_errno_table, %object
 4251              		.size	err_to_errno_table, 64
 4252              	err_to_errno_table:
 4253 0000 00000000 		.word	0
 4254 0004 0C000000 		.word	12
 4255 0008 69000000 		.word	105
 4256 000c 0B000000 		.word	11
 4257 0010 71000000 		.word	113
 4258 0014 73000000 		.word	115
 4259 0018 16000000 		.word	22
 4260 001c 0B000000 		.word	11
 4261 0020 62000000 		.word	98
 4262 0024 72000000 		.word	114
 4263 0028 67000000 		.word	103
 4264 002c 68000000 		.word	104
 4265 0030 6B000000 		.word	107
 4266 0034 6B000000 		.word	107
 4267 0038 05000000 		.word	5
 4268 003c FFFFFFFF 		.word	-1
 4269              		.section	.bss.select_cb_list,"aw",%nobits
 4270              		.align	2
 4271              		.set	.LANCHOR2,. + 0
 4272              		.type	select_cb_list, %object
 4273              		.size	select_cb_list, 4
 4274              	select_cb_list:
 4275 0000 00000000 		.space	4
 4276              		.section	.bss.sockets,"aw",%nobits
 4277              		.align	2
 4278              		.set	.LANCHOR1,. + 0
 4279              		.type	sockets, %object
 4280              		.size	sockets, 96
 4281              	sockets:
 4282 0000 00000000 		.space	96
 4282      00000000 
 4282      00000000 
 4282      00000000 
 4282      00000000 
 4283              		.section	.bss.select_cb_ctr,"aw",%nobits
 4284              		.align	2
 4285              		.set	.LANCHOR3,. + 0
 4286              		.type	select_cb_ctr, %object
 4287              		.size	select_cb_ctr, 4
 4288              	select_cb_ctr:
 4289 0000 00000000 		.space	4
 4290              		.text
 4291              	.Letext0:
 4292              		.file 2 "/usr/local/summon/lib/gcc/arm-none-eabi/4.6.2/include/stddef.h"
 4293              		.file 3 "/usr/local/summon/lib/gcc/arm-none-eabi/4.6.2/../../../../arm-none-eabi/include/stdint.h"
 4294              		.file 4 "../../os/ports/GCC/ARMCMx/chtypes.h"
 4295              		.file 5 "../../os/kernel/include/chlists.h"
 4296              		.file 6 "../../os/kernel/include/chthreads.h"
 4297              		.file 7 "../../os/ports/GCC/ARMCMx/chcore_v7m.h"
 4298              		.file 8 "../../os/kernel/include/chsem.h"
 4299              		.file 9 "../../os/kernel/include/chmtx.h"
ARM GAS  /var/folders/5n/p_75w94d66l9ssrldxqdhh700000gn/T//cciPPkzE.s 			page 77


 4300              		.file 10 "../../os/kernel/include/chmboxes.h"
 4301              		.file 11 "../../os/various/lwip_bindings/arch/cc.h"
 4302              		.file 12 "../../ext/lwip/src/include/ipv4/lwip/ip_addr.h"
 4303              		.file 13 "../../ext/lwip/src/include/ipv4/lwip/inet.h"
 4304              		.file 14 "../../ext/lwip/src/include/lwip/sockets.h"
 4305              		.file 15 "../../ext/lwip/src/include/lwip/err.h"
 4306              		.file 16 "../../ext/lwip/src/include/lwip/pbuf.h"
 4307              		.file 17 "../../ext/lwip/src/include/lwip/netbuf.h"
 4308              		.file 18 "../../os/various/lwip_bindings/arch/sys_arch.h"
 4309              		.file 19 "../../ext/lwip/src/include/lwip/api.h"
 4310              		.file 20 "../../ext/lwip/src/include/ipv4/lwip/ip.h"
 4311              		.file 21 "../../ext/lwip/src/include/lwip/tcp.h"
 4312              		.file 22 "../../ext/lwip/src/include/lwip/udp.h"
 4313              		.file 23 "../../ext/lwip/src/include/lwip/raw.h"
 4314              		.file 24 "../../ext/lwip/src/include/lwip/api_msg.h"