ARM GAS  /var/folders/5n/p_75w94d66l9ssrldxqdhh700000gn/T//cciPPkzE.s 			page 1


   1              		.syntax unified
   2              		.cpu cortex-m4
   3              		.fpu softvfp
   4              		.eabi_attribute 20, 1
   5              		.eabi_attribute 21, 1
   6              		.eabi_attribute 23, 3
   7              		.eabi_attribute 24, 1
   8              		.eabi_attribute 25, 1
   9              		.eabi_attribute 26, 1
  10              		.eabi_attribute 30, 2
  11              		.eabi_attribute 18, 4
  12              		.thumb
  13              		.file	"sockets.c"
  14              		.text
  15              	.Ltext0:
  16              		.cfi_sections	.debug_frame
  17              		.section	.text.lwip_setsockopt_internal,"ax",%progbits
  18              		.align	2
  19              		.p2align 4,,15
  20              		.thumb
  21              		.thumb_func
  22              		.type	lwip_setsockopt_internal, %function
  23              	lwip_setsockopt_internal:
  24              	.LFB34:
  25              		.file 1 "../../ext/lwip/src/api/sockets.c"
  26              		.loc 1 2051 0
  27              		.cfi_startproc
  28              		@ args = 0, pretend = 0, frame = 8
  29              		@ frame_needed = 0, uses_anonymous_args = 0
  30              	.LVL0:
  31 0000 10B5     		push	{r4, lr}
  32              	.LCFI0:
  33              		.cfi_def_cfa_offset 8
  34              		.cfi_offset 14, -4
  35              		.cfi_offset 4, -8
  36 0002 82B0     		sub	sp, sp, #8
  37              	.LCFI1:
  38              		.cfi_def_cfa_offset 16
  39              		.loc 1 2060 0
  40 0004 0028     		cmp	r0, #0
  41 0006 56D0     		beq	.L25
  42              	.LVL1:
  43              	.L2:
  44              		.loc 1 2071 0
  45 0008 4368     		ldr	r3, [r0, #4]
  46              		.loc 1 2063 0
  47 000a 0468     		ldr	r4, [r0, #0]
  48              	.LVL2:
  49              		.loc 1 2068 0
  50 000c 8268     		ldr	r2, [r0, #8]
  51              	.LVL3:
  52              		.loc 1 2069 0
  53 000e C168     		ldr	r1, [r0, #12]
  54              	.LVL4:
  55              		.loc 1 2071 0
  56 0010 062B     		cmp	r3, #6
  57 0012 29D0     		beq	.L5
ARM GAS  /var/folders/5n/p_75w94d66l9ssrldxqdhh700000gn/T//cciPPkzE.s 			page 2


  58 0014 40F6FF70 		movw	r0, #4095
  59              	.LVL5:
  60 0018 8342     		cmp	r3, r0
  61 001a 13D0     		beq	.L6
  62 001c 43B1     		cbz	r3, .L4
  63              	.LVL6:
  64              	.L20:
  65              		.loc 1 2247 0 discriminator 1
  66 001e FFF7FEFF 		bl	port_halt
  67              	.LVL7:
  68 0022 2068     		ldr	r0, [r4, #0]
  69              	.L11:
  70              		.loc 1 2250 0
  71 0024 0C30     		adds	r0, r0, #12
  72              		.loc 1 2251 0
  73 0026 02B0     		add	sp, sp, #8
  74 0028 BDE81040 		pop	{r4, lr}
  75              		.loc 1 2250 0
  76 002c FFF7FEBF 		b	sys_sem_signal
  77              	.LVL8:
  78              	.L4:
  79              		.loc 1 2123 0
  80 0030 012A     		cmp	r2, #1
  81 0032 30D0     		beq	.L14
  82 0034 022A     		cmp	r2, #2
  83 0036 F2D1     		bne	.L20
  84              		.loc 1 2125 0
  85 0038 2368     		ldr	r3, [r4, #0]
  86              	.LVL9:
  87 003a 0A68     		ldr	r2, [r1, #0]
  88              	.LVL10:
  89 003c 5B68     		ldr	r3, [r3, #4]
  90 003e 9A72     		strb	r2, [r3, #10]
  91 0040 2068     		ldr	r0, [r4, #0]
  92              		.loc 1 2128 0
  93 0042 EFE7     		b	.L11
  94              	.LVL11:
  95              	.L6:
  96              		.loc 1 2075 0
  97 0044 202A     		cmp	r2, #32
  98 0046 05D0     		beq	.L8
  99 0048 41F20A03 		movw	r3, #4106
 100              	.LVL12:
 101 004c 9A42     		cmp	r2, r3
 102 004e 28D0     		beq	.L9
 103 0050 082A     		cmp	r2, #8
 104 0052 E4D1     		bne	.L20
 105              	.L8:
 106              		.loc 1 2088 0
 107 0054 0B68     		ldr	r3, [r1, #0]
 108 0056 002B     		cmp	r3, #0
 109 0058 3AD0     		beq	.L10
 110              		.loc 1 2089 0
 111 005a 2368     		ldr	r3, [r4, #0]
 112 005c 5B68     		ldr	r3, [r3, #4]
 113 005e 197A     		ldrb	r1, [r3, #8]	@ zero_extendqisi2
 114              	.LVL13:
ARM GAS  /var/folders/5n/p_75w94d66l9ssrldxqdhh700000gn/T//cciPPkzE.s 			page 3


 115 0060 0A43     		orrs	r2, r2, r1
 116              	.LVL14:
 117 0062 1A72     		strb	r2, [r3, #8]
 118 0064 2068     		ldr	r0, [r4, #0]
 119 0066 DDE7     		b	.L11
 120              	.LVL15:
 121              	.L5:
 122              		.loc 1 2177 0
 123 0068 012A     		cmp	r2, #1
 124 006a 07D0     		beq	.L17
 125 006c 022A     		cmp	r2, #2
 126 006e D6D1     		bne	.L20
 127              		.loc 1 2188 0
 128 0070 2068     		ldr	r0, [r4, #0]
 129              	.LVL16:
 130 0072 0A68     		ldr	r2, [r1, #0]
 131              	.LVL17:
 132 0074 4368     		ldr	r3, [r0, #4]
 133              	.LVL18:
 134 0076 C3F89820 		str	r2, [r3, #152]
 135              		.loc 1 2191 0
 136 007a D3E7     		b	.L11
 137              	.LVL19:
 138              	.L17:
 139              		.loc 1 2179 0
 140 007c 0B68     		ldr	r3, [r1, #0]
 141              	.LVL20:
 142 007e 002B     		cmp	r3, #0
 143 0080 2ED0     		beq	.L19
 144              		.loc 1 2180 0
 145 0082 2368     		ldr	r3, [r4, #0]
 146 0084 5B68     		ldr	r3, [r3, #4]
 147 0086 93F82020 		ldrb	r2, [r3, #32]	@ zero_extendqisi2
 148              	.LVL21:
 149 008a 42F04002 		orr	r2, r2, #64
 150 008e 83F82020 		strb	r2, [r3, #32]
 151 0092 2068     		ldr	r0, [r4, #0]
 152              	.LVL22:
 153 0094 C6E7     		b	.L11
 154              	.LVL23:
 155              	.L14:
 156              		.loc 1 2130 0
 157 0096 2368     		ldr	r3, [r4, #0]
 158              	.LVL24:
 159 0098 0A68     		ldr	r2, [r1, #0]
 160              	.LVL25:
 161 009a 5B68     		ldr	r3, [r3, #4]
 162 009c 5A72     		strb	r2, [r3, #9]
 163 009e 2068     		ldr	r0, [r4, #0]
 164              		.loc 1 2133 0
 165 00a0 C0E7     		b	.L11
 166              	.LVL26:
 167              	.L9:
 168              		.loc 1 2108 0
 169 00a2 0B68     		ldr	r3, [r1, #0]
 170 00a4 63B1     		cbz	r3, .L12
 171              		.loc 1 2109 0
ARM GAS  /var/folders/5n/p_75w94d66l9ssrldxqdhh700000gn/T//cciPPkzE.s 			page 4


 172 00a6 2368     		ldr	r3, [r4, #0]
 173 00a8 5B68     		ldr	r3, [r3, #4]
 174 00aa 1A7C     		ldrb	r2, [r3, #16]	@ zero_extendqisi2
 175              	.LVL27:
 176 00ac 42F00102 		orr	r2, r2, #1
 177 00b0 1A74     		strb	r2, [r3, #16]
 178 00b2 2068     		ldr	r0, [r4, #0]
 179 00b4 B6E7     		b	.L11
 180              	.LVL28:
 181              	.L25:
 182              		.loc 1 2060 0 discriminator 1
 183 00b6 0190     		str	r0, [sp, #4]
 184 00b8 FFF7FEFF 		bl	port_halt
 185              	.LVL29:
 186 00bc 0198     		ldr	r0, [sp, #4]
 187 00be A3E7     		b	.L2
 188              	.LVL30:
 189              	.L12:
 190              		.loc 1 2111 0
 191 00c0 2368     		ldr	r3, [r4, #0]
 192 00c2 5B68     		ldr	r3, [r3, #4]
 193 00c4 1A7C     		ldrb	r2, [r3, #16]	@ zero_extendqisi2
 194              	.LVL31:
 195 00c6 22F00102 		bic	r2, r2, #1
 196 00ca 1A74     		strb	r2, [r3, #16]
 197 00cc 2068     		ldr	r0, [r4, #0]
 198 00ce A9E7     		b	.L11
 199              	.LVL32:
 200              	.L10:
 201              		.loc 1 2091 0
 202 00d0 2368     		ldr	r3, [r4, #0]
 203 00d2 5B68     		ldr	r3, [r3, #4]
 204 00d4 197A     		ldrb	r1, [r3, #8]	@ zero_extendqisi2
 205              	.LVL33:
 206 00d6 21EA0202 		bic	r2, r1, r2
 207              	.LVL34:
 208 00da 1A72     		strb	r2, [r3, #8]
 209 00dc 2068     		ldr	r0, [r4, #0]
 210 00de A1E7     		b	.L11
 211              	.LVL35:
 212              	.L19:
 213              		.loc 1 2182 0
 214 00e0 2368     		ldr	r3, [r4, #0]
 215 00e2 5B68     		ldr	r3, [r3, #4]
 216 00e4 93F82020 		ldrb	r2, [r3, #32]	@ zero_extendqisi2
 217              	.LVL36:
 218 00e8 22F04002 		bic	r2, r2, #64
 219 00ec 83F82020 		strb	r2, [r3, #32]
 220 00f0 2068     		ldr	r0, [r4, #0]
 221              	.LVL37:
 222 00f2 97E7     		b	.L11
 223              		.cfi_endproc
 224              	.LFE34:
 225              		.size	lwip_setsockopt_internal, .-lwip_setsockopt_internal
 226 00f4 AFF30080 		.section	.text.lwip_getsockopt_internal,"ax",%progbits
 226      AFF30080 
 226      AFF30080 
ARM GAS  /var/folders/5n/p_75w94d66l9ssrldxqdhh700000gn/T//cciPPkzE.s 			page 5


 227              		.align	2
 228              		.p2align 4,,15
 229              		.thumb
 230              		.thumb_func
 231              		.type	lwip_getsockopt_internal, %function
 232              	lwip_getsockopt_internal:
 233              	.LFB32:
 234              		.loc 1 1641 0
 235              		.cfi_startproc
 236              		@ args = 0, pretend = 0, frame = 8
 237              		@ frame_needed = 0, uses_anonymous_args = 0
 238              	.LVL38:
 239 0000 10B5     		push	{r4, lr}
 240              	.LCFI2:
 241              		.cfi_def_cfa_offset 8
 242              		.cfi_offset 14, -4
 243              		.cfi_offset 4, -8
 244 0002 82B0     		sub	sp, sp, #8
 245              	.LCFI3:
 246              		.cfi_def_cfa_offset 16
 247              		.loc 1 1650 0
 248 0004 0028     		cmp	r0, #0
 249 0006 66D0     		beq	.L57
 250              	.LVL39:
 251              	.L27:
 252              		.loc 1 1661 0
 253 0008 4368     		ldr	r3, [r0, #4]
 254              		.loc 1 1653 0
 255 000a 0468     		ldr	r4, [r0, #0]
 256              	.LVL40:
 257              		.loc 1 1658 0
 258 000c 8268     		ldr	r2, [r0, #8]
 259              	.LVL41:
 260              		.loc 1 1659 0
 261 000e C168     		ldr	r1, [r0, #12]
 262              	.LVL42:
 263              		.loc 1 1661 0
 264 0010 062B     		cmp	r3, #6
 265 0012 23D0     		beq	.L30
 266 0014 40F6FF70 		movw	r0, #4095
 267              	.LVL43:
 268 0018 8342     		cmp	r3, r0
 269 001a 12D0     		beq	.L31
 270 001c 43B1     		cbz	r3, .L29
 271              	.LVL44:
 272              	.L53:
 273              		.loc 1 1836 0 discriminator 1
 274 001e FFF7FEFF 		bl	port_halt
 275              	.LVL45:
 276 0022 2068     		ldr	r0, [r4, #0]
 277              	.L38:
 278              		.loc 1 1839 0
 279 0024 0C30     		adds	r0, r0, #12
 280              		.loc 1 1840 0
 281 0026 02B0     		add	sp, sp, #8
 282 0028 BDE81040 		pop	{r4, lr}
 283              		.loc 1 1839 0
ARM GAS  /var/folders/5n/p_75w94d66l9ssrldxqdhh700000gn/T//cciPPkzE.s 			page 6


 284 002c FFF7FEBF 		b	sys_sem_signal
 285              	.LVL46:
 286              	.L29:
 287              		.loc 1 1739 0
 288 0030 012A     		cmp	r2, #1
 289 0032 25D0     		beq	.L47
 290 0034 022A     		cmp	r2, #2
 291 0036 F2D1     		bne	.L53
 292              		.loc 1 1741 0
 293 0038 2068     		ldr	r0, [r4, #0]
 294 003a 4368     		ldr	r3, [r0, #4]
 295              	.LVL47:
 296 003c 9B7A     		ldrb	r3, [r3, #10]	@ zero_extendqisi2
 297 003e 0B60     		str	r3, [r1, #0]
 298              		.loc 1 1744 0
 299 0040 F0E7     		b	.L38
 300              	.LVL48:
 301              	.L31:
 302              		.loc 1 1665 0
 303 0042 202A     		cmp	r2, #32
 304 0044 04D0     		beq	.L33
 305 0046 20DC     		bgt	.L37
 306 0048 022A     		cmp	r2, #2
 307 004a 01D0     		beq	.L33
 308 004c 082A     		cmp	r2, #8
 309 004e E6D1     		bne	.L53
 310              	.L33:
 311              		.loc 1 1679 0
 312 0050 2068     		ldr	r0, [r4, #0]
 313 0052 4368     		ldr	r3, [r0, #4]
 314              	.LVL49:
 315 0054 1B7A     		ldrb	r3, [r3, #8]	@ zero_extendqisi2
 316 0056 1A40     		ands	r2, r2, r3
 317              	.LVL50:
 318 0058 0A60     		str	r2, [r1, #0]
 319              		.loc 1 1682 0
 320 005a E3E7     		b	.L38
 321              	.LVL51:
 322              	.L30:
 323              		.loc 1 1780 0
 324 005c 012A     		cmp	r2, #1
 325 005e 07D0     		beq	.L50
 326 0060 022A     		cmp	r2, #2
 327 0062 DCD1     		bne	.L53
 328              		.loc 1 1787 0
 329 0064 2068     		ldr	r0, [r4, #0]
 330              	.LVL52:
 331 0066 4368     		ldr	r3, [r0, #4]
 332              	.LVL53:
 333 0068 D3F89830 		ldr	r3, [r3, #152]
 334 006c 0B60     		str	r3, [r1, #0]
 335              		.loc 1 1790 0
 336 006e D9E7     		b	.L38
 337              	.LVL54:
 338              	.L50:
 339              		.loc 1 1782 0
 340 0070 2068     		ldr	r0, [r4, #0]
ARM GAS  /var/folders/5n/p_75w94d66l9ssrldxqdhh700000gn/T//cciPPkzE.s 			page 7


 341              	.LVL55:
 342 0072 4368     		ldr	r3, [r0, #4]
 343              	.LVL56:
 344 0074 93F82030 		ldrb	r3, [r3, #32]	@ zero_extendqisi2
 345 0078 C3F38013 		ubfx	r3, r3, #6, #1
 346 007c 0B60     		str	r3, [r1, #0]
 347              		.loc 1 1785 0
 348 007e D1E7     		b	.L38
 349              	.LVL57:
 350              	.L47:
 351              		.loc 1 1746 0
 352 0080 2068     		ldr	r0, [r4, #0]
 353 0082 4368     		ldr	r3, [r0, #4]
 354              	.LVL58:
 355 0084 5B7A     		ldrb	r3, [r3, #9]	@ zero_extendqisi2
 356 0086 0B60     		str	r3, [r1, #0]
 357              		.loc 1 1749 0
 358 0088 CCE7     		b	.L38
 359              	.LVL59:
 360              	.L37:
 361              		.loc 1 1665 0
 362 008a 41F20803 		movw	r3, #4104
 363              	.LVL60:
 364 008e 9A42     		cmp	r2, r3
 365 0090 26D0     		beq	.L35
 366 0092 0233     		adds	r3, r3, #2
 367 0094 9A42     		cmp	r2, r3
 368 0096 17D0     		beq	.L36
 369 0098 41F20703 		movw	r3, #4103
 370 009c 9A42     		cmp	r2, r3
 371 009e BED1     		bne	.L53
 372              		.loc 1 1707 0
 373 00a0 2369     		ldr	r3, [r4, #16]
 374              		.loc 1 1708 0
 375 00a2 2068     		ldr	r0, [r4, #0]
 376              		.loc 1 1707 0
 377 00a4 002B     		cmp	r3, #0
 378 00a6 18BF     		it	ne
 379 00a8 732B     		cmpne	r3, #115
 380 00aa 09D1     		bne	.L44
 381              		.loc 1 1708 0
 382 00ac 90F90830 		ldrsb	r3, [r0, #8]
 383 00b0 5B42     		negs	r3, r3
 384 00b2 0F2B     		cmp	r3, #15
 385 00b4 9ABF     		itte	ls
 386 00b6 154A     		ldrls	r2, .L58
 387              	.LVL61:
 388 00b8 52F82330 		ldrls	r3, [r2, r3, lsl #2]
 389 00bc 0523     		movhi	r3, #5
 390 00be 2361     		str	r3, [r4, #16]
 391              	.L44:
 392              		.loc 1 1710 0
 393 00c0 0B60     		str	r3, [r1, #0]
 394              		.loc 1 1711 0
 395 00c2 0023     		movs	r3, #0
 396 00c4 2361     		str	r3, [r4, #16]
 397              		.loc 1 1714 0
ARM GAS  /var/folders/5n/p_75w94d66l9ssrldxqdhh700000gn/T//cciPPkzE.s 			page 8


 398 00c6 ADE7     		b	.L38
 399              	.LVL62:
 400              	.L36:
 401              		.loc 1 1728 0
 402 00c8 2068     		ldr	r0, [r4, #0]
 403 00ca 4368     		ldr	r3, [r0, #4]
 404 00cc 1B7C     		ldrb	r3, [r3, #16]	@ zero_extendqisi2
 405 00ce 03F00103 		and	r3, r3, #1
 406 00d2 0B60     		str	r3, [r1, #0]
 407              		.loc 1 1729 0
 408 00d4 A6E7     		b	.L38
 409              	.LVL63:
 410              	.L57:
 411              		.loc 1 1650 0 discriminator 1
 412 00d6 0190     		str	r0, [sp, #4]
 413 00d8 FFF7FEFF 		bl	port_halt
 414              	.LVL64:
 415 00dc 0198     		ldr	r0, [sp, #4]
 416 00de 93E7     		b	.L27
 417              	.LVL65:
 418              	.L35:
 419              		.loc 1 1685 0
 420 00e0 2068     		ldr	r0, [r4, #0]
 421 00e2 0278     		ldrb	r2, [r0, #0]	@ zero_extendqisi2
 422              	.LVL66:
 423 00e4 02F0F003 		and	r3, r2, #240
 424 00e8 202B     		cmp	r3, #32
 425 00ea 08D0     		beq	.L41
 426 00ec 402B     		cmp	r3, #64
 427 00ee 09D0     		beq	.L42
 428 00f0 102B     		cmp	r3, #16
 429              		.loc 1 1696 0
 430 00f2 18BF     		it	ne
 431 00f4 0A60     		strne	r2, [r1, #0]
 432              		.loc 1 1685 0
 433 00f6 95D1     		bne	.L38
 434              		.loc 1 1690 0
 435 00f8 0123     		movs	r3, #1
 436 00fa 0B60     		str	r3, [r1, #0]
 437              		.loc 1 1691 0
 438 00fc 92E7     		b	.L38
 439              	.L41:
 440              		.loc 1 1693 0
 441 00fe 0223     		movs	r3, #2
 442 0100 0B60     		str	r3, [r1, #0]
 443              		.loc 1 1694 0
 444 0102 8FE7     		b	.L38
 445              	.L42:
 446              		.loc 1 1687 0
 447 0104 0323     		movs	r3, #3
 448 0106 0B60     		str	r3, [r1, #0]
 449              		.loc 1 1688 0
 450 0108 8CE7     		b	.L38
 451              	.L59:
 452 010a 00BF     		.align	2
 453              	.L58:
 454 010c 00000000 		.word	.LANCHOR0
ARM GAS  /var/folders/5n/p_75w94d66l9ssrldxqdhh700000gn/T//cciPPkzE.s 			page 9


 455              		.cfi_endproc
 456              	.LFE32:
 457              		.size	lwip_getsockopt_internal, .-lwip_getsockopt_internal
 458              		.section	.text.event_callback,"ax",%progbits
 459              		.align	2
 460              		.p2align 4,,15
 461              		.thumb
 462              		.thumb_func
 463              		.type	event_callback, %function
 464              	event_callback:
 465              	.LFB26:
 466              		.loc 1 1235 0
 467              		.cfi_startproc
 468              		@ args = 0, pretend = 0, frame = 0
 469              		@ frame_needed = 0, uses_anonymous_args = 0
 470              	.LVL67:
 471 0000 2DE9F047 		push	{r4, r5, r6, r7, r8, r9, sl, lr}
 472              	.LCFI4:
 473              		.cfi_def_cfa_offset 32
 474              		.cfi_offset 14, -4
 475              		.cfi_offset 10, -8
 476              		.cfi_offset 9, -12
 477              		.cfi_offset 8, -16
 478              		.cfi_offset 7, -20
 479              		.cfi_offset 6, -24
 480              		.cfi_offset 5, -28
 481              		.cfi_offset 4, -32
 482              		.loc 1 1245 0
 483 0004 B8B1     		cbz	r0, .L60
 484              		.loc 1 1246 0
 485 0006 D0F81880 		ldr	r8, [r0, #24]
 486              	.LVL68:
 487              		.loc 1 1247 0
 488 000a B8F1000F 		cmp	r8, #0
 489 000e 10DB     		blt	.L84
 490              	.LVL69:
 491              	.LBB51:
 492              	.LBB52:
 493              		.loc 1 199 0
 494 0010 B8F1030F 		cmp	r8, #3
 495 0014 0FD8     		bhi	.L60
 496              		.loc 1 205 0
 497 0016 08EB4803 		add	r3, r8, r8, lsl #1
 498 001a 364A     		ldr	r2, .L88
 499              	.LVL70:
 500 001c DB00     		lsls	r3, r3, #3
 501 001e D618     		adds	r6, r2, r3
 502              	.LVL71:
 503              		.loc 1 207 0
 504 0020 D358     		ldr	r3, [r2, r3]
 505 0022 43B1     		cbz	r3, .L60
 506              	.LBE52:
 507              	.LBE51:
 508              		.loc 1 1275 0
 509 0024 0429     		cmp	r1, #4
 510 0026 5BD8     		bhi	.L63
 511 0028 DFE801F0 		tbb	[pc, r1]
ARM GAS  /var/folders/5n/p_75w94d66l9ssrldxqdhh700000gn/T//cciPPkzE.s 			page 10


 512              	.L69:
 513 002c 50       		.byte	(.L64-.L69)/2
 514 002d 4C       		.byte	(.L65-.L69)/2
 515 002e 57       		.byte	(.L66-.L69)/2
 516 002f 54       		.byte	(.L67-.L69)/2
 517 0030 07       		.byte	(.L68-.L69)/2
 518 0031 00       		.align	1
 519              	.LVL72:
 520              	.L84:
 521              		.loc 1 1255 0
 522 0032 0029     		cmp	r1, #0
 523 0034 59D0     		beq	.L85
 524              	.LVL73:
 525              	.L60:
 526 0036 BDE8F087 		pop	{r4, r5, r6, r7, r8, r9, sl, pc}
 527              	.LVL74:
 528              	.L68:
 529              		.loc 1 1289 0
 530 003a 0123     		movs	r3, #1
 531 003c F381     		strh	r3, [r6, #14]	@ movhi
 532              	.LVL75:
 533              	.L70:
 534              		.loc 1 1296 0
 535 003e 7369     		ldr	r3, [r6, #20]
 536 0040 002B     		cmp	r3, #0
 537 0042 F8D0     		beq	.L60
 538 0044 4FF00109 		mov	r9, #1
 539 0048 2B4F     		ldr	r7, .L88+4
 540 004a 2C4D     		ldr	r5, .L88+8
 541 004c 09FA08FA 		lsl	sl, r9, r8
 542 0050 10E0     		b	.L76
 543              	.LVL76:
 544              	.L87:
 545              	.LBB53:
 546              		.loc 1 1325 0
 547 0052 2BB9     		cbnz	r3, .L75
 548              		.loc 1 1325 0 is_stmt 0 discriminator 1
 549 0054 2369     		ldr	r3, [r4, #16]
 550              	.LVL77:
 551 0056 4BB1     		cbz	r3, .L71
 552 0058 1B78     		ldrb	r3, [r3, #0]	@ zero_extendqisi2
 553 005a 13EA0A0F 		tst	r3, sl
 554 005e 05D0     		beq	.L71
 555              	.L75:
 556              		.loc 1 1330 0 is_stmt 1
 557 0060 C4F81490 		str	r9, [r4, #20]
 558              		.loc 1 1333 0
 559 0064 04F11800 		add	r0, r4, #24
 560 0068 FFF7FEFF 		bl	sys_sem_signal
 561              	.L71:
 562              	.LBE53:
 563              		.loc 1 1337 0
 564 006c 2A68     		ldr	r2, [r5, #0]
 565              	.LVL78:
 566              		.loc 1 1341 0
 567 006e 2B68     		ldr	r3, [r5, #0]
 568 0070 9A42     		cmp	r2, r3
ARM GAS  /var/folders/5n/p_75w94d66l9ssrldxqdhh700000gn/T//cciPPkzE.s 			page 11


 569 0072 23D0     		beq	.L86
 570              	.LVL79:
 571              	.L76:
 572              		.loc 1 1309 0
 573 0074 3C68     		ldr	r4, [r7, #0]
 574              	.LVL80:
 575 0076 002C     		cmp	r4, #0
 576 0078 DDD0     		beq	.L60
 577              	.LVL81:
 578              	.L77:
 579              		.loc 1 1310 0
 580 007a 6369     		ldr	r3, [r4, #20]
 581 007c 002B     		cmp	r3, #0
 582 007e F5D1     		bne	.L71
 583              	.LVL82:
 584              	.LBB54:
 585              		.loc 1 1314 0
 586 0080 B6F90A20 		ldrsh	r2, [r6, #10]
 587 0084 002A     		cmp	r2, #0
 588 0086 06DD     		ble	.L72
 589              		.loc 1 1315 0
 590 0088 A368     		ldr	r3, [r4, #8]
 591 008a 23B1     		cbz	r3, .L72
 592              		.loc 1 1315 0 is_stmt 0 discriminator 1
 593 008c 1B78     		ldrb	r3, [r3, #0]	@ zero_extendqisi2
 594 008e 43FA08F3 		asr	r3, r3, r8
 595 0092 03F00103 		and	r3, r3, #1
 596              	.L72:
 597              	.LVL83:
 598              		.loc 1 1319 0 is_stmt 1
 599 0096 B289     		ldrh	r2, [r6, #12]
 600 0098 3AB1     		cbz	r2, .L73
 601              		.loc 1 1320 0
 602 009a 23BB     		cbnz	r3, .L80
 603              		.loc 1 1320 0 is_stmt 0 discriminator 1
 604 009c E268     		ldr	r2, [r4, #12]
 605 009e 22B1     		cbz	r2, .L73
 606 00a0 1378     		ldrb	r3, [r2, #0]	@ zero_extendqisi2
 607              	.LVL84:
 608 00a2 43FA08F3 		asr	r3, r3, r8
 609 00a6 03F00103 		and	r3, r3, #1
 610              	.L73:
 611              	.LVL85:
 612              		.loc 1 1324 0 is_stmt 1
 613 00aa F289     		ldrh	r2, [r6, #14]
 614 00ac 002A     		cmp	r2, #0
 615 00ae D0D1     		bne	.L87
 616              		.loc 1 1329 0
 617 00b0 002B     		cmp	r3, #0
 618 00b2 D5D1     		bne	.L75
 619              	.LBE54:
 620              		.loc 1 1337 0
 621 00b4 2A68     		ldr	r2, [r5, #0]
 622              	.LVL86:
 623              		.loc 1 1341 0
 624 00b6 2B68     		ldr	r3, [r5, #0]
 625              	.LVL87:
ARM GAS  /var/folders/5n/p_75w94d66l9ssrldxqdhh700000gn/T//cciPPkzE.s 			page 12


 626 00b8 9A42     		cmp	r2, r3
 627 00ba DBD1     		bne	.L76
 628              	.L86:
 629              		.loc 1 1309 0
 630 00bc 2468     		ldr	r4, [r4, #0]
 631              	.LVL88:
 632 00be 002C     		cmp	r4, #0
 633 00c0 DBD1     		bne	.L77
 634 00c2 B8E7     		b	.L60
 635              	.LVL89:
 636              	.L65:
 637              		.loc 1 1280 0
 638 00c4 7389     		ldrh	r3, [r6, #10]
 639 00c6 013B     		subs	r3, r3, #1
 640 00c8 7381     		strh	r3, [r6, #10]	@ movhi
 641              		.loc 1 1281 0
 642 00ca B8E7     		b	.L70
 643              	.L64:
 644              		.loc 1 1277 0
 645 00cc 7389     		ldrh	r3, [r6, #10]
 646 00ce 0133     		adds	r3, r3, #1
 647 00d0 7381     		strh	r3, [r6, #10]	@ movhi
 648              		.loc 1 1278 0
 649 00d2 B4E7     		b	.L70
 650              	.L67:
 651              		.loc 1 1286 0
 652 00d4 0023     		movs	r3, #0
 653 00d6 B381     		strh	r3, [r6, #12]	@ movhi
 654              		.loc 1 1287 0
 655 00d8 B1E7     		b	.L70
 656              	.L66:
 657              		.loc 1 1283 0
 658 00da 0123     		movs	r3, #1
 659 00dc B381     		strh	r3, [r6, #12]	@ movhi
 660              		.loc 1 1284 0
 661 00de AEE7     		b	.L70
 662              	.L63:
 663              		.loc 1 1292 0 discriminator 1
 664 00e0 FFF7FEFF 		bl	port_halt
 665              	.LVL90:
 666              		.loc 1 1293 0 discriminator 1
 667 00e4 ABE7     		b	.L70
 668              	.LVL91:
 669              	.L80:
 670              	.LBB55:
 671              		.loc 1 1320 0
 672 00e6 0123     		movs	r3, #1
 673              	.LVL92:
 674 00e8 DFE7     		b	.L73
 675              	.LVL93:
 676              	.L85:
 677              	.LBE55:
 678              		.loc 1 1256 0
 679 00ea 08F1FF33 		add	r3, r8, #-1
 680 00ee 8361     		str	r3, [r0, #24]
 681 00f0 BDE8F087 		pop	{r4, r5, r6, r7, r8, r9, sl, pc}
 682              	.L89:
ARM GAS  /var/folders/5n/p_75w94d66l9ssrldxqdhh700000gn/T//cciPPkzE.s 			page 13


 683              		.align	2
 684              	.L88:
 685 00f4 00000000 		.word	.LANCHOR1
 686 00f8 00000000 		.word	.LANCHOR2
 687 00fc 00000000 		.word	.LANCHOR3
 688              		.cfi_endproc
 689              	.LFE26:
 690              		.size	event_callback, .-event_callback
 691              		.section	.text.lwip_selscan,"ax",%progbits
 692              		.align	2
 693              		.p2align 4,,15
 694              		.thumb
 695              		.thumb_func
 696              		.type	lwip_selscan, %function
 697              	lwip_selscan:
 698              	.LFB24:
 699              		.loc 1 1015 0
 700              		.cfi_startproc
 701              		@ args = 12, pretend = 0, frame = 24
 702              		@ frame_needed = 0, uses_anonymous_args = 0
 703              		@ link register save eliminated.
 704              	.LVL94:
 705 0000 2DE9F00F 		push	{r4, r5, r6, r7, r8, r9, sl, fp}
 706              	.LCFI5:
 707              		.cfi_def_cfa_offset 32
 708              		.cfi_offset 11, -4
 709              		.cfi_offset 10, -8
 710              		.cfi_offset 9, -12
 711              		.cfi_offset 8, -16
 712              		.cfi_offset 7, -20
 713              		.cfi_offset 6, -24
 714              		.cfi_offset 5, -28
 715              		.cfi_offset 4, -32
 716 0004 86B0     		sub	sp, sp, #24
 717              	.LCFI6:
 718              		.cfi_def_cfa_offset 56
 719              		.loc 1 1021 0
 720 0006 0026     		movs	r6, #0
 721              		.loc 1 1027 0
 722 0008 0028     		cmp	r0, #0
 723 000a 0190     		str	r0, [sp, #4]
 724              		.loc 1 1021 0
 725 000c 8DF80C60 		strb	r6, [sp, #12]
 726              		.loc 1 1022 0
 727 0010 8DF81060 		strb	r6, [sp, #16]
 728              		.loc 1 1023 0
 729 0014 8DF81460 		strb	r6, [sp, #20]
 730              	.LVL95:
 731              		.loc 1 1027 0
 732 0018 3046     		mov	r0, r6
 733              	.LVL96:
 734 001a 7BDD     		ble	.L91
 735 001c 3446     		mov	r4, r6
 736              	.LVL97:
 737              	.L96:
 738              	.LBB56:
 739              	.LBB57:
ARM GAS  /var/folders/5n/p_75w94d66l9ssrldxqdhh700000gn/T//cciPPkzE.s 			page 14


 740              	.LBB58:
 741              		.loc 1 225 0
 742 001e 032C     		cmp	r4, #3
 743 0020 00F28880 		bhi	.L98
 744              		.loc 1 228 0
 745 0024 40F20007 		movw	r7, #:lower16:.LANCHOR1
 746 0028 C0F20007 		movt	r7, #:upper16:.LANCHOR1
 747 002c F559     		ldr	r5, [r6, r7]
 748              		.loc 1 1030 0
 749 002e A846     		mov	r8, r5
 750              		.loc 1 1029 0
 751 0030 AA46     		mov	sl, r5
 752              		.loc 1 1028 0
 753 0032 AB46     		mov	fp, r5
 754              		.loc 1 228 0
 755 0034 55B1     		cbz	r5, .L92
 756              		.loc 1 231 0
 757 0036 04EB4405 		add	r5, r4, r4, lsl #1
 758 003a 07EBC505 		add	r5, r7, r5, lsl #3
 759              	.LBE58:
 760              	.LBE57:
 761              		.loc 1 1036 0
 762 003e D5F804B0 		ldr	fp, [r5, #4]
 763              	.LVL98:
 764              		.loc 1 1037 0
 765 0042 B5F80AA0 		ldrh	sl, [r5, #10]
 766              	.LVL99:
 767              		.loc 1 1038 0
 768 0046 B5F80C80 		ldrh	r8, [r5, #12]
 769              	.LVL100:
 770              		.loc 1 1039 0
 771 004a ED89     		ldrh	r5, [r5, #14]
 772              	.LVL101:
 773              	.L92:
 774              		.loc 1 1044 0
 775 004c 01B3     		cbz	r1, .L93
 776              		.loc 1 1044 0 is_stmt 0 discriminator 1
 777 004e 4FEAE40C 		asr	ip, r4, #3
 778 0052 04F00707 		and	r7, r4, #7
 779 0056 11F80C90 		ldrb	r9, [r1, ip]	@ zero_extendqisi2
 780 005a 49FA07F9 		asr	r9, r9, r7
 781 005e 19F0010F 		tst	r9, #1
 782 0062 15D0     		beq	.L93
 783 0064 0FFA8AFA 		sxth	sl, sl
 784              	.LVL102:
 785 0068 BAF1000F 		cmp	sl, #0
 786 006c D8BF     		it	le
 787 006e BBF1000F 		cmple	fp, #0
 788 0072 0DD0     		beq	.L93
 789              		.loc 1 1045 0 is_stmt 1
 790 0074 0DF11809 		add	r9, sp, #24
 791 0078 CC44     		add	ip, r9, ip
 792 007a 4FF00109 		mov	r9, #1
 793 007e 09FA07F7 		lsl	r7, r9, r7
 794 0082 1CF80C9C 		ldrb	r9, [ip, #-12]	@ zero_extendqisi2
 795 0086 47EA0907 		orr	r7, r7, r9
 796 008a 0CF80C7C 		strb	r7, [ip, #-12]
ARM GAS  /var/folders/5n/p_75w94d66l9ssrldxqdhh700000gn/T//cciPPkzE.s 			page 15


 797              		.loc 1 1047 0
 798 008e 0130     		adds	r0, r0, #1
 799              	.LVL103:
 800              	.L93:
 801              		.loc 1 1050 0
 802 0090 FAB1     		cbz	r2, .L94
 803              		.loc 1 1050 0 is_stmt 0 discriminator 1
 804 0092 4FEAE40C 		asr	ip, r4, #3
 805 0096 04F00707 		and	r7, r4, #7
 806 009a 12F80C90 		ldrb	r9, [r2, ip]	@ zero_extendqisi2
 807 009e 49FA07F9 		asr	r9, r9, r7
 808 00a2 B8F1000F 		cmp	r8, #0
 809 00a6 0CBF     		ite	eq
 810 00a8 4FF00008 		moveq	r8, #0
 811 00ac 09F00108 		andne	r8, r9, #1
 812              	.LVL104:
 813 00b0 B8F1000F 		cmp	r8, #0
 814 00b4 0DD0     		beq	.L94
 815              		.loc 1 1051 0 is_stmt 1
 816 00b6 0DF11808 		add	r8, sp, #24
 817 00ba C444     		add	ip, r8, ip
 818 00bc 4FF00109 		mov	r9, #1
 819 00c0 1CF8088C 		ldrb	r8, [ip, #-8]	@ zero_extendqisi2
 820 00c4 09FA07F7 		lsl	r7, r9, r7
 821 00c8 47EA0807 		orr	r7, r7, r8
 822 00cc 0CF8087C 		strb	r7, [ip, #-8]
 823              		.loc 1 1053 0
 824 00d0 4844     		add	r0, r0, r9
 825              	.LVL105:
 826              	.L94:
 827              		.loc 1 1056 0
 828 00d2 CBB1     		cbz	r3, .L95
 829              		.loc 1 1056 0 is_stmt 0 discriminator 1
 830 00d4 4FEAE40C 		asr	ip, r4, #3
 831 00d8 04F00707 		and	r7, r4, #7
 832 00dc 13F80C80 		ldrb	r8, [r3, ip]	@ zero_extendqisi2
 833 00e0 48FA07F8 		asr	r8, r8, r7
 834 00e4 002D     		cmp	r5, #0
 835 00e6 0CBF     		ite	eq
 836 00e8 0025     		moveq	r5, #0
 837 00ea 08F00105 		andne	r5, r8, #1
 838              	.LVL106:
 839 00ee 5DB1     		cbz	r5, .L95
 840              		.loc 1 1057 0 is_stmt 1
 841 00f0 06AD     		add	r5, sp, #24
 842 00f2 AC44     		add	ip, r5, ip
 843 00f4 4FF00108 		mov	r8, #1
 844 00f8 1CF8045C 		ldrb	r5, [ip, #-4]	@ zero_extendqisi2
 845 00fc 08FA07F7 		lsl	r7, r8, r7
 846 0100 2F43     		orrs	r7, r7, r5
 847 0102 0CF8047C 		strb	r7, [ip, #-4]
 848              		.loc 1 1059 0
 849 0106 4044     		add	r0, r0, r8
 850              	.LVL107:
 851              	.L95:
 852              	.LBE56:
 853              		.loc 1 1027 0
ARM GAS  /var/folders/5n/p_75w94d66l9ssrldxqdhh700000gn/T//cciPPkzE.s 			page 16


 854 0108 DDF80490 		ldr	r9, [sp, #4]
 855 010c 0134     		adds	r4, r4, #1
 856              	.LVL108:
 857 010e 1836     		adds	r6, r6, #24
 858 0110 4C45     		cmp	r4, r9
 859 0112 84D1     		bne	.L96
 860              	.LVL109:
 861              	.L91:
 862              		.loc 1 1063 0
 863 0114 0E9B     		ldr	r3, [sp, #56]
 864              	.LVL110:
 865 0116 9DF80C40 		ldrb	r4, [sp, #12]	@ zero_extendqisi2
 866              		.loc 1 1064 0
 867 011a 9DF81010 		ldrb	r1, [sp, #16]	@ zero_extendqisi2
 868              	.LVL111:
 869              		.loc 1 1063 0
 870 011e 1C70     		strb	r4, [r3, #0]
 871              		.loc 1 1064 0
 872 0120 0F9B     		ldr	r3, [sp, #60]
 873              		.loc 1 1065 0
 874 0122 9DF81420 		ldrb	r2, [sp, #20]	@ zero_extendqisi2
 875              	.LVL112:
 876              		.loc 1 1064 0
 877 0126 1970     		strb	r1, [r3, #0]
 878              		.loc 1 1065 0
 879 0128 109B     		ldr	r3, [sp, #64]
 880 012a 1A70     		strb	r2, [r3, #0]
 881              		.loc 1 1069 0
 882 012c 06B0     		add	sp, sp, #24
 883 012e BDE8F00F 		pop	{r4, r5, r6, r7, r8, r9, sl, fp}
 884 0132 7047     		bx	lr
 885              	.LVL113:
 886              	.L98:
 887              	.LBB61:
 888              	.LBB60:
 889              	.LBB59:
 890              		.loc 1 1031 0
 891 0134 0025     		movs	r5, #0
 892              		.loc 1 1030 0
 893 0136 A846     		mov	r8, r5
 894              		.loc 1 1029 0
 895 0138 AA46     		mov	sl, r5
 896              		.loc 1 1028 0
 897 013a AB46     		mov	fp, r5
 898 013c 86E7     		b	.L92
 899              	.LBE59:
 900              	.LBE60:
 901              	.LBE61:
 902              		.cfi_endproc
 903              	.LFE24:
 904              		.size	lwip_selscan, .-lwip_selscan
 905 013e 00BF     		.section	.text.lwip_getaddrname,"ax",%progbits
 906              		.align	2
 907              		.p2align 4,,15
 908              		.thumb
 909              		.thumb_func
 910              		.type	lwip_getaddrname, %function
ARM GAS  /var/folders/5n/p_75w94d66l9ssrldxqdhh700000gn/T//cciPPkzE.s 			page 17


 911              	lwip_getaddrname:
 912              	.LFB28:
 913              		.loc 1 1396 0
 914              		.cfi_startproc
 915              		@ args = 0, pretend = 0, frame = 24
 916              		@ frame_needed = 0, uses_anonymous_args = 0
 917              	.LVL114:
 918 0000 F0B5     		push	{r4, r5, r6, r7, lr}
 919              	.LCFI7:
 920              		.cfi_def_cfa_offset 20
 921              		.cfi_offset 14, -4
 922              		.cfi_offset 7, -8
 923              		.cfi_offset 6, -12
 924              		.cfi_offset 5, -16
 925              		.cfi_offset 4, -20
 926              	.LBB62:
 927              	.LBB63:
 928              		.loc 1 199 0
 929 0002 0328     		cmp	r0, #3
 930              	.LBE63:
 931              	.LBE62:
 932              		.loc 1 1396 0
 933 0004 87B0     		sub	sp, sp, #28
 934              	.LCFI8:
 935              		.cfi_def_cfa_offset 48
 936              		.loc 1 1396 0
 937 0006 0E46     		mov	r6, r1
 938 0008 1546     		mov	r5, r2
 939              	.LBB66:
 940              	.LBB64:
 941              		.loc 1 199 0
 942 000a 32D8     		bhi	.L105
 943              		.loc 1 205 0
 944 000c 00EB4000 		add	r0, r0, r0, lsl #1
 945              	.LVL115:
 946 0010 194A     		ldr	r2, .L106
 947              	.LVL116:
 948 0012 C000     		lsls	r0, r0, #3
 949 0014 1718     		adds	r7, r2, r0
 950              	.LVL117:
 951              		.loc 1 207 0
 952 0016 1058     		ldr	r0, [r2, r0]
 953 0018 0028     		cmp	r0, #0
 954 001a 2AD0     		beq	.L105
 955              	.LBE64:
 956              	.LBE66:
 957              		.loc 1 1406 0
 958 001c 4FF0000E 		mov	lr, #0
 959              		.loc 1 1407 0
 960 0020 1024     		movs	r4, #16
 961              		.loc 1 1406 0
 962 0022 CDF804E0 		str	lr, [sp, #4]
 963              		.loc 1 1411 0
 964 0026 05A9     		add	r1, sp, #20
 965              	.LVL118:
 966 0028 0DF10602 		add	r2, sp, #6
 967              		.loc 1 1406 0
ARM GAS  /var/folders/5n/p_75w94d66l9ssrldxqdhh700000gn/T//cciPPkzE.s 			page 18


 968 002c CDF808E0 		str	lr, [sp, #8]
 969 0030 CDF80CE0 		str	lr, [sp, #12]
 970 0034 CDF810E0 		str	lr, [sp, #16]
 971              		.loc 1 1408 0
 972 0038 4FF0020E 		mov	lr, #2
 973 003c 8DF805E0 		strb	lr, [sp, #5]
 974              		.loc 1 1407 0
 975 0040 8DF80440 		strb	r4, [sp, #4]
 976              		.loc 1 1411 0
 977 0044 FFF7FEFF 		bl	netconn_getaddr
 978              	.LVL119:
 979              		.loc 1 1417 0
 980 0048 BDF80600 		ldrh	r0, [sp, #6]
 981 004c FFF7FEFF 		bl	lwip_htons
 982              		.loc 1 1420 0
 983 0050 2A68     		ldr	r2, [r5, #0]
 984              		.loc 1 1418 0
 985 0052 059B     		ldr	r3, [sp, #20]
 986              		.loc 1 1417 0
 987 0054 ADF80600 		strh	r0, [sp, #6]	@ movhi
 988              		.loc 1 1420 0
 989 0058 A242     		cmp	r2, r4
 990              		.loc 1 1421 0
 991 005a 84BF     		itt	hi
 992 005c 2C60     		strhi	r4, [r5, #0]
 993 005e 2246     		movhi	r2, r4
 994              		.loc 1 1424 0
 995 0060 3046     		mov	r0, r6
 996 0062 01A9     		add	r1, sp, #4
 997              		.loc 1 1418 0
 998 0064 0293     		str	r3, [sp, #8]
 999              		.loc 1 1424 0
 1000 0066 FFF7FEFF 		bl	memcpy
 1001              		.loc 1 1425 0
 1002 006a 0020     		movs	r0, #0
 1003 006c 3861     		str	r0, [r7, #16]
 1004              	.LVL120:
 1005              	.L102:
 1006              		.loc 1 1427 0
 1007 006e 07B0     		add	sp, sp, #28
 1008 0070 F0BD     		pop	{r4, r5, r6, r7, pc}
 1009              	.LVL121:
 1010              	.L105:
 1011              	.LBB67:
 1012              	.LBB65:
 1013              		.loc 1 1403 0
 1014 0072 4FF0FF30 		mov	r0, #-1
 1015 0076 FAE7     		b	.L102
 1016              	.L107:
 1017              		.align	2
 1018              	.L106:
 1019 0078 00000000 		.word	.LANCHOR1
 1020              	.LBE65:
 1021              	.LBE67:
 1022              		.cfi_endproc
 1023              	.LFE28:
 1024              		.size	lwip_getaddrname, .-lwip_getaddrname
ARM GAS  /var/folders/5n/p_75w94d66l9ssrldxqdhh700000gn/T//cciPPkzE.s 			page 19


 1025 007c AFF30080 		.section	.text.lwip_socket_init,"ax",%progbits
 1026              		.align	2
 1027              		.p2align 4,,15
 1028              		.global	lwip_socket_init
 1029              		.thumb
 1030              		.thumb_func
 1031              		.type	lwip_socket_init, %function
 1032              	lwip_socket_init:
 1033              	.LFB7:
 1034              		.loc 1 185 0
 1035              		.cfi_startproc
 1036              		@ args = 0, pretend = 0, frame = 0
 1037              		@ frame_needed = 0, uses_anonymous_args = 0
 1038              		@ link register save eliminated.
 1039              		.loc 1 186 0
 1040 0000 7047     		bx	lr
 1041              		.cfi_endproc
 1042              	.LFE7:
 1043              		.size	lwip_socket_init, .-lwip_socket_init
 1044 0002 00BFAFF3 		.section	.text.lwip_accept,"ax",%progbits
 1044      0080AFF3 
 1044      0080AFF3 
 1044      0080
 1045              		.align	2
 1046              		.p2align 4,,15
 1047              		.global	lwip_accept
 1048              		.thumb
 1049              		.thumb_func
 1050              		.type	lwip_accept, %function
 1051              	lwip_accept:
 1052              	.LFB12:
 1053              		.loc 1 313 0
 1054              		.cfi_startproc
 1055              		@ args = 0, pretend = 0, frame = 40
 1056              		@ frame_needed = 0, uses_anonymous_args = 0
 1057              	.LVL122:
 1058 0000 2DE9F043 		push	{r4, r5, r6, r7, r8, r9, lr}
 1059              	.LCFI9:
 1060              		.cfi_def_cfa_offset 28
 1061              		.cfi_offset 14, -4
 1062              		.cfi_offset 9, -8
 1063              		.cfi_offset 8, -12
 1064              		.cfi_offset 7, -16
 1065              		.cfi_offset 6, -20
 1066              		.cfi_offset 5, -24
 1067              		.cfi_offset 4, -28
 1068              	.LBB68:
 1069              	.LBB69:
 1070              		.loc 1 199 0
 1071 0004 0328     		cmp	r0, #3
 1072              	.LBE69:
 1073              	.LBE68:
 1074              		.loc 1 313 0
 1075 0006 8BB0     		sub	sp, sp, #44
 1076              	.LCFI10:
 1077              		.cfi_def_cfa_offset 72
 1078              		.loc 1 313 0
ARM GAS  /var/folders/5n/p_75w94d66l9ssrldxqdhh700000gn/T//cciPPkzE.s 			page 20


 1079 0008 0F46     		mov	r7, r1
 1080 000a 1646     		mov	r6, r2
 1081              	.LBB72:
 1082              	.LBB70:
 1083              		.loc 1 199 0
 1084 000c 59D8     		bhi	.L126
 1085              	.LVL123:
 1086              		.loc 1 205 0
 1087 000e 00EB4000 		add	r0, r0, r0, lsl #1
 1088              	.LVL124:
 1089 0012 504C     		ldr	r4, .L138
 1090 0014 C000     		lsls	r0, r0, #3
 1091 0016 2518     		adds	r5, r4, r0
 1092              	.LVL125:
 1093              		.loc 1 207 0
 1094 0018 2058     		ldr	r0, [r4, r0]
 1095 001a 0028     		cmp	r0, #0
 1096 001c 51D0     		beq	.L126
 1097              	.LBE70:
 1098              	.LBE72:
 1099              		.loc 1 329 0
 1100 001e 037F     		ldrb	r3, [r0, #28]	@ zero_extendqisi2
 1101 0020 9B07     		lsls	r3, r3, #30
 1102 0022 04D5     		bpl	.L111
 1103              		.loc 1 329 0 is_stmt 0 discriminator 1
 1104 0024 B5F90A30 		ldrsh	r3, [r5, #10]
 1105 0028 002B     		cmp	r3, #0
 1106 002a 40F38E80 		ble	.L132
 1107              	.L111:
 1108              		.loc 1 336 0 is_stmt 1
 1109 002e 07A9     		add	r1, sp, #28
 1110              	.LVL126:
 1111 0030 FFF7FEFF 		bl	netconn_accept
 1112              	.LVL127:
 1113              		.loc 1 337 0
 1114 0034 0028     		cmp	r0, #0
 1115 0036 73D1     		bne	.L133
 1116              	.LVL128:
 1117              		.loc 1 342 0
 1118 0038 0798     		ldr	r0, [sp, #28]
 1119              	.LVL129:
 1120 003a 0028     		cmp	r0, #0
 1121 003c 69D0     		beq	.L134
 1122              	.L114:
 1123              		.loc 1 344 0 discriminator 1
 1124 003e 037F     		ldrb	r3, [r0, #28]	@ zero_extendqisi2
 1125 0040 43F00803 		orr	r3, r3, #8
 1126 0044 0377     		strb	r3, [r0, #28]
 1127              		.loc 1 347 0 discriminator 1
 1128 0046 08A9     		add	r1, sp, #32
 1129 0048 0023     		movs	r3, #0
 1130 004a 0DF12602 		add	r2, sp, #38
 1131 004e FFF7FEFF 		bl	netconn_getaddr
 1132              	.LVL130:
 1133              		.loc 1 348 0 discriminator 1
 1134 0052 0346     		mov	r3, r0
 1135 0054 0028     		cmp	r0, #0
ARM GAS  /var/folders/5n/p_75w94d66l9ssrldxqdhh700000gn/T//cciPPkzE.s 			page 21


 1136 0056 6CD1     		bne	.L135
 1137              		.loc 1 358 0
 1138 0058 FFB1     		cbz	r7, .L117
 1139              		.loc 1 359 0
 1140 005a 002E     		cmp	r6, #0
 1141 005c 5DD0     		beq	.L136
 1142              	.LVL131:
 1143              	.L118:
 1144              		.loc 1 360 0
 1145 005e 0023     		movs	r3, #0
 1146              		.loc 1 361 0
 1147 0060 4FF01008 		mov	r8, #16
 1148              		.loc 1 360 0
 1149 0064 0393     		str	r3, [sp, #12]
 1150 0066 0493     		str	r3, [sp, #16]
 1151 0068 0593     		str	r3, [sp, #20]
 1152 006a 0693     		str	r3, [sp, #24]
 1153              	.LVL132:
 1154              		.loc 1 363 0
 1155 006c BDF82600 		ldrh	r0, [sp, #38]
 1156              		.loc 1 361 0
 1157 0070 8DF80C80 		strb	r8, [sp, #12]
 1158              		.loc 1 362 0
 1159 0074 0223     		movs	r3, #2
 1160 0076 8DF80D30 		strb	r3, [sp, #13]
 1161              		.loc 1 363 0
 1162 007a FFF7FEFF 		bl	lwip_htons
 1163              		.loc 1 366 0
 1164 007e 3268     		ldr	r2, [r6, #0]
 1165              		.loc 1 364 0
 1166 0080 089B     		ldr	r3, [sp, #32]
 1167              		.loc 1 363 0
 1168 0082 ADF80E00 		strh	r0, [sp, #14]	@ movhi
 1169              		.loc 1 366 0
 1170 0086 4245     		cmp	r2, r8
 1171              		.loc 1 367 0
 1172 0088 84BF     		itt	hi
 1173 008a C6F80080 		strhi	r8, [r6, #0]
 1174 008e 4246     		movhi	r2, r8
 1175              		.loc 1 369 0
 1176 0090 3846     		mov	r0, r7
 1177 0092 03A9     		add	r1, sp, #12
 1178              		.loc 1 364 0
 1179 0094 0493     		str	r3, [sp, #16]
 1180              		.loc 1 369 0
 1181 0096 FFF7FEFF 		bl	memcpy
 1182              	.L117:
 1183              		.loc 1 372 0
 1184 009a 0023     		movs	r3, #0
 1185 009c 0798     		ldr	r0, [sp, #28]
 1186              	.LVL133:
 1187              		.loc 1 249 0
 1188 009e 1E46     		mov	r6, r3
 1189              	.LVL134:
 1190              	.L123:
 1191              	.LBB73:
 1192              	.LBB74:
ARM GAS  /var/folders/5n/p_75w94d66l9ssrldxqdhh700000gn/T//cciPPkzE.s 			page 22


 1193              		.loc 1 252 0
 1194 00a0 E258     		ldr	r2, [r4, r3]
 1195 00a2 2C49     		ldr	r1, .L138
 1196              		.loc 1 249 0
 1197 00a4 1833     		adds	r3, r3, #24
 1198              		.loc 1 252 0
 1199 00a6 7AB1     		cbz	r2, .L137
 1200              		.loc 1 249 0
 1201 00a8 0136     		adds	r6, r6, #1
 1202              	.LVL135:
 1203 00aa 042E     		cmp	r6, #4
 1204 00ac F8D1     		bne	.L123
 1205              	.LBE74:
 1206              	.LBE73:
 1207              		.loc 1 374 0
 1208 00ae FFF7FEFF 		bl	netconn_delete
 1209              	.LVL136:
 1210              		.loc 1 375 0
 1211 00b2 1723     		movs	r3, #23
 1212              	.LVL137:
 1213              	.L131:
 1214 00b4 2B61     		str	r3, [r5, #16]
 1215              		.loc 1 376 0
 1216 00b6 4FF0FF36 		mov	r6, #-1
 1217              	.LVL138:
 1218              	.L110:
 1219              		.loc 1 398 0
 1220 00ba 3046     		mov	r0, r6
 1221 00bc 0BB0     		add	sp, sp, #44
 1222 00be BDE8F083 		pop	{r4, r5, r6, r7, r8, r9, pc}
 1223              	.LVL139:
 1224              	.L126:
 1225              	.LBB77:
 1226              	.LBB71:
 1227              		.loc 1 326 0
 1228 00c2 4FF0FF36 		mov	r6, #-1
 1229 00c6 F8E7     		b	.L110
 1230              	.LVL140:
 1231              	.L137:
 1232              	.LBE71:
 1233              	.LBE77:
 1234              	.LBB78:
 1235              	.LBB75:
 1236              		.loc 1 253 0
 1237 00c8 7700     		lsls	r7, r6, #1
 1238              	.LVL141:
 1239 00ca 07EB0608 		add	r8, r7, r6
 1240 00ce 4FEAC808 		lsl	r8, r8, #3
 1241 00d2 01EB0803 		add	r3, r1, r8
 1242              	.LBE75:
 1243              	.LBE78:
 1244              		.loc 1 379 0
 1245 00d6 D0F82890 		ldr	r9, [r0, #40]
 1246              	.LBB79:
 1247              	.LBB76:
 1248              		.loc 1 253 0
 1249 00da 41F80800 		str	r0, [r1, r8]
ARM GAS  /var/folders/5n/p_75w94d66l9ssrldxqdhh700000gn/T//cciPPkzE.s 			page 23


 1250              		.loc 1 262 0
 1251 00de 0121     		movs	r1, #1
 1252              		.loc 1 257 0
 1253 00e0 5A60     		str	r2, [r3, #4]
 1254              		.loc 1 258 0
 1255 00e2 1A81     		strh	r2, [r3, #8]	@ movhi
 1256              		.loc 1 259 0
 1257 00e4 5A81     		strh	r2, [r3, #10]	@ movhi
 1258              		.loc 1 262 0
 1259 00e6 9981     		strh	r1, [r3, #12]	@ movhi
 1260              		.loc 1 263 0
 1261 00e8 DA81     		strh	r2, [r3, #14]	@ movhi
 1262              		.loc 1 264 0
 1263 00ea 1A61     		str	r2, [r3, #16]
 1264              		.loc 1 265 0
 1265 00ec 5A61     		str	r2, [r3, #20]
 1266              	.LBE76:
 1267              	.LBE79:
 1268              		.loc 1 379 0
 1269 00ee 1A4B     		ldr	r3, .L138+4
 1270 00f0 9945     		cmp	r9, r3
 1271 00f2 02D0     		beq	.L122
 1272              		.loc 1 379 0 is_stmt 0 discriminator 1
 1273 00f4 FFF7FEFF 		bl	port_halt
 1274              	.LVL142:
 1275 00f8 0798     		ldr	r0, [sp, #28]
 1276              	.L122:
 1277              		.loc 1 380 0 is_stmt 1
 1278 00fa BB19     		adds	r3, r7, r6
 1279 00fc 04EBC304 		add	r4, r4, r3, lsl #3
 1280              	.LVL143:
 1281              		.loc 1 388 0
 1282 0100 8369     		ldr	r3, [r0, #24]
 1283 0102 6289     		ldrh	r2, [r4, #10]
 1284 0104 DB43     		mvns	r3, r3
 1285 0106 9B18     		adds	r3, r3, r2
 1286 0108 6381     		strh	r3, [r4, #10]	@ movhi
 1287              		.loc 1 396 0
 1288 010a 0023     		movs	r3, #0
 1289              		.loc 1 389 0
 1290 010c 8661     		str	r6, [r0, #24]
 1291              		.loc 1 396 0
 1292 010e 2B61     		str	r3, [r5, #16]
 1293              		.loc 1 397 0
 1294 0110 D3E7     		b	.L110
 1295              	.LVL144:
 1296              	.L134:
 1297              		.loc 1 342 0 discriminator 1
 1298 0112 FFF7FEFF 		bl	port_halt
 1299 0116 0798     		ldr	r0, [sp, #28]
 1300 0118 91E7     		b	.L114
 1301              	.LVL145:
 1302              	.L136:
 1303              		.loc 1 359 0 discriminator 1
 1304 011a FFF7FEFF 		bl	port_halt
 1305              	.LVL146:
 1306 011e 9EE7     		b	.L118
ARM GAS  /var/folders/5n/p_75w94d66l9ssrldxqdhh700000gn/T//cciPPkzE.s 			page 24


 1307              	.LVL147:
 1308              	.L133:
 1309              		.loc 1 339 0
 1310 0120 4042     		negs	r0, r0
 1311              	.LVL148:
 1312 0122 0F28     		cmp	r0, #15
 1313 0124 03D8     		bhi	.L128
 1314              		.loc 1 339 0 is_stmt 0 discriminator 1
 1315 0126 0D4B     		ldr	r3, .L138+8
 1316 0128 53F82030 		ldr	r3, [r3, r0, lsl #2]
 1317 012c C2E7     		b	.L131
 1318              	.LVL149:
 1319              	.L128:
 1320              		.loc 1 351 0 is_stmt 1
 1321 012e 0523     		movs	r3, #5
 1322 0130 C0E7     		b	.L131
 1323              	.LVL150:
 1324              	.L135:
 1325              		.loc 1 350 0
 1326 0132 0798     		ldr	r0, [sp, #28]
 1327              	.LVL151:
 1328 0134 0193     		str	r3, [sp, #4]
 1329 0136 FFF7FEFF 		bl	netconn_delete
 1330              		.loc 1 351 0
 1331 013a 019B     		ldr	r3, [sp, #4]
 1332 013c 5B42     		negs	r3, r3
 1333 013e 0F2B     		cmp	r3, #15
 1334 0140 F5D8     		bhi	.L128
 1335              		.loc 1 351 0 is_stmt 0 discriminator 1
 1336 0142 064A     		ldr	r2, .L138+8
 1337 0144 52F82330 		ldr	r3, [r2, r3, lsl #2]
 1338 0148 B4E7     		b	.L131
 1339              	.LVL152:
 1340              	.L132:
 1341              		.loc 1 331 0 is_stmt 1
 1342 014a 0B23     		movs	r3, #11
 1343 014c 2B61     		str	r3, [r5, #16]
 1344              		.loc 1 332 0
 1345 014e 4FF0FF36 		mov	r6, #-1
 1346              	.LVL153:
 1347 0152 B2E7     		b	.L110
 1348              	.L139:
 1349              		.align	2
 1350              	.L138:
 1351 0154 00000000 		.word	.LANCHOR1
 1352 0158 00000000 		.word	event_callback
 1353 015c 00000000 		.word	.LANCHOR0
 1354              		.cfi_endproc
 1355              	.LFE12:
 1356              		.size	lwip_accept, .-lwip_accept
 1357              		.section	.text.lwip_bind,"ax",%progbits
 1358              		.align	2
 1359              		.p2align 4,,15
 1360              		.global	lwip_bind
 1361              		.thumb
 1362              		.thumb_func
 1363              		.type	lwip_bind, %function
ARM GAS  /var/folders/5n/p_75w94d66l9ssrldxqdhh700000gn/T//cciPPkzE.s 			page 25


 1364              	lwip_bind:
 1365              	.LFB13:
 1366              		.loc 1 402 0
 1367              		.cfi_startproc
 1368              		@ args = 0, pretend = 0, frame = 8
 1369              		@ frame_needed = 0, uses_anonymous_args = 0
 1370              	.LVL154:
 1371 0000 70B5     		push	{r4, r5, r6, lr}
 1372              	.LCFI11:
 1373              		.cfi_def_cfa_offset 16
 1374              		.cfi_offset 14, -4
 1375              		.cfi_offset 6, -8
 1376              		.cfi_offset 5, -12
 1377              		.cfi_offset 4, -16
 1378              	.LBB80:
 1379              	.LBB81:
 1380              		.loc 1 199 0
 1381 0002 0328     		cmp	r0, #3
 1382              	.LBE81:
 1383              	.LBE80:
 1384              		.loc 1 402 0
 1385 0004 82B0     		sub	sp, sp, #8
 1386              	.LCFI12:
 1387              		.cfi_def_cfa_offset 24
 1388              	.LBB84:
 1389              	.LBB82:
 1390              		.loc 1 199 0
 1391 0006 1DD8     		bhi	.L147
 1392              	.LVL155:
 1393              		.loc 1 205 0
 1394 0008 00EB4000 		add	r0, r0, r0, lsl #1
 1395              	.LVL156:
 1396 000c 184B     		ldr	r3, .L150
 1397 000e C000     		lsls	r0, r0, #3
 1398 0010 1C18     		adds	r4, r3, r0
 1399              	.LVL157:
 1400              		.loc 1 207 0
 1401 0012 1E58     		ldr	r6, [r3, r0]
 1402 0014 B6B1     		cbz	r6, .L147
 1403              	.LBE82:
 1404              	.LBE84:
 1405              		.loc 1 415 0
 1406 0016 102A     		cmp	r2, #16
 1407 0018 17D1     		bne	.L142
 1408              		.loc 1 415 0 is_stmt 0 discriminator 2
 1409 001a 4B78     		ldrb	r3, [r1, #1]	@ zero_extendqisi2
 1410 001c 022B     		cmp	r3, #2
 1411 001e 14D1     		bne	.L142
 1412              		.loc 1 415 0 discriminator 3
 1413 0020 8A07     		lsls	r2, r1, #30
 1414              	.LVL158:
 1415 0022 12D1     		bne	.L142
 1416              	.LVL159:
 1417              		.loc 1 420 0 is_stmt 1
 1418 0024 4B68     		ldr	r3, [r1, #4]
 1419              		.loc 1 427 0
 1420 0026 4888     		ldrh	r0, [r1, #2]
ARM GAS  /var/folders/5n/p_75w94d66l9ssrldxqdhh700000gn/T//cciPPkzE.s 			page 26


 1421              		.loc 1 420 0
 1422 0028 02AD     		add	r5, sp, #8
 1423 002a 45F8043D 		str	r3, [r5, #-4]!
 1424              	.LVL160:
 1425              		.loc 1 427 0
 1426 002e FFF7FEFF 		bl	lwip_ntohs
 1427              	.LVL161:
 1428 0032 2946     		mov	r1, r5
 1429 0034 0246     		mov	r2, r0
 1430 0036 3046     		mov	r0, r6
 1431 0038 FFF7FEFF 		bl	netconn_bind
 1432              	.LVL162:
 1433              		.loc 1 429 0
 1434 003c 60B9     		cbnz	r0, .L149
 1435              		.loc 1 436 0
 1436 003e 2061     		str	r0, [r4, #16]
 1437              	.LVL163:
 1438              	.L141:
 1439              		.loc 1 438 0
 1440 0040 02B0     		add	sp, sp, #8
 1441 0042 70BD     		pop	{r4, r5, r6, pc}
 1442              	.LVL164:
 1443              	.L147:
 1444              	.LBB85:
 1445              	.LBB83:
 1446              		.loc 1 411 0
 1447 0044 4FF0FF30 		mov	r0, #-1
 1448 0048 FAE7     		b	.L141
 1449              	.LVL165:
 1450              	.L142:
 1451              	.LBE83:
 1452              	.LBE85:
 1453              		.loc 1 415 0 discriminator 1
 1454 004a FFF7FEFF 		bl	port_halt
 1455              	.LVL166:
 1456 004e 0523     		movs	r3, #5
 1457 0050 2361     		str	r3, [r4, #16]
 1458 0052 4FF0FF30 		mov	r0, #-1
 1459 0056 F3E7     		b	.L141
 1460              	.LVL167:
 1461              	.L149:
 1462              		.loc 1 431 0
 1463 0058 4042     		negs	r0, r0
 1464              	.LVL168:
 1465 005a 0F28     		cmp	r0, #15
 1466 005c 9ABF     		itte	ls
 1467 005e 054B     		ldrls	r3, .L150+4
 1468 0060 53F82030 		ldrls	r3, [r3, r0, lsl #2]
 1469 0064 0523     		movhi	r3, #5
 1470 0066 2361     		str	r3, [r4, #16]
 1471              		.loc 1 432 0
 1472 0068 4FF0FF30 		mov	r0, #-1
 1473 006c E8E7     		b	.L141
 1474              	.L151:
 1475 006e 00BF     		.align	2
 1476              	.L150:
 1477 0070 00000000 		.word	.LANCHOR1
ARM GAS  /var/folders/5n/p_75w94d66l9ssrldxqdhh700000gn/T//cciPPkzE.s 			page 27


 1478 0074 00000000 		.word	.LANCHOR0
 1479              		.cfi_endproc
 1480              	.LFE13:
 1481              		.size	lwip_bind, .-lwip_bind
 1482 0078 AFF30080 		.section	.text.lwip_close,"ax",%progbits
 1482      AFF30080 
 1483              		.align	2
 1484              		.p2align 4,,15
 1485              		.global	lwip_close
 1486              		.thumb
 1487              		.thumb_func
 1488              		.type	lwip_close, %function
 1489              	lwip_close:
 1490              	.LFB14:
 1491              		.loc 1 442 0
 1492              		.cfi_startproc
 1493              		@ args = 0, pretend = 0, frame = 0
 1494              		@ frame_needed = 0, uses_anonymous_args = 0
 1495              	.LVL169:
 1496              	.LBB86:
 1497              	.LBB87:
 1498              		.loc 1 199 0
 1499 0000 0328     		cmp	r0, #3
 1500              	.LBE87:
 1501              	.LBE86:
 1502              		.loc 1 442 0
 1503 0002 2DE9F041 		push	{r4, r5, r6, r7, r8, lr}
 1504              	.LCFI13:
 1505              		.cfi_def_cfa_offset 24
 1506              		.cfi_offset 14, -4
 1507              		.cfi_offset 8, -8
 1508              		.cfi_offset 7, -12
 1509              		.cfi_offset 6, -16
 1510              		.cfi_offset 5, -20
 1511              		.cfi_offset 4, -24
 1512              	.LBB91:
 1513              	.LBB88:
 1514              		.loc 1 199 0
 1515 0006 1ED8     		bhi	.L155
 1516              	.LVL170:
 1517              		.loc 1 205 0
 1518 0008 00EB4000 		add	r0, r0, r0, lsl #1
 1519              	.LVL171:
 1520 000c 124F     		ldr	r7, .L159
 1521 000e C600     		lsls	r6, r0, #3
 1522 0010 BD19     		adds	r5, r7, r6
 1523              	.LVL172:
 1524              		.loc 1 207 0
 1525 0012 BB59     		ldr	r3, [r7, r6]
 1526 0014 9BB1     		cbz	r3, .L156
 1527              	.LBE88:
 1528              	.LBE91:
 1529              		.loc 1 459 0
 1530 0016 1846     		mov	r0, r3
 1531              		.loc 1 454 0
 1532 0018 93F80080 		ldrb	r8, [r3, #0]	@ zero_extendqisi2
 1533              	.LVL173:
ARM GAS  /var/folders/5n/p_75w94d66l9ssrldxqdhh700000gn/T//cciPPkzE.s 			page 28


 1534              		.loc 1 459 0
 1535 001c FFF7FEFF 		bl	netconn_delete
 1536              	.LVL174:
 1537              	.LBB92:
 1538              	.LBB93:
 1539              		.loc 1 285 0
 1540 0020 6868     		ldr	r0, [r5, #4]
 1541              	.LVL175:
 1542              		.loc 1 286 0
 1543 0022 0024     		movs	r4, #0
 1544 0024 6C60     		str	r4, [r5, #4]
 1545              		.loc 1 287 0
 1546 0026 2C81     		strh	r4, [r5, #8]	@ movhi
 1547              		.loc 1 288 0
 1548 0028 2C61     		str	r4, [r5, #16]
 1549              		.loc 1 292 0
 1550 002a BC51     		str	r4, [r7, r6]
 1551              		.loc 1 296 0
 1552 002c 48B1     		cbz	r0, .L153
 1553              		.loc 1 297 0
 1554 002e B8F1100F 		cmp	r8, #16
 1555 0032 0CD0     		beq	.L158
 1556              		.loc 1 300 0
 1557 0034 FFF7FEFF 		bl	netbuf_delete
 1558              	.LVL176:
 1559              		.loc 1 463 0
 1560 0038 2046     		mov	r0, r4
 1561 003a BDE8F081 		pop	{r4, r5, r6, r7, r8, pc}
 1562              	.LVL177:
 1563              	.L156:
 1564              	.LBE93:
 1565              	.LBE92:
 1566              	.LBB95:
 1567              	.LBB89:
 1568              		.loc 1 450 0
 1569 003e 4FF0FF30 		mov	r0, #-1
 1570              	.LVL178:
 1571              	.L153:
 1572              	.LBE89:
 1573              	.LBE95:
 1574              		.loc 1 464 0
 1575 0042 BDE8F081 		pop	{r4, r5, r6, r7, r8, pc}
 1576              	.LVL179:
 1577              	.L155:
 1578              	.LBB96:
 1579              	.LBB90:
 1580              		.loc 1 450 0
 1581 0046 4FF0FF30 		mov	r0, #-1
 1582              	.LVL180:
 1583 004a BDE8F081 		pop	{r4, r5, r6, r7, r8, pc}
 1584              	.LVL181:
 1585              	.L158:
 1586              	.LBE90:
 1587              	.LBE96:
 1588              	.LBB97:
 1589              	.LBB94:
 1590              		.loc 1 298 0
ARM GAS  /var/folders/5n/p_75w94d66l9ssrldxqdhh700000gn/T//cciPPkzE.s 			page 29


 1591 004e FFF7FEFF 		bl	pbuf_free
 1592              	.LVL182:
 1593              		.loc 1 463 0
 1594 0052 2046     		mov	r0, r4
 1595 0054 BDE8F081 		pop	{r4, r5, r6, r7, r8, pc}
 1596              	.L160:
 1597              		.align	2
 1598              	.L159:
 1599 0058 00000000 		.word	.LANCHOR1
 1600              	.LBE94:
 1601              	.LBE97:
 1602              		.cfi_endproc
 1603              	.LFE14:
 1604              		.size	lwip_close, .-lwip_close
 1605 005c AFF30080 		.section	.text.lwip_connect,"ax",%progbits
 1606              		.align	2
 1607              		.p2align 4,,15
 1608              		.global	lwip_connect
 1609              		.thumb
 1610              		.thumb_func
 1611              		.type	lwip_connect, %function
 1612              	lwip_connect:
 1613              	.LFB15:
 1614              		.loc 1 468 0
 1615              		.cfi_startproc
 1616              		@ args = 0, pretend = 0, frame = 8
 1617              		@ frame_needed = 0, uses_anonymous_args = 0
 1618              	.LVL183:
 1619 0000 70B5     		push	{r4, r5, r6, lr}
 1620              	.LCFI14:
 1621              		.cfi_def_cfa_offset 16
 1622              		.cfi_offset 14, -4
 1623              		.cfi_offset 6, -8
 1624              		.cfi_offset 5, -12
 1625              		.cfi_offset 4, -16
 1626              	.LBB98:
 1627              	.LBB99:
 1628              		.loc 1 199 0
 1629 0002 0328     		cmp	r0, #3
 1630              	.LBE99:
 1631              	.LBE98:
 1632              		.loc 1 468 0
 1633 0004 82B0     		sub	sp, sp, #8
 1634              	.LCFI15:
 1635              		.cfi_def_cfa_offset 24
 1636              	.LBB102:
 1637              	.LBB100:
 1638              		.loc 1 199 0
 1639 0006 1DD8     		bhi	.L168
 1640              		.loc 1 205 0
 1641 0008 00EB4000 		add	r0, r0, r0, lsl #1
 1642              	.LVL184:
 1643 000c 184B     		ldr	r3, .L171
 1644 000e C000     		lsls	r0, r0, #3
 1645 0010 1C18     		adds	r4, r3, r0
 1646              	.LVL185:
 1647              		.loc 1 207 0
ARM GAS  /var/folders/5n/p_75w94d66l9ssrldxqdhh700000gn/T//cciPPkzE.s 			page 30


 1648 0012 1E58     		ldr	r6, [r3, r0]
 1649 0014 B6B1     		cbz	r6, .L168
 1650              	.LBE100:
 1651              	.LBE102:
 1652              		.loc 1 479 0
 1653 0016 102A     		cmp	r2, #16
 1654 0018 17D1     		bne	.L163
 1655              		.loc 1 479 0 is_stmt 0 discriminator 2
 1656 001a 4B78     		ldrb	r3, [r1, #1]	@ zero_extendqisi2
 1657 001c 022B     		cmp	r3, #2
 1658 001e 14D1     		bne	.L163
 1659              		.loc 1 479 0 discriminator 3
 1660 0020 8807     		lsls	r0, r1, #30
 1661 0022 12D1     		bne	.L163
 1662              	.LVL186:
 1663              	.LBB103:
 1664              		.loc 1 491 0 is_stmt 1
 1665 0024 4B68     		ldr	r3, [r1, #4]
 1666              		.loc 1 498 0
 1667 0026 4888     		ldrh	r0, [r1, #2]
 1668              		.loc 1 491 0
 1669 0028 02AD     		add	r5, sp, #8
 1670 002a 45F8043D 		str	r3, [r5, #-4]!
 1671              	.LVL187:
 1672              		.loc 1 498 0
 1673 002e FFF7FEFF 		bl	lwip_ntohs
 1674              	.LVL188:
 1675 0032 2946     		mov	r1, r5
 1676 0034 0246     		mov	r2, r0
 1677 0036 3046     		mov	r0, r6
 1678 0038 FFF7FEFF 		bl	netconn_connect
 1679              	.LVL189:
 1680              	.LBE103:
 1681              		.loc 1 501 0
 1682 003c 60B9     		cbnz	r0, .L170
 1683              		.loc 1 508 0
 1684 003e 2061     		str	r0, [r4, #16]
 1685              	.LVL190:
 1686              	.L162:
 1687              		.loc 1 510 0
 1688 0040 02B0     		add	sp, sp, #8
 1689 0042 70BD     		pop	{r4, r5, r6, pc}
 1690              	.LVL191:
 1691              	.L168:
 1692              	.LBB104:
 1693              	.LBB101:
 1694              		.loc 1 475 0
 1695 0044 4FF0FF30 		mov	r0, #-1
 1696 0048 FAE7     		b	.L162
 1697              	.LVL192:
 1698              	.L163:
 1699              	.LBE101:
 1700              	.LBE104:
 1701              		.loc 1 479 0 discriminator 1
 1702 004a FFF7FEFF 		bl	port_halt
 1703              	.LVL193:
 1704 004e 0523     		movs	r3, #5
ARM GAS  /var/folders/5n/p_75w94d66l9ssrldxqdhh700000gn/T//cciPPkzE.s 			page 31


 1705 0050 2361     		str	r3, [r4, #16]
 1706 0052 4FF0FF30 		mov	r0, #-1
 1707 0056 F3E7     		b	.L162
 1708              	.LVL194:
 1709              	.L170:
 1710              		.loc 1 503 0
 1711 0058 4042     		negs	r0, r0
 1712              	.LVL195:
 1713 005a 0F28     		cmp	r0, #15
 1714 005c 9ABF     		itte	ls
 1715 005e 054B     		ldrls	r3, .L171+4
 1716 0060 53F82030 		ldrls	r3, [r3, r0, lsl #2]
 1717 0064 0523     		movhi	r3, #5
 1718 0066 2361     		str	r3, [r4, #16]
 1719              		.loc 1 504 0
 1720 0068 4FF0FF30 		mov	r0, #-1
 1721 006c E8E7     		b	.L162
 1722              	.L172:
 1723 006e 00BF     		.align	2
 1724              	.L171:
 1725 0070 00000000 		.word	.LANCHOR1
 1726 0074 00000000 		.word	.LANCHOR0
 1727              		.cfi_endproc
 1728              	.LFE15:
 1729              		.size	lwip_connect, .-lwip_connect
 1730 0078 AFF30080 		.section	.text.lwip_listen,"ax",%progbits
 1730      AFF30080 
 1731              		.align	2
 1732              		.p2align 4,,15
 1733              		.global	lwip_listen
 1734              		.thumb
 1735              		.thumb_func
 1736              		.type	lwip_listen, %function
 1737              	lwip_listen:
 1738              	.LFB16:
 1739              		.loc 1 522 0
 1740              		.cfi_startproc
 1741              		@ args = 0, pretend = 0, frame = 0
 1742              		@ frame_needed = 0, uses_anonymous_args = 0
 1743              	.LVL196:
 1744              	.LBB105:
 1745              	.LBB106:
 1746              		.loc 1 199 0
 1747 0000 0328     		cmp	r0, #3
 1748              	.LBE106:
 1749              	.LBE105:
 1750              		.loc 1 522 0
 1751 0002 10B5     		push	{r4, lr}
 1752              	.LCFI16:
 1753              		.cfi_def_cfa_offset 8
 1754              		.cfi_offset 14, -4
 1755              		.cfi_offset 4, -8
 1756              	.LBB109:
 1757              	.LBB107:
 1758              		.loc 1 199 0
 1759 0004 11D8     		bhi	.L178
 1760              	.LVL197:
ARM GAS  /var/folders/5n/p_75w94d66l9ssrldxqdhh700000gn/T//cciPPkzE.s 			page 32


 1761              		.loc 1 205 0
 1762 0006 00EB4000 		add	r0, r0, r0, lsl #1
 1763              	.LVL198:
 1764 000a 104B     		ldr	r3, .L183
 1765 000c C000     		lsls	r0, r0, #3
 1766 000e 1C18     		adds	r4, r3, r0
 1767              	.LVL199:
 1768              		.loc 1 207 0
 1769 0010 1858     		ldr	r0, [r3, r0]
 1770 0012 68B1     		cbz	r0, .L179
 1771              	.LVL200:
 1772              	.LBE107:
 1773              	.LBE109:
 1774              		.loc 1 534 0
 1775 0014 FE29     		cmp	r1, #254
 1776 0016 DABF     		itte	le
 1777 0018 21EAE171 		bicle	r1, r1, r1, asr #31
 1778 001c C9B2     		uxtble	r1, r1
 1779 001e FF21     		movgt	r1, #255
 1780              		.loc 1 536 0
 1781 0020 FFF7FEFF 		bl	netconn_listen_with_backlog
 1782              	.LVL201:
 1783              		.loc 1 538 0
 1784 0024 38B9     		cbnz	r0, .L182
 1785              		.loc 1 544 0
 1786 0026 2061     		str	r0, [r4, #16]
 1787              		.loc 1 545 0
 1788 0028 10BD     		pop	{r4, pc}
 1789              	.LVL202:
 1790              	.L178:
 1791              	.LBB110:
 1792              	.LBB108:
 1793              		.loc 1 530 0
 1794 002a 4FF0FF30 		mov	r0, #-1
 1795              	.LVL203:
 1796 002e 10BD     		pop	{r4, pc}
 1797              	.LVL204:
 1798              	.L179:
 1799 0030 4FF0FF30 		mov	r0, #-1
 1800              	.LBE108:
 1801              	.LBE110:
 1802              		.loc 1 546 0
 1803 0034 10BD     		pop	{r4, pc}
 1804              	.LVL205:
 1805              	.L182:
 1806              		.loc 1 540 0
 1807 0036 4042     		negs	r0, r0
 1808              	.LVL206:
 1809 0038 0F28     		cmp	r0, #15
 1810 003a 9ABF     		itte	ls
 1811 003c 044B     		ldrls	r3, .L183+4
 1812 003e 53F82030 		ldrls	r3, [r3, r0, lsl #2]
 1813 0042 0523     		movhi	r3, #5
 1814 0044 2361     		str	r3, [r4, #16]
 1815              		.loc 1 541 0
 1816 0046 4FF0FF30 		mov	r0, #-1
 1817 004a 10BD     		pop	{r4, pc}
ARM GAS  /var/folders/5n/p_75w94d66l9ssrldxqdhh700000gn/T//cciPPkzE.s 			page 33


 1818              	.L184:
 1819              		.align	2
 1820              	.L183:
 1821 004c 00000000 		.word	.LANCHOR1
 1822 0050 00000000 		.word	.LANCHOR0
 1823              		.cfi_endproc
 1824              	.LFE16:
 1825              		.size	lwip_listen, .-lwip_listen
 1826 0054 AFF30080 		.section	.text.lwip_recvfrom,"ax",%progbits
 1826      AFF30080 
 1826      AFF30080 
 1827              		.align	2
 1828              		.p2align 4,,15
 1829              		.global	lwip_recvfrom
 1830              		.thumb
 1831              		.thumb_func
 1832              		.type	lwip_recvfrom, %function
 1833              	lwip_recvfrom:
 1834              	.LFB17:
 1835              		.loc 1 551 0
 1836              		.cfi_startproc
 1837              		@ args = 8, pretend = 0, frame = 48
 1838              		@ frame_needed = 0, uses_anonymous_args = 0
 1839              	.LVL207:
 1840 0000 2DE9F04F 		push	{r4, r5, r6, r7, r8, r9, sl, fp, lr}
 1841              	.LCFI17:
 1842              		.cfi_def_cfa_offset 36
 1843              		.cfi_offset 14, -4
 1844              		.cfi_offset 11, -8
 1845              		.cfi_offset 10, -12
 1846              		.cfi_offset 9, -16
 1847              		.cfi_offset 8, -20
 1848              		.cfi_offset 7, -24
 1849              		.cfi_offset 6, -28
 1850              		.cfi_offset 5, -32
 1851              		.cfi_offset 4, -36
 1852 0004 8DB0     		sub	sp, sp, #52
 1853              	.LCFI18:
 1854              		.cfi_def_cfa_offset 88
 1855              		.loc 1 553 0
 1856 0006 0027     		movs	r7, #0
 1857              	.LBB111:
 1858              	.LBB112:
 1859              		.loc 1 199 0
 1860 0008 0328     		cmp	r0, #3
 1861              	.LBE112:
 1862              	.LBE111:
 1863              		.loc 1 553 0
 1864 000a 0997     		str	r7, [sp, #36]
 1865              	.LVL208:
 1866              		.loc 1 551 0
 1867 000c 0291     		str	r1, [sp, #8]
 1868 000e 9146     		mov	r9, r2
 1869 0010 0193     		str	r3, [sp, #4]
 1870 0012 DDF85CB0 		ldr	fp, [sp, #92]
 1871              	.LBB115:
 1872              	.LBB113:
ARM GAS  /var/folders/5n/p_75w94d66l9ssrldxqdhh700000gn/T//cciPPkzE.s 			page 34


 1873              		.loc 1 199 0
 1874 0016 6CD8     		bhi	.L220
 1875              		.loc 1 205 0
 1876 0018 00EB4000 		add	r0, r0, r0, lsl #1
 1877              	.LVL209:
 1878 001c 7B4B     		ldr	r3, .L239
 1879              	.LVL210:
 1880 001e C000     		lsls	r0, r0, #3
 1881 0020 1D18     		adds	r5, r3, r0
 1882              	.LVL211:
 1883              		.loc 1 207 0
 1884 0022 1B58     		ldr	r3, [r3, r0]
 1885 0024 002B     		cmp	r3, #0
 1886 0026 64D0     		beq	.L220
 1887              	.LVL212:
 1888              	.LBE113:
 1889              	.LBE115:
 1890              		.loc 1 575 0
 1891 0028 019A     		ldr	r2, [sp, #4]
 1892              	.LVL213:
 1893              		.loc 1 571 0
 1894 002a 6C68     		ldr	r4, [r5, #4]
 1895              		.loc 1 575 0
 1896 002c 02F00802 		and	r2, r2, #8
 1897 0030 0392     		str	r2, [sp, #12]
 1898              	.LBB116:
 1899              	.LBB117:
 1900              		.loc 1 671 0
 1901 0032 BA46     		mov	sl, r7
 1902              	.LBE117:
 1903              	.LBE116:
 1904              		.loc 1 571 0
 1905 0034 002C     		cmp	r4, #0
 1906 0036 73D0     		beq	.L187
 1907              	.LVL214:
 1908              	.L234:
 1909              		.loc 1 572 0
 1910 0038 0994     		str	r4, [sp, #36]
 1911              	.L188:
 1912              		.loc 1 621 0
 1913 003a 2B68     		ldr	r3, [r5, #0]
 1914              		.loc 1 640 0
 1915 003c 029A     		ldr	r2, [sp, #8]
 1916              		.loc 1 621 0
 1917 003e 1B78     		ldrb	r3, [r3, #0]	@ zero_extendqisi2
 1918 0040 102B     		cmp	r3, #16
 1919              		.loc 1 624 0
 1920 0042 18BF     		it	ne
 1921 0044 2468     		ldrne	r4, [r4, #0]
 1922              	.LVL215:
 1923              		.loc 1 630 0
 1924 0046 2B89     		ldrh	r3, [r5, #8]
 1925              		.loc 1 626 0
 1926 0048 B4F80880 		ldrh	r8, [r4, #8]
 1927              	.LVL216:
 1928              		.loc 1 630 0
 1929 004c C3EB0808 		rsb	r8, r3, r8
ARM GAS  /var/folders/5n/p_75w94d66l9ssrldxqdhh700000gn/T//cciPPkzE.s 			page 35


 1930              	.LVL217:
 1931 0050 1FFA88F8 		uxth	r8, r8
 1932              	.LVL218:
 1933              		.loc 1 632 0
 1934 0054 C145     		cmp	r9, r8
 1935              		.loc 1 635 0
 1936 0056 94BF     		ite	ls
 1937 0058 1FFA89F6 		uxthls	r6, r9
 1938              	.LVL219:
 1939              		.loc 1 633 0
 1940 005c 4646     		movhi	r6, r8
 1941              	.LVL220:
 1942              		.loc 1 640 0
 1943 005e D119     		adds	r1, r2, r7
 1944 0060 2046     		mov	r0, r4
 1945 0062 3246     		mov	r2, r6
 1946 0064 FFF7FEFF 		bl	pbuf_copy_partial
 1947              		.loc 1 644 0
 1948 0068 2B68     		ldr	r3, [r5, #0]
 1949 006a 1B78     		ldrb	r3, [r3, #0]	@ zero_extendqisi2
 1950 006c 102B     		cmp	r3, #16
 1951              		.loc 1 642 0
 1952 006e 3744     		add	r7, r7, r6
 1953              	.LVL221:
 1954              		.loc 1 644 0
 1955 0070 6ED0     		beq	.L230
 1956              	.LVL222:
 1957              	.L201:
 1958              		.loc 1 730 0
 1959 0072 019A     		ldr	r2, [sp, #4]
 1960 0074 02F00104 		and	r4, r2, #1
 1961              	.L204:
 1962              	.LVL223:
 1963              	.LBB120:
 1964              		.loc 1 660 0
 1965 0078 169B     		ldr	r3, [sp, #88]
 1966 007a BBF1000F 		cmp	fp, #0
 1967 007e 18BF     		it	ne
 1968 0080 002B     		cmpne	r3, #0
 1969 0082 2DD0     		beq	.L218
 1970              	.LBB118:
 1971              		.loc 1 663 0
 1972 0084 2868     		ldr	r0, [r5, #0]
 1973 0086 0378     		ldrb	r3, [r0, #0]	@ zero_extendqisi2
 1974 0088 102B     		cmp	r3, #16
 1975 008a 00F09480 		beq	.L231
 1976              		.loc 1 667 0
 1977 008e 099B     		ldr	r3, [sp, #36]
 1978              		.loc 1 668 0
 1979 0090 9A89     		ldrh	r2, [r3, #12]
 1980              		.loc 1 667 0
 1981 0092 0833     		adds	r3, r3, #8
 1982              	.LVL224:
 1983              		.loc 1 668 0
 1984 0094 ADF82E20 		strh	r2, [sp, #46]	@ movhi
 1985              	.L209:
 1986              		.loc 1 672 0
ARM GAS  /var/folders/5n/p_75w94d66l9ssrldxqdhh700000gn/T//cciPPkzE.s 			page 36


 1987 0098 1022     		movs	r2, #16
 1988              		.loc 1 671 0
 1989 009a CDF814A0 		str	sl, [sp, #20]
 1990              		.loc 1 674 0
 1991 009e BDF82E00 		ldrh	r0, [sp, #46]
 1992              		.loc 1 672 0
 1993 00a2 8DF81420 		strb	r2, [sp, #20]
 1994              		.loc 1 673 0
 1995 00a6 0222     		movs	r2, #2
 1996 00a8 8DF81520 		strb	r2, [sp, #21]
 1997              		.loc 1 674 0
 1998 00ac 0093     		str	r3, [sp, #0]
 1999              		.loc 1 671 0
 2000 00ae CDF818A0 		str	sl, [sp, #24]
 2001 00b2 CDF81CA0 		str	sl, [sp, #28]
 2002 00b6 CDF820A0 		str	sl, [sp, #32]
 2003              		.loc 1 674 0
 2004 00ba FFF7FEFF 		bl	lwip_htons
 2005              	.LVL225:
 2006              		.loc 1 675 0
 2007 00be 009B     		ldr	r3, [sp, #0]
 2008              		.loc 1 677 0
 2009 00c0 DBF80020 		ldr	r2, [fp, #0]
 2010              		.loc 1 675 0
 2011 00c4 1B68     		ldr	r3, [r3, #0]
 2012              		.loc 1 674 0
 2013 00c6 ADF81600 		strh	r0, [sp, #22]	@ movhi
 2014              		.loc 1 677 0
 2015 00ca 102A     		cmp	r2, #16
 2016              		.loc 1 675 0
 2017 00cc 0693     		str	r3, [sp, #24]
 2018              		.loc 1 677 0
 2019 00ce 03D9     		bls	.L210
 2020              		.loc 1 678 0
 2021 00d0 1023     		movs	r3, #16
 2022 00d2 CBF80030 		str	r3, [fp, #0]
 2023 00d6 1A46     		mov	r2, r3
 2024              	.L210:
 2025              		.loc 1 681 0
 2026 00d8 1698     		ldr	r0, [sp, #88]
 2027 00da 05A9     		add	r1, sp, #20
 2028 00dc FFF7FEFF 		bl	memcpy
 2029              	.L218:
 2030              	.LBE118:
 2031              	.LBE120:
 2032              		.loc 1 704 0
 2033 00e0 6CB1     		cbz	r4, .L232
 2034              	.LVL226:
 2035              	.L211:
 2036              		.loc 1 725 0
 2037 00e2 1FB1     		cbz	r7, .L216
 2038              		.loc 1 727 0
 2039 00e4 2868     		ldr	r0, [r5, #0]
 2040 00e6 3946     		mov	r1, r7
 2041 00e8 FFF7FEFF 		bl	netconn_recved
 2042              	.L216:
 2043              		.loc 1 729 0
ARM GAS  /var/folders/5n/p_75w94d66l9ssrldxqdhh700000gn/T//cciPPkzE.s 			page 37


 2044 00ec 0023     		movs	r3, #0
 2045 00ee 2B61     		str	r3, [r5, #16]
 2046              		.loc 1 730 0
 2047 00f0 01E0     		b	.L186
 2048              	.LVL227:
 2049              	.L220:
 2050              	.LBB121:
 2051              	.LBB114:
 2052              		.loc 1 565 0
 2053 00f2 4FF0FF37 		mov	r7, #-1
 2054              	.LVL228:
 2055              	.L186:
 2056              	.LBE114:
 2057              	.LBE121:
 2058              		.loc 1 731 0
 2059 00f6 3846     		mov	r0, r7
 2060 00f8 0DB0     		add	sp, sp, #52
 2061 00fa BDE8F08F 		pop	{r4, r5, r6, r7, r8, r9, sl, fp, pc}
 2062              	.LVL229:
 2063              	.L232:
 2064              		.loc 1 704 0
 2065 00fe 0124     		movs	r4, #1
 2066              	.LVL230:
 2067              	.L207:
 2068              		.loc 1 708 0
 2069 0100 2B68     		ldr	r3, [r5, #0]
 2070 0102 1B78     		ldrb	r3, [r3, #0]	@ zero_extendqisi2
 2071 0104 102B     		cmp	r3, #16
 2072 0106 39D0     		beq	.L233
 2073              		.loc 1 719 0
 2074 0108 0998     		ldr	r0, [sp, #36]
 2075              		.loc 1 713 0
 2076 010a C5F804A0 		str	sl, [r5, #4]
 2077              		.loc 1 714 0
 2078 010e A5F808A0 		strh	sl, [r5, #8]	@ movhi
 2079              		.loc 1 719 0
 2080 0112 FFF7FEFF 		bl	netbuf_delete
 2081              		.loc 1 723 0
 2082 0116 002C     		cmp	r4, #0
 2083 0118 E3D1     		bne	.L211
 2084              	.LVL231:
 2085              	.L229:
 2086              		.loc 1 571 0
 2087 011a 6C68     		ldr	r4, [r5, #4]
 2088 011c 002C     		cmp	r4, #0
 2089 011e 8BD1     		bne	.L234
 2090              	.L187:
 2091              		.loc 1 575 0
 2092 0120 039B     		ldr	r3, [sp, #12]
 2093 0122 1BB9     		cbnz	r3, .L189
 2094              		.loc 1 575 0 is_stmt 0 discriminator 2
 2095 0124 2868     		ldr	r0, [r5, #0]
 2096 0126 037F     		ldrb	r3, [r0, #28]	@ zero_extendqisi2
 2097 0128 9B07     		lsls	r3, r3, #30
 2098 012a 04D5     		bpl	.L190
 2099              	.L189:
 2100              		.loc 1 575 0 discriminator 1
ARM GAS  /var/folders/5n/p_75w94d66l9ssrldxqdhh700000gn/T//cciPPkzE.s 			page 38


 2101 012c B5F90A30 		ldrsh	r3, [r5, #10]
 2102 0130 002B     		cmp	r3, #0
 2103 0132 64DD     		ble	.L191
 2104              		.loc 1 575 0
 2105 0134 2868     		ldr	r0, [r5, #0]
 2106              	.L190:
 2107              		.loc 1 591 0 is_stmt 1
 2108 0136 0378     		ldrb	r3, [r0, #0]	@ zero_extendqisi2
 2109 0138 102B     		cmp	r3, #16
 2110              		.loc 1 592 0
 2111 013a 09A9     		add	r1, sp, #36
 2112              		.loc 1 591 0
 2113 013c 2ED0     		beq	.L235
 2114              		.loc 1 594 0
 2115 013e FFF7FEFF 		bl	netconn_recv
 2116              	.LVL232:
 2117              	.L194:
 2118              		.loc 1 599 0
 2119 0142 0028     		cmp	r0, #0
 2120 0144 43D1     		bne	.L236
 2121              		.loc 1 617 0
 2122 0146 099C     		ldr	r4, [sp, #36]
 2123 0148 002C     		cmp	r4, #0
 2124 014a 3CD0     		beq	.L237
 2125              	.LVL233:
 2126              	.L198:
 2127              		.loc 1 618 0
 2128 014c 6C60     		str	r4, [r5, #4]
 2129 014e 74E7     		b	.L188
 2130              	.LVL234:
 2131              	.L230:
 2132              		.loc 1 645 0
 2133 0150 B145     		cmp	r9, r6
 2134 0152 20D3     		bcc	.L238
 2135              	.L202:
 2136              	.LVL235:
 2137              		.loc 1 647 0
 2138 0154 B9EB0609 		subs	r9, r9, r6
 2139              	.LVL236:
 2140 0158 0CD0     		beq	.L228
 2141              		.loc 1 647 0 is_stmt 0 discriminator 1
 2142 015a 637B     		ldrb	r3, [r4, #13]	@ zero_extendqisi2
 2143 015c DC07     		lsls	r4, r3, #31
 2144              	.LVL237:
 2145 015e 88D4     		bmi	.L201
 2146              		.loc 1 648 0 is_stmt 1
 2147 0160 B5F90A30 		ldrsh	r3, [r5, #10]
 2148 0164 002B     		cmp	r3, #0
 2149 0166 05DD     		ble	.L228
 2150              		.loc 1 649 0
 2151 0168 019A     		ldr	r2, [sp, #4]
 2152 016a 12F00104 		ands	r4, r2, #1
 2153 016e C7D0     		beq	.L207
 2154 0170 0124     		movs	r4, #1
 2155 0172 81E7     		b	.L204
 2156              	.L228:
 2157              		.loc 1 648 0
ARM GAS  /var/folders/5n/p_75w94d66l9ssrldxqdhh700000gn/T//cciPPkzE.s 			page 39


 2158 0174 019B     		ldr	r3, [sp, #4]
 2159 0176 03F00104 		and	r4, r3, #1
 2160 017a 7DE7     		b	.L204
 2161              	.LVL238:
 2162              	.L233:
 2163              		.loc 1 708 0 discriminator 1
 2164 017c C6EB0808 		rsb	r8, r6, r8
 2165              	.LVL239:
 2166 0180 B8F1000F 		cmp	r8, #0
 2167 0184 0DDD     		ble	.L213
 2168              		.loc 1 710 0
 2169 0186 2B89     		ldrh	r3, [r5, #8]
 2170 0188 F618     		adds	r6, r6, r3
 2171              	.LVL240:
 2172              		.loc 1 709 0
 2173 018a 099B     		ldr	r3, [sp, #36]
 2174              		.loc 1 710 0
 2175 018c 2E81     		strh	r6, [r5, #8]	@ movhi
 2176              		.loc 1 709 0
 2177 018e 6B60     		str	r3, [r5, #4]
 2178              		.loc 1 723 0
 2179 0190 002C     		cmp	r4, #0
 2180 0192 C2D0     		beq	.L229
 2181 0194 A5E7     		b	.L211
 2182              	.LVL241:
 2183              	.L238:
 2184              		.loc 1 645 0 discriminator 1
 2185 0196 FFF7FEFF 		bl	port_halt
 2186 019a DBE7     		b	.L202
 2187              	.LVL242:
 2188              	.L235:
 2189              		.loc 1 592 0
 2190 019c FFF7FEFF 		bl	netconn_recv_tcp_pbuf
 2191              	.LVL243:
 2192 01a0 CFE7     		b	.L194
 2193              	.LVL244:
 2194              	.L213:
 2195              		.loc 1 717 0
 2196 01a2 0998     		ldr	r0, [sp, #36]
 2197              		.loc 1 713 0
 2198 01a4 C5F804A0 		str	sl, [r5, #4]
 2199              		.loc 1 714 0
 2200 01a8 A5F808A0 		strh	sl, [r5, #8]	@ movhi
 2201              		.loc 1 717 0
 2202 01ac FFF7FEFF 		bl	pbuf_free
 2203              		.loc 1 723 0
 2204 01b0 002C     		cmp	r4, #0
 2205 01b2 B2D0     		beq	.L229
 2206 01b4 95E7     		b	.L211
 2207              	.LVL245:
 2208              	.L231:
 2209              	.LBB122:
 2210              	.LBB119:
 2211              		.loc 1 665 0
 2212 01b6 0023     		movs	r3, #0
 2213 01b8 0AA9     		add	r1, sp, #40
 2214 01ba 0DF12E02 		add	r2, sp, #46
ARM GAS  /var/folders/5n/p_75w94d66l9ssrldxqdhh700000gn/T//cciPPkzE.s 			page 40


 2215 01be FFF7FEFF 		bl	netconn_getaddr
 2216              		.loc 1 664 0
 2217 01c2 0AAB     		add	r3, sp, #40
 2218 01c4 68E7     		b	.L209
 2219              	.LVL246:
 2220              	.L237:
 2221              	.LBE119:
 2222              	.LBE122:
 2223              		.loc 1 617 0 discriminator 1
 2224 01c6 FFF7FEFF 		bl	port_halt
 2225              	.LVL247:
 2226 01ca 099C     		ldr	r4, [sp, #36]
 2227 01cc BEE7     		b	.L198
 2228              	.LVL248:
 2229              	.L236:
 2230              		.loc 1 600 0
 2231 01ce 7FB9     		cbnz	r7, .L227
 2232              		.loc 1 610 0
 2233 01d0 40B2     		sxtb	r0, r0
 2234              	.LVL249:
 2235 01d2 4342     		negs	r3, r0
 2236 01d4 0F2B     		cmp	r3, #15
 2237 01d6 9ABF     		itte	ls
 2238 01d8 0D4A     		ldrls	r2, .L239+4
 2239 01da 52F82330 		ldrls	r3, [r2, r3, lsl #2]
 2240 01de 0523     		movhi	r3, #5
 2241 01e0 2B61     		str	r3, [r5, #16]
 2242              		.loc 1 612 0
 2243 01e2 10F10C0F 		cmn	r0, #12
 2244 01e6 14BF     		ite	ne
 2245 01e8 4FF0FF37 		movne	r7, #-1
 2246 01ec 0027     		moveq	r7, #0
 2247              	.LVL250:
 2248 01ee 82E7     		b	.L186
 2249              	.LVL251:
 2250              	.L227:
 2251              		.loc 1 602 0
 2252 01f0 2868     		ldr	r0, [r5, #0]
 2253 01f2 3946     		mov	r1, r7
 2254 01f4 FFF7FEFF 		bl	netconn_recved
 2255              		.loc 1 604 0
 2256 01f8 0023     		movs	r3, #0
 2257 01fa 2B61     		str	r3, [r5, #16]
 2258              		.loc 1 605 0
 2259 01fc 7BE7     		b	.L186
 2260              	.L191:
 2261              		.loc 1 577 0
 2262 01fe 002F     		cmp	r7, #0
 2263 0200 F6D1     		bne	.L227
 2264              		.loc 1 585 0
 2265 0202 0B23     		movs	r3, #11
 2266 0204 2B61     		str	r3, [r5, #16]
 2267              		.loc 1 586 0
 2268 0206 4FF0FF37 		mov	r7, #-1
 2269              	.LVL252:
 2270 020a 74E7     		b	.L186
 2271              	.L240:
ARM GAS  /var/folders/5n/p_75w94d66l9ssrldxqdhh700000gn/T//cciPPkzE.s 			page 41


 2272              		.align	2
 2273              	.L239:
 2274 020c 00000000 		.word	.LANCHOR1
 2275 0210 00000000 		.word	.LANCHOR0
 2276              		.cfi_endproc
 2277              	.LFE17:
 2278              		.size	lwip_recvfrom, .-lwip_recvfrom
 2279 0214 AFF30080 		.section	.text.lwip_read,"ax",%progbits
 2279      AFF30080 
 2279      AFF30080 
 2280              		.align	2
 2281              		.p2align 4,,15
 2282              		.global	lwip_read
 2283              		.thumb
 2284              		.thumb_func
 2285              		.type	lwip_read, %function
 2286              	lwip_read:
 2287              	.LFB18:
 2288              		.loc 1 735 0
 2289              		.cfi_startproc
 2290              		@ args = 0, pretend = 0, frame = 0
 2291              		@ frame_needed = 0, uses_anonymous_args = 0
 2292              	.LVL253:
 2293 0000 10B5     		push	{r4, lr}
 2294              	.LCFI19:
 2295              		.cfi_def_cfa_offset 8
 2296              		.cfi_offset 14, -4
 2297              		.cfi_offset 4, -8
 2298              		.loc 1 736 0
 2299 0002 0024     		movs	r4, #0
 2300              		.loc 1 735 0
 2301 0004 82B0     		sub	sp, sp, #8
 2302              	.LCFI20:
 2303              		.cfi_def_cfa_offset 16
 2304              		.loc 1 736 0
 2305 0006 2346     		mov	r3, r4
 2306 0008 0094     		str	r4, [sp, #0]
 2307 000a 0194     		str	r4, [sp, #4]
 2308 000c FFF7FEFF 		bl	lwip_recvfrom
 2309              	.LVL254:
 2310              		.loc 1 737 0
 2311 0010 02B0     		add	sp, sp, #8
 2312 0012 10BD     		pop	{r4, pc}
 2313              		.cfi_endproc
 2314              	.LFE18:
 2315              		.size	lwip_read, .-lwip_read
 2316              		.section	.text.lwip_recv,"ax",%progbits
 2317              		.align	2
 2318              		.p2align 4,,15
 2319              		.global	lwip_recv
 2320              		.thumb
 2321              		.thumb_func
 2322              		.type	lwip_recv, %function
 2323              	lwip_recv:
 2324              	.LFB19:
 2325              		.loc 1 741 0
 2326              		.cfi_startproc
ARM GAS  /var/folders/5n/p_75w94d66l9ssrldxqdhh700000gn/T//cciPPkzE.s 			page 42


 2327              		@ args = 0, pretend = 0, frame = 0
 2328              		@ frame_needed = 0, uses_anonymous_args = 0
 2329              	.LVL255:
 2330 0000 10B5     		push	{r4, lr}
 2331              	.LCFI21:
 2332              		.cfi_def_cfa_offset 8
 2333              		.cfi_offset 14, -4
 2334              		.cfi_offset 4, -8
 2335 0002 82B0     		sub	sp, sp, #8
 2336              	.LCFI22:
 2337              		.cfi_def_cfa_offset 16
 2338              		.loc 1 742 0
 2339 0004 0024     		movs	r4, #0
 2340 0006 0094     		str	r4, [sp, #0]
 2341 0008 0194     		str	r4, [sp, #4]
 2342 000a FFF7FEFF 		bl	lwip_recvfrom
 2343              	.LVL256:
 2344              		.loc 1 743 0
 2345 000e 02B0     		add	sp, sp, #8
 2346 0010 10BD     		pop	{r4, pc}
 2347              		.cfi_endproc
 2348              	.LFE19:
 2349              		.size	lwip_recv, .-lwip_recv
 2350 0012 00BFAFF3 		.section	.text.lwip_sendto,"ax",%progbits
 2350      0080AFF3 
 2350      0080AFF3 
 2350      0080
 2351              		.align	2
 2352              		.p2align 4,,15
 2353              		.global	lwip_sendto
 2354              		.thumb
 2355              		.thumb_func
 2356              		.type	lwip_sendto, %function
 2357              	lwip_sendto:
 2358              	.LFB21:
 2359              		.loc 1 790 0
 2360              		.cfi_startproc
 2361              		@ args = 8, pretend = 0, frame = 16
 2362              		@ frame_needed = 0, uses_anonymous_args = 0
 2363              	.LVL257:
 2364 0000 2DE9F043 		push	{r4, r5, r6, r7, r8, r9, lr}
 2365              	.LCFI23:
 2366              		.cfi_def_cfa_offset 28
 2367              		.cfi_offset 14, -4
 2368              		.cfi_offset 9, -8
 2369              		.cfi_offset 8, -12
 2370              		.cfi_offset 7, -16
 2371              		.cfi_offset 6, -20
 2372              		.cfi_offset 5, -24
 2373              		.cfi_offset 4, -28
 2374 0004 85B0     		sub	sp, sp, #20
 2375              	.LCFI24:
 2376              		.cfi_def_cfa_offset 48
 2377              	.LBB123:
 2378              	.LBB124:
 2379              		.loc 1 199 0
 2380 0006 0328     		cmp	r0, #3
ARM GAS  /var/folders/5n/p_75w94d66l9ssrldxqdhh700000gn/T//cciPPkzE.s 			page 43


 2381              	.LBE124:
 2382              	.LBE123:
 2383              		.loc 1 790 0
 2384 0008 0646     		mov	r6, r0
 2385              	.LVL258:
 2386 000a 0F46     		mov	r7, r1
 2387 000c 1546     		mov	r5, r2
 2388 000e 0C9C     		ldr	r4, [sp, #48]
 2389 0010 DDF83490 		ldr	r9, [sp, #52]
 2390              	.LBB127:
 2391              	.LBB125:
 2392              		.loc 1 199 0
 2393 0014 2DD8     		bhi	.L255
 2394              	.LVL259:
 2395              		.loc 1 205 0
 2396 0016 00EB4006 		add	r6, r0, r0, lsl #1
 2397 001a DFF8D0C0 		ldr	ip, .L261+4
 2398 001e F600     		lsls	r6, r6, #3
 2399 0020 0CEB0608 		add	r8, ip, r6
 2400              	.LVL260:
 2401              		.loc 1 207 0
 2402 0024 5CF80660 		ldr	r6, [ip, r6]
 2403 0028 1EB3     		cbz	r6, .L255
 2404              	.LBE125:
 2405              	.LBE127:
 2406              		.loc 1 805 0
 2407 002a 3678     		ldrb	r6, [r6, #0]	@ zero_extendqisi2
 2408 002c 102E     		cmp	r6, #16
 2409 002e 50D0     		beq	.L258
 2410              		.loc 1 816 0
 2411 0030 B2F5803F 		cmp	r2, #65536
 2412 0034 43D2     		bcs	.L259
 2413              	.LVL261:
 2414              	.L246:
 2415              		.loc 1 818 0
 2416 0036 221C     		adds	r2, r4, #0
 2417 0038 18BF     		it	ne
 2418 003a 0122     		movne	r2, #1
 2419 003c B9F1000F 		cmp	r9, #0
 2420 0040 0CBF     		ite	eq
 2421 0042 1346     		moveq	r3, r2
 2422 0044 42F00103 		orrne	r3, r2, #1
 2423 0048 C3B1     		cbz	r3, .L247
 2424              		.loc 1 818 0 is_stmt 0 discriminator 1
 2425 004a B9F1100F 		cmp	r9, #16
 2426 004e 43D1     		bne	.L248
 2427              		.loc 1 818 0 discriminator 3
 2428 0050 6378     		ldrb	r3, [r4, #1]	@ zero_extendqisi2
 2429 0052 022B     		cmp	r3, #2
 2430 0054 40D1     		bne	.L248
 2431              		.loc 1 818 0 discriminator 4
 2432 0056 14F00303 		ands	r3, r4, #3
 2433 005a 3DD1     		bne	.L248
 2434              	.LVL262:
 2435              		.loc 1 883 0 is_stmt 1
 2436 005c 0193     		str	r3, [sp, #4]
 2437 005e 0093     		str	r3, [sp, #0]
ARM GAS  /var/folders/5n/p_75w94d66l9ssrldxqdhh700000gn/T//cciPPkzE.s 			page 44


 2438              		.loc 1 887 0
 2439 0060 72B1     		cbz	r2, .L250
 2440              		.loc 1 888 0
 2441 0062 6368     		ldr	r3, [r4, #4]
 2442              		.loc 1 889 0
 2443 0064 6088     		ldrh	r0, [r4, #2]
 2444              		.loc 1 888 0
 2445 0066 0293     		str	r3, [sp, #8]
 2446              		.loc 1 889 0
 2447 0068 FFF7FEFF 		bl	lwip_ntohs
 2448              	.LVL263:
 2449              		.loc 1 890 0
 2450 006c ADF80C00 		strh	r0, [sp, #12]	@ movhi
 2451 0070 0AE0     		b	.L251
 2452              	.LVL264:
 2453              	.L255:
 2454              	.LBB128:
 2455              	.LBB126:
 2456              		.loc 1 802 0
 2457 0072 4FF0FF30 		mov	r0, #-1
 2458              	.LVL265:
 2459              	.L244:
 2460              	.LBE126:
 2461              	.LBE128:
 2462              		.loc 1 932 0
 2463 0076 05B0     		add	sp, sp, #20
 2464 0078 BDE8F083 		pop	{r4, r5, r6, r7, r8, r9, pc}
 2465              	.LVL266:
 2466              	.L247:
 2467              		.loc 1 883 0
 2468 007c 0193     		str	r3, [sp, #4]
 2469 007e 0093     		str	r3, [sp, #0]
 2470              	.L250:
 2471              	.LVL267:
 2472              		.loc 1 893 0
 2473 0080 0023     		movs	r3, #0
 2474 0082 0293     		str	r3, [sp, #8]
 2475              		.loc 1 894 0
 2476 0084 ADF80C30 		strh	r3, [sp, #12]	@ movhi
 2477              	.LVL268:
 2478              	.L251:
 2479              		.loc 1 817 0
 2480 0088 ADB2     		uxth	r5, r5
 2481              	.LVL269:
 2482              		.loc 1 920 0
 2483 008a 6846     		mov	r0, sp
 2484 008c 3946     		mov	r1, r7
 2485 008e 2A46     		mov	r2, r5
 2486 0090 FFF7FEFF 		bl	netbuf_ref
 2487              	.LVL270:
 2488              		.loc 1 922 0
 2489 0094 0446     		mov	r4, r0
 2490 0096 A8B1     		cbz	r0, .L260
 2491              	.LVL271:
 2492              	.L252:
 2493              		.loc 1 928 0
 2494 0098 6846     		mov	r0, sp
ARM GAS  /var/folders/5n/p_75w94d66l9ssrldxqdhh700000gn/T//cciPPkzE.s 			page 45


 2495 009a FFF7FEFF 		bl	netbuf_free
 2496              		.loc 1 930 0
 2497 009e 63B2     		sxtb	r3, r4
 2498 00a0 5B42     		negs	r3, r3
 2499 00a2 0F2B     		cmp	r3, #15
 2500 00a4 9ABF     		itte	ls
 2501 00a6 104A     		ldrls	r2, .L261
 2502 00a8 52F82330 		ldrls	r3, [r2, r3, lsl #2]
 2503 00ac 0523     		movhi	r3, #5
 2504 00ae C8F81030 		str	r3, [r8, #16]
 2505              		.loc 1 931 0
 2506 00b2 002C     		cmp	r4, #0
 2507 00b4 0CBF     		ite	eq
 2508 00b6 2846     		moveq	r0, r5
 2509 00b8 4FF0FF30 		movne	r0, #-1
 2510 00bc DBE7     		b	.L244
 2511              	.LVL272:
 2512              	.L259:
 2513              		.loc 1 816 0 discriminator 1
 2514 00be FFF7FEFF 		bl	port_halt
 2515              	.LVL273:
 2516 00c2 B8E7     		b	.L246
 2517              	.LVL274:
 2518              	.L260:
 2519              		.loc 1 924 0
 2520 00c4 D8F80000 		ldr	r0, [r8, #0]
 2521              	.LVL275:
 2522 00c8 6946     		mov	r1, sp
 2523 00ca FFF7FEFF 		bl	netconn_send
 2524 00ce 0446     		mov	r4, r0
 2525              	.LVL276:
 2526 00d0 E2E7     		b	.L252
 2527              	.LVL277:
 2528              	.L258:
 2529              		.loc 1 807 0
 2530 00d2 FFF7FEFF 		bl	lwip_send
 2531              	.LVL278:
 2532 00d6 CEE7     		b	.L244
 2533              	.LVL279:
 2534              	.L248:
 2535              		.loc 1 818 0 discriminator 2
 2536 00d8 FFF7FEFF 		bl	port_halt
 2537 00dc 0523     		movs	r3, #5
 2538 00de C8F81030 		str	r3, [r8, #16]
 2539 00e2 4FF0FF30 		mov	r0, #-1
 2540 00e6 C6E7     		b	.L244
 2541              	.L262:
 2542              		.align	2
 2543              	.L261:
 2544 00e8 00000000 		.word	.LANCHOR0
 2545 00ec 00000000 		.word	.LANCHOR1
 2546              		.cfi_endproc
 2547              	.LFE21:
 2548              		.size	lwip_sendto, .-lwip_sendto
 2549              		.section	.text.lwip_send,"ax",%progbits
 2550              		.align	2
 2551              		.p2align 4,,15
ARM GAS  /var/folders/5n/p_75w94d66l9ssrldxqdhh700000gn/T//cciPPkzE.s 			page 46


 2552              		.global	lwip_send
 2553              		.thumb
 2554              		.thumb_func
 2555              		.type	lwip_send, %function
 2556              	lwip_send:
 2557              	.LFB20:
 2558              		.loc 1 747 0
 2559              		.cfi_startproc
 2560              		@ args = 0, pretend = 0, frame = 0
 2561              		@ frame_needed = 0, uses_anonymous_args = 0
 2562              	.LVL280:
 2563 0000 2DE9F041 		push	{r4, r5, r6, r7, r8, lr}
 2564              	.LCFI25:
 2565              		.cfi_def_cfa_offset 24
 2566              		.cfi_offset 14, -4
 2567              		.cfi_offset 8, -8
 2568              		.cfi_offset 7, -12
 2569              		.cfi_offset 6, -16
 2570              		.cfi_offset 5, -20
 2571              		.cfi_offset 4, -24
 2572              	.LBB129:
 2573              	.LBB130:
 2574              		.loc 1 199 0
 2575 0004 0328     		cmp	r0, #3
 2576              	.LBE130:
 2577              	.LBE129:
 2578              		.loc 1 747 0
 2579 0006 82B0     		sub	sp, sp, #8
 2580              	.LCFI26:
 2581              		.cfi_def_cfa_offset 32
 2582              		.loc 1 747 0
 2583 0008 0446     		mov	r4, r0
 2584              	.LVL281:
 2585 000a 8C46     		mov	ip, r1
 2586 000c 1646     		mov	r6, r2
 2587 000e 1D46     		mov	r5, r3
 2588              	.LBB133:
 2589              	.LBB131:
 2590              		.loc 1 199 0
 2591 0010 2DD8     		bhi	.L272
 2592              	.LVL282:
 2593              		.loc 1 205 0
 2594 0012 00EB4004 		add	r4, r0, r0, lsl #1
 2595 0016 204F     		ldr	r7, .L280
 2596 0018 E400     		lsls	r4, r4, #3
 2597 001a 07EB0408 		add	r8, r7, r4
 2598              	.LVL283:
 2599              		.loc 1 207 0
 2600 001e 3C59     		ldr	r4, [r7, r4]
 2601 0020 2CB3     		cbz	r4, .L272
 2602              	.LBE131:
 2603              	.LBE133:
 2604              		.loc 1 760 0
 2605 0022 2778     		ldrb	r7, [r4, #0]	@ zero_extendqisi2
 2606 0024 102F     		cmp	r7, #16
 2607 0026 2BD1     		bne	.L277
 2608              		.loc 1 769 0
ARM GAS  /var/folders/5n/p_75w94d66l9ssrldxqdhh700000gn/T//cciPPkzE.s 			page 47


 2609 0028 13F00803 		ands	r3, r3, #8
 2610              	.LVL284:
 2611 002c 24D0     		beq	.L278
 2612              	.LVL285:
 2613              	.L266:
 2614              		.loc 1 770 0
 2615 002e B6F5807F 		cmp	r6, #256
 2616 0032 2BD8     		bhi	.L279
 2617              	.L267:
 2618              		.loc 1 777 0
 2619 0034 15F0100F 		tst	r5, #16
 2620 0038 0CBF     		ite	eq
 2621 003a 0125     		moveq	r5, #1
 2622 003c 0325     		movne	r5, #3
 2623              	.LVL286:
 2624 003e 002B     		cmp	r3, #0
 2625 0040 18BF     		it	ne
 2626 0042 0423     		movne	r3, #4
 2627              	.LVL287:
 2628              		.loc 1 780 0
 2629 0044 3246     		mov	r2, r6
 2630 0046 2B43     		orrs	r3, r3, r5
 2631              	.LVL288:
 2632 0048 2046     		mov	r0, r4
 2633              	.LVL289:
 2634 004a 6146     		mov	r1, ip
 2635              	.LVL290:
 2636 004c FFF7FEFF 		bl	netconn_write
 2637              	.LVL291:
 2638              		.loc 1 783 0
 2639 0050 4342     		negs	r3, r0
 2640 0052 0F2B     		cmp	r3, #15
 2641 0054 9ABF     		itte	ls
 2642 0056 114A     		ldrls	r2, .L280+4
 2643 0058 52F82330 		ldrls	r3, [r2, r3, lsl #2]
 2644 005c 0523     		movhi	r3, #5
 2645 005e C8F81030 		str	r3, [r8, #16]
 2646              		.loc 1 784 0
 2647 0062 0028     		cmp	r0, #0
 2648 0064 0CBF     		ite	eq
 2649 0066 3046     		moveq	r0, r6
 2650 0068 4FF0FF30 		movne	r0, #-1
 2651              	.LVL292:
 2652 006c 01E0     		b	.L264
 2653              	.LVL293:
 2654              	.L272:
 2655              	.LBB134:
 2656              	.LBB132:
 2657              		.loc 1 757 0
 2658 006e 4FF0FF30 		mov	r0, #-1
 2659              	.LVL294:
 2660              	.L264:
 2661              	.LBE132:
 2662              	.LBE134:
 2663              		.loc 1 785 0
 2664 0072 02B0     		add	sp, sp, #8
 2665 0074 BDE8F081 		pop	{r4, r5, r6, r7, r8, pc}
ARM GAS  /var/folders/5n/p_75w94d66l9ssrldxqdhh700000gn/T//cciPPkzE.s 			page 48


 2666              	.LVL295:
 2667              	.L278:
 2668              		.loc 1 769 0 discriminator 1
 2669 0078 227F     		ldrb	r2, [r4, #28]	@ zero_extendqisi2
 2670 007a 9207     		lsls	r2, r2, #30
 2671 007c DAD5     		bpl	.L267
 2672 007e D6E7     		b	.L266
 2673              	.L277:
 2674              		.loc 1 762 0
 2675 0080 0024     		movs	r4, #0
 2676 0082 0094     		str	r4, [sp, #0]
 2677 0084 0194     		str	r4, [sp, #4]
 2678 0086 FFF7FEFF 		bl	lwip_sendto
 2679              	.LVL296:
 2680 008a F2E7     		b	.L264
 2681              	.LVL297:
 2682              	.L279:
 2683              		.loc 1 772 0
 2684 008c 5A23     		movs	r3, #90
 2685 008e C8F81030 		str	r3, [r8, #16]
 2686              		.loc 1 773 0
 2687 0092 4FF0FF30 		mov	r0, #-1
 2688              	.LVL298:
 2689 0096 ECE7     		b	.L264
 2690              	.L281:
 2691              		.align	2
 2692              	.L280:
 2693 0098 00000000 		.word	.LANCHOR1
 2694 009c 00000000 		.word	.LANCHOR0
 2695              		.cfi_endproc
 2696              	.LFE20:
 2697              		.size	lwip_send, .-lwip_send
 2698              		.section	.text.lwip_socket,"ax",%progbits
 2699              		.align	2
 2700              		.p2align 4,,15
 2701              		.global	lwip_socket
 2702              		.thumb
 2703              		.thumb_func
 2704              		.type	lwip_socket, %function
 2705              	lwip_socket:
 2706              	.LFB22:
 2707              		.loc 1 936 0
 2708              		.cfi_startproc
 2709              		@ args = 0, pretend = 0, frame = 0
 2710              		@ frame_needed = 0, uses_anonymous_args = 0
 2711              	.LVL299:
 2712              		.loc 1 943 0
 2713 0000 0229     		cmp	r1, #2
 2714              		.loc 1 936 0
 2715 0002 70B5     		push	{r4, r5, r6, lr}
 2716              	.LCFI27:
 2717              		.cfi_def_cfa_offset 16
 2718              		.cfi_offset 14, -4
 2719              		.cfi_offset 6, -8
 2720              		.cfi_offset 5, -12
 2721              		.cfi_offset 4, -16
 2722              		.loc 1 943 0
ARM GAS  /var/folders/5n/p_75w94d66l9ssrldxqdhh700000gn/T//cciPPkzE.s 			page 49


 2723 0004 2AD0     		beq	.L285
 2724 0006 0329     		cmp	r1, #3
 2725 0008 20D0     		beq	.L286
 2726 000a 0129     		cmp	r1, #1
 2727 000c 03D0     		beq	.L300
 2728              	.LVL300:
 2729              	.L296:
 2730              		.loc 1 974 0
 2731 000e 4FF0FF33 		mov	r3, #-1
 2732              		.loc 1 988 0
 2733 0012 1846     		mov	r0, r3
 2734 0014 70BD     		pop	{r4, r5, r6, pc}
 2735              	.LVL301:
 2736              	.L300:
 2737              		.loc 1 956 0
 2738 0016 1020     		movs	r0, #16
 2739              	.LVL302:
 2740 0018 0021     		movs	r1, #0
 2741              	.LVL303:
 2742 001a 214A     		ldr	r2, .L302
 2743              	.LVL304:
 2744 001c FFF7FEFF 		bl	netconn_new_with_proto_and_callback
 2745              	.LVL305:
 2746              		.loc 1 959 0
 2747 0020 0028     		cmp	r0, #0
 2748 0022 F4D0     		beq	.L296
 2749              		.loc 1 961 0 discriminator 1
 2750 0024 037F     		ldrb	r3, [r0, #28]	@ zero_extendqisi2
 2751 0026 43F00803 		orr	r3, r3, #8
 2752 002a 0377     		strb	r3, [r0, #28]
 2753              	.L289:
 2754              	.LVL306:
 2755              		.loc 1 950 0
 2756 002c 0022     		movs	r2, #0
 2757 002e 1D4C     		ldr	r4, .L302+4
 2758 0030 1346     		mov	r3, r2
 2759              	.LVL307:
 2760              	.L291:
 2761              	.LBB135:
 2762              	.LBB136:
 2763              		.loc 1 252 0
 2764 0032 A158     		ldr	r1, [r4, r2]
 2765 0034 1B4D     		ldr	r5, .L302+4
 2766              		.loc 1 249 0
 2767 0036 1832     		adds	r2, r2, #24
 2768              		.loc 1 252 0
 2769 0038 D9B1     		cbz	r1, .L301
 2770              		.loc 1 249 0
 2771 003a 0133     		adds	r3, r3, #1
 2772              	.LVL308:
 2773 003c 042B     		cmp	r3, #4
 2774 003e F8D1     		bne	.L291
 2775              	.LBE136:
 2776              	.LBE135:
 2777              		.loc 1 980 0
 2778 0040 FFF7FEFF 		bl	netconn_delete
 2779              	.LVL309:
ARM GAS  /var/folders/5n/p_75w94d66l9ssrldxqdhh700000gn/T//cciPPkzE.s 			page 50


 2780              		.loc 1 982 0
 2781 0044 4FF0FF33 		mov	r3, #-1
 2782              		.loc 1 988 0
 2783 0048 1846     		mov	r0, r3
 2784 004a 70BD     		pop	{r4, r5, r6, pc}
 2785              	.LVL310:
 2786              	.L286:
 2787              		.loc 1 945 0
 2788 004c D1B2     		uxtb	r1, r2
 2789              	.LVL311:
 2790 004e 4020     		movs	r0, #64
 2791              	.LVL312:
 2792 0050 134A     		ldr	r2, .L302
 2793              	.LVL313:
 2794 0052 FFF7FEFF 		bl	netconn_new_with_proto_and_callback
 2795              	.LVL314:
 2796              		.loc 1 971 0
 2797 0056 0028     		cmp	r0, #0
 2798 0058 E8D1     		bne	.L289
 2799 005a D8E7     		b	.L296
 2800              	.LVL315:
 2801              	.L285:
 2802              		.loc 1 950 0
 2803 005c 882A     		cmp	r2, #136
 2804 005e 14BF     		ite	ne
 2805 0060 2020     		movne	r0, #32
 2806 0062 2120     		moveq	r0, #33
 2807              	.LVL316:
 2808 0064 0021     		movs	r1, #0
 2809              	.LVL317:
 2810 0066 0E4A     		ldr	r2, .L302
 2811              	.LVL318:
 2812 0068 FFF7FEFF 		bl	netconn_new_with_proto_and_callback
 2813              	.LVL319:
 2814              		.loc 1 971 0
 2815 006c 0028     		cmp	r0, #0
 2816 006e DDD1     		bne	.L289
 2817 0070 CDE7     		b	.L296
 2818              	.L301:
 2819              	.LBB138:
 2820              	.LBB137:
 2821              		.loc 1 253 0
 2822 0072 03EB4304 		add	r4, r3, r3, lsl #1
 2823              		.loc 1 262 0
 2824 0076 0678     		ldrb	r6, [r0, #0]	@ zero_extendqisi2
 2825              		.loc 1 253 0
 2826 0078 E400     		lsls	r4, r4, #3
 2827 007a 2A19     		adds	r2, r5, r4
 2828 007c 2851     		str	r0, [r5, r4]
 2829              		.loc 1 262 0
 2830 007e B6F11005 		subs	r5, r6, #16
 2831 0082 18BF     		it	ne
 2832 0084 0125     		movne	r5, #1
 2833              		.loc 1 257 0
 2834 0086 5160     		str	r1, [r2, #4]
 2835              		.loc 1 258 0
 2836 0088 1181     		strh	r1, [r2, #8]	@ movhi
ARM GAS  /var/folders/5n/p_75w94d66l9ssrldxqdhh700000gn/T//cciPPkzE.s 			page 51


 2837              		.loc 1 259 0
 2838 008a 5181     		strh	r1, [r2, #10]	@ movhi
 2839              		.loc 1 262 0
 2840 008c 9581     		strh	r5, [r2, #12]	@ movhi
 2841              		.loc 1 263 0
 2842 008e D181     		strh	r1, [r2, #14]	@ movhi
 2843              		.loc 1 264 0
 2844 0090 1161     		str	r1, [r2, #16]
 2845              		.loc 1 265 0
 2846 0092 5161     		str	r1, [r2, #20]
 2847              		.loc 1 258 0
 2848 0094 02F10804 		add	r4, r2, #8
 2849              	.LBE137:
 2850              	.LBE138:
 2851              		.loc 1 984 0
 2852 0098 8361     		str	r3, [r0, #24]
 2853              		.loc 1 988 0
 2854 009a 1846     		mov	r0, r3
 2855              	.LVL320:
 2856 009c 70BD     		pop	{r4, r5, r6, pc}
 2857              	.L303:
 2858 009e 00BF     		.align	2
 2859              	.L302:
 2860 00a0 00000000 		.word	event_callback
 2861 00a4 00000000 		.word	.LANCHOR1
 2862              		.cfi_endproc
 2863              	.LFE22:
 2864              		.size	lwip_socket, .-lwip_socket
 2865 00a8 AFF30080 		.section	.text.lwip_write,"ax",%progbits
 2865      AFF30080 
 2866              		.align	2
 2867              		.p2align 4,,15
 2868              		.global	lwip_write
 2869              		.thumb
 2870              		.thumb_func
 2871              		.type	lwip_write, %function
 2872              	lwip_write:
 2873              	.LFB23:
 2874              		.loc 1 992 0
 2875              		.cfi_startproc
 2876              		@ args = 0, pretend = 0, frame = 0
 2877              		@ frame_needed = 0, uses_anonymous_args = 0
 2878              		@ link register save eliminated.
 2879              	.LVL321:
 2880              		.loc 1 993 0
 2881 0000 0023     		movs	r3, #0
 2882              		.loc 1 994 0
 2883              		.loc 1 993 0
 2884 0002 FFF7FEBF 		b	lwip_send
 2885              	.LVL322:
 2886              	.LVL323:
 2887              	.LVL324:
 2888              		.cfi_endproc
 2889              	.LFE23:
 2890              		.size	lwip_write, .-lwip_write
 2891 0006 00BFAFF3 		.section	.text.lwip_select,"ax",%progbits
 2891      0080AFF3 
ARM GAS  /var/folders/5n/p_75w94d66l9ssrldxqdhh700000gn/T//cciPPkzE.s 			page 52


 2891      0080
 2892              		.align	2
 2893              		.p2align 4,,15
 2894              		.global	lwip_select
 2895              		.thumb
 2896              		.thumb_func
 2897              		.type	lwip_select, %function
 2898              	lwip_select:
 2899              	.LFB25:
 2900              		.loc 1 1077 0
 2901              		.cfi_startproc
 2902              		@ args = 4, pretend = 0, frame = 64
 2903              		@ frame_needed = 0, uses_anonymous_args = 0
 2904              	.LVL325:
 2905 0000 2DE9F04F 		push	{r4, r5, r6, r7, r8, r9, sl, fp, lr}
 2906              	.LCFI28:
 2907              		.cfi_def_cfa_offset 36
 2908              		.cfi_offset 14, -4
 2909              		.cfi_offset 11, -8
 2910              		.cfi_offset 10, -12
 2911              		.cfi_offset 9, -16
 2912              		.cfi_offset 8, -20
 2913              		.cfi_offset 7, -24
 2914              		.cfi_offset 6, -28
 2915              		.cfi_offset 5, -32
 2916              		.cfi_offset 4, -36
 2917 0004 95B0     		sub	sp, sp, #84
 2918              	.LCFI29:
 2919              		.cfi_def_cfa_offset 120
 2920              		.loc 1 1094 0
 2921 0006 0DF14408 		add	r8, sp, #68
 2922 000a 0DF14809 		add	r9, sp, #72
 2923 000e 0DF14C0A 		add	sl, sp, #76
 2924              		.loc 1 1077 0
 2925 0012 0490     		str	r0, [sp, #16]
 2926 0014 0C46     		mov	r4, r1
 2927 0016 1546     		mov	r5, r2
 2928 0018 1E46     		mov	r6, r3
 2929              		.loc 1 1094 0
 2930 001a 8DE80007 		stmia	sp, {r8, r9, sl}
 2931 001e FFF7FEFF 		bl	lwip_selscan
 2932              	.LVL326:
 2933              		.loc 1 1097 0
 2934 0022 8346     		mov	fp, r0
 2935 0024 0028     		cmp	r0, #0
 2936 0026 40F0F380 		bne	.L306
 2937              		.loc 1 1098 0
 2938 002a 1E9F     		ldr	r7, [sp, #120]
 2939 002c 2FB1     		cbz	r7, .L307
 2940              		.loc 1 1098 0 is_stmt 0 discriminator 1
 2941 002e 3B68     		ldr	r3, [r7, #0]
 2942 0030 1BB9     		cbnz	r3, .L307
 2943 0032 7B68     		ldr	r3, [r7, #4]
 2944 0034 002B     		cmp	r3, #0
 2945 0036 00F0EB80 		beq	.L306
 2946              	.L307:
 2947              		.loc 1 1110 0 is_stmt 1
ARM GAS  /var/folders/5n/p_75w94d66l9ssrldxqdhh700000gn/T//cciPPkzE.s 			page 53


 2948 003a 0023     		movs	r3, #0
 2949              		.loc 1 1116 0
 2950 003c 10A8     		add	r0, sp, #64
 2951              	.LVL327:
 2952 003e 1946     		mov	r1, r3
 2953 0040 0AAF     		add	r7, sp, #40
 2954              		.loc 1 1110 0
 2955 0042 0A93     		str	r3, [sp, #40]
 2956              		.loc 1 1111 0
 2957 0044 0B93     		str	r3, [sp, #44]
 2958              		.loc 1 1112 0
 2959 0046 0C94     		str	r4, [sp, #48]
 2960              		.loc 1 1113 0
 2961 0048 0D95     		str	r5, [sp, #52]
 2962              		.loc 1 1114 0
 2963 004a 0E96     		str	r6, [sp, #56]
 2964              		.loc 1 1115 0
 2965 004c 0F93     		str	r3, [sp, #60]
 2966              		.loc 1 1116 0
 2967 004e 0897     		str	r7, [sp, #32]
 2968 0050 FFF7FEFF 		bl	sys_sem_new
 2969              	.LVL328:
 2970              		.loc 1 1120 0
 2971 0054 4FF0FF3B 		mov	fp, #-1
 2972              	.LVL329:
 2973              		.loc 1 1117 0
 2974 0058 0028     		cmp	r0, #0
 2975 005a 40F0E580 		bne	.L308
 2976              		.loc 1 1127 0
 2977 005e 40F20001 		movw	r1, #:lower16:.LANCHOR2
 2978 0062 C0F20001 		movt	r1, #:upper16:.LANCHOR2
 2979 0066 0B68     		ldr	r3, [r1, #0]
 2980 0068 0A93     		str	r3, [sp, #40]
 2981              		.loc 1 1128 0
 2982 006a 0BB1     		cbz	r3, .L309
 2983              		.loc 1 1129 0
 2984 006c 0AAA     		add	r2, sp, #40
 2985 006e 5A60     		str	r2, [r3, #4]
 2986              	.L309:
 2987              		.loc 1 1131 0
 2988 0070 40F20007 		movw	r7, #:lower16:.LANCHOR2
 2989              		.loc 1 1133 0
 2990 0074 40F20001 		movw	r1, #:lower16:.LANCHOR3
 2991 0078 C0F20001 		movt	r1, #:upper16:.LANCHOR3
 2992              		.loc 1 1131 0
 2993 007c C0F20007 		movt	r7, #:upper16:.LANCHOR2
 2994 0080 0AAB     		add	r3, sp, #40
 2995 0082 3B60     		str	r3, [r7, #0]
 2996              		.loc 1 1139 0
 2997 0084 049A     		ldr	r2, [sp, #16]
 2998              		.loc 1 1133 0
 2999 0086 0B68     		ldr	r3, [r1, #0]
 3000 0088 0133     		adds	r3, r3, #1
 3001              		.loc 1 1139 0
 3002 008a 002A     		cmp	r2, #0
 3003              		.loc 1 1133 0
 3004 008c 0B60     		str	r3, [r1, #0]
ARM GAS  /var/folders/5n/p_75w94d66l9ssrldxqdhh700000gn/T//cciPPkzE.s 			page 54


 3005              	.LVL330:
 3006              		.loc 1 1139 0
 3007 008e 46DD     		ble	.L310
 3008 0090 0023     		movs	r3, #0
 3009 0092 3146     		mov	r1, r6
 3010              	.LBB139:
 3011              	.LBB140:
 3012              	.LBB141:
 3013              		.loc 1 228 0
 3014 0094 964A     		ldr	r2, .L350
 3015              	.LBE141:
 3016              	.LBE140:
 3017              	.LBE139:
 3018              		.loc 1 1139 0
 3019 0096 049F     		ldr	r7, [sp, #16]
 3020 0098 9B46     		mov	fp, r3
 3021 009a 2E46     		mov	r6, r5
 3022              	.LVL331:
 3023 009c 2546     		mov	r5, r4
 3024              	.LVL332:
 3025 009e 1C46     		mov	r4, r3
 3026              	.LVL333:
 3027 00a0 0B46     		mov	r3, r1
 3028              	.LVL334:
 3029              	.L317:
 3030              		.loc 1 1140 0
 3031 00a2 FDB1     		cbz	r5, .L311
 3032              		.loc 1 1140 0 is_stmt 0 discriminator 1
 3033 00a4 4FEAEB00 		asr	r0, fp, #3
 3034 00a8 0BF00701 		and	r1, fp, #7
 3035 00ac 285C     		ldrb	r0, [r5, r0]	@ zero_extendqisi2
 3036 00ae 50FA01F1 		asrs	r1, r0, r1
 3037 00b2 C907     		lsls	r1, r1, #31
 3038 00b4 16D5     		bpl	.L311
 3039              	.L312:
 3040              	.LVL335:
 3041              	.LBB146:
 3042              	.LBB144:
 3043              	.LBB142:
 3044              		.loc 1 225 0 is_stmt 1
 3045 00b6 BBF1030F 		cmp	fp, #3
 3046 00ba 40F2B980 		bls	.L343
 3047              	.L315:
 3048              	.LBE142:
 3049              	.LBE144:
 3050              		.loc 1 1144 0 discriminator 1
 3051 00be 0692     		str	r2, [sp, #24]
 3052 00c0 0593     		str	r3, [sp, #20]
 3053 00c2 FFF7FEFF 		bl	port_halt
 3054 00c6 0020     		movs	r0, #0
 3055 00c8 059B     		ldr	r3, [sp, #20]
 3056              		.loc 1 1146 0 discriminator 1
 3057 00ca 4169     		ldr	r1, [r0, #20]
 3058              		.loc 1 1144 0 discriminator 1
 3059 00cc 069A     		ldr	r2, [sp, #24]
 3060              		.loc 1 1146 0 discriminator 1
 3061 00ce 0131     		adds	r1, r1, #1
ARM GAS  /var/folders/5n/p_75w94d66l9ssrldxqdhh700000gn/T//cciPPkzE.s 			page 55


 3062              		.loc 1 1147 0 discriminator 1
 3063 00d0 0029     		cmp	r1, #0
 3064              		.loc 1 1146 0 discriminator 1
 3065 00d2 4161     		str	r1, [r0, #20]
 3066              		.loc 1 1147 0 discriminator 1
 3067 00d4 1ADC     		bgt	.L314
 3068              	.L349:
 3069 00d6 0692     		str	r2, [sp, #24]
 3070 00d8 0593     		str	r3, [sp, #20]
 3071 00da FFF7FEFF 		bl	port_halt
 3072 00de 059B     		ldr	r3, [sp, #20]
 3073 00e0 069A     		ldr	r2, [sp, #24]
 3074 00e2 13E0     		b	.L314
 3075              	.LVL336:
 3076              	.L311:
 3077              	.LBE146:
 3078              		.loc 1 1140 0 discriminator 2
 3079 00e4 46B1     		cbz	r6, .L313
 3080              		.loc 1 1141 0
 3081 00e6 4FEAEB00 		asr	r0, fp, #3
 3082 00ea 0BF00701 		and	r1, fp, #7
 3083 00ee 305C     		ldrb	r0, [r6, r0]	@ zero_extendqisi2
 3084 00f0 50FA01F1 		asrs	r1, r0, r1
 3085 00f4 C807     		lsls	r0, r1, #31
 3086 00f6 DED4     		bmi	.L312
 3087              	.L313:
 3088              		.loc 1 1141 0 is_stmt 0 discriminator 1
 3089 00f8 43B1     		cbz	r3, .L314
 3090              		.loc 1 1142 0 is_stmt 1
 3091 00fa 4FEAEB00 		asr	r0, fp, #3
 3092 00fe 0BF00701 		and	r1, fp, #7
 3093 0102 185C     		ldrb	r0, [r3, r0]	@ zero_extendqisi2
 3094 0104 50FA01F1 		asrs	r1, r0, r1
 3095 0108 C907     		lsls	r1, r1, #31
 3096 010a D4D4     		bmi	.L312
 3097              	.L314:
 3098              		.loc 1 1139 0
 3099 010c 0BF1010B 		add	fp, fp, #1
 3100              	.LVL337:
 3101 0110 1834     		adds	r4, r4, #24
 3102 0112 BB45     		cmp	fp, r7
 3103 0114 C5D1     		bne	.L317
 3104 0116 2C46     		mov	r4, r5
 3105 0118 0497     		str	r7, [sp, #16]
 3106 011a 3546     		mov	r5, r6
 3107              	.LVL338:
 3108 011c 1E46     		mov	r6, r3
 3109              	.LVL339:
 3110              	.L310:
 3111              		.loc 1 1154 0
 3112 011e 0498     		ldr	r0, [sp, #16]
 3113 0120 2146     		mov	r1, r4
 3114 0122 2A46     		mov	r2, r5
 3115 0124 3346     		mov	r3, r6
 3116 0126 8DE80007 		stmia	sp, {r8, r9, sl}
 3117 012a FFF7FEFF 		bl	lwip_selscan
 3118              	.LVL340:
ARM GAS  /var/folders/5n/p_75w94d66l9ssrldxqdhh700000gn/T//cciPPkzE.s 			page 56


 3119              		.loc 1 1155 0
 3120 012e 8346     		mov	fp, r0
 3121 0130 0028     		cmp	r0, #0
 3122 0132 00F0B180 		beq	.L344
 3123              		.loc 1 1078 0
 3124 0136 0022     		movs	r2, #0
 3125 0138 0992     		str	r2, [sp, #36]
 3126              	.LVL341:
 3127              	.L318:
 3128              		.loc 1 1171 0
 3129 013a 049B     		ldr	r3, [sp, #16]
 3130 013c 002B     		cmp	r3, #0
 3131 013e 40DD     		ble	.L320
 3132 0140 0022     		movs	r2, #0
 3133 0142 1346     		mov	r3, r2
 3134 0144 2846     		mov	r0, r5
 3135 0146 B646     		mov	lr, r6
 3136 0148 1546     		mov	r5, r2
 3137              	.LVL342:
 3138              	.LBB147:
 3139              	.LBB148:
 3140              	.LBB149:
 3141              		.loc 1 228 0
 3142 014a 6949     		ldr	r1, .L350
 3143              	.LBE149:
 3144              	.LBE148:
 3145              	.LBE147:
 3146              		.loc 1 1171 0
 3147 014c 5A46     		mov	r2, fp
 3148 014e DDF810B0 		ldr	fp, [sp, #16]
 3149              	.LVL343:
 3150 0152 2646     		mov	r6, r4
 3151 0154 0746     		mov	r7, r0
 3152 0156 1C46     		mov	r4, r3
 3153              	.LVL344:
 3154 0158 7346     		mov	r3, lr
 3155              	.LVL345:
 3156              	.L327:
 3157              		.loc 1 1172 0
 3158 015a 4EB1     		cbz	r6, .L321
 3159              		.loc 1 1172 0 is_stmt 0 discriminator 1
 3160 015c 4FEAE40E 		asr	lr, r4, #3
 3161 0160 04F00700 		and	r0, r4, #7
 3162 0164 16F80EE0 		ldrb	lr, [r6, lr]	@ zero_extendqisi2
 3163 0168 4EFA00F0 		asr	r0, lr, r0
 3164 016c C007     		lsls	r0, r0, #31
 3165 016e 0BD4     		bmi	.L322
 3166              	.L321:
 3167              		.loc 1 1172 0 discriminator 2
 3168 0170 002F     		cmp	r7, #0
 3169 0172 6CD0     		beq	.L323
 3170              		.loc 1 1173 0 is_stmt 1
 3171 0174 4FEAE40E 		asr	lr, r4, #3
 3172 0178 04F00700 		and	r0, r4, #7
 3173 017c 17F80EE0 		ldrb	lr, [r7, lr]	@ zero_extendqisi2
 3174 0180 4EFA00F0 		asr	r0, lr, r0
 3175 0184 C007     		lsls	r0, r0, #31
ARM GAS  /var/folders/5n/p_75w94d66l9ssrldxqdhh700000gn/T//cciPPkzE.s 			page 57


 3176 0186 62D5     		bpl	.L323
 3177              	.L322:
 3178              	.LVL346:
 3179              	.LBB154:
 3180              	.LBB152:
 3181              	.LBB150:
 3182              		.loc 1 225 0
 3183 0188 032C     		cmp	r4, #3
 3184 018a 6ED9     		bls	.L345
 3185              	.L325:
 3186              	.LBE150:
 3187              	.LBE152:
 3188              		.loc 1 1176 0 discriminator 1
 3189 018c 0791     		str	r1, [sp, #28]
 3190 018e 0692     		str	r2, [sp, #24]
 3191 0190 0593     		str	r3, [sp, #20]
 3192 0192 FFF7FEFF 		bl	port_halt
 3193 0196 4FF0000E 		mov	lr, #0
 3194 019a 059B     		ldr	r3, [sp, #20]
 3195              		.loc 1 1178 0 discriminator 1
 3196 019c DEF81400 		ldr	r0, [lr, #20]
 3197              		.loc 1 1176 0 discriminator 1
 3198 01a0 069A     		ldr	r2, [sp, #24]
 3199 01a2 0799     		ldr	r1, [sp, #28]
 3200              		.loc 1 1178 0 discriminator 1
 3201 01a4 0138     		subs	r0, r0, #1
 3202              		.loc 1 1179 0 discriminator 1
 3203 01a6 0028     		cmp	r0, #0
 3204              		.loc 1 1178 0 discriminator 1
 3205 01a8 CEF81400 		str	r0, [lr, #20]
 3206              		.loc 1 1179 0 discriminator 1
 3207 01ac 6BDB     		blt	.L346
 3208              	.LVL347:
 3209              	.L324:
 3210              	.LBE154:
 3211              		.loc 1 1171 0
 3212 01ae 0134     		adds	r4, r4, #1
 3213              	.LVL348:
 3214 01b0 1835     		adds	r5, r5, #24
 3215 01b2 5C45     		cmp	r4, fp
 3216 01b4 D1D1     		bne	.L327
 3217 01b6 3446     		mov	r4, r6
 3218              	.LVL349:
 3219 01b8 CDF810B0 		str	fp, [sp, #16]
 3220 01bc 3D46     		mov	r5, r7
 3221 01be 9346     		mov	fp, r2
 3222 01c0 1E46     		mov	r6, r3
 3223              	.LVL350:
 3224              	.L320:
 3225              		.loc 1 1185 0
 3226 01c2 0A9B     		ldr	r3, [sp, #40]
 3227 01c4 0BB1     		cbz	r3, .L328
 3228              		.loc 1 1186 0
 3229 01c6 0B9A     		ldr	r2, [sp, #44]
 3230 01c8 5A60     		str	r2, [r3, #4]
 3231              	.L328:
 3232              		.loc 1 1188 0
ARM GAS  /var/folders/5n/p_75w94d66l9ssrldxqdhh700000gn/T//cciPPkzE.s 			page 58


 3233 01ca 40F20007 		movw	r7, #:lower16:.LANCHOR2
 3234 01ce C0F20007 		movt	r7, #:upper16:.LANCHOR2
 3235 01d2 3A68     		ldr	r2, [r7, #0]
 3236 01d4 089F     		ldr	r7, [sp, #32]
 3237 01d6 BA42     		cmp	r2, r7
 3238              		.loc 1 1189 0
 3239 01d8 0B9A     		ldr	r2, [sp, #44]
 3240              		.loc 1 1188 0
 3241 01da 79D0     		beq	.L347
 3242              		.loc 1 1192 0
 3243 01dc 002A     		cmp	r2, #0
 3244 01de 00F08180 		beq	.L348
 3245              	.L332:
 3246              		.loc 1 1193 0
 3247 01e2 1360     		str	r3, [r2, #0]
 3248              	.L331:
 3249              		.loc 1 1196 0
 3250 01e4 40F20002 		movw	r2, #:lower16:.LANCHOR3
 3251 01e8 C0F20002 		movt	r2, #:upper16:.LANCHOR3
 3252              		.loc 1 1199 0
 3253 01ec 10A8     		add	r0, sp, #64
 3254              		.loc 1 1196 0
 3255 01ee 1368     		ldr	r3, [r2, #0]
 3256 01f0 0133     		adds	r3, r3, #1
 3257 01f2 1360     		str	r3, [r2, #0]
 3258              		.loc 1 1199 0
 3259 01f4 FFF7FEFF 		bl	sys_sem_free
 3260              		.loc 1 1200 0
 3261 01f8 099B     		ldr	r3, [sp, #36]
 3262 01fa 0133     		adds	r3, r3, #1
 3263 01fc 08D0     		beq	.L306
 3264              		.loc 1 1209 0
 3265 01fe 0498     		ldr	r0, [sp, #16]
 3266 0200 2146     		mov	r1, r4
 3267 0202 2A46     		mov	r2, r5
 3268 0204 3346     		mov	r3, r6
 3269 0206 8DE80007 		stmia	sp, {r8, r9, sl}
 3270 020a FFF7FEFF 		bl	lwip_selscan
 3271 020e 8346     		mov	fp, r0
 3272              	.LVL351:
 3273              	.L306:
 3274              		.loc 1 1215 0
 3275 0210 14B1     		cbz	r4, .L333
 3276              		.loc 1 1216 0
 3277 0212 9DF84430 		ldrb	r3, [sp, #68]	@ zero_extendqisi2
 3278 0216 2370     		strb	r3, [r4, #0]
 3279              	.L333:
 3280              		.loc 1 1218 0
 3281 0218 15B1     		cbz	r5, .L334
 3282              		.loc 1 1219 0
 3283 021a 9DF84830 		ldrb	r3, [sp, #72]	@ zero_extendqisi2
 3284 021e 2B70     		strb	r3, [r5, #0]
 3285              	.L334:
 3286              		.loc 1 1221 0
 3287 0220 16B1     		cbz	r6, .L308
 3288              		.loc 1 1222 0
 3289 0222 9DF84C30 		ldrb	r3, [sp, #76]	@ zero_extendqisi2
ARM GAS  /var/folders/5n/p_75w94d66l9ssrldxqdhh700000gn/T//cciPPkzE.s 			page 59


 3290 0226 3370     		strb	r3, [r6, #0]
 3291              	.LVL352:
 3292              	.L308:
 3293              		.loc 1 1227 0
 3294 0228 5846     		mov	r0, fp
 3295 022a 15B0     		add	sp, sp, #84
 3296 022c BDE8F08F 		pop	{r4, r5, r6, r7, r8, r9, sl, fp, pc}
 3297              	.LVL353:
 3298              	.L343:
 3299              	.LBB155:
 3300              	.LBB145:
 3301              	.LBB143:
 3302              		.loc 1 228 0
 3303 0230 A158     		ldr	r1, [r4, r2]
 3304              		.loc 1 231 0
 3305 0232 0BEB4B00 		add	r0, fp, fp, lsl #1
 3306 0236 02EBC000 		add	r0, r2, r0, lsl #3
 3307              		.loc 1 228 0
 3308 023a 0029     		cmp	r1, #0
 3309 023c 3FF43FAF 		beq	.L315
 3310              	.LBE143:
 3311              	.LBE145:
 3312              		.loc 1 1146 0
 3313 0240 4169     		ldr	r1, [r0, #20]
 3314 0242 0131     		adds	r1, r1, #1
 3315              		.loc 1 1147 0
 3316 0244 0029     		cmp	r1, #0
 3317              		.loc 1 1146 0
 3318 0246 4161     		str	r1, [r0, #20]
 3319              		.loc 1 1147 0
 3320 0248 3FF760AF 		bgt	.L314
 3321 024c 43E7     		b	.L349
 3322              	.LVL354:
 3323              	.L323:
 3324              	.LBE155:
 3325              		.loc 1 1173 0 discriminator 1
 3326 024e 002B     		cmp	r3, #0
 3327 0250 ADD0     		beq	.L324
 3328              		.loc 1 1174 0
 3329 0252 4FEAE40E 		asr	lr, r4, #3
 3330 0256 04F00700 		and	r0, r4, #7
 3331 025a 13F80EE0 		ldrb	lr, [r3, lr]	@ zero_extendqisi2
 3332 025e 4EFA00F0 		asr	r0, lr, r0
 3333 0262 C007     		lsls	r0, r0, #31
 3334 0264 A3D5     		bpl	.L324
 3335              	.LVL355:
 3336              	.LBB156:
 3337              	.LBB153:
 3338              	.LBB151:
 3339              		.loc 1 225 0
 3340 0266 032C     		cmp	r4, #3
 3341 0268 90D8     		bhi	.L325
 3342              	.L345:
 3343              		.loc 1 228 0
 3344 026a 6858     		ldr	r0, [r5, r1]
 3345              		.loc 1 231 0
 3346 026c 04EB440E 		add	lr, r4, r4, lsl #1
ARM GAS  /var/folders/5n/p_75w94d66l9ssrldxqdhh700000gn/T//cciPPkzE.s 			page 60


 3347 0270 01EBCE0E 		add	lr, r1, lr, lsl #3
 3348              		.loc 1 228 0
 3349 0274 0028     		cmp	r0, #0
 3350 0276 89D0     		beq	.L325
 3351              	.LBE151:
 3352              	.LBE153:
 3353              		.loc 1 1178 0
 3354 0278 DEF81400 		ldr	r0, [lr, #20]
 3355 027c 0138     		subs	r0, r0, #1
 3356              		.loc 1 1179 0
 3357 027e 0028     		cmp	r0, #0
 3358              		.loc 1 1178 0
 3359 0280 CEF81400 		str	r0, [lr, #20]
 3360              		.loc 1 1179 0
 3361 0284 93DA     		bge	.L324
 3362              	.L346:
 3363              		.loc 1 1179 0 is_stmt 0 discriminator 1
 3364 0286 0791     		str	r1, [sp, #28]
 3365 0288 0692     		str	r2, [sp, #24]
 3366 028a 0593     		str	r3, [sp, #20]
 3367 028c FFF7FEFF 		bl	port_halt
 3368 0290 059B     		ldr	r3, [sp, #20]
 3369 0292 069A     		ldr	r2, [sp, #24]
 3370 0294 0799     		ldr	r1, [sp, #28]
 3371 0296 8AE7     		b	.L324
 3372              	.LVL356:
 3373              	.L344:
 3374              	.LBE156:
 3375              		.loc 1 1157 0 is_stmt 1
 3376 0298 1E9F     		ldr	r7, [sp, #120]
 3377              		.loc 1 1159 0
 3378 029a 0146     		mov	r1, r0
 3379              		.loc 1 1157 0
 3380 029c 9FB1     		cbz	r7, .L319
 3381              		.loc 1 1161 0
 3382 029e 97E80500 		ldmia	r7, {r0, r2}
 3383              	.LVL357:
 3384 02a2 44F6D353 		movw	r3, #19923
 3385 02a6 02F5FA72 		add	r2, r2, #500
 3386 02aa C1F26203 		movt	r3, 4194
 3387 02ae 83FB0213 		smull	r1, r3, r3, r2
 3388              	.LVL358:
 3389 02b2 D217     		asrs	r2, r2, #31
 3390 02b4 C2EBA312 		rsb	r2, r2, r3, asr #6
 3391 02b8 4FF47A71 		mov	r1, #1000
 3392 02bc 01FB0021 		mla	r1, r1, r0, r2
 3393              	.LVL359:
 3394              		.loc 1 1164 0
 3395 02c0 0029     		cmp	r1, #0
 3396 02c2 08BF     		it	eq
 3397 02c4 0121     		moveq	r1, #1
 3398              	.LVL360:
 3399              	.L319:
 3400              		.loc 1 1168 0
 3401 02c6 10A8     		add	r0, sp, #64
 3402 02c8 FFF7FEFF 		bl	sys_arch_sem_wait
 3403              	.LVL361:
ARM GAS  /var/folders/5n/p_75w94d66l9ssrldxqdhh700000gn/T//cciPPkzE.s 			page 61


 3404 02cc 0990     		str	r0, [sp, #36]
 3405              	.LVL362:
 3406 02ce 34E7     		b	.L318
 3407              	.LVL363:
 3408              	.L347:
 3409              		.loc 1 1189 0
 3410 02d0 12B1     		cbz	r2, .L330
 3411              		.loc 1 1189 0 is_stmt 0 discriminator 1
 3412 02d2 FFF7FEFF 		bl	port_halt
 3413 02d6 0A9B     		ldr	r3, [sp, #40]
 3414              	.L330:
 3415              		.loc 1 1190 0 is_stmt 1
 3416 02d8 40F20001 		movw	r1, #:lower16:.LANCHOR2
 3417 02dc C0F20001 		movt	r1, #:upper16:.LANCHOR2
 3418 02e0 0B60     		str	r3, [r1, #0]
 3419 02e2 7FE7     		b	.L331
 3420              	.L348:
 3421              		.loc 1 1192 0 discriminator 1
 3422 02e4 FFF7FEFF 		bl	port_halt
 3423 02e8 0B9A     		ldr	r2, [sp, #44]
 3424 02ea 0A9B     		ldr	r3, [sp, #40]
 3425 02ec 79E7     		b	.L332
 3426              	.L351:
 3427 02ee 00BF     		.align	2
 3428              	.L350:
 3429 02f0 00000000 		.word	.LANCHOR1
 3430              		.cfi_endproc
 3431              	.LFE25:
 3432              		.size	lwip_select, .-lwip_select
 3433 02f4 AFF30080 		.section	.text.lwip_shutdown,"ax",%progbits
 3433      AFF30080 
 3433      AFF30080 
 3434              		.align	2
 3435              		.p2align 4,,15
 3436              		.global	lwip_shutdown
 3437              		.thumb
 3438              		.thumb_func
 3439              		.type	lwip_shutdown, %function
 3440              	lwip_shutdown:
 3441              	.LFB27:
 3442              		.loc 1 1355 0
 3443              		.cfi_startproc
 3444              		@ args = 0, pretend = 0, frame = 0
 3445              		@ frame_needed = 0, uses_anonymous_args = 0
 3446              	.LVL364:
 3447              	.LBB157:
 3448              	.LBB158:
 3449              		.loc 1 199 0
 3450 0000 0328     		cmp	r0, #3
 3451              	.LBE158:
 3452              	.LBE157:
 3453              		.loc 1 1355 0
 3454 0002 10B5     		push	{r4, lr}
 3455              	.LCFI30:
 3456              		.cfi_def_cfa_offset 8
 3457              		.cfi_offset 14, -4
 3458              		.cfi_offset 4, -8
ARM GAS  /var/folders/5n/p_75w94d66l9ssrldxqdhh700000gn/T//cciPPkzE.s 			page 62


 3459              	.LBB161:
 3460              	.LBB159:
 3461              		.loc 1 199 0
 3462 0004 0CD8     		bhi	.L357
 3463              	.LVL365:
 3464              		.loc 1 205 0
 3465 0006 00EB4000 		add	r0, r0, r0, lsl #1
 3466              	.LVL366:
 3467 000a 184B     		ldr	r3, .L364
 3468 000c C000     		lsls	r0, r0, #3
 3469 000e 1C18     		adds	r4, r3, r0
 3470              	.LVL367:
 3471              		.loc 1 207 0
 3472 0010 1858     		ldr	r0, [r3, r0]
 3473 0012 40B1     		cbz	r0, .L358
 3474              	.LBE159:
 3475              	.LBE161:
 3476              		.loc 1 1368 0
 3477 0014 0378     		ldrb	r3, [r0, #0]	@ zero_extendqisi2
 3478 0016 102B     		cmp	r3, #16
 3479 0018 08D0     		beq	.L354
 3480              		.loc 1 1369 0
 3481 001a 5F20     		movs	r0, #95
 3482 001c 2061     		str	r0, [r4, #16]
 3483              		.loc 1 1370 0
 3484 001e 10BD     		pop	{r4, pc}
 3485              	.LVL368:
 3486              	.L357:
 3487              	.LBB162:
 3488              	.LBB160:
 3489              		.loc 1 1364 0
 3490 0020 4FF0FF30 		mov	r0, #-1
 3491              	.LVL369:
 3492 0024 10BD     		pop	{r4, pc}
 3493              	.LVL370:
 3494              	.L358:
 3495 0026 4FF0FF30 		mov	r0, #-1
 3496              	.LBE160:
 3497              	.LBE162:
 3498              		.loc 1 1392 0
 3499 002a 10BD     		pop	{r4, pc}
 3500              	.L354:
 3501              		.loc 1 1377 0
 3502 002c 31B1     		cbz	r1, .L359
 3503              		.loc 1 1379 0
 3504 002e 0129     		cmp	r1, #1
 3505 0030 15D0     		beq	.L360
 3506              		.loc 1 1381 0
 3507 0032 0229     		cmp	r1, #2
 3508 0034 16D0     		beq	.L361
 3509              		.loc 1 1385 0
 3510 0036 1620     		movs	r0, #22
 3511 0038 2061     		str	r0, [r4, #16]
 3512              		.loc 1 1386 0
 3513 003a 10BD     		pop	{r4, pc}
 3514              	.L359:
 3515              		.loc 1 1358 0
ARM GAS  /var/folders/5n/p_75w94d66l9ssrldxqdhh700000gn/T//cciPPkzE.s 			page 63


 3516 003c 0A46     		mov	r2, r1
 3517              		.loc 1 1378 0
 3518 003e 0121     		movs	r1, #1
 3519              	.LVL371:
 3520              	.L355:
 3521              		.loc 1 1388 0
 3522 0040 FFF7FEFF 		bl	netconn_shutdown
 3523              	.LVL372:
 3524              		.loc 1 1390 0
 3525 0044 4342     		negs	r3, r0
 3526 0046 0F2B     		cmp	r3, #15
 3527 0048 9ABF     		itte	ls
 3528 004a 094A     		ldrls	r2, .L364+4
 3529 004c 52F82330 		ldrls	r3, [r2, r3, lsl #2]
 3530 0050 0523     		movhi	r3, #5
 3531              		.loc 1 1391 0
 3532 0052 0028     		cmp	r0, #0
 3533              		.loc 1 1390 0
 3534 0054 2361     		str	r3, [r4, #16]
 3535              		.loc 1 1391 0
 3536 0056 18BF     		it	ne
 3537 0058 4FF0FF30 		movne	r0, #-1
 3538              	.LVL373:
 3539 005c 10BD     		pop	{r4, pc}
 3540              	.LVL374:
 3541              	.L360:
 3542              		.loc 1 1380 0
 3543 005e 0A46     		mov	r2, r1
 3544              		.loc 1 1358 0
 3545 0060 0021     		movs	r1, #0
 3546              	.LVL375:
 3547 0062 EDE7     		b	.L355
 3548              	.LVL376:
 3549              	.L361:
 3550              		.loc 1 1383 0
 3551 0064 0122     		movs	r2, #1
 3552              		.loc 1 1382 0
 3553 0066 1146     		mov	r1, r2
 3554              	.LVL377:
 3555 0068 EAE7     		b	.L355
 3556              	.L365:
 3557 006a 00BF     		.align	2
 3558              	.L364:
 3559 006c 00000000 		.word	.LANCHOR1
 3560 0070 00000000 		.word	.LANCHOR0
 3561              		.cfi_endproc
 3562              	.LFE27:
 3563              		.size	lwip_shutdown, .-lwip_shutdown
 3564 0074 AFF30080 		.section	.text.lwip_getpeername,"ax",%progbits
 3564      AFF30080 
 3564      AFF30080 
 3565              		.align	2
 3566              		.p2align 4,,15
 3567              		.global	lwip_getpeername
 3568              		.thumb
 3569              		.thumb_func
 3570              		.type	lwip_getpeername, %function
ARM GAS  /var/folders/5n/p_75w94d66l9ssrldxqdhh700000gn/T//cciPPkzE.s 			page 64


 3571              	lwip_getpeername:
 3572              	.LFB29:
 3573              		.loc 1 1431 0
 3574              		.cfi_startproc
 3575              		@ args = 0, pretend = 0, frame = 0
 3576              		@ frame_needed = 0, uses_anonymous_args = 0
 3577              		@ link register save eliminated.
 3578              	.LVL378:
 3579              		.loc 1 1432 0
 3580 0000 0023     		movs	r3, #0
 3581              		.loc 1 1433 0
 3582              		.loc 1 1432 0
 3583 0002 FFF7FEBF 		b	lwip_getaddrname
 3584              	.LVL379:
 3585              	.LVL380:
 3586              	.LVL381:
 3587              		.cfi_endproc
 3588              	.LFE29:
 3589              		.size	lwip_getpeername, .-lwip_getpeername
 3590 0006 00BFAFF3 		.section	.text.lwip_getsockname,"ax",%progbits
 3590      0080AFF3 
 3590      0080
 3591              		.align	2
 3592              		.p2align 4,,15
 3593              		.global	lwip_getsockname
 3594              		.thumb
 3595              		.thumb_func
 3596              		.type	lwip_getsockname, %function
 3597              	lwip_getsockname:
 3598              	.LFB30:
 3599              		.loc 1 1437 0
 3600              		.cfi_startproc
 3601              		@ args = 0, pretend = 0, frame = 0
 3602              		@ frame_needed = 0, uses_anonymous_args = 0
 3603              		@ link register save eliminated.
 3604              	.LVL382:
 3605              		.loc 1 1438 0
 3606 0000 0123     		movs	r3, #1
 3607              		.loc 1 1439 0
 3608              		.loc 1 1438 0
 3609 0002 FFF7FEBF 		b	lwip_getaddrname
 3610              	.LVL383:
 3611              	.LVL384:
 3612              	.LVL385:
 3613              		.cfi_endproc
 3614              	.LFE30:
 3615              		.size	lwip_getsockname, .-lwip_getsockname
 3616 0006 00BFAFF3 		.section	.text.lwip_getsockopt,"ax",%progbits
 3616      0080AFF3 
 3616      0080
 3617              		.align	2
 3618              		.p2align 4,,15
 3619              		.global	lwip_getsockopt
 3620              		.thumb
 3621              		.thumb_func
 3622              		.type	lwip_getsockopt, %function
 3623              	lwip_getsockopt:
ARM GAS  /var/folders/5n/p_75w94d66l9ssrldxqdhh700000gn/T//cciPPkzE.s 			page 65


 3624              	.LFB31:
 3625              		.loc 1 1443 0
 3626              		.cfi_startproc
 3627              		@ args = 4, pretend = 0, frame = 24
 3628              		@ frame_needed = 0, uses_anonymous_args = 0
 3629              	.LVL386:
 3630 0000 2DE9F041 		push	{r4, r5, r6, r7, r8, lr}
 3631              	.LCFI31:
 3632              		.cfi_def_cfa_offset 24
 3633              		.cfi_offset 14, -4
 3634              		.cfi_offset 8, -8
 3635              		.cfi_offset 7, -12
 3636              		.cfi_offset 6, -16
 3637              		.cfi_offset 5, -20
 3638              		.cfi_offset 4, -24
 3639 0004 86B0     		sub	sp, sp, #24
 3640              	.LCFI32:
 3641              		.cfi_def_cfa_offset 48
 3642              	.LBB163:
 3643              	.LBB164:
 3644              		.loc 1 199 0
 3645 0006 0328     		cmp	r0, #3
 3646              	.LBE164:
 3647              	.LBE163:
 3648              		.loc 1 1443 0
 3649 0008 0C46     		mov	r4, r1
 3650 000a 1546     		mov	r5, r2
 3651 000c 0C9E     		ldr	r6, [sp, #48]
 3652              	.LBB167:
 3653              	.LBB165:
 3654              		.loc 1 199 0
 3655 000e 1CD8     		bhi	.L384
 3656              		.loc 1 205 0
 3657 0010 00EB4000 		add	r0, r0, r0, lsl #1
 3658              	.LVL387:
 3659 0014 394A     		ldr	r2, .L402
 3660              	.LVL388:
 3661 0016 C000     		lsls	r0, r0, #3
 3662 0018 1718     		adds	r7, r2, r0
 3663              	.LVL389:
 3664              		.loc 1 207 0
 3665 001a 1158     		ldr	r1, [r2, r0]
 3666              	.LVL390:
 3667 001c A9B1     		cbz	r1, .L384
 3668              	.LBE165:
 3669              	.LBE167:
 3670              		.loc 1 1452 0
 3671 001e 002B     		cmp	r3, #0
 3672 0020 18BF     		it	ne
 3673 0022 002E     		cmpne	r6, #0
 3674 0024 14BF     		ite	ne
 3675 0026 0020     		movne	r0, #0
 3676 0028 0120     		moveq	r0, #1
 3677 002a 61D0     		beq	.L399
 3678              		.loc 1 1458 0
 3679 002c 062C     		cmp	r4, #6
 3680 002e 37D0     		beq	.L373
ARM GAS  /var/folders/5n/p_75w94d66l9ssrldxqdhh700000gn/T//cciPPkzE.s 			page 66


 3681 0030 40F6FF72 		movw	r2, #4095
 3682 0034 9442     		cmp	r4, r2
 3683 0036 0DD0     		beq	.L374
 3684 0038 14B9     		cbnz	r4, .L391
 3685              		.loc 1 1515 0
 3686 003a 6A1E     		subs	r2, r5, #1
 3687 003c 012A     		cmp	r2, #1
 3688 003e 10D9     		bls	.L398
 3689              	.L391:
 3690 0040 5C23     		movs	r3, #92
 3691              	.LVL391:
 3692              	.L382:
 3693              		.loc 1 1616 0
 3694 0042 3B61     		str	r3, [r7, #16]
 3695              		.loc 1 1617 0
 3696 0044 4FF0FF30 		mov	r0, #-1
 3697 0048 01E0     		b	.L369
 3698              	.LVL392:
 3699              	.L384:
 3700              	.LBB168:
 3701              	.LBB166:
 3702              		.loc 1 1449 0
 3703 004a 4FF0FF30 		mov	r0, #-1
 3704              	.LVL393:
 3705              	.L369:
 3706              	.LBE166:
 3707              	.LBE168:
 3708              		.loc 1 1637 0
 3709 004e 06B0     		add	sp, sp, #24
 3710 0050 BDE8F081 		pop	{r4, r5, r6, r7, r8, pc}
 3711              	.LVL394:
 3712              	.L374:
 3713              		.loc 1 1462 0
 3714 0054 202D     		cmp	r5, #32
 3715 0056 04D0     		beq	.L398
 3716 0058 2EDC     		bgt	.L377
 3717 005a 022D     		cmp	r5, #2
 3718 005c 01D0     		beq	.L398
 3719 005e 082D     		cmp	r5, #8
 3720 0060 EED1     		bne	.L391
 3721              	.L398:
 3722              		.loc 1 1521 0
 3723 0062 3268     		ldr	r2, [r6, #0]
 3724 0064 032A     		cmp	r2, #3
 3725 0066 1ED9     		bls	.L393
 3726              	.LVL395:
 3727              	.L378:
 3728              		.loc 1 1629 0
 3729 0068 4FF00008 		mov	r8, #0
 3730              		.loc 1 1630 0
 3731 006c 0122     		movs	r2, #1
 3732 006e 6946     		mov	r1, sp
 3733 0070 2348     		ldr	r0, .L402+4
 3734              		.loc 1 1627 0
 3735 0072 0393     		str	r3, [sp, #12]
 3736              		.loc 1 1621 0
 3737 0074 0097     		str	r7, [sp, #0]
ARM GAS  /var/folders/5n/p_75w94d66l9ssrldxqdhh700000gn/T//cciPPkzE.s 			page 67


 3738              		.loc 1 1625 0
 3739 0076 0194     		str	r4, [sp, #4]
 3740              		.loc 1 1626 0
 3741 0078 0295     		str	r5, [sp, #8]
 3742              		.loc 1 1628 0
 3743 007a 0496     		str	r6, [sp, #16]
 3744              		.loc 1 1629 0
 3745 007c 8DF81480 		strb	r8, [sp, #20]
 3746              		.loc 1 1630 0
 3747 0080 FFF7FEFF 		bl	tcpip_callback_with_block
 3748              	.LVL396:
 3749              		.loc 1 1631 0
 3750 0084 3868     		ldr	r0, [r7, #0]
 3751 0086 4146     		mov	r1, r8
 3752 0088 0C30     		adds	r0, r0, #12
 3753 008a FFF7FEFF 		bl	sys_arch_sem_wait
 3754              		.loc 1 1633 0
 3755 008e 9DF81400 		ldrb	r0, [sp, #20]	@ zero_extendqisi2
 3756              	.LVL397:
 3757              		.loc 1 1635 0
 3758 0092 43B2     		sxtb	r3, r0
 3759              		.loc 1 1636 0
 3760 0094 4045     		cmp	r0, r8
 3761              		.loc 1 1635 0
 3762 0096 3B61     		str	r3, [r7, #16]
 3763              		.loc 1 1636 0
 3764 0098 18BF     		it	ne
 3765 009a 4FF0FF30 		movne	r0, #-1
 3766              	.LVL398:
 3767 009e D6E7     		b	.L369
 3768              	.LVL399:
 3769              	.L373:
 3770              		.loc 1 1556 0
 3771 00a0 3268     		ldr	r2, [r6, #0]
 3772 00a2 032A     		cmp	r2, #3
 3773 00a4 01D8     		bhi	.L400
 3774              	.L393:
 3775 00a6 1623     		movs	r3, #22
 3776              	.LVL400:
 3777 00a8 CBE7     		b	.L382
 3778              	.LVL401:
 3779              	.L400:
 3780              		.loc 1 1562 0
 3781 00aa 0A78     		ldrb	r2, [r1, #0]	@ zero_extendqisi2
 3782 00ac 102A     		cmp	r2, #16
 3783 00ae CED1     		bne	.L369
 3784 00b0 6A1E     		subs	r2, r5, #1
 3785 00b2 012A     		cmp	r2, #1
 3786 00b4 C4D8     		bhi	.L391
 3787 00b6 D7E7     		b	.L378
 3788              	.L377:
 3789              		.loc 1 1462 0
 3790 00b8 41F20702 		movw	r2, #4103
 3791 00bc 9542     		cmp	r5, r2
 3792 00be BFDB     		blt	.L391
 3793 00c0 0132     		adds	r2, r2, #1
 3794 00c2 9542     		cmp	r5, r2
ARM GAS  /var/folders/5n/p_75w94d66l9ssrldxqdhh700000gn/T//cciPPkzE.s 			page 68


 3795 00c4 CDDD     		ble	.L398
 3796 00c6 0232     		adds	r2, r2, #2
 3797 00c8 9542     		cmp	r5, r2
 3798 00ca B9D1     		bne	.L391
 3799              		.loc 1 1494 0
 3800 00cc 3068     		ldr	r0, [r6, #0]
 3801              		.loc 1 1498 0
 3802 00ce 0A78     		ldrb	r2, [r1, #0]	@ zero_extendqisi2
 3803              		.loc 1 1444 0
 3804 00d0 0328     		cmp	r0, #3
 3805 00d2 94BF     		ite	ls
 3806 00d4 1620     		movls	r0, #22
 3807 00d6 0020     		movhi	r0, #0
 3808              	.LVL402:
 3809              		.loc 1 1498 0
 3810 00d8 202A     		cmp	r2, #32
 3811 00da 01D0     		beq	.L401
 3812              	.L390:
 3813 00dc 6123     		movs	r3, #97
 3814              	.LVL403:
 3815 00de B0E7     		b	.L382
 3816              	.LVL404:
 3817              	.L401:
 3818              		.loc 1 1499 0 discriminator 1
 3819 00e0 4A68     		ldr	r2, [r1, #4]
 3820 00e2 127C     		ldrb	r2, [r2, #16]	@ zero_extendqisi2
 3821              		.loc 1 1498 0 discriminator 1
 3822 00e4 9207     		lsls	r2, r2, #30
 3823 00e6 F9D4     		bmi	.L390
 3824              		.loc 1 1615 0
 3825 00e8 0028     		cmp	r0, #0
 3826 00ea BDD0     		beq	.L378
 3827 00ec 43B2     		sxtb	r3, r0
 3828              	.LVL405:
 3829 00ee A8E7     		b	.L382
 3830              	.LVL406:
 3831              	.L399:
 3832              		.loc 1 1453 0
 3833 00f0 0E23     		movs	r3, #14
 3834              	.LVL407:
 3835 00f2 3B61     		str	r3, [r7, #16]
 3836              		.loc 1 1454 0
 3837 00f4 4FF0FF30 		mov	r0, #-1
 3838 00f8 A9E7     		b	.L369
 3839              	.L403:
 3840 00fa 00BF     		.align	2
 3841              	.L402:
 3842 00fc 00000000 		.word	.LANCHOR1
 3843 0100 00000000 		.word	lwip_getsockopt_internal
 3844              		.cfi_endproc
 3845              	.LFE31:
 3846              		.size	lwip_getsockopt, .-lwip_getsockopt
 3847 0104 AFF30080 		.section	.text.lwip_setsockopt,"ax",%progbits
 3847      AFF30080 
 3847      AFF30080 
 3848              		.align	2
 3849              		.p2align 4,,15
ARM GAS  /var/folders/5n/p_75w94d66l9ssrldxqdhh700000gn/T//cciPPkzE.s 			page 69


 3850              		.global	lwip_setsockopt
 3851              		.thumb
 3852              		.thumb_func
 3853              		.type	lwip_setsockopt, %function
 3854              	lwip_setsockopt:
 3855              	.LFB33:
 3856              		.loc 1 1844 0
 3857              		.cfi_startproc
 3858              		@ args = 4, pretend = 0, frame = 24
 3859              		@ frame_needed = 0, uses_anonymous_args = 0
 3860              	.LVL408:
 3861 0000 F0B5     		push	{r4, r5, r6, r7, lr}
 3862              	.LCFI33:
 3863              		.cfi_def_cfa_offset 20
 3864              		.cfi_offset 14, -4
 3865              		.cfi_offset 7, -8
 3866              		.cfi_offset 6, -12
 3867              		.cfi_offset 5, -16
 3868              		.cfi_offset 4, -20
 3869              	.LBB169:
 3870              	.LBB170:
 3871              		.loc 1 199 0
 3872 0002 0328     		cmp	r0, #3
 3873              	.LBE170:
 3874              	.LBE169:
 3875              		.loc 1 1844 0
 3876 0004 87B0     		sub	sp, sp, #28
 3877              	.LCFI34:
 3878              		.cfi_def_cfa_offset 48
 3879              		.loc 1 1844 0
 3880 0006 0C46     		mov	r4, r1
 3881 0008 1546     		mov	r5, r2
 3882              	.LBB173:
 3883              	.LBB171:
 3884              		.loc 1 199 0
 3885 000a 17D8     		bhi	.L419
 3886              		.loc 1 205 0
 3887 000c 00EB4000 		add	r0, r0, r0, lsl #1
 3888              	.LVL409:
 3889 0010 314A     		ldr	r2, .L437
 3890              	.LVL410:
 3891 0012 C000     		lsls	r0, r0, #3
 3892 0014 1618     		adds	r6, r2, r0
 3893              	.LVL411:
 3894              		.loc 1 207 0
 3895 0016 1158     		ldr	r1, [r2, r0]
 3896              	.LVL412:
 3897 0018 81B1     		cbz	r1, .L419
 3898              	.LVL413:
 3899              	.LBE171:
 3900              	.LBE173:
 3901              		.loc 1 1853 0
 3902 001a 002B     		cmp	r3, #0
 3903 001c 57D0     		beq	.L435
 3904              		.loc 1 1859 0
 3905 001e 062C     		cmp	r4, #6
 3906 0020 1DD0     		beq	.L409
ARM GAS  /var/folders/5n/p_75w94d66l9ssrldxqdhh700000gn/T//cciPPkzE.s 			page 70


 3907 0022 40F6FF72 		movw	r2, #4095
 3908 0026 9442     		cmp	r4, r2
 3909 0028 0CD0     		beq	.L410
 3910 002a 14B9     		cbnz	r4, .L426
 3911              		.loc 1 1911 0
 3912 002c 6A1E     		subs	r2, r5, #1
 3913 002e 012A     		cmp	r2, #1
 3914 0030 10D9     		bls	.L434
 3915              	.L426:
 3916 0032 5C23     		movs	r3, #92
 3917              	.LVL414:
 3918              	.L417:
 3919              		.loc 1 2025 0
 3920 0034 3361     		str	r3, [r6, #16]
 3921              		.loc 1 2026 0
 3922 0036 4FF0FF30 		mov	r0, #-1
 3923 003a 01E0     		b	.L405
 3924              	.LVL415:
 3925              	.L419:
 3926              	.LBB174:
 3927              	.LBB172:
 3928              		.loc 1 1850 0
 3929 003c 4FF0FF30 		mov	r0, #-1
 3930              	.LVL416:
 3931              	.L405:
 3932              	.LBE172:
 3933              	.LBE174:
 3934              		.loc 1 2047 0
 3935 0040 07B0     		add	sp, sp, #28
 3936 0042 F0BD     		pop	{r4, r5, r6, r7, pc}
 3937              	.LVL417:
 3938              	.L410:
 3939              		.loc 1 1863 0
 3940 0044 202D     		cmp	r5, #32
 3941 0046 05D0     		beq	.L434
 3942 0048 41F20A02 		movw	r2, #4106
 3943 004c 9542     		cmp	r5, r2
 3944 004e 2CD0     		beq	.L412
 3945 0050 082D     		cmp	r5, #8
 3946 0052 EED1     		bne	.L426
 3947              	.L434:
 3948              		.loc 1 1917 0
 3949 0054 0C9A     		ldr	r2, [sp, #48]
 3950 0056 032A     		cmp	r2, #3
 3951 0058 0BD8     		bhi	.L413
 3952              	.L428:
 3953              		.loc 1 1966 0
 3954 005a 1623     		movs	r3, #22
 3955              	.LVL418:
 3956 005c EAE7     		b	.L417
 3957              	.LVL419:
 3958              	.L409:
 3959 005e 0C9A     		ldr	r2, [sp, #48]
 3960 0060 032A     		cmp	r2, #3
 3961 0062 FAD9     		bls	.L428
 3962              		.loc 1 1972 0
 3963 0064 0A78     		ldrb	r2, [r1, #0]	@ zero_extendqisi2
ARM GAS  /var/folders/5n/p_75w94d66l9ssrldxqdhh700000gn/T//cciPPkzE.s 			page 71


 3964              		.loc 1 1973 0
 3965 0066 0020     		movs	r0, #0
 3966              		.loc 1 1972 0
 3967 0068 102A     		cmp	r2, #16
 3968 006a E9D1     		bne	.L405
 3969 006c 6A1E     		subs	r2, r5, #1
 3970 006e 012A     		cmp	r2, #1
 3971 0070 DFD8     		bhi	.L426
 3972              	.LVL420:
 3973              	.L413:
 3974              		.loc 1 2039 0
 3975 0072 0027     		movs	r7, #0
 3976              		.loc 1 2040 0
 3977 0074 0122     		movs	r2, #1
 3978 0076 6946     		mov	r1, sp
 3979              		.loc 1 2037 0
 3980 0078 0393     		str	r3, [sp, #12]
 3981              		.loc 1 2040 0
 3982 007a 1848     		ldr	r0, .L437+4
 3983              		.loc 1 2031 0
 3984 007c 0096     		str	r6, [sp, #0]
 3985              		.loc 1 2038 0
 3986 007e 0CAB     		add	r3, sp, #48
 3987              	.LVL421:
 3988 0080 0493     		str	r3, [sp, #16]
 3989              		.loc 1 2035 0
 3990 0082 0194     		str	r4, [sp, #4]
 3991              		.loc 1 2036 0
 3992 0084 0295     		str	r5, [sp, #8]
 3993              		.loc 1 2039 0
 3994 0086 8DF81470 		strb	r7, [sp, #20]
 3995              		.loc 1 2040 0
 3996 008a FFF7FEFF 		bl	tcpip_callback_with_block
 3997              	.LVL422:
 3998              		.loc 1 2041 0
 3999 008e 3068     		ldr	r0, [r6, #0]
 4000 0090 3946     		mov	r1, r7
 4001 0092 0C30     		adds	r0, r0, #12
 4002 0094 FFF7FEFF 		bl	sys_arch_sem_wait
 4003              		.loc 1 2043 0
 4004 0098 9DF81400 		ldrb	r0, [sp, #20]	@ zero_extendqisi2
 4005              	.LVL423:
 4006              		.loc 1 2045 0
 4007 009c 43B2     		sxtb	r3, r0
 4008              		.loc 1 2046 0
 4009 009e B842     		cmp	r0, r7
 4010              		.loc 1 2045 0
 4011 00a0 3361     		str	r3, [r6, #16]
 4012              		.loc 1 2046 0
 4013 00a2 18BF     		it	ne
 4014 00a4 4FF0FF30 		movne	r0, #-1
 4015              	.LVL424:
 4016 00a8 CAE7     		b	.L405
 4017              	.LVL425:
 4018              	.L412:
 4019              		.loc 1 1895 0
 4020 00aa 0A78     		ldrb	r2, [r1, #0]	@ zero_extendqisi2
ARM GAS  /var/folders/5n/p_75w94d66l9ssrldxqdhh700000gn/T//cciPPkzE.s 			page 72


 4021              		.loc 1 1846 0
 4022 00ac 0C98     		ldr	r0, [sp, #48]
 4023 00ae 0328     		cmp	r0, #3
 4024 00b0 94BF     		ite	ls
 4025 00b2 1620     		movls	r0, #22
 4026 00b4 0020     		movhi	r0, #0
 4027              	.LVL426:
 4028              		.loc 1 1895 0
 4029 00b6 202A     		cmp	r2, #32
 4030 00b8 01D0     		beq	.L436
 4031              	.L425:
 4032 00ba 6123     		movs	r3, #97
 4033              	.LVL427:
 4034 00bc BAE7     		b	.L417
 4035              	.LVL428:
 4036              	.L436:
 4037              		.loc 1 1896 0 discriminator 1
 4038 00be 4A68     		ldr	r2, [r1, #4]
 4039 00c0 127C     		ldrb	r2, [r2, #16]	@ zero_extendqisi2
 4040              		.loc 1 1895 0 discriminator 1
 4041 00c2 9107     		lsls	r1, r2, #30
 4042 00c4 F9D4     		bmi	.L425
 4043              		.loc 1 2024 0
 4044 00c6 0028     		cmp	r0, #0
 4045 00c8 D3D0     		beq	.L413
 4046 00ca 43B2     		sxtb	r3, r0
 4047              	.LVL429:
 4048 00cc B2E7     		b	.L417
 4049              	.LVL430:
 4050              	.L435:
 4051              		.loc 1 1854 0
 4052 00ce 0E23     		movs	r3, #14
 4053              	.LVL431:
 4054 00d0 3361     		str	r3, [r6, #16]
 4055              		.loc 1 1855 0
 4056 00d2 4FF0FF30 		mov	r0, #-1
 4057 00d6 B3E7     		b	.L405
 4058              	.L438:
 4059              		.align	2
 4060              	.L437:
 4061 00d8 00000000 		.word	.LANCHOR1
 4062 00dc 00000000 		.word	lwip_setsockopt_internal
 4063              		.cfi_endproc
 4064              	.LFE33:
 4065              		.size	lwip_setsockopt, .-lwip_setsockopt
 4066              		.section	.text.lwip_ioctl,"ax",%progbits
 4067              		.align	2
 4068              		.p2align 4,,15
 4069              		.global	lwip_ioctl
 4070              		.thumb
 4071              		.thumb_func
 4072              		.type	lwip_ioctl, %function
 4073              	lwip_ioctl:
 4074              	.LFB35:
 4075              		.loc 1 2255 0
 4076              		.cfi_startproc
 4077              		@ args = 0, pretend = 0, frame = 0
ARM GAS  /var/folders/5n/p_75w94d66l9ssrldxqdhh700000gn/T//cciPPkzE.s 			page 73


 4078              		@ frame_needed = 0, uses_anonymous_args = 0
 4079              		@ link register save eliminated.
 4080              	.LVL432:
 4081              	.LBB175:
 4082              	.LBB176:
 4083              		.loc 1 199 0
 4084 0000 0328     		cmp	r0, #3
 4085              	.LBE176:
 4086              	.LBE175:
 4087              		.loc 1 2255 0
 4088 0002 10B4     		push	{r4}
 4089              	.LCFI35:
 4090              		.cfi_def_cfa_offset 4
 4091              		.cfi_offset 4, -4
 4092              	.LBB179:
 4093              	.LBB177:
 4094              		.loc 1 199 0
 4095 0004 11D8     		bhi	.L447
 4096              	.LVL433:
 4097              		.loc 1 205 0
 4098 0006 00EB4000 		add	r0, r0, r0, lsl #1
 4099              	.LVL434:
 4100 000a 114B     		ldr	r3, .L450
 4101 000c C000     		lsls	r0, r0, #3
 4102 000e 1C18     		adds	r4, r3, r0
 4103              	.LVL435:
 4104              		.loc 1 207 0
 4105 0010 1858     		ldr	r0, [r3, r0]
 4106 0012 50B1     		cbz	r0, .L447
 4107              	.LBE177:
 4108              	.LBE179:
 4109              		.loc 1 2267 0
 4110 0014 46F27E63 		movw	r3, #26238
 4111 0018 C8F20403 		movt	r3, 32772
 4112 001c 9942     		cmp	r1, r3
 4113 001e 08D0     		beq	.L449
 4114              		.loc 1 2310 0
 4115 0020 2623     		movs	r3, #38
 4116 0022 2361     		str	r3, [r4, #16]
 4117              		.loc 1 2311 0
 4118 0024 4FF0FF30 		mov	r0, #-1
 4119 0028 01E0     		b	.L440
 4120              	.LVL436:
 4121              	.L447:
 4122              	.LBB180:
 4123              	.LBB178:
 4124              		.loc 1 2264 0
 4125 002a 4FF0FF30 		mov	r0, #-1
 4126              	.L440:
 4127              	.LBE178:
 4128              	.LBE180:
 4129              		.loc 1 2313 0
 4130 002e 10BC     		pop	{r4}
 4131 0030 7047     		bx	lr
 4132              	.LVL437:
 4133              	.L449:
 4134              		.loc 1 2300 0
ARM GAS  /var/folders/5n/p_75w94d66l9ssrldxqdhh700000gn/T//cciPPkzE.s 			page 74


 4135 0032 42B1     		cbz	r2, .L443
 4136              		.loc 1 2300 0 is_stmt 0 discriminator 1
 4137 0034 1368     		ldr	r3, [r2, #0]
 4138 0036 33B1     		cbz	r3, .L443
 4139              	.LVL438:
 4140              		.loc 1 2303 0 is_stmt 1
 4141 0038 037F     		ldrb	r3, [r0, #28]	@ zero_extendqisi2
 4142 003a 43F00203 		orr	r3, r3, #2
 4143 003e 0377     		strb	r3, [r0, #28]
 4144              	.LVL439:
 4145              	.L445:
 4146              		.loc 1 2305 0
 4147 0040 0020     		movs	r0, #0
 4148 0042 2061     		str	r0, [r4, #16]
 4149              		.loc 1 2306 0
 4150 0044 F3E7     		b	.L440
 4151              	.LVL440:
 4152              	.L443:
 4153              		.loc 1 2303 0
 4154 0046 037F     		ldrb	r3, [r0, #28]	@ zero_extendqisi2
 4155 0048 23F00203 		bic	r3, r3, #2
 4156 004c 0377     		strb	r3, [r0, #28]
 4157 004e F7E7     		b	.L445
 4158              	.L451:
 4159              		.align	2
 4160              	.L450:
 4161 0050 00000000 		.word	.LANCHOR1
 4162              		.cfi_endproc
 4163              	.LFE35:
 4164              		.size	lwip_ioctl, .-lwip_ioctl
 4165 0054 AFF30080 		.section	.text.lwip_fcntl,"ax",%progbits
 4165      AFF30080 
 4165      AFF30080 
 4166              		.align	2
 4167              		.p2align 4,,15
 4168              		.global	lwip_fcntl
 4169              		.thumb
 4170              		.thumb_func
 4171              		.type	lwip_fcntl, %function
 4172              	lwip_fcntl:
 4173              	.LFB36:
 4174              		.loc 1 2321 0
 4175              		.cfi_startproc
 4176              		@ args = 0, pretend = 0, frame = 0
 4177              		@ frame_needed = 0, uses_anonymous_args = 0
 4178              		@ link register save eliminated.
 4179              	.LVL441:
 4180              	.LBB181:
 4181              	.LBB182:
 4182              		.loc 1 199 0
 4183 0000 0328     		cmp	r0, #3
 4184 0002 09D8     		bhi	.L461
 4185              	.LVL442:
 4186              		.loc 1 205 0
 4187 0004 00EB4000 		add	r0, r0, r0, lsl #1
 4188              	.LVL443:
 4189              		.loc 1 207 0
ARM GAS  /var/folders/5n/p_75w94d66l9ssrldxqdhh700000gn/T//cciPPkzE.s 			page 75


 4190 0008 104B     		ldr	r3, .L463
 4191 000a 53F83030 		ldr	r3, [r3, r0, lsl #3]
 4192 000e 1BB1     		cbz	r3, .L461
 4193              	.LVL444:
 4194              	.LBE182:
 4195              	.LBE181:
 4196              		.loc 1 2329 0
 4197 0010 0329     		cmp	r1, #3
 4198 0012 14D0     		beq	.L454
 4199 0014 0429     		cmp	r1, #4
 4200 0016 02D0     		beq	.L462
 4201              	.LVL445:
 4202              	.L461:
 4203              		.loc 1 2323 0
 4204 0018 4FF0FF30 		mov	r0, #-1
 4205 001c 7047     		bx	lr
 4206              	.LVL446:
 4207              	.L462:
 4208              		.loc 1 2334 0
 4209 001e 32F00101 		bics	r1, r2, #1
 4210              	.LVL447:
 4211 0022 10D1     		bne	.L460
 4212              		.loc 1 2336 0
 4213 0024 12F00100 		ands	r0, r2, #1
 4214 0028 1A7F     		ldrb	r2, [r3, #28]	@ zero_extendqisi2
 4215              	.LVL448:
 4216 002a 17BF     		itett	ne
 4217 002c 42F00202 		orrne	r2, r2, #2
 4218 0030 22F00202 		biceq	r2, r2, #2
 4219 0034 1A77     		strbne	r2, [r3, #28]
 4220              		.loc 1 2337 0
 4221 0036 0846     		movne	r0, r1
 4222              		.loc 1 2336 0
 4223 0038 08BF     		it	eq
 4224 003a 1A77     		strbeq	r2, [r3, #28]
 4225 003c 7047     		bx	lr
 4226              	.LVL449:
 4227              	.L454:
 4228              		.loc 1 2331 0
 4229 003e 187F     		ldrb	r0, [r3, #28]	@ zero_extendqisi2
 4230 0040 C0F34000 		ubfx	r0, r0, #1, #1
 4231              	.LVL450:
 4232              		.loc 1 2332 0
 4233 0044 7047     		bx	lr
 4234              	.LVL451:
 4235              	.L460:
 4236              		.loc 1 2323 0
 4237 0046 4FF0FF30 		mov	r0, #-1
 4238              		.loc 1 2345 0
 4239 004a 7047     		bx	lr
 4240              	.L464:
 4241              		.align	2
 4242              	.L463:
 4243 004c 00000000 		.word	.LANCHOR1
 4244              		.cfi_endproc
 4245              	.LFE36:
 4246              		.size	lwip_fcntl, .-lwip_fcntl
ARM GAS  /var/folders/5n/p_75w94d66l9ssrldxqdhh700000gn/T//cciPPkzE.s 			page 76


 4247              		.section	.rodata.err_to_errno_table,"a",%progbits
 4248              		.align	2
 4249              		.set	.LANCHOR0,. + 0
 4250              		.type	err_to_errno_table, %object
 4251              		.size	err_to_errno_table, 64
 4252              	err_to_errno_table:
 4253 0000 00000000 		.word	0
 4254 0004 0C000000 		.word	12
 4255 0008 69000000 		.word	105
 4256 000c 0B000000 		.word	11
 4257 0010 71000000 		.word	113
 4258 0014 73000000 		.word	115
 4259 0018 16000000 		.word	22
 4260 001c 0B000000 		.word	11
 4261 0020 62000000 		.word	98
 4262 0024 72000000 		.word	114
 4263 0028 67000000 		.word	103
 4264 002c 68000000 		.word	104
 4265 0030 6B000000 		.word	107
 4266 0034 6B000000 		.word	107
 4267 0038 05000000 		.word	5
 4268 003c FFFFFFFF 		.word	-1
 4269              		.section	.bss.select_cb_list,"aw",%nobits
 4270              		.align	2
 4271              		.set	.LANCHOR2,. + 0
 4272              		.type	select_cb_list, %object
 4273              		.size	select_cb_list, 4
 4274              	select_cb_list:
 4275 0000 00000000 		.space	4
 4276              		.section	.bss.sockets,"aw",%nobits
 4277              		.align	2
 4278              		.set	.LANCHOR1,. + 0
 4279              		.type	sockets, %object
 4280              		.size	sockets, 96
 4281              	sockets:
 4282 0000 00000000 		.space	96
 4282      00000000 
 4282      00000000 
 4282      00000000 
 4282      00000000 
 4283              		.section	.bss.select_cb_ctr,"aw",%nobits
 4284              		.align	2
 4285              		.set	.LANCHOR3,. + 0
 4286              		.type	select_cb_ctr, %object
 4287              		.size	select_cb_ctr, 4
 4288              	select_cb_ctr:
 4289 0000 00000000 		.space	4
 4290              		.text
 4291              	.Letext0:
 4292              		.file 2 "/usr/local/summon/lib/gcc/arm-none-eabi/4.6.2/include/stddef.h"
 4293              		.file 3 "/usr/local/summon/lib/gcc/arm-none-eabi/4.6.2/../../../../arm-none-eabi/include/stdint.h"
 4294              		.file 4 "../../os/ports/GCC/ARMCMx/chtypes.h"
 4295              		.file 5 "../../os/kernel/include/chlists.h"
 4296              		.file 6 "../../os/kernel/include/chthreads.h"
 4297              		.file 7 "../../os/ports/GCC/ARMCMx/chcore_v7m.h"
 4298              		.file 8 "../../os/kernel/include/chsem.h"
 4299              		.file 9 "../../os/kernel/include/chmtx.h"
ARM GAS  /var/folders/5n/p_75w94d66l9ssrldxqdhh700000gn/T//cciPPkzE.s 			page 77


 4300              		.file 10 "../../os/kernel/include/chmboxes.h"
 4301              		.file 11 "../../os/various/lwip_bindings/arch/cc.h"
 4302              		.file 12 "../../ext/lwip/src/include/ipv4/lwip/ip_addr.h"
 4303              		.file 13 "../../ext/lwip/src/include/ipv4/lwip/inet.h"
 4304              		.file 14 "../../ext/lwip/src/include/lwip/sockets.h"
 4305              		.file 15 "../../ext/lwip/src/include/lwip/err.h"
 4306              		.file 16 "../../ext/lwip/src/include/lwip/pbuf.h"
 4307              		.file 17 "../../ext/lwip/src/include/lwip/netbuf.h"
 4308              		.file 18 "../../os/various/lwip_bindings/arch/sys_arch.h"
 4309              		.file 19 "../../ext/lwip/src/include/lwip/api.h"
 4310              		.file 20 "../../ext/lwip/src/include/ipv4/lwip/ip.h"
 4311              		.file 21 "../../ext/lwip/src/include/lwip/tcp.h"
 4312              		.file 22 "../../ext/lwip/src/include/lwip/udp.h"
 4313              		.file 23 "../../ext/lwip/src/include/lwip/raw.h"
 4314              		.file 24 "../../ext/lwip/src/include/lwip/api_msg.h"
 4315              		.section	.debug_info,"",%progbits
 4316              	.Ldebug_info0:
 4317 0000 B2240000 		.4byte	0x24b2
 4318 0004 0200     		.2byte	0x2
 4319 0006 00000000 		.4byte	.Ldebug_abbrev0
 4320 000a 04       		.byte	0x4
 4321 000b 01       		.uleb128 0x1
 4322 000c 580B0000 		.4byte	.LASF311
 4323 0010 01       		.byte	0x1
 4324 0011 480A0000 		.4byte	.LASF312
 4325 0015 AF0B0000 		.4byte	.LASF313
 4326 0019 00000000 		.4byte	0
 4327 001d 00000000 		.4byte	0
 4328 0021 00050000 		.4byte	.Ldebug_ranges0+0x500
 4329 0025 00000000 		.4byte	.Ldebug_line0
 4330 0029 02       		.uleb128 0x2
 4331 002a 04       		.byte	0x4
 4332 002b 05       		.byte	0x5
 4333 002c 696E7400 		.ascii	"int\000"
 4334 0030 03       		.uleb128 0x3
 4335 0031 12000000 		.4byte	.LASF1
 4336 0035 02       		.byte	0x2
 4337 0036 D4       		.byte	0xd4
 4338 0037 3B000000 		.4byte	0x3b
 4339 003b 04       		.uleb128 0x4
 4340 003c 04       		.byte	0x4
 4341 003d 07       		.byte	0x7
 4342 003e A0060000 		.4byte	.LASF0
 4343 0042 03       		.uleb128 0x3
 4344 0043 0B000000 		.4byte	.LASF2
 4345 0047 03       		.byte	0x3
 4346 0048 29       		.byte	0x29
 4347 0049 4D000000 		.4byte	0x4d
 4348 004d 04       		.uleb128 0x4
 4349 004e 01       		.byte	0x1
 4350 004f 06       		.byte	0x6
 4351 0050 62020000 		.4byte	.LASF3
 4352 0054 03       		.uleb128 0x3
 4353 0055 78020000 		.4byte	.LASF4
 4354 0059 03       		.byte	0x3
 4355 005a 2A       		.byte	0x2a
 4356 005b 5F000000 		.4byte	0x5f
ARM GAS  /var/folders/5n/p_75w94d66l9ssrldxqdhh700000gn/T//cciPPkzE.s 			page 78


 4357 005f 04       		.uleb128 0x4
 4358 0060 01       		.byte	0x1
 4359 0061 08       		.byte	0x8
 4360 0062 CE020000 		.4byte	.LASF5
 4361 0066 03       		.uleb128 0x3
 4362 0067 710A0000 		.4byte	.LASF6
 4363 006b 03       		.byte	0x3
 4364 006c 35       		.byte	0x35
 4365 006d 71000000 		.4byte	0x71
 4366 0071 04       		.uleb128 0x4
 4367 0072 02       		.byte	0x2
 4368 0073 05       		.byte	0x5
 4369 0074 110A0000 		.4byte	.LASF7
 4370 0078 03       		.uleb128 0x3
 4371 0079 50080000 		.4byte	.LASF8
 4372 007d 03       		.byte	0x3
 4373 007e 36       		.byte	0x36
 4374 007f 83000000 		.4byte	0x83
 4375 0083 04       		.uleb128 0x4
 4376 0084 02       		.byte	0x2
 4377 0085 07       		.byte	0x7
 4378 0086 350C0000 		.4byte	.LASF9
 4379 008a 03       		.uleb128 0x3
 4380 008b 69000000 		.4byte	.LASF10
 4381 008f 03       		.byte	0x3
 4382 0090 4F       		.byte	0x4f
 4383 0091 95000000 		.4byte	0x95
 4384 0095 04       		.uleb128 0x4
 4385 0096 04       		.byte	0x4
 4386 0097 05       		.byte	0x5
 4387 0098 93010000 		.4byte	.LASF11
 4388 009c 03       		.uleb128 0x3
 4389 009d 7A0B0000 		.4byte	.LASF12
 4390 00a1 03       		.byte	0x3
 4391 00a2 50       		.byte	0x50
 4392 00a3 A7000000 		.4byte	0xa7
 4393 00a7 04       		.uleb128 0x4
 4394 00a8 04       		.byte	0x4
 4395 00a9 07       		.byte	0x7
 4396 00aa 26050000 		.4byte	.LASF13
 4397 00ae 04       		.uleb128 0x4
 4398 00af 08       		.byte	0x8
 4399 00b0 05       		.byte	0x5
 4400 00b1 F2050000 		.4byte	.LASF14
 4401 00b5 04       		.uleb128 0x4
 4402 00b6 08       		.byte	0x8
 4403 00b7 07       		.byte	0x7
 4404 00b8 25080000 		.4byte	.LASF15
 4405 00bc 03       		.uleb128 0x3
 4406 00bd 6C090000 		.4byte	.LASF16
 4407 00c1 04       		.byte	0x4
 4408 00c2 28       		.byte	0x28
 4409 00c3 54000000 		.4byte	0x54
 4410 00c7 03       		.uleb128 0x3
 4411 00c8 E9010000 		.4byte	.LASF17
 4412 00cc 04       		.byte	0x4
 4413 00cd 29       		.byte	0x29
ARM GAS  /var/folders/5n/p_75w94d66l9ssrldxqdhh700000gn/T//cciPPkzE.s 			page 79


 4414 00ce 54000000 		.4byte	0x54
 4415 00d2 03       		.uleb128 0x3
 4416 00d3 2E0B0000 		.4byte	.LASF18
 4417 00d7 04       		.byte	0x4
 4418 00d8 2A       		.byte	0x2a
 4419 00d9 54000000 		.4byte	0x54
 4420 00dd 03       		.uleb128 0x3
 4421 00de 74080000 		.4byte	.LASF19
 4422 00e2 04       		.byte	0x4
 4423 00e3 2B       		.byte	0x2b
 4424 00e4 54000000 		.4byte	0x54
 4425 00e8 03       		.uleb128 0x3
 4426 00e9 45000000 		.4byte	.LASF20
 4427 00ed 04       		.byte	0x4
 4428 00ee 2C       		.byte	0x2c
 4429 00ef 9C000000 		.4byte	0x9c
 4430 00f3 03       		.uleb128 0x3
 4431 00f4 69080000 		.4byte	.LASF21
 4432 00f8 04       		.byte	0x4
 4433 00f9 2D       		.byte	0x2d
 4434 00fa 8A000000 		.4byte	0x8a
 4435 00fe 03       		.uleb128 0x3
 4436 00ff A9020000 		.4byte	.LASF22
 4437 0103 04       		.byte	0x4
 4438 0104 2F       		.byte	0x2f
 4439 0105 9C000000 		.4byte	0x9c
 4440 0109 03       		.uleb128 0x3
 4441 010a 29000000 		.4byte	.LASF23
 4442 010e 04       		.byte	0x4
 4443 010f 31       		.byte	0x31
 4444 0110 9C000000 		.4byte	0x9c
 4445 0114 03       		.uleb128 0x3
 4446 0115 56040000 		.4byte	.LASF24
 4447 0119 04       		.byte	0x4
 4448 011a 32       		.byte	0x32
 4449 011b 8A000000 		.4byte	0x8a
 4450 011f 03       		.uleb128 0x3
 4451 0120 C10A0000 		.4byte	.LASF25
 4452 0124 05       		.byte	0x5
 4453 0125 23       		.byte	0x23
 4454 0126 2A010000 		.4byte	0x12a
 4455 012a 05       		.uleb128 0x5
 4456 012b C10A0000 		.4byte	.LASF25
 4457 012f 48       		.byte	0x48
 4458 0130 06       		.byte	0x6
 4459 0131 57       		.byte	0x57
 4460 0132 4F020000 		.4byte	0x24f
 4461 0136 06       		.uleb128 0x6
 4462 0137 9C010000 		.4byte	.LASF26
 4463 013b 06       		.byte	0x6
 4464 013c 58       		.byte	0x58
 4465 013d 74020000 		.4byte	0x274
 4466 0141 02       		.byte	0x2
 4467 0142 23       		.byte	0x23
 4468 0143 00       		.uleb128 0
 4469 0144 06       		.uleb128 0x6
 4470 0145 AB010000 		.4byte	.LASF27
ARM GAS  /var/folders/5n/p_75w94d66l9ssrldxqdhh700000gn/T//cciPPkzE.s 			page 80


 4471 0149 06       		.byte	0x6
 4472 014a 5A       		.byte	0x5a
 4473 014b 74020000 		.4byte	0x274
 4474 014f 02       		.byte	0x2
 4475 0150 23       		.byte	0x23
 4476 0151 04       		.uleb128 0x4
 4477 0152 06       		.uleb128 0x6
 4478 0153 40030000 		.4byte	.LASF28
 4479 0157 06       		.byte	0x6
 4480 0158 5C       		.byte	0x5c
 4481 0159 E8000000 		.4byte	0xe8
 4482 015d 02       		.byte	0x2
 4483 015e 23       		.byte	0x23
 4484 015f 08       		.uleb128 0x8
 4485 0160 06       		.uleb128 0x6
 4486 0161 3F000000 		.4byte	.LASF29
 4487 0165 06       		.byte	0x6
 4488 0166 5D       		.byte	0x5d
 4489 0167 42030000 		.4byte	0x342
 4490 016b 02       		.byte	0x2
 4491 016c 23       		.byte	0x23
 4492 016d 0C       		.uleb128 0xc
 4493 016e 06       		.uleb128 0x6
 4494 016f 79010000 		.4byte	.LASF30
 4495 0173 06       		.byte	0x6
 4496 0174 5F       		.byte	0x5f
 4497 0175 74020000 		.4byte	0x274
 4498 0179 02       		.byte	0x2
 4499 017a 23       		.byte	0x23
 4500 017b 10       		.uleb128 0x10
 4501 017c 06       		.uleb128 0x6
 4502 017d 48080000 		.4byte	.LASF31
 4503 0181 06       		.byte	0x6
 4504 0182 60       		.byte	0x60
 4505 0183 74020000 		.4byte	0x274
 4506 0187 02       		.byte	0x2
 4507 0188 23       		.byte	0x23
 4508 0189 14       		.uleb128 0x14
 4509 018a 06       		.uleb128 0x6
 4510 018b 8E0C0000 		.4byte	.LASF32
 4511 018f 06       		.byte	0x6
 4512 0190 67       		.byte	0x67
 4513 0191 89040000 		.4byte	0x489
 4514 0195 02       		.byte	0x2
 4515 0196 23       		.byte	0x23
 4516 0197 18       		.uleb128 0x18
 4517 0198 06       		.uleb128 0x6
 4518 0199 DF0C0000 		.4byte	.LASF33
 4519 019d 06       		.byte	0x6
 4520 019e 72       		.byte	0x72
 4521 019f C7000000 		.4byte	0xc7
 4522 01a3 02       		.byte	0x2
 4523 01a4 23       		.byte	0x23
 4524 01a5 1C       		.uleb128 0x1c
 4525 01a6 06       		.uleb128 0x6
 4526 01a7 98060000 		.4byte	.LASF34
 4527 01ab 06       		.byte	0x6
ARM GAS  /var/folders/5n/p_75w94d66l9ssrldxqdhh700000gn/T//cciPPkzE.s 			page 81


 4528 01ac 76       		.byte	0x76
 4529 01ad BC000000 		.4byte	0xbc
 4530 01b1 02       		.byte	0x2
 4531 01b2 23       		.byte	0x23
 4532 01b3 1D       		.uleb128 0x1d
 4533 01b4 06       		.uleb128 0x6
 4534 01b5 CF060000 		.4byte	.LASF35
 4535 01b9 06       		.byte	0x6
 4536 01ba 7B       		.byte	0x7b
 4537 01bb D2000000 		.4byte	0xd2
 4538 01bf 02       		.byte	0x2
 4539 01c0 23       		.byte	0x23
 4540 01c1 1E       		.uleb128 0x1e
 4541 01c2 06       		.uleb128 0x6
 4542 01c3 6E020000 		.4byte	.LASF36
 4543 01c7 06       		.byte	0x6
 4544 01c8 81       		.byte	0x81
 4545 01c9 DD000000 		.4byte	0xdd
 4546 01cd 02       		.byte	0x2
 4547 01ce 23       		.byte	0x23
 4548 01cf 1F       		.uleb128 0x1f
 4549 01d0 06       		.uleb128 0x6
 4550 01d1 50070000 		.4byte	.LASF37
 4551 01d5 06       		.byte	0x6
 4552 01d6 88       		.byte	0x88
 4553 01d7 65030000 		.4byte	0x365
 4554 01db 02       		.byte	0x2
 4555 01dc 23       		.byte	0x23
 4556 01dd 20       		.uleb128 0x20
 4557 01de 07       		.uleb128 0x7
 4558 01df 705F7500 		.ascii	"p_u\000"
 4559 01e3 06       		.byte	0x6
 4560 01e4 AD       		.byte	0xad
 4561 01e5 54040000 		.4byte	0x454
 4562 01e9 02       		.byte	0x2
 4563 01ea 23       		.byte	0x23
 4564 01eb 24       		.uleb128 0x24
 4565 01ec 06       		.uleb128 0x6
 4566 01ed 89060000 		.4byte	.LASF38
 4567 01f1 06       		.byte	0x6
 4568 01f2 B2       		.byte	0xb2
 4569 01f3 9C020000 		.4byte	0x29c
 4570 01f7 02       		.byte	0x2
 4571 01f8 23       		.byte	0x23
 4572 01f9 28       		.uleb128 0x28
 4573 01fa 06       		.uleb128 0x6
 4574 01fb 58000000 		.4byte	.LASF39
 4575 01ff 06       		.byte	0x6
 4576 0200 B8       		.byte	0xb8
 4577 0201 7A020000 		.4byte	0x27a
 4578 0205 02       		.byte	0x2
 4579 0206 23       		.byte	0x23
 4580 0207 2C       		.uleb128 0x2c
 4581 0208 06       		.uleb128 0x6
 4582 0209 D90C0000 		.4byte	.LASF40
 4583 020d 06       		.byte	0x6
 4584 020e BC       		.byte	0xbc
ARM GAS  /var/folders/5n/p_75w94d66l9ssrldxqdhh700000gn/T//cciPPkzE.s 			page 82


 4585 020f F3000000 		.4byte	0xf3
 4586 0213 02       		.byte	0x2
 4587 0214 23       		.byte	0x23
 4588 0215 34       		.uleb128 0x34
 4589 0216 06       		.uleb128 0x6
 4590 0217 AC040000 		.4byte	.LASF41
 4591 021b 06       		.byte	0x6
 4592 021c C2       		.byte	0xc2
 4593 021d FE000000 		.4byte	0xfe
 4594 0221 02       		.byte	0x2
 4595 0222 23       		.byte	0x23
 4596 0223 38       		.uleb128 0x38
 4597 0224 06       		.uleb128 0x6
 4598 0225 F2010000 		.4byte	.LASF42
 4599 0229 06       		.byte	0x6
 4600 022a C9       		.byte	0xc9
 4601 022b 9B040000 		.4byte	0x49b
 4602 022f 02       		.byte	0x2
 4603 0230 23       		.byte	0x23
 4604 0231 3C       		.uleb128 0x3c
 4605 0232 06       		.uleb128 0x6
 4606 0233 BD070000 		.4byte	.LASF43
 4607 0237 06       		.byte	0x6
 4608 0238 CD       		.byte	0xcd
 4609 0239 E8000000 		.4byte	0xe8
 4610 023d 02       		.byte	0x2
 4611 023e 23       		.byte	0x23
 4612 023f 40       		.uleb128 0x40
 4613 0240 06       		.uleb128 0x6
 4614 0241 BA060000 		.4byte	.LASF44
 4615 0245 06       		.byte	0x6
 4616 0246 D3       		.byte	0xd3
 4617 0247 B2020000 		.4byte	0x2b2
 4618 024b 02       		.byte	0x2
 4619 024c 23       		.byte	0x23
 4620 024d 44       		.uleb128 0x44
 4621 024e 00       		.byte	0
 4622 024f 08       		.uleb128 0x8
 4623 0250 08       		.byte	0x8
 4624 0251 05       		.byte	0x5
 4625 0252 5A       		.byte	0x5a
 4626 0253 74020000 		.4byte	0x274
 4627 0257 06       		.uleb128 0x6
 4628 0258 9C010000 		.4byte	.LASF26
 4629 025c 05       		.byte	0x5
 4630 025d 5B       		.byte	0x5b
 4631 025e 74020000 		.4byte	0x274
 4632 0262 02       		.byte	0x2
 4633 0263 23       		.byte	0x23
 4634 0264 00       		.uleb128 0
 4635 0265 06       		.uleb128 0x6
 4636 0266 AB010000 		.4byte	.LASF27
 4637 026a 05       		.byte	0x5
 4638 026b 5D       		.byte	0x5d
 4639 026c 74020000 		.4byte	0x274
 4640 0270 02       		.byte	0x2
 4641 0271 23       		.byte	0x23
ARM GAS  /var/folders/5n/p_75w94d66l9ssrldxqdhh700000gn/T//cciPPkzE.s 			page 83


 4642 0272 04       		.uleb128 0x4
 4643 0273 00       		.byte	0
 4644 0274 09       		.uleb128 0x9
 4645 0275 04       		.byte	0x4
 4646 0276 1F010000 		.4byte	0x11f
 4647 027a 03       		.uleb128 0x3
 4648 027b A20B0000 		.4byte	.LASF45
 4649 027f 05       		.byte	0x5
 4650 0280 5F       		.byte	0x5f
 4651 0281 4F020000 		.4byte	0x24f
 4652 0285 08       		.uleb128 0x8
 4653 0286 04       		.byte	0x4
 4654 0287 05       		.byte	0x5
 4655 0288 64       		.byte	0x64
 4656 0289 9C020000 		.4byte	0x29c
 4657 028d 06       		.uleb128 0x6
 4658 028e 9C010000 		.4byte	.LASF26
 4659 0292 05       		.byte	0x5
 4660 0293 66       		.byte	0x66
 4661 0294 74020000 		.4byte	0x274
 4662 0298 02       		.byte	0x2
 4663 0299 23       		.byte	0x23
 4664 029a 00       		.uleb128 0
 4665 029b 00       		.byte	0
 4666 029c 03       		.uleb128 0x3
 4667 029d E7060000 		.4byte	.LASF46
 4668 02a1 05       		.byte	0x5
 4669 02a2 69       		.byte	0x69
 4670 02a3 85020000 		.4byte	0x285
 4671 02a7 03       		.uleb128 0x3
 4672 02a8 04020000 		.4byte	.LASF47
 4673 02ac 07       		.byte	0x7
 4674 02ad DE       		.byte	0xde
 4675 02ae B2020000 		.4byte	0x2b2
 4676 02b2 0A       		.uleb128 0xa
 4677 02b3 04       		.byte	0x4
 4678 02b4 0B       		.uleb128 0xb
 4679 02b5 95040000 		.4byte	.LASF48
 4680 02b9 24       		.byte	0x24
 4681 02ba 07       		.byte	0x7
 4682 02bb 0501     		.2byte	0x105
 4683 02bd 42030000 		.4byte	0x342
 4684 02c1 0C       		.uleb128 0xc
 4685 02c2 723400   		.ascii	"r4\000"
 4686 02c5 07       		.byte	0x7
 4687 02c6 1801     		.2byte	0x118
 4688 02c8 A7020000 		.4byte	0x2a7
 4689 02cc 02       		.byte	0x2
 4690 02cd 23       		.byte	0x23
 4691 02ce 00       		.uleb128 0
 4692 02cf 0C       		.uleb128 0xc
 4693 02d0 723500   		.ascii	"r5\000"
 4694 02d3 07       		.byte	0x7
 4695 02d4 1901     		.2byte	0x119
 4696 02d6 A7020000 		.4byte	0x2a7
 4697 02da 02       		.byte	0x2
 4698 02db 23       		.byte	0x23
ARM GAS  /var/folders/5n/p_75w94d66l9ssrldxqdhh700000gn/T//cciPPkzE.s 			page 84


 4699 02dc 04       		.uleb128 0x4
 4700 02dd 0C       		.uleb128 0xc
 4701 02de 723600   		.ascii	"r6\000"
 4702 02e1 07       		.byte	0x7
 4703 02e2 1A01     		.2byte	0x11a
 4704 02e4 A7020000 		.4byte	0x2a7
 4705 02e8 02       		.byte	0x2
 4706 02e9 23       		.byte	0x23
 4707 02ea 08       		.uleb128 0x8
 4708 02eb 0C       		.uleb128 0xc
 4709 02ec 723700   		.ascii	"r7\000"
 4710 02ef 07       		.byte	0x7
 4711 02f0 1B01     		.2byte	0x11b
 4712 02f2 A7020000 		.4byte	0x2a7
 4713 02f6 02       		.byte	0x2
 4714 02f7 23       		.byte	0x23
 4715 02f8 0C       		.uleb128 0xc
 4716 02f9 0C       		.uleb128 0xc
 4717 02fa 723800   		.ascii	"r8\000"
 4718 02fd 07       		.byte	0x7
 4719 02fe 1C01     		.2byte	0x11c
 4720 0300 A7020000 		.4byte	0x2a7
 4721 0304 02       		.byte	0x2
 4722 0305 23       		.byte	0x23
 4723 0306 10       		.uleb128 0x10
 4724 0307 0C       		.uleb128 0xc
 4725 0308 723900   		.ascii	"r9\000"
 4726 030b 07       		.byte	0x7
 4727 030c 1D01     		.2byte	0x11d
 4728 030e A7020000 		.4byte	0x2a7
 4729 0312 02       		.byte	0x2
 4730 0313 23       		.byte	0x23
 4731 0314 14       		.uleb128 0x14
 4732 0315 0C       		.uleb128 0xc
 4733 0316 72313000 		.ascii	"r10\000"
 4734 031a 07       		.byte	0x7
 4735 031b 1E01     		.2byte	0x11e
 4736 031d A7020000 		.4byte	0x2a7
 4737 0321 02       		.byte	0x2
 4738 0322 23       		.byte	0x23
 4739 0323 18       		.uleb128 0x18
 4740 0324 0C       		.uleb128 0xc
 4741 0325 72313100 		.ascii	"r11\000"
 4742 0329 07       		.byte	0x7
 4743 032a 1F01     		.2byte	0x11f
 4744 032c A7020000 		.4byte	0x2a7
 4745 0330 02       		.byte	0x2
 4746 0331 23       		.byte	0x23
 4747 0332 1C       		.uleb128 0x1c
 4748 0333 0C       		.uleb128 0xc
 4749 0334 6C7200   		.ascii	"lr\000"
 4750 0337 07       		.byte	0x7
 4751 0338 2001     		.2byte	0x120
 4752 033a A7020000 		.4byte	0x2a7
 4753 033e 02       		.byte	0x2
 4754 033f 23       		.byte	0x23
 4755 0340 20       		.uleb128 0x20
ARM GAS  /var/folders/5n/p_75w94d66l9ssrldxqdhh700000gn/T//cciPPkzE.s 			page 85


 4756 0341 00       		.byte	0
 4757 0342 0B       		.uleb128 0xb
 4758 0343 BD020000 		.4byte	.LASF49
 4759 0347 04       		.byte	0x4
 4760 0348 07       		.byte	0x7
 4761 0349 2A01     		.2byte	0x12a
 4762 034b 5F030000 		.4byte	0x35f
 4763 034f 0C       		.uleb128 0xc
 4764 0350 72313300 		.ascii	"r13\000"
 4765 0354 07       		.byte	0x7
 4766 0355 2B01     		.2byte	0x12b
 4767 0357 5F030000 		.4byte	0x35f
 4768 035b 02       		.byte	0x2
 4769 035c 23       		.byte	0x23
 4770 035d 00       		.uleb128 0
 4771 035e 00       		.byte	0
 4772 035f 09       		.uleb128 0x9
 4773 0360 04       		.byte	0x4
 4774 0361 B4020000 		.4byte	0x2b4
 4775 0365 0D       		.uleb128 0xd
 4776 0366 09010000 		.4byte	0x109
 4777 036a 05       		.uleb128 0x5
 4778 036b 9C070000 		.4byte	.LASF50
 4779 036f 0C       		.byte	0xc
 4780 0370 08       		.byte	0x8
 4781 0371 25       		.byte	0x25
 4782 0372 93030000 		.4byte	0x393
 4783 0376 06       		.uleb128 0x6
 4784 0377 DC090000 		.4byte	.LASF51
 4785 037b 08       		.byte	0x8
 4786 037c 26       		.byte	0x26
 4787 037d 7A020000 		.4byte	0x27a
 4788 0381 02       		.byte	0x2
 4789 0382 23       		.byte	0x23
 4790 0383 00       		.uleb128 0
 4791 0384 06       		.uleb128 0x6
 4792 0385 01080000 		.4byte	.LASF52
 4793 0389 08       		.byte	0x8
 4794 038a 28       		.byte	0x28
 4795 038b 14010000 		.4byte	0x114
 4796 038f 02       		.byte	0x2
 4797 0390 23       		.byte	0x23
 4798 0391 08       		.uleb128 0x8
 4799 0392 00       		.byte	0
 4800 0393 03       		.uleb128 0x3
 4801 0394 9C070000 		.4byte	.LASF50
 4802 0398 08       		.byte	0x8
 4803 0399 29       		.byte	0x29
 4804 039a 6A030000 		.4byte	0x36a
 4805 039e 05       		.uleb128 0x5
 4806 039f D2050000 		.4byte	.LASF53
 4807 03a3 10       		.byte	0x10
 4808 03a4 09       		.byte	0x9
 4809 03a5 25       		.byte	0x25
 4810 03a6 D5030000 		.4byte	0x3d5
 4811 03aa 06       		.uleb128 0x6
 4812 03ab 07060000 		.4byte	.LASF54
ARM GAS  /var/folders/5n/p_75w94d66l9ssrldxqdhh700000gn/T//cciPPkzE.s 			page 86


 4813 03af 09       		.byte	0x9
 4814 03b0 26       		.byte	0x26
 4815 03b1 7A020000 		.4byte	0x27a
 4816 03b5 02       		.byte	0x2
 4817 03b6 23       		.byte	0x23
 4818 03b7 00       		.uleb128 0
 4819 03b8 06       		.uleb128 0x6
 4820 03b9 3D010000 		.4byte	.LASF55
 4821 03bd 09       		.byte	0x9
 4822 03be 28       		.byte	0x28
 4823 03bf 74020000 		.4byte	0x274
 4824 03c3 02       		.byte	0x2
 4825 03c4 23       		.byte	0x23
 4826 03c5 08       		.uleb128 0x8
 4827 03c6 06       		.uleb128 0x6
 4828 03c7 9F0C0000 		.4byte	.LASF56
 4829 03cb 09       		.byte	0x9
 4830 03cc 2A       		.byte	0x2a
 4831 03cd D5030000 		.4byte	0x3d5
 4832 03d1 02       		.byte	0x2
 4833 03d2 23       		.byte	0x23
 4834 03d3 0C       		.uleb128 0xc
 4835 03d4 00       		.byte	0
 4836 03d5 09       		.uleb128 0x9
 4837 03d6 04       		.byte	0x4
 4838 03d7 9E030000 		.4byte	0x39e
 4839 03db 03       		.uleb128 0x3
 4840 03dc D2050000 		.4byte	.LASF53
 4841 03e0 09       		.byte	0x9
 4842 03e1 2C       		.byte	0x2c
 4843 03e2 9E030000 		.4byte	0x39e
 4844 03e6 08       		.uleb128 0x8
 4845 03e7 28       		.byte	0x28
 4846 03e8 0A       		.byte	0xa
 4847 03e9 2C       		.byte	0x2c
 4848 03ea 43040000 		.4byte	0x443
 4849 03ee 06       		.uleb128 0x6
 4850 03ef C1000000 		.4byte	.LASF57
 4851 03f3 0A       		.byte	0xa
 4852 03f4 2D       		.byte	0x2d
 4853 03f5 43040000 		.4byte	0x443
 4854 03f9 02       		.byte	0x2
 4855 03fa 23       		.byte	0x23
 4856 03fb 00       		.uleb128 0
 4857 03fc 06       		.uleb128 0x6
 4858 03fd DA070000 		.4byte	.LASF58
 4859 0401 0A       		.byte	0xa
 4860 0402 2F       		.byte	0x2f
 4861 0403 43040000 		.4byte	0x443
 4862 0407 02       		.byte	0x2
 4863 0408 23       		.byte	0x23
 4864 0409 04       		.uleb128 0x4
 4865 040a 06       		.uleb128 0x6
 4866 040b 0F060000 		.4byte	.LASF59
 4867 040f 0A       		.byte	0xa
 4868 0410 31       		.byte	0x31
 4869 0411 43040000 		.4byte	0x443
ARM GAS  /var/folders/5n/p_75w94d66l9ssrldxqdhh700000gn/T//cciPPkzE.s 			page 87


 4870 0415 02       		.byte	0x2
 4871 0416 23       		.byte	0x23
 4872 0417 08       		.uleb128 0x8
 4873 0418 06       		.uleb128 0x6
 4874 0419 98020000 		.4byte	.LASF60
 4875 041d 0A       		.byte	0xa
 4876 041e 32       		.byte	0x32
 4877 041f 43040000 		.4byte	0x443
 4878 0423 02       		.byte	0x2
 4879 0424 23       		.byte	0x23
 4880 0425 0C       		.uleb128 0xc
 4881 0426 06       		.uleb128 0x6
 4882 0427 A0050000 		.4byte	.LASF61
 4883 042b 0A       		.byte	0xa
 4884 042c 33       		.byte	0x33
 4885 042d 93030000 		.4byte	0x393
 4886 0431 02       		.byte	0x2
 4887 0432 23       		.byte	0x23
 4888 0433 10       		.uleb128 0x10
 4889 0434 06       		.uleb128 0x6
 4890 0435 56030000 		.4byte	.LASF62
 4891 0439 0A       		.byte	0xa
 4892 043a 35       		.byte	0x35
 4893 043b 93030000 		.4byte	0x393
 4894 043f 02       		.byte	0x2
 4895 0440 23       		.byte	0x23
 4896 0441 1C       		.uleb128 0x1c
 4897 0442 00       		.byte	0
 4898 0443 09       		.uleb128 0x9
 4899 0444 04       		.byte	0x4
 4900 0445 F3000000 		.4byte	0xf3
 4901 0449 03       		.uleb128 0x3
 4902 044a 04050000 		.4byte	.LASF63
 4903 044e 0A       		.byte	0xa
 4904 044f 37       		.byte	0x37
 4905 0450 E6030000 		.4byte	0x3e6
 4906 0454 0E       		.uleb128 0xe
 4907 0455 04       		.byte	0x4
 4908 0456 06       		.byte	0x6
 4909 0457 8F       		.byte	0x8f
 4910 0458 89040000 		.4byte	0x489
 4911 045c 0F       		.uleb128 0xf
 4912 045d 2E0C0000 		.4byte	.LASF64
 4913 0461 06       		.byte	0x6
 4914 0462 96       		.byte	0x96
 4915 0463 F3000000 		.4byte	0xf3
 4916 0467 0F       		.uleb128 0xf
 4917 0468 4D010000 		.4byte	.LASF65
 4918 046c 06       		.byte	0x6
 4919 046d 9D       		.byte	0x9d
 4920 046e F3000000 		.4byte	0xf3
 4921 0472 0F       		.uleb128 0xf
 4922 0473 6A030000 		.4byte	.LASF66
 4923 0477 06       		.byte	0x6
 4924 0478 A4       		.byte	0xa4
 4925 0479 B2020000 		.4byte	0x2b2
 4926 047d 0F       		.uleb128 0xf
ARM GAS  /var/folders/5n/p_75w94d66l9ssrldxqdhh700000gn/T//cciPPkzE.s 			page 88


 4927 047e 56010000 		.4byte	.LASF67
 4928 0482 06       		.byte	0x6
 4929 0483 AB       		.byte	0xab
 4930 0484 FE000000 		.4byte	0xfe
 4931 0488 00       		.byte	0
 4932 0489 09       		.uleb128 0x9
 4933 048a 04       		.byte	0x4
 4934 048b 8F040000 		.4byte	0x48f
 4935 048f 10       		.uleb128 0x10
 4936 0490 94040000 		.4byte	0x494
 4937 0494 04       		.uleb128 0x4
 4938 0495 01       		.byte	0x1
 4939 0496 08       		.byte	0x8
 4940 0497 2A030000 		.4byte	.LASF68
 4941 049b 09       		.uleb128 0x9
 4942 049c 04       		.byte	0x4
 4943 049d DB030000 		.4byte	0x3db
 4944 04a1 03       		.uleb128 0x3
 4945 04a2 4D0C0000 		.4byte	.LASF69
 4946 04a6 0B       		.byte	0xb
 4947 04a7 3C       		.byte	0x3c
 4948 04a8 54000000 		.4byte	0x54
 4949 04ac 03       		.uleb128 0x3
 4950 04ad 480C0000 		.4byte	.LASF70
 4951 04b1 0B       		.byte	0xb
 4952 04b2 3D       		.byte	0x3d
 4953 04b3 42000000 		.4byte	0x42
 4954 04b7 03       		.uleb128 0x3
 4955 04b8 B4060000 		.4byte	.LASF71
 4956 04bc 0B       		.byte	0xb
 4957 04bd 3E       		.byte	0x3e
 4958 04be 78000000 		.4byte	0x78
 4959 04c2 03       		.uleb128 0x3
 4960 04c3 280B0000 		.4byte	.LASF72
 4961 04c7 0B       		.byte	0xb
 4962 04c8 3F       		.byte	0x3f
 4963 04c9 66000000 		.4byte	0x66
 4964 04cd 03       		.uleb128 0x3
 4965 04ce 66090000 		.4byte	.LASF73
 4966 04d2 0B       		.byte	0xb
 4967 04d3 40       		.byte	0x40
 4968 04d4 9C000000 		.4byte	0x9c
 4969 04d8 03       		.uleb128 0x3
 4970 04d9 470B0000 		.4byte	.LASF74
 4971 04dd 0B       		.byte	0xb
 4972 04de 42       		.byte	0x42
 4973 04df 9C000000 		.4byte	0x9c
 4974 04e3 05       		.uleb128 0x5
 4975 04e4 07040000 		.4byte	.LASF75
 4976 04e8 04       		.byte	0x4
 4977 04e9 0C       		.byte	0xc
 4978 04ea 2C       		.byte	0x2c
 4979 04eb FE040000 		.4byte	0x4fe
 4980 04ef 06       		.uleb128 0x6
 4981 04f0 93060000 		.4byte	.LASF76
 4982 04f4 0C       		.byte	0xc
 4983 04f5 2D       		.byte	0x2d
ARM GAS  /var/folders/5n/p_75w94d66l9ssrldxqdhh700000gn/T//cciPPkzE.s 			page 89


 4984 04f6 CD040000 		.4byte	0x4cd
 4985 04fa 02       		.byte	0x2
 4986 04fb 23       		.byte	0x23
 4987 04fc 00       		.uleb128 0
 4988 04fd 00       		.byte	0
 4989 04fe 03       		.uleb128 0x3
 4990 04ff 92070000 		.4byte	.LASF77
 4991 0503 0C       		.byte	0xc
 4992 0504 40       		.byte	0x40
 4993 0505 E3040000 		.4byte	0x4e3
 4994 0509 05       		.uleb128 0x5
 4995 050a 5E090000 		.4byte	.LASF78
 4996 050e 04       		.byte	0x4
 4997 050f 0D       		.byte	0xd
 4998 0510 2C       		.byte	0x2c
 4999 0511 24050000 		.4byte	0x524
 5000 0515 06       		.uleb128 0x6
 5001 0516 510B0000 		.4byte	.LASF79
 5002 051a 0D       		.byte	0xd
 5003 051b 2D       		.byte	0x2d
 5004 051c CD040000 		.4byte	0x4cd
 5005 0520 02       		.byte	0x2
 5006 0521 23       		.byte	0x23
 5007 0522 00       		.uleb128 0
 5008 0523 00       		.byte	0
 5009 0524 05       		.uleb128 0x5
 5010 0525 D9080000 		.4byte	.LASF80
 5011 0529 10       		.byte	0x10
 5012 052a 0E       		.byte	0xe
 5013 052b 33       		.byte	0x33
 5014 052c 77050000 		.4byte	0x577
 5015 0530 06       		.uleb128 0x6
 5016 0531 FC010000 		.4byte	.LASF81
 5017 0535 0E       		.byte	0xe
 5018 0536 34       		.byte	0x34
 5019 0537 A1040000 		.4byte	0x4a1
 5020 053b 02       		.byte	0x2
 5021 053c 23       		.byte	0x23
 5022 053d 00       		.uleb128 0
 5023 053e 06       		.uleb128 0x6
 5024 053f 71000000 		.4byte	.LASF82
 5025 0543 0E       		.byte	0xe
 5026 0544 35       		.byte	0x35
 5027 0545 A1040000 		.4byte	0x4a1
 5028 0549 02       		.byte	0x2
 5029 054a 23       		.byte	0x23
 5030 054b 01       		.uleb128 0x1
 5031 054c 06       		.uleb128 0x6
 5032 054d 9A030000 		.4byte	.LASF83
 5033 0551 0E       		.byte	0xe
 5034 0552 36       		.byte	0x36
 5035 0553 B7040000 		.4byte	0x4b7
 5036 0557 02       		.byte	0x2
 5037 0558 23       		.byte	0x23
 5038 0559 02       		.uleb128 0x2
 5039 055a 06       		.uleb128 0x6
 5040 055b 87000000 		.4byte	.LASF84
ARM GAS  /var/folders/5n/p_75w94d66l9ssrldxqdhh700000gn/T//cciPPkzE.s 			page 90


 5041 055f 0E       		.byte	0xe
 5042 0560 37       		.byte	0x37
 5043 0561 09050000 		.4byte	0x509
 5044 0565 02       		.byte	0x2
 5045 0566 23       		.byte	0x23
 5046 0567 04       		.uleb128 0x4
 5047 0568 06       		.uleb128 0x6
 5048 0569 14040000 		.4byte	.LASF85
 5049 056d 0E       		.byte	0xe
 5050 056e 38       		.byte	0x38
 5051 056f 77050000 		.4byte	0x577
 5052 0573 02       		.byte	0x2
 5053 0574 23       		.byte	0x23
 5054 0575 08       		.uleb128 0x8
 5055 0576 00       		.byte	0
 5056 0577 11       		.uleb128 0x11
 5057 0578 94040000 		.4byte	0x494
 5058 057c 87050000 		.4byte	0x587
 5059 0580 12       		.uleb128 0x12
 5060 0581 3B000000 		.4byte	0x3b
 5061 0585 07       		.byte	0x7
 5062 0586 00       		.byte	0
 5063 0587 05       		.uleb128 0x5
 5064 0588 FA080000 		.4byte	.LASF86
 5065 058c 10       		.byte	0x10
 5066 058d 0E       		.byte	0xe
 5067 058e 3B       		.byte	0x3b
 5068 058f BE050000 		.4byte	0x5be
 5069 0593 06       		.uleb128 0x6
 5070 0594 EF090000 		.4byte	.LASF87
 5071 0598 0E       		.byte	0xe
 5072 0599 3C       		.byte	0x3c
 5073 059a A1040000 		.4byte	0x4a1
 5074 059e 02       		.byte	0x2
 5075 059f 23       		.byte	0x23
 5076 05a0 00       		.uleb128 0
 5077 05a1 06       		.uleb128 0x6
 5078 05a2 19000000 		.4byte	.LASF88
 5079 05a6 0E       		.byte	0xe
 5080 05a7 3D       		.byte	0x3d
 5081 05a8 A1040000 		.4byte	0x4a1
 5082 05ac 02       		.byte	0x2
 5083 05ad 23       		.byte	0x23
 5084 05ae 01       		.uleb128 0x1
 5085 05af 06       		.uleb128 0x6
 5086 05b0 B2080000 		.4byte	.LASF89
 5087 05b4 0E       		.byte	0xe
 5088 05b5 3E       		.byte	0x3e
 5089 05b6 BE050000 		.4byte	0x5be
 5090 05ba 02       		.byte	0x2
 5091 05bb 23       		.byte	0x23
 5092 05bc 02       		.uleb128 0x2
 5093 05bd 00       		.byte	0
 5094 05be 11       		.uleb128 0x11
 5095 05bf 94040000 		.4byte	0x494
 5096 05c3 CE050000 		.4byte	0x5ce
 5097 05c7 12       		.uleb128 0x12
ARM GAS  /var/folders/5n/p_75w94d66l9ssrldxqdhh700000gn/T//cciPPkzE.s 			page 91


 5098 05c8 3B000000 		.4byte	0x3b
 5099 05cc 0D       		.byte	0xd
 5100 05cd 00       		.byte	0
 5101 05ce 0B       		.uleb128 0xb
 5102 05cf 010B0000 		.4byte	.LASF90
 5103 05d3 01       		.byte	0x1
 5104 05d4 0E       		.byte	0xe
 5105 05d5 2A01     		.2byte	0x12a
 5106 05d7 EB050000 		.4byte	0x5eb
 5107 05db 13       		.uleb128 0x13
 5108 05dc 37060000 		.4byte	.LASF91
 5109 05e0 0E       		.byte	0xe
 5110 05e1 2B01     		.2byte	0x12b
 5111 05e3 EB050000 		.4byte	0x5eb
 5112 05e7 02       		.byte	0x2
 5113 05e8 23       		.byte	0x23
 5114 05e9 00       		.uleb128 0
 5115 05ea 00       		.byte	0
 5116 05eb 11       		.uleb128 0x11
 5117 05ec 5F000000 		.4byte	0x5f
 5118 05f0 FB050000 		.4byte	0x5fb
 5119 05f4 12       		.uleb128 0x12
 5120 05f5 3B000000 		.4byte	0x3b
 5121 05f9 00       		.byte	0
 5122 05fa 00       		.byte	0
 5123 05fb 14       		.uleb128 0x14
 5124 05fc 010B0000 		.4byte	.LASF90
 5125 0600 0E       		.byte	0xe
 5126 0601 2C01     		.2byte	0x12c
 5127 0603 CE050000 		.4byte	0x5ce
 5128 0607 0B       		.uleb128 0xb
 5129 0608 71030000 		.4byte	.LASF92
 5130 060c 08       		.byte	0x8
 5131 060d 0E       		.byte	0xe
 5132 060e 3701     		.2byte	0x137
 5133 0610 33060000 		.4byte	0x633
 5134 0614 13       		.uleb128 0x13
 5135 0615 C30C0000 		.4byte	.LASF93
 5136 0619 0E       		.byte	0xe
 5137 061a 3801     		.2byte	0x138
 5138 061c 95000000 		.4byte	0x95
 5139 0620 02       		.byte	0x2
 5140 0621 23       		.byte	0x23
 5141 0622 00       		.uleb128 0
 5142 0623 13       		.uleb128 0x13
 5143 0624 A4040000 		.4byte	.LASF94
 5144 0628 0E       		.byte	0xe
 5145 0629 3901     		.2byte	0x139
 5146 062b 95000000 		.4byte	0x95
 5147 062f 02       		.byte	0x2
 5148 0630 23       		.byte	0x23
 5149 0631 04       		.uleb128 0x4
 5150 0632 00       		.byte	0
 5151 0633 03       		.uleb128 0x3
 5152 0634 C8070000 		.4byte	.LASF95
 5153 0638 0F       		.byte	0xf
 5154 0639 2F       		.byte	0x2f
ARM GAS  /var/folders/5n/p_75w94d66l9ssrldxqdhh700000gn/T//cciPPkzE.s 			page 92


 5155 063a AC040000 		.4byte	0x4ac
 5156 063e 05       		.uleb128 0x5
 5157 063f 2F030000 		.4byte	.LASF96
 5158 0643 10       		.byte	0x10
 5159 0644 10       		.byte	0x10
 5160 0645 49       		.byte	0x49
 5161 0646 AD060000 		.4byte	0x6ad
 5162 064a 06       		.uleb128 0x6
 5163 064b 950C0000 		.4byte	.LASF97
 5164 064f 10       		.byte	0x10
 5165 0650 4B       		.byte	0x4b
 5166 0651 AD060000 		.4byte	0x6ad
 5167 0655 02       		.byte	0x2
 5168 0656 23       		.byte	0x23
 5169 0657 00       		.uleb128 0
 5170 0658 06       		.uleb128 0x6
 5171 0659 85050000 		.4byte	.LASF98
 5172 065d 10       		.byte	0x10
 5173 065e 4E       		.byte	0x4e
 5174 065f B2020000 		.4byte	0x2b2
 5175 0663 02       		.byte	0x2
 5176 0664 23       		.byte	0x23
 5177 0665 04       		.uleb128 0x4
 5178 0666 06       		.uleb128 0x6
 5179 0667 82070000 		.4byte	.LASF99
 5180 066b 10       		.byte	0x10
 5181 066c 57       		.byte	0x57
 5182 066d B7040000 		.4byte	0x4b7
 5183 0671 02       		.byte	0x2
 5184 0672 23       		.byte	0x23
 5185 0673 08       		.uleb128 0x8
 5186 0674 07       		.uleb128 0x7
 5187 0675 6C656E00 		.ascii	"len\000"
 5188 0679 10       		.byte	0x10
 5189 067a 5A       		.byte	0x5a
 5190 067b B7040000 		.4byte	0x4b7
 5191 067f 02       		.byte	0x2
 5192 0680 23       		.byte	0x23
 5193 0681 0A       		.uleb128 0xa
 5194 0682 06       		.uleb128 0x6
 5195 0683 FA000000 		.4byte	.LASF100
 5196 0687 10       		.byte	0x10
 5197 0688 5D       		.byte	0x5d
 5198 0689 A1040000 		.4byte	0x4a1
 5199 068d 02       		.byte	0x2
 5200 068e 23       		.byte	0x23
 5201 068f 0C       		.uleb128 0xc
 5202 0690 06       		.uleb128 0x6
 5203 0691 C7030000 		.4byte	.LASF101
 5204 0695 10       		.byte	0x10
 5205 0696 60       		.byte	0x60
 5206 0697 A1040000 		.4byte	0x4a1
 5207 069b 02       		.byte	0x2
 5208 069c 23       		.byte	0x23
 5209 069d 0D       		.uleb128 0xd
 5210 069e 07       		.uleb128 0x7
 5211 069f 72656600 		.ascii	"ref\000"
ARM GAS  /var/folders/5n/p_75w94d66l9ssrldxqdhh700000gn/T//cciPPkzE.s 			page 93


 5212 06a3 10       		.byte	0x10
 5213 06a4 67       		.byte	0x67
 5214 06a5 B7040000 		.4byte	0x4b7
 5215 06a9 02       		.byte	0x2
 5216 06aa 23       		.byte	0x23
 5217 06ab 0E       		.uleb128 0xe
 5218 06ac 00       		.byte	0
 5219 06ad 09       		.uleb128 0x9
 5220 06ae 04       		.byte	0x4
 5221 06af 3E060000 		.4byte	0x63e
 5222 06b3 05       		.uleb128 0x5
 5223 06b4 E2030000 		.4byte	.LASF102
 5224 06b8 10       		.byte	0x10
 5225 06b9 11       		.byte	0x11
 5226 06ba 30       		.byte	0x30
 5227 06bb F6060000 		.4byte	0x6f6
 5228 06bf 07       		.uleb128 0x7
 5229 06c0 7000     		.ascii	"p\000"
 5230 06c2 11       		.byte	0x11
 5231 06c3 31       		.byte	0x31
 5232 06c4 AD060000 		.4byte	0x6ad
 5233 06c8 02       		.byte	0x2
 5234 06c9 23       		.byte	0x23
 5235 06ca 00       		.uleb128 0
 5236 06cb 07       		.uleb128 0x7
 5237 06cc 70747200 		.ascii	"ptr\000"
 5238 06d0 11       		.byte	0x11
 5239 06d1 31       		.byte	0x31
 5240 06d2 AD060000 		.4byte	0x6ad
 5241 06d6 02       		.byte	0x2
 5242 06d7 23       		.byte	0x23
 5243 06d8 04       		.uleb128 0x4
 5244 06d9 06       		.uleb128 0x6
 5245 06da 93060000 		.4byte	.LASF76
 5246 06de 11       		.byte	0x11
 5247 06df 32       		.byte	0x32
 5248 06e0 FE040000 		.4byte	0x4fe
 5249 06e4 02       		.byte	0x2
 5250 06e5 23       		.byte	0x23
 5251 06e6 08       		.uleb128 0x8
 5252 06e7 06       		.uleb128 0x6
 5253 06e8 E4090000 		.4byte	.LASF103
 5254 06ec 11       		.byte	0x11
 5255 06ed 33       		.byte	0x33
 5256 06ee B7040000 		.4byte	0x4b7
 5257 06f2 02       		.byte	0x2
 5258 06f3 23       		.byte	0x23
 5259 06f4 0C       		.uleb128 0xc
 5260 06f5 00       		.byte	0
 5261 06f6 03       		.uleb128 0x3
 5262 06f7 D3010000 		.4byte	.LASF104
 5263 06fb 12       		.byte	0x12
 5264 06fc 3C       		.byte	0x3c
 5265 06fd 01070000 		.4byte	0x701
 5266 0701 09       		.uleb128 0x9
 5267 0702 04       		.byte	0x4
 5268 0703 93030000 		.4byte	0x393
ARM GAS  /var/folders/5n/p_75w94d66l9ssrldxqdhh700000gn/T//cciPPkzE.s 			page 94


 5269 0707 03       		.uleb128 0x3
 5270 0708 C7050000 		.4byte	.LASF105
 5271 070c 12       		.byte	0x12
 5272 070d 3D       		.byte	0x3d
 5273 070e 12070000 		.4byte	0x712
 5274 0712 09       		.uleb128 0x9
 5275 0713 04       		.byte	0x4
 5276 0714 49040000 		.4byte	0x449
 5277 0718 15       		.uleb128 0x15
 5278 0719 A3030000 		.4byte	.LASF112
 5279 071d 01       		.byte	0x1
 5280 071e 13       		.byte	0x13
 5281 071f 53       		.byte	0x53
 5282 0720 4A070000 		.4byte	0x74a
 5283 0724 16       		.uleb128 0x16
 5284 0725 28010000 		.4byte	.LASF106
 5285 0729 00       		.sleb128 0
 5286 072a 16       		.uleb128 0x16
 5287 072b 15030000 		.4byte	.LASF107
 5288 072f 10       		.sleb128 16
 5289 0730 16       		.uleb128 0x16
 5290 0731 D8050000 		.4byte	.LASF108
 5291 0735 20       		.sleb128 32
 5292 0736 16       		.uleb128 0x16
 5293 0737 380A0000 		.4byte	.LASF109
 5294 073b 21       		.sleb128 33
 5295 073c 16       		.uleb128 0x16
 5296 073d 1D040000 		.4byte	.LASF110
 5297 0741 22       		.sleb128 34
 5298 0742 16       		.uleb128 0x16
 5299 0743 AA090000 		.4byte	.LASF111
 5300 0747 C000     		.sleb128 64
 5301 0749 00       		.byte	0
 5302 074a 15       		.uleb128 0x15
 5303 074b 7B060000 		.4byte	.LASF113
 5304 074f 01       		.byte	0x1
 5305 0750 13       		.byte	0x13
 5306 0751 61       		.byte	0x61
 5307 0752 75070000 		.4byte	0x775
 5308 0756 16       		.uleb128 0x16
 5309 0757 E40A0000 		.4byte	.LASF114
 5310 075b 00       		.sleb128 0
 5311 075c 16       		.uleb128 0x16
 5312 075d B2010000 		.4byte	.LASF115
 5313 0761 01       		.sleb128 1
 5314 0762 16       		.uleb128 0x16
 5315 0763 1B0A0000 		.4byte	.LASF116
 5316 0767 02       		.sleb128 2
 5317 0768 16       		.uleb128 0x16
 5318 0769 6C070000 		.4byte	.LASF117
 5319 076d 03       		.sleb128 3
 5320 076e 16       		.uleb128 0x16
 5321 076f 0C050000 		.4byte	.LASF118
 5322 0773 04       		.sleb128 4
 5323 0774 00       		.byte	0
 5324 0775 15       		.uleb128 0x15
 5325 0776 20020000 		.4byte	.LASF119
ARM GAS  /var/folders/5n/p_75w94d66l9ssrldxqdhh700000gn/T//cciPPkzE.s 			page 95


 5326 077a 01       		.byte	0x1
 5327 077b 13       		.byte	0x13
 5328 077c 6A       		.byte	0x6a
 5329 077d A0070000 		.4byte	0x7a0
 5330 0781 16       		.uleb128 0x16
 5331 0782 0E0C0000 		.4byte	.LASF120
 5332 0786 00       		.sleb128 0
 5333 0787 16       		.uleb128 0x16
 5334 0788 03090000 		.4byte	.LASF121
 5335 078c 01       		.sleb128 1
 5336 078d 16       		.uleb128 0x16
 5337 078e 38050000 		.4byte	.LASF122
 5338 0792 02       		.sleb128 2
 5339 0793 16       		.uleb128 0x16
 5340 0794 92080000 		.4byte	.LASF123
 5341 0798 03       		.sleb128 3
 5342 0799 16       		.uleb128 0x16
 5343 079a 81010000 		.4byte	.LASF124
 5344 079e 04       		.sleb128 4
 5345 079f 00       		.byte	0
 5346 07a0 03       		.uleb128 0x3
 5347 07a1 830B0000 		.4byte	.LASF125
 5348 07a5 13       		.byte	0x13
 5349 07a6 83       		.byte	0x83
 5350 07a7 AB070000 		.4byte	0x7ab
 5351 07ab 09       		.uleb128 0x9
 5352 07ac 04       		.byte	0x4
 5353 07ad B1070000 		.4byte	0x7b1
 5354 07b1 17       		.uleb128 0x17
 5355 07b2 01       		.byte	0x1
 5356 07b3 C7070000 		.4byte	0x7c7
 5357 07b7 18       		.uleb128 0x18
 5358 07b8 C7070000 		.4byte	0x7c7
 5359 07bc 18       		.uleb128 0x18
 5360 07bd 75070000 		.4byte	0x775
 5361 07c1 18       		.uleb128 0x18
 5362 07c2 B7040000 		.4byte	0x4b7
 5363 07c6 00       		.byte	0
 5364 07c7 09       		.uleb128 0x9
 5365 07c8 04       		.byte	0x4
 5366 07c9 CD070000 		.4byte	0x7cd
 5367 07cd 05       		.uleb128 0x5
 5368 07ce 5D010000 		.4byte	.LASF126
 5369 07d2 2C       		.byte	0x2c
 5370 07d3 13       		.byte	0x13
 5371 07d4 86       		.byte	0x86
 5372 07d5 82080000 		.4byte	0x882
 5373 07d9 06       		.uleb128 0x6
 5374 07da FA000000 		.4byte	.LASF100
 5375 07de 13       		.byte	0x13
 5376 07df 88       		.byte	0x88
 5377 07e0 18070000 		.4byte	0x718
 5378 07e4 02       		.byte	0x2
 5379 07e5 23       		.byte	0x23
 5380 07e6 00       		.uleb128 0
 5381 07e7 06       		.uleb128 0x6
 5382 07e8 D7000000 		.4byte	.LASF127
ARM GAS  /var/folders/5n/p_75w94d66l9ssrldxqdhh700000gn/T//cciPPkzE.s 			page 96


 5383 07ec 13       		.byte	0x13
 5384 07ed 8A       		.byte	0x8a
 5385 07ee 4A070000 		.4byte	0x74a
 5386 07f2 02       		.byte	0x2
 5387 07f3 23       		.byte	0x23
 5388 07f4 01       		.uleb128 0x1
 5389 07f5 07       		.uleb128 0x7
 5390 07f6 70636200 		.ascii	"pcb\000"
 5391 07fa 13       		.byte	0x13
 5392 07fb 91       		.byte	0x91
 5393 07fc 82080000 		.4byte	0x882
 5394 0800 02       		.byte	0x2
 5395 0801 23       		.byte	0x23
 5396 0802 04       		.uleb128 0x4
 5397 0803 06       		.uleb128 0x6
 5398 0804 CA0C0000 		.4byte	.LASF128
 5399 0808 13       		.byte	0x13
 5400 0809 93       		.byte	0x93
 5401 080a 33060000 		.4byte	0x633
 5402 080e 02       		.byte	0x2
 5403 080f 23       		.byte	0x23
 5404 0810 08       		.uleb128 0x8
 5405 0811 06       		.uleb128 0x6
 5406 0812 6C010000 		.4byte	.LASF129
 5407 0816 13       		.byte	0x13
 5408 0817 95       		.byte	0x95
 5409 0818 F6060000 		.4byte	0x6f6
 5410 081c 02       		.byte	0x2
 5411 081d 23       		.byte	0x23
 5412 081e 0C       		.uleb128 0xc
 5413 081f 06       		.uleb128 0x6
 5414 0820 050C0000 		.4byte	.LASF130
 5415 0824 13       		.byte	0x13
 5416 0825 98       		.byte	0x98
 5417 0826 07070000 		.4byte	0x707
 5418 082a 02       		.byte	0x2
 5419 082b 23       		.byte	0x23
 5420 082c 10       		.uleb128 0x10
 5421 082d 06       		.uleb128 0x6
 5422 082e 71050000 		.4byte	.LASF131
 5423 0832 13       		.byte	0x13
 5424 0833 9C       		.byte	0x9c
 5425 0834 07070000 		.4byte	0x707
 5426 0838 02       		.byte	0x2
 5427 0839 23       		.byte	0x23
 5428 083a 14       		.uleb128 0x14
 5429 083b 06       		.uleb128 0x6
 5430 083c 0F0B0000 		.4byte	.LASF132
 5431 0840 13       		.byte	0x13
 5432 0841 A0       		.byte	0xa0
 5433 0842 29000000 		.4byte	0x29
 5434 0846 02       		.byte	0x2
 5435 0847 23       		.byte	0x23
 5436 0848 18       		.uleb128 0x18
 5437 0849 06       		.uleb128 0x6
 5438 084a C7030000 		.4byte	.LASF101
 5439 084e 13       		.byte	0x13
ARM GAS  /var/folders/5n/p_75w94d66l9ssrldxqdhh700000gn/T//cciPPkzE.s 			page 97


 5440 084f B1       		.byte	0xb1
 5441 0850 A1040000 		.4byte	0x4a1
 5442 0854 02       		.byte	0x2
 5443 0855 23       		.byte	0x23
 5444 0856 1C       		.uleb128 0x1c
 5445 0857 06       		.uleb128 0x6
 5446 0858 74090000 		.4byte	.LASF133
 5447 085c 13       		.byte	0x13
 5448 085d B5       		.byte	0xb5
 5449 085e 30000000 		.4byte	0x30
 5450 0862 02       		.byte	0x2
 5451 0863 23       		.byte	0x23
 5452 0864 20       		.uleb128 0x20
 5453 0865 06       		.uleb128 0x6
 5454 0866 1A050000 		.4byte	.LASF134
 5455 086a 13       		.byte	0x13
 5456 086b B9       		.byte	0xb9
 5457 086c 990D0000 		.4byte	0xd99
 5458 0870 02       		.byte	0x2
 5459 0871 23       		.byte	0x23
 5460 0872 24       		.uleb128 0x24
 5461 0873 06       		.uleb128 0x6
 5462 0874 7C050000 		.4byte	.LASF135
 5463 0878 13       		.byte	0x13
 5464 0879 BC       		.byte	0xbc
 5465 087a A0070000 		.4byte	0x7a0
 5466 087e 02       		.byte	0x2
 5467 087f 23       		.byte	0x23
 5468 0880 28       		.uleb128 0x28
 5469 0881 00       		.byte	0
 5470 0882 0E       		.uleb128 0xe
 5471 0883 04       		.byte	0x4
 5472 0884 13       		.byte	0x13
 5473 0885 8C       		.byte	0x8c
 5474 0886 B6080000 		.4byte	0x8b6
 5475 088a 19       		.uleb128 0x19
 5476 088b 697000   		.ascii	"ip\000"
 5477 088e 13       		.byte	0x13
 5478 088f 8D       		.byte	0x8d
 5479 0890 09090000 		.4byte	0x909
 5480 0894 19       		.uleb128 0x19
 5481 0895 74637000 		.ascii	"tcp\000"
 5482 0899 13       		.byte	0x13
 5483 089a 8E       		.byte	0x8e
 5484 089b 1E0C0000 		.4byte	0xc1e
 5485 089f 19       		.uleb128 0x19
 5486 08a0 75647000 		.ascii	"udp\000"
 5487 08a4 13       		.byte	0x13
 5488 08a5 8F       		.byte	0x8f
 5489 08a6 CB0C0000 		.4byte	0xccb
 5490 08aa 19       		.uleb128 0x19
 5491 08ab 72617700 		.ascii	"raw\000"
 5492 08af 13       		.byte	0x13
 5493 08b0 90       		.byte	0x90
 5494 08b1 5C0D0000 		.4byte	0xd5c
 5495 08b5 00       		.byte	0
 5496 08b6 05       		.uleb128 0x5
ARM GAS  /var/folders/5n/p_75w94d66l9ssrldxqdhh700000gn/T//cciPPkzE.s 			page 98


 5497 08b7 00060000 		.4byte	.LASF136
 5498 08bb 0C       		.byte	0xc
 5499 08bc 14       		.byte	0x14
 5500 08bd 59       		.byte	0x59
 5501 08be 09090000 		.4byte	0x909
 5502 08c2 06       		.uleb128 0x6
 5503 08c3 C5020000 		.4byte	.LASF137
 5504 08c7 14       		.byte	0x14
 5505 08c8 5B       		.byte	0x5b
 5506 08c9 FE040000 		.4byte	0x4fe
 5507 08cd 02       		.byte	0x2
 5508 08ce 23       		.byte	0x23
 5509 08cf 00       		.uleb128 0
 5510 08d0 06       		.uleb128 0x6
 5511 08d1 54090000 		.4byte	.LASF138
 5512 08d5 14       		.byte	0x14
 5513 08d6 5B       		.byte	0x5b
 5514 08d7 FE040000 		.4byte	0x4fe
 5515 08db 02       		.byte	0x2
 5516 08dc 23       		.byte	0x23
 5517 08dd 04       		.uleb128 0x4
 5518 08de 06       		.uleb128 0x6
 5519 08df A3000000 		.4byte	.LASF139
 5520 08e3 14       		.byte	0x14
 5521 08e4 5B       		.byte	0x5b
 5522 08e5 A1040000 		.4byte	0x4a1
 5523 08e9 02       		.byte	0x2
 5524 08ea 23       		.byte	0x23
 5525 08eb 08       		.uleb128 0x8
 5526 08ec 07       		.uleb128 0x7
 5527 08ed 746F7300 		.ascii	"tos\000"
 5528 08f1 14       		.byte	0x14
 5529 08f2 5B       		.byte	0x5b
 5530 08f3 A1040000 		.4byte	0x4a1
 5531 08f7 02       		.byte	0x2
 5532 08f8 23       		.byte	0x23
 5533 08f9 09       		.uleb128 0x9
 5534 08fa 07       		.uleb128 0x7
 5535 08fb 74746C00 		.ascii	"ttl\000"
 5536 08ff 14       		.byte	0x14
 5537 0900 5B       		.byte	0x5b
 5538 0901 A1040000 		.4byte	0x4a1
 5539 0905 02       		.byte	0x2
 5540 0906 23       		.byte	0x23
 5541 0907 0A       		.uleb128 0xa
 5542 0908 00       		.byte	0
 5543 0909 09       		.uleb128 0x9
 5544 090a 04       		.byte	0x4
 5545 090b B6080000 		.4byte	0x8b6
 5546 090f 05       		.uleb128 0x5
 5547 0910 DA030000 		.4byte	.LASF140
 5548 0914 A4       		.byte	0xa4
 5549 0915 15       		.byte	0x15
 5550 0916 A9       		.byte	0xa9
 5551 0917 1E0C0000 		.4byte	0xc1e
 5552 091b 06       		.uleb128 0x6
 5553 091c C5020000 		.4byte	.LASF137
ARM GAS  /var/folders/5n/p_75w94d66l9ssrldxqdhh700000gn/T//cciPPkzE.s 			page 99


 5554 0920 15       		.byte	0x15
 5555 0921 AB       		.byte	0xab
 5556 0922 FE040000 		.4byte	0x4fe
 5557 0926 02       		.byte	0x2
 5558 0927 23       		.byte	0x23
 5559 0928 00       		.uleb128 0
 5560 0929 06       		.uleb128 0x6
 5561 092a 54090000 		.4byte	.LASF138
 5562 092e 15       		.byte	0x15
 5563 092f AB       		.byte	0xab
 5564 0930 FE040000 		.4byte	0x4fe
 5565 0934 02       		.byte	0x2
 5566 0935 23       		.byte	0x23
 5567 0936 04       		.uleb128 0x4
 5568 0937 06       		.uleb128 0x6
 5569 0938 A3000000 		.4byte	.LASF139
 5570 093c 15       		.byte	0x15
 5571 093d AB       		.byte	0xab
 5572 093e A1040000 		.4byte	0x4a1
 5573 0942 02       		.byte	0x2
 5574 0943 23       		.byte	0x23
 5575 0944 08       		.uleb128 0x8
 5576 0945 07       		.uleb128 0x7
 5577 0946 746F7300 		.ascii	"tos\000"
 5578 094a 15       		.byte	0x15
 5579 094b AB       		.byte	0xab
 5580 094c A1040000 		.4byte	0x4a1
 5581 0950 02       		.byte	0x2
 5582 0951 23       		.byte	0x23
 5583 0952 09       		.uleb128 0x9
 5584 0953 07       		.uleb128 0x7
 5585 0954 74746C00 		.ascii	"ttl\000"
 5586 0958 15       		.byte	0x15
 5587 0959 AB       		.byte	0xab
 5588 095a A1040000 		.4byte	0x4a1
 5589 095e 02       		.byte	0x2
 5590 095f 23       		.byte	0x23
 5591 0960 0A       		.uleb128 0xa
 5592 0961 06       		.uleb128 0x6
 5593 0962 950C0000 		.4byte	.LASF97
 5594 0966 15       		.byte	0x15
 5595 0967 AD       		.byte	0xad
 5596 0968 1E0C0000 		.4byte	0xc1e
 5597 096c 02       		.byte	0x2
 5598 096d 23       		.byte	0x23
 5599 096e 0C       		.uleb128 0xc
 5600 096f 06       		.uleb128 0x6
 5601 0970 D7000000 		.4byte	.LASF127
 5602 0974 15       		.byte	0x15
 5603 0975 AD       		.byte	0xad
 5604 0976 7E0E0000 		.4byte	0xe7e
 5605 097a 02       		.byte	0x2
 5606 097b 23       		.byte	0x23
 5607 097c 10       		.uleb128 0x10
 5608 097d 06       		.uleb128 0x6
 5609 097e 38010000 		.4byte	.LASF141
 5610 0982 15       		.byte	0x15
ARM GAS  /var/folders/5n/p_75w94d66l9ssrldxqdhh700000gn/T//cciPPkzE.s 			page 100


 5611 0983 AD       		.byte	0xad
 5612 0984 A1040000 		.4byte	0x4a1
 5613 0988 02       		.byte	0x2
 5614 0989 23       		.byte	0x23
 5615 098a 11       		.uleb128 0x11
 5616 098b 06       		.uleb128 0x6
 5617 098c 790A0000 		.4byte	.LASF142
 5618 0990 15       		.byte	0x15
 5619 0991 AD       		.byte	0xad
 5620 0992 B2020000 		.4byte	0x2b2
 5621 0996 02       		.byte	0x2
 5622 0997 23       		.byte	0x23
 5623 0998 14       		.uleb128 0x14
 5624 0999 06       		.uleb128 0x6
 5625 099a A20A0000 		.4byte	.LASF143
 5626 099e 15       		.byte	0x15
 5627 099f AD       		.byte	0xad
 5628 09a0 A50D0000 		.4byte	0xda5
 5629 09a4 02       		.byte	0x2
 5630 09a5 23       		.byte	0x23
 5631 09a6 18       		.uleb128 0x18
 5632 09a7 06       		.uleb128 0x6
 5633 09a8 8F030000 		.4byte	.LASF144
 5634 09ac 15       		.byte	0x15
 5635 09ad AD       		.byte	0xad
 5636 09ae B7040000 		.4byte	0x4b7
 5637 09b2 02       		.byte	0x2
 5638 09b3 23       		.byte	0x23
 5639 09b4 1C       		.uleb128 0x1c
 5640 09b5 06       		.uleb128 0x6
 5641 09b6 3C080000 		.4byte	.LASF145
 5642 09ba 15       		.byte	0x15
 5643 09bb B0       		.byte	0xb0
 5644 09bc B7040000 		.4byte	0x4b7
 5645 09c0 02       		.byte	0x2
 5646 09c1 23       		.byte	0x23
 5647 09c2 1E       		.uleb128 0x1e
 5648 09c3 06       		.uleb128 0x6
 5649 09c4 C7030000 		.4byte	.LASF101
 5650 09c8 15       		.byte	0x15
 5651 09c9 B2       		.byte	0xb2
 5652 09ca A1040000 		.4byte	0x4a1
 5653 09ce 02       		.byte	0x2
 5654 09cf 23       		.byte	0x23
 5655 09d0 20       		.uleb128 0x20
 5656 09d1 06       		.uleb128 0x6
 5657 09d2 C2060000 		.4byte	.LASF146
 5658 09d6 15       		.byte	0x15
 5659 09d7 BF       		.byte	0xbf
 5660 09d8 CD040000 		.4byte	0x4cd
 5661 09dc 02       		.byte	0x2
 5662 09dd 23       		.byte	0x23
 5663 09de 24       		.uleb128 0x24
 5664 09df 06       		.uleb128 0x6
 5665 09e0 9B000000 		.4byte	.LASF147
 5666 09e4 15       		.byte	0x15
 5667 09e5 C0       		.byte	0xc0
ARM GAS  /var/folders/5n/p_75w94d66l9ssrldxqdhh700000gn/T//cciPPkzE.s 			page 101


 5668 09e6 B7040000 		.4byte	0x4b7
 5669 09ea 02       		.byte	0x2
 5670 09eb 23       		.byte	0x23
 5671 09ec 28       		.uleb128 0x28
 5672 09ed 06       		.uleb128 0x6
 5673 09ee 33000000 		.4byte	.LASF148
 5674 09f2 15       		.byte	0x15
 5675 09f3 C1       		.byte	0xc1
 5676 09f4 B7040000 		.4byte	0x4b7
 5677 09f8 02       		.byte	0x2
 5678 09f9 23       		.byte	0x23
 5679 09fa 2A       		.uleb128 0x2a
 5680 09fb 06       		.uleb128 0x6
 5681 09fc 82040000 		.4byte	.LASF149
 5682 0a00 15       		.byte	0x15
 5683 0a01 C2       		.byte	0xc2
 5684 0a02 CD040000 		.4byte	0x4cd
 5685 0a06 02       		.byte	0x2
 5686 0a07 23       		.byte	0x23
 5687 0a08 2C       		.uleb128 0x2c
 5688 0a09 07       		.uleb128 0x7
 5689 0a0a 746D7200 		.ascii	"tmr\000"
 5690 0a0e 15       		.byte	0x15
 5691 0a0f C5       		.byte	0xc5
 5692 0a10 CD040000 		.4byte	0x4cd
 5693 0a14 02       		.byte	0x2
 5694 0a15 23       		.byte	0x23
 5695 0a16 30       		.uleb128 0x30
 5696 0a17 06       		.uleb128 0x6
 5697 0a18 45010000 		.4byte	.LASF150
 5698 0a1c 15       		.byte	0x15
 5699 0a1d C6       		.byte	0xc6
 5700 0a1e A1040000 		.4byte	0x4a1
 5701 0a22 02       		.byte	0x2
 5702 0a23 23       		.byte	0x23
 5703 0a24 34       		.uleb128 0x34
 5704 0a25 06       		.uleb128 0x6
 5705 0a26 66060000 		.4byte	.LASF151
 5706 0a2a 15       		.byte	0x15
 5707 0a2b C6       		.byte	0xc6
 5708 0a2c A1040000 		.4byte	0x4a1
 5709 0a30 02       		.byte	0x2
 5710 0a31 23       		.byte	0x23
 5711 0a32 35       		.uleb128 0x35
 5712 0a33 06       		.uleb128 0x6
 5713 0a34 35070000 		.4byte	.LASF152
 5714 0a38 15       		.byte	0x15
 5715 0a39 C9       		.byte	0xc9
 5716 0a3a C2040000 		.4byte	0x4c2
 5717 0a3e 02       		.byte	0x2
 5718 0a3f 23       		.byte	0x23
 5719 0a40 36       		.uleb128 0x36
 5720 0a41 07       		.uleb128 0x7
 5721 0a42 6D737300 		.ascii	"mss\000"
 5722 0a46 15       		.byte	0x15
 5723 0a47 CB       		.byte	0xcb
 5724 0a48 B7040000 		.4byte	0x4b7
ARM GAS  /var/folders/5n/p_75w94d66l9ssrldxqdhh700000gn/T//cciPPkzE.s 			page 102


 5725 0a4c 02       		.byte	0x2
 5726 0a4d 23       		.byte	0x23
 5727 0a4e 38       		.uleb128 0x38
 5728 0a4f 06       		.uleb128 0x6
 5729 0a50 00040000 		.4byte	.LASF153
 5730 0a54 15       		.byte	0x15
 5731 0a55 CE       		.byte	0xce
 5732 0a56 CD040000 		.4byte	0x4cd
 5733 0a5a 02       		.byte	0x2
 5734 0a5b 23       		.byte	0x23
 5735 0a5c 3C       		.uleb128 0x3c
 5736 0a5d 06       		.uleb128 0x6
 5737 0a5e B7040000 		.4byte	.LASF154
 5738 0a62 15       		.byte	0x15
 5739 0a63 CF       		.byte	0xcf
 5740 0a64 CD040000 		.4byte	0x4cd
 5741 0a68 02       		.byte	0x2
 5742 0a69 23       		.byte	0x23
 5743 0a6a 40       		.uleb128 0x40
 5744 0a6b 07       		.uleb128 0x7
 5745 0a6c 736100   		.ascii	"sa\000"
 5746 0a6f 15       		.byte	0x15
 5747 0a70 D0       		.byte	0xd0
 5748 0a71 C2040000 		.4byte	0x4c2
 5749 0a75 02       		.byte	0x2
 5750 0a76 23       		.byte	0x23
 5751 0a77 44       		.uleb128 0x44
 5752 0a78 07       		.uleb128 0x7
 5753 0a79 737600   		.ascii	"sv\000"
 5754 0a7c 15       		.byte	0x15
 5755 0a7d D0       		.byte	0xd0
 5756 0a7e C2040000 		.4byte	0x4c2
 5757 0a82 02       		.byte	0x2
 5758 0a83 23       		.byte	0x23
 5759 0a84 46       		.uleb128 0x46
 5760 0a85 07       		.uleb128 0x7
 5761 0a86 72746F00 		.ascii	"rto\000"
 5762 0a8a 15       		.byte	0x15
 5763 0a8b D2       		.byte	0xd2
 5764 0a8c C2040000 		.4byte	0x4c2
 5765 0a90 02       		.byte	0x2
 5766 0a91 23       		.byte	0x23
 5767 0a92 48       		.uleb128 0x48
 5768 0a93 06       		.uleb128 0x6
 5769 0a94 8D050000 		.4byte	.LASF155
 5770 0a98 15       		.byte	0x15
 5771 0a99 D3       		.byte	0xd3
 5772 0a9a A1040000 		.4byte	0x4a1
 5773 0a9e 02       		.byte	0x2
 5774 0a9f 23       		.byte	0x23
 5775 0aa0 4A       		.uleb128 0x4a
 5776 0aa1 06       		.uleb128 0x6
 5777 0aa2 AB050000 		.4byte	.LASF156
 5778 0aa6 15       		.byte	0x15
 5779 0aa7 D6       		.byte	0xd6
 5780 0aa8 CD040000 		.4byte	0x4cd
 5781 0aac 02       		.byte	0x2
ARM GAS  /var/folders/5n/p_75w94d66l9ssrldxqdhh700000gn/T//cciPPkzE.s 			page 103


 5782 0aad 23       		.byte	0x23
 5783 0aae 4C       		.uleb128 0x4c
 5784 0aaf 06       		.uleb128 0x6
 5785 0ab0 160B0000 		.4byte	.LASF157
 5786 0ab4 15       		.byte	0x15
 5787 0ab5 D7       		.byte	0xd7
 5788 0ab6 A1040000 		.4byte	0x4a1
 5789 0aba 02       		.byte	0x2
 5790 0abb 23       		.byte	0x23
 5791 0abc 50       		.uleb128 0x50
 5792 0abd 06       		.uleb128 0x6
 5793 0abe 6F080000 		.4byte	.LASF158
 5794 0ac2 15       		.byte	0x15
 5795 0ac3 DA       		.byte	0xda
 5796 0ac4 B7040000 		.4byte	0x4b7
 5797 0ac8 02       		.byte	0x2
 5798 0ac9 23       		.byte	0x23
 5799 0aca 52       		.uleb128 0x52
 5800 0acb 06       		.uleb128 0x6
 5801 0acc F1000000 		.4byte	.LASF159
 5802 0ad0 15       		.byte	0x15
 5803 0ad1 DB       		.byte	0xdb
 5804 0ad2 B7040000 		.4byte	0x4b7
 5805 0ad6 02       		.byte	0x2
 5806 0ad7 23       		.byte	0x23
 5807 0ad8 54       		.uleb128 0x54
 5808 0ad9 06       		.uleb128 0x6
 5809 0ada B3050000 		.4byte	.LASF160
 5810 0ade 15       		.byte	0x15
 5811 0adf DE       		.byte	0xde
 5812 0ae0 CD040000 		.4byte	0x4cd
 5813 0ae4 02       		.byte	0x2
 5814 0ae5 23       		.byte	0x23
 5815 0ae6 58       		.uleb128 0x58
 5816 0ae7 06       		.uleb128 0x6
 5817 0ae8 690C0000 		.4byte	.LASF161
 5818 0aec 15       		.byte	0x15
 5819 0aed DF       		.byte	0xdf
 5820 0aee B7040000 		.4byte	0x4b7
 5821 0af2 02       		.byte	0x2
 5822 0af3 23       		.byte	0x23
 5823 0af4 5C       		.uleb128 0x5c
 5824 0af5 06       		.uleb128 0x6
 5825 0af6 F10A0000 		.4byte	.LASF162
 5826 0afa 15       		.byte	0x15
 5827 0afb E0       		.byte	0xe0
 5828 0afc CD040000 		.4byte	0x4cd
 5829 0b00 02       		.byte	0x2
 5830 0b01 23       		.byte	0x23
 5831 0b02 60       		.uleb128 0x60
 5832 0b03 06       		.uleb128 0x6
 5833 0b04 F90A0000 		.4byte	.LASF163
 5834 0b08 15       		.byte	0x15
 5835 0b09 E0       		.byte	0xe0
 5836 0b0a CD040000 		.4byte	0x4cd
 5837 0b0e 02       		.byte	0x2
 5838 0b0f 23       		.byte	0x23
ARM GAS  /var/folders/5n/p_75w94d66l9ssrldxqdhh700000gn/T//cciPPkzE.s 			page 104


 5839 0b10 64       		.uleb128 0x64
 5840 0b11 06       		.uleb128 0x6
 5841 0b12 3E040000 		.4byte	.LASF164
 5842 0b16 15       		.byte	0x15
 5843 0b17 E2       		.byte	0xe2
 5844 0b18 CD040000 		.4byte	0x4cd
 5845 0b1c 02       		.byte	0x2
 5846 0b1d 23       		.byte	0x23
 5847 0b1e 68       		.uleb128 0x68
 5848 0b1f 06       		.uleb128 0x6
 5849 0b20 E9090000 		.4byte	.LASF165
 5850 0b24 15       		.byte	0x15
 5851 0b25 E4       		.byte	0xe4
 5852 0b26 B7040000 		.4byte	0x4b7
 5853 0b2a 02       		.byte	0x2
 5854 0b2b 23       		.byte	0x23
 5855 0b2c 6C       		.uleb128 0x6c
 5856 0b2d 06       		.uleb128 0x6
 5857 0b2e 5A0C0000 		.4byte	.LASF166
 5858 0b32 15       		.byte	0x15
 5859 0b33 E6       		.byte	0xe6
 5860 0b34 B7040000 		.4byte	0x4b7
 5861 0b38 02       		.byte	0x2
 5862 0b39 23       		.byte	0x23
 5863 0b3a 6E       		.uleb128 0x6e
 5864 0b3b 06       		.uleb128 0x6
 5865 0b3c BA080000 		.4byte	.LASF167
 5866 0b40 15       		.byte	0x15
 5867 0b41 E8       		.byte	0xe8
 5868 0b42 B7040000 		.4byte	0x4b7
 5869 0b46 02       		.byte	0x2
 5870 0b47 23       		.byte	0x23
 5871 0b48 70       		.uleb128 0x70
 5872 0b49 06       		.uleb128 0x6
 5873 0b4a 38090000 		.4byte	.LASF168
 5874 0b4e 15       		.byte	0x15
 5875 0b4f EC       		.byte	0xec
 5876 0b50 B7040000 		.4byte	0x4b7
 5877 0b54 02       		.byte	0x2
 5878 0b55 23       		.byte	0x23
 5879 0b56 72       		.uleb128 0x72
 5880 0b57 06       		.uleb128 0x6
 5881 0b58 18090000 		.4byte	.LASF169
 5882 0b5c 15       		.byte	0x15
 5883 0b5d F0       		.byte	0xf0
 5884 0b5e D30E0000 		.4byte	0xed3
 5885 0b62 02       		.byte	0x2
 5886 0b63 23       		.byte	0x23
 5887 0b64 74       		.uleb128 0x74
 5888 0b65 06       		.uleb128 0x6
 5889 0b66 690A0000 		.4byte	.LASF170
 5890 0b6a 15       		.byte	0x15
 5891 0b6b F1       		.byte	0xf1
 5892 0b6c D30E0000 		.4byte	0xed3
 5893 0b70 02       		.byte	0x2
 5894 0b71 23       		.byte	0x23
 5895 0b72 78       		.uleb128 0x78
ARM GAS  /var/folders/5n/p_75w94d66l9ssrldxqdhh700000gn/T//cciPPkzE.s 			page 105


 5896 0b73 06       		.uleb128 0x6
 5897 0b74 D30C0000 		.4byte	.LASF171
 5898 0b78 15       		.byte	0x15
 5899 0b79 F3       		.byte	0xf3
 5900 0b7a D30E0000 		.4byte	0xed3
 5901 0b7e 02       		.byte	0x2
 5902 0b7f 23       		.byte	0x23
 5903 0b80 7C       		.uleb128 0x7c
 5904 0b81 06       		.uleb128 0x6
 5905 0b82 85080000 		.4byte	.LASF172
 5906 0b86 15       		.byte	0x15
 5907 0b87 F6       		.byte	0xf6
 5908 0b88 AD060000 		.4byte	0x6ad
 5909 0b8c 03       		.byte	0x3
 5910 0b8d 23       		.byte	0x23
 5911 0b8e 8001     		.uleb128 0x80
 5912 0b90 06       		.uleb128 0x6
 5913 0b91 ED050000 		.4byte	.LASF173
 5914 0b95 15       		.byte	0x15
 5915 0b96 FA       		.byte	0xfa
 5916 0b97 000E0000 		.4byte	0xe00
 5917 0b9b 03       		.byte	0x3
 5918 0b9c 23       		.byte	0x23
 5919 0b9d 8401     		.uleb128 0x84
 5920 0b9f 06       		.uleb128 0x6
 5921 0ba0 5F070000 		.4byte	.LASF174
 5922 0ba4 15       		.byte	0x15
 5923 0ba5 FC       		.byte	0xfc
 5924 0ba6 D00D0000 		.4byte	0xdd0
 5925 0baa 03       		.byte	0x3
 5926 0bab 23       		.byte	0x23
 5927 0bac 8801     		.uleb128 0x88
 5928 0bae 06       		.uleb128 0x6
 5929 0baf AE0C0000 		.4byte	.LASF175
 5930 0bb3 15       		.byte	0x15
 5931 0bb4 FE       		.byte	0xfe
 5932 0bb5 730E0000 		.4byte	0xe73
 5933 0bb9 03       		.byte	0x3
 5934 0bba 23       		.byte	0x23
 5935 0bbb 8C01     		.uleb128 0x8c
 5936 0bbd 13       		.uleb128 0x13
 5937 0bbe 18070000 		.4byte	.LASF176
 5938 0bc2 15       		.byte	0x15
 5939 0bc3 0001     		.2byte	0x100
 5940 0bc5 2B0E0000 		.4byte	0xe2b
 5941 0bc9 03       		.byte	0x3
 5942 0bca 23       		.byte	0x23
 5943 0bcb 9001     		.uleb128 0x90
 5944 0bcd 13       		.uleb128 0x13
 5945 0bce 940A0000 		.4byte	.LASF177
 5946 0bd2 15       		.byte	0x15
 5947 0bd3 0201     		.2byte	0x102
 5948 0bd5 510E0000 		.4byte	0xe51
 5949 0bd9 03       		.byte	0x3
 5950 0bda 23       		.byte	0x23
 5951 0bdb 9401     		.uleb128 0x94
 5952 0bdd 13       		.uleb128 0x13
ARM GAS  /var/folders/5n/p_75w94d66l9ssrldxqdhh700000gn/T//cciPPkzE.s 			page 106


 5953 0bde F6090000 		.4byte	.LASF178
 5954 0be2 15       		.byte	0x15
 5955 0be3 0B01     		.2byte	0x10b
 5956 0be5 CD040000 		.4byte	0x4cd
 5957 0be9 03       		.byte	0x3
 5958 0bea 23       		.byte	0x23
 5959 0beb 9801     		.uleb128 0x98
 5960 0bed 13       		.uleb128 0x13
 5961 0bee 5C040000 		.4byte	.LASF179
 5962 0bf2 15       		.byte	0x15
 5963 0bf3 1201     		.2byte	0x112
 5964 0bf5 CD040000 		.4byte	0x4cd
 5965 0bf9 03       		.byte	0x3
 5966 0bfa 23       		.byte	0x23
 5967 0bfb 9C01     		.uleb128 0x9c
 5968 0bfd 13       		.uleb128 0x13
 5969 0bfe 59080000 		.4byte	.LASF180
 5970 0c02 15       		.byte	0x15
 5971 0c03 1401     		.2byte	0x114
 5972 0c05 A1040000 		.4byte	0x4a1
 5973 0c09 03       		.byte	0x3
 5974 0c0a 23       		.byte	0x23
 5975 0c0b A001     		.uleb128 0xa0
 5976 0c0d 13       		.uleb128 0x13
 5977 0c0e 80020000 		.4byte	.LASF181
 5978 0c12 15       		.byte	0x15
 5979 0c13 1701     		.2byte	0x117
 5980 0c15 A1040000 		.4byte	0x4a1
 5981 0c19 03       		.byte	0x3
 5982 0c1a 23       		.byte	0x23
 5983 0c1b A101     		.uleb128 0xa1
 5984 0c1d 00       		.byte	0
 5985 0c1e 09       		.uleb128 0x9
 5986 0c1f 04       		.byte	0x4
 5987 0c20 0F090000 		.4byte	0x90f
 5988 0c24 05       		.uleb128 0x5
 5989 0c25 79030000 		.4byte	.LASF182
 5990 0c29 20       		.byte	0x20
 5991 0c2a 16       		.byte	0x16
 5992 0c2b 5B       		.byte	0x5b
 5993 0c2c CB0C0000 		.4byte	0xccb
 5994 0c30 06       		.uleb128 0x6
 5995 0c31 C5020000 		.4byte	.LASF137
 5996 0c35 16       		.byte	0x16
 5997 0c36 5D       		.byte	0x5d
 5998 0c37 FE040000 		.4byte	0x4fe
 5999 0c3b 02       		.byte	0x2
 6000 0c3c 23       		.byte	0x23
 6001 0c3d 00       		.uleb128 0
 6002 0c3e 06       		.uleb128 0x6
 6003 0c3f 54090000 		.4byte	.LASF138
 6004 0c43 16       		.byte	0x16
 6005 0c44 5D       		.byte	0x5d
 6006 0c45 FE040000 		.4byte	0x4fe
 6007 0c49 02       		.byte	0x2
 6008 0c4a 23       		.byte	0x23
 6009 0c4b 04       		.uleb128 0x4
ARM GAS  /var/folders/5n/p_75w94d66l9ssrldxqdhh700000gn/T//cciPPkzE.s 			page 107


 6010 0c4c 06       		.uleb128 0x6
 6011 0c4d A3000000 		.4byte	.LASF139
 6012 0c51 16       		.byte	0x16
 6013 0c52 5D       		.byte	0x5d
 6014 0c53 A1040000 		.4byte	0x4a1
 6015 0c57 02       		.byte	0x2
 6016 0c58 23       		.byte	0x23
 6017 0c59 08       		.uleb128 0x8
 6018 0c5a 07       		.uleb128 0x7
 6019 0c5b 746F7300 		.ascii	"tos\000"
 6020 0c5f 16       		.byte	0x16
 6021 0c60 5D       		.byte	0x5d
 6022 0c61 A1040000 		.4byte	0x4a1
 6023 0c65 02       		.byte	0x2
 6024 0c66 23       		.byte	0x23
 6025 0c67 09       		.uleb128 0x9
 6026 0c68 07       		.uleb128 0x7
 6027 0c69 74746C00 		.ascii	"ttl\000"
 6028 0c6d 16       		.byte	0x16
 6029 0c6e 5D       		.byte	0x5d
 6030 0c6f A1040000 		.4byte	0x4a1
 6031 0c73 02       		.byte	0x2
 6032 0c74 23       		.byte	0x23
 6033 0c75 0A       		.uleb128 0xa
 6034 0c76 06       		.uleb128 0x6
 6035 0c77 950C0000 		.4byte	.LASF97
 6036 0c7b 16       		.byte	0x16
 6037 0c7c 61       		.byte	0x61
 6038 0c7d CB0C0000 		.4byte	0xccb
 6039 0c81 02       		.byte	0x2
 6040 0c82 23       		.byte	0x23
 6041 0c83 0C       		.uleb128 0xc
 6042 0c84 06       		.uleb128 0x6
 6043 0c85 C7030000 		.4byte	.LASF101
 6044 0c89 16       		.byte	0x16
 6045 0c8a 63       		.byte	0x63
 6046 0c8b A1040000 		.4byte	0x4a1
 6047 0c8f 02       		.byte	0x2
 6048 0c90 23       		.byte	0x23
 6049 0c91 10       		.uleb128 0x10
 6050 0c92 06       		.uleb128 0x6
 6051 0c93 8F030000 		.4byte	.LASF144
 6052 0c97 16       		.byte	0x16
 6053 0c98 65       		.byte	0x65
 6054 0c99 B7040000 		.4byte	0x4b7
 6055 0c9d 02       		.byte	0x2
 6056 0c9e 23       		.byte	0x23
 6057 0c9f 12       		.uleb128 0x12
 6058 0ca0 06       		.uleb128 0x6
 6059 0ca1 3C080000 		.4byte	.LASF145
 6060 0ca5 16       		.byte	0x16
 6061 0ca6 65       		.byte	0x65
 6062 0ca7 B7040000 		.4byte	0x4b7
 6063 0cab 02       		.byte	0x2
 6064 0cac 23       		.byte	0x23
 6065 0cad 14       		.uleb128 0x14
 6066 0cae 06       		.uleb128 0x6
ARM GAS  /var/folders/5n/p_75w94d66l9ssrldxqdhh700000gn/T//cciPPkzE.s 			page 108


 6067 0caf 5F070000 		.4byte	.LASF174
 6068 0cb3 16       		.byte	0x16
 6069 0cb4 72       		.byte	0x72
 6070 0cb5 090F0000 		.4byte	0xf09
 6071 0cb9 02       		.byte	0x2
 6072 0cba 23       		.byte	0x23
 6073 0cbb 18       		.uleb128 0x18
 6074 0cbc 06       		.uleb128 0x6
 6075 0cbd F1080000 		.4byte	.LASF183
 6076 0cc1 16       		.byte	0x16
 6077 0cc2 74       		.byte	0x74
 6078 0cc3 B2020000 		.4byte	0x2b2
 6079 0cc7 02       		.byte	0x2
 6080 0cc8 23       		.byte	0x23
 6081 0cc9 1C       		.uleb128 0x1c
 6082 0cca 00       		.byte	0
 6083 0ccb 09       		.uleb128 0x9
 6084 0ccc 04       		.byte	0x4
 6085 0ccd 240C0000 		.4byte	0xc24
 6086 0cd1 05       		.uleb128 0x5
 6087 0cd2 3F0B0000 		.4byte	.LASF184
 6088 0cd6 1C       		.byte	0x1c
 6089 0cd7 17       		.byte	0x17
 6090 0cd8 3F       		.byte	0x3f
 6091 0cd9 5C0D0000 		.4byte	0xd5c
 6092 0cdd 06       		.uleb128 0x6
 6093 0cde C5020000 		.4byte	.LASF137
 6094 0ce2 17       		.byte	0x17
 6095 0ce3 41       		.byte	0x41
 6096 0ce4 FE040000 		.4byte	0x4fe
 6097 0ce8 02       		.byte	0x2
 6098 0ce9 23       		.byte	0x23
 6099 0cea 00       		.uleb128 0
 6100 0ceb 06       		.uleb128 0x6
 6101 0cec 54090000 		.4byte	.LASF138
 6102 0cf0 17       		.byte	0x17
 6103 0cf1 41       		.byte	0x41
 6104 0cf2 FE040000 		.4byte	0x4fe
 6105 0cf6 02       		.byte	0x2
 6106 0cf7 23       		.byte	0x23
 6107 0cf8 04       		.uleb128 0x4
 6108 0cf9 06       		.uleb128 0x6
 6109 0cfa A3000000 		.4byte	.LASF139
 6110 0cfe 17       		.byte	0x17
 6111 0cff 41       		.byte	0x41
 6112 0d00 A1040000 		.4byte	0x4a1
 6113 0d04 02       		.byte	0x2
 6114 0d05 23       		.byte	0x23
 6115 0d06 08       		.uleb128 0x8
 6116 0d07 07       		.uleb128 0x7
 6117 0d08 746F7300 		.ascii	"tos\000"
 6118 0d0c 17       		.byte	0x17
 6119 0d0d 41       		.byte	0x41
 6120 0d0e A1040000 		.4byte	0x4a1
 6121 0d12 02       		.byte	0x2
 6122 0d13 23       		.byte	0x23
 6123 0d14 09       		.uleb128 0x9
ARM GAS  /var/folders/5n/p_75w94d66l9ssrldxqdhh700000gn/T//cciPPkzE.s 			page 109


 6124 0d15 07       		.uleb128 0x7
 6125 0d16 74746C00 		.ascii	"ttl\000"
 6126 0d1a 17       		.byte	0x17
 6127 0d1b 41       		.byte	0x41
 6128 0d1c A1040000 		.4byte	0x4a1
 6129 0d20 02       		.byte	0x2
 6130 0d21 23       		.byte	0x23
 6131 0d22 0A       		.uleb128 0xa
 6132 0d23 06       		.uleb128 0x6
 6133 0d24 950C0000 		.4byte	.LASF97
 6134 0d28 17       		.byte	0x17
 6135 0d29 43       		.byte	0x43
 6136 0d2a 5C0D0000 		.4byte	0xd5c
 6137 0d2e 02       		.byte	0x2
 6138 0d2f 23       		.byte	0x23
 6139 0d30 0C       		.uleb128 0xc
 6140 0d31 06       		.uleb128 0x6
 6141 0d32 E4050000 		.4byte	.LASF185
 6142 0d36 17       		.byte	0x17
 6143 0d37 45       		.byte	0x45
 6144 0d38 A1040000 		.4byte	0x4a1
 6145 0d3c 02       		.byte	0x2
 6146 0d3d 23       		.byte	0x23
 6147 0d3e 10       		.uleb128 0x10
 6148 0d3f 06       		.uleb128 0x6
 6149 0d40 5F070000 		.4byte	.LASF174
 6150 0d44 17       		.byte	0x17
 6151 0d45 48       		.byte	0x48
 6152 0d46 D90E0000 		.4byte	0xed9
 6153 0d4a 02       		.byte	0x2
 6154 0d4b 23       		.byte	0x23
 6155 0d4c 14       		.uleb128 0x14
 6156 0d4d 06       		.uleb128 0x6
 6157 0d4e F1080000 		.4byte	.LASF183
 6158 0d52 17       		.byte	0x17
 6159 0d53 4A       		.byte	0x4a
 6160 0d54 B2020000 		.4byte	0x2b2
 6161 0d58 02       		.byte	0x2
 6162 0d59 23       		.byte	0x23
 6163 0d5a 18       		.uleb128 0x18
 6164 0d5b 00       		.byte	0
 6165 0d5c 09       		.uleb128 0x9
 6166 0d5d 04       		.byte	0x4
 6167 0d5e D10C0000 		.4byte	0xcd1
 6168 0d62 05       		.uleb128 0x5
 6169 0d63 48090000 		.4byte	.LASF186
 6170 0d67 14       		.byte	0x14
 6171 0d68 18       		.byte	0x18
 6172 0d69 3E       		.byte	0x3e
 6173 0d6a 990D0000 		.4byte	0xd99
 6174 0d6e 06       		.uleb128 0x6
 6175 0d6f 19010000 		.4byte	.LASF187
 6176 0d73 18       		.byte	0x18
 6177 0d74 41       		.byte	0x41
 6178 0d75 C7070000 		.4byte	0x7c7
 6179 0d79 02       		.byte	0x2
 6180 0d7a 23       		.byte	0x23
ARM GAS  /var/folders/5n/p_75w94d66l9ssrldxqdhh700000gn/T//cciPPkzE.s 			page 110


 6181 0d7b 00       		.uleb128 0
 6182 0d7c 07       		.uleb128 0x7
 6183 0d7d 65727200 		.ascii	"err\000"
 6184 0d81 18       		.byte	0x18
 6185 0d82 43       		.byte	0x43
 6186 0d83 33060000 		.4byte	0x633
 6187 0d87 02       		.byte	0x2
 6188 0d88 23       		.byte	0x23
 6189 0d89 04       		.uleb128 0x4
 6190 0d8a 07       		.uleb128 0x7
 6191 0d8b 6D736700 		.ascii	"msg\000"
 6192 0d8f 18       		.byte	0x18
 6193 0d90 72       		.byte	0x72
 6194 0d91 17100000 		.4byte	0x1017
 6195 0d95 02       		.byte	0x2
 6196 0d96 23       		.byte	0x23
 6197 0d97 08       		.uleb128 0x8
 6198 0d98 00       		.byte	0
 6199 0d99 09       		.uleb128 0x9
 6200 0d9a 04       		.byte	0x4
 6201 0d9b 620D0000 		.4byte	0xd62
 6202 0d9f 09       		.uleb128 0x9
 6203 0da0 04       		.byte	0x4
 6204 0da1 FE040000 		.4byte	0x4fe
 6205 0da5 03       		.uleb128 0x3
 6206 0da6 800C0000 		.4byte	.LASF188
 6207 0daa 15       		.byte	0x15
 6208 0dab 3D       		.byte	0x3d
 6209 0dac B00D0000 		.4byte	0xdb0
 6210 0db0 09       		.uleb128 0x9
 6211 0db1 04       		.byte	0x4
 6212 0db2 B60D0000 		.4byte	0xdb6
 6213 0db6 1A       		.uleb128 0x1a
 6214 0db7 01       		.byte	0x1
 6215 0db8 33060000 		.4byte	0x633
 6216 0dbc D00D0000 		.4byte	0xdd0
 6217 0dc0 18       		.uleb128 0x18
 6218 0dc1 B2020000 		.4byte	0x2b2
 6219 0dc5 18       		.uleb128 0x18
 6220 0dc6 1E0C0000 		.4byte	0xc1e
 6221 0dca 18       		.uleb128 0x18
 6222 0dcb 33060000 		.4byte	0x633
 6223 0dcf 00       		.byte	0
 6224 0dd0 03       		.uleb128 0x3
 6225 0dd1 D80A0000 		.4byte	.LASF189
 6226 0dd5 15       		.byte	0x15
 6227 0dd6 49       		.byte	0x49
 6228 0dd7 DB0D0000 		.4byte	0xddb
 6229 0ddb 09       		.uleb128 0x9
 6230 0ddc 04       		.byte	0x4
 6231 0ddd E10D0000 		.4byte	0xde1
 6232 0de1 1A       		.uleb128 0x1a
 6233 0de2 01       		.byte	0x1
 6234 0de3 33060000 		.4byte	0x633
 6235 0de7 000E0000 		.4byte	0xe00
 6236 0deb 18       		.uleb128 0x18
 6237 0dec B2020000 		.4byte	0x2b2
ARM GAS  /var/folders/5n/p_75w94d66l9ssrldxqdhh700000gn/T//cciPPkzE.s 			page 111


 6238 0df0 18       		.uleb128 0x18
 6239 0df1 1E0C0000 		.4byte	0xc1e
 6240 0df5 18       		.uleb128 0x18
 6241 0df6 AD060000 		.4byte	0x6ad
 6242 0dfa 18       		.uleb128 0x18
 6243 0dfb 33060000 		.4byte	0x633
 6244 0dff 00       		.byte	0
 6245 0e00 03       		.uleb128 0x3
 6246 0e01 38020000 		.4byte	.LASF190
 6247 0e05 15       		.byte	0x15
 6248 0e06 57       		.byte	0x57
 6249 0e07 0B0E0000 		.4byte	0xe0b
 6250 0e0b 09       		.uleb128 0x9
 6251 0e0c 04       		.byte	0x4
 6252 0e0d 110E0000 		.4byte	0xe11
 6253 0e11 1A       		.uleb128 0x1a
 6254 0e12 01       		.byte	0x1
 6255 0e13 33060000 		.4byte	0x633
 6256 0e17 2B0E0000 		.4byte	0xe2b
 6257 0e1b 18       		.uleb128 0x18
 6258 0e1c B2020000 		.4byte	0x2b2
 6259 0e20 18       		.uleb128 0x18
 6260 0e21 1E0C0000 		.4byte	0xc1e
 6261 0e25 18       		.uleb128 0x18
 6262 0e26 B7040000 		.4byte	0x4b7
 6263 0e2a 00       		.byte	0
 6264 0e2b 03       		.uleb128 0x3
 6265 0e2c 65050000 		.4byte	.LASF191
 6266 0e30 15       		.byte	0x15
 6267 0e31 63       		.byte	0x63
 6268 0e32 360E0000 		.4byte	0xe36
 6269 0e36 09       		.uleb128 0x9
 6270 0e37 04       		.byte	0x4
 6271 0e38 3C0E0000 		.4byte	0xe3c
 6272 0e3c 1A       		.uleb128 0x1a
 6273 0e3d 01       		.byte	0x1
 6274 0e3e 33060000 		.4byte	0x633
 6275 0e42 510E0000 		.4byte	0xe51
 6276 0e46 18       		.uleb128 0x18
 6277 0e47 B2020000 		.4byte	0x2b2
 6278 0e4b 18       		.uleb128 0x18
 6279 0e4c 1E0C0000 		.4byte	0xc1e
 6280 0e50 00       		.byte	0
 6281 0e51 03       		.uleb128 0x3
 6282 0e52 57020000 		.4byte	.LASF192
 6283 0e56 15       		.byte	0x15
 6284 0e57 6F       		.byte	0x6f
 6285 0e58 5C0E0000 		.4byte	0xe5c
 6286 0e5c 09       		.uleb128 0x9
 6287 0e5d 04       		.byte	0x4
 6288 0e5e 620E0000 		.4byte	0xe62
 6289 0e62 17       		.uleb128 0x17
 6290 0e63 01       		.byte	0x1
 6291 0e64 730E0000 		.4byte	0xe73
 6292 0e68 18       		.uleb128 0x18
 6293 0e69 B2020000 		.4byte	0x2b2
 6294 0e6d 18       		.uleb128 0x18
ARM GAS  /var/folders/5n/p_75w94d66l9ssrldxqdhh700000gn/T//cciPPkzE.s 			page 112


 6295 0e6e 33060000 		.4byte	0x633
 6296 0e72 00       		.byte	0
 6297 0e73 03       		.uleb128 0x3
 6298 0e74 07080000 		.4byte	.LASF193
 6299 0e78 15       		.byte	0x15
 6300 0e79 7D       		.byte	0x7d
 6301 0e7a B00D0000 		.4byte	0xdb0
 6302 0e7e 15       		.uleb128 0x15
 6303 0e7f 1E010000 		.4byte	.LASF194
 6304 0e83 01       		.byte	0x1
 6305 0e84 15       		.byte	0x15
 6306 0e85 7F       		.byte	0x7f
 6307 0e86 CD0E0000 		.4byte	0xecd
 6308 0e8a 16       		.uleb128 0x16
 6309 0e8b 080B0000 		.4byte	.LASF195
 6310 0e8f 00       		.sleb128 0
 6311 0e90 16       		.uleb128 0x16
 6312 0e91 D0000000 		.4byte	.LASF196
 6313 0e95 01       		.sleb128 1
 6314 0e96 16       		.uleb128 0x16
 6315 0e97 21030000 		.4byte	.LASF197
 6316 0e9b 02       		.sleb128 2
 6317 0e9c 16       		.uleb128 0x16
 6318 0e9d 3B070000 		.4byte	.LASF198
 6319 0ea1 03       		.sleb128 3
 6320 0ea2 16       		.uleb128 0x16
 6321 0ea3 0D020000 		.4byte	.LASF199
 6322 0ea7 04       		.sleb128 4
 6323 0ea8 16       		.uleb128 0x16
 6324 0ea9 FF020000 		.4byte	.LASF200
 6325 0ead 05       		.sleb128 5
 6326 0eae 16       		.uleb128 0x16
 6327 0eaf 0A030000 		.4byte	.LASF201
 6328 0eb3 06       		.sleb128 6
 6329 0eb4 16       		.uleb128 0x16
 6330 0eb5 68040000 		.4byte	.LASF202
 6331 0eb9 07       		.sleb128 7
 6332 0eba 16       		.uleb128 0x16
 6333 0ebb 520C0000 		.4byte	.LASF203
 6334 0ebf 08       		.sleb128 8
 6335 0ec0 16       		.uleb128 0x16
 6336 0ec1 47030000 		.4byte	.LASF204
 6337 0ec5 09       		.sleb128 9
 6338 0ec6 16       		.uleb128 0x16
 6339 0ec7 0F010000 		.4byte	.LASF205
 6340 0ecb 0A       		.sleb128 10
 6341 0ecc 00       		.byte	0
 6342 0ecd 1B       		.uleb128 0x1b
 6343 0ece A60C0000 		.4byte	.LASF314
 6344 0ed2 01       		.byte	0x1
 6345 0ed3 09       		.uleb128 0x9
 6346 0ed4 04       		.byte	0x4
 6347 0ed5 CD0E0000 		.4byte	0xecd
 6348 0ed9 03       		.uleb128 0x3
 6349 0eda 2C020000 		.4byte	.LASF206
 6350 0ede 17       		.byte	0x17
 6351 0edf 3C       		.byte	0x3c
ARM GAS  /var/folders/5n/p_75w94d66l9ssrldxqdhh700000gn/T//cciPPkzE.s 			page 113


 6352 0ee0 E40E0000 		.4byte	0xee4
 6353 0ee4 09       		.uleb128 0x9
 6354 0ee5 04       		.byte	0x4
 6355 0ee6 EA0E0000 		.4byte	0xeea
 6356 0eea 1A       		.uleb128 0x1a
 6357 0eeb 01       		.byte	0x1
 6358 0eec A1040000 		.4byte	0x4a1
 6359 0ef0 090F0000 		.4byte	0xf09
 6360 0ef4 18       		.uleb128 0x18
 6361 0ef5 B2020000 		.4byte	0x2b2
 6362 0ef9 18       		.uleb128 0x18
 6363 0efa 5C0D0000 		.4byte	0xd5c
 6364 0efe 18       		.uleb128 0x18
 6365 0eff AD060000 		.4byte	0x6ad
 6366 0f03 18       		.uleb128 0x18
 6367 0f04 9F0D0000 		.4byte	0xd9f
 6368 0f08 00       		.byte	0
 6369 0f09 03       		.uleb128 0x3
 6370 0f0a CE070000 		.4byte	.LASF207
 6371 0f0e 16       		.byte	0x16
 6372 0f0f 57       		.byte	0x57
 6373 0f10 140F0000 		.4byte	0xf14
 6374 0f14 09       		.uleb128 0x9
 6375 0f15 04       		.byte	0x4
 6376 0f16 1A0F0000 		.4byte	0xf1a
 6377 0f1a 17       		.uleb128 0x17
 6378 0f1b 01       		.byte	0x1
 6379 0f1c 3A0F0000 		.4byte	0xf3a
 6380 0f20 18       		.uleb128 0x18
 6381 0f21 B2020000 		.4byte	0x2b2
 6382 0f25 18       		.uleb128 0x18
 6383 0f26 CB0C0000 		.4byte	0xccb
 6384 0f2a 18       		.uleb128 0x18
 6385 0f2b AD060000 		.4byte	0x6ad
 6386 0f2f 18       		.uleb128 0x18
 6387 0f30 9F0D0000 		.4byte	0xd9f
 6388 0f34 18       		.uleb128 0x18
 6389 0f35 B7040000 		.4byte	0x4b7
 6390 0f39 00       		.byte	0
 6391 0f3a 08       		.uleb128 0x8
 6392 0f3b 01       		.byte	0x1
 6393 0f3c 18       		.byte	0x18
 6394 0f3d 49       		.byte	0x49
 6395 0f3e 510F0000 		.4byte	0xf51
 6396 0f42 06       		.uleb128 0x6
 6397 0f43 63000000 		.4byte	.LASF208
 6398 0f47 18       		.byte	0x18
 6399 0f48 4A       		.byte	0x4a
 6400 0f49 A1040000 		.4byte	0x4a1
 6401 0f4d 02       		.byte	0x2
 6402 0f4e 23       		.byte	0x23
 6403 0f4f 00       		.uleb128 0
 6404 0f50 00       		.byte	0
 6405 0f51 08       		.uleb128 0x8
 6406 0f52 08       		.byte	0x8
 6407 0f53 18       		.byte	0x18
 6408 0f54 4D       		.byte	0x4d
ARM GAS  /var/folders/5n/p_75w94d66l9ssrldxqdhh700000gn/T//cciPPkzE.s 			page 114


 6409 0f55 760F0000 		.4byte	0xf76
 6410 0f59 06       		.uleb128 0x6
 6411 0f5a 65010000 		.4byte	.LASF209
 6412 0f5e 18       		.byte	0x18
 6413 0f5f 4E       		.byte	0x4e
 6414 0f60 9F0D0000 		.4byte	0xd9f
 6415 0f64 02       		.byte	0x2
 6416 0f65 23       		.byte	0x23
 6417 0f66 00       		.uleb128 0
 6418 0f67 06       		.uleb128 0x6
 6419 0f68 E4090000 		.4byte	.LASF103
 6420 0f6c 18       		.byte	0x18
 6421 0f6d 4F       		.byte	0x4f
 6422 0f6e B7040000 		.4byte	0x4b7
 6423 0f72 02       		.byte	0x2
 6424 0f73 23       		.byte	0x23
 6425 0f74 04       		.uleb128 0x4
 6426 0f75 00       		.byte	0
 6427 0f76 08       		.uleb128 0x8
 6428 0f77 0C       		.byte	0xc
 6429 0f78 18       		.byte	0x18
 6430 0f79 52       		.byte	0x52
 6431 0f7a A90F0000 		.4byte	0xfa9
 6432 0f7e 06       		.uleb128 0x6
 6433 0f7f 65010000 		.4byte	.LASF209
 6434 0f83 18       		.byte	0x18
 6435 0f84 53       		.byte	0x53
 6436 0f85 9F0D0000 		.4byte	0xd9f
 6437 0f89 02       		.byte	0x2
 6438 0f8a 23       		.byte	0x23
 6439 0f8b 00       		.uleb128 0
 6440 0f8c 06       		.uleb128 0x6
 6441 0f8d E4090000 		.4byte	.LASF103
 6442 0f91 18       		.byte	0x18
 6443 0f92 54       		.byte	0x54
 6444 0f93 A90F0000 		.4byte	0xfa9
 6445 0f97 02       		.byte	0x2
 6446 0f98 23       		.byte	0x23
 6447 0f99 04       		.uleb128 0x4
 6448 0f9a 06       		.uleb128 0x6
 6449 0f9b FF000000 		.4byte	.LASF210
 6450 0f9f 18       		.byte	0x18
 6451 0fa0 55       		.byte	0x55
 6452 0fa1 A1040000 		.4byte	0x4a1
 6453 0fa5 02       		.byte	0x2
 6454 0fa6 23       		.byte	0x23
 6455 0fa7 08       		.uleb128 0x8
 6456 0fa8 00       		.byte	0
 6457 0fa9 09       		.uleb128 0x9
 6458 0faa 04       		.byte	0x4
 6459 0fab B7040000 		.4byte	0x4b7
 6460 0faf 08       		.uleb128 0x8
 6461 0fb0 0C       		.byte	0xc
 6462 0fb1 18       		.byte	0x18
 6463 0fb2 58       		.byte	0x58
 6464 0fb3 E20F0000 		.4byte	0xfe2
 6465 0fb7 06       		.uleb128 0x6
ARM GAS  /var/folders/5n/p_75w94d66l9ssrldxqdhh700000gn/T//cciPPkzE.s 			page 115


 6466 0fb8 940B0000 		.4byte	.LASF211
 6467 0fbc 18       		.byte	0x18
 6468 0fbd 59       		.byte	0x59
 6469 0fbe E20F0000 		.4byte	0xfe2
 6470 0fc2 02       		.byte	0x2
 6471 0fc3 23       		.byte	0x23
 6472 0fc4 00       		.uleb128 0
 6473 0fc5 07       		.uleb128 0x7
 6474 0fc6 6C656E00 		.ascii	"len\000"
 6475 0fca 18       		.byte	0x18
 6476 0fcb 5A       		.byte	0x5a
 6477 0fcc 30000000 		.4byte	0x30
 6478 0fd0 02       		.byte	0x2
 6479 0fd1 23       		.byte	0x23
 6480 0fd2 04       		.uleb128 0x4
 6481 0fd3 06       		.uleb128 0x6
 6482 0fd4 990A0000 		.4byte	.LASF212
 6483 0fd8 18       		.byte	0x18
 6484 0fd9 5B       		.byte	0x5b
 6485 0fda A1040000 		.4byte	0x4a1
 6486 0fde 02       		.byte	0x2
 6487 0fdf 23       		.byte	0x23
 6488 0fe0 08       		.uleb128 0x8
 6489 0fe1 00       		.byte	0
 6490 0fe2 09       		.uleb128 0x9
 6491 0fe3 04       		.byte	0x4
 6492 0fe4 E80F0000 		.4byte	0xfe8
 6493 0fe8 1C       		.uleb128 0x1c
 6494 0fe9 08       		.uleb128 0x8
 6495 0fea 04       		.byte	0x4
 6496 0feb 18       		.byte	0x18
 6497 0fec 5E       		.byte	0x5e
 6498 0fed 00100000 		.4byte	0x1000
 6499 0ff1 07       		.uleb128 0x7
 6500 0ff2 6C656E00 		.ascii	"len\000"
 6501 0ff6 18       		.byte	0x18
 6502 0ff7 5F       		.byte	0x5f
 6503 0ff8 CD040000 		.4byte	0x4cd
 6504 0ffc 02       		.byte	0x2
 6505 0ffd 23       		.byte	0x23
 6506 0ffe 00       		.uleb128 0
 6507 0fff 00       		.byte	0
 6508 1000 08       		.uleb128 0x8
 6509 1001 01       		.byte	0x1
 6510 1002 18       		.byte	0x18
 6511 1003 62       		.byte	0x62
 6512 1004 17100000 		.4byte	0x1017
 6513 1008 06       		.uleb128 0x6
 6514 1009 0F040000 		.4byte	.LASF213
 6515 100d 18       		.byte	0x18
 6516 100e 63       		.byte	0x63
 6517 100f A1040000 		.4byte	0x4a1
 6518 1013 02       		.byte	0x2
 6519 1014 23       		.byte	0x23
 6520 1015 00       		.uleb128 0
 6521 1016 00       		.byte	0
 6522 1017 0E       		.uleb128 0xe
ARM GAS  /var/folders/5n/p_75w94d66l9ssrldxqdhh700000gn/T//cciPPkzE.s 			page 116


 6523 1018 0C       		.byte	0xc
 6524 1019 18       		.byte	0x18
 6525 101a 45       		.byte	0x45
 6526 101b 62100000 		.4byte	0x1062
 6527 101f 19       		.uleb128 0x19
 6528 1020 6200     		.ascii	"b\000"
 6529 1022 18       		.byte	0x18
 6530 1023 47       		.byte	0x47
 6531 1024 62100000 		.4byte	0x1062
 6532 1028 19       		.uleb128 0x19
 6533 1029 6E00     		.ascii	"n\000"
 6534 102b 18       		.byte	0x18
 6535 102c 4B       		.byte	0x4b
 6536 102d 3A0F0000 		.4byte	0xf3a
 6537 1031 19       		.uleb128 0x19
 6538 1032 626300   		.ascii	"bc\000"
 6539 1035 18       		.byte	0x18
 6540 1036 50       		.byte	0x50
 6541 1037 510F0000 		.4byte	0xf51
 6542 103b 19       		.uleb128 0x19
 6543 103c 616400   		.ascii	"ad\000"
 6544 103f 18       		.byte	0x18
 6545 1040 56       		.byte	0x56
 6546 1041 760F0000 		.4byte	0xf76
 6547 1045 19       		.uleb128 0x19
 6548 1046 7700     		.ascii	"w\000"
 6549 1048 18       		.byte	0x18
 6550 1049 5C       		.byte	0x5c
 6551 104a AF0F0000 		.4byte	0xfaf
 6552 104e 19       		.uleb128 0x19
 6553 104f 7200     		.ascii	"r\000"
 6554 1051 18       		.byte	0x18
 6555 1052 60       		.byte	0x60
 6556 1053 E90F0000 		.4byte	0xfe9
 6557 1057 19       		.uleb128 0x19
 6558 1058 736400   		.ascii	"sd\000"
 6559 105b 18       		.byte	0x18
 6560 105c 64       		.byte	0x64
 6561 105d 00100000 		.4byte	0x1000
 6562 1061 00       		.byte	0
 6563 1062 09       		.uleb128 0x9
 6564 1063 04       		.byte	0x4
 6565 1064 B3060000 		.4byte	0x6b3
 6566 1068 05       		.uleb128 0x5
 6567 1069 F6030000 		.4byte	.LASF214
 6568 106d 18       		.byte	0x18
 6569 106e 01       		.byte	0x1
 6570 106f 40       		.byte	0x40
 6571 1070 E5100000 		.4byte	0x10e5
 6572 1074 06       		.uleb128 0x6
 6573 1075 19010000 		.4byte	.LASF187
 6574 1079 01       		.byte	0x1
 6575 107a 42       		.byte	0x42
 6576 107b C7070000 		.4byte	0x7c7
 6577 107f 02       		.byte	0x2
 6578 1080 23       		.byte	0x23
 6579 1081 00       		.uleb128 0
ARM GAS  /var/folders/5n/p_75w94d66l9ssrldxqdhh700000gn/T//cciPPkzE.s 			page 117


 6580 1082 06       		.uleb128 0x6
 6581 1083 E8000000 		.4byte	.LASF215
 6582 1087 01       		.byte	0x1
 6583 1088 44       		.byte	0x44
 6584 1089 B2020000 		.4byte	0x2b2
 6585 108d 02       		.byte	0x2
 6586 108e 23       		.byte	0x23
 6587 108f 04       		.uleb128 0x4
 6588 1090 06       		.uleb128 0x6
 6589 1091 4C020000 		.4byte	.LASF216
 6590 1095 01       		.byte	0x1
 6591 1096 46       		.byte	0x46
 6592 1097 B7040000 		.4byte	0x4b7
 6593 109b 02       		.byte	0x2
 6594 109c 23       		.byte	0x23
 6595 109d 08       		.uleb128 0x8
 6596 109e 06       		.uleb128 0x6
 6597 109f 360B0000 		.4byte	.LASF217
 6598 10a3 01       		.byte	0x1
 6599 10a4 49       		.byte	0x49
 6600 10a5 C2040000 		.4byte	0x4c2
 6601 10a9 02       		.byte	0x2
 6602 10aa 23       		.byte	0x23
 6603 10ab 0A       		.uleb128 0xa
 6604 10ac 06       		.uleb128 0x6
 6605 10ad D6060000 		.4byte	.LASF218
 6606 10b1 01       		.byte	0x1
 6607 10b2 4C       		.byte	0x4c
 6608 10b3 B7040000 		.4byte	0x4b7
 6609 10b7 02       		.byte	0x2
 6610 10b8 23       		.byte	0x23
 6611 10b9 0C       		.uleb128 0xc
 6612 10ba 06       		.uleb128 0x6
 6613 10bb F6020000 		.4byte	.LASF219
 6614 10bf 01       		.byte	0x1
 6615 10c0 4E       		.byte	0x4e
 6616 10c1 B7040000 		.4byte	0x4b7
 6617 10c5 02       		.byte	0x2
 6618 10c6 23       		.byte	0x23
 6619 10c7 0E       		.uleb128 0xe
 6620 10c8 07       		.uleb128 0x7
 6621 10c9 65727200 		.ascii	"err\000"
 6622 10cd 01       		.byte	0x1
 6623 10ce 50       		.byte	0x50
 6624 10cf 29000000 		.4byte	0x29
 6625 10d3 02       		.byte	0x2
 6626 10d4 23       		.byte	0x23
 6627 10d5 10       		.uleb128 0x10
 6628 10d6 06       		.uleb128 0x6
 6629 10d7 B8030000 		.4byte	.LASF220
 6630 10db 01       		.byte	0x1
 6631 10dc 52       		.byte	0x52
 6632 10dd 29000000 		.4byte	0x29
 6633 10e1 02       		.byte	0x2
 6634 10e2 23       		.byte	0x23
 6635 10e3 14       		.uleb128 0x14
 6636 10e4 00       		.byte	0
ARM GAS  /var/folders/5n/p_75w94d66l9ssrldxqdhh700000gn/T//cciPPkzE.s 			page 118


 6637 10e5 05       		.uleb128 0x5
 6638 10e6 73040000 		.4byte	.LASF221
 6639 10ea 1C       		.byte	0x1c
 6640 10eb 01       		.byte	0x1
 6641 10ec 56       		.byte	0x56
 6642 10ed 54110000 		.4byte	0x1154
 6643 10f1 06       		.uleb128 0x6
 6644 10f2 950C0000 		.4byte	.LASF97
 6645 10f6 01       		.byte	0x1
 6646 10f7 58       		.byte	0x58
 6647 10f8 54110000 		.4byte	0x1154
 6648 10fc 02       		.byte	0x2
 6649 10fd 23       		.byte	0x23
 6650 10fe 00       		.uleb128 0
 6651 10ff 06       		.uleb128 0x6
 6652 1100 BE0C0000 		.4byte	.LASF222
 6653 1104 01       		.byte	0x1
 6654 1105 5A       		.byte	0x5a
 6655 1106 54110000 		.4byte	0x1154
 6656 110a 02       		.byte	0x2
 6657 110b 23       		.byte	0x23
 6658 110c 04       		.uleb128 0x4
 6659 110d 06       		.uleb128 0x6
 6660 110e 62030000 		.4byte	.LASF223
 6661 1112 01       		.byte	0x1
 6662 1113 5C       		.byte	0x5c
 6663 1114 5A110000 		.4byte	0x115a
 6664 1118 02       		.byte	0x2
 6665 1119 23       		.byte	0x23
 6666 111a 08       		.uleb128 0x8
 6667 111b 06       		.uleb128 0x6
 6668 111c 81090000 		.4byte	.LASF224
 6669 1120 01       		.byte	0x1
 6670 1121 5E       		.byte	0x5e
 6671 1122 5A110000 		.4byte	0x115a
 6672 1126 02       		.byte	0x2
 6673 1127 23       		.byte	0x23
 6674 1128 0C       		.uleb128 0xc
 6675 1129 06       		.uleb128 0x6
 6676 112a 05010000 		.4byte	.LASF225
 6677 112e 01       		.byte	0x1
 6678 112f 60       		.byte	0x60
 6679 1130 5A110000 		.4byte	0x115a
 6680 1134 02       		.byte	0x2
 6681 1135 23       		.byte	0x23
 6682 1136 10       		.uleb128 0x10
 6683 1137 06       		.uleb128 0x6
 6684 1138 58060000 		.4byte	.LASF226
 6685 113c 01       		.byte	0x1
 6686 113d 62       		.byte	0x62
 6687 113e 29000000 		.4byte	0x29
 6688 1142 02       		.byte	0x2
 6689 1143 23       		.byte	0x23
 6690 1144 14       		.uleb128 0x14
 6691 1145 07       		.uleb128 0x7
 6692 1146 73656D00 		.ascii	"sem\000"
 6693 114a 01       		.byte	0x1
ARM GAS  /var/folders/5n/p_75w94d66l9ssrldxqdhh700000gn/T//cciPPkzE.s 			page 119


 6694 114b 64       		.byte	0x64
 6695 114c F6060000 		.4byte	0x6f6
 6696 1150 02       		.byte	0x2
 6697 1151 23       		.byte	0x23
 6698 1152 18       		.uleb128 0x18
 6699 1153 00       		.byte	0
 6700 1154 09       		.uleb128 0x9
 6701 1155 04       		.byte	0x4
 6702 1156 E5100000 		.4byte	0x10e5
 6703 115a 09       		.uleb128 0x9
 6704 115b 04       		.byte	0x4
 6705 115c FB050000 		.4byte	0x5fb
 6706 1160 05       		.uleb128 0x5
 6707 1161 A90A0000 		.4byte	.LASF227
 6708 1165 18       		.byte	0x18
 6709 1166 01       		.byte	0x1
 6710 1167 69       		.byte	0x69
 6711 1168 C1110000 		.4byte	0x11c1
 6712 116c 06       		.uleb128 0x6
 6713 116d CA060000 		.4byte	.LASF228
 6714 1171 01       		.byte	0x1
 6715 1172 6B       		.byte	0x6b
 6716 1173 C1110000 		.4byte	0x11c1
 6717 1177 02       		.byte	0x2
 6718 1178 23       		.byte	0x23
 6719 1179 00       		.uleb128 0
 6720 117a 06       		.uleb128 0x6
 6721 117b 9C0B0000 		.4byte	.LASF229
 6722 117f 01       		.byte	0x1
 6723 1180 71       		.byte	0x71
 6724 1181 29000000 		.4byte	0x29
 6725 1185 02       		.byte	0x2
 6726 1186 23       		.byte	0x23
 6727 1187 04       		.uleb128 0x4
 6728 1188 06       		.uleb128 0x6
 6729 1189 57070000 		.4byte	.LASF230
 6730 118d 01       		.byte	0x1
 6731 118e 73       		.byte	0x73
 6732 118f 29000000 		.4byte	0x29
 6733 1193 02       		.byte	0x2
 6734 1194 23       		.byte	0x23
 6735 1195 08       		.uleb128 0x8
 6736 1196 06       		.uleb128 0x6
 6737 1197 E0060000 		.4byte	.LASF231
 6738 119b 01       		.byte	0x1
 6739 119c 76       		.byte	0x76
 6740 119d B2020000 		.4byte	0x2b2
 6741 11a1 02       		.byte	0x2
 6742 11a2 23       		.byte	0x23
 6743 11a3 0C       		.uleb128 0xc
 6744 11a4 06       		.uleb128 0x6
 6745 11a5 7E080000 		.4byte	.LASF232
 6746 11a9 01       		.byte	0x1
 6747 11aa 78       		.byte	0x78
 6748 11ab C7110000 		.4byte	0x11c7
 6749 11af 02       		.byte	0x2
 6750 11b0 23       		.byte	0x23
ARM GAS  /var/folders/5n/p_75w94d66l9ssrldxqdhh700000gn/T//cciPPkzE.s 			page 120


 6751 11b1 10       		.uleb128 0x10
 6752 11b2 07       		.uleb128 0x7
 6753 11b3 65727200 		.ascii	"err\000"
 6754 11b7 01       		.byte	0x1
 6755 11b8 7A       		.byte	0x7a
 6756 11b9 33060000 		.4byte	0x633
 6757 11bd 02       		.byte	0x2
 6758 11be 23       		.byte	0x23
 6759 11bf 14       		.uleb128 0x14
 6760 11c0 00       		.byte	0
 6761 11c1 09       		.uleb128 0x9
 6762 11c2 04       		.byte	0x4
 6763 11c3 68100000 		.4byte	0x1068
 6764 11c7 09       		.uleb128 0x9
 6765 11c8 04       		.byte	0x4
 6766 11c9 CD040000 		.4byte	0x4cd
 6767 11cd 1D       		.uleb128 0x1d
 6768 11ce 4D000000 		.4byte	.LASF233
 6769 11d2 01       		.byte	0x1
 6770 11d3 C3       		.byte	0xc3
 6771 11d4 01       		.byte	0x1
 6772 11d5 C1110000 		.4byte	0x11c1
 6773 11d9 01       		.byte	0x1
 6774 11da F3110000 		.4byte	0x11f3
 6775 11de 1E       		.uleb128 0x1e
 6776 11df 7300     		.ascii	"s\000"
 6777 11e1 01       		.byte	0x1
 6778 11e2 C3       		.byte	0xc3
 6779 11e3 29000000 		.4byte	0x29
 6780 11e7 1F       		.uleb128 0x1f
 6781 11e8 CA060000 		.4byte	.LASF228
 6782 11ec 01       		.byte	0x1
 6783 11ed C5       		.byte	0xc5
 6784 11ee C1110000 		.4byte	0x11c1
 6785 11f2 00       		.byte	0
 6786 11f3 1D       		.uleb128 0x1d
 6787 11f4 860A0000 		.4byte	.LASF234
 6788 11f8 01       		.byte	0x1
 6789 11f9 DF       		.byte	0xdf
 6790 11fa 01       		.byte	0x1
 6791 11fb C1110000 		.4byte	0x11c1
 6792 11ff 01       		.byte	0x1
 6793 1200 0E120000 		.4byte	0x120e
 6794 1204 1E       		.uleb128 0x1e
 6795 1205 7300     		.ascii	"s\000"
 6796 1207 01       		.byte	0x1
 6797 1208 DF       		.byte	0xdf
 6798 1209 29000000 		.4byte	0x29
 6799 120d 00       		.byte	0
 6800 120e 1D       		.uleb128 0x1d
 6801 120f F7040000 		.4byte	.LASF235
 6802 1213 01       		.byte	0x1
 6803 1214 F3       		.byte	0xf3
 6804 1215 01       		.byte	0x1
 6805 1216 29000000 		.4byte	0x29
 6806 121a 01       		.byte	0x1
 6807 121b 3F120000 		.4byte	0x123f
ARM GAS  /var/folders/5n/p_75w94d66l9ssrldxqdhh700000gn/T//cciPPkzE.s 			page 121


 6808 121f 20       		.uleb128 0x20
 6809 1220 A3010000 		.4byte	.LASF236
 6810 1224 01       		.byte	0x1
 6811 1225 F3       		.byte	0xf3
 6812 1226 C7070000 		.4byte	0x7c7
 6813 122a 20       		.uleb128 0x20
 6814 122b 97050000 		.4byte	.LASF237
 6815 122f 01       		.byte	0x1
 6816 1230 F3       		.byte	0xf3
 6817 1231 29000000 		.4byte	0x29
 6818 1235 21       		.uleb128 0x21
 6819 1236 6900     		.ascii	"i\000"
 6820 1238 01       		.byte	0x1
 6821 1239 F5       		.byte	0xf5
 6822 123a 29000000 		.4byte	0x29
 6823 123e 00       		.byte	0
 6824 123f 22       		.uleb128 0x22
 6825 1240 8A090000 		.4byte	.LASF315
 6826 1244 01       		.byte	0x1
 6827 1245 1801     		.2byte	0x118
 6828 1247 01       		.byte	0x1
 6829 1248 01       		.byte	0x1
 6830 1249 72120000 		.4byte	0x1272
 6831 124d 23       		.uleb128 0x23
 6832 124e CA060000 		.4byte	.LASF228
 6833 1252 01       		.byte	0x1
 6834 1253 1801     		.2byte	0x118
 6835 1255 C1110000 		.4byte	0x11c1
 6836 1259 23       		.uleb128 0x23
 6837 125a 620C0000 		.4byte	.LASF238
 6838 125e 01       		.byte	0x1
 6839 125f 1801     		.2byte	0x118
 6840 1261 29000000 		.4byte	0x29
 6841 1265 24       		.uleb128 0x24
 6842 1266 E8000000 		.4byte	.LASF215
 6843 126a 01       		.byte	0x1
 6844 126b 1A01     		.2byte	0x11a
 6845 126d B2020000 		.4byte	0x2b2
 6846 1271 00       		.byte	0
 6847 1272 25       		.uleb128 0x25
 6848 1273 3F060000 		.4byte	.LASF240
 6849 1277 01       		.byte	0x1
 6850 1278 0208     		.2byte	0x802
 6851 127a 01       		.byte	0x1
 6852 127b 00000000 		.4byte	.LFB34
 6853 127f F4000000 		.4byte	.LFE34
 6854 1283 00000000 		.4byte	.LLST0
 6855 1287 EC120000 		.4byte	0x12ec
 6856 128b 26       		.uleb128 0x26
 6857 128c 61726700 		.ascii	"arg\000"
 6858 1290 01       		.byte	0x1
 6859 1291 0208     		.2byte	0x802
 6860 1293 B2020000 		.4byte	0x2b2
 6861 1297 2C000000 		.4byte	.LLST1
 6862 129b 27       		.uleb128 0x27
 6863 129c CA060000 		.4byte	.LASF228
 6864 12a0 01       		.byte	0x1
ARM GAS  /var/folders/5n/p_75w94d66l9ssrldxqdhh700000gn/T//cciPPkzE.s 			page 122


 6865 12a1 0408     		.2byte	0x804
 6866 12a3 C1110000 		.4byte	0x11c1
 6867 12a7 4A000000 		.4byte	.LLST2
 6868 12ab 27       		.uleb128 0x27
 6869 12ac 9C0B0000 		.4byte	.LASF229
 6870 12b0 01       		.byte	0x1
 6871 12b1 0808     		.2byte	0x808
 6872 12b3 29000000 		.4byte	0x29
 6873 12b7 74000000 		.4byte	.LLST3
 6874 12bb 27       		.uleb128 0x27
 6875 12bc 57070000 		.4byte	.LASF230
 6876 12c0 01       		.byte	0x1
 6877 12c1 0808     		.2byte	0x808
 6878 12c3 29000000 		.4byte	0x29
 6879 12c7 E2000000 		.4byte	.LLST4
 6880 12cb 27       		.uleb128 0x27
 6881 12cc E0060000 		.4byte	.LASF231
 6882 12d0 01       		.byte	0x1
 6883 12d1 0908     		.2byte	0x809
 6884 12d3 E20F0000 		.4byte	0xfe2
 6885 12d7 7C010000 		.4byte	.LLST5
 6886 12db 27       		.uleb128 0x27
 6887 12dc 9A0C0000 		.4byte	.LASF239
 6888 12e0 01       		.byte	0x1
 6889 12e1 0A08     		.2byte	0x80a
 6890 12e3 EC120000 		.4byte	0x12ec
 6891 12e7 C7010000 		.4byte	.LLST6
 6892 12eb 00       		.byte	0
 6893 12ec 09       		.uleb128 0x9
 6894 12ed 04       		.byte	0x4
 6895 12ee 60110000 		.4byte	0x1160
 6896 12f2 25       		.uleb128 0x25
 6897 12f3 C5040000 		.4byte	.LASF241
 6898 12f7 01       		.byte	0x1
 6899 12f8 6806     		.2byte	0x668
 6900 12fa 01       		.byte	0x1
 6901 12fb 00000000 		.4byte	.LFB32
 6902 12ff 10010000 		.4byte	.LFE32
 6903 1303 FB010000 		.4byte	.LLST7
 6904 1307 6C130000 		.4byte	0x136c
 6905 130b 26       		.uleb128 0x26
 6906 130c 61726700 		.ascii	"arg\000"
 6907 1310 01       		.byte	0x1
 6908 1311 6806     		.2byte	0x668
 6909 1313 B2020000 		.4byte	0x2b2
 6910 1317 27020000 		.4byte	.LLST8
 6911 131b 27       		.uleb128 0x27
 6912 131c CA060000 		.4byte	.LASF228
 6913 1320 01       		.byte	0x1
 6914 1321 6A06     		.2byte	0x66a
 6915 1323 C1110000 		.4byte	0x11c1
 6916 1327 45020000 		.4byte	.LLST9
 6917 132b 27       		.uleb128 0x27
 6918 132c 9C0B0000 		.4byte	.LASF229
 6919 1330 01       		.byte	0x1
 6920 1331 6E06     		.2byte	0x66e
 6921 1333 29000000 		.4byte	0x29
ARM GAS  /var/folders/5n/p_75w94d66l9ssrldxqdhh700000gn/T//cciPPkzE.s 			page 123


 6922 1337 6F020000 		.4byte	.LLST10
 6923 133b 27       		.uleb128 0x27
 6924 133c 57070000 		.4byte	.LASF230
 6925 1340 01       		.byte	0x1
 6926 1341 6E06     		.2byte	0x66e
 6927 1343 29000000 		.4byte	0x29
 6928 1347 D0020000 		.4byte	.LLST11
 6929 134b 27       		.uleb128 0x27
 6930 134c E0060000 		.4byte	.LASF231
 6931 1350 01       		.byte	0x1
 6932 1351 6F06     		.2byte	0x66f
 6933 1353 B2020000 		.4byte	0x2b2
 6934 1357 1B030000 		.4byte	.LLST12
 6935 135b 27       		.uleb128 0x27
 6936 135c 9A0C0000 		.4byte	.LASF239
 6937 1360 01       		.byte	0x1
 6938 1361 7006     		.2byte	0x670
 6939 1363 EC120000 		.4byte	0x12ec
 6940 1367 50030000 		.4byte	.LLST13
 6941 136b 00       		.byte	0
 6942 136c 25       		.uleb128 0x25
 6943 136d DC020000 		.4byte	.LASF242
 6944 1371 01       		.byte	0x1
 6945 1372 D204     		.2byte	0x4d2
 6946 1374 01       		.byte	0x1
 6947 1375 00000000 		.4byte	.LFB26
 6948 1379 00010000 		.4byte	.LFE26
 6949 137d 79030000 		.4byte	.LLST14
 6950 1381 41140000 		.4byte	0x1441
 6951 1385 28       		.uleb128 0x28
 6952 1386 19010000 		.4byte	.LASF187
 6953 138a 01       		.byte	0x1
 6954 138b D204     		.2byte	0x4d2
 6955 138d C7070000 		.4byte	0x7c7
 6956 1391 99030000 		.4byte	.LLST15
 6957 1395 26       		.uleb128 0x26
 6958 1396 65767400 		.ascii	"evt\000"
 6959 139a 01       		.byte	0x1
 6960 139b D204     		.2byte	0x4d2
 6961 139d 75070000 		.4byte	0x775
 6962 13a1 CD030000 		.4byte	.LLST16
 6963 13a5 26       		.uleb128 0x26
 6964 13a6 6C656E00 		.ascii	"len\000"
 6965 13aa 01       		.byte	0x1
 6966 13ab D204     		.2byte	0x4d2
 6967 13ad B7040000 		.4byte	0x4b7
 6968 13b1 01040000 		.4byte	.LLST17
 6969 13b5 29       		.uleb128 0x29
 6970 13b6 7300     		.ascii	"s\000"
 6971 13b8 01       		.byte	0x1
 6972 13b9 D404     		.2byte	0x4d4
 6973 13bb 29000000 		.4byte	0x29
 6974 13bf 2A040000 		.4byte	.LLST18
 6975 13c3 2A       		.uleb128 0x2a
 6976 13c4 CA060000 		.4byte	.LASF228
 6977 13c8 01       		.byte	0x1
 6978 13c9 D504     		.2byte	0x4d5
ARM GAS  /var/folders/5n/p_75w94d66l9ssrldxqdhh700000gn/T//cciPPkzE.s 			page 124


 6979 13cb C1110000 		.4byte	0x11c1
 6980 13cf 01       		.byte	0x1
 6981 13d0 56       		.byte	0x56
 6982 13d1 29       		.uleb128 0x29
 6983 13d2 73636200 		.ascii	"scb\000"
 6984 13d6 01       		.byte	0x1
 6985 13d7 D604     		.2byte	0x4d6
 6986 13d9 54110000 		.4byte	0x1154
 6987 13dd 49040000 		.4byte	.LLST19
 6988 13e1 27       		.uleb128 0x27
 6989 13e2 22070000 		.4byte	.LASF243
 6990 13e6 01       		.byte	0x1
 6991 13e7 D704     		.2byte	0x4d7
 6992 13e9 29000000 		.4byte	0x29
 6993 13ed 81040000 		.4byte	.LLST20
 6994 13f1 2B       		.uleb128 0x2b
 6995 13f2 B7070000 		.4byte	.LASF316
 6996 13f6 01       		.byte	0x1
 6997 13f7 1C05     		.2byte	0x51c
 6998 13f9 2C       		.uleb128 0x2c
 6999 13fa CD110000 		.4byte	0x11cd
 7000 13fe 10000000 		.4byte	.LBB51
 7001 1402 24000000 		.4byte	.LBE51
 7002 1406 01       		.byte	0x1
 7003 1407 F104     		.2byte	0x4f1
 7004 1409 2A140000 		.4byte	0x142a
 7005 140d 2D       		.uleb128 0x2d
 7006 140e DE110000 		.4byte	0x11de
 7007 1412 9F040000 		.4byte	.LLST21
 7008 1416 2E       		.uleb128 0x2e
 7009 1417 10000000 		.4byte	.LBB52
 7010 141b 24000000 		.4byte	.LBE52
 7011 141f 2F       		.uleb128 0x2f
 7012 1420 E7110000 		.4byte	0x11e7
 7013 1424 BE040000 		.4byte	.LLST22
 7014 1428 00       		.byte	0
 7015 1429 00       		.byte	0
 7016 142a 30       		.uleb128 0x30
 7017 142b 00000000 		.4byte	.Ldebug_ranges0+0
 7018 142f 27       		.uleb128 0x27
 7019 1430 F3060000 		.4byte	.LASF244
 7020 1434 01       		.byte	0x1
 7021 1435 2005     		.2byte	0x520
 7022 1437 29000000 		.4byte	0x29
 7023 143b DC040000 		.4byte	.LLST23
 7024 143f 00       		.byte	0
 7025 1440 00       		.byte	0
 7026 1441 31       		.uleb128 0x31
 7027 1442 EA070000 		.4byte	.LASF256
 7028 1446 01       		.byte	0x1
 7029 1447 F503     		.2byte	0x3f5
 7030 1449 01       		.byte	0x1
 7031 144a 29000000 		.4byte	0x29
 7032 144e 00000000 		.4byte	.LFB24
 7033 1452 3E010000 		.4byte	.LFE24
 7034 1456 1C050000 		.4byte	.LLST24
 7035 145a 85150000 		.4byte	0x1585
ARM GAS  /var/folders/5n/p_75w94d66l9ssrldxqdhh700000gn/T//cciPPkzE.s 			page 125


 7036 145e 28       		.uleb128 0x28
 7037 145f 18080000 		.4byte	.LASF245
 7038 1463 01       		.byte	0x1
 7039 1464 F503     		.2byte	0x3f5
 7040 1466 29000000 		.4byte	0x29
 7041 146a 48050000 		.4byte	.LLST25
 7042 146e 28       		.uleb128 0x28
 7043 146f DD000000 		.4byte	.LASF246
 7044 1473 01       		.byte	0x1
 7045 1474 F503     		.2byte	0x3f5
 7046 1476 5A110000 		.4byte	0x115a
 7047 147a 67050000 		.4byte	.LLST26
 7048 147e 28       		.uleb128 0x28
 7049 147f 34030000 		.4byte	.LASF247
 7050 1483 01       		.byte	0x1
 7051 1484 F503     		.2byte	0x3f5
 7052 1486 5A110000 		.4byte	0x115a
 7053 148a 85050000 		.4byte	.LLST27
 7054 148e 28       		.uleb128 0x28
 7055 148f 31040000 		.4byte	.LASF248
 7056 1493 01       		.byte	0x1
 7057 1494 F503     		.2byte	0x3f5
 7058 1496 5A110000 		.4byte	0x115a
 7059 149a A3050000 		.4byte	.LLST28
 7060 149e 32       		.uleb128 0x32
 7061 149f 220C0000 		.4byte	.LASF249
 7062 14a3 01       		.byte	0x1
 7063 14a4 F603     		.2byte	0x3f6
 7064 14a6 5A110000 		.4byte	0x115a
 7065 14aa 02       		.byte	0x2
 7066 14ab 91       		.byte	0x91
 7067 14ac 00       		.sleb128 0
 7068 14ad 32       		.uleb128 0x32
 7069 14ae E9030000 		.4byte	.LASF250
 7070 14b2 01       		.byte	0x1
 7071 14b3 F603     		.2byte	0x3f6
 7072 14b5 5A110000 		.4byte	0x115a
 7073 14b9 02       		.byte	0x2
 7074 14ba 91       		.byte	0x91
 7075 14bb 04       		.sleb128 4
 7076 14bc 32       		.uleb128 0x32
 7077 14bd 2A0A0000 		.4byte	.LASF251
 7078 14c1 01       		.byte	0x1
 7079 14c2 F603     		.2byte	0x3f6
 7080 14c4 5A110000 		.4byte	0x115a
 7081 14c8 02       		.byte	0x2
 7082 14c9 91       		.byte	0x91
 7083 14ca 08       		.sleb128 8
 7084 14cb 29       		.uleb128 0x29
 7085 14cc 6900     		.ascii	"i\000"
 7086 14ce 01       		.byte	0x1
 7087 14cf F803     		.2byte	0x3f8
 7088 14d1 29000000 		.4byte	0x29
 7089 14d5 C1050000 		.4byte	.LLST29
 7090 14d9 27       		.uleb128 0x27
 7091 14da 790C0000 		.4byte	.LASF252
 7092 14de 01       		.byte	0x1
ARM GAS  /var/folders/5n/p_75w94d66l9ssrldxqdhh700000gn/T//cciPPkzE.s 			page 126


 7093 14df F803     		.2byte	0x3f8
 7094 14e1 29000000 		.4byte	0x29
 7095 14e5 E0050000 		.4byte	.LLST30
 7096 14e9 2A       		.uleb128 0x2a
 7097 14ea 96090000 		.4byte	.LASF253
 7098 14ee 01       		.byte	0x1
 7099 14ef F903     		.2byte	0x3f9
 7100 14f1 FB050000 		.4byte	0x5fb
 7101 14f5 02       		.byte	0x2
 7102 14f6 91       		.byte	0x91
 7103 14f7 54       		.sleb128 -44
 7104 14f8 2A       		.uleb128 0x2a
 7105 14f9 F7070000 		.4byte	.LASF254
 7106 14fd 01       		.byte	0x1
 7107 14fe F903     		.2byte	0x3f9
 7108 1500 FB050000 		.4byte	0x5fb
 7109 1504 02       		.byte	0x2
 7110 1505 91       		.byte	0x91
 7111 1506 58       		.sleb128 -40
 7112 1507 2A       		.uleb128 0x2a
 7113 1508 00000000 		.4byte	.LASF255
 7114 150c 01       		.byte	0x1
 7115 150d F903     		.2byte	0x3f9
 7116 150f FB050000 		.4byte	0x5fb
 7117 1513 02       		.byte	0x2
 7118 1514 91       		.byte	0x91
 7119 1515 5C       		.sleb128 -36
 7120 1516 2A       		.uleb128 0x2a
 7121 1517 CA060000 		.4byte	.LASF228
 7122 151b 01       		.byte	0x1
 7123 151c FA03     		.2byte	0x3fa
 7124 151e C1110000 		.4byte	0x11c1
 7125 1522 01       		.byte	0x1
 7126 1523 55       		.byte	0x55
 7127 1524 30       		.uleb128 0x30
 7128 1525 20000000 		.4byte	.Ldebug_ranges0+0x20
 7129 1529 27       		.uleb128 0x27
 7130 152a E8000000 		.4byte	.LASF215
 7131 152e 01       		.byte	0x1
 7132 152f 0404     		.2byte	0x404
 7133 1531 B2020000 		.4byte	0x2b2
 7134 1535 FF050000 		.4byte	.LLST31
 7135 1539 27       		.uleb128 0x27
 7136 153a 360B0000 		.4byte	.LASF217
 7137 153e 01       		.byte	0x1
 7138 153f 0504     		.2byte	0x405
 7139 1541 C2040000 		.4byte	0x4c2
 7140 1545 36060000 		.4byte	.LLST32
 7141 1549 27       		.uleb128 0x27
 7142 154a D6060000 		.4byte	.LASF218
 7143 154e 01       		.byte	0x1
 7144 154f 0604     		.2byte	0x406
 7145 1551 B7040000 		.4byte	0x4b7
 7146 1555 61060000 		.4byte	.LLST33
 7147 1559 27       		.uleb128 0x27
 7148 155a F6020000 		.4byte	.LASF219
 7149 155e 01       		.byte	0x1
ARM GAS  /var/folders/5n/p_75w94d66l9ssrldxqdhh700000gn/T//cciPPkzE.s 			page 127


 7150 155f 0704     		.2byte	0x407
 7151 1561 B7040000 		.4byte	0x4b7
 7152 1565 8C060000 		.4byte	.LLST34
 7153 1569 33       		.uleb128 0x33
 7154 156a F3110000 		.4byte	0x11f3
 7155 156e 1E000000 		.4byte	.LBB57
 7156 1572 38000000 		.4byte	.Ldebug_ranges0+0x38
 7157 1576 01       		.byte	0x1
 7158 1577 0A04     		.2byte	0x40a
 7159 1579 2D       		.uleb128 0x2d
 7160 157a 04120000 		.4byte	0x1204
 7161 157e B7060000 		.4byte	.LLST35
 7162 1582 00       		.byte	0
 7163 1583 00       		.byte	0
 7164 1584 00       		.byte	0
 7165 1585 31       		.uleb128 0x31
 7166 1586 26060000 		.4byte	.LASF257
 7167 158a 01       		.byte	0x1
 7168 158b 7305     		.2byte	0x573
 7169 158d 01       		.byte	0x1
 7170 158e 29000000 		.4byte	0x29
 7171 1592 00000000 		.4byte	.LFB28
 7172 1596 7C000000 		.4byte	.LFE28
 7173 159a E2060000 		.4byte	.LLST36
 7174 159e 36160000 		.4byte	0x1636
 7175 15a2 26       		.uleb128 0x26
 7176 15a3 7300     		.ascii	"s\000"
 7177 15a5 01       		.byte	0x1
 7178 15a6 7305     		.2byte	0x573
 7179 15a8 29000000 		.4byte	0x29
 7180 15ac 0E070000 		.4byte	.LLST37
 7181 15b0 28       		.uleb128 0x28
 7182 15b1 D7090000 		.4byte	.LASF258
 7183 15b5 01       		.byte	0x1
 7184 15b6 7305     		.2byte	0x573
 7185 15b8 36160000 		.4byte	0x1636
 7186 15bc 21070000 		.4byte	.LLST38
 7187 15c0 28       		.uleb128 0x28
 7188 15c1 A1020000 		.4byte	.LASF259
 7189 15c5 01       		.byte	0x1
 7190 15c6 7305     		.2byte	0x573
 7191 15c8 C7110000 		.4byte	0x11c7
 7192 15cc 3F070000 		.4byte	.LLST39
 7193 15d0 28       		.uleb128 0x28
 7194 15d1 FF000000 		.4byte	.LASF210
 7195 15d5 01       		.byte	0x1
 7196 15d6 7305     		.2byte	0x573
 7197 15d8 A1040000 		.4byte	0x4a1
 7198 15dc 5D070000 		.4byte	.LLST40
 7199 15e0 2A       		.uleb128 0x2a
 7200 15e1 CA060000 		.4byte	.LASF228
 7201 15e5 01       		.byte	0x1
 7202 15e6 7505     		.2byte	0x575
 7203 15e8 C1110000 		.4byte	0x11c1
 7204 15ec 01       		.byte	0x1
 7205 15ed 57       		.byte	0x57
 7206 15ee 34       		.uleb128 0x34
ARM GAS  /var/folders/5n/p_75w94d66l9ssrldxqdhh700000gn/T//cciPPkzE.s 			page 128


 7207 15ef 73696E00 		.ascii	"sin\000"
 7208 15f3 01       		.byte	0x1
 7209 15f4 7605     		.2byte	0x576
 7210 15f6 24050000 		.4byte	0x524
 7211 15fa 02       		.byte	0x2
 7212 15fb 91       		.byte	0x91
 7213 15fc 54       		.sleb128 -44
 7214 15fd 2A       		.uleb128 0x2a
 7215 15fe 23000000 		.4byte	.LASF260
 7216 1602 01       		.byte	0x1
 7217 1603 7705     		.2byte	0x577
 7218 1605 FE040000 		.4byte	0x4fe
 7219 1609 02       		.byte	0x2
 7220 160a 91       		.byte	0x91
 7221 160b 64       		.sleb128 -28
 7222 160c 33       		.uleb128 0x33
 7223 160d CD110000 		.4byte	0x11cd
 7224 1611 02000000 		.4byte	.LBB62
 7225 1615 50000000 		.4byte	.Ldebug_ranges0+0x50
 7226 1619 01       		.byte	0x1
 7227 161a 7905     		.2byte	0x579
 7228 161c 2D       		.uleb128 0x2d
 7229 161d DE110000 		.4byte	0x11de
 7230 1621 0E070000 		.4byte	.LLST37
 7231 1625 30       		.uleb128 0x30
 7232 1626 70000000 		.4byte	.Ldebug_ranges0+0x70
 7233 162a 2F       		.uleb128 0x2f
 7234 162b E7110000 		.4byte	0x11e7
 7235 162f 7B070000 		.4byte	.LLST42
 7236 1633 00       		.byte	0
 7237 1634 00       		.byte	0
 7238 1635 00       		.byte	0
 7239 1636 09       		.uleb128 0x9
 7240 1637 04       		.byte	0x4
 7241 1638 87050000 		.4byte	0x587
 7242 163c 35       		.uleb128 0x35
 7243 163d 01       		.byte	0x1
 7244 163e 000A0000 		.4byte	.LASF317
 7245 1642 01       		.byte	0x1
 7246 1643 B8       		.byte	0xb8
 7247 1644 01       		.byte	0x1
 7248 1645 00000000 		.4byte	.LFB7
 7249 1649 02000000 		.4byte	.LFE7
 7250 164d 02       		.byte	0x2
 7251 164e 7D       		.byte	0x7d
 7252 164f 00       		.sleb128 0
 7253 1650 36       		.uleb128 0x36
 7254 1651 01       		.byte	0x1
 7255 1652 0C070000 		.4byte	.LASF264
 7256 1656 01       		.byte	0x1
 7257 1657 3801     		.2byte	0x138
 7258 1659 01       		.byte	0x1
 7259 165a 29000000 		.4byte	0x29
 7260 165e 00000000 		.4byte	.LFB12
 7261 1662 60010000 		.4byte	.LFE12
 7262 1666 8E070000 		.4byte	.LLST43
 7263 166a 74170000 		.4byte	0x1774
ARM GAS  /var/folders/5n/p_75w94d66l9ssrldxqdhh700000gn/T//cciPPkzE.s 			page 129


 7264 166e 26       		.uleb128 0x26
 7265 166f 7300     		.ascii	"s\000"
 7266 1671 01       		.byte	0x1
 7267 1672 3801     		.2byte	0x138
 7268 1674 29000000 		.4byte	0x29
 7269 1678 BB070000 		.4byte	.LLST44
 7270 167c 28       		.uleb128 0x28
 7271 167d 93060000 		.4byte	.LASF76
 7272 1681 01       		.byte	0x1
 7273 1682 3801     		.2byte	0x138
 7274 1684 36160000 		.4byte	0x1636
 7275 1688 CE070000 		.4byte	.LLST45
 7276 168c 28       		.uleb128 0x28
 7277 168d BD040000 		.4byte	.LASF261
 7278 1691 01       		.byte	0x1
 7279 1692 3801     		.2byte	0x138
 7280 1694 C7110000 		.4byte	0x11c7
 7281 1698 0D080000 		.4byte	.LLST46
 7282 169c 2A       		.uleb128 0x2a
 7283 169d CA060000 		.4byte	.LASF228
 7284 16a1 01       		.byte	0x1
 7285 16a2 3A01     		.2byte	0x13a
 7286 16a4 C1110000 		.4byte	0x11c1
 7287 16a8 01       		.byte	0x1
 7288 16a9 55       		.byte	0x55
 7289 16aa 27       		.uleb128 0x27
 7290 16ab 50030000 		.4byte	.LASF262
 7291 16af 01       		.byte	0x1
 7292 16b0 3A01     		.2byte	0x13a
 7293 16b2 C1110000 		.4byte	0x11c1
 7294 16b6 4C080000 		.4byte	.LLST47
 7295 16ba 27       		.uleb128 0x27
 7296 16bb A3010000 		.4byte	.LASF236
 7297 16bf 01       		.byte	0x1
 7298 16c0 3B01     		.2byte	0x13b
 7299 16c2 C7070000 		.4byte	0x7c7
 7300 16c6 5F080000 		.4byte	.LLST48
 7301 16ca 2A       		.uleb128 0x2a
 7302 16cb 23000000 		.4byte	.LASF260
 7303 16cf 01       		.byte	0x1
 7304 16d0 3C01     		.2byte	0x13c
 7305 16d2 FE040000 		.4byte	0x4fe
 7306 16d6 02       		.byte	0x2
 7307 16d7 91       		.byte	0x91
 7308 16d8 58       		.sleb128 -40
 7309 16d9 27       		.uleb128 0x27
 7310 16da E4090000 		.4byte	.LASF103
 7311 16de 01       		.byte	0x1
 7312 16df 3D01     		.2byte	0x13d
 7313 16e1 B7040000 		.4byte	0x4b7
 7314 16e5 8B080000 		.4byte	.LLST49
 7315 16e9 24       		.uleb128 0x24
 7316 16ea DE040000 		.4byte	.LASF263
 7317 16ee 01       		.byte	0x1
 7318 16ef 3E01     		.2byte	0x13e
 7319 16f1 29000000 		.4byte	0x29
 7320 16f5 34       		.uleb128 0x34
ARM GAS  /var/folders/5n/p_75w94d66l9ssrldxqdhh700000gn/T//cciPPkzE.s 			page 130


 7321 16f6 73696E00 		.ascii	"sin\000"
 7322 16fa 01       		.byte	0x1
 7323 16fb 3F01     		.2byte	0x13f
 7324 16fd 24050000 		.4byte	0x524
 7325 1701 02       		.byte	0x2
 7326 1702 91       		.byte	0x91
 7327 1703 44       		.sleb128 -60
 7328 1704 29       		.uleb128 0x29
 7329 1705 65727200 		.ascii	"err\000"
 7330 1709 01       		.byte	0x1
 7331 170a 4001     		.2byte	0x140
 7332 170c 33060000 		.4byte	0x633
 7333 1710 AB080000 		.4byte	.LLST50
 7334 1714 37       		.uleb128 0x37
 7335 1715 CD110000 		.4byte	0x11cd
 7336 1719 04000000 		.4byte	.LBB68
 7337 171d 90000000 		.4byte	.Ldebug_ranges0+0x90
 7338 1721 01       		.byte	0x1
 7339 1722 4401     		.2byte	0x144
 7340 1724 41170000 		.4byte	0x1741
 7341 1728 2D       		.uleb128 0x2d
 7342 1729 DE110000 		.4byte	0x11de
 7343 172d EA080000 		.4byte	.LLST51
 7344 1731 30       		.uleb128 0x30
 7345 1732 B0000000 		.4byte	.Ldebug_ranges0+0xb0
 7346 1736 2F       		.uleb128 0x2f
 7347 1737 E7110000 		.4byte	0x11e7
 7348 173b FD080000 		.4byte	.LLST52
 7349 173f 00       		.byte	0
 7350 1740 00       		.byte	0
 7351 1741 33       		.uleb128 0x33
 7352 1742 0E120000 		.4byte	0x120e
 7353 1746 A0000000 		.4byte	.LBB73
 7354 174a D0000000 		.4byte	.Ldebug_ranges0+0xd0
 7355 174e 01       		.byte	0x1
 7356 174f 7401     		.2byte	0x174
 7357 1751 2D       		.uleb128 0x2d
 7358 1752 2A120000 		.4byte	0x122a
 7359 1756 1B090000 		.4byte	.LLST53
 7360 175a 2D       		.uleb128 0x2d
 7361 175b 1F120000 		.4byte	0x121f
 7362 175f 3B090000 		.4byte	.LLST54
 7363 1763 30       		.uleb128 0x30
 7364 1764 F0000000 		.4byte	.Ldebug_ranges0+0xf0
 7365 1768 2F       		.uleb128 0x2f
 7366 1769 35120000 		.4byte	0x1235
 7367 176d 5A090000 		.4byte	.LLST55
 7368 1771 00       		.byte	0
 7369 1772 00       		.byte	0
 7370 1773 00       		.byte	0
 7371 1774 36       		.uleb128 0x36
 7372 1775 01       		.byte	0x1
 7373 1776 1E0B0000 		.4byte	.LASF265
 7374 177a 01       		.byte	0x1
 7375 177b 9101     		.2byte	0x191
 7376 177d 01       		.byte	0x1
 7377 177e 29000000 		.4byte	0x29
ARM GAS  /var/folders/5n/p_75w94d66l9ssrldxqdhh700000gn/T//cciPPkzE.s 			page 131


 7378 1782 00000000 		.4byte	.LFB13
 7379 1786 78000000 		.4byte	.LFE13
 7380 178a 79090000 		.4byte	.LLST56
 7381 178e 37180000 		.4byte	0x1837
 7382 1792 26       		.uleb128 0x26
 7383 1793 7300     		.ascii	"s\000"
 7384 1795 01       		.byte	0x1
 7385 1796 9101     		.2byte	0x191
 7386 1798 29000000 		.4byte	0x29
 7387 179c A5090000 		.4byte	.LLST57
 7388 17a0 28       		.uleb128 0x28
 7389 17a1 D7090000 		.4byte	.LASF258
 7390 17a5 01       		.byte	0x1
 7391 17a6 9101     		.2byte	0x191
 7392 17a8 37180000 		.4byte	0x1837
 7393 17ac B8090000 		.4byte	.LLST58
 7394 17b0 28       		.uleb128 0x28
 7395 17b1 A1020000 		.4byte	.LASF259
 7396 17b5 01       		.byte	0x1
 7397 17b6 9101     		.2byte	0x191
 7398 17b8 CD040000 		.4byte	0x4cd
 7399 17bc D6090000 		.4byte	.LLST59
 7400 17c0 2A       		.uleb128 0x2a
 7401 17c1 CA060000 		.4byte	.LASF228
 7402 17c5 01       		.byte	0x1
 7403 17c6 9301     		.2byte	0x193
 7404 17c8 C1110000 		.4byte	0x11c1
 7405 17cc 01       		.byte	0x1
 7406 17cd 54       		.byte	0x54
 7407 17ce 2A       		.uleb128 0x2a
 7408 17cf 7C000000 		.4byte	.LASF266
 7409 17d3 01       		.byte	0x1
 7410 17d4 9401     		.2byte	0x194
 7411 17d6 FE040000 		.4byte	0x4fe
 7412 17da 02       		.byte	0x2
 7413 17db 91       		.byte	0x91
 7414 17dc 6C       		.sleb128 -20
 7415 17dd 27       		.uleb128 0x27
 7416 17de 8F030000 		.4byte	.LASF144
 7417 17e2 01       		.byte	0x1
 7418 17e3 9501     		.2byte	0x195
 7419 17e5 B7040000 		.4byte	0x4b7
 7420 17e9 F4090000 		.4byte	.LLST60
 7421 17ed 29       		.uleb128 0x29
 7422 17ee 65727200 		.ascii	"err\000"
 7423 17f2 01       		.byte	0x1
 7424 17f3 9601     		.2byte	0x196
 7425 17f5 33060000 		.4byte	0x633
 7426 17f9 080A0000 		.4byte	.LLST61
 7427 17fd 27       		.uleb128 0x27
 7428 17fe D1080000 		.4byte	.LASF267
 7429 1802 01       		.byte	0x1
 7430 1803 9701     		.2byte	0x197
 7431 1805 42180000 		.4byte	0x1842
 7432 1809 260A0000 		.4byte	.LLST62
 7433 180d 33       		.uleb128 0x33
 7434 180e CD110000 		.4byte	0x11cd
ARM GAS  /var/folders/5n/p_75w94d66l9ssrldxqdhh700000gn/T//cciPPkzE.s 			page 132


 7435 1812 02000000 		.4byte	.LBB80
 7436 1816 10010000 		.4byte	.Ldebug_ranges0+0x110
 7437 181a 01       		.byte	0x1
 7438 181b 9901     		.2byte	0x199
 7439 181d 2D       		.uleb128 0x2d
 7440 181e DE110000 		.4byte	0x11de
 7441 1822 390A0000 		.4byte	.LLST63
 7442 1826 30       		.uleb128 0x30
 7443 1827 30010000 		.4byte	.Ldebug_ranges0+0x130
 7444 182b 2F       		.uleb128 0x2f
 7445 182c E7110000 		.4byte	0x11e7
 7446 1830 4C0A0000 		.4byte	.LLST64
 7447 1834 00       		.byte	0
 7448 1835 00       		.byte	0
 7449 1836 00       		.byte	0
 7450 1837 09       		.uleb128 0x9
 7451 1838 04       		.byte	0x4
 7452 1839 3D180000 		.4byte	0x183d
 7453 183d 10       		.uleb128 0x10
 7454 183e 87050000 		.4byte	0x587
 7455 1842 09       		.uleb128 0x9
 7456 1843 04       		.byte	0x4
 7457 1844 48180000 		.4byte	0x1848
 7458 1848 10       		.uleb128 0x10
 7459 1849 24050000 		.4byte	0x524
 7460 184d 36       		.uleb128 0x36
 7461 184e 01       		.byte	0x1
 7462 184f 90000000 		.4byte	.LASF268
 7463 1853 01       		.byte	0x1
 7464 1854 B901     		.2byte	0x1b9
 7465 1856 01       		.byte	0x1
 7466 1857 29000000 		.4byte	0x29
 7467 185b 00000000 		.4byte	.LFB14
 7468 185f 5C000000 		.4byte	.LFE14
 7469 1863 6A0A0000 		.4byte	.LLST65
 7470 1867 F7180000 		.4byte	0x18f7
 7471 186b 26       		.uleb128 0x26
 7472 186c 7300     		.ascii	"s\000"
 7473 186e 01       		.byte	0x1
 7474 186f B901     		.2byte	0x1b9
 7475 1871 29000000 		.4byte	0x29
 7476 1875 8A0A0000 		.4byte	.LLST66
 7477 1879 2A       		.uleb128 0x2a
 7478 187a CA060000 		.4byte	.LASF228
 7479 187e 01       		.byte	0x1
 7480 187f BB01     		.2byte	0x1bb
 7481 1881 C1110000 		.4byte	0x11c1
 7482 1885 01       		.byte	0x1
 7483 1886 55       		.byte	0x55
 7484 1887 27       		.uleb128 0x27
 7485 1888 620C0000 		.4byte	.LASF238
 7486 188c 01       		.byte	0x1
 7487 188d BC01     		.2byte	0x1bc
 7488 188f 29000000 		.4byte	0x29
 7489 1893 A80A0000 		.4byte	.LLST67
 7490 1897 37       		.uleb128 0x37
 7491 1898 CD110000 		.4byte	0x11cd
ARM GAS  /var/folders/5n/p_75w94d66l9ssrldxqdhh700000gn/T//cciPPkzE.s 			page 133


 7492 189c 00000000 		.4byte	.LBB86
 7493 18a0 50010000 		.4byte	.Ldebug_ranges0+0x150
 7494 18a4 01       		.byte	0x1
 7495 18a5 C001     		.2byte	0x1c0
 7496 18a7 C4180000 		.4byte	0x18c4
 7497 18ab 2D       		.uleb128 0x2d
 7498 18ac DE110000 		.4byte	0x11de
 7499 18b0 FE0A0000 		.4byte	.LLST68
 7500 18b4 30       		.uleb128 0x30
 7501 18b5 78010000 		.4byte	.Ldebug_ranges0+0x178
 7502 18b9 2F       		.uleb128 0x2f
 7503 18ba E7110000 		.4byte	0x11e7
 7504 18be 1C0B0000 		.4byte	.LLST69
 7505 18c2 00       		.byte	0
 7506 18c3 00       		.byte	0
 7507 18c4 33       		.uleb128 0x33
 7508 18c5 3F120000 		.4byte	0x123f
 7509 18c9 20000000 		.4byte	.LBB92
 7510 18cd A0010000 		.4byte	.Ldebug_ranges0+0x1a0
 7511 18d1 01       		.byte	0x1
 7512 18d2 CD01     		.2byte	0x1cd
 7513 18d4 2D       		.uleb128 0x2d
 7514 18d5 59120000 		.4byte	0x1259
 7515 18d9 3A0B0000 		.4byte	.LLST70
 7516 18dd 2D       		.uleb128 0x2d
 7517 18de 4D120000 		.4byte	0x124d
 7518 18e2 6C0B0000 		.4byte	.LLST71
 7519 18e6 30       		.uleb128 0x30
 7520 18e7 B8010000 		.4byte	.Ldebug_ranges0+0x1b8
 7521 18eb 2F       		.uleb128 0x2f
 7522 18ec 65120000 		.4byte	0x1265
 7523 18f0 8A0B0000 		.4byte	.LLST72
 7524 18f4 00       		.byte	0
 7525 18f5 00       		.byte	0
 7526 18f6 00       		.byte	0
 7527 18f7 36       		.uleb128 0x36
 7528 18f8 01       		.byte	0x1
 7529 18f9 CD030000 		.4byte	.LASF269
 7530 18fd 01       		.byte	0x1
 7531 18fe D301     		.2byte	0x1d3
 7532 1900 01       		.byte	0x1
 7533 1901 29000000 		.4byte	0x29
 7534 1905 00000000 		.4byte	.LFB15
 7535 1909 78000000 		.4byte	.LFE15
 7536 190d A90B0000 		.4byte	.LLST73
 7537 1911 C8190000 		.4byte	0x19c8
 7538 1915 26       		.uleb128 0x26
 7539 1916 7300     		.ascii	"s\000"
 7540 1918 01       		.byte	0x1
 7541 1919 D301     		.2byte	0x1d3
 7542 191b 29000000 		.4byte	0x29
 7543 191f D50B0000 		.4byte	.LLST74
 7544 1923 28       		.uleb128 0x28
 7545 1924 D7090000 		.4byte	.LASF258
 7546 1928 01       		.byte	0x1
 7547 1929 D301     		.2byte	0x1d3
 7548 192b 37180000 		.4byte	0x1837
ARM GAS  /var/folders/5n/p_75w94d66l9ssrldxqdhh700000gn/T//cciPPkzE.s 			page 134


 7549 192f E80B0000 		.4byte	.LLST75
 7550 1933 28       		.uleb128 0x28
 7551 1934 A1020000 		.4byte	.LASF259
 7552 1938 01       		.byte	0x1
 7553 1939 D301     		.2byte	0x1d3
 7554 193b CD040000 		.4byte	0x4cd
 7555 193f 060C0000 		.4byte	.LLST76
 7556 1943 2A       		.uleb128 0x2a
 7557 1944 CA060000 		.4byte	.LASF228
 7558 1948 01       		.byte	0x1
 7559 1949 D501     		.2byte	0x1d5
 7560 194b C1110000 		.4byte	0x11c1
 7561 194f 01       		.byte	0x1
 7562 1950 54       		.byte	0x54
 7563 1951 29       		.uleb128 0x29
 7564 1952 65727200 		.ascii	"err\000"
 7565 1956 01       		.byte	0x1
 7566 1957 D601     		.2byte	0x1d6
 7567 1959 33060000 		.4byte	0x633
 7568 195d 240C0000 		.4byte	.LLST77
 7569 1961 27       		.uleb128 0x27
 7570 1962 D1080000 		.4byte	.LASF267
 7571 1966 01       		.byte	0x1
 7572 1967 D701     		.2byte	0x1d7
 7573 1969 42180000 		.4byte	0x1842
 7574 196d 420C0000 		.4byte	.LLST78
 7575 1971 37       		.uleb128 0x37
 7576 1972 CD110000 		.4byte	0x11cd
 7577 1976 02000000 		.4byte	.LBB98
 7578 197a D0010000 		.4byte	.Ldebug_ranges0+0x1d0
 7579 197e 01       		.byte	0x1
 7580 197f D901     		.2byte	0x1d9
 7581 1981 9E190000 		.4byte	0x199e
 7582 1985 2D       		.uleb128 0x2d
 7583 1986 DE110000 		.4byte	0x11de
 7584 198a D50B0000 		.4byte	.LLST74
 7585 198e 30       		.uleb128 0x30
 7586 198f F0010000 		.4byte	.Ldebug_ranges0+0x1f0
 7587 1993 2F       		.uleb128 0x2f
 7588 1994 E7110000 		.4byte	0x11e7
 7589 1998 550C0000 		.4byte	.LLST80
 7590 199c 00       		.byte	0
 7591 199d 00       		.byte	0
 7592 199e 2E       		.uleb128 0x2e
 7593 199f 24000000 		.4byte	.LBB103
 7594 19a3 3C000000 		.4byte	.LBE103
 7595 19a7 2A       		.uleb128 0x2a
 7596 19a8 59050000 		.4byte	.LASF270
 7597 19ac 01       		.byte	0x1
 7598 19ad E801     		.2byte	0x1e8
 7599 19af FE040000 		.4byte	0x4fe
 7600 19b3 02       		.byte	0x2
 7601 19b4 91       		.byte	0x91
 7602 19b5 6C       		.sleb128 -20
 7603 19b6 27       		.uleb128 0x27
 7604 19b7 3C080000 		.4byte	.LASF145
 7605 19bb 01       		.byte	0x1
ARM GAS  /var/folders/5n/p_75w94d66l9ssrldxqdhh700000gn/T//cciPPkzE.s 			page 135


 7606 19bc E901     		.2byte	0x1e9
 7607 19be B7040000 		.4byte	0x4b7
 7608 19c2 730C0000 		.4byte	.LLST81
 7609 19c6 00       		.byte	0
 7610 19c7 00       		.byte	0
 7611 19c8 36       		.uleb128 0x36
 7612 19c9 01       		.byte	0x1
 7613 19ca BB050000 		.4byte	.LASF271
 7614 19ce 01       		.byte	0x1
 7615 19cf 0902     		.2byte	0x209
 7616 19d1 01       		.byte	0x1
 7617 19d2 29000000 		.4byte	0x29
 7618 19d6 00000000 		.4byte	.LFB16
 7619 19da 54000000 		.4byte	.LFE16
 7620 19de 870C0000 		.4byte	.LLST82
 7621 19e2 4C1A0000 		.4byte	0x1a4c
 7622 19e6 26       		.uleb128 0x26
 7623 19e7 7300     		.ascii	"s\000"
 7624 19e9 01       		.byte	0x1
 7625 19ea 0902     		.2byte	0x209
 7626 19ec 29000000 		.4byte	0x29
 7627 19f0 A70C0000 		.4byte	.LLST83
 7628 19f4 28       		.uleb128 0x28
 7629 19f5 44020000 		.4byte	.LASF272
 7630 19f9 01       		.byte	0x1
 7631 19fa 0902     		.2byte	0x209
 7632 19fc 29000000 		.4byte	0x29
 7633 1a00 C50C0000 		.4byte	.LLST84
 7634 1a04 2A       		.uleb128 0x2a
 7635 1a05 CA060000 		.4byte	.LASF228
 7636 1a09 01       		.byte	0x1
 7637 1a0a 0B02     		.2byte	0x20b
 7638 1a0c C1110000 		.4byte	0x11c1
 7639 1a10 01       		.byte	0x1
 7640 1a11 54       		.byte	0x54
 7641 1a12 29       		.uleb128 0x29
 7642 1a13 65727200 		.ascii	"err\000"
 7643 1a17 01       		.byte	0x1
 7644 1a18 0C02     		.2byte	0x20c
 7645 1a1a 33060000 		.4byte	0x633
 7646 1a1e E30C0000 		.4byte	.LLST85
 7647 1a22 33       		.uleb128 0x33
 7648 1a23 CD110000 		.4byte	0x11cd
 7649 1a27 00000000 		.4byte	.LBB105
 7650 1a2b 10020000 		.4byte	.Ldebug_ranges0+0x210
 7651 1a2f 01       		.byte	0x1
 7652 1a30 1002     		.2byte	0x210
 7653 1a32 2D       		.uleb128 0x2d
 7654 1a33 DE110000 		.4byte	0x11de
 7655 1a37 010D0000 		.4byte	.LLST86
 7656 1a3b 30       		.uleb128 0x30
 7657 1a3c 30020000 		.4byte	.Ldebug_ranges0+0x230
 7658 1a40 2F       		.uleb128 0x2f
 7659 1a41 E7110000 		.4byte	0x11e7
 7660 1a45 1F0D0000 		.4byte	.LLST87
 7661 1a49 00       		.byte	0
 7662 1a4a 00       		.byte	0
ARM GAS  /var/folders/5n/p_75w94d66l9ssrldxqdhh700000gn/T//cciPPkzE.s 			page 136


 7663 1a4b 00       		.byte	0
 7664 1a4c 36       		.uleb128 0x36
 7665 1a4d 01       		.byte	0x1
 7666 1a4e 18060000 		.4byte	.LASF273
 7667 1a52 01       		.byte	0x1
 7668 1a53 2502     		.2byte	0x225
 7669 1a55 01       		.byte	0x1
 7670 1a56 29000000 		.4byte	0x29
 7671 1a5a 00000000 		.4byte	.LFB17
 7672 1a5e 14020000 		.4byte	.LFE17
 7673 1a62 3D0D0000 		.4byte	.LLST88
 7674 1a66 BA1B0000 		.4byte	0x1bba
 7675 1a6a 26       		.uleb128 0x26
 7676 1a6b 7300     		.ascii	"s\000"
 7677 1a6d 01       		.byte	0x1
 7678 1a6e 2502     		.2byte	0x225
 7679 1a70 29000000 		.4byte	0x29
 7680 1a74 6A0D0000 		.4byte	.LLST89
 7681 1a78 26       		.uleb128 0x26
 7682 1a79 6D656D00 		.ascii	"mem\000"
 7683 1a7d 01       		.byte	0x1
 7684 1a7e 2502     		.2byte	0x225
 7685 1a80 B2020000 		.4byte	0x2b2
 7686 1a84 7D0D0000 		.4byte	.LLST90
 7687 1a88 26       		.uleb128 0x26
 7688 1a89 6C656E00 		.ascii	"len\000"
 7689 1a8d 01       		.byte	0x1
 7690 1a8e 2502     		.2byte	0x225
 7691 1a90 30000000 		.4byte	0x30
 7692 1a94 9D0D0000 		.4byte	.LLST91
 7693 1a98 28       		.uleb128 0x28
 7694 1a99 C7030000 		.4byte	.LASF101
 7695 1a9d 01       		.byte	0x1
 7696 1a9e 2502     		.2byte	0x225
 7697 1aa0 29000000 		.4byte	0x29
 7698 1aa4 EC0D0000 		.4byte	.LLST92
 7699 1aa8 32       		.uleb128 0x32
 7700 1aa9 CB000000 		.4byte	.LASF274
 7701 1aad 01       		.byte	0x1
 7702 1aae 2602     		.2byte	0x226
 7703 1ab0 36160000 		.4byte	0x1636
 7704 1ab4 02       		.byte	0x2
 7705 1ab5 91       		.byte	0x91
 7706 1ab6 00       		.sleb128 0
 7707 1ab7 32       		.uleb128 0x32
 7708 1ab8 64070000 		.4byte	.LASF275
 7709 1abc 01       		.byte	0x1
 7710 1abd 2602     		.2byte	0x226
 7711 1abf C7110000 		.4byte	0x11c7
 7712 1ac3 02       		.byte	0x2
 7713 1ac4 91       		.byte	0x91
 7714 1ac5 04       		.sleb128 4
 7715 1ac6 2A       		.uleb128 0x2a
 7716 1ac7 CA060000 		.4byte	.LASF228
 7717 1acb 01       		.byte	0x1
 7718 1acc 2802     		.2byte	0x228
 7719 1ace C1110000 		.4byte	0x11c1
ARM GAS  /var/folders/5n/p_75w94d66l9ssrldxqdhh700000gn/T//cciPPkzE.s 			page 137


 7720 1ad2 01       		.byte	0x1
 7721 1ad3 55       		.byte	0x55
 7722 1ad4 34       		.uleb128 0x34
 7723 1ad5 62756600 		.ascii	"buf\000"
 7724 1ad9 01       		.byte	0x1
 7725 1ada 2902     		.2byte	0x229
 7726 1adc B2020000 		.4byte	0x2b2
 7727 1ae0 02       		.byte	0x2
 7728 1ae1 91       		.byte	0x91
 7729 1ae2 4C       		.sleb128 -52
 7730 1ae3 29       		.uleb128 0x29
 7731 1ae4 7000     		.ascii	"p\000"
 7732 1ae6 01       		.byte	0x1
 7733 1ae7 2A02     		.2byte	0x22a
 7734 1ae9 AD060000 		.4byte	0x6ad
 7735 1aed 0C0E0000 		.4byte	.LLST93
 7736 1af1 27       		.uleb128 0x27
 7737 1af2 AD060000 		.4byte	.LASF276
 7738 1af6 01       		.byte	0x1
 7739 1af7 2B02     		.2byte	0x22b
 7740 1af9 B7040000 		.4byte	0x4b7
 7741 1afd 350E0000 		.4byte	.LLST94
 7742 1b01 27       		.uleb128 0x27
 7743 1b02 B5020000 		.4byte	.LASF277
 7744 1b06 01       		.byte	0x1
 7745 1b07 2B02     		.2byte	0x22b
 7746 1b09 B7040000 		.4byte	0x4b7
 7747 1b0d 7F0E0000 		.4byte	.LLST95
 7748 1b11 29       		.uleb128 0x29
 7749 1b12 6F666600 		.ascii	"off\000"
 7750 1b16 01       		.byte	0x1
 7751 1b17 2C02     		.2byte	0x22c
 7752 1b19 29000000 		.4byte	0x29
 7753 1b1d BE0E0000 		.4byte	.LLST96
 7754 1b21 27       		.uleb128 0x27
 7755 1b22 93060000 		.4byte	.LASF76
 7756 1b26 01       		.byte	0x1
 7757 1b27 2D02     		.2byte	0x22d
 7758 1b29 9F0D0000 		.4byte	0xd9f
 7759 1b2d FF0E0000 		.4byte	.LLST97
 7760 1b31 27       		.uleb128 0x27
 7761 1b32 E4090000 		.4byte	.LASF103
 7762 1b36 01       		.byte	0x1
 7763 1b37 2E02     		.2byte	0x22e
 7764 1b39 B7040000 		.4byte	0x4b7
 7765 1b3d 1F0F0000 		.4byte	.LLST98
 7766 1b41 27       		.uleb128 0x27
 7767 1b42 1D070000 		.4byte	.LASF278
 7768 1b46 01       		.byte	0x1
 7769 1b47 2F02     		.2byte	0x22f
 7770 1b49 A1040000 		.4byte	0x4a1
 7771 1b4d 3F0F0000 		.4byte	.LLST99
 7772 1b51 29       		.uleb128 0x29
 7773 1b52 65727200 		.ascii	"err\000"
 7774 1b56 01       		.byte	0x1
 7775 1b57 3002     		.2byte	0x230
 7776 1b59 33060000 		.4byte	0x633
ARM GAS  /var/folders/5n/p_75w94d66l9ssrldxqdhh700000gn/T//cciPPkzE.s 			page 138


 7777 1b5d A70F0000 		.4byte	.LLST100
 7778 1b61 37       		.uleb128 0x37
 7779 1b62 CD110000 		.4byte	0x11cd
 7780 1b66 08000000 		.4byte	.LBB111
 7781 1b6a 50020000 		.4byte	.Ldebug_ranges0+0x250
 7782 1b6e 01       		.byte	0x1
 7783 1b6f 3302     		.2byte	0x233
 7784 1b71 8E1B0000 		.4byte	0x1b8e
 7785 1b75 2D       		.uleb128 0x2d
 7786 1b76 DE110000 		.4byte	0x11de
 7787 1b7a DB0F0000 		.4byte	.LLST101
 7788 1b7e 30       		.uleb128 0x30
 7789 1b7f 70020000 		.4byte	.Ldebug_ranges0+0x270
 7790 1b83 2F       		.uleb128 0x2f
 7791 1b84 E7110000 		.4byte	0x11e7
 7792 1b88 EE0F0000 		.4byte	.LLST102
 7793 1b8c 00       		.byte	0
 7794 1b8d 00       		.byte	0
 7795 1b8e 30       		.uleb128 0x30
 7796 1b8f 90020000 		.4byte	.Ldebug_ranges0+0x290
 7797 1b93 2A       		.uleb128 0x2a
 7798 1b94 E1070000 		.4byte	.LASF279
 7799 1b98 01       		.byte	0x1
 7800 1b99 9302     		.2byte	0x293
 7801 1b9b FE040000 		.4byte	0x4fe
 7802 1b9f 02       		.byte	0x2
 7803 1ba0 91       		.byte	0x91
 7804 1ba1 50       		.sleb128 -48
 7805 1ba2 30       		.uleb128 0x30
 7806 1ba3 B0020000 		.4byte	.Ldebug_ranges0+0x2b0
 7807 1ba7 34       		.uleb128 0x34
 7808 1ba8 73696E00 		.ascii	"sin\000"
 7809 1bac 01       		.byte	0x1
 7810 1bad 9502     		.2byte	0x295
 7811 1baf 24050000 		.4byte	0x524
 7812 1bb3 03       		.byte	0x3
 7813 1bb4 91       		.byte	0x91
 7814 1bb5 BC7F     		.sleb128 -68
 7815 1bb7 00       		.byte	0
 7816 1bb8 00       		.byte	0
 7817 1bb9 00       		.byte	0
 7818 1bba 36       		.uleb128 0x36
 7819 1bbb 01       		.byte	0x1
 7820 1bbc C7080000 		.4byte	.LASF280
 7821 1bc0 01       		.byte	0x1
 7822 1bc1 DE02     		.2byte	0x2de
 7823 1bc3 01       		.byte	0x1
 7824 1bc4 29000000 		.4byte	0x29
 7825 1bc8 00000000 		.4byte	.LFB18
 7826 1bcc 14000000 		.4byte	.LFE18
 7827 1bd0 0C100000 		.4byte	.LLST103
 7828 1bd4 071C0000 		.4byte	0x1c07
 7829 1bd8 26       		.uleb128 0x26
 7830 1bd9 7300     		.ascii	"s\000"
 7831 1bdb 01       		.byte	0x1
 7832 1bdc DE02     		.2byte	0x2de
 7833 1bde 29000000 		.4byte	0x29
ARM GAS  /var/folders/5n/p_75w94d66l9ssrldxqdhh700000gn/T//cciPPkzE.s 			page 139


 7834 1be2 38100000 		.4byte	.LLST104
 7835 1be6 26       		.uleb128 0x26
 7836 1be7 6D656D00 		.ascii	"mem\000"
 7837 1beb 01       		.byte	0x1
 7838 1bec DE02     		.2byte	0x2de
 7839 1bee B2020000 		.4byte	0x2b2
 7840 1bf2 4B100000 		.4byte	.LLST105
 7841 1bf6 26       		.uleb128 0x26
 7842 1bf7 6C656E00 		.ascii	"len\000"
 7843 1bfb 01       		.byte	0x1
 7844 1bfc DE02     		.2byte	0x2de
 7845 1bfe 30000000 		.4byte	0x30
 7846 1c02 5E100000 		.4byte	.LLST106
 7847 1c06 00       		.byte	0
 7848 1c07 36       		.uleb128 0x36
 7849 1c08 01       		.byte	0x1
 7850 1c09 B6090000 		.4byte	.LASF281
 7851 1c0d 01       		.byte	0x1
 7852 1c0e E402     		.2byte	0x2e4
 7853 1c10 01       		.byte	0x1
 7854 1c11 29000000 		.4byte	0x29
 7855 1c15 00000000 		.4byte	.LFB19
 7856 1c19 12000000 		.4byte	.LFE19
 7857 1c1d 71100000 		.4byte	.LLST107
 7858 1c21 641C0000 		.4byte	0x1c64
 7859 1c25 26       		.uleb128 0x26
 7860 1c26 7300     		.ascii	"s\000"
 7861 1c28 01       		.byte	0x1
 7862 1c29 E402     		.2byte	0x2e4
 7863 1c2b 29000000 		.4byte	0x29
 7864 1c2f 9D100000 		.4byte	.LLST108
 7865 1c33 26       		.uleb128 0x26
 7866 1c34 6D656D00 		.ascii	"mem\000"
 7867 1c38 01       		.byte	0x1
 7868 1c39 E402     		.2byte	0x2e4
 7869 1c3b B2020000 		.4byte	0x2b2
 7870 1c3f B0100000 		.4byte	.LLST109
 7871 1c43 26       		.uleb128 0x26
 7872 1c44 6C656E00 		.ascii	"len\000"
 7873 1c48 01       		.byte	0x1
 7874 1c49 E402     		.2byte	0x2e4
 7875 1c4b 30000000 		.4byte	0x30
 7876 1c4f C3100000 		.4byte	.LLST110
 7877 1c53 28       		.uleb128 0x28
 7878 1c54 C7030000 		.4byte	.LASF101
 7879 1c58 01       		.byte	0x1
 7880 1c59 E402     		.2byte	0x2e4
 7881 1c5b 29000000 		.4byte	0x29
 7882 1c5f D6100000 		.4byte	.LLST111
 7883 1c63 00       		.byte	0
 7884 1c64 36       		.uleb128 0x36
 7885 1c65 01       		.byte	0x1
 7886 1c66 CB090000 		.4byte	.LASF282
 7887 1c6a 01       		.byte	0x1
 7888 1c6b 1403     		.2byte	0x314
 7889 1c6d 01       		.byte	0x1
 7890 1c6e 29000000 		.4byte	0x29
ARM GAS  /var/folders/5n/p_75w94d66l9ssrldxqdhh700000gn/T//cciPPkzE.s 			page 140


 7891 1c72 00000000 		.4byte	.LFB21
 7892 1c76 F0000000 		.4byte	.LFE21
 7893 1c7a E9100000 		.4byte	.LLST112
 7894 1c7e 641D0000 		.4byte	0x1d64
 7895 1c82 26       		.uleb128 0x26
 7896 1c83 7300     		.ascii	"s\000"
 7897 1c85 01       		.byte	0x1
 7898 1c86 1403     		.2byte	0x314
 7899 1c88 29000000 		.4byte	0x29
 7900 1c8c 15110000 		.4byte	.LLST113
 7901 1c90 28       		.uleb128 0x28
 7902 1c91 9A0C0000 		.4byte	.LASF239
 7903 1c95 01       		.byte	0x1
 7904 1c96 1403     		.2byte	0x314
 7905 1c98 E20F0000 		.4byte	0xfe2
 7906 1c9c 49110000 		.4byte	.LLST114
 7907 1ca0 28       		.uleb128 0x28
 7908 1ca1 20080000 		.4byte	.LASF283
 7909 1ca5 01       		.byte	0x1
 7910 1ca6 1403     		.2byte	0x314
 7911 1ca8 30000000 		.4byte	0x30
 7912 1cac 67110000 		.4byte	.LLST115
 7913 1cb0 28       		.uleb128 0x28
 7914 1cb1 C7030000 		.4byte	.LASF101
 7915 1cb5 01       		.byte	0x1
 7916 1cb6 1403     		.2byte	0x314
 7917 1cb8 29000000 		.4byte	0x29
 7918 1cbc BC110000 		.4byte	.LLST116
 7919 1cc0 38       		.uleb128 0x38
 7920 1cc1 746F00   		.ascii	"to\000"
 7921 1cc4 01       		.byte	0x1
 7922 1cc5 1503     		.2byte	0x315
 7923 1cc7 37180000 		.4byte	0x1837
 7924 1ccb 02       		.byte	0x2
 7925 1ccc 91       		.byte	0x91
 7926 1ccd 00       		.sleb128 0
 7927 1cce 32       		.uleb128 0x32
 7928 1ccf B80C0000 		.4byte	.LASF284
 7929 1cd3 01       		.byte	0x1
 7930 1cd4 1503     		.2byte	0x315
 7931 1cd6 CD040000 		.4byte	0x4cd
 7932 1cda 02       		.byte	0x2
 7933 1cdb 91       		.byte	0x91
 7934 1cdc 04       		.sleb128 4
 7935 1cdd 2A       		.uleb128 0x2a
 7936 1cde CA060000 		.4byte	.LASF228
 7937 1ce2 01       		.byte	0x1
 7938 1ce3 1703     		.2byte	0x317
 7939 1ce5 C1110000 		.4byte	0x11c1
 7940 1ce9 01       		.byte	0x1
 7941 1cea 58       		.byte	0x58
 7942 1ceb 29       		.uleb128 0x29
 7943 1cec 65727200 		.ascii	"err\000"
 7944 1cf0 01       		.byte	0x1
 7945 1cf1 1803     		.2byte	0x318
 7946 1cf3 33060000 		.4byte	0x633
 7947 1cf7 F0110000 		.4byte	.LLST117
ARM GAS  /var/folders/5n/p_75w94d66l9ssrldxqdhh700000gn/T//cciPPkzE.s 			page 141


 7948 1cfb 27       		.uleb128 0x27
 7949 1cfc 2D090000 		.4byte	.LASF285
 7950 1d00 01       		.byte	0x1
 7951 1d01 1903     		.2byte	0x319
 7952 1d03 B7040000 		.4byte	0x4b7
 7953 1d07 24120000 		.4byte	.LLST118
 7954 1d0b 27       		.uleb128 0x27
 7955 1d0c 7C070000 		.4byte	.LASF286
 7956 1d10 01       		.byte	0x1
 7957 1d11 1A03     		.2byte	0x31a
 7958 1d13 42180000 		.4byte	0x1842
 7959 1d17 4D120000 		.4byte	.LLST119
 7960 1d1b 27       		.uleb128 0x27
 7961 1d1c 3C080000 		.4byte	.LASF145
 7962 1d20 01       		.byte	0x1
 7963 1d21 1B03     		.2byte	0x31b
 7964 1d23 B7040000 		.4byte	0x4b7
 7965 1d27 61120000 		.4byte	.LLST120
 7966 1d2b 34       		.uleb128 0x34
 7967 1d2c 62756600 		.ascii	"buf\000"
 7968 1d30 01       		.byte	0x1
 7969 1d31 1D03     		.2byte	0x31d
 7970 1d33 B3060000 		.4byte	0x6b3
 7971 1d37 02       		.byte	0x2
 7972 1d38 91       		.byte	0x91
 7973 1d39 50       		.sleb128 -48
 7974 1d3a 33       		.uleb128 0x33
 7975 1d3b CD110000 		.4byte	0x11cd
 7976 1d3f 06000000 		.4byte	.LBB123
 7977 1d43 D0020000 		.4byte	.Ldebug_ranges0+0x2d0
 7978 1d47 01       		.byte	0x1
 7979 1d48 2003     		.2byte	0x320
 7980 1d4a 2D       		.uleb128 0x2d
 7981 1d4b DE110000 		.4byte	0x11de
 7982 1d4f 80120000 		.4byte	.LLST121
 7983 1d53 30       		.uleb128 0x30
 7984 1d54 F0020000 		.4byte	.Ldebug_ranges0+0x2f0
 7985 1d58 2F       		.uleb128 0x2f
 7986 1d59 E7110000 		.4byte	0x11e7
 7987 1d5d B4120000 		.4byte	.LLST122
 7988 1d61 00       		.byte	0
 7989 1d62 00       		.byte	0
 7990 1d63 00       		.byte	0
 7991 1d64 36       		.uleb128 0x36
 7992 1d65 01       		.byte	0x1
 7993 1d66 8E020000 		.4byte	.LASF287
 7994 1d6a 01       		.byte	0x1
 7995 1d6b EA02     		.2byte	0x2ea
 7996 1d6d 01       		.byte	0x1
 7997 1d6e 29000000 		.4byte	0x29
 7998 1d72 00000000 		.4byte	.LFB20
 7999 1d76 A0000000 		.4byte	.LFE20
 8000 1d7a D2120000 		.4byte	.LLST123
 8001 1d7e 181E0000 		.4byte	0x1e18
 8002 1d82 26       		.uleb128 0x26
 8003 1d83 7300     		.ascii	"s\000"
 8004 1d85 01       		.byte	0x1
ARM GAS  /var/folders/5n/p_75w94d66l9ssrldxqdhh700000gn/T//cciPPkzE.s 			page 142


 8005 1d86 EA02     		.2byte	0x2ea
 8006 1d88 29000000 		.4byte	0x29
 8007 1d8c FE120000 		.4byte	.LLST124
 8008 1d90 28       		.uleb128 0x28
 8009 1d91 9A0C0000 		.4byte	.LASF239
 8010 1d95 01       		.byte	0x1
 8011 1d96 EA02     		.2byte	0x2ea
 8012 1d98 E20F0000 		.4byte	0xfe2
 8013 1d9c 3D130000 		.4byte	.LLST125
 8014 1da0 28       		.uleb128 0x28
 8015 1da1 20080000 		.4byte	.LASF283
 8016 1da5 01       		.byte	0x1
 8017 1da6 EA02     		.2byte	0x2ea
 8018 1da8 30000000 		.4byte	0x30
 8019 1dac 7C130000 		.4byte	.LLST126
 8020 1db0 28       		.uleb128 0x28
 8021 1db1 C7030000 		.4byte	.LASF101
 8022 1db5 01       		.byte	0x1
 8023 1db6 EA02     		.2byte	0x2ea
 8024 1db8 29000000 		.4byte	0x29
 8025 1dbc 9A130000 		.4byte	.LLST127
 8026 1dc0 2A       		.uleb128 0x2a
 8027 1dc1 CA060000 		.4byte	.LASF228
 8028 1dc5 01       		.byte	0x1
 8029 1dc6 EC02     		.2byte	0x2ec
 8030 1dc8 C1110000 		.4byte	0x11c1
 8031 1dcc 01       		.byte	0x1
 8032 1dcd 58       		.byte	0x58
 8033 1dce 29       		.uleb128 0x29
 8034 1dcf 65727200 		.ascii	"err\000"
 8035 1dd3 01       		.byte	0x1
 8036 1dd4 ED02     		.2byte	0x2ed
 8037 1dd6 33060000 		.4byte	0x633
 8038 1dda CE130000 		.4byte	.LLST128
 8039 1dde 27       		.uleb128 0x27
 8040 1ddf DD010000 		.4byte	.LASF288
 8041 1de3 01       		.byte	0x1
 8042 1de4 EE02     		.2byte	0x2ee
 8043 1de6 A1040000 		.4byte	0x4a1
 8044 1dea E1130000 		.4byte	.LLST129
 8045 1dee 33       		.uleb128 0x33
 8046 1def CD110000 		.4byte	0x11cd
 8047 1df3 04000000 		.4byte	.LBB129
 8048 1df7 10030000 		.4byte	.Ldebug_ranges0+0x310
 8049 1dfb 01       		.byte	0x1
 8050 1dfc F302     		.2byte	0x2f3
 8051 1dfe 2D       		.uleb128 0x2d
 8052 1dff DE110000 		.4byte	0x11de
 8053 1e03 F9130000 		.4byte	.LLST130
 8054 1e07 30       		.uleb128 0x30
 8055 1e08 30030000 		.4byte	.Ldebug_ranges0+0x330
 8056 1e0c 2F       		.uleb128 0x2f
 8057 1e0d E7110000 		.4byte	0x11e7
 8058 1e11 2D140000 		.4byte	.LLST131
 8059 1e15 00       		.byte	0
 8060 1e16 00       		.byte	0
 8061 1e17 00       		.byte	0
ARM GAS  /var/folders/5n/p_75w94d66l9ssrldxqdhh700000gn/T//cciPPkzE.s 			page 143


 8062 1e18 36       		.uleb128 0x36
 8063 1e19 01       		.byte	0x1
 8064 1e1a 44070000 		.4byte	.LASF289
 8065 1e1e 01       		.byte	0x1
 8066 1e1f A703     		.2byte	0x3a7
 8067 1e21 01       		.byte	0x1
 8068 1e22 29000000 		.4byte	0x29
 8069 1e26 00000000 		.4byte	.LFB22
 8070 1e2a A8000000 		.4byte	.LFE22
 8071 1e2e 4B140000 		.4byte	.LLST132
 8072 1e32 AB1E0000 		.4byte	0x1eab
 8073 1e36 28       		.uleb128 0x28
 8074 1e37 19020000 		.4byte	.LASF290
 8075 1e3b 01       		.byte	0x1
 8076 1e3c A703     		.2byte	0x3a7
 8077 1e3e 29000000 		.4byte	0x29
 8078 1e42 6B140000 		.4byte	.LLST133
 8079 1e46 28       		.uleb128 0x28
 8080 1e47 FA000000 		.4byte	.LASF100
 8081 1e4b 01       		.byte	0x1
 8082 1e4c A703     		.2byte	0x3a7
 8083 1e4e 29000000 		.4byte	0x29
 8084 1e52 9F140000 		.4byte	.LLST134
 8085 1e56 28       		.uleb128 0x28
 8086 1e57 E4050000 		.4byte	.LASF185
 8087 1e5b 01       		.byte	0x1
 8088 1e5c A703     		.2byte	0x3a7
 8089 1e5e 29000000 		.4byte	0x29
 8090 1e62 D3140000 		.4byte	.LLST135
 8091 1e66 27       		.uleb128 0x27
 8092 1e67 19010000 		.4byte	.LASF187
 8093 1e6b 01       		.byte	0x1
 8094 1e6c A903     		.2byte	0x3a9
 8095 1e6e C7070000 		.4byte	0x7c7
 8096 1e72 07150000 		.4byte	.LLST136
 8097 1e76 39       		.uleb128 0x39
 8098 1e77 6900     		.ascii	"i\000"
 8099 1e79 01       		.byte	0x1
 8100 1e7a AA03     		.2byte	0x3aa
 8101 1e7c 29000000 		.4byte	0x29
 8102 1e80 33       		.uleb128 0x33
 8103 1e81 0E120000 		.4byte	0x120e
 8104 1e85 32000000 		.4byte	.LBB135
 8105 1e89 50030000 		.4byte	.Ldebug_ranges0+0x350
 8106 1e8d 01       		.byte	0x1
 8107 1e8e D103     		.2byte	0x3d1
 8108 1e90 3A       		.uleb128 0x3a
 8109 1e91 2A120000 		.4byte	0x122a
 8110 1e95 3A       		.uleb128 0x3a
 8111 1e96 1F120000 		.4byte	0x121f
 8112 1e9a 30       		.uleb128 0x30
 8113 1e9b 68030000 		.4byte	.Ldebug_ranges0+0x368
 8114 1e9f 2F       		.uleb128 0x2f
 8115 1ea0 35120000 		.4byte	0x1235
 8116 1ea4 3C150000 		.4byte	.LLST137
 8117 1ea8 00       		.byte	0
 8118 1ea9 00       		.byte	0
ARM GAS  /var/folders/5n/p_75w94d66l9ssrldxqdhh700000gn/T//cciPPkzE.s 			page 144


 8119 1eaa 00       		.byte	0
 8120 1eab 3B       		.uleb128 0x3b
 8121 1eac 01       		.byte	0x1
 8122 1ead C0090000 		.4byte	.LASF291
 8123 1eb1 01       		.byte	0x1
 8124 1eb2 DF03     		.2byte	0x3df
 8125 1eb4 01       		.byte	0x1
 8126 1eb5 29000000 		.4byte	0x29
 8127 1eb9 00000000 		.4byte	.LFB23
 8128 1ebd 06000000 		.4byte	.LFE23
 8129 1ec1 02       		.byte	0x2
 8130 1ec2 7D       		.byte	0x7d
 8131 1ec3 00       		.sleb128 0
 8132 1ec4 F71E0000 		.4byte	0x1ef7
 8133 1ec8 26       		.uleb128 0x26
 8134 1ec9 7300     		.ascii	"s\000"
 8135 1ecb 01       		.byte	0x1
 8136 1ecc DF03     		.2byte	0x3df
 8137 1ece 29000000 		.4byte	0x29
 8138 1ed2 5B150000 		.4byte	.LLST138
 8139 1ed6 28       		.uleb128 0x28
 8140 1ed7 9A0C0000 		.4byte	.LASF239
 8141 1edb 01       		.byte	0x1
 8142 1edc DF03     		.2byte	0x3df
 8143 1ede E20F0000 		.4byte	0xfe2
 8144 1ee2 6E150000 		.4byte	.LLST139
 8145 1ee6 28       		.uleb128 0x28
 8146 1ee7 20080000 		.4byte	.LASF283
 8147 1eeb 01       		.byte	0x1
 8148 1eec DF03     		.2byte	0x3df
 8149 1eee 30000000 		.4byte	0x30
 8150 1ef2 81150000 		.4byte	.LLST140
 8151 1ef6 00       		.byte	0
 8152 1ef7 36       		.uleb128 0x36
 8153 1ef8 01       		.byte	0x1
 8154 1ef9 4D050000 		.4byte	.LASF292
 8155 1efd 01       		.byte	0x1
 8156 1efe 3304     		.2byte	0x433
 8157 1f00 01       		.byte	0x1
 8158 1f01 29000000 		.4byte	0x29
 8159 1f05 00000000 		.4byte	.LFB25
 8160 1f09 F4020000 		.4byte	.LFE25
 8161 1f0d 94150000 		.4byte	.LLST141
 8162 1f11 5C200000 		.4byte	0x205c
 8163 1f15 28       		.uleb128 0x28
 8164 1f16 18080000 		.4byte	.LASF245
 8165 1f1a 01       		.byte	0x1
 8166 1f1b 3304     		.2byte	0x433
 8167 1f1d 29000000 		.4byte	0x29
 8168 1f21 C1150000 		.4byte	.LLST142
 8169 1f25 28       		.uleb128 0x28
 8170 1f26 62030000 		.4byte	.LASF223
 8171 1f2a 01       		.byte	0x1
 8172 1f2b 3304     		.2byte	0x433
 8173 1f2d 5A110000 		.4byte	0x115a
 8174 1f31 E1150000 		.4byte	.LLST143
 8175 1f35 28       		.uleb128 0x28
ARM GAS  /var/folders/5n/p_75w94d66l9ssrldxqdhh700000gn/T//cciPPkzE.s 			page 145


 8176 1f36 81090000 		.4byte	.LASF224
 8177 1f3a 01       		.byte	0x1
 8178 1f3b 3304     		.2byte	0x433
 8179 1f3d 5A110000 		.4byte	0x115a
 8180 1f41 4C160000 		.4byte	.LLST144
 8181 1f45 28       		.uleb128 0x28
 8182 1f46 05010000 		.4byte	.LASF225
 8183 1f4a 01       		.byte	0x1
 8184 1f4b 3304     		.2byte	0x433
 8185 1f4d 5A110000 		.4byte	0x115a
 8186 1f51 C2160000 		.4byte	.LLST145
 8187 1f55 32       		.uleb128 0x32
 8188 1f56 73060000 		.4byte	.LASF293
 8189 1f5a 01       		.byte	0x1
 8190 1f5b 3404     		.2byte	0x434
 8191 1f5d 5C200000 		.4byte	0x205c
 8192 1f61 02       		.byte	0x2
 8193 1f62 91       		.byte	0x91
 8194 1f63 00       		.sleb128 0
 8195 1f64 27       		.uleb128 0x27
 8196 1f65 B0030000 		.4byte	.LASF294
 8197 1f69 01       		.byte	0x1
 8198 1f6a 3604     		.2byte	0x436
 8199 1f6c CD040000 		.4byte	0x4cd
 8200 1f70 EB160000 		.4byte	.LLST146
 8201 1f74 27       		.uleb128 0x27
 8202 1f75 790C0000 		.4byte	.LASF252
 8203 1f79 01       		.byte	0x1
 8204 1f7a 3704     		.2byte	0x437
 8205 1f7c 29000000 		.4byte	0x29
 8206 1f80 49170000 		.4byte	.LLST147
 8207 1f84 2A       		.uleb128 0x2a
 8208 1f85 96090000 		.4byte	.LASF253
 8209 1f89 01       		.byte	0x1
 8210 1f8a 3804     		.2byte	0x438
 8211 1f8c FB050000 		.4byte	0x5fb
 8212 1f90 02       		.byte	0x2
 8213 1f91 91       		.byte	0x91
 8214 1f92 4C       		.sleb128 -52
 8215 1f93 2A       		.uleb128 0x2a
 8216 1f94 F7070000 		.4byte	.LASF254
 8217 1f98 01       		.byte	0x1
 8218 1f99 3804     		.2byte	0x438
 8219 1f9b FB050000 		.4byte	0x5fb
 8220 1f9f 02       		.byte	0x2
 8221 1fa0 91       		.byte	0x91
 8222 1fa1 50       		.sleb128 -48
 8223 1fa2 2A       		.uleb128 0x2a
 8224 1fa3 00000000 		.4byte	.LASF255
 8225 1fa7 01       		.byte	0x1
 8226 1fa8 3804     		.2byte	0x438
 8227 1faa FB050000 		.4byte	0x5fb
 8228 1fae 02       		.byte	0x2
 8229 1faf 91       		.byte	0x91
 8230 1fb0 54       		.sleb128 -44
 8231 1fb1 27       		.uleb128 0x27
 8232 1fb2 E5080000 		.4byte	.LASF295
ARM GAS  /var/folders/5n/p_75w94d66l9ssrldxqdhh700000gn/T//cciPPkzE.s 			page 146


 8233 1fb6 01       		.byte	0x1
 8234 1fb7 3904     		.2byte	0x439
 8235 1fb9 CD040000 		.4byte	0x4cd
 8236 1fbd B4170000 		.4byte	.LLST148
 8237 1fc1 2A       		.uleb128 0x2a
 8238 1fc2 A8080000 		.4byte	.LASF296
 8239 1fc6 01       		.byte	0x1
 8240 1fc7 3A04     		.2byte	0x43a
 8241 1fc9 E5100000 		.4byte	0x10e5
 8242 1fcd 03       		.byte	0x3
 8243 1fce 91       		.byte	0x91
 8244 1fcf B07F     		.sleb128 -80
 8245 1fd1 29       		.uleb128 0x29
 8246 1fd2 65727200 		.ascii	"err\000"
 8247 1fd6 01       		.byte	0x1
 8248 1fd7 3B04     		.2byte	0x43b
 8249 1fd9 33060000 		.4byte	0x633
 8250 1fdd C7170000 		.4byte	.LLST149
 8251 1fe1 29       		.uleb128 0x29
 8252 1fe2 6900     		.ascii	"i\000"
 8253 1fe4 01       		.byte	0x1
 8254 1fe5 3C04     		.2byte	0x43c
 8255 1fe7 29000000 		.4byte	0x29
 8256 1feb DA170000 		.4byte	.LLST150
 8257 1fef 3C       		.uleb128 0x3c
 8258 1ff0 C0010000 		.4byte	.LASF318
 8259 1ff4 01       		.byte	0x1
 8260 1ff5 BD04     		.2byte	0x4bd
 8261 1ff7 10020000 		.4byte	.L306
 8262 1ffb 3D       		.uleb128 0x3d
 8263 1ffc 80030000 		.4byte	.Ldebug_ranges0+0x380
 8264 2000 2D200000 		.4byte	0x202d
 8265 2004 2A       		.uleb128 0x2a
 8266 2005 CA060000 		.4byte	.LASF228
 8267 2009 01       		.byte	0x1
 8268 200a 7704     		.2byte	0x477
 8269 200c C1110000 		.4byte	0x11c1
 8270 2010 01       		.byte	0x1
 8271 2011 50       		.byte	0x50
 8272 2012 33       		.uleb128 0x33
 8273 2013 F3110000 		.4byte	0x11f3
 8274 2017 94000000 		.4byte	.LBB140
 8275 201b A0030000 		.4byte	.Ldebug_ranges0+0x3a0
 8276 201f 01       		.byte	0x1
 8277 2020 7704     		.2byte	0x477
 8278 2022 2D       		.uleb128 0x2d
 8279 2023 04120000 		.4byte	0x1204
 8280 2027 10180000 		.4byte	.LLST151
 8281 202b 00       		.byte	0
 8282 202c 00       		.byte	0
 8283 202d 30       		.uleb128 0x30
 8284 202e C0030000 		.4byte	.Ldebug_ranges0+0x3c0
 8285 2032 2A       		.uleb128 0x2a
 8286 2033 CA060000 		.4byte	.LASF228
 8287 2037 01       		.byte	0x1
 8288 2038 9704     		.2byte	0x497
 8289 203a C1110000 		.4byte	0x11c1
ARM GAS  /var/folders/5n/p_75w94d66l9ssrldxqdhh700000gn/T//cciPPkzE.s 			page 147


 8290 203e 01       		.byte	0x1
 8291 203f 5E       		.byte	0x5e
 8292 2040 33       		.uleb128 0x33
 8293 2041 F3110000 		.4byte	0x11f3
 8294 2045 4A010000 		.4byte	.LBB148
 8295 2049 E0030000 		.4byte	.Ldebug_ranges0+0x3e0
 8296 204d 01       		.byte	0x1
 8297 204e 9704     		.2byte	0x497
 8298 2050 2D       		.uleb128 0x2d
 8299 2051 04120000 		.4byte	0x1204
 8300 2055 2E180000 		.4byte	.LLST152
 8301 2059 00       		.byte	0
 8302 205a 00       		.byte	0
 8303 205b 00       		.byte	0
 8304 205c 09       		.uleb128 0x9
 8305 205d 04       		.byte	0x4
 8306 205e 07060000 		.4byte	0x607
 8307 2062 36       		.uleb128 0x36
 8308 2063 01       		.byte	0x1
 8309 2064 81030000 		.4byte	.LASF297
 8310 2068 01       		.byte	0x1
 8311 2069 4A05     		.2byte	0x54a
 8312 206b 01       		.byte	0x1
 8313 206c 29000000 		.4byte	0x29
 8314 2070 00000000 		.4byte	.LFB27
 8315 2074 74000000 		.4byte	.LFE27
 8316 2078 4C180000 		.4byte	.LLST153
 8317 207c 06210000 		.4byte	0x2106
 8318 2080 26       		.uleb128 0x26
 8319 2081 7300     		.ascii	"s\000"
 8320 2083 01       		.byte	0x1
 8321 2084 4A05     		.2byte	0x54a
 8322 2086 29000000 		.4byte	0x29
 8323 208a 6C180000 		.4byte	.LLST154
 8324 208e 26       		.uleb128 0x26
 8325 208f 686F7700 		.ascii	"how\000"
 8326 2093 01       		.byte	0x1
 8327 2094 4A05     		.2byte	0x54a
 8328 2096 29000000 		.4byte	0x29
 8329 209a 8A180000 		.4byte	.LLST155
 8330 209e 2A       		.uleb128 0x2a
 8331 209f CA060000 		.4byte	.LASF228
 8332 20a3 01       		.byte	0x1
 8333 20a4 4C05     		.2byte	0x54c
 8334 20a6 C1110000 		.4byte	0x11c1
 8335 20aa 01       		.byte	0x1
 8336 20ab 54       		.byte	0x54
 8337 20ac 29       		.uleb128 0x29
 8338 20ad 65727200 		.ascii	"err\000"
 8339 20b1 01       		.byte	0x1
 8340 20b2 4D05     		.2byte	0x54d
 8341 20b4 33060000 		.4byte	0x633
 8342 20b8 BE180000 		.4byte	.LLST156
 8343 20bc 27       		.uleb128 0x27
 8344 20bd 8A070000 		.4byte	.LASF298
 8345 20c1 01       		.byte	0x1
 8346 20c2 4E05     		.2byte	0x54e
ARM GAS  /var/folders/5n/p_75w94d66l9ssrldxqdhh700000gn/T//cciPPkzE.s 			page 148


 8347 20c4 A1040000 		.4byte	0x4a1
 8348 20c8 D1180000 		.4byte	.LLST157
 8349 20cc 27       		.uleb128 0x27
 8350 20cd 710C0000 		.4byte	.LASF299
 8351 20d1 01       		.byte	0x1
 8352 20d2 4E05     		.2byte	0x54e
 8353 20d4 A1040000 		.4byte	0x4a1
 8354 20d8 FC180000 		.4byte	.LLST158
 8355 20dc 33       		.uleb128 0x33
 8356 20dd CD110000 		.4byte	0x11cd
 8357 20e1 00000000 		.4byte	.LBB157
 8358 20e5 00040000 		.4byte	.Ldebug_ranges0+0x400
 8359 20e9 01       		.byte	0x1
 8360 20ea 5205     		.2byte	0x552
 8361 20ec 2D       		.uleb128 0x2d
 8362 20ed DE110000 		.4byte	0x11de
 8363 20f1 27190000 		.4byte	.LLST159
 8364 20f5 30       		.uleb128 0x30
 8365 20f6 20040000 		.4byte	.Ldebug_ranges0+0x420
 8366 20fa 2F       		.uleb128 0x2f
 8367 20fb E7110000 		.4byte	0x11e7
 8368 20ff 45190000 		.4byte	.LLST160
 8369 2103 00       		.byte	0
 8370 2104 00       		.byte	0
 8371 2105 00       		.byte	0
 8372 2106 3B       		.uleb128 0x3b
 8373 2107 01       		.byte	0x1
 8374 2108 E6040000 		.4byte	.LASF300
 8375 210c 01       		.byte	0x1
 8376 210d 9605     		.2byte	0x596
 8377 210f 01       		.byte	0x1
 8378 2110 29000000 		.4byte	0x29
 8379 2114 00000000 		.4byte	.LFB29
 8380 2118 06000000 		.4byte	.LFE29
 8381 211c 02       		.byte	0x2
 8382 211d 7D       		.byte	0x7d
 8383 211e 00       		.sleb128 0
 8384 211f 52210000 		.4byte	0x2152
 8385 2123 26       		.uleb128 0x26
 8386 2124 7300     		.ascii	"s\000"
 8387 2126 01       		.byte	0x1
 8388 2127 9605     		.2byte	0x596
 8389 2129 29000000 		.4byte	0x29
 8390 212d 63190000 		.4byte	.LLST161
 8391 2131 28       		.uleb128 0x28
 8392 2132 D7090000 		.4byte	.LASF258
 8393 2136 01       		.byte	0x1
 8394 2137 9605     		.2byte	0x596
 8395 2139 36160000 		.4byte	0x1636
 8396 213d 76190000 		.4byte	.LLST162
 8397 2141 28       		.uleb128 0x28
 8398 2142 A1020000 		.4byte	.LASF259
 8399 2146 01       		.byte	0x1
 8400 2147 9605     		.2byte	0x596
 8401 2149 C7110000 		.4byte	0x11c7
 8402 214d 89190000 		.4byte	.LLST163
 8403 2151 00       		.byte	0
ARM GAS  /var/folders/5n/p_75w94d66l9ssrldxqdhh700000gn/T//cciPPkzE.s 			page 149


 8404 2152 3B       		.uleb128 0x3b
 8405 2153 01       		.byte	0x1
 8406 2154 A6070000 		.4byte	.LASF301
 8407 2158 01       		.byte	0x1
 8408 2159 9C05     		.2byte	0x59c
 8409 215b 01       		.byte	0x1
 8410 215c 29000000 		.4byte	0x29
 8411 2160 00000000 		.4byte	.LFB30
 8412 2164 06000000 		.4byte	.LFE30
 8413 2168 02       		.byte	0x2
 8414 2169 7D       		.byte	0x7d
 8415 216a 00       		.sleb128 0
 8416 216b 9E210000 		.4byte	0x219e
 8417 216f 26       		.uleb128 0x26
 8418 2170 7300     		.ascii	"s\000"
 8419 2172 01       		.byte	0x1
 8420 2173 9C05     		.2byte	0x59c
 8421 2175 29000000 		.4byte	0x29
 8422 2179 9C190000 		.4byte	.LLST164
 8423 217d 28       		.uleb128 0x28
 8424 217e D7090000 		.4byte	.LASF258
 8425 2182 01       		.byte	0x1
 8426 2183 9C05     		.2byte	0x59c
 8427 2185 36160000 		.4byte	0x1636
 8428 2189 AF190000 		.4byte	.LLST165
 8429 218d 28       		.uleb128 0x28
 8430 218e A1020000 		.4byte	.LASF259
 8431 2192 01       		.byte	0x1
 8432 2193 9C05     		.2byte	0x59c
 8433 2195 C7110000 		.4byte	0x11c7
 8434 2199 C2190000 		.4byte	.LLST166
 8435 219d 00       		.byte	0
 8436 219e 36       		.uleb128 0x36
 8437 219f 01       		.byte	0x1
 8438 21a0 46040000 		.4byte	.LASF302
 8439 21a4 01       		.byte	0x1
 8440 21a5 A205     		.2byte	0x5a2
 8441 21a7 01       		.byte	0x1
 8442 21a8 29000000 		.4byte	0x29
 8443 21ac 00000000 		.4byte	.LFB31
 8444 21b0 04010000 		.4byte	.LFE31
 8445 21b4 D5190000 		.4byte	.LLST167
 8446 21b8 60220000 		.4byte	0x2260
 8447 21bc 26       		.uleb128 0x26
 8448 21bd 7300     		.ascii	"s\000"
 8449 21bf 01       		.byte	0x1
 8450 21c0 A205     		.2byte	0x5a2
 8451 21c2 29000000 		.4byte	0x29
 8452 21c6 011A0000 		.4byte	.LLST168
 8453 21ca 28       		.uleb128 0x28
 8454 21cb 9C0B0000 		.4byte	.LASF229
 8455 21cf 01       		.byte	0x1
 8456 21d0 A205     		.2byte	0x5a2
 8457 21d2 29000000 		.4byte	0x29
 8458 21d6 141A0000 		.4byte	.LLST169
 8459 21da 28       		.uleb128 0x28
 8460 21db 57070000 		.4byte	.LASF230
ARM GAS  /var/folders/5n/p_75w94d66l9ssrldxqdhh700000gn/T//cciPPkzE.s 			page 150


 8461 21df 01       		.byte	0x1
 8462 21e0 A205     		.2byte	0x5a2
 8463 21e2 29000000 		.4byte	0x29
 8464 21e6 321A0000 		.4byte	.LLST170
 8465 21ea 28       		.uleb128 0x28
 8466 21eb E0060000 		.4byte	.LASF231
 8467 21ef 01       		.byte	0x1
 8468 21f0 A205     		.2byte	0x5a2
 8469 21f2 B2020000 		.4byte	0x2b2
 8470 21f6 501A0000 		.4byte	.LLST171
 8471 21fa 32       		.uleb128 0x32
 8472 21fb 7E080000 		.4byte	.LASF232
 8473 21ff 01       		.byte	0x1
 8474 2200 A205     		.2byte	0x5a2
 8475 2202 C7110000 		.4byte	0x11c7
 8476 2206 02       		.byte	0x2
 8477 2207 91       		.byte	0x91
 8478 2208 00       		.sleb128 0
 8479 2209 29       		.uleb128 0x29
 8480 220a 65727200 		.ascii	"err\000"
 8481 220e 01       		.byte	0x1
 8482 220f A405     		.2byte	0x5a4
 8483 2211 33060000 		.4byte	0x633
 8484 2215 A51A0000 		.4byte	.LLST172
 8485 2219 2A       		.uleb128 0x2a
 8486 221a CA060000 		.4byte	.LASF228
 8487 221e 01       		.byte	0x1
 8488 221f A505     		.2byte	0x5a5
 8489 2221 C1110000 		.4byte	0x11c1
 8490 2225 01       		.byte	0x1
 8491 2226 57       		.byte	0x57
 8492 2227 2A       		.uleb128 0x2a
 8493 2228 9A0C0000 		.4byte	.LASF239
 8494 222c 01       		.byte	0x1
 8495 222d A605     		.2byte	0x5a6
 8496 222f 60110000 		.4byte	0x1160
 8497 2233 02       		.byte	0x2
 8498 2234 91       		.byte	0x91
 8499 2235 50       		.sleb128 -48
 8500 2236 33       		.uleb128 0x33
 8501 2237 CD110000 		.4byte	0x11cd
 8502 223b 06000000 		.4byte	.LBB163
 8503 223f 40040000 		.4byte	.Ldebug_ranges0+0x440
 8504 2243 01       		.byte	0x1
 8505 2244 A505     		.2byte	0x5a5
 8506 2246 2D       		.uleb128 0x2d
 8507 2247 DE110000 		.4byte	0x11de
 8508 224b 011A0000 		.4byte	.LLST168
 8509 224f 30       		.uleb128 0x30
 8510 2250 60040000 		.4byte	.Ldebug_ranges0+0x460
 8511 2254 2F       		.uleb128 0x2f
 8512 2255 E7110000 		.4byte	0x11e7
 8513 2259 0B1B0000 		.4byte	.LLST174
 8514 225d 00       		.byte	0
 8515 225e 00       		.byte	0
 8516 225f 00       		.byte	0
 8517 2260 36       		.uleb128 0x36
ARM GAS  /var/folders/5n/p_75w94d66l9ssrldxqdhh700000gn/T//cciPPkzE.s 			page 151


 8518 2261 01       		.byte	0x1
 8519 2262 C80A0000 		.4byte	.LASF303
 8520 2266 01       		.byte	0x1
 8521 2267 3307     		.2byte	0x733
 8522 2269 01       		.byte	0x1
 8523 226a 29000000 		.4byte	0x29
 8524 226e 00000000 		.4byte	.LFB33
 8525 2272 E0000000 		.4byte	.LFE33
 8526 2276 291B0000 		.4byte	.LLST175
 8527 227a 22230000 		.4byte	0x2322
 8528 227e 26       		.uleb128 0x26
 8529 227f 7300     		.ascii	"s\000"
 8530 2281 01       		.byte	0x1
 8531 2282 3307     		.2byte	0x733
 8532 2284 29000000 		.4byte	0x29
 8533 2288 551B0000 		.4byte	.LLST176
 8534 228c 28       		.uleb128 0x28
 8535 228d 9C0B0000 		.4byte	.LASF229
 8536 2291 01       		.byte	0x1
 8537 2292 3307     		.2byte	0x733
 8538 2294 29000000 		.4byte	0x29
 8539 2298 681B0000 		.4byte	.LLST177
 8540 229c 28       		.uleb128 0x28
 8541 229d 57070000 		.4byte	.LASF230
 8542 22a1 01       		.byte	0x1
 8543 22a2 3307     		.2byte	0x733
 8544 22a4 29000000 		.4byte	0x29
 8545 22a8 861B0000 		.4byte	.LLST178
 8546 22ac 28       		.uleb128 0x28
 8547 22ad E0060000 		.4byte	.LASF231
 8548 22b1 01       		.byte	0x1
 8549 22b2 3307     		.2byte	0x733
 8550 22b4 E20F0000 		.4byte	0xfe2
 8551 22b8 A41B0000 		.4byte	.LLST179
 8552 22bc 32       		.uleb128 0x32
 8553 22bd 7E080000 		.4byte	.LASF232
 8554 22c1 01       		.byte	0x1
 8555 22c2 3307     		.2byte	0x733
 8556 22c4 CD040000 		.4byte	0x4cd
 8557 22c8 02       		.byte	0x2
 8558 22c9 91       		.byte	0x91
 8559 22ca 00       		.sleb128 0
 8560 22cb 2A       		.uleb128 0x2a
 8561 22cc CA060000 		.4byte	.LASF228
 8562 22d0 01       		.byte	0x1
 8563 22d1 3507     		.2byte	0x735
 8564 22d3 C1110000 		.4byte	0x11c1
 8565 22d7 01       		.byte	0x1
 8566 22d8 56       		.byte	0x56
 8567 22d9 29       		.uleb128 0x29
 8568 22da 65727200 		.ascii	"err\000"
 8569 22de 01       		.byte	0x1
 8570 22df 3607     		.2byte	0x736
 8571 22e1 33060000 		.4byte	0x633
 8572 22e5 051C0000 		.4byte	.LLST180
 8573 22e9 2A       		.uleb128 0x2a
 8574 22ea 9A0C0000 		.4byte	.LASF239
ARM GAS  /var/folders/5n/p_75w94d66l9ssrldxqdhh700000gn/T//cciPPkzE.s 			page 152


 8575 22ee 01       		.byte	0x1
 8576 22ef 3707     		.2byte	0x737
 8577 22f1 60110000 		.4byte	0x1160
 8578 22f5 02       		.byte	0x2
 8579 22f6 91       		.byte	0x91
 8580 22f7 50       		.sleb128 -48
 8581 22f8 33       		.uleb128 0x33
 8582 22f9 CD110000 		.4byte	0x11cd
 8583 22fd 02000000 		.4byte	.LBB169
 8584 2301 80040000 		.4byte	.Ldebug_ranges0+0x480
 8585 2305 01       		.byte	0x1
 8586 2306 3507     		.2byte	0x735
 8587 2308 2D       		.uleb128 0x2d
 8588 2309 DE110000 		.4byte	0x11de
 8589 230d 551B0000 		.4byte	.LLST176
 8590 2311 30       		.uleb128 0x30
 8591 2312 A0040000 		.4byte	.Ldebug_ranges0+0x4a0
 8592 2316 2F       		.uleb128 0x2f
 8593 2317 E7110000 		.4byte	0x11e7
 8594 231b 5F1C0000 		.4byte	.LLST182
 8595 231f 00       		.byte	0
 8596 2320 00       		.byte	0
 8597 2321 00       		.byte	0
 8598 2322 36       		.uleb128 0x36
 8599 2323 01       		.byte	0x1
 8600 2324 EB020000 		.4byte	.LASF304
 8601 2328 01       		.byte	0x1
 8602 2329 CE08     		.2byte	0x8ce
 8603 232b 01       		.byte	0x1
 8604 232c 29000000 		.4byte	0x29
 8605 2330 00000000 		.4byte	.LFB35
 8606 2334 54000000 		.4byte	.LFE35
 8607 2338 7D1C0000 		.4byte	.LLST183
 8608 233c B2230000 		.4byte	0x23b2
 8609 2340 26       		.uleb128 0x26
 8610 2341 7300     		.ascii	"s\000"
 8611 2343 01       		.byte	0x1
 8612 2344 CE08     		.2byte	0x8ce
 8613 2346 29000000 		.4byte	0x29
 8614 234a 9D1C0000 		.4byte	.LLST184
 8615 234e 38       		.uleb128 0x38
 8616 234f 636D6400 		.ascii	"cmd\000"
 8617 2353 01       		.byte	0x1
 8618 2354 CE08     		.2byte	0x8ce
 8619 2356 95000000 		.4byte	0x95
 8620 235a 01       		.byte	0x1
 8621 235b 51       		.byte	0x51
 8622 235c 32       		.uleb128 0x32
 8623 235d 92050000 		.4byte	.LASF305
 8624 2361 01       		.byte	0x1
 8625 2362 CE08     		.2byte	0x8ce
 8626 2364 B2020000 		.4byte	0x2b2
 8627 2368 01       		.byte	0x1
 8628 2369 52       		.byte	0x52
 8629 236a 2A       		.uleb128 0x2a
 8630 236b CA060000 		.4byte	.LASF228
 8631 236f 01       		.byte	0x1
ARM GAS  /var/folders/5n/p_75w94d66l9ssrldxqdhh700000gn/T//cciPPkzE.s 			page 153


 8632 2370 D008     		.2byte	0x8d0
 8633 2372 C1110000 		.4byte	0x11c1
 8634 2376 01       		.byte	0x1
 8635 2377 54       		.byte	0x54
 8636 2378 29       		.uleb128 0x29
 8637 2379 76616C00 		.ascii	"val\000"
 8638 237d 01       		.byte	0x1
 8639 237e D108     		.2byte	0x8d1
 8640 2380 A1040000 		.4byte	0x4a1
 8641 2384 B01C0000 		.4byte	.LLST185
 8642 2388 33       		.uleb128 0x33
 8643 2389 CD110000 		.4byte	0x11cd
 8644 238d 00000000 		.4byte	.LBB175
 8645 2391 C0040000 		.4byte	.Ldebug_ranges0+0x4c0
 8646 2395 01       		.byte	0x1
 8647 2396 D008     		.2byte	0x8d0
 8648 2398 2D       		.uleb128 0x2d
 8649 2399 DE110000 		.4byte	0x11de
 8650 239d DC1C0000 		.4byte	.LLST186
 8651 23a1 30       		.uleb128 0x30
 8652 23a2 E0040000 		.4byte	.Ldebug_ranges0+0x4e0
 8653 23a6 2F       		.uleb128 0x2f
 8654 23a7 E7110000 		.4byte	0x11e7
 8655 23ab EF1C0000 		.4byte	.LLST187
 8656 23af 00       		.byte	0
 8657 23b0 00       		.byte	0
 8658 23b1 00       		.byte	0
 8659 23b2 3B       		.uleb128 0x3b
 8660 23b3 01       		.byte	0x1
 8661 23b4 9F090000 		.4byte	.LASF306
 8662 23b8 01       		.byte	0x1
 8663 23b9 1009     		.2byte	0x910
 8664 23bb 01       		.byte	0x1
 8665 23bc 29000000 		.4byte	0x29
 8666 23c0 00000000 		.4byte	.LFB36
 8667 23c4 50000000 		.4byte	.LFE36
 8668 23c8 02       		.byte	0x2
 8669 23c9 7D       		.byte	0x7d
 8670 23ca 00       		.sleb128 0
 8671 23cb 47240000 		.4byte	0x2447
 8672 23cf 26       		.uleb128 0x26
 8673 23d0 7300     		.ascii	"s\000"
 8674 23d2 01       		.byte	0x1
 8675 23d3 1009     		.2byte	0x910
 8676 23d5 29000000 		.4byte	0x29
 8677 23d9 0D1D0000 		.4byte	.LLST188
 8678 23dd 26       		.uleb128 0x26
 8679 23de 636D6400 		.ascii	"cmd\000"
 8680 23e2 01       		.byte	0x1
 8681 23e3 1009     		.2byte	0x910
 8682 23e5 29000000 		.4byte	0x29
 8683 23e9 201D0000 		.4byte	.LLST189
 8684 23ed 26       		.uleb128 0x26
 8685 23ee 76616C00 		.ascii	"val\000"
 8686 23f2 01       		.byte	0x1
 8687 23f3 1009     		.2byte	0x910
 8688 23f5 29000000 		.4byte	0x29
ARM GAS  /var/folders/5n/p_75w94d66l9ssrldxqdhh700000gn/T//cciPPkzE.s 			page 154


 8689 23f9 3E1D0000 		.4byte	.LLST190
 8690 23fd 24       		.uleb128 0x24
 8691 23fe CA060000 		.4byte	.LASF228
 8692 2402 01       		.byte	0x1
 8693 2403 1209     		.2byte	0x912
 8694 2405 C1110000 		.4byte	0x11c1
 8695 2409 29       		.uleb128 0x29
 8696 240a 72657400 		.ascii	"ret\000"
 8697 240e 01       		.byte	0x1
 8698 240f 1309     		.2byte	0x913
 8699 2411 29000000 		.4byte	0x29
 8700 2415 5C1D0000 		.4byte	.LLST191
 8701 2419 3E       		.uleb128 0x3e
 8702 241a CD110000 		.4byte	0x11cd
 8703 241e 00000000 		.4byte	.LBB181
 8704 2422 10000000 		.4byte	.LBE181
 8705 2426 01       		.byte	0x1
 8706 2427 1209     		.2byte	0x912
 8707 2429 2D       		.uleb128 0x2d
 8708 242a DE110000 		.4byte	0x11de
 8709 242e 0D1D0000 		.4byte	.LLST188
 8710 2432 2E       		.uleb128 0x2e
 8711 2433 00000000 		.4byte	.LBB182
 8712 2437 10000000 		.4byte	.LBE182
 8713 243b 2F       		.uleb128 0x2f
 8714 243c E7110000 		.4byte	0x11e7
 8715 2440 961D0000 		.4byte	.LLST193
 8716 2444 00       		.byte	0
 8717 2445 00       		.byte	0
 8718 2446 00       		.byte	0
 8719 2447 11       		.uleb128 0x11
 8720 2448 68100000 		.4byte	0x1068
 8721 244c 57240000 		.4byte	0x2457
 8722 2450 12       		.uleb128 0x12
 8723 2451 3B000000 		.4byte	0x3b
 8724 2455 03       		.byte	0x3
 8725 2456 00       		.byte	0
 8726 2457 3F       		.uleb128 0x3f
 8727 2458 9C040000 		.4byte	.LASF307
 8728 245c 01       		.byte	0x1
 8729 245d 7E       		.byte	0x7e
 8730 245e 47240000 		.4byte	0x2447
 8731 2462 05       		.byte	0x5
 8732 2463 03       		.byte	0x3
 8733 2464 00000000 		.4byte	sockets
 8734 2468 3F       		.uleb128 0x3f
 8735 2469 FD060000 		.4byte	.LASF308
 8736 246d 01       		.byte	0x1
 8737 246e 80       		.byte	0x80
 8738 246f 54110000 		.4byte	0x1154
 8739 2473 05       		.byte	0x5
 8740 2474 03       		.byte	0x3
 8741 2475 00000000 		.4byte	select_cb_list
 8742 2479 3F       		.uleb128 0x3f
 8743 247a 1F090000 		.4byte	.LASF309
 8744 247e 01       		.byte	0x1
 8745 247f 83       		.byte	0x83
ARM GAS  /var/folders/5n/p_75w94d66l9ssrldxqdhh700000gn/T//cciPPkzE.s 			page 155


 8746 2480 8A240000 		.4byte	0x248a
 8747 2484 05       		.byte	0x5
 8748 2485 03       		.byte	0x3
 8749 2486 00000000 		.4byte	select_cb_ctr
 8750 248a 0D       		.uleb128 0xd
 8751 248b 29000000 		.4byte	0x29
 8752 248f 11       		.uleb128 0x11
 8753 2490 29000000 		.4byte	0x29
 8754 2494 9F240000 		.4byte	0x249f
 8755 2498 12       		.uleb128 0x12
 8756 2499 3B000000 		.4byte	0x3b
 8757 249d 0F       		.byte	0xf
 8758 249e 00       		.byte	0
 8759 249f 3F       		.uleb128 0x3f
 8760 24a0 AE000000 		.4byte	.LASF310
 8761 24a4 01       		.byte	0x1
 8762 24a5 87       		.byte	0x87
 8763 24a6 B0240000 		.4byte	0x24b0
 8764 24aa 05       		.byte	0x5
 8765 24ab 03       		.byte	0x3
 8766 24ac 00000000 		.4byte	err_to_errno_table
 8767 24b0 10       		.uleb128 0x10
 8768 24b1 8F240000 		.4byte	0x248f
 8769 24b5 00       		.byte	0
 8770              		.section	.debug_abbrev,"",%progbits
 8771              	.Ldebug_abbrev0:
 8772 0000 01       		.uleb128 0x1
 8773 0001 11       		.uleb128 0x11
 8774 0002 01       		.byte	0x1
 8775 0003 25       		.uleb128 0x25
 8776 0004 0E       		.uleb128 0xe
 8777 0005 13       		.uleb128 0x13
 8778 0006 0B       		.uleb128 0xb
 8779 0007 03       		.uleb128 0x3
 8780 0008 0E       		.uleb128 0xe
 8781 0009 1B       		.uleb128 0x1b
 8782 000a 0E       		.uleb128 0xe
 8783 000b 11       		.uleb128 0x11
 8784 000c 01       		.uleb128 0x1
 8785 000d 52       		.uleb128 0x52
 8786 000e 01       		.uleb128 0x1
 8787 000f 55       		.uleb128 0x55
 8788 0010 06       		.uleb128 0x6
 8789 0011 10       		.uleb128 0x10
 8790 0012 06       		.uleb128 0x6
 8791 0013 00       		.byte	0
 8792 0014 00       		.byte	0
 8793 0015 02       		.uleb128 0x2
 8794 0016 24       		.uleb128 0x24
 8795 0017 00       		.byte	0
 8796 0018 0B       		.uleb128 0xb
 8797 0019 0B       		.uleb128 0xb
 8798 001a 3E       		.uleb128 0x3e
 8799 001b 0B       		.uleb128 0xb
 8800 001c 03       		.uleb128 0x3
 8801 001d 08       		.uleb128 0x8
 8802 001e 00       		.byte	0
ARM GAS  /var/folders/5n/p_75w94d66l9ssrldxqdhh700000gn/T//cciPPkzE.s 			page 156


 8803 001f 00       		.byte	0
 8804 0020 03       		.uleb128 0x3
 8805 0021 16       		.uleb128 0x16
 8806 0022 00       		.byte	0
 8807 0023 03       		.uleb128 0x3
 8808 0024 0E       		.uleb128 0xe
 8809 0025 3A       		.uleb128 0x3a
 8810 0026 0B       		.uleb128 0xb
 8811 0027 3B       		.uleb128 0x3b
 8812 0028 0B       		.uleb128 0xb
 8813 0029 49       		.uleb128 0x49
 8814 002a 13       		.uleb128 0x13
 8815 002b 00       		.byte	0
 8816 002c 00       		.byte	0
 8817 002d 04       		.uleb128 0x4
 8818 002e 24       		.uleb128 0x24
 8819 002f 00       		.byte	0
 8820 0030 0B       		.uleb128 0xb
 8821 0031 0B       		.uleb128 0xb
 8822 0032 3E       		.uleb128 0x3e
 8823 0033 0B       		.uleb128 0xb
 8824 0034 03       		.uleb128 0x3
 8825 0035 0E       		.uleb128 0xe
 8826 0036 00       		.byte	0
 8827 0037 00       		.byte	0
 8828 0038 05       		.uleb128 0x5
 8829 0039 13       		.uleb128 0x13
 8830 003a 01       		.byte	0x1
 8831 003b 03       		.uleb128 0x3
 8832 003c 0E       		.uleb128 0xe
 8833 003d 0B       		.uleb128 0xb
 8834 003e 0B       		.uleb128 0xb
 8835 003f 3A       		.uleb128 0x3a
 8836 0040 0B       		.uleb128 0xb
 8837 0041 3B       		.uleb128 0x3b
 8838 0042 0B       		.uleb128 0xb
 8839 0043 01       		.uleb128 0x1
 8840 0044 13       		.uleb128 0x13
 8841 0045 00       		.byte	0
 8842 0046 00       		.byte	0
 8843 0047 06       		.uleb128 0x6
 8844 0048 0D       		.uleb128 0xd
 8845 0049 00       		.byte	0
 8846 004a 03       		.uleb128 0x3
 8847 004b 0E       		.uleb128 0xe
 8848 004c 3A       		.uleb128 0x3a
 8849 004d 0B       		.uleb128 0xb
 8850 004e 3B       		.uleb128 0x3b
 8851 004f 0B       		.uleb128 0xb
 8852 0050 49       		.uleb128 0x49
 8853 0051 13       		.uleb128 0x13
 8854 0052 38       		.uleb128 0x38
 8855 0053 0A       		.uleb128 0xa
 8856 0054 00       		.byte	0
 8857 0055 00       		.byte	0
 8858 0056 07       		.uleb128 0x7
 8859 0057 0D       		.uleb128 0xd
ARM GAS  /var/folders/5n/p_75w94d66l9ssrldxqdhh700000gn/T//cciPPkzE.s 			page 157


 8860 0058 00       		.byte	0
 8861 0059 03       		.uleb128 0x3
 8862 005a 08       		.uleb128 0x8
 8863 005b 3A       		.uleb128 0x3a
 8864 005c 0B       		.uleb128 0xb
 8865 005d 3B       		.uleb128 0x3b
 8866 005e 0B       		.uleb128 0xb
 8867 005f 49       		.uleb128 0x49
 8868 0060 13       		.uleb128 0x13
 8869 0061 38       		.uleb128 0x38
 8870 0062 0A       		.uleb128 0xa
 8871 0063 00       		.byte	0
 8872 0064 00       		.byte	0
 8873 0065 08       		.uleb128 0x8
 8874 0066 13       		.uleb128 0x13
 8875 0067 01       		.byte	0x1
 8876 0068 0B       		.uleb128 0xb
 8877 0069 0B       		.uleb128 0xb
 8878 006a 3A       		.uleb128 0x3a
 8879 006b 0B       		.uleb128 0xb
 8880 006c 3B       		.uleb128 0x3b
 8881 006d 0B       		.uleb128 0xb
 8882 006e 01       		.uleb128 0x1
 8883 006f 13       		.uleb128 0x13
 8884 0070 00       		.byte	0
 8885 0071 00       		.byte	0
 8886 0072 09       		.uleb128 0x9
 8887 0073 0F       		.uleb128 0xf
 8888 0074 00       		.byte	0
 8889 0075 0B       		.uleb128 0xb
 8890 0076 0B       		.uleb128 0xb
 8891 0077 49       		.uleb128 0x49
 8892 0078 13       		.uleb128 0x13
 8893 0079 00       		.byte	0
 8894 007a 00       		.byte	0
 8895 007b 0A       		.uleb128 0xa
 8896 007c 0F       		.uleb128 0xf
 8897 007d 00       		.byte	0
 8898 007e 0B       		.uleb128 0xb
 8899 007f 0B       		.uleb128 0xb
 8900 0080 00       		.byte	0
 8901 0081 00       		.byte	0
 8902 0082 0B       		.uleb128 0xb
 8903 0083 13       		.uleb128 0x13
 8904 0084 01       		.byte	0x1
 8905 0085 03       		.uleb128 0x3
 8906 0086 0E       		.uleb128 0xe
 8907 0087 0B       		.uleb128 0xb
 8908 0088 0B       		.uleb128 0xb
 8909 0089 3A       		.uleb128 0x3a
 8910 008a 0B       		.uleb128 0xb
 8911 008b 3B       		.uleb128 0x3b
 8912 008c 05       		.uleb128 0x5
 8913 008d 01       		.uleb128 0x1
 8914 008e 13       		.uleb128 0x13
 8915 008f 00       		.byte	0
 8916 0090 00       		.byte	0
ARM GAS  /var/folders/5n/p_75w94d66l9ssrldxqdhh700000gn/T//cciPPkzE.s 			page 158


 8917 0091 0C       		.uleb128 0xc
 8918 0092 0D       		.uleb128 0xd
 8919 0093 00       		.byte	0
 8920 0094 03       		.uleb128 0x3
 8921 0095 08       		.uleb128 0x8
 8922 0096 3A       		.uleb128 0x3a
 8923 0097 0B       		.uleb128 0xb
 8924 0098 3B       		.uleb128 0x3b
 8925 0099 05       		.uleb128 0x5
 8926 009a 49       		.uleb128 0x49
 8927 009b 13       		.uleb128 0x13
 8928 009c 38       		.uleb128 0x38
 8929 009d 0A       		.uleb128 0xa
 8930 009e 00       		.byte	0
 8931 009f 00       		.byte	0
 8932 00a0 0D       		.uleb128 0xd
 8933 00a1 35       		.uleb128 0x35
 8934 00a2 00       		.byte	0
 8935 00a3 49       		.uleb128 0x49
 8936 00a4 13       		.uleb128 0x13
 8937 00a5 00       		.byte	0
 8938 00a6 00       		.byte	0
 8939 00a7 0E       		.uleb128 0xe
 8940 00a8 17       		.uleb128 0x17
 8941 00a9 01       		.byte	0x1
 8942 00aa 0B       		.uleb128 0xb
 8943 00ab 0B       		.uleb128 0xb
 8944 00ac 3A       		.uleb128 0x3a
 8945 00ad 0B       		.uleb128 0xb
 8946 00ae 3B       		.uleb128 0x3b
 8947 00af 0B       		.uleb128 0xb
 8948 00b0 01       		.uleb128 0x1
 8949 00b1 13       		.uleb128 0x13
 8950 00b2 00       		.byte	0
 8951 00b3 00       		.byte	0
 8952 00b4 0F       		.uleb128 0xf
 8953 00b5 0D       		.uleb128 0xd
 8954 00b6 00       		.byte	0
 8955 00b7 03       		.uleb128 0x3
 8956 00b8 0E       		.uleb128 0xe
 8957 00b9 3A       		.uleb128 0x3a
 8958 00ba 0B       		.uleb128 0xb
 8959 00bb 3B       		.uleb128 0x3b
 8960 00bc 0B       		.uleb128 0xb
 8961 00bd 49       		.uleb128 0x49
 8962 00be 13       		.uleb128 0x13
 8963 00bf 00       		.byte	0
 8964 00c0 00       		.byte	0
 8965 00c1 10       		.uleb128 0x10
 8966 00c2 26       		.uleb128 0x26
 8967 00c3 00       		.byte	0
 8968 00c4 49       		.uleb128 0x49
 8969 00c5 13       		.uleb128 0x13
 8970 00c6 00       		.byte	0
 8971 00c7 00       		.byte	0
 8972 00c8 11       		.uleb128 0x11
 8973 00c9 01       		.uleb128 0x1
ARM GAS  /var/folders/5n/p_75w94d66l9ssrldxqdhh700000gn/T//cciPPkzE.s 			page 159


 8974 00ca 01       		.byte	0x1
 8975 00cb 49       		.uleb128 0x49
 8976 00cc 13       		.uleb128 0x13
 8977 00cd 01       		.uleb128 0x1
 8978 00ce 13       		.uleb128 0x13
 8979 00cf 00       		.byte	0
 8980 00d0 00       		.byte	0
 8981 00d1 12       		.uleb128 0x12
 8982 00d2 21       		.uleb128 0x21
 8983 00d3 00       		.byte	0
 8984 00d4 49       		.uleb128 0x49
 8985 00d5 13       		.uleb128 0x13
 8986 00d6 2F       		.uleb128 0x2f
 8987 00d7 0B       		.uleb128 0xb
 8988 00d8 00       		.byte	0
 8989 00d9 00       		.byte	0
 8990 00da 13       		.uleb128 0x13
 8991 00db 0D       		.uleb128 0xd
 8992 00dc 00       		.byte	0
 8993 00dd 03       		.uleb128 0x3
 8994 00de 0E       		.uleb128 0xe
 8995 00df 3A       		.uleb128 0x3a
 8996 00e0 0B       		.uleb128 0xb
 8997 00e1 3B       		.uleb128 0x3b
 8998 00e2 05       		.uleb128 0x5
 8999 00e3 49       		.uleb128 0x49
 9000 00e4 13       		.uleb128 0x13
 9001 00e5 38       		.uleb128 0x38
 9002 00e6 0A       		.uleb128 0xa
 9003 00e7 00       		.byte	0
 9004 00e8 00       		.byte	0
 9005 00e9 14       		.uleb128 0x14
 9006 00ea 16       		.uleb128 0x16
 9007 00eb 00       		.byte	0
 9008 00ec 03       		.uleb128 0x3
 9009 00ed 0E       		.uleb128 0xe
 9010 00ee 3A       		.uleb128 0x3a
 9011 00ef 0B       		.uleb128 0xb
 9012 00f0 3B       		.uleb128 0x3b
 9013 00f1 05       		.uleb128 0x5
 9014 00f2 49       		.uleb128 0x49
 9015 00f3 13       		.uleb128 0x13
 9016 00f4 00       		.byte	0
 9017 00f5 00       		.byte	0
 9018 00f6 15       		.uleb128 0x15
 9019 00f7 04       		.uleb128 0x4
 9020 00f8 01       		.byte	0x1
 9021 00f9 03       		.uleb128 0x3
 9022 00fa 0E       		.uleb128 0xe
 9023 00fb 0B       		.uleb128 0xb
 9024 00fc 0B       		.uleb128 0xb
 9025 00fd 3A       		.uleb128 0x3a
 9026 00fe 0B       		.uleb128 0xb
 9027 00ff 3B       		.uleb128 0x3b
 9028 0100 0B       		.uleb128 0xb
 9029 0101 01       		.uleb128 0x1
 9030 0102 13       		.uleb128 0x13
ARM GAS  /var/folders/5n/p_75w94d66l9ssrldxqdhh700000gn/T//cciPPkzE.s 			page 160


 9031 0103 00       		.byte	0
 9032 0104 00       		.byte	0
 9033 0105 16       		.uleb128 0x16
 9034 0106 28       		.uleb128 0x28
 9035 0107 00       		.byte	0
 9036 0108 03       		.uleb128 0x3
 9037 0109 0E       		.uleb128 0xe
 9038 010a 1C       		.uleb128 0x1c
 9039 010b 0D       		.uleb128 0xd
 9040 010c 00       		.byte	0
 9041 010d 00       		.byte	0
 9042 010e 17       		.uleb128 0x17
 9043 010f 15       		.uleb128 0x15
 9044 0110 01       		.byte	0x1
 9045 0111 27       		.uleb128 0x27
 9046 0112 0C       		.uleb128 0xc
 9047 0113 01       		.uleb128 0x1
 9048 0114 13       		.uleb128 0x13
 9049 0115 00       		.byte	0
 9050 0116 00       		.byte	0
 9051 0117 18       		.uleb128 0x18
 9052 0118 05       		.uleb128 0x5
 9053 0119 00       		.byte	0
 9054 011a 49       		.uleb128 0x49
 9055 011b 13       		.uleb128 0x13
 9056 011c 00       		.byte	0
 9057 011d 00       		.byte	0
 9058 011e 19       		.uleb128 0x19
 9059 011f 0D       		.uleb128 0xd
 9060 0120 00       		.byte	0
 9061 0121 03       		.uleb128 0x3
 9062 0122 08       		.uleb128 0x8
 9063 0123 3A       		.uleb128 0x3a
 9064 0124 0B       		.uleb128 0xb
 9065 0125 3B       		.uleb128 0x3b
 9066 0126 0B       		.uleb128 0xb
 9067 0127 49       		.uleb128 0x49
 9068 0128 13       		.uleb128 0x13
 9069 0129 00       		.byte	0
 9070 012a 00       		.byte	0
 9071 012b 1A       		.uleb128 0x1a
 9072 012c 15       		.uleb128 0x15
 9073 012d 01       		.byte	0x1
 9074 012e 27       		.uleb128 0x27
 9075 012f 0C       		.uleb128 0xc
 9076 0130 49       		.uleb128 0x49
 9077 0131 13       		.uleb128 0x13
 9078 0132 01       		.uleb128 0x1
 9079 0133 13       		.uleb128 0x13
 9080 0134 00       		.byte	0
 9081 0135 00       		.byte	0
 9082 0136 1B       		.uleb128 0x1b
 9083 0137 13       		.uleb128 0x13
 9084 0138 00       		.byte	0
 9085 0139 03       		.uleb128 0x3
 9086 013a 0E       		.uleb128 0xe
 9087 013b 3C       		.uleb128 0x3c
ARM GAS  /var/folders/5n/p_75w94d66l9ssrldxqdhh700000gn/T//cciPPkzE.s 			page 161


 9088 013c 0C       		.uleb128 0xc
 9089 013d 00       		.byte	0
 9090 013e 00       		.byte	0
 9091 013f 1C       		.uleb128 0x1c
 9092 0140 26       		.uleb128 0x26
 9093 0141 00       		.byte	0
 9094 0142 00       		.byte	0
 9095 0143 00       		.byte	0
 9096 0144 1D       		.uleb128 0x1d
 9097 0145 2E       		.uleb128 0x2e
 9098 0146 01       		.byte	0x1
 9099 0147 03       		.uleb128 0x3
 9100 0148 0E       		.uleb128 0xe
 9101 0149 3A       		.uleb128 0x3a
 9102 014a 0B       		.uleb128 0xb
 9103 014b 3B       		.uleb128 0x3b
 9104 014c 0B       		.uleb128 0xb
 9105 014d 27       		.uleb128 0x27
 9106 014e 0C       		.uleb128 0xc
 9107 014f 49       		.uleb128 0x49
 9108 0150 13       		.uleb128 0x13
 9109 0151 20       		.uleb128 0x20
 9110 0152 0B       		.uleb128 0xb
 9111 0153 01       		.uleb128 0x1
 9112 0154 13       		.uleb128 0x13
 9113 0155 00       		.byte	0
 9114 0156 00       		.byte	0
 9115 0157 1E       		.uleb128 0x1e
 9116 0158 05       		.uleb128 0x5
 9117 0159 00       		.byte	0
 9118 015a 03       		.uleb128 0x3
 9119 015b 08       		.uleb128 0x8
 9120 015c 3A       		.uleb128 0x3a
 9121 015d 0B       		.uleb128 0xb
 9122 015e 3B       		.uleb128 0x3b
 9123 015f 0B       		.uleb128 0xb
 9124 0160 49       		.uleb128 0x49
 9125 0161 13       		.uleb128 0x13
 9126 0162 00       		.byte	0
 9127 0163 00       		.byte	0
 9128 0164 1F       		.uleb128 0x1f
 9129 0165 34       		.uleb128 0x34
 9130 0166 00       		.byte	0
 9131 0167 03       		.uleb128 0x3
 9132 0168 0E       		.uleb128 0xe
 9133 0169 3A       		.uleb128 0x3a
 9134 016a 0B       		.uleb128 0xb
 9135 016b 3B       		.uleb128 0x3b
 9136 016c 0B       		.uleb128 0xb
 9137 016d 49       		.uleb128 0x49
 9138 016e 13       		.uleb128 0x13
 9139 016f 00       		.byte	0
 9140 0170 00       		.byte	0
 9141 0171 20       		.uleb128 0x20
 9142 0172 05       		.uleb128 0x5
 9143 0173 00       		.byte	0
 9144 0174 03       		.uleb128 0x3
ARM GAS  /var/folders/5n/p_75w94d66l9ssrldxqdhh700000gn/T//cciPPkzE.s 			page 162


 9145 0175 0E       		.uleb128 0xe
 9146 0176 3A       		.uleb128 0x3a
 9147 0177 0B       		.uleb128 0xb
 9148 0178 3B       		.uleb128 0x3b
 9149 0179 0B       		.uleb128 0xb
 9150 017a 49       		.uleb128 0x49
 9151 017b 13       		.uleb128 0x13
 9152 017c 00       		.byte	0
 9153 017d 00       		.byte	0
 9154 017e 21       		.uleb128 0x21
 9155 017f 34       		.uleb128 0x34
 9156 0180 00       		.byte	0
 9157 0181 03       		.uleb128 0x3
 9158 0182 08       		.uleb128 0x8
 9159 0183 3A       		.uleb128 0x3a
 9160 0184 0B       		.uleb128 0xb
 9161 0185 3B       		.uleb128 0x3b
 9162 0186 0B       		.uleb128 0xb
 9163 0187 49       		.uleb128 0x49
 9164 0188 13       		.uleb128 0x13
 9165 0189 00       		.byte	0
 9166 018a 00       		.byte	0
 9167 018b 22       		.uleb128 0x22
 9168 018c 2E       		.uleb128 0x2e
 9169 018d 01       		.byte	0x1
 9170 018e 03       		.uleb128 0x3
 9171 018f 0E       		.uleb128 0xe
 9172 0190 3A       		.uleb128 0x3a
 9173 0191 0B       		.uleb128 0xb
 9174 0192 3B       		.uleb128 0x3b
 9175 0193 05       		.uleb128 0x5
 9176 0194 27       		.uleb128 0x27
 9177 0195 0C       		.uleb128 0xc
 9178 0196 20       		.uleb128 0x20
 9179 0197 0B       		.uleb128 0xb
 9180 0198 01       		.uleb128 0x1
 9181 0199 13       		.uleb128 0x13
 9182 019a 00       		.byte	0
 9183 019b 00       		.byte	0
 9184 019c 23       		.uleb128 0x23
 9185 019d 05       		.uleb128 0x5
 9186 019e 00       		.byte	0
 9187 019f 03       		.uleb128 0x3
 9188 01a0 0E       		.uleb128 0xe
 9189 01a1 3A       		.uleb128 0x3a
 9190 01a2 0B       		.uleb128 0xb
 9191 01a3 3B       		.uleb128 0x3b
 9192 01a4 05       		.uleb128 0x5
 9193 01a5 49       		.uleb128 0x49
 9194 01a6 13       		.uleb128 0x13
 9195 01a7 00       		.byte	0
 9196 01a8 00       		.byte	0
 9197 01a9 24       		.uleb128 0x24
 9198 01aa 34       		.uleb128 0x34
 9199 01ab 00       		.byte	0
 9200 01ac 03       		.uleb128 0x3
 9201 01ad 0E       		.uleb128 0xe
ARM GAS  /var/folders/5n/p_75w94d66l9ssrldxqdhh700000gn/T//cciPPkzE.s 			page 163


 9202 01ae 3A       		.uleb128 0x3a
 9203 01af 0B       		.uleb128 0xb
 9204 01b0 3B       		.uleb128 0x3b
 9205 01b1 05       		.uleb128 0x5
 9206 01b2 49       		.uleb128 0x49
 9207 01b3 13       		.uleb128 0x13
 9208 01b4 00       		.byte	0
 9209 01b5 00       		.byte	0
 9210 01b6 25       		.uleb128 0x25
 9211 01b7 2E       		.uleb128 0x2e
 9212 01b8 01       		.byte	0x1
 9213 01b9 03       		.uleb128 0x3
 9214 01ba 0E       		.uleb128 0xe
 9215 01bb 3A       		.uleb128 0x3a
 9216 01bc 0B       		.uleb128 0xb
 9217 01bd 3B       		.uleb128 0x3b
 9218 01be 05       		.uleb128 0x5
 9219 01bf 27       		.uleb128 0x27
 9220 01c0 0C       		.uleb128 0xc
 9221 01c1 11       		.uleb128 0x11
 9222 01c2 01       		.uleb128 0x1
 9223 01c3 12       		.uleb128 0x12
 9224 01c4 01       		.uleb128 0x1
 9225 01c5 40       		.uleb128 0x40
 9226 01c6 06       		.uleb128 0x6
 9227 01c7 01       		.uleb128 0x1
 9228 01c8 13       		.uleb128 0x13
 9229 01c9 00       		.byte	0
 9230 01ca 00       		.byte	0
 9231 01cb 26       		.uleb128 0x26
 9232 01cc 05       		.uleb128 0x5
 9233 01cd 00       		.byte	0
 9234 01ce 03       		.uleb128 0x3
 9235 01cf 08       		.uleb128 0x8
 9236 01d0 3A       		.uleb128 0x3a
 9237 01d1 0B       		.uleb128 0xb
 9238 01d2 3B       		.uleb128 0x3b
 9239 01d3 05       		.uleb128 0x5
 9240 01d4 49       		.uleb128 0x49
 9241 01d5 13       		.uleb128 0x13
 9242 01d6 02       		.uleb128 0x2
 9243 01d7 06       		.uleb128 0x6
 9244 01d8 00       		.byte	0
 9245 01d9 00       		.byte	0
 9246 01da 27       		.uleb128 0x27
 9247 01db 34       		.uleb128 0x34
 9248 01dc 00       		.byte	0
 9249 01dd 03       		.uleb128 0x3
 9250 01de 0E       		.uleb128 0xe
 9251 01df 3A       		.uleb128 0x3a
 9252 01e0 0B       		.uleb128 0xb
 9253 01e1 3B       		.uleb128 0x3b
 9254 01e2 05       		.uleb128 0x5
 9255 01e3 49       		.uleb128 0x49
 9256 01e4 13       		.uleb128 0x13
 9257 01e5 02       		.uleb128 0x2
 9258 01e6 06       		.uleb128 0x6
ARM GAS  /var/folders/5n/p_75w94d66l9ssrldxqdhh700000gn/T//cciPPkzE.s 			page 164


 9259 01e7 00       		.byte	0
 9260 01e8 00       		.byte	0
 9261 01e9 28       		.uleb128 0x28
 9262 01ea 05       		.uleb128 0x5
 9263 01eb 00       		.byte	0
 9264 01ec 03       		.uleb128 0x3
 9265 01ed 0E       		.uleb128 0xe
 9266 01ee 3A       		.uleb128 0x3a
 9267 01ef 0B       		.uleb128 0xb
 9268 01f0 3B       		.uleb128 0x3b
 9269 01f1 05       		.uleb128 0x5
 9270 01f2 49       		.uleb128 0x49
 9271 01f3 13       		.uleb128 0x13
 9272 01f4 02       		.uleb128 0x2
 9273 01f5 06       		.uleb128 0x6
 9274 01f6 00       		.byte	0
 9275 01f7 00       		.byte	0
 9276 01f8 29       		.uleb128 0x29
 9277 01f9 34       		.uleb128 0x34
 9278 01fa 00       		.byte	0
 9279 01fb 03       		.uleb128 0x3
 9280 01fc 08       		.uleb128 0x8
 9281 01fd 3A       		.uleb128 0x3a
 9282 01fe 0B       		.uleb128 0xb
 9283 01ff 3B       		.uleb128 0x3b
 9284 0200 05       		.uleb128 0x5
 9285 0201 49       		.uleb128 0x49
 9286 0202 13       		.uleb128 0x13
 9287 0203 02       		.uleb128 0x2
 9288 0204 06       		.uleb128 0x6
 9289 0205 00       		.byte	0
 9290 0206 00       		.byte	0
 9291 0207 2A       		.uleb128 0x2a
 9292 0208 34       		.uleb128 0x34
 9293 0209 00       		.byte	0
 9294 020a 03       		.uleb128 0x3
 9295 020b 0E       		.uleb128 0xe
 9296 020c 3A       		.uleb128 0x3a
 9297 020d 0B       		.uleb128 0xb
 9298 020e 3B       		.uleb128 0x3b
 9299 020f 05       		.uleb128 0x5
 9300 0210 49       		.uleb128 0x49
 9301 0211 13       		.uleb128 0x13
 9302 0212 02       		.uleb128 0x2
 9303 0213 0A       		.uleb128 0xa
 9304 0214 00       		.byte	0
 9305 0215 00       		.byte	0
 9306 0216 2B       		.uleb128 0x2b
 9307 0217 0A       		.uleb128 0xa
 9308 0218 00       		.byte	0
 9309 0219 03       		.uleb128 0x3
 9310 021a 0E       		.uleb128 0xe
 9311 021b 3A       		.uleb128 0x3a
 9312 021c 0B       		.uleb128 0xb
 9313 021d 3B       		.uleb128 0x3b
 9314 021e 05       		.uleb128 0x5
 9315 021f 00       		.byte	0
ARM GAS  /var/folders/5n/p_75w94d66l9ssrldxqdhh700000gn/T//cciPPkzE.s 			page 165


 9316 0220 00       		.byte	0
 9317 0221 2C       		.uleb128 0x2c
 9318 0222 1D       		.uleb128 0x1d
 9319 0223 01       		.byte	0x1
 9320 0224 31       		.uleb128 0x31
 9321 0225 13       		.uleb128 0x13
 9322 0226 11       		.uleb128 0x11
 9323 0227 01       		.uleb128 0x1
 9324 0228 12       		.uleb128 0x12
 9325 0229 01       		.uleb128 0x1
 9326 022a 58       		.uleb128 0x58
 9327 022b 0B       		.uleb128 0xb
 9328 022c 59       		.uleb128 0x59
 9329 022d 05       		.uleb128 0x5
 9330 022e 01       		.uleb128 0x1
 9331 022f 13       		.uleb128 0x13
 9332 0230 00       		.byte	0
 9333 0231 00       		.byte	0
 9334 0232 2D       		.uleb128 0x2d
 9335 0233 05       		.uleb128 0x5
 9336 0234 00       		.byte	0
 9337 0235 31       		.uleb128 0x31
 9338 0236 13       		.uleb128 0x13
 9339 0237 02       		.uleb128 0x2
 9340 0238 06       		.uleb128 0x6
 9341 0239 00       		.byte	0
 9342 023a 00       		.byte	0
 9343 023b 2E       		.uleb128 0x2e
 9344 023c 0B       		.uleb128 0xb
 9345 023d 01       		.byte	0x1
 9346 023e 11       		.uleb128 0x11
 9347 023f 01       		.uleb128 0x1
 9348 0240 12       		.uleb128 0x12
 9349 0241 01       		.uleb128 0x1
 9350 0242 00       		.byte	0
 9351 0243 00       		.byte	0
 9352 0244 2F       		.uleb128 0x2f
 9353 0245 34       		.uleb128 0x34
 9354 0246 00       		.byte	0
 9355 0247 31       		.uleb128 0x31
 9356 0248 13       		.uleb128 0x13
 9357 0249 02       		.uleb128 0x2
 9358 024a 06       		.uleb128 0x6
 9359 024b 00       		.byte	0
 9360 024c 00       		.byte	0
 9361 024d 30       		.uleb128 0x30
 9362 024e 0B       		.uleb128 0xb
 9363 024f 01       		.byte	0x1
 9364 0250 55       		.uleb128 0x55
 9365 0251 06       		.uleb128 0x6
 9366 0252 00       		.byte	0
 9367 0253 00       		.byte	0
 9368 0254 31       		.uleb128 0x31
 9369 0255 2E       		.uleb128 0x2e
 9370 0256 01       		.byte	0x1
 9371 0257 03       		.uleb128 0x3
 9372 0258 0E       		.uleb128 0xe
ARM GAS  /var/folders/5n/p_75w94d66l9ssrldxqdhh700000gn/T//cciPPkzE.s 			page 166


 9373 0259 3A       		.uleb128 0x3a
 9374 025a 0B       		.uleb128 0xb
 9375 025b 3B       		.uleb128 0x3b
 9376 025c 05       		.uleb128 0x5
 9377 025d 27       		.uleb128 0x27
 9378 025e 0C       		.uleb128 0xc
 9379 025f 49       		.uleb128 0x49
 9380 0260 13       		.uleb128 0x13
 9381 0261 11       		.uleb128 0x11
 9382 0262 01       		.uleb128 0x1
 9383 0263 12       		.uleb128 0x12
 9384 0264 01       		.uleb128 0x1
 9385 0265 40       		.uleb128 0x40
 9386 0266 06       		.uleb128 0x6
 9387 0267 01       		.uleb128 0x1
 9388 0268 13       		.uleb128 0x13
 9389 0269 00       		.byte	0
 9390 026a 00       		.byte	0
 9391 026b 32       		.uleb128 0x32
 9392 026c 05       		.uleb128 0x5
 9393 026d 00       		.byte	0
 9394 026e 03       		.uleb128 0x3
 9395 026f 0E       		.uleb128 0xe
 9396 0270 3A       		.uleb128 0x3a
 9397 0271 0B       		.uleb128 0xb
 9398 0272 3B       		.uleb128 0x3b
 9399 0273 05       		.uleb128 0x5
 9400 0274 49       		.uleb128 0x49
 9401 0275 13       		.uleb128 0x13
 9402 0276 02       		.uleb128 0x2
 9403 0277 0A       		.uleb128 0xa
 9404 0278 00       		.byte	0
 9405 0279 00       		.byte	0
 9406 027a 33       		.uleb128 0x33
 9407 027b 1D       		.uleb128 0x1d
 9408 027c 01       		.byte	0x1
 9409 027d 31       		.uleb128 0x31
 9410 027e 13       		.uleb128 0x13
 9411 027f 52       		.uleb128 0x52
 9412 0280 01       		.uleb128 0x1
 9413 0281 55       		.uleb128 0x55
 9414 0282 06       		.uleb128 0x6
 9415 0283 58       		.uleb128 0x58
 9416 0284 0B       		.uleb128 0xb
 9417 0285 59       		.uleb128 0x59
 9418 0286 05       		.uleb128 0x5
 9419 0287 00       		.byte	0
 9420 0288 00       		.byte	0
 9421 0289 34       		.uleb128 0x34
 9422 028a 34       		.uleb128 0x34
 9423 028b 00       		.byte	0
 9424 028c 03       		.uleb128 0x3
 9425 028d 08       		.uleb128 0x8
 9426 028e 3A       		.uleb128 0x3a
 9427 028f 0B       		.uleb128 0xb
 9428 0290 3B       		.uleb128 0x3b
 9429 0291 05       		.uleb128 0x5
ARM GAS  /var/folders/5n/p_75w94d66l9ssrldxqdhh700000gn/T//cciPPkzE.s 			page 167


 9430 0292 49       		.uleb128 0x49
 9431 0293 13       		.uleb128 0x13
 9432 0294 02       		.uleb128 0x2
 9433 0295 0A       		.uleb128 0xa
 9434 0296 00       		.byte	0
 9435 0297 00       		.byte	0
 9436 0298 35       		.uleb128 0x35
 9437 0299 2E       		.uleb128 0x2e
 9438 029a 00       		.byte	0
 9439 029b 3F       		.uleb128 0x3f
 9440 029c 0C       		.uleb128 0xc
 9441 029d 03       		.uleb128 0x3
 9442 029e 0E       		.uleb128 0xe
 9443 029f 3A       		.uleb128 0x3a
 9444 02a0 0B       		.uleb128 0xb
 9445 02a1 3B       		.uleb128 0x3b
 9446 02a2 0B       		.uleb128 0xb
 9447 02a3 27       		.uleb128 0x27
 9448 02a4 0C       		.uleb128 0xc
 9449 02a5 11       		.uleb128 0x11
 9450 02a6 01       		.uleb128 0x1
 9451 02a7 12       		.uleb128 0x12
 9452 02a8 01       		.uleb128 0x1
 9453 02a9 40       		.uleb128 0x40
 9454 02aa 0A       		.uleb128 0xa
 9455 02ab 00       		.byte	0
 9456 02ac 00       		.byte	0
 9457 02ad 36       		.uleb128 0x36
 9458 02ae 2E       		.uleb128 0x2e
 9459 02af 01       		.byte	0x1
 9460 02b0 3F       		.uleb128 0x3f
 9461 02b1 0C       		.uleb128 0xc
 9462 02b2 03       		.uleb128 0x3
 9463 02b3 0E       		.uleb128 0xe
 9464 02b4 3A       		.uleb128 0x3a
 9465 02b5 0B       		.uleb128 0xb
 9466 02b6 3B       		.uleb128 0x3b
 9467 02b7 05       		.uleb128 0x5
 9468 02b8 27       		.uleb128 0x27
 9469 02b9 0C       		.uleb128 0xc
 9470 02ba 49       		.uleb128 0x49
 9471 02bb 13       		.uleb128 0x13
 9472 02bc 11       		.uleb128 0x11
 9473 02bd 01       		.uleb128 0x1
 9474 02be 12       		.uleb128 0x12
 9475 02bf 01       		.uleb128 0x1
 9476 02c0 40       		.uleb128 0x40
 9477 02c1 06       		.uleb128 0x6
 9478 02c2 01       		.uleb128 0x1
 9479 02c3 13       		.uleb128 0x13
 9480 02c4 00       		.byte	0
 9481 02c5 00       		.byte	0
 9482 02c6 37       		.uleb128 0x37
 9483 02c7 1D       		.uleb128 0x1d
 9484 02c8 01       		.byte	0x1
 9485 02c9 31       		.uleb128 0x31
 9486 02ca 13       		.uleb128 0x13
ARM GAS  /var/folders/5n/p_75w94d66l9ssrldxqdhh700000gn/T//cciPPkzE.s 			page 168


 9487 02cb 52       		.uleb128 0x52
 9488 02cc 01       		.uleb128 0x1
 9489 02cd 55       		.uleb128 0x55
 9490 02ce 06       		.uleb128 0x6
 9491 02cf 58       		.uleb128 0x58
 9492 02d0 0B       		.uleb128 0xb
 9493 02d1 59       		.uleb128 0x59
 9494 02d2 05       		.uleb128 0x5
 9495 02d3 01       		.uleb128 0x1
 9496 02d4 13       		.uleb128 0x13
 9497 02d5 00       		.byte	0
 9498 02d6 00       		.byte	0
 9499 02d7 38       		.uleb128 0x38
 9500 02d8 05       		.uleb128 0x5
 9501 02d9 00       		.byte	0
 9502 02da 03       		.uleb128 0x3
 9503 02db 08       		.uleb128 0x8
 9504 02dc 3A       		.uleb128 0x3a
 9505 02dd 0B       		.uleb128 0xb
 9506 02de 3B       		.uleb128 0x3b
 9507 02df 05       		.uleb128 0x5
 9508 02e0 49       		.uleb128 0x49
 9509 02e1 13       		.uleb128 0x13
 9510 02e2 02       		.uleb128 0x2
 9511 02e3 0A       		.uleb128 0xa
 9512 02e4 00       		.byte	0
 9513 02e5 00       		.byte	0
 9514 02e6 39       		.uleb128 0x39
 9515 02e7 34       		.uleb128 0x34
 9516 02e8 00       		.byte	0
 9517 02e9 03       		.uleb128 0x3
 9518 02ea 08       		.uleb128 0x8
 9519 02eb 3A       		.uleb128 0x3a
 9520 02ec 0B       		.uleb128 0xb
 9521 02ed 3B       		.uleb128 0x3b
 9522 02ee 05       		.uleb128 0x5
 9523 02ef 49       		.uleb128 0x49
 9524 02f0 13       		.uleb128 0x13
 9525 02f1 00       		.byte	0
 9526 02f2 00       		.byte	0
 9527 02f3 3A       		.uleb128 0x3a
 9528 02f4 05       		.uleb128 0x5
 9529 02f5 00       		.byte	0
 9530 02f6 31       		.uleb128 0x31
 9531 02f7 13       		.uleb128 0x13
 9532 02f8 00       		.byte	0
 9533 02f9 00       		.byte	0
 9534 02fa 3B       		.uleb128 0x3b
 9535 02fb 2E       		.uleb128 0x2e
 9536 02fc 01       		.byte	0x1
 9537 02fd 3F       		.uleb128 0x3f
 9538 02fe 0C       		.uleb128 0xc
 9539 02ff 03       		.uleb128 0x3
 9540 0300 0E       		.uleb128 0xe
 9541 0301 3A       		.uleb128 0x3a
 9542 0302 0B       		.uleb128 0xb
 9543 0303 3B       		.uleb128 0x3b
ARM GAS  /var/folders/5n/p_75w94d66l9ssrldxqdhh700000gn/T//cciPPkzE.s 			page 169


 9544 0304 05       		.uleb128 0x5
 9545 0305 27       		.uleb128 0x27
 9546 0306 0C       		.uleb128 0xc
 9547 0307 49       		.uleb128 0x49
 9548 0308 13       		.uleb128 0x13
 9549 0309 11       		.uleb128 0x11
 9550 030a 01       		.uleb128 0x1
 9551 030b 12       		.uleb128 0x12
 9552 030c 01       		.uleb128 0x1
 9553 030d 40       		.uleb128 0x40
 9554 030e 0A       		.uleb128 0xa
 9555 030f 01       		.uleb128 0x1
 9556 0310 13       		.uleb128 0x13
 9557 0311 00       		.byte	0
 9558 0312 00       		.byte	0
 9559 0313 3C       		.uleb128 0x3c
 9560 0314 0A       		.uleb128 0xa
 9561 0315 00       		.byte	0
 9562 0316 03       		.uleb128 0x3
 9563 0317 0E       		.uleb128 0xe
 9564 0318 3A       		.uleb128 0x3a
 9565 0319 0B       		.uleb128 0xb
 9566 031a 3B       		.uleb128 0x3b
 9567 031b 05       		.uleb128 0x5
 9568 031c 11       		.uleb128 0x11
 9569 031d 01       		.uleb128 0x1
 9570 031e 00       		.byte	0
 9571 031f 00       		.byte	0
 9572 0320 3D       		.uleb128 0x3d
 9573 0321 0B       		.uleb128 0xb
 9574 0322 01       		.byte	0x1
 9575 0323 55       		.uleb128 0x55
 9576 0324 06       		.uleb128 0x6
 9577 0325 01       		.uleb128 0x1
 9578 0326 13       		.uleb128 0x13
 9579 0327 00       		.byte	0
 9580 0328 00       		.byte	0
 9581 0329 3E       		.uleb128 0x3e
 9582 032a 1D       		.uleb128 0x1d
 9583 032b 01       		.byte	0x1
 9584 032c 31       		.uleb128 0x31
 9585 032d 13       		.uleb128 0x13
 9586 032e 11       		.uleb128 0x11
 9587 032f 01       		.uleb128 0x1
 9588 0330 12       		.uleb128 0x12
 9589 0331 01       		.uleb128 0x1
 9590 0332 58       		.uleb128 0x58
 9591 0333 0B       		.uleb128 0xb
 9592 0334 59       		.uleb128 0x59
 9593 0335 05       		.uleb128 0x5
 9594 0336 00       		.byte	0
 9595 0337 00       		.byte	0
 9596 0338 3F       		.uleb128 0x3f
 9597 0339 34       		.uleb128 0x34
 9598 033a 00       		.byte	0
 9599 033b 03       		.uleb128 0x3
 9600 033c 0E       		.uleb128 0xe
ARM GAS  /var/folders/5n/p_75w94d66l9ssrldxqdhh700000gn/T//cciPPkzE.s 			page 170


 9601 033d 3A       		.uleb128 0x3a
 9602 033e 0B       		.uleb128 0xb
 9603 033f 3B       		.uleb128 0x3b
 9604 0340 0B       		.uleb128 0xb
 9605 0341 49       		.uleb128 0x49
 9606 0342 13       		.uleb128 0x13
 9607 0343 02       		.uleb128 0x2
 9608 0344 0A       		.uleb128 0xa
 9609 0345 00       		.byte	0
 9610 0346 00       		.byte	0
 9611 0347 00       		.byte	0
 9612              		.section	.debug_loc,"",%progbits
 9613              	.Ldebug_loc0:
 9614              	.LLST0:
 9615 0000 00000000 		.4byte	.LFB34
 9616 0004 02000000 		.4byte	.LCFI0
 9617 0008 0200     		.2byte	0x2
 9618 000a 7D       		.byte	0x7d
 9619 000b 00       		.sleb128 0
 9620 000c 02000000 		.4byte	.LCFI0
 9621 0010 04000000 		.4byte	.LCFI1
 9622 0014 0200     		.2byte	0x2
 9623 0016 7D       		.byte	0x7d
 9624 0017 08       		.sleb128 8
 9625 0018 04000000 		.4byte	.LCFI1
 9626 001c F4000000 		.4byte	.LFE34
 9627 0020 0200     		.2byte	0x2
 9628 0022 7D       		.byte	0x7d
 9629 0023 10       		.sleb128 16
 9630 0024 00000000 		.4byte	0
 9631 0028 00000000 		.4byte	0
 9632              	.LLST1:
 9633 002c 00000000 		.4byte	.LVL0
 9634 0030 08000000 		.4byte	.LVL1
 9635 0034 0100     		.2byte	0x1
 9636 0036 50       		.byte	0x50
 9637 0037 B6000000 		.4byte	.LVL28
 9638 003b BB000000 		.4byte	.LVL29-1
 9639 003f 0100     		.2byte	0x1
 9640 0041 50       		.byte	0x50
 9641 0042 00000000 		.4byte	0
 9642 0046 00000000 		.4byte	0
 9643              	.LLST2:
 9644 004a 0C000000 		.4byte	.LVL2
 9645 004e 18000000 		.4byte	.LVL5
 9646 0052 0200     		.2byte	0x2
 9647 0054 70       		.byte	0x70
 9648 0055 00       		.sleb128 0
 9649 0056 18000000 		.4byte	.LVL5
 9650 005a B6000000 		.4byte	.LVL28
 9651 005e 0100     		.2byte	0x1
 9652 0060 54       		.byte	0x54
 9653 0061 C0000000 		.4byte	.LVL30
 9654 0065 F4000000 		.4byte	.LFE34
 9655 0069 0100     		.2byte	0x1
 9656 006b 54       		.byte	0x54
 9657 006c 00000000 		.4byte	0
ARM GAS  /var/folders/5n/p_75w94d66l9ssrldxqdhh700000gn/T//cciPPkzE.s 			page 171


 9658 0070 00000000 		.4byte	0
 9659              	.LLST3:
 9660 0074 0C000000 		.4byte	.LVL2
 9661 0078 18000000 		.4byte	.LVL5
 9662 007c 0200     		.2byte	0x2
 9663 007e 70       		.byte	0x70
 9664 007f 04       		.sleb128 4
 9665 0080 18000000 		.4byte	.LVL5
 9666 0084 1E000000 		.4byte	.LVL6
 9667 0088 0100     		.2byte	0x1
 9668 008a 53       		.byte	0x53
 9669 008b 30000000 		.4byte	.LVL8
 9670 008f 3A000000 		.4byte	.LVL9
 9671 0093 0100     		.2byte	0x1
 9672 0095 53       		.byte	0x53
 9673 0096 44000000 		.4byte	.LVL11
 9674 009a 4C000000 		.4byte	.LVL12
 9675 009e 0100     		.2byte	0x1
 9676 00a0 53       		.byte	0x53
 9677 00a1 68000000 		.4byte	.LVL15
 9678 00a5 76000000 		.4byte	.LVL18
 9679 00a9 0100     		.2byte	0x1
 9680 00ab 53       		.byte	0x53
 9681 00ac 7C000000 		.4byte	.LVL19
 9682 00b0 7E000000 		.4byte	.LVL20
 9683 00b4 0100     		.2byte	0x1
 9684 00b6 53       		.byte	0x53
 9685 00b7 7E000000 		.4byte	.LVL20
 9686 00bb 94000000 		.4byte	.LVL22
 9687 00bf 0200     		.2byte	0x2
 9688 00c1 70       		.byte	0x70
 9689 00c2 04       		.sleb128 4
 9690 00c3 96000000 		.4byte	.LVL23
 9691 00c7 98000000 		.4byte	.LVL24
 9692 00cb 0100     		.2byte	0x1
 9693 00cd 53       		.byte	0x53
 9694 00ce E0000000 		.4byte	.LVL35
 9695 00d2 F2000000 		.4byte	.LVL37
 9696 00d6 0200     		.2byte	0x2
 9697 00d8 70       		.byte	0x70
 9698 00d9 04       		.sleb128 4
 9699 00da 00000000 		.4byte	0
 9700 00de 00000000 		.4byte	0
 9701              	.LLST4:
 9702 00e2 0E000000 		.4byte	.LVL3
 9703 00e6 18000000 		.4byte	.LVL5
 9704 00ea 0200     		.2byte	0x2
 9705 00ec 70       		.byte	0x70
 9706 00ed 08       		.sleb128 8
 9707 00ee 18000000 		.4byte	.LVL5
 9708 00f2 21000000 		.4byte	.LVL7-1
 9709 00f6 0100     		.2byte	0x1
 9710 00f8 52       		.byte	0x52
 9711 00f9 30000000 		.4byte	.LVL8
 9712 00fd 3C000000 		.4byte	.LVL10
 9713 0101 0100     		.2byte	0x1
 9714 0103 52       		.byte	0x52
ARM GAS  /var/folders/5n/p_75w94d66l9ssrldxqdhh700000gn/T//cciPPkzE.s 			page 172


 9715 0104 44000000 		.4byte	.LVL11
 9716 0108 62000000 		.4byte	.LVL14
 9717 010c 0100     		.2byte	0x1
 9718 010e 52       		.byte	0x52
 9719 010f 68000000 		.4byte	.LVL15
 9720 0113 74000000 		.4byte	.LVL17
 9721 0117 0100     		.2byte	0x1
 9722 0119 52       		.byte	0x52
 9723 011a 7C000000 		.4byte	.LVL19
 9724 011e 8A000000 		.4byte	.LVL21
 9725 0122 0100     		.2byte	0x1
 9726 0124 52       		.byte	0x52
 9727 0125 8A000000 		.4byte	.LVL21
 9728 0129 94000000 		.4byte	.LVL22
 9729 012d 0200     		.2byte	0x2
 9730 012f 70       		.byte	0x70
 9731 0130 08       		.sleb128 8
 9732 0131 96000000 		.4byte	.LVL23
 9733 0135 9A000000 		.4byte	.LVL25
 9734 0139 0100     		.2byte	0x1
 9735 013b 52       		.byte	0x52
 9736 013c A2000000 		.4byte	.LVL26
 9737 0140 AC000000 		.4byte	.LVL27
 9738 0144 0100     		.2byte	0x1
 9739 0146 52       		.byte	0x52
 9740 0147 C0000000 		.4byte	.LVL30
 9741 014b C6000000 		.4byte	.LVL31
 9742 014f 0100     		.2byte	0x1
 9743 0151 52       		.byte	0x52
 9744 0152 D0000000 		.4byte	.LVL32
 9745 0156 DA000000 		.4byte	.LVL34
 9746 015a 0100     		.2byte	0x1
 9747 015c 52       		.byte	0x52
 9748 015d E0000000 		.4byte	.LVL35
 9749 0161 E8000000 		.4byte	.LVL36
 9750 0165 0100     		.2byte	0x1
 9751 0167 52       		.byte	0x52
 9752 0168 E8000000 		.4byte	.LVL36
 9753 016c F2000000 		.4byte	.LVL37
 9754 0170 0200     		.2byte	0x2
 9755 0172 70       		.byte	0x70
 9756 0173 08       		.sleb128 8
 9757 0174 00000000 		.4byte	0
 9758 0178 00000000 		.4byte	0
 9759              	.LLST5:
 9760 017c 10000000 		.4byte	.LVL4
 9761 0180 18000000 		.4byte	.LVL5
 9762 0184 0200     		.2byte	0x2
 9763 0186 70       		.byte	0x70
 9764 0187 0C       		.sleb128 12
 9765 0188 18000000 		.4byte	.LVL5
 9766 018c 21000000 		.4byte	.LVL7-1
 9767 0190 0100     		.2byte	0x1
 9768 0192 51       		.byte	0x51
 9769 0193 30000000 		.4byte	.LVL8
 9770 0197 60000000 		.4byte	.LVL13
 9771 019b 0100     		.2byte	0x1
ARM GAS  /var/folders/5n/p_75w94d66l9ssrldxqdhh700000gn/T//cciPPkzE.s 			page 173


 9772 019d 51       		.byte	0x51
 9773 019e 68000000 		.4byte	.LVL15
 9774 01a2 B6000000 		.4byte	.LVL28
 9775 01a6 0100     		.2byte	0x1
 9776 01a8 51       		.byte	0x51
 9777 01a9 C0000000 		.4byte	.LVL30
 9778 01ad D6000000 		.4byte	.LVL33
 9779 01b1 0100     		.2byte	0x1
 9780 01b3 51       		.byte	0x51
 9781 01b4 E0000000 		.4byte	.LVL35
 9782 01b8 F4000000 		.4byte	.LFE34
 9783 01bc 0100     		.2byte	0x1
 9784 01be 51       		.byte	0x51
 9785 01bf 00000000 		.4byte	0
 9786 01c3 00000000 		.4byte	0
 9787              	.LLST6:
 9788 01c7 08000000 		.4byte	.LVL1
 9789 01cb 18000000 		.4byte	.LVL5
 9790 01cf 0100     		.2byte	0x1
 9791 01d1 50       		.byte	0x50
 9792 01d2 68000000 		.4byte	.LVL15
 9793 01d6 72000000 		.4byte	.LVL16
 9794 01da 0100     		.2byte	0x1
 9795 01dc 50       		.byte	0x50
 9796 01dd 7C000000 		.4byte	.LVL19
 9797 01e1 94000000 		.4byte	.LVL22
 9798 01e5 0100     		.2byte	0x1
 9799 01e7 50       		.byte	0x50
 9800 01e8 E0000000 		.4byte	.LVL35
 9801 01ec F2000000 		.4byte	.LVL37
 9802 01f0 0100     		.2byte	0x1
 9803 01f2 50       		.byte	0x50
 9804 01f3 00000000 		.4byte	0
 9805 01f7 00000000 		.4byte	0
 9806              	.LLST7:
 9807 01fb 00000000 		.4byte	.LFB32
 9808 01ff 02000000 		.4byte	.LCFI2
 9809 0203 0200     		.2byte	0x2
 9810 0205 7D       		.byte	0x7d
 9811 0206 00       		.sleb128 0
 9812 0207 02000000 		.4byte	.LCFI2
 9813 020b 04000000 		.4byte	.LCFI3
 9814 020f 0200     		.2byte	0x2
 9815 0211 7D       		.byte	0x7d
 9816 0212 08       		.sleb128 8
 9817 0213 04000000 		.4byte	.LCFI3
 9818 0217 10010000 		.4byte	.LFE32
 9819 021b 0200     		.2byte	0x2
 9820 021d 7D       		.byte	0x7d
 9821 021e 10       		.sleb128 16
 9822 021f 00000000 		.4byte	0
 9823 0223 00000000 		.4byte	0
 9824              	.LLST8:
 9825 0227 00000000 		.4byte	.LVL38
 9826 022b 08000000 		.4byte	.LVL39
 9827 022f 0100     		.2byte	0x1
 9828 0231 50       		.byte	0x50
ARM GAS  /var/folders/5n/p_75w94d66l9ssrldxqdhh700000gn/T//cciPPkzE.s 			page 174


 9829 0232 D6000000 		.4byte	.LVL63
 9830 0236 DB000000 		.4byte	.LVL64-1
 9831 023a 0100     		.2byte	0x1
 9832 023c 50       		.byte	0x50
 9833 023d 00000000 		.4byte	0
 9834 0241 00000000 		.4byte	0
 9835              	.LLST9:
 9836 0245 0C000000 		.4byte	.LVL40
 9837 0249 18000000 		.4byte	.LVL43
 9838 024d 0200     		.2byte	0x2
 9839 024f 70       		.byte	0x70
 9840 0250 00       		.sleb128 0
 9841 0251 18000000 		.4byte	.LVL43
 9842 0255 D6000000 		.4byte	.LVL63
 9843 0259 0100     		.2byte	0x1
 9844 025b 54       		.byte	0x54
 9845 025c E0000000 		.4byte	.LVL65
 9846 0260 10010000 		.4byte	.LFE32
 9847 0264 0100     		.2byte	0x1
 9848 0266 54       		.byte	0x54
 9849 0267 00000000 		.4byte	0
 9850 026b 00000000 		.4byte	0
 9851              	.LLST10:
 9852 026f 0C000000 		.4byte	.LVL40
 9853 0273 18000000 		.4byte	.LVL43
 9854 0277 0200     		.2byte	0x2
 9855 0279 70       		.byte	0x70
 9856 027a 04       		.sleb128 4
 9857 027b 18000000 		.4byte	.LVL43
 9858 027f 1E000000 		.4byte	.LVL44
 9859 0283 0100     		.2byte	0x1
 9860 0285 53       		.byte	0x53
 9861 0286 30000000 		.4byte	.LVL46
 9862 028a 3C000000 		.4byte	.LVL47
 9863 028e 0100     		.2byte	0x1
 9864 0290 53       		.byte	0x53
 9865 0291 42000000 		.4byte	.LVL48
 9866 0295 54000000 		.4byte	.LVL49
 9867 0299 0100     		.2byte	0x1
 9868 029b 53       		.byte	0x53
 9869 029c 5C000000 		.4byte	.LVL51
 9870 02a0 68000000 		.4byte	.LVL53
 9871 02a4 0100     		.2byte	0x1
 9872 02a6 53       		.byte	0x53
 9873 02a7 70000000 		.4byte	.LVL54
 9874 02ab 74000000 		.4byte	.LVL56
 9875 02af 0100     		.2byte	0x1
 9876 02b1 53       		.byte	0x53
 9877 02b2 80000000 		.4byte	.LVL57
 9878 02b6 84000000 		.4byte	.LVL58
 9879 02ba 0100     		.2byte	0x1
 9880 02bc 53       		.byte	0x53
 9881 02bd 8A000000 		.4byte	.LVL59
 9882 02c1 8E000000 		.4byte	.LVL60
 9883 02c5 0100     		.2byte	0x1
 9884 02c7 53       		.byte	0x53
 9885 02c8 00000000 		.4byte	0
ARM GAS  /var/folders/5n/p_75w94d66l9ssrldxqdhh700000gn/T//cciPPkzE.s 			page 175


 9886 02cc 00000000 		.4byte	0
 9887              	.LLST11:
 9888 02d0 0E000000 		.4byte	.LVL41
 9889 02d4 18000000 		.4byte	.LVL43
 9890 02d8 0200     		.2byte	0x2
 9891 02da 70       		.byte	0x70
 9892 02db 08       		.sleb128 8
 9893 02dc 18000000 		.4byte	.LVL43
 9894 02e0 21000000 		.4byte	.LVL45-1
 9895 02e4 0100     		.2byte	0x1
 9896 02e6 52       		.byte	0x52
 9897 02e7 30000000 		.4byte	.LVL46
 9898 02eb 58000000 		.4byte	.LVL50
 9899 02ef 0100     		.2byte	0x1
 9900 02f1 52       		.byte	0x52
 9901 02f2 5C000000 		.4byte	.LVL51
 9902 02f6 B8000000 		.4byte	.LVL61
 9903 02fa 0100     		.2byte	0x1
 9904 02fc 52       		.byte	0x52
 9905 02fd C8000000 		.4byte	.LVL62
 9906 0301 D6000000 		.4byte	.LVL63
 9907 0305 0100     		.2byte	0x1
 9908 0307 52       		.byte	0x52
 9909 0308 E0000000 		.4byte	.LVL65
 9910 030c E4000000 		.4byte	.LVL66
 9911 0310 0100     		.2byte	0x1
 9912 0312 52       		.byte	0x52
 9913 0313 00000000 		.4byte	0
 9914 0317 00000000 		.4byte	0
 9915              	.LLST12:
 9916 031b 10000000 		.4byte	.LVL42
 9917 031f 18000000 		.4byte	.LVL43
 9918 0323 0200     		.2byte	0x2
 9919 0325 70       		.byte	0x70
 9920 0326 0C       		.sleb128 12
 9921 0327 18000000 		.4byte	.LVL43
 9922 032b 21000000 		.4byte	.LVL45-1
 9923 032f 0100     		.2byte	0x1
 9924 0331 51       		.byte	0x51
 9925 0332 30000000 		.4byte	.LVL46
 9926 0336 D6000000 		.4byte	.LVL63
 9927 033a 0100     		.2byte	0x1
 9928 033c 51       		.byte	0x51
 9929 033d E0000000 		.4byte	.LVL65
 9930 0341 10010000 		.4byte	.LFE32
 9931 0345 0100     		.2byte	0x1
 9932 0347 51       		.byte	0x51
 9933 0348 00000000 		.4byte	0
 9934 034c 00000000 		.4byte	0
 9935              	.LLST13:
 9936 0350 08000000 		.4byte	.LVL39
 9937 0354 18000000 		.4byte	.LVL43
 9938 0358 0100     		.2byte	0x1
 9939 035a 50       		.byte	0x50
 9940 035b 5C000000 		.4byte	.LVL51
 9941 035f 66000000 		.4byte	.LVL52
 9942 0363 0100     		.2byte	0x1
ARM GAS  /var/folders/5n/p_75w94d66l9ssrldxqdhh700000gn/T//cciPPkzE.s 			page 176


 9943 0365 50       		.byte	0x50
 9944 0366 70000000 		.4byte	.LVL54
 9945 036a 72000000 		.4byte	.LVL55
 9946 036e 0100     		.2byte	0x1
 9947 0370 50       		.byte	0x50
 9948 0371 00000000 		.4byte	0
 9949 0375 00000000 		.4byte	0
 9950              	.LLST14:
 9951 0379 00000000 		.4byte	.LFB26
 9952 037d 04000000 		.4byte	.LCFI4
 9953 0381 0200     		.2byte	0x2
 9954 0383 7D       		.byte	0x7d
 9955 0384 00       		.sleb128 0
 9956 0385 04000000 		.4byte	.LCFI4
 9957 0389 00010000 		.4byte	.LFE26
 9958 038d 0200     		.2byte	0x2
 9959 038f 7D       		.byte	0x7d
 9960 0390 20       		.sleb128 32
 9961 0391 00000000 		.4byte	0
 9962 0395 00000000 		.4byte	0
 9963              	.LLST15:
 9964 0399 00000000 		.4byte	.LVL67
 9965 039d 36000000 		.4byte	.LVL73
 9966 03a1 0100     		.2byte	0x1
 9967 03a3 50       		.byte	0x50
 9968 03a4 3A000000 		.4byte	.LVL74
 9969 03a8 3E000000 		.4byte	.LVL75
 9970 03ac 0100     		.2byte	0x1
 9971 03ae 50       		.byte	0x50
 9972 03af C4000000 		.4byte	.LVL89
 9973 03b3 E3000000 		.4byte	.LVL90-1
 9974 03b7 0100     		.2byte	0x1
 9975 03b9 50       		.byte	0x50
 9976 03ba EA000000 		.4byte	.LVL93
 9977 03be 00010000 		.4byte	.LFE26
 9978 03c2 0100     		.2byte	0x1
 9979 03c4 50       		.byte	0x50
 9980 03c5 00000000 		.4byte	0
 9981 03c9 00000000 		.4byte	0
 9982              	.LLST16:
 9983 03cd 00000000 		.4byte	.LVL67
 9984 03d1 36000000 		.4byte	.LVL73
 9985 03d5 0100     		.2byte	0x1
 9986 03d7 51       		.byte	0x51
 9987 03d8 3A000000 		.4byte	.LVL74
 9988 03dc 3E000000 		.4byte	.LVL75
 9989 03e0 0100     		.2byte	0x1
 9990 03e2 51       		.byte	0x51
 9991 03e3 C4000000 		.4byte	.LVL89
 9992 03e7 E3000000 		.4byte	.LVL90-1
 9993 03eb 0100     		.2byte	0x1
 9994 03ed 51       		.byte	0x51
 9995 03ee EA000000 		.4byte	.LVL93
 9996 03f2 00010000 		.4byte	.LFE26
 9997 03f6 0100     		.2byte	0x1
 9998 03f8 51       		.byte	0x51
 9999 03f9 00000000 		.4byte	0
ARM GAS  /var/folders/5n/p_75w94d66l9ssrldxqdhh700000gn/T//cciPPkzE.s 			page 177


 10000 03fd 00000000 		.4byte	0
 10001              	.LLST17:
 10002 0401 00000000 		.4byte	.LVL67
 10003 0405 1C000000 		.4byte	.LVL70
 10004 0409 0100     		.2byte	0x1
 10005 040b 52       		.byte	0x52
 10006 040c 32000000 		.4byte	.LVL72
 10007 0410 36000000 		.4byte	.LVL73
 10008 0414 0100     		.2byte	0x1
 10009 0416 52       		.byte	0x52
 10010 0417 EA000000 		.4byte	.LVL93
 10011 041b 00010000 		.4byte	.LFE26
 10012 041f 0100     		.2byte	0x1
 10013 0421 52       		.byte	0x52
 10014 0422 00000000 		.4byte	0
 10015 0426 00000000 		.4byte	0
 10016              	.LLST18:
 10017 042a 0A000000 		.4byte	.LVL68
 10018 042e 36000000 		.4byte	.LVL73
 10019 0432 0200     		.2byte	0x2
 10020 0434 70       		.byte	0x70
 10021 0435 18       		.sleb128 24
 10022 0436 3A000000 		.4byte	.LVL74
 10023 043a 00010000 		.4byte	.LFE26
 10024 043e 0100     		.2byte	0x1
 10025 0440 58       		.byte	0x58
 10026 0441 00000000 		.4byte	0
 10027 0445 00000000 		.4byte	0
 10028              	.LLST19:
 10029 0449 52000000 		.4byte	.LVL76
 10030 044d 74000000 		.4byte	.LVL79
 10031 0451 0100     		.2byte	0x1
 10032 0453 54       		.byte	0x54
 10033 0454 76000000 		.4byte	.LVL80
 10034 0458 7A000000 		.4byte	.LVL81
 10035 045c 0500     		.2byte	0x5
 10036 045e 03       		.byte	0x3
 10037 045f 00000000 		.4byte	select_cb_list
 10038 0463 7A000000 		.4byte	.LVL81
 10039 0467 C4000000 		.4byte	.LVL89
 10040 046b 0100     		.2byte	0x1
 10041 046d 54       		.byte	0x54
 10042 046e E6000000 		.4byte	.LVL91
 10043 0472 EA000000 		.4byte	.LVL93
 10044 0476 0100     		.2byte	0x1
 10045 0478 54       		.byte	0x54
 10046 0479 00000000 		.4byte	0
 10047 047d 00000000 		.4byte	0
 10048              	.LLST20:
 10049 0481 6E000000 		.4byte	.LVL78
 10050 0485 74000000 		.4byte	.LVL79
 10051 0489 0100     		.2byte	0x1
 10052 048b 52       		.byte	0x52
 10053 048c B6000000 		.4byte	.LVL86
 10054 0490 C4000000 		.4byte	.LVL89
 10055 0494 0100     		.2byte	0x1
 10056 0496 52       		.byte	0x52
ARM GAS  /var/folders/5n/p_75w94d66l9ssrldxqdhh700000gn/T//cciPPkzE.s 			page 178


 10057 0497 00000000 		.4byte	0
 10058 049b 00000000 		.4byte	0
 10059              	.LLST21:
 10060 049f 10000000 		.4byte	.LVL69
 10061 04a3 32000000 		.4byte	.LVL72
 10062 04a7 0200     		.2byte	0x2
 10063 04a9 70       		.byte	0x70
 10064 04aa 18       		.sleb128 24
 10065 04ab 3A000000 		.4byte	.LVL74
 10066 04af EA000000 		.4byte	.LVL93
 10067 04b3 0100     		.2byte	0x1
 10068 04b5 58       		.byte	0x58
 10069 04b6 00000000 		.4byte	0
 10070 04ba 00000000 		.4byte	0
 10071              	.LLST22:
 10072 04be 20000000 		.4byte	.LVL71
 10073 04c2 32000000 		.4byte	.LVL72
 10074 04c6 0100     		.2byte	0x1
 10075 04c8 56       		.byte	0x56
 10076 04c9 3A000000 		.4byte	.LVL74
 10077 04cd EA000000 		.4byte	.LVL93
 10078 04d1 0100     		.2byte	0x1
 10079 04d3 56       		.byte	0x56
 10080 04d4 00000000 		.4byte	0
 10081 04d8 00000000 		.4byte	0
 10082              	.LLST23:
 10083 04dc 52000000 		.4byte	.LVL76
 10084 04e0 56000000 		.4byte	.LVL77
 10085 04e4 0100     		.2byte	0x1
 10086 04e6 53       		.byte	0x53
 10087 04e7 80000000 		.4byte	.LVL82
 10088 04eb 96000000 		.4byte	.LVL83
 10089 04ef 0200     		.2byte	0x2
 10090 04f1 30       		.byte	0x30
 10091 04f2 9F       		.byte	0x9f
 10092 04f3 96000000 		.4byte	.LVL83
 10093 04f7 A2000000 		.4byte	.LVL84
 10094 04fb 0100     		.2byte	0x1
 10095 04fd 53       		.byte	0x53
 10096 04fe AA000000 		.4byte	.LVL85
 10097 0502 B8000000 		.4byte	.LVL87
 10098 0506 0100     		.2byte	0x1
 10099 0508 53       		.byte	0x53
 10100 0509 E6000000 		.4byte	.LVL91
 10101 050d E8000000 		.4byte	.LVL92
 10102 0511 0100     		.2byte	0x1
 10103 0513 53       		.byte	0x53
 10104 0514 00000000 		.4byte	0
 10105 0518 00000000 		.4byte	0
 10106              	.LLST24:
 10107 051c 00000000 		.4byte	.LFB24
 10108 0520 04000000 		.4byte	.LCFI5
 10109 0524 0200     		.2byte	0x2
 10110 0526 7D       		.byte	0x7d
 10111 0527 00       		.sleb128 0
 10112 0528 04000000 		.4byte	.LCFI5
 10113 052c 06000000 		.4byte	.LCFI6
ARM GAS  /var/folders/5n/p_75w94d66l9ssrldxqdhh700000gn/T//cciPPkzE.s 			page 179


 10114 0530 0200     		.2byte	0x2
 10115 0532 7D       		.byte	0x7d
 10116 0533 20       		.sleb128 32
 10117 0534 06000000 		.4byte	.LCFI6
 10118 0538 3E010000 		.4byte	.LFE24
 10119 053c 0200     		.2byte	0x2
 10120 053e 7D       		.byte	0x7d
 10121 053f 38       		.sleb128 56
 10122 0540 00000000 		.4byte	0
 10123 0544 00000000 		.4byte	0
 10124              	.LLST25:
 10125 0548 00000000 		.4byte	.LVL94
 10126 054c 1A000000 		.4byte	.LVL96
 10127 0550 0100     		.2byte	0x1
 10128 0552 50       		.byte	0x50
 10129 0553 1A000000 		.4byte	.LVL96
 10130 0557 3E010000 		.4byte	.LFE24
 10131 055b 0200     		.2byte	0x2
 10132 055d 91       		.byte	0x91
 10133 055e 4C       		.sleb128 -52
 10134 055f 00000000 		.4byte	0
 10135 0563 00000000 		.4byte	0
 10136              	.LLST26:
 10137 0567 00000000 		.4byte	.LVL94
 10138 056b 1E010000 		.4byte	.LVL111
 10139 056f 0100     		.2byte	0x1
 10140 0571 51       		.byte	0x51
 10141 0572 34010000 		.4byte	.LVL113
 10142 0576 3E010000 		.4byte	.LFE24
 10143 057a 0100     		.2byte	0x1
 10144 057c 51       		.byte	0x51
 10145 057d 00000000 		.4byte	0
 10146 0581 00000000 		.4byte	0
 10147              	.LLST27:
 10148 0585 00000000 		.4byte	.LVL94
 10149 0589 26010000 		.4byte	.LVL112
 10150 058d 0100     		.2byte	0x1
 10151 058f 52       		.byte	0x52
 10152 0590 34010000 		.4byte	.LVL113
 10153 0594 3E010000 		.4byte	.LFE24
 10154 0598 0100     		.2byte	0x1
 10155 059a 52       		.byte	0x52
 10156 059b 00000000 		.4byte	0
 10157 059f 00000000 		.4byte	0
 10158              	.LLST28:
 10159 05a3 00000000 		.4byte	.LVL94
 10160 05a7 16010000 		.4byte	.LVL110
 10161 05ab 0100     		.2byte	0x1
 10162 05ad 53       		.byte	0x53
 10163 05ae 34010000 		.4byte	.LVL113
 10164 05b2 3E010000 		.4byte	.LFE24
 10165 05b6 0100     		.2byte	0x1
 10166 05b8 53       		.byte	0x53
 10167 05b9 00000000 		.4byte	0
 10168 05bd 00000000 		.4byte	0
 10169              	.LLST29:
 10170 05c1 18000000 		.4byte	.LVL95
ARM GAS  /var/folders/5n/p_75w94d66l9ssrldxqdhh700000gn/T//cciPPkzE.s 			page 180


 10171 05c5 1E000000 		.4byte	.LVL97
 10172 05c9 0200     		.2byte	0x2
 10173 05cb 30       		.byte	0x30
 10174 05cc 9F       		.byte	0x9f
 10175 05cd 0E010000 		.4byte	.LVL108
 10176 05d1 14010000 		.4byte	.LVL109
 10177 05d5 0100     		.2byte	0x1
 10178 05d7 54       		.byte	0x54
 10179 05d8 00000000 		.4byte	0
 10180 05dc 00000000 		.4byte	0
 10181              	.LLST30:
 10182 05e0 00000000 		.4byte	.LVL94
 10183 05e4 1E000000 		.4byte	.LVL97
 10184 05e8 0200     		.2byte	0x2
 10185 05ea 30       		.byte	0x30
 10186 05eb 9F       		.byte	0x9f
 10187 05ec 90000000 		.4byte	.LVL103
 10188 05f0 14010000 		.4byte	.LVL109
 10189 05f4 0100     		.2byte	0x1
 10190 05f6 50       		.byte	0x50
 10191 05f7 00000000 		.4byte	0
 10192 05fb 00000000 		.4byte	0
 10193              	.LLST31:
 10194 05ff 1E000000 		.4byte	.LVL97
 10195 0603 42000000 		.4byte	.LVL98
 10196 0607 0200     		.2byte	0x2
 10197 0609 30       		.byte	0x30
 10198 060a 9F       		.byte	0x9f
 10199 060b 42000000 		.4byte	.LVL98
 10200 060f 4C000000 		.4byte	.LVL101
 10201 0613 0200     		.2byte	0x2
 10202 0615 75       		.byte	0x75
 10203 0616 04       		.sleb128 4
 10204 0617 4C000000 		.4byte	.LVL101
 10205 061b 14010000 		.4byte	.LVL109
 10206 061f 0100     		.2byte	0x1
 10207 0621 5B       		.byte	0x5b
 10208 0622 34010000 		.4byte	.LVL113
 10209 0626 3E010000 		.4byte	.LFE24
 10210 062a 0200     		.2byte	0x2
 10211 062c 30       		.byte	0x30
 10212 062d 9F       		.byte	0x9f
 10213 062e 00000000 		.4byte	0
 10214 0632 00000000 		.4byte	0
 10215              	.LLST32:
 10216 0636 1E000000 		.4byte	.LVL97
 10217 063a 46000000 		.4byte	.LVL99
 10218 063e 0200     		.2byte	0x2
 10219 0640 30       		.byte	0x30
 10220 0641 9F       		.byte	0x9f
 10221 0642 46000000 		.4byte	.LVL99
 10222 0646 68000000 		.4byte	.LVL102
 10223 064a 0100     		.2byte	0x1
 10224 064c 5A       		.byte	0x5a
 10225 064d 34010000 		.4byte	.LVL113
 10226 0651 3E010000 		.4byte	.LFE24
 10227 0655 0200     		.2byte	0x2
ARM GAS  /var/folders/5n/p_75w94d66l9ssrldxqdhh700000gn/T//cciPPkzE.s 			page 181


 10228 0657 30       		.byte	0x30
 10229 0658 9F       		.byte	0x9f
 10230 0659 00000000 		.4byte	0
 10231 065d 00000000 		.4byte	0
 10232              	.LLST33:
 10233 0661 1E000000 		.4byte	.LVL97
 10234 0665 4A000000 		.4byte	.LVL100
 10235 0669 0200     		.2byte	0x2
 10236 066b 30       		.byte	0x30
 10237 066c 9F       		.byte	0x9f
 10238 066d 4A000000 		.4byte	.LVL100
 10239 0671 B0000000 		.4byte	.LVL104
 10240 0675 0100     		.2byte	0x1
 10241 0677 58       		.byte	0x58
 10242 0678 34010000 		.4byte	.LVL113
 10243 067c 3E010000 		.4byte	.LFE24
 10244 0680 0200     		.2byte	0x2
 10245 0682 30       		.byte	0x30
 10246 0683 9F       		.byte	0x9f
 10247 0684 00000000 		.4byte	0
 10248 0688 00000000 		.4byte	0
 10249              	.LLST34:
 10250 068c 1E000000 		.4byte	.LVL97
 10251 0690 4C000000 		.4byte	.LVL101
 10252 0694 0200     		.2byte	0x2
 10253 0696 30       		.byte	0x30
 10254 0697 9F       		.byte	0x9f
 10255 0698 4C000000 		.4byte	.LVL101
 10256 069c EE000000 		.4byte	.LVL106
 10257 06a0 0100     		.2byte	0x1
 10258 06a2 55       		.byte	0x55
 10259 06a3 34010000 		.4byte	.LVL113
 10260 06a7 3E010000 		.4byte	.LFE24
 10261 06ab 0200     		.2byte	0x2
 10262 06ad 30       		.byte	0x30
 10263 06ae 9F       		.byte	0x9f
 10264 06af 00000000 		.4byte	0
 10265 06b3 00000000 		.4byte	0
 10266              	.LLST35:
 10267 06b7 1E000000 		.4byte	.LVL97
 10268 06bb 0E010000 		.4byte	.LVL108
 10269 06bf 0100     		.2byte	0x1
 10270 06c1 54       		.byte	0x54
 10271 06c2 0E010000 		.4byte	.LVL108
 10272 06c6 14010000 		.4byte	.LVL109
 10273 06ca 0300     		.2byte	0x3
 10274 06cc 74       		.byte	0x74
 10275 06cd 7F       		.sleb128 -1
 10276 06ce 9F       		.byte	0x9f
 10277 06cf 34010000 		.4byte	.LVL113
 10278 06d3 3E010000 		.4byte	.LFE24
 10279 06d7 0100     		.2byte	0x1
 10280 06d9 54       		.byte	0x54
 10281 06da 00000000 		.4byte	0
 10282 06de 00000000 		.4byte	0
 10283              	.LLST36:
 10284 06e2 00000000 		.4byte	.LFB28
ARM GAS  /var/folders/5n/p_75w94d66l9ssrldxqdhh700000gn/T//cciPPkzE.s 			page 182


 10285 06e6 02000000 		.4byte	.LCFI7
 10286 06ea 0200     		.2byte	0x2
 10287 06ec 7D       		.byte	0x7d
 10288 06ed 00       		.sleb128 0
 10289 06ee 02000000 		.4byte	.LCFI7
 10290 06f2 06000000 		.4byte	.LCFI8
 10291 06f6 0200     		.2byte	0x2
 10292 06f8 7D       		.byte	0x7d
 10293 06f9 14       		.sleb128 20
 10294 06fa 06000000 		.4byte	.LCFI8
 10295 06fe 7C000000 		.4byte	.LFE28
 10296 0702 0200     		.2byte	0x2
 10297 0704 7D       		.byte	0x7d
 10298 0705 30       		.sleb128 48
 10299 0706 00000000 		.4byte	0
 10300 070a 00000000 		.4byte	0
 10301              	.LLST37:
 10302 070e 00000000 		.4byte	.LVL114
 10303 0712 10000000 		.4byte	.LVL115
 10304 0716 0100     		.2byte	0x1
 10305 0718 50       		.byte	0x50
 10306 0719 00000000 		.4byte	0
 10307 071d 00000000 		.4byte	0
 10308              	.LLST38:
 10309 0721 00000000 		.4byte	.LVL114
 10310 0725 28000000 		.4byte	.LVL118
 10311 0729 0100     		.2byte	0x1
 10312 072b 51       		.byte	0x51
 10313 072c 28000000 		.4byte	.LVL118
 10314 0730 7C000000 		.4byte	.LFE28
 10315 0734 0100     		.2byte	0x1
 10316 0736 56       		.byte	0x56
 10317 0737 00000000 		.4byte	0
 10318 073b 00000000 		.4byte	0
 10319              	.LLST39:
 10320 073f 00000000 		.4byte	.LVL114
 10321 0743 12000000 		.4byte	.LVL116
 10322 0747 0100     		.2byte	0x1
 10323 0749 52       		.byte	0x52
 10324 074a 12000000 		.4byte	.LVL116
 10325 074e 7C000000 		.4byte	.LFE28
 10326 0752 0100     		.2byte	0x1
 10327 0754 55       		.byte	0x55
 10328 0755 00000000 		.4byte	0
 10329 0759 00000000 		.4byte	0
 10330              	.LLST40:
 10331 075d 00000000 		.4byte	.LVL114
 10332 0761 47000000 		.4byte	.LVL119-1
 10333 0765 0100     		.2byte	0x1
 10334 0767 53       		.byte	0x53
 10335 0768 72000000 		.4byte	.LVL121
 10336 076c 7C000000 		.4byte	.LFE28
 10337 0770 0100     		.2byte	0x1
 10338 0772 53       		.byte	0x53
 10339 0773 00000000 		.4byte	0
 10340 0777 00000000 		.4byte	0
 10341              	.LLST42:
ARM GAS  /var/folders/5n/p_75w94d66l9ssrldxqdhh700000gn/T//cciPPkzE.s 			page 183


 10342 077b 16000000 		.4byte	.LVL117
 10343 077f 6E000000 		.4byte	.LVL120
 10344 0783 0100     		.2byte	0x1
 10345 0785 57       		.byte	0x57
 10346 0786 00000000 		.4byte	0
 10347 078a 00000000 		.4byte	0
 10348              	.LLST43:
 10349 078e 00000000 		.4byte	.LFB12
 10350 0792 04000000 		.4byte	.LCFI9
 10351 0796 0200     		.2byte	0x2
 10352 0798 7D       		.byte	0x7d
 10353 0799 00       		.sleb128 0
 10354 079a 04000000 		.4byte	.LCFI9
 10355 079e 08000000 		.4byte	.LCFI10
 10356 07a2 0200     		.2byte	0x2
 10357 07a4 7D       		.byte	0x7d
 10358 07a5 1C       		.sleb128 28
 10359 07a6 08000000 		.4byte	.LCFI10
 10360 07aa 60010000 		.4byte	.LFE12
 10361 07ae 0300     		.2byte	0x3
 10362 07b0 7D       		.byte	0x7d
 10363 07b1 C800     		.sleb128 72
 10364 07b3 00000000 		.4byte	0
 10365 07b7 00000000 		.4byte	0
 10366              	.LLST44:
 10367 07bb 00000000 		.4byte	.LVL122
 10368 07bf 0E000000 		.4byte	.LVL123
 10369 07c3 0100     		.2byte	0x1
 10370 07c5 50       		.byte	0x50
 10371 07c6 00000000 		.4byte	0
 10372 07ca 00000000 		.4byte	0
 10373              	.LLST45:
 10374 07ce 00000000 		.4byte	.LVL122
 10375 07d2 30000000 		.4byte	.LVL126
 10376 07d6 0100     		.2byte	0x1
 10377 07d8 51       		.byte	0x51
 10378 07d9 30000000 		.4byte	.LVL126
 10379 07dd BA000000 		.4byte	.LVL138
 10380 07e1 0100     		.2byte	0x1
 10381 07e3 57       		.byte	0x57
 10382 07e4 C2000000 		.4byte	.LVL139
 10383 07e8 C8000000 		.4byte	.LVL140
 10384 07ec 0100     		.2byte	0x1
 10385 07ee 51       		.byte	0x51
 10386 07ef C8000000 		.4byte	.LVL140
 10387 07f3 CA000000 		.4byte	.LVL141
 10388 07f7 0100     		.2byte	0x1
 10389 07f9 57       		.byte	0x57
 10390 07fa 12010000 		.4byte	.LVL144
 10391 07fe 60010000 		.4byte	.LFE12
 10392 0802 0100     		.2byte	0x1
 10393 0804 57       		.byte	0x57
 10394 0805 00000000 		.4byte	0
 10395 0809 00000000 		.4byte	0
 10396              	.LLST46:
 10397 080d 00000000 		.4byte	.LVL122
 10398 0811 33000000 		.4byte	.LVL127-1
ARM GAS  /var/folders/5n/p_75w94d66l9ssrldxqdhh700000gn/T//cciPPkzE.s 			page 184


 10399 0815 0100     		.2byte	0x1
 10400 0817 52       		.byte	0x52
 10401 0818 33000000 		.4byte	.LVL127-1
 10402 081c A0000000 		.4byte	.LVL134
 10403 0820 0100     		.2byte	0x1
 10404 0822 56       		.byte	0x56
 10405 0823 C2000000 		.4byte	.LVL139
 10406 0827 C8000000 		.4byte	.LVL140
 10407 082b 0100     		.2byte	0x1
 10408 082d 52       		.byte	0x52
 10409 082e 12010000 		.4byte	.LVL144
 10410 0832 52010000 		.4byte	.LVL153
 10411 0836 0100     		.2byte	0x1
 10412 0838 56       		.byte	0x56
 10413 0839 52010000 		.4byte	.LVL153
 10414 083d 60010000 		.4byte	.LFE12
 10415 0841 0100     		.2byte	0x1
 10416 0843 52       		.byte	0x52
 10417 0844 00000000 		.4byte	0
 10418 0848 00000000 		.4byte	0
 10419              	.LLST47:
 10420 084c 00010000 		.4byte	.LVL143
 10421 0850 12010000 		.4byte	.LVL144
 10422 0854 0100     		.2byte	0x1
 10423 0856 54       		.byte	0x54
 10424 0857 00000000 		.4byte	0
 10425 085b 00000000 		.4byte	0
 10426              	.LLST48:
 10427 085f 38000000 		.4byte	.LVL128
 10428 0863 C2000000 		.4byte	.LVL139
 10429 0867 0200     		.2byte	0x2
 10430 0869 91       		.byte	0x91
 10431 086a 54       		.sleb128 -44
 10432 086b C8000000 		.4byte	.LVL140
 10433 086f 20010000 		.4byte	.LVL147
 10434 0873 0200     		.2byte	0x2
 10435 0875 91       		.byte	0x91
 10436 0876 54       		.sleb128 -44
 10437 0877 2E010000 		.4byte	.LVL149
 10438 087b 4A010000 		.4byte	.LVL152
 10439 087f 0200     		.2byte	0x2
 10440 0881 91       		.byte	0x91
 10441 0882 54       		.sleb128 -44
 10442 0883 00000000 		.4byte	0
 10443 0887 00000000 		.4byte	0
 10444              	.LLST49:
 10445 088b 6C000000 		.4byte	.LVL132
 10446 088f C2000000 		.4byte	.LVL139
 10447 0893 0200     		.2byte	0x2
 10448 0895 91       		.byte	0x91
 10449 0896 5E       		.sleb128 -34
 10450 0897 C8000000 		.4byte	.LVL140
 10451 089b 12010000 		.4byte	.LVL144
 10452 089f 0200     		.2byte	0x2
 10453 08a1 91       		.byte	0x91
 10454 08a2 5E       		.sleb128 -34
 10455 08a3 00000000 		.4byte	0
ARM GAS  /var/folders/5n/p_75w94d66l9ssrldxqdhh700000gn/T//cciPPkzE.s 			page 185


 10456 08a7 00000000 		.4byte	0
 10457              	.LLST50:
 10458 08ab 34000000 		.4byte	.LVL127
 10459 08af 3A000000 		.4byte	.LVL129
 10460 08b3 0100     		.2byte	0x1
 10461 08b5 50       		.byte	0x50
 10462 08b6 52000000 		.4byte	.LVL130
 10463 08ba 5E000000 		.4byte	.LVL131
 10464 08be 0100     		.2byte	0x1
 10465 08c0 50       		.byte	0x50
 10466 08c1 1A010000 		.4byte	.LVL145
 10467 08c5 1D010000 		.4byte	.LVL146-1
 10468 08c9 0100     		.2byte	0x1
 10469 08cb 50       		.byte	0x50
 10470 08cc 20010000 		.4byte	.LVL147
 10471 08d0 22010000 		.4byte	.LVL148
 10472 08d4 0100     		.2byte	0x1
 10473 08d6 50       		.byte	0x50
 10474 08d7 32010000 		.4byte	.LVL150
 10475 08db 34010000 		.4byte	.LVL151
 10476 08df 0100     		.2byte	0x1
 10477 08e1 50       		.byte	0x50
 10478 08e2 00000000 		.4byte	0
 10479 08e6 00000000 		.4byte	0
 10480              	.LLST51:
 10481 08ea 00000000 		.4byte	.LVL122
 10482 08ee 12000000 		.4byte	.LVL124
 10483 08f2 0100     		.2byte	0x1
 10484 08f4 50       		.byte	0x50
 10485 08f5 00000000 		.4byte	0
 10486 08f9 00000000 		.4byte	0
 10487              	.LLST52:
 10488 08fd 18000000 		.4byte	.LVL125
 10489 0901 BA000000 		.4byte	.LVL138
 10490 0905 0100     		.2byte	0x1
 10491 0907 55       		.byte	0x55
 10492 0908 C8000000 		.4byte	.LVL140
 10493 090c 60010000 		.4byte	.LFE12
 10494 0910 0100     		.2byte	0x1
 10495 0912 55       		.byte	0x55
 10496 0913 00000000 		.4byte	0
 10497 0917 00000000 		.4byte	0
 10498              	.LLST53:
 10499 091b 9E000000 		.4byte	.LVL133
 10500 091f B4000000 		.4byte	.LVL137
 10501 0923 0200     		.2byte	0x2
 10502 0925 31       		.byte	0x31
 10503 0926 9F       		.byte	0x9f
 10504 0927 C8000000 		.4byte	.LVL140
 10505 092b 12010000 		.4byte	.LVL144
 10506 092f 0200     		.2byte	0x2
 10507 0931 31       		.byte	0x31
 10508 0932 9F       		.byte	0x9f
 10509 0933 00000000 		.4byte	0
 10510 0937 00000000 		.4byte	0
 10511              	.LLST54:
 10512 093b 9E000000 		.4byte	.LVL133
ARM GAS  /var/folders/5n/p_75w94d66l9ssrldxqdhh700000gn/T//cciPPkzE.s 			page 186


 10513 093f B1000000 		.4byte	.LVL136-1
 10514 0943 0200     		.2byte	0x2
 10515 0945 91       		.byte	0x91
 10516 0946 54       		.sleb128 -44
 10517 0947 C8000000 		.4byte	.LVL140
 10518 094b F7000000 		.4byte	.LVL142-1
 10519 094f 0100     		.2byte	0x1
 10520 0951 50       		.byte	0x50
 10521 0952 00000000 		.4byte	0
 10522 0956 00000000 		.4byte	0
 10523              	.LLST55:
 10524 095a 9E000000 		.4byte	.LVL133
 10525 095e A0000000 		.4byte	.LVL134
 10526 0962 0200     		.2byte	0x2
 10527 0964 30       		.byte	0x30
 10528 0965 9F       		.byte	0x9f
 10529 0966 AA000000 		.4byte	.LVL135
 10530 096a B4000000 		.4byte	.LVL137
 10531 096e 0100     		.2byte	0x1
 10532 0970 56       		.byte	0x56
 10533 0971 00000000 		.4byte	0
 10534 0975 00000000 		.4byte	0
 10535              	.LLST56:
 10536 0979 00000000 		.4byte	.LFB13
 10537 097d 02000000 		.4byte	.LCFI11
 10538 0981 0200     		.2byte	0x2
 10539 0983 7D       		.byte	0x7d
 10540 0984 00       		.sleb128 0
 10541 0985 02000000 		.4byte	.LCFI11
 10542 0989 06000000 		.4byte	.LCFI12
 10543 098d 0200     		.2byte	0x2
 10544 098f 7D       		.byte	0x7d
 10545 0990 10       		.sleb128 16
 10546 0991 06000000 		.4byte	.LCFI12
 10547 0995 78000000 		.4byte	.LFE13
 10548 0999 0200     		.2byte	0x2
 10549 099b 7D       		.byte	0x7d
 10550 099c 18       		.sleb128 24
 10551 099d 00000000 		.4byte	0
 10552 09a1 00000000 		.4byte	0
 10553              	.LLST57:
 10554 09a5 00000000 		.4byte	.LVL154
 10555 09a9 08000000 		.4byte	.LVL155
 10556 09ad 0100     		.2byte	0x1
 10557 09af 50       		.byte	0x50
 10558 09b0 00000000 		.4byte	0
 10559 09b4 00000000 		.4byte	0
 10560              	.LLST58:
 10561 09b8 00000000 		.4byte	.LVL154
 10562 09bc 31000000 		.4byte	.LVL161-1
 10563 09c0 0100     		.2byte	0x1
 10564 09c2 51       		.byte	0x51
 10565 09c3 44000000 		.4byte	.LVL164
 10566 09c7 4D000000 		.4byte	.LVL166-1
 10567 09cb 0100     		.2byte	0x1
 10568 09cd 51       		.byte	0x51
 10569 09ce 00000000 		.4byte	0
ARM GAS  /var/folders/5n/p_75w94d66l9ssrldxqdhh700000gn/T//cciPPkzE.s 			page 187


 10570 09d2 00000000 		.4byte	0
 10571              	.LLST59:
 10572 09d6 00000000 		.4byte	.LVL154
 10573 09da 22000000 		.4byte	.LVL158
 10574 09de 0100     		.2byte	0x1
 10575 09e0 52       		.byte	0x52
 10576 09e1 44000000 		.4byte	.LVL164
 10577 09e5 4A000000 		.4byte	.LVL165
 10578 09e9 0100     		.2byte	0x1
 10579 09eb 52       		.byte	0x52
 10580 09ec 00000000 		.4byte	0
 10581 09f0 00000000 		.4byte	0
 10582              	.LLST60:
 10583 09f4 2E000000 		.4byte	.LVL160
 10584 09f8 31000000 		.4byte	.LVL161-1
 10585 09fc 0200     		.2byte	0x2
 10586 09fe 71       		.byte	0x71
 10587 09ff 02       		.sleb128 2
 10588 0a00 00000000 		.4byte	0
 10589 0a04 00000000 		.4byte	0
 10590              	.LLST61:
 10591 0a08 3C000000 		.4byte	.LVL162
 10592 0a0c 40000000 		.4byte	.LVL163
 10593 0a10 0100     		.2byte	0x1
 10594 0a12 50       		.byte	0x50
 10595 0a13 58000000 		.4byte	.LVL167
 10596 0a17 5A000000 		.4byte	.LVL168
 10597 0a1b 0100     		.2byte	0x1
 10598 0a1d 50       		.byte	0x50
 10599 0a1e 00000000 		.4byte	0
 10600 0a22 00000000 		.4byte	0
 10601              	.LLST62:
 10602 0a26 24000000 		.4byte	.LVL159
 10603 0a2a 31000000 		.4byte	.LVL161-1
 10604 0a2e 0100     		.2byte	0x1
 10605 0a30 51       		.byte	0x51
 10606 0a31 00000000 		.4byte	0
 10607 0a35 00000000 		.4byte	0
 10608              	.LLST63:
 10609 0a39 00000000 		.4byte	.LVL154
 10610 0a3d 0C000000 		.4byte	.LVL156
 10611 0a41 0100     		.2byte	0x1
 10612 0a43 50       		.byte	0x50
 10613 0a44 00000000 		.4byte	0
 10614 0a48 00000000 		.4byte	0
 10615              	.LLST64:
 10616 0a4c 12000000 		.4byte	.LVL157
 10617 0a50 40000000 		.4byte	.LVL163
 10618 0a54 0100     		.2byte	0x1
 10619 0a56 54       		.byte	0x54
 10620 0a57 4A000000 		.4byte	.LVL165
 10621 0a5b 78000000 		.4byte	.LFE13
 10622 0a5f 0100     		.2byte	0x1
 10623 0a61 54       		.byte	0x54
 10624 0a62 00000000 		.4byte	0
 10625 0a66 00000000 		.4byte	0
 10626              	.LLST65:
ARM GAS  /var/folders/5n/p_75w94d66l9ssrldxqdhh700000gn/T//cciPPkzE.s 			page 188


 10627 0a6a 00000000 		.4byte	.LFB14
 10628 0a6e 06000000 		.4byte	.LCFI13
 10629 0a72 0200     		.2byte	0x2
 10630 0a74 7D       		.byte	0x7d
 10631 0a75 00       		.sleb128 0
 10632 0a76 06000000 		.4byte	.LCFI13
 10633 0a7a 5C000000 		.4byte	.LFE14
 10634 0a7e 0200     		.2byte	0x2
 10635 0a80 7D       		.byte	0x7d
 10636 0a81 18       		.sleb128 24
 10637 0a82 00000000 		.4byte	0
 10638 0a86 00000000 		.4byte	0
 10639              	.LLST66:
 10640 0a8a 00000000 		.4byte	.LVL169
 10641 0a8e 08000000 		.4byte	.LVL170
 10642 0a92 0100     		.2byte	0x1
 10643 0a94 50       		.byte	0x50
 10644 0a95 46000000 		.4byte	.LVL179
 10645 0a99 4A000000 		.4byte	.LVL180
 10646 0a9d 0100     		.2byte	0x1
 10647 0a9f 50       		.byte	0x50
 10648 0aa0 00000000 		.4byte	0
 10649 0aa4 00000000 		.4byte	0
 10650              	.LLST67:
 10651 0aa8 00000000 		.4byte	.LVL169
 10652 0aac 1C000000 		.4byte	.LVL173
 10653 0ab0 0200     		.2byte	0x2
 10654 0ab2 30       		.byte	0x30
 10655 0ab3 9F       		.byte	0x9f
 10656 0ab4 1C000000 		.4byte	.LVL173
 10657 0ab8 3E000000 		.4byte	.LVL177
 10658 0abc 0B00     		.2byte	0xb
 10659 0abe 78       		.byte	0x78
 10660 0abf 00       		.sleb128 0
 10661 0ac0 48       		.byte	0x48
 10662 0ac1 24       		.byte	0x24
 10663 0ac2 0C       		.byte	0xc
 10664 0ac3 00000010 		.4byte	0x10000000
 10665 0ac7 29       		.byte	0x29
 10666 0ac8 9F       		.byte	0x9f
 10667 0ac9 3E000000 		.4byte	.LVL177
 10668 0acd 42000000 		.4byte	.LVL178
 10669 0ad1 0200     		.2byte	0x2
 10670 0ad3 30       		.byte	0x30
 10671 0ad4 9F       		.byte	0x9f
 10672 0ad5 46000000 		.4byte	.LVL179
 10673 0ad9 4E000000 		.4byte	.LVL181
 10674 0add 0200     		.2byte	0x2
 10675 0adf 30       		.byte	0x30
 10676 0ae0 9F       		.byte	0x9f
 10677 0ae1 4E000000 		.4byte	.LVL181
 10678 0ae5 5C000000 		.4byte	.LFE14
 10679 0ae9 0B00     		.2byte	0xb
 10680 0aeb 78       		.byte	0x78
 10681 0aec 00       		.sleb128 0
 10682 0aed 48       		.byte	0x48
 10683 0aee 24       		.byte	0x24
ARM GAS  /var/folders/5n/p_75w94d66l9ssrldxqdhh700000gn/T//cciPPkzE.s 			page 189


 10684 0aef 0C       		.byte	0xc
 10685 0af0 00000010 		.4byte	0x10000000
 10686 0af4 29       		.byte	0x29
 10687 0af5 9F       		.byte	0x9f
 10688 0af6 00000000 		.4byte	0
 10689 0afa 00000000 		.4byte	0
 10690              	.LLST68:
 10691 0afe 00000000 		.4byte	.LVL169
 10692 0b02 0C000000 		.4byte	.LVL171
 10693 0b06 0100     		.2byte	0x1
 10694 0b08 50       		.byte	0x50
 10695 0b09 46000000 		.4byte	.LVL179
 10696 0b0d 4A000000 		.4byte	.LVL180
 10697 0b11 0100     		.2byte	0x1
 10698 0b13 50       		.byte	0x50
 10699 0b14 00000000 		.4byte	0
 10700 0b18 00000000 		.4byte	0
 10701              	.LLST69:
 10702 0b1c 12000000 		.4byte	.LVL172
 10703 0b20 46000000 		.4byte	.LVL179
 10704 0b24 0100     		.2byte	0x1
 10705 0b26 55       		.byte	0x55
 10706 0b27 4E000000 		.4byte	.LVL181
 10707 0b2b 5C000000 		.4byte	.LFE14
 10708 0b2f 0100     		.2byte	0x1
 10709 0b31 55       		.byte	0x55
 10710 0b32 00000000 		.4byte	0
 10711 0b36 00000000 		.4byte	0
 10712              	.LLST70:
 10713 0b3a 20000000 		.4byte	.LVL174
 10714 0b3e 3E000000 		.4byte	.LVL177
 10715 0b42 0B00     		.2byte	0xb
 10716 0b44 78       		.byte	0x78
 10717 0b45 00       		.sleb128 0
 10718 0b46 48       		.byte	0x48
 10719 0b47 24       		.byte	0x24
 10720 0b48 0C       		.byte	0xc
 10721 0b49 00000010 		.4byte	0x10000000
 10722 0b4d 29       		.byte	0x29
 10723 0b4e 9F       		.byte	0x9f
 10724 0b4f 4E000000 		.4byte	.LVL181
 10725 0b53 5C000000 		.4byte	.LFE14
 10726 0b57 0B00     		.2byte	0xb
 10727 0b59 78       		.byte	0x78
 10728 0b5a 00       		.sleb128 0
 10729 0b5b 48       		.byte	0x48
 10730 0b5c 24       		.byte	0x24
 10731 0b5d 0C       		.byte	0xc
 10732 0b5e 00000010 		.4byte	0x10000000
 10733 0b62 29       		.byte	0x29
 10734 0b63 9F       		.byte	0x9f
 10735 0b64 00000000 		.4byte	0
 10736 0b68 00000000 		.4byte	0
 10737              	.LLST71:
 10738 0b6c 20000000 		.4byte	.LVL174
 10739 0b70 3E000000 		.4byte	.LVL177
 10740 0b74 0100     		.2byte	0x1
ARM GAS  /var/folders/5n/p_75w94d66l9ssrldxqdhh700000gn/T//cciPPkzE.s 			page 190


 10741 0b76 55       		.byte	0x55
 10742 0b77 4E000000 		.4byte	.LVL181
 10743 0b7b 5C000000 		.4byte	.LFE14
 10744 0b7f 0100     		.2byte	0x1
 10745 0b81 55       		.byte	0x55
 10746 0b82 00000000 		.4byte	0
 10747 0b86 00000000 		.4byte	0
 10748              	.LLST72:
 10749 0b8a 22000000 		.4byte	.LVL175
 10750 0b8e 37000000 		.4byte	.LVL176-1
 10751 0b92 0200     		.2byte	0x2
 10752 0b94 75       		.byte	0x75
 10753 0b95 04       		.sleb128 4
 10754 0b96 4E000000 		.4byte	.LVL181
 10755 0b9a 51000000 		.4byte	.LVL182-1
 10756 0b9e 0100     		.2byte	0x1
 10757 0ba0 50       		.byte	0x50
 10758 0ba1 00000000 		.4byte	0
 10759 0ba5 00000000 		.4byte	0
 10760              	.LLST73:
 10761 0ba9 00000000 		.4byte	.LFB15
 10762 0bad 02000000 		.4byte	.LCFI14
 10763 0bb1 0200     		.2byte	0x2
 10764 0bb3 7D       		.byte	0x7d
 10765 0bb4 00       		.sleb128 0
 10766 0bb5 02000000 		.4byte	.LCFI14
 10767 0bb9 06000000 		.4byte	.LCFI15
 10768 0bbd 0200     		.2byte	0x2
 10769 0bbf 7D       		.byte	0x7d
 10770 0bc0 10       		.sleb128 16
 10771 0bc1 06000000 		.4byte	.LCFI15
 10772 0bc5 78000000 		.4byte	.LFE15
 10773 0bc9 0200     		.2byte	0x2
 10774 0bcb 7D       		.byte	0x7d
 10775 0bcc 18       		.sleb128 24
 10776 0bcd 00000000 		.4byte	0
 10777 0bd1 00000000 		.4byte	0
 10778              	.LLST74:
 10779 0bd5 00000000 		.4byte	.LVL183
 10780 0bd9 0C000000 		.4byte	.LVL184
 10781 0bdd 0100     		.2byte	0x1
 10782 0bdf 50       		.byte	0x50
 10783 0be0 00000000 		.4byte	0
 10784 0be4 00000000 		.4byte	0
 10785              	.LLST75:
 10786 0be8 00000000 		.4byte	.LVL183
 10787 0bec 31000000 		.4byte	.LVL188-1
 10788 0bf0 0100     		.2byte	0x1
 10789 0bf2 51       		.byte	0x51
 10790 0bf3 44000000 		.4byte	.LVL191
 10791 0bf7 4D000000 		.4byte	.LVL193-1
 10792 0bfb 0100     		.2byte	0x1
 10793 0bfd 51       		.byte	0x51
 10794 0bfe 00000000 		.4byte	0
 10795 0c02 00000000 		.4byte	0
 10796              	.LLST76:
 10797 0c06 00000000 		.4byte	.LVL183
ARM GAS  /var/folders/5n/p_75w94d66l9ssrldxqdhh700000gn/T//cciPPkzE.s 			page 191


 10798 0c0a 31000000 		.4byte	.LVL188-1
 10799 0c0e 0100     		.2byte	0x1
 10800 0c10 52       		.byte	0x52
 10801 0c11 44000000 		.4byte	.LVL191
 10802 0c15 4D000000 		.4byte	.LVL193-1
 10803 0c19 0100     		.2byte	0x1
 10804 0c1b 52       		.byte	0x52
 10805 0c1c 00000000 		.4byte	0
 10806 0c20 00000000 		.4byte	0
 10807              	.LLST77:
 10808 0c24 3C000000 		.4byte	.LVL189
 10809 0c28 40000000 		.4byte	.LVL190
 10810 0c2c 0100     		.2byte	0x1
 10811 0c2e 50       		.byte	0x50
 10812 0c2f 58000000 		.4byte	.LVL194
 10813 0c33 5A000000 		.4byte	.LVL195
 10814 0c37 0100     		.2byte	0x1
 10815 0c39 50       		.byte	0x50
 10816 0c3a 00000000 		.4byte	0
 10817 0c3e 00000000 		.4byte	0
 10818              	.LLST78:
 10819 0c42 24000000 		.4byte	.LVL186
 10820 0c46 31000000 		.4byte	.LVL188-1
 10821 0c4a 0100     		.2byte	0x1
 10822 0c4c 51       		.byte	0x51
 10823 0c4d 00000000 		.4byte	0
 10824 0c51 00000000 		.4byte	0
 10825              	.LLST80:
 10826 0c55 12000000 		.4byte	.LVL185
 10827 0c59 40000000 		.4byte	.LVL190
 10828 0c5d 0100     		.2byte	0x1
 10829 0c5f 54       		.byte	0x54
 10830 0c60 4A000000 		.4byte	.LVL192
 10831 0c64 78000000 		.4byte	.LFE15
 10832 0c68 0100     		.2byte	0x1
 10833 0c6a 54       		.byte	0x54
 10834 0c6b 00000000 		.4byte	0
 10835 0c6f 00000000 		.4byte	0
 10836              	.LLST81:
 10837 0c73 2E000000 		.4byte	.LVL187
 10838 0c77 31000000 		.4byte	.LVL188-1
 10839 0c7b 0200     		.2byte	0x2
 10840 0c7d 71       		.byte	0x71
 10841 0c7e 02       		.sleb128 2
 10842 0c7f 00000000 		.4byte	0
 10843 0c83 00000000 		.4byte	0
 10844              	.LLST82:
 10845 0c87 00000000 		.4byte	.LFB16
 10846 0c8b 04000000 		.4byte	.LCFI16
 10847 0c8f 0200     		.2byte	0x2
 10848 0c91 7D       		.byte	0x7d
 10849 0c92 00       		.sleb128 0
 10850 0c93 04000000 		.4byte	.LCFI16
 10851 0c97 54000000 		.4byte	.LFE16
 10852 0c9b 0200     		.2byte	0x2
 10853 0c9d 7D       		.byte	0x7d
 10854 0c9e 08       		.sleb128 8
ARM GAS  /var/folders/5n/p_75w94d66l9ssrldxqdhh700000gn/T//cciPPkzE.s 			page 192


 10855 0c9f 00000000 		.4byte	0
 10856 0ca3 00000000 		.4byte	0
 10857              	.LLST83:
 10858 0ca7 00000000 		.4byte	.LVL196
 10859 0cab 06000000 		.4byte	.LVL197
 10860 0caf 0100     		.2byte	0x1
 10861 0cb1 50       		.byte	0x50
 10862 0cb2 2A000000 		.4byte	.LVL202
 10863 0cb6 2E000000 		.4byte	.LVL203
 10864 0cba 0100     		.2byte	0x1
 10865 0cbc 50       		.byte	0x50
 10866 0cbd 00000000 		.4byte	0
 10867 0cc1 00000000 		.4byte	0
 10868              	.LLST84:
 10869 0cc5 00000000 		.4byte	.LVL196
 10870 0cc9 14000000 		.4byte	.LVL200
 10871 0ccd 0100     		.2byte	0x1
 10872 0ccf 51       		.byte	0x51
 10873 0cd0 2A000000 		.4byte	.LVL202
 10874 0cd4 36000000 		.4byte	.LVL205
 10875 0cd8 0100     		.2byte	0x1
 10876 0cda 51       		.byte	0x51
 10877 0cdb 00000000 		.4byte	0
 10878 0cdf 00000000 		.4byte	0
 10879              	.LLST85:
 10880 0ce3 24000000 		.4byte	.LVL201
 10881 0ce7 2A000000 		.4byte	.LVL202
 10882 0ceb 0100     		.2byte	0x1
 10883 0ced 50       		.byte	0x50
 10884 0cee 36000000 		.4byte	.LVL205
 10885 0cf2 38000000 		.4byte	.LVL206
 10886 0cf6 0100     		.2byte	0x1
 10887 0cf8 50       		.byte	0x50
 10888 0cf9 00000000 		.4byte	0
 10889 0cfd 00000000 		.4byte	0
 10890              	.LLST86:
 10891 0d01 00000000 		.4byte	.LVL196
 10892 0d05 0A000000 		.4byte	.LVL198
 10893 0d09 0100     		.2byte	0x1
 10894 0d0b 50       		.byte	0x50
 10895 0d0c 2A000000 		.4byte	.LVL202
 10896 0d10 2E000000 		.4byte	.LVL203
 10897 0d14 0100     		.2byte	0x1
 10898 0d16 50       		.byte	0x50
 10899 0d17 00000000 		.4byte	0
 10900 0d1b 00000000 		.4byte	0
 10901              	.LLST87:
 10902 0d1f 10000000 		.4byte	.LVL199
 10903 0d23 2A000000 		.4byte	.LVL202
 10904 0d27 0100     		.2byte	0x1
 10905 0d29 54       		.byte	0x54
 10906 0d2a 30000000 		.4byte	.LVL204
 10907 0d2e 54000000 		.4byte	.LFE16
 10908 0d32 0100     		.2byte	0x1
 10909 0d34 54       		.byte	0x54
 10910 0d35 00000000 		.4byte	0
 10911 0d39 00000000 		.4byte	0
ARM GAS  /var/folders/5n/p_75w94d66l9ssrldxqdhh700000gn/T//cciPPkzE.s 			page 193


 10912              	.LLST88:
 10913 0d3d 00000000 		.4byte	.LFB17
 10914 0d41 04000000 		.4byte	.LCFI17
 10915 0d45 0200     		.2byte	0x2
 10916 0d47 7D       		.byte	0x7d
 10917 0d48 00       		.sleb128 0
 10918 0d49 04000000 		.4byte	.LCFI17
 10919 0d4d 06000000 		.4byte	.LCFI18
 10920 0d51 0200     		.2byte	0x2
 10921 0d53 7D       		.byte	0x7d
 10922 0d54 24       		.sleb128 36
 10923 0d55 06000000 		.4byte	.LCFI18
 10924 0d59 14020000 		.4byte	.LFE17
 10925 0d5d 0300     		.2byte	0x3
 10926 0d5f 7D       		.byte	0x7d
 10927 0d60 D800     		.sleb128 88
 10928 0d62 00000000 		.4byte	0
 10929 0d66 00000000 		.4byte	0
 10930              	.LLST89:
 10931 0d6a 00000000 		.4byte	.LVL207
 10932 0d6e 1C000000 		.4byte	.LVL209
 10933 0d72 0100     		.2byte	0x1
 10934 0d74 50       		.byte	0x50
 10935 0d75 00000000 		.4byte	0
 10936 0d79 00000000 		.4byte	0
 10937              	.LLST90:
 10938 0d7d 00000000 		.4byte	.LVL207
 10939 0d81 38000000 		.4byte	.LVL214
 10940 0d85 0100     		.2byte	0x1
 10941 0d87 51       		.byte	0x51
 10942 0d88 38000000 		.4byte	.LVL214
 10943 0d8c 14020000 		.4byte	.LFE17
 10944 0d90 0300     		.2byte	0x3
 10945 0d92 91       		.byte	0x91
 10946 0d93 B07F     		.sleb128 -80
 10947 0d95 00000000 		.4byte	0
 10948 0d99 00000000 		.4byte	0
 10949              	.LLST91:
 10950 0d9d 00000000 		.4byte	.LVL207
 10951 0da1 2A000000 		.4byte	.LVL213
 10952 0da5 0100     		.2byte	0x1
 10953 0da7 52       		.byte	0x52
 10954 0da8 2A000000 		.4byte	.LVL213
 10955 0dac F2000000 		.4byte	.LVL227
 10956 0db0 0100     		.2byte	0x1
 10957 0db2 59       		.byte	0x59
 10958 0db3 F2000000 		.4byte	.LVL227
 10959 0db7 F6000000 		.4byte	.LVL228
 10960 0dbb 0100     		.2byte	0x1
 10961 0dbd 52       		.byte	0x52
 10962 0dbe F6000000 		.4byte	.LVL228
 10963 0dc2 54010000 		.4byte	.LVL235
 10964 0dc6 0100     		.2byte	0x1
 10965 0dc8 59       		.byte	0x59
 10966 0dc9 54010000 		.4byte	.LVL235
 10967 0dcd 58010000 		.4byte	.LVL236
 10968 0dd1 0600     		.2byte	0x6
ARM GAS  /var/folders/5n/p_75w94d66l9ssrldxqdhh700000gn/T//cciPPkzE.s 			page 194


 10969 0dd3 79       		.byte	0x79
 10970 0dd4 00       		.sleb128 0
 10971 0dd5 76       		.byte	0x76
 10972 0dd6 00       		.sleb128 0
 10973 0dd7 1C       		.byte	0x1c
 10974 0dd8 9F       		.byte	0x9f
 10975 0dd9 58010000 		.4byte	.LVL236
 10976 0ddd 14020000 		.4byte	.LFE17
 10977 0de1 0100     		.2byte	0x1
 10978 0de3 59       		.byte	0x59
 10979 0de4 00000000 		.4byte	0
 10980 0de8 00000000 		.4byte	0
 10981              	.LLST92:
 10982 0dec 00000000 		.4byte	.LVL207
 10983 0df0 1E000000 		.4byte	.LVL210
 10984 0df4 0100     		.2byte	0x1
 10985 0df6 53       		.byte	0x53
 10986 0df7 1E000000 		.4byte	.LVL210
 10987 0dfb 14020000 		.4byte	.LFE17
 10988 0dff 0300     		.2byte	0x3
 10989 0e01 91       		.byte	0x91
 10990 0e02 AC7F     		.sleb128 -84
 10991 0e04 00000000 		.4byte	0
 10992 0e08 00000000 		.4byte	0
 10993              	.LLST93:
 10994 0e0c 46000000 		.4byte	.LVL215
 10995 0e10 72000000 		.4byte	.LVL222
 10996 0e14 0100     		.2byte	0x1
 10997 0e16 54       		.byte	0x54
 10998 0e17 50010000 		.4byte	.LVL234
 10999 0e1b 5E010000 		.4byte	.LVL237
 11000 0e1f 0100     		.2byte	0x1
 11001 0e21 54       		.byte	0x54
 11002 0e22 96010000 		.4byte	.LVL241
 11003 0e26 9C010000 		.4byte	.LVL242
 11004 0e2a 0100     		.2byte	0x1
 11005 0e2c 54       		.byte	0x54
 11006 0e2d 00000000 		.4byte	0
 11007 0e31 00000000 		.4byte	0
 11008              	.LLST94:
 11009 0e35 4C000000 		.4byte	.LVL216
 11010 0e39 50000000 		.4byte	.LVL217
 11011 0e3d 0100     		.2byte	0x1
 11012 0e3f 58       		.byte	0x58
 11013 0e40 54000000 		.4byte	.LVL218
 11014 0e44 E2000000 		.4byte	.LVL226
 11015 0e48 0100     		.2byte	0x1
 11016 0e4a 58       		.byte	0x58
 11017 0e4b FE000000 		.4byte	.LVL229
 11018 0e4f 1A010000 		.4byte	.LVL231
 11019 0e53 0100     		.2byte	0x1
 11020 0e55 58       		.byte	0x58
 11021 0e56 50010000 		.4byte	.LVL234
 11022 0e5a 80010000 		.4byte	.LVL239
 11023 0e5e 0100     		.2byte	0x1
 11024 0e60 58       		.byte	0x58
 11025 0e61 96010000 		.4byte	.LVL241
ARM GAS  /var/folders/5n/p_75w94d66l9ssrldxqdhh700000gn/T//cciPPkzE.s 			page 195


 11026 0e65 9C010000 		.4byte	.LVL242
 11027 0e69 0100     		.2byte	0x1
 11028 0e6b 58       		.byte	0x58
 11029 0e6c B6010000 		.4byte	.LVL245
 11030 0e70 C6010000 		.4byte	.LVL246
 11031 0e74 0100     		.2byte	0x1
 11032 0e76 58       		.byte	0x58
 11033 0e77 00000000 		.4byte	0
 11034 0e7b 00000000 		.4byte	0
 11035              	.LLST95:
 11036 0e7f 5C000000 		.4byte	.LVL219
 11037 0e83 E2000000 		.4byte	.LVL226
 11038 0e87 0100     		.2byte	0x1
 11039 0e89 56       		.byte	0x56
 11040 0e8a FE000000 		.4byte	.LVL229
 11041 0e8e 1A010000 		.4byte	.LVL231
 11042 0e92 0100     		.2byte	0x1
 11043 0e94 56       		.byte	0x56
 11044 0e95 50010000 		.4byte	.LVL234
 11045 0e99 8A010000 		.4byte	.LVL240
 11046 0e9d 0100     		.2byte	0x1
 11047 0e9f 56       		.byte	0x56
 11048 0ea0 96010000 		.4byte	.LVL241
 11049 0ea4 9C010000 		.4byte	.LVL242
 11050 0ea8 0100     		.2byte	0x1
 11051 0eaa 56       		.byte	0x56
 11052 0eab A2010000 		.4byte	.LVL244
 11053 0eaf C6010000 		.4byte	.LVL246
 11054 0eb3 0100     		.2byte	0x1
 11055 0eb5 56       		.byte	0x56
 11056 0eb6 00000000 		.4byte	0
 11057 0eba 00000000 		.4byte	0
 11058              	.LLST96:
 11059 0ebe 0C000000 		.4byte	.LVL208
 11060 0ec2 28000000 		.4byte	.LVL212
 11061 0ec6 0200     		.2byte	0x2
 11062 0ec8 30       		.byte	0x30
 11063 0ec9 9F       		.byte	0x9f
 11064 0eca 28000000 		.4byte	.LVL212
 11065 0ece F2000000 		.4byte	.LVL227
 11066 0ed2 0100     		.2byte	0x1
 11067 0ed4 57       		.byte	0x57
 11068 0ed5 F2000000 		.4byte	.LVL227
 11069 0ed9 F6000000 		.4byte	.LVL228
 11070 0edd 0200     		.2byte	0x2
 11071 0edf 30       		.byte	0x30
 11072 0ee0 9F       		.byte	0x9f
 11073 0ee1 FE000000 		.4byte	.LVL229
 11074 0ee5 EE010000 		.4byte	.LVL250
 11075 0ee9 0100     		.2byte	0x1
 11076 0eeb 57       		.byte	0x57
 11077 0eec F0010000 		.4byte	.LVL251
 11078 0ef0 0A020000 		.4byte	.LVL252
 11079 0ef4 0100     		.2byte	0x1
 11080 0ef6 57       		.byte	0x57
 11081 0ef7 00000000 		.4byte	0
 11082 0efb 00000000 		.4byte	0
ARM GAS  /var/folders/5n/p_75w94d66l9ssrldxqdhh700000gn/T//cciPPkzE.s 			page 196


 11083              	.LLST97:
 11084 0eff 94000000 		.4byte	.LVL224
 11085 0f03 BD000000 		.4byte	.LVL225-1
 11086 0f07 0100     		.2byte	0x1
 11087 0f09 53       		.byte	0x53
 11088 0f0a B6010000 		.4byte	.LVL245
 11089 0f0e C6010000 		.4byte	.LVL246
 11090 0f12 0300     		.2byte	0x3
 11091 0f14 91       		.byte	0x91
 11092 0f15 50       		.sleb128 -48
 11093 0f16 9F       		.byte	0x9f
 11094 0f17 00000000 		.4byte	0
 11095 0f1b 00000000 		.4byte	0
 11096              	.LLST98:
 11097 0f1f 38000000 		.4byte	.LVL214
 11098 0f23 F2000000 		.4byte	.LVL227
 11099 0f27 0200     		.2byte	0x2
 11100 0f29 91       		.byte	0x91
 11101 0f2a 56       		.sleb128 -42
 11102 0f2b F6000000 		.4byte	.LVL228
 11103 0f2f 14020000 		.4byte	.LFE17
 11104 0f33 0200     		.2byte	0x2
 11105 0f35 91       		.byte	0x91
 11106 0f36 56       		.sleb128 -42
 11107 0f37 00000000 		.4byte	0
 11108 0f3b 00000000 		.4byte	0
 11109              	.LLST99:
 11110 0f3f 0C000000 		.4byte	.LVL208
 11111 0f43 78000000 		.4byte	.LVL223
 11112 0f47 0200     		.2byte	0x2
 11113 0f49 30       		.byte	0x30
 11114 0f4a 9F       		.byte	0x9f
 11115 0f4b 78000000 		.4byte	.LVL223
 11116 0f4f E2000000 		.4byte	.LVL226
 11117 0f53 0200     		.2byte	0x2
 11118 0f55 31       		.byte	0x31
 11119 0f56 9F       		.byte	0x9f
 11120 0f57 F2000000 		.4byte	.LVL227
 11121 0f5b F6000000 		.4byte	.LVL228
 11122 0f5f 0200     		.2byte	0x2
 11123 0f61 30       		.byte	0x30
 11124 0f62 9F       		.byte	0x9f
 11125 0f63 FE000000 		.4byte	.LVL229
 11126 0f67 00010000 		.4byte	.LVL230
 11127 0f6b 0200     		.2byte	0x2
 11128 0f6d 31       		.byte	0x31
 11129 0f6e 9F       		.byte	0x9f
 11130 0f6f 1A010000 		.4byte	.LVL231
 11131 0f73 7C010000 		.4byte	.LVL238
 11132 0f77 0200     		.2byte	0x2
 11133 0f79 30       		.byte	0x30
 11134 0f7a 9F       		.byte	0x9f
 11135 0f7b 96010000 		.4byte	.LVL241
 11136 0f7f A2010000 		.4byte	.LVL244
 11137 0f83 0200     		.2byte	0x2
 11138 0f85 30       		.byte	0x30
 11139 0f86 9F       		.byte	0x9f
ARM GAS  /var/folders/5n/p_75w94d66l9ssrldxqdhh700000gn/T//cciPPkzE.s 			page 197


 11140 0f87 B6010000 		.4byte	.LVL245
 11141 0f8b C6010000 		.4byte	.LVL246
 11142 0f8f 0200     		.2byte	0x2
 11143 0f91 31       		.byte	0x31
 11144 0f92 9F       		.byte	0x9f
 11145 0f93 C6010000 		.4byte	.LVL246
 11146 0f97 14020000 		.4byte	.LFE17
 11147 0f9b 0200     		.2byte	0x2
 11148 0f9d 30       		.byte	0x30
 11149 0f9e 9F       		.byte	0x9f
 11150 0f9f 00000000 		.4byte	0
 11151 0fa3 00000000 		.4byte	0
 11152              	.LLST100:
 11153 0fa7 42010000 		.4byte	.LVL232
 11154 0fab 4C010000 		.4byte	.LVL233
 11155 0faf 0100     		.2byte	0x1
 11156 0fb1 50       		.byte	0x50
 11157 0fb2 A0010000 		.4byte	.LVL243
 11158 0fb6 A2010000 		.4byte	.LVL244
 11159 0fba 0100     		.2byte	0x1
 11160 0fbc 50       		.byte	0x50
 11161 0fbd C6010000 		.4byte	.LVL246
 11162 0fc1 C9010000 		.4byte	.LVL247-1
 11163 0fc5 0100     		.2byte	0x1
 11164 0fc7 50       		.byte	0x50
 11165 0fc8 CE010000 		.4byte	.LVL248
 11166 0fcc D2010000 		.4byte	.LVL249
 11167 0fd0 0100     		.2byte	0x1
 11168 0fd2 50       		.byte	0x50
 11169 0fd3 00000000 		.4byte	0
 11170 0fd7 00000000 		.4byte	0
 11171              	.LLST101:
 11172 0fdb 0C000000 		.4byte	.LVL208
 11173 0fdf 1C000000 		.4byte	.LVL209
 11174 0fe3 0100     		.2byte	0x1
 11175 0fe5 50       		.byte	0x50
 11176 0fe6 00000000 		.4byte	0
 11177 0fea 00000000 		.4byte	0
 11178              	.LLST102:
 11179 0fee 22000000 		.4byte	.LVL211
 11180 0ff2 F2000000 		.4byte	.LVL227
 11181 0ff6 0100     		.2byte	0x1
 11182 0ff8 55       		.byte	0x55
 11183 0ff9 FE000000 		.4byte	.LVL229
 11184 0ffd 14020000 		.4byte	.LFE17
 11185 1001 0100     		.2byte	0x1
 11186 1003 55       		.byte	0x55
 11187 1004 00000000 		.4byte	0
 11188 1008 00000000 		.4byte	0
 11189              	.LLST103:
 11190 100c 00000000 		.4byte	.LFB18
 11191 1010 02000000 		.4byte	.LCFI19
 11192 1014 0200     		.2byte	0x2
 11193 1016 7D       		.byte	0x7d
 11194 1017 00       		.sleb128 0
 11195 1018 02000000 		.4byte	.LCFI19
 11196 101c 06000000 		.4byte	.LCFI20
ARM GAS  /var/folders/5n/p_75w94d66l9ssrldxqdhh700000gn/T//cciPPkzE.s 			page 198


 11197 1020 0200     		.2byte	0x2
 11198 1022 7D       		.byte	0x7d
 11199 1023 08       		.sleb128 8
 11200 1024 06000000 		.4byte	.LCFI20
 11201 1028 14000000 		.4byte	.LFE18
 11202 102c 0200     		.2byte	0x2
 11203 102e 7D       		.byte	0x7d
 11204 102f 10       		.sleb128 16
 11205 1030 00000000 		.4byte	0
 11206 1034 00000000 		.4byte	0
 11207              	.LLST104:
 11208 1038 00000000 		.4byte	.LVL253
 11209 103c 0F000000 		.4byte	.LVL254-1
 11210 1040 0100     		.2byte	0x1
 11211 1042 50       		.byte	0x50
 11212 1043 00000000 		.4byte	0
 11213 1047 00000000 		.4byte	0
 11214              	.LLST105:
 11215 104b 00000000 		.4byte	.LVL253
 11216 104f 0F000000 		.4byte	.LVL254-1
 11217 1053 0100     		.2byte	0x1
 11218 1055 51       		.byte	0x51
 11219 1056 00000000 		.4byte	0
 11220 105a 00000000 		.4byte	0
 11221              	.LLST106:
 11222 105e 00000000 		.4byte	.LVL253
 11223 1062 0F000000 		.4byte	.LVL254-1
 11224 1066 0100     		.2byte	0x1
 11225 1068 52       		.byte	0x52
 11226 1069 00000000 		.4byte	0
 11227 106d 00000000 		.4byte	0
 11228              	.LLST107:
 11229 1071 00000000 		.4byte	.LFB19
 11230 1075 02000000 		.4byte	.LCFI21
 11231 1079 0200     		.2byte	0x2
 11232 107b 7D       		.byte	0x7d
 11233 107c 00       		.sleb128 0
 11234 107d 02000000 		.4byte	.LCFI21
 11235 1081 04000000 		.4byte	.LCFI22
 11236 1085 0200     		.2byte	0x2
 11237 1087 7D       		.byte	0x7d
 11238 1088 08       		.sleb128 8
 11239 1089 04000000 		.4byte	.LCFI22
 11240 108d 12000000 		.4byte	.LFE19
 11241 1091 0200     		.2byte	0x2
 11242 1093 7D       		.byte	0x7d
 11243 1094 10       		.sleb128 16
 11244 1095 00000000 		.4byte	0
 11245 1099 00000000 		.4byte	0
 11246              	.LLST108:
 11247 109d 00000000 		.4byte	.LVL255
 11248 10a1 0D000000 		.4byte	.LVL256-1
 11249 10a5 0100     		.2byte	0x1
 11250 10a7 50       		.byte	0x50
 11251 10a8 00000000 		.4byte	0
 11252 10ac 00000000 		.4byte	0
 11253              	.LLST109:
ARM GAS  /var/folders/5n/p_75w94d66l9ssrldxqdhh700000gn/T//cciPPkzE.s 			page 199


 11254 10b0 00000000 		.4byte	.LVL255
 11255 10b4 0D000000 		.4byte	.LVL256-1
 11256 10b8 0100     		.2byte	0x1
 11257 10ba 51       		.byte	0x51
 11258 10bb 00000000 		.4byte	0
 11259 10bf 00000000 		.4byte	0
 11260              	.LLST110:
 11261 10c3 00000000 		.4byte	.LVL255
 11262 10c7 0D000000 		.4byte	.LVL256-1
 11263 10cb 0100     		.2byte	0x1
 11264 10cd 52       		.byte	0x52
 11265 10ce 00000000 		.4byte	0
 11266 10d2 00000000 		.4byte	0
 11267              	.LLST111:
 11268 10d6 00000000 		.4byte	.LVL255
 11269 10da 0D000000 		.4byte	.LVL256-1
 11270 10de 0100     		.2byte	0x1
 11271 10e0 53       		.byte	0x53
 11272 10e1 00000000 		.4byte	0
 11273 10e5 00000000 		.4byte	0
 11274              	.LLST112:
 11275 10e9 00000000 		.4byte	.LFB21
 11276 10ed 04000000 		.4byte	.LCFI23
 11277 10f1 0200     		.2byte	0x2
 11278 10f3 7D       		.byte	0x7d
 11279 10f4 00       		.sleb128 0
 11280 10f5 04000000 		.4byte	.LCFI23
 11281 10f9 06000000 		.4byte	.LCFI24
 11282 10fd 0200     		.2byte	0x2
 11283 10ff 7D       		.byte	0x7d
 11284 1100 1C       		.sleb128 28
 11285 1101 06000000 		.4byte	.LCFI24
 11286 1105 F0000000 		.4byte	.LFE21
 11287 1109 0200     		.2byte	0x2
 11288 110b 7D       		.byte	0x7d
 11289 110c 30       		.sleb128 48
 11290 110d 00000000 		.4byte	0
 11291 1111 00000000 		.4byte	0
 11292              	.LLST113:
 11293 1115 00000000 		.4byte	.LVL257
 11294 1119 16000000 		.4byte	.LVL259
 11295 111d 0100     		.2byte	0x1
 11296 111f 50       		.byte	0x50
 11297 1120 72000000 		.4byte	.LVL264
 11298 1124 76000000 		.4byte	.LVL265
 11299 1128 0100     		.2byte	0x1
 11300 112a 50       		.byte	0x50
 11301 112b BE000000 		.4byte	.LVL272
 11302 112f C1000000 		.4byte	.LVL273-1
 11303 1133 0100     		.2byte	0x1
 11304 1135 50       		.byte	0x50
 11305 1136 D2000000 		.4byte	.LVL277
 11306 113a D5000000 		.4byte	.LVL278-1
 11307 113e 0100     		.2byte	0x1
 11308 1140 50       		.byte	0x50
 11309 1141 00000000 		.4byte	0
 11310 1145 00000000 		.4byte	0
ARM GAS  /var/folders/5n/p_75w94d66l9ssrldxqdhh700000gn/T//cciPPkzE.s 			page 200


 11311              	.LLST114:
 11312 1149 00000000 		.4byte	.LVL257
 11313 114d 36000000 		.4byte	.LVL261
 11314 1151 0100     		.2byte	0x1
 11315 1153 51       		.byte	0x51
 11316 1154 36000000 		.4byte	.LVL261
 11317 1158 F0000000 		.4byte	.LFE21
 11318 115c 0100     		.2byte	0x1
 11319 115e 57       		.byte	0x57
 11320 115f 00000000 		.4byte	0
 11321 1163 00000000 		.4byte	0
 11322              	.LLST115:
 11323 1167 00000000 		.4byte	.LVL257
 11324 116b 36000000 		.4byte	.LVL261
 11325 116f 0100     		.2byte	0x1
 11326 1171 52       		.byte	0x52
 11327 1172 36000000 		.4byte	.LVL261
 11328 1176 76000000 		.4byte	.LVL265
 11329 117a 0100     		.2byte	0x1
 11330 117c 55       		.byte	0x55
 11331 117d 7C000000 		.4byte	.LVL266
 11332 1181 8A000000 		.4byte	.LVL269
 11333 1185 0100     		.2byte	0x1
 11334 1187 55       		.byte	0x55
 11335 1188 BE000000 		.4byte	.LVL272
 11336 118c C1000000 		.4byte	.LVL273-1
 11337 1190 0100     		.2byte	0x1
 11338 1192 52       		.byte	0x52
 11339 1193 C1000000 		.4byte	.LVL273-1
 11340 1197 C4000000 		.4byte	.LVL274
 11341 119b 0100     		.2byte	0x1
 11342 119d 55       		.byte	0x55
 11343 119e D2000000 		.4byte	.LVL277
 11344 11a2 D5000000 		.4byte	.LVL278-1
 11345 11a6 0100     		.2byte	0x1
 11346 11a8 52       		.byte	0x52
 11347 11a9 D5000000 		.4byte	.LVL278-1
 11348 11ad F0000000 		.4byte	.LFE21
 11349 11b1 0100     		.2byte	0x1
 11350 11b3 55       		.byte	0x55
 11351 11b4 00000000 		.4byte	0
 11352 11b8 00000000 		.4byte	0
 11353              	.LLST116:
 11354 11bc 00000000 		.4byte	.LVL257
 11355 11c0 36000000 		.4byte	.LVL261
 11356 11c4 0100     		.2byte	0x1
 11357 11c6 53       		.byte	0x53
 11358 11c7 72000000 		.4byte	.LVL264
 11359 11cb 76000000 		.4byte	.LVL265
 11360 11cf 0100     		.2byte	0x1
 11361 11d1 53       		.byte	0x53
 11362 11d2 BE000000 		.4byte	.LVL272
 11363 11d6 C1000000 		.4byte	.LVL273-1
 11364 11da 0100     		.2byte	0x1
 11365 11dc 53       		.byte	0x53
 11366 11dd D2000000 		.4byte	.LVL277
 11367 11e1 D5000000 		.4byte	.LVL278-1
ARM GAS  /var/folders/5n/p_75w94d66l9ssrldxqdhh700000gn/T//cciPPkzE.s 			page 201


 11368 11e5 0100     		.2byte	0x1
 11369 11e7 53       		.byte	0x53
 11370 11e8 00000000 		.4byte	0
 11371 11ec 00000000 		.4byte	0
 11372              	.LLST117:
 11373 11f0 94000000 		.4byte	.LVL270
 11374 11f4 98000000 		.4byte	.LVL271
 11375 11f8 0100     		.2byte	0x1
 11376 11fa 50       		.byte	0x50
 11377 11fb 98000000 		.4byte	.LVL271
 11378 11ff BE000000 		.4byte	.LVL272
 11379 1203 0100     		.2byte	0x1
 11380 1205 54       		.byte	0x54
 11381 1206 C4000000 		.4byte	.LVL274
 11382 120a C8000000 		.4byte	.LVL275
 11383 120e 0100     		.2byte	0x1
 11384 1210 50       		.byte	0x50
 11385 1211 D0000000 		.4byte	.LVL276
 11386 1215 D2000000 		.4byte	.LVL277
 11387 1219 0100     		.2byte	0x1
 11388 121b 50       		.byte	0x50
 11389 121c 00000000 		.4byte	0
 11390 1220 00000000 		.4byte	0
 11391              	.LLST118:
 11392 1224 36000000 		.4byte	.LVL261
 11393 1228 72000000 		.4byte	.LVL264
 11394 122c 0100     		.2byte	0x1
 11395 122e 55       		.byte	0x55
 11396 122f 7C000000 		.4byte	.LVL266
 11397 1233 8A000000 		.4byte	.LVL269
 11398 1237 0100     		.2byte	0x1
 11399 1239 55       		.byte	0x55
 11400 123a D8000000 		.4byte	.LVL279
 11401 123e F0000000 		.4byte	.LFE21
 11402 1242 0100     		.2byte	0x1
 11403 1244 55       		.byte	0x55
 11404 1245 00000000 		.4byte	0
 11405 1249 00000000 		.4byte	0
 11406              	.LLST119:
 11407 124d 5C000000 		.4byte	.LVL262
 11408 1251 72000000 		.4byte	.LVL264
 11409 1255 0200     		.2byte	0x2
 11410 1257 91       		.byte	0x91
 11411 1258 00       		.sleb128 0
 11412 1259 00000000 		.4byte	0
 11413 125d 00000000 		.4byte	0
 11414              	.LLST120:
 11415 1261 6C000000 		.4byte	.LVL263
 11416 1265 72000000 		.4byte	.LVL264
 11417 1269 0100     		.2byte	0x1
 11418 126b 50       		.byte	0x50
 11419 126c 80000000 		.4byte	.LVL267
 11420 1270 88000000 		.4byte	.LVL268
 11421 1274 0200     		.2byte	0x2
 11422 1276 30       		.byte	0x30
 11423 1277 9F       		.byte	0x9f
 11424 1278 00000000 		.4byte	0
ARM GAS  /var/folders/5n/p_75w94d66l9ssrldxqdhh700000gn/T//cciPPkzE.s 			page 202


 11425 127c 00000000 		.4byte	0
 11426              	.LLST121:
 11427 1280 0A000000 		.4byte	.LVL258
 11428 1284 36000000 		.4byte	.LVL261
 11429 1288 0100     		.2byte	0x1
 11430 128a 50       		.byte	0x50
 11431 128b 72000000 		.4byte	.LVL264
 11432 128f 76000000 		.4byte	.LVL265
 11433 1293 0100     		.2byte	0x1
 11434 1295 50       		.byte	0x50
 11435 1296 BE000000 		.4byte	.LVL272
 11436 129a C1000000 		.4byte	.LVL273-1
 11437 129e 0100     		.2byte	0x1
 11438 12a0 50       		.byte	0x50
 11439 12a1 D2000000 		.4byte	.LVL277
 11440 12a5 D5000000 		.4byte	.LVL278-1
 11441 12a9 0100     		.2byte	0x1
 11442 12ab 50       		.byte	0x50
 11443 12ac 00000000 		.4byte	0
 11444 12b0 00000000 		.4byte	0
 11445              	.LLST122:
 11446 12b4 24000000 		.4byte	.LVL260
 11447 12b8 72000000 		.4byte	.LVL264
 11448 12bc 0100     		.2byte	0x1
 11449 12be 58       		.byte	0x58
 11450 12bf 7C000000 		.4byte	.LVL266
 11451 12c3 F0000000 		.4byte	.LFE21
 11452 12c7 0100     		.2byte	0x1
 11453 12c9 58       		.byte	0x58
 11454 12ca 00000000 		.4byte	0
 11455 12ce 00000000 		.4byte	0
 11456              	.LLST123:
 11457 12d2 00000000 		.4byte	.LFB20
 11458 12d6 04000000 		.4byte	.LCFI25
 11459 12da 0200     		.2byte	0x2
 11460 12dc 7D       		.byte	0x7d
 11461 12dd 00       		.sleb128 0
 11462 12de 04000000 		.4byte	.LCFI25
 11463 12e2 08000000 		.4byte	.LCFI26
 11464 12e6 0200     		.2byte	0x2
 11465 12e8 7D       		.byte	0x7d
 11466 12e9 18       		.sleb128 24
 11467 12ea 08000000 		.4byte	.LCFI26
 11468 12ee A0000000 		.4byte	.LFE20
 11469 12f2 0200     		.2byte	0x2
 11470 12f4 7D       		.byte	0x7d
 11471 12f5 20       		.sleb128 32
 11472 12f6 00000000 		.4byte	0
 11473 12fa 00000000 		.4byte	0
 11474              	.LLST124:
 11475 12fe 00000000 		.4byte	.LVL280
 11476 1302 12000000 		.4byte	.LVL282
 11477 1306 0100     		.2byte	0x1
 11478 1308 50       		.byte	0x50
 11479 1309 2E000000 		.4byte	.LVL285
 11480 130d 4A000000 		.4byte	.LVL289
 11481 1311 0100     		.2byte	0x1
ARM GAS  /var/folders/5n/p_75w94d66l9ssrldxqdhh700000gn/T//cciPPkzE.s 			page 203


 11482 1313 50       		.byte	0x50
 11483 1314 6E000000 		.4byte	.LVL293
 11484 1318 72000000 		.4byte	.LVL294
 11485 131c 0100     		.2byte	0x1
 11486 131e 50       		.byte	0x50
 11487 131f 78000000 		.4byte	.LVL295
 11488 1323 89000000 		.4byte	.LVL296-1
 11489 1327 0100     		.2byte	0x1
 11490 1329 50       		.byte	0x50
 11491 132a 8C000000 		.4byte	.LVL297
 11492 132e 96000000 		.4byte	.LVL298
 11493 1332 0100     		.2byte	0x1
 11494 1334 50       		.byte	0x50
 11495 1335 00000000 		.4byte	0
 11496 1339 00000000 		.4byte	0
 11497              	.LLST125:
 11498 133d 00000000 		.4byte	.LVL280
 11499 1341 4C000000 		.4byte	.LVL290
 11500 1345 0100     		.2byte	0x1
 11501 1347 51       		.byte	0x51
 11502 1348 4C000000 		.4byte	.LVL290
 11503 134c 4F000000 		.4byte	.LVL291-1
 11504 1350 0100     		.2byte	0x1
 11505 1352 5C       		.byte	0x5c
 11506 1353 6E000000 		.4byte	.LVL293
 11507 1357 72000000 		.4byte	.LVL294
 11508 135b 0100     		.2byte	0x1
 11509 135d 51       		.byte	0x51
 11510 135e 78000000 		.4byte	.LVL295
 11511 1362 89000000 		.4byte	.LVL296-1
 11512 1366 0100     		.2byte	0x1
 11513 1368 51       		.byte	0x51
 11514 1369 8C000000 		.4byte	.LVL297
 11515 136d A0000000 		.4byte	.LFE20
 11516 1371 0100     		.2byte	0x1
 11517 1373 51       		.byte	0x51
 11518 1374 00000000 		.4byte	0
 11519 1378 00000000 		.4byte	0
 11520              	.LLST126:
 11521 137c 00000000 		.4byte	.LVL280
 11522 1380 2E000000 		.4byte	.LVL285
 11523 1384 0100     		.2byte	0x1
 11524 1386 52       		.byte	0x52
 11525 1387 2E000000 		.4byte	.LVL285
 11526 138b A0000000 		.4byte	.LFE20
 11527 138f 0100     		.2byte	0x1
 11528 1391 56       		.byte	0x56
 11529 1392 00000000 		.4byte	0
 11530 1396 00000000 		.4byte	0
 11531              	.LLST127:
 11532 139a 00000000 		.4byte	.LVL280
 11533 139e 2C000000 		.4byte	.LVL284
 11534 13a2 0100     		.2byte	0x1
 11535 13a4 53       		.byte	0x53
 11536 13a5 2C000000 		.4byte	.LVL284
 11537 13a9 3E000000 		.4byte	.LVL286
 11538 13ad 0100     		.2byte	0x1
ARM GAS  /var/folders/5n/p_75w94d66l9ssrldxqdhh700000gn/T//cciPPkzE.s 			page 204


 11539 13af 55       		.byte	0x55
 11540 13b0 6E000000 		.4byte	.LVL293
 11541 13b4 72000000 		.4byte	.LVL294
 11542 13b8 0100     		.2byte	0x1
 11543 13ba 53       		.byte	0x53
 11544 13bb 78000000 		.4byte	.LVL295
 11545 13bf A0000000 		.4byte	.LFE20
 11546 13c3 0100     		.2byte	0x1
 11547 13c5 55       		.byte	0x55
 11548 13c6 00000000 		.4byte	0
 11549 13ca 00000000 		.4byte	0
 11550              	.LLST128:
 11551 13ce 50000000 		.4byte	.LVL291
 11552 13d2 6C000000 		.4byte	.LVL292
 11553 13d6 0100     		.2byte	0x1
 11554 13d8 50       		.byte	0x50
 11555 13d9 00000000 		.4byte	0
 11556 13dd 00000000 		.4byte	0
 11557              	.LLST129:
 11558 13e1 44000000 		.4byte	.LVL287
 11559 13e5 48000000 		.4byte	.LVL288
 11560 13e9 0600     		.2byte	0x6
 11561 13eb 73       		.byte	0x73
 11562 13ec 00       		.sleb128 0
 11563 13ed 75       		.byte	0x75
 11564 13ee 00       		.sleb128 0
 11565 13ef 21       		.byte	0x21
 11566 13f0 9F       		.byte	0x9f
 11567 13f1 00000000 		.4byte	0
 11568 13f5 00000000 		.4byte	0
 11569              	.LLST130:
 11570 13f9 0A000000 		.4byte	.LVL281
 11571 13fd 4A000000 		.4byte	.LVL289
 11572 1401 0100     		.2byte	0x1
 11573 1403 50       		.byte	0x50
 11574 1404 6E000000 		.4byte	.LVL293
 11575 1408 72000000 		.4byte	.LVL294
 11576 140c 0100     		.2byte	0x1
 11577 140e 50       		.byte	0x50
 11578 140f 78000000 		.4byte	.LVL295
 11579 1413 89000000 		.4byte	.LVL296-1
 11580 1417 0100     		.2byte	0x1
 11581 1419 50       		.byte	0x50
 11582 141a 8C000000 		.4byte	.LVL297
 11583 141e 96000000 		.4byte	.LVL298
 11584 1422 0100     		.2byte	0x1
 11585 1424 50       		.byte	0x50
 11586 1425 00000000 		.4byte	0
 11587 1429 00000000 		.4byte	0
 11588              	.LLST131:
 11589 142d 1E000000 		.4byte	.LVL283
 11590 1431 6E000000 		.4byte	.LVL293
 11591 1435 0100     		.2byte	0x1
 11592 1437 58       		.byte	0x58
 11593 1438 78000000 		.4byte	.LVL295
 11594 143c A0000000 		.4byte	.LFE20
 11595 1440 0100     		.2byte	0x1
ARM GAS  /var/folders/5n/p_75w94d66l9ssrldxqdhh700000gn/T//cciPPkzE.s 			page 205


 11596 1442 58       		.byte	0x58
 11597 1443 00000000 		.4byte	0
 11598 1447 00000000 		.4byte	0
 11599              	.LLST132:
 11600 144b 00000000 		.4byte	.LFB22
 11601 144f 04000000 		.4byte	.LCFI27
 11602 1453 0200     		.2byte	0x2
 11603 1455 7D       		.byte	0x7d
 11604 1456 00       		.sleb128 0
 11605 1457 04000000 		.4byte	.LCFI27
 11606 145b A8000000 		.4byte	.LFE22
 11607 145f 0200     		.2byte	0x2
 11608 1461 7D       		.byte	0x7d
 11609 1462 10       		.sleb128 16
 11610 1463 00000000 		.4byte	0
 11611 1467 00000000 		.4byte	0
 11612              	.LLST133:
 11613 146b 00000000 		.4byte	.LVL299
 11614 146f 0E000000 		.4byte	.LVL300
 11615 1473 0100     		.2byte	0x1
 11616 1475 50       		.byte	0x50
 11617 1476 16000000 		.4byte	.LVL301
 11618 147a 18000000 		.4byte	.LVL302
 11619 147e 0100     		.2byte	0x1
 11620 1480 50       		.byte	0x50
 11621 1481 4C000000 		.4byte	.LVL310
 11622 1485 50000000 		.4byte	.LVL312
 11623 1489 0100     		.2byte	0x1
 11624 148b 50       		.byte	0x50
 11625 148c 5C000000 		.4byte	.LVL315
 11626 1490 64000000 		.4byte	.LVL316
 11627 1494 0100     		.2byte	0x1
 11628 1496 50       		.byte	0x50
 11629 1497 00000000 		.4byte	0
 11630 149b 00000000 		.4byte	0
 11631              	.LLST134:
 11632 149f 00000000 		.4byte	.LVL299
 11633 14a3 0E000000 		.4byte	.LVL300
 11634 14a7 0100     		.2byte	0x1
 11635 14a9 51       		.byte	0x51
 11636 14aa 16000000 		.4byte	.LVL301
 11637 14ae 1A000000 		.4byte	.LVL303
 11638 14b2 0100     		.2byte	0x1
 11639 14b4 51       		.byte	0x51
 11640 14b5 4C000000 		.4byte	.LVL310
 11641 14b9 4E000000 		.4byte	.LVL311
 11642 14bd 0100     		.2byte	0x1
 11643 14bf 51       		.byte	0x51
 11644 14c0 5C000000 		.4byte	.LVL315
 11645 14c4 66000000 		.4byte	.LVL317
 11646 14c8 0100     		.2byte	0x1
 11647 14ca 51       		.byte	0x51
 11648 14cb 00000000 		.4byte	0
 11649 14cf 00000000 		.4byte	0
 11650              	.LLST135:
 11651 14d3 00000000 		.4byte	.LVL299
 11652 14d7 0E000000 		.4byte	.LVL300
ARM GAS  /var/folders/5n/p_75w94d66l9ssrldxqdhh700000gn/T//cciPPkzE.s 			page 206


 11653 14db 0100     		.2byte	0x1
 11654 14dd 52       		.byte	0x52
 11655 14de 16000000 		.4byte	.LVL301
 11656 14e2 1C000000 		.4byte	.LVL304
 11657 14e6 0100     		.2byte	0x1
 11658 14e8 52       		.byte	0x52
 11659 14e9 4C000000 		.4byte	.LVL310
 11660 14ed 52000000 		.4byte	.LVL313
 11661 14f1 0100     		.2byte	0x1
 11662 14f3 52       		.byte	0x52
 11663 14f4 5C000000 		.4byte	.LVL315
 11664 14f8 68000000 		.4byte	.LVL318
 11665 14fc 0100     		.2byte	0x1
 11666 14fe 52       		.byte	0x52
 11667 14ff 00000000 		.4byte	0
 11668 1503 00000000 		.4byte	0
 11669              	.LLST136:
 11670 1507 20000000 		.4byte	.LVL305
 11671 150b 43000000 		.4byte	.LVL309-1
 11672 150f 0100     		.2byte	0x1
 11673 1511 50       		.byte	0x50
 11674 1512 56000000 		.4byte	.LVL314
 11675 1516 5C000000 		.4byte	.LVL315
 11676 151a 0100     		.2byte	0x1
 11677 151c 50       		.byte	0x50
 11678 151d 6C000000 		.4byte	.LVL319
 11679 1521 9C000000 		.4byte	.LVL320
 11680 1525 0100     		.2byte	0x1
 11681 1527 50       		.byte	0x50
 11682 1528 9C000000 		.4byte	.LVL320
 11683 152c A8000000 		.4byte	.LFE22
 11684 1530 0200     		.2byte	0x2
 11685 1532 72       		.byte	0x72
 11686 1533 00       		.sleb128 0
 11687 1534 00000000 		.4byte	0
 11688 1538 00000000 		.4byte	0
 11689              	.LLST137:
 11690 153c 2C000000 		.4byte	.LVL306
 11691 1540 32000000 		.4byte	.LVL307
 11692 1544 0200     		.2byte	0x2
 11693 1546 30       		.byte	0x30
 11694 1547 9F       		.byte	0x9f
 11695 1548 3C000000 		.4byte	.LVL308
 11696 154c 43000000 		.4byte	.LVL309-1
 11697 1550 0100     		.2byte	0x1
 11698 1552 53       		.byte	0x53
 11699 1553 00000000 		.4byte	0
 11700 1557 00000000 		.4byte	0
 11701              	.LLST138:
 11702 155b 00000000 		.4byte	.LVL321
 11703 155f 05000000 		.4byte	.LVL324-1
 11704 1563 0100     		.2byte	0x1
 11705 1565 50       		.byte	0x50
 11706 1566 00000000 		.4byte	0
 11707 156a 00000000 		.4byte	0
 11708              	.LLST139:
 11709 156e 00000000 		.4byte	.LVL321
ARM GAS  /var/folders/5n/p_75w94d66l9ssrldxqdhh700000gn/T//cciPPkzE.s 			page 207


 11710 1572 05000000 		.4byte	.LVL323-1
 11711 1576 0100     		.2byte	0x1
 11712 1578 51       		.byte	0x51
 11713 1579 00000000 		.4byte	0
 11714 157d 00000000 		.4byte	0
 11715              	.LLST140:
 11716 1581 00000000 		.4byte	.LVL321
 11717 1585 05000000 		.4byte	.LVL322-1
 11718 1589 0100     		.2byte	0x1
 11719 158b 52       		.byte	0x52
 11720 158c 00000000 		.4byte	0
 11721 1590 00000000 		.4byte	0
 11722              	.LLST141:
 11723 1594 00000000 		.4byte	.LFB25
 11724 1598 04000000 		.4byte	.LCFI28
 11725 159c 0200     		.2byte	0x2
 11726 159e 7D       		.byte	0x7d
 11727 159f 00       		.sleb128 0
 11728 15a0 04000000 		.4byte	.LCFI28
 11729 15a4 06000000 		.4byte	.LCFI29
 11730 15a8 0200     		.2byte	0x2
 11731 15aa 7D       		.byte	0x7d
 11732 15ab 24       		.sleb128 36
 11733 15ac 06000000 		.4byte	.LCFI29
 11734 15b0 F4020000 		.4byte	.LFE25
 11735 15b4 0300     		.2byte	0x3
 11736 15b6 7D       		.byte	0x7d
 11737 15b7 F800     		.sleb128 120
 11738 15b9 00000000 		.4byte	0
 11739 15bd 00000000 		.4byte	0
 11740              	.LLST142:
 11741 15c1 00000000 		.4byte	.LVL325
 11742 15c5 21000000 		.4byte	.LVL326-1
 11743 15c9 0100     		.2byte	0x1
 11744 15cb 50       		.byte	0x50
 11745 15cc 21000000 		.4byte	.LVL326-1
 11746 15d0 F4020000 		.4byte	.LFE25
 11747 15d4 0300     		.2byte	0x3
 11748 15d6 91       		.byte	0x91
 11749 15d7 987F     		.sleb128 -104
 11750 15d9 00000000 		.4byte	0
 11751 15dd 00000000 		.4byte	0
 11752              	.LLST143:
 11753 15e1 00000000 		.4byte	.LVL325
 11754 15e5 21000000 		.4byte	.LVL326-1
 11755 15e9 0100     		.2byte	0x1
 11756 15eb 51       		.byte	0x51
 11757 15ec 21000000 		.4byte	.LVL326-1
 11758 15f0 A0000000 		.4byte	.LVL333
 11759 15f4 0100     		.2byte	0x1
 11760 15f6 54       		.byte	0x54
 11761 15f7 A0000000 		.4byte	.LVL333
 11762 15fb 1C010000 		.4byte	.LVL338
 11763 15ff 0100     		.2byte	0x1
 11764 1601 55       		.byte	0x55
 11765 1602 1C010000 		.4byte	.LVL338
 11766 1606 58010000 		.4byte	.LVL344
ARM GAS  /var/folders/5n/p_75w94d66l9ssrldxqdhh700000gn/T//cciPPkzE.s 			page 208


 11767 160a 0100     		.2byte	0x1
 11768 160c 54       		.byte	0x54
 11769 160d 58010000 		.4byte	.LVL344
 11770 1611 C2010000 		.4byte	.LVL350
 11771 1615 0100     		.2byte	0x1
 11772 1617 56       		.byte	0x56
 11773 1618 C2010000 		.4byte	.LVL350
 11774 161c 30020000 		.4byte	.LVL353
 11775 1620 0100     		.2byte	0x1
 11776 1622 54       		.byte	0x54
 11777 1623 30020000 		.4byte	.LVL353
 11778 1627 4E020000 		.4byte	.LVL354
 11779 162b 0100     		.2byte	0x1
 11780 162d 55       		.byte	0x55
 11781 162e 4E020000 		.4byte	.LVL354
 11782 1632 98020000 		.4byte	.LVL356
 11783 1636 0100     		.2byte	0x1
 11784 1638 56       		.byte	0x56
 11785 1639 98020000 		.4byte	.LVL356
 11786 163d F4020000 		.4byte	.LFE25
 11787 1641 0100     		.2byte	0x1
 11788 1643 54       		.byte	0x54
 11789 1644 00000000 		.4byte	0
 11790 1648 00000000 		.4byte	0
 11791              	.LLST144:
 11792 164c 00000000 		.4byte	.LVL325
 11793 1650 21000000 		.4byte	.LVL326-1
 11794 1654 0100     		.2byte	0x1
 11795 1656 52       		.byte	0x52
 11796 1657 21000000 		.4byte	.LVL326-1
 11797 165b 9E000000 		.4byte	.LVL332
 11798 165f 0100     		.2byte	0x1
 11799 1661 55       		.byte	0x55
 11800 1662 9E000000 		.4byte	.LVL332
 11801 1666 1E010000 		.4byte	.LVL339
 11802 166a 0100     		.2byte	0x1
 11803 166c 56       		.byte	0x56
 11804 166d 1E010000 		.4byte	.LVL339
 11805 1671 4A010000 		.4byte	.LVL342
 11806 1675 0100     		.2byte	0x1
 11807 1677 55       		.byte	0x55
 11808 1678 4A010000 		.4byte	.LVL342
 11809 167c 5A010000 		.4byte	.LVL345
 11810 1680 0100     		.2byte	0x1
 11811 1682 50       		.byte	0x50
 11812 1683 5A010000 		.4byte	.LVL345
 11813 1687 C2010000 		.4byte	.LVL350
 11814 168b 0100     		.2byte	0x1
 11815 168d 57       		.byte	0x57
 11816 168e C2010000 		.4byte	.LVL350
 11817 1692 30020000 		.4byte	.LVL353
 11818 1696 0100     		.2byte	0x1
 11819 1698 55       		.byte	0x55
 11820 1699 30020000 		.4byte	.LVL353
 11821 169d 4E020000 		.4byte	.LVL354
 11822 16a1 0100     		.2byte	0x1
 11823 16a3 56       		.byte	0x56
ARM GAS  /var/folders/5n/p_75w94d66l9ssrldxqdhh700000gn/T//cciPPkzE.s 			page 209


 11824 16a4 4E020000 		.4byte	.LVL354
 11825 16a8 98020000 		.4byte	.LVL356
 11826 16ac 0100     		.2byte	0x1
 11827 16ae 57       		.byte	0x57
 11828 16af 98020000 		.4byte	.LVL356
 11829 16b3 F4020000 		.4byte	.LFE25
 11830 16b7 0100     		.2byte	0x1
 11831 16b9 55       		.byte	0x55
 11832 16ba 00000000 		.4byte	0
 11833 16be 00000000 		.4byte	0
 11834              	.LLST145:
 11835 16c2 00000000 		.4byte	.LVL325
 11836 16c6 21000000 		.4byte	.LVL326-1
 11837 16ca 0100     		.2byte	0x1
 11838 16cc 53       		.byte	0x53
 11839 16cd 21000000 		.4byte	.LVL326-1
 11840 16d1 9C000000 		.4byte	.LVL331
 11841 16d5 0100     		.2byte	0x1
 11842 16d7 56       		.byte	0x56
 11843 16d8 9C000000 		.4byte	.LVL331
 11844 16dc A2000000 		.4byte	.LVL334
 11845 16e0 0100     		.2byte	0x1
 11846 16e2 51       		.byte	0x51
 11847 16e3 00000000 		.4byte	0
 11848 16e7 00000000 		.4byte	0
 11849              	.LLST146:
 11850 16eb 00000000 		.4byte	.LVL325
 11851 16ef 3A010000 		.4byte	.LVL341
 11852 16f3 0200     		.2byte	0x2
 11853 16f5 30       		.byte	0x30
 11854 16f6 9F       		.byte	0x9f
 11855 16f7 3A010000 		.4byte	.LVL341
 11856 16fb 10020000 		.4byte	.LVL351
 11857 16ff 0300     		.2byte	0x3
 11858 1701 91       		.byte	0x91
 11859 1702 AC7F     		.sleb128 -84
 11860 1704 30020000 		.4byte	.LVL353
 11861 1708 4E020000 		.4byte	.LVL354
 11862 170c 0200     		.2byte	0x2
 11863 170e 30       		.byte	0x30
 11864 170f 9F       		.byte	0x9f
 11865 1710 4E020000 		.4byte	.LVL354
 11866 1714 98020000 		.4byte	.LVL356
 11867 1718 0300     		.2byte	0x3
 11868 171a 91       		.byte	0x91
 11869 171b AC7F     		.sleb128 -84
 11870 171d 98020000 		.4byte	.LVL356
 11871 1721 CE020000 		.4byte	.LVL362
 11872 1725 0200     		.2byte	0x2
 11873 1727 30       		.byte	0x30
 11874 1728 9F       		.byte	0x9f
 11875 1729 CE020000 		.4byte	.LVL362
 11876 172d D0020000 		.4byte	.LVL363
 11877 1731 0100     		.2byte	0x1
 11878 1733 50       		.byte	0x50
 11879 1734 D0020000 		.4byte	.LVL363
 11880 1738 F4020000 		.4byte	.LFE25
ARM GAS  /var/folders/5n/p_75w94d66l9ssrldxqdhh700000gn/T//cciPPkzE.s 			page 210


 11881 173c 0300     		.2byte	0x3
 11882 173e 91       		.byte	0x91
 11883 173f AC7F     		.sleb128 -84
 11884 1741 00000000 		.4byte	0
 11885 1745 00000000 		.4byte	0
 11886              	.LLST147:
 11887 1749 22000000 		.4byte	.LVL326
 11888 174d 3E000000 		.4byte	.LVL327
 11889 1751 0100     		.2byte	0x1
 11890 1753 50       		.byte	0x50
 11891 1754 3E000000 		.4byte	.LVL327
 11892 1758 58000000 		.4byte	.LVL329
 11893 175c 0100     		.2byte	0x1
 11894 175e 5B       		.byte	0x5b
 11895 175f 2E010000 		.4byte	.LVL340
 11896 1763 3A010000 		.4byte	.LVL341
 11897 1767 0100     		.2byte	0x1
 11898 1769 50       		.byte	0x50
 11899 176a 3A010000 		.4byte	.LVL341
 11900 176e 52010000 		.4byte	.LVL343
 11901 1772 0100     		.2byte	0x1
 11902 1774 5B       		.byte	0x5b
 11903 1775 52010000 		.4byte	.LVL343
 11904 1779 5A010000 		.4byte	.LVL345
 11905 177d 0100     		.2byte	0x1
 11906 177f 52       		.byte	0x52
 11907 1780 10020000 		.4byte	.LVL351
 11908 1784 28020000 		.4byte	.LVL352
 11909 1788 0100     		.2byte	0x1
 11910 178a 5B       		.byte	0x5b
 11911 178b 98020000 		.4byte	.LVL356
 11912 178f A2020000 		.4byte	.LVL357
 11913 1793 0100     		.2byte	0x1
 11914 1795 50       		.byte	0x50
 11915 1796 A2020000 		.4byte	.LVL357
 11916 179a B2020000 		.4byte	.LVL358
 11917 179e 0100     		.2byte	0x1
 11918 17a0 51       		.byte	0x51
 11919 17a1 B2020000 		.4byte	.LVL358
 11920 17a5 D0020000 		.4byte	.LVL363
 11921 17a9 0100     		.2byte	0x1
 11922 17ab 5B       		.byte	0x5b
 11923 17ac 00000000 		.4byte	0
 11924 17b0 00000000 		.4byte	0
 11925              	.LLST148:
 11926 17b4 C0020000 		.4byte	.LVL359
 11927 17b8 CB020000 		.4byte	.LVL361-1
 11928 17bc 0100     		.2byte	0x1
 11929 17be 51       		.byte	0x51
 11930 17bf 00000000 		.4byte	0
 11931 17c3 00000000 		.4byte	0
 11932              	.LLST149:
 11933 17c7 54000000 		.4byte	.LVL328
 11934 17cb A2000000 		.4byte	.LVL334
 11935 17cf 0100     		.2byte	0x1
 11936 17d1 50       		.byte	0x50
 11937 17d2 00000000 		.4byte	0
ARM GAS  /var/folders/5n/p_75w94d66l9ssrldxqdhh700000gn/T//cciPPkzE.s 			page 211


 11938 17d6 00000000 		.4byte	0
 11939              	.LLST150:
 11940 17da 8E000000 		.4byte	.LVL330
 11941 17de A2000000 		.4byte	.LVL334
 11942 17e2 0200     		.2byte	0x2
 11943 17e4 30       		.byte	0x30
 11944 17e5 9F       		.byte	0x9f
 11945 17e6 10010000 		.4byte	.LVL337
 11946 17ea 1E010000 		.4byte	.LVL339
 11947 17ee 0100     		.2byte	0x1
 11948 17f0 5B       		.byte	0x5b
 11949 17f1 3A010000 		.4byte	.LVL341
 11950 17f5 5A010000 		.4byte	.LVL345
 11951 17f9 0200     		.2byte	0x2
 11952 17fb 30       		.byte	0x30
 11953 17fc 9F       		.byte	0x9f
 11954 17fd B0010000 		.4byte	.LVL348
 11955 1801 B8010000 		.4byte	.LVL349
 11956 1805 0100     		.2byte	0x1
 11957 1807 54       		.byte	0x54
 11958 1808 00000000 		.4byte	0
 11959 180c 00000000 		.4byte	0
 11960              	.LLST151:
 11961 1810 B6000000 		.4byte	.LVL335
 11962 1814 E4000000 		.4byte	.LVL336
 11963 1818 0100     		.2byte	0x1
 11964 181a 5B       		.byte	0x5b
 11965 181b 30020000 		.4byte	.LVL353
 11966 181f 4E020000 		.4byte	.LVL354
 11967 1823 0100     		.2byte	0x1
 11968 1825 5B       		.byte	0x5b
 11969 1826 00000000 		.4byte	0
 11970 182a 00000000 		.4byte	0
 11971              	.LLST152:
 11972 182e 88010000 		.4byte	.LVL346
 11973 1832 AE010000 		.4byte	.LVL347
 11974 1836 0100     		.2byte	0x1
 11975 1838 54       		.byte	0x54
 11976 1839 66020000 		.4byte	.LVL355
 11977 183d 98020000 		.4byte	.LVL356
 11978 1841 0100     		.2byte	0x1
 11979 1843 54       		.byte	0x54
 11980 1844 00000000 		.4byte	0
 11981 1848 00000000 		.4byte	0
 11982              	.LLST153:
 11983 184c 00000000 		.4byte	.LFB27
 11984 1850 04000000 		.4byte	.LCFI30
 11985 1854 0200     		.2byte	0x2
 11986 1856 7D       		.byte	0x7d
 11987 1857 00       		.sleb128 0
 11988 1858 04000000 		.4byte	.LCFI30
 11989 185c 74000000 		.4byte	.LFE27
 11990 1860 0200     		.2byte	0x2
 11991 1862 7D       		.byte	0x7d
 11992 1863 08       		.sleb128 8
 11993 1864 00000000 		.4byte	0
 11994 1868 00000000 		.4byte	0
ARM GAS  /var/folders/5n/p_75w94d66l9ssrldxqdhh700000gn/T//cciPPkzE.s 			page 212


 11995              	.LLST154:
 11996 186c 00000000 		.4byte	.LVL364
 11997 1870 06000000 		.4byte	.LVL365
 11998 1874 0100     		.2byte	0x1
 11999 1876 50       		.byte	0x50
 12000 1877 20000000 		.4byte	.LVL368
 12001 187b 24000000 		.4byte	.LVL369
 12002 187f 0100     		.2byte	0x1
 12003 1881 50       		.byte	0x50
 12004 1882 00000000 		.4byte	0
 12005 1886 00000000 		.4byte	0
 12006              	.LLST155:
 12007 188a 00000000 		.4byte	.LVL364
 12008 188e 40000000 		.4byte	.LVL371
 12009 1892 0100     		.2byte	0x1
 12010 1894 51       		.byte	0x51
 12011 1895 5E000000 		.4byte	.LVL374
 12012 1899 62000000 		.4byte	.LVL375
 12013 189d 0100     		.2byte	0x1
 12014 189f 51       		.byte	0x51
 12015 18a0 62000000 		.4byte	.LVL375
 12016 18a4 64000000 		.4byte	.LVL376
 12017 18a8 0100     		.2byte	0x1
 12018 18aa 52       		.byte	0x52
 12019 18ab 64000000 		.4byte	.LVL376
 12020 18af 68000000 		.4byte	.LVL377
 12021 18b3 0100     		.2byte	0x1
 12022 18b5 51       		.byte	0x51
 12023 18b6 00000000 		.4byte	0
 12024 18ba 00000000 		.4byte	0
 12025              	.LLST156:
 12026 18be 44000000 		.4byte	.LVL372
 12027 18c2 5C000000 		.4byte	.LVL373
 12028 18c6 0100     		.2byte	0x1
 12029 18c8 50       		.byte	0x50
 12030 18c9 00000000 		.4byte	0
 12031 18cd 00000000 		.4byte	0
 12032              	.LLST157:
 12033 18d1 00000000 		.4byte	.LVL364
 12034 18d5 40000000 		.4byte	.LVL371
 12035 18d9 0200     		.2byte	0x2
 12036 18db 30       		.byte	0x30
 12037 18dc 9F       		.byte	0x9f
 12038 18dd 40000000 		.4byte	.LVL371
 12039 18e1 43000000 		.4byte	.LVL372-1
 12040 18e5 0100     		.2byte	0x1
 12041 18e7 51       		.byte	0x51
 12042 18e8 5E000000 		.4byte	.LVL374
 12043 18ec 74000000 		.4byte	.LFE27
 12044 18f0 0200     		.2byte	0x2
 12045 18f2 30       		.byte	0x30
 12046 18f3 9F       		.byte	0x9f
 12047 18f4 00000000 		.4byte	0
 12048 18f8 00000000 		.4byte	0
 12049              	.LLST158:
 12050 18fc 00000000 		.4byte	.LVL364
 12051 1900 40000000 		.4byte	.LVL371
ARM GAS  /var/folders/5n/p_75w94d66l9ssrldxqdhh700000gn/T//cciPPkzE.s 			page 213


 12052 1904 0200     		.2byte	0x2
 12053 1906 30       		.byte	0x30
 12054 1907 9F       		.byte	0x9f
 12055 1908 40000000 		.4byte	.LVL371
 12056 190c 43000000 		.4byte	.LVL372-1
 12057 1910 0100     		.2byte	0x1
 12058 1912 52       		.byte	0x52
 12059 1913 5E000000 		.4byte	.LVL374
 12060 1917 74000000 		.4byte	.LFE27
 12061 191b 0200     		.2byte	0x2
 12062 191d 30       		.byte	0x30
 12063 191e 9F       		.byte	0x9f
 12064 191f 00000000 		.4byte	0
 12065 1923 00000000 		.4byte	0
 12066              	.LLST159:
 12067 1927 00000000 		.4byte	.LVL364
 12068 192b 0A000000 		.4byte	.LVL366
 12069 192f 0100     		.2byte	0x1
 12070 1931 50       		.byte	0x50
 12071 1932 20000000 		.4byte	.LVL368
 12072 1936 24000000 		.4byte	.LVL369
 12073 193a 0100     		.2byte	0x1
 12074 193c 50       		.byte	0x50
 12075 193d 00000000 		.4byte	0
 12076 1941 00000000 		.4byte	0
 12077              	.LLST160:
 12078 1945 10000000 		.4byte	.LVL367
 12079 1949 20000000 		.4byte	.LVL368
 12080 194d 0100     		.2byte	0x1
 12081 194f 54       		.byte	0x54
 12082 1950 26000000 		.4byte	.LVL370
 12083 1954 74000000 		.4byte	.LFE27
 12084 1958 0100     		.2byte	0x1
 12085 195a 54       		.byte	0x54
 12086 195b 00000000 		.4byte	0
 12087 195f 00000000 		.4byte	0
 12088              	.LLST161:
 12089 1963 00000000 		.4byte	.LVL378
 12090 1967 05000000 		.4byte	.LVL381-1
 12091 196b 0100     		.2byte	0x1
 12092 196d 50       		.byte	0x50
 12093 196e 00000000 		.4byte	0
 12094 1972 00000000 		.4byte	0
 12095              	.LLST162:
 12096 1976 00000000 		.4byte	.LVL378
 12097 197a 05000000 		.4byte	.LVL380-1
 12098 197e 0100     		.2byte	0x1
 12099 1980 51       		.byte	0x51
 12100 1981 00000000 		.4byte	0
 12101 1985 00000000 		.4byte	0
 12102              	.LLST163:
 12103 1989 00000000 		.4byte	.LVL378
 12104 198d 05000000 		.4byte	.LVL379-1
 12105 1991 0100     		.2byte	0x1
 12106 1993 52       		.byte	0x52
 12107 1994 00000000 		.4byte	0
 12108 1998 00000000 		.4byte	0
ARM GAS  /var/folders/5n/p_75w94d66l9ssrldxqdhh700000gn/T//cciPPkzE.s 			page 214


 12109              	.LLST164:
 12110 199c 00000000 		.4byte	.LVL382
 12111 19a0 05000000 		.4byte	.LVL384-1
 12112 19a4 0100     		.2byte	0x1
 12113 19a6 50       		.byte	0x50
 12114 19a7 00000000 		.4byte	0
 12115 19ab 00000000 		.4byte	0
 12116              	.LLST165:
 12117 19af 00000000 		.4byte	.LVL382
 12118 19b3 05000000 		.4byte	.LVL383-1
 12119 19b7 0100     		.2byte	0x1
 12120 19b9 51       		.byte	0x51
 12121 19ba 00000000 		.4byte	0
 12122 19be 00000000 		.4byte	0
 12123              	.LLST166:
 12124 19c2 00000000 		.4byte	.LVL382
 12125 19c6 05000000 		.4byte	.LVL385-1
 12126 19ca 0100     		.2byte	0x1
 12127 19cc 52       		.byte	0x52
 12128 19cd 00000000 		.4byte	0
 12129 19d1 00000000 		.4byte	0
 12130              	.LLST167:
 12131 19d5 00000000 		.4byte	.LFB31
 12132 19d9 04000000 		.4byte	.LCFI31
 12133 19dd 0200     		.2byte	0x2
 12134 19df 7D       		.byte	0x7d
 12135 19e0 00       		.sleb128 0
 12136 19e1 04000000 		.4byte	.LCFI31
 12137 19e5 06000000 		.4byte	.LCFI32
 12138 19e9 0200     		.2byte	0x2
 12139 19eb 7D       		.byte	0x7d
 12140 19ec 18       		.sleb128 24
 12141 19ed 06000000 		.4byte	.LCFI32
 12142 19f1 04010000 		.4byte	.LFE31
 12143 19f5 0200     		.2byte	0x2
 12144 19f7 7D       		.byte	0x7d
 12145 19f8 30       		.sleb128 48
 12146 19f9 00000000 		.4byte	0
 12147 19fd 00000000 		.4byte	0
 12148              	.LLST168:
 12149 1a01 00000000 		.4byte	.LVL386
 12150 1a05 14000000 		.4byte	.LVL387
 12151 1a09 0100     		.2byte	0x1
 12152 1a0b 50       		.byte	0x50
 12153 1a0c 00000000 		.4byte	0
 12154 1a10 00000000 		.4byte	0
 12155              	.LLST169:
 12156 1a14 00000000 		.4byte	.LVL386
 12157 1a18 1C000000 		.4byte	.LVL390
 12158 1a1c 0100     		.2byte	0x1
 12159 1a1e 51       		.byte	0x51
 12160 1a1f 1C000000 		.4byte	.LVL390
 12161 1a23 04010000 		.4byte	.LFE31
 12162 1a27 0100     		.2byte	0x1
 12163 1a29 54       		.byte	0x54
 12164 1a2a 00000000 		.4byte	0
 12165 1a2e 00000000 		.4byte	0
ARM GAS  /var/folders/5n/p_75w94d66l9ssrldxqdhh700000gn/T//cciPPkzE.s 			page 215


 12166              	.LLST170:
 12167 1a32 00000000 		.4byte	.LVL386
 12168 1a36 16000000 		.4byte	.LVL388
 12169 1a3a 0100     		.2byte	0x1
 12170 1a3c 52       		.byte	0x52
 12171 1a3d 16000000 		.4byte	.LVL388
 12172 1a41 04010000 		.4byte	.LFE31
 12173 1a45 0100     		.2byte	0x1
 12174 1a47 55       		.byte	0x55
 12175 1a48 00000000 		.4byte	0
 12176 1a4c 00000000 		.4byte	0
 12177              	.LLST171:
 12178 1a50 00000000 		.4byte	.LVL386
 12179 1a54 42000000 		.4byte	.LVL391
 12180 1a58 0100     		.2byte	0x1
 12181 1a5a 53       		.byte	0x53
 12182 1a5b 4A000000 		.4byte	.LVL392
 12183 1a5f 4E000000 		.4byte	.LVL393
 12184 1a63 0100     		.2byte	0x1
 12185 1a65 53       		.byte	0x53
 12186 1a66 54000000 		.4byte	.LVL394
 12187 1a6a 83000000 		.4byte	.LVL396-1
 12188 1a6e 0100     		.2byte	0x1
 12189 1a70 53       		.byte	0x53
 12190 1a71 A0000000 		.4byte	.LVL399
 12191 1a75 A8000000 		.4byte	.LVL400
 12192 1a79 0100     		.2byte	0x1
 12193 1a7b 53       		.byte	0x53
 12194 1a7c AA000000 		.4byte	.LVL401
 12195 1a80 DE000000 		.4byte	.LVL403
 12196 1a84 0100     		.2byte	0x1
 12197 1a86 53       		.byte	0x53
 12198 1a87 E0000000 		.4byte	.LVL404
 12199 1a8b EE000000 		.4byte	.LVL405
 12200 1a8f 0100     		.2byte	0x1
 12201 1a91 53       		.byte	0x53
 12202 1a92 F0000000 		.4byte	.LVL406
 12203 1a96 F2000000 		.4byte	.LVL407
 12204 1a9a 0100     		.2byte	0x1
 12205 1a9c 53       		.byte	0x53
 12206 1a9d 00000000 		.4byte	0
 12207 1aa1 00000000 		.4byte	0
 12208              	.LLST172:
 12209 1aa5 00000000 		.4byte	.LVL386
 12210 1aa9 42000000 		.4byte	.LVL391
 12211 1aad 0200     		.2byte	0x2
 12212 1aaf 30       		.byte	0x30
 12213 1ab0 9F       		.byte	0x9f
 12214 1ab1 4A000000 		.4byte	.LVL392
 12215 1ab5 4E000000 		.4byte	.LVL393
 12216 1ab9 0200     		.2byte	0x2
 12217 1abb 30       		.byte	0x30
 12218 1abc 9F       		.byte	0x9f
 12219 1abd 54000000 		.4byte	.LVL394
 12220 1ac1 68000000 		.4byte	.LVL395
 12221 1ac5 0200     		.2byte	0x2
 12222 1ac7 30       		.byte	0x30
ARM GAS  /var/folders/5n/p_75w94d66l9ssrldxqdhh700000gn/T//cciPPkzE.s 			page 216


 12223 1ac8 9F       		.byte	0x9f
 12224 1ac9 92000000 		.4byte	.LVL397
 12225 1acd 9E000000 		.4byte	.LVL398
 12226 1ad1 0100     		.2byte	0x1
 12227 1ad3 50       		.byte	0x50
 12228 1ad4 A0000000 		.4byte	.LVL399
 12229 1ad8 A8000000 		.4byte	.LVL400
 12230 1adc 0200     		.2byte	0x2
 12231 1ade 30       		.byte	0x30
 12232 1adf 9F       		.byte	0x9f
 12233 1ae0 AA000000 		.4byte	.LVL401
 12234 1ae4 D8000000 		.4byte	.LVL402
 12235 1ae8 0200     		.2byte	0x2
 12236 1aea 30       		.byte	0x30
 12237 1aeb 9F       		.byte	0x9f
 12238 1aec D8000000 		.4byte	.LVL402
 12239 1af0 F0000000 		.4byte	.LVL406
 12240 1af4 0100     		.2byte	0x1
 12241 1af6 50       		.byte	0x50
 12242 1af7 F0000000 		.4byte	.LVL406
 12243 1afb 04010000 		.4byte	.LFE31
 12244 1aff 0200     		.2byte	0x2
 12245 1b01 30       		.byte	0x30
 12246 1b02 9F       		.byte	0x9f
 12247 1b03 00000000 		.4byte	0
 12248 1b07 00000000 		.4byte	0
 12249              	.LLST174:
 12250 1b0b 1A000000 		.4byte	.LVL389
 12251 1b0f 4A000000 		.4byte	.LVL392
 12252 1b13 0100     		.2byte	0x1
 12253 1b15 57       		.byte	0x57
 12254 1b16 54000000 		.4byte	.LVL394
 12255 1b1a 04010000 		.4byte	.LFE31
 12256 1b1e 0100     		.2byte	0x1
 12257 1b20 57       		.byte	0x57
 12258 1b21 00000000 		.4byte	0
 12259 1b25 00000000 		.4byte	0
 12260              	.LLST175:
 12261 1b29 00000000 		.4byte	.LFB33
 12262 1b2d 02000000 		.4byte	.LCFI33
 12263 1b31 0200     		.2byte	0x2
 12264 1b33 7D       		.byte	0x7d
 12265 1b34 00       		.sleb128 0
 12266 1b35 02000000 		.4byte	.LCFI33
 12267 1b39 06000000 		.4byte	.LCFI34
 12268 1b3d 0200     		.2byte	0x2
 12269 1b3f 7D       		.byte	0x7d
 12270 1b40 14       		.sleb128 20
 12271 1b41 06000000 		.4byte	.LCFI34
 12272 1b45 E0000000 		.4byte	.LFE33
 12273 1b49 0200     		.2byte	0x2
 12274 1b4b 7D       		.byte	0x7d
 12275 1b4c 30       		.sleb128 48
 12276 1b4d 00000000 		.4byte	0
 12277 1b51 00000000 		.4byte	0
 12278              	.LLST176:
 12279 1b55 00000000 		.4byte	.LVL408
ARM GAS  /var/folders/5n/p_75w94d66l9ssrldxqdhh700000gn/T//cciPPkzE.s 			page 217


 12280 1b59 10000000 		.4byte	.LVL409
 12281 1b5d 0100     		.2byte	0x1
 12282 1b5f 50       		.byte	0x50
 12283 1b60 00000000 		.4byte	0
 12284 1b64 00000000 		.4byte	0
 12285              	.LLST177:
 12286 1b68 00000000 		.4byte	.LVL408
 12287 1b6c 18000000 		.4byte	.LVL412
 12288 1b70 0100     		.2byte	0x1
 12289 1b72 51       		.byte	0x51
 12290 1b73 18000000 		.4byte	.LVL412
 12291 1b77 E0000000 		.4byte	.LFE33
 12292 1b7b 0100     		.2byte	0x1
 12293 1b7d 54       		.byte	0x54
 12294 1b7e 00000000 		.4byte	0
 12295 1b82 00000000 		.4byte	0
 12296              	.LLST178:
 12297 1b86 00000000 		.4byte	.LVL408
 12298 1b8a 12000000 		.4byte	.LVL410
 12299 1b8e 0100     		.2byte	0x1
 12300 1b90 52       		.byte	0x52
 12301 1b91 12000000 		.4byte	.LVL410
 12302 1b95 E0000000 		.4byte	.LFE33
 12303 1b99 0100     		.2byte	0x1
 12304 1b9b 55       		.byte	0x55
 12305 1b9c 00000000 		.4byte	0
 12306 1ba0 00000000 		.4byte	0
 12307              	.LLST179:
 12308 1ba4 00000000 		.4byte	.LVL408
 12309 1ba8 34000000 		.4byte	.LVL414
 12310 1bac 0100     		.2byte	0x1
 12311 1bae 53       		.byte	0x53
 12312 1baf 3C000000 		.4byte	.LVL415
 12313 1bb3 40000000 		.4byte	.LVL416
 12314 1bb7 0100     		.2byte	0x1
 12315 1bb9 53       		.byte	0x53
 12316 1bba 44000000 		.4byte	.LVL417
 12317 1bbe 5C000000 		.4byte	.LVL418
 12318 1bc2 0100     		.2byte	0x1
 12319 1bc4 53       		.byte	0x53
 12320 1bc5 5E000000 		.4byte	.LVL419
 12321 1bc9 80000000 		.4byte	.LVL421
 12322 1bcd 0100     		.2byte	0x1
 12323 1bcf 53       		.byte	0x53
 12324 1bd0 80000000 		.4byte	.LVL421
 12325 1bd4 8D000000 		.4byte	.LVL422-1
 12326 1bd8 0200     		.2byte	0x2
 12327 1bda 91       		.byte	0x91
 12328 1bdb 5C       		.sleb128 -36
 12329 1bdc AA000000 		.4byte	.LVL425
 12330 1be0 BC000000 		.4byte	.LVL427
 12331 1be4 0100     		.2byte	0x1
 12332 1be6 53       		.byte	0x53
 12333 1be7 BE000000 		.4byte	.LVL428
 12334 1beb CC000000 		.4byte	.LVL429
 12335 1bef 0100     		.2byte	0x1
 12336 1bf1 53       		.byte	0x53
ARM GAS  /var/folders/5n/p_75w94d66l9ssrldxqdhh700000gn/T//cciPPkzE.s 			page 218


 12337 1bf2 CE000000 		.4byte	.LVL430
 12338 1bf6 D0000000 		.4byte	.LVL431
 12339 1bfa 0100     		.2byte	0x1
 12340 1bfc 53       		.byte	0x53
 12341 1bfd 00000000 		.4byte	0
 12342 1c01 00000000 		.4byte	0
 12343              	.LLST180:
 12344 1c05 1A000000 		.4byte	.LVL413
 12345 1c09 34000000 		.4byte	.LVL414
 12346 1c0d 0200     		.2byte	0x2
 12347 1c0f 30       		.byte	0x30
 12348 1c10 9F       		.byte	0x9f
 12349 1c11 44000000 		.4byte	.LVL417
 12350 1c15 5C000000 		.4byte	.LVL418
 12351 1c19 0200     		.2byte	0x2
 12352 1c1b 30       		.byte	0x30
 12353 1c1c 9F       		.byte	0x9f
 12354 1c1d 5E000000 		.4byte	.LVL419
 12355 1c21 72000000 		.4byte	.LVL420
 12356 1c25 0200     		.2byte	0x2
 12357 1c27 30       		.byte	0x30
 12358 1c28 9F       		.byte	0x9f
 12359 1c29 9C000000 		.4byte	.LVL423
 12360 1c2d A8000000 		.4byte	.LVL424
 12361 1c31 0100     		.2byte	0x1
 12362 1c33 50       		.byte	0x50
 12363 1c34 AA000000 		.4byte	.LVL425
 12364 1c38 B6000000 		.4byte	.LVL426
 12365 1c3c 0200     		.2byte	0x2
 12366 1c3e 30       		.byte	0x30
 12367 1c3f 9F       		.byte	0x9f
 12368 1c40 B6000000 		.4byte	.LVL426
 12369 1c44 CE000000 		.4byte	.LVL430
 12370 1c48 0100     		.2byte	0x1
 12371 1c4a 50       		.byte	0x50
 12372 1c4b CE000000 		.4byte	.LVL430
 12373 1c4f E0000000 		.4byte	.LFE33
 12374 1c53 0200     		.2byte	0x2
 12375 1c55 30       		.byte	0x30
 12376 1c56 9F       		.byte	0x9f
 12377 1c57 00000000 		.4byte	0
 12378 1c5b 00000000 		.4byte	0
 12379              	.LLST182:
 12380 1c5f 16000000 		.4byte	.LVL411
 12381 1c63 3C000000 		.4byte	.LVL415
 12382 1c67 0100     		.2byte	0x1
 12383 1c69 56       		.byte	0x56
 12384 1c6a 44000000 		.4byte	.LVL417
 12385 1c6e E0000000 		.4byte	.LFE33
 12386 1c72 0100     		.2byte	0x1
 12387 1c74 56       		.byte	0x56
 12388 1c75 00000000 		.4byte	0
 12389 1c79 00000000 		.4byte	0
 12390              	.LLST183:
 12391 1c7d 00000000 		.4byte	.LFB35
 12392 1c81 04000000 		.4byte	.LCFI35
 12393 1c85 0200     		.2byte	0x2
ARM GAS  /var/folders/5n/p_75w94d66l9ssrldxqdhh700000gn/T//cciPPkzE.s 			page 219


 12394 1c87 7D       		.byte	0x7d
 12395 1c88 00       		.sleb128 0
 12396 1c89 04000000 		.4byte	.LCFI35
 12397 1c8d 54000000 		.4byte	.LFE35
 12398 1c91 0200     		.2byte	0x2
 12399 1c93 7D       		.byte	0x7d
 12400 1c94 04       		.sleb128 4
 12401 1c95 00000000 		.4byte	0
 12402 1c99 00000000 		.4byte	0
 12403              	.LLST184:
 12404 1c9d 00000000 		.4byte	.LVL432
 12405 1ca1 06000000 		.4byte	.LVL433
 12406 1ca5 0100     		.2byte	0x1
 12407 1ca7 50       		.byte	0x50
 12408 1ca8 00000000 		.4byte	0
 12409 1cac 00000000 		.4byte	0
 12410              	.LLST185:
 12411 1cb0 32000000 		.4byte	.LVL437
 12412 1cb4 38000000 		.4byte	.LVL438
 12413 1cb8 0200     		.2byte	0x2
 12414 1cba 30       		.byte	0x30
 12415 1cbb 9F       		.byte	0x9f
 12416 1cbc 38000000 		.4byte	.LVL438
 12417 1cc0 40000000 		.4byte	.LVL439
 12418 1cc4 0200     		.2byte	0x2
 12419 1cc6 31       		.byte	0x31
 12420 1cc7 9F       		.byte	0x9f
 12421 1cc8 46000000 		.4byte	.LVL440
 12422 1ccc 54000000 		.4byte	.LFE35
 12423 1cd0 0200     		.2byte	0x2
 12424 1cd2 30       		.byte	0x30
 12425 1cd3 9F       		.byte	0x9f
 12426 1cd4 00000000 		.4byte	0
 12427 1cd8 00000000 		.4byte	0
 12428              	.LLST186:
 12429 1cdc 00000000 		.4byte	.LVL432
 12430 1ce0 0A000000 		.4byte	.LVL434
 12431 1ce4 0100     		.2byte	0x1
 12432 1ce6 50       		.byte	0x50
 12433 1ce7 00000000 		.4byte	0
 12434 1ceb 00000000 		.4byte	0
 12435              	.LLST187:
 12436 1cef 10000000 		.4byte	.LVL435
 12437 1cf3 2A000000 		.4byte	.LVL436
 12438 1cf7 0100     		.2byte	0x1
 12439 1cf9 54       		.byte	0x54
 12440 1cfa 32000000 		.4byte	.LVL437
 12441 1cfe 54000000 		.4byte	.LFE35
 12442 1d02 0100     		.2byte	0x1
 12443 1d04 54       		.byte	0x54
 12444 1d05 00000000 		.4byte	0
 12445 1d09 00000000 		.4byte	0
 12446              	.LLST188:
 12447 1d0d 00000000 		.4byte	.LVL441
 12448 1d11 08000000 		.4byte	.LVL443
 12449 1d15 0100     		.2byte	0x1
 12450 1d17 50       		.byte	0x50
ARM GAS  /var/folders/5n/p_75w94d66l9ssrldxqdhh700000gn/T//cciPPkzE.s 			page 220


 12451 1d18 00000000 		.4byte	0
 12452 1d1c 00000000 		.4byte	0
 12453              	.LLST189:
 12454 1d20 00000000 		.4byte	.LVL441
 12455 1d24 22000000 		.4byte	.LVL447
 12456 1d28 0100     		.2byte	0x1
 12457 1d2a 51       		.byte	0x51
 12458 1d2b 3E000000 		.4byte	.LVL449
 12459 1d2f 46000000 		.4byte	.LVL451
 12460 1d33 0100     		.2byte	0x1
 12461 1d35 51       		.byte	0x51
 12462 1d36 00000000 		.4byte	0
 12463 1d3a 00000000 		.4byte	0
 12464              	.LLST190:
 12465 1d3e 00000000 		.4byte	.LVL441
 12466 1d42 2A000000 		.4byte	.LVL448
 12467 1d46 0100     		.2byte	0x1
 12468 1d48 52       		.byte	0x52
 12469 1d49 3E000000 		.4byte	.LVL449
 12470 1d4d 50000000 		.4byte	.LFE36
 12471 1d51 0100     		.2byte	0x1
 12472 1d53 52       		.byte	0x52
 12473 1d54 00000000 		.4byte	0
 12474 1d58 00000000 		.4byte	0
 12475              	.LLST191:
 12476 1d5c 10000000 		.4byte	.LVL444
 12477 1d60 18000000 		.4byte	.LVL445
 12478 1d64 0300     		.2byte	0x3
 12479 1d66 09       		.byte	0x9
 12480 1d67 FF       		.byte	0xff
 12481 1d68 9F       		.byte	0x9f
 12482 1d69 1E000000 		.4byte	.LVL446
 12483 1d6d 44000000 		.4byte	.LVL450
 12484 1d71 0300     		.2byte	0x3
 12485 1d73 09       		.byte	0x9
 12486 1d74 FF       		.byte	0xff
 12487 1d75 9F       		.byte	0x9f
 12488 1d76 44000000 		.4byte	.LVL450
 12489 1d7a 46000000 		.4byte	.LVL451
 12490 1d7e 0100     		.2byte	0x1
 12491 1d80 50       		.byte	0x50
 12492 1d81 46000000 		.4byte	.LVL451
 12493 1d85 50000000 		.4byte	.LFE36
 12494 1d89 0300     		.2byte	0x3
 12495 1d8b 09       		.byte	0x9
 12496 1d8c FF       		.byte	0xff
 12497 1d8d 9F       		.byte	0x9f
 12498 1d8e 00000000 		.4byte	0
 12499 1d92 00000000 		.4byte	0
 12500              	.LLST193:
 12501 1d96 04000000 		.4byte	.LVL442
 12502 1d9a 08000000 		.4byte	.LVL443
 12503 1d9e 0B00     		.2byte	0xb
 12504 1da0 70       		.byte	0x70
 12505 1da1 00       		.sleb128 0
 12506 1da2 48       		.byte	0x48
 12507 1da3 1E       		.byte	0x1e
ARM GAS  /var/folders/5n/p_75w94d66l9ssrldxqdhh700000gn/T//cciPPkzE.s 			page 221


 12508 1da4 03       		.byte	0x3
 12509 1da5 00000000 		.4byte	sockets
 12510 1da9 22       		.byte	0x22
 12511 1daa 9F       		.byte	0x9f
 12512 1dab 00000000 		.4byte	0
 12513 1daf 00000000 		.4byte	0
 12514              		.section	.debug_aranges,"",%progbits
 12515 0000 E4000000 		.4byte	0xe4
 12516 0004 0200     		.2byte	0x2
 12517 0006 00000000 		.4byte	.Ldebug_info0
 12518 000a 04       		.byte	0x4
 12519 000b 00       		.byte	0
 12520 000c 0000     		.2byte	0
 12521 000e 0000     		.2byte	0
 12522 0010 00000000 		.4byte	.LFB34
 12523 0014 F4000000 		.4byte	.LFE34-.LFB34
 12524 0018 00000000 		.4byte	.LFB32
 12525 001c 10010000 		.4byte	.LFE32-.LFB32
 12526 0020 00000000 		.4byte	.LFB26
 12527 0024 00010000 		.4byte	.LFE26-.LFB26
 12528 0028 00000000 		.4byte	.LFB24
 12529 002c 3E010000 		.4byte	.LFE24-.LFB24
 12530 0030 00000000 		.4byte	.LFB28
 12531 0034 7C000000 		.4byte	.LFE28-.LFB28
 12532 0038 00000000 		.4byte	.LFB7
 12533 003c 02000000 		.4byte	.LFE7-.LFB7
 12534 0040 00000000 		.4byte	.LFB12
 12535 0044 60010000 		.4byte	.LFE12-.LFB12
 12536 0048 00000000 		.4byte	.LFB13
 12537 004c 78000000 		.4byte	.LFE13-.LFB13
 12538 0050 00000000 		.4byte	.LFB14
 12539 0054 5C000000 		.4byte	.LFE14-.LFB14
 12540 0058 00000000 		.4byte	.LFB15
 12541 005c 78000000 		.4byte	.LFE15-.LFB15
 12542 0060 00000000 		.4byte	.LFB16
 12543 0064 54000000 		.4byte	.LFE16-.LFB16
 12544 0068 00000000 		.4byte	.LFB17
 12545 006c 14020000 		.4byte	.LFE17-.LFB17
 12546 0070 00000000 		.4byte	.LFB18
 12547 0074 14000000 		.4byte	.LFE18-.LFB18
 12548 0078 00000000 		.4byte	.LFB19
 12549 007c 12000000 		.4byte	.LFE19-.LFB19
 12550 0080 00000000 		.4byte	.LFB21
 12551 0084 F0000000 		.4byte	.LFE21-.LFB21
 12552 0088 00000000 		.4byte	.LFB20
 12553 008c A0000000 		.4byte	.LFE20-.LFB20
 12554 0090 00000000 		.4byte	.LFB22
 12555 0094 A8000000 		.4byte	.LFE22-.LFB22
 12556 0098 00000000 		.4byte	.LFB23
 12557 009c 06000000 		.4byte	.LFE23-.LFB23
 12558 00a0 00000000 		.4byte	.LFB25
 12559 00a4 F4020000 		.4byte	.LFE25-.LFB25
 12560 00a8 00000000 		.4byte	.LFB27
 12561 00ac 74000000 		.4byte	.LFE27-.LFB27
 12562 00b0 00000000 		.4byte	.LFB29
 12563 00b4 06000000 		.4byte	.LFE29-.LFB29
 12564 00b8 00000000 		.4byte	.LFB30
ARM GAS  /var/folders/5n/p_75w94d66l9ssrldxqdhh700000gn/T//cciPPkzE.s 			page 222


 12565 00bc 06000000 		.4byte	.LFE30-.LFB30
 12566 00c0 00000000 		.4byte	.LFB31
 12567 00c4 04010000 		.4byte	.LFE31-.LFB31
 12568 00c8 00000000 		.4byte	.LFB33
 12569 00cc E0000000 		.4byte	.LFE33-.LFB33
 12570 00d0 00000000 		.4byte	.LFB35
 12571 00d4 54000000 		.4byte	.LFE35-.LFB35
 12572 00d8 00000000 		.4byte	.LFB36
 12573 00dc 50000000 		.4byte	.LFE36-.LFB36
 12574 00e0 00000000 		.4byte	0
 12575 00e4 00000000 		.4byte	0
 12576              		.section	.debug_ranges,"",%progbits
 12577              	.Ldebug_ranges0:
 12578 0000 52000000 		.4byte	.LBB53
 12579 0004 6C000000 		.4byte	.LBE53
 12580 0008 80000000 		.4byte	.LBB54
 12581 000c B4000000 		.4byte	.LBE54
 12582 0010 E6000000 		.4byte	.LBB55
 12583 0014 EA000000 		.4byte	.LBE55
 12584 0018 00000000 		.4byte	0
 12585 001c 00000000 		.4byte	0
 12586 0020 1E000000 		.4byte	.LBB56
 12587 0024 08010000 		.4byte	.LBE56
 12588 0028 34010000 		.4byte	.LBB61
 12589 002c 3E010000 		.4byte	.LBE61
 12590 0030 00000000 		.4byte	0
 12591 0034 00000000 		.4byte	0
 12592 0038 1E000000 		.4byte	.LBB57
 12593 003c 3E000000 		.4byte	.LBE57
 12594 0040 34010000 		.4byte	.LBB60
 12595 0044 3E010000 		.4byte	.LBE60
 12596 0048 00000000 		.4byte	0
 12597 004c 00000000 		.4byte	0
 12598 0050 02000000 		.4byte	.LBB62
 12599 0054 04000000 		.4byte	.LBE62
 12600 0058 0A000000 		.4byte	.LBB66
 12601 005c 1C000000 		.4byte	.LBE66
 12602 0060 72000000 		.4byte	.LBB67
 12603 0064 7C000000 		.4byte	.LBE67
 12604 0068 00000000 		.4byte	0
 12605 006c 00000000 		.4byte	0
 12606 0070 02000000 		.4byte	.LBB63
 12607 0074 04000000 		.4byte	.LBE63
 12608 0078 0A000000 		.4byte	.LBB64
 12609 007c 1C000000 		.4byte	.LBE64
 12610 0080 72000000 		.4byte	.LBB65
 12611 0084 7C000000 		.4byte	.LBE65
 12612 0088 00000000 		.4byte	0
 12613 008c 00000000 		.4byte	0
 12614 0090 04000000 		.4byte	.LBB68
 12615 0094 06000000 		.4byte	.LBE68
 12616 0098 0C000000 		.4byte	.LBB72
 12617 009c 1E000000 		.4byte	.LBE72
 12618 00a0 C2000000 		.4byte	.LBB77
 12619 00a4 C8000000 		.4byte	.LBE77
 12620 00a8 00000000 		.4byte	0
 12621 00ac 00000000 		.4byte	0
ARM GAS  /var/folders/5n/p_75w94d66l9ssrldxqdhh700000gn/T//cciPPkzE.s 			page 223


 12622 00b0 04000000 		.4byte	.LBB69
 12623 00b4 06000000 		.4byte	.LBE69
 12624 00b8 0C000000 		.4byte	.LBB70
 12625 00bc 1E000000 		.4byte	.LBE70
 12626 00c0 C2000000 		.4byte	.LBB71
 12627 00c4 C8000000 		.4byte	.LBE71
 12628 00c8 00000000 		.4byte	0
 12629 00cc 00000000 		.4byte	0
 12630 00d0 A0000000 		.4byte	.LBB73
 12631 00d4 AE000000 		.4byte	.LBE73
 12632 00d8 C8000000 		.4byte	.LBB78
 12633 00dc D6000000 		.4byte	.LBE78
 12634 00e0 DA000000 		.4byte	.LBB79
 12635 00e4 EE000000 		.4byte	.LBE79
 12636 00e8 00000000 		.4byte	0
 12637 00ec 00000000 		.4byte	0
 12638 00f0 A0000000 		.4byte	.LBB74
 12639 00f4 AE000000 		.4byte	.LBE74
 12640 00f8 C8000000 		.4byte	.LBB75
 12641 00fc D6000000 		.4byte	.LBE75
 12642 0100 DA000000 		.4byte	.LBB76
 12643 0104 EE000000 		.4byte	.LBE76
 12644 0108 00000000 		.4byte	0
 12645 010c 00000000 		.4byte	0
 12646 0110 02000000 		.4byte	.LBB80
 12647 0114 04000000 		.4byte	.LBE80
 12648 0118 06000000 		.4byte	.LBB84
 12649 011c 16000000 		.4byte	.LBE84
 12650 0120 44000000 		.4byte	.LBB85
 12651 0124 4A000000 		.4byte	.LBE85
 12652 0128 00000000 		.4byte	0
 12653 012c 00000000 		.4byte	0
 12654 0130 02000000 		.4byte	.LBB81
 12655 0134 04000000 		.4byte	.LBE81
 12656 0138 06000000 		.4byte	.LBB82
 12657 013c 16000000 		.4byte	.LBE82
 12658 0140 44000000 		.4byte	.LBB83
 12659 0144 4A000000 		.4byte	.LBE83
 12660 0148 00000000 		.4byte	0
 12661 014c 00000000 		.4byte	0
 12662 0150 00000000 		.4byte	.LBB86
 12663 0154 02000000 		.4byte	.LBE86
 12664 0158 06000000 		.4byte	.LBB91
 12665 015c 16000000 		.4byte	.LBE91
 12666 0160 3E000000 		.4byte	.LBB95
 12667 0164 42000000 		.4byte	.LBE95
 12668 0168 46000000 		.4byte	.LBB96
 12669 016c 4E000000 		.4byte	.LBE96
 12670 0170 00000000 		.4byte	0
 12671 0174 00000000 		.4byte	0
 12672 0178 00000000 		.4byte	.LBB87
 12673 017c 02000000 		.4byte	.LBE87
 12674 0180 06000000 		.4byte	.LBB88
 12675 0184 16000000 		.4byte	.LBE88
 12676 0188 3E000000 		.4byte	.LBB89
 12677 018c 42000000 		.4byte	.LBE89
 12678 0190 46000000 		.4byte	.LBB90
ARM GAS  /var/folders/5n/p_75w94d66l9ssrldxqdhh700000gn/T//cciPPkzE.s 			page 224


 12679 0194 4E000000 		.4byte	.LBE90
 12680 0198 00000000 		.4byte	0
 12681 019c 00000000 		.4byte	0
 12682 01a0 20000000 		.4byte	.LBB92
 12683 01a4 3E000000 		.4byte	.LBE92
 12684 01a8 4E000000 		.4byte	.LBB97
 12685 01ac 5C000000 		.4byte	.LBE97
 12686 01b0 00000000 		.4byte	0
 12687 01b4 00000000 		.4byte	0
 12688 01b8 20000000 		.4byte	.LBB93
 12689 01bc 3E000000 		.4byte	.LBE93
 12690 01c0 4E000000 		.4byte	.LBB94
 12691 01c4 5C000000 		.4byte	.LBE94
 12692 01c8 00000000 		.4byte	0
 12693 01cc 00000000 		.4byte	0
 12694 01d0 02000000 		.4byte	.LBB98
 12695 01d4 04000000 		.4byte	.LBE98
 12696 01d8 06000000 		.4byte	.LBB102
 12697 01dc 16000000 		.4byte	.LBE102
 12698 01e0 44000000 		.4byte	.LBB104
 12699 01e4 4A000000 		.4byte	.LBE104
 12700 01e8 00000000 		.4byte	0
 12701 01ec 00000000 		.4byte	0
 12702 01f0 02000000 		.4byte	.LBB99
 12703 01f4 04000000 		.4byte	.LBE99
 12704 01f8 06000000 		.4byte	.LBB100
 12705 01fc 16000000 		.4byte	.LBE100
 12706 0200 44000000 		.4byte	.LBB101
 12707 0204 4A000000 		.4byte	.LBE101
 12708 0208 00000000 		.4byte	0
 12709 020c 00000000 		.4byte	0
 12710 0210 00000000 		.4byte	.LBB105
 12711 0214 02000000 		.4byte	.LBE105
 12712 0218 04000000 		.4byte	.LBB109
 12713 021c 14000000 		.4byte	.LBE109
 12714 0220 2A000000 		.4byte	.LBB110
 12715 0224 34000000 		.4byte	.LBE110
 12716 0228 00000000 		.4byte	0
 12717 022c 00000000 		.4byte	0
 12718 0230 00000000 		.4byte	.LBB106
 12719 0234 02000000 		.4byte	.LBE106
 12720 0238 04000000 		.4byte	.LBB107
 12721 023c 14000000 		.4byte	.LBE107
 12722 0240 2A000000 		.4byte	.LBB108
 12723 0244 34000000 		.4byte	.LBE108
 12724 0248 00000000 		.4byte	0
 12725 024c 00000000 		.4byte	0
 12726 0250 08000000 		.4byte	.LBB111
 12727 0254 0A000000 		.4byte	.LBE111
 12728 0258 16000000 		.4byte	.LBB115
 12729 025c 28000000 		.4byte	.LBE115
 12730 0260 F2000000 		.4byte	.LBB121
 12731 0264 F6000000 		.4byte	.LBE121
 12732 0268 00000000 		.4byte	0
 12733 026c 00000000 		.4byte	0
 12734 0270 08000000 		.4byte	.LBB112
 12735 0274 0A000000 		.4byte	.LBE112
ARM GAS  /var/folders/5n/p_75w94d66l9ssrldxqdhh700000gn/T//cciPPkzE.s 			page 225


 12736 0278 16000000 		.4byte	.LBB113
 12737 027c 28000000 		.4byte	.LBE113
 12738 0280 F2000000 		.4byte	.LBB114
 12739 0284 F6000000 		.4byte	.LBE114
 12740 0288 00000000 		.4byte	0
 12741 028c 00000000 		.4byte	0
 12742 0290 32000000 		.4byte	.LBB116
 12743 0294 34000000 		.4byte	.LBE116
 12744 0298 78000000 		.4byte	.LBB120
 12745 029c E0000000 		.4byte	.LBE120
 12746 02a0 B6010000 		.4byte	.LBB122
 12747 02a4 C6010000 		.4byte	.LBE122
 12748 02a8 00000000 		.4byte	0
 12749 02ac 00000000 		.4byte	0
 12750 02b0 32000000 		.4byte	.LBB117
 12751 02b4 34000000 		.4byte	.LBE117
 12752 02b8 84000000 		.4byte	.LBB118
 12753 02bc E0000000 		.4byte	.LBE118
 12754 02c0 B6010000 		.4byte	.LBB119
 12755 02c4 C6010000 		.4byte	.LBE119
 12756 02c8 00000000 		.4byte	0
 12757 02cc 00000000 		.4byte	0
 12758 02d0 06000000 		.4byte	.LBB123
 12759 02d4 08000000 		.4byte	.LBE123
 12760 02d8 14000000 		.4byte	.LBB127
 12761 02dc 2A000000 		.4byte	.LBE127
 12762 02e0 72000000 		.4byte	.LBB128
 12763 02e4 76000000 		.4byte	.LBE128
 12764 02e8 00000000 		.4byte	0
 12765 02ec 00000000 		.4byte	0
 12766 02f0 06000000 		.4byte	.LBB124
 12767 02f4 08000000 		.4byte	.LBE124
 12768 02f8 14000000 		.4byte	.LBB125
 12769 02fc 2A000000 		.4byte	.LBE125
 12770 0300 72000000 		.4byte	.LBB126
 12771 0304 76000000 		.4byte	.LBE126
 12772 0308 00000000 		.4byte	0
 12773 030c 00000000 		.4byte	0
 12774 0310 04000000 		.4byte	.LBB129
 12775 0314 06000000 		.4byte	.LBE129
 12776 0318 10000000 		.4byte	.LBB133
 12777 031c 22000000 		.4byte	.LBE133
 12778 0320 6E000000 		.4byte	.LBB134
 12779 0324 72000000 		.4byte	.LBE134
 12780 0328 00000000 		.4byte	0
 12781 032c 00000000 		.4byte	0
 12782 0330 04000000 		.4byte	.LBB130
 12783 0334 06000000 		.4byte	.LBE130
 12784 0338 10000000 		.4byte	.LBB131
 12785 033c 22000000 		.4byte	.LBE131
 12786 0340 6E000000 		.4byte	.LBB132
 12787 0344 72000000 		.4byte	.LBE132
 12788 0348 00000000 		.4byte	0
 12789 034c 00000000 		.4byte	0
 12790 0350 32000000 		.4byte	.LBB135
 12791 0354 40000000 		.4byte	.LBE135
 12792 0358 72000000 		.4byte	.LBB138
ARM GAS  /var/folders/5n/p_75w94d66l9ssrldxqdhh700000gn/T//cciPPkzE.s 			page 226


 12793 035c 98000000 		.4byte	.LBE138
 12794 0360 00000000 		.4byte	0
 12795 0364 00000000 		.4byte	0
 12796 0368 32000000 		.4byte	.LBB136
 12797 036c 40000000 		.4byte	.LBE136
 12798 0370 72000000 		.4byte	.LBB137
 12799 0374 98000000 		.4byte	.LBE137
 12800 0378 00000000 		.4byte	0
 12801 037c 00000000 		.4byte	0
 12802 0380 94000000 		.4byte	.LBB139
 12803 0384 96000000 		.4byte	.LBE139
 12804 0388 B6000000 		.4byte	.LBB146
 12805 038c E4000000 		.4byte	.LBE146
 12806 0390 30020000 		.4byte	.LBB155
 12807 0394 4E020000 		.4byte	.LBE155
 12808 0398 00000000 		.4byte	0
 12809 039c 00000000 		.4byte	0
 12810 03a0 94000000 		.4byte	.LBB140
 12811 03a4 96000000 		.4byte	.LBE140
 12812 03a8 B6000000 		.4byte	.LBB144
 12813 03ac BE000000 		.4byte	.LBE144
 12814 03b0 30020000 		.4byte	.LBB145
 12815 03b4 40020000 		.4byte	.LBE145
 12816 03b8 00000000 		.4byte	0
 12817 03bc 00000000 		.4byte	0
 12818 03c0 4A010000 		.4byte	.LBB147
 12819 03c4 4C010000 		.4byte	.LBE147
 12820 03c8 88010000 		.4byte	.LBB154
 12821 03cc AE010000 		.4byte	.LBE154
 12822 03d0 66020000 		.4byte	.LBB156
 12823 03d4 98020000 		.4byte	.LBE156
 12824 03d8 00000000 		.4byte	0
 12825 03dc 00000000 		.4byte	0
 12826 03e0 4A010000 		.4byte	.LBB148
 12827 03e4 4C010000 		.4byte	.LBE148
 12828 03e8 88010000 		.4byte	.LBB152
 12829 03ec 8C010000 		.4byte	.LBE152
 12830 03f0 66020000 		.4byte	.LBB153
 12831 03f4 78020000 		.4byte	.LBE153
 12832 03f8 00000000 		.4byte	0
 12833 03fc 00000000 		.4byte	0
 12834 0400 00000000 		.4byte	.LBB157
 12835 0404 02000000 		.4byte	.LBE157
 12836 0408 04000000 		.4byte	.LBB161
 12837 040c 14000000 		.4byte	.LBE161
 12838 0410 20000000 		.4byte	.LBB162
 12839 0414 2A000000 		.4byte	.LBE162
 12840 0418 00000000 		.4byte	0
 12841 041c 00000000 		.4byte	0
 12842 0420 00000000 		.4byte	.LBB158
 12843 0424 02000000 		.4byte	.LBE158
 12844 0428 04000000 		.4byte	.LBB159
 12845 042c 14000000 		.4byte	.LBE159
 12846 0430 20000000 		.4byte	.LBB160
 12847 0434 2A000000 		.4byte	.LBE160
 12848 0438 00000000 		.4byte	0
 12849 043c 00000000 		.4byte	0
ARM GAS  /var/folders/5n/p_75w94d66l9ssrldxqdhh700000gn/T//cciPPkzE.s 			page 227


 12850 0440 06000000 		.4byte	.LBB163
 12851 0444 08000000 		.4byte	.LBE163
 12852 0448 0E000000 		.4byte	.LBB167
 12853 044c 1E000000 		.4byte	.LBE167
 12854 0450 4A000000 		.4byte	.LBB168
 12855 0454 4E000000 		.4byte	.LBE168
 12856 0458 00000000 		.4byte	0
 12857 045c 00000000 		.4byte	0
 12858 0460 06000000 		.4byte	.LBB164
 12859 0464 08000000 		.4byte	.LBE164
 12860 0468 0E000000 		.4byte	.LBB165
 12861 046c 1E000000 		.4byte	.LBE165
 12862 0470 4A000000 		.4byte	.LBB166
 12863 0474 4E000000 		.4byte	.LBE166
 12864 0478 00000000 		.4byte	0
 12865 047c 00000000 		.4byte	0
 12866 0480 02000000 		.4byte	.LBB169
 12867 0484 04000000 		.4byte	.LBE169
 12868 0488 0A000000 		.4byte	.LBB173
 12869 048c 1A000000 		.4byte	.LBE173
 12870 0490 3C000000 		.4byte	.LBB174
 12871 0494 40000000 		.4byte	.LBE174
 12872 0498 00000000 		.4byte	0
 12873 049c 00000000 		.4byte	0
 12874 04a0 02000000 		.4byte	.LBB170
 12875 04a4 04000000 		.4byte	.LBE170
 12876 04a8 0A000000 		.4byte	.LBB171
 12877 04ac 1A000000 		.4byte	.LBE171
 12878 04b0 3C000000 		.4byte	.LBB172
 12879 04b4 40000000 		.4byte	.LBE172
 12880 04b8 00000000 		.4byte	0
 12881 04bc 00000000 		.4byte	0
 12882 04c0 00000000 		.4byte	.LBB175
 12883 04c4 02000000 		.4byte	.LBE175
 12884 04c8 04000000 		.4byte	.LBB179
 12885 04cc 14000000 		.4byte	.LBE179
 12886 04d0 2A000000 		.4byte	.LBB180
 12887 04d4 2E000000 		.4byte	.LBE180
 12888 04d8 00000000 		.4byte	0
 12889 04dc 00000000 		.4byte	0
 12890 04e0 00000000 		.4byte	.LBB176
 12891 04e4 02000000 		.4byte	.LBE176
 12892 04e8 04000000 		.4byte	.LBB177
 12893 04ec 14000000 		.4byte	.LBE177
 12894 04f0 2A000000 		.4byte	.LBB178
 12895 04f4 2E000000 		.4byte	.LBE178
 12896 04f8 00000000 		.4byte	0
 12897 04fc 00000000 		.4byte	0
 12898 0500 00000000 		.4byte	.LFB34
 12899 0504 F4000000 		.4byte	.LFE34
 12900 0508 00000000 		.4byte	.LFB32
 12901 050c 10010000 		.4byte	.LFE32
 12902 0510 00000000 		.4byte	.LFB26
 12903 0514 00010000 		.4byte	.LFE26
 12904 0518 00000000 		.4byte	.LFB24
 12905 051c 3E010000 		.4byte	.LFE24
 12906 0520 00000000 		.4byte	.LFB28
ARM GAS  /var/folders/5n/p_75w94d66l9ssrldxqdhh700000gn/T//cciPPkzE.s 			page 228


 12907 0524 7C000000 		.4byte	.LFE28
 12908 0528 00000000 		.4byte	.LFB7
 12909 052c 02000000 		.4byte	.LFE7
 12910 0530 00000000 		.4byte	.LFB12
 12911 0534 60010000 		.4byte	.LFE12
 12912 0538 00000000 		.4byte	.LFB13
 12913 053c 78000000 		.4byte	.LFE13
 12914 0540 00000000 		.4byte	.LFB14
 12915 0544 5C000000 		.4byte	.LFE14
 12916 0548 00000000 		.4byte	.LFB15
 12917 054c 78000000 		.4byte	.LFE15
 12918 0550 00000000 		.4byte	.LFB16
 12919 0554 54000000 		.4byte	.LFE16
 12920 0558 00000000 		.4byte	.LFB17
 12921 055c 14020000 		.4byte	.LFE17
 12922 0560 00000000 		.4byte	.LFB18
 12923 0564 14000000 		.4byte	.LFE18
 12924 0568 00000000 		.4byte	.LFB19
 12925 056c 12000000 		.4byte	.LFE19
 12926 0570 00000000 		.4byte	.LFB21
 12927 0574 F0000000 		.4byte	.LFE21
 12928 0578 00000000 		.4byte	.LFB20
 12929 057c A0000000 		.4byte	.LFE20
 12930 0580 00000000 		.4byte	.LFB22
 12931 0584 A8000000 		.4byte	.LFE22
 12932 0588 00000000 		.4byte	.LFB23
 12933 058c 06000000 		.4byte	.LFE23
 12934 0590 00000000 		.4byte	.LFB25
 12935 0594 F4020000 		.4byte	.LFE25
 12936 0598 00000000 		.4byte	.LFB27
 12937 059c 74000000 		.4byte	.LFE27
 12938 05a0 00000000 		.4byte	.LFB29
 12939 05a4 06000000 		.4byte	.LFE29
 12940 05a8 00000000 		.4byte	.LFB30
 12941 05ac 06000000 		.4byte	.LFE30
 12942 05b0 00000000 		.4byte	.LFB31
 12943 05b4 04010000 		.4byte	.LFE31
 12944 05b8 00000000 		.4byte	.LFB33
 12945 05bc E0000000 		.4byte	.LFE33
 12946 05c0 00000000 		.4byte	.LFB35
 12947 05c4 54000000 		.4byte	.LFE35
 12948 05c8 00000000 		.4byte	.LFB36
 12949 05cc 50000000 		.4byte	.LFE36
 12950 05d0 00000000 		.4byte	0
 12951 05d4 00000000 		.4byte	0
 12952              		.section	.debug_line,"",%progbits
 12953              	.Ldebug_line0:
 12954 0000 140B0000 		.section	.debug_str,"MS",%progbits,1
 12954      02005F02 
 12954      00000201 
 12954      FB0E0D00 
 12954      01010101 
 12955              	.LASF255:
 12956 0000 6C657863 		.ascii	"lexceptset\000"
 12956      65707473 
 12956      657400
 12957              	.LASF2:
ARM GAS  /var/folders/5n/p_75w94d66l9ssrldxqdhh700000gn/T//cciPPkzE.s 			page 229


 12958 000b 696E7438 		.ascii	"int8_t\000"
 12958      5F7400
 12959              	.LASF1:
 12960 0012 73697A65 		.ascii	"size_t\000"
 12960      5F7400
 12961              	.LASF88:
 12962 0019 73615F66 		.ascii	"sa_family\000"
 12962      616D696C 
 12962      7900
 12963              	.LASF260:
 12964 0023 6E616464 		.ascii	"naddr\000"
 12964      7200
 12965              	.LASF23:
 12966 0029 73797374 		.ascii	"systime_t\000"
 12966      696D655F 
 12966      7400
 12967              	.LASF148:
 12968 0033 7263765F 		.ascii	"rcv_ann_wnd\000"
 12968      616E6E5F 
 12968      776E6400 
 12969              	.LASF29:
 12970 003f 705F6374 		.ascii	"p_ctx\000"
 12970      7800
 12971              	.LASF20:
 12972 0045 74707269 		.ascii	"tprio_t\000"
 12972      6F5F7400 
 12973              	.LASF233:
 12974 004d 6765745F 		.ascii	"get_socket\000"
 12974      736F636B 
 12974      657400
 12975              	.LASF39:
 12976 0058 705F6D73 		.ascii	"p_msgqueue\000"
 12976      67717565 
 12976      756500
 12977              	.LASF208:
 12978 0063 70726F74 		.ascii	"proto\000"
 12978      6F00
 12979              	.LASF10:
 12980 0069 696E7433 		.ascii	"int32_t\000"
 12980      325F7400 
 12981              	.LASF82:
 12982 0071 73696E5F 		.ascii	"sin_family\000"
 12982      66616D69 
 12982      6C7900
 12983              	.LASF266:
 12984 007c 6C6F6361 		.ascii	"local_addr\000"
 12984      6C5F6164 
 12984      647200
 12985              	.LASF84:
 12986 0087 73696E5F 		.ascii	"sin_addr\000"
 12986      61646472 
 12986      00
 12987              	.LASF268:
 12988 0090 6C776970 		.ascii	"lwip_close\000"
 12988      5F636C6F 
 12988      736500
 12989              	.LASF147:
ARM GAS  /var/folders/5n/p_75w94d66l9ssrldxqdhh700000gn/T//cciPPkzE.s 			page 230


 12990 009b 7263765F 		.ascii	"rcv_wnd\000"
 12990      776E6400 
 12991              	.LASF139:
 12992 00a3 736F5F6F 		.ascii	"so_options\000"
 12992      7074696F 
 12992      6E7300
 12993              	.LASF310:
 12994 00ae 6572725F 		.ascii	"err_to_errno_table\000"
 12994      746F5F65 
 12994      72726E6F 
 12994      5F746162 
 12994      6C6500
 12995              	.LASF57:
 12996 00c1 6D625F62 		.ascii	"mb_buffer\000"
 12996      75666665 
 12996      7200
 12997              	.LASF274:
 12998 00cb 66726F6D 		.ascii	"from\000"
 12998      00
 12999              	.LASF196:
 13000 00d0 4C495354 		.ascii	"LISTEN\000"
 13000      454E00
 13001              	.LASF127:
 13002 00d7 73746174 		.ascii	"state\000"
 13002      6500
 13003              	.LASF246:
 13004 00dd 72656164 		.ascii	"readset_in\000"
 13004      7365745F 
 13004      696E00
 13005              	.LASF215:
 13006 00e8 6C617374 		.ascii	"lastdata\000"
 13006      64617461 
 13006      00
 13007              	.LASF159:
 13008 00f1 73737468 		.ascii	"ssthresh\000"
 13008      72657368 
 13008      00
 13009              	.LASF100:
 13010 00fa 74797065 		.ascii	"type\000"
 13010      00
 13011              	.LASF210:
 13012 00ff 6C6F6361 		.ascii	"local\000"
 13012      6C00
 13013              	.LASF225:
 13014 0105 65786365 		.ascii	"exceptset\000"
 13014      70747365 
 13014      7400
 13015              	.LASF205:
 13016 010f 54494D45 		.ascii	"TIME_WAIT\000"
 13016      5F574149 
 13016      5400
 13017              	.LASF187:
 13018 0119 636F6E6E 		.ascii	"conn\000"
 13018      00
 13019              	.LASF194:
 13020 011e 7463705F 		.ascii	"tcp_state\000"
 13020      73746174 
ARM GAS  /var/folders/5n/p_75w94d66l9ssrldxqdhh700000gn/T//cciPPkzE.s 			page 231


 13020      6500
 13021              	.LASF106:
 13022 0128 4E455443 		.ascii	"NETCONN_INVALID\000"
 13022      4F4E4E5F 
 13022      494E5641 
 13022      4C494400 
 13023              	.LASF141:
 13024 0138 7072696F 		.ascii	"prio\000"
 13024      00
 13025              	.LASF55:
 13026 013d 6D5F6F77 		.ascii	"m_owner\000"
 13026      6E657200 
 13027              	.LASF150:
 13028 0145 706F6C6C 		.ascii	"polltmr\000"
 13028      746D7200 
 13029              	.LASF65:
 13030 014d 65786974 		.ascii	"exitcode\000"
 13030      636F6465 
 13030      00
 13031              	.LASF67:
 13032 0156 65776D61 		.ascii	"ewmask\000"
 13032      736B00
 13033              	.LASF126:
 13034 015d 6E657463 		.ascii	"netconn\000"
 13034      6F6E6E00 
 13035              	.LASF209:
 13036 0165 69706164 		.ascii	"ipaddr\000"
 13036      647200
 13037              	.LASF129:
 13038 016c 6F705F63 		.ascii	"op_completed\000"
 13038      6F6D706C 
 13038      65746564 
 13038      00
 13039              	.LASF30:
 13040 0179 705F6E65 		.ascii	"p_newer\000"
 13040      77657200 
 13041              	.LASF124:
 13042 0181 4E455443 		.ascii	"NETCONN_EVT_ERROR\000"
 13042      4F4E4E5F 
 13042      4556545F 
 13042      4552524F 
 13042      5200
 13043              	.LASF11:
 13044 0193 6C6F6E67 		.ascii	"long int\000"
 13044      20696E74 
 13044      00
 13045              	.LASF26:
 13046 019c 705F6E65 		.ascii	"p_next\000"
 13046      787400
 13047              	.LASF236:
 13048 01a3 6E657763 		.ascii	"newconn\000"
 13048      6F6E6E00 
 13049              	.LASF27:
 13050 01ab 705F7072 		.ascii	"p_prev\000"
 13050      657600
 13051              	.LASF115:
 13052 01b2 4E455443 		.ascii	"NETCONN_WRITE\000"
ARM GAS  /var/folders/5n/p_75w94d66l9ssrldxqdhh700000gn/T//cciPPkzE.s 			page 232


 13052      4F4E4E5F 
 13052      57524954 
 13052      4500
 13053              	.LASF318:
 13054 01c0 72657475 		.ascii	"return_copy_fdsets\000"
 13054      726E5F63 
 13054      6F70795F 
 13054      66647365 
 13054      747300
 13055              	.LASF104:
 13056 01d3 7379735F 		.ascii	"sys_sem_t\000"
 13056      73656D5F 
 13056      7400
 13057              	.LASF288:
 13058 01dd 77726974 		.ascii	"write_flags\000"
 13058      655F666C 
 13058      61677300 
 13059              	.LASF17:
 13060 01e9 74737461 		.ascii	"tstate_t\000"
 13060      74655F74 
 13060      00
 13061              	.LASF42:
 13062 01f2 705F6D74 		.ascii	"p_mtxlist\000"
 13062      786C6973 
 13062      7400
 13063              	.LASF81:
 13064 01fc 73696E5F 		.ascii	"sin_len\000"
 13064      6C656E00 
 13065              	.LASF47:
 13066 0204 72656761 		.ascii	"regarm_t\000"
 13066      726D5F74 
 13066      00
 13067              	.LASF199:
 13068 020d 45535441 		.ascii	"ESTABLISHED\000"
 13068      424C4953 
 13068      48454400 
 13069              	.LASF290:
 13070 0219 646F6D61 		.ascii	"domain\000"
 13070      696E00
 13071              	.LASF119:
 13072 0220 6E657463 		.ascii	"netconn_evt\000"
 13072      6F6E6E5F 
 13072      65767400 
 13073              	.LASF206:
 13074 022c 7261775F 		.ascii	"raw_recv_fn\000"
 13074      72656376 
 13074      5F666E00 
 13075              	.LASF190:
 13076 0238 7463705F 		.ascii	"tcp_sent_fn\000"
 13076      73656E74 
 13076      5F666E00 
 13077              	.LASF272:
 13078 0244 6261636B 		.ascii	"backlog\000"
 13078      6C6F6700 
 13079              	.LASF216:
 13080 024c 6C617374 		.ascii	"lastoffset\000"
 13080      6F666673 
ARM GAS  /var/folders/5n/p_75w94d66l9ssrldxqdhh700000gn/T//cciPPkzE.s 			page 233


 13080      657400
 13081              	.LASF192:
 13082 0257 7463705F 		.ascii	"tcp_err_fn\000"
 13082      6572725F 
 13082      666E00
 13083              	.LASF3:
 13084 0262 7369676E 		.ascii	"signed char\000"
 13084      65642063 
 13084      68617200 
 13085              	.LASF36:
 13086 026e 705F7072 		.ascii	"p_preempt\000"
 13086      65656D70 
 13086      7400
 13087              	.LASF4:
 13088 0278 75696E74 		.ascii	"uint8_t\000"
 13088      385F7400 
 13089              	.LASF181:
 13090 0280 6B656570 		.ascii	"keep_cnt_sent\000"
 13090      5F636E74 
 13090      5F73656E 
 13090      7400
 13091              	.LASF287:
 13092 028e 6C776970 		.ascii	"lwip_send\000"
 13092      5F73656E 
 13092      6400
 13093              	.LASF60:
 13094 0298 6D625F72 		.ascii	"mb_rdptr\000"
 13094      64707472 
 13094      00
 13095              	.LASF259:
 13096 02a1 6E616D65 		.ascii	"namelen\000"
 13096      6C656E00 
 13097              	.LASF22:
 13098 02a9 6576656E 		.ascii	"eventmask_t\000"
 13098      746D6173 
 13098      6B5F7400 
 13099              	.LASF277:
 13100 02b5 636F7079 		.ascii	"copylen\000"
 13100      6C656E00 
 13101              	.LASF49:
 13102 02bd 636F6E74 		.ascii	"context\000"
 13102      65787400 
 13103              	.LASF137:
 13104 02c5 6C6F6361 		.ascii	"local_ip\000"
 13104      6C5F6970 
 13104      00
 13105              	.LASF5:
 13106 02ce 756E7369 		.ascii	"unsigned char\000"
 13106      676E6564 
 13106      20636861 
 13106      7200
 13107              	.LASF242:
 13108 02dc 6576656E 		.ascii	"event_callback\000"
 13108      745F6361 
 13108      6C6C6261 
 13108      636B00
 13109              	.LASF304:
ARM GAS  /var/folders/5n/p_75w94d66l9ssrldxqdhh700000gn/T//cciPPkzE.s 			page 234


 13110 02eb 6C776970 		.ascii	"lwip_ioctl\000"
 13110      5F696F63 
 13110      746C00
 13111              	.LASF219:
 13112 02f6 65727265 		.ascii	"errevent\000"
 13112      76656E74 
 13112      00
 13113              	.LASF200:
 13114 02ff 46494E5F 		.ascii	"FIN_WAIT_1\000"
 13114      57414954 
 13114      5F3100
 13115              	.LASF201:
 13116 030a 46494E5F 		.ascii	"FIN_WAIT_2\000"
 13116      57414954 
 13116      5F3200
 13117              	.LASF107:
 13118 0315 4E455443 		.ascii	"NETCONN_TCP\000"
 13118      4F4E4E5F 
 13118      54435000 
 13119              	.LASF197:
 13120 0321 53594E5F 		.ascii	"SYN_SENT\000"
 13120      53454E54 
 13120      00
 13121              	.LASF68:
 13122 032a 63686172 		.ascii	"char\000"
 13122      00
 13123              	.LASF96:
 13124 032f 70627566 		.ascii	"pbuf\000"
 13124      00
 13125              	.LASF247:
 13126 0334 77726974 		.ascii	"writeset_in\000"
 13126      65736574 
 13126      5F696E00 
 13127              	.LASF28:
 13128 0340 705F7072 		.ascii	"p_prio\000"
 13128      696F00
 13129              	.LASF204:
 13130 0347 4C415354 		.ascii	"LAST_ACK\000"
 13130      5F41434B 
 13130      00
 13131              	.LASF262:
 13132 0350 6E736F63 		.ascii	"nsock\000"
 13132      6B00
 13133              	.LASF62:
 13134 0356 6D625F65 		.ascii	"mb_emptysem\000"
 13134      6D707479 
 13134      73656D00 
 13135              	.LASF223:
 13136 0362 72656164 		.ascii	"readset\000"
 13136      73657400 
 13137              	.LASF66:
 13138 036a 77746F62 		.ascii	"wtobjp\000"
 13138      6A7000
 13139              	.LASF92:
 13140 0371 74696D65 		.ascii	"timeval\000"
 13140      76616C00 
 13141              	.LASF182:
ARM GAS  /var/folders/5n/p_75w94d66l9ssrldxqdhh700000gn/T//cciPPkzE.s 			page 235


 13142 0379 7564705F 		.ascii	"udp_pcb\000"
 13142      70636200 
 13143              	.LASF297:
 13144 0381 6C776970 		.ascii	"lwip_shutdown\000"
 13144      5F736875 
 13144      74646F77 
 13144      6E00
 13145              	.LASF144:
 13146 038f 6C6F6361 		.ascii	"local_port\000"
 13146      6C5F706F 
 13146      727400
 13147              	.LASF83:
 13148 039a 73696E5F 		.ascii	"sin_port\000"
 13148      706F7274 
 13148      00
 13149              	.LASF112:
 13150 03a3 6E657463 		.ascii	"netconn_type\000"
 13150      6F6E6E5F 
 13150      74797065 
 13150      00
 13151              	.LASF294:
 13152 03b0 77616974 		.ascii	"waitres\000"
 13152      72657300 
 13153              	.LASF220:
 13154 03b8 73656C65 		.ascii	"select_waiting\000"
 13154      63745F77 
 13154      61697469 
 13154      6E6700
 13155              	.LASF101:
 13156 03c7 666C6167 		.ascii	"flags\000"
 13156      7300
 13157              	.LASF269:
 13158 03cd 6C776970 		.ascii	"lwip_connect\000"
 13158      5F636F6E 
 13158      6E656374 
 13158      00
 13159              	.LASF140:
 13160 03da 7463705F 		.ascii	"tcp_pcb\000"
 13160      70636200 
 13161              	.LASF102:
 13162 03e2 6E657462 		.ascii	"netbuf\000"
 13162      756600
 13163              	.LASF250:
 13164 03e9 77726974 		.ascii	"writeset_out\000"
 13164      65736574 
 13164      5F6F7574 
 13164      00
 13165              	.LASF214:
 13166 03f6 6C776970 		.ascii	"lwip_sock\000"
 13166      5F736F63 
 13166      6B00
 13167              	.LASF153:
 13168 0400 72747465 		.ascii	"rttest\000"
 13168      737400
 13169              	.LASF75:
 13170 0407 69705F61 		.ascii	"ip_addr\000"
 13170      64647200 
ARM GAS  /var/folders/5n/p_75w94d66l9ssrldxqdhh700000gn/T//cciPPkzE.s 			page 236


 13171              	.LASF213:
 13172 040f 73687574 		.ascii	"shut\000"
 13172      00
 13173              	.LASF85:
 13174 0414 73696E5F 		.ascii	"sin_zero\000"
 13174      7A65726F 
 13174      00
 13175              	.LASF110:
 13176 041d 4E455443 		.ascii	"NETCONN_UDPNOCHKSUM\000"
 13176      4F4E4E5F 
 13176      5544504E 
 13176      4F43484B 
 13176      53554D00 
 13177              	.LASF248:
 13178 0431 65786365 		.ascii	"exceptset_in\000"
 13178      70747365 
 13178      745F696E 
 13178      00
 13179              	.LASF164:
 13180 043e 736E645F 		.ascii	"snd_lbb\000"
 13180      6C626200 
 13181              	.LASF302:
 13182 0446 6C776970 		.ascii	"lwip_getsockopt\000"
 13182      5F676574 
 13182      736F636B 
 13182      6F707400 
 13183              	.LASF24:
 13184 0456 636E745F 		.ascii	"cnt_t\000"
 13184      7400
 13185              	.LASF179:
 13186 045c 70657273 		.ascii	"persist_cnt\000"
 13186      6973745F 
 13186      636E7400 
 13187              	.LASF202:
 13188 0468 434C4F53 		.ascii	"CLOSE_WAIT\000"
 13188      455F5741 
 13188      495400
 13189              	.LASF221:
 13190 0473 6C776970 		.ascii	"lwip_select_cb\000"
 13190      5F73656C 
 13190      6563745F 
 13190      636200
 13191              	.LASF149:
 13192 0482 7263765F 		.ascii	"rcv_ann_right_edge\000"
 13192      616E6E5F 
 13192      72696768 
 13192      745F6564 
 13192      676500
 13193              	.LASF48:
 13194 0495 696E7463 		.ascii	"intctx\000"
 13194      747800
 13195              	.LASF307:
 13196 049c 736F636B 		.ascii	"sockets\000"
 13196      65747300 
 13197              	.LASF94:
 13198 04a4 74765F75 		.ascii	"tv_usec\000"
 13198      73656300 
ARM GAS  /var/folders/5n/p_75w94d66l9ssrldxqdhh700000gn/T//cciPPkzE.s 			page 237


 13199              	.LASF41:
 13200 04ac 705F6570 		.ascii	"p_epending\000"
 13200      656E6469 
 13200      6E6700
 13201              	.LASF154:
 13202 04b7 72747365 		.ascii	"rtseq\000"
 13202      7100
 13203              	.LASF261:
 13204 04bd 61646472 		.ascii	"addrlen\000"
 13204      6C656E00 
 13205              	.LASF241:
 13206 04c5 6C776970 		.ascii	"lwip_getsockopt_internal\000"
 13206      5F676574 
 13206      736F636B 
 13206      6F70745F 
 13206      696E7465 
 13207              	.LASF263:
 13208 04de 6E657773 		.ascii	"newsock\000"
 13208      6F636B00 
 13209              	.LASF300:
 13210 04e6 6C776970 		.ascii	"lwip_getpeername\000"
 13210      5F676574 
 13210      70656572 
 13210      6E616D65 
 13210      00
 13211              	.LASF235:
 13212 04f7 616C6C6F 		.ascii	"alloc_socket\000"
 13212      635F736F 
 13212      636B6574 
 13212      00
 13213              	.LASF63:
 13214 0504 4D61696C 		.ascii	"Mailbox\000"
 13214      626F7800 
 13215              	.LASF118:
 13216 050c 4E455443 		.ascii	"NETCONN_CLOSE\000"
 13216      4F4E4E5F 
 13216      434C4F53 
 13216      4500
 13217              	.LASF134:
 13218 051a 63757272 		.ascii	"current_msg\000"
 13218      656E745F 
 13218      6D736700 
 13219              	.LASF13:
 13220 0526 6C6F6E67 		.ascii	"long unsigned int\000"
 13220      20756E73 
 13220      69676E65 
 13220      6420696E 
 13220      7400
 13221              	.LASF122:
 13222 0538 4E455443 		.ascii	"NETCONN_EVT_SENDPLUS\000"
 13222      4F4E4E5F 
 13222      4556545F 
 13222      53454E44 
 13222      504C5553 
 13223              	.LASF292:
 13224 054d 6C776970 		.ascii	"lwip_select\000"
 13224      5F73656C 
ARM GAS  /var/folders/5n/p_75w94d66l9ssrldxqdhh700000gn/T//cciPPkzE.s 			page 238


 13224      65637400 
 13225              	.LASF270:
 13226 0559 72656D6F 		.ascii	"remote_addr\000"
 13226      74655F61 
 13226      64647200 
 13227              	.LASF191:
 13228 0565 7463705F 		.ascii	"tcp_poll_fn\000"
 13228      706F6C6C 
 13228      5F666E00 
 13229              	.LASF131:
 13230 0571 61636365 		.ascii	"acceptmbox\000"
 13230      70746D62 
 13230      6F7800
 13231              	.LASF135:
 13232 057c 63616C6C 		.ascii	"callback\000"
 13232      6261636B 
 13232      00
 13233              	.LASF98:
 13234 0585 7061796C 		.ascii	"payload\000"
 13234      6F616400 
 13235              	.LASF155:
 13236 058d 6E727478 		.ascii	"nrtx\000"
 13236      00
 13237              	.LASF305:
 13238 0592 61726770 		.ascii	"argp\000"
 13238      00
 13239              	.LASF237:
 13240 0597 61636365 		.ascii	"accepted\000"
 13240      70746564 
 13240      00
 13241              	.LASF61:
 13242 05a0 6D625F66 		.ascii	"mb_fullsem\000"
 13242      756C6C73 
 13242      656D00
 13243              	.LASF156:
 13244 05ab 6C617374 		.ascii	"lastack\000"
 13244      61636B00 
 13245              	.LASF160:
 13246 05b3 736E645F 		.ascii	"snd_nxt\000"
 13246      6E787400 
 13247              	.LASF271:
 13248 05bb 6C776970 		.ascii	"lwip_listen\000"
 13248      5F6C6973 
 13248      74656E00 
 13249              	.LASF105:
 13250 05c7 7379735F 		.ascii	"sys_mbox_t\000"
 13250      6D626F78 
 13250      5F7400
 13251              	.LASF53:
 13252 05d2 4D757465 		.ascii	"Mutex\000"
 13252      7800
 13253              	.LASF108:
 13254 05d8 4E455443 		.ascii	"NETCONN_UDP\000"
 13254      4F4E4E5F 
 13254      55445000 
 13255              	.LASF185:
 13256 05e4 70726F74 		.ascii	"protocol\000"
ARM GAS  /var/folders/5n/p_75w94d66l9ssrldxqdhh700000gn/T//cciPPkzE.s 			page 239


 13256      6F636F6C 
 13256      00
 13257              	.LASF173:
 13258 05ed 73656E74 		.ascii	"sent\000"
 13258      00
 13259              	.LASF14:
 13260 05f2 6C6F6E67 		.ascii	"long long int\000"
 13260      206C6F6E 
 13260      6720696E 
 13260      7400
 13261              	.LASF136:
 13262 0600 69705F70 		.ascii	"ip_pcb\000"
 13262      636200
 13263              	.LASF54:
 13264 0607 6D5F7175 		.ascii	"m_queue\000"
 13264      65756500 
 13265              	.LASF59:
 13266 060f 6D625F77 		.ascii	"mb_wrptr\000"
 13266      72707472 
 13266      00
 13267              	.LASF273:
 13268 0618 6C776970 		.ascii	"lwip_recvfrom\000"
 13268      5F726563 
 13268      7666726F 
 13268      6D00
 13269              	.LASF257:
 13270 0626 6C776970 		.ascii	"lwip_getaddrname\000"
 13270      5F676574 
 13270      61646472 
 13270      6E616D65 
 13270      00
 13271              	.LASF91:
 13272 0637 66645F62 		.ascii	"fd_bits\000"
 13272      69747300 
 13273              	.LASF240:
 13274 063f 6C776970 		.ascii	"lwip_setsockopt_internal\000"
 13274      5F736574 
 13274      736F636B 
 13274      6F70745F 
 13274      696E7465 
 13275              	.LASF226:
 13276 0658 73656D5F 		.ascii	"sem_signalled\000"
 13276      7369676E 
 13276      616C6C65 
 13276      6400
 13277              	.LASF151:
 13278 0666 706F6C6C 		.ascii	"pollinterval\000"
 13278      696E7465 
 13278      7276616C 
 13278      00
 13279              	.LASF293:
 13280 0673 74696D65 		.ascii	"timeout\000"
 13280      6F757400 
 13281              	.LASF113:
 13282 067b 6E657463 		.ascii	"netconn_state\000"
 13282      6F6E6E5F 
 13282      73746174 
ARM GAS  /var/folders/5n/p_75w94d66l9ssrldxqdhh700000gn/T//cciPPkzE.s 			page 240


 13282      6500
 13283              	.LASF38:
 13284 0689 705F7761 		.ascii	"p_waiting\000"
 13284      6974696E 
 13284      6700
 13285              	.LASF76:
 13286 0693 61646472 		.ascii	"addr\000"
 13286      00
 13287              	.LASF34:
 13288 0698 705F666C 		.ascii	"p_flags\000"
 13288      61677300 
 13289              	.LASF0:
 13290 06a0 756E7369 		.ascii	"unsigned int\000"
 13290      676E6564 
 13290      20696E74 
 13290      00
 13291              	.LASF276:
 13292 06ad 6275666C 		.ascii	"buflen\000"
 13292      656E00
 13293              	.LASF71:
 13294 06b4 7531365F 		.ascii	"u16_t\000"
 13294      7400
 13295              	.LASF44:
 13296 06ba 705F6D70 		.ascii	"p_mpool\000"
 13296      6F6F6C00 
 13297              	.LASF146:
 13298 06c2 7263765F 		.ascii	"rcv_nxt\000"
 13298      6E787400 
 13299              	.LASF228:
 13300 06ca 736F636B 		.ascii	"sock\000"
 13300      00
 13301              	.LASF35:
 13302 06cf 705F7265 		.ascii	"p_refs\000"
 13302      667300
 13303              	.LASF218:
 13304 06d6 73656E64 		.ascii	"sendevent\000"
 13304      6576656E 
 13304      7400
 13305              	.LASF231:
 13306 06e0 6F707476 		.ascii	"optval\000"
 13306      616C00
 13307              	.LASF46:
 13308 06e7 54687265 		.ascii	"ThreadsList\000"
 13308      6164734C 
 13308      69737400 
 13309              	.LASF244:
 13310 06f3 646F5F73 		.ascii	"do_signal\000"
 13310      69676E61 
 13310      6C00
 13311              	.LASF308:
 13312 06fd 73656C65 		.ascii	"select_cb_list\000"
 13312      63745F63 
 13312      625F6C69 
 13312      737400
 13313              	.LASF264:
 13314 070c 6C776970 		.ascii	"lwip_accept\000"
 13314      5F616363 
ARM GAS  /var/folders/5n/p_75w94d66l9ssrldxqdhh700000gn/T//cciPPkzE.s 			page 241


 13314      65707400 
 13315              	.LASF176:
 13316 0718 706F6C6C 		.ascii	"poll\000"
 13316      00
 13317              	.LASF278:
 13318 071d 646F6E65 		.ascii	"done\000"
 13318      00
 13319              	.LASF243:
 13320 0722 6C617374 		.ascii	"last_select_cb_ctr\000"
 13320      5F73656C 
 13320      6563745F 
 13320      63625F63 
 13320      747200
 13321              	.LASF152:
 13322 0735 7274696D 		.ascii	"rtime\000"
 13322      6500
 13323              	.LASF198:
 13324 073b 53594E5F 		.ascii	"SYN_RCVD\000"
 13324      52435644 
 13324      00
 13325              	.LASF289:
 13326 0744 6C776970 		.ascii	"lwip_socket\000"
 13326      5F736F63 
 13326      6B657400 
 13327              	.LASF37:
 13328 0750 705F7469 		.ascii	"p_time\000"
 13328      6D6500
 13329              	.LASF230:
 13330 0757 6F70746E 		.ascii	"optname\000"
 13330      616D6500 
 13331              	.LASF174:
 13332 075f 72656376 		.ascii	"recv\000"
 13332      00
 13333              	.LASF275:
 13334 0764 66726F6D 		.ascii	"fromlen\000"
 13334      6C656E00 
 13335              	.LASF117:
 13336 076c 4E455443 		.ascii	"NETCONN_CONNECT\000"
 13336      4F4E4E5F 
 13336      434F4E4E 
 13336      45435400 
 13337              	.LASF286:
 13338 077c 746F5F69 		.ascii	"to_in\000"
 13338      6E00
 13339              	.LASF99:
 13340 0782 746F745F 		.ascii	"tot_len\000"
 13340      6C656E00 
 13341              	.LASF298:
 13342 078a 73687574 		.ascii	"shut_rx\000"
 13342      5F727800 
 13343              	.LASF77:
 13344 0792 69705F61 		.ascii	"ip_addr_t\000"
 13344      6464725F 
 13344      7400
 13345              	.LASF50:
 13346 079c 53656D61 		.ascii	"Semaphore\000"
 13346      70686F72 
ARM GAS  /var/folders/5n/p_75w94d66l9ssrldxqdhh700000gn/T//cciPPkzE.s 			page 242


 13346      6500
 13347              	.LASF301:
 13348 07a6 6C776970 		.ascii	"lwip_getsockname\000"
 13348      5F676574 
 13348      736F636B 
 13348      6E616D65 
 13348      00
 13349              	.LASF316:
 13350 07b7 61676169 		.ascii	"again\000"
 13350      6E00
 13351              	.LASF43:
 13352 07bd 705F7265 		.ascii	"p_realprio\000"
 13352      616C7072 
 13352      696F00
 13353              	.LASF95:
 13354 07c8 6572725F 		.ascii	"err_t\000"
 13354      7400
 13355              	.LASF207:
 13356 07ce 7564705F 		.ascii	"udp_recv_fn\000"
 13356      72656376 
 13356      5F666E00 
 13357              	.LASF58:
 13358 07da 6D625F74 		.ascii	"mb_top\000"
 13358      6F7000
 13359              	.LASF279:
 13360 07e1 66726F6D 		.ascii	"fromaddr\000"
 13360      61646472 
 13360      00
 13361              	.LASF256:
 13362 07ea 6C776970 		.ascii	"lwip_selscan\000"
 13362      5F73656C 
 13362      7363616E 
 13362      00
 13363              	.LASF254:
 13364 07f7 6C777269 		.ascii	"lwriteset\000"
 13364      74657365 
 13364      7400
 13365              	.LASF52:
 13366 0801 735F636E 		.ascii	"s_cnt\000"
 13366      7400
 13367              	.LASF193:
 13368 0807 7463705F 		.ascii	"tcp_connected_fn\000"
 13368      636F6E6E 
 13368      65637465 
 13368      645F666E 
 13368      00
 13369              	.LASF245:
 13370 0818 6D617866 		.ascii	"maxfdp1\000"
 13370      64703100 
 13371              	.LASF283:
 13372 0820 73697A65 		.ascii	"size\000"
 13372      00
 13373              	.LASF15:
 13374 0825 6C6F6E67 		.ascii	"long long unsigned int\000"
 13374      206C6F6E 
 13374      6720756E 
 13374      7369676E 
ARM GAS  /var/folders/5n/p_75w94d66l9ssrldxqdhh700000gn/T//cciPPkzE.s 			page 243


 13374      65642069 
 13375              	.LASF145:
 13376 083c 72656D6F 		.ascii	"remote_port\000"
 13376      74655F70 
 13376      6F727400 
 13377              	.LASF31:
 13378 0848 705F6F6C 		.ascii	"p_older\000"
 13378      64657200 
 13379              	.LASF8:
 13380 0850 75696E74 		.ascii	"uint16_t\000"
 13380      31365F74 
 13380      00
 13381              	.LASF180:
 13382 0859 70657273 		.ascii	"persist_backoff\000"
 13382      6973745F 
 13382      6261636B 
 13382      6F666600 
 13383              	.LASF21:
 13384 0869 6D73675F 		.ascii	"msg_t\000"
 13384      7400
 13385              	.LASF158:
 13386 086f 63776E64 		.ascii	"cwnd\000"
 13386      00
 13387              	.LASF19:
 13388 0874 74736C69 		.ascii	"tslices_t\000"
 13388      6365735F 
 13388      7400
 13389              	.LASF232:
 13390 087e 6F70746C 		.ascii	"optlen\000"
 13390      656E00
 13391              	.LASF172:
 13392 0885 72656675 		.ascii	"refused_data\000"
 13392      7365645F 
 13392      64617461 
 13392      00
 13393              	.LASF123:
 13394 0892 4E455443 		.ascii	"NETCONN_EVT_SENDMINUS\000"
 13394      4F4E4E5F 
 13394      4556545F 
 13394      53454E44 
 13394      4D494E55 
 13395              	.LASF296:
 13396 08a8 73656C65 		.ascii	"select_cb\000"
 13396      63745F63 
 13396      6200
 13397              	.LASF89:
 13398 08b2 73615F64 		.ascii	"sa_data\000"
 13398      61746100 
 13399              	.LASF167:
 13400 08ba 736E645F 		.ascii	"snd_queuelen\000"
 13400      71756575 
 13400      656C656E 
 13400      00
 13401              	.LASF280:
 13402 08c7 6C776970 		.ascii	"lwip_read\000"
 13402      5F726561 
 13402      6400
ARM GAS  /var/folders/5n/p_75w94d66l9ssrldxqdhh700000gn/T//cciPPkzE.s 			page 244


 13403              	.LASF267:
 13404 08d1 6E616D65 		.ascii	"name_in\000"
 13404      5F696E00 
 13405              	.LASF80:
 13406 08d9 736F636B 		.ascii	"sockaddr_in\000"
 13406      61646472 
 13406      5F696E00 
 13407              	.LASF295:
 13408 08e5 6D736563 		.ascii	"msectimeout\000"
 13408      74696D65 
 13408      6F757400 
 13409              	.LASF183:
 13410 08f1 72656376 		.ascii	"recv_arg\000"
 13410      5F617267 
 13410      00
 13411              	.LASF86:
 13412 08fa 736F636B 		.ascii	"sockaddr\000"
 13412      61646472 
 13412      00
 13413              	.LASF121:
 13414 0903 4E455443 		.ascii	"NETCONN_EVT_RCVMINUS\000"
 13414      4F4E4E5F 
 13414      4556545F 
 13414      5243564D 
 13414      494E5553 
 13415              	.LASF169:
 13416 0918 756E7365 		.ascii	"unsent\000"
 13416      6E7400
 13417              	.LASF309:
 13418 091f 73656C65 		.ascii	"select_cb_ctr\000"
 13418      63745F63 
 13418      625F6374 
 13418      7200
 13419              	.LASF285:
 13420 092d 73686F72 		.ascii	"short_size\000"
 13420      745F7369 
 13420      7A6500
 13421              	.LASF168:
 13422 0938 756E7365 		.ascii	"unsent_oversize\000"
 13422      6E745F6F 
 13422      76657273 
 13422      697A6500 
 13423              	.LASF186:
 13424 0948 6170695F 		.ascii	"api_msg_msg\000"
 13424      6D73675F 
 13424      6D736700 
 13425              	.LASF138:
 13426 0954 72656D6F 		.ascii	"remote_ip\000"
 13426      74655F69 
 13426      7000
 13427              	.LASF78:
 13428 095e 696E5F61 		.ascii	"in_addr\000"
 13428      64647200 
 13429              	.LASF73:
 13430 0966 7533325F 		.ascii	"u32_t\000"
 13430      7400
 13431              	.LASF16:
ARM GAS  /var/folders/5n/p_75w94d66l9ssrldxqdhh700000gn/T//cciPPkzE.s 			page 245


 13432 096c 746D6F64 		.ascii	"tmode_t\000"
 13432      655F7400 
 13433              	.LASF133:
 13434 0974 77726974 		.ascii	"write_offset\000"
 13434      655F6F66 
 13434      66736574 
 13434      00
 13435              	.LASF224:
 13436 0981 77726974 		.ascii	"writeset\000"
 13436      65736574 
 13436      00
 13437              	.LASF315:
 13438 098a 66726565 		.ascii	"free_socket\000"
 13438      5F736F63 
 13438      6B657400 
 13439              	.LASF253:
 13440 0996 6C726561 		.ascii	"lreadset\000"
 13440      64736574 
 13440      00
 13441              	.LASF306:
 13442 099f 6C776970 		.ascii	"lwip_fcntl\000"
 13442      5F66636E 
 13442      746C00
 13443              	.LASF111:
 13444 09aa 4E455443 		.ascii	"NETCONN_RAW\000"
 13444      4F4E4E5F 
 13444      52415700 
 13445              	.LASF281:
 13446 09b6 6C776970 		.ascii	"lwip_recv\000"
 13446      5F726563 
 13446      7600
 13447              	.LASF291:
 13448 09c0 6C776970 		.ascii	"lwip_write\000"
 13448      5F777269 
 13448      746500
 13449              	.LASF282:
 13450 09cb 6C776970 		.ascii	"lwip_sendto\000"
 13450      5F73656E 
 13450      64746F00 
 13451              	.LASF258:
 13452 09d7 6E616D65 		.ascii	"name\000"
 13452      00
 13453              	.LASF51:
 13454 09dc 735F7175 		.ascii	"s_queue\000"
 13454      65756500 
 13455              	.LASF103:
 13456 09e4 706F7274 		.ascii	"port\000"
 13456      00
 13457              	.LASF165:
 13458 09e9 61636B65 		.ascii	"acked\000"
 13458      6400
 13459              	.LASF87:
 13460 09ef 73615F6C 		.ascii	"sa_len\000"
 13460      656E00
 13461              	.LASF178:
 13462 09f6 6B656570 		.ascii	"keep_idle\000"
 13462      5F69646C 
ARM GAS  /var/folders/5n/p_75w94d66l9ssrldxqdhh700000gn/T//cciPPkzE.s 			page 246


 13462      6500
 13463              	.LASF317:
 13464 0a00 6C776970 		.ascii	"lwip_socket_init\000"
 13464      5F736F63 
 13464      6B65745F 
 13464      696E6974 
 13464      00
 13465              	.LASF7:
 13466 0a11 73686F72 		.ascii	"short int\000"
 13466      7420696E 
 13466      7400
 13467              	.LASF116:
 13468 0a1b 4E455443 		.ascii	"NETCONN_LISTEN\000"
 13468      4F4E4E5F 
 13468      4C495354 
 13468      454E00
 13469              	.LASF251:
 13470 0a2a 65786365 		.ascii	"exceptset_out\000"
 13470      70747365 
 13470      745F6F75 
 13470      7400
 13471              	.LASF109:
 13472 0a38 4E455443 		.ascii	"NETCONN_UDPLITE\000"
 13472      4F4E4E5F 
 13472      5544504C 
 13472      49544500 
 13473              	.LASF312:
 13474 0a48 2E2E2F2E 		.ascii	"../../ext/lwip/src/api/sockets.c\000"
 13474      2E2F6578 
 13474      742F6C77 
 13474      69702F73 
 13474      72632F61 
 13475              	.LASF170:
 13476 0a69 756E6163 		.ascii	"unacked\000"
 13476      6B656400 
 13477              	.LASF6:
 13478 0a71 696E7431 		.ascii	"int16_t\000"
 13478      365F7400 
 13479              	.LASF142:
 13480 0a79 63616C6C 		.ascii	"callback_arg\000"
 13480      6261636B 
 13480      5F617267 
 13480      00
 13481              	.LASF234:
 13482 0a86 74727967 		.ascii	"tryget_socket\000"
 13482      65745F73 
 13482      6F636B65 
 13482      7400
 13483              	.LASF177:
 13484 0a94 65727266 		.ascii	"errf\000"
 13484      00
 13485              	.LASF212:
 13486 0a99 61706966 		.ascii	"apiflags\000"
 13486      6C616773 
 13486      00
 13487              	.LASF143:
 13488 0aa2 61636365 		.ascii	"accept\000"
ARM GAS  /var/folders/5n/p_75w94d66l9ssrldxqdhh700000gn/T//cciPPkzE.s 			page 247


 13488      707400
 13489              	.LASF227:
 13490 0aa9 6C776970 		.ascii	"lwip_setgetsockopt_data\000"
 13490      5F736574 
 13490      67657473 
 13490      6F636B6F 
 13490      70745F64 
 13491              	.LASF25:
 13492 0ac1 54687265 		.ascii	"Thread\000"
 13492      616400
 13493              	.LASF303:
 13494 0ac8 6C776970 		.ascii	"lwip_setsockopt\000"
 13494      5F736574 
 13494      736F636B 
 13494      6F707400 
 13495              	.LASF189:
 13496 0ad8 7463705F 		.ascii	"tcp_recv_fn\000"
 13496      72656376 
 13496      5F666E00 
 13497              	.LASF114:
 13498 0ae4 4E455443 		.ascii	"NETCONN_NONE\000"
 13498      4F4E4E5F 
 13498      4E4F4E45 
 13498      00
 13499              	.LASF162:
 13500 0af1 736E645F 		.ascii	"snd_wl1\000"
 13500      776C3100 
 13501              	.LASF163:
 13502 0af9 736E645F 		.ascii	"snd_wl2\000"
 13502      776C3200 
 13503              	.LASF90:
 13504 0b01 66645F73 		.ascii	"fd_set\000"
 13504      657400
 13505              	.LASF195:
 13506 0b08 434C4F53 		.ascii	"CLOSED\000"
 13506      454400
 13507              	.LASF132:
 13508 0b0f 736F636B 		.ascii	"socket\000"
 13508      657400
 13509              	.LASF157:
 13510 0b16 64757061 		.ascii	"dupacks\000"
 13510      636B7300 
 13511              	.LASF265:
 13512 0b1e 6C776970 		.ascii	"lwip_bind\000"
 13512      5F62696E 
 13512      6400
 13513              	.LASF72:
 13514 0b28 7331365F 		.ascii	"s16_t\000"
 13514      7400
 13515              	.LASF18:
 13516 0b2e 74726566 		.ascii	"trefs_t\000"
 13516      735F7400 
 13517              	.LASF217:
 13518 0b36 72637665 		.ascii	"rcvevent\000"
 13518      76656E74 
 13518      00
 13519              	.LASF184:
ARM GAS  /var/folders/5n/p_75w94d66l9ssrldxqdhh700000gn/T//cciPPkzE.s 			page 248


 13520 0b3f 7261775F 		.ascii	"raw_pcb\000"
 13520      70636200 
 13521              	.LASF74:
 13522 0b47 6D656D5F 		.ascii	"mem_ptr_t\000"
 13522      7074725F 
 13522      7400
 13523              	.LASF79:
 13524 0b51 735F6164 		.ascii	"s_addr\000"
 13524      647200
 13525              	.LASF311:
 13526 0b58 474E5520 		.ascii	"GNU C 4.6.2 20111004 (prerelease)\000"
 13526      4320342E 
 13526      362E3220 
 13526      32303131 
 13526      31303034 
 13527              	.LASF12:
 13528 0b7a 75696E74 		.ascii	"uint32_t\000"
 13528      33325F74 
 13528      00
 13529              	.LASF125:
 13530 0b83 6E657463 		.ascii	"netconn_callback\000"
 13530      6F6E6E5F 
 13530      63616C6C 
 13530      6261636B 
 13530      00
 13531              	.LASF211:
 13532 0b94 64617461 		.ascii	"dataptr\000"
 13532      70747200 
 13533              	.LASF229:
 13534 0b9c 6C657665 		.ascii	"level\000"
 13534      6C00
 13535              	.LASF45:
 13536 0ba2 54687265 		.ascii	"ThreadsQueue\000"
 13536      61647351 
 13536      75657565 
 13536      00
 13537              	.LASF313:
 13538 0baf 2F557365 		.ascii	"/Users/sin/Documents/Eclipse/Workspace/mabl-ChibiOS"
 13538      72732F73 
 13538      696E2F44 
 13538      6F63756D 
 13538      656E7473 
 13539 0be2 2D322E35 		.ascii	"-2.5.1/demos/ARMCM4-STM32F407-LWIP\000"
 13539      2E312F64 
 13539      656D6F73 
 13539      2F41524D 
 13539      434D342D 
 13540              	.LASF130:
 13541 0c05 72656376 		.ascii	"recvmbox\000"
 13541      6D626F78 
 13541      00
 13542              	.LASF120:
 13543 0c0e 4E455443 		.ascii	"NETCONN_EVT_RCVPLUS\000"
 13543      4F4E4E5F 
 13543      4556545F 
 13543      52435650 
 13543      4C555300 
ARM GAS  /var/folders/5n/p_75w94d66l9ssrldxqdhh700000gn/T//cciPPkzE.s 			page 249


 13544              	.LASF249:
 13545 0c22 72656164 		.ascii	"readset_out\000"
 13545      7365745F 
 13545      6F757400 
 13546              	.LASF64:
 13547 0c2e 7264796D 		.ascii	"rdymsg\000"
 13547      736700
 13548              	.LASF9:
 13549 0c35 73686F72 		.ascii	"short unsigned int\000"
 13549      7420756E 
 13549      7369676E 
 13549      65642069 
 13549      6E7400
 13550              	.LASF70:
 13551 0c48 73385F74 		.ascii	"s8_t\000"
 13551      00
 13552              	.LASF69:
 13553 0c4d 75385F74 		.ascii	"u8_t\000"
 13553      00
 13554              	.LASF203:
 13555 0c52 434C4F53 		.ascii	"CLOSING\000"
 13555      494E4700 
 13556              	.LASF166:
 13557 0c5a 736E645F 		.ascii	"snd_buf\000"
 13557      62756600 
 13558              	.LASF238:
 13559 0c62 69735F74 		.ascii	"is_tcp\000"
 13559      637000
 13560              	.LASF161:
 13561 0c69 736E645F 		.ascii	"snd_wnd\000"
 13561      776E6400 
 13562              	.LASF299:
 13563 0c71 73687574 		.ascii	"shut_tx\000"
 13563      5F747800 
 13564              	.LASF252:
 13565 0c79 6E726561 		.ascii	"nready\000"
 13565      647900
 13566              	.LASF188:
 13567 0c80 7463705F 		.ascii	"tcp_accept_fn\000"
 13567      61636365 
 13567      70745F66 
 13567      6E00
 13568              	.LASF32:
 13569 0c8e 705F6E61 		.ascii	"p_name\000"
 13569      6D6500
 13570              	.LASF97:
 13571 0c95 6E657874 		.ascii	"next\000"
 13571      00
 13572              	.LASF239:
 13573 0c9a 64617461 		.ascii	"data\000"
 13573      00
 13574              	.LASF56:
 13575 0c9f 6D5F6E65 		.ascii	"m_next\000"
 13575      787400
 13576              	.LASF314:
 13577 0ca6 7463705F 		.ascii	"tcp_seg\000"
 13577      73656700 
ARM GAS  /var/folders/5n/p_75w94d66l9ssrldxqdhh700000gn/T//cciPPkzE.s 			page 250


 13578              	.LASF175:
 13579 0cae 636F6E6E 		.ascii	"connected\000"
 13579      65637465 
 13579      6400
 13580              	.LASF284:
 13581 0cb8 746F6C65 		.ascii	"tolen\000"
 13581      6E00
 13582              	.LASF222:
 13583 0cbe 70726576 		.ascii	"prev\000"
 13583      00
 13584              	.LASF93:
 13585 0cc3 74765F73 		.ascii	"tv_sec\000"
 13585      656300
 13586              	.LASF128:
 13587 0cca 6C617374 		.ascii	"last_err\000"
 13587      5F657272 
 13587      00
 13588              	.LASF171:
 13589 0cd3 6F6F7365 		.ascii	"ooseq\000"
 13589      7100
 13590              	.LASF40:
 13591 0cd9 705F6D73 		.ascii	"p_msg\000"
 13591      6700
 13592              	.LASF33:
 13593 0cdf 705F7374 		.ascii	"p_state\000"
 13593      61746500 
 13594              		.ident	"GCC: (Linaro GCC 4.6-2011.10) 4.6.2 20111004 (prerelease)"
ARM GAS  /var/folders/5n/p_75w94d66l9ssrldxqdhh700000gn/T//cciPPkzE.s 			page 251


DEFINED SYMBOLS
                            *ABS*:0000000000000000 sockets.c
/var/folders/5n/p_75w94d66l9ssrldxqdhh700000gn/T//cciPPkzE.s:18     .text.lwip_setsockopt_internal:0000000000000000 $t
/var/folders/5n/p_75w94d66l9ssrldxqdhh700000gn/T//cciPPkzE.s:23     .text.lwip_setsockopt_internal:0000000000000000 lwip_setsockopt_internal
/var/folders/5n/p_75w94d66l9ssrldxqdhh700000gn/T//cciPPkzE.s:227    .text.lwip_getsockopt_internal:0000000000000000 $t
/var/folders/5n/p_75w94d66l9ssrldxqdhh700000gn/T//cciPPkzE.s:232    .text.lwip_getsockopt_internal:0000000000000000 lwip_getsockopt_internal
/var/folders/5n/p_75w94d66l9ssrldxqdhh700000gn/T//cciPPkzE.s:454    .text.lwip_getsockopt_internal:000000000000010c $d
/var/folders/5n/p_75w94d66l9ssrldxqdhh700000gn/T//cciPPkzE.s:459    .text.event_callback:0000000000000000 $t
/var/folders/5n/p_75w94d66l9ssrldxqdhh700000gn/T//cciPPkzE.s:464    .text.event_callback:0000000000000000 event_callback
/var/folders/5n/p_75w94d66l9ssrldxqdhh700000gn/T//cciPPkzE.s:513    .text.event_callback:000000000000002c $d
/var/folders/5n/p_75w94d66l9ssrldxqdhh700000gn/T//cciPPkzE.s:685    .text.event_callback:00000000000000f4 $d
/var/folders/5n/p_75w94d66l9ssrldxqdhh700000gn/T//cciPPkzE.s:692    .text.lwip_selscan:0000000000000000 $t
/var/folders/5n/p_75w94d66l9ssrldxqdhh700000gn/T//cciPPkzE.s:697    .text.lwip_selscan:0000000000000000 lwip_selscan
/var/folders/5n/p_75w94d66l9ssrldxqdhh700000gn/T//cciPPkzE.s:4278   .bss.sockets:0000000000000000 .LANCHOR1
/var/folders/5n/p_75w94d66l9ssrldxqdhh700000gn/T//cciPPkzE.s:906    .text.lwip_getaddrname:0000000000000000 $t
/var/folders/5n/p_75w94d66l9ssrldxqdhh700000gn/T//cciPPkzE.s:911    .text.lwip_getaddrname:0000000000000000 lwip_getaddrname
/var/folders/5n/p_75w94d66l9ssrldxqdhh700000gn/T//cciPPkzE.s:1019   .text.lwip_getaddrname:0000000000000078 $d
/var/folders/5n/p_75w94d66l9ssrldxqdhh700000gn/T//cciPPkzE.s:1026   .text.lwip_socket_init:0000000000000000 $t
/var/folders/5n/p_75w94d66l9ssrldxqdhh700000gn/T//cciPPkzE.s:1032   .text.lwip_socket_init:0000000000000000 lwip_socket_init
/var/folders/5n/p_75w94d66l9ssrldxqdhh700000gn/T//cciPPkzE.s:1045   .text.lwip_accept:0000000000000000 $t
/var/folders/5n/p_75w94d66l9ssrldxqdhh700000gn/T//cciPPkzE.s:1051   .text.lwip_accept:0000000000000000 lwip_accept
/var/folders/5n/p_75w94d66l9ssrldxqdhh700000gn/T//cciPPkzE.s:1351   .text.lwip_accept:0000000000000154 $d
/var/folders/5n/p_75w94d66l9ssrldxqdhh700000gn/T//cciPPkzE.s:1358   .text.lwip_bind:0000000000000000 $t
/var/folders/5n/p_75w94d66l9ssrldxqdhh700000gn/T//cciPPkzE.s:1364   .text.lwip_bind:0000000000000000 lwip_bind
/var/folders/5n/p_75w94d66l9ssrldxqdhh700000gn/T//cciPPkzE.s:1477   .text.lwip_bind:0000000000000070 $d
/var/folders/5n/p_75w94d66l9ssrldxqdhh700000gn/T//cciPPkzE.s:1483   .text.lwip_close:0000000000000000 $t
/var/folders/5n/p_75w94d66l9ssrldxqdhh700000gn/T//cciPPkzE.s:1489   .text.lwip_close:0000000000000000 lwip_close
/var/folders/5n/p_75w94d66l9ssrldxqdhh700000gn/T//cciPPkzE.s:1599   .text.lwip_close:0000000000000058 $d
/var/folders/5n/p_75w94d66l9ssrldxqdhh700000gn/T//cciPPkzE.s:1606   .text.lwip_connect:0000000000000000 $t
/var/folders/5n/p_75w94d66l9ssrldxqdhh700000gn/T//cciPPkzE.s:1612   .text.lwip_connect:0000000000000000 lwip_connect
/var/folders/5n/p_75w94d66l9ssrldxqdhh700000gn/T//cciPPkzE.s:1725   .text.lwip_connect:0000000000000070 $d
/var/folders/5n/p_75w94d66l9ssrldxqdhh700000gn/T//cciPPkzE.s:1731   .text.lwip_listen:0000000000000000 $t
/var/folders/5n/p_75w94d66l9ssrldxqdhh700000gn/T//cciPPkzE.s:1737   .text.lwip_listen:0000000000000000 lwip_listen
/var/folders/5n/p_75w94d66l9ssrldxqdhh700000gn/T//cciPPkzE.s:1821   .text.lwip_listen:000000000000004c $d
/var/folders/5n/p_75w94d66l9ssrldxqdhh700000gn/T//cciPPkzE.s:1827   .text.lwip_recvfrom:0000000000000000 $t
/var/folders/5n/p_75w94d66l9ssrldxqdhh700000gn/T//cciPPkzE.s:1833   .text.lwip_recvfrom:0000000000000000 lwip_recvfrom
/var/folders/5n/p_75w94d66l9ssrldxqdhh700000gn/T//cciPPkzE.s:2274   .text.lwip_recvfrom:000000000000020c $d
/var/folders/5n/p_75w94d66l9ssrldxqdhh700000gn/T//cciPPkzE.s:2280   .text.lwip_read:0000000000000000 $t
/var/folders/5n/p_75w94d66l9ssrldxqdhh700000gn/T//cciPPkzE.s:2286   .text.lwip_read:0000000000000000 lwip_read
/var/folders/5n/p_75w94d66l9ssrldxqdhh700000gn/T//cciPPkzE.s:2317   .text.lwip_recv:0000000000000000 $t
/var/folders/5n/p_75w94d66l9ssrldxqdhh700000gn/T//cciPPkzE.s:2323   .text.lwip_recv:0000000000000000 lwip_recv
/var/folders/5n/p_75w94d66l9ssrldxqdhh700000gn/T//cciPPkzE.s:2351   .text.lwip_sendto:0000000000000000 $t
/var/folders/5n/p_75w94d66l9ssrldxqdhh700000gn/T//cciPPkzE.s:2357   .text.lwip_sendto:0000000000000000 lwip_sendto
/var/folders/5n/p_75w94d66l9ssrldxqdhh700000gn/T//cciPPkzE.s:2556   .text.lwip_send:0000000000000000 lwip_send
/var/folders/5n/p_75w94d66l9ssrldxqdhh700000gn/T//cciPPkzE.s:2544   .text.lwip_sendto:00000000000000e8 $d
/var/folders/5n/p_75w94d66l9ssrldxqdhh700000gn/T//cciPPkzE.s:2550   .text.lwip_send:0000000000000000 $t
/var/folders/5n/p_75w94d66l9ssrldxqdhh700000gn/T//cciPPkzE.s:2693   .text.lwip_send:0000000000000098 $d
/var/folders/5n/p_75w94d66l9ssrldxqdhh700000gn/T//cciPPkzE.s:2699   .text.lwip_socket:0000000000000000 $t
/var/folders/5n/p_75w94d66l9ssrldxqdhh700000gn/T//cciPPkzE.s:2705   .text.lwip_socket:0000000000000000 lwip_socket
/var/folders/5n/p_75w94d66l9ssrldxqdhh700000gn/T//cciPPkzE.s:2860   .text.lwip_socket:00000000000000a0 $d
/var/folders/5n/p_75w94d66l9ssrldxqdhh700000gn/T//cciPPkzE.s:2866   .text.lwip_write:0000000000000000 $t
/var/folders/5n/p_75w94d66l9ssrldxqdhh700000gn/T//cciPPkzE.s:2872   .text.lwip_write:0000000000000000 lwip_write
/var/folders/5n/p_75w94d66l9ssrldxqdhh700000gn/T//cciPPkzE.s:2892   .text.lwip_select:0000000000000000 $t
/var/folders/5n/p_75w94d66l9ssrldxqdhh700000gn/T//cciPPkzE.s:2898   .text.lwip_select:0000000000000000 lwip_select
/var/folders/5n/p_75w94d66l9ssrldxqdhh700000gn/T//cciPPkzE.s:4271   .bss.select_cb_list:0000000000000000 .LANCHOR2
/var/folders/5n/p_75w94d66l9ssrldxqdhh700000gn/T//cciPPkzE.s:4285   .bss.select_cb_ctr:0000000000000000 .LANCHOR3
/var/folders/5n/p_75w94d66l9ssrldxqdhh700000gn/T//cciPPkzE.s:3429   .text.lwip_select:00000000000002f0 $d
ARM GAS  /var/folders/5n/p_75w94d66l9ssrldxqdhh700000gn/T//cciPPkzE.s 			page 252


/var/folders/5n/p_75w94d66l9ssrldxqdhh700000gn/T//cciPPkzE.s:3434   .text.lwip_shutdown:0000000000000000 $t
/var/folders/5n/p_75w94d66l9ssrldxqdhh700000gn/T//cciPPkzE.s:3440   .text.lwip_shutdown:0000000000000000 lwip_shutdown
/var/folders/5n/p_75w94d66l9ssrldxqdhh700000gn/T//cciPPkzE.s:3559   .text.lwip_shutdown:000000000000006c $d
/var/folders/5n/p_75w94d66l9ssrldxqdhh700000gn/T//cciPPkzE.s:3565   .text.lwip_getpeername:0000000000000000 $t
/var/folders/5n/p_75w94d66l9ssrldxqdhh700000gn/T//cciPPkzE.s:3571   .text.lwip_getpeername:0000000000000000 lwip_getpeername
/var/folders/5n/p_75w94d66l9ssrldxqdhh700000gn/T//cciPPkzE.s:3591   .text.lwip_getsockname:0000000000000000 $t
/var/folders/5n/p_75w94d66l9ssrldxqdhh700000gn/T//cciPPkzE.s:3597   .text.lwip_getsockname:0000000000000000 lwip_getsockname
/var/folders/5n/p_75w94d66l9ssrldxqdhh700000gn/T//cciPPkzE.s:3617   .text.lwip_getsockopt:0000000000000000 $t
/var/folders/5n/p_75w94d66l9ssrldxqdhh700000gn/T//cciPPkzE.s:3623   .text.lwip_getsockopt:0000000000000000 lwip_getsockopt
/var/folders/5n/p_75w94d66l9ssrldxqdhh700000gn/T//cciPPkzE.s:3842   .text.lwip_getsockopt:00000000000000fc $d
/var/folders/5n/p_75w94d66l9ssrldxqdhh700000gn/T//cciPPkzE.s:3848   .text.lwip_setsockopt:0000000000000000 $t
/var/folders/5n/p_75w94d66l9ssrldxqdhh700000gn/T//cciPPkzE.s:3854   .text.lwip_setsockopt:0000000000000000 lwip_setsockopt
/var/folders/5n/p_75w94d66l9ssrldxqdhh700000gn/T//cciPPkzE.s:4061   .text.lwip_setsockopt:00000000000000d8 $d
/var/folders/5n/p_75w94d66l9ssrldxqdhh700000gn/T//cciPPkzE.s:4067   .text.lwip_ioctl:0000000000000000 $t
/var/folders/5n/p_75w94d66l9ssrldxqdhh700000gn/T//cciPPkzE.s:4073   .text.lwip_ioctl:0000000000000000 lwip_ioctl
/var/folders/5n/p_75w94d66l9ssrldxqdhh700000gn/T//cciPPkzE.s:4161   .text.lwip_ioctl:0000000000000050 $d
/var/folders/5n/p_75w94d66l9ssrldxqdhh700000gn/T//cciPPkzE.s:4166   .text.lwip_fcntl:0000000000000000 $t
/var/folders/5n/p_75w94d66l9ssrldxqdhh700000gn/T//cciPPkzE.s:4172   .text.lwip_fcntl:0000000000000000 lwip_fcntl
/var/folders/5n/p_75w94d66l9ssrldxqdhh700000gn/T//cciPPkzE.s:4243   .text.lwip_fcntl:000000000000004c $d
/var/folders/5n/p_75w94d66l9ssrldxqdhh700000gn/T//cciPPkzE.s:4248   .rodata.err_to_errno_table:0000000000000000 $d
/var/folders/5n/p_75w94d66l9ssrldxqdhh700000gn/T//cciPPkzE.s:4252   .rodata.err_to_errno_table:0000000000000000 err_to_errno_table
/var/folders/5n/p_75w94d66l9ssrldxqdhh700000gn/T//cciPPkzE.s:4270   .bss.select_cb_list:0000000000000000 $d
/var/folders/5n/p_75w94d66l9ssrldxqdhh700000gn/T//cciPPkzE.s:4274   .bss.select_cb_list:0000000000000000 select_cb_list
/var/folders/5n/p_75w94d66l9ssrldxqdhh700000gn/T//cciPPkzE.s:4277   .bss.sockets:0000000000000000 $d
/var/folders/5n/p_75w94d66l9ssrldxqdhh700000gn/T//cciPPkzE.s:4281   .bss.sockets:0000000000000000 sockets
/var/folders/5n/p_75w94d66l9ssrldxqdhh700000gn/T//cciPPkzE.s:4284   .bss.select_cb_ctr:0000000000000000 $d
/var/folders/5n/p_75w94d66l9ssrldxqdhh700000gn/T//cciPPkzE.s:4288   .bss.select_cb_ctr:0000000000000000 select_cb_ctr
                     .debug_frame:0000000000000010 $d
/var/folders/5n/p_75w94d66l9ssrldxqdhh700000gn/T//cciPPkzE.s:1025   .text.lwip_getaddrname:000000000000007c $t
/var/folders/5n/p_75w94d66l9ssrldxqdhh700000gn/T//cciPPkzE.s:1482   .text.lwip_bind:0000000000000078 $t
/var/folders/5n/p_75w94d66l9ssrldxqdhh700000gn/T//cciPPkzE.s:1605   .text.lwip_close:000000000000005c $t
/var/folders/5n/p_75w94d66l9ssrldxqdhh700000gn/T//cciPPkzE.s:1730   .text.lwip_connect:0000000000000078 $t
/var/folders/5n/p_75w94d66l9ssrldxqdhh700000gn/T//cciPPkzE.s:1826   .text.lwip_listen:0000000000000054 $t
/var/folders/5n/p_75w94d66l9ssrldxqdhh700000gn/T//cciPPkzE.s:2279   .text.lwip_recvfrom:0000000000000214 $t
/var/folders/5n/p_75w94d66l9ssrldxqdhh700000gn/T//cciPPkzE.s:2865   .text.lwip_socket:00000000000000a8 $t
/var/folders/5n/p_75w94d66l9ssrldxqdhh700000gn/T//cciPPkzE.s:3433   .text.lwip_select:00000000000002f4 $t
/var/folders/5n/p_75w94d66l9ssrldxqdhh700000gn/T//cciPPkzE.s:3564   .text.lwip_shutdown:0000000000000074 $t
/var/folders/5n/p_75w94d66l9ssrldxqdhh700000gn/T//cciPPkzE.s:3847   .text.lwip_getsockopt:0000000000000104 $t
/var/folders/5n/p_75w94d66l9ssrldxqdhh700000gn/T//cciPPkzE.s:4165   .text.lwip_ioctl:0000000000000054 $t
/var/folders/5n/p_75w94d66l9ssrldxqdhh700000gn/T//cciPPkzE.s:518    .text.event_callback:0000000000000031 $d
/var/folders/5n/p_75w94d66l9ssrldxqdhh700000gn/T//cciPPkzE.s:518    .text.event_callback:0000000000000032 $t

UNDEFINED SYMBOLS
port_halt
sys_sem_signal
netconn_getaddr
lwip_htons
memcpy
netconn_accept
netconn_delete
lwip_ntohs
netconn_bind
netbuf_delete
pbuf_free
netconn_connect
netconn_listen_with_backlog
pbuf_copy_partial
ARM GAS  /var/folders/5n/p_75w94d66l9ssrldxqdhh700000gn/T//cciPPkzE.s 			page 253


netconn_recved
netconn_recv
netconn_recv_tcp_pbuf
netbuf_ref
netbuf_free
netconn_send
netconn_write
netconn_new_with_proto_and_callback
sys_sem_new
sys_sem_free
sys_arch_sem_wait
netconn_shutdown
tcpip_callback_with_block
