ARM GAS  /var/folders/5n/p_75w94d66l9ssrldxqdhh700000gn/T//cc7VL8fP.s 			page 1


   1              		.syntax unified
   2              		.cpu cortex-m4
   3              		.fpu softvfp
   4              		.eabi_attribute 20, 1
   5              		.eabi_attribute 21, 1
   6              		.eabi_attribute 23, 3
   7              		.eabi_attribute 24, 1
   8              		.eabi_attribute 25, 1
   9              		.eabi_attribute 26, 1
  10              		.eabi_attribute 30, 2
  11              		.eabi_attribute 18, 4
  12              		.thumb
  13              		.file	"sys.c"
  14              		.text
  15              	.Ltext0:
  16              		.cfi_sections	.debug_frame
  17              		.section	.text.sys_msleep,"ax",%progbits
  18              		.align	2
  19              		.p2align 4,,15
  20              		.global	sys_msleep
  21              		.thumb
  22              		.thumb_func
  23              		.type	sys_msleep, %function
  24              	sys_msleep:
  25              	.LFB7:
  26              		.file 1 "../../ext/lwip/src/core/sys.c"
  27              		.loc 1 55 0
  28              		.cfi_startproc
  29              		@ args = 0, pretend = 0, frame = 8
  30              		@ frame_needed = 0, uses_anonymous_args = 0
  31              	.LVL0:
  32 0000 10B5     		push	{r4, lr}
  33              	.LCFI0:
  34              		.cfi_def_cfa_offset 8
  35              		.cfi_offset 14, -4
  36              		.cfi_offset 4, -8
  37              		.loc 1 56 0
  38 0002 0446     		mov	r4, r0
  39              		.loc 1 55 0
  40 0004 82B0     		sub	sp, sp, #8
  41              	.LCFI1:
  42              		.cfi_def_cfa_offset 16
  43              		.loc 1 56 0
  44 0006 08B9     		cbnz	r0, .L4
  45              	.LVL1:
  46              	.L1:
  47              		.loc 1 64 0
  48 0008 02B0     		add	sp, sp, #8
  49 000a 10BD     		pop	{r4, pc}
  50              	.L4:
  51              	.LBB2:
  52              		.loc 1 58 0
  53 000c 01A8     		add	r0, sp, #4
  54 000e 0021     		movs	r1, #0
  55 0010 FFF7FEFF 		bl	sys_sem_new
  56              	.LVL2:
  57              		.loc 1 59 0
ARM GAS  /var/folders/5n/p_75w94d66l9ssrldxqdhh700000gn/T//cc7VL8fP.s 			page 2


  58 0014 0028     		cmp	r0, #0
  59 0016 F7D1     		bne	.L1
  60              		.loc 1 60 0
  61 0018 01A8     		add	r0, sp, #4
  62              	.LVL3:
  63 001a 2146     		mov	r1, r4
  64 001c FFF7FEFF 		bl	sys_arch_sem_wait
  65              		.loc 1 61 0
  66 0020 01A8     		add	r0, sp, #4
  67 0022 FFF7FEFF 		bl	sys_sem_free
  68 0026 EFE7     		b	.L1
  69              	.LBE2:
  70              		.cfi_endproc
  71              	.LFE7:
  72              		.size	sys_msleep, .-sys_msleep
  73 0028 AFF30080 		.text
  73      AFF30080 
  74              	.Letext0:
  75              		.file 2 "/usr/local/summon/lib/gcc/arm-none-eabi/4.6.2/../../../../arm-none-eabi/include/stdint.h"
  76              		.file 3 "../../os/ports/GCC/ARMCMx/chtypes.h"
  77              		.file 4 "../../os/kernel/include/chlists.h"
  78              		.file 5 "../../os/kernel/include/chthreads.h"
  79              		.file 6 "../../os/ports/GCC/ARMCMx/chcore_v7m.h"
  80              		.file 7 "../../os/kernel/include/chsem.h"
  81              		.file 8 "../../os/kernel/include/chmtx.h"
  82              		.file 9 "../../os/various/lwip_bindings/arch/cc.h"
  83              		.file 10 "../../ext/lwip/src/include/lwip/err.h"
  84              		.file 11 "../../os/various/lwip_bindings/arch/sys_arch.h"
  85              		.section	.debug_info,"",%progbits
  86              	.Ldebug_info0:
  87 0000 8C040000 		.4byte	0x48c
  88 0004 0200     		.2byte	0x2
  89 0006 00000000 		.4byte	.Ldebug_abbrev0
  90 000a 04       		.byte	0x4
  91 000b 01       		.uleb128 0x1
  92 000c 1A020000 		.4byte	.LASF64
  93 0010 01       		.byte	0x1
  94 0011 68000000 		.4byte	.LASF65
  95 0015 75020000 		.4byte	.LASF66
  96 0019 00000000 		.4byte	0
  97 001d 00000000 		.4byte	0
  98 0021 00000000 		.4byte	.Ldebug_ranges0+0
  99 0025 00000000 		.4byte	.Ldebug_line0
 100 0029 02       		.uleb128 0x2
 101 002a 04       		.byte	0x4
 102 002b 05       		.byte	0x5
 103 002c 696E7400 		.ascii	"int\000"
 104 0030 03       		.uleb128 0x3
 105 0031 04       		.byte	0x4
 106 0032 07       		.byte	0x7
 107 0033 D1000000 		.4byte	.LASF0
 108 0037 04       		.uleb128 0x4
 109 0038 3C020000 		.4byte	.LASF2
 110 003c 02       		.byte	0x2
 111 003d 29       		.byte	0x29
 112 003e 42000000 		.4byte	0x42
 113 0042 03       		.uleb128 0x3
ARM GAS  /var/folders/5n/p_75w94d66l9ssrldxqdhh700000gn/T//cc7VL8fP.s 			page 3


 114 0043 01       		.byte	0x1
 115 0044 06       		.byte	0x6
 116 0045 5C000000 		.4byte	.LASF1
 117 0049 04       		.uleb128 0x4
 118 004a 5F020000 		.4byte	.LASF3
 119 004e 02       		.byte	0x2
 120 004f 2A       		.byte	0x2a
 121 0050 54000000 		.4byte	0x54
 122 0054 03       		.uleb128 0x3
 123 0055 01       		.byte	0x1
 124 0056 08       		.byte	0x8
 125 0057 88010000 		.4byte	.LASF4
 126 005b 03       		.uleb128 0x3
 127 005c 02       		.byte	0x2
 128 005d 05       		.byte	0x5
 129 005e A0010000 		.4byte	.LASF5
 130 0062 03       		.uleb128 0x3
 131 0063 02       		.byte	0x2
 132 0064 07       		.byte	0x7
 133 0065 0F010000 		.4byte	.LASF6
 134 0069 04       		.uleb128 0x4
 135 006a 80010000 		.4byte	.LASF7
 136 006e 02       		.byte	0x2
 137 006f 4F       		.byte	0x4f
 138 0070 74000000 		.4byte	0x74
 139 0074 03       		.uleb128 0x3
 140 0075 04       		.byte	0x4
 141 0076 05       		.byte	0x5
 142 0077 A0000000 		.4byte	.LASF8
 143 007b 04       		.uleb128 0x4
 144 007c E9010000 		.4byte	.LASF9
 145 0080 02       		.byte	0x2
 146 0081 50       		.byte	0x50
 147 0082 86000000 		.4byte	0x86
 148 0086 03       		.uleb128 0x3
 149 0087 04       		.byte	0x4
 150 0088 07       		.byte	0x7
 151 0089 E9000000 		.4byte	.LASF10
 152 008d 03       		.uleb128 0x3
 153 008e 08       		.byte	0x8
 154 008f 05       		.byte	0x5
 155 0090 4E000000 		.4byte	.LASF11
 156 0094 03       		.uleb128 0x3
 157 0095 08       		.byte	0x8
 158 0096 07       		.byte	0x7
 159 0097 1D000000 		.4byte	.LASF12
 160 009b 04       		.uleb128 0x4
 161 009c 28010000 		.4byte	.LASF13
 162 00a0 03       		.byte	0x3
 163 00a1 28       		.byte	0x28
 164 00a2 49000000 		.4byte	0x49
 165 00a6 04       		.uleb128 0x4
 166 00a7 A9000000 		.4byte	.LASF14
 167 00ab 03       		.byte	0x3
 168 00ac 29       		.byte	0x29
 169 00ad 49000000 		.4byte	0x49
 170 00b1 04       		.uleb128 0x4
ARM GAS  /var/folders/5n/p_75w94d66l9ssrldxqdhh700000gn/T//cc7VL8fP.s 			page 4


 171 00b2 69010000 		.4byte	.LASF15
 172 00b6 03       		.byte	0x3
 173 00b7 2A       		.byte	0x2a
 174 00b8 49000000 		.4byte	0x49
 175 00bc 04       		.uleb128 0x4
 176 00bd 96000000 		.4byte	.LASF16
 177 00c1 03       		.byte	0x3
 178 00c2 2B       		.byte	0x2b
 179 00c3 49000000 		.4byte	0x49
 180 00c7 04       		.uleb128 0x4
 181 00c8 78010000 		.4byte	.LASF17
 182 00cc 03       		.byte	0x3
 183 00cd 2C       		.byte	0x2c
 184 00ce 7B000000 		.4byte	0x7b
 185 00d2 04       		.uleb128 0x4
 186 00d3 22010000 		.4byte	.LASF18
 187 00d7 03       		.byte	0x3
 188 00d8 2D       		.byte	0x2d
 189 00d9 69000000 		.4byte	0x69
 190 00dd 04       		.uleb128 0x4
 191 00de 3C010000 		.4byte	.LASF19
 192 00e2 03       		.byte	0x3
 193 00e3 2F       		.byte	0x2f
 194 00e4 7B000000 		.4byte	0x7b
 195 00e8 04       		.uleb128 0x4
 196 00e9 FE010000 		.4byte	.LASF20
 197 00ed 03       		.byte	0x3
 198 00ee 31       		.byte	0x31
 199 00ef 7B000000 		.4byte	0x7b
 200 00f3 04       		.uleb128 0x4
 201 00f4 CB000000 		.4byte	.LASF21
 202 00f8 03       		.byte	0x3
 203 00f9 32       		.byte	0x32
 204 00fa 69000000 		.4byte	0x69
 205 00fe 04       		.uleb128 0x4
 206 00ff D2010000 		.4byte	.LASF22
 207 0103 04       		.byte	0x4
 208 0104 23       		.byte	0x23
 209 0105 09010000 		.4byte	0x109
 210 0109 05       		.uleb128 0x5
 211 010a D2010000 		.4byte	.LASF22
 212 010e 48       		.byte	0x48
 213 010f 05       		.byte	0x5
 214 0110 57       		.byte	0x57
 215 0111 2E020000 		.4byte	0x22e
 216 0115 06       		.uleb128 0x6
 217 0116 C3010000 		.4byte	.LASF23
 218 011a 05       		.byte	0x5
 219 011b 58       		.byte	0x58
 220 011c 53020000 		.4byte	0x253
 221 0120 02       		.byte	0x2
 222 0121 23       		.byte	0x23
 223 0122 00       		.uleb128 0
 224 0123 06       		.uleb128 0x6
 225 0124 71010000 		.4byte	.LASF24
 226 0128 05       		.byte	0x5
 227 0129 5A       		.byte	0x5a
ARM GAS  /var/folders/5n/p_75w94d66l9ssrldxqdhh700000gn/T//cc7VL8fP.s 			page 5


 228 012a 53020000 		.4byte	0x253
 229 012e 02       		.byte	0x2
 230 012f 23       		.byte	0x23
 231 0130 04       		.uleb128 0x4
 232 0131 06       		.uleb128 0x6
 233 0132 3D000000 		.4byte	.LASF25
 234 0136 05       		.byte	0x5
 235 0137 5C       		.byte	0x5c
 236 0138 C7000000 		.4byte	0xc7
 237 013c 02       		.byte	0x2
 238 013d 23       		.byte	0x23
 239 013e 08       		.uleb128 0x8
 240 013f 06       		.uleb128 0x6
 241 0140 D3020000 		.4byte	.LASF26
 242 0144 05       		.byte	0x5
 243 0145 5D       		.byte	0x5d
 244 0146 21030000 		.4byte	0x321
 245 014a 02       		.byte	0x2
 246 014b 23       		.byte	0x23
 247 014c 0C       		.uleb128 0xc
 248 014d 06       		.uleb128 0x6
 249 014e B2000000 		.4byte	.LASF27
 250 0152 05       		.byte	0x5
 251 0153 5F       		.byte	0x5f
 252 0154 53020000 		.4byte	0x253
 253 0158 02       		.byte	0x2
 254 0159 23       		.byte	0x23
 255 015a 10       		.uleb128 0x10
 256 015b 06       		.uleb128 0x6
 257 015c 54010000 		.4byte	.LASF28
 258 0160 05       		.byte	0x5
 259 0161 60       		.byte	0x60
 260 0162 53020000 		.4byte	0x253
 261 0166 02       		.byte	0x2
 262 0167 23       		.byte	0x23
 263 0168 14       		.uleb128 0x14
 264 0169 06       		.uleb128 0x6
 265 016a 6E020000 		.4byte	.LASF29
 266 016e 05       		.byte	0x5
 267 016f 67       		.byte	0x67
 268 0170 FA030000 		.4byte	0x3fa
 269 0174 02       		.byte	0x2
 270 0175 23       		.byte	0x23
 271 0176 18       		.uleb128 0x18
 272 0177 06       		.uleb128 0x6
 273 0178 AA010000 		.4byte	.LASF30
 274 017c 05       		.byte	0x5
 275 017d 72       		.byte	0x72
 276 017e A6000000 		.4byte	0xa6
 277 0182 02       		.byte	0x2
 278 0183 23       		.byte	0x23
 279 0184 1C       		.uleb128 0x1c
 280 0185 06       		.uleb128 0x6
 281 0186 CA010000 		.4byte	.LASF31
 282 018a 05       		.byte	0x5
 283 018b 76       		.byte	0x76
 284 018c 9B000000 		.4byte	0x9b
ARM GAS  /var/folders/5n/p_75w94d66l9ssrldxqdhh700000gn/T//cc7VL8fP.s 			page 6


 285 0190 02       		.byte	0x2
 286 0191 23       		.byte	0x23
 287 0192 1D       		.uleb128 0x1d
 288 0193 06       		.uleb128 0x6
 289 0194 58020000 		.4byte	.LASF32
 290 0198 05       		.byte	0x5
 291 0199 7B       		.byte	0x7b
 292 019a B1000000 		.4byte	0xb1
 293 019e 02       		.byte	0x2
 294 019f 23       		.byte	0x23
 295 01a0 1E       		.uleb128 0x1e
 296 01a1 06       		.uleb128 0x6
 297 01a2 B2010000 		.4byte	.LASF33
 298 01a6 05       		.byte	0x5
 299 01a7 81       		.byte	0x81
 300 01a8 BC000000 		.4byte	0xbc
 301 01ac 02       		.byte	0x2
 302 01ad 23       		.byte	0x23
 303 01ae 1F       		.uleb128 0x1f
 304 01af 06       		.uleb128 0x6
 305 01b0 13020000 		.4byte	.LASF34
 306 01b4 05       		.byte	0x5
 307 01b5 88       		.byte	0x88
 308 01b6 44030000 		.4byte	0x344
 309 01ba 02       		.byte	0x2
 310 01bb 23       		.byte	0x23
 311 01bc 20       		.uleb128 0x20
 312 01bd 07       		.uleb128 0x7
 313 01be 705F7500 		.ascii	"p_u\000"
 314 01c2 05       		.byte	0x5
 315 01c3 AD       		.byte	0xad
 316 01c4 C5030000 		.4byte	0x3c5
 317 01c8 02       		.byte	0x2
 318 01c9 23       		.byte	0x23
 319 01ca 24       		.uleb128 0x24
 320 01cb 06       		.uleb128 0x6
 321 01cc D9020000 		.4byte	.LASF35
 322 01d0 05       		.byte	0x5
 323 01d1 B2       		.byte	0xb2
 324 01d2 7B020000 		.4byte	0x27b
 325 01d6 02       		.byte	0x2
 326 01d7 23       		.byte	0x23
 327 01d8 28       		.uleb128 0x28
 328 01d9 06       		.uleb128 0x6
 329 01da 43020000 		.4byte	.LASF36
 330 01de 05       		.byte	0x5
 331 01df B8       		.byte	0xb8
 332 01e0 59020000 		.4byte	0x259
 333 01e4 02       		.byte	0x2
 334 01e5 23       		.byte	0x23
 335 01e6 2C       		.uleb128 0x2c
 336 01e7 06       		.uleb128 0x6
 337 01e8 07000000 		.4byte	.LASF37
 338 01ec 05       		.byte	0x5
 339 01ed BC       		.byte	0xbc
 340 01ee D2000000 		.4byte	0xd2
 341 01f2 02       		.byte	0x2
ARM GAS  /var/folders/5n/p_75w94d66l9ssrldxqdhh700000gn/T//cc7VL8fP.s 			page 7


 342 01f3 23       		.byte	0x23
 343 01f4 34       		.uleb128 0x34
 344 01f5 06       		.uleb128 0x6
 345 01f6 DE010000 		.4byte	.LASF38
 346 01fa 05       		.byte	0x5
 347 01fb C2       		.byte	0xc2
 348 01fc DD000000 		.4byte	0xdd
 349 0200 02       		.byte	0x2
 350 0201 23       		.byte	0x23
 351 0202 38       		.uleb128 0x38
 352 0203 06       		.uleb128 0x6
 353 0204 96010000 		.4byte	.LASF39
 354 0208 05       		.byte	0x5
 355 0209 C9       		.byte	0xc9
 356 020a 0C040000 		.4byte	0x40c
 357 020e 02       		.byte	0x2
 358 020f 23       		.byte	0x23
 359 0210 3C       		.uleb128 0x3c
 360 0211 06       		.uleb128 0x6
 361 0212 08020000 		.4byte	.LASF40
 362 0216 05       		.byte	0x5
 363 0217 CD       		.byte	0xcd
 364 0218 C7000000 		.4byte	0xc7
 365 021c 02       		.byte	0x2
 366 021d 23       		.byte	0x23
 367 021e 40       		.uleb128 0x40
 368 021f 06       		.uleb128 0x6
 369 0220 86000000 		.4byte	.LASF41
 370 0224 05       		.byte	0x5
 371 0225 D3       		.byte	0xd3
 372 0226 91020000 		.4byte	0x291
 373 022a 02       		.byte	0x2
 374 022b 23       		.byte	0x23
 375 022c 44       		.uleb128 0x44
 376 022d 00       		.byte	0
 377 022e 08       		.uleb128 0x8
 378 022f 08       		.byte	0x8
 379 0230 04       		.byte	0x4
 380 0231 5A       		.byte	0x5a
 381 0232 53020000 		.4byte	0x253
 382 0236 06       		.uleb128 0x6
 383 0237 C3010000 		.4byte	.LASF23
 384 023b 04       		.byte	0x4
 385 023c 5B       		.byte	0x5b
 386 023d 53020000 		.4byte	0x253
 387 0241 02       		.byte	0x2
 388 0242 23       		.byte	0x23
 389 0243 00       		.uleb128 0
 390 0244 06       		.uleb128 0x6
 391 0245 71010000 		.4byte	.LASF24
 392 0249 04       		.byte	0x4
 393 024a 5D       		.byte	0x5d
 394 024b 53020000 		.4byte	0x253
 395 024f 02       		.byte	0x2
 396 0250 23       		.byte	0x23
 397 0251 04       		.uleb128 0x4
 398 0252 00       		.byte	0
ARM GAS  /var/folders/5n/p_75w94d66l9ssrldxqdhh700000gn/T//cc7VL8fP.s 			page 8


 399 0253 09       		.uleb128 0x9
 400 0254 04       		.byte	0x4
 401 0255 FE000000 		.4byte	0xfe
 402 0259 04       		.uleb128 0x4
 403 025a 5C010000 		.4byte	.LASF42
 404 025e 04       		.byte	0x4
 405 025f 5F       		.byte	0x5f
 406 0260 2E020000 		.4byte	0x22e
 407 0264 08       		.uleb128 0x8
 408 0265 04       		.byte	0x4
 409 0266 04       		.byte	0x4
 410 0267 64       		.byte	0x64
 411 0268 7B020000 		.4byte	0x27b
 412 026c 06       		.uleb128 0x6
 413 026d C3010000 		.4byte	.LASF23
 414 0271 04       		.byte	0x4
 415 0272 66       		.byte	0x66
 416 0273 53020000 		.4byte	0x253
 417 0277 02       		.byte	0x2
 418 0278 23       		.byte	0x23
 419 0279 00       		.uleb128 0
 420 027a 00       		.byte	0
 421 027b 04       		.uleb128 0x4
 422 027c 30010000 		.4byte	.LASF43
 423 0280 04       		.byte	0x4
 424 0281 69       		.byte	0x69
 425 0282 64020000 		.4byte	0x264
 426 0286 04       		.uleb128 0x4
 427 0287 C2000000 		.4byte	.LASF44
 428 028b 06       		.byte	0x6
 429 028c DE       		.byte	0xde
 430 028d 91020000 		.4byte	0x291
 431 0291 0A       		.uleb128 0xa
 432 0292 04       		.byte	0x4
 433 0293 0B       		.uleb128 0xb
 434 0294 00000000 		.4byte	.LASF45
 435 0298 24       		.byte	0x24
 436 0299 06       		.byte	0x6
 437 029a 0501     		.2byte	0x105
 438 029c 21030000 		.4byte	0x321
 439 02a0 0C       		.uleb128 0xc
 440 02a1 723400   		.ascii	"r4\000"
 441 02a4 06       		.byte	0x6
 442 02a5 1801     		.2byte	0x118
 443 02a7 86020000 		.4byte	0x286
 444 02ab 02       		.byte	0x2
 445 02ac 23       		.byte	0x23
 446 02ad 00       		.uleb128 0
 447 02ae 0C       		.uleb128 0xc
 448 02af 723500   		.ascii	"r5\000"
 449 02b2 06       		.byte	0x6
 450 02b3 1901     		.2byte	0x119
 451 02b5 86020000 		.4byte	0x286
 452 02b9 02       		.byte	0x2
 453 02ba 23       		.byte	0x23
 454 02bb 04       		.uleb128 0x4
 455 02bc 0C       		.uleb128 0xc
ARM GAS  /var/folders/5n/p_75w94d66l9ssrldxqdhh700000gn/T//cc7VL8fP.s 			page 9


 456 02bd 723600   		.ascii	"r6\000"
 457 02c0 06       		.byte	0x6
 458 02c1 1A01     		.2byte	0x11a
 459 02c3 86020000 		.4byte	0x286
 460 02c7 02       		.byte	0x2
 461 02c8 23       		.byte	0x23
 462 02c9 08       		.uleb128 0x8
 463 02ca 0C       		.uleb128 0xc
 464 02cb 723700   		.ascii	"r7\000"
 465 02ce 06       		.byte	0x6
 466 02cf 1B01     		.2byte	0x11b
 467 02d1 86020000 		.4byte	0x286
 468 02d5 02       		.byte	0x2
 469 02d6 23       		.byte	0x23
 470 02d7 0C       		.uleb128 0xc
 471 02d8 0C       		.uleb128 0xc
 472 02d9 723800   		.ascii	"r8\000"
 473 02dc 06       		.byte	0x6
 474 02dd 1C01     		.2byte	0x11c
 475 02df 86020000 		.4byte	0x286
 476 02e3 02       		.byte	0x2
 477 02e4 23       		.byte	0x23
 478 02e5 10       		.uleb128 0x10
 479 02e6 0C       		.uleb128 0xc
 480 02e7 723900   		.ascii	"r9\000"
 481 02ea 06       		.byte	0x6
 482 02eb 1D01     		.2byte	0x11d
 483 02ed 86020000 		.4byte	0x286
 484 02f1 02       		.byte	0x2
 485 02f2 23       		.byte	0x23
 486 02f3 14       		.uleb128 0x14
 487 02f4 0C       		.uleb128 0xc
 488 02f5 72313000 		.ascii	"r10\000"
 489 02f9 06       		.byte	0x6
 490 02fa 1E01     		.2byte	0x11e
 491 02fc 86020000 		.4byte	0x286
 492 0300 02       		.byte	0x2
 493 0301 23       		.byte	0x23
 494 0302 18       		.uleb128 0x18
 495 0303 0C       		.uleb128 0xc
 496 0304 72313100 		.ascii	"r11\000"
 497 0308 06       		.byte	0x6
 498 0309 1F01     		.2byte	0x11f
 499 030b 86020000 		.4byte	0x286
 500 030f 02       		.byte	0x2
 501 0310 23       		.byte	0x23
 502 0311 1C       		.uleb128 0x1c
 503 0312 0C       		.uleb128 0xc
 504 0313 6C7200   		.ascii	"lr\000"
 505 0316 06       		.byte	0x6
 506 0317 2001     		.2byte	0x120
 507 0319 86020000 		.4byte	0x286
 508 031d 02       		.byte	0x2
 509 031e 23       		.byte	0x23
 510 031f 20       		.uleb128 0x20
 511 0320 00       		.byte	0
 512 0321 0B       		.uleb128 0xb
ARM GAS  /var/folders/5n/p_75w94d66l9ssrldxqdhh700000gn/T//cc7VL8fP.s 			page 10


 513 0322 07010000 		.4byte	.LASF46
 514 0326 04       		.byte	0x4
 515 0327 06       		.byte	0x6
 516 0328 2A01     		.2byte	0x12a
 517 032a 3E030000 		.4byte	0x33e
 518 032e 0C       		.uleb128 0xc
 519 032f 72313300 		.ascii	"r13\000"
 520 0333 06       		.byte	0x6
 521 0334 2B01     		.2byte	0x12b
 522 0336 3E030000 		.4byte	0x33e
 523 033a 02       		.byte	0x2
 524 033b 23       		.byte	0x23
 525 033c 00       		.uleb128 0
 526 033d 00       		.byte	0
 527 033e 09       		.uleb128 0x9
 528 033f 04       		.byte	0x4
 529 0340 93020000 		.4byte	0x293
 530 0344 0D       		.uleb128 0xd
 531 0345 E8000000 		.4byte	0xe8
 532 0349 05       		.uleb128 0x5
 533 034a 4E020000 		.4byte	.LASF47
 534 034e 0C       		.byte	0xc
 535 034f 07       		.byte	0x7
 536 0350 25       		.byte	0x25
 537 0351 72030000 		.4byte	0x372
 538 0355 06       		.uleb128 0x6
 539 0356 BA000000 		.4byte	.LASF48
 540 035a 07       		.byte	0x7
 541 035b 26       		.byte	0x26
 542 035c 59020000 		.4byte	0x259
 543 0360 02       		.byte	0x2
 544 0361 23       		.byte	0x23
 545 0362 00       		.uleb128 0
 546 0363 06       		.uleb128 0x6
 547 0364 01010000 		.4byte	.LASF49
 548 0368 07       		.byte	0x7
 549 0369 28       		.byte	0x28
 550 036a F3000000 		.4byte	0xf3
 551 036e 02       		.byte	0x2
 552 036f 23       		.byte	0x23
 553 0370 08       		.uleb128 0x8
 554 0371 00       		.byte	0
 555 0372 04       		.uleb128 0x4
 556 0373 4E020000 		.4byte	.LASF47
 557 0377 07       		.byte	0x7
 558 0378 29       		.byte	0x29
 559 0379 49030000 		.4byte	0x349
 560 037d 05       		.uleb128 0x5
 561 037e 48010000 		.4byte	.LASF50
 562 0382 10       		.byte	0x10
 563 0383 08       		.byte	0x8
 564 0384 25       		.byte	0x25
 565 0385 B4030000 		.4byte	0x3b4
 566 0389 06       		.uleb128 0x6
 567 038a 8E000000 		.4byte	.LASF51
 568 038e 08       		.byte	0x8
 569 038f 26       		.byte	0x26
ARM GAS  /var/folders/5n/p_75w94d66l9ssrldxqdhh700000gn/T//cc7VL8fP.s 			page 11


 570 0390 59020000 		.4byte	0x259
 571 0394 02       		.byte	0x2
 572 0395 23       		.byte	0x23
 573 0396 00       		.uleb128 0
 574 0397 06       		.uleb128 0x6
 575 0398 CB020000 		.4byte	.LASF52
 576 039c 08       		.byte	0x8
 577 039d 28       		.byte	0x28
 578 039e 53020000 		.4byte	0x253
 579 03a2 02       		.byte	0x2
 580 03a3 23       		.byte	0x23
 581 03a4 08       		.uleb128 0x8
 582 03a5 06       		.uleb128 0x6
 583 03a6 F7010000 		.4byte	.LASF53
 584 03aa 08       		.byte	0x8
 585 03ab 2A       		.byte	0x2a
 586 03ac B4030000 		.4byte	0x3b4
 587 03b0 02       		.byte	0x2
 588 03b1 23       		.byte	0x23
 589 03b2 0C       		.uleb128 0xc
 590 03b3 00       		.byte	0
 591 03b4 09       		.uleb128 0x9
 592 03b5 04       		.byte	0x4
 593 03b6 7D030000 		.4byte	0x37d
 594 03ba 04       		.uleb128 0x4
 595 03bb 48010000 		.4byte	.LASF50
 596 03bf 08       		.byte	0x8
 597 03c0 2C       		.byte	0x2c
 598 03c1 7D030000 		.4byte	0x37d
 599 03c5 0E       		.uleb128 0xe
 600 03c6 04       		.byte	0x4
 601 03c7 05       		.byte	0x5
 602 03c8 8F       		.byte	0x8f
 603 03c9 FA030000 		.4byte	0x3fa
 604 03cd 0F       		.uleb128 0xf
 605 03ce 0D000000 		.4byte	.LASF54
 606 03d2 05       		.byte	0x5
 607 03d3 96       		.byte	0x96
 608 03d4 D2000000 		.4byte	0xd2
 609 03d8 0F       		.uleb128 0xf
 610 03d9 34000000 		.4byte	.LASF55
 611 03dd 05       		.byte	0x5
 612 03de 9D       		.byte	0x9d
 613 03df D2000000 		.4byte	0xd2
 614 03e3 0F       		.uleb128 0xf
 615 03e4 67020000 		.4byte	.LASF56
 616 03e8 05       		.byte	0x5
 617 03e9 A4       		.byte	0xa4
 618 03ea 91020000 		.4byte	0x291
 619 03ee 0F       		.uleb128 0xf
 620 03ef BC010000 		.4byte	.LASF57
 621 03f3 05       		.byte	0x5
 622 03f4 AB       		.byte	0xab
 623 03f5 DD000000 		.4byte	0xdd
 624 03f9 00       		.byte	0
 625 03fa 09       		.uleb128 0x9
 626 03fb 04       		.byte	0x4
ARM GAS  /var/folders/5n/p_75w94d66l9ssrldxqdhh700000gn/T//cc7VL8fP.s 			page 12


 627 03fc 00040000 		.4byte	0x400
 628 0400 10       		.uleb128 0x10
 629 0401 05040000 		.4byte	0x405
 630 0405 03       		.uleb128 0x3
 631 0406 01       		.byte	0x1
 632 0407 08       		.byte	0x8
 633 0408 F2010000 		.4byte	.LASF58
 634 040c 09       		.uleb128 0x9
 635 040d 04       		.byte	0x4
 636 040e BA030000 		.4byte	0x3ba
 637 0412 04       		.uleb128 0x4
 638 0413 D9010000 		.4byte	.LASF59
 639 0417 09       		.byte	0x9
 640 0418 3D       		.byte	0x3d
 641 0419 37000000 		.4byte	0x37
 642 041d 04       		.uleb128 0x4
 643 041e FB000000 		.4byte	.LASF60
 644 0422 09       		.byte	0x9
 645 0423 40       		.byte	0x40
 646 0424 7B000000 		.4byte	0x7b
 647 0428 04       		.uleb128 0x4
 648 0429 4E010000 		.4byte	.LASF61
 649 042d 0A       		.byte	0xa
 650 042e 2F       		.byte	0x2f
 651 042f 12040000 		.4byte	0x412
 652 0433 04       		.uleb128 0x4
 653 0434 44000000 		.4byte	.LASF62
 654 0438 0B       		.byte	0xb
 655 0439 3C       		.byte	0x3c
 656 043a 3E040000 		.4byte	0x43e
 657 043e 09       		.uleb128 0x9
 658 043f 04       		.byte	0x4
 659 0440 72030000 		.4byte	0x372
 660 0444 11       		.uleb128 0x11
 661 0445 01       		.byte	0x1
 662 0446 DE000000 		.4byte	.LASF67
 663 044a 01       		.byte	0x1
 664 044b 36       		.byte	0x36
 665 044c 01       		.byte	0x1
 666 044d 00000000 		.4byte	.LFB7
 667 0451 28000000 		.4byte	.LFE7
 668 0455 00000000 		.4byte	.LLST0
 669 0459 12       		.uleb128 0x12
 670 045a 6D7300   		.ascii	"ms\000"
 671 045d 01       		.byte	0x1
 672 045e 36       		.byte	0x36
 673 045f 1D040000 		.4byte	0x41d
 674 0463 2C000000 		.4byte	.LLST1
 675 0467 13       		.uleb128 0x13
 676 0468 0C000000 		.4byte	.LBB2
 677 046c 28000000 		.4byte	.LBE2
 678 0470 14       		.uleb128 0x14
 679 0471 14000000 		.4byte	.LASF63
 680 0475 01       		.byte	0x1
 681 0476 39       		.byte	0x39
 682 0477 33040000 		.4byte	0x433
 683 047b 02       		.byte	0x2
ARM GAS  /var/folders/5n/p_75w94d66l9ssrldxqdhh700000gn/T//cc7VL8fP.s 			page 13


 684 047c 91       		.byte	0x91
 685 047d 74       		.sleb128 -12
 686 047e 15       		.uleb128 0x15
 687 047f 65727200 		.ascii	"err\000"
 688 0483 01       		.byte	0x1
 689 0484 3A       		.byte	0x3a
 690 0485 28040000 		.4byte	0x428
 691 0489 4A000000 		.4byte	.LLST2
 692 048d 00       		.byte	0
 693 048e 00       		.byte	0
 694 048f 00       		.byte	0
 695              		.section	.debug_abbrev,"",%progbits
 696              	.Ldebug_abbrev0:
 697 0000 01       		.uleb128 0x1
 698 0001 11       		.uleb128 0x11
 699 0002 01       		.byte	0x1
 700 0003 25       		.uleb128 0x25
 701 0004 0E       		.uleb128 0xe
 702 0005 13       		.uleb128 0x13
 703 0006 0B       		.uleb128 0xb
 704 0007 03       		.uleb128 0x3
 705 0008 0E       		.uleb128 0xe
 706 0009 1B       		.uleb128 0x1b
 707 000a 0E       		.uleb128 0xe
 708 000b 11       		.uleb128 0x11
 709 000c 01       		.uleb128 0x1
 710 000d 52       		.uleb128 0x52
 711 000e 01       		.uleb128 0x1
 712 000f 55       		.uleb128 0x55
 713 0010 06       		.uleb128 0x6
 714 0011 10       		.uleb128 0x10
 715 0012 06       		.uleb128 0x6
 716 0013 00       		.byte	0
 717 0014 00       		.byte	0
 718 0015 02       		.uleb128 0x2
 719 0016 24       		.uleb128 0x24
 720 0017 00       		.byte	0
 721 0018 0B       		.uleb128 0xb
 722 0019 0B       		.uleb128 0xb
 723 001a 3E       		.uleb128 0x3e
 724 001b 0B       		.uleb128 0xb
 725 001c 03       		.uleb128 0x3
 726 001d 08       		.uleb128 0x8
 727 001e 00       		.byte	0
 728 001f 00       		.byte	0
 729 0020 03       		.uleb128 0x3
 730 0021 24       		.uleb128 0x24
 731 0022 00       		.byte	0
 732 0023 0B       		.uleb128 0xb
 733 0024 0B       		.uleb128 0xb
 734 0025 3E       		.uleb128 0x3e
 735 0026 0B       		.uleb128 0xb
 736 0027 03       		.uleb128 0x3
 737 0028 0E       		.uleb128 0xe
 738 0029 00       		.byte	0
 739 002a 00       		.byte	0
 740 002b 04       		.uleb128 0x4
ARM GAS  /var/folders/5n/p_75w94d66l9ssrldxqdhh700000gn/T//cc7VL8fP.s 			page 14


 741 002c 16       		.uleb128 0x16
 742 002d 00       		.byte	0
 743 002e 03       		.uleb128 0x3
 744 002f 0E       		.uleb128 0xe
 745 0030 3A       		.uleb128 0x3a
 746 0031 0B       		.uleb128 0xb
 747 0032 3B       		.uleb128 0x3b
 748 0033 0B       		.uleb128 0xb
 749 0034 49       		.uleb128 0x49
 750 0035 13       		.uleb128 0x13
 751 0036 00       		.byte	0
 752 0037 00       		.byte	0
 753 0038 05       		.uleb128 0x5
 754 0039 13       		.uleb128 0x13
 755 003a 01       		.byte	0x1
 756 003b 03       		.uleb128 0x3
 757 003c 0E       		.uleb128 0xe
 758 003d 0B       		.uleb128 0xb
 759 003e 0B       		.uleb128 0xb
 760 003f 3A       		.uleb128 0x3a
 761 0040 0B       		.uleb128 0xb
 762 0041 3B       		.uleb128 0x3b
 763 0042 0B       		.uleb128 0xb
 764 0043 01       		.uleb128 0x1
 765 0044 13       		.uleb128 0x13
 766 0045 00       		.byte	0
 767 0046 00       		.byte	0
 768 0047 06       		.uleb128 0x6
 769 0048 0D       		.uleb128 0xd
 770 0049 00       		.byte	0
 771 004a 03       		.uleb128 0x3
 772 004b 0E       		.uleb128 0xe
 773 004c 3A       		.uleb128 0x3a
 774 004d 0B       		.uleb128 0xb
 775 004e 3B       		.uleb128 0x3b
 776 004f 0B       		.uleb128 0xb
 777 0050 49       		.uleb128 0x49
 778 0051 13       		.uleb128 0x13
 779 0052 38       		.uleb128 0x38
 780 0053 0A       		.uleb128 0xa
 781 0054 00       		.byte	0
 782 0055 00       		.byte	0
 783 0056 07       		.uleb128 0x7
 784 0057 0D       		.uleb128 0xd
 785 0058 00       		.byte	0
 786 0059 03       		.uleb128 0x3
 787 005a 08       		.uleb128 0x8
 788 005b 3A       		.uleb128 0x3a
 789 005c 0B       		.uleb128 0xb
 790 005d 3B       		.uleb128 0x3b
 791 005e 0B       		.uleb128 0xb
 792 005f 49       		.uleb128 0x49
 793 0060 13       		.uleb128 0x13
 794 0061 38       		.uleb128 0x38
 795 0062 0A       		.uleb128 0xa
 796 0063 00       		.byte	0
 797 0064 00       		.byte	0
ARM GAS  /var/folders/5n/p_75w94d66l9ssrldxqdhh700000gn/T//cc7VL8fP.s 			page 15


 798 0065 08       		.uleb128 0x8
 799 0066 13       		.uleb128 0x13
 800 0067 01       		.byte	0x1
 801 0068 0B       		.uleb128 0xb
 802 0069 0B       		.uleb128 0xb
 803 006a 3A       		.uleb128 0x3a
 804 006b 0B       		.uleb128 0xb
 805 006c 3B       		.uleb128 0x3b
 806 006d 0B       		.uleb128 0xb
 807 006e 01       		.uleb128 0x1
 808 006f 13       		.uleb128 0x13
 809 0070 00       		.byte	0
 810 0071 00       		.byte	0
 811 0072 09       		.uleb128 0x9
 812 0073 0F       		.uleb128 0xf
 813 0074 00       		.byte	0
 814 0075 0B       		.uleb128 0xb
 815 0076 0B       		.uleb128 0xb
 816 0077 49       		.uleb128 0x49
 817 0078 13       		.uleb128 0x13
 818 0079 00       		.byte	0
 819 007a 00       		.byte	0
 820 007b 0A       		.uleb128 0xa
 821 007c 0F       		.uleb128 0xf
 822 007d 00       		.byte	0
 823 007e 0B       		.uleb128 0xb
 824 007f 0B       		.uleb128 0xb
 825 0080 00       		.byte	0
 826 0081 00       		.byte	0
 827 0082 0B       		.uleb128 0xb
 828 0083 13       		.uleb128 0x13
 829 0084 01       		.byte	0x1
 830 0085 03       		.uleb128 0x3
 831 0086 0E       		.uleb128 0xe
 832 0087 0B       		.uleb128 0xb
 833 0088 0B       		.uleb128 0xb
 834 0089 3A       		.uleb128 0x3a
 835 008a 0B       		.uleb128 0xb
 836 008b 3B       		.uleb128 0x3b
 837 008c 05       		.uleb128 0x5
 838 008d 01       		.uleb128 0x1
 839 008e 13       		.uleb128 0x13
 840 008f 00       		.byte	0
 841 0090 00       		.byte	0
 842 0091 0C       		.uleb128 0xc
 843 0092 0D       		.uleb128 0xd
 844 0093 00       		.byte	0
 845 0094 03       		.uleb128 0x3
 846 0095 08       		.uleb128 0x8
 847 0096 3A       		.uleb128 0x3a
 848 0097 0B       		.uleb128 0xb
 849 0098 3B       		.uleb128 0x3b
 850 0099 05       		.uleb128 0x5
 851 009a 49       		.uleb128 0x49
 852 009b 13       		.uleb128 0x13
 853 009c 38       		.uleb128 0x38
 854 009d 0A       		.uleb128 0xa
ARM GAS  /var/folders/5n/p_75w94d66l9ssrldxqdhh700000gn/T//cc7VL8fP.s 			page 16


 855 009e 00       		.byte	0
 856 009f 00       		.byte	0
 857 00a0 0D       		.uleb128 0xd
 858 00a1 35       		.uleb128 0x35
 859 00a2 00       		.byte	0
 860 00a3 49       		.uleb128 0x49
 861 00a4 13       		.uleb128 0x13
 862 00a5 00       		.byte	0
 863 00a6 00       		.byte	0
 864 00a7 0E       		.uleb128 0xe
 865 00a8 17       		.uleb128 0x17
 866 00a9 01       		.byte	0x1
 867 00aa 0B       		.uleb128 0xb
 868 00ab 0B       		.uleb128 0xb
 869 00ac 3A       		.uleb128 0x3a
 870 00ad 0B       		.uleb128 0xb
 871 00ae 3B       		.uleb128 0x3b
 872 00af 0B       		.uleb128 0xb
 873 00b0 01       		.uleb128 0x1
 874 00b1 13       		.uleb128 0x13
 875 00b2 00       		.byte	0
 876 00b3 00       		.byte	0
 877 00b4 0F       		.uleb128 0xf
 878 00b5 0D       		.uleb128 0xd
 879 00b6 00       		.byte	0
 880 00b7 03       		.uleb128 0x3
 881 00b8 0E       		.uleb128 0xe
 882 00b9 3A       		.uleb128 0x3a
 883 00ba 0B       		.uleb128 0xb
 884 00bb 3B       		.uleb128 0x3b
 885 00bc 0B       		.uleb128 0xb
 886 00bd 49       		.uleb128 0x49
 887 00be 13       		.uleb128 0x13
 888 00bf 00       		.byte	0
 889 00c0 00       		.byte	0
 890 00c1 10       		.uleb128 0x10
 891 00c2 26       		.uleb128 0x26
 892 00c3 00       		.byte	0
 893 00c4 49       		.uleb128 0x49
 894 00c5 13       		.uleb128 0x13
 895 00c6 00       		.byte	0
 896 00c7 00       		.byte	0
 897 00c8 11       		.uleb128 0x11
 898 00c9 2E       		.uleb128 0x2e
 899 00ca 01       		.byte	0x1
 900 00cb 3F       		.uleb128 0x3f
 901 00cc 0C       		.uleb128 0xc
 902 00cd 03       		.uleb128 0x3
 903 00ce 0E       		.uleb128 0xe
 904 00cf 3A       		.uleb128 0x3a
 905 00d0 0B       		.uleb128 0xb
 906 00d1 3B       		.uleb128 0x3b
 907 00d2 0B       		.uleb128 0xb
 908 00d3 27       		.uleb128 0x27
 909 00d4 0C       		.uleb128 0xc
 910 00d5 11       		.uleb128 0x11
 911 00d6 01       		.uleb128 0x1
ARM GAS  /var/folders/5n/p_75w94d66l9ssrldxqdhh700000gn/T//cc7VL8fP.s 			page 17


 912 00d7 12       		.uleb128 0x12
 913 00d8 01       		.uleb128 0x1
 914 00d9 40       		.uleb128 0x40
 915 00da 06       		.uleb128 0x6
 916 00db 00       		.byte	0
 917 00dc 00       		.byte	0
 918 00dd 12       		.uleb128 0x12
 919 00de 05       		.uleb128 0x5
 920 00df 00       		.byte	0
 921 00e0 03       		.uleb128 0x3
 922 00e1 08       		.uleb128 0x8
 923 00e2 3A       		.uleb128 0x3a
 924 00e3 0B       		.uleb128 0xb
 925 00e4 3B       		.uleb128 0x3b
 926 00e5 0B       		.uleb128 0xb
 927 00e6 49       		.uleb128 0x49
 928 00e7 13       		.uleb128 0x13
 929 00e8 02       		.uleb128 0x2
 930 00e9 06       		.uleb128 0x6
 931 00ea 00       		.byte	0
 932 00eb 00       		.byte	0
 933 00ec 13       		.uleb128 0x13
 934 00ed 0B       		.uleb128 0xb
 935 00ee 01       		.byte	0x1
 936 00ef 11       		.uleb128 0x11
 937 00f0 01       		.uleb128 0x1
 938 00f1 12       		.uleb128 0x12
 939 00f2 01       		.uleb128 0x1
 940 00f3 00       		.byte	0
 941 00f4 00       		.byte	0
 942 00f5 14       		.uleb128 0x14
 943 00f6 34       		.uleb128 0x34
 944 00f7 00       		.byte	0
 945 00f8 03       		.uleb128 0x3
 946 00f9 0E       		.uleb128 0xe
 947 00fa 3A       		.uleb128 0x3a
 948 00fb 0B       		.uleb128 0xb
 949 00fc 3B       		.uleb128 0x3b
 950 00fd 0B       		.uleb128 0xb
 951 00fe 49       		.uleb128 0x49
 952 00ff 13       		.uleb128 0x13
 953 0100 02       		.uleb128 0x2
 954 0101 0A       		.uleb128 0xa
 955 0102 00       		.byte	0
 956 0103 00       		.byte	0
 957 0104 15       		.uleb128 0x15
 958 0105 34       		.uleb128 0x34
 959 0106 00       		.byte	0
 960 0107 03       		.uleb128 0x3
 961 0108 08       		.uleb128 0x8
 962 0109 3A       		.uleb128 0x3a
 963 010a 0B       		.uleb128 0xb
 964 010b 3B       		.uleb128 0x3b
 965 010c 0B       		.uleb128 0xb
 966 010d 49       		.uleb128 0x49
 967 010e 13       		.uleb128 0x13
 968 010f 02       		.uleb128 0x2
ARM GAS  /var/folders/5n/p_75w94d66l9ssrldxqdhh700000gn/T//cc7VL8fP.s 			page 18


 969 0110 06       		.uleb128 0x6
 970 0111 00       		.byte	0
 971 0112 00       		.byte	0
 972 0113 00       		.byte	0
 973              		.section	.debug_loc,"",%progbits
 974              	.Ldebug_loc0:
 975              	.LLST0:
 976 0000 00000000 		.4byte	.LFB7
 977 0004 02000000 		.4byte	.LCFI0
 978 0008 0200     		.2byte	0x2
 979 000a 7D       		.byte	0x7d
 980 000b 00       		.sleb128 0
 981 000c 02000000 		.4byte	.LCFI0
 982 0010 06000000 		.4byte	.LCFI1
 983 0014 0200     		.2byte	0x2
 984 0016 7D       		.byte	0x7d
 985 0017 08       		.sleb128 8
 986 0018 06000000 		.4byte	.LCFI1
 987 001c 28000000 		.4byte	.LFE7
 988 0020 0200     		.2byte	0x2
 989 0022 7D       		.byte	0x7d
 990 0023 10       		.sleb128 16
 991 0024 00000000 		.4byte	0
 992 0028 00000000 		.4byte	0
 993              	.LLST1:
 994 002c 00000000 		.4byte	.LVL0
 995 0030 08000000 		.4byte	.LVL1
 996 0034 0100     		.2byte	0x1
 997 0036 50       		.byte	0x50
 998 0037 08000000 		.4byte	.LVL1
 999 003b 28000000 		.4byte	.LFE7
 1000 003f 0100     		.2byte	0x1
 1001 0041 54       		.byte	0x54
 1002 0042 00000000 		.4byte	0
 1003 0046 00000000 		.4byte	0
 1004              	.LLST2:
 1005 004a 14000000 		.4byte	.LVL2
 1006 004e 1A000000 		.4byte	.LVL3
 1007 0052 0100     		.2byte	0x1
 1008 0054 50       		.byte	0x50
 1009 0055 00000000 		.4byte	0
 1010 0059 00000000 		.4byte	0
 1011              		.section	.debug_aranges,"",%progbits
 1012 0000 1C000000 		.4byte	0x1c
 1013 0004 0200     		.2byte	0x2
 1014 0006 00000000 		.4byte	.Ldebug_info0
 1015 000a 04       		.byte	0x4
 1016 000b 00       		.byte	0
 1017 000c 0000     		.2byte	0
 1018 000e 0000     		.2byte	0
 1019 0010 00000000 		.4byte	.LFB7
 1020 0014 28000000 		.4byte	.LFE7-.LFB7
 1021 0018 00000000 		.4byte	0
 1022 001c 00000000 		.4byte	0
 1023              		.section	.debug_ranges,"",%progbits
 1024              	.Ldebug_ranges0:
 1025 0000 00000000 		.4byte	.LFB7
ARM GAS  /var/folders/5n/p_75w94d66l9ssrldxqdhh700000gn/T//cc7VL8fP.s 			page 19


 1026 0004 28000000 		.4byte	.LFE7
 1027 0008 00000000 		.4byte	0
 1028 000c 00000000 		.4byte	0
 1029              		.section	.debug_line,"",%progbits
 1030              	.Ldebug_line0:
 1031 0000 93010000 		.section	.debug_str,"MS",%progbits,1
 1031      02007401 
 1031      00000201 
 1031      FB0E0D00 
 1031      01010101 
 1032              	.LASF45:
 1033 0000 696E7463 		.ascii	"intctx\000"
 1033      747800
 1034              	.LASF37:
 1035 0007 705F6D73 		.ascii	"p_msg\000"
 1035      6700
 1036              	.LASF54:
 1037 000d 7264796D 		.ascii	"rdymsg\000"
 1037      736700
 1038              	.LASF63:
 1039 0014 64656C61 		.ascii	"delaysem\000"
 1039      7973656D 
 1039      00
 1040              	.LASF12:
 1041 001d 6C6F6E67 		.ascii	"long long unsigned int\000"
 1041      206C6F6E 
 1041      6720756E 
 1041      7369676E 
 1041      65642069 
 1042              	.LASF55:
 1043 0034 65786974 		.ascii	"exitcode\000"
 1043      636F6465 
 1043      00
 1044              	.LASF25:
 1045 003d 705F7072 		.ascii	"p_prio\000"
 1045      696F00
 1046              	.LASF62:
 1047 0044 7379735F 		.ascii	"sys_sem_t\000"
 1047      73656D5F 
 1047      7400
 1048              	.LASF11:
 1049 004e 6C6F6E67 		.ascii	"long long int\000"
 1049      206C6F6E 
 1049      6720696E 
 1049      7400
 1050              	.LASF1:
 1051 005c 7369676E 		.ascii	"signed char\000"
 1051      65642063 
 1051      68617200 
 1052              	.LASF65:
 1053 0068 2E2E2F2E 		.ascii	"../../ext/lwip/src/core/sys.c\000"
 1053      2E2F6578 
 1053      742F6C77 
 1053      69702F73 
 1053      72632F63 
 1054              	.LASF41:
 1055 0086 705F6D70 		.ascii	"p_mpool\000"
ARM GAS  /var/folders/5n/p_75w94d66l9ssrldxqdhh700000gn/T//cc7VL8fP.s 			page 20


 1055      6F6F6C00 
 1056              	.LASF51:
 1057 008e 6D5F7175 		.ascii	"m_queue\000"
 1057      65756500 
 1058              	.LASF16:
 1059 0096 74736C69 		.ascii	"tslices_t\000"
 1059      6365735F 
 1059      7400
 1060              	.LASF8:
 1061 00a0 6C6F6E67 		.ascii	"long int\000"
 1061      20696E74 
 1061      00
 1062              	.LASF14:
 1063 00a9 74737461 		.ascii	"tstate_t\000"
 1063      74655F74 
 1063      00
 1064              	.LASF27:
 1065 00b2 705F6E65 		.ascii	"p_newer\000"
 1065      77657200 
 1066              	.LASF48:
 1067 00ba 735F7175 		.ascii	"s_queue\000"
 1067      65756500 
 1068              	.LASF44:
 1069 00c2 72656761 		.ascii	"regarm_t\000"
 1069      726D5F74 
 1069      00
 1070              	.LASF21:
 1071 00cb 636E745F 		.ascii	"cnt_t\000"
 1071      7400
 1072              	.LASF0:
 1073 00d1 756E7369 		.ascii	"unsigned int\000"
 1073      676E6564 
 1073      20696E74 
 1073      00
 1074              	.LASF67:
 1075 00de 7379735F 		.ascii	"sys_msleep\000"
 1075      6D736C65 
 1075      657000
 1076              	.LASF10:
 1077 00e9 6C6F6E67 		.ascii	"long unsigned int\000"
 1077      20756E73 
 1077      69676E65 
 1077      6420696E 
 1077      7400
 1078              	.LASF60:
 1079 00fb 7533325F 		.ascii	"u32_t\000"
 1079      7400
 1080              	.LASF49:
 1081 0101 735F636E 		.ascii	"s_cnt\000"
 1081      7400
 1082              	.LASF46:
 1083 0107 636F6E74 		.ascii	"context\000"
 1083      65787400 
 1084              	.LASF6:
 1085 010f 73686F72 		.ascii	"short unsigned int\000"
 1085      7420756E 
 1085      7369676E 
ARM GAS  /var/folders/5n/p_75w94d66l9ssrldxqdhh700000gn/T//cc7VL8fP.s 			page 21


 1085      65642069 
 1085      6E7400
 1086              	.LASF18:
 1087 0122 6D73675F 		.ascii	"msg_t\000"
 1087      7400
 1088              	.LASF13:
 1089 0128 746D6F64 		.ascii	"tmode_t\000"
 1089      655F7400 
 1090              	.LASF43:
 1091 0130 54687265 		.ascii	"ThreadsList\000"
 1091      6164734C 
 1091      69737400 
 1092              	.LASF19:
 1093 013c 6576656E 		.ascii	"eventmask_t\000"
 1093      746D6173 
 1093      6B5F7400 
 1094              	.LASF50:
 1095 0148 4D757465 		.ascii	"Mutex\000"
 1095      7800
 1096              	.LASF61:
 1097 014e 6572725F 		.ascii	"err_t\000"
 1097      7400
 1098              	.LASF28:
 1099 0154 705F6F6C 		.ascii	"p_older\000"
 1099      64657200 
 1100              	.LASF42:
 1101 015c 54687265 		.ascii	"ThreadsQueue\000"
 1101      61647351 
 1101      75657565 
 1101      00
 1102              	.LASF15:
 1103 0169 74726566 		.ascii	"trefs_t\000"
 1103      735F7400 
 1104              	.LASF24:
 1105 0171 705F7072 		.ascii	"p_prev\000"
 1105      657600
 1106              	.LASF17:
 1107 0178 74707269 		.ascii	"tprio_t\000"
 1107      6F5F7400 
 1108              	.LASF7:
 1109 0180 696E7433 		.ascii	"int32_t\000"
 1109      325F7400 
 1110              	.LASF4:
 1111 0188 756E7369 		.ascii	"unsigned char\000"
 1111      676E6564 
 1111      20636861 
 1111      7200
 1112              	.LASF39:
 1113 0196 705F6D74 		.ascii	"p_mtxlist\000"
 1113      786C6973 
 1113      7400
 1114              	.LASF5:
 1115 01a0 73686F72 		.ascii	"short int\000"
 1115      7420696E 
 1115      7400
 1116              	.LASF30:
 1117 01aa 705F7374 		.ascii	"p_state\000"
ARM GAS  /var/folders/5n/p_75w94d66l9ssrldxqdhh700000gn/T//cc7VL8fP.s 			page 22


 1117      61746500 
 1118              	.LASF33:
 1119 01b2 705F7072 		.ascii	"p_preempt\000"
 1119      65656D70 
 1119      7400
 1120              	.LASF57:
 1121 01bc 65776D61 		.ascii	"ewmask\000"
 1121      736B00
 1122              	.LASF23:
 1123 01c3 705F6E65 		.ascii	"p_next\000"
 1123      787400
 1124              	.LASF31:
 1125 01ca 705F666C 		.ascii	"p_flags\000"
 1125      61677300 
 1126              	.LASF22:
 1127 01d2 54687265 		.ascii	"Thread\000"
 1127      616400
 1128              	.LASF59:
 1129 01d9 73385F74 		.ascii	"s8_t\000"
 1129      00
 1130              	.LASF38:
 1131 01de 705F6570 		.ascii	"p_epending\000"
 1131      656E6469 
 1131      6E6700
 1132              	.LASF9:
 1133 01e9 75696E74 		.ascii	"uint32_t\000"
 1133      33325F74 
 1133      00
 1134              	.LASF58:
 1135 01f2 63686172 		.ascii	"char\000"
 1135      00
 1136              	.LASF53:
 1137 01f7 6D5F6E65 		.ascii	"m_next\000"
 1137      787400
 1138              	.LASF20:
 1139 01fe 73797374 		.ascii	"systime_t\000"
 1139      696D655F 
 1139      7400
 1140              	.LASF40:
 1141 0208 705F7265 		.ascii	"p_realprio\000"
 1141      616C7072 
 1141      696F00
 1142              	.LASF34:
 1143 0213 705F7469 		.ascii	"p_time\000"
 1143      6D6500
 1144              	.LASF64:
 1145 021a 474E5520 		.ascii	"GNU C 4.6.2 20111004 (prerelease)\000"
 1145      4320342E 
 1145      362E3220 
 1145      32303131 
 1145      31303034 
 1146              	.LASF2:
 1147 023c 696E7438 		.ascii	"int8_t\000"
 1147      5F7400
 1148              	.LASF36:
 1149 0243 705F6D73 		.ascii	"p_msgqueue\000"
 1149      67717565 
ARM GAS  /var/folders/5n/p_75w94d66l9ssrldxqdhh700000gn/T//cc7VL8fP.s 			page 23


 1149      756500
 1150              	.LASF47:
 1151 024e 53656D61 		.ascii	"Semaphore\000"
 1151      70686F72 
 1151      6500
 1152              	.LASF32:
 1153 0258 705F7265 		.ascii	"p_refs\000"
 1153      667300
 1154              	.LASF3:
 1155 025f 75696E74 		.ascii	"uint8_t\000"
 1155      385F7400 
 1156              	.LASF56:
 1157 0267 77746F62 		.ascii	"wtobjp\000"
 1157      6A7000
 1158              	.LASF29:
 1159 026e 705F6E61 		.ascii	"p_name\000"
 1159      6D6500
 1160              	.LASF66:
 1161 0275 2F557365 		.ascii	"/Users/sin/Documents/Eclipse/Workspace/mabl-ChibiOS"
 1161      72732F73 
 1161      696E2F44 
 1161      6F63756D 
 1161      656E7473 
 1162 02a8 2D322E35 		.ascii	"-2.5.1/demos/ARMCM4-STM32F407-LWIP\000"
 1162      2E312F64 
 1162      656D6F73 
 1162      2F41524D 
 1162      434D342D 
 1163              	.LASF52:
 1164 02cb 6D5F6F77 		.ascii	"m_owner\000"
 1164      6E657200 
 1165              	.LASF26:
 1166 02d3 705F6374 		.ascii	"p_ctx\000"
 1166      7800
 1167              	.LASF35:
 1168 02d9 705F7761 		.ascii	"p_waiting\000"
 1168      6974696E 
 1168      6700
 1169              		.ident	"GCC: (Linaro GCC 4.6-2011.10) 4.6.2 20111004 (prerelease)"
ARM GAS  /var/folders/5n/p_75w94d66l9ssrldxqdhh700000gn/T//cc7VL8fP.s 			page 24


DEFINED SYMBOLS
                            *ABS*:0000000000000000 sys.c
/var/folders/5n/p_75w94d66l9ssrldxqdhh700000gn/T//cc7VL8fP.s:18     .text.sys_msleep:0000000000000000 $t
/var/folders/5n/p_75w94d66l9ssrldxqdhh700000gn/T//cc7VL8fP.s:24     .text.sys_msleep:0000000000000000 sys_msleep
                     .debug_frame:0000000000000010 $d

UNDEFINED SYMBOLS
sys_sem_new
sys_arch_sem_wait
sys_sem_free
