ARM GAS  /var/folders/5n/p_75w94d66l9ssrldxqdhh700000gn/T//cc9o6Lzj.s 			page 1


   1              		.syntax unified
   2              		.cpu cortex-m4
   3              		.fpu softvfp
   4              		.eabi_attribute 20, 1
   5              		.eabi_attribute 21, 1
   6              		.eabi_attribute 23, 3
   7              		.eabi_attribute 24, 1
   8              		.eabi_attribute 25, 1
   9              		.eabi_attribute 26, 1
  10              		.eabi_attribute 30, 2
  11              		.eabi_attribute 18, 4
  12              		.thumb
  13              		.file	"sys_arch.c"
  14              		.text
  15              	.Ltext0:
  16              		.cfi_sections	.debug_frame
  17              		.section	.text.sys_init,"ax",%progbits
  18              		.align	2
  19              		.p2align 4,,15
  20              		.global	sys_init
  21              		.thumb
  22              		.thumb_func
  23              		.type	sys_init, %function
  24              	sys_init:
  25              	.LFB7:
  26              		.file 1 "../../os/various/lwip_bindings/arch/sys_arch.c"
  27              		.loc 1 67 0
  28              		.cfi_startproc
  29              		@ args = 0, pretend = 0, frame = 0
  30              		@ frame_needed = 0, uses_anonymous_args = 0
  31              		@ link register save eliminated.
  32              		.loc 1 69 0
  33 0000 7047     		bx	lr
  34              		.cfi_endproc
  35              	.LFE7:
  36              		.size	sys_init, .-sys_init
  37 0002 00BFAFF3 		.section	.text.sys_sem_new,"ax",%progbits
  37      0080AFF3 
  37      0080AFF3 
  37      0080
  38              		.align	2
  39              		.p2align 4,,15
  40              		.global	sys_sem_new
  41              		.thumb
  42              		.thumb_func
  43              		.type	sys_sem_new, %function
  44              	sys_sem_new:
  45              	.LFB8:
  46              		.loc 1 71 0
  47              		.cfi_startproc
  48              		@ args = 0, pretend = 0, frame = 0
  49              		@ frame_needed = 0, uses_anonymous_args = 0
  50              	.LVL0:
  51 0000 38B5     		push	{r3, r4, r5, lr}
  52              	.LCFI0:
  53              		.cfi_def_cfa_offset 16
  54              		.cfi_offset 14, -4
ARM GAS  /var/folders/5n/p_75w94d66l9ssrldxqdhh700000gn/T//cc9o6Lzj.s 			page 2


  55              		.cfi_offset 5, -8
  56              		.cfi_offset 4, -12
  57              		.cfi_offset 3, -16
  58              		.loc 1 71 0
  59 0002 0446     		mov	r4, r0
  60 0004 0D46     		mov	r5, r1
  61              		.loc 1 73 0
  62 0006 0020     		movs	r0, #0
  63              	.LVL1:
  64 0008 0C21     		movs	r1, #12
  65              	.LVL2:
  66 000a FFF7FEFF 		bl	chHeapAlloc
  67 000e 2060     		str	r0, [r4, #0]
  68              		.loc 1 74 0
  69 0010 90B1     		cbz	r0, .L7
  70              		.loc 1 79 0
  71 0012 2946     		mov	r1, r5
  72 0014 FFF7FEFF 		bl	chSemInit
  73              		.loc 1 80 0
  74 0018 0B4B     		ldr	r3, .L8
  75 001a B3F83E21 		ldrh	r2, [r3, #318]
  76 001e B3F84011 		ldrh	r1, [r3, #320]
  77 0022 0132     		adds	r2, r2, #1
  78 0024 92B2     		uxth	r2, r2
  79 0026 9142     		cmp	r1, r2
  80 0028 38BF     		it	cc
  81 002a A3F84021 		strhcc	r2, [r3, #320]	@ movhi
  82 002e A3F83E21 		strh	r2, [r3, #318]	@ movhi
  83              		.loc 1 81 0
  84 0032 0020     		movs	r0, #0
  85              	.L4:
  86              		.loc 1 83 0
  87 0034 40B2     		sxtb	r0, r0
  88 0036 38BD     		pop	{r3, r4, r5, pc}
  89              	.L7:
  90              		.loc 1 75 0
  91 0038 034B     		ldr	r3, .L8
  92 003a B3F84221 		ldrh	r2, [r3, #322]
  93 003e 0132     		adds	r2, r2, #1
  94 0040 A3F84221 		strh	r2, [r3, #322]	@ movhi
  95              		.loc 1 76 0
  96 0044 FF20     		movs	r0, #255
  97 0046 F5E7     		b	.L4
  98              	.L9:
  99              		.align	2
 100              	.L8:
 101 0048 00000000 		.word	lwip_stats
 102              		.cfi_endproc
 103              	.LFE8:
 104              		.size	sys_sem_new, .-sys_sem_new
 105 004c AFF30080 		.section	.text.sys_sem_free,"ax",%progbits
 106              		.align	2
 107              		.p2align 4,,15
 108              		.global	sys_sem_free
 109              		.thumb
 110              		.thumb_func
 111              		.type	sys_sem_free, %function
ARM GAS  /var/folders/5n/p_75w94d66l9ssrldxqdhh700000gn/T//cc9o6Lzj.s 			page 3


 112              	sys_sem_free:
 113              	.LFB9:
 114              		.loc 1 85 0
 115              		.cfi_startproc
 116              		@ args = 0, pretend = 0, frame = 0
 117              		@ frame_needed = 0, uses_anonymous_args = 0
 118              	.LVL3:
 119 0000 10B5     		push	{r4, lr}
 120              	.LCFI1:
 121              		.cfi_def_cfa_offset 8
 122              		.cfi_offset 14, -4
 123              		.cfi_offset 4, -8
 124              		.loc 1 85 0
 125 0002 0446     		mov	r4, r0
 126              		.loc 1 87 0
 127 0004 0068     		ldr	r0, [r0, #0]
 128              	.LVL4:
 129 0006 FFF7FEFF 		bl	chHeapFree
 130              		.loc 1 89 0
 131 000a 40F20003 		movw	r3, #:lower16:lwip_stats
 132 000e C0F20003 		movt	r3, #:upper16:lwip_stats
 133              		.loc 1 88 0
 134 0012 0021     		movs	r1, #0
 135              		.loc 1 89 0
 136 0014 B3F83E21 		ldrh	r2, [r3, #318]
 137              		.loc 1 88 0
 138 0018 2160     		str	r1, [r4, #0]
 139              		.loc 1 89 0
 140 001a 013A     		subs	r2, r2, #1
 141 001c A3F83E21 		strh	r2, [r3, #318]	@ movhi
 142              		.loc 1 90 0
 143 0020 10BD     		pop	{r4, pc}
 144              		.cfi_endproc
 145              	.LFE9:
 146              		.size	sys_sem_free, .-sys_sem_free
 147 0022 00BFAFF3 		.section	.text.sys_sem_signal,"ax",%progbits
 147      0080AFF3 
 147      0080AFF3 
 147      0080
 148              		.align	2
 149              		.p2align 4,,15
 150              		.global	sys_sem_signal
 151              		.thumb
 152              		.thumb_func
 153              		.type	sys_sem_signal, %function
 154              	sys_sem_signal:
 155              	.LFB10:
 156              		.loc 1 92 0
 157              		.cfi_startproc
 158              		@ args = 0, pretend = 0, frame = 0
 159              		@ frame_needed = 0, uses_anonymous_args = 0
 160              		@ link register save eliminated.
 161              	.LVL5:
 162              		.loc 1 94 0
 163 0000 0068     		ldr	r0, [r0, #0]
 164              	.LVL6:
 165              		.loc 1 95 0
ARM GAS  /var/folders/5n/p_75w94d66l9ssrldxqdhh700000gn/T//cc9o6Lzj.s 			page 4


 166              		.loc 1 94 0
 167 0002 FFF7FEBF 		b	chSemSignal
 168              		.cfi_endproc
 169              	.LFE10:
 170              		.size	sys_sem_signal, .-sys_sem_signal
 171 0006 00BFAFF3 		.section	.text.sys_arch_sem_wait,"ax",%progbits
 171      0080AFF3 
 171      0080
 172              		.align	2
 173              		.p2align 4,,15
 174              		.global	sys_arch_sem_wait
 175              		.thumb
 176              		.thumb_func
 177              		.type	sys_arch_sem_wait, %function
 178              	sys_arch_sem_wait:
 179              	.LFB11:
 180              		.loc 1 97 0
 181              		.cfi_startproc
 182              		@ args = 0, pretend = 0, frame = 0
 183              		@ frame_needed = 0, uses_anonymous_args = 0
 184              	.LVL7:
 185 0000 38B5     		push	{r3, r4, r5, lr}
 186              	.LCFI2:
 187              		.cfi_def_cfa_offset 16
 188              		.cfi_offset 14, -4
 189              		.cfi_offset 5, -8
 190              		.cfi_offset 4, -12
 191              		.cfi_offset 3, -16
 192              	.LBB2:
 193              		.loc 1 100 0
 194 0002 2023     		movs	r3, #32
 195              	.LVL8:
 196              	@ 100 "../../os/various/lwip_bindings/arch/sys_arch.c" 1
 197 0004 83F31188 		msr     BASEPRI, r3
 198              	@ 0 "" 2
 199              	.LVL9:
 200              		.thumb
 201              	.LBE2:
 202              		.loc 1 102 0
 203 0008 094C     		ldr	r4, .L18
 204              		.loc 1 103 0
 205 000a 0068     		ldr	r0, [r0, #0]
 206              	.LVL10:
 207              		.loc 1 102 0
 208 000c E568     		ldr	r5, [r4, #12]
 209              	.LVL11:
 210              		.loc 1 103 0
 211 000e 0029     		cmp	r1, #0
 212 0010 08BF     		it	eq
 213 0012 4FF0FF31 		moveq	r1, #-1
 214              	.LVL12:
 215 0016 FFF7FEFF 		bl	chSemWaitTimeoutS
 216              	.LVL13:
 217 001a 28B1     		cbz	r0, .L17
 218              		.loc 1 104 0
 219 001c 4FF0FF30 		mov	r0, #-1
 220              	.LVL14:
ARM GAS  /var/folders/5n/p_75w94d66l9ssrldxqdhh700000gn/T//cc9o6Lzj.s 			page 5


 221              	.L14:
 222              	.LBB3:
 223              		.loc 1 107 0
 224 0020 0023     		movs	r3, #0
 225              	.LVL15:
 226              	@ 107 "../../os/various/lwip_bindings/arch/sys_arch.c" 1
 227 0022 83F31188 		msr     BASEPRI, r3
 228              	@ 0 "" 2
 229              	.LVL16:
 230              		.thumb
 231              	.LBE3:
 232              		.loc 1 109 0
 233 0026 38BD     		pop	{r3, r4, r5, pc}
 234              	.LVL17:
 235              	.L17:
 236              		.loc 1 106 0
 237 0028 E068     		ldr	r0, [r4, #12]
 238 002a 401B     		subs	r0, r0, r5
 239              	.LVL18:
 240 002c F8E7     		b	.L14
 241              	.L19:
 242 002e 00BF     		.align	2
 243              	.L18:
 244 0030 00000000 		.word	vtlist
 245              		.cfi_endproc
 246              	.LFE11:
 247              		.size	sys_arch_sem_wait, .-sys_arch_sem_wait
 248 0034 AFF30080 		.section	.text.sys_sem_valid,"ax",%progbits
 248      AFF30080 
 248      AFF30080 
 249              		.align	2
 250              		.p2align 4,,15
 251              		.global	sys_sem_valid
 252              		.thumb
 253              		.thumb_func
 254              		.type	sys_sem_valid, %function
 255              	sys_sem_valid:
 256              	.LFB12:
 257              		.loc 1 111 0
 258              		.cfi_startproc
 259              		@ args = 0, pretend = 0, frame = 0
 260              		@ frame_needed = 0, uses_anonymous_args = 0
 261              		@ link register save eliminated.
 262              	.LVL19:
 263              		.loc 1 112 0
 264 0000 0068     		ldr	r0, [r0, #0]
 265              	.LVL20:
 266              		.loc 1 113 0
 267 0002 0030     		adds	r0, r0, #0
 268 0004 18BF     		it	ne
 269 0006 0120     		movne	r0, #1
 270 0008 7047     		bx	lr
 271              		.cfi_endproc
 272              	.LFE12:
 273              		.size	sys_sem_valid, .-sys_sem_valid
 274 000a 00BFAFF3 		.section	.text.sys_sem_set_invalid,"ax",%progbits
 274      0080
ARM GAS  /var/folders/5n/p_75w94d66l9ssrldxqdhh700000gn/T//cc9o6Lzj.s 			page 6


 275              		.align	2
 276              		.p2align 4,,15
 277              		.global	sys_sem_set_invalid
 278              		.thumb
 279              		.thumb_func
 280              		.type	sys_sem_set_invalid, %function
 281              	sys_sem_set_invalid:
 282              	.LFB13:
 283              		.loc 1 117 0
 284              		.cfi_startproc
 285              		@ args = 0, pretend = 0, frame = 0
 286              		@ frame_needed = 0, uses_anonymous_args = 0
 287              		@ link register save eliminated.
 288              	.LVL21:
 289              		.loc 1 118 0
 290 0000 0023     		movs	r3, #0
 291 0002 0360     		str	r3, [r0, #0]
 292              		.loc 1 119 0
 293 0004 7047     		bx	lr
 294              		.cfi_endproc
 295              	.LFE13:
 296              		.size	sys_sem_set_invalid, .-sys_sem_set_invalid
 297 0006 00BFAFF3 		.section	.text.sys_mbox_new,"ax",%progbits
 297      0080AFF3 
 297      0080
 298              		.align	2
 299              		.p2align 4,,15
 300              		.global	sys_mbox_new
 301              		.thumb
 302              		.thumb_func
 303              		.type	sys_mbox_new, %function
 304              	sys_mbox_new:
 305              	.LFB14:
 306              		.loc 1 121 0
 307              		.cfi_startproc
 308              		@ args = 0, pretend = 0, frame = 0
 309              		@ frame_needed = 0, uses_anonymous_args = 0
 310              	.LVL22:
 311 0000 38B5     		push	{r3, r4, r5, lr}
 312              	.LCFI3:
 313              		.cfi_def_cfa_offset 16
 314              		.cfi_offset 14, -4
 315              		.cfi_offset 5, -8
 316              		.cfi_offset 4, -12
 317              		.cfi_offset 3, -16
 318              		.loc 1 121 0
 319 0002 0C46     		mov	r4, r1
 320              		.loc 1 123 0
 321 0004 01F10A01 		add	r1, r1, #10
 322              	.LVL23:
 323              		.loc 1 121 0
 324 0008 0546     		mov	r5, r0
 325              		.loc 1 123 0
 326 000a 8900     		lsls	r1, r1, #2
 327 000c 0020     		movs	r0, #0
 328              	.LVL24:
 329 000e FFF7FEFF 		bl	chHeapAlloc
ARM GAS  /var/folders/5n/p_75w94d66l9ssrldxqdhh700000gn/T//cc9o6Lzj.s 			page 7


 330 0012 0146     		mov	r1, r0
 331 0014 2860     		str	r0, [r5, #0]
 332              		.loc 1 124 0
 333 0016 60B1     		cbz	r0, .L25
 334              		.loc 1 129 0
 335 0018 2246     		mov	r2, r4
 336 001a 2831     		adds	r1, r1, #40
 337 001c FFF7FEFF 		bl	chMBInit
 338              		.loc 1 130 0
 339 0020 084B     		ldr	r3, .L26
 340 0022 B3F84A21 		ldrh	r2, [r3, #330]
 341 0026 0132     		adds	r2, r2, #1
 342 0028 A3F84A21 		strh	r2, [r3, #330]	@ movhi
 343              		.loc 1 131 0
 344 002c 0020     		movs	r0, #0
 345              	.L24:
 346              		.loc 1 133 0
 347 002e 40B2     		sxtb	r0, r0
 348 0030 38BD     		pop	{r3, r4, r5, pc}
 349              	.L25:
 350              		.loc 1 125 0
 351 0032 044B     		ldr	r3, .L26
 352 0034 B3F84E21 		ldrh	r2, [r3, #334]
 353 0038 0132     		adds	r2, r2, #1
 354 003a A3F84E21 		strh	r2, [r3, #334]	@ movhi
 355              		.loc 1 126 0
 356 003e FF20     		movs	r0, #255
 357 0040 F5E7     		b	.L24
 358              	.L27:
 359 0042 00BF     		.align	2
 360              	.L26:
 361 0044 00000000 		.word	lwip_stats
 362              		.cfi_endproc
 363              	.LFE14:
 364              		.size	sys_mbox_new, .-sys_mbox_new
 365 0048 AFF30080 		.section	.text.sys_mbox_free,"ax",%progbits
 365      AFF30080 
 366              		.align	2
 367              		.p2align 4,,15
 368              		.global	sys_mbox_free
 369              		.thumb
 370              		.thumb_func
 371              		.type	sys_mbox_free, %function
 372              	sys_mbox_free:
 373              	.LFB15:
 374              		.loc 1 135 0
 375              		.cfi_startproc
 376              		@ args = 0, pretend = 0, frame = 0
 377              		@ frame_needed = 0, uses_anonymous_args = 0
 378              	.LVL25:
 379 0000 38B5     		push	{r3, r4, r5, lr}
 380              	.LCFI4:
 381              		.cfi_def_cfa_offset 16
 382              		.cfi_offset 14, -4
 383              		.cfi_offset 5, -8
 384              		.cfi_offset 4, -12
 385              		.cfi_offset 3, -16
ARM GAS  /var/folders/5n/p_75w94d66l9ssrldxqdhh700000gn/T//cc9o6Lzj.s 			page 8


 386              		.loc 1 135 0
 387 0002 0546     		mov	r5, r0
 388              		.loc 1 137 0
 389 0004 0068     		ldr	r0, [r0, #0]
 390              	.LVL26:
 391              		.loc 1 141 0
 392 0006 0A4C     		ldr	r4, .L32
 393              		.loc 1 137 0
 394 0008 8369     		ldr	r3, [r0, #24]
 395 000a 3BB1     		cbz	r3, .L29
 396              		.loc 1 141 0
 397 000c B4F84E31 		ldrh	r3, [r4, #334]
 398 0010 0133     		adds	r3, r3, #1
 399 0012 A4F84E31 		strh	r3, [r4, #334]	@ movhi
 400              		.loc 1 142 0
 401 0016 FFF7FEFF 		bl	chMBReset
 402 001a 2868     		ldr	r0, [r5, #0]
 403              	.L29:
 404              		.loc 1 144 0
 405 001c FFF7FEFF 		bl	chHeapFree
 406              		.loc 1 146 0
 407 0020 B4F84A31 		ldrh	r3, [r4, #330]
 408              		.loc 1 145 0
 409 0024 0022     		movs	r2, #0
 410              		.loc 1 146 0
 411 0026 013B     		subs	r3, r3, #1
 412              		.loc 1 145 0
 413 0028 2A60     		str	r2, [r5, #0]
 414              		.loc 1 146 0
 415 002a A4F84A31 		strh	r3, [r4, #330]	@ movhi
 416              		.loc 1 147 0
 417 002e 38BD     		pop	{r3, r4, r5, pc}
 418              	.L33:
 419              		.align	2
 420              	.L32:
 421 0030 00000000 		.word	lwip_stats
 422              		.cfi_endproc
 423              	.LFE15:
 424              		.size	sys_mbox_free, .-sys_mbox_free
 425 0034 AFF30080 		.section	.text.sys_mbox_post,"ax",%progbits
 425      AFF30080 
 425      AFF30080 
 426              		.align	2
 427              		.p2align 4,,15
 428              		.global	sys_mbox_post
 429              		.thumb
 430              		.thumb_func
 431              		.type	sys_mbox_post, %function
 432              	sys_mbox_post:
 433              	.LFB16:
 434              		.loc 1 149 0
 435              		.cfi_startproc
 436              		@ args = 0, pretend = 0, frame = 0
 437              		@ frame_needed = 0, uses_anonymous_args = 0
 438              		@ link register save eliminated.
 439              	.LVL27:
 440              		.loc 1 151 0
ARM GAS  /var/folders/5n/p_75w94d66l9ssrldxqdhh700000gn/T//cc9o6Lzj.s 			page 9


 441 0000 0068     		ldr	r0, [r0, #0]
 442              	.LVL28:
 443 0002 4FF0FF32 		mov	r2, #-1
 444              		.loc 1 152 0
 445              		.loc 1 151 0
 446 0006 FFF7FEBF 		b	chMBPost
 447              	.LVL29:
 448              		.cfi_endproc
 449              	.LFE16:
 450              		.size	sys_mbox_post, .-sys_mbox_post
 451 000a 00BFAFF3 		.section	.text.sys_mbox_trypost,"ax",%progbits
 451      0080
 452              		.align	2
 453              		.p2align 4,,15
 454              		.global	sys_mbox_trypost
 455              		.thumb
 456              		.thumb_func
 457              		.type	sys_mbox_trypost, %function
 458              	sys_mbox_trypost:
 459              	.LFB17:
 460              		.loc 1 154 0
 461              		.cfi_startproc
 462              		@ args = 0, pretend = 0, frame = 0
 463              		@ frame_needed = 0, uses_anonymous_args = 0
 464              	.LVL30:
 465              		.loc 1 156 0
 466 0000 0022     		movs	r2, #0
 467              		.loc 1 154 0
 468 0002 08B5     		push	{r3, lr}
 469              	.LCFI5:
 470              		.cfi_def_cfa_offset 8
 471              		.cfi_offset 14, -4
 472              		.cfi_offset 3, -8
 473              		.loc 1 156 0
 474 0004 0068     		ldr	r0, [r0, #0]
 475              	.LVL31:
 476 0006 FFF7FEFF 		bl	chMBPost
 477              	.LVL32:
 478 000a 0130     		adds	r0, r0, #1
 479 000c 02D0     		beq	.L38
 480              		.loc 1 160 0
 481 000e 0020     		movs	r0, #0
 482              	.L36:
 483              		.loc 1 161 0
 484 0010 40B2     		sxtb	r0, r0
 485 0012 08BD     		pop	{r3, pc}
 486              	.L38:
 487              		.loc 1 157 0
 488 0014 034B     		ldr	r3, .L39
 489 0016 B3F84E21 		ldrh	r2, [r3, #334]
 490 001a 0132     		adds	r2, r2, #1
 491 001c A3F84E21 		strh	r2, [r3, #334]	@ movhi
 492              		.loc 1 158 0
 493 0020 FF20     		movs	r0, #255
 494 0022 F5E7     		b	.L36
 495              	.L40:
 496              		.align	2
ARM GAS  /var/folders/5n/p_75w94d66l9ssrldxqdhh700000gn/T//cc9o6Lzj.s 			page 10


 497              	.L39:
 498 0024 00000000 		.word	lwip_stats
 499              		.cfi_endproc
 500              	.LFE17:
 501              		.size	sys_mbox_trypost, .-sys_mbox_trypost
 502 0028 AFF30080 		.section	.text.sys_arch_mbox_fetch,"ax",%progbits
 502      AFF30080 
 503              		.align	2
 504              		.p2align 4,,15
 505              		.global	sys_arch_mbox_fetch
 506              		.thumb
 507              		.thumb_func
 508              		.type	sys_arch_mbox_fetch, %function
 509              	sys_arch_mbox_fetch:
 510              	.LFB18:
 511              		.loc 1 163 0
 512              		.cfi_startproc
 513              		@ args = 0, pretend = 0, frame = 0
 514              		@ frame_needed = 0, uses_anonymous_args = 0
 515              	.LVL33:
 516 0000 38B5     		push	{r3, r4, r5, lr}
 517              	.LCFI6:
 518              		.cfi_def_cfa_offset 16
 519              		.cfi_offset 14, -4
 520              		.cfi_offset 5, -8
 521              		.cfi_offset 4, -12
 522              		.cfi_offset 3, -16
 523              	.LBB4:
 524              		.loc 1 166 0
 525 0002 2023     		movs	r3, #32
 526              	.LVL34:
 527              	@ 166 "../../os/various/lwip_bindings/arch/sys_arch.c" 1
 528 0004 83F31188 		msr     BASEPRI, r3
 529              	@ 0 "" 2
 530              	.LVL35:
 531              		.thumb
 532              	.LBE4:
 533              		.loc 1 168 0
 534 0008 094C     		ldr	r4, .L47
 535              		.loc 1 169 0
 536 000a 0068     		ldr	r0, [r0, #0]
 537              	.LVL36:
 538              		.loc 1 168 0
 539 000c E568     		ldr	r5, [r4, #12]
 540              	.LVL37:
 541              		.loc 1 169 0
 542 000e 002A     		cmp	r2, #0
 543 0010 08BF     		it	eq
 544 0012 4FF0FF32 		moveq	r2, #-1
 545              	.LVL38:
 546 0016 FFF7FEFF 		bl	chMBFetchS
 547              	.LVL39:
 548 001a 28B1     		cbz	r0, .L46
 549              		.loc 1 170 0
 550 001c 4FF0FF30 		mov	r0, #-1
 551              	.LVL40:
 552              	.L43:
ARM GAS  /var/folders/5n/p_75w94d66l9ssrldxqdhh700000gn/T//cc9o6Lzj.s 			page 11


 553              	.LBB5:
 554              		.loc 1 173 0
 555 0020 0023     		movs	r3, #0
 556              	.LVL41:
 557              	@ 173 "../../os/various/lwip_bindings/arch/sys_arch.c" 1
 558 0022 83F31188 		msr     BASEPRI, r3
 559              	@ 0 "" 2
 560              	.LVL42:
 561              		.thumb
 562              	.LBE5:
 563              		.loc 1 175 0
 564 0026 38BD     		pop	{r3, r4, r5, pc}
 565              	.LVL43:
 566              	.L46:
 567              		.loc 1 172 0
 568 0028 E068     		ldr	r0, [r4, #12]
 569 002a 401B     		subs	r0, r0, r5
 570              	.LVL44:
 571 002c F8E7     		b	.L43
 572              	.L48:
 573 002e 00BF     		.align	2
 574              	.L47:
 575 0030 00000000 		.word	vtlist
 576              		.cfi_endproc
 577              	.LFE18:
 578              		.size	sys_arch_mbox_fetch, .-sys_arch_mbox_fetch
 579 0034 AFF30080 		.section	.text.sys_arch_mbox_tryfetch,"ax",%progbits
 579      AFF30080 
 579      AFF30080 
 580              		.align	2
 581              		.p2align 4,,15
 582              		.global	sys_arch_mbox_tryfetch
 583              		.thumb
 584              		.thumb_func
 585              		.type	sys_arch_mbox_tryfetch, %function
 586              	sys_arch_mbox_tryfetch:
 587              	.LFB19:
 588              		.loc 1 177 0
 589              		.cfi_startproc
 590              		@ args = 0, pretend = 0, frame = 0
 591              		@ frame_needed = 0, uses_anonymous_args = 0
 592              	.LVL45:
 593 0000 08B5     		push	{r3, lr}
 594              	.LCFI7:
 595              		.cfi_def_cfa_offset 8
 596              		.cfi_offset 14, -4
 597              		.cfi_offset 3, -8
 598              		.loc 1 179 0
 599 0002 0022     		movs	r2, #0
 600 0004 0068     		ldr	r0, [r0, #0]
 601              	.LVL46:
 602 0006 FFF7FEFF 		bl	chMBFetch
 603              	.LVL47:
 604              		.loc 1 182 0
 605 000a B0F1FF3F 		cmp	r0, #-1
 606 000e 0CBF     		ite	eq
 607 0010 4FF0FF30 		moveq	r0, #-1
ARM GAS  /var/folders/5n/p_75w94d66l9ssrldxqdhh700000gn/T//cc9o6Lzj.s 			page 12


 608 0014 0020     		movne	r0, #0
 609 0016 08BD     		pop	{r3, pc}
 610              		.cfi_endproc
 611              	.LFE19:
 612              		.size	sys_arch_mbox_tryfetch, .-sys_arch_mbox_tryfetch
 613 0018 AFF30080 		.section	.text.sys_mbox_valid,"ax",%progbits
 613      AFF30080 
 614              		.align	2
 615              		.p2align 4,,15
 616              		.global	sys_mbox_valid
 617              		.thumb
 618              		.thumb_func
 619              		.type	sys_mbox_valid, %function
 620              	sys_mbox_valid:
 621              	.LFB20:
 622              		.loc 1 184 0
 623              		.cfi_startproc
 624              		@ args = 0, pretend = 0, frame = 0
 625              		@ frame_needed = 0, uses_anonymous_args = 0
 626              		@ link register save eliminated.
 627              	.LVL48:
 628              		.loc 1 185 0
 629 0000 0068     		ldr	r0, [r0, #0]
 630              	.LVL49:
 631              		.loc 1 186 0
 632 0002 0030     		adds	r0, r0, #0
 633 0004 18BF     		it	ne
 634 0006 0120     		movne	r0, #1
 635 0008 7047     		bx	lr
 636              		.cfi_endproc
 637              	.LFE20:
 638              		.size	sys_mbox_valid, .-sys_mbox_valid
 639 000a 00BFAFF3 		.section	.text.sys_mbox_set_invalid,"ax",%progbits
 639      0080
 640              		.align	2
 641              		.p2align 4,,15
 642              		.global	sys_mbox_set_invalid
 643              		.thumb
 644              		.thumb_func
 645              		.type	sys_mbox_set_invalid, %function
 646              	sys_mbox_set_invalid:
 647              	.LFB21:
 648              		.loc 1 190 0
 649              		.cfi_startproc
 650              		@ args = 0, pretend = 0, frame = 0
 651              		@ frame_needed = 0, uses_anonymous_args = 0
 652              		@ link register save eliminated.
 653              	.LVL50:
 654              		.loc 1 191 0
 655 0000 0023     		movs	r3, #0
 656 0002 0360     		str	r3, [r0, #0]
 657              		.loc 1 192 0
 658 0004 7047     		bx	lr
 659              		.cfi_endproc
 660              	.LFE21:
 661              		.size	sys_mbox_set_invalid, .-sys_mbox_set_invalid
 662 0006 00BFAFF3 		.section	.text.sys_thread_new,"ax",%progbits
ARM GAS  /var/folders/5n/p_75w94d66l9ssrldxqdhh700000gn/T//cc9o6Lzj.s 			page 13


 662      0080AFF3 
 662      0080
 663              		.align	2
 664              		.p2align 4,,15
 665              		.global	sys_thread_new
 666              		.thumb
 667              		.thumb_func
 668              		.type	sys_thread_new, %function
 669              	sys_thread_new:
 670              	.LFB22:
 671              		.loc 1 195 0
 672              		.cfi_startproc
 673              		@ args = 4, pretend = 0, frame = 0
 674              		@ frame_needed = 0, uses_anonymous_args = 0
 675              	.LVL51:
 676 0000 2DE9F041 		push	{r4, r5, r6, r7, r8, lr}
 677              	.LCFI8:
 678              		.cfi_def_cfa_offset 24
 679              		.cfi_offset 14, -4
 680              		.cfi_offset 8, -8
 681              		.cfi_offset 7, -12
 682              		.cfi_offset 6, -16
 683              		.cfi_offset 5, -20
 684              		.cfi_offset 4, -24
 685              		.loc 1 201 0
 686 0004 03F1AB05 		add	r5, r3, #171
 687 0008 45F00705 		orr	r5, r5, #7
 688 000c 0135     		adds	r5, r5, #1
 689              	.LVL52:
 690              		.loc 1 202 0
 691 000e 2846     		mov	r0, r5
 692              	.LVL53:
 693              		.loc 1 195 0
 694 0010 0E46     		mov	r6, r1
 695 0012 1446     		mov	r4, r2
 696 0014 069F     		ldr	r7, [sp, #24]
 697              		.loc 1 202 0
 698 0016 FFF7FEFF 		bl	chCoreAlloc
 699              	.LVL54:
 700              		.loc 1 203 0
 701 001a 38B1     		cbz	r0, .L55
 702              		.loc 1 205 0
 703 001c 2946     		mov	r1, r5
 704 001e 3A46     		mov	r2, r7
 705 0020 3346     		mov	r3, r6
 706 0022 0694     		str	r4, [sp, #24]
 707              		.loc 1 206 0
 708 0024 BDE8F041 		pop	{r4, r5, r6, r7, r8, lr}
 709              		.loc 1 205 0
 710 0028 FFF7FEBF 		b	chThdCreateStatic
 711              	.LVL55:
 712              	.L55:
 713              		.loc 1 206 0
 714 002c BDE8F081 		pop	{r4, r5, r6, r7, r8, pc}
 715              		.cfi_endproc
 716              	.LFE22:
 717              		.size	sys_thread_new, .-sys_thread_new
ARM GAS  /var/folders/5n/p_75w94d66l9ssrldxqdhh700000gn/T//cc9o6Lzj.s 			page 14


 718              		.section	.text.sys_arch_protect,"ax",%progbits
 719              		.align	2
 720              		.p2align 4,,15
 721              		.global	sys_arch_protect
 722              		.thumb
 723              		.thumb_func
 724              		.type	sys_arch_protect, %function
 725              	sys_arch_protect:
 726              	.LFB23:
 727              		.loc 1 208 0
 728              		.cfi_startproc
 729              		@ args = 0, pretend = 0, frame = 0
 730              		@ frame_needed = 0, uses_anonymous_args = 0
 731              		@ link register save eliminated.
 732              	.LBB6:
 733              		.loc 1 210 0
 734 0000 2023     		movs	r3, #32
 735              	.LVL56:
 736              	@ 210 "../../os/various/lwip_bindings/arch/sys_arch.c" 1
 737 0002 83F31188 		msr     BASEPRI, r3
 738              	@ 0 "" 2
 739              	.LVL57:
 740              		.thumb
 741              	.LBE6:
 742              		.loc 1 212 0
 743 0006 0020     		movs	r0, #0
 744 0008 7047     		bx	lr
 745              		.cfi_endproc
 746              	.LFE23:
 747              		.size	sys_arch_protect, .-sys_arch_protect
 748 000a 00BFAFF3 		.section	.text.sys_arch_unprotect,"ax",%progbits
 748      0080
 749              		.align	2
 750              		.p2align 4,,15
 751              		.global	sys_arch_unprotect
 752              		.thumb
 753              		.thumb_func
 754              		.type	sys_arch_unprotect, %function
 755              	sys_arch_unprotect:
 756              	.LFB24:
 757              		.loc 1 214 0
 758              		.cfi_startproc
 759              		@ args = 0, pretend = 0, frame = 0
 760              		@ frame_needed = 0, uses_anonymous_args = 0
 761              		@ link register save eliminated.
 762              	.LVL58:
 763              	.LBB7:
 764              		.loc 1 217 0
 765 0000 0023     		movs	r3, #0
 766              	.LVL59:
 767              	@ 217 "../../os/various/lwip_bindings/arch/sys_arch.c" 1
 768 0002 83F31188 		msr     BASEPRI, r3
 769              	@ 0 "" 2
 770              	.LVL60:
 771              		.thumb
 772              	.LBE7:
 773              		.loc 1 218 0
ARM GAS  /var/folders/5n/p_75w94d66l9ssrldxqdhh700000gn/T//cc9o6Lzj.s 			page 15


 774 0006 7047     		bx	lr
 775              		.cfi_endproc
 776              	.LFE24:
 777              		.size	sys_arch_unprotect, .-sys_arch_unprotect
 778 0008 AFF30080 		.text
 778      AFF30080 
 779              	.Letext0:
 780              		.file 2 "/usr/local/summon/lib/gcc/arm-none-eabi/4.6.2/include/stddef.h"
 781              		.file 3 "/usr/local/summon/lib/gcc/arm-none-eabi/4.6.2/../../../../arm-none-eabi/include/stdint.h"
 782              		.file 4 "../../os/ports/GCC/ARMCMx/chtypes.h"
 783              		.file 5 "../../os/kernel/include/chlists.h"
 784              		.file 6 "../../os/kernel/include/chthreads.h"
 785              		.file 7 "../../os/ports/GCC/ARMCMx/chcore_v7m.h"
 786              		.file 8 "../../os/kernel/include/chvt.h"
 787              		.file 9 "../../os/kernel/include/chsem.h"
 788              		.file 10 "../../os/kernel/include/chmtx.h"
 789              		.file 11 "../../os/kernel/include/chmboxes.h"
 790              		.file 12 "../../os/various/lwip_bindings/arch/cc.h"
 791              		.file 13 "../../ext/lwip/src/include/lwip/mem.h"
 792              		.file 14 "../../ext/lwip/src/include/lwip/err.h"
 793              		.file 15 "../../os/various/lwip_bindings/arch/sys_arch.h"
 794              		.file 16 "../../ext/lwip/src/include/lwip/sys.h"
 795              		.file 17 "../../ext/lwip/src/include/lwip/stats.h"
 796              		.section	.debug_info,"",%progbits
 797              	.Ldebug_info0:
 798 0000 EF0C0000 		.4byte	0xcef
 799 0004 0200     		.2byte	0x2
 800 0006 00000000 		.4byte	.Ldebug_abbrev0
 801 000a 04       		.byte	0x4
 802 000b 01       		.uleb128 0x1
 803 000c 72020000 		.4byte	.LASF142
 804 0010 01       		.byte	0x1
 805 0011 D0010000 		.4byte	.LASF143
 806 0015 5A030000 		.4byte	.LASF144
 807 0019 00000000 		.4byte	0
 808 001d 00000000 		.4byte	0
 809 0021 00000000 		.4byte	.Ldebug_ranges0+0
 810 0025 00000000 		.4byte	.Ldebug_line0
 811 0029 02       		.uleb128 0x2
 812 002a 04       		.byte	0x4
 813 002b 05       		.byte	0x5
 814 002c 696E7400 		.ascii	"int\000"
 815 0030 03       		.uleb128 0x3
 816 0031 FF010000 		.4byte	.LASF1
 817 0035 02       		.byte	0x2
 818 0036 D4       		.byte	0xd4
 819 0037 3B000000 		.4byte	0x3b
 820 003b 04       		.uleb128 0x4
 821 003c 04       		.byte	0x4
 822 003d 07       		.byte	0x7
 823 003e 7B000000 		.4byte	.LASF0
 824 0042 03       		.uleb128 0x3
 825 0043 0D010000 		.4byte	.LASF2
 826 0047 03       		.byte	0x3
 827 0048 29       		.byte	0x29
 828 0049 4D000000 		.4byte	0x4d
 829 004d 04       		.uleb128 0x4
ARM GAS  /var/folders/5n/p_75w94d66l9ssrldxqdhh700000gn/T//cc9o6Lzj.s 			page 16


 830 004e 01       		.byte	0x1
 831 004f 06       		.byte	0x6
 832 0050 B2050000 		.4byte	.LASF3
 833 0054 03       		.uleb128 0x3
 834 0055 DD020000 		.4byte	.LASF4
 835 0059 03       		.byte	0x3
 836 005a 2A       		.byte	0x2a
 837 005b 5F000000 		.4byte	0x5f
 838 005f 04       		.uleb128 0x4
 839 0060 01       		.byte	0x1
 840 0061 08       		.byte	0x8
 841 0062 5A050000 		.4byte	.LASF5
 842 0066 04       		.uleb128 0x4
 843 0067 02       		.byte	0x2
 844 0068 05       		.byte	0x5
 845 0069 49040000 		.4byte	.LASF6
 846 006d 03       		.uleb128 0x3
 847 006e 19040000 		.4byte	.LASF7
 848 0072 03       		.byte	0x3
 849 0073 36       		.byte	0x36
 850 0074 78000000 		.4byte	0x78
 851 0078 04       		.uleb128 0x4
 852 0079 02       		.byte	0x2
 853 007a 07       		.byte	0x7
 854 007b BE050000 		.4byte	.LASF8
 855 007f 03       		.uleb128 0x3
 856 0080 2B050000 		.4byte	.LASF9
 857 0084 03       		.byte	0x3
 858 0085 4F       		.byte	0x4f
 859 0086 8A000000 		.4byte	0x8a
 860 008a 04       		.uleb128 0x4
 861 008b 04       		.byte	0x4
 862 008c 05       		.byte	0x5
 863 008d 74040000 		.4byte	.LASF10
 864 0091 03       		.uleb128 0x3
 865 0092 04010000 		.4byte	.LASF11
 866 0096 03       		.byte	0x3
 867 0097 50       		.byte	0x50
 868 0098 9C000000 		.4byte	0x9c
 869 009c 04       		.uleb128 0x4
 870 009d 04       		.byte	0x4
 871 009e 07       		.byte	0x7
 872 009f 0F050000 		.4byte	.LASF12
 873 00a3 04       		.uleb128 0x4
 874 00a4 08       		.byte	0x8
 875 00a5 05       		.byte	0x5
 876 00a6 11030000 		.4byte	.LASF13
 877 00aa 04       		.uleb128 0x4
 878 00ab 08       		.byte	0x8
 879 00ac 07       		.byte	0x7
 880 00ad 6E010000 		.4byte	.LASF14
 881 00b1 03       		.uleb128 0x3
 882 00b2 00040000 		.4byte	.LASF15
 883 00b6 04       		.byte	0x4
 884 00b7 28       		.byte	0x28
 885 00b8 54000000 		.4byte	0x54
 886 00bc 03       		.uleb128 0x3
ARM GAS  /var/folders/5n/p_75w94d66l9ssrldxqdhh700000gn/T//cc9o6Lzj.s 			page 17


 887 00bd BD020000 		.4byte	.LASF16
 888 00c1 04       		.byte	0x4
 889 00c2 29       		.byte	0x29
 890 00c3 54000000 		.4byte	0x54
 891 00c7 03       		.uleb128 0x3
 892 00c8 07050000 		.4byte	.LASF17
 893 00cc 04       		.byte	0x4
 894 00cd 2A       		.byte	0x2a
 895 00ce 54000000 		.4byte	0x54
 896 00d2 03       		.uleb128 0x3
 897 00d3 E9030000 		.4byte	.LASF18
 898 00d7 04       		.byte	0x4
 899 00d8 2B       		.byte	0x2b
 900 00d9 54000000 		.4byte	0x54
 901 00dd 03       		.uleb128 0x3
 902 00de 3C010000 		.4byte	.LASF19
 903 00e2 04       		.byte	0x4
 904 00e3 2C       		.byte	0x2c
 905 00e4 91000000 		.4byte	0x91
 906 00e8 03       		.uleb128 0x3
 907 00e9 3F030000 		.4byte	.LASF20
 908 00ed 04       		.byte	0x4
 909 00ee 2D       		.byte	0x2d
 910 00ef 7F000000 		.4byte	0x7f
 911 00f3 03       		.uleb128 0x3
 912 00f4 14010000 		.4byte	.LASF21
 913 00f8 04       		.byte	0x4
 914 00f9 2F       		.byte	0x2f
 915 00fa 91000000 		.4byte	0x91
 916 00fe 03       		.uleb128 0x3
 917 00ff 36000000 		.4byte	.LASF22
 918 0103 04       		.byte	0x4
 919 0104 31       		.byte	0x31
 920 0105 91000000 		.4byte	0x91
 921 0109 03       		.uleb128 0x3
 922 010a 85010000 		.4byte	.LASF23
 923 010e 04       		.byte	0x4
 924 010f 32       		.byte	0x32
 925 0110 7F000000 		.4byte	0x7f
 926 0114 03       		.uleb128 0x3
 927 0115 B6020000 		.4byte	.LASF24
 928 0119 05       		.byte	0x5
 929 011a 23       		.byte	0x23
 930 011b 1F010000 		.4byte	0x11f
 931 011f 05       		.uleb128 0x5
 932 0120 B6020000 		.4byte	.LASF24
 933 0124 48       		.byte	0x48
 934 0125 06       		.byte	0x6
 935 0126 57       		.byte	0x57
 936 0127 44020000 		.4byte	0x244
 937 012b 06       		.uleb128 0x6
 938 012c 89040000 		.4byte	.LASF25
 939 0130 06       		.byte	0x6
 940 0131 58       		.byte	0x58
 941 0132 69020000 		.4byte	0x269
 942 0136 02       		.byte	0x2
 943 0137 23       		.byte	0x23
ARM GAS  /var/folders/5n/p_75w94d66l9ssrldxqdhh700000gn/T//cc9o6Lzj.s 			page 18


 944 0138 00       		.uleb128 0
 945 0139 06       		.uleb128 0x6
 946 013a F5040000 		.4byte	.LASF26
 947 013e 06       		.byte	0x6
 948 013f 5A       		.byte	0x5a
 949 0140 69020000 		.4byte	0x269
 950 0144 02       		.byte	0x2
 951 0145 23       		.byte	0x23
 952 0146 04       		.uleb128 0x4
 953 0147 06       		.uleb128 0x6
 954 0148 2F000000 		.4byte	.LASF27
 955 014c 06       		.byte	0x6
 956 014d 5C       		.byte	0x5c
 957 014e DD000000 		.4byte	0xdd
 958 0152 02       		.byte	0x2
 959 0153 23       		.byte	0x23
 960 0154 08       		.uleb128 0x8
 961 0155 06       		.uleb128 0x6
 962 0156 90040000 		.4byte	.LASF28
 963 015a 06       		.byte	0x6
 964 015b 5D       		.byte	0x5d
 965 015c 37030000 		.4byte	0x337
 966 0160 02       		.byte	0x2
 967 0161 23       		.byte	0x23
 968 0162 0C       		.uleb128 0xc
 969 0163 06       		.uleb128 0x6
 970 0164 9F010000 		.4byte	.LASF29
 971 0168 06       		.byte	0x6
 972 0169 5F       		.byte	0x5f
 973 016a 69020000 		.4byte	0x269
 974 016e 02       		.byte	0x2
 975 016f 23       		.byte	0x23
 976 0170 10       		.uleb128 0x10
 977 0171 06       		.uleb128 0x6
 978 0172 CD020000 		.4byte	.LASF30
 979 0176 06       		.byte	0x6
 980 0177 60       		.byte	0x60
 981 0178 69020000 		.4byte	0x269
 982 017c 02       		.byte	0x2
 983 017d 23       		.byte	0x23
 984 017e 14       		.uleb128 0x14
 985 017f 06       		.uleb128 0x6
 986 0180 54020000 		.4byte	.LASF31
 987 0184 06       		.byte	0x6
 988 0185 67       		.byte	0x67
 989 0186 4B050000 		.4byte	0x54b
 990 018a 02       		.byte	0x2
 991 018b 23       		.byte	0x23
 992 018c 18       		.uleb128 0x18
 993 018d 06       		.uleb128 0x6
 994 018e D5020000 		.4byte	.LASF32
 995 0192 06       		.byte	0x6
 996 0193 72       		.byte	0x72
 997 0194 BC000000 		.4byte	0xbc
 998 0198 02       		.byte	0x2
 999 0199 23       		.byte	0x23
 1000 019a 1C       		.uleb128 0x1c
ARM GAS  /var/folders/5n/p_75w94d66l9ssrldxqdhh700000gn/T//cc9o6Lzj.s 			page 19


 1001 019b 06       		.uleb128 0x6
 1002 019c 52030000 		.4byte	.LASF33
 1003 01a0 06       		.byte	0x6
 1004 01a1 76       		.byte	0x76
 1005 01a2 B1000000 		.4byte	0xb1
 1006 01a6 02       		.byte	0x2
 1007 01a7 23       		.byte	0x23
 1008 01a8 1D       		.uleb128 0x1d
 1009 01a9 06       		.uleb128 0x6
 1010 01aa 68050000 		.4byte	.LASF34
 1011 01ae 06       		.byte	0x6
 1012 01af 7B       		.byte	0x7b
 1013 01b0 C7000000 		.4byte	0xc7
 1014 01b4 02       		.byte	0x2
 1015 01b5 23       		.byte	0x23
 1016 01b6 1E       		.uleb128 0x1e
 1017 01b7 06       		.uleb128 0x6
 1018 01b8 74050000 		.4byte	.LASF35
 1019 01bc 06       		.byte	0x6
 1020 01bd 81       		.byte	0x81
 1021 01be D2000000 		.4byte	0xd2
 1022 01c2 02       		.byte	0x2
 1023 01c3 23       		.byte	0x23
 1024 01c4 1F       		.uleb128 0x1f
 1025 01c5 06       		.uleb128 0x6
 1026 01c6 1F000000 		.4byte	.LASF36
 1027 01ca 06       		.byte	0x6
 1028 01cb 88       		.byte	0x88
 1029 01cc 1C040000 		.4byte	0x41c
 1030 01d0 02       		.byte	0x2
 1031 01d1 23       		.byte	0x23
 1032 01d2 20       		.uleb128 0x20
 1033 01d3 07       		.uleb128 0x7
 1034 01d4 705F7500 		.ascii	"p_u\000"
 1035 01d8 06       		.byte	0x6
 1036 01d9 AD       		.byte	0xad
 1037 01da 16050000 		.4byte	0x516
 1038 01de 02       		.byte	0x2
 1039 01df 23       		.byte	0x23
 1040 01e0 24       		.uleb128 0x24
 1041 01e1 06       		.uleb128 0x6
 1042 01e2 15000000 		.4byte	.LASF37
 1043 01e6 06       		.byte	0x6
 1044 01e7 B2       		.byte	0xb2
 1045 01e8 91020000 		.4byte	0x291
 1046 01ec 02       		.byte	0x2
 1047 01ed 23       		.byte	0x23
 1048 01ee 28       		.uleb128 0x28
 1049 01ef 06       		.uleb128 0x6
 1050 01f0 70000000 		.4byte	.LASF38
 1051 01f4 06       		.byte	0x6
 1052 01f5 B8       		.byte	0xb8
 1053 01f6 6F020000 		.4byte	0x26f
 1054 01fa 02       		.byte	0x2
 1055 01fb 23       		.byte	0x23
 1056 01fc 2C       		.uleb128 0x2c
 1057 01fd 06       		.uleb128 0x6
ARM GAS  /var/folders/5n/p_75w94d66l9ssrldxqdhh700000gn/T//cc9o6Lzj.s 			page 20


 1058 01fe FA030000 		.4byte	.LASF39
 1059 0202 06       		.byte	0x6
 1060 0203 BC       		.byte	0xbc
 1061 0204 E8000000 		.4byte	0xe8
 1062 0208 02       		.byte	0x2
 1063 0209 23       		.byte	0x23
 1064 020a 34       		.uleb128 0x34
 1065 020b 06       		.uleb128 0x6
 1066 020c 61040000 		.4byte	.LASF40
 1067 0210 06       		.byte	0x6
 1068 0211 C2       		.byte	0xc2
 1069 0212 F3000000 		.4byte	0xf3
 1070 0216 02       		.byte	0x2
 1071 0217 23       		.byte	0x23
 1072 0218 38       		.uleb128 0x38
 1073 0219 06       		.uleb128 0x6
 1074 021a 07030000 		.4byte	.LASF41
 1075 021e 06       		.byte	0x6
 1076 021f C9       		.byte	0xc9
 1077 0220 5D050000 		.4byte	0x55d
 1078 0224 02       		.byte	0x2
 1079 0225 23       		.byte	0x23
 1080 0226 3C       		.uleb128 0x3c
 1081 0227 06       		.uleb128 0x6
 1082 0228 38040000 		.4byte	.LASF42
 1083 022c 06       		.byte	0x6
 1084 022d CD       		.byte	0xcd
 1085 022e DD000000 		.4byte	0xdd
 1086 0232 02       		.byte	0x2
 1087 0233 23       		.byte	0x23
 1088 0234 40       		.uleb128 0x40
 1089 0235 06       		.uleb128 0x6
 1090 0236 FF020000 		.4byte	.LASF43
 1091 023a 06       		.byte	0x6
 1092 023b D3       		.byte	0xd3
 1093 023c A7020000 		.4byte	0x2a7
 1094 0240 02       		.byte	0x2
 1095 0241 23       		.byte	0x23
 1096 0242 44       		.uleb128 0x44
 1097 0243 00       		.byte	0
 1098 0244 08       		.uleb128 0x8
 1099 0245 08       		.byte	0x8
 1100 0246 05       		.byte	0x5
 1101 0247 5A       		.byte	0x5a
 1102 0248 69020000 		.4byte	0x269
 1103 024c 06       		.uleb128 0x6
 1104 024d 89040000 		.4byte	.LASF25
 1105 0251 05       		.byte	0x5
 1106 0252 5B       		.byte	0x5b
 1107 0253 69020000 		.4byte	0x269
 1108 0257 02       		.byte	0x2
 1109 0258 23       		.byte	0x23
 1110 0259 00       		.uleb128 0
 1111 025a 06       		.uleb128 0x6
 1112 025b F5040000 		.4byte	.LASF26
 1113 025f 05       		.byte	0x5
 1114 0260 5D       		.byte	0x5d
ARM GAS  /var/folders/5n/p_75w94d66l9ssrldxqdhh700000gn/T//cc9o6Lzj.s 			page 21


 1115 0261 69020000 		.4byte	0x269
 1116 0265 02       		.byte	0x2
 1117 0266 23       		.byte	0x23
 1118 0267 04       		.uleb128 0x4
 1119 0268 00       		.byte	0
 1120 0269 09       		.uleb128 0x9
 1121 026a 04       		.byte	0x4
 1122 026b 14010000 		.4byte	0x114
 1123 026f 03       		.uleb128 0x3
 1124 0270 60020000 		.4byte	.LASF44
 1125 0274 05       		.byte	0x5
 1126 0275 5F       		.byte	0x5f
 1127 0276 44020000 		.4byte	0x244
 1128 027a 08       		.uleb128 0x8
 1129 027b 04       		.byte	0x4
 1130 027c 05       		.byte	0x5
 1131 027d 64       		.byte	0x64
 1132 027e 91020000 		.4byte	0x291
 1133 0282 06       		.uleb128 0x6
 1134 0283 89040000 		.4byte	.LASF25
 1135 0287 05       		.byte	0x5
 1136 0288 66       		.byte	0x66
 1137 0289 69020000 		.4byte	0x269
 1138 028d 02       		.byte	0x2
 1139 028e 23       		.byte	0x23
 1140 028f 00       		.uleb128 0
 1141 0290 00       		.byte	0
 1142 0291 03       		.uleb128 0x3
 1143 0292 09000000 		.4byte	.LASF45
 1144 0296 05       		.byte	0x5
 1145 0297 69       		.byte	0x69
 1146 0298 7A020000 		.4byte	0x27a
 1147 029c 03       		.uleb128 0x3
 1148 029d 26000000 		.4byte	.LASF46
 1149 02a1 07       		.byte	0x7
 1150 02a2 DE       		.byte	0xde
 1151 02a3 A7020000 		.4byte	0x2a7
 1152 02a7 0A       		.uleb128 0xa
 1153 02a8 04       		.byte	0x4
 1154 02a9 0B       		.uleb128 0xb
 1155 02aa 22040000 		.4byte	.LASF47
 1156 02ae 24       		.byte	0x24
 1157 02af 07       		.byte	0x7
 1158 02b0 0501     		.2byte	0x105
 1159 02b2 37030000 		.4byte	0x337
 1160 02b6 0C       		.uleb128 0xc
 1161 02b7 723400   		.ascii	"r4\000"
 1162 02ba 07       		.byte	0x7
 1163 02bb 1801     		.2byte	0x118
 1164 02bd 9C020000 		.4byte	0x29c
 1165 02c1 02       		.byte	0x2
 1166 02c2 23       		.byte	0x23
 1167 02c3 00       		.uleb128 0
 1168 02c4 0C       		.uleb128 0xc
 1169 02c5 723500   		.ascii	"r5\000"
 1170 02c8 07       		.byte	0x7
 1171 02c9 1901     		.2byte	0x119
ARM GAS  /var/folders/5n/p_75w94d66l9ssrldxqdhh700000gn/T//cc9o6Lzj.s 			page 22


 1172 02cb 9C020000 		.4byte	0x29c
 1173 02cf 02       		.byte	0x2
 1174 02d0 23       		.byte	0x23
 1175 02d1 04       		.uleb128 0x4
 1176 02d2 0C       		.uleb128 0xc
 1177 02d3 723600   		.ascii	"r6\000"
 1178 02d6 07       		.byte	0x7
 1179 02d7 1A01     		.2byte	0x11a
 1180 02d9 9C020000 		.4byte	0x29c
 1181 02dd 02       		.byte	0x2
 1182 02de 23       		.byte	0x23
 1183 02df 08       		.uleb128 0x8
 1184 02e0 0C       		.uleb128 0xc
 1185 02e1 723700   		.ascii	"r7\000"
 1186 02e4 07       		.byte	0x7
 1187 02e5 1B01     		.2byte	0x11b
 1188 02e7 9C020000 		.4byte	0x29c
 1189 02eb 02       		.byte	0x2
 1190 02ec 23       		.byte	0x23
 1191 02ed 0C       		.uleb128 0xc
 1192 02ee 0C       		.uleb128 0xc
 1193 02ef 723800   		.ascii	"r8\000"
 1194 02f2 07       		.byte	0x7
 1195 02f3 1C01     		.2byte	0x11c
 1196 02f5 9C020000 		.4byte	0x29c
 1197 02f9 02       		.byte	0x2
 1198 02fa 23       		.byte	0x23
 1199 02fb 10       		.uleb128 0x10
 1200 02fc 0C       		.uleb128 0xc
 1201 02fd 723900   		.ascii	"r9\000"
 1202 0300 07       		.byte	0x7
 1203 0301 1D01     		.2byte	0x11d
 1204 0303 9C020000 		.4byte	0x29c
 1205 0307 02       		.byte	0x2
 1206 0308 23       		.byte	0x23
 1207 0309 14       		.uleb128 0x14
 1208 030a 0C       		.uleb128 0xc
 1209 030b 72313000 		.ascii	"r10\000"
 1210 030f 07       		.byte	0x7
 1211 0310 1E01     		.2byte	0x11e
 1212 0312 9C020000 		.4byte	0x29c
 1213 0316 02       		.byte	0x2
 1214 0317 23       		.byte	0x23
 1215 0318 18       		.uleb128 0x18
 1216 0319 0C       		.uleb128 0xc
 1217 031a 72313100 		.ascii	"r11\000"
 1218 031e 07       		.byte	0x7
 1219 031f 1F01     		.2byte	0x11f
 1220 0321 9C020000 		.4byte	0x29c
 1221 0325 02       		.byte	0x2
 1222 0326 23       		.byte	0x23
 1223 0327 1C       		.uleb128 0x1c
 1224 0328 0C       		.uleb128 0xc
 1225 0329 6C7200   		.ascii	"lr\000"
 1226 032c 07       		.byte	0x7
 1227 032d 2001     		.2byte	0x120
 1228 032f 9C020000 		.4byte	0x29c
ARM GAS  /var/folders/5n/p_75w94d66l9ssrldxqdhh700000gn/T//cc9o6Lzj.s 			page 23


 1229 0333 02       		.byte	0x2
 1230 0334 23       		.byte	0x23
 1231 0335 20       		.uleb128 0x20
 1232 0336 00       		.byte	0
 1233 0337 0B       		.uleb128 0xb
 1234 0338 45030000 		.4byte	.LASF48
 1235 033c 04       		.byte	0x4
 1236 033d 07       		.byte	0x7
 1237 033e 2A01     		.2byte	0x12a
 1238 0340 54030000 		.4byte	0x354
 1239 0344 0C       		.uleb128 0xc
 1240 0345 72313300 		.ascii	"r13\000"
 1241 0349 07       		.byte	0x7
 1242 034a 2B01     		.2byte	0x12b
 1243 034c 54030000 		.4byte	0x354
 1244 0350 02       		.byte	0x2
 1245 0351 23       		.byte	0x23
 1246 0352 00       		.uleb128 0
 1247 0353 00       		.byte	0
 1248 0354 09       		.uleb128 0x9
 1249 0355 04       		.byte	0x4
 1250 0356 A9020000 		.4byte	0x2a9
 1251 035a 03       		.uleb128 0x3
 1252 035b 00000000 		.4byte	.LASF49
 1253 035f 08       		.byte	0x8
 1254 0360 4E       		.byte	0x4e
 1255 0361 65030000 		.4byte	0x365
 1256 0365 09       		.uleb128 0x9
 1257 0366 04       		.byte	0x4
 1258 0367 6B030000 		.4byte	0x36b
 1259 036b 0D       		.uleb128 0xd
 1260 036c 01       		.byte	0x1
 1261 036d 77030000 		.4byte	0x377
 1262 0371 0E       		.uleb128 0xe
 1263 0372 A7020000 		.4byte	0x2a7
 1264 0376 00       		.byte	0
 1265 0377 03       		.uleb128 0x3
 1266 0378 B6040000 		.4byte	.LASF50
 1267 037c 08       		.byte	0x8
 1268 037d 53       		.byte	0x53
 1269 037e 82030000 		.4byte	0x382
 1270 0382 05       		.uleb128 0x5
 1271 0383 B6040000 		.4byte	.LASF50
 1272 0387 14       		.byte	0x14
 1273 0388 08       		.byte	0x8
 1274 0389 5A       		.byte	0x5a
 1275 038a D5030000 		.4byte	0x3d5
 1276 038e 06       		.uleb128 0x6
 1277 038f 83050000 		.4byte	.LASF51
 1278 0393 08       		.byte	0x8
 1279 0394 5B       		.byte	0x5b
 1280 0395 D5030000 		.4byte	0x3d5
 1281 0399 02       		.byte	0x2
 1282 039a 23       		.byte	0x23
 1283 039b 00       		.uleb128 0
 1284 039c 06       		.uleb128 0x6
 1285 039d DE050000 		.4byte	.LASF52
ARM GAS  /var/folders/5n/p_75w94d66l9ssrldxqdhh700000gn/T//cc9o6Lzj.s 			page 24


 1286 03a1 08       		.byte	0x8
 1287 03a2 5D       		.byte	0x5d
 1288 03a3 D5030000 		.4byte	0x3d5
 1289 03a7 02       		.byte	0x2
 1290 03a8 23       		.byte	0x23
 1291 03a9 04       		.uleb128 0x4
 1292 03aa 06       		.uleb128 0x6
 1293 03ab FC000000 		.4byte	.LASF53
 1294 03af 08       		.byte	0x8
 1295 03b0 5F       		.byte	0x5f
 1296 03b1 FE000000 		.4byte	0xfe
 1297 03b5 02       		.byte	0x2
 1298 03b6 23       		.byte	0x23
 1299 03b7 08       		.uleb128 0x8
 1300 03b8 06       		.uleb128 0x6
 1301 03b9 D6050000 		.4byte	.LASF54
 1302 03bd 08       		.byte	0x8
 1303 03be 60       		.byte	0x60
 1304 03bf 5A030000 		.4byte	0x35a
 1305 03c3 02       		.byte	0x2
 1306 03c4 23       		.byte	0x23
 1307 03c5 0C       		.uleb128 0xc
 1308 03c6 06       		.uleb128 0x6
 1309 03c7 20010000 		.4byte	.LASF55
 1310 03cb 08       		.byte	0x8
 1311 03cc 62       		.byte	0x62
 1312 03cd A7020000 		.4byte	0x2a7
 1313 03d1 02       		.byte	0x2
 1314 03d2 23       		.byte	0x23
 1315 03d3 10       		.uleb128 0x10
 1316 03d4 00       		.byte	0
 1317 03d5 09       		.uleb128 0x9
 1318 03d6 04       		.byte	0x4
 1319 03d7 77030000 		.4byte	0x377
 1320 03db 08       		.uleb128 0x8
 1321 03dc 10       		.byte	0x10
 1322 03dd 08       		.byte	0x8
 1323 03de 6C       		.byte	0x6c
 1324 03df 1C040000 		.4byte	0x41c
 1325 03e3 06       		.uleb128 0x6
 1326 03e4 83050000 		.4byte	.LASF51
 1327 03e8 08       		.byte	0x8
 1328 03e9 6D       		.byte	0x6d
 1329 03ea D5030000 		.4byte	0x3d5
 1330 03ee 02       		.byte	0x2
 1331 03ef 23       		.byte	0x23
 1332 03f0 00       		.uleb128 0
 1333 03f1 06       		.uleb128 0x6
 1334 03f2 DE050000 		.4byte	.LASF52
 1335 03f6 08       		.byte	0x8
 1336 03f7 6F       		.byte	0x6f
 1337 03f8 D5030000 		.4byte	0x3d5
 1338 03fc 02       		.byte	0x2
 1339 03fd 23       		.byte	0x23
 1340 03fe 04       		.uleb128 0x4
 1341 03ff 06       		.uleb128 0x6
 1342 0400 FC000000 		.4byte	.LASF53
ARM GAS  /var/folders/5n/p_75w94d66l9ssrldxqdhh700000gn/T//cc9o6Lzj.s 			page 25


 1343 0404 08       		.byte	0x8
 1344 0405 71       		.byte	0x71
 1345 0406 FE000000 		.4byte	0xfe
 1346 040a 02       		.byte	0x2
 1347 040b 23       		.byte	0x23
 1348 040c 08       		.uleb128 0x8
 1349 040d 06       		.uleb128 0x6
 1350 040e 50000000 		.4byte	.LASF56
 1351 0412 08       		.byte	0x8
 1352 0413 72       		.byte	0x72
 1353 0414 1C040000 		.4byte	0x41c
 1354 0418 02       		.byte	0x2
 1355 0419 23       		.byte	0x23
 1356 041a 0C       		.uleb128 0xc
 1357 041b 00       		.byte	0
 1358 041c 0F       		.uleb128 0xf
 1359 041d FE000000 		.4byte	0xfe
 1360 0421 03       		.uleb128 0x3
 1361 0422 C6020000 		.4byte	.LASF57
 1362 0426 08       		.byte	0x8
 1363 0427 73       		.byte	0x73
 1364 0428 DB030000 		.4byte	0x3db
 1365 042c 05       		.uleb128 0x5
 1366 042d C3040000 		.4byte	.LASF58
 1367 0431 0C       		.byte	0xc
 1368 0432 09       		.byte	0x9
 1369 0433 25       		.byte	0x25
 1370 0434 55040000 		.4byte	0x455
 1371 0438 06       		.uleb128 0x6
 1372 0439 48000000 		.4byte	.LASF59
 1373 043d 09       		.byte	0x9
 1374 043e 26       		.byte	0x26
 1375 043f 6F020000 		.4byte	0x26f
 1376 0443 02       		.byte	0x2
 1377 0444 23       		.byte	0x23
 1378 0445 00       		.uleb128 0
 1379 0446 06       		.uleb128 0x6
 1380 0447 D5000000 		.4byte	.LASF60
 1381 044b 09       		.byte	0x9
 1382 044c 28       		.byte	0x28
 1383 044d 09010000 		.4byte	0x109
 1384 0451 02       		.byte	0x2
 1385 0452 23       		.byte	0x23
 1386 0453 08       		.uleb128 0x8
 1387 0454 00       		.byte	0
 1388 0455 03       		.uleb128 0x3
 1389 0456 C3040000 		.4byte	.LASF58
 1390 045a 09       		.byte	0x9
 1391 045b 29       		.byte	0x29
 1392 045c 2C040000 		.4byte	0x42c
 1393 0460 05       		.uleb128 0x5
 1394 0461 25020000 		.4byte	.LASF61
 1395 0465 10       		.byte	0x10
 1396 0466 0A       		.byte	0xa
 1397 0467 25       		.byte	0x25
 1398 0468 97040000 		.4byte	0x497
 1399 046c 06       		.uleb128 0x6
ARM GAS  /var/folders/5n/p_75w94d66l9ssrldxqdhh700000gn/T//cc9o6Lzj.s 			page 26


 1400 046d 6C040000 		.4byte	.LASF62
 1401 0471 0A       		.byte	0xa
 1402 0472 26       		.byte	0x26
 1403 0473 6F020000 		.4byte	0x26f
 1404 0477 02       		.byte	0x2
 1405 0478 23       		.byte	0x23
 1406 0479 00       		.uleb128 0
 1407 047a 06       		.uleb128 0x6
 1408 047b 40000000 		.4byte	.LASF63
 1409 047f 0A       		.byte	0xa
 1410 0480 28       		.byte	0x28
 1411 0481 69020000 		.4byte	0x269
 1412 0485 02       		.byte	0x2
 1413 0486 23       		.byte	0x23
 1414 0487 08       		.uleb128 0x8
 1415 0488 06       		.uleb128 0x6
 1416 0489 AB050000 		.4byte	.LASF64
 1417 048d 0A       		.byte	0xa
 1418 048e 2A       		.byte	0x2a
 1419 048f 97040000 		.4byte	0x497
 1420 0493 02       		.byte	0x2
 1421 0494 23       		.byte	0x23
 1422 0495 0C       		.uleb128 0xc
 1423 0496 00       		.byte	0
 1424 0497 09       		.uleb128 0x9
 1425 0498 04       		.byte	0x4
 1426 0499 60040000 		.4byte	0x460
 1427 049d 03       		.uleb128 0x3
 1428 049e 25020000 		.4byte	.LASF61
 1429 04a2 0A       		.byte	0xa
 1430 04a3 2C       		.byte	0x2c
 1431 04a4 60040000 		.4byte	0x460
 1432 04a8 08       		.uleb128 0x8
 1433 04a9 28       		.byte	0x28
 1434 04aa 0B       		.byte	0xb
 1435 04ab 2C       		.byte	0x2c
 1436 04ac 05050000 		.4byte	0x505
 1437 04b0 06       		.uleb128 0x6
 1438 04b1 21050000 		.4byte	.LASF65
 1439 04b5 0B       		.byte	0xb
 1440 04b6 2D       		.byte	0x2d
 1441 04b7 05050000 		.4byte	0x505
 1442 04bb 02       		.byte	0x2
 1443 04bc 23       		.byte	0x23
 1444 04bd 00       		.uleb128 0
 1445 04be 06       		.uleb128 0x6
 1446 04bf CC030000 		.4byte	.LASF66
 1447 04c3 0B       		.byte	0xb
 1448 04c4 2F       		.byte	0x2f
 1449 04c5 05050000 		.4byte	0x505
 1450 04c9 02       		.byte	0x2
 1451 04ca 23       		.byte	0x23
 1452 04cb 04       		.uleb128 0x4
 1453 04cc 06       		.uleb128 0x6
 1454 04cd 58040000 		.4byte	.LASF67
 1455 04d1 0B       		.byte	0xb
 1456 04d2 31       		.byte	0x31
ARM GAS  /var/folders/5n/p_75w94d66l9ssrldxqdhh700000gn/T//cc9o6Lzj.s 			page 27


 1457 04d3 05050000 		.4byte	0x505
 1458 04d7 02       		.byte	0x2
 1459 04d8 23       		.byte	0x23
 1460 04d9 08       		.uleb128 0x8
 1461 04da 06       		.uleb128 0x6
 1462 04db 0D020000 		.4byte	.LASF68
 1463 04df 0B       		.byte	0xb
 1464 04e0 32       		.byte	0x32
 1465 04e1 05050000 		.4byte	0x505
 1466 04e5 02       		.byte	0x2
 1467 04e6 23       		.byte	0x23
 1468 04e7 0C       		.uleb128 0xc
 1469 04e8 06       		.uleb128 0x6
 1470 04e9 E5020000 		.4byte	.LASF69
 1471 04ed 0B       		.byte	0xb
 1472 04ee 33       		.byte	0x33
 1473 04ef 55040000 		.4byte	0x455
 1474 04f3 02       		.byte	0x2
 1475 04f4 23       		.byte	0x23
 1476 04f5 10       		.uleb128 0x10
 1477 04f6 06       		.uleb128 0x6
 1478 04f7 2B020000 		.4byte	.LASF70
 1479 04fb 0B       		.byte	0xb
 1480 04fc 35       		.byte	0x35
 1481 04fd 55040000 		.4byte	0x455
 1482 0501 02       		.byte	0x2
 1483 0502 23       		.byte	0x23
 1484 0503 1C       		.uleb128 0x1c
 1485 0504 00       		.byte	0
 1486 0505 09       		.uleb128 0x9
 1487 0506 04       		.byte	0x4
 1488 0507 E8000000 		.4byte	0xe8
 1489 050b 03       		.uleb128 0x3
 1490 050c C2000000 		.4byte	.LASF71
 1491 0510 0B       		.byte	0xb
 1492 0511 37       		.byte	0x37
 1493 0512 A8040000 		.4byte	0x4a8
 1494 0516 10       		.uleb128 0x10
 1495 0517 04       		.byte	0x4
 1496 0518 06       		.byte	0x6
 1497 0519 8F       		.byte	0x8f
 1498 051a 4B050000 		.4byte	0x54b
 1499 051e 11       		.uleb128 0x11
 1500 051f 06020000 		.4byte	.LASF72
 1501 0523 06       		.byte	0x6
 1502 0524 96       		.byte	0x96
 1503 0525 E8000000 		.4byte	0xe8
 1504 0529 11       		.uleb128 0x11
 1505 052a E6050000 		.4byte	.LASF73
 1506 052e 06       		.byte	0x6
 1507 052f 9D       		.byte	0x9d
 1508 0530 E8000000 		.4byte	0xe8
 1509 0534 11       		.uleb128 0x11
 1510 0535 A3000000 		.4byte	.LASF74
 1511 0539 06       		.byte	0x6
 1512 053a A4       		.byte	0xa4
 1513 053b A7020000 		.4byte	0x2a7
ARM GAS  /var/folders/5n/p_75w94d66l9ssrldxqdhh700000gn/T//cc9o6Lzj.s 			page 28


 1514 053f 11       		.uleb128 0x11
 1515 0540 BB000000 		.4byte	.LASF75
 1516 0544 06       		.byte	0x6
 1517 0545 AB       		.byte	0xab
 1518 0546 F3000000 		.4byte	0xf3
 1519 054a 00       		.byte	0
 1520 054b 09       		.uleb128 0x9
 1521 054c 04       		.byte	0x4
 1522 054d 51050000 		.4byte	0x551
 1523 0551 12       		.uleb128 0x12
 1524 0552 56050000 		.4byte	0x556
 1525 0556 04       		.uleb128 0x4
 1526 0557 01       		.byte	0x1
 1527 0558 08       		.byte	0x8
 1528 0559 6D020000 		.4byte	.LASF76
 1529 055d 09       		.uleb128 0x9
 1530 055e 04       		.byte	0x4
 1531 055f 9D040000 		.4byte	0x49d
 1532 0563 03       		.uleb128 0x3
 1533 0564 5F010000 		.4byte	.LASF77
 1534 0568 06       		.byte	0x6
 1535 0569 DE       		.byte	0xde
 1536 056a 6E050000 		.4byte	0x56e
 1537 056e 09       		.uleb128 0x9
 1538 056f 04       		.byte	0x4
 1539 0570 74050000 		.4byte	0x574
 1540 0574 13       		.uleb128 0x13
 1541 0575 01       		.byte	0x1
 1542 0576 E8000000 		.4byte	0xe8
 1543 057a 84050000 		.4byte	0x584
 1544 057e 0E       		.uleb128 0xe
 1545 057f A7020000 		.4byte	0x2a7
 1546 0583 00       		.byte	0
 1547 0584 03       		.uleb128 0x3
 1548 0585 4D030000 		.4byte	.LASF78
 1549 0589 0C       		.byte	0xc
 1550 058a 3C       		.byte	0x3c
 1551 058b 54000000 		.4byte	0x54
 1552 058f 03       		.uleb128 0x3
 1553 0590 20020000 		.4byte	.LASF79
 1554 0594 0C       		.byte	0xc
 1555 0595 3D       		.byte	0x3d
 1556 0596 42000000 		.4byte	0x42
 1557 059a 03       		.uleb128 0x3
 1558 059b 9D000000 		.4byte	.LASF80
 1559 059f 0C       		.byte	0xc
 1560 05a0 3E       		.byte	0x3e
 1561 05a1 6D000000 		.4byte	0x6d
 1562 05a5 03       		.uleb128 0x3
 1563 05a6 43040000 		.4byte	.LASF81
 1564 05aa 0C       		.byte	0xc
 1565 05ab 40       		.byte	0x40
 1566 05ac 91000000 		.4byte	0x91
 1567 05b0 03       		.uleb128 0x3
 1568 05b1 94020000 		.4byte	.LASF82
 1569 05b5 0D       		.byte	0xd
 1570 05b6 4B       		.byte	0x4b
ARM GAS  /var/folders/5n/p_75w94d66l9ssrldxqdhh700000gn/T//cc9o6Lzj.s 			page 29


 1571 05b7 9A050000 		.4byte	0x59a
 1572 05bb 03       		.uleb128 0x3
 1573 05bc 97000000 		.4byte	.LASF83
 1574 05c0 0E       		.byte	0xe
 1575 05c1 2F       		.byte	0x2f
 1576 05c2 8F050000 		.4byte	0x58f
 1577 05c6 03       		.uleb128 0x3
 1578 05c7 16020000 		.4byte	.LASF84
 1579 05cb 0F       		.byte	0xf
 1580 05cc 3C       		.byte	0x3c
 1581 05cd D1050000 		.4byte	0x5d1
 1582 05d1 09       		.uleb128 0x9
 1583 05d2 04       		.byte	0x4
 1584 05d3 55040000 		.4byte	0x455
 1585 05d7 03       		.uleb128 0x3
 1586 05d8 FC040000 		.4byte	.LASF85
 1587 05dc 0F       		.byte	0xf
 1588 05dd 3D       		.byte	0x3d
 1589 05de E2050000 		.4byte	0x5e2
 1590 05e2 09       		.uleb128 0x9
 1591 05e3 04       		.byte	0x4
 1592 05e4 0B050000 		.4byte	0x50b
 1593 05e8 03       		.uleb128 0x3
 1594 05e9 52010000 		.4byte	.LASF86
 1595 05ed 0F       		.byte	0xf
 1596 05ee 3E       		.byte	0x3e
 1597 05ef 69020000 		.4byte	0x269
 1598 05f3 03       		.uleb128 0x3
 1599 05f4 AB020000 		.4byte	.LASF87
 1600 05f8 0F       		.byte	0xf
 1601 05f9 3F       		.byte	0x3f
 1602 05fa 29000000 		.4byte	0x29
 1603 05fe 03       		.uleb128 0x3
 1604 05ff 8B010000 		.4byte	.LASF88
 1605 0603 10       		.byte	0x10
 1606 0604 53       		.byte	0x53
 1607 0605 65030000 		.4byte	0x365
 1608 0609 05       		.uleb128 0x5
 1609 060a 9F020000 		.4byte	.LASF89
 1610 060e 18       		.byte	0x18
 1611 060f 11       		.byte	0x11
 1612 0610 3A       		.byte	0x3a
 1613 0611 BD060000 		.4byte	0x6bd
 1614 0615 06       		.uleb128 0x6
 1615 0616 D1050000 		.4byte	.LASF90
 1616 061a 11       		.byte	0x11
 1617 061b 3B       		.byte	0x3b
 1618 061c 9A050000 		.4byte	0x59a
 1619 0620 02       		.byte	0x2
 1620 0621 23       		.byte	0x23
 1621 0622 00       		.uleb128 0
 1622 0623 06       		.uleb128 0x6
 1623 0624 A6050000 		.4byte	.LASF91
 1624 0628 11       		.byte	0x11
 1625 0629 3C       		.byte	0x3c
 1626 062a 9A050000 		.4byte	0x59a
 1627 062e 02       		.byte	0x2
ARM GAS  /var/folders/5n/p_75w94d66l9ssrldxqdhh700000gn/T//cc9o6Lzj.s 			page 30


 1628 062f 23       		.byte	0x23
 1629 0630 02       		.uleb128 0x2
 1630 0631 07       		.uleb128 0x7
 1631 0632 667700   		.ascii	"fw\000"
 1632 0635 11       		.byte	0x11
 1633 0636 3D       		.byte	0x3d
 1634 0637 9A050000 		.4byte	0x59a
 1635 063b 02       		.byte	0x2
 1636 063c 23       		.byte	0x23
 1637 063d 04       		.uleb128 0x4
 1638 063e 06       		.uleb128 0x6
 1639 063f 7E050000 		.4byte	.LASF92
 1640 0643 11       		.byte	0x11
 1641 0644 3E       		.byte	0x3e
 1642 0645 9A050000 		.4byte	0x59a
 1643 0649 02       		.byte	0x2
 1644 064a 23       		.byte	0x23
 1645 064b 06       		.uleb128 0x6
 1646 064c 06       		.uleb128 0x6
 1647 064d E2030000 		.4byte	.LASF93
 1648 0651 11       		.byte	0x11
 1649 0652 3F       		.byte	0x3f
 1650 0653 9A050000 		.4byte	0x59a
 1651 0657 02       		.byte	0x2
 1652 0658 23       		.byte	0x23
 1653 0659 08       		.uleb128 0x8
 1654 065a 06       		.uleb128 0x6
 1655 065b 31040000 		.4byte	.LASF94
 1656 065f 11       		.byte	0x11
 1657 0660 40       		.byte	0x40
 1658 0661 9A050000 		.4byte	0x59a
 1659 0665 02       		.byte	0x2
 1660 0666 23       		.byte	0x23
 1661 0667 0A       		.uleb128 0xa
 1662 0668 06       		.uleb128 0x6
 1663 0669 F3030000 		.4byte	.LASF95
 1664 066d 11       		.byte	0x11
 1665 066e 41       		.byte	0x41
 1666 066f 9A050000 		.4byte	0x59a
 1667 0673 02       		.byte	0x2
 1668 0674 23       		.byte	0x23
 1669 0675 0C       		.uleb128 0xc
 1670 0676 06       		.uleb128 0x6
 1671 0677 7D040000 		.4byte	.LASF96
 1672 067b 11       		.byte	0x11
 1673 067c 42       		.byte	0x42
 1674 067d 9A050000 		.4byte	0x59a
 1675 0681 02       		.byte	0x2
 1676 0682 23       		.byte	0x23
 1677 0683 0E       		.uleb128 0xe
 1678 0684 06       		.uleb128 0x6
 1679 0685 3A050000 		.4byte	.LASF97
 1680 0689 11       		.byte	0x11
 1681 068a 43       		.byte	0x43
 1682 068b 9A050000 		.4byte	0x59a
 1683 068f 02       		.byte	0x2
 1684 0690 23       		.byte	0x23
ARM GAS  /var/folders/5n/p_75w94d66l9ssrldxqdhh700000gn/T//cc9o6Lzj.s 			page 31


 1685 0691 10       		.uleb128 0x10
 1686 0692 06       		.uleb128 0x6
 1687 0693 27010000 		.4byte	.LASF98
 1688 0697 11       		.byte	0x11
 1689 0698 44       		.byte	0x44
 1690 0699 9A050000 		.4byte	0x59a
 1691 069d 02       		.byte	0x2
 1692 069e 23       		.byte	0x23
 1693 069f 12       		.uleb128 0x12
 1694 06a0 07       		.uleb128 0x7
 1695 06a1 65727200 		.ascii	"err\000"
 1696 06a5 11       		.byte	0x11
 1697 06a6 45       		.byte	0x45
 1698 06a7 9A050000 		.4byte	0x59a
 1699 06ab 02       		.byte	0x2
 1700 06ac 23       		.byte	0x23
 1701 06ad 14       		.uleb128 0x14
 1702 06ae 06       		.uleb128 0x6
 1703 06af AD040000 		.4byte	.LASF99
 1704 06b3 11       		.byte	0x11
 1705 06b4 46       		.byte	0x46
 1706 06b5 9A050000 		.4byte	0x59a
 1707 06b9 02       		.byte	0x2
 1708 06ba 23       		.byte	0x23
 1709 06bb 16       		.uleb128 0x16
 1710 06bc 00       		.byte	0
 1711 06bd 05       		.uleb128 0x5
 1712 06be B1000000 		.4byte	.LASF100
 1713 06c2 0A       		.byte	0xa
 1714 06c3 11       		.byte	0x11
 1715 06c4 5A       		.byte	0x5a
 1716 06c5 10070000 		.4byte	0x710
 1717 06c9 06       		.uleb128 0x6
 1718 06ca 83040000 		.4byte	.LASF101
 1719 06ce 11       		.byte	0x11
 1720 06cf 5E       		.byte	0x5e
 1721 06d0 B0050000 		.4byte	0x5b0
 1722 06d4 02       		.byte	0x2
 1723 06d5 23       		.byte	0x23
 1724 06d6 00       		.uleb128 0
 1725 06d7 06       		.uleb128 0x6
 1726 06d8 B6010000 		.4byte	.LASF102
 1727 06dc 11       		.byte	0x11
 1728 06dd 5F       		.byte	0x5f
 1729 06de B0050000 		.4byte	0x5b0
 1730 06e2 02       		.byte	0x2
 1731 06e3 23       		.byte	0x23
 1732 06e4 02       		.uleb128 0x2
 1733 06e5 07       		.uleb128 0x7
 1734 06e6 6D617800 		.ascii	"max\000"
 1735 06ea 11       		.byte	0x11
 1736 06eb 60       		.byte	0x60
 1737 06ec B0050000 		.4byte	0x5b0
 1738 06f0 02       		.byte	0x2
 1739 06f1 23       		.byte	0x23
 1740 06f2 04       		.uleb128 0x4
 1741 06f3 07       		.uleb128 0x7
ARM GAS  /var/folders/5n/p_75w94d66l9ssrldxqdhh700000gn/T//cc9o6Lzj.s 			page 32


 1742 06f4 65727200 		.ascii	"err\000"
 1743 06f8 11       		.byte	0x11
 1744 06f9 61       		.byte	0x61
 1745 06fa 9A050000 		.4byte	0x59a
 1746 06fe 02       		.byte	0x2
 1747 06ff 23       		.byte	0x23
 1748 0700 06       		.uleb128 0x6
 1749 0701 06       		.uleb128 0x6
 1750 0702 4A010000 		.4byte	.LASF103
 1751 0706 11       		.byte	0x11
 1752 0707 62       		.byte	0x62
 1753 0708 9A050000 		.4byte	0x59a
 1754 070c 02       		.byte	0x2
 1755 070d 23       		.byte	0x23
 1756 070e 08       		.uleb128 0x8
 1757 070f 00       		.byte	0
 1758 0710 05       		.uleb128 0x5
 1759 0711 DB000000 		.4byte	.LASF104
 1760 0715 06       		.byte	0x6
 1761 0716 11       		.byte	0x11
 1762 0717 65       		.byte	0x65
 1763 0718 47070000 		.4byte	0x747
 1764 071c 06       		.uleb128 0x6
 1765 071d B6010000 		.4byte	.LASF102
 1766 0721 11       		.byte	0x11
 1767 0722 66       		.byte	0x66
 1768 0723 9A050000 		.4byte	0x59a
 1769 0727 02       		.byte	0x2
 1770 0728 23       		.byte	0x23
 1771 0729 00       		.uleb128 0
 1772 072a 07       		.uleb128 0x7
 1773 072b 6D617800 		.ascii	"max\000"
 1774 072f 11       		.byte	0x11
 1775 0730 67       		.byte	0x67
 1776 0731 9A050000 		.4byte	0x59a
 1777 0735 02       		.byte	0x2
 1778 0736 23       		.byte	0x23
 1779 0737 02       		.uleb128 0x2
 1780 0738 07       		.uleb128 0x7
 1781 0739 65727200 		.ascii	"err\000"
 1782 073d 11       		.byte	0x11
 1783 073e 68       		.byte	0x68
 1784 073f 9A050000 		.4byte	0x59a
 1785 0743 02       		.byte	0x2
 1786 0744 23       		.byte	0x23
 1787 0745 04       		.uleb128 0x4
 1788 0746 00       		.byte	0
 1789 0747 05       		.uleb128 0x5
 1790 0748 50050000 		.4byte	.LASF105
 1791 074c 12       		.byte	0x12
 1792 074d 11       		.byte	0x11
 1793 074e 6B       		.byte	0x6b
 1794 074f 7E070000 		.4byte	0x77e
 1795 0753 07       		.uleb128 0x7
 1796 0754 73656D00 		.ascii	"sem\000"
 1797 0758 11       		.byte	0x11
 1798 0759 6C       		.byte	0x6c
ARM GAS  /var/folders/5n/p_75w94d66l9ssrldxqdhh700000gn/T//cc9o6Lzj.s 			page 33


 1799 075a 10070000 		.4byte	0x710
 1800 075e 02       		.byte	0x2
 1801 075f 23       		.byte	0x23
 1802 0760 00       		.uleb128 0
 1803 0761 06       		.uleb128 0x6
 1804 0762 2E010000 		.4byte	.LASF106
 1805 0766 11       		.byte	0x11
 1806 0767 6D       		.byte	0x6d
 1807 0768 10070000 		.4byte	0x710
 1808 076c 02       		.byte	0x2
 1809 076d 23       		.byte	0x23
 1810 076e 06       		.uleb128 0x6
 1811 076f 06       		.uleb128 0x6
 1812 0770 96040000 		.4byte	.LASF107
 1813 0774 11       		.byte	0x11
 1814 0775 6E       		.byte	0x6e
 1815 0776 10070000 		.4byte	0x710
 1816 077a 02       		.byte	0x2
 1817 077b 23       		.byte	0x23
 1818 077c 0C       		.uleb128 0xc
 1819 077d 00       		.byte	0
 1820 077e 14       		.uleb128 0x14
 1821 077f BB010000 		.4byte	.LASF108
 1822 0783 5001     		.2byte	0x150
 1823 0785 11       		.byte	0x11
 1824 0786 71       		.byte	0x71
 1825 0787 1B080000 		.4byte	0x81b
 1826 078b 06       		.uleb128 0x6
 1827 078c 6F050000 		.4byte	.LASF109
 1828 0790 11       		.byte	0x11
 1829 0791 73       		.byte	0x73
 1830 0792 09060000 		.4byte	0x609
 1831 0796 02       		.byte	0x2
 1832 0797 23       		.byte	0x23
 1833 0798 00       		.uleb128 0
 1834 0799 06       		.uleb128 0x6
 1835 079a 67010000 		.4byte	.LASF110
 1836 079e 11       		.byte	0x11
 1837 079f 76       		.byte	0x76
 1838 07a0 09060000 		.4byte	0x609
 1839 07a4 02       		.byte	0x2
 1840 07a5 23       		.byte	0x23
 1841 07a6 18       		.uleb128 0x18
 1842 07a7 06       		.uleb128 0x6
 1843 07a8 34010000 		.4byte	.LASF111
 1844 07ac 11       		.byte	0x11
 1845 07ad 79       		.byte	0x79
 1846 07ae 09060000 		.4byte	0x609
 1847 07b2 02       		.byte	0x2
 1848 07b3 23       		.byte	0x23
 1849 07b4 30       		.uleb128 0x30
 1850 07b5 07       		.uleb128 0x7
 1851 07b6 697000   		.ascii	"ip\000"
 1852 07b9 11       		.byte	0x11
 1853 07ba 7C       		.byte	0x7c
 1854 07bb 09060000 		.4byte	0x609
 1855 07bf 02       		.byte	0x2
ARM GAS  /var/folders/5n/p_75w94d66l9ssrldxqdhh700000gn/T//cc9o6Lzj.s 			page 34


 1856 07c0 23       		.byte	0x23
 1857 07c1 48       		.uleb128 0x48
 1858 07c2 06       		.uleb128 0x6
 1859 07c3 53040000 		.4byte	.LASF112
 1860 07c7 11       		.byte	0x11
 1861 07c8 7F       		.byte	0x7f
 1862 07c9 09060000 		.4byte	0x609
 1863 07cd 02       		.byte	0x2
 1864 07ce 23       		.byte	0x23
 1865 07cf 60       		.uleb128 0x60
 1866 07d0 07       		.uleb128 0x7
 1867 07d1 75647000 		.ascii	"udp\000"
 1868 07d5 11       		.byte	0x11
 1869 07d6 85       		.byte	0x85
 1870 07d7 09060000 		.4byte	0x609
 1871 07db 02       		.byte	0x2
 1872 07dc 23       		.byte	0x23
 1873 07dd 78       		.uleb128 0x78
 1874 07de 07       		.uleb128 0x7
 1875 07df 74637000 		.ascii	"tcp\000"
 1876 07e3 11       		.byte	0x11
 1877 07e4 88       		.byte	0x88
 1878 07e5 09060000 		.4byte	0x609
 1879 07e9 03       		.byte	0x3
 1880 07ea 23       		.byte	0x23
 1881 07eb 9001     		.uleb128 0x90
 1882 07ed 07       		.uleb128 0x7
 1883 07ee 6D656D00 		.ascii	"mem\000"
 1884 07f2 11       		.byte	0x11
 1885 07f3 8B       		.byte	0x8b
 1886 07f4 BD060000 		.4byte	0x6bd
 1887 07f8 03       		.byte	0x3
 1888 07f9 23       		.byte	0x23
 1889 07fa A801     		.uleb128 0xa8
 1890 07fc 06       		.uleb128 0x6
 1891 07fd F0040000 		.4byte	.LASF113
 1892 0801 11       		.byte	0x11
 1893 0802 8E       		.byte	0x8e
 1894 0803 1B080000 		.4byte	0x81b
 1895 0807 03       		.byte	0x3
 1896 0808 23       		.byte	0x23
 1897 0809 B201     		.uleb128 0xb2
 1898 080b 07       		.uleb128 0x7
 1899 080c 73797300 		.ascii	"sys\000"
 1900 0810 11       		.byte	0x11
 1901 0811 91       		.byte	0x91
 1902 0812 47070000 		.4byte	0x747
 1903 0816 03       		.byte	0x3
 1904 0817 23       		.byte	0x23
 1905 0818 BE02     		.uleb128 0x13e
 1906 081a 00       		.byte	0
 1907 081b 15       		.uleb128 0x15
 1908 081c BD060000 		.4byte	0x6bd
 1909 0820 2B080000 		.4byte	0x82b
 1910 0824 16       		.uleb128 0x16
 1911 0825 3B000000 		.4byte	0x3b
 1912 0829 0D       		.byte	0xd
ARM GAS  /var/folders/5n/p_75w94d66l9ssrldxqdhh700000gn/T//cc9o6Lzj.s 			page 35


 1913 082a 00       		.byte	0
 1914 082b 17       		.uleb128 0x17
 1915 082c 01       		.byte	0x1
 1916 082d 4B020000 		.4byte	.LASF145
 1917 0831 01       		.byte	0x1
 1918 0832 43       		.byte	0x43
 1919 0833 01       		.byte	0x1
 1920 0834 00000000 		.4byte	.LFB7
 1921 0838 02000000 		.4byte	.LFE7
 1922 083c 02       		.byte	0x2
 1923 083d 7D       		.byte	0x7d
 1924 083e 00       		.sleb128 0
 1925 083f 18       		.uleb128 0x18
 1926 0840 01       		.byte	0x1
 1927 0841 33030000 		.4byte	.LASF117
 1928 0845 01       		.byte	0x1
 1929 0846 47       		.byte	0x47
 1930 0847 01       		.byte	0x1
 1931 0848 BB050000 		.4byte	0x5bb
 1932 084c 00000000 		.4byte	.LFB8
 1933 0850 4C000000 		.4byte	.LFE8
 1934 0854 00000000 		.4byte	.LLST0
 1935 0858 7B080000 		.4byte	0x87b
 1936 085c 19       		.uleb128 0x19
 1937 085d 73656D00 		.ascii	"sem\000"
 1938 0861 01       		.byte	0x1
 1939 0862 47       		.byte	0x47
 1940 0863 7B080000 		.4byte	0x87b
 1941 0867 20000000 		.4byte	.LLST1
 1942 086b 1A       		.uleb128 0x1a
 1943 086c 44010000 		.4byte	.LASF114
 1944 0870 01       		.byte	0x1
 1945 0871 47       		.byte	0x47
 1946 0872 84050000 		.4byte	0x584
 1947 0876 3E000000 		.4byte	.LLST2
 1948 087a 00       		.byte	0
 1949 087b 09       		.uleb128 0x9
 1950 087c 04       		.byte	0x4
 1951 087d C6050000 		.4byte	0x5c6
 1952 0881 1B       		.uleb128 0x1b
 1953 0882 01       		.byte	0x1
 1954 0883 E3040000 		.4byte	.LASF115
 1955 0887 01       		.byte	0x1
 1956 0888 55       		.byte	0x55
 1957 0889 01       		.byte	0x1
 1958 088a 00000000 		.4byte	.LFB9
 1959 088e 22000000 		.4byte	.LFE9
 1960 0892 51000000 		.4byte	.LLST3
 1961 0896 AA080000 		.4byte	0x8aa
 1962 089a 19       		.uleb128 0x19
 1963 089b 73656D00 		.ascii	"sem\000"
 1964 089f 01       		.byte	0x1
 1965 08a0 55       		.byte	0x55
 1966 08a1 7B080000 		.4byte	0x87b
 1967 08a5 71000000 		.4byte	.LLST4
 1968 08a9 00       		.byte	0
 1969 08aa 1C       		.uleb128 0x1c
ARM GAS  /var/folders/5n/p_75w94d66l9ssrldxqdhh700000gn/T//cc9o6Lzj.s 			page 36


 1970 08ab 01       		.byte	0x1
 1971 08ac A7010000 		.4byte	.LASF116
 1972 08b0 01       		.byte	0x1
 1973 08b1 5C       		.byte	0x5c
 1974 08b2 01       		.byte	0x1
 1975 08b3 00000000 		.4byte	.LFB10
 1976 08b7 06000000 		.4byte	.LFE10
 1977 08bb 02       		.byte	0x2
 1978 08bc 7D       		.byte	0x7d
 1979 08bd 00       		.sleb128 0
 1980 08be D2080000 		.4byte	0x8d2
 1981 08c2 19       		.uleb128 0x19
 1982 08c3 73656D00 		.ascii	"sem\000"
 1983 08c7 01       		.byte	0x1
 1984 08c8 5C       		.byte	0x5c
 1985 08c9 7B080000 		.4byte	0x87b
 1986 08cd 8F000000 		.4byte	.LLST5
 1987 08d1 00       		.byte	0
 1988 08d2 18       		.uleb128 0x18
 1989 08d3 01       		.byte	0x1
 1990 08d4 9B040000 		.4byte	.LASF118
 1991 08d8 01       		.byte	0x1
 1992 08d9 61       		.byte	0x61
 1993 08da 01       		.byte	0x1
 1994 08db A5050000 		.4byte	0x5a5
 1995 08df 00000000 		.4byte	.LFB11
 1996 08e3 34000000 		.4byte	.LFE11
 1997 08e7 A2000000 		.4byte	.LLST6
 1998 08eb 62090000 		.4byte	0x962
 1999 08ef 19       		.uleb128 0x19
 2000 08f0 73656D00 		.ascii	"sem\000"
 2001 08f4 01       		.byte	0x1
 2002 08f5 61       		.byte	0x61
 2003 08f6 7B080000 		.4byte	0x87b
 2004 08fa C2000000 		.4byte	.LLST7
 2005 08fe 1A       		.uleb128 0x1a
 2006 08ff 29040000 		.4byte	.LASF119
 2007 0903 01       		.byte	0x1
 2008 0904 61       		.byte	0x61
 2009 0905 A5050000 		.4byte	0x5a5
 2010 0909 D5000000 		.4byte	.LLST8
 2011 090d 1D       		.uleb128 0x1d
 2012 090e 9A010000 		.4byte	.LASF120
 2013 0912 01       		.byte	0x1
 2014 0913 62       		.byte	0x62
 2015 0914 FE000000 		.4byte	0xfe
 2016 0918 E8000000 		.4byte	.LLST9
 2017 091c 1E       		.uleb128 0x1e
 2018 091d 746D6F00 		.ascii	"tmo\000"
 2019 0921 01       		.byte	0x1
 2020 0922 62       		.byte	0x62
 2021 0923 FE000000 		.4byte	0xfe
 2022 0927 1C010000 		.4byte	.LLST10
 2023 092b 1F       		.uleb128 0x1f
 2024 092c 02000000 		.4byte	.LBB2
 2025 0930 08000000 		.4byte	.LBE2
 2026 0934 48090000 		.4byte	0x948
ARM GAS  /var/folders/5n/p_75w94d66l9ssrldxqdhh700000gn/T//cc9o6Lzj.s 			page 37


 2027 0938 1E       		.uleb128 0x1e
 2028 0939 746D7000 		.ascii	"tmp\000"
 2029 093d 01       		.byte	0x1
 2030 093e 64       		.byte	0x64
 2031 093f 91000000 		.4byte	0x91
 2032 0943 47010000 		.4byte	.LLST11
 2033 0947 00       		.byte	0
 2034 0948 20       		.uleb128 0x20
 2035 0949 20000000 		.4byte	.LBB3
 2036 094d 26000000 		.4byte	.LBE3
 2037 0951 1E       		.uleb128 0x1e
 2038 0952 746D7000 		.ascii	"tmp\000"
 2039 0956 01       		.byte	0x1
 2040 0957 6B       		.byte	0x6b
 2041 0958 91000000 		.4byte	0x91
 2042 095c 5A010000 		.4byte	.LLST12
 2043 0960 00       		.byte	0
 2044 0961 00       		.byte	0
 2045 0962 21       		.uleb128 0x21
 2046 0963 01       		.byte	0x1
 2047 0964 8B050000 		.4byte	.LASF121
 2048 0968 01       		.byte	0x1
 2049 0969 6F       		.byte	0x6f
 2050 096a 01       		.byte	0x1
 2051 096b 29000000 		.4byte	0x29
 2052 096f 00000000 		.4byte	.LFB12
 2053 0973 0A000000 		.4byte	.LFE12
 2054 0977 02       		.byte	0x2
 2055 0978 7D       		.byte	0x7d
 2056 0979 00       		.sleb128 0
 2057 097a 8E090000 		.4byte	0x98e
 2058 097e 19       		.uleb128 0x19
 2059 097f 73656D00 		.ascii	"sem\000"
 2060 0983 01       		.byte	0x1
 2061 0984 6F       		.byte	0x6f
 2062 0985 7B080000 		.4byte	0x87b
 2063 0989 6D010000 		.4byte	.LLST13
 2064 098d 00       		.byte	0
 2065 098e 1C       		.uleb128 0x1c
 2066 098f 01       		.byte	0x1
 2067 0990 37020000 		.4byte	.LASF122
 2068 0994 01       		.byte	0x1
 2069 0995 75       		.byte	0x75
 2070 0996 01       		.byte	0x1
 2071 0997 00000000 		.4byte	.LFB13
 2072 099b 06000000 		.4byte	.LFE13
 2073 099f 02       		.byte	0x2
 2074 09a0 7D       		.byte	0x7d
 2075 09a1 00       		.sleb128 0
 2076 09a2 B4090000 		.4byte	0x9b4
 2077 09a6 22       		.uleb128 0x22
 2078 09a7 73656D00 		.ascii	"sem\000"
 2079 09ab 01       		.byte	0x1
 2080 09ac 75       		.byte	0x75
 2081 09ad 7B080000 		.4byte	0x87b
 2082 09b1 01       		.byte	0x1
 2083 09b2 50       		.byte	0x50
ARM GAS  /var/folders/5n/p_75w94d66l9ssrldxqdhh700000gn/T//cc9o6Lzj.s 			page 38


 2084 09b3 00       		.byte	0
 2085 09b4 18       		.uleb128 0x18
 2086 09b5 01       		.byte	0x1
 2087 09b6 99050000 		.4byte	.LASF123
 2088 09ba 01       		.byte	0x1
 2089 09bb 79       		.byte	0x79
 2090 09bc 01       		.byte	0x1
 2091 09bd BB050000 		.4byte	0x5bb
 2092 09c1 00000000 		.4byte	.LFB14
 2093 09c5 48000000 		.4byte	.LFE14
 2094 09c9 80010000 		.4byte	.LLST14
 2095 09cd F0090000 		.4byte	0x9f0
 2096 09d1 1A       		.uleb128 0x1a
 2097 09d2 96040000 		.4byte	.LASF107
 2098 09d6 01       		.byte	0x1
 2099 09d7 79       		.byte	0x79
 2100 09d8 F0090000 		.4byte	0x9f0
 2101 09dc A0010000 		.4byte	.LLST15
 2102 09e0 1A       		.uleb128 0x1a
 2103 09e1 C7030000 		.4byte	.LASF124
 2104 09e5 01       		.byte	0x1
 2105 09e6 79       		.byte	0x79
 2106 09e7 29000000 		.4byte	0x29
 2107 09eb BE010000 		.4byte	.LLST16
 2108 09ef 00       		.byte	0
 2109 09f0 09       		.uleb128 0x9
 2110 09f1 04       		.byte	0x4
 2111 09f2 D7050000 		.4byte	0x5d7
 2112 09f6 1B       		.uleb128 0x1b
 2113 09f7 01       		.byte	0x1
 2114 09f8 C2010000 		.4byte	.LASF125
 2115 09fc 01       		.byte	0x1
 2116 09fd 87       		.byte	0x87
 2117 09fe 01       		.byte	0x1
 2118 09ff 00000000 		.4byte	.LFB15
 2119 0a03 34000000 		.4byte	.LFE15
 2120 0a07 DC010000 		.4byte	.LLST17
 2121 0a0b 1F0A0000 		.4byte	0xa1f
 2122 0a0f 1A       		.uleb128 0x1a
 2123 0a10 96040000 		.4byte	.LASF107
 2124 0a14 01       		.byte	0x1
 2125 0a15 87       		.byte	0x87
 2126 0a16 F0090000 		.4byte	0x9f0
 2127 0a1a FC010000 		.4byte	.LLST18
 2128 0a1e 00       		.byte	0
 2129 0a1f 1C       		.uleb128 0x1c
 2130 0a20 01       		.byte	0x1
 2131 0a21 42050000 		.4byte	.LASF126
 2132 0a25 01       		.byte	0x1
 2133 0a26 95       		.byte	0x95
 2134 0a27 01       		.byte	0x1
 2135 0a28 00000000 		.4byte	.LFB16
 2136 0a2c 0A000000 		.4byte	.LFE16
 2137 0a30 02       		.byte	0x2
 2138 0a31 7D       		.byte	0x7d
 2139 0a32 00       		.sleb128 0
 2140 0a33 560A0000 		.4byte	0xa56
ARM GAS  /var/folders/5n/p_75w94d66l9ssrldxqdhh700000gn/T//cc9o6Lzj.s 			page 39


 2141 0a37 1A       		.uleb128 0x1a
 2142 0a38 96040000 		.4byte	.LASF107
 2143 0a3c 01       		.byte	0x1
 2144 0a3d 95       		.byte	0x95
 2145 0a3e F0090000 		.4byte	0x9f0
 2146 0a42 1A020000 		.4byte	.LLST19
 2147 0a46 19       		.uleb128 0x19
 2148 0a47 6D736700 		.ascii	"msg\000"
 2149 0a4b 01       		.byte	0x1
 2150 0a4c 95       		.byte	0x95
 2151 0a4d A7020000 		.4byte	0x2a7
 2152 0a51 2D020000 		.4byte	.LLST20
 2153 0a55 00       		.byte	0
 2154 0a56 18       		.uleb128 0x18
 2155 0a57 01       		.byte	0x1
 2156 0a58 08040000 		.4byte	.LASF127
 2157 0a5c 01       		.byte	0x1
 2158 0a5d 9A       		.byte	0x9a
 2159 0a5e 01       		.byte	0x1
 2160 0a5f BB050000 		.4byte	0x5bb
 2161 0a63 00000000 		.4byte	.LFB17
 2162 0a67 28000000 		.4byte	.LFE17
 2163 0a6b 40020000 		.4byte	.LLST21
 2164 0a6f 920A0000 		.4byte	0xa92
 2165 0a73 1A       		.uleb128 0x1a
 2166 0a74 96040000 		.4byte	.LASF107
 2167 0a78 01       		.byte	0x1
 2168 0a79 9A       		.byte	0x9a
 2169 0a7a F0090000 		.4byte	0x9f0
 2170 0a7e 60020000 		.4byte	.LLST22
 2171 0a82 19       		.uleb128 0x19
 2172 0a83 6D736700 		.ascii	"msg\000"
 2173 0a87 01       		.byte	0x1
 2174 0a88 9A       		.byte	0x9a
 2175 0a89 A7020000 		.4byte	0x2a7
 2176 0a8d 73020000 		.4byte	.LLST23
 2177 0a91 00       		.byte	0
 2178 0a92 18       		.uleb128 0x18
 2179 0a93 01       		.byte	0x1
 2180 0a94 1F030000 		.4byte	.LASF128
 2181 0a98 01       		.byte	0x1
 2182 0a99 A3       		.byte	0xa3
 2183 0a9a 01       		.byte	0x1
 2184 0a9b A5050000 		.4byte	0x5a5
 2185 0a9f 00000000 		.4byte	.LFB18
 2186 0aa3 34000000 		.4byte	.LFE18
 2187 0aa7 86020000 		.4byte	.LLST24
 2188 0aab 310B0000 		.4byte	0xb31
 2189 0aaf 1A       		.uleb128 0x1a
 2190 0ab0 96040000 		.4byte	.LASF107
 2191 0ab4 01       		.byte	0x1
 2192 0ab5 A3       		.byte	0xa3
 2193 0ab6 F0090000 		.4byte	0x9f0
 2194 0aba A6020000 		.4byte	.LLST25
 2195 0abe 19       		.uleb128 0x19
 2196 0abf 6D736700 		.ascii	"msg\000"
 2197 0ac3 01       		.byte	0x1
ARM GAS  /var/folders/5n/p_75w94d66l9ssrldxqdhh700000gn/T//cc9o6Lzj.s 			page 40


 2198 0ac4 A3       		.byte	0xa3
 2199 0ac5 310B0000 		.4byte	0xb31
 2200 0ac9 B9020000 		.4byte	.LLST26
 2201 0acd 1A       		.uleb128 0x1a
 2202 0ace 29040000 		.4byte	.LASF119
 2203 0ad2 01       		.byte	0x1
 2204 0ad3 A3       		.byte	0xa3
 2205 0ad4 A5050000 		.4byte	0x5a5
 2206 0ad8 CC020000 		.4byte	.LLST27
 2207 0adc 1D       		.uleb128 0x1d
 2208 0add 9A010000 		.4byte	.LASF120
 2209 0ae1 01       		.byte	0x1
 2210 0ae2 A4       		.byte	0xa4
 2211 0ae3 FE000000 		.4byte	0xfe
 2212 0ae7 DF020000 		.4byte	.LLST28
 2213 0aeb 1E       		.uleb128 0x1e
 2214 0aec 746D6F00 		.ascii	"tmo\000"
 2215 0af0 01       		.byte	0x1
 2216 0af1 A4       		.byte	0xa4
 2217 0af2 FE000000 		.4byte	0xfe
 2218 0af6 13030000 		.4byte	.LLST29
 2219 0afa 1F       		.uleb128 0x1f
 2220 0afb 02000000 		.4byte	.LBB4
 2221 0aff 08000000 		.4byte	.LBE4
 2222 0b03 170B0000 		.4byte	0xb17
 2223 0b07 1E       		.uleb128 0x1e
 2224 0b08 746D7000 		.ascii	"tmp\000"
 2225 0b0c 01       		.byte	0x1
 2226 0b0d A6       		.byte	0xa6
 2227 0b0e 91000000 		.4byte	0x91
 2228 0b12 3E030000 		.4byte	.LLST30
 2229 0b16 00       		.byte	0
 2230 0b17 20       		.uleb128 0x20
 2231 0b18 20000000 		.4byte	.LBB5
 2232 0b1c 26000000 		.4byte	.LBE5
 2233 0b20 1E       		.uleb128 0x1e
 2234 0b21 746D7000 		.ascii	"tmp\000"
 2235 0b25 01       		.byte	0x1
 2236 0b26 AD       		.byte	0xad
 2237 0b27 91000000 		.4byte	0x91
 2238 0b2b 51030000 		.4byte	.LLST31
 2239 0b2f 00       		.byte	0
 2240 0b30 00       		.byte	0
 2241 0b31 09       		.uleb128 0x9
 2242 0b32 04       		.byte	0x4
 2243 0b33 A7020000 		.4byte	0x2a7
 2244 0b37 18       		.uleb128 0x18
 2245 0b38 01       		.byte	0x1
 2246 0b39 B0030000 		.4byte	.LASF129
 2247 0b3d 01       		.byte	0x1
 2248 0b3e B1       		.byte	0xb1
 2249 0b3f 01       		.byte	0x1
 2250 0b40 A5050000 		.4byte	0x5a5
 2251 0b44 00000000 		.4byte	.LFB19
 2252 0b48 18000000 		.4byte	.LFE19
 2253 0b4c 64030000 		.4byte	.LLST32
 2254 0b50 730B0000 		.4byte	0xb73
ARM GAS  /var/folders/5n/p_75w94d66l9ssrldxqdhh700000gn/T//cc9o6Lzj.s 			page 41


 2255 0b54 1A       		.uleb128 0x1a
 2256 0b55 96040000 		.4byte	.LASF107
 2257 0b59 01       		.byte	0x1
 2258 0b5a B1       		.byte	0xb1
 2259 0b5b F0090000 		.4byte	0x9f0
 2260 0b5f 84030000 		.4byte	.LLST33
 2261 0b63 19       		.uleb128 0x19
 2262 0b64 6D736700 		.ascii	"msg\000"
 2263 0b68 01       		.byte	0x1
 2264 0b69 B1       		.byte	0xb1
 2265 0b6a 310B0000 		.4byte	0xb31
 2266 0b6e 97030000 		.4byte	.LLST34
 2267 0b72 00       		.byte	0
 2268 0b73 21       		.uleb128 0x21
 2269 0b74 01       		.byte	0x1
 2270 0b75 D3030000 		.4byte	.LASF130
 2271 0b79 01       		.byte	0x1
 2272 0b7a B8       		.byte	0xb8
 2273 0b7b 01       		.byte	0x1
 2274 0b7c 29000000 		.4byte	0x29
 2275 0b80 00000000 		.4byte	.LFB20
 2276 0b84 0A000000 		.4byte	.LFE20
 2277 0b88 02       		.byte	0x2
 2278 0b89 7D       		.byte	0x7d
 2279 0b8a 00       		.sleb128 0
 2280 0b8b 9F0B0000 		.4byte	0xb9f
 2281 0b8f 1A       		.uleb128 0x1a
 2282 0b90 96040000 		.4byte	.LASF107
 2283 0b94 01       		.byte	0x1
 2284 0b95 B8       		.byte	0xb8
 2285 0b96 F0090000 		.4byte	0x9f0
 2286 0b9a AA030000 		.4byte	.LLST35
 2287 0b9e 00       		.byte	0
 2288 0b9f 1C       		.uleb128 0x1c
 2289 0ba0 01       		.byte	0x1
 2290 0ba1 5B000000 		.4byte	.LASF131
 2291 0ba5 01       		.byte	0x1
 2292 0ba6 BE       		.byte	0xbe
 2293 0ba7 01       		.byte	0x1
 2294 0ba8 00000000 		.4byte	.LFB21
 2295 0bac 06000000 		.4byte	.LFE21
 2296 0bb0 02       		.byte	0x2
 2297 0bb1 7D       		.byte	0x7d
 2298 0bb2 00       		.sleb128 0
 2299 0bb3 C50B0000 		.4byte	0xbc5
 2300 0bb7 23       		.uleb128 0x23
 2301 0bb8 96040000 		.4byte	.LASF107
 2302 0bbc 01       		.byte	0x1
 2303 0bbd BE       		.byte	0xbe
 2304 0bbe F0090000 		.4byte	0x9f0
 2305 0bc2 01       		.byte	0x1
 2306 0bc3 50       		.byte	0x50
 2307 0bc4 00       		.byte	0
 2308 0bc5 18       		.uleb128 0x18
 2309 0bc6 01       		.byte	0x1
 2310 0bc7 88000000 		.4byte	.LASF132
 2311 0bcb 01       		.byte	0x1
ARM GAS  /var/folders/5n/p_75w94d66l9ssrldxqdhh700000gn/T//cc9o6Lzj.s 			page 42


 2312 0bcc C2       		.byte	0xc2
 2313 0bcd 01       		.byte	0x1
 2314 0bce E8050000 		.4byte	0x5e8
 2315 0bd2 00000000 		.4byte	.LFB22
 2316 0bd6 30000000 		.4byte	.LFE22
 2317 0bda BD030000 		.4byte	.LLST36
 2318 0bde 490C0000 		.4byte	0xc49
 2319 0be2 1A       		.uleb128 0x1a
 2320 0be3 CD040000 		.4byte	.LASF133
 2321 0be7 01       		.byte	0x1
 2322 0be8 C2       		.byte	0xc2
 2323 0be9 4B050000 		.4byte	0x54b
 2324 0bed DD030000 		.4byte	.LLST37
 2325 0bf1 1A       		.uleb128 0x1a
 2326 0bf2 33050000 		.4byte	.LASF134
 2327 0bf6 01       		.byte	0x1
 2328 0bf7 C2       		.byte	0xc2
 2329 0bf8 FE050000 		.4byte	0x5fe
 2330 0bfc F0030000 		.4byte	.LLST38
 2331 0c00 19       		.uleb128 0x19
 2332 0c01 61726700 		.ascii	"arg\000"
 2333 0c05 01       		.byte	0x1
 2334 0c06 C3       		.byte	0xc3
 2335 0c07 A7020000 		.4byte	0x2a7
 2336 0c0b 0E040000 		.4byte	.LLST39
 2337 0c0f 1A       		.uleb128 0x1a
 2338 0c10 F5020000 		.4byte	.LASF135
 2339 0c14 01       		.byte	0x1
 2340 0c15 C3       		.byte	0xc3
 2341 0c16 29000000 		.4byte	0x29
 2342 0c1a 2C040000 		.4byte	.LLST40
 2343 0c1e 23       		.uleb128 0x23
 2344 0c1f 5B020000 		.4byte	.LASF136
 2345 0c23 01       		.byte	0x1
 2346 0c24 C3       		.byte	0xc3
 2347 0c25 29000000 		.4byte	0x29
 2348 0c29 02       		.byte	0x2
 2349 0c2a 91       		.byte	0x91
 2350 0c2b 00       		.sleb128 0
 2351 0c2c 24       		.uleb128 0x24
 2352 0c2d 77737A00 		.ascii	"wsz\000"
 2353 0c31 01       		.byte	0x1
 2354 0c32 C5       		.byte	0xc5
 2355 0c33 30000000 		.4byte	0x30
 2356 0c37 01       		.byte	0x1
 2357 0c38 55       		.byte	0x55
 2358 0c39 1E       		.uleb128 0x1e
 2359 0c3a 77737000 		.ascii	"wsp\000"
 2360 0c3e 01       		.byte	0x1
 2361 0c3f C6       		.byte	0xc6
 2362 0c40 A7020000 		.4byte	0x2a7
 2363 0c44 3F040000 		.4byte	.LLST41
 2364 0c48 00       		.byte	0
 2365 0c49 21       		.uleb128 0x21
 2366 0c4a 01       		.byte	0x1
 2367 0c4b D2040000 		.4byte	.LASF137
 2368 0c4f 01       		.byte	0x1
ARM GAS  /var/folders/5n/p_75w94d66l9ssrldxqdhh700000gn/T//cc9o6Lzj.s 			page 43


 2369 0c50 D0       		.byte	0xd0
 2370 0c51 01       		.byte	0x1
 2371 0c52 F3050000 		.4byte	0x5f3
 2372 0c56 00000000 		.4byte	.LFB23
 2373 0c5a 0A000000 		.4byte	.LFE23
 2374 0c5e 02       		.byte	0x2
 2375 0c5f 7D       		.byte	0x7d
 2376 0c60 00       		.sleb128 0
 2377 0c61 7F0C0000 		.4byte	0xc7f
 2378 0c65 20       		.uleb128 0x20
 2379 0c66 00000000 		.4byte	.LBB6
 2380 0c6a 06000000 		.4byte	.LBE6
 2381 0c6e 1E       		.uleb128 0x1e
 2382 0c6f 746D7000 		.ascii	"tmp\000"
 2383 0c73 01       		.byte	0x1
 2384 0c74 D2       		.byte	0xd2
 2385 0c75 91000000 		.4byte	0x91
 2386 0c79 5D040000 		.4byte	.LLST42
 2387 0c7d 00       		.byte	0
 2388 0c7e 00       		.byte	0
 2389 0c7f 1C       		.uleb128 0x1c
 2390 0c80 01       		.byte	0x1
 2391 0c81 E9000000 		.4byte	.LASF138
 2392 0c85 01       		.byte	0x1
 2393 0c86 D6       		.byte	0xd6
 2394 0c87 01       		.byte	0x1
 2395 0c88 00000000 		.4byte	.LFB24
 2396 0c8c 08000000 		.4byte	.LFE24
 2397 0c90 02       		.byte	0x2
 2398 0c91 7D       		.byte	0x7d
 2399 0c92 00       		.sleb128 0
 2400 0c93 BE0C0000 		.4byte	0xcbe
 2401 0c97 23       		.uleb128 0x23
 2402 0c98 F0020000 		.4byte	.LASF139
 2403 0c9c 01       		.byte	0x1
 2404 0c9d D6       		.byte	0xd6
 2405 0c9e F3050000 		.4byte	0x5f3
 2406 0ca2 01       		.byte	0x1
 2407 0ca3 50       		.byte	0x50
 2408 0ca4 20       		.uleb128 0x20
 2409 0ca5 00000000 		.4byte	.LBB7
 2410 0ca9 06000000 		.4byte	.LBE7
 2411 0cad 1E       		.uleb128 0x1e
 2412 0cae 746D7000 		.ascii	"tmp\000"
 2413 0cb2 01       		.byte	0x1
 2414 0cb3 D9       		.byte	0xd9
 2415 0cb4 91000000 		.4byte	0x91
 2416 0cb8 70040000 		.4byte	.LLST43
 2417 0cbc 00       		.byte	0
 2418 0cbd 00       		.byte	0
 2419 0cbe 25       		.uleb128 0x25
 2420 0cbf AA000000 		.4byte	.LASF140
 2421 0cc3 08       		.byte	0x8
 2422 0cc4 D1       		.byte	0xd1
 2423 0cc5 21040000 		.4byte	0x421
 2424 0cc9 01       		.byte	0x1
 2425 0cca 01       		.byte	0x1
ARM GAS  /var/folders/5n/p_75w94d66l9ssrldxqdhh700000gn/T//cc9o6Lzj.s 			page 44


 2426 0ccb 25       		.uleb128 0x25
 2427 0ccc CA000000 		.4byte	.LASF141
 2428 0cd0 11       		.byte	0x11
 2429 0cd1 95       		.byte	0x95
 2430 0cd2 7E070000 		.4byte	0x77e
 2431 0cd6 01       		.byte	0x1
 2432 0cd7 01       		.byte	0x1
 2433 0cd8 25       		.uleb128 0x25
 2434 0cd9 AA000000 		.4byte	.LASF140
 2435 0cdd 08       		.byte	0x8
 2436 0cde D1       		.byte	0xd1
 2437 0cdf 21040000 		.4byte	0x421
 2438 0ce3 01       		.byte	0x1
 2439 0ce4 01       		.byte	0x1
 2440 0ce5 25       		.uleb128 0x25
 2441 0ce6 CA000000 		.4byte	.LASF141
 2442 0cea 11       		.byte	0x11
 2443 0ceb 95       		.byte	0x95
 2444 0cec 7E070000 		.4byte	0x77e
 2445 0cf0 01       		.byte	0x1
 2446 0cf1 01       		.byte	0x1
 2447 0cf2 00       		.byte	0
 2448              		.section	.debug_abbrev,"",%progbits
 2449              	.Ldebug_abbrev0:
 2450 0000 01       		.uleb128 0x1
 2451 0001 11       		.uleb128 0x11
 2452 0002 01       		.byte	0x1
 2453 0003 25       		.uleb128 0x25
 2454 0004 0E       		.uleb128 0xe
 2455 0005 13       		.uleb128 0x13
 2456 0006 0B       		.uleb128 0xb
 2457 0007 03       		.uleb128 0x3
 2458 0008 0E       		.uleb128 0xe
 2459 0009 1B       		.uleb128 0x1b
 2460 000a 0E       		.uleb128 0xe
 2461 000b 11       		.uleb128 0x11
 2462 000c 01       		.uleb128 0x1
 2463 000d 52       		.uleb128 0x52
 2464 000e 01       		.uleb128 0x1
 2465 000f 55       		.uleb128 0x55
 2466 0010 06       		.uleb128 0x6
 2467 0011 10       		.uleb128 0x10
 2468 0012 06       		.uleb128 0x6
 2469 0013 00       		.byte	0
 2470 0014 00       		.byte	0
 2471 0015 02       		.uleb128 0x2
 2472 0016 24       		.uleb128 0x24
 2473 0017 00       		.byte	0
 2474 0018 0B       		.uleb128 0xb
 2475 0019 0B       		.uleb128 0xb
 2476 001a 3E       		.uleb128 0x3e
 2477 001b 0B       		.uleb128 0xb
 2478 001c 03       		.uleb128 0x3
 2479 001d 08       		.uleb128 0x8
 2480 001e 00       		.byte	0
 2481 001f 00       		.byte	0
 2482 0020 03       		.uleb128 0x3
ARM GAS  /var/folders/5n/p_75w94d66l9ssrldxqdhh700000gn/T//cc9o6Lzj.s 			page 45


 2483 0021 16       		.uleb128 0x16
 2484 0022 00       		.byte	0
 2485 0023 03       		.uleb128 0x3
 2486 0024 0E       		.uleb128 0xe
 2487 0025 3A       		.uleb128 0x3a
 2488 0026 0B       		.uleb128 0xb
 2489 0027 3B       		.uleb128 0x3b
 2490 0028 0B       		.uleb128 0xb
 2491 0029 49       		.uleb128 0x49
 2492 002a 13       		.uleb128 0x13
 2493 002b 00       		.byte	0
 2494 002c 00       		.byte	0
 2495 002d 04       		.uleb128 0x4
 2496 002e 24       		.uleb128 0x24
 2497 002f 00       		.byte	0
 2498 0030 0B       		.uleb128 0xb
 2499 0031 0B       		.uleb128 0xb
 2500 0032 3E       		.uleb128 0x3e
 2501 0033 0B       		.uleb128 0xb
 2502 0034 03       		.uleb128 0x3
 2503 0035 0E       		.uleb128 0xe
 2504 0036 00       		.byte	0
 2505 0037 00       		.byte	0
 2506 0038 05       		.uleb128 0x5
 2507 0039 13       		.uleb128 0x13
 2508 003a 01       		.byte	0x1
 2509 003b 03       		.uleb128 0x3
 2510 003c 0E       		.uleb128 0xe
 2511 003d 0B       		.uleb128 0xb
 2512 003e 0B       		.uleb128 0xb
 2513 003f 3A       		.uleb128 0x3a
 2514 0040 0B       		.uleb128 0xb
 2515 0041 3B       		.uleb128 0x3b
 2516 0042 0B       		.uleb128 0xb
 2517 0043 01       		.uleb128 0x1
 2518 0044 13       		.uleb128 0x13
 2519 0045 00       		.byte	0
 2520 0046 00       		.byte	0
 2521 0047 06       		.uleb128 0x6
 2522 0048 0D       		.uleb128 0xd
 2523 0049 00       		.byte	0
 2524 004a 03       		.uleb128 0x3
 2525 004b 0E       		.uleb128 0xe
 2526 004c 3A       		.uleb128 0x3a
 2527 004d 0B       		.uleb128 0xb
 2528 004e 3B       		.uleb128 0x3b
 2529 004f 0B       		.uleb128 0xb
 2530 0050 49       		.uleb128 0x49
 2531 0051 13       		.uleb128 0x13
 2532 0052 38       		.uleb128 0x38
 2533 0053 0A       		.uleb128 0xa
 2534 0054 00       		.byte	0
 2535 0055 00       		.byte	0
 2536 0056 07       		.uleb128 0x7
 2537 0057 0D       		.uleb128 0xd
 2538 0058 00       		.byte	0
 2539 0059 03       		.uleb128 0x3
ARM GAS  /var/folders/5n/p_75w94d66l9ssrldxqdhh700000gn/T//cc9o6Lzj.s 			page 46


 2540 005a 08       		.uleb128 0x8
 2541 005b 3A       		.uleb128 0x3a
 2542 005c 0B       		.uleb128 0xb
 2543 005d 3B       		.uleb128 0x3b
 2544 005e 0B       		.uleb128 0xb
 2545 005f 49       		.uleb128 0x49
 2546 0060 13       		.uleb128 0x13
 2547 0061 38       		.uleb128 0x38
 2548 0062 0A       		.uleb128 0xa
 2549 0063 00       		.byte	0
 2550 0064 00       		.byte	0
 2551 0065 08       		.uleb128 0x8
 2552 0066 13       		.uleb128 0x13
 2553 0067 01       		.byte	0x1
 2554 0068 0B       		.uleb128 0xb
 2555 0069 0B       		.uleb128 0xb
 2556 006a 3A       		.uleb128 0x3a
 2557 006b 0B       		.uleb128 0xb
 2558 006c 3B       		.uleb128 0x3b
 2559 006d 0B       		.uleb128 0xb
 2560 006e 01       		.uleb128 0x1
 2561 006f 13       		.uleb128 0x13
 2562 0070 00       		.byte	0
 2563 0071 00       		.byte	0
 2564 0072 09       		.uleb128 0x9
 2565 0073 0F       		.uleb128 0xf
 2566 0074 00       		.byte	0
 2567 0075 0B       		.uleb128 0xb
 2568 0076 0B       		.uleb128 0xb
 2569 0077 49       		.uleb128 0x49
 2570 0078 13       		.uleb128 0x13
 2571 0079 00       		.byte	0
 2572 007a 00       		.byte	0
 2573 007b 0A       		.uleb128 0xa
 2574 007c 0F       		.uleb128 0xf
 2575 007d 00       		.byte	0
 2576 007e 0B       		.uleb128 0xb
 2577 007f 0B       		.uleb128 0xb
 2578 0080 00       		.byte	0
 2579 0081 00       		.byte	0
 2580 0082 0B       		.uleb128 0xb
 2581 0083 13       		.uleb128 0x13
 2582 0084 01       		.byte	0x1
 2583 0085 03       		.uleb128 0x3
 2584 0086 0E       		.uleb128 0xe
 2585 0087 0B       		.uleb128 0xb
 2586 0088 0B       		.uleb128 0xb
 2587 0089 3A       		.uleb128 0x3a
 2588 008a 0B       		.uleb128 0xb
 2589 008b 3B       		.uleb128 0x3b
 2590 008c 05       		.uleb128 0x5
 2591 008d 01       		.uleb128 0x1
 2592 008e 13       		.uleb128 0x13
 2593 008f 00       		.byte	0
 2594 0090 00       		.byte	0
 2595 0091 0C       		.uleb128 0xc
 2596 0092 0D       		.uleb128 0xd
ARM GAS  /var/folders/5n/p_75w94d66l9ssrldxqdhh700000gn/T//cc9o6Lzj.s 			page 47


 2597 0093 00       		.byte	0
 2598 0094 03       		.uleb128 0x3
 2599 0095 08       		.uleb128 0x8
 2600 0096 3A       		.uleb128 0x3a
 2601 0097 0B       		.uleb128 0xb
 2602 0098 3B       		.uleb128 0x3b
 2603 0099 05       		.uleb128 0x5
 2604 009a 49       		.uleb128 0x49
 2605 009b 13       		.uleb128 0x13
 2606 009c 38       		.uleb128 0x38
 2607 009d 0A       		.uleb128 0xa
 2608 009e 00       		.byte	0
 2609 009f 00       		.byte	0
 2610 00a0 0D       		.uleb128 0xd
 2611 00a1 15       		.uleb128 0x15
 2612 00a2 01       		.byte	0x1
 2613 00a3 27       		.uleb128 0x27
 2614 00a4 0C       		.uleb128 0xc
 2615 00a5 01       		.uleb128 0x1
 2616 00a6 13       		.uleb128 0x13
 2617 00a7 00       		.byte	0
 2618 00a8 00       		.byte	0
 2619 00a9 0E       		.uleb128 0xe
 2620 00aa 05       		.uleb128 0x5
 2621 00ab 00       		.byte	0
 2622 00ac 49       		.uleb128 0x49
 2623 00ad 13       		.uleb128 0x13
 2624 00ae 00       		.byte	0
 2625 00af 00       		.byte	0
 2626 00b0 0F       		.uleb128 0xf
 2627 00b1 35       		.uleb128 0x35
 2628 00b2 00       		.byte	0
 2629 00b3 49       		.uleb128 0x49
 2630 00b4 13       		.uleb128 0x13
 2631 00b5 00       		.byte	0
 2632 00b6 00       		.byte	0
 2633 00b7 10       		.uleb128 0x10
 2634 00b8 17       		.uleb128 0x17
 2635 00b9 01       		.byte	0x1
 2636 00ba 0B       		.uleb128 0xb
 2637 00bb 0B       		.uleb128 0xb
 2638 00bc 3A       		.uleb128 0x3a
 2639 00bd 0B       		.uleb128 0xb
 2640 00be 3B       		.uleb128 0x3b
 2641 00bf 0B       		.uleb128 0xb
 2642 00c0 01       		.uleb128 0x1
 2643 00c1 13       		.uleb128 0x13
 2644 00c2 00       		.byte	0
 2645 00c3 00       		.byte	0
 2646 00c4 11       		.uleb128 0x11
 2647 00c5 0D       		.uleb128 0xd
 2648 00c6 00       		.byte	0
 2649 00c7 03       		.uleb128 0x3
 2650 00c8 0E       		.uleb128 0xe
 2651 00c9 3A       		.uleb128 0x3a
 2652 00ca 0B       		.uleb128 0xb
 2653 00cb 3B       		.uleb128 0x3b
ARM GAS  /var/folders/5n/p_75w94d66l9ssrldxqdhh700000gn/T//cc9o6Lzj.s 			page 48


 2654 00cc 0B       		.uleb128 0xb
 2655 00cd 49       		.uleb128 0x49
 2656 00ce 13       		.uleb128 0x13
 2657 00cf 00       		.byte	0
 2658 00d0 00       		.byte	0
 2659 00d1 12       		.uleb128 0x12
 2660 00d2 26       		.uleb128 0x26
 2661 00d3 00       		.byte	0
 2662 00d4 49       		.uleb128 0x49
 2663 00d5 13       		.uleb128 0x13
 2664 00d6 00       		.byte	0
 2665 00d7 00       		.byte	0
 2666 00d8 13       		.uleb128 0x13
 2667 00d9 15       		.uleb128 0x15
 2668 00da 01       		.byte	0x1
 2669 00db 27       		.uleb128 0x27
 2670 00dc 0C       		.uleb128 0xc
 2671 00dd 49       		.uleb128 0x49
 2672 00de 13       		.uleb128 0x13
 2673 00df 01       		.uleb128 0x1
 2674 00e0 13       		.uleb128 0x13
 2675 00e1 00       		.byte	0
 2676 00e2 00       		.byte	0
 2677 00e3 14       		.uleb128 0x14
 2678 00e4 13       		.uleb128 0x13
 2679 00e5 01       		.byte	0x1
 2680 00e6 03       		.uleb128 0x3
 2681 00e7 0E       		.uleb128 0xe
 2682 00e8 0B       		.uleb128 0xb
 2683 00e9 05       		.uleb128 0x5
 2684 00ea 3A       		.uleb128 0x3a
 2685 00eb 0B       		.uleb128 0xb
 2686 00ec 3B       		.uleb128 0x3b
 2687 00ed 0B       		.uleb128 0xb
 2688 00ee 01       		.uleb128 0x1
 2689 00ef 13       		.uleb128 0x13
 2690 00f0 00       		.byte	0
 2691 00f1 00       		.byte	0
 2692 00f2 15       		.uleb128 0x15
 2693 00f3 01       		.uleb128 0x1
 2694 00f4 01       		.byte	0x1
 2695 00f5 49       		.uleb128 0x49
 2696 00f6 13       		.uleb128 0x13
 2697 00f7 01       		.uleb128 0x1
 2698 00f8 13       		.uleb128 0x13
 2699 00f9 00       		.byte	0
 2700 00fa 00       		.byte	0
 2701 00fb 16       		.uleb128 0x16
 2702 00fc 21       		.uleb128 0x21
 2703 00fd 00       		.byte	0
 2704 00fe 49       		.uleb128 0x49
 2705 00ff 13       		.uleb128 0x13
 2706 0100 2F       		.uleb128 0x2f
 2707 0101 0B       		.uleb128 0xb
 2708 0102 00       		.byte	0
 2709 0103 00       		.byte	0
 2710 0104 17       		.uleb128 0x17
ARM GAS  /var/folders/5n/p_75w94d66l9ssrldxqdhh700000gn/T//cc9o6Lzj.s 			page 49


 2711 0105 2E       		.uleb128 0x2e
 2712 0106 00       		.byte	0
 2713 0107 3F       		.uleb128 0x3f
 2714 0108 0C       		.uleb128 0xc
 2715 0109 03       		.uleb128 0x3
 2716 010a 0E       		.uleb128 0xe
 2717 010b 3A       		.uleb128 0x3a
 2718 010c 0B       		.uleb128 0xb
 2719 010d 3B       		.uleb128 0x3b
 2720 010e 0B       		.uleb128 0xb
 2721 010f 27       		.uleb128 0x27
 2722 0110 0C       		.uleb128 0xc
 2723 0111 11       		.uleb128 0x11
 2724 0112 01       		.uleb128 0x1
 2725 0113 12       		.uleb128 0x12
 2726 0114 01       		.uleb128 0x1
 2727 0115 40       		.uleb128 0x40
 2728 0116 0A       		.uleb128 0xa
 2729 0117 00       		.byte	0
 2730 0118 00       		.byte	0
 2731 0119 18       		.uleb128 0x18
 2732 011a 2E       		.uleb128 0x2e
 2733 011b 01       		.byte	0x1
 2734 011c 3F       		.uleb128 0x3f
 2735 011d 0C       		.uleb128 0xc
 2736 011e 03       		.uleb128 0x3
 2737 011f 0E       		.uleb128 0xe
 2738 0120 3A       		.uleb128 0x3a
 2739 0121 0B       		.uleb128 0xb
 2740 0122 3B       		.uleb128 0x3b
 2741 0123 0B       		.uleb128 0xb
 2742 0124 27       		.uleb128 0x27
 2743 0125 0C       		.uleb128 0xc
 2744 0126 49       		.uleb128 0x49
 2745 0127 13       		.uleb128 0x13
 2746 0128 11       		.uleb128 0x11
 2747 0129 01       		.uleb128 0x1
 2748 012a 12       		.uleb128 0x12
 2749 012b 01       		.uleb128 0x1
 2750 012c 40       		.uleb128 0x40
 2751 012d 06       		.uleb128 0x6
 2752 012e 01       		.uleb128 0x1
 2753 012f 13       		.uleb128 0x13
 2754 0130 00       		.byte	0
 2755 0131 00       		.byte	0
 2756 0132 19       		.uleb128 0x19
 2757 0133 05       		.uleb128 0x5
 2758 0134 00       		.byte	0
 2759 0135 03       		.uleb128 0x3
 2760 0136 08       		.uleb128 0x8
 2761 0137 3A       		.uleb128 0x3a
 2762 0138 0B       		.uleb128 0xb
 2763 0139 3B       		.uleb128 0x3b
 2764 013a 0B       		.uleb128 0xb
 2765 013b 49       		.uleb128 0x49
 2766 013c 13       		.uleb128 0x13
 2767 013d 02       		.uleb128 0x2
ARM GAS  /var/folders/5n/p_75w94d66l9ssrldxqdhh700000gn/T//cc9o6Lzj.s 			page 50


 2768 013e 06       		.uleb128 0x6
 2769 013f 00       		.byte	0
 2770 0140 00       		.byte	0
 2771 0141 1A       		.uleb128 0x1a
 2772 0142 05       		.uleb128 0x5
 2773 0143 00       		.byte	0
 2774 0144 03       		.uleb128 0x3
 2775 0145 0E       		.uleb128 0xe
 2776 0146 3A       		.uleb128 0x3a
 2777 0147 0B       		.uleb128 0xb
 2778 0148 3B       		.uleb128 0x3b
 2779 0149 0B       		.uleb128 0xb
 2780 014a 49       		.uleb128 0x49
 2781 014b 13       		.uleb128 0x13
 2782 014c 02       		.uleb128 0x2
 2783 014d 06       		.uleb128 0x6
 2784 014e 00       		.byte	0
 2785 014f 00       		.byte	0
 2786 0150 1B       		.uleb128 0x1b
 2787 0151 2E       		.uleb128 0x2e
 2788 0152 01       		.byte	0x1
 2789 0153 3F       		.uleb128 0x3f
 2790 0154 0C       		.uleb128 0xc
 2791 0155 03       		.uleb128 0x3
 2792 0156 0E       		.uleb128 0xe
 2793 0157 3A       		.uleb128 0x3a
 2794 0158 0B       		.uleb128 0xb
 2795 0159 3B       		.uleb128 0x3b
 2796 015a 0B       		.uleb128 0xb
 2797 015b 27       		.uleb128 0x27
 2798 015c 0C       		.uleb128 0xc
 2799 015d 11       		.uleb128 0x11
 2800 015e 01       		.uleb128 0x1
 2801 015f 12       		.uleb128 0x12
 2802 0160 01       		.uleb128 0x1
 2803 0161 40       		.uleb128 0x40
 2804 0162 06       		.uleb128 0x6
 2805 0163 01       		.uleb128 0x1
 2806 0164 13       		.uleb128 0x13
 2807 0165 00       		.byte	0
 2808 0166 00       		.byte	0
 2809 0167 1C       		.uleb128 0x1c
 2810 0168 2E       		.uleb128 0x2e
 2811 0169 01       		.byte	0x1
 2812 016a 3F       		.uleb128 0x3f
 2813 016b 0C       		.uleb128 0xc
 2814 016c 03       		.uleb128 0x3
 2815 016d 0E       		.uleb128 0xe
 2816 016e 3A       		.uleb128 0x3a
 2817 016f 0B       		.uleb128 0xb
 2818 0170 3B       		.uleb128 0x3b
 2819 0171 0B       		.uleb128 0xb
 2820 0172 27       		.uleb128 0x27
 2821 0173 0C       		.uleb128 0xc
 2822 0174 11       		.uleb128 0x11
 2823 0175 01       		.uleb128 0x1
 2824 0176 12       		.uleb128 0x12
ARM GAS  /var/folders/5n/p_75w94d66l9ssrldxqdhh700000gn/T//cc9o6Lzj.s 			page 51


 2825 0177 01       		.uleb128 0x1
 2826 0178 40       		.uleb128 0x40
 2827 0179 0A       		.uleb128 0xa
 2828 017a 01       		.uleb128 0x1
 2829 017b 13       		.uleb128 0x13
 2830 017c 00       		.byte	0
 2831 017d 00       		.byte	0
 2832 017e 1D       		.uleb128 0x1d
 2833 017f 34       		.uleb128 0x34
 2834 0180 00       		.byte	0
 2835 0181 03       		.uleb128 0x3
 2836 0182 0E       		.uleb128 0xe
 2837 0183 3A       		.uleb128 0x3a
 2838 0184 0B       		.uleb128 0xb
 2839 0185 3B       		.uleb128 0x3b
 2840 0186 0B       		.uleb128 0xb
 2841 0187 49       		.uleb128 0x49
 2842 0188 13       		.uleb128 0x13
 2843 0189 02       		.uleb128 0x2
 2844 018a 06       		.uleb128 0x6
 2845 018b 00       		.byte	0
 2846 018c 00       		.byte	0
 2847 018d 1E       		.uleb128 0x1e
 2848 018e 34       		.uleb128 0x34
 2849 018f 00       		.byte	0
 2850 0190 03       		.uleb128 0x3
 2851 0191 08       		.uleb128 0x8
 2852 0192 3A       		.uleb128 0x3a
 2853 0193 0B       		.uleb128 0xb
 2854 0194 3B       		.uleb128 0x3b
 2855 0195 0B       		.uleb128 0xb
 2856 0196 49       		.uleb128 0x49
 2857 0197 13       		.uleb128 0x13
 2858 0198 02       		.uleb128 0x2
 2859 0199 06       		.uleb128 0x6
 2860 019a 00       		.byte	0
 2861 019b 00       		.byte	0
 2862 019c 1F       		.uleb128 0x1f
 2863 019d 0B       		.uleb128 0xb
 2864 019e 01       		.byte	0x1
 2865 019f 11       		.uleb128 0x11
 2866 01a0 01       		.uleb128 0x1
 2867 01a1 12       		.uleb128 0x12
 2868 01a2 01       		.uleb128 0x1
 2869 01a3 01       		.uleb128 0x1
 2870 01a4 13       		.uleb128 0x13
 2871 01a5 00       		.byte	0
 2872 01a6 00       		.byte	0
 2873 01a7 20       		.uleb128 0x20
 2874 01a8 0B       		.uleb128 0xb
 2875 01a9 01       		.byte	0x1
 2876 01aa 11       		.uleb128 0x11
 2877 01ab 01       		.uleb128 0x1
 2878 01ac 12       		.uleb128 0x12
 2879 01ad 01       		.uleb128 0x1
 2880 01ae 00       		.byte	0
 2881 01af 00       		.byte	0
ARM GAS  /var/folders/5n/p_75w94d66l9ssrldxqdhh700000gn/T//cc9o6Lzj.s 			page 52


 2882 01b0 21       		.uleb128 0x21
 2883 01b1 2E       		.uleb128 0x2e
 2884 01b2 01       		.byte	0x1
 2885 01b3 3F       		.uleb128 0x3f
 2886 01b4 0C       		.uleb128 0xc
 2887 01b5 03       		.uleb128 0x3
 2888 01b6 0E       		.uleb128 0xe
 2889 01b7 3A       		.uleb128 0x3a
 2890 01b8 0B       		.uleb128 0xb
 2891 01b9 3B       		.uleb128 0x3b
 2892 01ba 0B       		.uleb128 0xb
 2893 01bb 27       		.uleb128 0x27
 2894 01bc 0C       		.uleb128 0xc
 2895 01bd 49       		.uleb128 0x49
 2896 01be 13       		.uleb128 0x13
 2897 01bf 11       		.uleb128 0x11
 2898 01c0 01       		.uleb128 0x1
 2899 01c1 12       		.uleb128 0x12
 2900 01c2 01       		.uleb128 0x1
 2901 01c3 40       		.uleb128 0x40
 2902 01c4 0A       		.uleb128 0xa
 2903 01c5 01       		.uleb128 0x1
 2904 01c6 13       		.uleb128 0x13
 2905 01c7 00       		.byte	0
 2906 01c8 00       		.byte	0
 2907 01c9 22       		.uleb128 0x22
 2908 01ca 05       		.uleb128 0x5
 2909 01cb 00       		.byte	0
 2910 01cc 03       		.uleb128 0x3
 2911 01cd 08       		.uleb128 0x8
 2912 01ce 3A       		.uleb128 0x3a
 2913 01cf 0B       		.uleb128 0xb
 2914 01d0 3B       		.uleb128 0x3b
 2915 01d1 0B       		.uleb128 0xb
 2916 01d2 49       		.uleb128 0x49
 2917 01d3 13       		.uleb128 0x13
 2918 01d4 02       		.uleb128 0x2
 2919 01d5 0A       		.uleb128 0xa
 2920 01d6 00       		.byte	0
 2921 01d7 00       		.byte	0
 2922 01d8 23       		.uleb128 0x23
 2923 01d9 05       		.uleb128 0x5
 2924 01da 00       		.byte	0
 2925 01db 03       		.uleb128 0x3
 2926 01dc 0E       		.uleb128 0xe
 2927 01dd 3A       		.uleb128 0x3a
 2928 01de 0B       		.uleb128 0xb
 2929 01df 3B       		.uleb128 0x3b
 2930 01e0 0B       		.uleb128 0xb
 2931 01e1 49       		.uleb128 0x49
 2932 01e2 13       		.uleb128 0x13
 2933 01e3 02       		.uleb128 0x2
 2934 01e4 0A       		.uleb128 0xa
 2935 01e5 00       		.byte	0
 2936 01e6 00       		.byte	0
 2937 01e7 24       		.uleb128 0x24
 2938 01e8 34       		.uleb128 0x34
ARM GAS  /var/folders/5n/p_75w94d66l9ssrldxqdhh700000gn/T//cc9o6Lzj.s 			page 53


 2939 01e9 00       		.byte	0
 2940 01ea 03       		.uleb128 0x3
 2941 01eb 08       		.uleb128 0x8
 2942 01ec 3A       		.uleb128 0x3a
 2943 01ed 0B       		.uleb128 0xb
 2944 01ee 3B       		.uleb128 0x3b
 2945 01ef 0B       		.uleb128 0xb
 2946 01f0 49       		.uleb128 0x49
 2947 01f1 13       		.uleb128 0x13
 2948 01f2 02       		.uleb128 0x2
 2949 01f3 0A       		.uleb128 0xa
 2950 01f4 00       		.byte	0
 2951 01f5 00       		.byte	0
 2952 01f6 25       		.uleb128 0x25
 2953 01f7 34       		.uleb128 0x34
 2954 01f8 00       		.byte	0
 2955 01f9 03       		.uleb128 0x3
 2956 01fa 0E       		.uleb128 0xe
 2957 01fb 3A       		.uleb128 0x3a
 2958 01fc 0B       		.uleb128 0xb
 2959 01fd 3B       		.uleb128 0x3b
 2960 01fe 0B       		.uleb128 0xb
 2961 01ff 49       		.uleb128 0x49
 2962 0200 13       		.uleb128 0x13
 2963 0201 3F       		.uleb128 0x3f
 2964 0202 0C       		.uleb128 0xc
 2965 0203 3C       		.uleb128 0x3c
 2966 0204 0C       		.uleb128 0xc
 2967 0205 00       		.byte	0
 2968 0206 00       		.byte	0
 2969 0207 00       		.byte	0
 2970              		.section	.debug_loc,"",%progbits
 2971              	.Ldebug_loc0:
 2972              	.LLST0:
 2973 0000 00000000 		.4byte	.LFB8
 2974 0004 02000000 		.4byte	.LCFI0
 2975 0008 0200     		.2byte	0x2
 2976 000a 7D       		.byte	0x7d
 2977 000b 00       		.sleb128 0
 2978 000c 02000000 		.4byte	.LCFI0
 2979 0010 4C000000 		.4byte	.LFE8
 2980 0014 0200     		.2byte	0x2
 2981 0016 7D       		.byte	0x7d
 2982 0017 10       		.sleb128 16
 2983 0018 00000000 		.4byte	0
 2984 001c 00000000 		.4byte	0
 2985              	.LLST1:
 2986 0020 00000000 		.4byte	.LVL0
 2987 0024 08000000 		.4byte	.LVL1
 2988 0028 0100     		.2byte	0x1
 2989 002a 50       		.byte	0x50
 2990 002b 08000000 		.4byte	.LVL1
 2991 002f 4C000000 		.4byte	.LFE8
 2992 0033 0100     		.2byte	0x1
 2993 0035 54       		.byte	0x54
 2994 0036 00000000 		.4byte	0
 2995 003a 00000000 		.4byte	0
ARM GAS  /var/folders/5n/p_75w94d66l9ssrldxqdhh700000gn/T//cc9o6Lzj.s 			page 54


 2996              	.LLST2:
 2997 003e 00000000 		.4byte	.LVL0
 2998 0042 0A000000 		.4byte	.LVL2
 2999 0046 0100     		.2byte	0x1
 3000 0048 51       		.byte	0x51
 3001 0049 00000000 		.4byte	0
 3002 004d 00000000 		.4byte	0
 3003              	.LLST3:
 3004 0051 00000000 		.4byte	.LFB9
 3005 0055 02000000 		.4byte	.LCFI1
 3006 0059 0200     		.2byte	0x2
 3007 005b 7D       		.byte	0x7d
 3008 005c 00       		.sleb128 0
 3009 005d 02000000 		.4byte	.LCFI1
 3010 0061 22000000 		.4byte	.LFE9
 3011 0065 0200     		.2byte	0x2
 3012 0067 7D       		.byte	0x7d
 3013 0068 08       		.sleb128 8
 3014 0069 00000000 		.4byte	0
 3015 006d 00000000 		.4byte	0
 3016              	.LLST4:
 3017 0071 00000000 		.4byte	.LVL3
 3018 0075 06000000 		.4byte	.LVL4
 3019 0079 0100     		.2byte	0x1
 3020 007b 50       		.byte	0x50
 3021 007c 06000000 		.4byte	.LVL4
 3022 0080 22000000 		.4byte	.LFE9
 3023 0084 0100     		.2byte	0x1
 3024 0086 54       		.byte	0x54
 3025 0087 00000000 		.4byte	0
 3026 008b 00000000 		.4byte	0
 3027              	.LLST5:
 3028 008f 00000000 		.4byte	.LVL5
 3029 0093 02000000 		.4byte	.LVL6
 3030 0097 0100     		.2byte	0x1
 3031 0099 50       		.byte	0x50
 3032 009a 00000000 		.4byte	0
 3033 009e 00000000 		.4byte	0
 3034              	.LLST6:
 3035 00a2 00000000 		.4byte	.LFB11
 3036 00a6 02000000 		.4byte	.LCFI2
 3037 00aa 0200     		.2byte	0x2
 3038 00ac 7D       		.byte	0x7d
 3039 00ad 00       		.sleb128 0
 3040 00ae 02000000 		.4byte	.LCFI2
 3041 00b2 34000000 		.4byte	.LFE11
 3042 00b6 0200     		.2byte	0x2
 3043 00b8 7D       		.byte	0x7d
 3044 00b9 10       		.sleb128 16
 3045 00ba 00000000 		.4byte	0
 3046 00be 00000000 		.4byte	0
 3047              	.LLST7:
 3048 00c2 00000000 		.4byte	.LVL7
 3049 00c6 0C000000 		.4byte	.LVL10
 3050 00ca 0100     		.2byte	0x1
 3051 00cc 50       		.byte	0x50
 3052 00cd 00000000 		.4byte	0
ARM GAS  /var/folders/5n/p_75w94d66l9ssrldxqdhh700000gn/T//cc9o6Lzj.s 			page 55


 3053 00d1 00000000 		.4byte	0
 3054              	.LLST8:
 3055 00d5 00000000 		.4byte	.LVL7
 3056 00d9 16000000 		.4byte	.LVL12
 3057 00dd 0100     		.2byte	0x1
 3058 00df 51       		.byte	0x51
 3059 00e0 00000000 		.4byte	0
 3060 00e4 00000000 		.4byte	0
 3061              	.LLST9:
 3062 00e8 0E000000 		.4byte	.LVL11
 3063 00ec 20000000 		.4byte	.LVL14
 3064 00f0 0100     		.2byte	0x1
 3065 00f2 55       		.byte	0x55
 3066 00f3 20000000 		.4byte	.LVL14
 3067 00f7 28000000 		.4byte	.LVL17
 3068 00fb 0100     		.2byte	0x1
 3069 00fd 50       		.byte	0x50
 3070 00fe 28000000 		.4byte	.LVL17
 3071 0102 2C000000 		.4byte	.LVL18
 3072 0106 0100     		.2byte	0x1
 3073 0108 55       		.byte	0x55
 3074 0109 2C000000 		.4byte	.LVL18
 3075 010d 34000000 		.4byte	.LFE11
 3076 0111 0100     		.2byte	0x1
 3077 0113 50       		.byte	0x50
 3078 0114 00000000 		.4byte	0
 3079 0118 00000000 		.4byte	0
 3080              	.LLST10:
 3081 011c 08000000 		.4byte	.LVL9
 3082 0120 16000000 		.4byte	.LVL12
 3083 0124 0E00     		.2byte	0xe
 3084 0126 71       		.byte	0x71
 3085 0127 00       		.sleb128 0
 3086 0128 09       		.byte	0x9
 3087 0129 FF       		.byte	0xff
 3088 012a 71       		.byte	0x71
 3089 012b 00       		.sleb128 0
 3090 012c 30       		.byte	0x30
 3091 012d 2E       		.byte	0x2e
 3092 012e 28       		.byte	0x28
 3093 012f 0100     		.2byte	0x1
 3094 0131 16       		.byte	0x16
 3095 0132 13       		.byte	0x13
 3096 0133 9F       		.byte	0x9f
 3097 0134 16000000 		.4byte	.LVL12
 3098 0138 19000000 		.4byte	.LVL13-1
 3099 013c 0100     		.2byte	0x1
 3100 013e 51       		.byte	0x51
 3101 013f 00000000 		.4byte	0
 3102 0143 00000000 		.4byte	0
 3103              	.LLST11:
 3104 0147 08000000 		.4byte	.LVL9
 3105 014b 19000000 		.4byte	.LVL13-1
 3106 014f 0100     		.2byte	0x1
 3107 0151 53       		.byte	0x53
 3108 0152 00000000 		.4byte	0
 3109 0156 00000000 		.4byte	0
ARM GAS  /var/folders/5n/p_75w94d66l9ssrldxqdhh700000gn/T//cc9o6Lzj.s 			page 56


 3110              	.LLST12:
 3111 015a 26000000 		.4byte	.LVL16
 3112 015e 28000000 		.4byte	.LVL17
 3113 0162 0100     		.2byte	0x1
 3114 0164 53       		.byte	0x53
 3115 0165 00000000 		.4byte	0
 3116 0169 00000000 		.4byte	0
 3117              	.LLST13:
 3118 016d 00000000 		.4byte	.LVL19
 3119 0171 02000000 		.4byte	.LVL20
 3120 0175 0100     		.2byte	0x1
 3121 0177 50       		.byte	0x50
 3122 0178 00000000 		.4byte	0
 3123 017c 00000000 		.4byte	0
 3124              	.LLST14:
 3125 0180 00000000 		.4byte	.LFB14
 3126 0184 02000000 		.4byte	.LCFI3
 3127 0188 0200     		.2byte	0x2
 3128 018a 7D       		.byte	0x7d
 3129 018b 00       		.sleb128 0
 3130 018c 02000000 		.4byte	.LCFI3
 3131 0190 48000000 		.4byte	.LFE14
 3132 0194 0200     		.2byte	0x2
 3133 0196 7D       		.byte	0x7d
 3134 0197 10       		.sleb128 16
 3135 0198 00000000 		.4byte	0
 3136 019c 00000000 		.4byte	0
 3137              	.LLST15:
 3138 01a0 00000000 		.4byte	.LVL22
 3139 01a4 0E000000 		.4byte	.LVL24
 3140 01a8 0100     		.2byte	0x1
 3141 01aa 50       		.byte	0x50
 3142 01ab 0E000000 		.4byte	.LVL24
 3143 01af 48000000 		.4byte	.LFE14
 3144 01b3 0100     		.2byte	0x1
 3145 01b5 55       		.byte	0x55
 3146 01b6 00000000 		.4byte	0
 3147 01ba 00000000 		.4byte	0
 3148              	.LLST16:
 3149 01be 00000000 		.4byte	.LVL22
 3150 01c2 08000000 		.4byte	.LVL23
 3151 01c6 0100     		.2byte	0x1
 3152 01c8 51       		.byte	0x51
 3153 01c9 08000000 		.4byte	.LVL23
 3154 01cd 48000000 		.4byte	.LFE14
 3155 01d1 0100     		.2byte	0x1
 3156 01d3 54       		.byte	0x54
 3157 01d4 00000000 		.4byte	0
 3158 01d8 00000000 		.4byte	0
 3159              	.LLST17:
 3160 01dc 00000000 		.4byte	.LFB15
 3161 01e0 02000000 		.4byte	.LCFI4
 3162 01e4 0200     		.2byte	0x2
 3163 01e6 7D       		.byte	0x7d
 3164 01e7 00       		.sleb128 0
 3165 01e8 02000000 		.4byte	.LCFI4
 3166 01ec 34000000 		.4byte	.LFE15
ARM GAS  /var/folders/5n/p_75w94d66l9ssrldxqdhh700000gn/T//cc9o6Lzj.s 			page 57


 3167 01f0 0200     		.2byte	0x2
 3168 01f2 7D       		.byte	0x7d
 3169 01f3 10       		.sleb128 16
 3170 01f4 00000000 		.4byte	0
 3171 01f8 00000000 		.4byte	0
 3172              	.LLST18:
 3173 01fc 00000000 		.4byte	.LVL25
 3174 0200 06000000 		.4byte	.LVL26
 3175 0204 0100     		.2byte	0x1
 3176 0206 50       		.byte	0x50
 3177 0207 06000000 		.4byte	.LVL26
 3178 020b 34000000 		.4byte	.LFE15
 3179 020f 0100     		.2byte	0x1
 3180 0211 55       		.byte	0x55
 3181 0212 00000000 		.4byte	0
 3182 0216 00000000 		.4byte	0
 3183              	.LLST19:
 3184 021a 00000000 		.4byte	.LVL27
 3185 021e 02000000 		.4byte	.LVL28
 3186 0222 0100     		.2byte	0x1
 3187 0224 50       		.byte	0x50
 3188 0225 00000000 		.4byte	0
 3189 0229 00000000 		.4byte	0
 3190              	.LLST20:
 3191 022d 00000000 		.4byte	.LVL27
 3192 0231 09000000 		.4byte	.LVL29-1
 3193 0235 0100     		.2byte	0x1
 3194 0237 51       		.byte	0x51
 3195 0238 00000000 		.4byte	0
 3196 023c 00000000 		.4byte	0
 3197              	.LLST21:
 3198 0240 00000000 		.4byte	.LFB17
 3199 0244 04000000 		.4byte	.LCFI5
 3200 0248 0200     		.2byte	0x2
 3201 024a 7D       		.byte	0x7d
 3202 024b 00       		.sleb128 0
 3203 024c 04000000 		.4byte	.LCFI5
 3204 0250 28000000 		.4byte	.LFE17
 3205 0254 0200     		.2byte	0x2
 3206 0256 7D       		.byte	0x7d
 3207 0257 08       		.sleb128 8
 3208 0258 00000000 		.4byte	0
 3209 025c 00000000 		.4byte	0
 3210              	.LLST22:
 3211 0260 00000000 		.4byte	.LVL30
 3212 0264 06000000 		.4byte	.LVL31
 3213 0268 0100     		.2byte	0x1
 3214 026a 50       		.byte	0x50
 3215 026b 00000000 		.4byte	0
 3216 026f 00000000 		.4byte	0
 3217              	.LLST23:
 3218 0273 00000000 		.4byte	.LVL30
 3219 0277 09000000 		.4byte	.LVL32-1
 3220 027b 0100     		.2byte	0x1
 3221 027d 51       		.byte	0x51
 3222 027e 00000000 		.4byte	0
 3223 0282 00000000 		.4byte	0
ARM GAS  /var/folders/5n/p_75w94d66l9ssrldxqdhh700000gn/T//cc9o6Lzj.s 			page 58


 3224              	.LLST24:
 3225 0286 00000000 		.4byte	.LFB18
 3226 028a 02000000 		.4byte	.LCFI6
 3227 028e 0200     		.2byte	0x2
 3228 0290 7D       		.byte	0x7d
 3229 0291 00       		.sleb128 0
 3230 0292 02000000 		.4byte	.LCFI6
 3231 0296 34000000 		.4byte	.LFE18
 3232 029a 0200     		.2byte	0x2
 3233 029c 7D       		.byte	0x7d
 3234 029d 10       		.sleb128 16
 3235 029e 00000000 		.4byte	0
 3236 02a2 00000000 		.4byte	0
 3237              	.LLST25:
 3238 02a6 00000000 		.4byte	.LVL33
 3239 02aa 0C000000 		.4byte	.LVL36
 3240 02ae 0100     		.2byte	0x1
 3241 02b0 50       		.byte	0x50
 3242 02b1 00000000 		.4byte	0
 3243 02b5 00000000 		.4byte	0
 3244              	.LLST26:
 3245 02b9 00000000 		.4byte	.LVL33
 3246 02bd 19000000 		.4byte	.LVL39-1
 3247 02c1 0100     		.2byte	0x1
 3248 02c3 51       		.byte	0x51
 3249 02c4 00000000 		.4byte	0
 3250 02c8 00000000 		.4byte	0
 3251              	.LLST27:
 3252 02cc 00000000 		.4byte	.LVL33
 3253 02d0 16000000 		.4byte	.LVL38
 3254 02d4 0100     		.2byte	0x1
 3255 02d6 52       		.byte	0x52
 3256 02d7 00000000 		.4byte	0
 3257 02db 00000000 		.4byte	0
 3258              	.LLST28:
 3259 02df 0E000000 		.4byte	.LVL37
 3260 02e3 20000000 		.4byte	.LVL40
 3261 02e7 0100     		.2byte	0x1
 3262 02e9 55       		.byte	0x55
 3263 02ea 20000000 		.4byte	.LVL40
 3264 02ee 28000000 		.4byte	.LVL43
 3265 02f2 0100     		.2byte	0x1
 3266 02f4 50       		.byte	0x50
 3267 02f5 28000000 		.4byte	.LVL43
 3268 02f9 2C000000 		.4byte	.LVL44
 3269 02fd 0100     		.2byte	0x1
 3270 02ff 55       		.byte	0x55
 3271 0300 2C000000 		.4byte	.LVL44
 3272 0304 34000000 		.4byte	.LFE18
 3273 0308 0100     		.2byte	0x1
 3274 030a 50       		.byte	0x50
 3275 030b 00000000 		.4byte	0
 3276 030f 00000000 		.4byte	0
 3277              	.LLST29:
 3278 0313 08000000 		.4byte	.LVL35
 3279 0317 16000000 		.4byte	.LVL38
 3280 031b 0E00     		.2byte	0xe
ARM GAS  /var/folders/5n/p_75w94d66l9ssrldxqdhh700000gn/T//cc9o6Lzj.s 			page 59


 3281 031d 72       		.byte	0x72
 3282 031e 00       		.sleb128 0
 3283 031f 09       		.byte	0x9
 3284 0320 FF       		.byte	0xff
 3285 0321 72       		.byte	0x72
 3286 0322 00       		.sleb128 0
 3287 0323 30       		.byte	0x30
 3288 0324 2E       		.byte	0x2e
 3289 0325 28       		.byte	0x28
 3290 0326 0100     		.2byte	0x1
 3291 0328 16       		.byte	0x16
 3292 0329 13       		.byte	0x13
 3293 032a 9F       		.byte	0x9f
 3294 032b 16000000 		.4byte	.LVL38
 3295 032f 19000000 		.4byte	.LVL39-1
 3296 0333 0100     		.2byte	0x1
 3297 0335 52       		.byte	0x52
 3298 0336 00000000 		.4byte	0
 3299 033a 00000000 		.4byte	0
 3300              	.LLST30:
 3301 033e 08000000 		.4byte	.LVL35
 3302 0342 19000000 		.4byte	.LVL39-1
 3303 0346 0100     		.2byte	0x1
 3304 0348 53       		.byte	0x53
 3305 0349 00000000 		.4byte	0
 3306 034d 00000000 		.4byte	0
 3307              	.LLST31:
 3308 0351 26000000 		.4byte	.LVL42
 3309 0355 28000000 		.4byte	.LVL43
 3310 0359 0100     		.2byte	0x1
 3311 035b 53       		.byte	0x53
 3312 035c 00000000 		.4byte	0
 3313 0360 00000000 		.4byte	0
 3314              	.LLST32:
 3315 0364 00000000 		.4byte	.LFB19
 3316 0368 02000000 		.4byte	.LCFI7
 3317 036c 0200     		.2byte	0x2
 3318 036e 7D       		.byte	0x7d
 3319 036f 00       		.sleb128 0
 3320 0370 02000000 		.4byte	.LCFI7
 3321 0374 18000000 		.4byte	.LFE19
 3322 0378 0200     		.2byte	0x2
 3323 037a 7D       		.byte	0x7d
 3324 037b 08       		.sleb128 8
 3325 037c 00000000 		.4byte	0
 3326 0380 00000000 		.4byte	0
 3327              	.LLST33:
 3328 0384 00000000 		.4byte	.LVL45
 3329 0388 06000000 		.4byte	.LVL46
 3330 038c 0100     		.2byte	0x1
 3331 038e 50       		.byte	0x50
 3332 038f 00000000 		.4byte	0
 3333 0393 00000000 		.4byte	0
 3334              	.LLST34:
 3335 0397 00000000 		.4byte	.LVL45
 3336 039b 09000000 		.4byte	.LVL47-1
 3337 039f 0100     		.2byte	0x1
ARM GAS  /var/folders/5n/p_75w94d66l9ssrldxqdhh700000gn/T//cc9o6Lzj.s 			page 60


 3338 03a1 51       		.byte	0x51
 3339 03a2 00000000 		.4byte	0
 3340 03a6 00000000 		.4byte	0
 3341              	.LLST35:
 3342 03aa 00000000 		.4byte	.LVL48
 3343 03ae 02000000 		.4byte	.LVL49
 3344 03b2 0100     		.2byte	0x1
 3345 03b4 50       		.byte	0x50
 3346 03b5 00000000 		.4byte	0
 3347 03b9 00000000 		.4byte	0
 3348              	.LLST36:
 3349 03bd 00000000 		.4byte	.LFB22
 3350 03c1 04000000 		.4byte	.LCFI8
 3351 03c5 0200     		.2byte	0x2
 3352 03c7 7D       		.byte	0x7d
 3353 03c8 00       		.sleb128 0
 3354 03c9 04000000 		.4byte	.LCFI8
 3355 03cd 30000000 		.4byte	.LFE22
 3356 03d1 0200     		.2byte	0x2
 3357 03d3 7D       		.byte	0x7d
 3358 03d4 18       		.sleb128 24
 3359 03d5 00000000 		.4byte	0
 3360 03d9 00000000 		.4byte	0
 3361              	.LLST37:
 3362 03dd 00000000 		.4byte	.LVL51
 3363 03e1 10000000 		.4byte	.LVL53
 3364 03e5 0100     		.2byte	0x1
 3365 03e7 50       		.byte	0x50
 3366 03e8 00000000 		.4byte	0
 3367 03ec 00000000 		.4byte	0
 3368              	.LLST38:
 3369 03f0 00000000 		.4byte	.LVL51
 3370 03f4 19000000 		.4byte	.LVL54-1
 3371 03f8 0100     		.2byte	0x1
 3372 03fa 51       		.byte	0x51
 3373 03fb 19000000 		.4byte	.LVL54-1
 3374 03ff 30000000 		.4byte	.LFE22
 3375 0403 0100     		.2byte	0x1
 3376 0405 56       		.byte	0x56
 3377 0406 00000000 		.4byte	0
 3378 040a 00000000 		.4byte	0
 3379              	.LLST39:
 3380 040e 00000000 		.4byte	.LVL51
 3381 0412 19000000 		.4byte	.LVL54-1
 3382 0416 0100     		.2byte	0x1
 3383 0418 52       		.byte	0x52
 3384 0419 19000000 		.4byte	.LVL54-1
 3385 041d 30000000 		.4byte	.LFE22
 3386 0421 0100     		.2byte	0x1
 3387 0423 54       		.byte	0x54
 3388 0424 00000000 		.4byte	0
 3389 0428 00000000 		.4byte	0
 3390              	.LLST40:
 3391 042c 00000000 		.4byte	.LVL51
 3392 0430 19000000 		.4byte	.LVL54-1
 3393 0434 0100     		.2byte	0x1
 3394 0436 53       		.byte	0x53
ARM GAS  /var/folders/5n/p_75w94d66l9ssrldxqdhh700000gn/T//cc9o6Lzj.s 			page 61


 3395 0437 00000000 		.4byte	0
 3396 043b 00000000 		.4byte	0
 3397              	.LLST41:
 3398 043f 1A000000 		.4byte	.LVL54
 3399 0443 2B000000 		.4byte	.LVL55-1
 3400 0447 0100     		.2byte	0x1
 3401 0449 50       		.byte	0x50
 3402 044a 2C000000 		.4byte	.LVL55
 3403 044e 30000000 		.4byte	.LFE22
 3404 0452 0100     		.2byte	0x1
 3405 0454 50       		.byte	0x50
 3406 0455 00000000 		.4byte	0
 3407 0459 00000000 		.4byte	0
 3408              	.LLST42:
 3409 045d 06000000 		.4byte	.LVL57
 3410 0461 0A000000 		.4byte	.LFE23
 3411 0465 0100     		.2byte	0x1
 3412 0467 53       		.byte	0x53
 3413 0468 00000000 		.4byte	0
 3414 046c 00000000 		.4byte	0
 3415              	.LLST43:
 3416 0470 06000000 		.4byte	.LVL60
 3417 0474 08000000 		.4byte	.LFE24
 3418 0478 0100     		.2byte	0x1
 3419 047a 53       		.byte	0x53
 3420 047b 00000000 		.4byte	0
 3421 047f 00000000 		.4byte	0
 3422              		.section	.debug_aranges,"",%progbits
 3423 0000 A4000000 		.4byte	0xa4
 3424 0004 0200     		.2byte	0x2
 3425 0006 00000000 		.4byte	.Ldebug_info0
 3426 000a 04       		.byte	0x4
 3427 000b 00       		.byte	0
 3428 000c 0000     		.2byte	0
 3429 000e 0000     		.2byte	0
 3430 0010 00000000 		.4byte	.LFB7
 3431 0014 02000000 		.4byte	.LFE7-.LFB7
 3432 0018 00000000 		.4byte	.LFB8
 3433 001c 4C000000 		.4byte	.LFE8-.LFB8
 3434 0020 00000000 		.4byte	.LFB9
 3435 0024 22000000 		.4byte	.LFE9-.LFB9
 3436 0028 00000000 		.4byte	.LFB10
 3437 002c 06000000 		.4byte	.LFE10-.LFB10
 3438 0030 00000000 		.4byte	.LFB11
 3439 0034 34000000 		.4byte	.LFE11-.LFB11
 3440 0038 00000000 		.4byte	.LFB12
 3441 003c 0A000000 		.4byte	.LFE12-.LFB12
 3442 0040 00000000 		.4byte	.LFB13
 3443 0044 06000000 		.4byte	.LFE13-.LFB13
 3444 0048 00000000 		.4byte	.LFB14
 3445 004c 48000000 		.4byte	.LFE14-.LFB14
 3446 0050 00000000 		.4byte	.LFB15
 3447 0054 34000000 		.4byte	.LFE15-.LFB15
 3448 0058 00000000 		.4byte	.LFB16
 3449 005c 0A000000 		.4byte	.LFE16-.LFB16
 3450 0060 00000000 		.4byte	.LFB17
 3451 0064 28000000 		.4byte	.LFE17-.LFB17
ARM GAS  /var/folders/5n/p_75w94d66l9ssrldxqdhh700000gn/T//cc9o6Lzj.s 			page 62


 3452 0068 00000000 		.4byte	.LFB18
 3453 006c 34000000 		.4byte	.LFE18-.LFB18
 3454 0070 00000000 		.4byte	.LFB19
 3455 0074 18000000 		.4byte	.LFE19-.LFB19
 3456 0078 00000000 		.4byte	.LFB20
 3457 007c 0A000000 		.4byte	.LFE20-.LFB20
 3458 0080 00000000 		.4byte	.LFB21
 3459 0084 06000000 		.4byte	.LFE21-.LFB21
 3460 0088 00000000 		.4byte	.LFB22
 3461 008c 30000000 		.4byte	.LFE22-.LFB22
 3462 0090 00000000 		.4byte	.LFB23
 3463 0094 0A000000 		.4byte	.LFE23-.LFB23
 3464 0098 00000000 		.4byte	.LFB24
 3465 009c 08000000 		.4byte	.LFE24-.LFB24
 3466 00a0 00000000 		.4byte	0
 3467 00a4 00000000 		.4byte	0
 3468              		.section	.debug_ranges,"",%progbits
 3469              	.Ldebug_ranges0:
 3470 0000 00000000 		.4byte	.LFB7
 3471 0004 02000000 		.4byte	.LFE7
 3472 0008 00000000 		.4byte	.LFB8
 3473 000c 4C000000 		.4byte	.LFE8
 3474 0010 00000000 		.4byte	.LFB9
 3475 0014 22000000 		.4byte	.LFE9
 3476 0018 00000000 		.4byte	.LFB10
 3477 001c 06000000 		.4byte	.LFE10
 3478 0020 00000000 		.4byte	.LFB11
 3479 0024 34000000 		.4byte	.LFE11
 3480 0028 00000000 		.4byte	.LFB12
 3481 002c 0A000000 		.4byte	.LFE12
 3482 0030 00000000 		.4byte	.LFB13
 3483 0034 06000000 		.4byte	.LFE13
 3484 0038 00000000 		.4byte	.LFB14
 3485 003c 48000000 		.4byte	.LFE14
 3486 0040 00000000 		.4byte	.LFB15
 3487 0044 34000000 		.4byte	.LFE15
 3488 0048 00000000 		.4byte	.LFB16
 3489 004c 0A000000 		.4byte	.LFE16
 3490 0050 00000000 		.4byte	.LFB17
 3491 0054 28000000 		.4byte	.LFE17
 3492 0058 00000000 		.4byte	.LFB18
 3493 005c 34000000 		.4byte	.LFE18
 3494 0060 00000000 		.4byte	.LFB19
 3495 0064 18000000 		.4byte	.LFE19
 3496 0068 00000000 		.4byte	.LFB20
 3497 006c 0A000000 		.4byte	.LFE20
 3498 0070 00000000 		.4byte	.LFB21
 3499 0074 06000000 		.4byte	.LFE21
 3500 0078 00000000 		.4byte	.LFB22
 3501 007c 30000000 		.4byte	.LFE22
 3502 0080 00000000 		.4byte	.LFB23
 3503 0084 0A000000 		.4byte	.LFE23
 3504 0088 00000000 		.4byte	.LFB24
 3505 008c 08000000 		.4byte	.LFE24
 3506 0090 00000000 		.4byte	0
 3507 0094 00000000 		.4byte	0
 3508              		.section	.debug_line,"",%progbits
ARM GAS  /var/folders/5n/p_75w94d66l9ssrldxqdhh700000gn/T//cc9o6Lzj.s 			page 63


 3509              	.Ldebug_line0:
 3510 0000 64030000 		.section	.debug_str,"MS",%progbits,1
 3510      0200D801 
 3510      00000201 
 3510      FB0E0D00 
 3510      01010101 
 3511              	.LASF49:
 3512 0000 76746675 		.ascii	"vtfunc_t\000"
 3512      6E635F74 
 3512      00
 3513              	.LASF45:
 3514 0009 54687265 		.ascii	"ThreadsList\000"
 3514      6164734C 
 3514      69737400 
 3515              	.LASF37:
 3516 0015 705F7761 		.ascii	"p_waiting\000"
 3516      6974696E 
 3516      6700
 3517              	.LASF36:
 3518 001f 705F7469 		.ascii	"p_time\000"
 3518      6D6500
 3519              	.LASF46:
 3520 0026 72656761 		.ascii	"regarm_t\000"
 3520      726D5F74 
 3520      00
 3521              	.LASF27:
 3522 002f 705F7072 		.ascii	"p_prio\000"
 3522      696F00
 3523              	.LASF22:
 3524 0036 73797374 		.ascii	"systime_t\000"
 3524      696D655F 
 3524      7400
 3525              	.LASF63:
 3526 0040 6D5F6F77 		.ascii	"m_owner\000"
 3526      6E657200 
 3527              	.LASF59:
 3528 0048 735F7175 		.ascii	"s_queue\000"
 3528      65756500 
 3529              	.LASF56:
 3530 0050 76745F73 		.ascii	"vt_systime\000"
 3530      79737469 
 3530      6D6500
 3531              	.LASF131:
 3532 005b 7379735F 		.ascii	"sys_mbox_set_invalid\000"
 3532      6D626F78 
 3532      5F736574 
 3532      5F696E76 
 3532      616C6964 
 3533              	.LASF38:
 3534 0070 705F6D73 		.ascii	"p_msgqueue\000"
 3534      67717565 
 3534      756500
 3535              	.LASF0:
 3536 007b 756E7369 		.ascii	"unsigned int\000"
 3536      676E6564 
 3536      20696E74 
 3536      00
ARM GAS  /var/folders/5n/p_75w94d66l9ssrldxqdhh700000gn/T//cc9o6Lzj.s 			page 64


 3537              	.LASF132:
 3538 0088 7379735F 		.ascii	"sys_thread_new\000"
 3538      74687265 
 3538      61645F6E 
 3538      657700
 3539              	.LASF83:
 3540 0097 6572725F 		.ascii	"err_t\000"
 3540      7400
 3541              	.LASF80:
 3542 009d 7531365F 		.ascii	"u16_t\000"
 3542      7400
 3543              	.LASF74:
 3544 00a3 77746F62 		.ascii	"wtobjp\000"
 3544      6A7000
 3545              	.LASF140:
 3546 00aa 76746C69 		.ascii	"vtlist\000"
 3546      737400
 3547              	.LASF100:
 3548 00b1 73746174 		.ascii	"stats_mem\000"
 3548      735F6D65 
 3548      6D00
 3549              	.LASF75:
 3550 00bb 65776D61 		.ascii	"ewmask\000"
 3550      736B00
 3551              	.LASF71:
 3552 00c2 4D61696C 		.ascii	"Mailbox\000"
 3552      626F7800 
 3553              	.LASF141:
 3554 00ca 6C776970 		.ascii	"lwip_stats\000"
 3554      5F737461 
 3554      747300
 3555              	.LASF60:
 3556 00d5 735F636E 		.ascii	"s_cnt\000"
 3556      7400
 3557              	.LASF104:
 3558 00db 73746174 		.ascii	"stats_syselem\000"
 3558      735F7379 
 3558      73656C65 
 3558      6D00
 3559              	.LASF138:
 3560 00e9 7379735F 		.ascii	"sys_arch_unprotect\000"
 3560      61726368 
 3560      5F756E70 
 3560      726F7465 
 3560      637400
 3561              	.LASF53:
 3562 00fc 76745F74 		.ascii	"vt_time\000"
 3562      696D6500 
 3563              	.LASF11:
 3564 0104 75696E74 		.ascii	"uint32_t\000"
 3564      33325F74 
 3564      00
 3565              	.LASF2:
 3566 010d 696E7438 		.ascii	"int8_t\000"
 3566      5F7400
 3567              	.LASF21:
 3568 0114 6576656E 		.ascii	"eventmask_t\000"
ARM GAS  /var/folders/5n/p_75w94d66l9ssrldxqdhh700000gn/T//cc9o6Lzj.s 			page 65


 3568      746D6173 
 3568      6B5F7400 
 3569              	.LASF55:
 3570 0120 76745F70 		.ascii	"vt_par\000"
 3570      617200
 3571              	.LASF98:
 3572 0127 6F707465 		.ascii	"opterr\000"
 3572      727200
 3573              	.LASF106:
 3574 012e 6D757465 		.ascii	"mutex\000"
 3574      7800
 3575              	.LASF111:
 3576 0134 69705F66 		.ascii	"ip_frag\000"
 3576      72616700 
 3577              	.LASF19:
 3578 013c 74707269 		.ascii	"tprio_t\000"
 3578      6F5F7400 
 3579              	.LASF114:
 3580 0144 636F756E 		.ascii	"count\000"
 3580      7400
 3581              	.LASF103:
 3582 014a 696C6C65 		.ascii	"illegal\000"
 3582      67616C00 
 3583              	.LASF86:
 3584 0152 7379735F 		.ascii	"sys_thread_t\000"
 3584      74687265 
 3584      61645F74 
 3584      00
 3585              	.LASF77:
 3586 015f 7466756E 		.ascii	"tfunc_t\000"
 3586      635F7400 
 3587              	.LASF110:
 3588 0167 65746861 		.ascii	"etharp\000"
 3588      727000
 3589              	.LASF14:
 3590 016e 6C6F6E67 		.ascii	"long long unsigned int\000"
 3590      206C6F6E 
 3590      6720756E 
 3590      7369676E 
 3590      65642069 
 3591              	.LASF23:
 3592 0185 636E745F 		.ascii	"cnt_t\000"
 3592      7400
 3593              	.LASF88:
 3594 018b 6C776970 		.ascii	"lwip_thread_fn\000"
 3594      5F746872 
 3594      6561645F 
 3594      666E00
 3595              	.LASF120:
 3596 019a 74696D65 		.ascii	"time\000"
 3596      00
 3597              	.LASF29:
 3598 019f 705F6E65 		.ascii	"p_newer\000"
 3598      77657200 
 3599              	.LASF116:
 3600 01a7 7379735F 		.ascii	"sys_sem_signal\000"
 3600      73656D5F 
ARM GAS  /var/folders/5n/p_75w94d66l9ssrldxqdhh700000gn/T//cc9o6Lzj.s 			page 66


 3600      7369676E 
 3600      616C00
 3601              	.LASF102:
 3602 01b6 75736564 		.ascii	"used\000"
 3602      00
 3603              	.LASF108:
 3604 01bb 73746174 		.ascii	"stats_\000"
 3604      735F00
 3605              	.LASF125:
 3606 01c2 7379735F 		.ascii	"sys_mbox_free\000"
 3606      6D626F78 
 3606      5F667265 
 3606      6500
 3607              	.LASF143:
 3608 01d0 2E2E2F2E 		.ascii	"../../os/various/lwip_bindings/arch/sys_arch.c\000"
 3608      2E2F6F73 
 3608      2F766172 
 3608      696F7573 
 3608      2F6C7769 
 3609              	.LASF1:
 3610 01ff 73697A65 		.ascii	"size_t\000"
 3610      5F7400
 3611              	.LASF72:
 3612 0206 7264796D 		.ascii	"rdymsg\000"
 3612      736700
 3613              	.LASF68:
 3614 020d 6D625F72 		.ascii	"mb_rdptr\000"
 3614      64707472 
 3614      00
 3615              	.LASF84:
 3616 0216 7379735F 		.ascii	"sys_sem_t\000"
 3616      73656D5F 
 3616      7400
 3617              	.LASF79:
 3618 0220 73385F74 		.ascii	"s8_t\000"
 3618      00
 3619              	.LASF61:
 3620 0225 4D757465 		.ascii	"Mutex\000"
 3620      7800
 3621              	.LASF70:
 3622 022b 6D625F65 		.ascii	"mb_emptysem\000"
 3622      6D707479 
 3622      73656D00 
 3623              	.LASF122:
 3624 0237 7379735F 		.ascii	"sys_sem_set_invalid\000"
 3624      73656D5F 
 3624      7365745F 
 3624      696E7661 
 3624      6C696400 
 3625              	.LASF145:
 3626 024b 7379735F 		.ascii	"sys_init\000"
 3626      696E6974 
 3626      00
 3627              	.LASF31:
 3628 0254 705F6E61 		.ascii	"p_name\000"
 3628      6D6500
 3629              	.LASF136:
ARM GAS  /var/folders/5n/p_75w94d66l9ssrldxqdhh700000gn/T//cc9o6Lzj.s 			page 67


 3630 025b 7072696F 		.ascii	"prio\000"
 3630      00
 3631              	.LASF44:
 3632 0260 54687265 		.ascii	"ThreadsQueue\000"
 3632      61647351 
 3632      75657565 
 3632      00
 3633              	.LASF76:
 3634 026d 63686172 		.ascii	"char\000"
 3634      00
 3635              	.LASF142:
 3636 0272 474E5520 		.ascii	"GNU C 4.6.2 20111004 (prerelease)\000"
 3636      4320342E 
 3636      362E3220 
 3636      32303131 
 3636      31303034 
 3637              	.LASF82:
 3638 0294 6D656D5F 		.ascii	"mem_size_t\000"
 3638      73697A65 
 3638      5F7400
 3639              	.LASF89:
 3640 029f 73746174 		.ascii	"stats_proto\000"
 3640      735F7072 
 3640      6F746F00 
 3641              	.LASF87:
 3642 02ab 7379735F 		.ascii	"sys_prot_t\000"
 3642      70726F74 
 3642      5F7400
 3643              	.LASF24:
 3644 02b6 54687265 		.ascii	"Thread\000"
 3644      616400
 3645              	.LASF16:
 3646 02bd 74737461 		.ascii	"tstate_t\000"
 3646      74655F74 
 3646      00
 3647              	.LASF57:
 3648 02c6 56544C69 		.ascii	"VTList\000"
 3648      737400
 3649              	.LASF30:
 3650 02cd 705F6F6C 		.ascii	"p_older\000"
 3650      64657200 
 3651              	.LASF32:
 3652 02d5 705F7374 		.ascii	"p_state\000"
 3652      61746500 
 3653              	.LASF4:
 3654 02dd 75696E74 		.ascii	"uint8_t\000"
 3654      385F7400 
 3655              	.LASF69:
 3656 02e5 6D625F66 		.ascii	"mb_fullsem\000"
 3656      756C6C73 
 3656      656D00
 3657              	.LASF139:
 3658 02f0 7076616C 		.ascii	"pval\000"
 3658      00
 3659              	.LASF135:
 3660 02f5 73746163 		.ascii	"stacksize\000"
 3660      6B73697A 
ARM GAS  /var/folders/5n/p_75w94d66l9ssrldxqdhh700000gn/T//cc9o6Lzj.s 			page 68


 3660      6500
 3661              	.LASF43:
 3662 02ff 705F6D70 		.ascii	"p_mpool\000"
 3662      6F6F6C00 
 3663              	.LASF41:
 3664 0307 705F6D74 		.ascii	"p_mtxlist\000"
 3664      786C6973 
 3664      7400
 3665              	.LASF13:
 3666 0311 6C6F6E67 		.ascii	"long long int\000"
 3666      206C6F6E 
 3666      6720696E 
 3666      7400
 3667              	.LASF128:
 3668 031f 7379735F 		.ascii	"sys_arch_mbox_fetch\000"
 3668      61726368 
 3668      5F6D626F 
 3668      785F6665 
 3668      74636800 
 3669              	.LASF117:
 3670 0333 7379735F 		.ascii	"sys_sem_new\000"
 3670      73656D5F 
 3670      6E657700 
 3671              	.LASF20:
 3672 033f 6D73675F 		.ascii	"msg_t\000"
 3672      7400
 3673              	.LASF48:
 3674 0345 636F6E74 		.ascii	"context\000"
 3674      65787400 
 3675              	.LASF78:
 3676 034d 75385F74 		.ascii	"u8_t\000"
 3676      00
 3677              	.LASF33:
 3678 0352 705F666C 		.ascii	"p_flags\000"
 3678      61677300 
 3679              	.LASF144:
 3680 035a 2F557365 		.ascii	"/Users/sin/Documents/Eclipse/Workspace/mabl-ChibiOS"
 3680      72732F73 
 3680      696E2F44 
 3680      6F63756D 
 3680      656E7473 
 3681 038d 2D322E35 		.ascii	"-2.5.1/demos/ARMCM4-STM32F407-LWIP\000"
 3681      2E312F64 
 3681      656D6F73 
 3681      2F41524D 
 3681      434D342D 
 3682              	.LASF129:
 3683 03b0 7379735F 		.ascii	"sys_arch_mbox_tryfetch\000"
 3683      61726368 
 3683      5F6D626F 
 3683      785F7472 
 3683      79666574 
 3684              	.LASF124:
 3685 03c7 73697A65 		.ascii	"size\000"
 3685      00
 3686              	.LASF66:
 3687 03cc 6D625F74 		.ascii	"mb_top\000"
ARM GAS  /var/folders/5n/p_75w94d66l9ssrldxqdhh700000gn/T//cc9o6Lzj.s 			page 69


 3687      6F7000
 3688              	.LASF130:
 3689 03d3 7379735F 		.ascii	"sys_mbox_valid\000"
 3689      6D626F78 
 3689      5F76616C 
 3689      696400
 3690              	.LASF93:
 3691 03e2 63686B65 		.ascii	"chkerr\000"
 3691      727200
 3692              	.LASF18:
 3693 03e9 74736C69 		.ascii	"tslices_t\000"
 3693      6365735F 
 3693      7400
 3694              	.LASF95:
 3695 03f3 6D656D65 		.ascii	"memerr\000"
 3695      727200
 3696              	.LASF39:
 3697 03fa 705F6D73 		.ascii	"p_msg\000"
 3697      6700
 3698              	.LASF15:
 3699 0400 746D6F64 		.ascii	"tmode_t\000"
 3699      655F7400 
 3700              	.LASF127:
 3701 0408 7379735F 		.ascii	"sys_mbox_trypost\000"
 3701      6D626F78 
 3701      5F747279 
 3701      706F7374 
 3701      00
 3702              	.LASF7:
 3703 0419 75696E74 		.ascii	"uint16_t\000"
 3703      31365F74 
 3703      00
 3704              	.LASF47:
 3705 0422 696E7463 		.ascii	"intctx\000"
 3705      747800
 3706              	.LASF119:
 3707 0429 74696D65 		.ascii	"timeout\000"
 3707      6F757400 
 3708              	.LASF94:
 3709 0431 6C656E65 		.ascii	"lenerr\000"
 3709      727200
 3710              	.LASF42:
 3711 0438 705F7265 		.ascii	"p_realprio\000"
 3711      616C7072 
 3711      696F00
 3712              	.LASF81:
 3713 0443 7533325F 		.ascii	"u32_t\000"
 3713      7400
 3714              	.LASF6:
 3715 0449 73686F72 		.ascii	"short int\000"
 3715      7420696E 
 3715      7400
 3716              	.LASF112:
 3717 0453 69636D70 		.ascii	"icmp\000"
 3717      00
 3718              	.LASF67:
 3719 0458 6D625F77 		.ascii	"mb_wrptr\000"
ARM GAS  /var/folders/5n/p_75w94d66l9ssrldxqdhh700000gn/T//cc9o6Lzj.s 			page 70


 3719      72707472 
 3719      00
 3720              	.LASF40:
 3721 0461 705F6570 		.ascii	"p_epending\000"
 3721      656E6469 
 3721      6E6700
 3722              	.LASF62:
 3723 046c 6D5F7175 		.ascii	"m_queue\000"
 3723      65756500 
 3724              	.LASF10:
 3725 0474 6C6F6E67 		.ascii	"long int\000"
 3725      20696E74 
 3725      00
 3726              	.LASF96:
 3727 047d 72746572 		.ascii	"rterr\000"
 3727      7200
 3728              	.LASF101:
 3729 0483 61766169 		.ascii	"avail\000"
 3729      6C00
 3730              	.LASF25:
 3731 0489 705F6E65 		.ascii	"p_next\000"
 3731      787400
 3732              	.LASF28:
 3733 0490 705F6374 		.ascii	"p_ctx\000"
 3733      7800
 3734              	.LASF107:
 3735 0496 6D626F78 		.ascii	"mbox\000"
 3735      00
 3736              	.LASF118:
 3737 049b 7379735F 		.ascii	"sys_arch_sem_wait\000"
 3737      61726368 
 3737      5F73656D 
 3737      5F776169 
 3737      7400
 3738              	.LASF99:
 3739 04ad 63616368 		.ascii	"cachehit\000"
 3739      65686974 
 3739      00
 3740              	.LASF50:
 3741 04b6 56697274 		.ascii	"VirtualTimer\000"
 3741      75616C54 
 3741      696D6572 
 3741      00
 3742              	.LASF58:
 3743 04c3 53656D61 		.ascii	"Semaphore\000"
 3743      70686F72 
 3743      6500
 3744              	.LASF133:
 3745 04cd 6E616D65 		.ascii	"name\000"
 3745      00
 3746              	.LASF137:
 3747 04d2 7379735F 		.ascii	"sys_arch_protect\000"
 3747      61726368 
 3747      5F70726F 
 3747      74656374 
 3747      00
 3748              	.LASF115:
ARM GAS  /var/folders/5n/p_75w94d66l9ssrldxqdhh700000gn/T//cc9o6Lzj.s 			page 71


 3749 04e3 7379735F 		.ascii	"sys_sem_free\000"
 3749      73656D5F 
 3749      66726565 
 3749      00
 3750              	.LASF113:
 3751 04f0 6D656D70 		.ascii	"memp\000"
 3751      00
 3752              	.LASF26:
 3753 04f5 705F7072 		.ascii	"p_prev\000"
 3753      657600
 3754              	.LASF85:
 3755 04fc 7379735F 		.ascii	"sys_mbox_t\000"
 3755      6D626F78 
 3755      5F7400
 3756              	.LASF17:
 3757 0507 74726566 		.ascii	"trefs_t\000"
 3757      735F7400 
 3758              	.LASF12:
 3759 050f 6C6F6E67 		.ascii	"long unsigned int\000"
 3759      20756E73 
 3759      69676E65 
 3759      6420696E 
 3759      7400
 3760              	.LASF65:
 3761 0521 6D625F62 		.ascii	"mb_buffer\000"
 3761      75666665 
 3761      7200
 3762              	.LASF9:
 3763 052b 696E7433 		.ascii	"int32_t\000"
 3763      325F7400 
 3764              	.LASF134:
 3765 0533 74687265 		.ascii	"thread\000"
 3765      616400
 3766              	.LASF97:
 3767 053a 70726F74 		.ascii	"proterr\000"
 3767      65727200 
 3768              	.LASF126:
 3769 0542 7379735F 		.ascii	"sys_mbox_post\000"
 3769      6D626F78 
 3769      5F706F73 
 3769      7400
 3770              	.LASF105:
 3771 0550 73746174 		.ascii	"stats_sys\000"
 3771      735F7379 
 3771      7300
 3772              	.LASF5:
 3773 055a 756E7369 		.ascii	"unsigned char\000"
 3773      676E6564 
 3773      20636861 
 3773      7200
 3774              	.LASF34:
 3775 0568 705F7265 		.ascii	"p_refs\000"
 3775      667300
 3776              	.LASF109:
 3777 056f 6C696E6B 		.ascii	"link\000"
 3777      00
 3778              	.LASF35:
ARM GAS  /var/folders/5n/p_75w94d66l9ssrldxqdhh700000gn/T//cc9o6Lzj.s 			page 72


 3779 0574 705F7072 		.ascii	"p_preempt\000"
 3779      65656D70 
 3779      7400
 3780              	.LASF92:
 3781 057e 64726F70 		.ascii	"drop\000"
 3781      00
 3782              	.LASF51:
 3783 0583 76745F6E 		.ascii	"vt_next\000"
 3783      65787400 
 3784              	.LASF121:
 3785 058b 7379735F 		.ascii	"sys_sem_valid\000"
 3785      73656D5F 
 3785      76616C69 
 3785      6400
 3786              	.LASF123:
 3787 0599 7379735F 		.ascii	"sys_mbox_new\000"
 3787      6D626F78 
 3787      5F6E6577 
 3787      00
 3788              	.LASF91:
 3789 05a6 72656376 		.ascii	"recv\000"
 3789      00
 3790              	.LASF64:
 3791 05ab 6D5F6E65 		.ascii	"m_next\000"
 3791      787400
 3792              	.LASF3:
 3793 05b2 7369676E 		.ascii	"signed char\000"
 3793      65642063 
 3793      68617200 
 3794              	.LASF8:
 3795 05be 73686F72 		.ascii	"short unsigned int\000"
 3795      7420756E 
 3795      7369676E 
 3795      65642069 
 3795      6E7400
 3796              	.LASF90:
 3797 05d1 786D6974 		.ascii	"xmit\000"
 3797      00
 3798              	.LASF54:
 3799 05d6 76745F66 		.ascii	"vt_func\000"
 3799      756E6300 
 3800              	.LASF52:
 3801 05de 76745F70 		.ascii	"vt_prev\000"
 3801      72657600 
 3802              	.LASF73:
 3803 05e6 65786974 		.ascii	"exitcode\000"
 3803      636F6465 
 3803      00
 3804              		.ident	"GCC: (Linaro GCC 4.6-2011.10) 4.6.2 20111004 (prerelease)"
ARM GAS  /var/folders/5n/p_75w94d66l9ssrldxqdhh700000gn/T//cc9o6Lzj.s 			page 73


DEFINED SYMBOLS
                            *ABS*:0000000000000000 sys_arch.c
/var/folders/5n/p_75w94d66l9ssrldxqdhh700000gn/T//cc9o6Lzj.s:18     .text.sys_init:0000000000000000 $t
/var/folders/5n/p_75w94d66l9ssrldxqdhh700000gn/T//cc9o6Lzj.s:24     .text.sys_init:0000000000000000 sys_init
/var/folders/5n/p_75w94d66l9ssrldxqdhh700000gn/T//cc9o6Lzj.s:38     .text.sys_sem_new:0000000000000000 $t
/var/folders/5n/p_75w94d66l9ssrldxqdhh700000gn/T//cc9o6Lzj.s:44     .text.sys_sem_new:0000000000000000 sys_sem_new
/var/folders/5n/p_75w94d66l9ssrldxqdhh700000gn/T//cc9o6Lzj.s:101    .text.sys_sem_new:0000000000000048 $d
/var/folders/5n/p_75w94d66l9ssrldxqdhh700000gn/T//cc9o6Lzj.s:106    .text.sys_sem_free:0000000000000000 $t
/var/folders/5n/p_75w94d66l9ssrldxqdhh700000gn/T//cc9o6Lzj.s:112    .text.sys_sem_free:0000000000000000 sys_sem_free
/var/folders/5n/p_75w94d66l9ssrldxqdhh700000gn/T//cc9o6Lzj.s:148    .text.sys_sem_signal:0000000000000000 $t
/var/folders/5n/p_75w94d66l9ssrldxqdhh700000gn/T//cc9o6Lzj.s:154    .text.sys_sem_signal:0000000000000000 sys_sem_signal
/var/folders/5n/p_75w94d66l9ssrldxqdhh700000gn/T//cc9o6Lzj.s:172    .text.sys_arch_sem_wait:0000000000000000 $t
/var/folders/5n/p_75w94d66l9ssrldxqdhh700000gn/T//cc9o6Lzj.s:178    .text.sys_arch_sem_wait:0000000000000000 sys_arch_sem_wait
/var/folders/5n/p_75w94d66l9ssrldxqdhh700000gn/T//cc9o6Lzj.s:244    .text.sys_arch_sem_wait:0000000000000030 $d
/var/folders/5n/p_75w94d66l9ssrldxqdhh700000gn/T//cc9o6Lzj.s:249    .text.sys_sem_valid:0000000000000000 $t
/var/folders/5n/p_75w94d66l9ssrldxqdhh700000gn/T//cc9o6Lzj.s:255    .text.sys_sem_valid:0000000000000000 sys_sem_valid
/var/folders/5n/p_75w94d66l9ssrldxqdhh700000gn/T//cc9o6Lzj.s:275    .text.sys_sem_set_invalid:0000000000000000 $t
/var/folders/5n/p_75w94d66l9ssrldxqdhh700000gn/T//cc9o6Lzj.s:281    .text.sys_sem_set_invalid:0000000000000000 sys_sem_set_invalid
/var/folders/5n/p_75w94d66l9ssrldxqdhh700000gn/T//cc9o6Lzj.s:298    .text.sys_mbox_new:0000000000000000 $t
/var/folders/5n/p_75w94d66l9ssrldxqdhh700000gn/T//cc9o6Lzj.s:304    .text.sys_mbox_new:0000000000000000 sys_mbox_new
/var/folders/5n/p_75w94d66l9ssrldxqdhh700000gn/T//cc9o6Lzj.s:361    .text.sys_mbox_new:0000000000000044 $d
/var/folders/5n/p_75w94d66l9ssrldxqdhh700000gn/T//cc9o6Lzj.s:366    .text.sys_mbox_free:0000000000000000 $t
/var/folders/5n/p_75w94d66l9ssrldxqdhh700000gn/T//cc9o6Lzj.s:372    .text.sys_mbox_free:0000000000000000 sys_mbox_free
/var/folders/5n/p_75w94d66l9ssrldxqdhh700000gn/T//cc9o6Lzj.s:421    .text.sys_mbox_free:0000000000000030 $d
/var/folders/5n/p_75w94d66l9ssrldxqdhh700000gn/T//cc9o6Lzj.s:426    .text.sys_mbox_post:0000000000000000 $t
/var/folders/5n/p_75w94d66l9ssrldxqdhh700000gn/T//cc9o6Lzj.s:432    .text.sys_mbox_post:0000000000000000 sys_mbox_post
/var/folders/5n/p_75w94d66l9ssrldxqdhh700000gn/T//cc9o6Lzj.s:452    .text.sys_mbox_trypost:0000000000000000 $t
/var/folders/5n/p_75w94d66l9ssrldxqdhh700000gn/T//cc9o6Lzj.s:458    .text.sys_mbox_trypost:0000000000000000 sys_mbox_trypost
/var/folders/5n/p_75w94d66l9ssrldxqdhh700000gn/T//cc9o6Lzj.s:498    .text.sys_mbox_trypost:0000000000000024 $d
/var/folders/5n/p_75w94d66l9ssrldxqdhh700000gn/T//cc9o6Lzj.s:503    .text.sys_arch_mbox_fetch:0000000000000000 $t
/var/folders/5n/p_75w94d66l9ssrldxqdhh700000gn/T//cc9o6Lzj.s:509    .text.sys_arch_mbox_fetch:0000000000000000 sys_arch_mbox_fetch
/var/folders/5n/p_75w94d66l9ssrldxqdhh700000gn/T//cc9o6Lzj.s:575    .text.sys_arch_mbox_fetch:0000000000000030 $d
/var/folders/5n/p_75w94d66l9ssrldxqdhh700000gn/T//cc9o6Lzj.s:580    .text.sys_arch_mbox_tryfetch:0000000000000000 $t
/var/folders/5n/p_75w94d66l9ssrldxqdhh700000gn/T//cc9o6Lzj.s:586    .text.sys_arch_mbox_tryfetch:0000000000000000 sys_arch_mbox_tryfetch
/var/folders/5n/p_75w94d66l9ssrldxqdhh700000gn/T//cc9o6Lzj.s:614    .text.sys_mbox_valid:0000000000000000 $t
/var/folders/5n/p_75w94d66l9ssrldxqdhh700000gn/T//cc9o6Lzj.s:620    .text.sys_mbox_valid:0000000000000000 sys_mbox_valid
/var/folders/5n/p_75w94d66l9ssrldxqdhh700000gn/T//cc9o6Lzj.s:640    .text.sys_mbox_set_invalid:0000000000000000 $t
/var/folders/5n/p_75w94d66l9ssrldxqdhh700000gn/T//cc9o6Lzj.s:646    .text.sys_mbox_set_invalid:0000000000000000 sys_mbox_set_invalid
/var/folders/5n/p_75w94d66l9ssrldxqdhh700000gn/T//cc9o6Lzj.s:663    .text.sys_thread_new:0000000000000000 $t
/var/folders/5n/p_75w94d66l9ssrldxqdhh700000gn/T//cc9o6Lzj.s:669    .text.sys_thread_new:0000000000000000 sys_thread_new
/var/folders/5n/p_75w94d66l9ssrldxqdhh700000gn/T//cc9o6Lzj.s:719    .text.sys_arch_protect:0000000000000000 $t
/var/folders/5n/p_75w94d66l9ssrldxqdhh700000gn/T//cc9o6Lzj.s:725    .text.sys_arch_protect:0000000000000000 sys_arch_protect
/var/folders/5n/p_75w94d66l9ssrldxqdhh700000gn/T//cc9o6Lzj.s:749    .text.sys_arch_unprotect:0000000000000000 $t
/var/folders/5n/p_75w94d66l9ssrldxqdhh700000gn/T//cc9o6Lzj.s:755    .text.sys_arch_unprotect:0000000000000000 sys_arch_unprotect
                     .debug_frame:0000000000000010 $d
/var/folders/5n/p_75w94d66l9ssrldxqdhh700000gn/T//cc9o6Lzj.s:105    .text.sys_sem_new:000000000000004c $t
/var/folders/5n/p_75w94d66l9ssrldxqdhh700000gn/T//cc9o6Lzj.s:248    .text.sys_arch_sem_wait:0000000000000034 $t
/var/folders/5n/p_75w94d66l9ssrldxqdhh700000gn/T//cc9o6Lzj.s:365    .text.sys_mbox_new:0000000000000048 $t
/var/folders/5n/p_75w94d66l9ssrldxqdhh700000gn/T//cc9o6Lzj.s:425    .text.sys_mbox_free:0000000000000034 $t
/var/folders/5n/p_75w94d66l9ssrldxqdhh700000gn/T//cc9o6Lzj.s:502    .text.sys_mbox_trypost:0000000000000028 $t
/var/folders/5n/p_75w94d66l9ssrldxqdhh700000gn/T//cc9o6Lzj.s:579    .text.sys_arch_mbox_fetch:0000000000000034 $t

UNDEFINED SYMBOLS
chHeapAlloc
chSemInit
lwip_stats
chHeapFree
ARM GAS  /var/folders/5n/p_75w94d66l9ssrldxqdhh700000gn/T//cc9o6Lzj.s 			page 74


chSemSignal
chSemWaitTimeoutS
vtlist
chMBInit
chMBReset
chMBPost
chMBFetchS
chMBFetch
chCoreAlloc
chThdCreateStatic
