ARM GAS  /var/folders/5n/p_75w94d66l9ssrldxqdhh700000gn/T//cc9o6Lzj.s 			page 1


   1              		.syntax unified
   2              		.cpu cortex-m4
   3              		.fpu softvfp
   4              		.eabi_attribute 20, 1
   5              		.eabi_attribute 21, 1
   6              		.eabi_attribute 23, 3
   7              		.eabi_attribute 24, 1
   8              		.eabi_attribute 25, 1
   9              		.eabi_attribute 26, 1
  10              		.eabi_attribute 30, 2
  11              		.eabi_attribute 18, 4
  12              		.thumb
  13              		.file	"sys_arch.c"
  14              		.text
  15              	.Ltext0:
  16              		.cfi_sections	.debug_frame
  17              		.section	.text.sys_init,"ax",%progbits
  18              		.align	2
  19              		.p2align 4,,15
  20              		.global	sys_init
  21              		.thumb
  22              		.thumb_func
  23              		.type	sys_init, %function
  24              	sys_init:
  25              	.LFB7:
  26              		.file 1 "../../os/various/lwip_bindings/arch/sys_arch.c"
  27              		.loc 1 67 0
  28              		.cfi_startproc
  29              		@ args = 0, pretend = 0, frame = 0
  30              		@ frame_needed = 0, uses_anonymous_args = 0
  31              		@ link register save eliminated.
  32              		.loc 1 69 0
  33 0000 7047     		bx	lr
  34              		.cfi_endproc
  35              	.LFE7:
  36              		.size	sys_init, .-sys_init
  37 0002 00BFAFF3 		.section	.text.sys_sem_new,"ax",%progbits
  37      0080AFF3 
  37      0080AFF3 
  37      0080
  38              		.align	2
  39              		.p2align 4,,15
  40              		.global	sys_sem_new
  41              		.thumb
  42              		.thumb_func
  43              		.type	sys_sem_new, %function
  44              	sys_sem_new:
  45              	.LFB8:
  46              		.loc 1 71 0
  47              		.cfi_startproc
  48              		@ args = 0, pretend = 0, frame = 0
  49              		@ frame_needed = 0, uses_anonymous_args = 0
  50              	.LVL0:
  51 0000 38B5     		push	{r3, r4, r5, lr}
  52              	.LCFI0:
  53              		.cfi_def_cfa_offset 16
  54              		.cfi_offset 14, -4
ARM GAS  /var/folders/5n/p_75w94d66l9ssrldxqdhh700000gn/T//cc9o6Lzj.s 			page 2


  55              		.cfi_offset 5, -8
  56              		.cfi_offset 4, -12
  57              		.cfi_offset 3, -16
  58              		.loc 1 71 0
  59 0002 0446     		mov	r4, r0
  60 0004 0D46     		mov	r5, r1
  61              		.loc 1 73 0
  62 0006 0020     		movs	r0, #0
  63              	.LVL1:
  64 0008 0C21     		movs	r1, #12
  65              	.LVL2:
  66 000a FFF7FEFF 		bl	chHeapAlloc
  67 000e 2060     		str	r0, [r4, #0]
  68              		.loc 1 74 0
  69 0010 90B1     		cbz	r0, .L7
  70              		.loc 1 79 0
  71 0012 2946     		mov	r1, r5
  72 0014 FFF7FEFF 		bl	chSemInit
  73              		.loc 1 80 0
  74 0018 0B4B     		ldr	r3, .L8
  75 001a B3F83E21 		ldrh	r2, [r3, #318]
  76 001e B3F84011 		ldrh	r1, [r3, #320]
  77 0022 0132     		adds	r2, r2, #1
  78 0024 92B2     		uxth	r2, r2
  79 0026 9142     		cmp	r1, r2
  80 0028 38BF     		it	cc
  81 002a A3F84021 		strhcc	r2, [r3, #320]	@ movhi
  82 002e A3F83E21 		strh	r2, [r3, #318]	@ movhi
  83              		.loc 1 81 0
  84 0032 0020     		movs	r0, #0
  85              	.L4:
  86              		.loc 1 83 0
  87 0034 40B2     		sxtb	r0, r0
  88 0036 38BD     		pop	{r3, r4, r5, pc}
  89              	.L7:
  90              		.loc 1 75 0
  91 0038 034B     		ldr	r3, .L8
  92 003a B3F84221 		ldrh	r2, [r3, #322]
  93 003e 0132     		adds	r2, r2, #1
  94 0040 A3F84221 		strh	r2, [r3, #322]	@ movhi
  95              		.loc 1 76 0
  96 0044 FF20     		movs	r0, #255
  97 0046 F5E7     		b	.L4
  98              	.L9:
  99              		.align	2
 100              	.L8:
 101 0048 00000000 		.word	lwip_stats
 102              		.cfi_endproc
 103              	.LFE8:
 104              		.size	sys_sem_new, .-sys_sem_new
 105 004c AFF30080 		.section	.text.sys_sem_free,"ax",%progbits
 106              		.align	2
 107              		.p2align 4,,15
 108              		.global	sys_sem_free
 109              		.thumb
 110              		.thumb_func
 111              		.type	sys_sem_free, %function
ARM GAS  /var/folders/5n/p_75w94d66l9ssrldxqdhh700000gn/T//cc9o6Lzj.s 			page 3


 112              	sys_sem_free:
 113              	.LFB9:
 114              		.loc 1 85 0
 115              		.cfi_startproc
 116              		@ args = 0, pretend = 0, frame = 0
 117              		@ frame_needed = 0, uses_anonymous_args = 0
 118              	.LVL3:
 119 0000 10B5     		push	{r4, lr}
 120              	.LCFI1:
 121              		.cfi_def_cfa_offset 8
 122              		.cfi_offset 14, -4
 123              		.cfi_offset 4, -8
 124              		.loc 1 85 0
 125 0002 0446     		mov	r4, r0
 126              		.loc 1 87 0
 127 0004 0068     		ldr	r0, [r0, #0]
 128              	.LVL4:
 129 0006 FFF7FEFF 		bl	chHeapFree
 130              		.loc 1 89 0
 131 000a 40F20003 		movw	r3, #:lower16:lwip_stats
 132 000e C0F20003 		movt	r3, #:upper16:lwip_stats
 133              		.loc 1 88 0
 134 0012 0021     		movs	r1, #0
 135              		.loc 1 89 0
 136 0014 B3F83E21 		ldrh	r2, [r3, #318]
 137              		.loc 1 88 0
 138 0018 2160     		str	r1, [r4, #0]
 139              		.loc 1 89 0
 140 001a 013A     		subs	r2, r2, #1
 141 001c A3F83E21 		strh	r2, [r3, #318]	@ movhi
 142              		.loc 1 90 0
 143 0020 10BD     		pop	{r4, pc}
 144              		.cfi_endproc
 145              	.LFE9:
 146              		.size	sys_sem_free, .-sys_sem_free
 147 0022 00BFAFF3 		.section	.text.sys_sem_signal,"ax",%progbits
 147      0080AFF3 
 147      0080AFF3 
 147      0080
 148              		.align	2
 149              		.p2align 4,,15
 150              		.global	sys_sem_signal
 151              		.thumb
 152              		.thumb_func
 153              		.type	sys_sem_signal, %function
 154              	sys_sem_signal:
 155              	.LFB10:
 156              		.loc 1 92 0
 157              		.cfi_startproc
 158              		@ args = 0, pretend = 0, frame = 0
 159              		@ frame_needed = 0, uses_anonymous_args = 0
 160              		@ link register save eliminated.
 161              	.LVL5:
 162              		.loc 1 94 0
 163 0000 0068     		ldr	r0, [r0, #0]
 164              	.LVL6:
 165              		.loc 1 95 0
ARM GAS  /var/folders/5n/p_75w94d66l9ssrldxqdhh700000gn/T//cc9o6Lzj.s 			page 4


 166              		.loc 1 94 0
 167 0002 FFF7FEBF 		b	chSemSignal
 168              		.cfi_endproc
 169              	.LFE10:
 170              		.size	sys_sem_signal, .-sys_sem_signal
 171 0006 00BFAFF3 		.section	.text.sys_arch_sem_wait,"ax",%progbits
 171      0080AFF3 
 171      0080
 172              		.align	2
 173              		.p2align 4,,15
 174              		.global	sys_arch_sem_wait
 175              		.thumb
 176              		.thumb_func
 177              		.type	sys_arch_sem_wait, %function
 178              	sys_arch_sem_wait:
 179              	.LFB11:
 180              		.loc 1 97 0
 181              		.cfi_startproc
 182              		@ args = 0, pretend = 0, frame = 0
 183              		@ frame_needed = 0, uses_anonymous_args = 0
 184              	.LVL7:
 185 0000 38B5     		push	{r3, r4, r5, lr}
 186              	.LCFI2:
 187              		.cfi_def_cfa_offset 16
 188              		.cfi_offset 14, -4
 189              		.cfi_offset 5, -8
 190              		.cfi_offset 4, -12
 191              		.cfi_offset 3, -16
 192              	.LBB2:
 193              		.loc 1 100 0
 194 0002 2023     		movs	r3, #32
 195              	.LVL8:
 196              	@ 100 "../../os/various/lwip_bindings/arch/sys_arch.c" 1
 197 0004 83F31188 		msr     BASEPRI, r3
 198              	@ 0 "" 2
 199              	.LVL9:
 200              		.thumb
 201              	.LBE2:
 202              		.loc 1 102 0
 203 0008 094C     		ldr	r4, .L18
 204              		.loc 1 103 0
 205 000a 0068     		ldr	r0, [r0, #0]
 206              	.LVL10:
 207              		.loc 1 102 0
 208 000c E568     		ldr	r5, [r4, #12]
 209              	.LVL11:
 210              		.loc 1 103 0
 211 000e 0029     		cmp	r1, #0
 212 0010 08BF     		it	eq
 213 0012 4FF0FF31 		moveq	r1, #-1
 214              	.LVL12:
 215 0016 FFF7FEFF 		bl	chSemWaitTimeoutS
 216              	.LVL13:
 217 001a 28B1     		cbz	r0, .L17
 218              		.loc 1 104 0
 219 001c 4FF0FF30 		mov	r0, #-1
 220              	.LVL14:
ARM GAS  /var/folders/5n/p_75w94d66l9ssrldxqdhh700000gn/T//cc9o6Lzj.s 			page 5


 221              	.L14:
 222              	.LBB3:
 223              		.loc 1 107 0
 224 0020 0023     		movs	r3, #0
 225              	.LVL15:
 226              	@ 107 "../../os/various/lwip_bindings/arch/sys_arch.c" 1
 227 0022 83F31188 		msr     BASEPRI, r3
 228              	@ 0 "" 2
 229              	.LVL16:
 230              		.thumb
 231              	.LBE3:
 232              		.loc 1 109 0
 233 0026 38BD     		pop	{r3, r4, r5, pc}
 234              	.LVL17:
 235              	.L17:
 236              		.loc 1 106 0
 237 0028 E068     		ldr	r0, [r4, #12]
 238 002a 401B     		subs	r0, r0, r5
 239              	.LVL18:
 240 002c F8E7     		b	.L14
 241              	.L19:
 242 002e 00BF     		.align	2
 243              	.L18:
 244 0030 00000000 		.word	vtlist
 245              		.cfi_endproc
 246              	.LFE11:
 247              		.size	sys_arch_sem_wait, .-sys_arch_sem_wait
 248 0034 AFF30080 		.section	.text.sys_sem_valid,"ax",%progbits
 248      AFF30080 
 248      AFF30080 
 249              		.align	2
 250              		.p2align 4,,15
 251              		.global	sys_sem_valid
 252              		.thumb
 253              		.thumb_func
 254              		.type	sys_sem_valid, %function
 255              	sys_sem_valid:
 256              	.LFB12:
 257              		.loc 1 111 0
 258              		.cfi_startproc
 259              		@ args = 0, pretend = 0, frame = 0
 260              		@ frame_needed = 0, uses_anonymous_args = 0
 261              		@ link register save eliminated.
 262              	.LVL19:
 263              		.loc 1 112 0
 264 0000 0068     		ldr	r0, [r0, #0]
 265              	.LVL20:
 266              		.loc 1 113 0
 267 0002 0030     		adds	r0, r0, #0
 268 0004 18BF     		it	ne
 269 0006 0120     		movne	r0, #1
 270 0008 7047     		bx	lr
 271              		.cfi_endproc
 272              	.LFE12:
 273              		.size	sys_sem_valid, .-sys_sem_valid
 274 000a 00BFAFF3 		.section	.text.sys_sem_set_invalid,"ax",%progbits
 274      0080
ARM GAS  /var/folders/5n/p_75w94d66l9ssrldxqdhh700000gn/T//cc9o6Lzj.s 			page 6


 275              		.align	2
 276              		.p2align 4,,15
 277              		.global	sys_sem_set_invalid
 278              		.thumb
 279              		.thumb_func
 280              		.type	sys_sem_set_invalid, %function
 281              	sys_sem_set_invalid:
 282              	.LFB13:
 283              		.loc 1 117 0
 284              		.cfi_startproc
 285              		@ args = 0, pretend = 0, frame = 0
 286              		@ frame_needed = 0, uses_anonymous_args = 0
 287              		@ link register save eliminated.
 288              	.LVL21:
 289              		.loc 1 118 0
 290 0000 0023     		movs	r3, #0
 291 0002 0360     		str	r3, [r0, #0]
 292              		.loc 1 119 0
 293 0004 7047     		bx	lr
 294              		.cfi_endproc
 295              	.LFE13:
 296              		.size	sys_sem_set_invalid, .-sys_sem_set_invalid
 297 0006 00BFAFF3 		.section	.text.sys_mbox_new,"ax",%progbits
 297      0080AFF3 
 297      0080
 298              		.align	2
 299              		.p2align 4,,15
 300              		.global	sys_mbox_new
 301              		.thumb
 302              		.thumb_func
 303              		.type	sys_mbox_new, %function
 304              	sys_mbox_new:
 305              	.LFB14:
 306              		.loc 1 121 0
 307              		.cfi_startproc
 308              		@ args = 0, pretend = 0, frame = 0
 309              		@ frame_needed = 0, uses_anonymous_args = 0
 310              	.LVL22:
 311 0000 38B5     		push	{r3, r4, r5, lr}
 312              	.LCFI3:
 313              		.cfi_def_cfa_offset 16
 314              		.cfi_offset 14, -4
 315              		.cfi_offset 5, -8
 316              		.cfi_offset 4, -12
 317              		.cfi_offset 3, -16
 318              		.loc 1 121 0
 319 0002 0C46     		mov	r4, r1
 320              		.loc 1 123 0
 321 0004 01F10A01 		add	r1, r1, #10
 322              	.LVL23:
 323              		.loc 1 121 0
 324 0008 0546     		mov	r5, r0
 325              		.loc 1 123 0
 326 000a 8900     		lsls	r1, r1, #2
 327 000c 0020     		movs	r0, #0
 328              	.LVL24:
 329 000e FFF7FEFF 		bl	chHeapAlloc
ARM GAS  /var/folders/5n/p_75w94d66l9ssrldxqdhh700000gn/T//cc9o6Lzj.s 			page 7


 330 0012 0146     		mov	r1, r0
 331 0014 2860     		str	r0, [r5, #0]
 332              		.loc 1 124 0
 333 0016 60B1     		cbz	r0, .L25
 334              		.loc 1 129 0
 335 0018 2246     		mov	r2, r4
 336 001a 2831     		adds	r1, r1, #40
 337 001c FFF7FEFF 		bl	chMBInit
 338              		.loc 1 130 0
 339 0020 084B     		ldr	r3, .L26
 340 0022 B3F84A21 		ldrh	r2, [r3, #330]
 341 0026 0132     		adds	r2, r2, #1
 342 0028 A3F84A21 		strh	r2, [r3, #330]	@ movhi
 343              		.loc 1 131 0
 344 002c 0020     		movs	r0, #0
 345              	.L24:
 346              		.loc 1 133 0
 347 002e 40B2     		sxtb	r0, r0
 348 0030 38BD     		pop	{r3, r4, r5, pc}
 349              	.L25:
 350              		.loc 1 125 0
 351 0032 044B     		ldr	r3, .L26
 352 0034 B3F84E21 		ldrh	r2, [r3, #334]
 353 0038 0132     		adds	r2, r2, #1
 354 003a A3F84E21 		strh	r2, [r3, #334]	@ movhi
 355              		.loc 1 126 0
 356 003e FF20     		movs	r0, #255
 357 0040 F5E7     		b	.L24
 358              	.L27:
 359 0042 00BF     		.align	2
 360              	.L26:
 361 0044 00000000 		.word	lwip_stats
 362              		.cfi_endproc
 363              	.LFE14:
 364              		.size	sys_mbox_new, .-sys_mbox_new
 365 0048 AFF30080 		.section	.text.sys_mbox_free,"ax",%progbits
 365      AFF30080 
 366              		.align	2
 367              		.p2align 4,,15
 368              		.global	sys_mbox_free
 369              		.thumb
 370              		.thumb_func
 371              		.type	sys_mbox_free, %function
 372              	sys_mbox_free:
 373              	.LFB15:
 374              		.loc 1 135 0
 375              		.cfi_startproc
 376              		@ args = 0, pretend = 0, frame = 0
 377              		@ frame_needed = 0, uses_anonymous_args = 0
 378              	.LVL25:
 379 0000 38B5     		push	{r3, r4, r5, lr}
 380              	.LCFI4:
 381              		.cfi_def_cfa_offset 16
 382              		.cfi_offset 14, -4
 383              		.cfi_offset 5, -8
 384              		.cfi_offset 4, -12
 385              		.cfi_offset 3, -16
ARM GAS  /var/folders/5n/p_75w94d66l9ssrldxqdhh700000gn/T//cc9o6Lzj.s 			page 8


 386              		.loc 1 135 0
 387 0002 0546     		mov	r5, r0
 388              		.loc 1 137 0
 389 0004 0068     		ldr	r0, [r0, #0]
 390              	.LVL26:
 391              		.loc 1 141 0
 392 0006 0A4C     		ldr	r4, .L32
 393              		.loc 1 137 0
 394 0008 8369     		ldr	r3, [r0, #24]
 395 000a 3BB1     		cbz	r3, .L29
 396              		.loc 1 141 0
 397 000c B4F84E31 		ldrh	r3, [r4, #334]
 398 0010 0133     		adds	r3, r3, #1
 399 0012 A4F84E31 		strh	r3, [r4, #334]	@ movhi
 400              		.loc 1 142 0
 401 0016 FFF7FEFF 		bl	chMBReset
 402 001a 2868     		ldr	r0, [r5, #0]
 403              	.L29:
 404              		.loc 1 144 0
 405 001c FFF7FEFF 		bl	chHeapFree
 406              		.loc 1 146 0
 407 0020 B4F84A31 		ldrh	r3, [r4, #330]
 408              		.loc 1 145 0
 409 0024 0022     		movs	r2, #0
 410              		.loc 1 146 0
 411 0026 013B     		subs	r3, r3, #1
 412              		.loc 1 145 0
 413 0028 2A60     		str	r2, [r5, #0]
 414              		.loc 1 146 0
 415 002a A4F84A31 		strh	r3, [r4, #330]	@ movhi
 416              		.loc 1 147 0
 417 002e 38BD     		pop	{r3, r4, r5, pc}
 418              	.L33:
 419              		.align	2
 420              	.L32:
 421 0030 00000000 		.word	lwip_stats
 422              		.cfi_endproc
 423              	.LFE15:
 424              		.size	sys_mbox_free, .-sys_mbox_free
 425 0034 AFF30080 		.section	.text.sys_mbox_post,"ax",%progbits
 425      AFF30080 
 425      AFF30080 
 426              		.align	2
 427              		.p2align 4,,15
 428              		.global	sys_mbox_post
 429              		.thumb
 430              		.thumb_func
 431              		.type	sys_mbox_post, %function
 432              	sys_mbox_post:
 433              	.LFB16:
 434              		.loc 1 149 0
 435              		.cfi_startproc
 436              		@ args = 0, pretend = 0, frame = 0
 437              		@ frame_needed = 0, uses_anonymous_args = 0
 438              		@ link register save eliminated.
 439              	.LVL27:
 440              		.loc 1 151 0
ARM GAS  /var/folders/5n/p_75w94d66l9ssrldxqdhh700000gn/T//cc9o6Lzj.s 			page 9


 441 0000 0068     		ldr	r0, [r0, #0]
 442              	.LVL28:
 443 0002 4FF0FF32 		mov	r2, #-1
 444              		.loc 1 152 0
 445              		.loc 1 151 0
 446 0006 FFF7FEBF 		b	chMBPost
 447              	.LVL29:
 448              		.cfi_endproc
 449              	.LFE16:
 450              		.size	sys_mbox_post, .-sys_mbox_post
 451 000a 00BFAFF3 		.section	.text.sys_mbox_trypost,"ax",%progbits
 451      0080
 452              		.align	2
 453              		.p2align 4,,15
 454              		.global	sys_mbox_trypost
 455              		.thumb
 456              		.thumb_func
 457              		.type	sys_mbox_trypost, %function
 458              	sys_mbox_trypost:
 459              	.LFB17:
 460              		.loc 1 154 0
 461              		.cfi_startproc
 462              		@ args = 0, pretend = 0, frame = 0
 463              		@ frame_needed = 0, uses_anonymous_args = 0
 464              	.LVL30:
 465              		.loc 1 156 0
 466 0000 0022     		movs	r2, #0
 467              		.loc 1 154 0
 468 0002 08B5     		push	{r3, lr}
 469              	.LCFI5:
 470              		.cfi_def_cfa_offset 8
 471              		.cfi_offset 14, -4
 472              		.cfi_offset 3, -8
 473              		.loc 1 156 0
 474 0004 0068     		ldr	r0, [r0, #0]
 475              	.LVL31:
 476 0006 FFF7FEFF 		bl	chMBPost
 477              	.LVL32:
 478 000a 0130     		adds	r0, r0, #1
 479 000c 02D0     		beq	.L38
 480              		.loc 1 160 0
 481 000e 0020     		movs	r0, #0
 482              	.L36:
 483              		.loc 1 161 0
 484 0010 40B2     		sxtb	r0, r0
 485 0012 08BD     		pop	{r3, pc}
 486              	.L38:
 487              		.loc 1 157 0
 488 0014 034B     		ldr	r3, .L39
 489 0016 B3F84E21 		ldrh	r2, [r3, #334]
 490 001a 0132     		adds	r2, r2, #1
 491 001c A3F84E21 		strh	r2, [r3, #334]	@ movhi
 492              		.loc 1 158 0
 493 0020 FF20     		movs	r0, #255
 494 0022 F5E7     		b	.L36
 495              	.L40:
 496              		.align	2
ARM GAS  /var/folders/5n/p_75w94d66l9ssrldxqdhh700000gn/T//cc9o6Lzj.s 			page 10


 497              	.L39:
 498 0024 00000000 		.word	lwip_stats
 499              		.cfi_endproc
 500              	.LFE17:
 501              		.size	sys_mbox_trypost, .-sys_mbox_trypost
 502 0028 AFF30080 		.section	.text.sys_arch_mbox_fetch,"ax",%progbits
 502      AFF30080 
 503              		.align	2
 504              		.p2align 4,,15
 505              		.global	sys_arch_mbox_fetch
 506              		.thumb
 507              		.thumb_func
 508              		.type	sys_arch_mbox_fetch, %function
 509              	sys_arch_mbox_fetch:
 510              	.LFB18:
 511              		.loc 1 163 0
 512              		.cfi_startproc
 513              		@ args = 0, pretend = 0, frame = 0
 514              		@ frame_needed = 0, uses_anonymous_args = 0
 515              	.LVL33:
 516 0000 38B5     		push	{r3, r4, r5, lr}
 517              	.LCFI6:
 518              		.cfi_def_cfa_offset 16
 519              		.cfi_offset 14, -4
 520              		.cfi_offset 5, -8
 521              		.cfi_offset 4, -12
 522              		.cfi_offset 3, -16
 523              	.LBB4:
 524              		.loc 1 166 0
 525 0002 2023     		movs	r3, #32
 526              	.LVL34:
 527              	@ 166 "../../os/various/lwip_bindings/arch/sys_arch.c" 1
 528 0004 83F31188 		msr     BASEPRI, r3
 529              	@ 0 "" 2
 530              	.LVL35:
 531              		.thumb
 532              	.LBE4:
 533              		.loc 1 168 0
 534 0008 094C     		ldr	r4, .L47
 535              		.loc 1 169 0
 536 000a 0068     		ldr	r0, [r0, #0]
 537              	.LVL36:
 538              		.loc 1 168 0
 539 000c E568     		ldr	r5, [r4, #12]
 540              	.LVL37:
 541              		.loc 1 169 0
 542 000e 002A     		cmp	r2, #0
 543 0010 08BF     		it	eq
 544 0012 4FF0FF32 		moveq	r2, #-1
 545              	.LVL38:
 546 0016 FFF7FEFF 		bl	chMBFetchS
 547              	.LVL39:
 548 001a 28B1     		cbz	r0, .L46
 549              		.loc 1 170 0
 550 001c 4FF0FF30 		mov	r0, #-1
 551              	.LVL40:
 552              	.L43:
ARM GAS  /var/folders/5n/p_75w94d66l9ssrldxqdhh700000gn/T//cc9o6Lzj.s 			page 11


 553              	.LBB5:
 554              		.loc 1 173 0
 555 0020 0023     		movs	r3, #0
 556              	.LVL41:
 557              	@ 173 "../../os/various/lwip_bindings/arch/sys_arch.c" 1
 558 0022 83F31188 		msr     BASEPRI, r3
 559              	@ 0 "" 2
 560              	.LVL42:
 561              		.thumb
 562              	.LBE5:
 563              		.loc 1 175 0
 564 0026 38BD     		pop	{r3, r4, r5, pc}
 565              	.LVL43:
 566              	.L46:
 567              		.loc 1 172 0
 568 0028 E068     		ldr	r0, [r4, #12]
 569 002a 401B     		subs	r0, r0, r5
 570              	.LVL44:
 571 002c F8E7     		b	.L43
 572              	.L48:
 573 002e 00BF     		.align	2
 574              	.L47:
 575 0030 00000000 		.word	vtlist
 576              		.cfi_endproc
 577              	.LFE18:
 578              		.size	sys_arch_mbox_fetch, .-sys_arch_mbox_fetch
 579 0034 AFF30080 		.section	.text.sys_arch_mbox_tryfetch,"ax",%progbits
 579      AFF30080 
 579      AFF30080 
 580              		.align	2
 581              		.p2align 4,,15
 582              		.global	sys_arch_mbox_tryfetch
 583              		.thumb
 584              		.thumb_func
 585              		.type	sys_arch_mbox_tryfetch, %function
 586              	sys_arch_mbox_tryfetch:
 587              	.LFB19:
 588              		.loc 1 177 0
 589              		.cfi_startproc
 590              		@ args = 0, pretend = 0, frame = 0
 591              		@ frame_needed = 0, uses_anonymous_args = 0
 592              	.LVL45:
 593 0000 08B5     		push	{r3, lr}
 594              	.LCFI7:
 595              		.cfi_def_cfa_offset 8
 596              		.cfi_offset 14, -4
 597              		.cfi_offset 3, -8
 598              		.loc 1 179 0
 599 0002 0022     		movs	r2, #0
 600 0004 0068     		ldr	r0, [r0, #0]
 601              	.LVL46:
 602 0006 FFF7FEFF 		bl	chMBFetch
 603              	.LVL47:
 604              		.loc 1 182 0
 605 000a B0F1FF3F 		cmp	r0, #-1
 606 000e 0CBF     		ite	eq
 607 0010 4FF0FF30 		moveq	r0, #-1
ARM GAS  /var/folders/5n/p_75w94d66l9ssrldxqdhh700000gn/T//cc9o6Lzj.s 			page 12


 608 0014 0020     		movne	r0, #0
 609 0016 08BD     		pop	{r3, pc}
 610              		.cfi_endproc
 611              	.LFE19:
 612              		.size	sys_arch_mbox_tryfetch, .-sys_arch_mbox_tryfetch
 613 0018 AFF30080 		.section	.text.sys_mbox_valid,"ax",%progbits
 613      AFF30080 
 614              		.align	2
 615              		.p2align 4,,15
 616              		.global	sys_mbox_valid
 617              		.thumb
 618              		.thumb_func
 619              		.type	sys_mbox_valid, %function
 620              	sys_mbox_valid:
 621              	.LFB20:
 622              		.loc 1 184 0
 623              		.cfi_startproc
 624              		@ args = 0, pretend = 0, frame = 0
 625              		@ frame_needed = 0, uses_anonymous_args = 0
 626              		@ link register save eliminated.
 627              	.LVL48:
 628              		.loc 1 185 0
 629 0000 0068     		ldr	r0, [r0, #0]
 630              	.LVL49:
 631              		.loc 1 186 0
 632 0002 0030     		adds	r0, r0, #0
 633 0004 18BF     		it	ne
 634 0006 0120     		movne	r0, #1
 635 0008 7047     		bx	lr
 636              		.cfi_endproc
 637              	.LFE20:
 638              		.size	sys_mbox_valid, .-sys_mbox_valid
 639 000a 00BFAFF3 		.section	.text.sys_mbox_set_invalid,"ax",%progbits
 639      0080
 640              		.align	2
 641              		.p2align 4,,15
 642              		.global	sys_mbox_set_invalid
 643              		.thumb
 644              		.thumb_func
 645              		.type	sys_mbox_set_invalid, %function
 646              	sys_mbox_set_invalid:
 647              	.LFB21:
 648              		.loc 1 190 0
 649              		.cfi_startproc
 650              		@ args = 0, pretend = 0, frame = 0
 651              		@ frame_needed = 0, uses_anonymous_args = 0
 652              		@ link register save eliminated.
 653              	.LVL50:
 654              		.loc 1 191 0
 655 0000 0023     		movs	r3, #0
 656 0002 0360     		str	r3, [r0, #0]
 657              		.loc 1 192 0
 658 0004 7047     		bx	lr
 659              		.cfi_endproc
 660              	.LFE21:
 661              		.size	sys_mbox_set_invalid, .-sys_mbox_set_invalid
 662 0006 00BFAFF3 		.section	.text.sys_thread_new,"ax",%progbits
ARM GAS  /var/folders/5n/p_75w94d66l9ssrldxqdhh700000gn/T//cc9o6Lzj.s 			page 13


 662      0080AFF3 
 662      0080
 663              		.align	2
 664              		.p2align 4,,15
 665              		.global	sys_thread_new
 666              		.thumb
 667              		.thumb_func
 668              		.type	sys_thread_new, %function
 669              	sys_thread_new:
 670              	.LFB22:
 671              		.loc 1 195 0
 672              		.cfi_startproc
 673              		@ args = 4, pretend = 0, frame = 0
 674              		@ frame_needed = 0, uses_anonymous_args = 0
 675              	.LVL51:
 676 0000 2DE9F041 		push	{r4, r5, r6, r7, r8, lr}
 677              	.LCFI8:
 678              		.cfi_def_cfa_offset 24
 679              		.cfi_offset 14, -4
 680              		.cfi_offset 8, -8
 681              		.cfi_offset 7, -12
 682              		.cfi_offset 6, -16
 683              		.cfi_offset 5, -20
 684              		.cfi_offset 4, -24
 685              		.loc 1 201 0
 686 0004 03F1AB05 		add	r5, r3, #171
 687 0008 45F00705 		orr	r5, r5, #7
 688 000c 0135     		adds	r5, r5, #1
 689              	.LVL52:
 690              		.loc 1 202 0
 691 000e 2846     		mov	r0, r5
 692              	.LVL53:
 693              		.loc 1 195 0
 694 0010 0E46     		mov	r6, r1
 695 0012 1446     		mov	r4, r2
 696 0014 069F     		ldr	r7, [sp, #24]
 697              		.loc 1 202 0
 698 0016 FFF7FEFF 		bl	chCoreAlloc
 699              	.LVL54:
 700              		.loc 1 203 0
 701 001a 38B1     		cbz	r0, .L55
 702              		.loc 1 205 0
 703 001c 2946     		mov	r1, r5
 704 001e 3A46     		mov	r2, r7
 705 0020 3346     		mov	r3, r6
 706 0022 0694     		str	r4, [sp, #24]
 707              		.loc 1 206 0
 708 0024 BDE8F041 		pop	{r4, r5, r6, r7, r8, lr}
 709              		.loc 1 205 0
 710 0028 FFF7FEBF 		b	chThdCreateStatic
 711              	.LVL55:
 712              	.L55:
 713              		.loc 1 206 0
 714 002c BDE8F081 		pop	{r4, r5, r6, r7, r8, pc}
 715              		.cfi_endproc
 716              	.LFE22:
 717              		.size	sys_thread_new, .-sys_thread_new
ARM GAS  /var/folders/5n/p_75w94d66l9ssrldxqdhh700000gn/T//cc9o6Lzj.s 			page 14


 718              		.section	.text.sys_arch_protect,"ax",%progbits
 719              		.align	2
 720              		.p2align 4,,15
 721              		.global	sys_arch_protect
 722              		.thumb
 723              		.thumb_func
 724              		.type	sys_arch_protect, %function
 725              	sys_arch_protect:
 726              	.LFB23:
 727              		.loc 1 208 0
 728              		.cfi_startproc
 729              		@ args = 0, pretend = 0, frame = 0
 730              		@ frame_needed = 0, uses_anonymous_args = 0
 731              		@ link register save eliminated.
 732              	.LBB6:
 733              		.loc 1 210 0
 734 0000 2023     		movs	r3, #32
 735              	.LVL56:
 736              	@ 210 "../../os/various/lwip_bindings/arch/sys_arch.c" 1
 737 0002 83F31188 		msr     BASEPRI, r3
 738              	@ 0 "" 2
 739              	.LVL57:
 740              		.thumb
 741              	.LBE6:
 742              		.loc 1 212 0
 743 0006 0020     		movs	r0, #0
 744 0008 7047     		bx	lr
 745              		.cfi_endproc
 746              	.LFE23:
 747              		.size	sys_arch_protect, .-sys_arch_protect
 748 000a 00BFAFF3 		.section	.text.sys_arch_unprotect,"ax",%progbits
 748      0080
 749              		.align	2
 750              		.p2align 4,,15
 751              		.global	sys_arch_unprotect
 752              		.thumb
 753              		.thumb_func
 754              		.type	sys_arch_unprotect, %function
 755              	sys_arch_unprotect:
 756              	.LFB24:
 757              		.loc 1 214 0
 758              		.cfi_startproc
 759              		@ args = 0, pretend = 0, frame = 0
 760              		@ frame_needed = 0, uses_anonymous_args = 0
 761              		@ link register save eliminated.
 762              	.LVL58:
 763              	.LBB7:
 764              		.loc 1 217 0
 765 0000 0023     		movs	r3, #0
 766              	.LVL59:
 767              	@ 217 "../../os/various/lwip_bindings/arch/sys_arch.c" 1
 768 0002 83F31188 		msr     BASEPRI, r3
 769              	@ 0 "" 2
 770              	.LVL60:
 771              		.thumb
 772              	.LBE7:
 773              		.loc 1 218 0
ARM GAS  /var/folders/5n/p_75w94d66l9ssrldxqdhh700000gn/T//cc9o6Lzj.s 			page 15


 774 0006 7047     		bx	lr
 775              		.cfi_endproc
 776              	.LFE24:
 777              		.size	sys_arch_unprotect, .-sys_arch_unprotect
 778 0008 AFF30080 		.text
 778      AFF30080 
 779              	.Letext0:
 780              		.file 2 "/usr/local/summon/lib/gcc/arm-none-eabi/4.6.2/include/stddef.h"
 781              		.file 3 "/usr/local/summon/lib/gcc/arm-none-eabi/4.6.2/../../../../arm-none-eabi/include/stdint.h"
 782              		.file 4 "../../os/ports/GCC/ARMCMx/chtypes.h"
 783              		.file 5 "../../os/kernel/include/chlists.h"
 784              		.file 6 "../../os/kernel/include/chthreads.h"
 785              		.file 7 "../../os/ports/GCC/ARMCMx/chcore_v7m.h"
 786              		.file 8 "../../os/kernel/include/chvt.h"
 787              		.file 9 "../../os/kernel/include/chsem.h"
 788              		.file 10 "../../os/kernel/include/chmtx.h"
 789              		.file 11 "../../os/kernel/include/chmboxes.h"
 790              		.file 12 "../../os/various/lwip_bindings/arch/cc.h"
 791              		.file 13 "../../ext/lwip/src/include/lwip/mem.h"
 792              		.file 14 "../../ext/lwip/src/include/lwip/err.h"
 793              		.file 15 "../../os/various/lwip_bindings/arch/sys_arch.h"
 794              		.file 16 "../../ext/lwip/src/include/lwip/sys.h"
 795              		.file 17 "../../ext/lwip/src/include/lwip/stats.h"