ARM GAS  /var/folders/5n/p_75w94d66l9ssrldxqdhh700000gn/T//cc9Mn9JC.s 			page 1


   1              		.syntax unified
   2              		.cpu cortex-m4
   3              		.fpu softvfp
   4              		.eabi_attribute 20, 1
   5              		.eabi_attribute 21, 1
   6              		.eabi_attribute 23, 3
   7              		.eabi_attribute 24, 1
   8              		.eabi_attribute 25, 1
   9              		.eabi_attribute 26, 1
  10              		.eabi_attribute 30, 2
  11              		.eabi_attribute 18, 4
  12              		.thumb
  13              		.file	"tcp.c"
  14              		.text
  15              	.Ltext0:
  16              		.cfi_sections	.debug_frame
  17              		.section	.text.tcp_accept_null,"ax",%progbits
  18              		.align	2
  19              		.p2align 4,,15
  20              		.thumb
  21              		.thumb_func
  22              		.type	tcp_accept_null, %function
  23              	tcp_accept_null:
  24              	.LFB14:
  25              		.file 1 "../../ext/lwip/src/core/tcp.c"
  26              		.loc 1 459 0
  27              		.cfi_startproc
  28              		@ args = 0, pretend = 0, frame = 0
  29              		@ frame_needed = 0, uses_anonymous_args = 0
  30              		@ link register save eliminated.
  31              	.LVL0:
  32              		.loc 1 465 0
  33 0000 6FF00900 		mvn	r0, #9
  34              	.LVL1:
  35 0004 7047     		bx	lr
  36              		.cfi_endproc
  37              	.LFE14:
  38              		.size	tcp_accept_null, .-tcp_accept_null
  39 0006 00BFAFF3 		.section	.text.tcp_new_port,"ax",%progbits
  39      0080AFF3 
  39      0080
  40              		.align	2
  41              		.p2align 4,,15
  42              		.thumb
  43              		.thumb_func
  44              		.type	tcp_new_port, %function
  45              	tcp_new_port:
  46              	.LFB18:
  47              		.loc 1 610 0
  48              		.cfi_startproc
  49              		@ args = 0, pretend = 0, frame = 0
  50              		@ frame_needed = 0, uses_anonymous_args = 0
  51              		@ link register save eliminated.
  52              	.L3:
  53 0000 F0B4     		push	{r4, r5, r6, r7}
  54              	.LCFI0:
  55              		.cfi_def_cfa_offset 16
ARM GAS  /var/folders/5n/p_75w94d66l9ssrldxqdhh700000gn/T//cc9Mn9JC.s 			page 2


  56              		.cfi_offset 7, -4
  57              		.cfi_offset 6, -8
  58              		.cfi_offset 5, -12
  59              		.cfi_offset 4, -16
  60              		.loc 1 622 0
  61 0002 0F4E     		ldr	r6, .L19
  62              		.loc 1 609 0
  63 0004 0F4F     		ldr	r7, .L19+4
  64              		.loc 1 622 0
  65 0006 3088     		ldrh	r0, [r6, #0]
  66 0008 4FF6FF75 		movw	r5, #65535
  67              	.L16:
  68 000c 411C     		adds	r1, r0, #1
  69 000e A842     		cmp	r0, r5
  70 0010 89B2     		uxth	r1, r1
  71              		.loc 1 623 0
  72 0012 08BF     		it	eq
  73 0014 4FF44040 		moveq	r0, #49152
  74              		.loc 1 622 0
  75 0018 0B4A     		ldr	r2, .L19+8
  76 001a 0CBF     		ite	eq
  77 001c 0146     		moveq	r1, r0
  78 001e 0846     		movne	r0, r1
  79              	.LVL2:
  80              	.L11:
  81              		.loc 1 627 0
  82 0020 52F8043F 		ldr	r3, [r2, #4]!
  83 0024 1B68     		ldr	r3, [r3, #0]
  84              	.LVL3:
  85 0026 2BB1     		cbz	r3, .L6
  86              	.LVL4:
  87              	.L10:
  88              		.loc 1 628 0
  89 0028 9C8B     		ldrh	r4, [r3, #28]
  90 002a 8442     		cmp	r4, r0
  91 002c EED0     		beq	.L16
  92              		.loc 1 627 0
  93 002e DB68     		ldr	r3, [r3, #12]
  94              	.LVL5:
  95 0030 002B     		cmp	r3, #0
  96 0032 F9D1     		bne	.L10
  97              	.L6:
  98              		.loc 1 626 0
  99 0034 BA42     		cmp	r2, r7
 100 0036 F3D1     		bne	.L11
 101 0038 3180     		strh	r1, [r6, #0]	@ movhi
 102              		.loc 1 634 0
 103 003a F0BC     		pop	{r4, r5, r6, r7}
 104 003c 7047     		bx	lr
 105              	.L20:
 106 003e 00BF     		.align	2
 107              	.L19:
 108 0040 00000000 		.word	.LANCHOR0
 109 0044 0C000000 		.word	.LANCHOR1+12
 110 0048 FCFFFFFF 		.word	.LANCHOR1-4
 111              		.cfi_endproc
 112              	.LFE18:
ARM GAS  /var/folders/5n/p_75w94d66l9ssrldxqdhh700000gn/T//cc9Mn9JC.s 			page 3


 113              		.size	tcp_new_port, .-tcp_new_port
 114 004c AFF30080 		.section	.text.tcp_bind,"ax",%progbits
 115              		.align	2
 116              		.p2align 4,,15
 117              		.global	tcp_bind
 118              		.thumb
 119              		.thumb_func
 120              		.type	tcp_bind, %function
 121              	tcp_bind:
 122              	.LFB13:
 123              		.loc 1 401 0
 124              		.cfi_startproc
 125              		@ args = 0, pretend = 0, frame = 0
 126              		@ frame_needed = 0, uses_anonymous_args = 0
 127              	.LVL6:
 128 0000 F8B5     		push	{r3, r4, r5, r6, r7, lr}
 129              	.LCFI1:
 130              		.cfi_def_cfa_offset 24
 131              		.cfi_offset 14, -4
 132              		.cfi_offset 7, -8
 133              		.cfi_offset 6, -12
 134              		.cfi_offset 5, -16
 135              		.cfi_offset 4, -20
 136              		.cfi_offset 3, -24
 137              		.loc 1 406 0
 138 0002 037C     		ldrb	r3, [r0, #16]	@ zero_extendqisi2
 139              		.loc 1 401 0
 140 0004 0446     		mov	r4, r0
 141 0006 0D46     		mov	r5, r1
 142              		.loc 1 406 0
 143 0008 002B     		cmp	r3, #0
 144 000a 2BD1     		bne	.L37
 145              		.loc 1 419 0
 146 000c 32B3     		cbz	r2, .L38
 147              	.LVL7:
 148              	.L24:
 149              		.loc 1 420 0
 150 000e 174E     		ldr	r6, .L39
 151              		.loc 1 400 0
 152 0010 06F11007 		add	r7, r6, #16
 153              	.LVL8:
 154              	.L28:
 155              		.loc 1 425 0
 156 0014 56F8043F 		ldr	r3, [r6, #4]!
 157 0018 1B68     		ldr	r3, [r3, #0]
 158              	.LVL9:
 159 001a 13B9     		cbnz	r3, .L34
 160 001c 0EE0     		b	.L25
 161              	.LVL10:
 162              	.L26:
 163 001e DB68     		ldr	r3, [r3, #12]
 164              	.LVL11:
 165 0020 63B1     		cbz	r3, .L25
 166              	.L34:
 167              		.loc 1 426 0
 168 0022 998B     		ldrh	r1, [r3, #28]
 169 0024 9142     		cmp	r1, r2
ARM GAS  /var/folders/5n/p_75w94d66l9ssrldxqdhh700000gn/T//cc9Mn9JC.s 			page 4


 170 0026 FAD1     		bne	.L26
 171              		.loc 1 435 0
 172 0028 1968     		ldr	r1, [r3, #0]
 173 002a 21B1     		cbz	r1, .L33
 174              		.loc 1 435 0 is_stmt 0 discriminator 1
 175 002c 1DB1     		cbz	r5, .L33
 176              		.loc 1 436 0 is_stmt 1
 177 002e 2868     		ldr	r0, [r5, #0]
 178 0030 08B1     		cbz	r0, .L33
 179              		.loc 1 436 0 is_stmt 0 discriminator 1
 180 0032 8142     		cmp	r1, r0
 181 0034 F3D1     		bne	.L26
 182              	.L33:
 183              		.loc 1 438 0 is_stmt 1
 184 0036 F820     		movs	r0, #248
 185              	.LVL12:
 186              	.L23:
 187              		.loc 1 452 0
 188 0038 40B2     		sxtb	r0, r0
 189 003a F8BD     		pop	{r3, r4, r5, r6, r7, pc}
 190              	.LVL13:
 191              	.L25:
 192              		.loc 1 424 0
 193 003c BE42     		cmp	r6, r7
 194 003e E9D1     		bne	.L28
 195              		.loc 1 445 0
 196 0040 15B1     		cbz	r5, .L29
 197              		.loc 1 445 0 is_stmt 0 discriminator 1
 198 0042 2B68     		ldr	r3, [r5, #0]
 199              	.LVL14:
 200 0044 03B1     		cbz	r3, .L29
 201              		.loc 1 446 0 is_stmt 1
 202 0046 2360     		str	r3, [r4, #0]
 203              	.L29:
 204              		.loc 1 449 0
 205 0048 094B     		ldr	r3, .L39+4
 206              		.loc 1 448 0
 207 004a A283     		strh	r2, [r4, #28]	@ movhi
 208              		.loc 1 449 0
 209 004c 1A68     		ldr	r2, [r3, #0]
 210              	.LVL15:
 211 004e 1C60     		str	r4, [r3, #0]
 212 0050 E260     		str	r2, [r4, #12]
 213 0052 FFF7FEFF 		bl	tcp_timer_needed
 214              		.loc 1 451 0
 215 0056 0020     		movs	r0, #0
 216              		.loc 1 452 0
 217 0058 40B2     		sxtb	r0, r0
 218 005a F8BD     		pop	{r3, r4, r5, r6, r7, pc}
 219              	.LVL16:
 220              	.L38:
 221              		.loc 1 420 0
 222 005c FFF7FEFF 		bl	tcp_new_port
 223              	.LVL17:
 224 0060 0246     		mov	r2, r0
 225              	.LVL18:
 226 0062 D4E7     		b	.L24
ARM GAS  /var/folders/5n/p_75w94d66l9ssrldxqdhh700000gn/T//cc9Mn9JC.s 			page 5


 227              	.LVL19:
 228              	.L37:
 229              		.loc 1 406 0 discriminator 1
 230 0064 FFF7FEFF 		bl	port_halt
 231              	.LVL20:
 232 0068 FA20     		movs	r0, #250
 233 006a E5E7     		b	.L23
 234              	.L40:
 235              		.align	2
 236              	.L39:
 237 006c FCFFFFFF 		.word	.LANCHOR1-4
 238 0070 00000000 		.word	.LANCHOR2
 239              		.cfi_endproc
 240              	.LFE13:
 241              		.size	tcp_bind, .-tcp_bind
 242 0074 AFF30080 		.section	.text.tcp_listen_with_backlog,"ax",%progbits
 242      AFF30080 
 242      AFF30080 
 243              		.align	2
 244              		.p2align 4,,15
 245              		.global	tcp_listen_with_backlog
 246              		.thumb
 247              		.thumb_func
 248              		.type	tcp_listen_with_backlog, %function
 249              	tcp_listen_with_backlog:
 250              	.LFB15:
 251              		.loc 1 484 0
 252              		.cfi_startproc
 253              		@ args = 0, pretend = 0, frame = 0
 254              		@ frame_needed = 0, uses_anonymous_args = 0
 255              	.LVL21:
 256 0000 38B5     		push	{r3, r4, r5, lr}
 257              	.LCFI2:
 258              		.cfi_def_cfa_offset 16
 259              		.cfi_offset 14, -4
 260              		.cfi_offset 5, -8
 261              		.cfi_offset 4, -12
 262              		.cfi_offset 3, -16
 263              		.loc 1 488 0
 264 0002 037C     		ldrb	r3, [r0, #16]	@ zero_extendqisi2
 265              		.loc 1 484 0
 266 0004 0546     		mov	r5, r0
 267              		.loc 1 488 0
 268 0006 002B     		cmp	r3, #0
 269 0008 46D1     		bne	.L55
 270              		.loc 1 509 0
 271 000a 0320     		movs	r0, #3
 272              	.LVL22:
 273 000c FFF7FEFF 		bl	memp_malloc
 274              	.LVL23:
 275              		.loc 1 510 0
 276 0010 0446     		mov	r4, r0
 277 0012 0028     		cmp	r0, #0
 278 0014 44D0     		beq	.L51
 279              		.loc 1 514 0
 280 0016 AB8B     		ldrh	r3, [r5, #28]
 281              		.loc 1 513 0
ARM GAS  /var/folders/5n/p_75w94d66l9ssrldxqdhh700000gn/T//cc9Mn9JC.s 			page 6


 282 0018 6A69     		ldr	r2, [r5, #20]
 283              		.loc 1 514 0
 284 001a 8383     		strh	r3, [r0, #28]	@ movhi
 285              		.loc 1 515 0
 286 001c 0123     		movs	r3, #1
 287              		.loc 1 513 0
 288 001e 4261     		str	r2, [r0, #20]
 289              		.loc 1 515 0
 290 0020 0374     		strb	r3, [r0, #16]
 291              		.loc 1 516 0
 292 0022 6B7C     		ldrb	r3, [r5, #17]	@ zero_extendqisi2
 293 0024 4374     		strb	r3, [r0, #17]
 294              		.loc 1 518 0
 295 0026 2B7A     		ldrb	r3, [r5, #8]	@ zero_extendqisi2
 296 0028 43F00203 		orr	r3, r3, #2
 297 002c 0372     		strb	r3, [r0, #8]
 298              		.loc 1 519 0
 299 002e AB7A     		ldrb	r3, [r5, #10]	@ zero_extendqisi2
 300 0030 8372     		strb	r3, [r0, #10]
 301              		.loc 1 520 0
 302 0032 6B7A     		ldrb	r3, [r5, #9]	@ zero_extendqisi2
 303 0034 4372     		strb	r3, [r0, #9]
 304              		.loc 1 521 0
 305 0036 2A68     		ldr	r2, [r5, #0]
 306              		.loc 1 522 0
 307 0038 AB8B     		ldrh	r3, [r5, #28]
 308              		.loc 1 521 0
 309 003a 0260     		str	r2, [r0, #0]
 310              		.loc 1 522 0
 311 003c 9BB1     		cbz	r3, .L44
 312              		.loc 1 523 0
 313 003e 194B     		ldr	r3, .L60
 314 0040 1A68     		ldr	r2, [r3, #0]
 315 0042 AA42     		cmp	r2, r5
 316 0044 25D0     		beq	.L56
 317              		.loc 1 523 0 is_stmt 0 discriminator 2
 318 0046 1849     		ldr	r1, .L60+4
 319 0048 0A60     		str	r2, [r1, #0]
 320 004a 52B1     		cbz	r2, .L46
 321              		.loc 1 523 0
 322 004c D368     		ldr	r3, [r2, #12]
 323 004e AB42     		cmp	r3, r5
 324 0050 1DD0     		beq	.L57
 325              		.loc 1 523 0 discriminator 5
 326 0052 2BB1     		cbz	r3, .L58
 327              	.L50:
 328              		.loc 1 523 0 discriminator 7
 329 0054 DA68     		ldr	r2, [r3, #12]
 330 0056 AA42     		cmp	r2, r5
 331 0058 13D0     		beq	.L59
 332              		.loc 1 523 0
 333 005a 1346     		mov	r3, r2
 334 005c 002B     		cmp	r3, #0
 335 005e F9D1     		bne	.L50
 336              	.L58:
 337 0060 0B60     		str	r3, [r1, #0]
 338              	.L46:
ARM GAS  /var/folders/5n/p_75w94d66l9ssrldxqdhh700000gn/T//cc9Mn9JC.s 			page 7


 339              		.loc 1 523 0 discriminator 6
 340 0062 0023     		movs	r3, #0
 341 0064 EB60     		str	r3, [r5, #12]
 342              	.L44:
 343              		.loc 1 525 0 is_stmt 1
 344 0066 0220     		movs	r0, #2
 345              	.LVL24:
 346 0068 2946     		mov	r1, r5
 347 006a FFF7FEFF 		bl	memp_free
 348              		.loc 1 533 0
 349 006e 0F4B     		ldr	r3, .L60+8
 350              		.loc 1 527 0
 351 0070 0F49     		ldr	r1, .L60+12
 352              		.loc 1 533 0
 353 0072 1A68     		ldr	r2, [r3, #0]
 354              		.loc 1 527 0
 355 0074 A161     		str	r1, [r4, #24]
 356              		.loc 1 533 0
 357 0076 E260     		str	r2, [r4, #12]
 358 0078 1C60     		str	r4, [r3, #0]
 359 007a FFF7FEFF 		bl	tcp_timer_needed
 360              		.loc 1 534 0
 361 007e 2046     		mov	r0, r4
 362 0080 38BD     		pop	{r3, r4, r5, pc}
 363              	.L59:
 364              		.loc 1 523 0
 365 0082 0B60     		str	r3, [r1, #0]
 366              	.L47:
 367              		.loc 1 523 0 is_stmt 0 discriminator 4
 368 0084 EA68     		ldr	r2, [r5, #12]
 369 0086 DA60     		str	r2, [r3, #12]
 370 0088 0023     		movs	r3, #0
 371 008a EB60     		str	r3, [r5, #12]
 372 008c EBE7     		b	.L44
 373              	.L57:
 374              		.loc 1 523 0
 375 008e 1346     		mov	r3, r2
 376 0090 F8E7     		b	.L47
 377              	.L56:
 378              		.loc 1 523 0 discriminator 1
 379 0092 EA68     		ldr	r2, [r5, #12]
 380 0094 1A60     		str	r2, [r3, #0]
 381 0096 E4E7     		b	.L46
 382              	.LVL25:
 383              	.L55:
 384              		.loc 1 488 0 is_stmt 1 discriminator 1
 385 0098 FFF7FEFF 		bl	port_halt
 386              	.LVL26:
 387 009c 0020     		movs	r0, #0
 388 009e 38BD     		pop	{r3, r4, r5, pc}
 389              	.LVL27:
 390              	.L51:
 391              		.loc 1 535 0
 392 00a0 38BD     		pop	{r3, r4, r5, pc}
 393              	.L61:
 394 00a2 00BF     		.align	2
 395              	.L60:
ARM GAS  /var/folders/5n/p_75w94d66l9ssrldxqdhh700000gn/T//cc9Mn9JC.s 			page 8


 396 00a4 00000000 		.word	.LANCHOR2
 397 00a8 00000000 		.word	.LANCHOR3
 398 00ac 00000000 		.word	.LANCHOR4
 399 00b0 00000000 		.word	tcp_accept_null
 400              		.cfi_endproc
 401              	.LFE15:
 402              		.size	tcp_listen_with_backlog, .-tcp_listen_with_backlog
 403 00b4 AFF30080 		.section	.text.tcp_update_rcv_ann_wnd,"ax",%progbits
 403      AFF30080 
 403      AFF30080 
 404              		.align	2
 405              		.p2align 4,,15
 406              		.global	tcp_update_rcv_ann_wnd
 407              		.thumb
 408              		.thumb_func
 409              		.type	tcp_update_rcv_ann_wnd, %function
 410              	tcp_update_rcv_ann_wnd:
 411              	.LFB16:
 412              		.loc 1 544 0
 413              		.cfi_startproc
 414              		@ args = 0, pretend = 0, frame = 0
 415              		@ frame_needed = 0, uses_anonymous_args = 0
 416              	.LVL28:
 417 0000 38B5     		push	{r3, r4, r5, lr}
 418              	.LCFI3:
 419              		.cfi_def_cfa_offset 16
 420              		.cfi_offset 14, -4
 421              		.cfi_offset 5, -8
 422              		.cfi_offset 4, -12
 423              		.cfi_offset 3, -16
 424              		.loc 1 547 0
 425 0002 C16A     		ldr	r1, [r0, #44]
 426              		.loc 1 545 0
 427 0004 038D     		ldrh	r3, [r0, #40]
 428 0006 426A     		ldr	r2, [r0, #36]
 429              	.LVL29:
 430              		.loc 1 547 0
 431 0008 058F     		ldrh	r5, [r0, #56]
 432              		.loc 1 544 0
 433 000a 0446     		mov	r4, r0
 434              		.loc 1 545 0
 435 000c 581A     		subs	r0, r3, r1
 436              	.LVL30:
 437              		.loc 1 547 0
 438 000e B5F5866F 		cmp	r5, #1072
 439 0012 28BF     		it	cs
 440 0014 4FF48665 		movcs	r5, #1072
 441 0018 8018     		adds	r0, r0, r2
 442 001a 451B     		subs	r5, r0, r5
 443 001c 002D     		cmp	r5, #0
 444 001e 01DB     		blt	.L64
 445              		.loc 1 549 0
 446 0020 6385     		strh	r3, [r4, #42]	@ movhi
 447              		.loc 1 550 0
 448 0022 38BD     		pop	{r3, r4, r5, pc}
 449              	.L64:
 450              		.loc 1 552 0
ARM GAS  /var/folders/5n/p_75w94d66l9ssrldxqdhh700000gn/T//cc9Mn9JC.s 			page 9


 451 0024 531A     		subs	r3, r2, r1
 452              	.LVL31:
 453 0026 002B     		cmp	r3, #0
 454 0028 02DD     		ble	.L66
 455              		.loc 1 555 0
 456 002a 0020     		movs	r0, #0
 457 002c 6085     		strh	r0, [r4, #42]	@ movhi
 458 002e 38BD     		pop	{r3, r4, r5, pc}
 459              	.L66:
 460              	.LBB11:
 461              		.loc 1 558 0
 462 0030 8D1A     		subs	r5, r1, r2
 463              	.LVL32:
 464              		.loc 1 559 0
 465 0032 B5F5803F 		cmp	r5, #65536
 466 0036 02D2     		bcs	.L69
 467              	.L67:
 468              		.loc 1 560 0
 469 0038 6585     		strh	r5, [r4, #42]	@ movhi
 470              		.loc 1 562 0
 471 003a 0020     		movs	r0, #0
 472              	.LBE11:
 473              		.loc 1 564 0
 474 003c 38BD     		pop	{r3, r4, r5, pc}
 475              	.L69:
 476              	.LBB12:
 477              		.loc 1 559 0 discriminator 1
 478 003e FFF7FEFF 		bl	port_halt
 479 0042 F9E7     		b	.L67
 480              	.LBE12:
 481              		.cfi_endproc
 482              	.LFE16:
 483              		.size	tcp_update_rcv_ann_wnd, .-tcp_update_rcv_ann_wnd
 484 0044 AFF30080 		.section	.text.tcp_recved,"ax",%progbits
 484      AFF30080 
 484      AFF30080 
 485              		.align	2
 486              		.p2align 4,,15
 487              		.global	tcp_recved
 488              		.thumb
 489              		.thumb_func
 490              		.type	tcp_recved, %function
 491              	tcp_recved:
 492              	.LFB17:
 493              		.loc 1 576 0
 494              		.cfi_startproc
 495              		@ args = 0, pretend = 0, frame = 0
 496              		@ frame_needed = 0, uses_anonymous_args = 0
 497              	.LVL33:
 498              		.loc 1 579 0
 499 0000 028D     		ldrh	r2, [r0, #40]
 500              		.loc 1 576 0
 501 0002 38B5     		push	{r3, r4, r5, lr}
 502              	.LCFI4:
 503              		.cfi_def_cfa_offset 16
 504              		.cfi_offset 14, -4
 505              		.cfi_offset 5, -8
ARM GAS  /var/folders/5n/p_75w94d66l9ssrldxqdhh700000gn/T//cc9Mn9JC.s 			page 10


 506              		.cfi_offset 4, -12
 507              		.cfi_offset 3, -16
 508              		.loc 1 579 0
 509 0004 C2F57F43 		rsb	r3, r2, #65280
 510 0008 FF33     		adds	r3, r3, #255
 511 000a 8B42     		cmp	r3, r1
 512              		.loc 1 576 0
 513 000c 0446     		mov	r4, r0
 514 000e 0D46     		mov	r5, r1
 515              		.loc 1 579 0
 516 0010 1BDB     		blt	.L74
 517              	.LVL34:
 518              	.L71:
 519              		.loc 1 582 0
 520 0012 5219     		adds	r2, r2, r5
 521 0014 92B2     		uxth	r2, r2
 522              		.loc 1 583 0
 523 0016 B2F5066F 		cmp	r2, #2144
 524              		.loc 1 584 0
 525 001a 88BF     		it	hi
 526 001c 4FF40663 		movhi	r3, #2144
 527              		.loc 1 582 0
 528 0020 2285     		strh	r2, [r4, #40]	@ movhi
 529              		.loc 1 587 0
 530 0022 2046     		mov	r0, r4
 531              		.loc 1 584 0
 532 0024 88BF     		it	hi
 533 0026 2385     		strhhi	r3, [r4, #40]	@ movhi
 534              		.loc 1 587 0
 535 0028 FFF7FEFF 		bl	tcp_update_rcv_ann_wnd
 536              	.LVL35:
 537              		.loc 1 593 0
 538 002c B0F5067F 		cmp	r0, #536
 539 0030 00DA     		bge	.L75
 540 0032 38BD     		pop	{r3, r4, r5, pc}
 541              	.L75:
 542              		.loc 1 594 0
 543 0034 94F82030 		ldrb	r3, [r4, #32]	@ zero_extendqisi2
 544              		.loc 1 595 0
 545 0038 2046     		mov	r0, r4
 546              	.LVL36:
 547              		.loc 1 594 0
 548 003a 43F00203 		orr	r3, r3, #2
 549 003e 84F82030 		strb	r3, [r4, #32]
 550              		.loc 1 600 0
 551 0042 BDE83840 		pop	{r3, r4, r5, lr}
 552              		.loc 1 595 0
 553 0046 FFF7FEBF 		b	tcp_output
 554              	.LVL37:
 555              	.L74:
 556              		.loc 1 579 0 discriminator 1
 557 004a FFF7FEFF 		bl	port_halt
 558              	.LVL38:
 559 004e 228D     		ldrh	r2, [r4, #40]
 560 0050 DFE7     		b	.L71
 561              		.cfi_endproc
 562              	.LFE17:
ARM GAS  /var/folders/5n/p_75w94d66l9ssrldxqdhh700000gn/T//cc9Mn9JC.s 			page 11


 563              		.size	tcp_recved, .-tcp_recved
 564 0052 00BFAFF3 		.section	.text.tcp_seg_free,"ax",%progbits
 564      0080AFF3 
 564      0080AFF3 
 564      0080
 565              		.align	2
 566              		.p2align 4,,15
 567              		.global	tcp_seg_free
 568              		.thumb
 569              		.thumb_func
 570              		.type	tcp_seg_free, %function
 571              	tcp_seg_free:
 572              	.LFB23:
 573              		.loc 1 1047 0
 574              		.cfi_startproc
 575              		@ args = 0, pretend = 0, frame = 0
 576              		@ frame_needed = 0, uses_anonymous_args = 0
 577              	.LVL39:
 578 0000 10B5     		push	{r4, lr}
 579              	.LCFI5:
 580              		.cfi_def_cfa_offset 8
 581              		.cfi_offset 14, -4
 582              		.cfi_offset 4, -8
 583              		.loc 1 1048 0
 584 0002 0446     		mov	r4, r0
 585 0004 48B1     		cbz	r0, .L76
 586              		.loc 1 1049 0
 587 0006 4068     		ldr	r0, [r0, #4]
 588              	.LVL40:
 589 0008 08B1     		cbz	r0, .L78
 590              		.loc 1 1050 0
 591 000a FFF7FEFF 		bl	pbuf_free
 592              	.L78:
 593              		.loc 1 1055 0
 594 000e 0420     		movs	r0, #4
 595 0010 2146     		mov	r1, r4
 596              		.loc 1 1057 0
 597 0012 BDE81040 		pop	{r4, lr}
 598              		.loc 1 1055 0
 599 0016 FFF7FEBF 		b	memp_free
 600              	.L76:
 601 001a 10BD     		pop	{r4, pc}
 602              		.cfi_endproc
 603              	.LFE23:
 604              		.size	tcp_seg_free, .-tcp_seg_free
 605 001c AFF30080 		.section	.text.tcp_segs_free,"ax",%progbits
 606              		.align	2
 607              		.p2align 4,,15
 608              		.global	tcp_segs_free
 609              		.thumb
 610              		.thumb_func
 611              		.type	tcp_segs_free, %function
 612              	tcp_segs_free:
 613              	.LFB22:
 614              		.loc 1 1032 0
 615              		.cfi_startproc
 616              		@ args = 0, pretend = 0, frame = 0
ARM GAS  /var/folders/5n/p_75w94d66l9ssrldxqdhh700000gn/T//cc9Mn9JC.s 			page 12


 617              		@ frame_needed = 0, uses_anonymous_args = 0
 618              	.LVL41:
 619 0000 10B5     		push	{r4, lr}
 620              	.LCFI6:
 621              		.cfi_def_cfa_offset 8
 622              		.cfi_offset 14, -4
 623              		.cfi_offset 4, -8
 624              		.loc 1 1033 0
 625 0002 08B9     		cbnz	r0, .L83
 626 0004 06E0     		b	.L85
 627              	.LVL42:
 628              	.L82:
 629              		.loc 1 1036 0
 630 0006 2046     		mov	r0, r4
 631              	.LVL43:
 632              	.L83:
 633              	.LBB13:
 634              		.loc 1 1034 0
 635 0008 0468     		ldr	r4, [r0, #0]
 636              	.LVL44:
 637              		.loc 1 1035 0
 638 000a FFF7FEFF 		bl	tcp_seg_free
 639              	.LVL45:
 640              	.LBE13:
 641              		.loc 1 1033 0
 642 000e 002C     		cmp	r4, #0
 643 0010 F9D1     		bne	.L82
 644 0012 10BD     		pop	{r4, pc}
 645              	.LVL46:
 646              	.L85:
 647 0014 10BD     		pop	{r4, pc}
 648              		.cfi_endproc
 649              	.LFE22:
 650              		.size	tcp_segs_free, .-tcp_segs_free
 651 0016 00BFAFF3 		.section	.text.tcp_setprio,"ax",%progbits
 651      0080AFF3 
 651      0080
 652              		.align	2
 653              		.p2align 4,,15
 654              		.global	tcp_setprio
 655              		.thumb
 656              		.thumb_func
 657              		.type	tcp_setprio, %function
 658              	tcp_setprio:
 659              	.LFB24:
 660              		.loc 1 1067 0
 661              		.cfi_startproc
 662              		@ args = 0, pretend = 0, frame = 0
 663              		@ frame_needed = 0, uses_anonymous_args = 0
 664              		@ link register save eliminated.
 665              	.LVL47:
 666              		.loc 1 1068 0
 667 0000 4174     		strb	r1, [r0, #17]
 668              		.loc 1 1069 0
 669 0002 7047     		bx	lr
 670              		.cfi_endproc
 671              	.LFE24:
ARM GAS  /var/folders/5n/p_75w94d66l9ssrldxqdhh700000gn/T//cc9Mn9JC.s 			page 13


 672              		.size	tcp_setprio, .-tcp_setprio
 673 0004 AFF30080 		.section	.text.tcp_seg_copy,"ax",%progbits
 673      AFF30080 
 673      AFF30080 
 674              		.align	2
 675              		.p2align 4,,15
 676              		.global	tcp_seg_copy
 677              		.thumb
 678              		.thumb_func
 679              		.type	tcp_seg_copy, %function
 680              	tcp_seg_copy:
 681              	.LFB25:
 682              		.loc 1 1081 0
 683              		.cfi_startproc
 684              		@ args = 0, pretend = 0, frame = 0
 685              		@ frame_needed = 0, uses_anonymous_args = 0
 686              	.LVL48:
 687 0000 38B5     		push	{r3, r4, r5, lr}
 688              	.LCFI7:
 689              		.cfi_def_cfa_offset 16
 690              		.cfi_offset 14, -4
 691              		.cfi_offset 5, -8
 692              		.cfi_offset 4, -12
 693              		.cfi_offset 3, -16
 694              		.loc 1 1081 0
 695 0002 0546     		mov	r5, r0
 696              		.loc 1 1084 0
 697 0004 0420     		movs	r0, #4
 698              	.LVL49:
 699 0006 FFF7FEFF 		bl	memp_malloc
 700              	.LVL50:
 701              		.loc 1 1085 0
 702 000a 0446     		mov	r4, r0
 703 000c 30B1     		cbz	r0, .L88
 704              		.loc 1 1088 0
 705 000e 2946     		mov	r1, r5
 706 0010 1022     		movs	r2, #16
 707 0012 FFF7FEFF 		bl	memcpy
 708              	.LVL51:
 709              		.loc 1 1089 0
 710 0016 6068     		ldr	r0, [r4, #4]
 711 0018 FFF7FEFF 		bl	pbuf_ref
 712              	.L88:
 713              		.loc 1 1091 0
 714 001c 2046     		mov	r0, r4
 715 001e 38BD     		pop	{r3, r4, r5, pc}
 716              		.cfi_endproc
 717              	.LFE25:
 718              		.size	tcp_seg_copy, .-tcp_seg_copy
 719              		.section	.text.tcp_arg,"ax",%progbits
 720              		.align	2
 721              		.p2align 4,,15
 722              		.global	tcp_arg
 723              		.thumb
 724              		.thumb_func
 725              		.type	tcp_arg, %function
 726              	tcp_arg:
ARM GAS  /var/folders/5n/p_75w94d66l9ssrldxqdhh700000gn/T//cc9Mn9JC.s 			page 14


 727              	.LFB31:
 728              		.loc 1 1278 0
 729              		.cfi_startproc
 730              		@ args = 0, pretend = 0, frame = 0
 731              		@ frame_needed = 0, uses_anonymous_args = 0
 732              		@ link register save eliminated.
 733              	.LVL52:
 734              		.loc 1 1279 0
 735 0000 4161     		str	r1, [r0, #20]
 736              		.loc 1 1280 0
 737 0002 7047     		bx	lr
 738              		.cfi_endproc
 739              	.LFE31:
 740              		.size	tcp_arg, .-tcp_arg
 741 0004 AFF30080 		.section	.text.tcp_recv,"ax",%progbits
 741      AFF30080 
 741      AFF30080 
 742              		.align	2
 743              		.p2align 4,,15
 744              		.global	tcp_recv
 745              		.thumb
 746              		.thumb_func
 747              		.type	tcp_recv, %function
 748              	tcp_recv:
 749              	.LFB32:
 750              		.loc 1 1292 0
 751              		.cfi_startproc
 752              		@ args = 0, pretend = 0, frame = 0
 753              		@ frame_needed = 0, uses_anonymous_args = 0
 754              		@ link register save eliminated.
 755              	.LVL53:
 756              		.loc 1 1293 0
 757 0000 C0F88810 		str	r1, [r0, #136]
 758              		.loc 1 1294 0
 759 0004 7047     		bx	lr
 760              		.cfi_endproc
 761              	.LFE32:
 762              		.size	tcp_recv, .-tcp_recv
 763 0006 00BFAFF3 		.section	.text.tcp_sent,"ax",%progbits
 763      0080AFF3 
 763      0080
 764              		.align	2
 765              		.p2align 4,,15
 766              		.global	tcp_sent
 767              		.thumb
 768              		.thumb_func
 769              		.type	tcp_sent, %function
 770              	tcp_sent:
 771              	.LFB33:
 772              		.loc 1 1305 0
 773              		.cfi_startproc
 774              		@ args = 0, pretend = 0, frame = 0
 775              		@ frame_needed = 0, uses_anonymous_args = 0
 776              		@ link register save eliminated.
 777              	.LVL54:
 778              		.loc 1 1306 0
 779 0000 C0F88410 		str	r1, [r0, #132]
ARM GAS  /var/folders/5n/p_75w94d66l9ssrldxqdhh700000gn/T//cc9Mn9JC.s 			page 15


 780              		.loc 1 1307 0
 781 0004 7047     		bx	lr
 782              		.cfi_endproc
 783              	.LFE33:
 784              		.size	tcp_sent, .-tcp_sent
 785 0006 00BFAFF3 		.section	.text.tcp_err,"ax",%progbits
 785      0080AFF3 
 785      0080
 786              		.align	2
 787              		.p2align 4,,15
 788              		.global	tcp_err
 789              		.thumb
 790              		.thumb_func
 791              		.type	tcp_err, %function
 792              	tcp_err:
 793              	.LFB34:
 794              		.loc 1 1319 0
 795              		.cfi_startproc
 796              		@ args = 0, pretend = 0, frame = 0
 797              		@ frame_needed = 0, uses_anonymous_args = 0
 798              		@ link register save eliminated.
 799              	.LVL55:
 800              		.loc 1 1320 0
 801 0000 C0F89410 		str	r1, [r0, #148]
 802              		.loc 1 1321 0
 803 0004 7047     		bx	lr
 804              		.cfi_endproc
 805              	.LFE34:
 806              		.size	tcp_err, .-tcp_err
 807 0006 00BFAFF3 		.section	.text.tcp_accept,"ax",%progbits
 807      0080AFF3 
 807      0080
 808              		.align	2
 809              		.p2align 4,,15
 810              		.global	tcp_accept
 811              		.thumb
 812              		.thumb_func
 813              		.type	tcp_accept, %function
 814              	tcp_accept:
 815              	.LFB35:
 816              		.loc 1 1333 0
 817              		.cfi_startproc
 818              		@ args = 0, pretend = 0, frame = 0
 819              		@ frame_needed = 0, uses_anonymous_args = 0
 820              		@ link register save eliminated.
 821              	.LVL56:
 822              		.loc 1 1334 0
 823 0000 8161     		str	r1, [r0, #24]
 824              		.loc 1 1335 0
 825 0002 7047     		bx	lr
 826              		.cfi_endproc
 827              	.LFE35:
 828              		.size	tcp_accept, .-tcp_accept
 829 0004 AFF30080 		.section	.text.tcp_poll,"ax",%progbits
 829      AFF30080 
 829      AFF30080 
 830              		.align	2
ARM GAS  /var/folders/5n/p_75w94d66l9ssrldxqdhh700000gn/T//cc9Mn9JC.s 			page 16


 831              		.p2align 4,,15
 832              		.global	tcp_poll
 833              		.thumb
 834              		.thumb_func
 835              		.type	tcp_poll, %function
 836              	tcp_poll:
 837              	.LFB36:
 838              		.loc 1 1347 0
 839              		.cfi_startproc
 840              		@ args = 0, pretend = 0, frame = 0
 841              		@ frame_needed = 0, uses_anonymous_args = 0
 842              		@ link register save eliminated.
 843              	.LVL57:
 844              		.loc 1 1349 0
 845 0000 C0F89010 		str	r1, [r0, #144]
 846              		.loc 1 1353 0
 847 0004 80F83520 		strb	r2, [r0, #53]
 848              		.loc 1 1354 0
 849 0008 7047     		bx	lr
 850              		.cfi_endproc
 851              	.LFE36:
 852              		.size	tcp_poll, .-tcp_poll
 853 000a 00BFAFF3 		.section	.text.tcp_pcb_purge,"ax",%progbits
 853      0080
 854              		.align	2
 855              		.p2align 4,,15
 856              		.global	tcp_pcb_purge
 857              		.thumb
 858              		.thumb_func
 859              		.type	tcp_pcb_purge, %function
 860              	tcp_pcb_purge:
 861              	.LFB37:
 862              		.loc 1 1364 0
 863              		.cfi_startproc
 864              		@ args = 0, pretend = 0, frame = 0
 865              		@ frame_needed = 0, uses_anonymous_args = 0
 866              	.LVL58:
 867 0000 38B5     		push	{r3, r4, r5, lr}
 868              	.LCFI8:
 869              		.cfi_def_cfa_offset 16
 870              		.cfi_offset 14, -4
 871              		.cfi_offset 5, -8
 872              		.cfi_offset 4, -12
 873              		.cfi_offset 3, -16
 874              		.loc 1 1365 0
 875 0002 037C     		ldrb	r3, [r0, #16]	@ zero_extendqisi2
 876 0004 0A2B     		cmp	r3, #10
 877 0006 18BF     		it	ne
 878 0008 002B     		cmpne	r3, #0
 879              		.loc 1 1364 0
 880 000a 0446     		mov	r4, r0
 881              		.loc 1 1365 0
 882 000c 1BD0     		beq	.L95
 883              		.loc 1 1366 0
 884 000e 012B     		cmp	r3, #1
 885 0010 19D0     		beq	.L95
 886              	.LVL59:
ARM GAS  /var/folders/5n/p_75w94d66l9ssrldxqdhh700000gn/T//cc9Mn9JC.s 			page 17


 887              	.LBB16:
 888              	.LBB17:
 889              		.loc 1 1392 0
 890 0012 D0F88000 		ldr	r0, [r0, #128]
 891              	.LVL60:
 892 0016 20B1     		cbz	r0, .L97
 893              		.loc 1 1394 0
 894 0018 FFF7FEFF 		bl	pbuf_free
 895              		.loc 1 1395 0
 896 001c 0023     		movs	r3, #0
 897 001e C4F88030 		str	r3, [r4, #128]
 898              	.L97:
 899              		.loc 1 1407 0
 900 0022 E06F     		ldr	r0, [r4, #124]
 901 0024 FFF7FEFF 		bl	tcp_segs_free
 902              		.loc 1 1408 0
 903 0028 0025     		movs	r5, #0
 904              		.loc 1 1413 0
 905 002a 4FF6FF73 		movw	r3, #65535
 906              		.loc 1 1415 0
 907 002e 606F     		ldr	r0, [r4, #116]
 908              		.loc 1 1413 0
 909 0030 E386     		strh	r3, [r4, #54]	@ movhi
 910              		.loc 1 1408 0
 911 0032 E567     		str	r5, [r4, #124]
 912              		.loc 1 1415 0
 913 0034 FFF7FEFF 		bl	tcp_segs_free
 914              		.loc 1 1416 0
 915 0038 A06F     		ldr	r0, [r4, #120]
 916 003a FFF7FEFF 		bl	tcp_segs_free
 917              		.loc 1 1417 0
 918 003e 6567     		str	r5, [r4, #116]
 919 0040 A567     		str	r5, [r4, #120]
 920              		.loc 1 1419 0
 921 0042 A4F87250 		strh	r5, [r4, #114]	@ movhi
 922              	.LVL61:
 923              	.L95:
 924 0046 38BD     		pop	{r3, r4, r5, pc}
 925              	.LBE17:
 926              	.LBE16:
 927              		.cfi_endproc
 928              	.LFE37:
 929              		.size	tcp_pcb_purge, .-tcp_pcb_purge
 930 0048 AFF30080 		.section	.text.tcp_slowtmr,"ax",%progbits
 930      AFF30080 
 931              		.align	2
 932              		.p2align 4,,15
 933              		.global	tcp_slowtmr
 934              		.thumb
 935              		.thumb_func
 936              		.type	tcp_slowtmr, %function
 937              	tcp_slowtmr:
 938              	.LFB20:
 939              		.loc 1 751 0
 940              		.cfi_startproc
 941              		@ args = 0, pretend = 0, frame = 8
 942              		@ frame_needed = 0, uses_anonymous_args = 0
ARM GAS  /var/folders/5n/p_75w94d66l9ssrldxqdhh700000gn/T//cc9Mn9JC.s 			page 18


 943              	.LVL62:
 944 0000 2DE9F04F 		push	{r4, r5, r6, r7, r8, r9, sl, fp, lr}
 945              	.LCFI9:
 946              		.cfi_def_cfa_offset 36
 947              		.cfi_offset 14, -4
 948              		.cfi_offset 11, -8
 949              		.cfi_offset 10, -12
 950              		.cfi_offset 9, -16
 951              		.cfi_offset 8, -20
 952              		.cfi_offset 7, -24
 953              		.cfi_offset 6, -28
 954              		.cfi_offset 5, -32
 955              		.cfi_offset 4, -36
 956              		.loc 1 760 0
 957 0004 C04D     		ldr	r5, .L164
 958              		.loc 1 764 0
 959 0006 C14F     		ldr	r7, .L164+4
 960              		.loc 1 760 0
 961 0008 2B68     		ldr	r3, [r5, #0]
 962              		.loc 1 764 0
 963 000a 3C68     		ldr	r4, [r7, #0]
 964              		.loc 1 760 0
 965 000c 0133     		adds	r3, r3, #1
 966              		.loc 1 751 0
 967 000e 85B0     		sub	sp, sp, #20
 968              	.LCFI10:
 969              		.cfi_def_cfa_offset 56
 970              		.loc 1 760 0
 971 0010 2B60     		str	r3, [r5, #0]
 972              	.LVL63:
 973              		.loc 1 768 0
 974 0012 002C     		cmp	r4, #0
 975 0014 00F0A880 		beq	.L99
 976              		.loc 1 868 0
 977 0018 42F2F840 		movw	r0, #9464
 978              		.loc 1 768 0
 979 001c 0026     		movs	r6, #0
 980              		.loc 1 852 0
 981 001e 44F6D358 		movw	r8, #19923
 982              		.loc 1 868 0
 983 0022 C0F20100 		movt	r0, 1
 984              		.loc 1 774 0
 985 0026 B146     		mov	r9, r6
 986              		.loc 1 852 0
 987 0028 C1F26208 		movt	r8, 4194
 988              		.loc 1 868 0
 989 002c 0390     		str	r0, [sp, #12]
 990              	.LVL64:
 991              	.L128:
 992              		.loc 1 770 0
 993 002e 237C     		ldrb	r3, [r4, #16]	@ zero_extendqisi2
 994 0030 002B     		cmp	r3, #0
 995 0032 00F03E81 		beq	.L152
 996              		.loc 1 771 0
 997 0036 012B     		cmp	r3, #1
 998 0038 00F04181 		beq	.L153
 999              	.L101:
ARM GAS  /var/folders/5n/p_75w94d66l9ssrldxqdhh700000gn/T//cc9Mn9JC.s 			page 19


 1000              		.loc 1 772 0
 1001 003c 0A2B     		cmp	r3, #10
 1002 003e 00F04481 		beq	.L154
 1003              	.L102:
 1004              	.LVL65:
 1005              		.loc 1 777 0
 1006 0042 022B     		cmp	r3, #2
 1007 0044 94F84A20 		ldrb	r2, [r4, #74]	@ zero_extendqisi2
 1008 0048 00F04781 		beq	.L103
 1009              	.L104:
 1010              		.loc 1 781 0
 1011 004c 0C2A     		cmp	r2, #12
 1012              		.loc 1 782 0
 1013 004e 08BF     		it	eq
 1014 0050 4FF0010B 		moveq	fp, #1
 1015              		.loc 1 781 0
 1016 0054 20D0     		beq	.L106
 1017              		.loc 1 785 0
 1018 0056 94F8A010 		ldrb	r1, [r4, #160]	@ zero_extendqisi2
 1019 005a 0029     		cmp	r1, #0
 1020 005c 00F0DF80 		beq	.L107
 1021              		.loc 1 789 0
 1022 0060 40F20002 		movw	r2, #:lower16:.LANCHOR7
 1023 0064 C0F20002 		movt	r2, #:upper16:.LANCHOR7
 1024 0068 5018     		adds	r0, r2, r1
 1025              		.loc 1 788 0
 1026 006a D4F89C20 		ldr	r2, [r4, #156]
 1027              		.loc 1 789 0
 1028 006e 10F8010C 		ldrb	r0, [r0, #-1]	@ zero_extendqisi2
 1029              		.loc 1 788 0
 1030 0072 0132     		adds	r2, r2, #1
 1031              		.loc 1 789 0
 1032 0074 8242     		cmp	r2, r0
 1033              		.loc 1 788 0
 1034 0076 C4F89C20 		str	r2, [r4, #156]
 1035              		.loc 1 789 0
 1036 007a C0F01781 		bcc	.L143
 1037              		.loc 1 791 0
 1038 007e 0629     		cmp	r1, #6
 1039              		.loc 1 790 0
 1040 0080 C4F89C90 		str	r9, [r4, #156]
 1041              		.loc 1 791 0
 1042 0084 02D8     		bhi	.L108
 1043              		.loc 1 792 0
 1044 0086 0131     		adds	r1, r1, #1
 1045 0088 84F8A010 		strb	r1, [r4, #160]
 1046              	.L108:
 1047              		.loc 1 794 0
 1048 008c 2046     		mov	r0, r4
 1049 008e FFF7FEFF 		bl	tcp_zero_window_probe
 1050 0092 237C     		ldrb	r3, [r4, #16]	@ zero_extendqisi2
 1051              		.loc 1 774 0
 1052 0094 4FF0000B 		mov	fp, #0
 1053              	.L106:
 1054              	.LVL66:
 1055              		.loc 1 834 0
 1056 0098 062B     		cmp	r3, #6
ARM GAS  /var/folders/5n/p_75w94d66l9ssrldxqdhh700000gn/T//cc9Mn9JC.s 			page 20


 1057 009a 00F0FD80 		beq	.L155
 1058              	.LVL67:
 1059              	.L105:
 1060              		.loc 1 843 0
 1061 009e 94F808A0 		ldrb	sl, [r4, #8]	@ zero_extendqisi2
 1062 00a2 1AF0080A 		ands	sl, sl, #8
 1063 00a6 2BD0     		beq	.L112
 1064              		.loc 1 843 0 is_stmt 0 discriminator 1
 1065 00a8 042B     		cmp	r3, #4
 1066 00aa 18BF     		it	ne
 1067 00ac 072B     		cmpne	r3, #7
 1068 00ae 14BF     		ite	ne
 1069 00b0 4FF0000A 		movne	sl, #0
 1070 00b4 4FF0010A 		moveq	sl, #1
 1071 00b8 22D1     		bne	.L112
 1072              		.loc 1 852 0 is_stmt 1
 1073 00ba D4F89820 		ldr	r2, [r4, #152]
 1074              		.loc 1 851 0
 1075 00be 2868     		ldr	r0, [r5, #0]
 1076 00c0 236B     		ldr	r3, [r4, #48]
 1077              		.loc 1 852 0
 1078 00c2 02F52421 		add	r1, r2, #671744
 1079 00c6 01F6B841 		addw	r1, r1, #3256
 1080              		.loc 1 851 0
 1081 00ca C31A     		subs	r3, r0, r3
 1082              		.loc 1 852 0
 1083 00cc A8FB0101 		umull	r0, r1, r8, r1
 1084              		.loc 1 851 0
 1085 00d0 B3EB511F 		cmp	r3, r1, lsr #5
 1086              		.loc 1 859 0
 1087 00d4 82BF     		ittt	hi
 1088 00d6 0BF1010B 		addhi	fp, fp, #1
 1089              	.LVL68:
 1090 00da 5FFA8BFB 		uxtbhi	fp, fp
 1091              	.LVL69:
 1092              		.loc 1 860 0
 1093 00de 4FF0010A 		movhi	sl, #1
 1094              		.loc 1 851 0
 1095 00e2 0DD8     		bhi	.L112
 1096              		.loc 1 868 0
 1097 00e4 94F8A110 		ldrb	r1, [r4, #161]	@ zero_extendqisi2
 1098 00e8 0398     		ldr	r0, [sp, #12]
 1099 00ea 00FB0122 		mla	r2, r0, r1, r2
 1100              		.loc 1 869 0
 1101 00ee A8FB0212 		umull	r1, r2, r8, r2
 1102              		.loc 1 867 0
 1103 00f2 B3EB521F 		cmp	r3, r2, lsr #5
 1104              		.loc 1 775 0
 1105 00f6 98BF     		it	ls
 1106 00f8 4FF0000A 		movls	sl, #0
 1107              		.loc 1 867 0
 1108 00fc 00F23081 		bhi	.L156
 1109              	.LVL70:
 1110              	.L112:
 1111              		.loc 1 881 0
 1112 0100 E06F     		ldr	r0, [r4, #124]
 1113 0102 50B1     		cbz	r0, .L114
ARM GAS  /var/folders/5n/p_75w94d66l9ssrldxqdhh700000gn/T//cc9Mn9JC.s 			page 21


 1114              		.loc 1 882 0 discriminator 1
 1115 0104 2968     		ldr	r1, [r5, #0]
 1116 0106 226B     		ldr	r2, [r4, #48]
 1117 0108 B4F94830 		ldrsh	r3, [r4, #72]
 1118 010c 8A1A     		subs	r2, r1, r2
 1119 010e 03EB4303 		add	r3, r3, r3, lsl #1
 1120              		.loc 1 881 0 discriminator 1
 1121 0112 B2EB430F 		cmp	r2, r3, lsl #1
 1122 0116 80F0F180 		bcs	.L157
 1123              	.L114:
 1124              		.loc 1 890 0
 1125 011a 237C     		ldrb	r3, [r4, #16]	@ zero_extendqisi2
 1126 011c 032B     		cmp	r3, #3
 1127 011e 00F0E380 		beq	.L158
 1128              		.loc 1 899 0
 1129 0122 092B     		cmp	r3, #9
 1130 0124 3CD0     		beq	.L159
 1131              	.LVL71:
 1132              	.L117:
 1133              		.loc 1 907 0
 1134 0126 BBF1000F 		cmp	fp, #0
 1135 012a 3ED1     		bne	.L118
 1136              	.LVL72:
 1137              		.loc 1 935 0
 1138 012c 94F83430 		ldrb	r3, [r4, #52]	@ zero_extendqisi2
 1139              		.loc 1 936 0
 1140 0130 94F83520 		ldrb	r2, [r4, #53]	@ zero_extendqisi2
 1141              		.loc 1 932 0
 1142 0134 D4F80CA0 		ldr	sl, [r4, #12]
 1143              	.LVL73:
 1144              		.loc 1 935 0
 1145 0138 0133     		adds	r3, r3, #1
 1146 013a DBB2     		uxtb	r3, r3
 1147              		.loc 1 936 0
 1148 013c 9A42     		cmp	r2, r3
 1149              		.loc 1 935 0
 1150 013e 84F83430 		strb	r3, [r4, #52]
 1151              		.loc 1 936 0
 1152 0142 0CD8     		bhi	.L148
 1153              		.loc 1 939 0
 1154 0144 D4F89030 		ldr	r3, [r4, #144]
 1155              		.loc 1 937 0
 1156 0148 84F834B0 		strb	fp, [r4, #52]
 1157              		.loc 1 939 0
 1158 014c 002B     		cmp	r3, #0
 1159 014e 00F0E180 		beq	.L127
 1160              		.loc 1 939 0 is_stmt 0 discriminator 1
 1161 0152 6069     		ldr	r0, [r4, #20]
 1162 0154 2146     		mov	r1, r4
 1163 0156 9847     		blx	r3
 1164              	.LVL74:
 1165              		.loc 1 941 0 is_stmt 1 discriminator 1
 1166 0158 0028     		cmp	r0, #0
 1167 015a 00F0DB80 		beq	.L127
 1168              	.LVL75:
 1169              	.L148:
 1170              		.loc 1 941 0 is_stmt 0
ARM GAS  /var/folders/5n/p_75w94d66l9ssrldxqdhh700000gn/T//cc9Mn9JC.s 			page 22


 1171 015e 2646     		mov	r6, r4
 1172              		.loc 1 932 0 is_stmt 1
 1173 0160 5446     		mov	r4, sl
 1174              	.LVL76:
 1175              		.loc 1 768 0
 1176 0162 002C     		cmp	r4, #0
 1177 0164 7FF463AF 		bne	.L128
 1178              	.LVL77:
 1179              	.L99:
 1180              		.loc 1 951 0
 1181 0168 694F     		ldr	r7, .L164+8
 1182 016a D7F80080 		ldr	r8, [r7, #0]
 1183              	.LVL78:
 1184              		.loc 1 952 0
 1185 016e B8F1000F 		cmp	r8, #0
 1186 0172 12D0     		beq	.L98
 1187 0174 0024     		movs	r4, #0
 1188              	.LVL79:
 1189              	.L136:
 1190              		.loc 1 953 0
 1191 0176 98F81030 		ldrb	r3, [r8, #16]	@ zero_extendqisi2
 1192 017a 0A2B     		cmp	r3, #10
 1193 017c 01D0     		beq	.L130
 1194              		.loc 1 953 0 is_stmt 0 discriminator 1
 1195 017e FFF7FEFF 		bl	port_halt
 1196              	.L130:
 1197              	.LVL80:
 1198              		.loc 1 957 0 is_stmt 1
 1199 0182 2A68     		ldr	r2, [r5, #0]
 1200 0184 D8F83030 		ldr	r3, [r8, #48]
 1201 0188 D31A     		subs	r3, r2, r3
 1202 018a F02B     		cmp	r3, #240
 1203 018c 2FD8     		bhi	.L131
 1204              	.LVL81:
 1205              		.loc 1 981 0
 1206 018e 4446     		mov	r4, r8
 1207 0190 D8F80C80 		ldr	r8, [r8, #12]
 1208              	.LVL82:
 1209              		.loc 1 952 0
 1210 0194 B8F1000F 		cmp	r8, #0
 1211 0198 EDD1     		bne	.L136
 1212              	.LVL83:
 1213              	.L98:
 1214              		.loc 1 984 0
 1215 019a 05B0     		add	sp, sp, #20
 1216 019c BDE8F08F 		pop	{r4, r5, r6, r7, r8, r9, sl, fp, pc}
 1217              	.LVL84:
 1218              	.L159:
 1219              		.loc 1 900 0
 1220 01a0 2A68     		ldr	r2, [r5, #0]
 1221 01a2 236B     		ldr	r3, [r4, #48]
 1222 01a4 D31A     		subs	r3, r2, r3
 1223 01a6 F02B     		cmp	r3, #240
 1224 01a8 BDD9     		bls	.L117
 1225              	.LVL85:
 1226              	.L118:
 1227              	.LBB18:
ARM GAS  /var/folders/5n/p_75w94d66l9ssrldxqdhh700000gn/T//cc9Mn9JC.s 			page 23


 1228              		.loc 1 909 0
 1229 01aa 2046     		mov	r0, r4
 1230 01ac FFF7FEFF 		bl	tcp_pcb_purge
 1231              		.loc 1 912 0
 1232 01b0 3B68     		ldr	r3, [r7, #0]
 1233              		.loc 1 911 0
 1234 01b2 002E     		cmp	r6, #0
 1235 01b4 00F0C480 		beq	.L120
 1236              		.loc 1 912 0
 1237 01b8 9C42     		cmp	r4, r3
 1238 01ba 00F0DC80 		beq	.L160
 1239              	.L121:
 1240              		.loc 1 913 0
 1241 01be E368     		ldr	r3, [r4, #12]
 1242 01c0 F360     		str	r3, [r6, #12]
 1243              	.L122:
 1244              		.loc 1 920 0
 1245 01c2 D4F89430 		ldr	r3, [r4, #148]
 1246 01c6 1BB1     		cbz	r3, .L124
 1247              		.loc 1 920 0 is_stmt 0 discriminator 1
 1248 01c8 6069     		ldr	r0, [r4, #20]
 1249 01ca 6FF00901 		mvn	r1, #9
 1250 01ce 9847     		blx	r3
 1251              	.L124:
 1252              		.loc 1 921 0 is_stmt 1
 1253 01d0 BAF1000F 		cmp	sl, #0
 1254 01d4 40F0A780 		bne	.L161
 1255              	.L125:
 1256              	.LVL86:
 1257              		.loc 1 927 0
 1258 01d8 D4F80CA0 		ldr	sl, [r4, #12]
 1259              	.LVL87:
 1260              		.loc 1 928 0
 1261 01dc 2146     		mov	r1, r4
 1262 01de 0220     		movs	r0, #2
 1263              		.loc 1 927 0
 1264 01e0 5446     		mov	r4, sl
 1265              	.LVL88:
 1266              		.loc 1 928 0
 1267 01e2 FFF7FEFF 		bl	memp_free
 1268              	.LVL89:
 1269              	.LBE18:
 1270              		.loc 1 768 0
 1271 01e6 002C     		cmp	r4, #0
 1272 01e8 7FF421AF 		bne	.L128
 1273 01ec BCE7     		b	.L99
 1274              	.LVL90:
 1275              	.L131:
 1276              	.LBB19:
 1277              		.loc 1 966 0
 1278 01ee 4046     		mov	r0, r8
 1279 01f0 FFF7FEFF 		bl	tcp_pcb_purge
 1280              		.loc 1 968 0
 1281 01f4 002C     		cmp	r4, #0
 1282 01f6 00F0AA80 		beq	.L162
 1283              		.loc 1 969 0
 1284 01fa 3B68     		ldr	r3, [r7, #0]
ARM GAS  /var/folders/5n/p_75w94d66l9ssrldxqdhh700000gn/T//cc9Mn9JC.s 			page 24


 1285 01fc 9845     		cmp	r8, r3
 1286 01fe 00F0BD80 		beq	.L163
 1287              	.L133:
 1288              		.loc 1 970 0
 1289 0202 D8F80C30 		ldr	r3, [r8, #12]
 1290 0206 E360     		str	r3, [r4, #12]
 1291 0208 D8F80C60 		ldr	r6, [r8, #12]
 1292              	.L134:
 1293              	.LVL91:
 1294              		.loc 1 978 0
 1295 020c 4146     		mov	r1, r8
 1296 020e 0220     		movs	r0, #2
 1297              		.loc 1 977 0
 1298 0210 B046     		mov	r8, r6
 1299              	.LVL92:
 1300              		.loc 1 978 0
 1301 0212 FFF7FEFF 		bl	memp_free
 1302              	.LVL93:
 1303              	.LBE19:
 1304              		.loc 1 952 0
 1305 0216 B8F1000F 		cmp	r8, #0
 1306 021a ACD1     		bne	.L136
 1307 021c BDE7     		b	.L98
 1308              	.LVL94:
 1309              	.L107:
 1310              		.loc 1 798 0
 1311 021e E18E     		ldrh	r1, [r4, #54]
 1312 0220 0804     		lsls	r0, r1, #16
 1313 0222 01D4     		bmi	.L109
 1314              		.loc 1 799 0
 1315 0224 0131     		adds	r1, r1, #1
 1316 0226 E186     		strh	r1, [r4, #54]	@ movhi
 1317              	.L109:
 1318              		.loc 1 801 0
 1319 0228 A16F     		ldr	r1, [r4, #120]
 1320              		.loc 1 774 0
 1321 022a 8B46     		mov	fp, r1
 1322              		.loc 1 801 0
 1323 022c 0029     		cmp	r1, #0
 1324 022e 3FF433AF 		beq	.L106
 1325              		.loc 1 801 0 is_stmt 0 discriminator 1
 1326 0232 B4F93600 		ldrsh	r0, [r4, #54]
 1327 0236 B4F94810 		ldrsh	r1, [r4, #72]
 1328 023a 8842     		cmp	r0, r1
 1329 023c 36DB     		blt	.L143
 1330              		.loc 1 809 0 is_stmt 1
 1331 023e 022B     		cmp	r3, #2
 1332 0240 0DD0     		beq	.L110
 1333              		.loc 1 810 0
 1334 0242 40F20000 		movw	r0, #:lower16:.LANCHOR8
 1335 0246 C0F20000 		movt	r0, #:upper16:.LANCHOR8
 1336 024a B4F94410 		ldrsh	r1, [r4, #68]
 1337 024e B4F94630 		ldrsh	r3, [r4, #70]
 1338 0252 825C     		ldrb	r2, [r0, r2]	@ zero_extendqisi2
 1339 0254 03EBE103 		add	r3, r3, r1, asr #3
 1340 0258 9340     		lsls	r3, r3, r2
 1341 025a A4F84830 		strh	r3, [r4, #72]	@ movhi
ARM GAS  /var/folders/5n/p_75w94d66l9ssrldxqdhh700000gn/T//cc9Mn9JC.s 			page 25


 1342              	.L110:
 1343              		.loc 1 817 0
 1344 025e B4F85210 		ldrh	r1, [r4, #82]
 1345 0262 B4F85C20 		ldrh	r2, [r4, #92]
 1346              		.loc 1 819 0
 1347 0266 238F     		ldrh	r3, [r4, #56]
 1348              		.loc 1 814 0
 1349 0268 A4F83690 		strh	r9, [r4, #54]	@ movhi
 1350              	.LVL95:
 1351              		.loc 1 818 0
 1352 026c 9142     		cmp	r1, r2
 1353 026e 38BF     		it	cc
 1354 0270 0A46     		movcc	r2, r1
 1355 0272 5208     		lsrs	r2, r2, #1
 1356              		.loc 1 819 0
 1357 0274 5900     		lsls	r1, r3, #1
 1358 0276 8A42     		cmp	r2, r1
 1359              		.loc 1 818 0
 1360 0278 A4F85420 		strh	r2, [r4, #84]	@ movhi
 1361              		.loc 1 822 0
 1362 027c A4F85230 		strh	r3, [r4, #82]	@ movhi
 1363              		.loc 1 820 0
 1364 0280 B8BF     		it	lt
 1365 0282 A4F85410 		strhlt	r1, [r4, #84]	@ movhi
 1366              		.loc 1 829 0
 1367 0286 2046     		mov	r0, r4
 1368 0288 FFF7FEFF 		bl	tcp_rexmit_rto
 1369              	.LVL96:
 1370 028c 237C     		ldrb	r3, [r4, #16]	@ zero_extendqisi2
 1371              		.loc 1 834 0
 1372 028e 062B     		cmp	r3, #6
 1373              		.loc 1 774 0
 1374 0290 4FF0000B 		mov	fp, #0
 1375              	.LVL97:
 1376              		.loc 1 834 0
 1377 0294 7FF403AF 		bne	.L105
 1378              	.LVL98:
 1379              	.L155:
 1380              		.loc 1 835 0
 1381 0298 2968     		ldr	r1, [r5, #0]
 1382 029a 226B     		ldr	r2, [r4, #48]
 1383 029c 8A1A     		subs	r2, r1, r2
 1384 029e 282A     		cmp	r2, #40
 1385              		.loc 1 837 0
 1386 02a0 84BF     		itt	hi
 1387 02a2 0BF1010B 		addhi	fp, fp, #1
 1388 02a6 5FFA8BFB 		uxtbhi	fp, fp
 1389              	.LVL99:
 1390 02aa F8E6     		b	.L105
 1391              	.LVL100:
 1392              	.L143:
 1393              		.loc 1 774 0
 1394 02ac 4FF0000B 		mov	fp, #0
 1395 02b0 F2E6     		b	.L106
 1396              	.LVL101:
 1397              	.L152:
 1398              		.loc 1 770 0 discriminator 1
ARM GAS  /var/folders/5n/p_75w94d66l9ssrldxqdhh700000gn/T//cc9Mn9JC.s 			page 26


 1399 02b2 FFF7FEFF 		bl	port_halt
 1400 02b6 237C     		ldrb	r3, [r4, #16]	@ zero_extendqisi2
 1401              		.loc 1 771 0 discriminator 1
 1402 02b8 012B     		cmp	r3, #1
 1403 02ba 7FF4BFAE 		bne	.L101
 1404              	.L153:
 1405 02be FFF7FEFF 		bl	port_halt
 1406 02c2 237C     		ldrb	r3, [r4, #16]	@ zero_extendqisi2
 1407              		.loc 1 772 0 discriminator 1
 1408 02c4 0A2B     		cmp	r3, #10
 1409 02c6 7FF4BCAE 		bne	.L102
 1410              	.L154:
 1411 02ca FFF7FEFF 		bl	port_halt
 1412 02ce 237C     		ldrb	r3, [r4, #16]	@ zero_extendqisi2
 1413              	.LVL102:
 1414              		.loc 1 777 0 discriminator 1
 1415 02d0 94F84A20 		ldrb	r2, [r4, #74]	@ zero_extendqisi2
 1416 02d4 022B     		cmp	r3, #2
 1417 02d6 7FF4B9AE 		bne	.L104
 1418              	.L103:
 1419 02da 062A     		cmp	r2, #6
 1420              		.loc 1 778 0 discriminator 1
 1421 02dc 08BF     		it	eq
 1422 02de 4FF0010B 		moveq	fp, #1
 1423              		.loc 1 777 0 discriminator 1
 1424 02e2 7FF4B3AE 		bne	.L104
 1425 02e6 DAE6     		b	.L105
 1426              	.LVL103:
 1427              	.L158:
 1428              		.loc 1 891 0
 1429 02e8 2A68     		ldr	r2, [r5, #0]
 1430 02ea 236B     		ldr	r3, [r4, #48]
 1431 02ec D31A     		subs	r3, r2, r3
 1432 02ee 282B     		cmp	r3, #40
 1433              		.loc 1 893 0
 1434 02f0 84BF     		itt	hi
 1435 02f2 0BF1010B 		addhi	fp, fp, #1
 1436              	.LVL104:
 1437 02f6 5FFA8BFB 		uxtbhi	fp, fp
 1438 02fa 14E7     		b	.L117
 1439              	.LVL105:
 1440              	.L157:
 1441              		.loc 1 883 0
 1442 02fc FFF7FEFF 		bl	tcp_segs_free
 1443              		.loc 1 884 0
 1444 0300 C4F87C90 		str	r9, [r4, #124]
 1445 0304 09E7     		b	.L114
 1446              	.L165:
 1447 0306 00BF     		.align	2
 1448              	.L164:
 1449 0308 00000000 		.word	.LANCHOR5
 1450 030c 00000000 		.word	.LANCHOR6
 1451 0310 00000000 		.word	.LANCHOR9
 1452              	.LVL106:
 1453              	.L127:
 1454              		.loc 1 942 0
 1455 0314 2046     		mov	r0, r4
ARM GAS  /var/folders/5n/p_75w94d66l9ssrldxqdhh700000gn/T//cc9Mn9JC.s 			page 27


 1456 0316 2646     		mov	r6, r4
 1457              		.loc 1 932 0
 1458 0318 5446     		mov	r4, sl
 1459              	.LVL107:
 1460              		.loc 1 942 0
 1461 031a FFF7FEFF 		bl	tcp_output
 1462              	.LVL108:
 1463              		.loc 1 768 0
 1464 031e 002C     		cmp	r4, #0
 1465 0320 7FF485AE 		bne	.L128
 1466 0324 20E7     		b	.L99
 1467              	.LVL109:
 1468              	.L161:
 1469              	.LBB20:
 1470              		.loc 1 922 0
 1471 0326 A38B     		ldrh	r3, [r4, #28]
 1472 0328 A06D     		ldr	r0, [r4, #88]
 1473 032a 616A     		ldr	r1, [r4, #36]
 1474 032c 0093     		str	r3, [sp, #0]
 1475 032e B4F81EE0 		ldrh	lr, [r4, #30]
 1476 0332 2246     		mov	r2, r4
 1477 0334 231D     		adds	r3, r4, #4
 1478 0336 CDF804E0 		str	lr, [sp, #4]
 1479 033a FFF7FEFF 		bl	tcp_rst
 1480 033e 4BE7     		b	.L125
 1481              	.L120:
 1482              		.loc 1 916 0
 1483 0340 A342     		cmp	r3, r4
 1484 0342 01D0     		beq	.L123
 1485              		.loc 1 916 0 is_stmt 0 discriminator 1
 1486 0344 FFF7FEFF 		bl	port_halt
 1487              	.L123:
 1488              		.loc 1 917 0 is_stmt 1
 1489 0348 E368     		ldr	r3, [r4, #12]
 1490 034a 3B60     		str	r3, [r7, #0]
 1491 034c 39E7     		b	.L122
 1492              	.LVL110:
 1493              	.L162:
 1494              	.LBE20:
 1495              	.LBB21:
 1496              		.loc 1 973 0
 1497 034e 3B68     		ldr	r3, [r7, #0]
 1498 0350 4345     		cmp	r3, r8
 1499 0352 01D0     		beq	.L135
 1500              		.loc 1 973 0 is_stmt 0 discriminator 1
 1501 0354 FFF7FEFF 		bl	port_halt
 1502              	.L135:
 1503              		.loc 1 974 0 is_stmt 1
 1504 0358 D8F80C60 		ldr	r6, [r8, #12]
 1505 035c 3E60     		str	r6, [r7, #0]
 1506 035e 55E7     		b	.L134
 1507              	.LVL111:
 1508              	.L156:
 1509              	.LBE21:
 1510              		.loc 1 872 0
 1511 0360 2046     		mov	r0, r4
 1512 0362 FFF7FEFF 		bl	tcp_keepalive
ARM GAS  /var/folders/5n/p_75w94d66l9ssrldxqdhh700000gn/T//cc9Mn9JC.s 			page 28


 1513              		.loc 1 873 0
 1514 0366 94F8A130 		ldrb	r3, [r4, #161]	@ zero_extendqisi2
 1515 036a 0133     		adds	r3, r3, #1
 1516 036c 84F8A130 		strb	r3, [r4, #161]
 1517              		.loc 1 775 0
 1518 0370 4FF0000A 		mov	sl, #0
 1519 0374 C4E6     		b	.L112
 1520              	.LVL112:
 1521              	.L160:
 1522              	.LBB22:
 1523              		.loc 1 912 0 discriminator 1
 1524 0376 FFF7FEFF 		bl	port_halt
 1525 037a 20E7     		b	.L121
 1526              	.LVL113:
 1527              	.L163:
 1528              	.LBE22:
 1529              	.LBB23:
 1530              		.loc 1 969 0 discriminator 1
 1531 037c FFF7FEFF 		bl	port_halt
 1532 0380 3FE7     		b	.L133
 1533              	.LBE23:
 1534              		.cfi_endproc
 1535              	.LFE20:
 1536              		.size	tcp_slowtmr, .-tcp_slowtmr
 1537 0382 00BFAFF3 		.section	.text.tcp_pcb_remove,"ax",%progbits
 1537      0080AFF3 
 1537      0080AFF3 
 1537      0080
 1538              		.align	2
 1539              		.p2align 4,,15
 1540              		.global	tcp_pcb_remove
 1541              		.thumb
 1542              		.thumb_func
 1543              		.type	tcp_pcb_remove, %function
 1544              	tcp_pcb_remove:
 1545              	.LFB38:
 1546              		.loc 1 1432 0
 1547              		.cfi_startproc
 1548              		@ args = 0, pretend = 0, frame = 0
 1549              		@ frame_needed = 0, uses_anonymous_args = 0
 1550              	.LVL114:
 1551              		.loc 1 1433 0
 1552 0000 0268     		ldr	r2, [r0, #0]
 1553 0002 8A42     		cmp	r2, r1
 1554              		.loc 1 1432 0
 1555 0004 10B5     		push	{r4, lr}
 1556              	.LCFI11:
 1557              		.cfi_def_cfa_offset 8
 1558              		.cfi_offset 14, -4
 1559              		.cfi_offset 4, -8
 1560              		.loc 1 1432 0
 1561 0006 0C46     		mov	r4, r1
 1562              		.loc 1 1433 0
 1563 0008 39D0     		beq	.L181
 1564              		.loc 1 1433 0 is_stmt 0 discriminator 2
 1565 000a 1F49     		ldr	r1, .L186
 1566              	.LVL115:
ARM GAS  /var/folders/5n/p_75w94d66l9ssrldxqdhh700000gn/T//cc9Mn9JC.s 			page 29


 1567 000c 0A60     		str	r2, [r1, #0]
 1568 000e 52B1     		cbz	r2, .L168
 1569              		.loc 1 1433 0
 1570 0010 D368     		ldr	r3, [r2, #12]
 1571 0012 A342     		cmp	r3, r4
 1572 0014 36D0     		beq	.L182
 1573              		.loc 1 1433 0 discriminator 5
 1574 0016 2BB1     		cbz	r3, .L183
 1575              	.L172:
 1576              		.loc 1 1433 0 discriminator 7
 1577 0018 DA68     		ldr	r2, [r3, #12]
 1578 001a A242     		cmp	r2, r4
 1579 001c 2BD0     		beq	.L184
 1580              		.loc 1 1433 0
 1581 001e 1346     		mov	r3, r2
 1582 0020 002B     		cmp	r3, #0
 1583 0022 F9D1     		bne	.L172
 1584              	.L183:
 1585 0024 0B60     		str	r3, [r1, #0]
 1586              	.L168:
 1587              		.loc 1 1433 0 discriminator 6
 1588 0026 0023     		movs	r3, #0
 1589 0028 E360     		str	r3, [r4, #12]
 1590              		.loc 1 1435 0 is_stmt 1 discriminator 6
 1591 002a 2046     		mov	r0, r4
 1592              	.LVL116:
 1593 002c FFF7FEFF 		bl	tcp_pcb_purge
 1594              		.loc 1 1438 0 discriminator 6
 1595 0030 237C     		ldrb	r3, [r4, #16]	@ zero_extendqisi2
 1596 0032 012B     		cmp	r3, #1
 1597 0034 18BF     		it	ne
 1598 0036 0A2B     		cmpne	r3, #10
 1599 0038 1AD0     		beq	.L173
 1600              		.loc 1 1440 0
 1601 003a 94F82030 		ldrb	r3, [r4, #32]	@ zero_extendqisi2
 1602              		.loc 1 1439 0
 1603 003e DA07     		lsls	r2, r3, #31
 1604 0040 0ED4     		bmi	.L185
 1605              	.L174:
 1606              		.loc 1 1446 0
 1607 0042 636F     		ldr	r3, [r4, #116]
 1608 0044 0BB1     		cbz	r3, .L176
 1609              		.loc 1 1446 0 is_stmt 0 discriminator 1
 1610 0046 FFF7FEFF 		bl	port_halt
 1611              	.L176:
 1612              		.loc 1 1447 0 is_stmt 1
 1613 004a A36F     		ldr	r3, [r4, #120]
 1614 004c 0BB1     		cbz	r3, .L177
 1615              		.loc 1 1447 0 is_stmt 0 discriminator 1
 1616 004e FFF7FEFF 		bl	port_halt
 1617              	.L177:
 1618              		.loc 1 1449 0 is_stmt 1
 1619 0052 E36F     		ldr	r3, [r4, #124]
 1620 0054 0BB1     		cbz	r3, .L175
 1621              		.loc 1 1449 0 is_stmt 0 discriminator 1
 1622 0056 FFF7FEFF 		bl	port_halt
 1623              	.L175:
ARM GAS  /var/folders/5n/p_75w94d66l9ssrldxqdhh700000gn/T//cc9Mn9JC.s 			page 30


 1624              		.loc 1 1453 0 is_stmt 1
 1625 005a 0023     		movs	r3, #0
 1626 005c 2374     		strb	r3, [r4, #16]
 1627              		.loc 1 1456 0
 1628 005e 10BD     		pop	{r4, pc}
 1629              	.L185:
 1630              		.loc 1 1441 0
 1631 0060 43F00203 		orr	r3, r3, #2
 1632 0064 84F82030 		strb	r3, [r4, #32]
 1633              		.loc 1 1442 0
 1634 0068 2046     		mov	r0, r4
 1635 006a FFF7FEFF 		bl	tcp_output
 1636 006e 237C     		ldrb	r3, [r4, #16]	@ zero_extendqisi2
 1637              	.L173:
 1638              		.loc 1 1445 0
 1639 0070 012B     		cmp	r3, #1
 1640 0072 E6D1     		bne	.L174
 1641 0074 F1E7     		b	.L175
 1642              	.LVL117:
 1643              	.L184:
 1644              		.loc 1 1433 0
 1645 0076 0B60     		str	r3, [r1, #0]
 1646              	.L169:
 1647              		.loc 1 1433 0 is_stmt 0 discriminator 4
 1648 0078 E268     		ldr	r2, [r4, #12]
 1649 007a DA60     		str	r2, [r3, #12]
 1650 007c D3E7     		b	.L168
 1651              	.L181:
 1652              		.loc 1 1433 0 discriminator 1
 1653 007e CB68     		ldr	r3, [r1, #12]
 1654 0080 0360     		str	r3, [r0, #0]
 1655 0082 D0E7     		b	.L168
 1656              	.L182:
 1657              		.loc 1 1433 0
 1658 0084 1346     		mov	r3, r2
 1659 0086 F7E7     		b	.L169
 1660              	.L187:
 1661              		.align	2
 1662              	.L186:
 1663 0088 00000000 		.word	.LANCHOR3
 1664              		.cfi_endproc
 1665              	.LFE38:
 1666              		.size	tcp_pcb_remove, .-tcp_pcb_remove
 1667 008c AFF30080 		.section	.text.tcp_abandon,"ax",%progbits
 1668              		.align	2
 1669              		.p2align 4,,15
 1670              		.global	tcp_abandon
 1671              		.thumb
 1672              		.thumb_func
 1673              		.type	tcp_abandon, %function
 1674              	tcp_abandon:
 1675              	.LFB11:
 1676              		.loc 1 319 0 is_stmt 1
 1677              		.cfi_startproc
 1678              		@ args = 0, pretend = 0, frame = 8
 1679              		@ frame_needed = 0, uses_anonymous_args = 0
 1680              	.LVL118:
ARM GAS  /var/folders/5n/p_75w94d66l9ssrldxqdhh700000gn/T//cc9Mn9JC.s 			page 31


 1681 0000 2DE9F04F 		push	{r4, r5, r6, r7, r8, r9, sl, fp, lr}
 1682              	.LCFI12:
 1683              		.cfi_def_cfa_offset 36
 1684              		.cfi_offset 14, -4
 1685              		.cfi_offset 11, -8
 1686              		.cfi_offset 10, -12
 1687              		.cfi_offset 9, -16
 1688              		.cfi_offset 8, -20
 1689              		.cfi_offset 7, -24
 1690              		.cfi_offset 6, -28
 1691              		.cfi_offset 5, -32
 1692              		.cfi_offset 4, -36
 1693              		.loc 1 329 0
 1694 0004 037C     		ldrb	r3, [r0, #16]	@ zero_extendqisi2
 1695 0006 012B     		cmp	r3, #1
 1696              		.loc 1 319 0
 1697 0008 85B0     		sub	sp, sp, #20
 1698              	.LCFI13:
 1699              		.cfi_def_cfa_offset 56
 1700              		.loc 1 319 0
 1701 000a 0646     		mov	r6, r0
 1702 000c 8846     		mov	r8, r1
 1703              		.loc 1 329 0
 1704 000e 40D0     		beq	.L196
 1705              	.LVL119:
 1706              	.L189:
 1707              		.loc 1 334 0
 1708 0010 0A2B     		cmp	r3, #10
 1709 0012 35D0     		beq	.L197
 1710              		.loc 1 341 0
 1711 0014 96E80C00 		ldmia	r6, {r2, r3}
 1712              		.loc 1 348 0
 1713 0018 2048     		ldr	r0, .L199
 1714              		.loc 1 338 0
 1715 001a D6F858B0 		ldr	fp, [r6, #88]
 1716              	.LVL120:
 1717              		.loc 1 339 0
 1718 001e D6F824A0 		ldr	sl, [r6, #36]
 1719              	.LVL121:
 1720              		.loc 1 340 0
 1721 0022 0392     		str	r2, [sp, #12]
 1722              		.loc 1 348 0
 1723 0024 3146     		mov	r1, r6
 1724              		.loc 1 341 0
 1725 0026 0293     		str	r3, [sp, #8]
 1726              		.loc 1 342 0
 1727 0028 B58B     		ldrh	r5, [r6, #28]
 1728              	.LVL122:
 1729              		.loc 1 343 0
 1730 002a F48B     		ldrh	r4, [r6, #30]
 1731              	.LVL123:
 1732              		.loc 1 345 0
 1733 002c D6F89470 		ldr	r7, [r6, #148]
 1734              	.LVL124:
 1735              		.loc 1 347 0
 1736 0030 D6F81490 		ldr	r9, [r6, #20]
 1737              	.LVL125:
ARM GAS  /var/folders/5n/p_75w94d66l9ssrldxqdhh700000gn/T//cc9Mn9JC.s 			page 32


 1738              		.loc 1 348 0
 1739 0034 FFF7FEFF 		bl	tcp_pcb_remove
 1740              	.LVL126:
 1741              		.loc 1 349 0
 1742 0038 B06F     		ldr	r0, [r6, #120]
 1743 003a 08B1     		cbz	r0, .L192
 1744              		.loc 1 350 0
 1745 003c FFF7FEFF 		bl	tcp_segs_free
 1746              	.L192:
 1747              		.loc 1 352 0
 1748 0040 706F     		ldr	r0, [r6, #116]
 1749 0042 08B1     		cbz	r0, .L193
 1750              		.loc 1 353 0
 1751 0044 FFF7FEFF 		bl	tcp_segs_free
 1752              	.L193:
 1753              		.loc 1 356 0
 1754 0048 F06F     		ldr	r0, [r6, #124]
 1755 004a 08B1     		cbz	r0, .L194
 1756              		.loc 1 357 0
 1757 004c FFF7FEFF 		bl	tcp_segs_free
 1758              	.L194:
 1759              		.loc 1 360 0
 1760 0050 0220     		movs	r0, #2
 1761 0052 3146     		mov	r1, r6
 1762 0054 FFF7FEFF 		bl	memp_free
 1763              		.loc 1 361 0
 1764 0058 1FB1     		cbz	r7, .L195
 1765              		.loc 1 361 0 is_stmt 0 discriminator 1
 1766 005a 4846     		mov	r0, r9
 1767 005c 6FF00901 		mvn	r1, #9
 1768 0060 B847     		blx	r7
 1769              	.L195:
 1770              		.loc 1 362 0 is_stmt 1
 1771 0062 B8F1000F 		cmp	r8, #0
 1772 0066 02D1     		bne	.L198
 1773              	.LVL127:
 1774              	.L188:
 1775              		.loc 1 367 0
 1776 0068 05B0     		add	sp, sp, #20
 1777 006a BDE8F08F 		pop	{r4, r5, r6, r7, r8, r9, sl, fp, pc}
 1778              	.LVL128:
 1779              	.L198:
 1780              		.loc 1 364 0
 1781 006e 5846     		mov	r0, fp
 1782 0070 5146     		mov	r1, sl
 1783 0072 03AA     		add	r2, sp, #12
 1784 0074 02AB     		add	r3, sp, #8
 1785 0076 0095     		str	r5, [sp, #0]
 1786 0078 0194     		str	r4, [sp, #4]
 1787 007a FFF7FEFF 		bl	tcp_rst
 1788 007e F3E7     		b	.L188
 1789              	.LVL129:
 1790              	.L197:
 1791              		.loc 1 335 0
 1792 0080 3146     		mov	r1, r6
 1793 0082 0748     		ldr	r0, .L199+4
 1794 0084 FFF7FEFF 		bl	tcp_pcb_remove
ARM GAS  /var/folders/5n/p_75w94d66l9ssrldxqdhh700000gn/T//cc9Mn9JC.s 			page 33


 1795              		.loc 1 336 0
 1796 0088 0220     		movs	r0, #2
 1797 008a 3146     		mov	r1, r6
 1798 008c FFF7FEFF 		bl	memp_free
 1799 0090 EAE7     		b	.L188
 1800              	.L196:
 1801              		.loc 1 329 0 discriminator 1
 1802 0092 FFF7FEFF 		bl	port_halt
 1803 0096 337C     		ldrb	r3, [r6, #16]	@ zero_extendqisi2
 1804 0098 BAE7     		b	.L189
 1805              	.L200:
 1806 009a 00BF     		.align	2
 1807              	.L199:
 1808 009c 00000000 		.word	.LANCHOR6
 1809 00a0 00000000 		.word	.LANCHOR9
 1810              		.cfi_endproc
 1811              	.LFE11:
 1812              		.size	tcp_abandon, .-tcp_abandon
 1813 00a4 AFF30080 		.section	.text.tcp_abort,"ax",%progbits
 1813      AFF30080 
 1813      AFF30080 
 1814              		.align	2
 1815              		.p2align 4,,15
 1816              		.global	tcp_abort
 1817              		.thumb
 1818              		.thumb_func
 1819              		.type	tcp_abort, %function
 1820              	tcp_abort:
 1821              	.LFB12:
 1822              		.loc 1 381 0
 1823              		.cfi_startproc
 1824              		@ args = 0, pretend = 0, frame = 0
 1825              		@ frame_needed = 0, uses_anonymous_args = 0
 1826              		@ link register save eliminated.
 1827              	.LVL130:
 1828              		.loc 1 382 0
 1829 0000 0121     		movs	r1, #1
 1830              		.loc 1 383 0
 1831              		.loc 1 382 0
 1832 0002 FFF7FEBF 		b	tcp_abandon
 1833              	.LVL131:
 1834              		.cfi_endproc
 1835              	.LFE12:
 1836              		.size	tcp_abort, .-tcp_abort
 1837 0006 00BFAFF3 		.section	.text.tcp_alloc,"ax",%progbits
 1837      0080AFF3 
 1837      0080
 1838              		.align	2
 1839              		.p2align 4,,15
 1840              		.global	tcp_alloc
 1841              		.thumb
 1842              		.thumb_func
 1843              		.type	tcp_alloc, %function
 1844              	tcp_alloc:
 1845              	.LFB29:
 1846              		.loc 1 1181 0
 1847              		.cfi_startproc
ARM GAS  /var/folders/5n/p_75w94d66l9ssrldxqdhh700000gn/T//cc9Mn9JC.s 			page 34


 1848              		@ args = 0, pretend = 0, frame = 0
 1849              		@ frame_needed = 0, uses_anonymous_args = 0
 1850              	.LVL132:
 1851 0000 2DE9F041 		push	{r4, r5, r6, r7, r8, lr}
 1852              	.LCFI14:
 1853              		.cfi_def_cfa_offset 24
 1854              		.cfi_offset 14, -4
 1855              		.cfi_offset 8, -8
 1856              		.cfi_offset 7, -12
 1857              		.cfi_offset 6, -16
 1858              		.cfi_offset 5, -20
 1859              		.cfi_offset 4, -24
 1860              		.loc 1 1181 0
 1861 0004 0546     		mov	r5, r0
 1862              		.loc 1 1185 0
 1863 0006 0220     		movs	r0, #2
 1864              	.LVL133:
 1865 0008 FFF7FEFF 		bl	memp_malloc
 1866              	.LVL134:
 1867              		.loc 1 1186 0
 1868 000c 0446     		mov	r4, r0
 1869 000e 0028     		cmp	r0, #0
 1870 0010 44D0     		beq	.L215
 1871              	.L203:
 1872              		.loc 1 1209 0
 1873 0012 0021     		movs	r1, #0
 1874 0014 A422     		movs	r2, #164
 1875 0016 2046     		mov	r0, r4
 1876              	.LVL135:
 1877 0018 FFF7FEFF 		bl	memset
 1878              	.LBB24:
 1879              	.LBB25:
 1880              		.loc 1 1468 0
 1881 001c 414F     		ldr	r7, .L216
 1882 001e 424A     		ldr	r2, .L216+4
 1883 0020 3B68     		ldr	r3, [r7, #0]
 1884 0022 1668     		ldr	r6, [r2, #0]
 1885              	.LBE25:
 1886              	.LBE24:
 1887              		.loc 1 1210 0
 1888 0024 6574     		strb	r5, [r4, #17]
 1889              	.LBB28:
 1890              	.LBB26:
 1891              		.loc 1 1468 0
 1892 0026 F318     		adds	r3, r6, r3
 1893              	.LBE26:
 1894              	.LBE28:
 1895              		.loc 1 1212 0
 1896 0028 0021     		movs	r1, #0
 1897              		.loc 1 1213 0
 1898 002a 4FF4066C 		mov	ip, #2144
 1899              		.loc 1 1212 0
 1900 002e 0A46     		mov	r2, r1	@ movhi
 1901              		.loc 1 1239 0
 1902 0030 4FF45D40 		mov	r0, #56576
 1903              		.loc 1 1212 0
 1904 0034 A4F87010 		strh	r1, [r4, #112]	@ movhi
ARM GAS  /var/folders/5n/p_75w94d66l9ssrldxqdhh700000gn/T//cc9Mn9JC.s 			page 35


 1905              		.loc 1 1213 0
 1906 0038 A4F828C0 		strh	ip, [r4, #40]	@ movhi
 1907              		.loc 1 1214 0
 1908 003c A4F82AC0 		strh	ip, [r4, #42]	@ movhi
 1909              		.loc 1 1215 0
 1910 0040 6172     		strb	r1, [r4, #9]
 1911              		.loc 1 1216 0
 1912 0042 4FF0FF0C 		mov	ip, #255
 1913              		.loc 1 1221 0
 1914 0046 A4F84410 		strh	r1, [r4, #68]	@ movhi
 1915              	.LBB29:
 1916              	.LBB27:
 1917              		.loc 1 1468 0
 1918 004a 3B60     		str	r3, [r7, #0]
 1919              	.LBE27:
 1920              	.LBE29:
 1921              		.loc 1 1223 0
 1922 004c 4FF6FF71 		movw	r1, #65535
 1923              		.loc 1 1226 0
 1924 0050 6366     		str	r3, [r4, #100]
 1925              		.loc 1 1227 0
 1926 0052 A365     		str	r3, [r4, #88]
 1927              		.loc 1 1228 0
 1928 0054 E364     		str	r3, [r4, #76]
 1929              		.loc 1 1229 0
 1930 0056 A366     		str	r3, [r4, #104]
 1931              		.loc 1 1235 0
 1932 0058 344B     		ldr	r3, .L216+8
 1933              		.loc 1 1216 0
 1934 005a 84F80AC0 		strb	ip, [r4, #10]
 1935              		.loc 1 1220 0
 1936 005e 0625     		movs	r5, #6
 1937              		.loc 1 1239 0
 1938 0060 C0F26D00 		movt	r0, 109
 1939              		.loc 1 1211 0
 1940 0064 4FF48078 		mov	r8, #256
 1941              		.loc 1 1219 0
 1942 0068 4FF4067C 		mov	ip, #536
 1943              		.loc 1 1223 0
 1944 006c E186     		strh	r1, [r4, #54]	@ movhi
 1945              		.loc 1 1224 0
 1946 006e 0121     		movs	r1, #1
 1947              		.loc 1 1211 0
 1948 0070 A4F86E80 		strh	r8, [r4, #110]	@ movhi
 1949              		.loc 1 1219 0
 1950 0074 A4F838C0 		strh	ip, [r4, #56]	@ movhi
 1951              		.loc 1 1220 0
 1952 0078 A4F84850 		strh	r5, [r4, #72]	@ movhi
 1953              		.loc 1 1222 0
 1954 007c A4F84650 		strh	r5, [r4, #70]	@ movhi
 1955              		.loc 1 1224 0
 1956 0080 A4F85210 		strh	r1, [r4, #82]	@ movhi
 1957              		.loc 1 1230 0
 1958 0084 2663     		str	r6, [r4, #48]
 1959              		.loc 1 1232 0
 1960 0086 84F83420 		strb	r2, [r4, #52]
 1961              		.loc 1 1235 0
ARM GAS  /var/folders/5n/p_75w94d66l9ssrldxqdhh700000gn/T//cc9Mn9JC.s 			page 36


 1962 008a C4F88830 		str	r3, [r4, #136]
 1963              		.loc 1 1239 0
 1964 008e C4F89800 		str	r0, [r4, #152]
 1965              		.loc 1 1246 0
 1966 0092 84F8A120 		strb	r2, [r4, #161]
 1967              	.L212:
 1968              		.loc 1 1249 0
 1969 0096 2046     		mov	r0, r4
 1970 0098 BDE8F081 		pop	{r4, r5, r6, r7, r8, pc}
 1971              	.LVL136:
 1972              	.L215:
 1973              	.LBB30:
 1974              	.LBB31:
 1975              		.loc 1 1160 0
 1976 009c 244B     		ldr	r3, .L216+12
 1977 009e 1B68     		ldr	r3, [r3, #0]
 1978              	.LVL137:
 1979 00a0 7BB1     		cbz	r3, .L204
 1980 00a2 214A     		ldr	r2, .L216+4
 1981 00a4 1668     		ldr	r6, [r2, #0]
 1982              		.loc 1 1157 0
 1983 00a6 0146     		mov	r1, r0
 1984              	.LVL138:
 1985              	.L206:
 1986              		.loc 1 1161 0
 1987 00a8 1A6B     		ldr	r2, [r3, #48]
 1988 00aa B21A     		subs	r2, r6, r2
 1989 00ac 8A42     		cmp	r2, r1
 1990 00ae 28BF     		it	cs
 1991 00b0 1846     		movcs	r0, r3
 1992              		.loc 1 1160 0
 1993 00b2 DB68     		ldr	r3, [r3, #12]
 1994              	.LVL139:
 1995              		.loc 1 1161 0
 1996 00b4 28BF     		it	cs
 1997 00b6 1146     		movcs	r1, r2
 1998              	.LVL140:
 1999              		.loc 1 1160 0
 2000 00b8 002B     		cmp	r3, #0
 2001 00ba F5D1     		bne	.L206
 2002              		.loc 1 1166 0
 2003 00bc 08B1     		cbz	r0, .L204
 2004              		.loc 1 1169 0
 2005 00be FFF7FEFF 		bl	tcp_abort
 2006              	.LVL141:
 2007              	.L204:
 2008              	.LBE31:
 2009              	.LBE30:
 2010              		.loc 1 1191 0
 2011 00c2 0220     		movs	r0, #2
 2012 00c4 FFF7FEFF 		bl	memp_malloc
 2013              	.LVL142:
 2014              		.loc 1 1192 0
 2015 00c8 0446     		mov	r4, r0
 2016 00ca 30B1     		cbz	r0, .L207
 2017 00cc 194B     		ldr	r3, .L216+16
 2018 00ce B3F8CC20 		ldrh	r2, [r3, #204]
ARM GAS  /var/folders/5n/p_75w94d66l9ssrldxqdhh700000gn/T//cc9Mn9JC.s 			page 37


 2019              	.L208:
 2020              		.loc 1 1205 0
 2021 00d2 013A     		subs	r2, r2, #1
 2022 00d4 A3F8CC20 		strh	r2, [r3, #204]	@ movhi
 2023 00d8 9BE7     		b	.L203
 2024              	.L207:
 2025              	.LVL143:
 2026              	.LBB32:
 2027              	.LBB33:
 2028              		.loc 1 1131 0
 2029 00da 174B     		ldr	r3, .L216+20
 2030 00dc 1B68     		ldr	r3, [r3, #0]
 2031              	.LVL144:
 2032 00de ABB1     		cbz	r3, .L209
 2033              		.loc 1 1134 0
 2034 00e0 114A     		ldr	r2, .L216+4
 2035 00e2 1468     		ldr	r4, [r2, #0]
 2036              		.loc 1 1129 0
 2037 00e4 0746     		mov	r7, r0
 2038              		.loc 1 1126 0
 2039 00e6 7F21     		movs	r1, #127
 2040              	.LVL145:
 2041              	.L211:
 2042              		.loc 1 1132 0
 2043 00e8 5A7C     		ldrb	r2, [r3, #17]	@ zero_extendqisi2
 2044 00ea 9542     		cmp	r5, r2
 2045 00ec 08D3     		bcc	.L210
 2046 00ee 8A42     		cmp	r2, r1
 2047 00f0 06D8     		bhi	.L210
 2048              		.loc 1 1134 0
 2049 00f2 1E6B     		ldr	r6, [r3, #48]
 2050 00f4 A61B     		subs	r6, r4, r6
 2051              		.loc 1 1133 0
 2052 00f6 BE42     		cmp	r6, r7
 2053 00f8 22BF     		ittt	cs
 2054 00fa 1846     		movcs	r0, r3
 2055 00fc 1146     		movcs	r1, r2
 2056 00fe 3746     		movcs	r7, r6
 2057              	.L210:
 2058              	.LVL146:
 2059              		.loc 1 1131 0
 2060 0100 DB68     		ldr	r3, [r3, #12]
 2061              	.LVL147:
 2062 0102 002B     		cmp	r3, #0
 2063 0104 F0D1     		bne	.L211
 2064              		.loc 1 1140 0
 2065 0106 08B1     		cbz	r0, .L209
 2066              		.loc 1 1143 0
 2067 0108 FFF7FEFF 		bl	tcp_abort
 2068              	.LVL148:
 2069              	.L209:
 2070              	.LBE33:
 2071              	.LBE32:
 2072              		.loc 1 1197 0
 2073 010c 0220     		movs	r0, #2
 2074 010e FFF7FEFF 		bl	memp_malloc
 2075              	.LVL149:
ARM GAS  /var/folders/5n/p_75w94d66l9ssrldxqdhh700000gn/T//cc9Mn9JC.s 			page 38


 2076              		.loc 1 1198 0
 2077 0112 0446     		mov	r4, r0
 2078 0114 0028     		cmp	r0, #0
 2079 0116 BED0     		beq	.L212
 2080              		.loc 1 1200 0
 2081 0118 064B     		ldr	r3, .L216+16
 2082 011a B3F8CC20 		ldrh	r2, [r3, #204]
 2083 011e 013A     		subs	r2, r2, #1
 2084 0120 92B2     		uxth	r2, r2
 2085 0122 D6E7     		b	.L208
 2086              	.L217:
 2087              		.align	2
 2088              	.L216:
 2089 0124 00000000 		.word	.LANCHOR10
 2090 0128 00000000 		.word	.LANCHOR5
 2091 012c 00000000 		.word	tcp_recv_null
 2092 0130 00000000 		.word	.LANCHOR9
 2093 0134 00000000 		.word	lwip_stats
 2094 0138 00000000 		.word	.LANCHOR6
 2095              		.cfi_endproc
 2096              	.LFE29:
 2097              		.size	tcp_alloc, .-tcp_alloc
 2098 013c AFF30080 		.section	.text.tcp_new,"ax",%progbits
 2099              		.align	2
 2100              		.p2align 4,,15
 2101              		.global	tcp_new
 2102              		.thumb
 2103              		.thumb_func
 2104              		.type	tcp_new, %function
 2105              	tcp_new:
 2106              	.LFB30:
 2107              		.loc 1 1265 0
 2108              		.cfi_startproc
 2109              		@ args = 0, pretend = 0, frame = 0
 2110              		@ frame_needed = 0, uses_anonymous_args = 0
 2111              		@ link register save eliminated.
 2112              		.loc 1 1266 0
 2113 0000 4020     		movs	r0, #64
 2114              		.loc 1 1267 0
 2115              		.loc 1 1266 0
 2116 0002 FFF7FEBF 		b	tcp_alloc
 2117              		.cfi_endproc
 2118              	.LFE30:
 2119              		.size	tcp_new, .-tcp_new
 2120 0006 00BFAFF3 		.section	.text.tcp_close_shutdown,"ax",%progbits
 2120      0080AFF3 
 2120      0080
 2121              		.align	2
 2122              		.p2align 4,,15
 2123              		.thumb
 2124              		.thumb_func
 2125              		.type	tcp_close_shutdown, %function
 2126              	tcp_close_shutdown:
 2127              	.LFB8:
 2128              		.loc 1 139 0
 2129              		.cfi_startproc
 2130              		@ args = 0, pretend = 0, frame = 0
ARM GAS  /var/folders/5n/p_75w94d66l9ssrldxqdhh700000gn/T//cc9Mn9JC.s 			page 39


 2131              		@ frame_needed = 0, uses_anonymous_args = 0
 2132              	.LVL150:
 2133 0000 30B5     		push	{r4, r5, lr}
 2134              	.LCFI15:
 2135              		.cfi_def_cfa_offset 12
 2136              		.cfi_offset 14, -4
 2137              		.cfi_offset 5, -8
 2138              		.cfi_offset 4, -12
 2139              		.loc 1 142 0
 2140 0002 037C     		ldrb	r3, [r0, #16]	@ zero_extendqisi2
 2141              		.loc 1 139 0
 2142 0004 83B0     		sub	sp, sp, #12
 2143              	.LCFI16:
 2144              		.cfi_def_cfa_offset 24
 2145              		.loc 1 139 0
 2146 0006 0446     		mov	r4, r0
 2147              		.loc 1 142 0
 2148 0008 0029     		cmp	r1, #0
 2149 000a 36D0     		beq	.L223
 2150              		.loc 1 142 0 is_stmt 0 discriminator 1
 2151 000c 012B     		cmp	r3, #1
 2152 000e 4AD0     		beq	.L221
 2153              		.loc 1 143 0 is_stmt 1
 2154 0010 D0F88020 		ldr	r2, [r0, #128]
 2155 0014 002A     		cmp	r2, #0
 2156 0016 2CD0     		beq	.L260
 2157              	.L222:
 2158              		.loc 1 146 0
 2159 0018 94F82030 		ldrb	r3, [r4, #32]	@ zero_extendqisi2
 2160 001c D906     		lsls	r1, r3, #27
 2161              	.LVL151:
 2162 001e 73D5     		bpl	.L261
 2163              	.LVL152:
 2164              	.L224:
 2165              		.loc 1 150 0
 2166 0020 A38B     		ldrh	r3, [r4, #28]
 2167 0022 E58B     		ldrh	r5, [r4, #30]
 2168 0024 A06D     		ldr	r0, [r4, #88]
 2169 0026 616A     		ldr	r1, [r4, #36]
 2170 0028 0093     		str	r3, [sp, #0]
 2171 002a 2246     		mov	r2, r4
 2172 002c 231D     		adds	r3, r4, #4
 2173 002e 0195     		str	r5, [sp, #4]
 2174 0030 FFF7FEFF 		bl	tcp_rst
 2175              		.loc 1 153 0
 2176 0034 2046     		mov	r0, r4
 2177 0036 FFF7FEFF 		bl	tcp_pcb_purge
 2178              		.loc 1 158 0
 2179 003a 3E4B     		ldr	r3, .L270
 2180 003c 1A68     		ldr	r2, [r3, #0]
 2181 003e A242     		cmp	r2, r4
 2182 0040 65D0     		beq	.L262
 2183              		.loc 1 158 0 is_stmt 0 discriminator 2
 2184 0042 3D49     		ldr	r1, .L270+4
 2185 0044 0A60     		str	r2, [r1, #0]
 2186 0046 52B1     		cbz	r2, .L226
 2187              		.loc 1 158 0
ARM GAS  /var/folders/5n/p_75w94d66l9ssrldxqdhh700000gn/T//cc9Mn9JC.s 			page 40


 2188 0048 D368     		ldr	r3, [r2, #12]
 2189 004a A342     		cmp	r3, r4
 2190 004c 62D0     		beq	.L263
 2191              		.loc 1 158 0 discriminator 5
 2192 004e 2BB1     		cbz	r3, .L264
 2193              	.L230:
 2194              		.loc 1 158 0 discriminator 7
 2195 0050 DA68     		ldr	r2, [r3, #12]
 2196 0052 A242     		cmp	r2, r4
 2197 0054 54D0     		beq	.L265
 2198              		.loc 1 158 0
 2199 0056 1346     		mov	r3, r2
 2200 0058 002B     		cmp	r3, #0
 2201 005a F9D1     		bne	.L230
 2202              	.L264:
 2203 005c 0B60     		str	r3, [r1, #0]
 2204              	.L226:
 2205              		.loc 1 160 0 is_stmt 1 discriminator 6
 2206 005e 374B     		ldr	r3, .L270+8
 2207 0060 1A68     		ldr	r2, [r3, #0]
 2208 0062 1C60     		str	r4, [r3, #0]
 2209              		.loc 1 159 0 discriminator 6
 2210 0064 0A23     		movs	r3, #10
 2211 0066 2374     		strb	r3, [r4, #16]
 2212              		.loc 1 160 0 discriminator 6
 2213 0068 E260     		str	r2, [r4, #12]
 2214 006a FFF7FEFF 		bl	tcp_timer_needed
 2215              		.loc 1 162 0 discriminator 6
 2216 006e 0020     		movs	r0, #0
 2217 0070 16E0     		b	.L231
 2218              	.LVL153:
 2219              	.L260:
 2220              		.loc 1 143 0 discriminator 1
 2221 0072 028D     		ldrh	r2, [r0, #40]
 2222 0074 B2F5066F 		cmp	r2, #2144
 2223 0078 CED1     		bne	.L222
 2224              	.L223:
 2225              		.loc 1 166 0
 2226 007a 072B     		cmp	r3, #7
 2227 007c 0FD8     		bhi	.L259
 2228 007e DFE803F0 		tbb	[pc, r3]
 2229              	.L237:
 2230 0082 1C       		.byte	(.L232-.L237)/2
 2231 0083 12       		.byte	(.L221-.L237)/2
 2232 0084 2E       		.byte	(.L233-.L237)/2
 2233 0085 04       		.byte	(.L235-.L237)/2
 2234 0086 04       		.byte	(.L235-.L237)/2
 2235 0087 0E       		.byte	(.L259-.L237)/2
 2236 0088 0E       		.byte	(.L259-.L237)/2
 2237 0089 37       		.byte	(.L236-.L237)/2
 2238              		.align	1
 2239              	.L235:
 2240              		.loc 1 203 0
 2241 008a 2046     		mov	r0, r4
 2242 008c FFF7FEFF 		bl	tcp_send_fin
 2243              	.LVL154:
 2244              		.loc 1 204 0
ARM GAS  /var/folders/5n/p_75w94d66l9ssrldxqdhh700000gn/T//cc9Mn9JC.s 			page 41


 2245 0090 30B9     		cbnz	r0, .L231
 2246              		.loc 1 206 0
 2247 0092 0523     		movs	r3, #5
 2248 0094 2374     		strb	r3, [r4, #16]
 2249              	.L246:
 2250              	.LVL155:
 2251              		.loc 1 232 0
 2252 0096 2046     		mov	r0, r4
 2253              		.loc 1 223 0
 2254 0098 14B1     		cbz	r4, .L231
 2255              		.loc 1 232 0
 2256 009a FFF7FEFF 		bl	tcp_output
 2257              	.LVL156:
 2258              	.L259:
 2259 009e 0020     		movs	r0, #0
 2260              	.L231:
 2261              		.loc 1 235 0
 2262 00a0 40B2     		sxtb	r0, r0
 2263 00a2 03B0     		add	sp, sp, #12
 2264 00a4 30BD     		pop	{r4, r5, pc}
 2265              	.LVL157:
 2266              	.L221:
 2267              		.loc 1 184 0
 2268 00a6 2648     		ldr	r0, .L270+12
 2269 00a8 2146     		mov	r1, r4
 2270              	.LVL158:
 2271 00aa FFF7FEFF 		bl	tcp_pcb_remove
 2272              		.loc 1 185 0
 2273 00ae 0320     		movs	r0, #3
 2274 00b0 2146     		mov	r1, r4
 2275 00b2 FFF7FEFF 		bl	memp_free
 2276              	.LVL159:
 2277              		.loc 1 187 0
 2278 00b6 0020     		movs	r0, #0
 2279 00b8 F2E7     		b	.L231
 2280              	.LVL160:
 2281              	.L232:
 2282              		.loc 1 176 0
 2283 00ba A38B     		ldrh	r3, [r4, #28]
 2284 00bc 9BB1     		cbz	r3, .L256
 2285              		.loc 1 177 0
 2286 00be 214B     		ldr	r3, .L270+16
 2287 00c0 1A68     		ldr	r2, [r3, #0]
 2288 00c2 A242     		cmp	r2, r4
 2289 00c4 32D0     		beq	.L266
 2290              		.loc 1 177 0 is_stmt 0 discriminator 2
 2291 00c6 1C49     		ldr	r1, .L270+4
 2292              	.LVL161:
 2293 00c8 0A60     		str	r2, [r1, #0]
 2294 00ca 42B3     		cbz	r2, .L240
 2295              		.loc 1 177 0
 2296 00cc D368     		ldr	r3, [r2, #12]
 2297 00ce A342     		cmp	r3, r4
 2298 00d0 22D0     		beq	.L267
 2299              	.L254:
 2300              		.loc 1 177 0 discriminator 5
 2301 00d2 3BB3     		cbz	r3, .L268
ARM GAS  /var/folders/5n/p_75w94d66l9ssrldxqdhh700000gn/T//cc9Mn9JC.s 			page 42


 2302              		.loc 1 177 0 discriminator 7
 2303 00d4 DA68     		ldr	r2, [r3, #12]
 2304 00d6 A242     		cmp	r2, r4
 2305 00d8 26D0     		beq	.L269
 2306              		.loc 1 177 0
 2307 00da 1346     		mov	r3, r2
 2308 00dc F9E7     		b	.L254
 2309              	.LVL162:
 2310              	.L233:
 2311              		.loc 1 190 0 is_stmt 1
 2312 00de 1548     		ldr	r0, .L270
 2313 00e0 2146     		mov	r1, r4
 2314              	.LVL163:
 2315 00e2 FFF7FEFF 		bl	tcp_pcb_remove
 2316              	.L256:
 2317              		.loc 1 191 0
 2318 00e6 0220     		movs	r0, #2
 2319 00e8 2146     		mov	r1, r4
 2320 00ea FFF7FEFF 		bl	memp_free
 2321              	.LVL164:
 2322 00ee D6E7     		b	.L259
 2323              	.LVL165:
 2324              	.L236:
 2325              		.loc 1 210 0
 2326 00f0 2046     		mov	r0, r4
 2327 00f2 FFF7FEFF 		bl	tcp_send_fin
 2328              	.LVL166:
 2329              		.loc 1 211 0
 2330 00f6 0028     		cmp	r0, #0
 2331 00f8 D2D1     		bne	.L231
 2332              		.loc 1 213 0
 2333 00fa 0923     		movs	r3, #9
 2334 00fc 2374     		strb	r3, [r4, #16]
 2335 00fe CAE7     		b	.L246
 2336              	.LVL167:
 2337              	.L265:
 2338              		.loc 1 158 0
 2339 0100 0B60     		str	r3, [r1, #0]
 2340              	.L227:
 2341              		.loc 1 158 0 is_stmt 0 discriminator 4
 2342 0102 E268     		ldr	r2, [r4, #12]
 2343 0104 DA60     		str	r2, [r3, #12]
 2344 0106 AAE7     		b	.L226
 2345              	.L261:
 2346              		.loc 1 146 0 is_stmt 1 discriminator 1
 2347 0108 FFF7FEFF 		bl	port_halt
 2348 010c 88E7     		b	.L224
 2349              	.L262:
 2350              		.loc 1 158 0 discriminator 1
 2351 010e E268     		ldr	r2, [r4, #12]
 2352 0110 1A60     		str	r2, [r3, #0]
 2353 0112 A4E7     		b	.L226
 2354              	.L263:
 2355              		.loc 1 158 0 is_stmt 0
 2356 0114 1346     		mov	r3, r2
 2357 0116 F4E7     		b	.L227
 2358              	.LVL168:
ARM GAS  /var/folders/5n/p_75w94d66l9ssrldxqdhh700000gn/T//cc9Mn9JC.s 			page 43


 2359              	.L267:
 2360              		.loc 1 177 0 is_stmt 1
 2361 0118 1346     		mov	r3, r2
 2362              	.L241:
 2363              		.loc 1 177 0 is_stmt 0 discriminator 4
 2364 011a E268     		ldr	r2, [r4, #12]
 2365 011c DA60     		str	r2, [r3, #12]
 2366              	.L240:
 2367              		.loc 1 177 0 discriminator 6
 2368 011e 0023     		movs	r3, #0
 2369 0120 E360     		str	r3, [r4, #12]
 2370 0122 E0E7     		b	.L256
 2371              	.L268:
 2372              		.loc 1 177 0
 2373 0124 0B60     		str	r3, [r1, #0]
 2374 0126 FAE7     		b	.L240
 2375              	.L269:
 2376 0128 0B60     		str	r3, [r1, #0]
 2377 012a F6E7     		b	.L241
 2378              	.LVL169:
 2379              	.L266:
 2380              		.loc 1 177 0 discriminator 1
 2381 012c E268     		ldr	r2, [r4, #12]
 2382 012e 1A60     		str	r2, [r3, #0]
 2383 0130 F5E7     		b	.L240
 2384              	.L271:
 2385 0132 00BF     		.align	2
 2386              	.L270:
 2387 0134 00000000 		.word	.LANCHOR6
 2388 0138 00000000 		.word	.LANCHOR3
 2389 013c 00000000 		.word	.LANCHOR9
 2390 0140 00000000 		.word	.LANCHOR4
 2391 0144 00000000 		.word	.LANCHOR2
 2392              		.cfi_endproc
 2393              	.LFE8:
 2394              		.size	tcp_close_shutdown, .-tcp_close_shutdown
 2395 0148 AFF30080 		.section	.text.tcp_shutdown,"ax",%progbits
 2395      AFF30080 
 2396              		.align	2
 2397              		.p2align 4,,15
 2398              		.global	tcp_shutdown
 2399              		.thumb
 2400              		.thumb_func
 2401              		.type	tcp_shutdown, %function
 2402              	tcp_shutdown:
 2403              	.LFB10:
 2404              		.loc 1 279 0 is_stmt 1
 2405              		.cfi_startproc
 2406              		@ args = 0, pretend = 0, frame = 0
 2407              		@ frame_needed = 0, uses_anonymous_args = 0
 2408              	.LVL170:
 2409 0000 38B5     		push	{r3, r4, r5, lr}
 2410              	.LCFI17:
 2411              		.cfi_def_cfa_offset 16
 2412              		.cfi_offset 14, -4
 2413              		.cfi_offset 5, -8
 2414              		.cfi_offset 4, -12
ARM GAS  /var/folders/5n/p_75w94d66l9ssrldxqdhh700000gn/T//cc9Mn9JC.s 			page 44


 2415              		.cfi_offset 3, -16
 2416              		.loc 1 280 0
 2417 0002 037C     		ldrb	r3, [r0, #16]	@ zero_extendqisi2
 2418 0004 012B     		cmp	r3, #1
 2419              		.loc 1 279 0
 2420 0006 0446     		mov	r4, r0
 2421 0008 1546     		mov	r5, r2
 2422              		.loc 1 280 0
 2423 000a 23D0     		beq	.L277
 2424              		.loc 1 283 0
 2425 000c 69B1     		cbz	r1, .L274
 2426              		.loc 1 285 0
 2427 000e D0F88000 		ldr	r0, [r0, #128]
 2428              	.LVL171:
 2429 0012 20B1     		cbz	r0, .L275
 2430              		.loc 1 286 0
 2431 0014 FFF7FEFF 		bl	pbuf_free
 2432              	.LVL172:
 2433              		.loc 1 287 0
 2434 0018 0023     		movs	r3, #0
 2435 001a C4F88030 		str	r3, [r4, #128]
 2436              	.L275:
 2437              		.loc 1 290 0
 2438 001e 94F82030 		ldrb	r3, [r4, #32]	@ zero_extendqisi2
 2439 0022 43F01003 		orr	r3, r3, #16
 2440 0026 84F82030 		strb	r3, [r4, #32]
 2441              	.L274:
 2442              		.loc 1 292 0
 2443 002a 1DB1     		cbz	r5, .L273
 2444              		.loc 1 295 0
 2445 002c 237C     		ldrb	r3, [r4, #16]	@ zero_extendqisi2
 2446 002e 072B     		cmp	r3, #7
 2447 0030 02D9     		bls	.L280
 2448              	.L279:
 2449              		.loc 1 306 0
 2450 0032 0025     		movs	r5, #0
 2451              	.LVL173:
 2452              	.L273:
 2453              		.loc 1 307 0
 2454 0034 68B2     		sxtb	r0, r5
 2455 0036 38BD     		pop	{r3, r4, r5, pc}
 2456              	.LVL174:
 2457              	.L280:
 2458              		.loc 1 295 0
 2459 0038 94F91030 		ldrsb	r3, [r4, #16]
 2460 003c 0122     		movs	r2, #1
 2461 003e 12FA03F3 		lsls	r3, r2, r3
 2462 0042 13F0980F 		tst	r3, #152
 2463 0046 F4D0     		beq	.L279
 2464              		.loc 1 299 0
 2465 0048 2046     		mov	r0, r4
 2466 004a 0021     		movs	r1, #0
 2467              		.loc 1 307 0
 2468 004c BDE83840 		pop	{r3, r4, r5, lr}
 2469              		.loc 1 299 0
 2470 0050 FFF7FEBF 		b	tcp_close_shutdown
 2471              	.LVL175:
ARM GAS  /var/folders/5n/p_75w94d66l9ssrldxqdhh700000gn/T//cc9Mn9JC.s 			page 45


 2472              	.L277:
 2473              		.loc 1 281 0
 2474 0054 F325     		movs	r5, #243
 2475              	.LVL176:
 2476 0056 EDE7     		b	.L273
 2477              		.cfi_endproc
 2478              	.LFE10:
 2479              		.size	tcp_shutdown, .-tcp_shutdown
 2480 0058 AFF30080 		.section	.text.tcp_close,"ax",%progbits
 2480      AFF30080 
 2481              		.align	2
 2482              		.p2align 4,,15
 2483              		.global	tcp_close
 2484              		.thumb
 2485              		.thumb_func
 2486              		.type	tcp_close, %function
 2487              	tcp_close:
 2488              	.LFB9:
 2489              		.loc 1 253 0
 2490              		.cfi_startproc
 2491              		@ args = 0, pretend = 0, frame = 0
 2492              		@ frame_needed = 0, uses_anonymous_args = 0
 2493              		@ link register save eliminated.
 2494              	.LVL177:
 2495              		.loc 1 259 0
 2496 0000 037C     		ldrb	r3, [r0, #16]	@ zero_extendqisi2
 2497 0002 012B     		cmp	r3, #1
 2498              		.loc 1 261 0
 2499 0004 1EBF     		ittt	ne
 2500 0006 90F82030 		ldrbne	r3, [r0, #32]	@ zero_extendqisi2
 2501 000a 43F01003 		orrne	r3, r3, #16
 2502 000e 80F82030 		strbne	r3, [r0, #32]
 2503              		.loc 1 264 0
 2504 0012 0121     		movs	r1, #1
 2505              		.loc 1 265 0
 2506              		.loc 1 264 0
 2507 0014 FFF7FEBF 		b	tcp_close_shutdown
 2508              	.LVL178:
 2509              		.cfi_endproc
 2510              	.LFE9:
 2511              		.size	tcp_close, .-tcp_close
 2512 0018 AFF30080 		.section	.text.tcp_recv_null,"ax",%progbits
 2512      AFF30080 
 2513              		.align	2
 2514              		.p2align 4,,15
 2515              		.global	tcp_recv_null
 2516              		.thumb
 2517              		.thumb_func
 2518              		.type	tcp_recv_null, %function
 2519              	tcp_recv_null:
 2520              	.LFB26:
 2521              		.loc 1 1101 0
 2522              		.cfi_startproc
 2523              		@ args = 0, pretend = 0, frame = 0
 2524              		@ frame_needed = 0, uses_anonymous_args = 0
 2525              	.LVL179:
 2526 0000 10B5     		push	{r4, lr}
ARM GAS  /var/folders/5n/p_75w94d66l9ssrldxqdhh700000gn/T//cc9Mn9JC.s 			page 46


 2527              	.LCFI18:
 2528              		.cfi_def_cfa_offset 8
 2529              		.cfi_offset 14, -4
 2530              		.cfi_offset 4, -8
 2531              		.loc 1 1103 0
 2532 0002 1446     		mov	r4, r2
 2533 0004 42B1     		cbz	r2, .L284
 2534              		.loc 1 1104 0
 2535 0006 0846     		mov	r0, r1
 2536              	.LVL180:
 2537 0008 1189     		ldrh	r1, [r2, #8]
 2538              	.LVL181:
 2539 000a FFF7FEFF 		bl	tcp_recved
 2540              	.LVL182:
 2541              		.loc 1 1105 0
 2542 000e 2046     		mov	r0, r4
 2543 0010 FFF7FEFF 		bl	pbuf_free
 2544              	.L285:
 2545              		.loc 1 1110 0
 2546 0014 0020     		movs	r0, #0
 2547 0016 10BD     		pop	{r4, pc}
 2548              	.LVL183:
 2549              	.L284:
 2550              	.LBB36:
 2551              	.LBB37:
 2552              		.loc 1 1106 0
 2553 0018 002B     		cmp	r3, #0
 2554 001a FBD1     		bne	.L285
 2555              	.LVL184:
 2556              		.loc 1 1107 0
 2557 001c 0846     		mov	r0, r1
 2558              	.LVL185:
 2559              	.LBE37:
 2560              	.LBE36:
 2561              		.loc 1 1110 0
 2562 001e BDE81040 		pop	{r4, lr}
 2563              	.LBB39:
 2564              	.LBB38:
 2565              		.loc 1 1107 0
 2566 0022 FFF7FEBF 		b	tcp_close
 2567              	.LVL186:
 2568              	.LVL187:
 2569              	.LVL188:
 2570              	.LBE38:
 2571              	.LBE39:
 2572              		.cfi_endproc
 2573              	.LFE26:
 2574              		.size	tcp_recv_null, .-tcp_recv_null
 2575 0026 00BFAFF3 		.section	.text.tcp_fasttmr,"ax",%progbits
 2575      0080AFF3 
 2575      0080
 2576              		.align	2
 2577              		.p2align 4,,15
 2578              		.global	tcp_fasttmr
 2579              		.thumb
 2580              		.thumb_func
 2581              		.type	tcp_fasttmr, %function
ARM GAS  /var/folders/5n/p_75w94d66l9ssrldxqdhh700000gn/T//cc9Mn9JC.s 			page 47


 2582              	tcp_fasttmr:
 2583              	.LFB21:
 2584              		.loc 1 994 0
 2585              		.cfi_startproc
 2586              		@ args = 0, pretend = 0, frame = 0
 2587              		@ frame_needed = 0, uses_anonymous_args = 0
 2588              		.loc 1 995 0
 2589 0000 1A4B     		ldr	r3, .L300
 2590              		.loc 1 994 0
 2591 0002 70B5     		push	{r4, r5, r6, lr}
 2592              	.LCFI19:
 2593              		.cfi_def_cfa_offset 16
 2594              		.cfi_offset 14, -4
 2595              		.cfi_offset 6, -8
 2596              		.cfi_offset 5, -12
 2597              		.cfi_offset 4, -16
 2598              		.loc 1 995 0
 2599 0004 1C68     		ldr	r4, [r3, #0]
 2600              	.LVL189:
 2601              		.loc 1 997 0
 2602 0006 002C     		cmp	r4, #0
 2603 0008 2ED0     		beq	.L297
 2604              	.LVL190:
 2605              	.L296:
 2606              	.LBB40:
 2607              		.loc 1 1000 0
 2608 000a D4F88020 		ldr	r2, [r4, #128]
 2609              		.loc 1 998 0
 2610 000e E568     		ldr	r5, [r4, #12]
 2611              	.LVL191:
 2612              		.loc 1 1000 0
 2613 0010 4AB1     		cbz	r2, .L289
 2614              	.LVL192:
 2615              	.LBB41:
 2616              		.loc 1 1004 0
 2617 0012 D4F88860 		ldr	r6, [r4, #136]
 2618 0016 0EB3     		cbz	r6, .L290
 2619              		.loc 1 1004 0 is_stmt 0 discriminator 1
 2620 0018 6069     		ldr	r0, [r4, #20]
 2621 001a 2146     		mov	r1, r4
 2622 001c 0023     		movs	r3, #0
 2623 001e B047     		blx	r6
 2624              	.LVL193:
 2625              	.L291:
 2626              		.loc 1 1005 0 is_stmt 1
 2627 0020 C0B9     		cbnz	r0, .L292
 2628              		.loc 1 1006 0
 2629 0022 C4F88000 		str	r0, [r4, #128]
 2630              	.LVL194:
 2631              	.L289:
 2632              	.LBE41:
 2633              		.loc 1 1014 0
 2634 0026 94F82030 		ldrb	r3, [r4, #32]	@ zero_extendqisi2
 2635 002a D807     		lsls	r0, r3, #31
 2636 002c 02D4     		bmi	.L298
 2637              	.L293:
 2638              	.LVL195:
ARM GAS  /var/folders/5n/p_75w94d66l9ssrldxqdhh700000gn/T//cc9Mn9JC.s 			page 48


 2639              	.LBE40:
 2640              		.loc 1 997 0 discriminator 1
 2641 002e 85B1     		cbz	r5, .L299
 2642              	.L295:
 2643              		.loc 1 997 0 is_stmt 0
 2644 0030 2C46     		mov	r4, r5
 2645 0032 EAE7     		b	.L296
 2646              	.LVL196:
 2647              	.L298:
 2648              	.LBB43:
 2649              		.loc 1 1016 0 is_stmt 1
 2650 0034 43F00203 		orr	r3, r3, #2
 2651 0038 84F82030 		strb	r3, [r4, #32]
 2652              		.loc 1 1017 0
 2653 003c 2046     		mov	r0, r4
 2654 003e FFF7FEFF 		bl	tcp_output
 2655              		.loc 1 1018 0
 2656 0042 94F82030 		ldrb	r3, [r4, #32]	@ zero_extendqisi2
 2657 0046 23F00303 		bic	r3, r3, #3
 2658 004a 84F82030 		strb	r3, [r4, #32]
 2659              	.LVL197:
 2660              	.LBE43:
 2661              		.loc 1 997 0
 2662 004e 002D     		cmp	r5, #0
 2663 0050 EED1     		bne	.L295
 2664              	.L299:
 2665 0052 70BD     		pop	{r4, r5, r6, pc}
 2666              	.LVL198:
 2667              	.L292:
 2668              	.LBB44:
 2669              	.LBB42:
 2670              		.loc 1 1007 0
 2671 0054 40B2     		sxtb	r0, r0
 2672              	.LVL199:
 2673 0056 0A30     		adds	r0, r0, #10
 2674 0058 E5D1     		bne	.L289
 2675 005a E8E7     		b	.L293
 2676              	.L290:
 2677              		.loc 1 1004 0 discriminator 2
 2678 005c 3046     		mov	r0, r6
 2679 005e 2146     		mov	r1, r4
 2680 0060 3346     		mov	r3, r6
 2681 0062 FFF7FEFF 		bl	tcp_recv_null
 2682              	.LVL200:
 2683 0066 DBE7     		b	.L291
 2684              	.LVL201:
 2685              	.L297:
 2686 0068 70BD     		pop	{r4, r5, r6, pc}
 2687              	.L301:
 2688 006a 00BF     		.align	2
 2689              	.L300:
 2690 006c 00000000 		.word	.LANCHOR6
 2691              	.LBE42:
 2692              	.LBE44:
 2693              		.cfi_endproc
 2694              	.LFE21:
 2695              		.size	tcp_fasttmr, .-tcp_fasttmr
ARM GAS  /var/folders/5n/p_75w94d66l9ssrldxqdhh700000gn/T//cc9Mn9JC.s 			page 49


 2696              		.section	.text.tcp_tmr,"ax",%progbits
 2697              		.align	2
 2698              		.p2align 4,,15
 2699              		.global	tcp_tmr
 2700              		.thumb
 2701              		.thumb_func
 2702              		.type	tcp_tmr, %function
 2703              	tcp_tmr:
 2704              	.LFB7:
 2705              		.loc 1 110 0
 2706              		.cfi_startproc
 2707              		@ args = 0, pretend = 0, frame = 0
 2708              		@ frame_needed = 0, uses_anonymous_args = 0
 2709 0000 08B5     		push	{r3, lr}
 2710              	.LCFI20:
 2711              		.cfi_def_cfa_offset 8
 2712              		.cfi_offset 14, -4
 2713              		.cfi_offset 3, -8
 2714              		.loc 1 112 0
 2715 0002 FFF7FEFF 		bl	tcp_fasttmr
 2716              		.loc 1 114 0
 2717 0006 064A     		ldr	r2, .L305
 2718 0008 1378     		ldrb	r3, [r2, #0]	@ zero_extendqisi2
 2719 000a 0133     		adds	r3, r3, #1
 2720 000c DBB2     		uxtb	r3, r3
 2721 000e 1370     		strb	r3, [r2, #0]
 2722 0010 DB07     		lsls	r3, r3, #31
 2723 0012 00D4     		bmi	.L304
 2724 0014 08BD     		pop	{r3, pc}
 2725              	.L304:
 2726              		.loc 1 119 0
 2727 0016 BDE80840 		pop	{r3, lr}
 2728              		.loc 1 117 0
 2729 001a FFF7FEBF 		b	tcp_slowtmr
 2730              	.L306:
 2731 001e 00BF     		.align	2
 2732              	.L305:
 2733 0020 00000000 		.word	.LANCHOR11
 2734              		.cfi_endproc
 2735              	.LFE7:
 2736              		.size	tcp_tmr, .-tcp_tmr
 2737 0024 AFF30080 		.section	.text.tcp_next_iss,"ax",%progbits
 2737      AFF30080 
 2737      AFF30080 
 2738              		.align	2
 2739              		.p2align 4,,15
 2740              		.global	tcp_next_iss
 2741              		.thumb
 2742              		.thumb_func
 2743              		.type	tcp_next_iss, %function
 2744              	tcp_next_iss:
 2745              	.LFB39:
 2746              		.loc 1 1465 0
 2747              		.cfi_startproc
 2748              		@ args = 0, pretend = 0, frame = 0
 2749              		@ frame_needed = 0, uses_anonymous_args = 0
 2750              		@ link register save eliminated.
ARM GAS  /var/folders/5n/p_75w94d66l9ssrldxqdhh700000gn/T//cc9Mn9JC.s 			page 50


 2751              		.loc 1 1468 0
 2752 0000 40F20002 		movw	r2, #:lower16:.LANCHOR5
 2753 0004 40F20003 		movw	r3, #:lower16:.LANCHOR10
 2754 0008 C0F20003 		movt	r3, #:upper16:.LANCHOR10
 2755 000c C0F20002 		movt	r2, #:upper16:.LANCHOR5
 2756 0010 1968     		ldr	r1, [r3, #0]
 2757 0012 1068     		ldr	r0, [r2, #0]
 2758 0014 4018     		adds	r0, r0, r1
 2759 0016 1860     		str	r0, [r3, #0]
 2760              		.loc 1 1470 0
 2761 0018 7047     		bx	lr
 2762              		.cfi_endproc
 2763              	.LFE39:
 2764              		.size	tcp_next_iss, .-tcp_next_iss
 2765 001a 00BFAFF3 		.section	.text.tcp_eff_send_mss,"ax",%progbits
 2765      0080
 2766              		.align	2
 2767              		.p2align 4,,15
 2768              		.global	tcp_eff_send_mss
 2769              		.thumb
 2770              		.thumb_func
 2771              		.type	tcp_eff_send_mss, %function
 2772              	tcp_eff_send_mss:
 2773              	.LFB40:
 2774              		.loc 1 1480 0
 2775              		.cfi_startproc
 2776              		@ args = 0, pretend = 0, frame = 0
 2777              		@ frame_needed = 0, uses_anonymous_args = 0
 2778              	.LVL202:
 2779 0000 10B5     		push	{r4, lr}
 2780              	.LCFI21:
 2781              		.cfi_def_cfa_offset 8
 2782              		.cfi_offset 14, -4
 2783              		.cfi_offset 4, -8
 2784              		.loc 1 1480 0
 2785 0002 0446     		mov	r4, r0
 2786              		.loc 1 1484 0
 2787 0004 0846     		mov	r0, r1
 2788              	.LVL203:
 2789 0006 FFF7FEFF 		bl	ip_route
 2790              	.LVL204:
 2791              		.loc 1 1485 0
 2792 000a 30B1     		cbz	r0, .L309
 2793              		.loc 1 1485 0 is_stmt 0 discriminator 1
 2794 000c 038C     		ldrh	r3, [r0, #32]
 2795 000e 23B1     		cbz	r3, .L309
 2796              	.LVL205:
 2797              		.loc 1 1486 0 is_stmt 1
 2798 0010 283B     		subs	r3, r3, #40
 2799              	.LVL206:
 2800              		.loc 1 1491 0
 2801 0012 9BB2     		uxth	r3, r3
 2802              	.LVL207:
 2803 0014 9C42     		cmp	r4, r3
 2804 0016 28BF     		it	cs
 2805 0018 1C46     		movcs	r4, r3
 2806              	.LVL208:
ARM GAS  /var/folders/5n/p_75w94d66l9ssrldxqdhh700000gn/T//cc9Mn9JC.s 			page 51


 2807              	.L309:
 2808              		.loc 1 1494 0
 2809 001a 2046     		mov	r0, r4
 2810              	.LVL209:
 2811 001c 10BD     		pop	{r4, pc}
 2812              		.cfi_endproc
 2813              	.LFE40:
 2814              		.size	tcp_eff_send_mss, .-tcp_eff_send_mss
 2815 001e 00BF     		.section	.text.tcp_connect,"ax",%progbits
 2816              		.align	2
 2817              		.p2align 4,,15
 2818              		.global	tcp_connect
 2819              		.thumb
 2820              		.thumb_func
 2821              		.type	tcp_connect, %function
 2822              	tcp_connect:
 2823              	.LFB19:
 2824              		.loc 1 651 0
 2825              		.cfi_startproc
 2826              		@ args = 0, pretend = 0, frame = 0
 2827              		@ frame_needed = 0, uses_anonymous_args = 0
 2828              	.LVL210:
 2829 0000 2DE9F041 		push	{r4, r5, r6, r7, r8, lr}
 2830              	.LCFI22:
 2831              		.cfi_def_cfa_offset 24
 2832              		.cfi_offset 14, -4
 2833              		.cfi_offset 8, -8
 2834              		.cfi_offset 7, -12
 2835              		.cfi_offset 6, -16
 2836              		.cfi_offset 5, -20
 2837              		.cfi_offset 4, -24
 2838              		.loc 1 651 0
 2839 0004 0D46     		mov	r5, r1
 2840              		.loc 1 656 0
 2841 0006 017C     		ldrb	r1, [r0, #16]	@ zero_extendqisi2
 2842              	.LVL211:
 2843              		.loc 1 651 0
 2844 0008 0446     		mov	r4, r0
 2845 000a 1F46     		mov	r7, r3
 2846              		.loc 1 656 0
 2847 000c 0029     		cmp	r1, #0
 2848 000e 73D1     		bne	.L327
 2849              		.loc 1 659 0
 2850 0010 002D     		cmp	r5, #0
 2851 0012 75D0     		beq	.L322
 2852              		.loc 1 660 0
 2853 0014 2968     		ldr	r1, [r5, #0]
 2854              		.loc 1 667 0
 2855 0016 0368     		ldr	r3, [r0, #0]
 2856              	.LVL212:
 2857              		.loc 1 660 0
 2858 0018 4160     		str	r1, [r0, #4]
 2859              		.loc 1 664 0
 2860 001a C283     		strh	r2, [r0, #30]	@ movhi
 2861              		.loc 1 667 0
 2862 001c 002B     		cmp	r3, #0
 2863 001e 55D0     		beq	.L328
ARM GAS  /var/folders/5n/p_75w94d66l9ssrldxqdhh700000gn/T//cc9Mn9JC.s 			page 52


 2864              		.loc 1 679 0
 2865 0020 A68B     		ldrh	r6, [r4, #28]
 2866              	.LVL213:
 2867              		.loc 1 680 0
 2868 0022 002E     		cmp	r6, #0
 2869 0024 5BD0     		beq	.L329
 2870              	.LVL214:
 2871              	.L314:
 2872              	.LBB45:
 2873              	.LBB46:
 2874              		.loc 1 1468 0
 2875 0026 384A     		ldr	r2, .L334
 2876 0028 3849     		ldr	r1, .L334+4
 2877 002a 1368     		ldr	r3, [r2, #0]
 2878 002c 0968     		ldr	r1, [r1, #0]
 2879 002e CB18     		adds	r3, r1, r3
 2880              	.LBE46:
 2881              	.LBE45:
 2882              		.loc 1 708 0
 2883 0030 4FF4066E 		mov	lr, #2144
 2884              		.loc 1 706 0
 2885 0034 03F1FF38 		add	r8, r3, #-1
 2886              		.loc 1 704 0
 2887 0038 4FF0000C 		mov	ip, #0
 2888              		.loc 1 714 0
 2889 003c 4FF40670 		mov	r0, #536
 2890              		.loc 1 716 0
 2891 0040 2946     		mov	r1, r5
 2892              	.LBB48:
 2893              	.LBB47:
 2894              		.loc 1 1468 0
 2895 0042 1360     		str	r3, [r2, #0]
 2896              	.LBE47:
 2897              	.LBE48:
 2898              		.loc 1 704 0
 2899 0044 C4F824C0 		str	ip, [r4, #36]
 2900              		.loc 1 705 0
 2901 0048 A365     		str	r3, [r4, #88]
 2902              		.loc 1 708 0
 2903 004a A4F828E0 		strh	lr, [r4, #40]	@ movhi
 2904              		.loc 1 709 0
 2905 004e A4F82AE0 		strh	lr, [r4, #42]	@ movhi
 2906              		.loc 1 710 0
 2907 0052 C4F82CC0 		str	ip, [r4, #44]
 2908              		.loc 1 711 0
 2909 0056 A4F85CE0 		strh	lr, [r4, #92]	@ movhi
 2910              		.loc 1 706 0
 2911 005a C4F84C80 		str	r8, [r4, #76]
 2912              		.loc 1 707 0
 2913 005e C4F86880 		str	r8, [r4, #104]
 2914              		.loc 1 714 0
 2915 0062 2087     		strh	r0, [r4, #56]	@ movhi
 2916              		.loc 1 716 0
 2917 0064 FFF7FEFF 		bl	tcp_eff_send_mss
 2918              		.loc 1 719 0
 2919 0068 00EB8003 		add	r3, r0, r0, lsl #2
 2920 006c 5B00     		lsls	r3, r3, #1
ARM GAS  /var/folders/5n/p_75w94d66l9ssrldxqdhh700000gn/T//cc9Mn9JC.s 			page 53


 2921              		.loc 1 718 0
 2922 006e 0122     		movs	r2, #1
 2923              		.loc 1 716 0
 2924 0070 2087     		strh	r0, [r4, #56]	@ movhi
 2925              		.loc 1 718 0
 2926 0072 A4F85220 		strh	r2, [r4, #82]	@ movhi
 2927              		.loc 1 719 0
 2928 0076 A4F85430 		strh	r3, [r4, #84]	@ movhi
 2929              		.loc 1 721 0
 2930 007a C4F88C70 		str	r7, [r4, #140]
 2931              		.loc 1 727 0
 2932 007e 2046     		mov	r0, r4
 2933 0080 0221     		movs	r1, #2
 2934 0082 FFF7FEFF 		bl	tcp_enqueue_flags
 2935              	.LVL215:
 2936              		.loc 1 728 0
 2937 0086 0546     		mov	r5, r0
 2938              	.LVL216:
 2939 0088 E8B9     		cbnz	r0, .L312
 2940              		.loc 1 730 0
 2941 008a 0223     		movs	r3, #2
 2942 008c 2374     		strb	r3, [r4, #16]
 2943              		.loc 1 731 0
 2944 008e 8EB1     		cbz	r6, .L315
 2945              		.loc 1 732 0
 2946 0090 1F4B     		ldr	r3, .L334+8
 2947 0092 1A68     		ldr	r2, [r3, #0]
 2948 0094 A242     		cmp	r2, r4
 2949 0096 2CD0     		beq	.L330
 2950              		.loc 1 732 0 is_stmt 0 discriminator 2
 2951 0098 1E49     		ldr	r1, .L334+12
 2952 009a 0A60     		str	r2, [r1, #0]
 2953 009c 52B1     		cbz	r2, .L315
 2954              		.loc 1 732 0
 2955 009e D368     		ldr	r3, [r2, #12]
 2956 00a0 A342     		cmp	r3, r4
 2957 00a2 24D0     		beq	.L331
 2958              		.loc 1 732 0 discriminator 5
 2959 00a4 2BB1     		cbz	r3, .L332
 2960              	.L321:
 2961              		.loc 1 732 0 discriminator 7
 2962 00a6 DA68     		ldr	r2, [r3, #12]
 2963 00a8 A242     		cmp	r2, r4
 2964 00aa 1CD0     		beq	.L333
 2965              		.loc 1 732 0
 2966 00ac 1346     		mov	r3, r2
 2967 00ae 002B     		cmp	r3, #0
 2968 00b0 F9D1     		bne	.L321
 2969              	.L332:
 2970 00b2 0B60     		str	r3, [r1, #0]
 2971              	.L315:
 2972              		.loc 1 734 0 is_stmt 1
 2973 00b4 184B     		ldr	r3, .L334+16
 2974 00b6 1A68     		ldr	r2, [r3, #0]
 2975 00b8 1C60     		str	r4, [r3, #0]
 2976 00ba E260     		str	r2, [r4, #12]
 2977 00bc FFF7FEFF 		bl	tcp_timer_needed
ARM GAS  /var/folders/5n/p_75w94d66l9ssrldxqdhh700000gn/T//cc9Mn9JC.s 			page 54


 2978              	.LVL217:
 2979              		.loc 1 737 0
 2980 00c0 2046     		mov	r0, r4
 2981 00c2 FFF7FEFF 		bl	tcp_output
 2982              	.L312:
 2983              		.loc 1 740 0
 2984 00c6 68B2     		sxtb	r0, r5
 2985 00c8 BDE8F081 		pop	{r4, r5, r6, r7, r8, pc}
 2986              	.LVL218:
 2987              	.L328:
 2988              	.LBB49:
 2989              		.loc 1 669 0
 2990 00cc 0430     		adds	r0, r0, #4
 2991 00ce FFF7FEFF 		bl	ip_route
 2992              	.LVL219:
 2993              		.loc 1 670 0
 2994 00d2 B8B1     		cbz	r0, .L323
 2995              		.loc 1 676 0
 2996 00d4 4368     		ldr	r3, [r0, #4]
 2997              	.LBE49:
 2998              		.loc 1 679 0
 2999 00d6 A68B     		ldrh	r6, [r4, #28]
 3000              	.LVL220:
 3001              	.LBB50:
 3002              		.loc 1 676 0
 3003 00d8 2360     		str	r3, [r4, #0]
 3004              	.LBE50:
 3005              		.loc 1 680 0
 3006 00da 002E     		cmp	r6, #0
 3007 00dc A3D1     		bne	.L314
 3008              	.LVL221:
 3009              	.L329:
 3010              		.loc 1 681 0
 3011 00de FFF7FEFF 		bl	tcp_new_port
 3012 00e2 A083     		strh	r0, [r4, #28]	@ movhi
 3013 00e4 9FE7     		b	.L314
 3014              	.LVL222:
 3015              	.L333:
 3016              		.loc 1 732 0
 3017 00e6 0B60     		str	r3, [r1, #0]
 3018              	.L318:
 3019              		.loc 1 732 0 is_stmt 0 discriminator 4
 3020 00e8 E268     		ldr	r2, [r4, #12]
 3021 00ea DA60     		str	r2, [r3, #12]
 3022 00ec E2E7     		b	.L315
 3023              	.L331:
 3024              		.loc 1 732 0
 3025 00ee 1346     		mov	r3, r2
 3026 00f0 FAE7     		b	.L318
 3027              	.L330:
 3028              		.loc 1 732 0 discriminator 1
 3029 00f2 E268     		ldr	r2, [r4, #12]
 3030 00f4 1A60     		str	r2, [r3, #0]
 3031 00f6 DDE7     		b	.L315
 3032              	.LVL223:
 3033              	.L327:
 3034              		.loc 1 656 0 is_stmt 1 discriminator 1
ARM GAS  /var/folders/5n/p_75w94d66l9ssrldxqdhh700000gn/T//cc9Mn9JC.s 			page 55


 3035 00f8 FFF7FEFF 		bl	port_halt
 3036              	.LVL224:
 3037 00fc F725     		movs	r5, #247
 3038              	.LVL225:
 3039 00fe E2E7     		b	.L312
 3040              	.LVL226:
 3041              	.L322:
 3042              		.loc 1 662 0
 3043 0100 FA25     		movs	r5, #250
 3044              	.LVL227:
 3045 0102 E0E7     		b	.L312
 3046              	.LVL228:
 3047              	.L323:
 3048              	.LBB51:
 3049              		.loc 1 673 0
 3050 0104 FC25     		movs	r5, #252
 3051              	.LVL229:
 3052 0106 DEE7     		b	.L312
 3053              	.L335:
 3054              		.align	2
 3055              	.L334:
 3056 0108 00000000 		.word	.LANCHOR10
 3057 010c 00000000 		.word	.LANCHOR5
 3058 0110 00000000 		.word	.LANCHOR2
 3059 0114 00000000 		.word	.LANCHOR3
 3060 0118 00000000 		.word	.LANCHOR6
 3061              	.LBE51:
 3062              		.cfi_endproc
 3063              	.LFE19:
 3064              		.size	tcp_connect, .-tcp_connect
 3065 011c AFF30080 		.section	.text.tcp_debug_state_str,"ax",%progbits
 3066              		.align	2
 3067              		.p2align 4,,15
 3068              		.global	tcp_debug_state_str
 3069              		.thumb
 3070              		.thumb_func
 3071              		.type	tcp_debug_state_str, %function
 3072              	tcp_debug_state_str:
 3073              	.LFB41:
 3074              		.loc 1 1499 0
 3075              		.cfi_startproc
 3076              		@ args = 0, pretend = 0, frame = 0
 3077              		@ frame_needed = 0, uses_anonymous_args = 0
 3078              		@ link register save eliminated.
 3079              	.LVL230:
 3080              		.loc 1 1500 0
 3081 0000 40F20003 		movw	r3, #:lower16:.LANCHOR12
 3082 0004 C0F20003 		movt	r3, #:upper16:.LANCHOR12
 3083              		.loc 1 1501 0
 3084 0008 53F82000 		ldr	r0, [r3, r0, lsl #2]
 3085              	.LVL231:
 3086 000c 7047     		bx	lr
 3087              		.cfi_endproc
 3088              	.LFE41:
 3089              		.size	tcp_debug_state_str, .-tcp_debug_state_str
 3090              		.global	tcp_tmp_pcb
 3091              		.global	tcp_pcb_lists
ARM GAS  /var/folders/5n/p_75w94d66l9ssrldxqdhh700000gn/T//cc9Mn9JC.s 			page 56


 3092              		.global	tcp_tw_pcbs
 3093              		.global	tcp_active_pcbs
 3094              		.global	tcp_listen_pcbs
 3095              		.global	tcp_bound_pcbs
 3096              		.global	tcp_persist_backoff
 3097              		.global	tcp_backoff
 3098              		.global	tcp_ticks
 3099              		.global	tcp_state_str
 3100 000e 00BF     		.section	.data.port.3109,"aw",%progbits
 3101              		.align	1
 3102              		.set	.LANCHOR0,. + 0
 3103              		.type	port.3109, %object
 3104              		.size	port.3109, 2
 3105              	port.3109:
 3106 0000 00C0     		.short	-16384
 3107              		.section	.rodata.tcp_state_str,"a",%progbits
 3108              		.align	2
 3109              		.set	.LANCHOR12,. + 0
 3110              		.type	tcp_state_str, %object
 3111              		.size	tcp_state_str, 44
 3112              	tcp_state_str:
 3113 0000 00000000 		.word	.LC0
 3114 0004 08000000 		.word	.LC1
 3115 0008 10000000 		.word	.LC2
 3116 000c 1C000000 		.word	.LC3
 3117 0010 28000000 		.word	.LC4
 3118 0014 34000000 		.word	.LC5
 3119 0018 40000000 		.word	.LC6
 3120 001c 4C000000 		.word	.LC7
 3121 0020 58000000 		.word	.LC8
 3122 0024 60000000 		.word	.LC9
 3123 0028 6C000000 		.word	.LC10
 3124              		.section	.rodata.tcp_pcb_lists,"a",%progbits
 3125              		.align	2
 3126              		.set	.LANCHOR1,. + 0
 3127              		.type	tcp_pcb_lists, %object
 3128              		.size	tcp_pcb_lists, 16
 3129              	tcp_pcb_lists:
 3130 0000 00000000 		.word	tcp_listen_pcbs
 3131 0004 00000000 		.word	tcp_bound_pcbs
 3132 0008 00000000 		.word	tcp_active_pcbs
 3133 000c 00000000 		.word	tcp_tw_pcbs
 3134              		.section	.bss.tcp_ticks,"aw",%nobits
 3135              		.align	2
 3136              		.set	.LANCHOR5,. + 0
 3137              		.type	tcp_ticks, %object
 3138              		.size	tcp_ticks, 4
 3139              	tcp_ticks:
 3140 0000 00000000 		.space	4
 3141              		.section	.bss.tcp_timer,"aw",%nobits
 3142              		.set	.LANCHOR11,. + 0
 3143              		.type	tcp_timer, %object
 3144              		.size	tcp_timer, 1
 3145              	tcp_timer:
 3146 0000 00       		.space	1
 3147              		.section	.data.iss.3245,"aw",%progbits
 3148              		.align	2
ARM GAS  /var/folders/5n/p_75w94d66l9ssrldxqdhh700000gn/T//cc9Mn9JC.s 			page 57


 3149              		.set	.LANCHOR10,. + 0
 3150              		.type	iss.3245, %object
 3151              		.size	iss.3245, 4
 3152              	iss.3245:
 3153 0000 6E190000 		.word	6510
 3154              		.section	.bss.tcp_listen_pcbs,"aw",%nobits
 3155              		.align	2
 3156              		.set	.LANCHOR4,. + 0
 3157              		.type	tcp_listen_pcbs, %object
 3158              		.size	tcp_listen_pcbs, 4
 3159              	tcp_listen_pcbs:
 3160 0000 00000000 		.space	4
 3161              		.section	.rodata.tcp_backoff,"a",%progbits
 3162              		.align	2
 3163              		.set	.LANCHOR8,. + 0
 3164              		.type	tcp_backoff, %object
 3165              		.size	tcp_backoff, 13
 3166              	tcp_backoff:
 3167 0000 01       		.byte	1
 3168 0001 02       		.byte	2
 3169 0002 03       		.byte	3
 3170 0003 04       		.byte	4
 3171 0004 05       		.byte	5
 3172 0005 06       		.byte	6
 3173 0006 07       		.byte	7
 3174 0007 07       		.byte	7
 3175 0008 07       		.byte	7
 3176 0009 07       		.byte	7
 3177 000a 07       		.byte	7
 3178 000b 07       		.byte	7
 3179 000c 07       		.byte	7
 3180 000d 000000   		.section	.bss.tcp_active_pcbs,"aw",%nobits
 3181              		.align	2
 3182              		.set	.LANCHOR6,. + 0
 3183              		.type	tcp_active_pcbs, %object
 3184              		.size	tcp_active_pcbs, 4
 3185              	tcp_active_pcbs:
 3186 0000 00000000 		.space	4
 3187              		.section	.bss.tcp_tw_pcbs,"aw",%nobits
 3188              		.align	2
 3189              		.set	.LANCHOR9,. + 0
 3190              		.type	tcp_tw_pcbs, %object
 3191              		.size	tcp_tw_pcbs, 4
 3192              	tcp_tw_pcbs:
 3193 0000 00000000 		.space	4
 3194              		.section	.bss.tcp_tmp_pcb,"aw",%nobits
 3195              		.align	2
 3196              		.set	.LANCHOR3,. + 0
 3197              		.type	tcp_tmp_pcb, %object
 3198              		.size	tcp_tmp_pcb, 4
 3199              	tcp_tmp_pcb:
 3200 0000 00000000 		.space	4
 3201              		.section	.rodata.str1.4,"aMS",%progbits,1
 3202              		.align	2
 3203              	.LC0:
 3204 0000 434C4F53 		.ascii	"CLOSED\000"
 3204      454400
ARM GAS  /var/folders/5n/p_75w94d66l9ssrldxqdhh700000gn/T//cc9Mn9JC.s 			page 58


 3205 0007 00       		.space	1
 3206              	.LC1:
 3207 0008 4C495354 		.ascii	"LISTEN\000"
 3207      454E00
 3208 000f 00       		.space	1
 3209              	.LC2:
 3210 0010 53594E5F 		.ascii	"SYN_SENT\000"
 3210      53454E54 
 3210      00
 3211 0019 000000   		.space	3
 3212              	.LC3:
 3213 001c 53594E5F 		.ascii	"SYN_RCVD\000"
 3213      52435644 
 3213      00
 3214 0025 000000   		.space	3
 3215              	.LC4:
 3216 0028 45535441 		.ascii	"ESTABLISHED\000"
 3216      424C4953 
 3216      48454400 
 3217              	.LC5:
 3218 0034 46494E5F 		.ascii	"FIN_WAIT_1\000"
 3218      57414954 
 3218      5F3100
 3219 003f 00       		.space	1
 3220              	.LC6:
 3221 0040 46494E5F 		.ascii	"FIN_WAIT_2\000"
 3221      57414954 
 3221      5F3200
 3222 004b 00       		.space	1
 3223              	.LC7:
 3224 004c 434C4F53 		.ascii	"CLOSE_WAIT\000"
 3224      455F5741 
 3224      495400
 3225 0057 00       		.space	1
 3226              	.LC8:
 3227 0058 434C4F53 		.ascii	"CLOSING\000"
 3227      494E4700 
 3228              	.LC9:
 3229 0060 4C415354 		.ascii	"LAST_ACK\000"
 3229      5F41434B 
 3229      00
 3230 0069 000000   		.space	3
 3231              	.LC10:
 3232 006c 54494D45 		.ascii	"TIME_WAIT\000"
 3232      5F574149 
 3232      5400
 3233 0076 0000     		.section	.rodata.tcp_persist_backoff,"a",%progbits
 3234              		.align	2
 3235              		.set	.LANCHOR7,. + 0
 3236              		.type	tcp_persist_backoff, %object
 3237              		.size	tcp_persist_backoff, 7
 3238              	tcp_persist_backoff:
 3239 0000 03       		.byte	3
 3240 0001 06       		.byte	6
 3241 0002 0C       		.byte	12
 3242 0003 18       		.byte	24
 3243 0004 30       		.byte	48
ARM GAS  /var/folders/5n/p_75w94d66l9ssrldxqdhh700000gn/T//cc9Mn9JC.s 			page 59


 3244 0005 60       		.byte	96
 3245 0006 78       		.byte	120
 3246 0007 00       		.section	.bss.tcp_bound_pcbs,"aw",%nobits
 3247              		.align	2
 3248              		.set	.LANCHOR2,. + 0
 3249              		.type	tcp_bound_pcbs, %object
 3250              		.size	tcp_bound_pcbs, 4
 3251              	tcp_bound_pcbs:
 3252 0000 00000000 		.space	4
 3253              		.text
 3254              	.Letext0:
 3255              		.file 2 "/usr/local/summon/lib/gcc/arm-none-eabi/4.6.2/../../../../arm-none-eabi/include/stdint.h"
 3256              		.file 3 "../../os/various/lwip_bindings/arch/cc.h"
 3257              		.file 4 "../../ext/lwip/src/include/lwip/mem.h"
 3258              		.file 5 "../../ext/lwip/src/include/ipv4/lwip/ip_addr.h"
 3259              		.file 6 "../../ext/lwip/src/include/lwip/err.h"
 3260              		.file 7 "../../ext/lwip/src/include/lwip/pbuf.h"
 3261              		.file 8 "../../ext/lwip/src/include/lwip/netif.h"
 3262              		.file 9 "../../ext/lwip/src/include/lwip/tcp.h"
 3263              		.file 10 "../../ext/lwip/src/include/lwip/tcp_impl.h"
 3264              		.file 11 "../../ext/lwip/src/include/lwip/stats.h"
 3265              		.file 12 "../../ext/lwip/src/include/lwip/memp.h"
 3266              		.section	.debug_info,"",%progbits
 3267              	.Ldebug_info0:
 3268 0000 D3180000 		.4byte	0x18d3
 3269 0004 0200     		.2byte	0x2
 3270 0006 00000000 		.4byte	.Ldebug_abbrev0
 3271 000a 04       		.byte	0x4
 3272 000b 01       		.uleb128 0x1
 3273 000c F7030000 		.4byte	.LASF231
 3274 0010 01       		.byte	0x1
 3275 0011 55010000 		.4byte	.LASF232
 3276 0015 6F050000 		.4byte	.LASF233
 3277 0019 00000000 		.4byte	0
 3278 001d 00000000 		.4byte	0
 3279 0021 50010000 		.4byte	.Ldebug_ranges0+0x150
 3280 0025 00000000 		.4byte	.Ldebug_line0
 3281 0029 02       		.uleb128 0x2
 3282 002a 04       		.byte	0x4
 3283 002b 05       		.byte	0x5
 3284 002c 696E7400 		.ascii	"int\000"
 3285 0030 03       		.uleb128 0x3
 3286 0031 04       		.byte	0x4
 3287 0032 07       		.byte	0x7
 3288 0033 B0000000 		.4byte	.LASF0
 3289 0037 04       		.uleb128 0x4
 3290 0038 00020000 		.4byte	.LASF2
 3291 003c 02       		.byte	0x2
 3292 003d 29       		.byte	0x29
 3293 003e 42000000 		.4byte	0x42
 3294 0042 03       		.uleb128 0x3
 3295 0043 01       		.byte	0x1
 3296 0044 06       		.byte	0x6
 3297 0045 3E090000 		.4byte	.LASF1
 3298 0049 04       		.uleb128 0x4
 3299 004a 6A040000 		.4byte	.LASF3
 3300 004e 02       		.byte	0x2
ARM GAS  /var/folders/5n/p_75w94d66l9ssrldxqdhh700000gn/T//cc9Mn9JC.s 			page 60


 3301 004f 2A       		.byte	0x2a
 3302 0050 54000000 		.4byte	0x54
 3303 0054 03       		.uleb128 0x3
 3304 0055 01       		.byte	0x1
 3305 0056 08       		.byte	0x8
 3306 0057 6F080000 		.4byte	.LASF4
 3307 005b 04       		.uleb128 0x4
 3308 005c 5C020000 		.4byte	.LASF5
 3309 0060 02       		.byte	0x2
 3310 0061 35       		.byte	0x35
 3311 0062 66000000 		.4byte	0x66
 3312 0066 03       		.uleb128 0x3
 3313 0067 02       		.byte	0x2
 3314 0068 05       		.byte	0x5
 3315 0069 F1060000 		.4byte	.LASF6
 3316 006d 04       		.uleb128 0x4
 3317 006e 9F060000 		.4byte	.LASF7
 3318 0072 02       		.byte	0x2
 3319 0073 36       		.byte	0x36
 3320 0074 78000000 		.4byte	0x78
 3321 0078 03       		.uleb128 0x3
 3322 0079 02       		.byte	0x2
 3323 007a 07       		.byte	0x7
 3324 007b 52090000 		.4byte	.LASF8
 3325 007f 04       		.uleb128 0x4
 3326 0080 2A080000 		.4byte	.LASF9
 3327 0084 02       		.byte	0x2
 3328 0085 4F       		.byte	0x4f
 3329 0086 8A000000 		.4byte	0x8a
 3330 008a 03       		.uleb128 0x3
 3331 008b 04       		.byte	0x4
 3332 008c 05       		.byte	0x5
 3333 008d 00070000 		.4byte	.LASF10
 3334 0091 04       		.uleb128 0x4
 3335 0092 F7010000 		.4byte	.LASF11
 3336 0096 02       		.byte	0x2
 3337 0097 50       		.byte	0x50
 3338 0098 9C000000 		.4byte	0x9c
 3339 009c 03       		.uleb128 0x3
 3340 009d 04       		.byte	0x4
 3341 009e 07       		.byte	0x7
 3342 009f FB070000 		.4byte	.LASF12
 3343 00a3 03       		.uleb128 0x3
 3344 00a4 08       		.byte	0x8
 3345 00a5 05       		.byte	0x5
 3346 00a6 DE040000 		.4byte	.LASF13
 3347 00aa 03       		.uleb128 0x3
 3348 00ab 08       		.byte	0x8
 3349 00ac 07       		.byte	0x7
 3350 00ad 7A020000 		.4byte	.LASF14
 3351 00b1 05       		.uleb128 0x5
 3352 00b2 04       		.byte	0x4
 3353 00b3 06       		.uleb128 0x6
 3354 00b4 04       		.byte	0x4
 3355 00b5 B9000000 		.4byte	0xb9
 3356 00b9 07       		.uleb128 0x7
 3357 00ba BE000000 		.4byte	0xbe
ARM GAS  /var/folders/5n/p_75w94d66l9ssrldxqdhh700000gn/T//cc9Mn9JC.s 			page 61


 3358 00be 03       		.uleb128 0x3
 3359 00bf 01       		.byte	0x1
 3360 00c0 08       		.byte	0x8
 3361 00c1 F2030000 		.4byte	.LASF15
 3362 00c5 04       		.uleb128 0x4
 3363 00c6 49050000 		.4byte	.LASF16
 3364 00ca 03       		.byte	0x3
 3365 00cb 3C       		.byte	0x3c
 3366 00cc 49000000 		.4byte	0x49
 3367 00d0 04       		.uleb128 0x4
 3368 00d1 9C030000 		.4byte	.LASF17
 3369 00d5 03       		.byte	0x3
 3370 00d6 3D       		.byte	0x3d
 3371 00d7 37000000 		.4byte	0x37
 3372 00db 04       		.uleb128 0x4
 3373 00dc 27010000 		.4byte	.LASF18
 3374 00e0 03       		.byte	0x3
 3375 00e1 3E       		.byte	0x3e
 3376 00e2 6D000000 		.4byte	0x6d
 3377 00e6 04       		.uleb128 0x4
 3378 00e7 24080000 		.4byte	.LASF19
 3379 00eb 03       		.byte	0x3
 3380 00ec 3F       		.byte	0x3f
 3381 00ed 5B000000 		.4byte	0x5b
 3382 00f1 04       		.uleb128 0x4
 3383 00f2 EB060000 		.4byte	.LASF20
 3384 00f6 03       		.byte	0x3
 3385 00f7 40       		.byte	0x40
 3386 00f8 91000000 		.4byte	0x91
 3387 00fc 04       		.uleb128 0x4
 3388 00fd A1030000 		.4byte	.LASF21
 3389 0101 03       		.byte	0x3
 3390 0102 41       		.byte	0x41
 3391 0103 7F000000 		.4byte	0x7f
 3392 0107 04       		.uleb128 0x4
 3393 0108 19040000 		.4byte	.LASF22
 3394 010c 04       		.byte	0x4
 3395 010d 4B       		.byte	0x4b
 3396 010e DB000000 		.4byte	0xdb
 3397 0112 08       		.uleb128 0x8
 3398 0113 01       		.byte	0x1
 3399 0114 0C       		.byte	0xc
 3400 0115 2B       		.byte	0x2b
 3401 0116 75010000 		.4byte	0x175
 3402 011a 09       		.uleb128 0x9
 3403 011b D4070000 		.4byte	.LASF23
 3404 011f 00       		.sleb128 0
 3405 0120 09       		.uleb128 0x9
 3406 0121 3A070000 		.4byte	.LASF24
 3407 0125 01       		.sleb128 1
 3408 0126 09       		.uleb128 0x9
 3409 0127 37050000 		.4byte	.LASF25
 3410 012b 02       		.sleb128 2
 3411 012c 09       		.uleb128 0x9
 3412 012d 2A000000 		.4byte	.LASF26
 3413 0131 03       		.sleb128 3
 3414 0132 09       		.uleb128 0x9
ARM GAS  /var/folders/5n/p_75w94d66l9ssrldxqdhh700000gn/T//cc9Mn9JC.s 			page 62


 3415 0133 AA080000 		.4byte	.LASF27
 3416 0137 04       		.sleb128 4
 3417 0138 09       		.uleb128 0x9
 3418 0139 31060000 		.4byte	.LASF28
 3419 013d 05       		.sleb128 5
 3420 013e 09       		.uleb128 0x9
 3421 013f A1070000 		.4byte	.LASF29
 3422 0143 06       		.sleb128 6
 3423 0144 09       		.uleb128 0x9
 3424 0145 CA040000 		.4byte	.LASF30
 3425 0149 07       		.sleb128 7
 3426 014a 09       		.uleb128 0x9
 3427 014b A7030000 		.4byte	.LASF31
 3428 014f 08       		.sleb128 8
 3429 0150 09       		.uleb128 0x9
 3430 0151 0C020000 		.4byte	.LASF32
 3431 0155 09       		.sleb128 9
 3432 0156 09       		.uleb128 0x9
 3433 0157 DB020000 		.4byte	.LASF33
 3434 015b 0A       		.sleb128 10
 3435 015c 09       		.uleb128 0x9
 3436 015d 15070000 		.4byte	.LASF34
 3437 0161 0B       		.sleb128 11
 3438 0162 09       		.uleb128 0x9
 3439 0163 E3030000 		.4byte	.LASF35
 3440 0167 0C       		.sleb128 12
 3441 0168 09       		.uleb128 0x9
 3442 0169 81010000 		.4byte	.LASF36
 3443 016d 0D       		.sleb128 13
 3444 016e 09       		.uleb128 0x9
 3445 016f 89030000 		.4byte	.LASF37
 3446 0173 0E       		.sleb128 14
 3447 0174 00       		.byte	0
 3448 0175 0A       		.uleb128 0xa
 3449 0176 F2090000 		.4byte	.LASF40
 3450 017a 04       		.byte	0x4
 3451 017b 05       		.byte	0x5
 3452 017c 2C       		.byte	0x2c
 3453 017d 90010000 		.4byte	0x190
 3454 0181 0B       		.uleb128 0xb
 3455 0182 ED080000 		.4byte	.LASF42
 3456 0186 05       		.byte	0x5
 3457 0187 2D       		.byte	0x2d
 3458 0188 F1000000 		.4byte	0xf1
 3459 018c 02       		.byte	0x2
 3460 018d 23       		.byte	0x23
 3461 018e 00       		.uleb128 0
 3462 018f 00       		.byte	0
 3463 0190 04       		.uleb128 0x4
 3464 0191 A5090000 		.4byte	.LASF38
 3465 0195 05       		.byte	0x5
 3466 0196 40       		.byte	0x40
 3467 0197 75010000 		.4byte	0x175
 3468 019b 04       		.uleb128 0x4
 3469 019c F0000000 		.4byte	.LASF39
 3470 01a0 06       		.byte	0x6
 3471 01a1 2F       		.byte	0x2f
ARM GAS  /var/folders/5n/p_75w94d66l9ssrldxqdhh700000gn/T//cc9Mn9JC.s 			page 63


 3472 01a2 D0000000 		.4byte	0xd0
 3473 01a6 0A       		.uleb128 0xa
 3474 01a7 52030000 		.4byte	.LASF41
 3475 01ab 10       		.byte	0x10
 3476 01ac 07       		.byte	0x7
 3477 01ad 49       		.byte	0x49
 3478 01ae 15020000 		.4byte	0x215
 3479 01b2 0B       		.uleb128 0xb
 3480 01b3 CE000000 		.4byte	.LASF43
 3481 01b7 07       		.byte	0x7
 3482 01b8 4B       		.byte	0x4b
 3483 01b9 15020000 		.4byte	0x215
 3484 01bd 02       		.byte	0x2
 3485 01be 23       		.byte	0x23
 3486 01bf 00       		.uleb128 0
 3487 01c0 0B       		.uleb128 0xb
 3488 01c1 28030000 		.4byte	.LASF44
 3489 01c5 07       		.byte	0x7
 3490 01c6 4E       		.byte	0x4e
 3491 01c7 B1000000 		.4byte	0xb1
 3492 01cb 02       		.byte	0x2
 3493 01cc 23       		.byte	0x23
 3494 01cd 04       		.uleb128 0x4
 3495 01ce 0B       		.uleb128 0xb
 3496 01cf 19030000 		.4byte	.LASF45
 3497 01d3 07       		.byte	0x7
 3498 01d4 57       		.byte	0x57
 3499 01d5 DB000000 		.4byte	0xdb
 3500 01d9 02       		.byte	0x2
 3501 01da 23       		.byte	0x23
 3502 01db 08       		.uleb128 0x8
 3503 01dc 0C       		.uleb128 0xc
 3504 01dd 6C656E00 		.ascii	"len\000"
 3505 01e1 07       		.byte	0x7
 3506 01e2 5A       		.byte	0x5a
 3507 01e3 DB000000 		.4byte	0xdb
 3508 01e7 02       		.byte	0x2
 3509 01e8 23       		.byte	0x23
 3510 01e9 0A       		.uleb128 0xa
 3511 01ea 0B       		.uleb128 0xb
 3512 01eb 60080000 		.4byte	.LASF46
 3513 01ef 07       		.byte	0x7
 3514 01f0 5D       		.byte	0x5d
 3515 01f1 C5000000 		.4byte	0xc5
 3516 01f5 02       		.byte	0x2
 3517 01f6 23       		.byte	0x23
 3518 01f7 0C       		.uleb128 0xc
 3519 01f8 0B       		.uleb128 0xb
 3520 01f9 8E000000 		.4byte	.LASF47
 3521 01fd 07       		.byte	0x7
 3522 01fe 60       		.byte	0x60
 3523 01ff C5000000 		.4byte	0xc5
 3524 0203 02       		.byte	0x2
 3525 0204 23       		.byte	0x23
 3526 0205 0D       		.uleb128 0xd
 3527 0206 0C       		.uleb128 0xc
 3528 0207 72656600 		.ascii	"ref\000"
ARM GAS  /var/folders/5n/p_75w94d66l9ssrldxqdhh700000gn/T//cc9Mn9JC.s 			page 64


 3529 020b 07       		.byte	0x7
 3530 020c 67       		.byte	0x67
 3531 020d DB000000 		.4byte	0xdb
 3532 0211 02       		.byte	0x2
 3533 0212 23       		.byte	0x23
 3534 0213 0E       		.uleb128 0xe
 3535 0214 00       		.byte	0
 3536 0215 06       		.uleb128 0x6
 3537 0216 04       		.byte	0x4
 3538 0217 A6010000 		.4byte	0x1a6
 3539 021b 06       		.uleb128 0x6
 3540 021c 04       		.byte	0x4
 3541 021d 21020000 		.4byte	0x221
 3542 0221 0A       		.uleb128 0xa
 3543 0222 06090000 		.4byte	.LASF48
 3544 0226 30       		.byte	0x30
 3545 0227 08       		.byte	0x8
 3546 0228 88       		.byte	0x88
 3547 0229 F1020000 		.4byte	0x2f1
 3548 022d 0B       		.uleb128 0xb
 3549 022e CE000000 		.4byte	.LASF43
 3550 0232 08       		.byte	0x8
 3551 0233 8A       		.byte	0x8a
 3552 0234 1B020000 		.4byte	0x21b
 3553 0238 02       		.byte	0x2
 3554 0239 23       		.byte	0x23
 3555 023a 00       		.uleb128 0
 3556 023b 0B       		.uleb128 0xb
 3557 023c F2090000 		.4byte	.LASF40
 3558 0240 08       		.byte	0x8
 3559 0241 8D       		.byte	0x8d
 3560 0242 90010000 		.4byte	0x190
 3561 0246 02       		.byte	0x2
 3562 0247 23       		.byte	0x23
 3563 0248 04       		.uleb128 0x4
 3564 0249 0B       		.uleb128 0xb
 3565 024a D6040000 		.4byte	.LASF49
 3566 024e 08       		.byte	0x8
 3567 024f 8E       		.byte	0x8e
 3568 0250 90010000 		.4byte	0x190
 3569 0254 02       		.byte	0x2
 3570 0255 23       		.byte	0x23
 3571 0256 08       		.uleb128 0x8
 3572 0257 0C       		.uleb128 0xc
 3573 0258 677700   		.ascii	"gw\000"
 3574 025b 08       		.byte	0x8
 3575 025c 8F       		.byte	0x8f
 3576 025d 90010000 		.4byte	0x190
 3577 0261 02       		.byte	0x2
 3578 0262 23       		.byte	0x23
 3579 0263 0C       		.uleb128 0xc
 3580 0264 0B       		.uleb128 0xb
 3581 0265 5A000000 		.4byte	.LASF50
 3582 0269 08       		.byte	0x8
 3583 026a 93       		.byte	0x93
 3584 026b F1020000 		.4byte	0x2f1
 3585 026f 02       		.byte	0x2
ARM GAS  /var/folders/5n/p_75w94d66l9ssrldxqdhh700000gn/T//cc9Mn9JC.s 			page 65


 3586 0270 23       		.byte	0x23
 3587 0271 10       		.uleb128 0x10
 3588 0272 0B       		.uleb128 0xb
 3589 0273 39030000 		.4byte	.LASF51
 3590 0277 08       		.byte	0x8
 3591 0278 97       		.byte	0x97
 3592 0279 17030000 		.4byte	0x317
 3593 027d 02       		.byte	0x2
 3594 027e 23       		.byte	0x23
 3595 027f 14       		.uleb128 0x14
 3596 0280 0B       		.uleb128 0xb
 3597 0281 0A010000 		.4byte	.LASF52
 3598 0285 08       		.byte	0x8
 3599 0286 9B       		.byte	0x9b
 3600 0287 48030000 		.4byte	0x348
 3601 028b 02       		.byte	0x2
 3602 028c 23       		.byte	0x23
 3603 028d 18       		.uleb128 0x18
 3604 028e 0B       		.uleb128 0xb
 3605 028f F7080000 		.4byte	.LASF53
 3606 0293 08       		.byte	0x8
 3607 0294 A8       		.byte	0xa8
 3608 0295 B1000000 		.4byte	0xb1
 3609 0299 02       		.byte	0x2
 3610 029a 23       		.byte	0x23
 3611 029b 1C       		.uleb128 0x1c
 3612 029c 0C       		.uleb128 0xc
 3613 029d 6D747500 		.ascii	"mtu\000"
 3614 02a1 08       		.byte	0x8
 3615 02a2 B6       		.byte	0xb6
 3616 02a3 DB000000 		.4byte	0xdb
 3617 02a7 02       		.byte	0x2
 3618 02a8 23       		.byte	0x23
 3619 02a9 20       		.uleb128 0x20
 3620 02aa 0B       		.uleb128 0xb
 3621 02ab B5020000 		.4byte	.LASF54
 3622 02af 08       		.byte	0x8
 3623 02b0 B8       		.byte	0xb8
 3624 02b1 C5000000 		.4byte	0xc5
 3625 02b5 02       		.byte	0x2
 3626 02b6 23       		.byte	0x23
 3627 02b7 22       		.uleb128 0x22
 3628 02b8 0B       		.uleb128 0xb
 3629 02b9 64020000 		.4byte	.LASF55
 3630 02bd 08       		.byte	0x8
 3631 02be BA       		.byte	0xba
 3632 02bf 6E030000 		.4byte	0x36e
 3633 02c3 02       		.byte	0x2
 3634 02c4 23       		.byte	0x23
 3635 02c5 23       		.uleb128 0x23
 3636 02c6 0B       		.uleb128 0xb
 3637 02c7 8E000000 		.4byte	.LASF47
 3638 02cb 08       		.byte	0x8
 3639 02cc BC       		.byte	0xbc
 3640 02cd C5000000 		.4byte	0xc5
 3641 02d1 02       		.byte	0x2
 3642 02d2 23       		.byte	0x23
ARM GAS  /var/folders/5n/p_75w94d66l9ssrldxqdhh700000gn/T//cc9Mn9JC.s 			page 66


 3643 02d3 29       		.uleb128 0x29
 3644 02d4 0B       		.uleb128 0xb
 3645 02d5 88070000 		.4byte	.LASF56
 3646 02d9 08       		.byte	0x8
 3647 02da BE       		.byte	0xbe
 3648 02db 7E030000 		.4byte	0x37e
 3649 02df 02       		.byte	0x2
 3650 02e0 23       		.byte	0x23
 3651 02e1 2A       		.uleb128 0x2a
 3652 02e2 0C       		.uleb128 0xc
 3653 02e3 6E756D00 		.ascii	"num\000"
 3654 02e7 08       		.byte	0x8
 3655 02e8 C0       		.byte	0xc0
 3656 02e9 C5000000 		.4byte	0xc5
 3657 02ed 02       		.byte	0x2
 3658 02ee 23       		.byte	0x23
 3659 02ef 2C       		.uleb128 0x2c
 3660 02f0 00       		.byte	0
 3661 02f1 04       		.uleb128 0x4
 3662 02f2 DE010000 		.4byte	.LASF57
 3663 02f6 08       		.byte	0x8
 3664 02f7 6D       		.byte	0x6d
 3665 02f8 FC020000 		.4byte	0x2fc
 3666 02fc 06       		.uleb128 0x6
 3667 02fd 04       		.byte	0x4
 3668 02fe 02030000 		.4byte	0x302
 3669 0302 0D       		.uleb128 0xd
 3670 0303 01       		.byte	0x1
 3671 0304 9B010000 		.4byte	0x19b
 3672 0308 17030000 		.4byte	0x317
 3673 030c 0E       		.uleb128 0xe
 3674 030d 15020000 		.4byte	0x215
 3675 0311 0E       		.uleb128 0xe
 3676 0312 1B020000 		.4byte	0x21b
 3677 0316 00       		.byte	0
 3678 0317 04       		.uleb128 0x4
 3679 0318 C0060000 		.4byte	.LASF58
 3680 031c 08       		.byte	0x8
 3681 031d 76       		.byte	0x76
 3682 031e 22030000 		.4byte	0x322
 3683 0322 06       		.uleb128 0x6
 3684 0323 04       		.byte	0x4
 3685 0324 28030000 		.4byte	0x328
 3686 0328 0D       		.uleb128 0xd
 3687 0329 01       		.byte	0x1
 3688 032a 9B010000 		.4byte	0x19b
 3689 032e 42030000 		.4byte	0x342
 3690 0332 0E       		.uleb128 0xe
 3691 0333 1B020000 		.4byte	0x21b
 3692 0337 0E       		.uleb128 0xe
 3693 0338 15020000 		.4byte	0x215
 3694 033c 0E       		.uleb128 0xe
 3695 033d 42030000 		.4byte	0x342
 3696 0341 00       		.byte	0
 3697 0342 06       		.uleb128 0x6
 3698 0343 04       		.byte	0x4
 3699 0344 90010000 		.4byte	0x190
ARM GAS  /var/folders/5n/p_75w94d66l9ssrldxqdhh700000gn/T//cc9Mn9JC.s 			page 67


 3700 0348 04       		.uleb128 0x4
 3701 0349 8D070000 		.4byte	.LASF59
 3702 034d 08       		.byte	0x8
 3703 034e 7E       		.byte	0x7e
 3704 034f 53030000 		.4byte	0x353
 3705 0353 06       		.uleb128 0x6
 3706 0354 04       		.byte	0x4
 3707 0355 59030000 		.4byte	0x359
 3708 0359 0D       		.uleb128 0xd
 3709 035a 01       		.byte	0x1
 3710 035b 9B010000 		.4byte	0x19b
 3711 035f 6E030000 		.4byte	0x36e
 3712 0363 0E       		.uleb128 0xe
 3713 0364 1B020000 		.4byte	0x21b
 3714 0368 0E       		.uleb128 0xe
 3715 0369 15020000 		.4byte	0x215
 3716 036d 00       		.byte	0
 3717 036e 0F       		.uleb128 0xf
 3718 036f C5000000 		.4byte	0xc5
 3719 0373 7E030000 		.4byte	0x37e
 3720 0377 10       		.uleb128 0x10
 3721 0378 30000000 		.4byte	0x30
 3722 037c 05       		.byte	0x5
 3723 037d 00       		.byte	0
 3724 037e 0F       		.uleb128 0xf
 3725 037f BE000000 		.4byte	0xbe
 3726 0383 8E030000 		.4byte	0x38e
 3727 0387 10       		.uleb128 0x10
 3728 0388 30000000 		.4byte	0x30
 3729 038c 01       		.byte	0x1
 3730 038d 00       		.byte	0
 3731 038e 04       		.uleb128 0x4
 3732 038f 80000000 		.4byte	.LASF60
 3733 0393 09       		.byte	0x9
 3734 0394 3D       		.byte	0x3d
 3735 0395 99030000 		.4byte	0x399
 3736 0399 06       		.uleb128 0x6
 3737 039a 04       		.byte	0x4
 3738 039b 9F030000 		.4byte	0x39f
 3739 039f 0D       		.uleb128 0xd
 3740 03a0 01       		.byte	0x1
 3741 03a1 9B010000 		.4byte	0x19b
 3742 03a5 B9030000 		.4byte	0x3b9
 3743 03a9 0E       		.uleb128 0xe
 3744 03aa B1000000 		.4byte	0xb1
 3745 03ae 0E       		.uleb128 0xe
 3746 03af B9030000 		.4byte	0x3b9
 3747 03b3 0E       		.uleb128 0xe
 3748 03b4 9B010000 		.4byte	0x19b
 3749 03b8 00       		.byte	0
 3750 03b9 06       		.uleb128 0x6
 3751 03ba 04       		.byte	0x4
 3752 03bb BF030000 		.4byte	0x3bf
 3753 03bf 0A       		.uleb128 0xa
 3754 03c0 4A090000 		.4byte	.LASF61
 3755 03c4 A4       		.byte	0xa4
 3756 03c5 09       		.byte	0x9
ARM GAS  /var/folders/5n/p_75w94d66l9ssrldxqdhh700000gn/T//cc9Mn9JC.s 			page 68


 3757 03c6 A9       		.byte	0xa9
 3758 03c7 CE060000 		.4byte	0x6ce
 3759 03cb 0B       		.uleb128 0xb
 3760 03cc 47070000 		.4byte	.LASF62
 3761 03d0 09       		.byte	0x9
 3762 03d1 AB       		.byte	0xab
 3763 03d2 90010000 		.4byte	0x190
 3764 03d6 02       		.byte	0x2
 3765 03d7 23       		.byte	0x23
 3766 03d8 00       		.uleb128 0
 3767 03d9 0B       		.uleb128 0xb
 3768 03da 83090000 		.4byte	.LASF63
 3769 03de 09       		.byte	0x9
 3770 03df AB       		.byte	0xab
 3771 03e0 90010000 		.4byte	0x190
 3772 03e4 02       		.byte	0x2
 3773 03e5 23       		.byte	0x23
 3774 03e6 04       		.uleb128 0x4
 3775 03e7 0B       		.uleb128 0xb
 3776 03e8 43000000 		.4byte	.LASF64
 3777 03ec 09       		.byte	0x9
 3778 03ed AB       		.byte	0xab
 3779 03ee C5000000 		.4byte	0xc5
 3780 03f2 02       		.byte	0x2
 3781 03f3 23       		.byte	0x23
 3782 03f4 08       		.uleb128 0x8
 3783 03f5 0C       		.uleb128 0xc
 3784 03f6 746F7300 		.ascii	"tos\000"
 3785 03fa 09       		.byte	0x9
 3786 03fb AB       		.byte	0xab
 3787 03fc C5000000 		.4byte	0xc5
 3788 0400 02       		.byte	0x2
 3789 0401 23       		.byte	0x23
 3790 0402 09       		.uleb128 0x9
 3791 0403 0C       		.uleb128 0xc
 3792 0404 74746C00 		.ascii	"ttl\000"
 3793 0408 09       		.byte	0x9
 3794 0409 AB       		.byte	0xab
 3795 040a C5000000 		.4byte	0xc5
 3796 040e 02       		.byte	0x2
 3797 040f 23       		.byte	0x23
 3798 0410 0A       		.uleb128 0xa
 3799 0411 0B       		.uleb128 0xb
 3800 0412 CE000000 		.4byte	.LASF43
 3801 0416 09       		.byte	0x9
 3802 0417 AD       		.byte	0xad
 3803 0418 B9030000 		.4byte	0x3b9
 3804 041c 02       		.byte	0x2
 3805 041d 23       		.byte	0x23
 3806 041e 0C       		.uleb128 0xc
 3807 041f 0B       		.uleb128 0xb
 3808 0420 F7080000 		.4byte	.LASF53
 3809 0424 09       		.byte	0x9
 3810 0425 AD       		.byte	0xad
 3811 0426 7C070000 		.4byte	0x77c
 3812 042a 02       		.byte	0x2
 3813 042b 23       		.byte	0x23
ARM GAS  /var/folders/5n/p_75w94d66l9ssrldxqdhh700000gn/T//cc9Mn9JC.s 			page 69


 3814 042c 10       		.uleb128 0x10
 3815 042d 0B       		.uleb128 0xb
 3816 042e D7030000 		.4byte	.LASF65
 3817 0432 09       		.byte	0x9
 3818 0433 AD       		.byte	0xad
 3819 0434 C5000000 		.4byte	0xc5
 3820 0438 02       		.byte	0x2
 3821 0439 23       		.byte	0x23
 3822 043a 11       		.uleb128 0x11
 3823 043b 0B       		.uleb128 0xb
 3824 043c D9080000 		.4byte	.LASF66
 3825 0440 09       		.byte	0x9
 3826 0441 AD       		.byte	0xad
 3827 0442 B1000000 		.4byte	0xb1
 3828 0446 02       		.byte	0x2
 3829 0447 23       		.byte	0x23
 3830 0448 14       		.uleb128 0x14
 3831 0449 0B       		.uleb128 0xb
 3832 044a DC030000 		.4byte	.LASF67
 3833 044e 09       		.byte	0x9
 3834 044f AD       		.byte	0xad
 3835 0450 8E030000 		.4byte	0x38e
 3836 0454 02       		.byte	0x2
 3837 0455 23       		.byte	0x23
 3838 0456 18       		.uleb128 0x18
 3839 0457 0B       		.uleb128 0xb
 3840 0458 33020000 		.4byte	.LASF68
 3841 045c 09       		.byte	0x9
 3842 045d AD       		.byte	0xad
 3843 045e DB000000 		.4byte	0xdb
 3844 0462 02       		.byte	0x2
 3845 0463 23       		.byte	0x23
 3846 0464 1C       		.uleb128 0x1c
 3847 0465 0B       		.uleb128 0xb
 3848 0466 E5050000 		.4byte	.LASF69
 3849 046a 09       		.byte	0x9
 3850 046b B0       		.byte	0xb0
 3851 046c DB000000 		.4byte	0xdb
 3852 0470 02       		.byte	0x2
 3853 0471 23       		.byte	0x23
 3854 0472 1E       		.uleb128 0x1e
 3855 0473 0B       		.uleb128 0xb
 3856 0474 8E000000 		.4byte	.LASF47
 3857 0478 09       		.byte	0x9
 3858 0479 B2       		.byte	0xb2
 3859 047a C5000000 		.4byte	0xc5
 3860 047e 02       		.byte	0x2
 3861 047f 23       		.byte	0x23
 3862 0480 20       		.uleb128 0x20
 3863 0481 0B       		.uleb128 0xb
 3864 0482 D3020000 		.4byte	.LASF70
 3865 0486 09       		.byte	0x9
 3866 0487 BF       		.byte	0xbf
 3867 0488 F1000000 		.4byte	0xf1
 3868 048c 02       		.byte	0x2
 3869 048d 23       		.byte	0x23
 3870 048e 24       		.uleb128 0x24
ARM GAS  /var/folders/5n/p_75w94d66l9ssrldxqdhh700000gn/T//cc9Mn9JC.s 			page 70


 3871 048f 0B       		.uleb128 0xb
 3872 0490 26070000 		.4byte	.LASF71
 3873 0494 09       		.byte	0x9
 3874 0495 C0       		.byte	0xc0
 3875 0496 DB000000 		.4byte	0xdb
 3876 049a 02       		.byte	0x2
 3877 049b 23       		.byte	0x23
 3878 049c 28       		.uleb128 0x28
 3879 049d 0B       		.uleb128 0xb
 3880 049e 1E060000 		.4byte	.LASF72
 3881 04a2 09       		.byte	0x9
 3882 04a3 C1       		.byte	0xc1
 3883 04a4 DB000000 		.4byte	0xdb
 3884 04a8 02       		.byte	0x2
 3885 04a9 23       		.byte	0x23
 3886 04aa 2A       		.uleb128 0x2a
 3887 04ab 0B       		.uleb128 0xb
 3888 04ac 38010000 		.4byte	.LASF73
 3889 04b0 09       		.byte	0x9
 3890 04b1 C2       		.byte	0xc2
 3891 04b2 F1000000 		.4byte	0xf1
 3892 04b6 02       		.byte	0x2
 3893 04b7 23       		.byte	0x23
 3894 04b8 2C       		.uleb128 0x2c
 3895 04b9 0C       		.uleb128 0xc
 3896 04ba 746D7200 		.ascii	"tmr\000"
 3897 04be 09       		.byte	0x9
 3898 04bf C5       		.byte	0xc5
 3899 04c0 F1000000 		.4byte	0xf1
 3900 04c4 02       		.byte	0x2
 3901 04c5 23       		.byte	0x23
 3902 04c6 30       		.uleb128 0x30
 3903 04c7 0B       		.uleb128 0xb
 3904 04c8 78000000 		.4byte	.LASF74
 3905 04cc 09       		.byte	0x9
 3906 04cd C6       		.byte	0xc6
 3907 04ce C5000000 		.4byte	0xc5
 3908 04d2 02       		.byte	0x2
 3909 04d3 23       		.byte	0x23
 3910 04d4 34       		.uleb128 0x34
 3911 04d5 0B       		.uleb128 0xb
 3912 04d6 C7070000 		.4byte	.LASF75
 3913 04da 09       		.byte	0x9
 3914 04db C6       		.byte	0xc6
 3915 04dc C5000000 		.4byte	0xc5
 3916 04e0 02       		.byte	0x2
 3917 04e1 23       		.byte	0x23
 3918 04e2 35       		.uleb128 0x35
 3919 04e3 0B       		.uleb128 0xb
 3920 04e4 AF020000 		.4byte	.LASF76
 3921 04e8 09       		.byte	0x9
 3922 04e9 C9       		.byte	0xc9
 3923 04ea E6000000 		.4byte	0xe6
 3924 04ee 02       		.byte	0x2
 3925 04ef 23       		.byte	0x23
 3926 04f0 36       		.uleb128 0x36
 3927 04f1 0C       		.uleb128 0xc
ARM GAS  /var/folders/5n/p_75w94d66l9ssrldxqdhh700000gn/T//cc9Mn9JC.s 			page 71


 3928 04f2 6D737300 		.ascii	"mss\000"
 3929 04f6 09       		.byte	0x9
 3930 04f7 CB       		.byte	0xcb
 3931 04f8 DB000000 		.4byte	0xdb
 3932 04fc 02       		.byte	0x2
 3933 04fd 23       		.byte	0x23
 3934 04fe 38       		.uleb128 0x38
 3935 04ff 0B       		.uleb128 0xb
 3936 0500 2E070000 		.4byte	.LASF77
 3937 0504 09       		.byte	0x9
 3938 0505 CE       		.byte	0xce
 3939 0506 F1000000 		.4byte	0xf1
 3940 050a 02       		.byte	0x2
 3941 050b 23       		.byte	0x23
 3942 050c 3C       		.uleb128 0x3c
 3943 050d 0B       		.uleb128 0xb
 3944 050e B9030000 		.4byte	.LASF78
 3945 0512 09       		.byte	0x9
 3946 0513 CF       		.byte	0xcf
 3947 0514 F1000000 		.4byte	0xf1
 3948 0518 02       		.byte	0x2
 3949 0519 23       		.byte	0x23
 3950 051a 40       		.uleb128 0x40
 3951 051b 0C       		.uleb128 0xc
 3952 051c 736100   		.ascii	"sa\000"
 3953 051f 09       		.byte	0x9
 3954 0520 D0       		.byte	0xd0
 3955 0521 E6000000 		.4byte	0xe6
 3956 0525 02       		.byte	0x2
 3957 0526 23       		.byte	0x23
 3958 0527 44       		.uleb128 0x44
 3959 0528 0C       		.uleb128 0xc
 3960 0529 737600   		.ascii	"sv\000"
 3961 052c 09       		.byte	0x9
 3962 052d D0       		.byte	0xd0
 3963 052e E6000000 		.4byte	0xe6
 3964 0532 02       		.byte	0x2
 3965 0533 23       		.byte	0x23
 3966 0534 46       		.uleb128 0x46
 3967 0535 0C       		.uleb128 0xc
 3968 0536 72746F00 		.ascii	"rto\000"
 3969 053a 09       		.byte	0x9
 3970 053b D2       		.byte	0xd2
 3971 053c E6000000 		.4byte	0xe6
 3972 0540 02       		.byte	0x2
 3973 0541 23       		.byte	0x23
 3974 0542 48       		.uleb128 0x48
 3975 0543 0B       		.uleb128 0xb
 3976 0544 D7090000 		.4byte	.LASF79
 3977 0548 09       		.byte	0x9
 3978 0549 D3       		.byte	0xd3
 3979 054a C5000000 		.4byte	0xc5
 3980 054e 02       		.byte	0x2
 3981 054f 23       		.byte	0x23
 3982 0550 4A       		.uleb128 0x4a
 3983 0551 0B       		.uleb128 0xb
 3984 0552 81030000 		.4byte	.LASF80
ARM GAS  /var/folders/5n/p_75w94d66l9ssrldxqdhh700000gn/T//cc9Mn9JC.s 			page 72


 3985 0556 09       		.byte	0x9
 3986 0557 D6       		.byte	0xd6
 3987 0558 F1000000 		.4byte	0xf1
 3988 055c 02       		.byte	0x2
 3989 055d 23       		.byte	0x23
 3990 055e 4C       		.uleb128 0x4c
 3991 055f 0B       		.uleb128 0xb
 3992 0560 CF030000 		.4byte	.LASF81
 3993 0564 09       		.byte	0x9
 3994 0565 D7       		.byte	0xd7
 3995 0566 C5000000 		.4byte	0xc5
 3996 056a 02       		.byte	0x2
 3997 056b 23       		.byte	0x23
 3998 056c 50       		.uleb128 0x50
 3999 056d 0B       		.uleb128 0xb
 4000 056e 07020000 		.4byte	.LASF82
 4001 0572 09       		.byte	0x9
 4002 0573 DA       		.byte	0xda
 4003 0574 DB000000 		.4byte	0xdb
 4004 0578 02       		.byte	0x2
 4005 0579 23       		.byte	0x23
 4006 057a 52       		.uleb128 0x52
 4007 057b 0B       		.uleb128 0xb
 4008 057c B6070000 		.4byte	.LASF83
 4009 0580 09       		.byte	0x9
 4010 0581 DB       		.byte	0xdb
 4011 0582 DB000000 		.4byte	0xdb
 4012 0586 02       		.byte	0x2
 4013 0587 23       		.byte	0x23
 4014 0588 54       		.uleb128 0x54
 4015 0589 0B       		.uleb128 0xb
 4016 058a 6B070000 		.4byte	.LASF84
 4017 058e 09       		.byte	0x9
 4018 058f DE       		.byte	0xde
 4019 0590 F1000000 		.4byte	0xf1
 4020 0594 02       		.byte	0x2
 4021 0595 23       		.byte	0x23
 4022 0596 58       		.uleb128 0x58
 4023 0597 0B       		.uleb128 0xb
 4024 0598 AD060000 		.4byte	.LASF85
 4025 059c 09       		.byte	0x9
 4026 059d DF       		.byte	0xdf
 4027 059e DB000000 		.4byte	0xdb
 4028 05a2 02       		.byte	0x2
 4029 05a3 23       		.byte	0x23
 4030 05a4 5C       		.uleb128 0x5c
 4031 05a5 0B       		.uleb128 0xb
 4032 05a6 72040000 		.4byte	.LASF86
 4033 05aa 09       		.byte	0x9
 4034 05ab E0       		.byte	0xe0
 4035 05ac F1000000 		.4byte	0xf1
 4036 05b0 02       		.byte	0x2
 4037 05b1 23       		.byte	0x23
 4038 05b2 60       		.uleb128 0x60
 4039 05b3 0B       		.uleb128 0xb
 4040 05b4 7A040000 		.4byte	.LASF87
 4041 05b8 09       		.byte	0x9
ARM GAS  /var/folders/5n/p_75w94d66l9ssrldxqdhh700000gn/T//cc9Mn9JC.s 			page 73


 4042 05b9 E0       		.byte	0xe0
 4043 05ba F1000000 		.4byte	0xf1
 4044 05be 02       		.byte	0x2
 4045 05bf 23       		.byte	0x23
 4046 05c0 64       		.uleb128 0x64
 4047 05c1 0B       		.uleb128 0xb
 4048 05c2 B4040000 		.4byte	.LASF88
 4049 05c6 09       		.byte	0x9
 4050 05c7 E2       		.byte	0xe2
 4051 05c8 F1000000 		.4byte	0xf1
 4052 05cc 02       		.byte	0x2
 4053 05cd 23       		.byte	0x23
 4054 05ce 68       		.uleb128 0x68
 4055 05cf 0B       		.uleb128 0xb
 4056 05d0 30040000 		.4byte	.LASF89
 4057 05d4 09       		.byte	0x9
 4058 05d5 E4       		.byte	0xe4
 4059 05d6 DB000000 		.4byte	0xdb
 4060 05da 02       		.byte	0x2
 4061 05db 23       		.byte	0x23
 4062 05dc 6C       		.uleb128 0x6c
 4063 05dd 0B       		.uleb128 0xb
 4064 05de BF070000 		.4byte	.LASF90
 4065 05e2 09       		.byte	0x9
 4066 05e3 E6       		.byte	0xe6
 4067 05e4 DB000000 		.4byte	0xdb
 4068 05e8 02       		.byte	0x2
 4069 05e9 23       		.byte	0x23
 4070 05ea 6E       		.uleb128 0x6e
 4071 05eb 0B       		.uleb128 0xb
 4072 05ec 1A090000 		.4byte	.LASF91
 4073 05f0 09       		.byte	0x9
 4074 05f1 E8       		.byte	0xe8
 4075 05f2 DB000000 		.4byte	0xdb
 4076 05f6 02       		.byte	0x2
 4077 05f7 23       		.byte	0x23
 4078 05f8 70       		.uleb128 0x70
 4079 05f9 0B       		.uleb128 0xb
 4080 05fa 55070000 		.4byte	.LASF92
 4081 05fe 09       		.byte	0x9
 4082 05ff EC       		.byte	0xec
 4083 0600 DB000000 		.4byte	0xdb
 4084 0604 02       		.byte	0x2
 4085 0605 23       		.byte	0x23
 4086 0606 72       		.uleb128 0x72
 4087 0607 0B       		.uleb128 0xb
 4088 0608 5E040000 		.4byte	.LASF93
 4089 060c 09       		.byte	0x9
 4090 060d F0       		.byte	0xf0
 4091 060e 22080000 		.4byte	0x822
 4092 0612 02       		.byte	0x2
 4093 0613 23       		.byte	0x23
 4094 0614 74       		.uleb128 0x74
 4095 0615 0B       		.uleb128 0xb
 4096 0616 F5020000 		.4byte	.LASF94
 4097 061a 09       		.byte	0x9
 4098 061b F1       		.byte	0xf1
ARM GAS  /var/folders/5n/p_75w94d66l9ssrldxqdhh700000gn/T//cc9Mn9JC.s 			page 74


 4099 061c 22080000 		.4byte	0x822
 4100 0620 02       		.byte	0x2
 4101 0621 23       		.byte	0x23
 4102 0622 78       		.uleb128 0x78
 4103 0623 0B       		.uleb128 0xb
 4104 0624 DE060000 		.4byte	.LASF95
 4105 0628 09       		.byte	0x9
 4106 0629 F3       		.byte	0xf3
 4107 062a 22080000 		.4byte	0x822
 4108 062e 02       		.byte	0x2
 4109 062f 23       		.byte	0x23
 4110 0630 7C       		.uleb128 0x7c
 4111 0631 0B       		.uleb128 0xb
 4112 0632 37080000 		.4byte	.LASF96
 4113 0636 09       		.byte	0x9
 4114 0637 F6       		.byte	0xf6
 4115 0638 15020000 		.4byte	0x215
 4116 063c 03       		.byte	0x3
 4117 063d 23       		.byte	0x23
 4118 063e 8001     		.uleb128 0x80
 4119 0640 0B       		.uleb128 0xb
 4120 0641 65040000 		.4byte	.LASF97
 4121 0645 09       		.byte	0x9
 4122 0646 FA       		.byte	0xfa
 4123 0647 FE060000 		.4byte	0x6fe
 4124 064b 03       		.byte	0x3
 4125 064c 23       		.byte	0x23
 4126 064d 8401     		.uleb128 0x84
 4127 064f 0B       		.uleb128 0xb
 4128 0650 39090000 		.4byte	.LASF98
 4129 0654 09       		.byte	0x9
 4130 0655 FC       		.byte	0xfc
 4131 0656 CE060000 		.4byte	0x6ce
 4132 065a 03       		.byte	0x3
 4133 065b 23       		.byte	0x23
 4134 065c 8801     		.uleb128 0x88
 4135 065e 0B       		.uleb128 0xb
 4136 065f 48030000 		.4byte	.LASF99
 4137 0663 09       		.byte	0x9
 4138 0664 FE       		.byte	0xfe
 4139 0665 71070000 		.4byte	0x771
 4140 0669 03       		.byte	0x3
 4141 066a 23       		.byte	0x23
 4142 066b 8C01     		.uleb128 0x8c
 4143 066d 11       		.uleb128 0x11
 4144 066e ED030000 		.4byte	.LASF100
 4145 0672 09       		.byte	0x9
 4146 0673 0001     		.2byte	0x100
 4147 0675 29070000 		.4byte	0x729
 4148 0679 03       		.byte	0x3
 4149 067a 23       		.byte	0x23
 4150 067b 9001     		.uleb128 0x90
 4151 067d 11       		.uleb128 0x11
 4152 067e A8060000 		.4byte	.LASF101
 4153 0682 09       		.byte	0x9
 4154 0683 0201     		.2byte	0x102
 4155 0685 4F070000 		.4byte	0x74f
ARM GAS  /var/folders/5n/p_75w94d66l9ssrldxqdhh700000gn/T//cc9Mn9JC.s 			page 75


 4156 0689 03       		.byte	0x3
 4157 068a 23       		.byte	0x23
 4158 068b 9401     		.uleb128 0x94
 4159 068d 11       		.uleb128 0x11
 4160 068e CF080000 		.4byte	.LASF102
 4161 0692 09       		.byte	0x9
 4162 0693 0B01     		.2byte	0x10b
 4163 0695 F1000000 		.4byte	0xf1
 4164 0699 03       		.byte	0x3
 4165 069a 23       		.byte	0x23
 4166 069b 9801     		.uleb128 0x98
 4167 069d 11       		.uleb128 0x11
 4168 069e 77090000 		.4byte	.LASF103
 4169 06a2 09       		.byte	0x9
 4170 06a3 1201     		.2byte	0x112
 4171 06a5 F1000000 		.4byte	0xf1
 4172 06a9 03       		.byte	0x3
 4173 06aa 23       		.byte	0x23
 4174 06ab 9C01     		.uleb128 0x9c
 4175 06ad 11       		.uleb128 0x11
 4176 06ae 15050000 		.4byte	.LASF104
 4177 06b2 09       		.byte	0x9
 4178 06b3 1401     		.2byte	0x114
 4179 06b5 C5000000 		.4byte	0xc5
 4180 06b9 03       		.byte	0x3
 4181 06ba 23       		.byte	0x23
 4182 06bb A001     		.uleb128 0xa0
 4183 06bd 11       		.uleb128 0x11
 4184 06be 73010000 		.4byte	.LASF105
 4185 06c2 09       		.byte	0x9
 4186 06c3 1701     		.2byte	0x117
 4187 06c5 C5000000 		.4byte	0xc5
 4188 06c9 03       		.byte	0x3
 4189 06ca 23       		.byte	0x23
 4190 06cb A101     		.uleb128 0xa1
 4191 06cd 00       		.byte	0
 4192 06ce 04       		.uleb128 0x4
 4193 06cf 40060000 		.4byte	.LASF106
 4194 06d3 09       		.byte	0x9
 4195 06d4 49       		.byte	0x49
 4196 06d5 D9060000 		.4byte	0x6d9
 4197 06d9 06       		.uleb128 0x6
 4198 06da 04       		.byte	0x4
 4199 06db DF060000 		.4byte	0x6df
 4200 06df 0D       		.uleb128 0xd
 4201 06e0 01       		.byte	0x1
 4202 06e1 9B010000 		.4byte	0x19b
 4203 06e5 FE060000 		.4byte	0x6fe
 4204 06e9 0E       		.uleb128 0xe
 4205 06ea B1000000 		.4byte	0xb1
 4206 06ee 0E       		.uleb128 0xe
 4207 06ef B9030000 		.4byte	0x3b9
 4208 06f3 0E       		.uleb128 0xe
 4209 06f4 15020000 		.4byte	0x215
 4210 06f8 0E       		.uleb128 0xe
 4211 06f9 9B010000 		.4byte	0x19b
 4212 06fd 00       		.byte	0
ARM GAS  /var/folders/5n/p_75w94d66l9ssrldxqdhh700000gn/T//cc9Mn9JC.s 			page 76


 4213 06fe 04       		.uleb128 0x4
 4214 06ff 9B010000 		.4byte	.LASF107
 4215 0703 09       		.byte	0x9
 4216 0704 57       		.byte	0x57
 4217 0705 09070000 		.4byte	0x709
 4218 0709 06       		.uleb128 0x6
 4219 070a 04       		.byte	0x4
 4220 070b 0F070000 		.4byte	0x70f
 4221 070f 0D       		.uleb128 0xd
 4222 0710 01       		.byte	0x1
 4223 0711 9B010000 		.4byte	0x19b
 4224 0715 29070000 		.4byte	0x729
 4225 0719 0E       		.uleb128 0xe
 4226 071a B1000000 		.4byte	0xb1
 4227 071e 0E       		.uleb128 0xe
 4228 071f B9030000 		.4byte	0x3b9
 4229 0723 0E       		.uleb128 0xe
 4230 0724 DB000000 		.4byte	0xdb
 4231 0728 00       		.byte	0
 4232 0729 04       		.uleb128 0x4
 4233 072a 82060000 		.4byte	.LASF108
 4234 072e 09       		.byte	0x9
 4235 072f 63       		.byte	0x63
 4236 0730 34070000 		.4byte	0x734
 4237 0734 06       		.uleb128 0x6
 4238 0735 04       		.byte	0x4
 4239 0736 3A070000 		.4byte	0x73a
 4240 073a 0D       		.uleb128 0xd
 4241 073b 01       		.byte	0x1
 4242 073c 9B010000 		.4byte	0x19b
 4243 0740 4F070000 		.4byte	0x74f
 4244 0744 0E       		.uleb128 0xe
 4245 0745 B1000000 		.4byte	0xb1
 4246 0749 0E       		.uleb128 0xe
 4247 074a B9030000 		.4byte	0x3b9
 4248 074e 00       		.byte	0
 4249 074f 04       		.uleb128 0x4
 4250 0750 97040000 		.4byte	.LASF109
 4251 0754 09       		.byte	0x9
 4252 0755 6F       		.byte	0x6f
 4253 0756 5A070000 		.4byte	0x75a
 4254 075a 06       		.uleb128 0x6
 4255 075b 04       		.byte	0x4
 4256 075c 60070000 		.4byte	0x760
 4257 0760 12       		.uleb128 0x12
 4258 0761 01       		.byte	0x1
 4259 0762 71070000 		.4byte	0x771
 4260 0766 0E       		.uleb128 0xe
 4261 0767 B1000000 		.4byte	0xb1
 4262 076b 0E       		.uleb128 0xe
 4263 076c 9B010000 		.4byte	0x19b
 4264 0770 00       		.byte	0
 4265 0771 04       		.uleb128 0x4
 4266 0772 BD000000 		.4byte	.LASF110
 4267 0776 09       		.byte	0x9
 4268 0777 7D       		.byte	0x7d
 4269 0778 99030000 		.4byte	0x399
ARM GAS  /var/folders/5n/p_75w94d66l9ssrldxqdhh700000gn/T//cc9Mn9JC.s 			page 77


 4270 077c 13       		.uleb128 0x13
 4271 077d A5020000 		.4byte	.LASF234
 4272 0781 01       		.byte	0x1
 4273 0782 09       		.byte	0x9
 4274 0783 7F       		.byte	0x7f
 4275 0784 CB070000 		.4byte	0x7cb
 4276 0788 09       		.uleb128 0x9
 4277 0789 E4060000 		.4byte	.LASF111
 4278 078d 00       		.sleb128 0
 4279 078e 09       		.uleb128 0x9
 4280 078f E6080000 		.4byte	.LASF112
 4281 0793 01       		.sleb128 1
 4282 0794 09       		.uleb128 0x9
 4283 0795 B7080000 		.4byte	.LASF113
 4284 0799 02       		.sleb128 2
 4285 079a 09       		.uleb128 0x9
 4286 079b E9090000 		.4byte	.LASF114
 4287 079f 03       		.sleb128 3
 4288 07a0 09       		.uleb128 0x9
 4289 07a1 73070000 		.4byte	.LASF115
 4290 07a5 04       		.sleb128 4
 4291 07a6 09       		.uleb128 0x9
 4292 07a7 8D080000 		.4byte	.LASF116
 4293 07ab 05       		.sleb128 5
 4294 07ac 09       		.uleb128 0x9
 4295 07ad 98080000 		.4byte	.LASF117
 4296 07b1 06       		.sleb128 6
 4297 07b2 09       		.uleb128 0x9
 4298 07b3 36040000 		.4byte	.LASF118
 4299 07b7 07       		.sleb128 7
 4300 07b8 09       		.uleb128 0x9
 4301 07b9 71030000 		.4byte	.LASF119
 4302 07bd 08       		.sleb128 8
 4303 07be 09       		.uleb128 0x9
 4304 07bf 10030000 		.4byte	.LASF120
 4305 07c3 09       		.sleb128 9
 4306 07c4 09       		.uleb128 0x9
 4307 07c5 9D000000 		.4byte	.LASF121
 4308 07c9 0A       		.sleb128 10
 4309 07ca 00       		.byte	0
 4310 07cb 14       		.uleb128 0x14
 4311 07cc 72020000 		.4byte	.LASF122
 4312 07d0 10       		.byte	0x10
 4313 07d1 0A       		.byte	0xa
 4314 07d2 1601     		.2byte	0x116
 4315 07d4 22080000 		.4byte	0x822
 4316 07d8 11       		.uleb128 0x11
 4317 07d9 CE000000 		.4byte	.LASF43
 4318 07dd 0A       		.byte	0xa
 4319 07de 1701     		.2byte	0x117
 4320 07e0 22080000 		.4byte	0x822
 4321 07e4 02       		.byte	0x2
 4322 07e5 23       		.byte	0x23
 4323 07e6 00       		.uleb128 0
 4324 07e7 15       		.uleb128 0x15
 4325 07e8 7000     		.ascii	"p\000"
 4326 07ea 0A       		.byte	0xa
ARM GAS  /var/folders/5n/p_75w94d66l9ssrldxqdhh700000gn/T//cc9Mn9JC.s 			page 78


 4327 07eb 1801     		.2byte	0x118
 4328 07ed 15020000 		.4byte	0x215
 4329 07f1 02       		.byte	0x2
 4330 07f2 23       		.byte	0x23
 4331 07f3 04       		.uleb128 0x4
 4332 07f4 15       		.uleb128 0x15
 4333 07f5 6C656E00 		.ascii	"len\000"
 4334 07f9 0A       		.byte	0xa
 4335 07fa 1901     		.2byte	0x119
 4336 07fc DB000000 		.4byte	0xdb
 4337 0800 02       		.byte	0x2
 4338 0801 23       		.byte	0x23
 4339 0802 08       		.uleb128 0x8
 4340 0803 11       		.uleb128 0x11
 4341 0804 8E000000 		.4byte	.LASF47
 4342 0808 0A       		.byte	0xa
 4343 0809 2301     		.2byte	0x123
 4344 080b C5000000 		.4byte	0xc5
 4345 080f 02       		.byte	0x2
 4346 0810 23       		.byte	0x23
 4347 0811 0A       		.uleb128 0xa
 4348 0812 11       		.uleb128 0x11
 4349 0813 1D080000 		.4byte	.LASF123
 4350 0817 0A       		.byte	0xa
 4351 0818 2801     		.2byte	0x128
 4352 081a 5E090000 		.4byte	0x95e
 4353 081e 02       		.byte	0x2
 4354 081f 23       		.byte	0x23
 4355 0820 0C       		.uleb128 0xc
 4356 0821 00       		.byte	0
 4357 0822 06       		.uleb128 0x6
 4358 0823 04       		.byte	0x4
 4359 0824 CB070000 		.4byte	0x7cb
 4360 0828 14       		.uleb128 0x14
 4361 0829 EC040000 		.4byte	.LASF124
 4362 082d 20       		.byte	0x20
 4363 082e 09       		.byte	0x9
 4364 082f 1A01     		.2byte	0x11a
 4365 0831 DB080000 		.4byte	0x8db
 4366 0835 11       		.uleb128 0x11
 4367 0836 47070000 		.4byte	.LASF62
 4368 083a 09       		.byte	0x9
 4369 083b 1C01     		.2byte	0x11c
 4370 083d 90010000 		.4byte	0x190
 4371 0841 02       		.byte	0x2
 4372 0842 23       		.byte	0x23
 4373 0843 00       		.uleb128 0
 4374 0844 11       		.uleb128 0x11
 4375 0845 83090000 		.4byte	.LASF63
 4376 0849 09       		.byte	0x9
 4377 084a 1C01     		.2byte	0x11c
 4378 084c 90010000 		.4byte	0x190
 4379 0850 02       		.byte	0x2
 4380 0851 23       		.byte	0x23
 4381 0852 04       		.uleb128 0x4
 4382 0853 11       		.uleb128 0x11
 4383 0854 43000000 		.4byte	.LASF64
ARM GAS  /var/folders/5n/p_75w94d66l9ssrldxqdhh700000gn/T//cc9Mn9JC.s 			page 79


 4384 0858 09       		.byte	0x9
 4385 0859 1C01     		.2byte	0x11c
 4386 085b C5000000 		.4byte	0xc5
 4387 085f 02       		.byte	0x2
 4388 0860 23       		.byte	0x23
 4389 0861 08       		.uleb128 0x8
 4390 0862 15       		.uleb128 0x15
 4391 0863 746F7300 		.ascii	"tos\000"
 4392 0867 09       		.byte	0x9
 4393 0868 1C01     		.2byte	0x11c
 4394 086a C5000000 		.4byte	0xc5
 4395 086e 02       		.byte	0x2
 4396 086f 23       		.byte	0x23
 4397 0870 09       		.uleb128 0x9
 4398 0871 15       		.uleb128 0x15
 4399 0872 74746C00 		.ascii	"ttl\000"
 4400 0876 09       		.byte	0x9
 4401 0877 1C01     		.2byte	0x11c
 4402 0879 C5000000 		.4byte	0xc5
 4403 087d 02       		.byte	0x2
 4404 087e 23       		.byte	0x23
 4405 087f 0A       		.uleb128 0xa
 4406 0880 11       		.uleb128 0x11
 4407 0881 CE000000 		.4byte	.LASF43
 4408 0885 09       		.byte	0x9
 4409 0886 1E01     		.2byte	0x11e
 4410 0888 DB080000 		.4byte	0x8db
 4411 088c 02       		.byte	0x2
 4412 088d 23       		.byte	0x23
 4413 088e 0C       		.uleb128 0xc
 4414 088f 11       		.uleb128 0x11
 4415 0890 F7080000 		.4byte	.LASF53
 4416 0894 09       		.byte	0x9
 4417 0895 1E01     		.2byte	0x11e
 4418 0897 7C070000 		.4byte	0x77c
 4419 089b 02       		.byte	0x2
 4420 089c 23       		.byte	0x23
 4421 089d 10       		.uleb128 0x10
 4422 089e 11       		.uleb128 0x11
 4423 089f D7030000 		.4byte	.LASF65
 4424 08a3 09       		.byte	0x9
 4425 08a4 1E01     		.2byte	0x11e
 4426 08a6 C5000000 		.4byte	0xc5
 4427 08aa 02       		.byte	0x2
 4428 08ab 23       		.byte	0x23
 4429 08ac 11       		.uleb128 0x11
 4430 08ad 11       		.uleb128 0x11
 4431 08ae D9080000 		.4byte	.LASF66
 4432 08b2 09       		.byte	0x9
 4433 08b3 1E01     		.2byte	0x11e
 4434 08b5 B1000000 		.4byte	0xb1
 4435 08b9 02       		.byte	0x2
 4436 08ba 23       		.byte	0x23
 4437 08bb 14       		.uleb128 0x14
 4438 08bc 11       		.uleb128 0x11
 4439 08bd DC030000 		.4byte	.LASF67
 4440 08c1 09       		.byte	0x9
ARM GAS  /var/folders/5n/p_75w94d66l9ssrldxqdhh700000gn/T//cc9Mn9JC.s 			page 80


 4441 08c2 1E01     		.2byte	0x11e
 4442 08c4 8E030000 		.4byte	0x38e
 4443 08c8 02       		.byte	0x2
 4444 08c9 23       		.byte	0x23
 4445 08ca 18       		.uleb128 0x18
 4446 08cb 11       		.uleb128 0x11
 4447 08cc 33020000 		.4byte	.LASF68
 4448 08d0 09       		.byte	0x9
 4449 08d1 1E01     		.2byte	0x11e
 4450 08d3 DB000000 		.4byte	0xdb
 4451 08d7 02       		.byte	0x2
 4452 08d8 23       		.byte	0x23
 4453 08d9 1C       		.uleb128 0x1c
 4454 08da 00       		.byte	0
 4455 08db 06       		.uleb128 0x6
 4456 08dc 04       		.byte	0x4
 4457 08dd 28080000 		.4byte	0x828
 4458 08e1 0A       		.uleb128 0xa
 4459 08e2 58080000 		.4byte	.LASF125
 4460 08e6 14       		.byte	0x14
 4461 08e7 0A       		.byte	0xa
 4462 08e8 9E       		.byte	0x9e
 4463 08e9 5E090000 		.4byte	0x95e
 4464 08ed 0C       		.uleb128 0xc
 4465 08ee 73726300 		.ascii	"src\000"
 4466 08f2 0A       		.byte	0xa
 4467 08f3 9F       		.byte	0x9f
 4468 08f4 DB000000 		.4byte	0xdb
 4469 08f8 02       		.byte	0x2
 4470 08f9 23       		.byte	0x23
 4471 08fa 00       		.uleb128 0
 4472 08fb 0B       		.uleb128 0xb
 4473 08fc DC090000 		.4byte	.LASF126
 4474 0900 0A       		.byte	0xa
 4475 0901 A0       		.byte	0xa0
 4476 0902 DB000000 		.4byte	0xdb
 4477 0906 02       		.byte	0x2
 4478 0907 23       		.byte	0x23
 4479 0908 02       		.uleb128 0x2
 4480 0909 0B       		.uleb128 0xb
 4481 090a D8010000 		.4byte	.LASF127
 4482 090e 0A       		.byte	0xa
 4483 090f A1       		.byte	0xa1
 4484 0910 F1000000 		.4byte	0xf1
 4485 0914 02       		.byte	0x2
 4486 0915 23       		.byte	0x23
 4487 0916 04       		.uleb128 0x4
 4488 0917 0B       		.uleb128 0xb
 4489 0918 FB040000 		.4byte	.LASF128
 4490 091c 0A       		.byte	0xa
 4491 091d A2       		.byte	0xa2
 4492 091e F1000000 		.4byte	0xf1
 4493 0922 02       		.byte	0x2
 4494 0923 23       		.byte	0x23
 4495 0924 08       		.uleb128 0x8
 4496 0925 0B       		.uleb128 0xb
 4497 0926 E1070000 		.4byte	.LASF129
ARM GAS  /var/folders/5n/p_75w94d66l9ssrldxqdhh700000gn/T//cc9Mn9JC.s 			page 81


 4498 092a 0A       		.byte	0xa
 4499 092b A3       		.byte	0xa3
 4500 092c DB000000 		.4byte	0xdb
 4501 0930 02       		.byte	0x2
 4502 0931 23       		.byte	0x23
 4503 0932 0C       		.uleb128 0xc
 4504 0933 0C       		.uleb128 0xc
 4505 0934 776E6400 		.ascii	"wnd\000"
 4506 0938 0A       		.byte	0xa
 4507 0939 A4       		.byte	0xa4
 4508 093a DB000000 		.4byte	0xdb
 4509 093e 02       		.byte	0x2
 4510 093f 23       		.byte	0x23
 4511 0940 0E       		.uleb128 0xe
 4512 0941 0B       		.uleb128 0xb
 4513 0942 27090000 		.4byte	.LASF130
 4514 0946 0A       		.byte	0xa
 4515 0947 A5       		.byte	0xa5
 4516 0948 DB000000 		.4byte	0xdb
 4517 094c 02       		.byte	0x2
 4518 094d 23       		.byte	0x23
 4519 094e 10       		.uleb128 0x10
 4520 094f 0B       		.uleb128 0xb
 4521 0950 73000000 		.4byte	.LASF131
 4522 0954 0A       		.byte	0xa
 4523 0955 A6       		.byte	0xa6
 4524 0956 DB000000 		.4byte	0xdb
 4525 095a 02       		.byte	0x2
 4526 095b 23       		.byte	0x23
 4527 095c 12       		.uleb128 0x12
 4528 095d 00       		.byte	0
 4529 095e 06       		.uleb128 0x6
 4530 095f 04       		.byte	0x4
 4531 0960 E1080000 		.4byte	0x8e1
 4532 0964 16       		.uleb128 0x16
 4533 0965 A2040000 		.4byte	.LASF235
 4534 0969 04       		.byte	0x4
 4535 096a 0A       		.byte	0xa
 4536 096b 3A01     		.2byte	0x13a
 4537 096d 8A090000 		.4byte	0x98a
 4538 0971 17       		.uleb128 0x17
 4539 0972 15000000 		.4byte	.LASF132
 4540 0976 0A       		.byte	0xa
 4541 0977 3B01     		.2byte	0x13b
 4542 0979 DB080000 		.4byte	0x8db
 4543 097d 17       		.uleb128 0x17
 4544 097e FA090000 		.4byte	.LASF133
 4545 0982 0A       		.byte	0xa
 4546 0983 3C01     		.2byte	0x13c
 4547 0985 B9030000 		.4byte	0x3b9
 4548 0989 00       		.byte	0
 4549 098a 0A       		.uleb128 0xa
 4550 098b 24040000 		.4byte	.LASF134
 4551 098f 18       		.byte	0x18
 4552 0990 0B       		.byte	0xb
 4553 0991 3A       		.byte	0x3a
 4554 0992 3E0A0000 		.4byte	0xa3e
ARM GAS  /var/folders/5n/p_75w94d66l9ssrldxqdhh700000gn/T//cc9Mn9JC.s 			page 82


 4555 0996 0B       		.uleb128 0xb
 4556 0997 65090000 		.4byte	.LASF135
 4557 099b 0B       		.byte	0xb
 4558 099c 3B       		.byte	0x3b
 4559 099d DB000000 		.4byte	0xdb
 4560 09a1 02       		.byte	0x2
 4561 09a2 23       		.byte	0x23
 4562 09a3 00       		.uleb128 0
 4563 09a4 0B       		.uleb128 0xb
 4564 09a5 39090000 		.4byte	.LASF98
 4565 09a9 0B       		.byte	0xb
 4566 09aa 3C       		.byte	0x3c
 4567 09ab DB000000 		.4byte	0xdb
 4568 09af 02       		.byte	0x2
 4569 09b0 23       		.byte	0x23
 4570 09b1 02       		.uleb128 0x2
 4571 09b2 0C       		.uleb128 0xc
 4572 09b3 667700   		.ascii	"fw\000"
 4573 09b6 0B       		.byte	0xb
 4574 09b7 3D       		.byte	0x3d
 4575 09b8 DB000000 		.4byte	0xdb
 4576 09bc 02       		.byte	0x2
 4577 09bd 23       		.byte	0x23
 4578 09be 04       		.uleb128 0x4
 4579 09bf 0B       		.uleb128 0xb
 4580 09c0 F2080000 		.4byte	.LASF136
 4581 09c4 0B       		.byte	0xb
 4582 09c5 3E       		.byte	0x3e
 4583 09c6 DB000000 		.4byte	0xdb
 4584 09ca 02       		.byte	0x2
 4585 09cb 23       		.byte	0x23
 4586 09cc 06       		.uleb128 0x6
 4587 09cd 0B       		.uleb128 0xb
 4588 09ce 2A060000 		.4byte	.LASF137
 4589 09d2 0B       		.byte	0xb
 4590 09d3 3F       		.byte	0x3f
 4591 09d4 DB000000 		.4byte	0xdb
 4592 09d8 02       		.byte	0x2
 4593 09d9 23       		.byte	0x23
 4594 09da 08       		.uleb128 0x8
 4595 09db 0B       		.uleb128 0xb
 4596 09dc F4070000 		.4byte	.LASF138
 4597 09e0 0B       		.byte	0xb
 4598 09e1 40       		.byte	0x40
 4599 09e2 DB000000 		.4byte	0xdb
 4600 09e6 02       		.byte	0x2
 4601 09e7 23       		.byte	0x23
 4602 09e8 0A       		.uleb128 0xa
 4603 09e9 0B       		.uleb128 0xb
 4604 09ea A3080000 		.4byte	.LASF139
 4605 09ee 0B       		.byte	0xb
 4606 09ef 41       		.byte	0x41
 4607 09f0 DB000000 		.4byte	0xdb
 4608 09f4 02       		.byte	0x2
 4609 09f5 23       		.byte	0x23
 4610 09f6 0C       		.uleb128 0xc
 4611 09f7 0B       		.uleb128 0xb
ARM GAS  /var/folders/5n/p_75w94d66l9ssrldxqdhh700000gn/T//cc9Mn9JC.s 			page 83


 4612 09f8 09070000 		.4byte	.LASF140
 4613 09fc 0B       		.byte	0xb
 4614 09fd 42       		.byte	0x42
 4615 09fe DB000000 		.4byte	0xdb
 4616 0a02 02       		.byte	0x2
 4617 0a03 23       		.byte	0x23
 4618 0a04 0E       		.uleb128 0xe
 4619 0a05 0B       		.uleb128 0xb
 4620 0a06 44080000 		.4byte	.LASF141
 4621 0a0a 0B       		.byte	0xb
 4622 0a0b 43       		.byte	0x43
 4623 0a0c DB000000 		.4byte	0xdb
 4624 0a10 02       		.byte	0x2
 4625 0a11 23       		.byte	0x23
 4626 0a12 10       		.uleb128 0x10
 4627 0a13 0B       		.uleb128 0xb
 4628 0a14 2C020000 		.4byte	.LASF142
 4629 0a18 0B       		.byte	0xb
 4630 0a19 44       		.byte	0x44
 4631 0a1a DB000000 		.4byte	0xdb
 4632 0a1e 02       		.byte	0x2
 4633 0a1f 23       		.byte	0x23
 4634 0a20 12       		.uleb128 0x12
 4635 0a21 0C       		.uleb128 0xc
 4636 0a22 65727200 		.ascii	"err\000"
 4637 0a26 0B       		.byte	0xb
 4638 0a27 45       		.byte	0x45
 4639 0a28 DB000000 		.4byte	0xdb
 4640 0a2c 02       		.byte	0x2
 4641 0a2d 23       		.byte	0x23
 4642 0a2e 14       		.uleb128 0x14
 4643 0a2f 0B       		.uleb128 0xb
 4644 0a30 7F070000 		.4byte	.LASF143
 4645 0a34 0B       		.byte	0xb
 4646 0a35 46       		.byte	0x46
 4647 0a36 DB000000 		.4byte	0xdb
 4648 0a3a 02       		.byte	0x2
 4649 0a3b 23       		.byte	0x23
 4650 0a3c 16       		.uleb128 0x16
 4651 0a3d 00       		.byte	0
 4652 0a3e 0A       		.uleb128 0xa
 4653 0a3f 4B010000 		.4byte	.LASF144
 4654 0a43 0A       		.byte	0xa
 4655 0a44 0B       		.byte	0xb
 4656 0a45 5A       		.byte	0x5a
 4657 0a46 910A0000 		.4byte	0xa91
 4658 0a4a 0B       		.uleb128 0xb
 4659 0a4b 0F070000 		.4byte	.LASF145
 4660 0a4f 0B       		.byte	0xb
 4661 0a50 5E       		.byte	0x5e
 4662 0a51 07010000 		.4byte	0x107
 4663 0a55 02       		.byte	0x2
 4664 0a56 23       		.byte	0x23
 4665 0a57 00       		.uleb128 0
 4666 0a58 0B       		.uleb128 0xb
 4667 0a59 F0020000 		.4byte	.LASF146
 4668 0a5d 0B       		.byte	0xb
ARM GAS  /var/folders/5n/p_75w94d66l9ssrldxqdhh700000gn/T//cc9Mn9JC.s 			page 84


 4669 0a5e 5F       		.byte	0x5f
 4670 0a5f 07010000 		.4byte	0x107
 4671 0a63 02       		.byte	0x2
 4672 0a64 23       		.byte	0x23
 4673 0a65 02       		.uleb128 0x2
 4674 0a66 0C       		.uleb128 0xc
 4675 0a67 6D617800 		.ascii	"max\000"
 4676 0a6b 0B       		.byte	0xb
 4677 0a6c 60       		.byte	0x60
 4678 0a6d 07010000 		.4byte	0x107
 4679 0a71 02       		.byte	0x2
 4680 0a72 23       		.byte	0x23
 4681 0a73 04       		.uleb128 0x4
 4682 0a74 0C       		.uleb128 0xc
 4683 0a75 65727200 		.ascii	"err\000"
 4684 0a79 0B       		.byte	0xb
 4685 0a7a 61       		.byte	0x61
 4686 0a7b DB000000 		.4byte	0xdb
 4687 0a7f 02       		.byte	0x2
 4688 0a80 23       		.byte	0x23
 4689 0a81 06       		.uleb128 0x6
 4690 0a82 0B       		.uleb128 0xb
 4691 0a83 54020000 		.4byte	.LASF147
 4692 0a87 0B       		.byte	0xb
 4693 0a88 62       		.byte	0x62
 4694 0a89 DB000000 		.4byte	0xdb
 4695 0a8d 02       		.byte	0x2
 4696 0a8e 23       		.byte	0x23
 4697 0a8f 08       		.uleb128 0x8
 4698 0a90 00       		.byte	0
 4699 0a91 0A       		.uleb128 0xa
 4700 0a92 CA010000 		.4byte	.LASF148
 4701 0a96 06       		.byte	0x6
 4702 0a97 0B       		.byte	0xb
 4703 0a98 65       		.byte	0x65
 4704 0a99 C80A0000 		.4byte	0xac8
 4705 0a9d 0B       		.uleb128 0xb
 4706 0a9e F0020000 		.4byte	.LASF146
 4707 0aa2 0B       		.byte	0xb
 4708 0aa3 66       		.byte	0x66
 4709 0aa4 DB000000 		.4byte	0xdb
 4710 0aa8 02       		.byte	0x2
 4711 0aa9 23       		.byte	0x23
 4712 0aaa 00       		.uleb128 0
 4713 0aab 0C       		.uleb128 0xc
 4714 0aac 6D617800 		.ascii	"max\000"
 4715 0ab0 0B       		.byte	0xb
 4716 0ab1 67       		.byte	0x67
 4717 0ab2 DB000000 		.4byte	0xdb
 4718 0ab6 02       		.byte	0x2
 4719 0ab7 23       		.byte	0x23
 4720 0ab8 02       		.uleb128 0x2
 4721 0ab9 0C       		.uleb128 0xc
 4722 0aba 65727200 		.ascii	"err\000"
 4723 0abe 0B       		.byte	0xb
 4724 0abf 68       		.byte	0x68
 4725 0ac0 DB000000 		.4byte	0xdb
ARM GAS  /var/folders/5n/p_75w94d66l9ssrldxqdhh700000gn/T//cc9Mn9JC.s 			page 85


 4726 0ac4 02       		.byte	0x2
 4727 0ac5 23       		.byte	0x23
 4728 0ac6 04       		.uleb128 0x4
 4729 0ac7 00       		.byte	0
 4730 0ac8 0A       		.uleb128 0xa
 4731 0ac9 65080000 		.4byte	.LASF149
 4732 0acd 12       		.byte	0x12
 4733 0ace 0B       		.byte	0xb
 4734 0acf 6B       		.byte	0x6b
 4735 0ad0 FF0A0000 		.4byte	0xaff
 4736 0ad4 0C       		.uleb128 0xc
 4737 0ad5 73656D00 		.ascii	"sem\000"
 4738 0ad9 0B       		.byte	0xb
 4739 0ada 6C       		.byte	0x6c
 4740 0adb 910A0000 		.4byte	0xa91
 4741 0adf 02       		.byte	0x2
 4742 0ae0 23       		.byte	0x23
 4743 0ae1 00       		.uleb128 0
 4744 0ae2 0B       		.uleb128 0xb
 4745 0ae3 3E020000 		.4byte	.LASF150
 4746 0ae7 0B       		.byte	0xb
 4747 0ae8 6D       		.byte	0x6d
 4748 0ae9 910A0000 		.4byte	0xa91
 4749 0aed 02       		.byte	0x2
 4750 0aee 23       		.byte	0x23
 4751 0aef 06       		.uleb128 0x6
 4752 0af0 0B       		.uleb128 0xb
 4753 0af1 50070000 		.4byte	.LASF151
 4754 0af5 0B       		.byte	0xb
 4755 0af6 6E       		.byte	0x6e
 4756 0af7 910A0000 		.4byte	0xa91
 4757 0afb 02       		.byte	0x2
 4758 0afc 23       		.byte	0x23
 4759 0afd 0C       		.uleb128 0xc
 4760 0afe 00       		.byte	0
 4761 0aff 18       		.uleb128 0x18
 4762 0b00 FD020000 		.4byte	.LASF152
 4763 0b04 5001     		.2byte	0x150
 4764 0b06 0B       		.byte	0xb
 4765 0b07 71       		.byte	0x71
 4766 0b08 9C0B0000 		.4byte	0xb9c
 4767 0b0c 0B       		.uleb128 0xb
 4768 0b0d B4030000 		.4byte	.LASF153
 4769 0b11 0B       		.byte	0xb
 4770 0b12 73       		.byte	0x73
 4771 0b13 8A090000 		.4byte	0x98a
 4772 0b17 02       		.byte	0x2
 4773 0b18 23       		.byte	0x23
 4774 0b19 00       		.uleb128 0
 4775 0b1a 0B       		.uleb128 0xb
 4776 0b1b 6B020000 		.4byte	.LASF154
 4777 0b1f 0B       		.byte	0xb
 4778 0b20 76       		.byte	0x76
 4779 0b21 8A090000 		.4byte	0x98a
 4780 0b25 02       		.byte	0x2
 4781 0b26 23       		.byte	0x23
 4782 0b27 18       		.uleb128 0x18
ARM GAS  /var/folders/5n/p_75w94d66l9ssrldxqdhh700000gn/T//cc9Mn9JC.s 			page 86


 4783 0b28 0B       		.uleb128 0xb
 4784 0b29 44020000 		.4byte	.LASF155
 4785 0b2d 0B       		.byte	0xb
 4786 0b2e 79       		.byte	0x79
 4787 0b2f 8A090000 		.4byte	0x98a
 4788 0b33 02       		.byte	0x2
 4789 0b34 23       		.byte	0x23
 4790 0b35 30       		.uleb128 0x30
 4791 0b36 0C       		.uleb128 0xc
 4792 0b37 697000   		.ascii	"ip\000"
 4793 0b3a 0B       		.byte	0xb
 4794 0b3b 7C       		.byte	0x7c
 4795 0b3c 8A090000 		.4byte	0x98a
 4796 0b40 02       		.byte	0x2
 4797 0b41 23       		.byte	0x23
 4798 0b42 48       		.uleb128 0x48
 4799 0b43 0B       		.uleb128 0xb
 4800 0b44 FB060000 		.4byte	.LASF156
 4801 0b48 0B       		.byte	0xb
 4802 0b49 7F       		.byte	0x7f
 4803 0b4a 8A090000 		.4byte	0x98a
 4804 0b4e 02       		.byte	0x2
 4805 0b4f 23       		.byte	0x23
 4806 0b50 60       		.uleb128 0x60
 4807 0b51 0C       		.uleb128 0xc
 4808 0b52 75647000 		.ascii	"udp\000"
 4809 0b56 0B       		.byte	0xb
 4810 0b57 85       		.byte	0x85
 4811 0b58 8A090000 		.4byte	0x98a
 4812 0b5c 02       		.byte	0x2
 4813 0b5d 23       		.byte	0x23
 4814 0b5e 78       		.uleb128 0x78
 4815 0b5f 0C       		.uleb128 0xc
 4816 0b60 74637000 		.ascii	"tcp\000"
 4817 0b64 0B       		.byte	0xb
 4818 0b65 88       		.byte	0x88
 4819 0b66 8A090000 		.4byte	0x98a
 4820 0b6a 03       		.byte	0x3
 4821 0b6b 23       		.byte	0x23
 4822 0b6c 9001     		.uleb128 0x90
 4823 0b6e 0C       		.uleb128 0xc
 4824 0b6f 6D656D00 		.ascii	"mem\000"
 4825 0b73 0B       		.byte	0xb
 4826 0b74 8B       		.byte	0x8b
 4827 0b75 3E0A0000 		.4byte	0xa3e
 4828 0b79 03       		.byte	0x3
 4829 0b7a 23       		.byte	0x23
 4830 0b7b A801     		.uleb128 0xa8
 4831 0b7d 0B       		.uleb128 0xb
 4832 0b7e 44050000 		.4byte	.LASF157
 4833 0b82 0B       		.byte	0xb
 4834 0b83 8E       		.byte	0x8e
 4835 0b84 9C0B0000 		.4byte	0xb9c
 4836 0b88 03       		.byte	0x3
 4837 0b89 23       		.byte	0x23
 4838 0b8a B201     		.uleb128 0xb2
 4839 0b8c 0C       		.uleb128 0xc
ARM GAS  /var/folders/5n/p_75w94d66l9ssrldxqdhh700000gn/T//cc9Mn9JC.s 			page 87


 4840 0b8d 73797300 		.ascii	"sys\000"
 4841 0b91 0B       		.byte	0xb
 4842 0b92 91       		.byte	0x91
 4843 0b93 C80A0000 		.4byte	0xac8
 4844 0b97 03       		.byte	0x3
 4845 0b98 23       		.byte	0x23
 4846 0b99 BE02     		.uleb128 0x13e
 4847 0b9b 00       		.byte	0
 4848 0b9c 0F       		.uleb128 0xf
 4849 0b9d 3E0A0000 		.4byte	0xa3e
 4850 0ba1 AC0B0000 		.4byte	0xbac
 4851 0ba5 10       		.uleb128 0x10
 4852 0ba6 30000000 		.4byte	0x30
 4853 0baa 0D       		.byte	0xd
 4854 0bab 00       		.byte	0
 4855 0bac 19       		.uleb128 0x19
 4856 0bad 01       		.byte	0x1
 4857 0bae 63030000 		.4byte	.LASF236
 4858 0bb2 01       		.byte	0x1
 4859 0bb3 5305     		.2byte	0x553
 4860 0bb5 01       		.byte	0x1
 4861 0bb6 01       		.byte	0x1
 4862 0bb7 C80B0000 		.4byte	0xbc8
 4863 0bbb 1A       		.uleb128 0x1a
 4864 0bbc 70636200 		.ascii	"pcb\000"
 4865 0bc0 01       		.byte	0x1
 4866 0bc1 5305     		.2byte	0x553
 4867 0bc3 B9030000 		.4byte	0x3b9
 4868 0bc7 00       		.byte	0
 4869 0bc8 1B       		.uleb128 0x1b
 4870 0bc9 01       		.byte	0x1
 4871 0bca BC040000 		.4byte	.LASF163
 4872 0bce 01       		.byte	0x1
 4873 0bcf 4C04     		.2byte	0x44c
 4874 0bd1 01       		.byte	0x1
 4875 0bd2 9B010000 		.4byte	0x19b
 4876 0bd6 01       		.byte	0x1
 4877 0bd7 0A0C0000 		.4byte	0xc0a
 4878 0bdb 1A       		.uleb128 0x1a
 4879 0bdc 61726700 		.ascii	"arg\000"
 4880 0be0 01       		.byte	0x1
 4881 0be1 4C04     		.2byte	0x44c
 4882 0be3 B1000000 		.4byte	0xb1
 4883 0be7 1A       		.uleb128 0x1a
 4884 0be8 70636200 		.ascii	"pcb\000"
 4885 0bec 01       		.byte	0x1
 4886 0bed 4C04     		.2byte	0x44c
 4887 0bef B9030000 		.4byte	0x3b9
 4888 0bf3 1A       		.uleb128 0x1a
 4889 0bf4 7000     		.ascii	"p\000"
 4890 0bf6 01       		.byte	0x1
 4891 0bf7 4C04     		.2byte	0x44c
 4892 0bf9 15020000 		.4byte	0x215
 4893 0bfd 1A       		.uleb128 0x1a
 4894 0bfe 65727200 		.ascii	"err\000"
 4895 0c02 01       		.byte	0x1
 4896 0c03 4C04     		.2byte	0x44c
ARM GAS  /var/folders/5n/p_75w94d66l9ssrldxqdhh700000gn/T//cc9Mn9JC.s 			page 88


 4897 0c05 9B010000 		.4byte	0x19b
 4898 0c09 00       		.byte	0
 4899 0c0a 1C       		.uleb128 0x1c
 4900 0c0b 25050000 		.4byte	.LASF160
 4901 0c0f 01       		.byte	0x1
 4902 0c10 8004     		.2byte	0x480
 4903 0c12 01       		.byte	0x1
 4904 0c13 01       		.byte	0x1
 4905 0c14 3D0C0000 		.4byte	0xc3d
 4906 0c18 1D       		.uleb128 0x1d
 4907 0c19 70636200 		.ascii	"pcb\000"
 4908 0c1d 01       		.byte	0x1
 4909 0c1e 8204     		.2byte	0x482
 4910 0c20 B9030000 		.4byte	0x3b9
 4911 0c24 1E       		.uleb128 0x1e
 4912 0c25 4C060000 		.4byte	.LASF158
 4913 0c29 01       		.byte	0x1
 4914 0c2a 8204     		.2byte	0x482
 4915 0c2c B9030000 		.4byte	0x3b9
 4916 0c30 1E       		.uleb128 0x1e
 4917 0c31 91020000 		.4byte	.LASF159
 4918 0c35 01       		.byte	0x1
 4919 0c36 8304     		.2byte	0x483
 4920 0c38 F1000000 		.4byte	0xf1
 4921 0c3c 00       		.byte	0
 4922 0c3d 1C       		.uleb128 0x1c
 4923 0c3e D0060000 		.4byte	.LASF161
 4924 0c42 01       		.byte	0x1
 4925 0c43 5F04     		.2byte	0x45f
 4926 0c45 01       		.byte	0x1
 4927 0c46 01       		.byte	0x1
 4928 0c47 880C0000 		.4byte	0xc88
 4929 0c4b 1F       		.uleb128 0x1f
 4930 0c4c D7030000 		.4byte	.LASF65
 4931 0c50 01       		.byte	0x1
 4932 0c51 5F04     		.2byte	0x45f
 4933 0c53 C5000000 		.4byte	0xc5
 4934 0c57 1D       		.uleb128 0x1d
 4935 0c58 70636200 		.ascii	"pcb\000"
 4936 0c5c 01       		.byte	0x1
 4937 0c5d 6104     		.2byte	0x461
 4938 0c5f B9030000 		.4byte	0x3b9
 4939 0c63 1E       		.uleb128 0x1e
 4940 0c64 4C060000 		.4byte	.LASF158
 4941 0c68 01       		.byte	0x1
 4942 0c69 6104     		.2byte	0x461
 4943 0c6b B9030000 		.4byte	0x3b9
 4944 0c6f 1E       		.uleb128 0x1e
 4945 0c70 91020000 		.4byte	.LASF159
 4946 0c74 01       		.byte	0x1
 4947 0c75 6204     		.2byte	0x462
 4948 0c77 F1000000 		.4byte	0xf1
 4949 0c7b 1E       		.uleb128 0x1e
 4950 0c7c 17080000 		.4byte	.LASF162
 4951 0c80 01       		.byte	0x1
 4952 0c81 6304     		.2byte	0x463
 4953 0c83 C5000000 		.4byte	0xc5
ARM GAS  /var/folders/5n/p_75w94d66l9ssrldxqdhh700000gn/T//cc9Mn9JC.s 			page 89


 4954 0c87 00       		.byte	0
 4955 0c88 1B       		.uleb128 0x1b
 4956 0c89 01       		.byte	0x1
 4957 0c8a 15010000 		.4byte	.LASF164
 4958 0c8e 01       		.byte	0x1
 4959 0c8f B805     		.2byte	0x5b8
 4960 0c91 01       		.byte	0x1
 4961 0c92 F1000000 		.4byte	0xf1
 4962 0c96 01       		.byte	0x1
 4963 0c97 A80C0000 		.4byte	0xca8
 4964 0c9b 1D       		.uleb128 0x1d
 4965 0c9c 69737300 		.ascii	"iss\000"
 4966 0ca0 01       		.byte	0x1
 4967 0ca1 BA05     		.2byte	0x5ba
 4968 0ca3 F1000000 		.4byte	0xf1
 4969 0ca7 00       		.byte	0
 4970 0ca8 20       		.uleb128 0x20
 4971 0ca9 4E050000 		.4byte	.LASF165
 4972 0cad 01       		.byte	0x1
 4973 0cae CA01     		.2byte	0x1ca
 4974 0cb0 01       		.byte	0x1
 4975 0cb1 9B010000 		.4byte	0x19b
 4976 0cb5 00000000 		.4byte	.LFB14
 4977 0cb9 06000000 		.4byte	.LFE14
 4978 0cbd 02       		.byte	0x2
 4979 0cbe 7D       		.byte	0x7d
 4980 0cbf 00       		.sleb128 0
 4981 0cc0 F10C0000 		.4byte	0xcf1
 4982 0cc4 21       		.uleb128 0x21
 4983 0cc5 61726700 		.ascii	"arg\000"
 4984 0cc9 01       		.byte	0x1
 4985 0cca CA01     		.2byte	0x1ca
 4986 0ccc B1000000 		.4byte	0xb1
 4987 0cd0 00000000 		.4byte	.LLST0
 4988 0cd4 22       		.uleb128 0x22
 4989 0cd5 70636200 		.ascii	"pcb\000"
 4990 0cd9 01       		.byte	0x1
 4991 0cda CA01     		.2byte	0x1ca
 4992 0cdc B9030000 		.4byte	0x3b9
 4993 0ce0 01       		.byte	0x1
 4994 0ce1 51       		.byte	0x51
 4995 0ce2 22       		.uleb128 0x22
 4996 0ce3 65727200 		.ascii	"err\000"
 4997 0ce7 01       		.byte	0x1
 4998 0ce8 CA01     		.2byte	0x1ca
 4999 0cea 9B010000 		.4byte	0x19b
 5000 0cee 01       		.byte	0x1
 5001 0cef 52       		.byte	0x52
 5002 0cf0 00       		.byte	0
 5003 0cf1 23       		.uleb128 0x23
 5004 0cf2 08000000 		.4byte	.LASF166
 5005 0cf6 01       		.byte	0x1
 5006 0cf7 6102     		.2byte	0x261
 5007 0cf9 01       		.byte	0x1
 5008 0cfa DB000000 		.4byte	0xdb
 5009 0cfe 00000000 		.4byte	.LFB18
 5010 0d02 4C000000 		.4byte	.LFE18
ARM GAS  /var/folders/5n/p_75w94d66l9ssrldxqdhh700000gn/T//cc9Mn9JC.s 			page 90


 5011 0d06 13000000 		.4byte	.LLST1
 5012 0d0a 470D0000 		.4byte	0xd47
 5013 0d0e 1D       		.uleb128 0x1d
 5014 0d0f 6900     		.ascii	"i\000"
 5015 0d11 01       		.byte	0x1
 5016 0d12 6302     		.2byte	0x263
 5017 0d14 29000000 		.4byte	0x29
 5018 0d18 24       		.uleb128 0x24
 5019 0d19 70636200 		.ascii	"pcb\000"
 5020 0d1d 01       		.byte	0x1
 5021 0d1e 6402     		.2byte	0x264
 5022 0d20 B9030000 		.4byte	0x3b9
 5023 0d24 33000000 		.4byte	.LLST2
 5024 0d28 25       		.uleb128 0x25
 5025 0d29 32080000 		.4byte	.LASF167
 5026 0d2d 01       		.byte	0x1
 5027 0d2e 6B02     		.2byte	0x26b
 5028 0d30 DB000000 		.4byte	0xdb
 5029 0d34 05       		.byte	0x5
 5030 0d35 03       		.byte	0x3
 5031 0d36 00000000 		.4byte	port.3109
 5032 0d3a 26       		.uleb128 0x26
 5033 0d3b 6D000000 		.4byte	.LASF237
 5034 0d3f 01       		.byte	0x1
 5035 0d40 6D02     		.2byte	0x26d
 5036 0d42 00000000 		.4byte	.L3
 5037 0d46 00       		.byte	0
 5038 0d47 27       		.uleb128 0x27
 5039 0d48 01       		.byte	0x1
 5040 0d49 94000000 		.4byte	.LASF171
 5041 0d4d 01       		.byte	0x1
 5042 0d4e 9001     		.2byte	0x190
 5043 0d50 01       		.byte	0x1
 5044 0d51 9B010000 		.4byte	0x19b
 5045 0d55 00000000 		.4byte	.LFB13
 5046 0d59 74000000 		.4byte	.LFE13
 5047 0d5d 53000000 		.4byte	.LLST3
 5048 0d61 C10D0000 		.4byte	0xdc1
 5049 0d65 21       		.uleb128 0x21
 5050 0d66 70636200 		.ascii	"pcb\000"
 5051 0d6a 01       		.byte	0x1
 5052 0d6b 9001     		.2byte	0x190
 5053 0d6d B9030000 		.4byte	0x3b9
 5054 0d71 73000000 		.4byte	.LLST4
 5055 0d75 28       		.uleb128 0x28
 5056 0d76 21030000 		.4byte	.LASF168
 5057 0d7a 01       		.byte	0x1
 5058 0d7b 9001     		.2byte	0x190
 5059 0d7d 42030000 		.4byte	0x342
 5060 0d81 91000000 		.4byte	.LLST5
 5061 0d85 28       		.uleb128 0x28
 5062 0d86 32080000 		.4byte	.LASF167
 5063 0d8a 01       		.byte	0x1
 5064 0d8b 9001     		.2byte	0x190
 5065 0d8d DB000000 		.4byte	0xdb
 5066 0d91 AF000000 		.4byte	.LLST6
 5067 0d95 24       		.uleb128 0x24
ARM GAS  /var/folders/5n/p_75w94d66l9ssrldxqdhh700000gn/T//cc9Mn9JC.s 			page 91


 5068 0d96 6900     		.ascii	"i\000"
 5069 0d98 01       		.byte	0x1
 5070 0d99 9201     		.2byte	0x192
 5071 0d9b 29000000 		.4byte	0x29
 5072 0d9f EE000000 		.4byte	.LLST7
 5073 0da3 29       		.uleb128 0x29
 5074 0da4 1F020000 		.4byte	.LASF169
 5075 0da8 01       		.byte	0x1
 5076 0da9 9301     		.2byte	0x193
 5077 0dab 29000000 		.4byte	0x29
 5078 0daf 04       		.byte	0x4
 5079 0db0 2A       		.uleb128 0x2a
 5080 0db1 35070000 		.4byte	.LASF170
 5081 0db5 01       		.byte	0x1
 5082 0db6 9401     		.2byte	0x194
 5083 0db8 B9030000 		.4byte	0x3b9
 5084 0dbc 02010000 		.4byte	.LLST8
 5085 0dc0 00       		.byte	0
 5086 0dc1 27       		.uleb128 0x27
 5087 0dc2 01       		.byte	0x1
 5088 0dc3 C5050000 		.4byte	.LASF172
 5089 0dc7 01       		.byte	0x1
 5090 0dc8 E301     		.2byte	0x1e3
 5091 0dca 01       		.byte	0x1
 5092 0dcb B9030000 		.4byte	0x3b9
 5093 0dcf 00000000 		.4byte	.LFB15
 5094 0dd3 B4000000 		.4byte	.LFE15
 5095 0dd7 2D010000 		.4byte	.LLST9
 5096 0ddb 100E0000 		.4byte	0xe10
 5097 0ddf 21       		.uleb128 0x21
 5098 0de0 70636200 		.ascii	"pcb\000"
 5099 0de4 01       		.byte	0x1
 5100 0de5 E301     		.2byte	0x1e3
 5101 0de7 B9030000 		.4byte	0x3b9
 5102 0deb 4D010000 		.4byte	.LLST10
 5103 0def 28       		.uleb128 0x28
 5104 0df0 79030000 		.4byte	.LASF173
 5105 0df4 01       		.byte	0x1
 5106 0df5 E301     		.2byte	0x1e3
 5107 0df7 C5000000 		.4byte	0xc5
 5108 0dfb 6B010000 		.4byte	.LLST11
 5109 0dff 2A       		.uleb128 0x2a
 5110 0e00 2E090000 		.4byte	.LASF174
 5111 0e04 01       		.byte	0x1
 5112 0e05 E501     		.2byte	0x1e5
 5113 0e07 DB080000 		.4byte	0x8db
 5114 0e0b 89010000 		.4byte	.LLST12
 5115 0e0f 00       		.byte	0
 5116 0e10 27       		.uleb128 0x27
 5117 0e11 01       		.byte	0x1
 5118 0e12 6B060000 		.4byte	.LASF175
 5119 0e16 01       		.byte	0x1
 5120 0e17 1F02     		.2byte	0x21f
 5121 0e19 01       		.byte	0x1
 5122 0e1a F1000000 		.4byte	0xf1
 5123 0e1e 00000000 		.4byte	.LFB16
 5124 0e22 44000000 		.4byte	.LFE16
ARM GAS  /var/folders/5n/p_75w94d66l9ssrldxqdhh700000gn/T//cc9Mn9JC.s 			page 92


 5125 0e26 B2010000 		.4byte	.LLST13
 5126 0e2a 630E0000 		.4byte	0xe63
 5127 0e2e 21       		.uleb128 0x21
 5128 0e2f 70636200 		.ascii	"pcb\000"
 5129 0e33 01       		.byte	0x1
 5130 0e34 1F02     		.2byte	0x21f
 5131 0e36 B9030000 		.4byte	0x3b9
 5132 0e3a D2010000 		.4byte	.LLST14
 5133 0e3e 2A       		.uleb128 0x2a
 5134 0e3f E1000000 		.4byte	.LASF176
 5135 0e43 01       		.byte	0x1
 5136 0e44 2102     		.2byte	0x221
 5137 0e46 F1000000 		.4byte	0xf1
 5138 0e4a F0010000 		.4byte	.LLST15
 5139 0e4e 2B       		.uleb128 0x2b
 5140 0e4f 00000000 		.4byte	.Ldebug_ranges0+0
 5141 0e53 25       		.uleb128 0x25
 5142 0e54 7D080000 		.4byte	.LASF177
 5143 0e58 01       		.byte	0x1
 5144 0e59 2E02     		.2byte	0x22e
 5145 0e5b F1000000 		.4byte	0xf1
 5146 0e5f 01       		.byte	0x1
 5147 0e60 55       		.byte	0x55
 5148 0e61 00       		.byte	0
 5149 0e62 00       		.byte	0
 5150 0e63 2C       		.uleb128 0x2c
 5151 0e64 01       		.byte	0x1
 5152 0e65 C8020000 		.4byte	.LASF179
 5153 0e69 01       		.byte	0x1
 5154 0e6a 3F02     		.2byte	0x23f
 5155 0e6c 01       		.byte	0x1
 5156 0e6d 00000000 		.4byte	.LFB17
 5157 0e71 52000000 		.4byte	.LFE17
 5158 0e75 1A020000 		.4byte	.LLST16
 5159 0e79 AE0E0000 		.4byte	0xeae
 5160 0e7d 21       		.uleb128 0x21
 5161 0e7e 70636200 		.ascii	"pcb\000"
 5162 0e82 01       		.byte	0x1
 5163 0e83 3F02     		.2byte	0x23f
 5164 0e85 B9030000 		.4byte	0x3b9
 5165 0e89 3A020000 		.4byte	.LLST17
 5166 0e8d 21       		.uleb128 0x21
 5167 0e8e 6C656E00 		.ascii	"len\000"
 5168 0e92 01       		.byte	0x1
 5169 0e93 3F02     		.2byte	0x23f
 5170 0e95 DB000000 		.4byte	0xdb
 5171 0e99 58020000 		.4byte	.LLST18
 5172 0e9d 2A       		.uleb128 0x2a
 5173 0e9e 50040000 		.4byte	.LASF178
 5174 0ea2 01       		.byte	0x1
 5175 0ea3 4102     		.2byte	0x241
 5176 0ea5 29000000 		.4byte	0x29
 5177 0ea9 76020000 		.4byte	.LLST19
 5178 0ead 00       		.byte	0
 5179 0eae 2C       		.uleb128 0x2c
 5180 0eaf 01       		.byte	0x1
 5181 0eb0 6A090000 		.4byte	.LASF180
ARM GAS  /var/folders/5n/p_75w94d66l9ssrldxqdhh700000gn/T//cc9Mn9JC.s 			page 93


 5182 0eb4 01       		.byte	0x1
 5183 0eb5 1604     		.2byte	0x416
 5184 0eb7 01       		.byte	0x1
 5185 0eb8 00000000 		.4byte	.LFB23
 5186 0ebc 1C000000 		.4byte	.LFE23
 5187 0ec0 89020000 		.4byte	.LLST20
 5188 0ec4 D90E0000 		.4byte	0xed9
 5189 0ec8 21       		.uleb128 0x21
 5190 0ec9 73656700 		.ascii	"seg\000"
 5191 0ecd 01       		.byte	0x1
 5192 0ece 1604     		.2byte	0x416
 5193 0ed0 22080000 		.4byte	0x822
 5194 0ed4 A9020000 		.4byte	.LLST21
 5195 0ed8 00       		.byte	0
 5196 0ed9 2C       		.uleb128 0x2c
 5197 0eda 01       		.byte	0x1
 5198 0edb AF090000 		.4byte	.LASF181
 5199 0edf 01       		.byte	0x1
 5200 0ee0 0704     		.2byte	0x407
 5201 0ee2 01       		.byte	0x1
 5202 0ee3 00000000 		.4byte	.LFB22
 5203 0ee7 16000000 		.4byte	.LFE22
 5204 0eeb C7020000 		.4byte	.LLST22
 5205 0eef 1E0F0000 		.4byte	0xf1e
 5206 0ef3 21       		.uleb128 0x21
 5207 0ef4 73656700 		.ascii	"seg\000"
 5208 0ef8 01       		.byte	0x1
 5209 0ef9 0704     		.2byte	0x407
 5210 0efb 22080000 		.4byte	0x822
 5211 0eff E7020000 		.4byte	.LLST23
 5212 0f03 2D       		.uleb128 0x2d
 5213 0f04 08000000 		.4byte	.LBB13
 5214 0f08 0E000000 		.4byte	.LBE13
 5215 0f0c 2A       		.uleb128 0x2a
 5216 0f0d CE000000 		.4byte	.LASF43
 5217 0f11 01       		.byte	0x1
 5218 0f12 0A04     		.2byte	0x40a
 5219 0f14 22080000 		.4byte	0x822
 5220 0f18 26030000 		.4byte	.LLST24
 5221 0f1c 00       		.byte	0
 5222 0f1d 00       		.byte	0
 5223 0f1e 2E       		.uleb128 0x2e
 5224 0f1f 01       		.byte	0x1
 5225 0f20 4C080000 		.4byte	.LASF182
 5226 0f24 01       		.byte	0x1
 5227 0f25 2A04     		.2byte	0x42a
 5228 0f27 01       		.byte	0x1
 5229 0f28 00000000 		.4byte	.LFB24
 5230 0f2c 04000000 		.4byte	.LFE24
 5231 0f30 02       		.byte	0x2
 5232 0f31 7D       		.byte	0x7d
 5233 0f32 00       		.sleb128 0
 5234 0f33 540F0000 		.4byte	0xf54
 5235 0f37 22       		.uleb128 0x22
 5236 0f38 70636200 		.ascii	"pcb\000"
 5237 0f3c 01       		.byte	0x1
 5238 0f3d 2A04     		.2byte	0x42a
ARM GAS  /var/folders/5n/p_75w94d66l9ssrldxqdhh700000gn/T//cc9Mn9JC.s 			page 94


 5239 0f3f B9030000 		.4byte	0x3b9
 5240 0f43 01       		.byte	0x1
 5241 0f44 50       		.byte	0x50
 5242 0f45 2F       		.uleb128 0x2f
 5243 0f46 D7030000 		.4byte	.LASF65
 5244 0f4a 01       		.byte	0x1
 5245 0f4b 2A04     		.2byte	0x42a
 5246 0f4d C5000000 		.4byte	0xc5
 5247 0f51 01       		.byte	0x1
 5248 0f52 51       		.byte	0x51
 5249 0f53 00       		.byte	0
 5250 0f54 27       		.uleb128 0x27
 5251 0f55 01       		.byte	0x1
 5252 0f56 8A040000 		.4byte	.LASF183
 5253 0f5a 01       		.byte	0x1
 5254 0f5b 3804     		.2byte	0x438
 5255 0f5d 01       		.byte	0x1
 5256 0f5e 22080000 		.4byte	0x822
 5257 0f62 00000000 		.4byte	.LFB25
 5258 0f66 20000000 		.4byte	.LFE25
 5259 0f6a 50030000 		.4byte	.LLST25
 5260 0f6e 930F0000 		.4byte	0xf93
 5261 0f72 21       		.uleb128 0x21
 5262 0f73 73656700 		.ascii	"seg\000"
 5263 0f77 01       		.byte	0x1
 5264 0f78 3804     		.2byte	0x438
 5265 0f7a 22080000 		.4byte	0x822
 5266 0f7e 70030000 		.4byte	.LLST26
 5267 0f82 2A       		.uleb128 0x2a
 5268 0f83 3E000000 		.4byte	.LASF184
 5269 0f87 01       		.byte	0x1
 5270 0f88 3A04     		.2byte	0x43a
 5271 0f8a 22080000 		.4byte	0x822
 5272 0f8e 8E030000 		.4byte	.LLST27
 5273 0f92 00       		.byte	0
 5274 0f93 2E       		.uleb128 0x2e
 5275 0f94 01       		.byte	0x1
 5276 0f95 BD090000 		.4byte	.LASF185
 5277 0f99 01       		.byte	0x1
 5278 0f9a FD04     		.2byte	0x4fd
 5279 0f9c 01       		.byte	0x1
 5280 0f9d 00000000 		.4byte	.LFB31
 5281 0fa1 04000000 		.4byte	.LFE31
 5282 0fa5 02       		.byte	0x2
 5283 0fa6 7D       		.byte	0x7d
 5284 0fa7 00       		.sleb128 0
 5285 0fa8 C90F0000 		.4byte	0xfc9
 5286 0fac 22       		.uleb128 0x22
 5287 0fad 70636200 		.ascii	"pcb\000"
 5288 0fb1 01       		.byte	0x1
 5289 0fb2 FD04     		.2byte	0x4fd
 5290 0fb4 B9030000 		.4byte	0x3b9
 5291 0fb8 01       		.byte	0x1
 5292 0fb9 50       		.byte	0x50
 5293 0fba 22       		.uleb128 0x22
 5294 0fbb 61726700 		.ascii	"arg\000"
 5295 0fbf 01       		.byte	0x1
ARM GAS  /var/folders/5n/p_75w94d66l9ssrldxqdhh700000gn/T//cc9Mn9JC.s 			page 95


 5296 0fc0 FD04     		.2byte	0x4fd
 5297 0fc2 B1000000 		.4byte	0xb1
 5298 0fc6 01       		.byte	0x1
 5299 0fc7 51       		.byte	0x51
 5300 0fc8 00       		.byte	0
 5301 0fc9 2E       		.uleb128 0x2e
 5302 0fca 01       		.byte	0x1
 5303 0fcb FD080000 		.4byte	.LASF186
 5304 0fcf 01       		.byte	0x1
 5305 0fd0 0B05     		.2byte	0x50b
 5306 0fd2 01       		.byte	0x1
 5307 0fd3 00000000 		.4byte	.LFB32
 5308 0fd7 06000000 		.4byte	.LFE32
 5309 0fdb 02       		.byte	0x2
 5310 0fdc 7D       		.byte	0x7d
 5311 0fdd 00       		.sleb128 0
 5312 0fde FF0F0000 		.4byte	0xfff
 5313 0fe2 22       		.uleb128 0x22
 5314 0fe3 70636200 		.ascii	"pcb\000"
 5315 0fe7 01       		.byte	0x1
 5316 0fe8 0B05     		.2byte	0x50b
 5317 0fea B9030000 		.4byte	0x3b9
 5318 0fee 01       		.byte	0x1
 5319 0fef 50       		.byte	0x50
 5320 0ff0 2F       		.uleb128 0x2f
 5321 0ff1 39090000 		.4byte	.LASF98
 5322 0ff5 01       		.byte	0x1
 5323 0ff6 0B05     		.2byte	0x50b
 5324 0ff8 CE060000 		.4byte	0x6ce
 5325 0ffc 01       		.byte	0x1
 5326 0ffd 51       		.byte	0x51
 5327 0ffe 00       		.byte	0
 5328 0fff 2E       		.uleb128 0x2e
 5329 1000 01       		.byte	0x1
 5330 1001 30030000 		.4byte	.LASF187
 5331 1005 01       		.byte	0x1
 5332 1006 1805     		.2byte	0x518
 5333 1008 01       		.byte	0x1
 5334 1009 00000000 		.4byte	.LFB33
 5335 100d 06000000 		.4byte	.LFE33
 5336 1011 02       		.byte	0x2
 5337 1012 7D       		.byte	0x7d
 5338 1013 00       		.sleb128 0
 5339 1014 35100000 		.4byte	0x1035
 5340 1018 22       		.uleb128 0x22
 5341 1019 70636200 		.ascii	"pcb\000"
 5342 101d 01       		.byte	0x1
 5343 101e 1805     		.2byte	0x518
 5344 1020 B9030000 		.4byte	0x3b9
 5345 1024 01       		.byte	0x1
 5346 1025 50       		.byte	0x50
 5347 1026 2F       		.uleb128 0x2f
 5348 1027 65040000 		.4byte	.LASF97
 5349 102b 01       		.byte	0x1
 5350 102c 1805     		.2byte	0x518
 5351 102e FE060000 		.4byte	0x6fe
 5352 1032 01       		.byte	0x1
ARM GAS  /var/folders/5n/p_75w94d66l9ssrldxqdhh700000gn/T//cc9Mn9JC.s 			page 96


 5353 1033 51       		.byte	0x51
 5354 1034 00       		.byte	0
 5355 1035 2E       		.uleb128 0x2e
 5356 1036 01       		.byte	0x1
 5357 1037 DD050000 		.4byte	.LASF188
 5358 103b 01       		.byte	0x1
 5359 103c 2605     		.2byte	0x526
 5360 103e 01       		.byte	0x1
 5361 103f 00000000 		.4byte	.LFB34
 5362 1043 06000000 		.4byte	.LFE34
 5363 1047 02       		.byte	0x2
 5364 1048 7D       		.byte	0x7d
 5365 1049 00       		.sleb128 0
 5366 104a 6B100000 		.4byte	0x106b
 5367 104e 22       		.uleb128 0x22
 5368 104f 70636200 		.ascii	"pcb\000"
 5369 1053 01       		.byte	0x1
 5370 1054 2605     		.2byte	0x526
 5371 1056 B9030000 		.4byte	0x3b9
 5372 105a 01       		.byte	0x1
 5373 105b 50       		.byte	0x50
 5374 105c 22       		.uleb128 0x22
 5375 105d 65727200 		.ascii	"err\000"
 5376 1061 01       		.byte	0x1
 5377 1062 2605     		.2byte	0x526
 5378 1064 4F070000 		.4byte	0x74f
 5379 1068 01       		.byte	0x1
 5380 1069 51       		.byte	0x51
 5381 106a 00       		.byte	0
 5382 106b 2E       		.uleb128 0x2e
 5383 106c 01       		.byte	0x1
 5384 106d B5060000 		.4byte	.LASF189
 5385 1071 01       		.byte	0x1
 5386 1072 3405     		.2byte	0x534
 5387 1074 01       		.byte	0x1
 5388 1075 00000000 		.4byte	.LFB35
 5389 1079 04000000 		.4byte	.LFE35
 5390 107d 02       		.byte	0x2
 5391 107e 7D       		.byte	0x7d
 5392 107f 00       		.sleb128 0
 5393 1080 A1100000 		.4byte	0x10a1
 5394 1084 22       		.uleb128 0x22
 5395 1085 70636200 		.ascii	"pcb\000"
 5396 1089 01       		.byte	0x1
 5397 108a 3405     		.2byte	0x534
 5398 108c B9030000 		.4byte	0x3b9
 5399 1090 01       		.byte	0x1
 5400 1091 50       		.byte	0x50
 5401 1092 2F       		.uleb128 0x2f
 5402 1093 DC030000 		.4byte	.LASF67
 5403 1097 01       		.byte	0x1
 5404 1098 3405     		.2byte	0x534
 5405 109a 8E030000 		.4byte	0x38e
 5406 109e 01       		.byte	0x1
 5407 109f 51       		.byte	0x51
 5408 10a0 00       		.byte	0
 5409 10a1 2E       		.uleb128 0x2e
ARM GAS  /var/folders/5n/p_75w94d66l9ssrldxqdhh700000gn/T//cc9Mn9JC.s 			page 97


 5410 10a2 01       		.byte	0x1
 5411 10a3 9C020000 		.4byte	.LASF190
 5412 10a7 01       		.byte	0x1
 5413 10a8 4205     		.2byte	0x542
 5414 10aa 01       		.byte	0x1
 5415 10ab 00000000 		.4byte	.LFB36
 5416 10af 0A000000 		.4byte	.LFE36
 5417 10b3 02       		.byte	0x2
 5418 10b4 7D       		.byte	0x7d
 5419 10b5 00       		.sleb128 0
 5420 10b6 E5100000 		.4byte	0x10e5
 5421 10ba 22       		.uleb128 0x22
 5422 10bb 70636200 		.ascii	"pcb\000"
 5423 10bf 01       		.byte	0x1
 5424 10c0 4205     		.2byte	0x542
 5425 10c2 B9030000 		.4byte	0x3b9
 5426 10c6 01       		.byte	0x1
 5427 10c7 50       		.byte	0x50
 5428 10c8 2F       		.uleb128 0x2f
 5429 10c9 ED030000 		.4byte	.LASF100
 5430 10cd 01       		.byte	0x1
 5431 10ce 4205     		.2byte	0x542
 5432 10d0 29070000 		.4byte	0x729
 5433 10d4 01       		.byte	0x1
 5434 10d5 51       		.byte	0x51
 5435 10d6 2F       		.uleb128 0x2f
 5436 10d7 21000000 		.4byte	.LASF191
 5437 10db 01       		.byte	0x1
 5438 10dc 4205     		.2byte	0x542
 5439 10de C5000000 		.4byte	0xc5
 5440 10e2 01       		.byte	0x1
 5441 10e3 52       		.byte	0x52
 5442 10e4 00       		.byte	0
 5443 10e5 30       		.uleb128 0x30
 5444 10e6 AC0B0000 		.4byte	0xbac
 5445 10ea 00000000 		.4byte	.LFB37
 5446 10ee 48000000 		.4byte	.LFE37
 5447 10f2 AC030000 		.4byte	.LLST28
 5448 10f6 1E110000 		.4byte	0x111e
 5449 10fa 31       		.uleb128 0x31
 5450 10fb BB0B0000 		.4byte	0xbbb
 5451 10ff CC030000 		.4byte	.LLST29
 5452 1103 32       		.uleb128 0x32
 5453 1104 AC0B0000 		.4byte	0xbac
 5454 1108 12000000 		.4byte	.LBB16
 5455 110c 48000000 		.4byte	.LBE16
 5456 1110 01       		.byte	0x1
 5457 1111 5305     		.2byte	0x553
 5458 1113 31       		.uleb128 0x31
 5459 1114 BB0B0000 		.4byte	0xbbb
 5460 1118 EA030000 		.4byte	.LLST30
 5461 111c 00       		.byte	0
 5462 111d 00       		.byte	0
 5463 111e 2C       		.uleb128 0x2c
 5464 111f 01       		.byte	0x1
 5465 1120 55060000 		.4byte	.LASF192
 5466 1124 01       		.byte	0x1
ARM GAS  /var/folders/5n/p_75w94d66l9ssrldxqdhh700000gn/T//cc9Mn9JC.s 			page 98


 5467 1125 EE02     		.2byte	0x2ee
 5468 1127 01       		.byte	0x1
 5469 1128 00000000 		.4byte	.LFB20
 5470 112c 82030000 		.4byte	.LFE20
 5471 1130 08040000 		.4byte	.LLST31
 5472 1134 C9110000 		.4byte	0x11c9
 5473 1138 24       		.uleb128 0x24
 5474 1139 70636200 		.ascii	"pcb\000"
 5475 113d 01       		.byte	0x1
 5476 113e F002     		.2byte	0x2f0
 5477 1140 B9030000 		.4byte	0x3b9
 5478 1144 34040000 		.4byte	.LLST32
 5479 1148 2A       		.uleb128 0x2a
 5480 1149 22010000 		.4byte	.LASF193
 5481 114d 01       		.byte	0x1
 5482 114e F002     		.2byte	0x2f0
 5483 1150 B9030000 		.4byte	0x3b9
 5484 1154 3B050000 		.4byte	.LLST33
 5485 1158 2A       		.uleb128 0x2a
 5486 1159 4C020000 		.4byte	.LASF194
 5487 115d 01       		.byte	0x1
 5488 115e F102     		.2byte	0x2f1
 5489 1160 DB000000 		.4byte	0xdb
 5490 1164 BE050000 		.4byte	.LLST34
 5491 1168 2A       		.uleb128 0x2a
 5492 1169 2D010000 		.4byte	.LASF195
 5493 116d 01       		.byte	0x1
 5494 116e F202     		.2byte	0x2f2
 5495 1170 C5000000 		.4byte	0xc5
 5496 1174 EC050000 		.4byte	.LLST35
 5497 1178 2A       		.uleb128 0x2a
 5498 1179 ED010000 		.4byte	.LASF196
 5499 117d 01       		.byte	0x1
 5500 117e F302     		.2byte	0x2f3
 5501 1180 C5000000 		.4byte	0xc5
 5502 1184 AC060000 		.4byte	.LLST36
 5503 1188 24       		.uleb128 0x24
 5504 1189 65727200 		.ascii	"err\000"
 5505 118d 01       		.byte	0x1
 5506 118e F402     		.2byte	0x2f4
 5507 1190 9B010000 		.4byte	0x19b
 5508 1194 27070000 		.4byte	.LLST37
 5509 1198 33       		.uleb128 0x33
 5510 1199 18000000 		.4byte	.Ldebug_ranges0+0x18
 5511 119d B2110000 		.4byte	0x11b2
 5512 11a1 2A       		.uleb128 0x2a
 5513 11a2 6A050000 		.4byte	.LASF197
 5514 11a6 01       		.byte	0x1
 5515 11a7 8C03     		.2byte	0x38c
 5516 11a9 B9030000 		.4byte	0x3b9
 5517 11ad 46070000 		.4byte	.LLST38
 5518 11b1 00       		.byte	0
 5519 11b2 2B       		.uleb128 0x2b
 5520 11b3 38000000 		.4byte	.Ldebug_ranges0+0x38
 5521 11b7 2A       		.uleb128 0x2a
 5522 11b8 6A050000 		.4byte	.LASF197
 5523 11bc 01       		.byte	0x1
ARM GAS  /var/folders/5n/p_75w94d66l9ssrldxqdhh700000gn/T//cc9Mn9JC.s 			page 99


 5524 11bd C503     		.2byte	0x3c5
 5525 11bf B9030000 		.4byte	0x3b9
 5526 11c3 64070000 		.4byte	.LLST39
 5527 11c7 00       		.byte	0
 5528 11c8 00       		.byte	0
 5529 11c9 2C       		.uleb128 0x2c
 5530 11ca 01       		.byte	0x1
 5531 11cb BB010000 		.4byte	.LASF198
 5532 11cf 01       		.byte	0x1
 5533 11d0 9705     		.2byte	0x597
 5534 11d2 01       		.byte	0x1
 5535 11d3 00000000 		.4byte	.LFB38
 5536 11d7 8C000000 		.4byte	.LFE38
 5537 11db 82070000 		.4byte	.LLST40
 5538 11df 04120000 		.4byte	0x1204
 5539 11e3 28       		.uleb128 0x28
 5540 11e4 40030000 		.4byte	.LASF199
 5541 11e8 01       		.byte	0x1
 5542 11e9 9705     		.2byte	0x597
 5543 11eb 04120000 		.4byte	0x1204
 5544 11ef A2070000 		.4byte	.LLST41
 5545 11f3 21       		.uleb128 0x21
 5546 11f4 70636200 		.ascii	"pcb\000"
 5547 11f8 01       		.byte	0x1
 5548 11f9 9705     		.2byte	0x597
 5549 11fb B9030000 		.4byte	0x3b9
 5550 11ff C0070000 		.4byte	.LLST42
 5551 1203 00       		.byte	0
 5552 1204 06       		.uleb128 0x6
 5553 1205 04       		.byte	0x4
 5554 1206 B9030000 		.4byte	0x3b9
 5555 120a 2C       		.uleb128 0x2c
 5556 120b 01       		.byte	0x1
 5557 120c 99090000 		.4byte	.LASF200
 5558 1210 01       		.byte	0x1
 5559 1211 3E01     		.2byte	0x13e
 5560 1213 01       		.byte	0x1
 5561 1214 00000000 		.4byte	.LFB11
 5562 1218 A4000000 		.4byte	.LFE11
 5563 121c DE070000 		.4byte	.LLST43
 5564 1220 C3120000 		.4byte	0x12c3
 5565 1224 21       		.uleb128 0x21
 5566 1225 70636200 		.ascii	"pcb\000"
 5567 1229 01       		.byte	0x1
 5568 122a 3E01     		.2byte	0x13e
 5569 122c B9030000 		.4byte	0x3b9
 5570 1230 0A080000 		.4byte	.LLST44
 5571 1234 28       		.uleb128 0x28
 5572 1235 65070000 		.4byte	.LASF201
 5573 1239 01       		.byte	0x1
 5574 123a 3E01     		.2byte	0x13e
 5575 123c 29000000 		.4byte	0x29
 5576 1240 28080000 		.4byte	.LLST45
 5577 1244 2A       		.uleb128 0x2a
 5578 1245 D8010000 		.4byte	.LASF127
 5579 1249 01       		.byte	0x1
 5580 124a 4001     		.2byte	0x140
ARM GAS  /var/folders/5n/p_75w94d66l9ssrldxqdhh700000gn/T//cc9Mn9JC.s 			page 100


 5581 124c F1000000 		.4byte	0xf1
 5582 1250 46080000 		.4byte	.LLST46
 5583 1254 2A       		.uleb128 0x2a
 5584 1255 FB040000 		.4byte	.LASF128
 5585 1259 01       		.byte	0x1
 5586 125a 4001     		.2byte	0x140
 5587 125c F1000000 		.4byte	0xf1
 5588 1260 71080000 		.4byte	.LLST47
 5589 1264 2A       		.uleb128 0x2a
 5590 1265 E5050000 		.4byte	.LASF69
 5591 1269 01       		.byte	0x1
 5592 126a 4101     		.2byte	0x141
 5593 126c DB000000 		.4byte	0xdb
 5594 1270 9B080000 		.4byte	.LLST48
 5595 1274 2A       		.uleb128 0x2a
 5596 1275 33020000 		.4byte	.LASF68
 5597 1279 01       		.byte	0x1
 5598 127a 4101     		.2byte	0x141
 5599 127c DB000000 		.4byte	0xdb
 5600 1280 B9080000 		.4byte	.LLST49
 5601 1284 25       		.uleb128 0x25
 5602 1285 83090000 		.4byte	.LASF63
 5603 1289 01       		.byte	0x1
 5604 128a 4201     		.2byte	0x142
 5605 128c 90010000 		.4byte	0x190
 5606 1290 02       		.byte	0x2
 5607 1291 91       		.byte	0x91
 5608 1292 50       		.sleb128 -48
 5609 1293 25       		.uleb128 0x25
 5610 1294 47070000 		.4byte	.LASF62
 5611 1298 01       		.byte	0x1
 5612 1299 4201     		.2byte	0x142
 5613 129b 90010000 		.4byte	0x190
 5614 129f 02       		.byte	0x2
 5615 12a0 91       		.byte	0x91
 5616 12a1 54       		.sleb128 -44
 5617 12a2 2A       		.uleb128 0x2a
 5618 12a3 A8060000 		.4byte	.LASF101
 5619 12a7 01       		.byte	0x1
 5620 12a8 4401     		.2byte	0x144
 5621 12aa 4F070000 		.4byte	0x74f
 5622 12ae D7080000 		.4byte	.LLST50
 5623 12b2 2A       		.uleb128 0x2a
 5624 12b3 A7000000 		.4byte	.LASF202
 5625 12b7 01       		.byte	0x1
 5626 12b8 4601     		.2byte	0x146
 5627 12ba B1000000 		.4byte	0xb1
 5628 12be 02090000 		.4byte	.LLST51
 5629 12c2 00       		.byte	0
 5630 12c3 2E       		.uleb128 0x2e
 5631 12c4 01       		.byte	0x1
 5632 12c5 61060000 		.4byte	.LASF203
 5633 12c9 01       		.byte	0x1
 5634 12ca 7C01     		.2byte	0x17c
 5635 12cc 01       		.byte	0x1
 5636 12cd 00000000 		.4byte	.LFB12
 5637 12d1 06000000 		.4byte	.LFE12
ARM GAS  /var/folders/5n/p_75w94d66l9ssrldxqdhh700000gn/T//cc9Mn9JC.s 			page 101


 5638 12d5 02       		.byte	0x2
 5639 12d6 7D       		.byte	0x7d
 5640 12d7 00       		.sleb128 0
 5641 12d8 ED120000 		.4byte	0x12ed
 5642 12dc 21       		.uleb128 0x21
 5643 12dd 70636200 		.ascii	"pcb\000"
 5644 12e1 01       		.byte	0x1
 5645 12e2 7C01     		.2byte	0x17c
 5646 12e4 B9030000 		.4byte	0x3b9
 5647 12e8 2C090000 		.4byte	.LLST52
 5648 12ec 00       		.byte	0
 5649 12ed 27       		.uleb128 0x27
 5650 12ee 01       		.byte	0x1
 5651 12ef C5090000 		.4byte	.LASF204
 5652 12f3 01       		.byte	0x1
 5653 12f4 9C04     		.2byte	0x49c
 5654 12f6 01       		.byte	0x1
 5655 12f7 B9030000 		.4byte	0x3b9
 5656 12fb 00000000 		.4byte	.LFB29
 5657 12ff 3C010000 		.4byte	.LFE29
 5658 1303 3F090000 		.4byte	.LLST53
 5659 1307 DE130000 		.4byte	0x13de
 5660 130b 28       		.uleb128 0x28
 5661 130c D7030000 		.4byte	.LASF65
 5662 1310 01       		.byte	0x1
 5663 1311 9C04     		.2byte	0x49c
 5664 1313 C5000000 		.4byte	0xc5
 5665 1317 5F090000 		.4byte	.LLST54
 5666 131b 24       		.uleb128 0x24
 5667 131c 70636200 		.ascii	"pcb\000"
 5668 1320 01       		.byte	0x1
 5669 1321 9E04     		.2byte	0x49e
 5670 1323 B9030000 		.4byte	0x3b9
 5671 1327 72090000 		.4byte	.LLST55
 5672 132b 1D       		.uleb128 0x1d
 5673 132c 69737300 		.ascii	"iss\000"
 5674 1330 01       		.byte	0x1
 5675 1331 9F04     		.2byte	0x49f
 5676 1333 F1000000 		.4byte	0xf1
 5677 1337 34       		.uleb128 0x34
 5678 1338 880C0000 		.4byte	0xc88
 5679 133c 1C000000 		.4byte	.LBB24
 5680 1340 58000000 		.4byte	.Ldebug_ranges0+0x58
 5681 1344 01       		.byte	0x1
 5682 1345 C904     		.2byte	0x4c9
 5683 1347 5D130000 		.4byte	0x135d
 5684 134b 2B       		.uleb128 0x2b
 5685 134c 78000000 		.4byte	.Ldebug_ranges0+0x78
 5686 1350 35       		.uleb128 0x35
 5687 1351 9B0C0000 		.4byte	0xc9b
 5688 1355 05       		.byte	0x5
 5689 1356 03       		.byte	0x3
 5690 1357 00000000 		.4byte	iss.3245
 5691 135b 00       		.byte	0
 5692 135c 00       		.byte	0
 5693 135d 36       		.uleb128 0x36
 5694 135e 0A0C0000 		.4byte	0xc0a
ARM GAS  /var/folders/5n/p_75w94d66l9ssrldxqdhh700000gn/T//cc9Mn9JC.s 			page 102


 5695 1362 9C000000 		.4byte	.LBB30
 5696 1366 C2000000 		.4byte	.LBE30
 5697 136a 01       		.byte	0x1
 5698 136b A504     		.2byte	0x4a5
 5699 136d 97130000 		.4byte	0x1397
 5700 1371 2D       		.uleb128 0x2d
 5701 1372 9C000000 		.4byte	.LBB31
 5702 1376 C2000000 		.4byte	.LBE31
 5703 137a 37       		.uleb128 0x37
 5704 137b 180C0000 		.4byte	0xc18
 5705 137f BC090000 		.4byte	.LLST56
 5706 1383 37       		.uleb128 0x37
 5707 1384 240C0000 		.4byte	0xc24
 5708 1388 E9090000 		.4byte	.LLST57
 5709 138c 37       		.uleb128 0x37
 5710 138d 300C0000 		.4byte	0xc30
 5711 1391 FD090000 		.4byte	.LLST58
 5712 1395 00       		.byte	0
 5713 1396 00       		.byte	0
 5714 1397 32       		.uleb128 0x32
 5715 1398 3D0C0000 		.4byte	0xc3d
 5716 139c DA000000 		.4byte	.LBB32
 5717 13a0 0C010000 		.4byte	.LBE32
 5718 13a4 01       		.byte	0x1
 5719 13a5 AB04     		.2byte	0x4ab
 5720 13a7 38       		.uleb128 0x38
 5721 13a8 4B0C0000 		.4byte	0xc4b
 5722 13ac 01       		.byte	0x1
 5723 13ad 55       		.byte	0x55
 5724 13ae 2D       		.uleb128 0x2d
 5725 13af DA000000 		.4byte	.LBB33
 5726 13b3 0C010000 		.4byte	.LBE33
 5727 13b7 37       		.uleb128 0x37
 5728 13b8 570C0000 		.4byte	0xc57
 5729 13bc 1C0A0000 		.4byte	.LLST59
 5730 13c0 37       		.uleb128 0x37
 5731 13c1 630C0000 		.4byte	0xc63
 5732 13c5 3E0A0000 		.4byte	.LLST60
 5733 13c9 37       		.uleb128 0x37
 5734 13ca 6F0C0000 		.4byte	0xc6f
 5735 13ce 520A0000 		.4byte	.LLST61
 5736 13d2 37       		.uleb128 0x37
 5737 13d3 7B0C0000 		.4byte	0xc7b
 5738 13d7 710A0000 		.4byte	.LLST62
 5739 13db 00       		.byte	0
 5740 13dc 00       		.byte	0
 5741 13dd 00       		.byte	0
 5742 13de 39       		.uleb128 0x39
 5743 13df 01       		.byte	0x1
 5744 13e0 C0020000 		.4byte	.LASF238
 5745 13e4 01       		.byte	0x1
 5746 13e5 F004     		.2byte	0x4f0
 5747 13e7 01       		.byte	0x1
 5748 13e8 B9030000 		.4byte	0x3b9
 5749 13ec 00000000 		.4byte	.LFB30
 5750 13f0 06000000 		.4byte	.LFE30
 5751 13f4 02       		.byte	0x2
ARM GAS  /var/folders/5n/p_75w94d66l9ssrldxqdhh700000gn/T//cc9Mn9JC.s 			page 103


 5752 13f5 7D       		.byte	0x7d
 5753 13f6 00       		.sleb128 0
 5754 13f7 3A       		.uleb128 0x3a
 5755 13f8 FB050000 		.4byte	.LASF205
 5756 13fc 01       		.byte	0x1
 5757 13fd 8A       		.byte	0x8a
 5758 13fe 01       		.byte	0x1
 5759 13ff 9B010000 		.4byte	0x19b
 5760 1403 00000000 		.4byte	.LFB8
 5761 1407 48010000 		.4byte	.LFE8
 5762 140b 910A0000 		.4byte	.LLST63
 5763 140f 41140000 		.4byte	0x1441
 5764 1413 3B       		.uleb128 0x3b
 5765 1414 70636200 		.ascii	"pcb\000"
 5766 1418 01       		.byte	0x1
 5767 1419 8A       		.byte	0x8a
 5768 141a B9030000 		.4byte	0x3b9
 5769 141e BD0A0000 		.4byte	.LLST64
 5770 1422 3C       		.uleb128 0x3c
 5771 1423 A7010000 		.4byte	.LASF206
 5772 1427 01       		.byte	0x1
 5773 1428 8A       		.byte	0x8a
 5774 1429 C5000000 		.4byte	0xc5
 5775 142d 140B0000 		.4byte	.LLST65
 5776 1431 3D       		.uleb128 0x3d
 5777 1432 65727200 		.ascii	"err\000"
 5778 1436 01       		.byte	0x1
 5779 1437 8C       		.byte	0x8c
 5780 1438 9B010000 		.4byte	0x19b
 5781 143c 690B0000 		.4byte	.LLST66
 5782 1440 00       		.byte	0
 5783 1441 27       		.uleb128 0x27
 5784 1442 01       		.byte	0x1
 5785 1443 60000000 		.4byte	.LASF207
 5786 1447 01       		.byte	0x1
 5787 1448 1601     		.2byte	0x116
 5788 144a 01       		.byte	0x1
 5789 144b 9B010000 		.4byte	0x19b
 5790 144f 00000000 		.4byte	.LFB10
 5791 1453 58000000 		.4byte	.LFE10
 5792 1457 AB0B0000 		.4byte	.LLST67
 5793 145b 90140000 		.4byte	0x1490
 5794 145f 21       		.uleb128 0x21
 5795 1460 70636200 		.ascii	"pcb\000"
 5796 1464 01       		.byte	0x1
 5797 1465 1601     		.2byte	0x116
 5798 1467 B9030000 		.4byte	0x3b9
 5799 146b CB0B0000 		.4byte	.LLST68
 5800 146f 28       		.uleb128 0x28
 5801 1470 CF090000 		.4byte	.LASF208
 5802 1474 01       		.byte	0x1
 5803 1475 1601     		.2byte	0x116
 5804 1477 29000000 		.4byte	0x29
 5805 147b E90B0000 		.4byte	.LLST69
 5806 147f 28       		.uleb128 0x28
 5807 1480 00000000 		.4byte	.LASF209
 5808 1484 01       		.byte	0x1
ARM GAS  /var/folders/5n/p_75w94d66l9ssrldxqdhh700000gn/T//cc9Mn9JC.s 			page 104


 5809 1485 1601     		.2byte	0x116
 5810 1487 29000000 		.4byte	0x29
 5811 148b 070C0000 		.4byte	.LLST70
 5812 148f 00       		.byte	0
 5813 1490 3E       		.uleb128 0x3e
 5814 1491 01       		.byte	0x1
 5815 1492 F1050000 		.4byte	.LASF210
 5816 1496 01       		.byte	0x1
 5817 1497 FC       		.byte	0xfc
 5818 1498 01       		.byte	0x1
 5819 1499 9B010000 		.4byte	0x19b
 5820 149d 00000000 		.4byte	.LFB9
 5821 14a1 18000000 		.4byte	.LFE9
 5822 14a5 02       		.byte	0x2
 5823 14a6 7D       		.byte	0x7d
 5824 14a7 00       		.sleb128 0
 5825 14a8 BC140000 		.4byte	0x14bc
 5826 14ac 3B       		.uleb128 0x3b
 5827 14ad 70636200 		.ascii	"pcb\000"
 5828 14b1 01       		.byte	0x1
 5829 14b2 FC       		.byte	0xfc
 5830 14b3 B9030000 		.4byte	0x3b9
 5831 14b7 3B0C0000 		.4byte	.LLST71
 5832 14bb 00       		.byte	0
 5833 14bc 30       		.uleb128 0x30
 5834 14bd C80B0000 		.4byte	0xbc8
 5835 14c1 00000000 		.4byte	.LFB26
 5836 14c5 26000000 		.4byte	.LFE26
 5837 14c9 4E0C0000 		.4byte	.LLST72
 5838 14cd 29150000 		.4byte	0x1529
 5839 14d1 31       		.uleb128 0x31
 5840 14d2 DB0B0000 		.4byte	0xbdb
 5841 14d6 6E0C0000 		.4byte	.LLST73
 5842 14da 31       		.uleb128 0x31
 5843 14db E70B0000 		.4byte	0xbe7
 5844 14df 8C0C0000 		.4byte	.LLST74
 5845 14e3 31       		.uleb128 0x31
 5846 14e4 F30B0000 		.4byte	0xbf3
 5847 14e8 B50C0000 		.4byte	.LLST75
 5848 14ec 31       		.uleb128 0x31
 5849 14ed FD0B0000 		.4byte	0xbfd
 5850 14f1 D30C0000 		.4byte	.LLST76
 5851 14f5 3F       		.uleb128 0x3f
 5852 14f6 C80B0000 		.4byte	0xbc8
 5853 14fa 18000000 		.4byte	.LBB36
 5854 14fe 98000000 		.4byte	.Ldebug_ranges0+0x98
 5855 1502 01       		.byte	0x1
 5856 1503 4C04     		.2byte	0x44c
 5857 1505 31       		.uleb128 0x31
 5858 1506 FD0B0000 		.4byte	0xbfd
 5859 150a F10C0000 		.4byte	.LLST77
 5860 150e 31       		.uleb128 0x31
 5861 150f E70B0000 		.4byte	0xbe7
 5862 1513 040D0000 		.4byte	.LLST78
 5863 1517 2B       		.uleb128 0x2b
 5864 1518 B0000000 		.4byte	.Ldebug_ranges0+0xb0
 5865 151c 40       		.uleb128 0x40
ARM GAS  /var/folders/5n/p_75w94d66l9ssrldxqdhh700000gn/T//cc9Mn9JC.s 			page 105


 5866 151d F30B0000 		.4byte	0xbf3
 5867 1521 40       		.uleb128 0x40
 5868 1522 DB0B0000 		.4byte	0xbdb
 5869 1526 00       		.byte	0
 5870 1527 00       		.byte	0
 5871 1528 00       		.byte	0
 5872 1529 2C       		.uleb128 0x2c
 5873 152a 01       		.byte	0x1
 5874 152b 5E050000 		.4byte	.LASF211
 5875 152f 01       		.byte	0x1
 5876 1530 E103     		.2byte	0x3e1
 5877 1532 01       		.byte	0x1
 5878 1533 00000000 		.4byte	.LFB21
 5879 1537 70000000 		.4byte	.LFE21
 5880 153b 170D0000 		.4byte	.LLST79
 5881 153f 80150000 		.4byte	0x1580
 5882 1543 24       		.uleb128 0x24
 5883 1544 70636200 		.ascii	"pcb\000"
 5884 1548 01       		.byte	0x1
 5885 1549 E303     		.2byte	0x3e3
 5886 154b B9030000 		.4byte	0x3b9
 5887 154f 370D0000 		.4byte	.LLST80
 5888 1553 2B       		.uleb128 0x2b
 5889 1554 C8000000 		.4byte	.Ldebug_ranges0+0xc8
 5890 1558 2A       		.uleb128 0x2a
 5891 1559 CE000000 		.4byte	.LASF43
 5892 155d 01       		.byte	0x1
 5893 155e E603     		.2byte	0x3e6
 5894 1560 B9030000 		.4byte	0x3b9
 5895 1564 900D0000 		.4byte	.LLST81
 5896 1568 2B       		.uleb128 0x2b
 5897 1569 E8000000 		.4byte	.Ldebug_ranges0+0xe8
 5898 156d 24       		.uleb128 0x24
 5899 156e 65727200 		.ascii	"err\000"
 5900 1572 01       		.byte	0x1
 5901 1573 EA03     		.2byte	0x3ea
 5902 1575 9B010000 		.4byte	0x19b
 5903 1579 AF0D0000 		.4byte	.LLST82
 5904 157d 00       		.byte	0
 5905 157e 00       		.byte	0
 5906 157f 00       		.byte	0
 5907 1580 41       		.uleb128 0x41
 5908 1581 01       		.byte	0x1
 5909 1582 82040000 		.4byte	.LASF239
 5910 1586 01       		.byte	0x1
 5911 1587 6D       		.byte	0x6d
 5912 1588 01       		.byte	0x1
 5913 1589 00000000 		.4byte	.LFB7
 5914 158d 24000000 		.4byte	.LFE7
 5915 1591 D80D0000 		.4byte	.LLST83
 5916 1595 42       		.uleb128 0x42
 5917 1596 880C0000 		.4byte	0xc88
 5918 159a 00000000 		.4byte	.LFB39
 5919 159e 1A000000 		.4byte	.LFE39
 5920 15a2 02       		.byte	0x2
 5921 15a3 7D       		.byte	0x7d
 5922 15a4 00       		.sleb128 0
ARM GAS  /var/folders/5n/p_75w94d66l9ssrldxqdhh700000gn/T//cc9Mn9JC.s 			page 106


 5923 15a5 B5150000 		.4byte	0x15b5
 5924 15a9 35       		.uleb128 0x35
 5925 15aa 9B0C0000 		.4byte	0xc9b
 5926 15ae 05       		.byte	0x5
 5927 15af 03       		.byte	0x3
 5928 15b0 00000000 		.4byte	iss.3245
 5929 15b4 00       		.byte	0
 5930 15b5 27       		.uleb128 0x27
 5931 15b6 01       		.byte	0x1
 5932 15b7 8E060000 		.4byte	.LASF212
 5933 15bb 01       		.byte	0x1
 5934 15bc C705     		.2byte	0x5c7
 5935 15be 01       		.byte	0x1
 5936 15bf DB000000 		.4byte	0xdb
 5937 15c3 00000000 		.4byte	.LFB40
 5938 15c7 1E000000 		.4byte	.LFE40
 5939 15cb F80D0000 		.4byte	.LLST84
 5940 15cf 14160000 		.4byte	0x1614
 5941 15d3 28       		.uleb128 0x28
 5942 15d4 E1090000 		.4byte	.LASF213
 5943 15d8 01       		.byte	0x1
 5944 15d9 C705     		.2byte	0x5c7
 5945 15db DB000000 		.4byte	0xdb
 5946 15df 180E0000 		.4byte	.LLST85
 5947 15e3 28       		.uleb128 0x28
 5948 15e4 ED080000 		.4byte	.LASF42
 5949 15e8 01       		.byte	0x1
 5950 15e9 C705     		.2byte	0x5c7
 5951 15eb 42030000 		.4byte	0x342
 5952 15ef 360E0000 		.4byte	.LLST86
 5953 15f3 2A       		.uleb128 0x2a
 5954 15f4 33090000 		.4byte	.LASF214
 5955 15f8 01       		.byte	0x1
 5956 15f9 C905     		.2byte	0x5c9
 5957 15fb DB000000 		.4byte	0xdb
 5958 15ff 490E0000 		.4byte	.LLST87
 5959 1603 2A       		.uleb128 0x2a
 5960 1604 B0070000 		.4byte	.LASF215
 5961 1608 01       		.byte	0x1
 5962 1609 CA05     		.2byte	0x5ca
 5963 160b 1B020000 		.4byte	0x21b
 5964 160f 6B0E0000 		.4byte	.LLST88
 5965 1613 00       		.byte	0
 5966 1614 27       		.uleb128 0x27
 5967 1615 01       		.byte	0x1
 5968 1616 4E000000 		.4byte	.LASF216
 5969 161a 01       		.byte	0x1
 5970 161b 8902     		.2byte	0x289
 5971 161d 01       		.byte	0x1
 5972 161e 9B010000 		.4byte	0x19b
 5973 1622 00000000 		.4byte	.LFB19
 5974 1626 1C010000 		.4byte	.LFE19
 5975 162a 7E0E0000 		.4byte	.LLST89
 5976 162e DB160000 		.4byte	0x16db
 5977 1632 21       		.uleb128 0x21
 5978 1633 70636200 		.ascii	"pcb\000"
 5979 1637 01       		.byte	0x1
ARM GAS  /var/folders/5n/p_75w94d66l9ssrldxqdhh700000gn/T//cc9Mn9JC.s 			page 107


 5980 1638 8902     		.2byte	0x289
 5981 163a B9030000 		.4byte	0x3b9
 5982 163e 9E0E0000 		.4byte	.LLST90
 5983 1642 28       		.uleb128 0x28
 5984 1643 21030000 		.4byte	.LASF168
 5985 1647 01       		.byte	0x1
 5986 1648 8902     		.2byte	0x289
 5987 164a 42030000 		.4byte	0x342
 5988 164e BC0E0000 		.4byte	.LLST91
 5989 1652 28       		.uleb128 0x28
 5990 1653 32080000 		.4byte	.LASF167
 5991 1657 01       		.byte	0x1
 5992 1658 8902     		.2byte	0x289
 5993 165a DB000000 		.4byte	0xdb
 5994 165e 060F0000 		.4byte	.LLST92
 5995 1662 28       		.uleb128 0x28
 5996 1663 48030000 		.4byte	.LASF99
 5997 1667 01       		.byte	0x1
 5998 1668 8A02     		.2byte	0x28a
 5999 166a 71070000 		.4byte	0x771
 6000 166e 3A0F0000 		.4byte	.LLST93
 6001 1672 24       		.uleb128 0x24
 6002 1673 72657400 		.ascii	"ret\000"
 6003 1677 01       		.byte	0x1
 6004 1678 8C02     		.2byte	0x28c
 6005 167a 9B010000 		.4byte	0x19b
 6006 167e 580F0000 		.4byte	.LLST94
 6007 1682 1D       		.uleb128 0x1d
 6008 1683 69737300 		.ascii	"iss\000"
 6009 1687 01       		.byte	0x1
 6010 1688 8D02     		.2byte	0x28d
 6011 168a F1000000 		.4byte	0xf1
 6012 168e 2A       		.uleb128 0x2a
 6013 168f 41040000 		.4byte	.LASF217
 6014 1693 01       		.byte	0x1
 6015 1694 8E02     		.2byte	0x28e
 6016 1696 DB000000 		.4byte	0xdb
 6017 169a 760F0000 		.4byte	.LLST95
 6018 169e 34       		.uleb128 0x34
 6019 169f 880C0000 		.4byte	0xc88
 6020 16a3 26000000 		.4byte	.LBB45
 6021 16a7 00010000 		.4byte	.Ldebug_ranges0+0x100
 6022 16ab 01       		.byte	0x1
 6023 16ac BF02     		.2byte	0x2bf
 6024 16ae C4160000 		.4byte	0x16c4
 6025 16b2 2B       		.uleb128 0x2b
 6026 16b3 18010000 		.4byte	.Ldebug_ranges0+0x118
 6027 16b7 35       		.uleb128 0x35
 6028 16b8 9B0C0000 		.4byte	0xc9b
 6029 16bc 05       		.byte	0x5
 6030 16bd 03       		.byte	0x3
 6031 16be 00000000 		.4byte	iss.3245
 6032 16c2 00       		.byte	0
 6033 16c3 00       		.byte	0
 6034 16c4 2B       		.uleb128 0x2b
 6035 16c5 30010000 		.4byte	.Ldebug_ranges0+0x130
 6036 16c9 2A       		.uleb128 0x2a
ARM GAS  /var/folders/5n/p_75w94d66l9ssrldxqdhh700000gn/T//cc9Mn9JC.s 			page 108


 6037 16ca 06090000 		.4byte	.LASF48
 6038 16ce 01       		.byte	0x1
 6039 16cf 9D02     		.2byte	0x29d
 6040 16d1 1B020000 		.4byte	0x21b
 6041 16d5 940F0000 		.4byte	.LLST96
 6042 16d9 00       		.byte	0
 6043 16da 00       		.byte	0
 6044 16db 43       		.uleb128 0x43
 6045 16dc 01       		.byte	0x1
 6046 16dd 01050000 		.4byte	.LASF218
 6047 16e1 01       		.byte	0x1
 6048 16e2 DA05     		.2byte	0x5da
 6049 16e4 01       		.byte	0x1
 6050 16e5 B3000000 		.4byte	0xb3
 6051 16e9 00000000 		.4byte	.LFB41
 6052 16ed 0E000000 		.4byte	.LFE41
 6053 16f1 02       		.byte	0x2
 6054 16f2 7D       		.byte	0x7d
 6055 16f3 00       		.sleb128 0
 6056 16f4 07170000 		.4byte	0x1707
 6057 16f8 21       		.uleb128 0x21
 6058 16f9 7300     		.ascii	"s\000"
 6059 16fb 01       		.byte	0x1
 6060 16fc DA05     		.2byte	0x5da
 6061 16fe 7C070000 		.4byte	0x77c
 6062 1702 B20F0000 		.4byte	.LLST97
 6063 1706 00       		.byte	0
 6064 1707 44       		.uleb128 0x44
 6065 1708 0D080000 		.4byte	.LASF219
 6066 170c 0A       		.byte	0xa
 6067 170d 3701     		.2byte	0x137
 6068 170f F1000000 		.4byte	0xf1
 6069 1713 01       		.byte	0x1
 6070 1714 01       		.byte	0x1
 6071 1715 44       		.uleb128 0x44
 6072 1716 C0080000 		.4byte	.LASF220
 6073 171a 0A       		.byte	0xa
 6074 171b 3E01     		.2byte	0x13e
 6075 171d B9030000 		.4byte	0x3b9
 6076 1721 01       		.byte	0x1
 6077 1722 01       		.byte	0x1
 6078 1723 44       		.uleb128 0x44
 6079 1724 0E060000 		.4byte	.LASF221
 6080 1728 0A       		.byte	0xa
 6081 1729 3F01     		.2byte	0x13f
 6082 172b 64090000 		.4byte	0x964
 6083 172f 01       		.byte	0x1
 6084 1730 01       		.byte	0x1
 6085 1731 44       		.uleb128 0x44
 6086 1732 BF030000 		.4byte	.LASF222
 6087 1736 0A       		.byte	0xa
 6088 1737 4001     		.2byte	0x140
 6089 1739 B9030000 		.4byte	0x3b9
 6090 173d 01       		.byte	0x1
 6091 173e 01       		.byte	0x1
 6092 173f 44       		.uleb128 0x44
 6093 1740 8D090000 		.4byte	.LASF223
ARM GAS  /var/folders/5n/p_75w94d66l9ssrldxqdhh700000gn/T//cc9Mn9JC.s 			page 109


 6094 1744 0A       		.byte	0xa
 6095 1745 4301     		.2byte	0x143
 6096 1747 B9030000 		.4byte	0x3b9
 6097 174b 01       		.byte	0x1
 6098 174c 01       		.byte	0x1
 6099 174d 44       		.uleb128 0x44
 6100 174e 57030000 		.4byte	.LASF224
 6101 1752 0A       		.byte	0xa
 6102 1753 4501     		.2byte	0x145
 6103 1755 B9030000 		.4byte	0x3b9
 6104 1759 01       		.byte	0x1
 6105 175a 01       		.byte	0x1
 6106 175b 45       		.uleb128 0x45
 6107 175c 90010000 		.4byte	.LASF225
 6108 1760 0B       		.byte	0xb
 6109 1761 95       		.byte	0x95
 6110 1762 FF0A0000 		.4byte	0xaff
 6111 1766 01       		.byte	0x1
 6112 1767 01       		.byte	0x1
 6113 1768 0F       		.uleb128 0xf
 6114 1769 B3000000 		.4byte	0xb3
 6115 176d 78170000 		.4byte	0x1778
 6116 1771 10       		.uleb128 0x10
 6117 1772 30000000 		.4byte	0x30
 6118 1776 0A       		.byte	0xa
 6119 1777 00       		.byte	0
 6120 1778 45       		.uleb128 0x45
 6121 1779 0C090000 		.4byte	.LASF226
 6122 177d 01       		.byte	0x1
 6123 177e 3A       		.byte	0x3a
 6124 177f 85170000 		.4byte	0x1785
 6125 1783 01       		.byte	0x1
 6126 1784 01       		.byte	0x1
 6127 1785 07       		.uleb128 0x7
 6128 1786 68170000 		.4byte	0x1768
 6129 178a 0F       		.uleb128 0xf
 6130 178b C5000000 		.4byte	0xc5
 6131 178f 9A170000 		.4byte	0x179a
 6132 1793 10       		.uleb128 0x10
 6133 1794 30000000 		.4byte	0x30
 6134 1798 0C       		.byte	0xc
 6135 1799 00       		.byte	0
 6136 179a 45       		.uleb128 0x45
 6137 179b 04030000 		.4byte	.LASF227
 6138 179f 01       		.byte	0x1
 6139 17a0 4A       		.byte	0x4a
 6140 17a1 A7170000 		.4byte	0x17a7
 6141 17a5 01       		.byte	0x1
 6142 17a6 01       		.byte	0x1
 6143 17a7 07       		.uleb128 0x7
 6144 17a8 8A170000 		.4byte	0x178a
 6145 17ac 0F       		.uleb128 0xf
 6146 17ad C5000000 		.4byte	0xc5
 6147 17b1 BC170000 		.4byte	0x17bc
 6148 17b5 10       		.uleb128 0x10
 6149 17b6 30000000 		.4byte	0x30
 6150 17ba 06       		.byte	0x6
ARM GAS  /var/folders/5n/p_75w94d66l9ssrldxqdhh700000gn/T//cc9Mn9JC.s 			page 110


 6151 17bb 00       		.byte	0
 6152 17bc 45       		.uleb128 0x45
 6153 17bd F6000000 		.4byte	.LASF228
 6154 17c1 01       		.byte	0x1
 6155 17c2 4D       		.byte	0x4d
 6156 17c3 C9170000 		.4byte	0x17c9
 6157 17c7 01       		.byte	0x1
 6158 17c8 01       		.byte	0x1
 6159 17c9 07       		.uleb128 0x7
 6160 17ca AC170000 		.4byte	0x17ac
 6161 17ce 0F       		.uleb128 0xf
 6162 17cf 04120000 		.4byte	0x1204
 6163 17d3 DE170000 		.4byte	0x17de
 6164 17d7 10       		.uleb128 0x10
 6165 17d8 30000000 		.4byte	0x30
 6166 17dc 03       		.byte	0x3
 6167 17dd 00       		.byte	0
 6168 17de 45       		.uleb128 0x45
 6169 17df D3000000 		.4byte	.LASF229
 6170 17e3 01       		.byte	0x1
 6171 17e4 5E       		.byte	0x5e
 6172 17e5 EB170000 		.4byte	0x17eb
 6173 17e9 01       		.byte	0x1
 6174 17ea 01       		.byte	0x1
 6175 17eb 07       		.uleb128 0x7
 6176 17ec CE170000 		.4byte	0x17ce
 6177 17f0 46       		.uleb128 0x46
 6178 17f1 92030000 		.4byte	.LASF230
 6179 17f5 01       		.byte	0x1
 6180 17f6 65       		.byte	0x65
 6181 17f7 C5000000 		.4byte	0xc5
 6182 17fb 05       		.byte	0x5
 6183 17fc 03       		.byte	0x3
 6184 17fd 00000000 		.4byte	tcp_timer
 6185 1801 47       		.uleb128 0x47
 6186 1802 0D080000 		.4byte	.LASF219
 6187 1806 01       		.byte	0x1
 6188 1807 49       		.byte	0x49
 6189 1808 F1000000 		.4byte	0xf1
 6190 180c 01       		.byte	0x1
 6191 180d 05       		.byte	0x5
 6192 180e 03       		.byte	0x3
 6193 180f 00000000 		.4byte	tcp_ticks
 6194 1813 47       		.uleb128 0x47
 6195 1814 C0080000 		.4byte	.LASF220
 6196 1818 01       		.byte	0x1
 6197 1819 52       		.byte	0x52
 6198 181a B9030000 		.4byte	0x3b9
 6199 181e 01       		.byte	0x1
 6200 181f 05       		.byte	0x5
 6201 1820 03       		.byte	0x3
 6202 1821 00000000 		.4byte	tcp_bound_pcbs
 6203 1825 47       		.uleb128 0x47
 6204 1826 0E060000 		.4byte	.LASF221
 6205 182a 01       		.byte	0x1
 6206 182b 54       		.byte	0x54
 6207 182c 64090000 		.4byte	0x964
ARM GAS  /var/folders/5n/p_75w94d66l9ssrldxqdhh700000gn/T//cc9Mn9JC.s 			page 111


 6208 1830 01       		.byte	0x1
 6209 1831 05       		.byte	0x5
 6210 1832 03       		.byte	0x3
 6211 1833 00000000 		.4byte	tcp_listen_pcbs
 6212 1837 47       		.uleb128 0x47
 6213 1838 BF030000 		.4byte	.LASF222
 6214 183c 01       		.byte	0x1
 6215 183d 57       		.byte	0x57
 6216 183e B9030000 		.4byte	0x3b9
 6217 1842 01       		.byte	0x1
 6218 1843 05       		.byte	0x5
 6219 1844 03       		.byte	0x3
 6220 1845 00000000 		.4byte	tcp_active_pcbs
 6221 1849 47       		.uleb128 0x47
 6222 184a 8D090000 		.4byte	.LASF223
 6223 184e 01       		.byte	0x1
 6224 184f 59       		.byte	0x59
 6225 1850 B9030000 		.4byte	0x3b9
 6226 1854 01       		.byte	0x1
 6227 1855 05       		.byte	0x5
 6228 1856 03       		.byte	0x3
 6229 1857 00000000 		.4byte	tcp_tw_pcbs
 6230 185b 47       		.uleb128 0x47
 6231 185c 57030000 		.4byte	.LASF224
 6232 1860 01       		.byte	0x1
 6233 1861 62       		.byte	0x62
 6234 1862 B9030000 		.4byte	0x3b9
 6235 1866 01       		.byte	0x1
 6236 1867 05       		.byte	0x5
 6237 1868 03       		.byte	0x3
 6238 1869 00000000 		.4byte	tcp_tmp_pcb
 6239 186d 45       		.uleb128 0x45
 6240 186e 90010000 		.4byte	.LASF225
 6241 1872 0B       		.byte	0xb
 6242 1873 95       		.byte	0x95
 6243 1874 FF0A0000 		.4byte	0xaff
 6244 1878 01       		.byte	0x1
 6245 1879 01       		.byte	0x1
 6246 187a 47       		.uleb128 0x47
 6247 187b 0C090000 		.4byte	.LASF226
 6248 187f 01       		.byte	0x1
 6249 1880 3A       		.byte	0x3a
 6250 1881 8C180000 		.4byte	0x188c
 6251 1885 01       		.byte	0x1
 6252 1886 05       		.byte	0x5
 6253 1887 03       		.byte	0x3
 6254 1888 00000000 		.4byte	tcp_state_str
 6255 188c 07       		.uleb128 0x7
 6256 188d 68170000 		.4byte	0x1768
 6257 1891 47       		.uleb128 0x47
 6258 1892 04030000 		.4byte	.LASF227
 6259 1896 01       		.byte	0x1
 6260 1897 4A       		.byte	0x4a
 6261 1898 A3180000 		.4byte	0x18a3
 6262 189c 01       		.byte	0x1
 6263 189d 05       		.byte	0x5
 6264 189e 03       		.byte	0x3
ARM GAS  /var/folders/5n/p_75w94d66l9ssrldxqdhh700000gn/T//cc9Mn9JC.s 			page 112


 6265 189f 00000000 		.4byte	tcp_backoff
 6266 18a3 07       		.uleb128 0x7
 6267 18a4 8A170000 		.4byte	0x178a
 6268 18a8 47       		.uleb128 0x47
 6269 18a9 F6000000 		.4byte	.LASF228
 6270 18ad 01       		.byte	0x1
 6271 18ae 4D       		.byte	0x4d
 6272 18af BA180000 		.4byte	0x18ba
 6273 18b3 01       		.byte	0x1
 6274 18b4 05       		.byte	0x5
 6275 18b5 03       		.byte	0x3
 6276 18b6 00000000 		.4byte	tcp_persist_backoff
 6277 18ba 07       		.uleb128 0x7
 6278 18bb AC170000 		.4byte	0x17ac
 6279 18bf 47       		.uleb128 0x47
 6280 18c0 D3000000 		.4byte	.LASF229
 6281 18c4 01       		.byte	0x1
 6282 18c5 5E       		.byte	0x5e
 6283 18c6 D1180000 		.4byte	0x18d1
 6284 18ca 01       		.byte	0x1
 6285 18cb 05       		.byte	0x5
 6286 18cc 03       		.byte	0x3
 6287 18cd 00000000 		.4byte	tcp_pcb_lists
 6288 18d1 07       		.uleb128 0x7
 6289 18d2 CE170000 		.4byte	0x17ce
 6290 18d6 00       		.byte	0
 6291              		.section	.debug_abbrev,"",%progbits
 6292              	.Ldebug_abbrev0:
 6293 0000 01       		.uleb128 0x1
 6294 0001 11       		.uleb128 0x11
 6295 0002 01       		.byte	0x1
 6296 0003 25       		.uleb128 0x25
 6297 0004 0E       		.uleb128 0xe
 6298 0005 13       		.uleb128 0x13
 6299 0006 0B       		.uleb128 0xb
 6300 0007 03       		.uleb128 0x3
 6301 0008 0E       		.uleb128 0xe
 6302 0009 1B       		.uleb128 0x1b
 6303 000a 0E       		.uleb128 0xe
 6304 000b 11       		.uleb128 0x11
 6305 000c 01       		.uleb128 0x1
 6306 000d 52       		.uleb128 0x52
 6307 000e 01       		.uleb128 0x1
 6308 000f 55       		.uleb128 0x55
 6309 0010 06       		.uleb128 0x6
 6310 0011 10       		.uleb128 0x10
 6311 0012 06       		.uleb128 0x6
 6312 0013 00       		.byte	0
 6313 0014 00       		.byte	0
 6314 0015 02       		.uleb128 0x2
 6315 0016 24       		.uleb128 0x24
 6316 0017 00       		.byte	0
 6317 0018 0B       		.uleb128 0xb
 6318 0019 0B       		.uleb128 0xb
 6319 001a 3E       		.uleb128 0x3e
 6320 001b 0B       		.uleb128 0xb
 6321 001c 03       		.uleb128 0x3
ARM GAS  /var/folders/5n/p_75w94d66l9ssrldxqdhh700000gn/T//cc9Mn9JC.s 			page 113


 6322 001d 08       		.uleb128 0x8
 6323 001e 00       		.byte	0
 6324 001f 00       		.byte	0
 6325 0020 03       		.uleb128 0x3
 6326 0021 24       		.uleb128 0x24
 6327 0022 00       		.byte	0
 6328 0023 0B       		.uleb128 0xb
 6329 0024 0B       		.uleb128 0xb
 6330 0025 3E       		.uleb128 0x3e
 6331 0026 0B       		.uleb128 0xb
 6332 0027 03       		.uleb128 0x3
 6333 0028 0E       		.uleb128 0xe
 6334 0029 00       		.byte	0
 6335 002a 00       		.byte	0
 6336 002b 04       		.uleb128 0x4
 6337 002c 16       		.uleb128 0x16
 6338 002d 00       		.byte	0
 6339 002e 03       		.uleb128 0x3
 6340 002f 0E       		.uleb128 0xe
 6341 0030 3A       		.uleb128 0x3a
 6342 0031 0B       		.uleb128 0xb
 6343 0032 3B       		.uleb128 0x3b
 6344 0033 0B       		.uleb128 0xb
 6345 0034 49       		.uleb128 0x49
 6346 0035 13       		.uleb128 0x13
 6347 0036 00       		.byte	0
 6348 0037 00       		.byte	0
 6349 0038 05       		.uleb128 0x5
 6350 0039 0F       		.uleb128 0xf
 6351 003a 00       		.byte	0
 6352 003b 0B       		.uleb128 0xb
 6353 003c 0B       		.uleb128 0xb
 6354 003d 00       		.byte	0
 6355 003e 00       		.byte	0
 6356 003f 06       		.uleb128 0x6
 6357 0040 0F       		.uleb128 0xf
 6358 0041 00       		.byte	0
 6359 0042 0B       		.uleb128 0xb
 6360 0043 0B       		.uleb128 0xb
 6361 0044 49       		.uleb128 0x49
 6362 0045 13       		.uleb128 0x13
 6363 0046 00       		.byte	0
 6364 0047 00       		.byte	0
 6365 0048 07       		.uleb128 0x7
 6366 0049 26       		.uleb128 0x26
 6367 004a 00       		.byte	0
 6368 004b 49       		.uleb128 0x49
 6369 004c 13       		.uleb128 0x13
 6370 004d 00       		.byte	0
 6371 004e 00       		.byte	0
 6372 004f 08       		.uleb128 0x8
 6373 0050 04       		.uleb128 0x4
 6374 0051 01       		.byte	0x1
 6375 0052 0B       		.uleb128 0xb
 6376 0053 0B       		.uleb128 0xb
 6377 0054 3A       		.uleb128 0x3a
 6378 0055 0B       		.uleb128 0xb
ARM GAS  /var/folders/5n/p_75w94d66l9ssrldxqdhh700000gn/T//cc9Mn9JC.s 			page 114


 6379 0056 3B       		.uleb128 0x3b
 6380 0057 0B       		.uleb128 0xb
 6381 0058 01       		.uleb128 0x1
 6382 0059 13       		.uleb128 0x13
 6383 005a 00       		.byte	0
 6384 005b 00       		.byte	0
 6385 005c 09       		.uleb128 0x9
 6386 005d 28       		.uleb128 0x28
 6387 005e 00       		.byte	0
 6388 005f 03       		.uleb128 0x3
 6389 0060 0E       		.uleb128 0xe
 6390 0061 1C       		.uleb128 0x1c
 6391 0062 0D       		.uleb128 0xd
 6392 0063 00       		.byte	0
 6393 0064 00       		.byte	0
 6394 0065 0A       		.uleb128 0xa
 6395 0066 13       		.uleb128 0x13
 6396 0067 01       		.byte	0x1
 6397 0068 03       		.uleb128 0x3
 6398 0069 0E       		.uleb128 0xe
 6399 006a 0B       		.uleb128 0xb
 6400 006b 0B       		.uleb128 0xb
 6401 006c 3A       		.uleb128 0x3a
 6402 006d 0B       		.uleb128 0xb
 6403 006e 3B       		.uleb128 0x3b
 6404 006f 0B       		.uleb128 0xb
 6405 0070 01       		.uleb128 0x1
 6406 0071 13       		.uleb128 0x13
 6407 0072 00       		.byte	0
 6408 0073 00       		.byte	0
 6409 0074 0B       		.uleb128 0xb
 6410 0075 0D       		.uleb128 0xd
 6411 0076 00       		.byte	0
 6412 0077 03       		.uleb128 0x3
 6413 0078 0E       		.uleb128 0xe
 6414 0079 3A       		.uleb128 0x3a
 6415 007a 0B       		.uleb128 0xb
 6416 007b 3B       		.uleb128 0x3b
 6417 007c 0B       		.uleb128 0xb
 6418 007d 49       		.uleb128 0x49
 6419 007e 13       		.uleb128 0x13
 6420 007f 38       		.uleb128 0x38
 6421 0080 0A       		.uleb128 0xa
 6422 0081 00       		.byte	0
 6423 0082 00       		.byte	0
 6424 0083 0C       		.uleb128 0xc
 6425 0084 0D       		.uleb128 0xd
 6426 0085 00       		.byte	0
 6427 0086 03       		.uleb128 0x3
 6428 0087 08       		.uleb128 0x8
 6429 0088 3A       		.uleb128 0x3a
 6430 0089 0B       		.uleb128 0xb
 6431 008a 3B       		.uleb128 0x3b
 6432 008b 0B       		.uleb128 0xb
 6433 008c 49       		.uleb128 0x49
 6434 008d 13       		.uleb128 0x13
 6435 008e 38       		.uleb128 0x38
ARM GAS  /var/folders/5n/p_75w94d66l9ssrldxqdhh700000gn/T//cc9Mn9JC.s 			page 115


 6436 008f 0A       		.uleb128 0xa
 6437 0090 00       		.byte	0
 6438 0091 00       		.byte	0
 6439 0092 0D       		.uleb128 0xd
 6440 0093 15       		.uleb128 0x15
 6441 0094 01       		.byte	0x1
 6442 0095 27       		.uleb128 0x27
 6443 0096 0C       		.uleb128 0xc
 6444 0097 49       		.uleb128 0x49
 6445 0098 13       		.uleb128 0x13
 6446 0099 01       		.uleb128 0x1
 6447 009a 13       		.uleb128 0x13
 6448 009b 00       		.byte	0
 6449 009c 00       		.byte	0
 6450 009d 0E       		.uleb128 0xe
 6451 009e 05       		.uleb128 0x5
 6452 009f 00       		.byte	0
 6453 00a0 49       		.uleb128 0x49
 6454 00a1 13       		.uleb128 0x13
 6455 00a2 00       		.byte	0
 6456 00a3 00       		.byte	0
 6457 00a4 0F       		.uleb128 0xf
 6458 00a5 01       		.uleb128 0x1
 6459 00a6 01       		.byte	0x1
 6460 00a7 49       		.uleb128 0x49
 6461 00a8 13       		.uleb128 0x13
 6462 00a9 01       		.uleb128 0x1
 6463 00aa 13       		.uleb128 0x13
 6464 00ab 00       		.byte	0
 6465 00ac 00       		.byte	0
 6466 00ad 10       		.uleb128 0x10
 6467 00ae 21       		.uleb128 0x21
 6468 00af 00       		.byte	0
 6469 00b0 49       		.uleb128 0x49
 6470 00b1 13       		.uleb128 0x13
 6471 00b2 2F       		.uleb128 0x2f
 6472 00b3 0B       		.uleb128 0xb
 6473 00b4 00       		.byte	0
 6474 00b5 00       		.byte	0
 6475 00b6 11       		.uleb128 0x11
 6476 00b7 0D       		.uleb128 0xd
 6477 00b8 00       		.byte	0
 6478 00b9 03       		.uleb128 0x3
 6479 00ba 0E       		.uleb128 0xe
 6480 00bb 3A       		.uleb128 0x3a
 6481 00bc 0B       		.uleb128 0xb
 6482 00bd 3B       		.uleb128 0x3b
 6483 00be 05       		.uleb128 0x5
 6484 00bf 49       		.uleb128 0x49
 6485 00c0 13       		.uleb128 0x13
 6486 00c1 38       		.uleb128 0x38
 6487 00c2 0A       		.uleb128 0xa
 6488 00c3 00       		.byte	0
 6489 00c4 00       		.byte	0
 6490 00c5 12       		.uleb128 0x12
 6491 00c6 15       		.uleb128 0x15
 6492 00c7 01       		.byte	0x1
ARM GAS  /var/folders/5n/p_75w94d66l9ssrldxqdhh700000gn/T//cc9Mn9JC.s 			page 116


 6493 00c8 27       		.uleb128 0x27
 6494 00c9 0C       		.uleb128 0xc
 6495 00ca 01       		.uleb128 0x1
 6496 00cb 13       		.uleb128 0x13
 6497 00cc 00       		.byte	0
 6498 00cd 00       		.byte	0
 6499 00ce 13       		.uleb128 0x13
 6500 00cf 04       		.uleb128 0x4
 6501 00d0 01       		.byte	0x1
 6502 00d1 03       		.uleb128 0x3
 6503 00d2 0E       		.uleb128 0xe
 6504 00d3 0B       		.uleb128 0xb
 6505 00d4 0B       		.uleb128 0xb
 6506 00d5 3A       		.uleb128 0x3a
 6507 00d6 0B       		.uleb128 0xb
 6508 00d7 3B       		.uleb128 0x3b
 6509 00d8 0B       		.uleb128 0xb
 6510 00d9 01       		.uleb128 0x1
 6511 00da 13       		.uleb128 0x13
 6512 00db 00       		.byte	0
 6513 00dc 00       		.byte	0
 6514 00dd 14       		.uleb128 0x14
 6515 00de 13       		.uleb128 0x13
 6516 00df 01       		.byte	0x1
 6517 00e0 03       		.uleb128 0x3
 6518 00e1 0E       		.uleb128 0xe
 6519 00e2 0B       		.uleb128 0xb
 6520 00e3 0B       		.uleb128 0xb
 6521 00e4 3A       		.uleb128 0x3a
 6522 00e5 0B       		.uleb128 0xb
 6523 00e6 3B       		.uleb128 0x3b
 6524 00e7 05       		.uleb128 0x5
 6525 00e8 01       		.uleb128 0x1
 6526 00e9 13       		.uleb128 0x13
 6527 00ea 00       		.byte	0
 6528 00eb 00       		.byte	0
 6529 00ec 15       		.uleb128 0x15
 6530 00ed 0D       		.uleb128 0xd
 6531 00ee 00       		.byte	0
 6532 00ef 03       		.uleb128 0x3
 6533 00f0 08       		.uleb128 0x8
 6534 00f1 3A       		.uleb128 0x3a
 6535 00f2 0B       		.uleb128 0xb
 6536 00f3 3B       		.uleb128 0x3b
 6537 00f4 05       		.uleb128 0x5
 6538 00f5 49       		.uleb128 0x49
 6539 00f6 13       		.uleb128 0x13
 6540 00f7 38       		.uleb128 0x38
 6541 00f8 0A       		.uleb128 0xa
 6542 00f9 00       		.byte	0
 6543 00fa 00       		.byte	0
 6544 00fb 16       		.uleb128 0x16
 6545 00fc 17       		.uleb128 0x17
 6546 00fd 01       		.byte	0x1
 6547 00fe 03       		.uleb128 0x3
 6548 00ff 0E       		.uleb128 0xe
 6549 0100 0B       		.uleb128 0xb
ARM GAS  /var/folders/5n/p_75w94d66l9ssrldxqdhh700000gn/T//cc9Mn9JC.s 			page 117


 6550 0101 0B       		.uleb128 0xb
 6551 0102 3A       		.uleb128 0x3a
 6552 0103 0B       		.uleb128 0xb
 6553 0104 3B       		.uleb128 0x3b
 6554 0105 05       		.uleb128 0x5
 6555 0106 01       		.uleb128 0x1
 6556 0107 13       		.uleb128 0x13
 6557 0108 00       		.byte	0
 6558 0109 00       		.byte	0
 6559 010a 17       		.uleb128 0x17
 6560 010b 0D       		.uleb128 0xd
 6561 010c 00       		.byte	0
 6562 010d 03       		.uleb128 0x3
 6563 010e 0E       		.uleb128 0xe
 6564 010f 3A       		.uleb128 0x3a
 6565 0110 0B       		.uleb128 0xb
 6566 0111 3B       		.uleb128 0x3b
 6567 0112 05       		.uleb128 0x5
 6568 0113 49       		.uleb128 0x49
 6569 0114 13       		.uleb128 0x13
 6570 0115 00       		.byte	0
 6571 0116 00       		.byte	0
 6572 0117 18       		.uleb128 0x18
 6573 0118 13       		.uleb128 0x13
 6574 0119 01       		.byte	0x1
 6575 011a 03       		.uleb128 0x3
 6576 011b 0E       		.uleb128 0xe
 6577 011c 0B       		.uleb128 0xb
 6578 011d 05       		.uleb128 0x5
 6579 011e 3A       		.uleb128 0x3a
 6580 011f 0B       		.uleb128 0xb
 6581 0120 3B       		.uleb128 0x3b
 6582 0121 0B       		.uleb128 0xb
 6583 0122 01       		.uleb128 0x1
 6584 0123 13       		.uleb128 0x13
 6585 0124 00       		.byte	0
 6586 0125 00       		.byte	0
 6587 0126 19       		.uleb128 0x19
 6588 0127 2E       		.uleb128 0x2e
 6589 0128 01       		.byte	0x1
 6590 0129 3F       		.uleb128 0x3f
 6591 012a 0C       		.uleb128 0xc
 6592 012b 03       		.uleb128 0x3
 6593 012c 0E       		.uleb128 0xe
 6594 012d 3A       		.uleb128 0x3a
 6595 012e 0B       		.uleb128 0xb
 6596 012f 3B       		.uleb128 0x3b
 6597 0130 05       		.uleb128 0x5
 6598 0131 27       		.uleb128 0x27
 6599 0132 0C       		.uleb128 0xc
 6600 0133 20       		.uleb128 0x20
 6601 0134 0B       		.uleb128 0xb
 6602 0135 01       		.uleb128 0x1
 6603 0136 13       		.uleb128 0x13
 6604 0137 00       		.byte	0
 6605 0138 00       		.byte	0
 6606 0139 1A       		.uleb128 0x1a
ARM GAS  /var/folders/5n/p_75w94d66l9ssrldxqdhh700000gn/T//cc9Mn9JC.s 			page 118


 6607 013a 05       		.uleb128 0x5
 6608 013b 00       		.byte	0
 6609 013c 03       		.uleb128 0x3
 6610 013d 08       		.uleb128 0x8
 6611 013e 3A       		.uleb128 0x3a
 6612 013f 0B       		.uleb128 0xb
 6613 0140 3B       		.uleb128 0x3b
 6614 0141 05       		.uleb128 0x5
 6615 0142 49       		.uleb128 0x49
 6616 0143 13       		.uleb128 0x13
 6617 0144 00       		.byte	0
 6618 0145 00       		.byte	0
 6619 0146 1B       		.uleb128 0x1b
 6620 0147 2E       		.uleb128 0x2e
 6621 0148 01       		.byte	0x1
 6622 0149 3F       		.uleb128 0x3f
 6623 014a 0C       		.uleb128 0xc
 6624 014b 03       		.uleb128 0x3
 6625 014c 0E       		.uleb128 0xe
 6626 014d 3A       		.uleb128 0x3a
 6627 014e 0B       		.uleb128 0xb
 6628 014f 3B       		.uleb128 0x3b
 6629 0150 05       		.uleb128 0x5
 6630 0151 27       		.uleb128 0x27
 6631 0152 0C       		.uleb128 0xc
 6632 0153 49       		.uleb128 0x49
 6633 0154 13       		.uleb128 0x13
 6634 0155 20       		.uleb128 0x20
 6635 0156 0B       		.uleb128 0xb
 6636 0157 01       		.uleb128 0x1
 6637 0158 13       		.uleb128 0x13
 6638 0159 00       		.byte	0
 6639 015a 00       		.byte	0
 6640 015b 1C       		.uleb128 0x1c
 6641 015c 2E       		.uleb128 0x2e
 6642 015d 01       		.byte	0x1
 6643 015e 03       		.uleb128 0x3
 6644 015f 0E       		.uleb128 0xe
 6645 0160 3A       		.uleb128 0x3a
 6646 0161 0B       		.uleb128 0xb
 6647 0162 3B       		.uleb128 0x3b
 6648 0163 05       		.uleb128 0x5
 6649 0164 27       		.uleb128 0x27
 6650 0165 0C       		.uleb128 0xc
 6651 0166 20       		.uleb128 0x20
 6652 0167 0B       		.uleb128 0xb
 6653 0168 01       		.uleb128 0x1
 6654 0169 13       		.uleb128 0x13
 6655 016a 00       		.byte	0
 6656 016b 00       		.byte	0
 6657 016c 1D       		.uleb128 0x1d
 6658 016d 34       		.uleb128 0x34
 6659 016e 00       		.byte	0
 6660 016f 03       		.uleb128 0x3
 6661 0170 08       		.uleb128 0x8
 6662 0171 3A       		.uleb128 0x3a
 6663 0172 0B       		.uleb128 0xb
ARM GAS  /var/folders/5n/p_75w94d66l9ssrldxqdhh700000gn/T//cc9Mn9JC.s 			page 119


 6664 0173 3B       		.uleb128 0x3b
 6665 0174 05       		.uleb128 0x5
 6666 0175 49       		.uleb128 0x49
 6667 0176 13       		.uleb128 0x13
 6668 0177 00       		.byte	0
 6669 0178 00       		.byte	0
 6670 0179 1E       		.uleb128 0x1e
 6671 017a 34       		.uleb128 0x34
 6672 017b 00       		.byte	0
 6673 017c 03       		.uleb128 0x3
 6674 017d 0E       		.uleb128 0xe
 6675 017e 3A       		.uleb128 0x3a
 6676 017f 0B       		.uleb128 0xb
 6677 0180 3B       		.uleb128 0x3b
 6678 0181 05       		.uleb128 0x5
 6679 0182 49       		.uleb128 0x49
 6680 0183 13       		.uleb128 0x13
 6681 0184 00       		.byte	0
 6682 0185 00       		.byte	0
 6683 0186 1F       		.uleb128 0x1f
 6684 0187 05       		.uleb128 0x5
 6685 0188 00       		.byte	0
 6686 0189 03       		.uleb128 0x3
 6687 018a 0E       		.uleb128 0xe
 6688 018b 3A       		.uleb128 0x3a
 6689 018c 0B       		.uleb128 0xb
 6690 018d 3B       		.uleb128 0x3b
 6691 018e 05       		.uleb128 0x5
 6692 018f 49       		.uleb128 0x49
 6693 0190 13       		.uleb128 0x13
 6694 0191 00       		.byte	0
 6695 0192 00       		.byte	0
 6696 0193 20       		.uleb128 0x20
 6697 0194 2E       		.uleb128 0x2e
 6698 0195 01       		.byte	0x1
 6699 0196 03       		.uleb128 0x3
 6700 0197 0E       		.uleb128 0xe
 6701 0198 3A       		.uleb128 0x3a
 6702 0199 0B       		.uleb128 0xb
 6703 019a 3B       		.uleb128 0x3b
 6704 019b 05       		.uleb128 0x5
 6705 019c 27       		.uleb128 0x27
 6706 019d 0C       		.uleb128 0xc
 6707 019e 49       		.uleb128 0x49
 6708 019f 13       		.uleb128 0x13
 6709 01a0 11       		.uleb128 0x11
 6710 01a1 01       		.uleb128 0x1
 6711 01a2 12       		.uleb128 0x12
 6712 01a3 01       		.uleb128 0x1
 6713 01a4 40       		.uleb128 0x40
 6714 01a5 0A       		.uleb128 0xa
 6715 01a6 01       		.uleb128 0x1
 6716 01a7 13       		.uleb128 0x13
 6717 01a8 00       		.byte	0
 6718 01a9 00       		.byte	0
 6719 01aa 21       		.uleb128 0x21
 6720 01ab 05       		.uleb128 0x5
ARM GAS  /var/folders/5n/p_75w94d66l9ssrldxqdhh700000gn/T//cc9Mn9JC.s 			page 120


 6721 01ac 00       		.byte	0
 6722 01ad 03       		.uleb128 0x3
 6723 01ae 08       		.uleb128 0x8
 6724 01af 3A       		.uleb128 0x3a
 6725 01b0 0B       		.uleb128 0xb
 6726 01b1 3B       		.uleb128 0x3b
 6727 01b2 05       		.uleb128 0x5
 6728 01b3 49       		.uleb128 0x49
 6729 01b4 13       		.uleb128 0x13
 6730 01b5 02       		.uleb128 0x2
 6731 01b6 06       		.uleb128 0x6
 6732 01b7 00       		.byte	0
 6733 01b8 00       		.byte	0
 6734 01b9 22       		.uleb128 0x22
 6735 01ba 05       		.uleb128 0x5
 6736 01bb 00       		.byte	0
 6737 01bc 03       		.uleb128 0x3
 6738 01bd 08       		.uleb128 0x8
 6739 01be 3A       		.uleb128 0x3a
 6740 01bf 0B       		.uleb128 0xb
 6741 01c0 3B       		.uleb128 0x3b
 6742 01c1 05       		.uleb128 0x5
 6743 01c2 49       		.uleb128 0x49
 6744 01c3 13       		.uleb128 0x13
 6745 01c4 02       		.uleb128 0x2
 6746 01c5 0A       		.uleb128 0xa
 6747 01c6 00       		.byte	0
 6748 01c7 00       		.byte	0
 6749 01c8 23       		.uleb128 0x23
 6750 01c9 2E       		.uleb128 0x2e
 6751 01ca 01       		.byte	0x1
 6752 01cb 03       		.uleb128 0x3
 6753 01cc 0E       		.uleb128 0xe
 6754 01cd 3A       		.uleb128 0x3a
 6755 01ce 0B       		.uleb128 0xb
 6756 01cf 3B       		.uleb128 0x3b
 6757 01d0 05       		.uleb128 0x5
 6758 01d1 27       		.uleb128 0x27
 6759 01d2 0C       		.uleb128 0xc
 6760 01d3 49       		.uleb128 0x49
 6761 01d4 13       		.uleb128 0x13
 6762 01d5 11       		.uleb128 0x11
 6763 01d6 01       		.uleb128 0x1
 6764 01d7 12       		.uleb128 0x12
 6765 01d8 01       		.uleb128 0x1
 6766 01d9 40       		.uleb128 0x40
 6767 01da 06       		.uleb128 0x6
 6768 01db 01       		.uleb128 0x1
 6769 01dc 13       		.uleb128 0x13
 6770 01dd 00       		.byte	0
 6771 01de 00       		.byte	0
 6772 01df 24       		.uleb128 0x24
 6773 01e0 34       		.uleb128 0x34
 6774 01e1 00       		.byte	0
 6775 01e2 03       		.uleb128 0x3
 6776 01e3 08       		.uleb128 0x8
 6777 01e4 3A       		.uleb128 0x3a
ARM GAS  /var/folders/5n/p_75w94d66l9ssrldxqdhh700000gn/T//cc9Mn9JC.s 			page 121


 6778 01e5 0B       		.uleb128 0xb
 6779 01e6 3B       		.uleb128 0x3b
 6780 01e7 05       		.uleb128 0x5
 6781 01e8 49       		.uleb128 0x49
 6782 01e9 13       		.uleb128 0x13
 6783 01ea 02       		.uleb128 0x2
 6784 01eb 06       		.uleb128 0x6
 6785 01ec 00       		.byte	0
 6786 01ed 00       		.byte	0
 6787 01ee 25       		.uleb128 0x25
 6788 01ef 34       		.uleb128 0x34
 6789 01f0 00       		.byte	0
 6790 01f1 03       		.uleb128 0x3
 6791 01f2 0E       		.uleb128 0xe
 6792 01f3 3A       		.uleb128 0x3a
 6793 01f4 0B       		.uleb128 0xb
 6794 01f5 3B       		.uleb128 0x3b
 6795 01f6 05       		.uleb128 0x5
 6796 01f7 49       		.uleb128 0x49
 6797 01f8 13       		.uleb128 0x13
 6798 01f9 02       		.uleb128 0x2
 6799 01fa 0A       		.uleb128 0xa
 6800 01fb 00       		.byte	0
 6801 01fc 00       		.byte	0
 6802 01fd 26       		.uleb128 0x26
 6803 01fe 0A       		.uleb128 0xa
 6804 01ff 00       		.byte	0
 6805 0200 03       		.uleb128 0x3
 6806 0201 0E       		.uleb128 0xe
 6807 0202 3A       		.uleb128 0x3a
 6808 0203 0B       		.uleb128 0xb
 6809 0204 3B       		.uleb128 0x3b
 6810 0205 05       		.uleb128 0x5
 6811 0206 11       		.uleb128 0x11
 6812 0207 01       		.uleb128 0x1
 6813 0208 00       		.byte	0
 6814 0209 00       		.byte	0
 6815 020a 27       		.uleb128 0x27
 6816 020b 2E       		.uleb128 0x2e
 6817 020c 01       		.byte	0x1
 6818 020d 3F       		.uleb128 0x3f
 6819 020e 0C       		.uleb128 0xc
 6820 020f 03       		.uleb128 0x3
 6821 0210 0E       		.uleb128 0xe
 6822 0211 3A       		.uleb128 0x3a
 6823 0212 0B       		.uleb128 0xb
 6824 0213 3B       		.uleb128 0x3b
 6825 0214 05       		.uleb128 0x5
 6826 0215 27       		.uleb128 0x27
 6827 0216 0C       		.uleb128 0xc
 6828 0217 49       		.uleb128 0x49
 6829 0218 13       		.uleb128 0x13
 6830 0219 11       		.uleb128 0x11
 6831 021a 01       		.uleb128 0x1
 6832 021b 12       		.uleb128 0x12
 6833 021c 01       		.uleb128 0x1
 6834 021d 40       		.uleb128 0x40
ARM GAS  /var/folders/5n/p_75w94d66l9ssrldxqdhh700000gn/T//cc9Mn9JC.s 			page 122


 6835 021e 06       		.uleb128 0x6
 6836 021f 01       		.uleb128 0x1
 6837 0220 13       		.uleb128 0x13
 6838 0221 00       		.byte	0
 6839 0222 00       		.byte	0
 6840 0223 28       		.uleb128 0x28
 6841 0224 05       		.uleb128 0x5
 6842 0225 00       		.byte	0
 6843 0226 03       		.uleb128 0x3
 6844 0227 0E       		.uleb128 0xe
 6845 0228 3A       		.uleb128 0x3a
 6846 0229 0B       		.uleb128 0xb
 6847 022a 3B       		.uleb128 0x3b
 6848 022b 05       		.uleb128 0x5
 6849 022c 49       		.uleb128 0x49
 6850 022d 13       		.uleb128 0x13
 6851 022e 02       		.uleb128 0x2
 6852 022f 06       		.uleb128 0x6
 6853 0230 00       		.byte	0
 6854 0231 00       		.byte	0
 6855 0232 29       		.uleb128 0x29
 6856 0233 34       		.uleb128 0x34
 6857 0234 00       		.byte	0
 6858 0235 03       		.uleb128 0x3
 6859 0236 0E       		.uleb128 0xe
 6860 0237 3A       		.uleb128 0x3a
 6861 0238 0B       		.uleb128 0xb
 6862 0239 3B       		.uleb128 0x3b
 6863 023a 05       		.uleb128 0x5
 6864 023b 49       		.uleb128 0x49
 6865 023c 13       		.uleb128 0x13
 6866 023d 1C       		.uleb128 0x1c
 6867 023e 0B       		.uleb128 0xb
 6868 023f 00       		.byte	0
 6869 0240 00       		.byte	0
 6870 0241 2A       		.uleb128 0x2a
 6871 0242 34       		.uleb128 0x34
 6872 0243 00       		.byte	0
 6873 0244 03       		.uleb128 0x3
 6874 0245 0E       		.uleb128 0xe
 6875 0246 3A       		.uleb128 0x3a
 6876 0247 0B       		.uleb128 0xb
 6877 0248 3B       		.uleb128 0x3b
 6878 0249 05       		.uleb128 0x5
 6879 024a 49       		.uleb128 0x49
 6880 024b 13       		.uleb128 0x13
 6881 024c 02       		.uleb128 0x2
 6882 024d 06       		.uleb128 0x6
 6883 024e 00       		.byte	0
 6884 024f 00       		.byte	0
 6885 0250 2B       		.uleb128 0x2b
 6886 0251 0B       		.uleb128 0xb
 6887 0252 01       		.byte	0x1
 6888 0253 55       		.uleb128 0x55
 6889 0254 06       		.uleb128 0x6
 6890 0255 00       		.byte	0
 6891 0256 00       		.byte	0
ARM GAS  /var/folders/5n/p_75w94d66l9ssrldxqdhh700000gn/T//cc9Mn9JC.s 			page 123


 6892 0257 2C       		.uleb128 0x2c
 6893 0258 2E       		.uleb128 0x2e
 6894 0259 01       		.byte	0x1
 6895 025a 3F       		.uleb128 0x3f
 6896 025b 0C       		.uleb128 0xc
 6897 025c 03       		.uleb128 0x3
 6898 025d 0E       		.uleb128 0xe
 6899 025e 3A       		.uleb128 0x3a
 6900 025f 0B       		.uleb128 0xb
 6901 0260 3B       		.uleb128 0x3b
 6902 0261 05       		.uleb128 0x5
 6903 0262 27       		.uleb128 0x27
 6904 0263 0C       		.uleb128 0xc
 6905 0264 11       		.uleb128 0x11
 6906 0265 01       		.uleb128 0x1
 6907 0266 12       		.uleb128 0x12
 6908 0267 01       		.uleb128 0x1
 6909 0268 40       		.uleb128 0x40
 6910 0269 06       		.uleb128 0x6
 6911 026a 01       		.uleb128 0x1
 6912 026b 13       		.uleb128 0x13
 6913 026c 00       		.byte	0
 6914 026d 00       		.byte	0
 6915 026e 2D       		.uleb128 0x2d
 6916 026f 0B       		.uleb128 0xb
 6917 0270 01       		.byte	0x1
 6918 0271 11       		.uleb128 0x11
 6919 0272 01       		.uleb128 0x1
 6920 0273 12       		.uleb128 0x12
 6921 0274 01       		.uleb128 0x1
 6922 0275 00       		.byte	0
 6923 0276 00       		.byte	0
 6924 0277 2E       		.uleb128 0x2e
 6925 0278 2E       		.uleb128 0x2e
 6926 0279 01       		.byte	0x1
 6927 027a 3F       		.uleb128 0x3f
 6928 027b 0C       		.uleb128 0xc
 6929 027c 03       		.uleb128 0x3
 6930 027d 0E       		.uleb128 0xe
 6931 027e 3A       		.uleb128 0x3a
 6932 027f 0B       		.uleb128 0xb
 6933 0280 3B       		.uleb128 0x3b
 6934 0281 05       		.uleb128 0x5
 6935 0282 27       		.uleb128 0x27
 6936 0283 0C       		.uleb128 0xc
 6937 0284 11       		.uleb128 0x11
 6938 0285 01       		.uleb128 0x1
 6939 0286 12       		.uleb128 0x12
 6940 0287 01       		.uleb128 0x1
 6941 0288 40       		.uleb128 0x40
 6942 0289 0A       		.uleb128 0xa
 6943 028a 01       		.uleb128 0x1
 6944 028b 13       		.uleb128 0x13
 6945 028c 00       		.byte	0
 6946 028d 00       		.byte	0
 6947 028e 2F       		.uleb128 0x2f
 6948 028f 05       		.uleb128 0x5
ARM GAS  /var/folders/5n/p_75w94d66l9ssrldxqdhh700000gn/T//cc9Mn9JC.s 			page 124


 6949 0290 00       		.byte	0
 6950 0291 03       		.uleb128 0x3
 6951 0292 0E       		.uleb128 0xe
 6952 0293 3A       		.uleb128 0x3a
 6953 0294 0B       		.uleb128 0xb
 6954 0295 3B       		.uleb128 0x3b
 6955 0296 05       		.uleb128 0x5
 6956 0297 49       		.uleb128 0x49
 6957 0298 13       		.uleb128 0x13
 6958 0299 02       		.uleb128 0x2
 6959 029a 0A       		.uleb128 0xa
 6960 029b 00       		.byte	0
 6961 029c 00       		.byte	0
 6962 029d 30       		.uleb128 0x30
 6963 029e 2E       		.uleb128 0x2e
 6964 029f 01       		.byte	0x1
 6965 02a0 31       		.uleb128 0x31
 6966 02a1 13       		.uleb128 0x13
 6967 02a2 11       		.uleb128 0x11
 6968 02a3 01       		.uleb128 0x1
 6969 02a4 12       		.uleb128 0x12
 6970 02a5 01       		.uleb128 0x1
 6971 02a6 40       		.uleb128 0x40
 6972 02a7 06       		.uleb128 0x6
 6973 02a8 01       		.uleb128 0x1
 6974 02a9 13       		.uleb128 0x13
 6975 02aa 00       		.byte	0
 6976 02ab 00       		.byte	0
 6977 02ac 31       		.uleb128 0x31
 6978 02ad 05       		.uleb128 0x5
 6979 02ae 00       		.byte	0
 6980 02af 31       		.uleb128 0x31
 6981 02b0 13       		.uleb128 0x13
 6982 02b1 02       		.uleb128 0x2
 6983 02b2 06       		.uleb128 0x6
 6984 02b3 00       		.byte	0
 6985 02b4 00       		.byte	0
 6986 02b5 32       		.uleb128 0x32
 6987 02b6 1D       		.uleb128 0x1d
 6988 02b7 01       		.byte	0x1
 6989 02b8 31       		.uleb128 0x31
 6990 02b9 13       		.uleb128 0x13
 6991 02ba 11       		.uleb128 0x11
 6992 02bb 01       		.uleb128 0x1
 6993 02bc 12       		.uleb128 0x12
 6994 02bd 01       		.uleb128 0x1
 6995 02be 58       		.uleb128 0x58
 6996 02bf 0B       		.uleb128 0xb
 6997 02c0 59       		.uleb128 0x59
 6998 02c1 05       		.uleb128 0x5
 6999 02c2 00       		.byte	0
 7000 02c3 00       		.byte	0
 7001 02c4 33       		.uleb128 0x33
 7002 02c5 0B       		.uleb128 0xb
 7003 02c6 01       		.byte	0x1
 7004 02c7 55       		.uleb128 0x55
 7005 02c8 06       		.uleb128 0x6
ARM GAS  /var/folders/5n/p_75w94d66l9ssrldxqdhh700000gn/T//cc9Mn9JC.s 			page 125


 7006 02c9 01       		.uleb128 0x1
 7007 02ca 13       		.uleb128 0x13
 7008 02cb 00       		.byte	0
 7009 02cc 00       		.byte	0
 7010 02cd 34       		.uleb128 0x34
 7011 02ce 1D       		.uleb128 0x1d
 7012 02cf 01       		.byte	0x1
 7013 02d0 31       		.uleb128 0x31
 7014 02d1 13       		.uleb128 0x13
 7015 02d2 52       		.uleb128 0x52
 7016 02d3 01       		.uleb128 0x1
 7017 02d4 55       		.uleb128 0x55
 7018 02d5 06       		.uleb128 0x6
 7019 02d6 58       		.uleb128 0x58
 7020 02d7 0B       		.uleb128 0xb
 7021 02d8 59       		.uleb128 0x59
 7022 02d9 05       		.uleb128 0x5
 7023 02da 01       		.uleb128 0x1
 7024 02db 13       		.uleb128 0x13
 7025 02dc 00       		.byte	0
 7026 02dd 00       		.byte	0
 7027 02de 35       		.uleb128 0x35
 7028 02df 34       		.uleb128 0x34
 7029 02e0 00       		.byte	0
 7030 02e1 31       		.uleb128 0x31
 7031 02e2 13       		.uleb128 0x13
 7032 02e3 02       		.uleb128 0x2
 7033 02e4 0A       		.uleb128 0xa
 7034 02e5 00       		.byte	0
 7035 02e6 00       		.byte	0
 7036 02e7 36       		.uleb128 0x36
 7037 02e8 1D       		.uleb128 0x1d
 7038 02e9 01       		.byte	0x1
 7039 02ea 31       		.uleb128 0x31
 7040 02eb 13       		.uleb128 0x13
 7041 02ec 11       		.uleb128 0x11
 7042 02ed 01       		.uleb128 0x1
 7043 02ee 12       		.uleb128 0x12
 7044 02ef 01       		.uleb128 0x1
 7045 02f0 58       		.uleb128 0x58
 7046 02f1 0B       		.uleb128 0xb
 7047 02f2 59       		.uleb128 0x59
 7048 02f3 05       		.uleb128 0x5
 7049 02f4 01       		.uleb128 0x1
 7050 02f5 13       		.uleb128 0x13
 7051 02f6 00       		.byte	0
 7052 02f7 00       		.byte	0
 7053 02f8 37       		.uleb128 0x37
 7054 02f9 34       		.uleb128 0x34
 7055 02fa 00       		.byte	0
 7056 02fb 31       		.uleb128 0x31
 7057 02fc 13       		.uleb128 0x13
 7058 02fd 02       		.uleb128 0x2
 7059 02fe 06       		.uleb128 0x6
 7060 02ff 00       		.byte	0
 7061 0300 00       		.byte	0
 7062 0301 38       		.uleb128 0x38
ARM GAS  /var/folders/5n/p_75w94d66l9ssrldxqdhh700000gn/T//cc9Mn9JC.s 			page 126


 7063 0302 05       		.uleb128 0x5
 7064 0303 00       		.byte	0
 7065 0304 31       		.uleb128 0x31
 7066 0305 13       		.uleb128 0x13
 7067 0306 02       		.uleb128 0x2
 7068 0307 0A       		.uleb128 0xa
 7069 0308 00       		.byte	0
 7070 0309 00       		.byte	0
 7071 030a 39       		.uleb128 0x39
 7072 030b 2E       		.uleb128 0x2e
 7073 030c 00       		.byte	0
 7074 030d 3F       		.uleb128 0x3f
 7075 030e 0C       		.uleb128 0xc
 7076 030f 03       		.uleb128 0x3
 7077 0310 0E       		.uleb128 0xe
 7078 0311 3A       		.uleb128 0x3a
 7079 0312 0B       		.uleb128 0xb
 7080 0313 3B       		.uleb128 0x3b
 7081 0314 05       		.uleb128 0x5
 7082 0315 27       		.uleb128 0x27
 7083 0316 0C       		.uleb128 0xc
 7084 0317 49       		.uleb128 0x49
 7085 0318 13       		.uleb128 0x13
 7086 0319 11       		.uleb128 0x11
 7087 031a 01       		.uleb128 0x1
 7088 031b 12       		.uleb128 0x12
 7089 031c 01       		.uleb128 0x1
 7090 031d 40       		.uleb128 0x40
 7091 031e 0A       		.uleb128 0xa
 7092 031f 00       		.byte	0
 7093 0320 00       		.byte	0
 7094 0321 3A       		.uleb128 0x3a
 7095 0322 2E       		.uleb128 0x2e
 7096 0323 01       		.byte	0x1
 7097 0324 03       		.uleb128 0x3
 7098 0325 0E       		.uleb128 0xe
 7099 0326 3A       		.uleb128 0x3a
 7100 0327 0B       		.uleb128 0xb
 7101 0328 3B       		.uleb128 0x3b
 7102 0329 0B       		.uleb128 0xb
 7103 032a 27       		.uleb128 0x27
 7104 032b 0C       		.uleb128 0xc
 7105 032c 49       		.uleb128 0x49
 7106 032d 13       		.uleb128 0x13
 7107 032e 11       		.uleb128 0x11
 7108 032f 01       		.uleb128 0x1
 7109 0330 12       		.uleb128 0x12
 7110 0331 01       		.uleb128 0x1
 7111 0332 40       		.uleb128 0x40
 7112 0333 06       		.uleb128 0x6
 7113 0334 01       		.uleb128 0x1
 7114 0335 13       		.uleb128 0x13
 7115 0336 00       		.byte	0
 7116 0337 00       		.byte	0
 7117 0338 3B       		.uleb128 0x3b
 7118 0339 05       		.uleb128 0x5
 7119 033a 00       		.byte	0
ARM GAS  /var/folders/5n/p_75w94d66l9ssrldxqdhh700000gn/T//cc9Mn9JC.s 			page 127


 7120 033b 03       		.uleb128 0x3
 7121 033c 08       		.uleb128 0x8
 7122 033d 3A       		.uleb128 0x3a
 7123 033e 0B       		.uleb128 0xb
 7124 033f 3B       		.uleb128 0x3b
 7125 0340 0B       		.uleb128 0xb
 7126 0341 49       		.uleb128 0x49
 7127 0342 13       		.uleb128 0x13
 7128 0343 02       		.uleb128 0x2
 7129 0344 06       		.uleb128 0x6
 7130 0345 00       		.byte	0
 7131 0346 00       		.byte	0
 7132 0347 3C       		.uleb128 0x3c
 7133 0348 05       		.uleb128 0x5
 7134 0349 00       		.byte	0
 7135 034a 03       		.uleb128 0x3
 7136 034b 0E       		.uleb128 0xe
 7137 034c 3A       		.uleb128 0x3a
 7138 034d 0B       		.uleb128 0xb
 7139 034e 3B       		.uleb128 0x3b
 7140 034f 0B       		.uleb128 0xb
 7141 0350 49       		.uleb128 0x49
 7142 0351 13       		.uleb128 0x13
 7143 0352 02       		.uleb128 0x2
 7144 0353 06       		.uleb128 0x6
 7145 0354 00       		.byte	0
 7146 0355 00       		.byte	0
 7147 0356 3D       		.uleb128 0x3d
 7148 0357 34       		.uleb128 0x34
 7149 0358 00       		.byte	0
 7150 0359 03       		.uleb128 0x3
 7151 035a 08       		.uleb128 0x8
 7152 035b 3A       		.uleb128 0x3a
 7153 035c 0B       		.uleb128 0xb
 7154 035d 3B       		.uleb128 0x3b
 7155 035e 0B       		.uleb128 0xb
 7156 035f 49       		.uleb128 0x49
 7157 0360 13       		.uleb128 0x13
 7158 0361 02       		.uleb128 0x2
 7159 0362 06       		.uleb128 0x6
 7160 0363 00       		.byte	0
 7161 0364 00       		.byte	0
 7162 0365 3E       		.uleb128 0x3e
 7163 0366 2E       		.uleb128 0x2e
 7164 0367 01       		.byte	0x1
 7165 0368 3F       		.uleb128 0x3f
 7166 0369 0C       		.uleb128 0xc
 7167 036a 03       		.uleb128 0x3
 7168 036b 0E       		.uleb128 0xe
 7169 036c 3A       		.uleb128 0x3a
 7170 036d 0B       		.uleb128 0xb
 7171 036e 3B       		.uleb128 0x3b
 7172 036f 0B       		.uleb128 0xb
 7173 0370 27       		.uleb128 0x27
 7174 0371 0C       		.uleb128 0xc
 7175 0372 49       		.uleb128 0x49
 7176 0373 13       		.uleb128 0x13
ARM GAS  /var/folders/5n/p_75w94d66l9ssrldxqdhh700000gn/T//cc9Mn9JC.s 			page 128


 7177 0374 11       		.uleb128 0x11
 7178 0375 01       		.uleb128 0x1
 7179 0376 12       		.uleb128 0x12
 7180 0377 01       		.uleb128 0x1
 7181 0378 40       		.uleb128 0x40
 7182 0379 0A       		.uleb128 0xa
 7183 037a 01       		.uleb128 0x1
 7184 037b 13       		.uleb128 0x13
 7185 037c 00       		.byte	0
 7186 037d 00       		.byte	0
 7187 037e 3F       		.uleb128 0x3f
 7188 037f 1D       		.uleb128 0x1d
 7189 0380 01       		.byte	0x1
 7190 0381 31       		.uleb128 0x31
 7191 0382 13       		.uleb128 0x13
 7192 0383 52       		.uleb128 0x52
 7193 0384 01       		.uleb128 0x1
 7194 0385 55       		.uleb128 0x55
 7195 0386 06       		.uleb128 0x6
 7196 0387 58       		.uleb128 0x58
 7197 0388 0B       		.uleb128 0xb
 7198 0389 59       		.uleb128 0x59
 7199 038a 05       		.uleb128 0x5
 7200 038b 00       		.byte	0
 7201 038c 00       		.byte	0
 7202 038d 40       		.uleb128 0x40
 7203 038e 05       		.uleb128 0x5
 7204 038f 00       		.byte	0
 7205 0390 31       		.uleb128 0x31
 7206 0391 13       		.uleb128 0x13
 7207 0392 00       		.byte	0
 7208 0393 00       		.byte	0
 7209 0394 41       		.uleb128 0x41
 7210 0395 2E       		.uleb128 0x2e
 7211 0396 00       		.byte	0
 7212 0397 3F       		.uleb128 0x3f
 7213 0398 0C       		.uleb128 0xc
 7214 0399 03       		.uleb128 0x3
 7215 039a 0E       		.uleb128 0xe
 7216 039b 3A       		.uleb128 0x3a
 7217 039c 0B       		.uleb128 0xb
 7218 039d 3B       		.uleb128 0x3b
 7219 039e 0B       		.uleb128 0xb
 7220 039f 27       		.uleb128 0x27
 7221 03a0 0C       		.uleb128 0xc
 7222 03a1 11       		.uleb128 0x11
 7223 03a2 01       		.uleb128 0x1
 7224 03a3 12       		.uleb128 0x12
 7225 03a4 01       		.uleb128 0x1
 7226 03a5 40       		.uleb128 0x40
 7227 03a6 06       		.uleb128 0x6
 7228 03a7 00       		.byte	0
 7229 03a8 00       		.byte	0
 7230 03a9 42       		.uleb128 0x42
 7231 03aa 2E       		.uleb128 0x2e
 7232 03ab 01       		.byte	0x1
 7233 03ac 31       		.uleb128 0x31
ARM GAS  /var/folders/5n/p_75w94d66l9ssrldxqdhh700000gn/T//cc9Mn9JC.s 			page 129


 7234 03ad 13       		.uleb128 0x13
 7235 03ae 11       		.uleb128 0x11
 7236 03af 01       		.uleb128 0x1
 7237 03b0 12       		.uleb128 0x12
 7238 03b1 01       		.uleb128 0x1
 7239 03b2 40       		.uleb128 0x40
 7240 03b3 0A       		.uleb128 0xa
 7241 03b4 01       		.uleb128 0x1
 7242 03b5 13       		.uleb128 0x13
 7243 03b6 00       		.byte	0
 7244 03b7 00       		.byte	0
 7245 03b8 43       		.uleb128 0x43
 7246 03b9 2E       		.uleb128 0x2e
 7247 03ba 01       		.byte	0x1
 7248 03bb 3F       		.uleb128 0x3f
 7249 03bc 0C       		.uleb128 0xc
 7250 03bd 03       		.uleb128 0x3
 7251 03be 0E       		.uleb128 0xe
 7252 03bf 3A       		.uleb128 0x3a
 7253 03c0 0B       		.uleb128 0xb
 7254 03c1 3B       		.uleb128 0x3b
 7255 03c2 05       		.uleb128 0x5
 7256 03c3 27       		.uleb128 0x27
 7257 03c4 0C       		.uleb128 0xc
 7258 03c5 49       		.uleb128 0x49
 7259 03c6 13       		.uleb128 0x13
 7260 03c7 11       		.uleb128 0x11
 7261 03c8 01       		.uleb128 0x1
 7262 03c9 12       		.uleb128 0x12
 7263 03ca 01       		.uleb128 0x1
 7264 03cb 40       		.uleb128 0x40
 7265 03cc 0A       		.uleb128 0xa
 7266 03cd 01       		.uleb128 0x1
 7267 03ce 13       		.uleb128 0x13
 7268 03cf 00       		.byte	0
 7269 03d0 00       		.byte	0
 7270 03d1 44       		.uleb128 0x44
 7271 03d2 34       		.uleb128 0x34
 7272 03d3 00       		.byte	0
 7273 03d4 03       		.uleb128 0x3
 7274 03d5 0E       		.uleb128 0xe
 7275 03d6 3A       		.uleb128 0x3a
 7276 03d7 0B       		.uleb128 0xb
 7277 03d8 3B       		.uleb128 0x3b
 7278 03d9 05       		.uleb128 0x5
 7279 03da 49       		.uleb128 0x49
 7280 03db 13       		.uleb128 0x13
 7281 03dc 3F       		.uleb128 0x3f
 7282 03dd 0C       		.uleb128 0xc
 7283 03de 3C       		.uleb128 0x3c
 7284 03df 0C       		.uleb128 0xc
 7285 03e0 00       		.byte	0
 7286 03e1 00       		.byte	0
 7287 03e2 45       		.uleb128 0x45
 7288 03e3 34       		.uleb128 0x34
 7289 03e4 00       		.byte	0
 7290 03e5 03       		.uleb128 0x3
ARM GAS  /var/folders/5n/p_75w94d66l9ssrldxqdhh700000gn/T//cc9Mn9JC.s 			page 130


 7291 03e6 0E       		.uleb128 0xe
 7292 03e7 3A       		.uleb128 0x3a
 7293 03e8 0B       		.uleb128 0xb
 7294 03e9 3B       		.uleb128 0x3b
 7295 03ea 0B       		.uleb128 0xb
 7296 03eb 49       		.uleb128 0x49
 7297 03ec 13       		.uleb128 0x13
 7298 03ed 3F       		.uleb128 0x3f
 7299 03ee 0C       		.uleb128 0xc
 7300 03ef 3C       		.uleb128 0x3c
 7301 03f0 0C       		.uleb128 0xc
 7302 03f1 00       		.byte	0
 7303 03f2 00       		.byte	0
 7304 03f3 46       		.uleb128 0x46
 7305 03f4 34       		.uleb128 0x34
 7306 03f5 00       		.byte	0
 7307 03f6 03       		.uleb128 0x3
 7308 03f7 0E       		.uleb128 0xe
 7309 03f8 3A       		.uleb128 0x3a
 7310 03f9 0B       		.uleb128 0xb
 7311 03fa 3B       		.uleb128 0x3b
 7312 03fb 0B       		.uleb128 0xb
 7313 03fc 49       		.uleb128 0x49
 7314 03fd 13       		.uleb128 0x13
 7315 03fe 02       		.uleb128 0x2
 7316 03ff 0A       		.uleb128 0xa
 7317 0400 00       		.byte	0
 7318 0401 00       		.byte	0
 7319 0402 47       		.uleb128 0x47
 7320 0403 34       		.uleb128 0x34
 7321 0404 00       		.byte	0
 7322 0405 03       		.uleb128 0x3
 7323 0406 0E       		.uleb128 0xe
 7324 0407 3A       		.uleb128 0x3a
 7325 0408 0B       		.uleb128 0xb
 7326 0409 3B       		.uleb128 0x3b
 7327 040a 0B       		.uleb128 0xb
 7328 040b 49       		.uleb128 0x49
 7329 040c 13       		.uleb128 0x13
 7330 040d 3F       		.uleb128 0x3f
 7331 040e 0C       		.uleb128 0xc
 7332 040f 02       		.uleb128 0x2
 7333 0410 0A       		.uleb128 0xa
 7334 0411 00       		.byte	0
 7335 0412 00       		.byte	0
 7336 0413 00       		.byte	0
 7337              		.section	.debug_loc,"",%progbits
 7338              	.Ldebug_loc0:
 7339              	.LLST0:
 7340 0000 00000000 		.4byte	.LVL0
 7341 0004 04000000 		.4byte	.LVL1
 7342 0008 0100     		.2byte	0x1
 7343 000a 50       		.byte	0x50
 7344 000b 00000000 		.4byte	0
 7345 000f 00000000 		.4byte	0
 7346              	.LLST1:
 7347 0013 00000000 		.4byte	.LFB18
ARM GAS  /var/folders/5n/p_75w94d66l9ssrldxqdhh700000gn/T//cc9Mn9JC.s 			page 131


 7348 0017 02000000 		.4byte	.LCFI0
 7349 001b 0200     		.2byte	0x2
 7350 001d 7D       		.byte	0x7d
 7351 001e 00       		.sleb128 0
 7352 001f 02000000 		.4byte	.LCFI0
 7353 0023 4C000000 		.4byte	.LFE18
 7354 0027 0200     		.2byte	0x2
 7355 0029 7D       		.byte	0x7d
 7356 002a 10       		.sleb128 16
 7357 002b 00000000 		.4byte	0
 7358 002f 00000000 		.4byte	0
 7359              	.LLST2:
 7360 0033 26000000 		.4byte	.LVL3
 7361 0037 28000000 		.4byte	.LVL4
 7362 003b 0300     		.2byte	0x3
 7363 003d 72       		.byte	0x72
 7364 003e 00       		.sleb128 0
 7365 003f 06       		.byte	0x6
 7366 0040 28000000 		.4byte	.LVL4
 7367 0044 4C000000 		.4byte	.LFE18
 7368 0048 0100     		.2byte	0x1
 7369 004a 53       		.byte	0x53
 7370 004b 00000000 		.4byte	0
 7371 004f 00000000 		.4byte	0
 7372              	.LLST3:
 7373 0053 00000000 		.4byte	.LFB13
 7374 0057 02000000 		.4byte	.LCFI1
 7375 005b 0200     		.2byte	0x2
 7376 005d 7D       		.byte	0x7d
 7377 005e 00       		.sleb128 0
 7378 005f 02000000 		.4byte	.LCFI1
 7379 0063 74000000 		.4byte	.LFE13
 7380 0067 0200     		.2byte	0x2
 7381 0069 7D       		.byte	0x7d
 7382 006a 18       		.sleb128 24
 7383 006b 00000000 		.4byte	0
 7384 006f 00000000 		.4byte	0
 7385              	.LLST4:
 7386 0073 00000000 		.4byte	.LVL6
 7387 0077 0E000000 		.4byte	.LVL7
 7388 007b 0100     		.2byte	0x1
 7389 007d 50       		.byte	0x50
 7390 007e 0E000000 		.4byte	.LVL7
 7391 0082 74000000 		.4byte	.LFE13
 7392 0086 0100     		.2byte	0x1
 7393 0088 54       		.byte	0x54
 7394 0089 00000000 		.4byte	0
 7395 008d 00000000 		.4byte	0
 7396              	.LLST5:
 7397 0091 00000000 		.4byte	.LVL6
 7398 0095 0E000000 		.4byte	.LVL7
 7399 0099 0100     		.2byte	0x1
 7400 009b 51       		.byte	0x51
 7401 009c 0E000000 		.4byte	.LVL7
 7402 00a0 74000000 		.4byte	.LFE13
 7403 00a4 0100     		.2byte	0x1
 7404 00a6 55       		.byte	0x55
ARM GAS  /var/folders/5n/p_75w94d66l9ssrldxqdhh700000gn/T//cc9Mn9JC.s 			page 132


 7405 00a7 00000000 		.4byte	0
 7406 00ab 00000000 		.4byte	0
 7407              	.LLST6:
 7408 00af 00000000 		.4byte	.LVL6
 7409 00b3 38000000 		.4byte	.LVL12
 7410 00b7 0100     		.2byte	0x1
 7411 00b9 52       		.byte	0x52
 7412 00ba 3C000000 		.4byte	.LVL13
 7413 00be 4E000000 		.4byte	.LVL15
 7414 00c2 0100     		.2byte	0x1
 7415 00c4 52       		.byte	0x52
 7416 00c5 5C000000 		.4byte	.LVL16
 7417 00c9 5F000000 		.4byte	.LVL17-1
 7418 00cd 0100     		.2byte	0x1
 7419 00cf 52       		.byte	0x52
 7420 00d0 62000000 		.4byte	.LVL18
 7421 00d4 64000000 		.4byte	.LVL19
 7422 00d8 0100     		.2byte	0x1
 7423 00da 50       		.byte	0x50
 7424 00db 64000000 		.4byte	.LVL19
 7425 00df 67000000 		.4byte	.LVL20-1
 7426 00e3 0100     		.2byte	0x1
 7427 00e5 52       		.byte	0x52
 7428 00e6 00000000 		.4byte	0
 7429 00ea 00000000 		.4byte	0
 7430              	.LLST7:
 7431 00ee 0E000000 		.4byte	.LVL7
 7432 00f2 14000000 		.4byte	.LVL8
 7433 00f6 0200     		.2byte	0x2
 7434 00f8 30       		.byte	0x30
 7435 00f9 9F       		.byte	0x9f
 7436 00fa 00000000 		.4byte	0
 7437 00fe 00000000 		.4byte	0
 7438              	.LLST8:
 7439 0102 1A000000 		.4byte	.LVL9
 7440 0106 1E000000 		.4byte	.LVL10
 7441 010a 0300     		.2byte	0x3
 7442 010c 76       		.byte	0x76
 7443 010d 00       		.sleb128 0
 7444 010e 06       		.byte	0x6
 7445 010f 1E000000 		.4byte	.LVL10
 7446 0113 38000000 		.4byte	.LVL12
 7447 0117 0100     		.2byte	0x1
 7448 0119 53       		.byte	0x53
 7449 011a 3C000000 		.4byte	.LVL13
 7450 011e 44000000 		.4byte	.LVL14
 7451 0122 0100     		.2byte	0x1
 7452 0124 53       		.byte	0x53
 7453 0125 00000000 		.4byte	0
 7454 0129 00000000 		.4byte	0
 7455              	.LLST9:
 7456 012d 00000000 		.4byte	.LFB15
 7457 0131 02000000 		.4byte	.LCFI2
 7458 0135 0200     		.2byte	0x2
 7459 0137 7D       		.byte	0x7d
 7460 0138 00       		.sleb128 0
 7461 0139 02000000 		.4byte	.LCFI2
ARM GAS  /var/folders/5n/p_75w94d66l9ssrldxqdhh700000gn/T//cc9Mn9JC.s 			page 133


 7462 013d B4000000 		.4byte	.LFE15
 7463 0141 0200     		.2byte	0x2
 7464 0143 7D       		.byte	0x7d
 7465 0144 10       		.sleb128 16
 7466 0145 00000000 		.4byte	0
 7467 0149 00000000 		.4byte	0
 7468              	.LLST10:
 7469 014d 00000000 		.4byte	.LVL21
 7470 0151 0C000000 		.4byte	.LVL22
 7471 0155 0100     		.2byte	0x1
 7472 0157 50       		.byte	0x50
 7473 0158 0C000000 		.4byte	.LVL22
 7474 015c B4000000 		.4byte	.LFE15
 7475 0160 0100     		.2byte	0x1
 7476 0162 55       		.byte	0x55
 7477 0163 00000000 		.4byte	0
 7478 0167 00000000 		.4byte	0
 7479              	.LLST11:
 7480 016b 00000000 		.4byte	.LVL21
 7481 016f 0F000000 		.4byte	.LVL23-1
 7482 0173 0100     		.2byte	0x1
 7483 0175 51       		.byte	0x51
 7484 0176 98000000 		.4byte	.LVL25
 7485 017a 9B000000 		.4byte	.LVL26-1
 7486 017e 0100     		.2byte	0x1
 7487 0180 51       		.byte	0x51
 7488 0181 00000000 		.4byte	0
 7489 0185 00000000 		.4byte	0
 7490              	.LLST12:
 7491 0189 10000000 		.4byte	.LVL23
 7492 018d 68000000 		.4byte	.LVL24
 7493 0191 0100     		.2byte	0x1
 7494 0193 50       		.byte	0x50
 7495 0194 68000000 		.4byte	.LVL24
 7496 0198 98000000 		.4byte	.LVL25
 7497 019c 0100     		.2byte	0x1
 7498 019e 54       		.byte	0x54
 7499 019f A0000000 		.4byte	.LVL27
 7500 01a3 B4000000 		.4byte	.LFE15
 7501 01a7 0100     		.2byte	0x1
 7502 01a9 50       		.byte	0x50
 7503 01aa 00000000 		.4byte	0
 7504 01ae 00000000 		.4byte	0
 7505              	.LLST13:
 7506 01b2 00000000 		.4byte	.LFB16
 7507 01b6 02000000 		.4byte	.LCFI3
 7508 01ba 0200     		.2byte	0x2
 7509 01bc 7D       		.byte	0x7d
 7510 01bd 00       		.sleb128 0
 7511 01be 02000000 		.4byte	.LCFI3
 7512 01c2 44000000 		.4byte	.LFE16
 7513 01c6 0200     		.2byte	0x2
 7514 01c8 7D       		.byte	0x7d
 7515 01c9 10       		.sleb128 16
 7516 01ca 00000000 		.4byte	0
 7517 01ce 00000000 		.4byte	0
 7518              	.LLST14:
ARM GAS  /var/folders/5n/p_75w94d66l9ssrldxqdhh700000gn/T//cc9Mn9JC.s 			page 134


 7519 01d2 00000000 		.4byte	.LVL28
 7520 01d6 0E000000 		.4byte	.LVL30
 7521 01da 0100     		.2byte	0x1
 7522 01dc 50       		.byte	0x50
 7523 01dd 0E000000 		.4byte	.LVL30
 7524 01e1 44000000 		.4byte	.LFE16
 7525 01e5 0100     		.2byte	0x1
 7526 01e7 54       		.byte	0x54
 7527 01e8 00000000 		.4byte	0
 7528 01ec 00000000 		.4byte	0
 7529              	.LLST15:
 7530 01f0 08000000 		.4byte	.LVL29
 7531 01f4 0E000000 		.4byte	.LVL30
 7532 01f8 0700     		.2byte	0x7
 7533 01fa 73       		.byte	0x73
 7534 01fb 00       		.sleb128 0
 7535 01fc 70       		.byte	0x70
 7536 01fd 24       		.sleb128 36
 7537 01fe 06       		.byte	0x6
 7538 01ff 22       		.byte	0x22
 7539 0200 9F       		.byte	0x9f
 7540 0201 0E000000 		.4byte	.LVL30
 7541 0205 26000000 		.4byte	.LVL31
 7542 0209 0700     		.2byte	0x7
 7543 020b 73       		.byte	0x73
 7544 020c 00       		.sleb128 0
 7545 020d 74       		.byte	0x74
 7546 020e 24       		.sleb128 36
 7547 020f 06       		.byte	0x6
 7548 0210 22       		.byte	0x22
 7549 0211 9F       		.byte	0x9f
 7550 0212 00000000 		.4byte	0
 7551 0216 00000000 		.4byte	0
 7552              	.LLST16:
 7553 021a 00000000 		.4byte	.LFB17
 7554 021e 04000000 		.4byte	.LCFI4
 7555 0222 0200     		.2byte	0x2
 7556 0224 7D       		.byte	0x7d
 7557 0225 00       		.sleb128 0
 7558 0226 04000000 		.4byte	.LCFI4
 7559 022a 52000000 		.4byte	.LFE17
 7560 022e 0200     		.2byte	0x2
 7561 0230 7D       		.byte	0x7d
 7562 0231 10       		.sleb128 16
 7563 0232 00000000 		.4byte	0
 7564 0236 00000000 		.4byte	0
 7565              	.LLST17:
 7566 023a 00000000 		.4byte	.LVL33
 7567 023e 12000000 		.4byte	.LVL34
 7568 0242 0100     		.2byte	0x1
 7569 0244 50       		.byte	0x50
 7570 0245 12000000 		.4byte	.LVL34
 7571 0249 52000000 		.4byte	.LFE17
 7572 024d 0100     		.2byte	0x1
 7573 024f 54       		.byte	0x54
 7574 0250 00000000 		.4byte	0
 7575 0254 00000000 		.4byte	0
ARM GAS  /var/folders/5n/p_75w94d66l9ssrldxqdhh700000gn/T//cc9Mn9JC.s 			page 135


 7576              	.LLST18:
 7577 0258 00000000 		.4byte	.LVL33
 7578 025c 12000000 		.4byte	.LVL34
 7579 0260 0100     		.2byte	0x1
 7580 0262 51       		.byte	0x51
 7581 0263 4A000000 		.4byte	.LVL37
 7582 0267 4D000000 		.4byte	.LVL38-1
 7583 026b 0100     		.2byte	0x1
 7584 026d 51       		.byte	0x51
 7585 026e 00000000 		.4byte	0
 7586 0272 00000000 		.4byte	0
 7587              	.LLST19:
 7588 0276 2C000000 		.4byte	.LVL35
 7589 027a 3A000000 		.4byte	.LVL36
 7590 027e 0100     		.2byte	0x1
 7591 0280 50       		.byte	0x50
 7592 0281 00000000 		.4byte	0
 7593 0285 00000000 		.4byte	0
 7594              	.LLST20:
 7595 0289 00000000 		.4byte	.LFB23
 7596 028d 02000000 		.4byte	.LCFI5
 7597 0291 0200     		.2byte	0x2
 7598 0293 7D       		.byte	0x7d
 7599 0294 00       		.sleb128 0
 7600 0295 02000000 		.4byte	.LCFI5
 7601 0299 1C000000 		.4byte	.LFE23
 7602 029d 0200     		.2byte	0x2
 7603 029f 7D       		.byte	0x7d
 7604 02a0 08       		.sleb128 8
 7605 02a1 00000000 		.4byte	0
 7606 02a5 00000000 		.4byte	0
 7607              	.LLST21:
 7608 02a9 00000000 		.4byte	.LVL39
 7609 02ad 08000000 		.4byte	.LVL40
 7610 02b1 0100     		.2byte	0x1
 7611 02b3 50       		.byte	0x50
 7612 02b4 08000000 		.4byte	.LVL40
 7613 02b8 1C000000 		.4byte	.LFE23
 7614 02bc 0100     		.2byte	0x1
 7615 02be 54       		.byte	0x54
 7616 02bf 00000000 		.4byte	0
 7617 02c3 00000000 		.4byte	0
 7618              	.LLST22:
 7619 02c7 00000000 		.4byte	.LFB22
 7620 02cb 02000000 		.4byte	.LCFI6
 7621 02cf 0200     		.2byte	0x2
 7622 02d1 7D       		.byte	0x7d
 7623 02d2 00       		.sleb128 0
 7624 02d3 02000000 		.4byte	.LCFI6
 7625 02d7 16000000 		.4byte	.LFE22
 7626 02db 0200     		.2byte	0x2
 7627 02dd 7D       		.byte	0x7d
 7628 02de 08       		.sleb128 8
 7629 02df 00000000 		.4byte	0
 7630 02e3 00000000 		.4byte	0
 7631              	.LLST23:
 7632 02e7 00000000 		.4byte	.LVL41
ARM GAS  /var/folders/5n/p_75w94d66l9ssrldxqdhh700000gn/T//cc9Mn9JC.s 			page 136


 7633 02eb 06000000 		.4byte	.LVL42
 7634 02ef 0100     		.2byte	0x1
 7635 02f1 50       		.byte	0x50
 7636 02f2 06000000 		.4byte	.LVL42
 7637 02f6 08000000 		.4byte	.LVL43
 7638 02fa 0100     		.2byte	0x1
 7639 02fc 54       		.byte	0x54
 7640 02fd 08000000 		.4byte	.LVL43
 7641 0301 0D000000 		.4byte	.LVL45-1
 7642 0305 0100     		.2byte	0x1
 7643 0307 50       		.byte	0x50
 7644 0308 0E000000 		.4byte	.LVL45
 7645 030c 14000000 		.4byte	.LVL46
 7646 0310 0100     		.2byte	0x1
 7647 0312 54       		.byte	0x54
 7648 0313 14000000 		.4byte	.LVL46
 7649 0317 16000000 		.4byte	.LFE22
 7650 031b 0100     		.2byte	0x1
 7651 031d 50       		.byte	0x50
 7652 031e 00000000 		.4byte	0
 7653 0322 00000000 		.4byte	0
 7654              	.LLST24:
 7655 0326 06000000 		.4byte	.LVL42
 7656 032a 08000000 		.4byte	.LVL43
 7657 032e 0100     		.2byte	0x1
 7658 0330 54       		.byte	0x54
 7659 0331 0A000000 		.4byte	.LVL44
 7660 0335 0D000000 		.4byte	.LVL45-1
 7661 0339 0200     		.2byte	0x2
 7662 033b 70       		.byte	0x70
 7663 033c 00       		.sleb128 0
 7664 033d 0D000000 		.4byte	.LVL45-1
 7665 0341 14000000 		.4byte	.LVL46
 7666 0345 0100     		.2byte	0x1
 7667 0347 54       		.byte	0x54
 7668 0348 00000000 		.4byte	0
 7669 034c 00000000 		.4byte	0
 7670              	.LLST25:
 7671 0350 00000000 		.4byte	.LFB25
 7672 0354 02000000 		.4byte	.LCFI7
 7673 0358 0200     		.2byte	0x2
 7674 035a 7D       		.byte	0x7d
 7675 035b 00       		.sleb128 0
 7676 035c 02000000 		.4byte	.LCFI7
 7677 0360 20000000 		.4byte	.LFE25
 7678 0364 0200     		.2byte	0x2
 7679 0366 7D       		.byte	0x7d
 7680 0367 10       		.sleb128 16
 7681 0368 00000000 		.4byte	0
 7682 036c 00000000 		.4byte	0
 7683              	.LLST26:
 7684 0370 00000000 		.4byte	.LVL48
 7685 0374 06000000 		.4byte	.LVL49
 7686 0378 0100     		.2byte	0x1
 7687 037a 50       		.byte	0x50
 7688 037b 06000000 		.4byte	.LVL49
 7689 037f 20000000 		.4byte	.LFE25
ARM GAS  /var/folders/5n/p_75w94d66l9ssrldxqdhh700000gn/T//cc9Mn9JC.s 			page 137


 7690 0383 0100     		.2byte	0x1
 7691 0385 55       		.byte	0x55
 7692 0386 00000000 		.4byte	0
 7693 038a 00000000 		.4byte	0
 7694              	.LLST27:
 7695 038e 0A000000 		.4byte	.LVL50
 7696 0392 15000000 		.4byte	.LVL51-1
 7697 0396 0100     		.2byte	0x1
 7698 0398 50       		.byte	0x50
 7699 0399 15000000 		.4byte	.LVL51-1
 7700 039d 20000000 		.4byte	.LFE25
 7701 03a1 0100     		.2byte	0x1
 7702 03a3 54       		.byte	0x54
 7703 03a4 00000000 		.4byte	0
 7704 03a8 00000000 		.4byte	0
 7705              	.LLST28:
 7706 03ac 00000000 		.4byte	.LFB37
 7707 03b0 02000000 		.4byte	.LCFI8
 7708 03b4 0200     		.2byte	0x2
 7709 03b6 7D       		.byte	0x7d
 7710 03b7 00       		.sleb128 0
 7711 03b8 02000000 		.4byte	.LCFI8
 7712 03bc 48000000 		.4byte	.LFE37
 7713 03c0 0200     		.2byte	0x2
 7714 03c2 7D       		.byte	0x7d
 7715 03c3 10       		.sleb128 16
 7716 03c4 00000000 		.4byte	0
 7717 03c8 00000000 		.4byte	0
 7718              	.LLST29:
 7719 03cc 00000000 		.4byte	.LVL58
 7720 03d0 16000000 		.4byte	.LVL60
 7721 03d4 0100     		.2byte	0x1
 7722 03d6 50       		.byte	0x50
 7723 03d7 16000000 		.4byte	.LVL60
 7724 03db 48000000 		.4byte	.LFE37
 7725 03df 0100     		.2byte	0x1
 7726 03e1 54       		.byte	0x54
 7727 03e2 00000000 		.4byte	0
 7728 03e6 00000000 		.4byte	0
 7729              	.LLST30:
 7730 03ea 12000000 		.4byte	.LVL59
 7731 03ee 16000000 		.4byte	.LVL60
 7732 03f2 0100     		.2byte	0x1
 7733 03f4 50       		.byte	0x50
 7734 03f5 16000000 		.4byte	.LVL60
 7735 03f9 46000000 		.4byte	.LVL61
 7736 03fd 0100     		.2byte	0x1
 7737 03ff 54       		.byte	0x54
 7738 0400 00000000 		.4byte	0
 7739 0404 00000000 		.4byte	0
 7740              	.LLST31:
 7741 0408 00000000 		.4byte	.LFB20
 7742 040c 04000000 		.4byte	.LCFI9
 7743 0410 0200     		.2byte	0x2
 7744 0412 7D       		.byte	0x7d
 7745 0413 00       		.sleb128 0
 7746 0414 04000000 		.4byte	.LCFI9
ARM GAS  /var/folders/5n/p_75w94d66l9ssrldxqdhh700000gn/T//cc9Mn9JC.s 			page 138


 7747 0418 10000000 		.4byte	.LCFI10
 7748 041c 0200     		.2byte	0x2
 7749 041e 7D       		.byte	0x7d
 7750 041f 24       		.sleb128 36
 7751 0420 10000000 		.4byte	.LCFI10
 7752 0424 82030000 		.4byte	.LFE20
 7753 0428 0200     		.2byte	0x2
 7754 042a 7D       		.byte	0x7d
 7755 042b 38       		.sleb128 56
 7756 042c 00000000 		.4byte	0
 7757 0430 00000000 		.4byte	0
 7758              	.LLST32:
 7759 0434 12000000 		.4byte	.LVL63
 7760 0438 2E000000 		.4byte	.LVL64
 7761 043c 0500     		.2byte	0x5
 7762 043e 03       		.byte	0x3
 7763 043f 00000000 		.4byte	tcp_active_pcbs
 7764 0443 2E000000 		.4byte	.LVL64
 7765 0447 38010000 		.4byte	.LVL73
 7766 044b 0100     		.2byte	0x1
 7767 044d 54       		.byte	0x54
 7768 044e 38010000 		.4byte	.LVL73
 7769 0452 57010000 		.4byte	.LVL74-1
 7770 0456 0200     		.2byte	0x2
 7771 0458 74       		.byte	0x74
 7772 0459 0C       		.sleb128 12
 7773 045a 57010000 		.4byte	.LVL74-1
 7774 045e 68010000 		.4byte	.LVL77
 7775 0462 0100     		.2byte	0x1
 7776 0464 5A       		.byte	0x5a
 7777 0465 68010000 		.4byte	.LVL77
 7778 0469 6E010000 		.4byte	.LVL78
 7779 046d 0100     		.2byte	0x1
 7780 046f 54       		.byte	0x54
 7781 0470 6E010000 		.4byte	.LVL78
 7782 0474 76010000 		.4byte	.LVL79
 7783 0478 0500     		.2byte	0x5
 7784 047a 03       		.byte	0x3
 7785 047b 00000000 		.4byte	tcp_tw_pcbs
 7786 047f 76010000 		.4byte	.LVL79
 7787 0483 8E010000 		.4byte	.LVL81
 7788 0487 0100     		.2byte	0x1
 7789 0489 58       		.byte	0x58
 7790 048a 8E010000 		.4byte	.LVL81
 7791 048e 94010000 		.4byte	.LVL82
 7792 0492 0200     		.2byte	0x2
 7793 0494 78       		.byte	0x78
 7794 0495 0C       		.sleb128 12
 7795 0496 94010000 		.4byte	.LVL82
 7796 049a 9A010000 		.4byte	.LVL83
 7797 049e 0200     		.2byte	0x2
 7798 04a0 74       		.byte	0x74
 7799 04a1 0C       		.sleb128 12
 7800 04a2 9A010000 		.4byte	.LVL83
 7801 04a6 A0010000 		.4byte	.LVL84
 7802 04aa 0100     		.2byte	0x1
 7803 04ac 58       		.byte	0x58
ARM GAS  /var/folders/5n/p_75w94d66l9ssrldxqdhh700000gn/T//cc9Mn9JC.s 			page 139


 7804 04ad A0010000 		.4byte	.LVL84
 7805 04b1 DC010000 		.4byte	.LVL87
 7806 04b5 0100     		.2byte	0x1
 7807 04b7 54       		.byte	0x54
 7808 04b8 DC010000 		.4byte	.LVL87
 7809 04bc E2010000 		.4byte	.LVL88
 7810 04c0 0200     		.2byte	0x2
 7811 04c2 74       		.byte	0x74
 7812 04c3 0C       		.sleb128 12
 7813 04c4 E2010000 		.4byte	.LVL88
 7814 04c8 E5010000 		.4byte	.LVL89-1
 7815 04cc 0200     		.2byte	0x2
 7816 04ce 71       		.byte	0x71
 7817 04cf 0C       		.sleb128 12
 7818 04d0 E5010000 		.4byte	.LVL89-1
 7819 04d4 EE010000 		.4byte	.LVL90
 7820 04d8 0100     		.2byte	0x1
 7821 04da 54       		.byte	0x54
 7822 04db EE010000 		.4byte	.LVL90
 7823 04df 0C020000 		.4byte	.LVL91
 7824 04e3 0100     		.2byte	0x1
 7825 04e5 58       		.byte	0x58
 7826 04e6 0C020000 		.4byte	.LVL91
 7827 04ea 1E020000 		.4byte	.LVL94
 7828 04ee 0100     		.2byte	0x1
 7829 04f0 56       		.byte	0x56
 7830 04f1 1E020000 		.4byte	.LVL94
 7831 04f5 14030000 		.4byte	.LVL106
 7832 04f9 0100     		.2byte	0x1
 7833 04fb 54       		.byte	0x54
 7834 04fc 14030000 		.4byte	.LVL106
 7835 0500 26030000 		.4byte	.LVL109
 7836 0504 0100     		.2byte	0x1
 7837 0506 5A       		.byte	0x5a
 7838 0507 26030000 		.4byte	.LVL109
 7839 050b 4E030000 		.4byte	.LVL110
 7840 050f 0100     		.2byte	0x1
 7841 0511 54       		.byte	0x54
 7842 0512 4E030000 		.4byte	.LVL110
 7843 0516 60030000 		.4byte	.LVL111
 7844 051a 0100     		.2byte	0x1
 7845 051c 58       		.byte	0x58
 7846 051d 60030000 		.4byte	.LVL111
 7847 0521 7C030000 		.4byte	.LVL113
 7848 0525 0100     		.2byte	0x1
 7849 0527 54       		.byte	0x54
 7850 0528 7C030000 		.4byte	.LVL113
 7851 052c 82030000 		.4byte	.LFE20
 7852 0530 0100     		.2byte	0x1
 7853 0532 58       		.byte	0x58
 7854 0533 00000000 		.4byte	0
 7855 0537 00000000 		.4byte	0
 7856              	.LLST33:
 7857 053b 12000000 		.4byte	.LVL63
 7858 053f 2E000000 		.4byte	.LVL64
 7859 0543 0200     		.2byte	0x2
 7860 0545 30       		.byte	0x30
ARM GAS  /var/folders/5n/p_75w94d66l9ssrldxqdhh700000gn/T//cc9Mn9JC.s 			page 140


 7861 0546 9F       		.byte	0x9f
 7862 0547 2C010000 		.4byte	.LVL72
 7863 054b 62010000 		.4byte	.LVL76
 7864 054f 0100     		.2byte	0x1
 7865 0551 54       		.byte	0x54
 7866 0552 62010000 		.4byte	.LVL76
 7867 0556 68010000 		.4byte	.LVL77
 7868 055a 0100     		.2byte	0x1
 7869 055c 56       		.byte	0x56
 7870 055d 68010000 		.4byte	.LVL77
 7871 0561 76010000 		.4byte	.LVL79
 7872 0565 0200     		.2byte	0x2
 7873 0567 30       		.byte	0x30
 7874 0568 9F       		.byte	0x9f
 7875 0569 8E010000 		.4byte	.LVL81
 7876 056d 94010000 		.4byte	.LVL82
 7877 0571 0100     		.2byte	0x1
 7878 0573 58       		.byte	0x58
 7879 0574 94010000 		.4byte	.LVL82
 7880 0578 9A010000 		.4byte	.LVL83
 7881 057c 0100     		.2byte	0x1
 7882 057e 54       		.byte	0x54
 7883 057f E6010000 		.4byte	.LVL89
 7884 0583 EE010000 		.4byte	.LVL90
 7885 0587 0100     		.2byte	0x1
 7886 0589 56       		.byte	0x56
 7887 058a 16020000 		.4byte	.LVL93
 7888 058e 1E020000 		.4byte	.LVL94
 7889 0592 0100     		.2byte	0x1
 7890 0594 54       		.byte	0x54
 7891 0595 14030000 		.4byte	.LVL106
 7892 0599 1A030000 		.4byte	.LVL107
 7893 059d 0100     		.2byte	0x1
 7894 059f 54       		.byte	0x54
 7895 05a0 1A030000 		.4byte	.LVL107
 7896 05a4 1D030000 		.4byte	.LVL108-1
 7897 05a8 0100     		.2byte	0x1
 7898 05aa 50       		.byte	0x50
 7899 05ab 1D030000 		.4byte	.LVL108-1
 7900 05af 26030000 		.4byte	.LVL109
 7901 05b3 0100     		.2byte	0x1
 7902 05b5 56       		.byte	0x56
 7903 05b6 00000000 		.4byte	0
 7904 05ba 00000000 		.4byte	0
 7905              	.LLST34:
 7906 05be 6C020000 		.4byte	.LVL95
 7907 05c2 8B020000 		.4byte	.LVL96-1
 7908 05c6 1C00     		.2byte	0x1c
 7909 05c8 74       		.byte	0x74
 7910 05c9 D200     		.sleb128 82
 7911 05cb 94       		.byte	0x94
 7912 05cc 02       		.byte	0x2
 7913 05cd 12       		.byte	0x12
 7914 05ce 0A       		.byte	0xa
 7915 05cf FFFF     		.2byte	0xffff
 7916 05d1 1A       		.byte	0x1a
 7917 05d2 74       		.byte	0x74
ARM GAS  /var/folders/5n/p_75w94d66l9ssrldxqdhh700000gn/T//cc9Mn9JC.s 			page 141


 7918 05d3 DC00     		.sleb128 92
 7919 05d5 94       		.byte	0x94
 7920 05d6 02       		.byte	0x2
 7921 05d7 16       		.byte	0x16
 7922 05d8 14       		.byte	0x14
 7923 05d9 0A       		.byte	0xa
 7924 05da FFFF     		.2byte	0xffff
 7925 05dc 1A       		.byte	0x1a
 7926 05dd 2D       		.byte	0x2d
 7927 05de 28       		.byte	0x28
 7928 05df 0100     		.2byte	0x1
 7929 05e1 16       		.byte	0x16
 7930 05e2 13       		.byte	0x13
 7931 05e3 9F       		.byte	0x9f
 7932 05e4 00000000 		.4byte	0
 7933 05e8 00000000 		.4byte	0
 7934              	.LLST35:
 7935 05ec 42000000 		.4byte	.LVL65
 7936 05f0 98000000 		.4byte	.LVL66
 7937 05f4 0200     		.2byte	0x2
 7938 05f6 30       		.byte	0x30
 7939 05f7 9F       		.byte	0x9f
 7940 05f8 98000000 		.4byte	.LVL66
 7941 05fc DA000000 		.4byte	.LVL68
 7942 0600 0100     		.2byte	0x1
 7943 0602 5B       		.byte	0x5b
 7944 0603 DE000000 		.4byte	.LVL69
 7945 0607 68010000 		.4byte	.LVL77
 7946 060b 0100     		.2byte	0x1
 7947 060d 5B       		.byte	0x5b
 7948 060e 82010000 		.4byte	.LVL80
 7949 0612 9A010000 		.4byte	.LVL83
 7950 0616 0200     		.2byte	0x2
 7951 0618 30       		.byte	0x30
 7952 0619 9F       		.byte	0x9f
 7953 061a A0010000 		.4byte	.LVL84
 7954 061e AA010000 		.4byte	.LVL85
 7955 0622 0100     		.2byte	0x1
 7956 0624 5B       		.byte	0x5b
 7957 0625 EE010000 		.4byte	.LVL90
 7958 0629 1E020000 		.4byte	.LVL94
 7959 062d 0200     		.2byte	0x2
 7960 062f 31       		.byte	0x31
 7961 0630 9F       		.byte	0x9f
 7962 0631 1E020000 		.4byte	.LVL94
 7963 0635 94020000 		.4byte	.LVL97
 7964 0639 0200     		.2byte	0x2
 7965 063b 30       		.byte	0x30
 7966 063c 9F       		.byte	0x9f
 7967 063d 94020000 		.4byte	.LVL97
 7968 0641 98020000 		.4byte	.LVL98
 7969 0645 0100     		.2byte	0x1
 7970 0647 59       		.byte	0x59
 7971 0648 AA020000 		.4byte	.LVL99
 7972 064c AC020000 		.4byte	.LVL100
 7973 0650 0100     		.2byte	0x1
 7974 0652 5B       		.byte	0x5b
ARM GAS  /var/folders/5n/p_75w94d66l9ssrldxqdhh700000gn/T//cc9Mn9JC.s 			page 142


 7975 0653 AC020000 		.4byte	.LVL100
 7976 0657 B2020000 		.4byte	.LVL101
 7977 065b 0200     		.2byte	0x2
 7978 065d 30       		.byte	0x30
 7979 065e 9F       		.byte	0x9f
 7980 065f D0020000 		.4byte	.LVL102
 7981 0663 E8020000 		.4byte	.LVL103
 7982 0667 0200     		.2byte	0x2
 7983 0669 30       		.byte	0x30
 7984 066a 9F       		.byte	0x9f
 7985 066b E8020000 		.4byte	.LVL103
 7986 066f F6020000 		.4byte	.LVL104
 7987 0673 0100     		.2byte	0x1
 7988 0675 5B       		.byte	0x5b
 7989 0676 FC020000 		.4byte	.LVL105
 7990 067a 26030000 		.4byte	.LVL109
 7991 067e 0100     		.2byte	0x1
 7992 0680 5B       		.byte	0x5b
 7993 0681 4E030000 		.4byte	.LVL110
 7994 0685 60030000 		.4byte	.LVL111
 7995 0689 0200     		.2byte	0x2
 7996 068b 31       		.byte	0x31
 7997 068c 9F       		.byte	0x9f
 7998 068d 60030000 		.4byte	.LVL111
 7999 0691 76030000 		.4byte	.LVL112
 8000 0695 0100     		.2byte	0x1
 8001 0697 5B       		.byte	0x5b
 8002 0698 7C030000 		.4byte	.LVL113
 8003 069c 82030000 		.4byte	.LFE20
 8004 06a0 0200     		.2byte	0x2
 8005 06a2 31       		.byte	0x31
 8006 06a3 9F       		.byte	0x9f
 8007 06a4 00000000 		.4byte	0
 8008 06a8 00000000 		.4byte	0
 8009              	.LLST36:
 8010 06ac 42000000 		.4byte	.LVL65
 8011 06b0 DE000000 		.4byte	.LVL69
 8012 06b4 0200     		.2byte	0x2
 8013 06b6 30       		.byte	0x30
 8014 06b7 9F       		.byte	0x9f
 8015 06b8 DE000000 		.4byte	.LVL69
 8016 06bc 00010000 		.4byte	.LVL70
 8017 06c0 0200     		.2byte	0x2
 8018 06c2 31       		.byte	0x31
 8019 06c3 9F       		.byte	0x9f
 8020 06c4 00010000 		.4byte	.LVL70
 8021 06c8 38010000 		.4byte	.LVL73
 8022 06cc 0100     		.2byte	0x1
 8023 06ce 5A       		.byte	0x5a
 8024 06cf A0010000 		.4byte	.LVL84
 8025 06d3 DC010000 		.4byte	.LVL87
 8026 06d7 0100     		.2byte	0x1
 8027 06d9 5A       		.byte	0x5a
 8028 06da 1E020000 		.4byte	.LVL94
 8029 06de B2020000 		.4byte	.LVL101
 8030 06e2 0200     		.2byte	0x2
 8031 06e4 30       		.byte	0x30
ARM GAS  /var/folders/5n/p_75w94d66l9ssrldxqdhh700000gn/T//cc9Mn9JC.s 			page 143


 8032 06e5 9F       		.byte	0x9f
 8033 06e6 D0020000 		.4byte	.LVL102
 8034 06ea E8020000 		.4byte	.LVL103
 8035 06ee 0200     		.2byte	0x2
 8036 06f0 30       		.byte	0x30
 8037 06f1 9F       		.byte	0x9f
 8038 06f2 E8020000 		.4byte	.LVL103
 8039 06f6 14030000 		.4byte	.LVL106
 8040 06fa 0100     		.2byte	0x1
 8041 06fc 5A       		.byte	0x5a
 8042 06fd 26030000 		.4byte	.LVL109
 8043 0701 4E030000 		.4byte	.LVL110
 8044 0705 0100     		.2byte	0x1
 8045 0707 5A       		.byte	0x5a
 8046 0708 60030000 		.4byte	.LVL111
 8047 070c 76030000 		.4byte	.LVL112
 8048 0710 0200     		.2byte	0x2
 8049 0712 31       		.byte	0x31
 8050 0713 9F       		.byte	0x9f
 8051 0714 76030000 		.4byte	.LVL112
 8052 0718 7C030000 		.4byte	.LVL113
 8053 071c 0100     		.2byte	0x1
 8054 071e 5A       		.byte	0x5a
 8055 071f 00000000 		.4byte	0
 8056 0723 00000000 		.4byte	0
 8057              	.LLST37:
 8058 0727 00000000 		.4byte	.LVL62
 8059 072b 2E000000 		.4byte	.LVL64
 8060 072f 0200     		.2byte	0x2
 8061 0731 30       		.byte	0x30
 8062 0732 9F       		.byte	0x9f
 8063 0733 58010000 		.4byte	.LVL74
 8064 0737 5E010000 		.4byte	.LVL75
 8065 073b 0100     		.2byte	0x1
 8066 073d 50       		.byte	0x50
 8067 073e 00000000 		.4byte	0
 8068 0742 00000000 		.4byte	0
 8069              	.LLST38:
 8070 0746 D8010000 		.4byte	.LVL86
 8071 074a E2010000 		.4byte	.LVL88
 8072 074e 0100     		.2byte	0x1
 8073 0750 54       		.byte	0x54
 8074 0751 E2010000 		.4byte	.LVL88
 8075 0755 E5010000 		.4byte	.LVL89-1
 8076 0759 0100     		.2byte	0x1
 8077 075b 51       		.byte	0x51
 8078 075c 00000000 		.4byte	0
 8079 0760 00000000 		.4byte	0
 8080              	.LLST39:
 8081 0764 0C020000 		.4byte	.LVL91
 8082 0768 12020000 		.4byte	.LVL92
 8083 076c 0100     		.2byte	0x1
 8084 076e 58       		.byte	0x58
 8085 076f 12020000 		.4byte	.LVL92
 8086 0773 15020000 		.4byte	.LVL93-1
 8087 0777 0100     		.2byte	0x1
 8088 0779 51       		.byte	0x51
ARM GAS  /var/folders/5n/p_75w94d66l9ssrldxqdhh700000gn/T//cc9Mn9JC.s 			page 144


 8089 077a 00000000 		.4byte	0
 8090 077e 00000000 		.4byte	0
 8091              	.LLST40:
 8092 0782 00000000 		.4byte	.LFB38
 8093 0786 06000000 		.4byte	.LCFI11
 8094 078a 0200     		.2byte	0x2
 8095 078c 7D       		.byte	0x7d
 8096 078d 00       		.sleb128 0
 8097 078e 06000000 		.4byte	.LCFI11
 8098 0792 8C000000 		.4byte	.LFE38
 8099 0796 0200     		.2byte	0x2
 8100 0798 7D       		.byte	0x7d
 8101 0799 08       		.sleb128 8
 8102 079a 00000000 		.4byte	0
 8103 079e 00000000 		.4byte	0
 8104              	.LLST41:
 8105 07a2 00000000 		.4byte	.LVL114
 8106 07a6 2C000000 		.4byte	.LVL116
 8107 07aa 0100     		.2byte	0x1
 8108 07ac 50       		.byte	0x50
 8109 07ad 76000000 		.4byte	.LVL117
 8110 07b1 8C000000 		.4byte	.LFE38
 8111 07b5 0100     		.2byte	0x1
 8112 07b7 50       		.byte	0x50
 8113 07b8 00000000 		.4byte	0
 8114 07bc 00000000 		.4byte	0
 8115              	.LLST42:
 8116 07c0 00000000 		.4byte	.LVL114
 8117 07c4 0C000000 		.4byte	.LVL115
 8118 07c8 0100     		.2byte	0x1
 8119 07ca 51       		.byte	0x51
 8120 07cb 0C000000 		.4byte	.LVL115
 8121 07cf 8C000000 		.4byte	.LFE38
 8122 07d3 0100     		.2byte	0x1
 8123 07d5 54       		.byte	0x54
 8124 07d6 00000000 		.4byte	0
 8125 07da 00000000 		.4byte	0
 8126              	.LLST43:
 8127 07de 00000000 		.4byte	.LFB11
 8128 07e2 04000000 		.4byte	.LCFI12
 8129 07e6 0200     		.2byte	0x2
 8130 07e8 7D       		.byte	0x7d
 8131 07e9 00       		.sleb128 0
 8132 07ea 04000000 		.4byte	.LCFI12
 8133 07ee 0A000000 		.4byte	.LCFI13
 8134 07f2 0200     		.2byte	0x2
 8135 07f4 7D       		.byte	0x7d
 8136 07f5 24       		.sleb128 36
 8137 07f6 0A000000 		.4byte	.LCFI13
 8138 07fa A4000000 		.4byte	.LFE11
 8139 07fe 0200     		.2byte	0x2
 8140 0800 7D       		.byte	0x7d
 8141 0801 38       		.sleb128 56
 8142 0802 00000000 		.4byte	0
 8143 0806 00000000 		.4byte	0
 8144              	.LLST44:
 8145 080a 00000000 		.4byte	.LVL118
ARM GAS  /var/folders/5n/p_75w94d66l9ssrldxqdhh700000gn/T//cc9Mn9JC.s 			page 145


 8146 080e 10000000 		.4byte	.LVL119
 8147 0812 0100     		.2byte	0x1
 8148 0814 50       		.byte	0x50
 8149 0815 10000000 		.4byte	.LVL119
 8150 0819 A4000000 		.4byte	.LFE11
 8151 081d 0100     		.2byte	0x1
 8152 081f 56       		.byte	0x56
 8153 0820 00000000 		.4byte	0
 8154 0824 00000000 		.4byte	0
 8155              	.LLST45:
 8156 0828 00000000 		.4byte	.LVL118
 8157 082c 10000000 		.4byte	.LVL119
 8158 0830 0100     		.2byte	0x1
 8159 0832 51       		.byte	0x51
 8160 0833 10000000 		.4byte	.LVL119
 8161 0837 A4000000 		.4byte	.LFE11
 8162 083b 0100     		.2byte	0x1
 8163 083d 58       		.byte	0x58
 8164 083e 00000000 		.4byte	0
 8165 0842 00000000 		.4byte	0
 8166              	.LLST46:
 8167 0846 1E000000 		.4byte	.LVL120
 8168 084a 37000000 		.4byte	.LVL126-1
 8169 084e 0300     		.2byte	0x3
 8170 0850 76       		.byte	0x76
 8171 0851 D800     		.sleb128 88
 8172 0853 37000000 		.4byte	.LVL126-1
 8173 0857 68000000 		.4byte	.LVL127
 8174 085b 0100     		.2byte	0x1
 8175 085d 5B       		.byte	0x5b
 8176 085e 6E000000 		.4byte	.LVL128
 8177 0862 80000000 		.4byte	.LVL129
 8178 0866 0100     		.2byte	0x1
 8179 0868 5B       		.byte	0x5b
 8180 0869 00000000 		.4byte	0
 8181 086d 00000000 		.4byte	0
 8182              	.LLST47:
 8183 0871 22000000 		.4byte	.LVL121
 8184 0875 37000000 		.4byte	.LVL126-1
 8185 0879 0200     		.2byte	0x2
 8186 087b 76       		.byte	0x76
 8187 087c 24       		.sleb128 36
 8188 087d 37000000 		.4byte	.LVL126-1
 8189 0881 68000000 		.4byte	.LVL127
 8190 0885 0100     		.2byte	0x1
 8191 0887 5A       		.byte	0x5a
 8192 0888 6E000000 		.4byte	.LVL128
 8193 088c 80000000 		.4byte	.LVL129
 8194 0890 0100     		.2byte	0x1
 8195 0892 5A       		.byte	0x5a
 8196 0893 00000000 		.4byte	0
 8197 0897 00000000 		.4byte	0
 8198              	.LLST48:
 8199 089b 2C000000 		.4byte	.LVL123
 8200 089f 68000000 		.4byte	.LVL127
 8201 08a3 0100     		.2byte	0x1
 8202 08a5 54       		.byte	0x54
ARM GAS  /var/folders/5n/p_75w94d66l9ssrldxqdhh700000gn/T//cc9Mn9JC.s 			page 146


 8203 08a6 6E000000 		.4byte	.LVL128
 8204 08aa 80000000 		.4byte	.LVL129
 8205 08ae 0100     		.2byte	0x1
 8206 08b0 54       		.byte	0x54
 8207 08b1 00000000 		.4byte	0
 8208 08b5 00000000 		.4byte	0
 8209              	.LLST49:
 8210 08b9 2A000000 		.4byte	.LVL122
 8211 08bd 68000000 		.4byte	.LVL127
 8212 08c1 0100     		.2byte	0x1
 8213 08c3 55       		.byte	0x55
 8214 08c4 6E000000 		.4byte	.LVL128
 8215 08c8 80000000 		.4byte	.LVL129
 8216 08cc 0100     		.2byte	0x1
 8217 08ce 55       		.byte	0x55
 8218 08cf 00000000 		.4byte	0
 8219 08d3 00000000 		.4byte	0
 8220              	.LLST50:
 8221 08d7 30000000 		.4byte	.LVL124
 8222 08db 37000000 		.4byte	.LVL126-1
 8223 08df 0300     		.2byte	0x3
 8224 08e1 76       		.byte	0x76
 8225 08e2 9401     		.sleb128 148
 8226 08e4 37000000 		.4byte	.LVL126-1
 8227 08e8 68000000 		.4byte	.LVL127
 8228 08ec 0100     		.2byte	0x1
 8229 08ee 57       		.byte	0x57
 8230 08ef 6E000000 		.4byte	.LVL128
 8231 08f3 80000000 		.4byte	.LVL129
 8232 08f7 0100     		.2byte	0x1
 8233 08f9 57       		.byte	0x57
 8234 08fa 00000000 		.4byte	0
 8235 08fe 00000000 		.4byte	0
 8236              	.LLST51:
 8237 0902 34000000 		.4byte	.LVL125
 8238 0906 37000000 		.4byte	.LVL126-1
 8239 090a 0200     		.2byte	0x2
 8240 090c 76       		.byte	0x76
 8241 090d 14       		.sleb128 20
 8242 090e 37000000 		.4byte	.LVL126-1
 8243 0912 68000000 		.4byte	.LVL127
 8244 0916 0100     		.2byte	0x1
 8245 0918 59       		.byte	0x59
 8246 0919 6E000000 		.4byte	.LVL128
 8247 091d 80000000 		.4byte	.LVL129
 8248 0921 0100     		.2byte	0x1
 8249 0923 59       		.byte	0x59
 8250 0924 00000000 		.4byte	0
 8251 0928 00000000 		.4byte	0
 8252              	.LLST52:
 8253 092c 00000000 		.4byte	.LVL130
 8254 0930 05000000 		.4byte	.LVL131-1
 8255 0934 0100     		.2byte	0x1
 8256 0936 50       		.byte	0x50
 8257 0937 00000000 		.4byte	0
 8258 093b 00000000 		.4byte	0
 8259              	.LLST53:
ARM GAS  /var/folders/5n/p_75w94d66l9ssrldxqdhh700000gn/T//cc9Mn9JC.s 			page 147


 8260 093f 00000000 		.4byte	.LFB29
 8261 0943 04000000 		.4byte	.LCFI14
 8262 0947 0200     		.2byte	0x2
 8263 0949 7D       		.byte	0x7d
 8264 094a 00       		.sleb128 0
 8265 094b 04000000 		.4byte	.LCFI14
 8266 094f 3C010000 		.4byte	.LFE29
 8267 0953 0200     		.2byte	0x2
 8268 0955 7D       		.byte	0x7d
 8269 0956 18       		.sleb128 24
 8270 0957 00000000 		.4byte	0
 8271 095b 00000000 		.4byte	0
 8272              	.LLST54:
 8273 095f 00000000 		.4byte	.LVL132
 8274 0963 08000000 		.4byte	.LVL133
 8275 0967 0100     		.2byte	0x1
 8276 0969 50       		.byte	0x50
 8277 096a 00000000 		.4byte	0
 8278 096e 00000000 		.4byte	0
 8279              	.LLST55:
 8280 0972 0C000000 		.4byte	.LVL134
 8281 0976 18000000 		.4byte	.LVL135
 8282 097a 0100     		.2byte	0x1
 8283 097c 50       		.byte	0x50
 8284 097d 18000000 		.4byte	.LVL135
 8285 0981 9C000000 		.4byte	.LVL136
 8286 0985 0100     		.2byte	0x1
 8287 0987 54       		.byte	0x54
 8288 0988 9C000000 		.4byte	.LVL136
 8289 098c A8000000 		.4byte	.LVL138
 8290 0990 0100     		.2byte	0x1
 8291 0992 50       		.byte	0x50
 8292 0993 A8000000 		.4byte	.LVL138
 8293 0997 C8000000 		.4byte	.LVL142
 8294 099b 0100     		.2byte	0x1
 8295 099d 54       		.byte	0x54
 8296 099e C8000000 		.4byte	.LVL142
 8297 09a2 E8000000 		.4byte	.LVL145
 8298 09a6 0100     		.2byte	0x1
 8299 09a8 50       		.byte	0x50
 8300 09a9 12010000 		.4byte	.LVL149
 8301 09ad 3C010000 		.4byte	.LFE29
 8302 09b1 0100     		.2byte	0x1
 8303 09b3 50       		.byte	0x50
 8304 09b4 00000000 		.4byte	0
 8305 09b8 00000000 		.4byte	0
 8306              	.LLST56:
 8307 09bc A0000000 		.4byte	.LVL137
 8308 09c0 A8000000 		.4byte	.LVL138
 8309 09c4 0500     		.2byte	0x5
 8310 09c6 03       		.byte	0x3
 8311 09c7 00000000 		.4byte	tcp_tw_pcbs
 8312 09cb A8000000 		.4byte	.LVL138
 8313 09cf B4000000 		.4byte	.LVL139
 8314 09d3 0100     		.2byte	0x1
 8315 09d5 53       		.byte	0x53
 8316 09d6 B8000000 		.4byte	.LVL140
ARM GAS  /var/folders/5n/p_75w94d66l9ssrldxqdhh700000gn/T//cc9Mn9JC.s 			page 148


 8317 09da C1000000 		.4byte	.LVL141-1
 8318 09de 0100     		.2byte	0x1
 8319 09e0 53       		.byte	0x53
 8320 09e1 00000000 		.4byte	0
 8321 09e5 00000000 		.4byte	0
 8322              	.LLST57:
 8323 09e9 9C000000 		.4byte	.LVL136
 8324 09ed A8000000 		.4byte	.LVL138
 8325 09f1 0200     		.2byte	0x2
 8326 09f3 30       		.byte	0x30
 8327 09f4 9F       		.byte	0x9f
 8328 09f5 00000000 		.4byte	0
 8329 09f9 00000000 		.4byte	0
 8330              	.LLST58:
 8331 09fd 9C000000 		.4byte	.LVL136
 8332 0a01 A8000000 		.4byte	.LVL138
 8333 0a05 0200     		.2byte	0x2
 8334 0a07 30       		.byte	0x30
 8335 0a08 9F       		.byte	0x9f
 8336 0a09 B8000000 		.4byte	.LVL140
 8337 0a0d C1000000 		.4byte	.LVL141-1
 8338 0a11 0100     		.2byte	0x1
 8339 0a13 51       		.byte	0x51
 8340 0a14 00000000 		.4byte	0
 8341 0a18 00000000 		.4byte	0
 8342              	.LLST59:
 8343 0a1c DE000000 		.4byte	.LVL144
 8344 0a20 E8000000 		.4byte	.LVL145
 8345 0a24 0500     		.2byte	0x5
 8346 0a26 03       		.byte	0x3
 8347 0a27 00000000 		.4byte	tcp_active_pcbs
 8348 0a2b E8000000 		.4byte	.LVL145
 8349 0a2f 0B010000 		.4byte	.LVL148-1
 8350 0a33 0100     		.2byte	0x1
 8351 0a35 53       		.byte	0x53
 8352 0a36 00000000 		.4byte	0
 8353 0a3a 00000000 		.4byte	0
 8354              	.LLST60:
 8355 0a3e DA000000 		.4byte	.LVL143
 8356 0a42 E8000000 		.4byte	.LVL145
 8357 0a46 0200     		.2byte	0x2
 8358 0a48 30       		.byte	0x30
 8359 0a49 9F       		.byte	0x9f
 8360 0a4a 00000000 		.4byte	0
 8361 0a4e 00000000 		.4byte	0
 8362              	.LLST61:
 8363 0a52 DA000000 		.4byte	.LVL143
 8364 0a56 E8000000 		.4byte	.LVL145
 8365 0a5a 0200     		.2byte	0x2
 8366 0a5c 30       		.byte	0x30
 8367 0a5d 9F       		.byte	0x9f
 8368 0a5e 00010000 		.4byte	.LVL146
 8369 0a62 0C010000 		.4byte	.LVL148
 8370 0a66 0100     		.2byte	0x1
 8371 0a68 57       		.byte	0x57
 8372 0a69 00000000 		.4byte	0
 8373 0a6d 00000000 		.4byte	0
ARM GAS  /var/folders/5n/p_75w94d66l9ssrldxqdhh700000gn/T//cc9Mn9JC.s 			page 149


 8374              	.LLST62:
 8375 0a71 DA000000 		.4byte	.LVL143
 8376 0a75 E8000000 		.4byte	.LVL145
 8377 0a79 0300     		.2byte	0x3
 8378 0a7b 08       		.byte	0x8
 8379 0a7c 7F       		.byte	0x7f
 8380 0a7d 9F       		.byte	0x9f
 8381 0a7e 00010000 		.4byte	.LVL146
 8382 0a82 0B010000 		.4byte	.LVL148-1
 8383 0a86 0100     		.2byte	0x1
 8384 0a88 51       		.byte	0x51
 8385 0a89 00000000 		.4byte	0
 8386 0a8d 00000000 		.4byte	0
 8387              	.LLST63:
 8388 0a91 00000000 		.4byte	.LFB8
 8389 0a95 02000000 		.4byte	.LCFI15
 8390 0a99 0200     		.2byte	0x2
 8391 0a9b 7D       		.byte	0x7d
 8392 0a9c 00       		.sleb128 0
 8393 0a9d 02000000 		.4byte	.LCFI15
 8394 0aa1 06000000 		.4byte	.LCFI16
 8395 0aa5 0200     		.2byte	0x2
 8396 0aa7 7D       		.byte	0x7d
 8397 0aa8 0C       		.sleb128 12
 8398 0aa9 06000000 		.4byte	.LCFI16
 8399 0aad 48010000 		.4byte	.LFE8
 8400 0ab1 0200     		.2byte	0x2
 8401 0ab3 7D       		.byte	0x7d
 8402 0ab4 18       		.sleb128 24
 8403 0ab5 00000000 		.4byte	0
 8404 0ab9 00000000 		.4byte	0
 8405              	.LLST64:
 8406 0abd 00000000 		.4byte	.LVL150
 8407 0ac1 20000000 		.4byte	.LVL152
 8408 0ac5 0100     		.2byte	0x1
 8409 0ac7 50       		.byte	0x50
 8410 0ac8 20000000 		.4byte	.LVL152
 8411 0acc 9E000000 		.4byte	.LVL156
 8412 0ad0 0100     		.2byte	0x1
 8413 0ad2 54       		.byte	0x54
 8414 0ad3 A6000000 		.4byte	.LVL157
 8415 0ad7 B6000000 		.4byte	.LVL159
 8416 0adb 0100     		.2byte	0x1
 8417 0add 54       		.byte	0x54
 8418 0ade B6000000 		.4byte	.LVL159
 8419 0ae2 BA000000 		.4byte	.LVL160
 8420 0ae6 0200     		.2byte	0x2
 8421 0ae8 30       		.byte	0x30
 8422 0ae9 9F       		.byte	0x9f
 8423 0aea BA000000 		.4byte	.LVL160
 8424 0aee EE000000 		.4byte	.LVL164
 8425 0af2 0100     		.2byte	0x1
 8426 0af4 54       		.byte	0x54
 8427 0af5 EE000000 		.4byte	.LVL164
 8428 0af9 F0000000 		.4byte	.LVL165
 8429 0afd 0200     		.2byte	0x2
 8430 0aff 30       		.byte	0x30
ARM GAS  /var/folders/5n/p_75w94d66l9ssrldxqdhh700000gn/T//cc9Mn9JC.s 			page 150


 8431 0b00 9F       		.byte	0x9f
 8432 0b01 F0000000 		.4byte	.LVL165
 8433 0b05 48010000 		.4byte	.LFE8
 8434 0b09 0100     		.2byte	0x1
 8435 0b0b 54       		.byte	0x54
 8436 0b0c 00000000 		.4byte	0
 8437 0b10 00000000 		.4byte	0
 8438              	.LLST65:
 8439 0b14 00000000 		.4byte	.LVL150
 8440 0b18 1E000000 		.4byte	.LVL151
 8441 0b1c 0100     		.2byte	0x1
 8442 0b1e 51       		.byte	0x51
 8443 0b1f 72000000 		.4byte	.LVL153
 8444 0b23 8F000000 		.4byte	.LVL154-1
 8445 0b27 0100     		.2byte	0x1
 8446 0b29 51       		.byte	0x51
 8447 0b2a A6000000 		.4byte	.LVL157
 8448 0b2e AA000000 		.4byte	.LVL158
 8449 0b32 0100     		.2byte	0x1
 8450 0b34 51       		.byte	0x51
 8451 0b35 BA000000 		.4byte	.LVL160
 8452 0b39 C8000000 		.4byte	.LVL161
 8453 0b3d 0100     		.2byte	0x1
 8454 0b3f 51       		.byte	0x51
 8455 0b40 DE000000 		.4byte	.LVL162
 8456 0b44 E2000000 		.4byte	.LVL163
 8457 0b48 0100     		.2byte	0x1
 8458 0b4a 51       		.byte	0x51
 8459 0b4b F0000000 		.4byte	.LVL165
 8460 0b4f F5000000 		.4byte	.LVL166-1
 8461 0b53 0100     		.2byte	0x1
 8462 0b55 51       		.byte	0x51
 8463 0b56 2C010000 		.4byte	.LVL169
 8464 0b5a 48010000 		.4byte	.LFE8
 8465 0b5e 0100     		.2byte	0x1
 8466 0b60 51       		.byte	0x51
 8467 0b61 00000000 		.4byte	0
 8468 0b65 00000000 		.4byte	0
 8469              	.LLST66:
 8470 0b69 90000000 		.4byte	.LVL154
 8471 0b6d 96000000 		.4byte	.LVL155
 8472 0b71 0100     		.2byte	0x1
 8473 0b73 50       		.byte	0x50
 8474 0b74 96000000 		.4byte	.LVL155
 8475 0b78 9E000000 		.4byte	.LVL156
 8476 0b7c 0200     		.2byte	0x2
 8477 0b7e 30       		.byte	0x30
 8478 0b7f 9F       		.byte	0x9f
 8479 0b80 A6000000 		.4byte	.LVL157
 8480 0b84 F0000000 		.4byte	.LVL165
 8481 0b88 0200     		.2byte	0x2
 8482 0b8a 30       		.byte	0x30
 8483 0b8b 9F       		.byte	0x9f
 8484 0b8c F6000000 		.4byte	.LVL166
 8485 0b90 00010000 		.4byte	.LVL167
 8486 0b94 0100     		.2byte	0x1
 8487 0b96 50       		.byte	0x50
ARM GAS  /var/folders/5n/p_75w94d66l9ssrldxqdhh700000gn/T//cc9Mn9JC.s 			page 151


 8488 0b97 18010000 		.4byte	.LVL168
 8489 0b9b 48010000 		.4byte	.LFE8
 8490 0b9f 0200     		.2byte	0x2
 8491 0ba1 30       		.byte	0x30
 8492 0ba2 9F       		.byte	0x9f
 8493 0ba3 00000000 		.4byte	0
 8494 0ba7 00000000 		.4byte	0
 8495              	.LLST67:
 8496 0bab 00000000 		.4byte	.LFB10
 8497 0baf 02000000 		.4byte	.LCFI17
 8498 0bb3 0200     		.2byte	0x2
 8499 0bb5 7D       		.byte	0x7d
 8500 0bb6 00       		.sleb128 0
 8501 0bb7 02000000 		.4byte	.LCFI17
 8502 0bbb 58000000 		.4byte	.LFE10
 8503 0bbf 0200     		.2byte	0x2
 8504 0bc1 7D       		.byte	0x7d
 8505 0bc2 10       		.sleb128 16
 8506 0bc3 00000000 		.4byte	0
 8507 0bc7 00000000 		.4byte	0
 8508              	.LLST68:
 8509 0bcb 00000000 		.4byte	.LVL170
 8510 0bcf 12000000 		.4byte	.LVL171
 8511 0bd3 0100     		.2byte	0x1
 8512 0bd5 50       		.byte	0x50
 8513 0bd6 12000000 		.4byte	.LVL171
 8514 0bda 58000000 		.4byte	.LFE10
 8515 0bde 0100     		.2byte	0x1
 8516 0be0 54       		.byte	0x54
 8517 0be1 00000000 		.4byte	0
 8518 0be5 00000000 		.4byte	0
 8519              	.LLST69:
 8520 0be9 00000000 		.4byte	.LVL170
 8521 0bed 17000000 		.4byte	.LVL172-1
 8522 0bf1 0100     		.2byte	0x1
 8523 0bf3 51       		.byte	0x51
 8524 0bf4 54000000 		.4byte	.LVL175
 8525 0bf8 58000000 		.4byte	.LFE10
 8526 0bfc 0100     		.2byte	0x1
 8527 0bfe 51       		.byte	0x51
 8528 0bff 00000000 		.4byte	0
 8529 0c03 00000000 		.4byte	0
 8530              	.LLST70:
 8531 0c07 00000000 		.4byte	.LVL170
 8532 0c0b 17000000 		.4byte	.LVL172-1
 8533 0c0f 0100     		.2byte	0x1
 8534 0c11 52       		.byte	0x52
 8535 0c12 17000000 		.4byte	.LVL172-1
 8536 0c16 34000000 		.4byte	.LVL173
 8537 0c1a 0100     		.2byte	0x1
 8538 0c1c 55       		.byte	0x55
 8539 0c1d 38000000 		.4byte	.LVL174
 8540 0c21 56000000 		.4byte	.LVL176
 8541 0c25 0100     		.2byte	0x1
 8542 0c27 55       		.byte	0x55
 8543 0c28 56000000 		.4byte	.LVL176
 8544 0c2c 58000000 		.4byte	.LFE10
ARM GAS  /var/folders/5n/p_75w94d66l9ssrldxqdhh700000gn/T//cc9Mn9JC.s 			page 152


 8545 0c30 0100     		.2byte	0x1
 8546 0c32 52       		.byte	0x52
 8547 0c33 00000000 		.4byte	0
 8548 0c37 00000000 		.4byte	0
 8549              	.LLST71:
 8550 0c3b 00000000 		.4byte	.LVL177
 8551 0c3f 17000000 		.4byte	.LVL178-1
 8552 0c43 0100     		.2byte	0x1
 8553 0c45 50       		.byte	0x50
 8554 0c46 00000000 		.4byte	0
 8555 0c4a 00000000 		.4byte	0
 8556              	.LLST72:
 8557 0c4e 00000000 		.4byte	.LFB26
 8558 0c52 02000000 		.4byte	.LCFI18
 8559 0c56 0200     		.2byte	0x2
 8560 0c58 7D       		.byte	0x7d
 8561 0c59 00       		.sleb128 0
 8562 0c5a 02000000 		.4byte	.LCFI18
 8563 0c5e 26000000 		.4byte	.LFE26
 8564 0c62 0200     		.2byte	0x2
 8565 0c64 7D       		.byte	0x7d
 8566 0c65 08       		.sleb128 8
 8567 0c66 00000000 		.4byte	0
 8568 0c6a 00000000 		.4byte	0
 8569              	.LLST73:
 8570 0c6e 00000000 		.4byte	.LVL179
 8571 0c72 08000000 		.4byte	.LVL180
 8572 0c76 0100     		.2byte	0x1
 8573 0c78 50       		.byte	0x50
 8574 0c79 18000000 		.4byte	.LVL183
 8575 0c7d 1E000000 		.4byte	.LVL185
 8576 0c81 0100     		.2byte	0x1
 8577 0c83 50       		.byte	0x50
 8578 0c84 00000000 		.4byte	0
 8579 0c88 00000000 		.4byte	0
 8580              	.LLST74:
 8581 0c8c 00000000 		.4byte	.LVL179
 8582 0c90 0A000000 		.4byte	.LVL181
 8583 0c94 0100     		.2byte	0x1
 8584 0c96 51       		.byte	0x51
 8585 0c97 0A000000 		.4byte	.LVL181
 8586 0c9b 0D000000 		.4byte	.LVL182-1
 8587 0c9f 0100     		.2byte	0x1
 8588 0ca1 50       		.byte	0x50
 8589 0ca2 18000000 		.4byte	.LVL183
 8590 0ca6 1C000000 		.4byte	.LVL184
 8591 0caa 0100     		.2byte	0x1
 8592 0cac 51       		.byte	0x51
 8593 0cad 00000000 		.4byte	0
 8594 0cb1 00000000 		.4byte	0
 8595              	.LLST75:
 8596 0cb5 00000000 		.4byte	.LVL179
 8597 0cb9 0D000000 		.4byte	.LVL182-1
 8598 0cbd 0100     		.2byte	0x1
 8599 0cbf 52       		.byte	0x52
 8600 0cc0 0D000000 		.4byte	.LVL182-1
 8601 0cc4 26000000 		.4byte	.LFE26
ARM GAS  /var/folders/5n/p_75w94d66l9ssrldxqdhh700000gn/T//cc9Mn9JC.s 			page 153


 8602 0cc8 0100     		.2byte	0x1
 8603 0cca 54       		.byte	0x54
 8604 0ccb 00000000 		.4byte	0
 8605 0ccf 00000000 		.4byte	0
 8606              	.LLST76:
 8607 0cd3 00000000 		.4byte	.LVL179
 8608 0cd7 0D000000 		.4byte	.LVL182-1
 8609 0cdb 0100     		.2byte	0x1
 8610 0cdd 53       		.byte	0x53
 8611 0cde 18000000 		.4byte	.LVL183
 8612 0ce2 25000000 		.4byte	.LVL187-1
 8613 0ce6 0100     		.2byte	0x1
 8614 0ce8 53       		.byte	0x53
 8615 0ce9 00000000 		.4byte	0
 8616 0ced 00000000 		.4byte	0
 8617              	.LLST77:
 8618 0cf1 18000000 		.4byte	.LVL183
 8619 0cf5 25000000 		.4byte	.LVL186-1
 8620 0cf9 0100     		.2byte	0x1
 8621 0cfb 53       		.byte	0x53
 8622 0cfc 00000000 		.4byte	0
 8623 0d00 00000000 		.4byte	0
 8624              	.LLST78:
 8625 0d04 18000000 		.4byte	.LVL183
 8626 0d08 25000000 		.4byte	.LVL188-1
 8627 0d0c 0100     		.2byte	0x1
 8628 0d0e 51       		.byte	0x51
 8629 0d0f 00000000 		.4byte	0
 8630 0d13 00000000 		.4byte	0
 8631              	.LLST79:
 8632 0d17 00000000 		.4byte	.LFB21
 8633 0d1b 04000000 		.4byte	.LCFI19
 8634 0d1f 0200     		.2byte	0x2
 8635 0d21 7D       		.byte	0x7d
 8636 0d22 00       		.sleb128 0
 8637 0d23 04000000 		.4byte	.LCFI19
 8638 0d27 70000000 		.4byte	.LFE21
 8639 0d2b 0200     		.2byte	0x2
 8640 0d2d 7D       		.byte	0x7d
 8641 0d2e 10       		.sleb128 16
 8642 0d2f 00000000 		.4byte	0
 8643 0d33 00000000 		.4byte	0
 8644              	.LLST80:
 8645 0d37 06000000 		.4byte	.LVL189
 8646 0d3b 0A000000 		.4byte	.LVL190
 8647 0d3f 0500     		.2byte	0x5
 8648 0d41 03       		.byte	0x3
 8649 0d42 00000000 		.4byte	tcp_active_pcbs
 8650 0d46 0A000000 		.4byte	.LVL190
 8651 0d4a 12000000 		.4byte	.LVL192
 8652 0d4e 0100     		.2byte	0x1
 8653 0d50 54       		.byte	0x54
 8654 0d51 20000000 		.4byte	.LVL193
 8655 0d55 2E000000 		.4byte	.LVL195
 8656 0d59 0100     		.2byte	0x1
 8657 0d5b 54       		.byte	0x54
 8658 0d5c 2E000000 		.4byte	.LVL195
ARM GAS  /var/folders/5n/p_75w94d66l9ssrldxqdhh700000gn/T//cc9Mn9JC.s 			page 154


 8659 0d60 34000000 		.4byte	.LVL196
 8660 0d64 0100     		.2byte	0x1
 8661 0d66 55       		.byte	0x55
 8662 0d67 34000000 		.4byte	.LVL196
 8663 0d6b 4E000000 		.4byte	.LVL197
 8664 0d6f 0100     		.2byte	0x1
 8665 0d71 54       		.byte	0x54
 8666 0d72 4E000000 		.4byte	.LVL197
 8667 0d76 54000000 		.4byte	.LVL198
 8668 0d7a 0100     		.2byte	0x1
 8669 0d7c 55       		.byte	0x55
 8670 0d7d 54000000 		.4byte	.LVL198
 8671 0d81 70000000 		.4byte	.LFE21
 8672 0d85 0100     		.2byte	0x1
 8673 0d87 54       		.byte	0x54
 8674 0d88 00000000 		.4byte	0
 8675 0d8c 00000000 		.4byte	0
 8676              	.LLST81:
 8677 0d90 10000000 		.4byte	.LVL191
 8678 0d94 1F000000 		.4byte	.LVL193-1
 8679 0d98 0200     		.2byte	0x2
 8680 0d9a 74       		.byte	0x74
 8681 0d9b 0C       		.sleb128 12
 8682 0d9c 1F000000 		.4byte	.LVL193-1
 8683 0da0 68000000 		.4byte	.LVL201
 8684 0da4 0100     		.2byte	0x1
 8685 0da6 55       		.byte	0x55
 8686 0da7 00000000 		.4byte	0
 8687 0dab 00000000 		.4byte	0
 8688              	.LLST82:
 8689 0daf 20000000 		.4byte	.LVL193
 8690 0db3 26000000 		.4byte	.LVL194
 8691 0db7 0100     		.2byte	0x1
 8692 0db9 50       		.byte	0x50
 8693 0dba 54000000 		.4byte	.LVL198
 8694 0dbe 56000000 		.4byte	.LVL199
 8695 0dc2 0100     		.2byte	0x1
 8696 0dc4 50       		.byte	0x50
 8697 0dc5 66000000 		.4byte	.LVL200
 8698 0dc9 68000000 		.4byte	.LVL201
 8699 0dcd 0100     		.2byte	0x1
 8700 0dcf 50       		.byte	0x50
 8701 0dd0 00000000 		.4byte	0
 8702 0dd4 00000000 		.4byte	0
 8703              	.LLST83:
 8704 0dd8 00000000 		.4byte	.LFB7
 8705 0ddc 02000000 		.4byte	.LCFI20
 8706 0de0 0200     		.2byte	0x2
 8707 0de2 7D       		.byte	0x7d
 8708 0de3 00       		.sleb128 0
 8709 0de4 02000000 		.4byte	.LCFI20
 8710 0de8 24000000 		.4byte	.LFE7
 8711 0dec 0200     		.2byte	0x2
 8712 0dee 7D       		.byte	0x7d
 8713 0def 08       		.sleb128 8
 8714 0df0 00000000 		.4byte	0
 8715 0df4 00000000 		.4byte	0
ARM GAS  /var/folders/5n/p_75w94d66l9ssrldxqdhh700000gn/T//cc9Mn9JC.s 			page 155


 8716              	.LLST84:
 8717 0df8 00000000 		.4byte	.LFB40
 8718 0dfc 02000000 		.4byte	.LCFI21
 8719 0e00 0200     		.2byte	0x2
 8720 0e02 7D       		.byte	0x7d
 8721 0e03 00       		.sleb128 0
 8722 0e04 02000000 		.4byte	.LCFI21
 8723 0e08 1E000000 		.4byte	.LFE40
 8724 0e0c 0200     		.2byte	0x2
 8725 0e0e 7D       		.byte	0x7d
 8726 0e0f 08       		.sleb128 8
 8727 0e10 00000000 		.4byte	0
 8728 0e14 00000000 		.4byte	0
 8729              	.LLST85:
 8730 0e18 00000000 		.4byte	.LVL202
 8731 0e1c 06000000 		.4byte	.LVL203
 8732 0e20 0100     		.2byte	0x1
 8733 0e22 50       		.byte	0x50
 8734 0e23 1A000000 		.4byte	.LVL208
 8735 0e27 1E000000 		.4byte	.LFE40
 8736 0e2b 0100     		.2byte	0x1
 8737 0e2d 54       		.byte	0x54
 8738 0e2e 00000000 		.4byte	0
 8739 0e32 00000000 		.4byte	0
 8740              	.LLST86:
 8741 0e36 00000000 		.4byte	.LVL202
 8742 0e3a 09000000 		.4byte	.LVL204-1
 8743 0e3e 0100     		.2byte	0x1
 8744 0e40 51       		.byte	0x51
 8745 0e41 00000000 		.4byte	0
 8746 0e45 00000000 		.4byte	0
 8747              	.LLST87:
 8748 0e49 10000000 		.4byte	.LVL205
 8749 0e4d 12000000 		.4byte	.LVL206
 8750 0e51 0300     		.2byte	0x3
 8751 0e53 73       		.byte	0x73
 8752 0e54 58       		.sleb128 -40
 8753 0e55 9F       		.byte	0x9f
 8754 0e56 12000000 		.4byte	.LVL206
 8755 0e5a 14000000 		.4byte	.LVL207
 8756 0e5e 0300     		.2byte	0x3
 8757 0e60 73       		.byte	0x73
 8758 0e61 00       		.sleb128 0
 8759 0e62 9F       		.byte	0x9f
 8760 0e63 00000000 		.4byte	0
 8761 0e67 00000000 		.4byte	0
 8762              	.LLST88:
 8763 0e6b 0A000000 		.4byte	.LVL204
 8764 0e6f 1C000000 		.4byte	.LVL209
 8765 0e73 0100     		.2byte	0x1
 8766 0e75 50       		.byte	0x50
 8767 0e76 00000000 		.4byte	0
 8768 0e7a 00000000 		.4byte	0
 8769              	.LLST89:
 8770 0e7e 00000000 		.4byte	.LFB19
 8771 0e82 04000000 		.4byte	.LCFI22
 8772 0e86 0200     		.2byte	0x2
ARM GAS  /var/folders/5n/p_75w94d66l9ssrldxqdhh700000gn/T//cc9Mn9JC.s 			page 156


 8773 0e88 7D       		.byte	0x7d
 8774 0e89 00       		.sleb128 0
 8775 0e8a 04000000 		.4byte	.LCFI22
 8776 0e8e 1C010000 		.4byte	.LFE19
 8777 0e92 0200     		.2byte	0x2
 8778 0e94 7D       		.byte	0x7d
 8779 0e95 18       		.sleb128 24
 8780 0e96 00000000 		.4byte	0
 8781 0e9a 00000000 		.4byte	0
 8782              	.LLST90:
 8783 0e9e 00000000 		.4byte	.LVL210
 8784 0ea2 26000000 		.4byte	.LVL214
 8785 0ea6 0100     		.2byte	0x1
 8786 0ea8 50       		.byte	0x50
 8787 0ea9 26000000 		.4byte	.LVL214
 8788 0ead 1C010000 		.4byte	.LFE19
 8789 0eb1 0100     		.2byte	0x1
 8790 0eb3 54       		.byte	0x54
 8791 0eb4 00000000 		.4byte	0
 8792 0eb8 00000000 		.4byte	0
 8793              	.LLST91:
 8794 0ebc 00000000 		.4byte	.LVL210
 8795 0ec0 08000000 		.4byte	.LVL211
 8796 0ec4 0100     		.2byte	0x1
 8797 0ec6 51       		.byte	0x51
 8798 0ec7 08000000 		.4byte	.LVL211
 8799 0ecb 88000000 		.4byte	.LVL216
 8800 0ecf 0100     		.2byte	0x1
 8801 0ed1 55       		.byte	0x55
 8802 0ed2 CC000000 		.4byte	.LVL218
 8803 0ed6 E6000000 		.4byte	.LVL222
 8804 0eda 0100     		.2byte	0x1
 8805 0edc 55       		.byte	0x55
 8806 0edd F8000000 		.4byte	.LVL223
 8807 0ee1 FE000000 		.4byte	.LVL225
 8808 0ee5 0100     		.2byte	0x1
 8809 0ee7 55       		.byte	0x55
 8810 0ee8 00010000 		.4byte	.LVL226
 8811 0eec 02010000 		.4byte	.LVL227
 8812 0ef0 0100     		.2byte	0x1
 8813 0ef2 55       		.byte	0x55
 8814 0ef3 04010000 		.4byte	.LVL228
 8815 0ef7 06010000 		.4byte	.LVL229
 8816 0efb 0100     		.2byte	0x1
 8817 0efd 55       		.byte	0x55
 8818 0efe 00000000 		.4byte	0
 8819 0f02 00000000 		.4byte	0
 8820              	.LLST92:
 8821 0f06 00000000 		.4byte	.LVL210
 8822 0f0a 26000000 		.4byte	.LVL214
 8823 0f0e 0100     		.2byte	0x1
 8824 0f10 52       		.byte	0x52
 8825 0f11 CC000000 		.4byte	.LVL218
 8826 0f15 D1000000 		.4byte	.LVL219-1
 8827 0f19 0100     		.2byte	0x1
 8828 0f1b 52       		.byte	0x52
 8829 0f1c F8000000 		.4byte	.LVL223
ARM GAS  /var/folders/5n/p_75w94d66l9ssrldxqdhh700000gn/T//cc9Mn9JC.s 			page 157


 8830 0f20 FB000000 		.4byte	.LVL224-1
 8831 0f24 0100     		.2byte	0x1
 8832 0f26 52       		.byte	0x52
 8833 0f27 00010000 		.4byte	.LVL226
 8834 0f2b 04010000 		.4byte	.LVL228
 8835 0f2f 0100     		.2byte	0x1
 8836 0f31 52       		.byte	0x52
 8837 0f32 00000000 		.4byte	0
 8838 0f36 00000000 		.4byte	0
 8839              	.LLST93:
 8840 0f3a 00000000 		.4byte	.LVL210
 8841 0f3e 18000000 		.4byte	.LVL212
 8842 0f42 0100     		.2byte	0x1
 8843 0f44 53       		.byte	0x53
 8844 0f45 18000000 		.4byte	.LVL212
 8845 0f49 1C010000 		.4byte	.LFE19
 8846 0f4d 0100     		.2byte	0x1
 8847 0f4f 57       		.byte	0x57
 8848 0f50 00000000 		.4byte	0
 8849 0f54 00000000 		.4byte	0
 8850              	.LLST94:
 8851 0f58 86000000 		.4byte	.LVL215
 8852 0f5c BF000000 		.4byte	.LVL217-1
 8853 0f60 0100     		.2byte	0x1
 8854 0f62 50       		.byte	0x50
 8855 0f63 E6000000 		.4byte	.LVL222
 8856 0f67 F8000000 		.4byte	.LVL223
 8857 0f6b 0100     		.2byte	0x1
 8858 0f6d 50       		.byte	0x50
 8859 0f6e 00000000 		.4byte	0
 8860 0f72 00000000 		.4byte	0
 8861              	.LLST95:
 8862 0f76 22000000 		.4byte	.LVL213
 8863 0f7a 26000000 		.4byte	.LVL214
 8864 0f7e 0100     		.2byte	0x1
 8865 0f80 56       		.byte	0x56
 8866 0f81 D8000000 		.4byte	.LVL220
 8867 0f85 DE000000 		.4byte	.LVL221
 8868 0f89 0100     		.2byte	0x1
 8869 0f8b 56       		.byte	0x56
 8870 0f8c 00000000 		.4byte	0
 8871 0f90 00000000 		.4byte	0
 8872              	.LLST96:
 8873 0f94 D2000000 		.4byte	.LVL219
 8874 0f98 DE000000 		.4byte	.LVL221
 8875 0f9c 0100     		.2byte	0x1
 8876 0f9e 50       		.byte	0x50
 8877 0f9f 04010000 		.4byte	.LVL228
 8878 0fa3 1C010000 		.4byte	.LFE19
 8879 0fa7 0100     		.2byte	0x1
 8880 0fa9 50       		.byte	0x50
 8881 0faa 00000000 		.4byte	0
 8882 0fae 00000000 		.4byte	0
 8883              	.LLST97:
 8884 0fb2 00000000 		.4byte	.LVL230
 8885 0fb6 0C000000 		.4byte	.LVL231
 8886 0fba 0100     		.2byte	0x1
ARM GAS  /var/folders/5n/p_75w94d66l9ssrldxqdhh700000gn/T//cc9Mn9JC.s 			page 158


 8887 0fbc 50       		.byte	0x50
 8888 0fbd 00000000 		.4byte	0
 8889 0fc1 00000000 		.4byte	0
 8890              		.section	.debug_aranges,"",%progbits
 8891 0000 1C010000 		.4byte	0x11c
 8892 0004 0200     		.2byte	0x2
 8893 0006 00000000 		.4byte	.Ldebug_info0
 8894 000a 04       		.byte	0x4
 8895 000b 00       		.byte	0
 8896 000c 0000     		.2byte	0
 8897 000e 0000     		.2byte	0
 8898 0010 00000000 		.4byte	.LFB14
 8899 0014 06000000 		.4byte	.LFE14-.LFB14
 8900 0018 00000000 		.4byte	.LFB18
 8901 001c 4C000000 		.4byte	.LFE18-.LFB18
 8902 0020 00000000 		.4byte	.LFB13
 8903 0024 74000000 		.4byte	.LFE13-.LFB13
 8904 0028 00000000 		.4byte	.LFB15
 8905 002c B4000000 		.4byte	.LFE15-.LFB15
 8906 0030 00000000 		.4byte	.LFB16
 8907 0034 44000000 		.4byte	.LFE16-.LFB16
 8908 0038 00000000 		.4byte	.LFB17
 8909 003c 52000000 		.4byte	.LFE17-.LFB17
 8910 0040 00000000 		.4byte	.LFB23
 8911 0044 1C000000 		.4byte	.LFE23-.LFB23
 8912 0048 00000000 		.4byte	.LFB22
 8913 004c 16000000 		.4byte	.LFE22-.LFB22
 8914 0050 00000000 		.4byte	.LFB24
 8915 0054 04000000 		.4byte	.LFE24-.LFB24
 8916 0058 00000000 		.4byte	.LFB25
 8917 005c 20000000 		.4byte	.LFE25-.LFB25
 8918 0060 00000000 		.4byte	.LFB31
 8919 0064 04000000 		.4byte	.LFE31-.LFB31
 8920 0068 00000000 		.4byte	.LFB32
 8921 006c 06000000 		.4byte	.LFE32-.LFB32
 8922 0070 00000000 		.4byte	.LFB33
 8923 0074 06000000 		.4byte	.LFE33-.LFB33
 8924 0078 00000000 		.4byte	.LFB34
 8925 007c 06000000 		.4byte	.LFE34-.LFB34
 8926 0080 00000000 		.4byte	.LFB35
 8927 0084 04000000 		.4byte	.LFE35-.LFB35
 8928 0088 00000000 		.4byte	.LFB36
 8929 008c 0A000000 		.4byte	.LFE36-.LFB36
 8930 0090 00000000 		.4byte	.LFB37
 8931 0094 48000000 		.4byte	.LFE37-.LFB37
 8932 0098 00000000 		.4byte	.LFB20
 8933 009c 82030000 		.4byte	.LFE20-.LFB20
 8934 00a0 00000000 		.4byte	.LFB38
 8935 00a4 8C000000 		.4byte	.LFE38-.LFB38
 8936 00a8 00000000 		.4byte	.LFB11
 8937 00ac A4000000 		.4byte	.LFE11-.LFB11
 8938 00b0 00000000 		.4byte	.LFB12
 8939 00b4 06000000 		.4byte	.LFE12-.LFB12
 8940 00b8 00000000 		.4byte	.LFB29
 8941 00bc 3C010000 		.4byte	.LFE29-.LFB29
 8942 00c0 00000000 		.4byte	.LFB30
 8943 00c4 06000000 		.4byte	.LFE30-.LFB30
ARM GAS  /var/folders/5n/p_75w94d66l9ssrldxqdhh700000gn/T//cc9Mn9JC.s 			page 159


 8944 00c8 00000000 		.4byte	.LFB8
 8945 00cc 48010000 		.4byte	.LFE8-.LFB8
 8946 00d0 00000000 		.4byte	.LFB10
 8947 00d4 58000000 		.4byte	.LFE10-.LFB10
 8948 00d8 00000000 		.4byte	.LFB9
 8949 00dc 18000000 		.4byte	.LFE9-.LFB9
 8950 00e0 00000000 		.4byte	.LFB26
 8951 00e4 26000000 		.4byte	.LFE26-.LFB26
 8952 00e8 00000000 		.4byte	.LFB21
 8953 00ec 70000000 		.4byte	.LFE21-.LFB21
 8954 00f0 00000000 		.4byte	.LFB7
 8955 00f4 24000000 		.4byte	.LFE7-.LFB7
 8956 00f8 00000000 		.4byte	.LFB39
 8957 00fc 1A000000 		.4byte	.LFE39-.LFB39
 8958 0100 00000000 		.4byte	.LFB40
 8959 0104 1E000000 		.4byte	.LFE40-.LFB40
 8960 0108 00000000 		.4byte	.LFB19
 8961 010c 1C010000 		.4byte	.LFE19-.LFB19
 8962 0110 00000000 		.4byte	.LFB41
 8963 0114 0E000000 		.4byte	.LFE41-.LFB41
 8964 0118 00000000 		.4byte	0
 8965 011c 00000000 		.4byte	0
 8966              		.section	.debug_ranges,"",%progbits
 8967              	.Ldebug_ranges0:
 8968 0000 30000000 		.4byte	.LBB11
 8969 0004 3C000000 		.4byte	.LBE11
 8970 0008 3E000000 		.4byte	.LBB12
 8971 000c 44000000 		.4byte	.LBE12
 8972 0010 00000000 		.4byte	0
 8973 0014 00000000 		.4byte	0
 8974 0018 AA010000 		.4byte	.LBB18
 8975 001c E6010000 		.4byte	.LBE18
 8976 0020 26030000 		.4byte	.LBB20
 8977 0024 4E030000 		.4byte	.LBE20
 8978 0028 76030000 		.4byte	.LBB22
 8979 002c 7C030000 		.4byte	.LBE22
 8980 0030 00000000 		.4byte	0
 8981 0034 00000000 		.4byte	0
 8982 0038 EE010000 		.4byte	.LBB19
 8983 003c 16020000 		.4byte	.LBE19
 8984 0040 4E030000 		.4byte	.LBB21
 8985 0044 60030000 		.4byte	.LBE21
 8986 0048 7C030000 		.4byte	.LBB23
 8987 004c 82030000 		.4byte	.LBE23
 8988 0050 00000000 		.4byte	0
 8989 0054 00000000 		.4byte	0
 8990 0058 1C000000 		.4byte	.LBB24
 8991 005c 24000000 		.4byte	.LBE24
 8992 0060 26000000 		.4byte	.LBB28
 8993 0064 28000000 		.4byte	.LBE28
 8994 0068 4A000000 		.4byte	.LBB29
 8995 006c 4C000000 		.4byte	.LBE29
 8996 0070 00000000 		.4byte	0
 8997 0074 00000000 		.4byte	0
 8998 0078 1C000000 		.4byte	.LBB25
 8999 007c 24000000 		.4byte	.LBE25
 9000 0080 26000000 		.4byte	.LBB26
ARM GAS  /var/folders/5n/p_75w94d66l9ssrldxqdhh700000gn/T//cc9Mn9JC.s 			page 160


 9001 0084 28000000 		.4byte	.LBE26
 9002 0088 4A000000 		.4byte	.LBB27
 9003 008c 4C000000 		.4byte	.LBE27
 9004 0090 00000000 		.4byte	0
 9005 0094 00000000 		.4byte	0
 9006 0098 18000000 		.4byte	.LBB36
 9007 009c 1E000000 		.4byte	.LBE36
 9008 00a0 22000000 		.4byte	.LBB39
 9009 00a4 26000000 		.4byte	.LBE39
 9010 00a8 00000000 		.4byte	0
 9011 00ac 00000000 		.4byte	0
 9012 00b0 18000000 		.4byte	.LBB37
 9013 00b4 1E000000 		.4byte	.LBE37
 9014 00b8 22000000 		.4byte	.LBB38
 9015 00bc 26000000 		.4byte	.LBE38
 9016 00c0 00000000 		.4byte	0
 9017 00c4 00000000 		.4byte	0
 9018 00c8 0A000000 		.4byte	.LBB40
 9019 00cc 2E000000 		.4byte	.LBE40
 9020 00d0 34000000 		.4byte	.LBB43
 9021 00d4 4E000000 		.4byte	.LBE43
 9022 00d8 54000000 		.4byte	.LBB44
 9023 00dc 70000000 		.4byte	.LBE44
 9024 00e0 00000000 		.4byte	0
 9025 00e4 00000000 		.4byte	0
 9026 00e8 12000000 		.4byte	.LBB41
 9027 00ec 26000000 		.4byte	.LBE41
 9028 00f0 54000000 		.4byte	.LBB42
 9029 00f4 70000000 		.4byte	.LBE42
 9030 00f8 00000000 		.4byte	0
 9031 00fc 00000000 		.4byte	0
 9032 0100 26000000 		.4byte	.LBB45
 9033 0104 30000000 		.4byte	.LBE45
 9034 0108 42000000 		.4byte	.LBB48
 9035 010c 44000000 		.4byte	.LBE48
 9036 0110 00000000 		.4byte	0
 9037 0114 00000000 		.4byte	0
 9038 0118 26000000 		.4byte	.LBB46
 9039 011c 30000000 		.4byte	.LBE46
 9040 0120 42000000 		.4byte	.LBB47
 9041 0124 44000000 		.4byte	.LBE47
 9042 0128 00000000 		.4byte	0
 9043 012c 00000000 		.4byte	0
 9044 0130 CC000000 		.4byte	.LBB49
 9045 0134 D6000000 		.4byte	.LBE49
 9046 0138 D8000000 		.4byte	.LBB50
 9047 013c DA000000 		.4byte	.LBE50
 9048 0140 04010000 		.4byte	.LBB51
 9049 0144 1C010000 		.4byte	.LBE51
 9050 0148 00000000 		.4byte	0
 9051 014c 00000000 		.4byte	0
 9052 0150 00000000 		.4byte	.LFB14
 9053 0154 06000000 		.4byte	.LFE14
 9054 0158 00000000 		.4byte	.LFB18
 9055 015c 4C000000 		.4byte	.LFE18
 9056 0160 00000000 		.4byte	.LFB13
 9057 0164 74000000 		.4byte	.LFE13
ARM GAS  /var/folders/5n/p_75w94d66l9ssrldxqdhh700000gn/T//cc9Mn9JC.s 			page 161


 9058 0168 00000000 		.4byte	.LFB15
 9059 016c B4000000 		.4byte	.LFE15
 9060 0170 00000000 		.4byte	.LFB16
 9061 0174 44000000 		.4byte	.LFE16
 9062 0178 00000000 		.4byte	.LFB17
 9063 017c 52000000 		.4byte	.LFE17
 9064 0180 00000000 		.4byte	.LFB23
 9065 0184 1C000000 		.4byte	.LFE23
 9066 0188 00000000 		.4byte	.LFB22
 9067 018c 16000000 		.4byte	.LFE22
 9068 0190 00000000 		.4byte	.LFB24
 9069 0194 04000000 		.4byte	.LFE24
 9070 0198 00000000 		.4byte	.LFB25
 9071 019c 20000000 		.4byte	.LFE25
 9072 01a0 00000000 		.4byte	.LFB31
 9073 01a4 04000000 		.4byte	.LFE31
 9074 01a8 00000000 		.4byte	.LFB32
 9075 01ac 06000000 		.4byte	.LFE32
 9076 01b0 00000000 		.4byte	.LFB33
 9077 01b4 06000000 		.4byte	.LFE33
 9078 01b8 00000000 		.4byte	.LFB34
 9079 01bc 06000000 		.4byte	.LFE34
 9080 01c0 00000000 		.4byte	.LFB35
 9081 01c4 04000000 		.4byte	.LFE35
 9082 01c8 00000000 		.4byte	.LFB36
 9083 01cc 0A000000 		.4byte	.LFE36
 9084 01d0 00000000 		.4byte	.LFB37
 9085 01d4 48000000 		.4byte	.LFE37
 9086 01d8 00000000 		.4byte	.LFB20
 9087 01dc 82030000 		.4byte	.LFE20
 9088 01e0 00000000 		.4byte	.LFB38
 9089 01e4 8C000000 		.4byte	.LFE38
 9090 01e8 00000000 		.4byte	.LFB11
 9091 01ec A4000000 		.4byte	.LFE11
 9092 01f0 00000000 		.4byte	.LFB12
 9093 01f4 06000000 		.4byte	.LFE12
 9094 01f8 00000000 		.4byte	.LFB29
 9095 01fc 3C010000 		.4byte	.LFE29
 9096 0200 00000000 		.4byte	.LFB30
 9097 0204 06000000 		.4byte	.LFE30
 9098 0208 00000000 		.4byte	.LFB8
 9099 020c 48010000 		.4byte	.LFE8
 9100 0210 00000000 		.4byte	.LFB10
 9101 0214 58000000 		.4byte	.LFE10
 9102 0218 00000000 		.4byte	.LFB9
 9103 021c 18000000 		.4byte	.LFE9
 9104 0220 00000000 		.4byte	.LFB26
 9105 0224 26000000 		.4byte	.LFE26
 9106 0228 00000000 		.4byte	.LFB21
 9107 022c 70000000 		.4byte	.LFE21
 9108 0230 00000000 		.4byte	.LFB7
 9109 0234 24000000 		.4byte	.LFE7
 9110 0238 00000000 		.4byte	.LFB39
 9111 023c 1A000000 		.4byte	.LFE39
 9112 0240 00000000 		.4byte	.LFB40
 9113 0244 1E000000 		.4byte	.LFE40
 9114 0248 00000000 		.4byte	.LFB19
ARM GAS  /var/folders/5n/p_75w94d66l9ssrldxqdhh700000gn/T//cc9Mn9JC.s 			page 162


 9115 024c 1C010000 		.4byte	.LFE19
 9116 0250 00000000 		.4byte	.LFB41
 9117 0254 0E000000 		.4byte	.LFE41
 9118 0258 00000000 		.4byte	0
 9119 025c 00000000 		.4byte	0
 9120              		.section	.debug_line,"",%progbits
 9121              	.Ldebug_line0:
 9122 0000 74080000 		.section	.debug_str,"MS",%progbits,1
 9122      02006101 
 9122      00000201 
 9122      FB0E0D00 
 9122      01010101 
 9123              	.LASF209:
 9124 0000 73687574 		.ascii	"shut_tx\000"
 9124      5F747800 
 9125              	.LASF166:
 9126 0008 7463705F 		.ascii	"tcp_new_port\000"
 9126      6E65775F 
 9126      706F7274 
 9126      00
 9127              	.LASF132:
 9128 0015 6C697374 		.ascii	"listen_pcbs\000"
 9128      656E5F70 
 9128      63627300 
 9129              	.LASF191:
 9130 0021 696E7465 		.ascii	"interval\000"
 9130      7276616C 
 9130      00
 9131              	.LASF26:
 9132 002a 4D454D50 		.ascii	"MEMP_TCP_PCB_LISTEN\000"
 9132      5F544350 
 9132      5F504342 
 9132      5F4C4953 
 9132      54454E00 
 9133              	.LASF184:
 9134 003e 63736567 		.ascii	"cseg\000"
 9134      00
 9135              	.LASF64:
 9136 0043 736F5F6F 		.ascii	"so_options\000"
 9136      7074696F 
 9136      6E7300
 9137              	.LASF216:
 9138 004e 7463705F 		.ascii	"tcp_connect\000"
 9138      636F6E6E 
 9138      65637400 
 9139              	.LASF50:
 9140 005a 696E7075 		.ascii	"input\000"
 9140      7400
 9141              	.LASF207:
 9142 0060 7463705F 		.ascii	"tcp_shutdown\000"
 9142      73687574 
 9142      646F776E 
 9142      00
 9143              	.LASF237:
 9144 006d 61676169 		.ascii	"again\000"
 9144      6E00
 9145              	.LASF131:
ARM GAS  /var/folders/5n/p_75w94d66l9ssrldxqdhh700000gn/T//cc9Mn9JC.s 			page 163


 9146 0073 75726770 		.ascii	"urgp\000"
 9146      00
 9147              	.LASF74:
 9148 0078 706F6C6C 		.ascii	"polltmr\000"
 9148      746D7200 
 9149              	.LASF60:
 9150 0080 7463705F 		.ascii	"tcp_accept_fn\000"
 9150      61636365 
 9150      70745F66 
 9150      6E00
 9151              	.LASF47:
 9152 008e 666C6167 		.ascii	"flags\000"
 9152      7300
 9153              	.LASF171:
 9154 0094 7463705F 		.ascii	"tcp_bind\000"
 9154      62696E64 
 9154      00
 9155              	.LASF121:
 9156 009d 54494D45 		.ascii	"TIME_WAIT\000"
 9156      5F574149 
 9156      5400
 9157              	.LASF202:
 9158 00a7 65727266 		.ascii	"errf_arg\000"
 9158      5F617267 
 9158      00
 9159              	.LASF0:
 9160 00b0 756E7369 		.ascii	"unsigned int\000"
 9160      676E6564 
 9160      20696E74 
 9160      00
 9161              	.LASF110:
 9162 00bd 7463705F 		.ascii	"tcp_connected_fn\000"
 9162      636F6E6E 
 9162      65637465 
 9162      645F666E 
 9162      00
 9163              	.LASF43:
 9164 00ce 6E657874 		.ascii	"next\000"
 9164      00
 9165              	.LASF229:
 9166 00d3 7463705F 		.ascii	"tcp_pcb_lists\000"
 9166      7063625F 
 9166      6C697374 
 9166      7300
 9167              	.LASF176:
 9168 00e1 6E65775F 		.ascii	"new_right_edge\000"
 9168      72696768 
 9168      745F6564 
 9168      676500
 9169              	.LASF39:
 9170 00f0 6572725F 		.ascii	"err_t\000"
 9170      7400
 9171              	.LASF228:
 9172 00f6 7463705F 		.ascii	"tcp_persist_backoff\000"
 9172      70657273 
 9172      6973745F 
 9172      6261636B 
ARM GAS  /var/folders/5n/p_75w94d66l9ssrldxqdhh700000gn/T//cc9Mn9JC.s 			page 164


 9172      6F666600 
 9173              	.LASF52:
 9174 010a 6C696E6B 		.ascii	"linkoutput\000"
 9174      6F757470 
 9174      757400
 9175              	.LASF164:
 9176 0115 7463705F 		.ascii	"tcp_next_iss\000"
 9176      6E657874 
 9176      5F697373 
 9176      00
 9177              	.LASF193:
 9178 0122 70726576 		.ascii	"prev\000"
 9178      00
 9179              	.LASF18:
 9180 0127 7531365F 		.ascii	"u16_t\000"
 9180      7400
 9181              	.LASF195:
 9182 012d 7063625F 		.ascii	"pcb_remove\000"
 9182      72656D6F 
 9182      766500
 9183              	.LASF73:
 9184 0138 7263765F 		.ascii	"rcv_ann_right_edge\000"
 9184      616E6E5F 
 9184      72696768 
 9184      745F6564 
 9184      676500
 9185              	.LASF144:
 9186 014b 73746174 		.ascii	"stats_mem\000"
 9186      735F6D65 
 9186      6D00
 9187              	.LASF232:
 9188 0155 2E2E2F2E 		.ascii	"../../ext/lwip/src/core/tcp.c\000"
 9188      2E2F6578 
 9188      742F6C77 
 9188      69702F73 
 9188      72632F63 
 9189              	.LASF105:
 9190 0173 6B656570 		.ascii	"keep_cnt_sent\000"
 9190      5F636E74 
 9190      5F73656E 
 9190      7400
 9191              	.LASF36:
 9192 0181 4D454D50 		.ascii	"MEMP_PBUF_POOL\000"
 9192      5F504255 
 9192      465F504F 
 9192      4F4C00
 9193              	.LASF225:
 9194 0190 6C776970 		.ascii	"lwip_stats\000"
 9194      5F737461 
 9194      747300
 9195              	.LASF107:
 9196 019b 7463705F 		.ascii	"tcp_sent_fn\000"
 9196      73656E74 
 9196      5F666E00 
 9197              	.LASF206:
 9198 01a7 7273745F 		.ascii	"rst_on_unacked_data\000"
 9198      6F6E5F75 
ARM GAS  /var/folders/5n/p_75w94d66l9ssrldxqdhh700000gn/T//cc9Mn9JC.s 			page 165


 9198      6E61636B 
 9198      65645F64 
 9198      61746100 
 9199              	.LASF198:
 9200 01bb 7463705F 		.ascii	"tcp_pcb_remove\000"
 9200      7063625F 
 9200      72656D6F 
 9200      766500
 9201              	.LASF148:
 9202 01ca 73746174 		.ascii	"stats_syselem\000"
 9202      735F7379 
 9202      73656C65 
 9202      6D00
 9203              	.LASF127:
 9204 01d8 7365716E 		.ascii	"seqno\000"
 9204      6F00
 9205              	.LASF57:
 9206 01de 6E657469 		.ascii	"netif_input_fn\000"
 9206      665F696E 
 9206      7075745F 
 9206      666E00
 9207              	.LASF196:
 9208 01ed 7063625F 		.ascii	"pcb_reset\000"
 9208      72657365 
 9208      7400
 9209              	.LASF11:
 9210 01f7 75696E74 		.ascii	"uint32_t\000"
 9210      33325F74 
 9210      00
 9211              	.LASF2:
 9212 0200 696E7438 		.ascii	"int8_t\000"
 9212      5F7400
 9213              	.LASF82:
 9214 0207 63776E64 		.ascii	"cwnd\000"
 9214      00
 9215              	.LASF32:
 9216 020c 4D454D50 		.ascii	"MEMP_TCPIP_MSG_API\000"
 9216      5F544350 
 9216      49505F4D 
 9216      53475F41 
 9216      504900
 9217              	.LASF169:
 9218 021f 6D61785F 		.ascii	"max_pcb_list\000"
 9218      7063625F 
 9218      6C697374 
 9218      00
 9219              	.LASF142:
 9220 022c 6F707465 		.ascii	"opterr\000"
 9220      727200
 9221              	.LASF68:
 9222 0233 6C6F6361 		.ascii	"local_port\000"
 9222      6C5F706F 
 9222      727400
 9223              	.LASF150:
 9224 023e 6D757465 		.ascii	"mutex\000"
 9224      7800
 9225              	.LASF155:
ARM GAS  /var/folders/5n/p_75w94d66l9ssrldxqdhh700000gn/T//cc9Mn9JC.s 			page 166


 9226 0244 69705F66 		.ascii	"ip_frag\000"
 9226      72616700 
 9227              	.LASF194:
 9228 024c 6566665F 		.ascii	"eff_wnd\000"
 9228      776E6400 
 9229              	.LASF147:
 9230 0254 696C6C65 		.ascii	"illegal\000"
 9230      67616C00 
 9231              	.LASF5:
 9232 025c 696E7431 		.ascii	"int16_t\000"
 9232      365F7400 
 9233              	.LASF55:
 9234 0264 68776164 		.ascii	"hwaddr\000"
 9234      647200
 9235              	.LASF154:
 9236 026b 65746861 		.ascii	"etharp\000"
 9236      727000
 9237              	.LASF122:
 9238 0272 7463705F 		.ascii	"tcp_seg\000"
 9238      73656700 
 9239              	.LASF14:
 9240 027a 6C6F6E67 		.ascii	"long long unsigned int\000"
 9240      206C6F6E 
 9240      6720756E 
 9240      7369676E 
 9240      65642069 
 9241              	.LASF159:
 9242 0291 696E6163 		.ascii	"inactivity\000"
 9242      74697669 
 9242      747900
 9243              	.LASF190:
 9244 029c 7463705F 		.ascii	"tcp_poll\000"
 9244      706F6C6C 
 9244      00
 9245              	.LASF234:
 9246 02a5 7463705F 		.ascii	"tcp_state\000"
 9246      73746174 
 9246      6500
 9247              	.LASF76:
 9248 02af 7274696D 		.ascii	"rtime\000"
 9248      6500
 9249              	.LASF54:
 9250 02b5 68776164 		.ascii	"hwaddr_len\000"
 9250      64725F6C 
 9250      656E00
 9251              	.LASF238:
 9252 02c0 7463705F 		.ascii	"tcp_new\000"
 9252      6E657700 
 9253              	.LASF179:
 9254 02c8 7463705F 		.ascii	"tcp_recved\000"
 9254      72656376 
 9254      656400
 9255              	.LASF70:
 9256 02d3 7263765F 		.ascii	"rcv_nxt\000"
 9256      6E787400 
 9257              	.LASF33:
 9258 02db 4D454D50 		.ascii	"MEMP_TCPIP_MSG_INPKT\000"
ARM GAS  /var/folders/5n/p_75w94d66l9ssrldxqdhh700000gn/T//cc9Mn9JC.s 			page 167


 9258      5F544350 
 9258      49505F4D 
 9258      53475F49 
 9258      4E504B54 
 9259              	.LASF146:
 9260 02f0 75736564 		.ascii	"used\000"
 9260      00
 9261              	.LASF94:
 9262 02f5 756E6163 		.ascii	"unacked\000"
 9262      6B656400 
 9263              	.LASF152:
 9264 02fd 73746174 		.ascii	"stats_\000"
 9264      735F00
 9265              	.LASF227:
 9266 0304 7463705F 		.ascii	"tcp_backoff\000"
 9266      6261636B 
 9266      6F666600 
 9267              	.LASF120:
 9268 0310 4C415354 		.ascii	"LAST_ACK\000"
 9268      5F41434B 
 9268      00
 9269              	.LASF45:
 9270 0319 746F745F 		.ascii	"tot_len\000"
 9270      6C656E00 
 9271              	.LASF168:
 9272 0321 69706164 		.ascii	"ipaddr\000"
 9272      647200
 9273              	.LASF44:
 9274 0328 7061796C 		.ascii	"payload\000"
 9274      6F616400 
 9275              	.LASF187:
 9276 0330 7463705F 		.ascii	"tcp_sent\000"
 9276      73656E74 
 9276      00
 9277              	.LASF51:
 9278 0339 6F757470 		.ascii	"output\000"
 9278      757400
 9279              	.LASF199:
 9280 0340 7063626C 		.ascii	"pcblist\000"
 9280      69737400 
 9281              	.LASF99:
 9282 0348 636F6E6E 		.ascii	"connected\000"
 9282      65637465 
 9282      6400
 9283              	.LASF41:
 9284 0352 70627566 		.ascii	"pbuf\000"
 9284      00
 9285              	.LASF224:
 9286 0357 7463705F 		.ascii	"tcp_tmp_pcb\000"
 9286      746D705F 
 9286      70636200 
 9287              	.LASF236:
 9288 0363 7463705F 		.ascii	"tcp_pcb_purge\000"
 9288      7063625F 
 9288      70757267 
 9288      6500
 9289              	.LASF119:
ARM GAS  /var/folders/5n/p_75w94d66l9ssrldxqdhh700000gn/T//cc9Mn9JC.s 			page 168


 9290 0371 434C4F53 		.ascii	"CLOSING\000"
 9290      494E4700 
 9291              	.LASF173:
 9292 0379 6261636B 		.ascii	"backlog\000"
 9292      6C6F6700 
 9293              	.LASF80:
 9294 0381 6C617374 		.ascii	"lastack\000"
 9294      61636B00 
 9295              	.LASF37:
 9296 0389 4D454D50 		.ascii	"MEMP_MAX\000"
 9296      5F4D4158 
 9296      00
 9297              	.LASF230:
 9298 0392 7463705F 		.ascii	"tcp_timer\000"
 9298      74696D65 
 9298      7200
 9299              	.LASF17:
 9300 039c 73385F74 		.ascii	"s8_t\000"
 9300      00
 9301              	.LASF21:
 9302 03a1 7333325F 		.ascii	"s32_t\000"
 9302      7400
 9303              	.LASF31:
 9304 03a7 4D454D50 		.ascii	"MEMP_NETCONN\000"
 9304      5F4E4554 
 9304      434F4E4E 
 9304      00
 9305              	.LASF153:
 9306 03b4 6C696E6B 		.ascii	"link\000"
 9306      00
 9307              	.LASF78:
 9308 03b9 72747365 		.ascii	"rtseq\000"
 9308      7100
 9309              	.LASF222:
 9310 03bf 7463705F 		.ascii	"tcp_active_pcbs\000"
 9310      61637469 
 9310      76655F70 
 9310      63627300 
 9311              	.LASF81:
 9312 03cf 64757061 		.ascii	"dupacks\000"
 9312      636B7300 
 9313              	.LASF65:
 9314 03d7 7072696F 		.ascii	"prio\000"
 9314      00
 9315              	.LASF67:
 9316 03dc 61636365 		.ascii	"accept\000"
 9316      707400
 9317              	.LASF35:
 9318 03e3 4D454D50 		.ascii	"MEMP_PBUF\000"
 9318      5F504255 
 9318      4600
 9319              	.LASF100:
 9320 03ed 706F6C6C 		.ascii	"poll\000"
 9320      00
 9321              	.LASF15:
 9322 03f2 63686172 		.ascii	"char\000"
 9322      00
ARM GAS  /var/folders/5n/p_75w94d66l9ssrldxqdhh700000gn/T//cc9Mn9JC.s 			page 169


 9323              	.LASF231:
 9324 03f7 474E5520 		.ascii	"GNU C 4.6.2 20111004 (prerelease)\000"
 9324      4320342E 
 9324      362E3220 
 9324      32303131 
 9324      31303034 
 9325              	.LASF22:
 9326 0419 6D656D5F 		.ascii	"mem_size_t\000"
 9326      73697A65 
 9326      5F7400
 9327              	.LASF134:
 9328 0424 73746174 		.ascii	"stats_proto\000"
 9328      735F7072 
 9328      6F746F00 
 9329              	.LASF89:
 9330 0430 61636B65 		.ascii	"acked\000"
 9330      6400
 9331              	.LASF118:
 9332 0436 434C4F53 		.ascii	"CLOSE_WAIT\000"
 9332      455F5741 
 9332      495400
 9333              	.LASF217:
 9334 0441 6F6C645F 		.ascii	"old_local_port\000"
 9334      6C6F6361 
 9334      6C5F706F 
 9334      727400
 9335              	.LASF178:
 9336 0450 776E645F 		.ascii	"wnd_inflation\000"
 9336      696E666C 
 9336      6174696F 
 9336      6E00
 9337              	.LASF93:
 9338 045e 756E7365 		.ascii	"unsent\000"
 9338      6E7400
 9339              	.LASF97:
 9340 0465 73656E74 		.ascii	"sent\000"
 9340      00
 9341              	.LASF3:
 9342 046a 75696E74 		.ascii	"uint8_t\000"
 9342      385F7400 
 9343              	.LASF86:
 9344 0472 736E645F 		.ascii	"snd_wl1\000"
 9344      776C3100 
 9345              	.LASF87:
 9346 047a 736E645F 		.ascii	"snd_wl2\000"
 9346      776C3200 
 9347              	.LASF239:
 9348 0482 7463705F 		.ascii	"tcp_tmr\000"
 9348      746D7200 
 9349              	.LASF183:
 9350 048a 7463705F 		.ascii	"tcp_seg_copy\000"
 9350      7365675F 
 9350      636F7079 
 9350      00
 9351              	.LASF109:
 9352 0497 7463705F 		.ascii	"tcp_err_fn\000"
 9352      6572725F 
ARM GAS  /var/folders/5n/p_75w94d66l9ssrldxqdhh700000gn/T//cc9Mn9JC.s 			page 170


 9352      666E00
 9353              	.LASF235:
 9354 04a2 7463705F 		.ascii	"tcp_listen_pcbs_t\000"
 9354      6C697374 
 9354      656E5F70 
 9354      6362735F 
 9354      7400
 9355              	.LASF88:
 9356 04b4 736E645F 		.ascii	"snd_lbb\000"
 9356      6C626200 
 9357              	.LASF163:
 9358 04bc 7463705F 		.ascii	"tcp_recv_null\000"
 9358      72656376 
 9358      5F6E756C 
 9358      6C00
 9359              	.LASF30:
 9360 04ca 4D454D50 		.ascii	"MEMP_NETBUF\000"
 9360      5F4E4554 
 9360      42554600 
 9361              	.LASF49:
 9362 04d6 6E65746D 		.ascii	"netmask\000"
 9362      61736B00 
 9363              	.LASF13:
 9364 04de 6C6F6E67 		.ascii	"long long int\000"
 9364      206C6F6E 
 9364      6720696E 
 9364      7400
 9365              	.LASF124:
 9366 04ec 7463705F 		.ascii	"tcp_pcb_listen\000"
 9366      7063625F 
 9366      6C697374 
 9366      656E00
 9367              	.LASF128:
 9368 04fb 61636B6E 		.ascii	"ackno\000"
 9368      6F00
 9369              	.LASF218:
 9370 0501 7463705F 		.ascii	"tcp_debug_state_str\000"
 9370      64656275 
 9370      675F7374 
 9370      6174655F 
 9370      73747200 
 9371              	.LASF104:
 9372 0515 70657273 		.ascii	"persist_backoff\000"
 9372      6973745F 
 9372      6261636B 
 9372      6F666600 
 9373              	.LASF160:
 9374 0525 7463705F 		.ascii	"tcp_kill_timewait\000"
 9374      6B696C6C 
 9374      5F74696D 
 9374      65776169 
 9374      7400
 9375              	.LASF25:
 9376 0537 4D454D50 		.ascii	"MEMP_TCP_PCB\000"
 9376      5F544350 
 9376      5F504342 
 9376      00
ARM GAS  /var/folders/5n/p_75w94d66l9ssrldxqdhh700000gn/T//cc9Mn9JC.s 			page 171


 9377              	.LASF157:
 9378 0544 6D656D70 		.ascii	"memp\000"
 9378      00
 9379              	.LASF16:
 9380 0549 75385F74 		.ascii	"u8_t\000"
 9380      00
 9381              	.LASF165:
 9382 054e 7463705F 		.ascii	"tcp_accept_null\000"
 9382      61636365 
 9382      70745F6E 
 9382      756C6C00 
 9383              	.LASF211:
 9384 055e 7463705F 		.ascii	"tcp_fasttmr\000"
 9384      66617374 
 9384      746D7200 
 9385              	.LASF197:
 9386 056a 70636232 		.ascii	"pcb2\000"
 9386      00
 9387              	.LASF233:
 9388 056f 2F557365 		.ascii	"/Users/sin/Documents/Eclipse/Workspace/mabl-ChibiOS"
 9388      72732F73 
 9388      696E2F44 
 9388      6F63756D 
 9388      656E7473 
 9389 05a2 2D322E35 		.ascii	"-2.5.1/demos/ARMCM4-STM32F407-LWIP\000"
 9389      2E312F64 
 9389      656D6F73 
 9389      2F41524D 
 9389      434D342D 
 9390              	.LASF172:
 9391 05c5 7463705F 		.ascii	"tcp_listen_with_backlog\000"
 9391      6C697374 
 9391      656E5F77 
 9391      6974685F 
 9391      6261636B 
 9392              	.LASF188:
 9393 05dd 7463705F 		.ascii	"tcp_err\000"
 9393      65727200 
 9394              	.LASF69:
 9395 05e5 72656D6F 		.ascii	"remote_port\000"
 9395      74655F70 
 9395      6F727400 
 9396              	.LASF210:
 9397 05f1 7463705F 		.ascii	"tcp_close\000"
 9397      636C6F73 
 9397      6500
 9398              	.LASF205:
 9399 05fb 7463705F 		.ascii	"tcp_close_shutdown\000"
 9399      636C6F73 
 9399      655F7368 
 9399      7574646F 
 9399      776E00
 9400              	.LASF221:
 9401 060e 7463705F 		.ascii	"tcp_listen_pcbs\000"
 9401      6C697374 
 9401      656E5F70 
 9401      63627300 
ARM GAS  /var/folders/5n/p_75w94d66l9ssrldxqdhh700000gn/T//cc9Mn9JC.s 			page 172


 9402              	.LASF72:
 9403 061e 7263765F 		.ascii	"rcv_ann_wnd\000"
 9403      616E6E5F 
 9403      776E6400 
 9404              	.LASF137:
 9405 062a 63686B65 		.ascii	"chkerr\000"
 9405      727200
 9406              	.LASF28:
 9407 0631 4D454D50 		.ascii	"MEMP_REASSDATA\000"
 9407      5F524541 
 9407      53534441 
 9407      544100
 9408              	.LASF106:
 9409 0640 7463705F 		.ascii	"tcp_recv_fn\000"
 9409      72656376 
 9409      5F666E00 
 9410              	.LASF158:
 9411 064c 696E6163 		.ascii	"inactive\000"
 9411      74697665 
 9411      00
 9412              	.LASF192:
 9413 0655 7463705F 		.ascii	"tcp_slowtmr\000"
 9413      736C6F77 
 9413      746D7200 
 9414              	.LASF203:
 9415 0661 7463705F 		.ascii	"tcp_abort\000"
 9415      61626F72 
 9415      7400
 9416              	.LASF175:
 9417 066b 7463705F 		.ascii	"tcp_update_rcv_ann_wnd\000"
 9417      75706461 
 9417      74655F72 
 9417      63765F61 
 9417      6E6E5F77 
 9418              	.LASF108:
 9419 0682 7463705F 		.ascii	"tcp_poll_fn\000"
 9419      706F6C6C 
 9419      5F666E00 
 9420              	.LASF212:
 9421 068e 7463705F 		.ascii	"tcp_eff_send_mss\000"
 9421      6566665F 
 9421      73656E64 
 9421      5F6D7373 
 9421      00
 9422              	.LASF7:
 9423 069f 75696E74 		.ascii	"uint16_t\000"
 9423      31365F74 
 9423      00
 9424              	.LASF101:
 9425 06a8 65727266 		.ascii	"errf\000"
 9425      00
 9426              	.LASF85:
 9427 06ad 736E645F 		.ascii	"snd_wnd\000"
 9427      776E6400 
 9428              	.LASF189:
 9429 06b5 7463705F 		.ascii	"tcp_accept\000"
 9429      61636365 
ARM GAS  /var/folders/5n/p_75w94d66l9ssrldxqdhh700000gn/T//cc9Mn9JC.s 			page 173


 9429      707400
 9430              	.LASF58:
 9431 06c0 6E657469 		.ascii	"netif_output_fn\000"
 9431      665F6F75 
 9431      74707574 
 9431      5F666E00 
 9432              	.LASF161:
 9433 06d0 7463705F 		.ascii	"tcp_kill_prio\000"
 9433      6B696C6C 
 9433      5F707269 
 9433      6F00
 9434              	.LASF95:
 9435 06de 6F6F7365 		.ascii	"ooseq\000"
 9435      7100
 9436              	.LASF111:
 9437 06e4 434C4F53 		.ascii	"CLOSED\000"
 9437      454400
 9438              	.LASF20:
 9439 06eb 7533325F 		.ascii	"u32_t\000"
 9439      7400
 9440              	.LASF6:
 9441 06f1 73686F72 		.ascii	"short int\000"
 9441      7420696E 
 9441      7400
 9442              	.LASF156:
 9443 06fb 69636D70 		.ascii	"icmp\000"
 9443      00
 9444              	.LASF10:
 9445 0700 6C6F6E67 		.ascii	"long int\000"
 9445      20696E74 
 9445      00
 9446              	.LASF140:
 9447 0709 72746572 		.ascii	"rterr\000"
 9447      7200
 9448              	.LASF145:
 9449 070f 61766169 		.ascii	"avail\000"
 9449      6C00
 9450              	.LASF34:
 9451 0715 4D454D50 		.ascii	"MEMP_SYS_TIMEOUT\000"
 9451      5F535953 
 9451      5F54494D 
 9451      454F5554 
 9451      00
 9452              	.LASF71:
 9453 0726 7263765F 		.ascii	"rcv_wnd\000"
 9453      776E6400 
 9454              	.LASF77:
 9455 072e 72747465 		.ascii	"rttest\000"
 9455      737400
 9456              	.LASF170:
 9457 0735 63706362 		.ascii	"cpcb\000"
 9457      00
 9458              	.LASF24:
 9459 073a 4D454D50 		.ascii	"MEMP_UDP_PCB\000"
 9459      5F554450 
 9459      5F504342 
 9459      00
ARM GAS  /var/folders/5n/p_75w94d66l9ssrldxqdhh700000gn/T//cc9Mn9JC.s 			page 174


 9460              	.LASF62:
 9461 0747 6C6F6361 		.ascii	"local_ip\000"
 9461      6C5F6970 
 9461      00
 9462              	.LASF151:
 9463 0750 6D626F78 		.ascii	"mbox\000"
 9463      00
 9464              	.LASF92:
 9465 0755 756E7365 		.ascii	"unsent_oversize\000"
 9465      6E745F6F 
 9465      76657273 
 9465      697A6500 
 9466              	.LASF201:
 9467 0765 72657365 		.ascii	"reset\000"
 9467      7400
 9468              	.LASF84:
 9469 076b 736E645F 		.ascii	"snd_nxt\000"
 9469      6E787400 
 9470              	.LASF115:
 9471 0773 45535441 		.ascii	"ESTABLISHED\000"
 9471      424C4953 
 9471      48454400 
 9472              	.LASF143:
 9473 077f 63616368 		.ascii	"cachehit\000"
 9473      65686974 
 9473      00
 9474              	.LASF56:
 9475 0788 6E616D65 		.ascii	"name\000"
 9475      00
 9476              	.LASF59:
 9477 078d 6E657469 		.ascii	"netif_linkoutput_fn\000"
 9477      665F6C69 
 9477      6E6B6F75 
 9477      74707574 
 9477      5F666E00 
 9478              	.LASF29:
 9479 07a1 4D454D50 		.ascii	"MEMP_FRAG_PBUF\000"
 9479      5F465241 
 9479      475F5042 
 9479      554600
 9480              	.LASF215:
 9481 07b0 6F757469 		.ascii	"outif\000"
 9481      6600
 9482              	.LASF83:
 9483 07b6 73737468 		.ascii	"ssthresh\000"
 9483      72657368 
 9483      00
 9484              	.LASF90:
 9485 07bf 736E645F 		.ascii	"snd_buf\000"
 9485      62756600 
 9486              	.LASF75:
 9487 07c7 706F6C6C 		.ascii	"pollinterval\000"
 9487      696E7465 
 9487      7276616C 
 9487      00
 9488              	.LASF23:
 9489 07d4 4D454D50 		.ascii	"MEMP_RAW_PCB\000"
ARM GAS  /var/folders/5n/p_75w94d66l9ssrldxqdhh700000gn/T//cc9Mn9JC.s 			page 175


 9489      5F524157 
 9489      5F504342 
 9489      00
 9490              	.LASF129:
 9491 07e1 5F686472 		.ascii	"_hdrlen_rsvd_flags\000"
 9491      6C656E5F 
 9491      72737664 
 9491      5F666C61 
 9491      677300
 9492              	.LASF138:
 9493 07f4 6C656E65 		.ascii	"lenerr\000"
 9493      727200
 9494              	.LASF12:
 9495 07fb 6C6F6E67 		.ascii	"long unsigned int\000"
 9495      20756E73 
 9495      69676E65 
 9495      6420696E 
 9495      7400
 9496              	.LASF219:
 9497 080d 7463705F 		.ascii	"tcp_ticks\000"
 9497      7469636B 
 9497      7300
 9498              	.LASF162:
 9499 0817 6D707269 		.ascii	"mprio\000"
 9499      6F00
 9500              	.LASF123:
 9501 081d 74637068 		.ascii	"tcphdr\000"
 9501      647200
 9502              	.LASF19:
 9503 0824 7331365F 		.ascii	"s16_t\000"
 9503      7400
 9504              	.LASF9:
 9505 082a 696E7433 		.ascii	"int32_t\000"
 9505      325F7400 
 9506              	.LASF167:
 9507 0832 706F7274 		.ascii	"port\000"
 9507      00
 9508              	.LASF96:
 9509 0837 72656675 		.ascii	"refused_data\000"
 9509      7365645F 
 9509      64617461 
 9509      00
 9510              	.LASF141:
 9511 0844 70726F74 		.ascii	"proterr\000"
 9511      65727200 
 9512              	.LASF182:
 9513 084c 7463705F 		.ascii	"tcp_setprio\000"
 9513      73657470 
 9513      72696F00 
 9514              	.LASF125:
 9515 0858 7463705F 		.ascii	"tcp_hdr\000"
 9515      68647200 
 9516              	.LASF46:
 9517 0860 74797065 		.ascii	"type\000"
 9517      00
 9518              	.LASF149:
 9519 0865 73746174 		.ascii	"stats_sys\000"
ARM GAS  /var/folders/5n/p_75w94d66l9ssrldxqdhh700000gn/T//cc9Mn9JC.s 			page 176


 9519      735F7379 
 9519      7300
 9520              	.LASF4:
 9521 086f 756E7369 		.ascii	"unsigned char\000"
 9521      676E6564 
 9521      20636861 
 9521      7200
 9522              	.LASF177:
 9523 087d 6E65775F 		.ascii	"new_rcv_ann_wnd\000"
 9523      7263765F 
 9523      616E6E5F 
 9523      776E6400 
 9524              	.LASF116:
 9525 088d 46494E5F 		.ascii	"FIN_WAIT_1\000"
 9525      57414954 
 9525      5F3100
 9526              	.LASF117:
 9527 0898 46494E5F 		.ascii	"FIN_WAIT_2\000"
 9527      57414954 
 9527      5F3200
 9528              	.LASF139:
 9529 08a3 6D656D65 		.ascii	"memerr\000"
 9529      727200
 9530              	.LASF27:
 9531 08aa 4D454D50 		.ascii	"MEMP_TCP_SEG\000"
 9531      5F544350 
 9531      5F534547 
 9531      00
 9532              	.LASF113:
 9533 08b7 53594E5F 		.ascii	"SYN_SENT\000"
 9533      53454E54 
 9533      00
 9534              	.LASF220:
 9535 08c0 7463705F 		.ascii	"tcp_bound_pcbs\000"
 9535      626F756E 
 9535      645F7063 
 9535      627300
 9536              	.LASF102:
 9537 08cf 6B656570 		.ascii	"keep_idle\000"
 9537      5F69646C 
 9537      6500
 9538              	.LASF66:
 9539 08d9 63616C6C 		.ascii	"callback_arg\000"
 9539      6261636B 
 9539      5F617267 
 9539      00
 9540              	.LASF112:
 9541 08e6 4C495354 		.ascii	"LISTEN\000"
 9541      454E00
 9542              	.LASF42:
 9543 08ed 61646472 		.ascii	"addr\000"
 9543      00
 9544              	.LASF136:
 9545 08f2 64726F70 		.ascii	"drop\000"
 9545      00
 9546              	.LASF53:
 9547 08f7 73746174 		.ascii	"state\000"
ARM GAS  /var/folders/5n/p_75w94d66l9ssrldxqdhh700000gn/T//cc9Mn9JC.s 			page 177


 9547      6500
 9548              	.LASF186:
 9549 08fd 7463705F 		.ascii	"tcp_recv\000"
 9549      72656376 
 9549      00
 9550              	.LASF48:
 9551 0906 6E657469 		.ascii	"netif\000"
 9551      6600
 9552              	.LASF226:
 9553 090c 7463705F 		.ascii	"tcp_state_str\000"
 9553      73746174 
 9553      655F7374 
 9553      7200
 9554              	.LASF91:
 9555 091a 736E645F 		.ascii	"snd_queuelen\000"
 9555      71756575 
 9555      656C656E 
 9555      00
 9556              	.LASF130:
 9557 0927 63686B73 		.ascii	"chksum\000"
 9557      756D00
 9558              	.LASF174:
 9559 092e 6C706362 		.ascii	"lpcb\000"
 9559      00
 9560              	.LASF214:
 9561 0933 6D73735F 		.ascii	"mss_s\000"
 9561      7300
 9562              	.LASF98:
 9563 0939 72656376 		.ascii	"recv\000"
 9563      00
 9564              	.LASF1:
 9565 093e 7369676E 		.ascii	"signed char\000"
 9565      65642063 
 9565      68617200 
 9566              	.LASF61:
 9567 094a 7463705F 		.ascii	"tcp_pcb\000"
 9567      70636200 
 9568              	.LASF8:
 9569 0952 73686F72 		.ascii	"short unsigned int\000"
 9569      7420756E 
 9569      7369676E 
 9569      65642069 
 9569      6E7400
 9570              	.LASF135:
 9571 0965 786D6974 		.ascii	"xmit\000"
 9571      00
 9572              	.LASF180:
 9573 096a 7463705F 		.ascii	"tcp_seg_free\000"
 9573      7365675F 
 9573      66726565 
 9573      00
 9574              	.LASF103:
 9575 0977 70657273 		.ascii	"persist_cnt\000"
 9575      6973745F 
 9575      636E7400 
 9576              	.LASF63:
 9577 0983 72656D6F 		.ascii	"remote_ip\000"
ARM GAS  /var/folders/5n/p_75w94d66l9ssrldxqdhh700000gn/T//cc9Mn9JC.s 			page 178


 9577      74655F69 
 9577      7000
 9578              	.LASF223:
 9579 098d 7463705F 		.ascii	"tcp_tw_pcbs\000"
 9579      74775F70 
 9579      63627300 
 9580              	.LASF200:
 9581 0999 7463705F 		.ascii	"tcp_abandon\000"
 9581      6162616E 
 9581      646F6E00 
 9582              	.LASF38:
 9583 09a5 69705F61 		.ascii	"ip_addr_t\000"
 9583      6464725F 
 9583      7400
 9584              	.LASF181:
 9585 09af 7463705F 		.ascii	"tcp_segs_free\000"
 9585      73656773 
 9585      5F667265 
 9585      6500
 9586              	.LASF185:
 9587 09bd 7463705F 		.ascii	"tcp_arg\000"
 9587      61726700 
 9588              	.LASF204:
 9589 09c5 7463705F 		.ascii	"tcp_alloc\000"
 9589      616C6C6F 
 9589      6300
 9590              	.LASF208:
 9591 09cf 73687574 		.ascii	"shut_rx\000"
 9591      5F727800 
 9592              	.LASF79:
 9593 09d7 6E727478 		.ascii	"nrtx\000"
 9593      00
 9594              	.LASF126:
 9595 09dc 64657374 		.ascii	"dest\000"
 9595      00
 9596              	.LASF213:
 9597 09e1 73656E64 		.ascii	"sendmss\000"
 9597      6D737300 
 9598              	.LASF114:
 9599 09e9 53594E5F 		.ascii	"SYN_RCVD\000"
 9599      52435644 
 9599      00
 9600              	.LASF40:
 9601 09f2 69705F61 		.ascii	"ip_addr\000"
 9601      64647200 
 9602              	.LASF133:
 9603 09fa 70636273 		.ascii	"pcbs\000"
 9603      00
 9604              		.ident	"GCC: (Linaro GCC 4.6-2011.10) 4.6.2 20111004 (prerelease)"
ARM GAS  /var/folders/5n/p_75w94d66l9ssrldxqdhh700000gn/T//cc9Mn9JC.s 			page 179


DEFINED SYMBOLS
                            *ABS*:0000000000000000 tcp.c
/var/folders/5n/p_75w94d66l9ssrldxqdhh700000gn/T//cc9Mn9JC.s:18     .text.tcp_accept_null:0000000000000000 $t
/var/folders/5n/p_75w94d66l9ssrldxqdhh700000gn/T//cc9Mn9JC.s:23     .text.tcp_accept_null:0000000000000000 tcp_accept_null
/var/folders/5n/p_75w94d66l9ssrldxqdhh700000gn/T//cc9Mn9JC.s:40     .text.tcp_new_port:0000000000000000 $t
/var/folders/5n/p_75w94d66l9ssrldxqdhh700000gn/T//cc9Mn9JC.s:45     .text.tcp_new_port:0000000000000000 tcp_new_port
/var/folders/5n/p_75w94d66l9ssrldxqdhh700000gn/T//cc9Mn9JC.s:108    .text.tcp_new_port:0000000000000040 $d
/var/folders/5n/p_75w94d66l9ssrldxqdhh700000gn/T//cc9Mn9JC.s:115    .text.tcp_bind:0000000000000000 $t
/var/folders/5n/p_75w94d66l9ssrldxqdhh700000gn/T//cc9Mn9JC.s:121    .text.tcp_bind:0000000000000000 tcp_bind
/var/folders/5n/p_75w94d66l9ssrldxqdhh700000gn/T//cc9Mn9JC.s:237    .text.tcp_bind:000000000000006c $d
/var/folders/5n/p_75w94d66l9ssrldxqdhh700000gn/T//cc9Mn9JC.s:243    .text.tcp_listen_with_backlog:0000000000000000 $t
/var/folders/5n/p_75w94d66l9ssrldxqdhh700000gn/T//cc9Mn9JC.s:249    .text.tcp_listen_with_backlog:0000000000000000 tcp_listen_with_backlog
/var/folders/5n/p_75w94d66l9ssrldxqdhh700000gn/T//cc9Mn9JC.s:396    .text.tcp_listen_with_backlog:00000000000000a4 $d
/var/folders/5n/p_75w94d66l9ssrldxqdhh700000gn/T//cc9Mn9JC.s:404    .text.tcp_update_rcv_ann_wnd:0000000000000000 $t
/var/folders/5n/p_75w94d66l9ssrldxqdhh700000gn/T//cc9Mn9JC.s:410    .text.tcp_update_rcv_ann_wnd:0000000000000000 tcp_update_rcv_ann_wnd
/var/folders/5n/p_75w94d66l9ssrldxqdhh700000gn/T//cc9Mn9JC.s:485    .text.tcp_recved:0000000000000000 $t
/var/folders/5n/p_75w94d66l9ssrldxqdhh700000gn/T//cc9Mn9JC.s:491    .text.tcp_recved:0000000000000000 tcp_recved
/var/folders/5n/p_75w94d66l9ssrldxqdhh700000gn/T//cc9Mn9JC.s:565    .text.tcp_seg_free:0000000000000000 $t
/var/folders/5n/p_75w94d66l9ssrldxqdhh700000gn/T//cc9Mn9JC.s:571    .text.tcp_seg_free:0000000000000000 tcp_seg_free
/var/folders/5n/p_75w94d66l9ssrldxqdhh700000gn/T//cc9Mn9JC.s:606    .text.tcp_segs_free:0000000000000000 $t
/var/folders/5n/p_75w94d66l9ssrldxqdhh700000gn/T//cc9Mn9JC.s:612    .text.tcp_segs_free:0000000000000000 tcp_segs_free
/var/folders/5n/p_75w94d66l9ssrldxqdhh700000gn/T//cc9Mn9JC.s:652    .text.tcp_setprio:0000000000000000 $t
/var/folders/5n/p_75w94d66l9ssrldxqdhh700000gn/T//cc9Mn9JC.s:658    .text.tcp_setprio:0000000000000000 tcp_setprio
/var/folders/5n/p_75w94d66l9ssrldxqdhh700000gn/T//cc9Mn9JC.s:674    .text.tcp_seg_copy:0000000000000000 $t
/var/folders/5n/p_75w94d66l9ssrldxqdhh700000gn/T//cc9Mn9JC.s:680    .text.tcp_seg_copy:0000000000000000 tcp_seg_copy
/var/folders/5n/p_75w94d66l9ssrldxqdhh700000gn/T//cc9Mn9JC.s:720    .text.tcp_arg:0000000000000000 $t
/var/folders/5n/p_75w94d66l9ssrldxqdhh700000gn/T//cc9Mn9JC.s:726    .text.tcp_arg:0000000000000000 tcp_arg
/var/folders/5n/p_75w94d66l9ssrldxqdhh700000gn/T//cc9Mn9JC.s:742    .text.tcp_recv:0000000000000000 $t
/var/folders/5n/p_75w94d66l9ssrldxqdhh700000gn/T//cc9Mn9JC.s:748    .text.tcp_recv:0000000000000000 tcp_recv
/var/folders/5n/p_75w94d66l9ssrldxqdhh700000gn/T//cc9Mn9JC.s:764    .text.tcp_sent:0000000000000000 $t
/var/folders/5n/p_75w94d66l9ssrldxqdhh700000gn/T//cc9Mn9JC.s:770    .text.tcp_sent:0000000000000000 tcp_sent
/var/folders/5n/p_75w94d66l9ssrldxqdhh700000gn/T//cc9Mn9JC.s:786    .text.tcp_err:0000000000000000 $t
/var/folders/5n/p_75w94d66l9ssrldxqdhh700000gn/T//cc9Mn9JC.s:792    .text.tcp_err:0000000000000000 tcp_err
/var/folders/5n/p_75w94d66l9ssrldxqdhh700000gn/T//cc9Mn9JC.s:808    .text.tcp_accept:0000000000000000 $t
/var/folders/5n/p_75w94d66l9ssrldxqdhh700000gn/T//cc9Mn9JC.s:814    .text.tcp_accept:0000000000000000 tcp_accept
/var/folders/5n/p_75w94d66l9ssrldxqdhh700000gn/T//cc9Mn9JC.s:830    .text.tcp_poll:0000000000000000 $t
/var/folders/5n/p_75w94d66l9ssrldxqdhh700000gn/T//cc9Mn9JC.s:836    .text.tcp_poll:0000000000000000 tcp_poll
/var/folders/5n/p_75w94d66l9ssrldxqdhh700000gn/T//cc9Mn9JC.s:854    .text.tcp_pcb_purge:0000000000000000 $t
/var/folders/5n/p_75w94d66l9ssrldxqdhh700000gn/T//cc9Mn9JC.s:860    .text.tcp_pcb_purge:0000000000000000 tcp_pcb_purge
/var/folders/5n/p_75w94d66l9ssrldxqdhh700000gn/T//cc9Mn9JC.s:931    .text.tcp_slowtmr:0000000000000000 $t
/var/folders/5n/p_75w94d66l9ssrldxqdhh700000gn/T//cc9Mn9JC.s:937    .text.tcp_slowtmr:0000000000000000 tcp_slowtmr
/var/folders/5n/p_75w94d66l9ssrldxqdhh700000gn/T//cc9Mn9JC.s:3235   .rodata.tcp_persist_backoff:0000000000000000 .LANCHOR7
/var/folders/5n/p_75w94d66l9ssrldxqdhh700000gn/T//cc9Mn9JC.s:3163   .rodata.tcp_backoff:0000000000000000 .LANCHOR8
/var/folders/5n/p_75w94d66l9ssrldxqdhh700000gn/T//cc9Mn9JC.s:1449   .text.tcp_slowtmr:0000000000000308 $d
/var/folders/5n/p_75w94d66l9ssrldxqdhh700000gn/T//cc9Mn9JC.s:1455   .text.tcp_slowtmr:0000000000000314 $t
/var/folders/5n/p_75w94d66l9ssrldxqdhh700000gn/T//cc9Mn9JC.s:1538   .text.tcp_pcb_remove:0000000000000000 $t
/var/folders/5n/p_75w94d66l9ssrldxqdhh700000gn/T//cc9Mn9JC.s:1544   .text.tcp_pcb_remove:0000000000000000 tcp_pcb_remove
/var/folders/5n/p_75w94d66l9ssrldxqdhh700000gn/T//cc9Mn9JC.s:1663   .text.tcp_pcb_remove:0000000000000088 $d
/var/folders/5n/p_75w94d66l9ssrldxqdhh700000gn/T//cc9Mn9JC.s:1668   .text.tcp_abandon:0000000000000000 $t
/var/folders/5n/p_75w94d66l9ssrldxqdhh700000gn/T//cc9Mn9JC.s:1674   .text.tcp_abandon:0000000000000000 tcp_abandon
/var/folders/5n/p_75w94d66l9ssrldxqdhh700000gn/T//cc9Mn9JC.s:1808   .text.tcp_abandon:000000000000009c $d
/var/folders/5n/p_75w94d66l9ssrldxqdhh700000gn/T//cc9Mn9JC.s:1814   .text.tcp_abort:0000000000000000 $t
/var/folders/5n/p_75w94d66l9ssrldxqdhh700000gn/T//cc9Mn9JC.s:1820   .text.tcp_abort:0000000000000000 tcp_abort
/var/folders/5n/p_75w94d66l9ssrldxqdhh700000gn/T//cc9Mn9JC.s:1838   .text.tcp_alloc:0000000000000000 $t
/var/folders/5n/p_75w94d66l9ssrldxqdhh700000gn/T//cc9Mn9JC.s:1844   .text.tcp_alloc:0000000000000000 tcp_alloc
/var/folders/5n/p_75w94d66l9ssrldxqdhh700000gn/T//cc9Mn9JC.s:2089   .text.tcp_alloc:0000000000000124 $d
/var/folders/5n/p_75w94d66l9ssrldxqdhh700000gn/T//cc9Mn9JC.s:2519   .text.tcp_recv_null:0000000000000000 tcp_recv_null
ARM GAS  /var/folders/5n/p_75w94d66l9ssrldxqdhh700000gn/T//cc9Mn9JC.s 			page 180


/var/folders/5n/p_75w94d66l9ssrldxqdhh700000gn/T//cc9Mn9JC.s:2099   .text.tcp_new:0000000000000000 $t
/var/folders/5n/p_75w94d66l9ssrldxqdhh700000gn/T//cc9Mn9JC.s:2105   .text.tcp_new:0000000000000000 tcp_new
/var/folders/5n/p_75w94d66l9ssrldxqdhh700000gn/T//cc9Mn9JC.s:2121   .text.tcp_close_shutdown:0000000000000000 $t
/var/folders/5n/p_75w94d66l9ssrldxqdhh700000gn/T//cc9Mn9JC.s:2126   .text.tcp_close_shutdown:0000000000000000 tcp_close_shutdown
/var/folders/5n/p_75w94d66l9ssrldxqdhh700000gn/T//cc9Mn9JC.s:2230   .text.tcp_close_shutdown:0000000000000082 $d
/var/folders/5n/p_75w94d66l9ssrldxqdhh700000gn/T//cc9Mn9JC.s:2238   .text.tcp_close_shutdown:000000000000008a $t
/var/folders/5n/p_75w94d66l9ssrldxqdhh700000gn/T//cc9Mn9JC.s:2387   .text.tcp_close_shutdown:0000000000000134 $d
/var/folders/5n/p_75w94d66l9ssrldxqdhh700000gn/T//cc9Mn9JC.s:2396   .text.tcp_shutdown:0000000000000000 $t
/var/folders/5n/p_75w94d66l9ssrldxqdhh700000gn/T//cc9Mn9JC.s:2402   .text.tcp_shutdown:0000000000000000 tcp_shutdown
/var/folders/5n/p_75w94d66l9ssrldxqdhh700000gn/T//cc9Mn9JC.s:2481   .text.tcp_close:0000000000000000 $t
/var/folders/5n/p_75w94d66l9ssrldxqdhh700000gn/T//cc9Mn9JC.s:2487   .text.tcp_close:0000000000000000 tcp_close
/var/folders/5n/p_75w94d66l9ssrldxqdhh700000gn/T//cc9Mn9JC.s:2513   .text.tcp_recv_null:0000000000000000 $t
/var/folders/5n/p_75w94d66l9ssrldxqdhh700000gn/T//cc9Mn9JC.s:2576   .text.tcp_fasttmr:0000000000000000 $t
/var/folders/5n/p_75w94d66l9ssrldxqdhh700000gn/T//cc9Mn9JC.s:2582   .text.tcp_fasttmr:0000000000000000 tcp_fasttmr
/var/folders/5n/p_75w94d66l9ssrldxqdhh700000gn/T//cc9Mn9JC.s:2690   .text.tcp_fasttmr:000000000000006c $d
/var/folders/5n/p_75w94d66l9ssrldxqdhh700000gn/T//cc9Mn9JC.s:2697   .text.tcp_tmr:0000000000000000 $t
/var/folders/5n/p_75w94d66l9ssrldxqdhh700000gn/T//cc9Mn9JC.s:2703   .text.tcp_tmr:0000000000000000 tcp_tmr
/var/folders/5n/p_75w94d66l9ssrldxqdhh700000gn/T//cc9Mn9JC.s:2733   .text.tcp_tmr:0000000000000020 $d
/var/folders/5n/p_75w94d66l9ssrldxqdhh700000gn/T//cc9Mn9JC.s:2738   .text.tcp_next_iss:0000000000000000 $t
/var/folders/5n/p_75w94d66l9ssrldxqdhh700000gn/T//cc9Mn9JC.s:2744   .text.tcp_next_iss:0000000000000000 tcp_next_iss
/var/folders/5n/p_75w94d66l9ssrldxqdhh700000gn/T//cc9Mn9JC.s:3136   .bss.tcp_ticks:0000000000000000 .LANCHOR5
/var/folders/5n/p_75w94d66l9ssrldxqdhh700000gn/T//cc9Mn9JC.s:3149   .data.iss.3245:0000000000000000 .LANCHOR10
/var/folders/5n/p_75w94d66l9ssrldxqdhh700000gn/T//cc9Mn9JC.s:2766   .text.tcp_eff_send_mss:0000000000000000 $t
/var/folders/5n/p_75w94d66l9ssrldxqdhh700000gn/T//cc9Mn9JC.s:2772   .text.tcp_eff_send_mss:0000000000000000 tcp_eff_send_mss
/var/folders/5n/p_75w94d66l9ssrldxqdhh700000gn/T//cc9Mn9JC.s:2816   .text.tcp_connect:0000000000000000 $t
/var/folders/5n/p_75w94d66l9ssrldxqdhh700000gn/T//cc9Mn9JC.s:2822   .text.tcp_connect:0000000000000000 tcp_connect
/var/folders/5n/p_75w94d66l9ssrldxqdhh700000gn/T//cc9Mn9JC.s:3056   .text.tcp_connect:0000000000000108 $d
/var/folders/5n/p_75w94d66l9ssrldxqdhh700000gn/T//cc9Mn9JC.s:3066   .text.tcp_debug_state_str:0000000000000000 $t
/var/folders/5n/p_75w94d66l9ssrldxqdhh700000gn/T//cc9Mn9JC.s:3072   .text.tcp_debug_state_str:0000000000000000 tcp_debug_state_str
/var/folders/5n/p_75w94d66l9ssrldxqdhh700000gn/T//cc9Mn9JC.s:3109   .rodata.tcp_state_str:0000000000000000 .LANCHOR12
/var/folders/5n/p_75w94d66l9ssrldxqdhh700000gn/T//cc9Mn9JC.s:3199   .bss.tcp_tmp_pcb:0000000000000000 tcp_tmp_pcb
/var/folders/5n/p_75w94d66l9ssrldxqdhh700000gn/T//cc9Mn9JC.s:3129   .rodata.tcp_pcb_lists:0000000000000000 tcp_pcb_lists
/var/folders/5n/p_75w94d66l9ssrldxqdhh700000gn/T//cc9Mn9JC.s:3192   .bss.tcp_tw_pcbs:0000000000000000 tcp_tw_pcbs
/var/folders/5n/p_75w94d66l9ssrldxqdhh700000gn/T//cc9Mn9JC.s:3185   .bss.tcp_active_pcbs:0000000000000000 tcp_active_pcbs
/var/folders/5n/p_75w94d66l9ssrldxqdhh700000gn/T//cc9Mn9JC.s:3159   .bss.tcp_listen_pcbs:0000000000000000 tcp_listen_pcbs
/var/folders/5n/p_75w94d66l9ssrldxqdhh700000gn/T//cc9Mn9JC.s:3251   .bss.tcp_bound_pcbs:0000000000000000 tcp_bound_pcbs
/var/folders/5n/p_75w94d66l9ssrldxqdhh700000gn/T//cc9Mn9JC.s:3238   .rodata.tcp_persist_backoff:0000000000000000 tcp_persist_backoff
/var/folders/5n/p_75w94d66l9ssrldxqdhh700000gn/T//cc9Mn9JC.s:3166   .rodata.tcp_backoff:0000000000000000 tcp_backoff
/var/folders/5n/p_75w94d66l9ssrldxqdhh700000gn/T//cc9Mn9JC.s:3139   .bss.tcp_ticks:0000000000000000 tcp_ticks
/var/folders/5n/p_75w94d66l9ssrldxqdhh700000gn/T//cc9Mn9JC.s:3112   .rodata.tcp_state_str:0000000000000000 tcp_state_str
/var/folders/5n/p_75w94d66l9ssrldxqdhh700000gn/T//cc9Mn9JC.s:3101   .data.port.3109:0000000000000000 $d
/var/folders/5n/p_75w94d66l9ssrldxqdhh700000gn/T//cc9Mn9JC.s:3105   .data.port.3109:0000000000000000 port.3109
/var/folders/5n/p_75w94d66l9ssrldxqdhh700000gn/T//cc9Mn9JC.s:3108   .rodata.tcp_state_str:0000000000000000 $d
/var/folders/5n/p_75w94d66l9ssrldxqdhh700000gn/T//cc9Mn9JC.s:3125   .rodata.tcp_pcb_lists:0000000000000000 $d
/var/folders/5n/p_75w94d66l9ssrldxqdhh700000gn/T//cc9Mn9JC.s:3135   .bss.tcp_ticks:0000000000000000 $d
/var/folders/5n/p_75w94d66l9ssrldxqdhh700000gn/T//cc9Mn9JC.s:3145   .bss.tcp_timer:0000000000000000 tcp_timer
/var/folders/5n/p_75w94d66l9ssrldxqdhh700000gn/T//cc9Mn9JC.s:3146   .bss.tcp_timer:0000000000000000 $d
/var/folders/5n/p_75w94d66l9ssrldxqdhh700000gn/T//cc9Mn9JC.s:3148   .data.iss.3245:0000000000000000 $d
/var/folders/5n/p_75w94d66l9ssrldxqdhh700000gn/T//cc9Mn9JC.s:3152   .data.iss.3245:0000000000000000 iss.3245
/var/folders/5n/p_75w94d66l9ssrldxqdhh700000gn/T//cc9Mn9JC.s:3155   .bss.tcp_listen_pcbs:0000000000000000 $d
/var/folders/5n/p_75w94d66l9ssrldxqdhh700000gn/T//cc9Mn9JC.s:3162   .rodata.tcp_backoff:0000000000000000 $d
/var/folders/5n/p_75w94d66l9ssrldxqdhh700000gn/T//cc9Mn9JC.s:3181   .bss.tcp_active_pcbs:0000000000000000 $d
/var/folders/5n/p_75w94d66l9ssrldxqdhh700000gn/T//cc9Mn9JC.s:3188   .bss.tcp_tw_pcbs:0000000000000000 $d
/var/folders/5n/p_75w94d66l9ssrldxqdhh700000gn/T//cc9Mn9JC.s:3195   .bss.tcp_tmp_pcb:0000000000000000 $d
/var/folders/5n/p_75w94d66l9ssrldxqdhh700000gn/T//cc9Mn9JC.s:3202   .rodata.str1.4:0000000000000000 $d
/var/folders/5n/p_75w94d66l9ssrldxqdhh700000gn/T//cc9Mn9JC.s:3234   .rodata.tcp_persist_backoff:0000000000000000 $d
/var/folders/5n/p_75w94d66l9ssrldxqdhh700000gn/T//cc9Mn9JC.s:3247   .bss.tcp_bound_pcbs:0000000000000000 $d
ARM GAS  /var/folders/5n/p_75w94d66l9ssrldxqdhh700000gn/T//cc9Mn9JC.s 			page 181


                     .debug_frame:0000000000000010 $d
/var/folders/5n/p_75w94d66l9ssrldxqdhh700000gn/T//cc9Mn9JC.s:114    .text.tcp_new_port:000000000000004c $t
/var/folders/5n/p_75w94d66l9ssrldxqdhh700000gn/T//cc9Mn9JC.s:242    .text.tcp_bind:0000000000000074 $t
/var/folders/5n/p_75w94d66l9ssrldxqdhh700000gn/T//cc9Mn9JC.s:403    .text.tcp_listen_with_backlog:00000000000000b4 $t
/var/folders/5n/p_75w94d66l9ssrldxqdhh700000gn/T//cc9Mn9JC.s:1667   .text.tcp_pcb_remove:000000000000008c $t
/var/folders/5n/p_75w94d66l9ssrldxqdhh700000gn/T//cc9Mn9JC.s:1813   .text.tcp_abandon:00000000000000a4 $t
/var/folders/5n/p_75w94d66l9ssrldxqdhh700000gn/T//cc9Mn9JC.s:2098   .text.tcp_alloc:000000000000013c $t
/var/folders/5n/p_75w94d66l9ssrldxqdhh700000gn/T//cc9Mn9JC.s:2395   .text.tcp_close_shutdown:0000000000000148 $t
/var/folders/5n/p_75w94d66l9ssrldxqdhh700000gn/T//cc9Mn9JC.s:2737   .text.tcp_tmr:0000000000000024 $t
/var/folders/5n/p_75w94d66l9ssrldxqdhh700000gn/T//cc9Mn9JC.s:3065   .text.tcp_connect:000000000000011c $t

UNDEFINED SYMBOLS
tcp_timer_needed
port_halt
memp_malloc
memp_free
tcp_output
pbuf_free
memcpy
pbuf_ref
tcp_zero_window_probe
tcp_rexmit_rto
tcp_rst
tcp_keepalive
memset
lwip_stats
tcp_send_fin
ip_route
tcp_enqueue_flags
