ARM GAS  /var/folders/5n/p_75w94d66l9ssrldxqdhh700000gn/T//cc9Mn9JC.s 			page 1


   1              		.syntax unified
   2              		.cpu cortex-m4
   3              		.fpu softvfp
   4              		.eabi_attribute 20, 1
   5              		.eabi_attribute 21, 1
   6              		.eabi_attribute 23, 3
   7              		.eabi_attribute 24, 1
   8              		.eabi_attribute 25, 1
   9              		.eabi_attribute 26, 1
  10              		.eabi_attribute 30, 2
  11              		.eabi_attribute 18, 4
  12              		.thumb
  13              		.file	"tcp.c"
  14              		.text
  15              	.Ltext0:
  16              		.cfi_sections	.debug_frame
  17              		.section	.text.tcp_accept_null,"ax",%progbits
  18              		.align	2
  19              		.p2align 4,,15
  20              		.thumb
  21              		.thumb_func
  22              		.type	tcp_accept_null, %function
  23              	tcp_accept_null:
  24              	.LFB14:
  25              		.file 1 "../../ext/lwip/src/core/tcp.c"
  26              		.loc 1 459 0
  27              		.cfi_startproc
  28              		@ args = 0, pretend = 0, frame = 0
  29              		@ frame_needed = 0, uses_anonymous_args = 0
  30              		@ link register save eliminated.
  31              	.LVL0:
  32              		.loc 1 465 0
  33 0000 6FF00900 		mvn	r0, #9
  34              	.LVL1:
  35 0004 7047     		bx	lr
  36              		.cfi_endproc
  37              	.LFE14:
  38              		.size	tcp_accept_null, .-tcp_accept_null
  39 0006 00BFAFF3 		.section	.text.tcp_new_port,"ax",%progbits
  39      0080AFF3 
  39      0080
  40              		.align	2
  41              		.p2align 4,,15
  42              		.thumb
  43              		.thumb_func
  44              		.type	tcp_new_port, %function
  45              	tcp_new_port:
  46              	.LFB18:
  47              		.loc 1 610 0
  48              		.cfi_startproc
  49              		@ args = 0, pretend = 0, frame = 0
  50              		@ frame_needed = 0, uses_anonymous_args = 0
  51              		@ link register save eliminated.
  52              	.L3:
  53 0000 F0B4     		push	{r4, r5, r6, r7}
  54              	.LCFI0:
  55              		.cfi_def_cfa_offset 16
ARM GAS  /var/folders/5n/p_75w94d66l9ssrldxqdhh700000gn/T//cc9Mn9JC.s 			page 2


  56              		.cfi_offset 7, -4
  57              		.cfi_offset 6, -8
  58              		.cfi_offset 5, -12
  59              		.cfi_offset 4, -16
  60              		.loc 1 622 0
  61 0002 0F4E     		ldr	r6, .L19
  62              		.loc 1 609 0
  63 0004 0F4F     		ldr	r7, .L19+4
  64              		.loc 1 622 0
  65 0006 3088     		ldrh	r0, [r6, #0]
  66 0008 4FF6FF75 		movw	r5, #65535
  67              	.L16:
  68 000c 411C     		adds	r1, r0, #1
  69 000e A842     		cmp	r0, r5
  70 0010 89B2     		uxth	r1, r1
  71              		.loc 1 623 0
  72 0012 08BF     		it	eq
  73 0014 4FF44040 		moveq	r0, #49152
  74              		.loc 1 622 0
  75 0018 0B4A     		ldr	r2, .L19+8
  76 001a 0CBF     		ite	eq
  77 001c 0146     		moveq	r1, r0
  78 001e 0846     		movne	r0, r1
  79              	.LVL2:
  80              	.L11:
  81              		.loc 1 627 0
  82 0020 52F8043F 		ldr	r3, [r2, #4]!
  83 0024 1B68     		ldr	r3, [r3, #0]
  84              	.LVL3:
  85 0026 2BB1     		cbz	r3, .L6
  86              	.LVL4:
  87              	.L10:
  88              		.loc 1 628 0
  89 0028 9C8B     		ldrh	r4, [r3, #28]
  90 002a 8442     		cmp	r4, r0
  91 002c EED0     		beq	.L16
  92              		.loc 1 627 0
  93 002e DB68     		ldr	r3, [r3, #12]
  94              	.LVL5:
  95 0030 002B     		cmp	r3, #0
  96 0032 F9D1     		bne	.L10
  97              	.L6:
  98              		.loc 1 626 0
  99 0034 BA42     		cmp	r2, r7
 100 0036 F3D1     		bne	.L11
 101 0038 3180     		strh	r1, [r6, #0]	@ movhi
 102              		.loc 1 634 0
 103 003a F0BC     		pop	{r4, r5, r6, r7}
 104 003c 7047     		bx	lr
 105              	.L20:
 106 003e 00BF     		.align	2
 107              	.L19:
 108 0040 00000000 		.word	.LANCHOR0
 109 0044 0C000000 		.word	.LANCHOR1+12
 110 0048 FCFFFFFF 		.word	.LANCHOR1-4
 111              		.cfi_endproc
 112              	.LFE18:
ARM GAS  /var/folders/5n/p_75w94d66l9ssrldxqdhh700000gn/T//cc9Mn9JC.s 			page 3


 113              		.size	tcp_new_port, .-tcp_new_port
 114 004c AFF30080 		.section	.text.tcp_bind,"ax",%progbits
 115              		.align	2
 116              		.p2align 4,,15
 117              		.global	tcp_bind
 118              		.thumb
 119              		.thumb_func
 120              		.type	tcp_bind, %function
 121              	tcp_bind:
 122              	.LFB13:
 123              		.loc 1 401 0
 124              		.cfi_startproc
 125              		@ args = 0, pretend = 0, frame = 0
 126              		@ frame_needed = 0, uses_anonymous_args = 0
 127              	.LVL6:
 128 0000 F8B5     		push	{r3, r4, r5, r6, r7, lr}
 129              	.LCFI1:
 130              		.cfi_def_cfa_offset 24
 131              		.cfi_offset 14, -4
 132              		.cfi_offset 7, -8
 133              		.cfi_offset 6, -12
 134              		.cfi_offset 5, -16
 135              		.cfi_offset 4, -20
 136              		.cfi_offset 3, -24
 137              		.loc 1 406 0
 138 0002 037C     		ldrb	r3, [r0, #16]	@ zero_extendqisi2
 139              		.loc 1 401 0
 140 0004 0446     		mov	r4, r0
 141 0006 0D46     		mov	r5, r1
 142              		.loc 1 406 0
 143 0008 002B     		cmp	r3, #0
 144 000a 2BD1     		bne	.L37
 145              		.loc 1 419 0
 146 000c 32B3     		cbz	r2, .L38
 147              	.LVL7:
 148              	.L24:
 149              		.loc 1 420 0
 150 000e 174E     		ldr	r6, .L39
 151              		.loc 1 400 0
 152 0010 06F11007 		add	r7, r6, #16
 153              	.LVL8:
 154              	.L28:
 155              		.loc 1 425 0
 156 0014 56F8043F 		ldr	r3, [r6, #4]!
 157 0018 1B68     		ldr	r3, [r3, #0]
 158              	.LVL9:
 159 001a 13B9     		cbnz	r3, .L34
 160 001c 0EE0     		b	.L25
 161              	.LVL10:
 162              	.L26:
 163 001e DB68     		ldr	r3, [r3, #12]
 164              	.LVL11:
 165 0020 63B1     		cbz	r3, .L25
 166              	.L34:
 167              		.loc 1 426 0
 168 0022 998B     		ldrh	r1, [r3, #28]
 169 0024 9142     		cmp	r1, r2
ARM GAS  /var/folders/5n/p_75w94d66l9ssrldxqdhh700000gn/T//cc9Mn9JC.s 			page 4


 170 0026 FAD1     		bne	.L26
 171              		.loc 1 435 0
 172 0028 1968     		ldr	r1, [r3, #0]
 173 002a 21B1     		cbz	r1, .L33
 174              		.loc 1 435 0 is_stmt 0 discriminator 1
 175 002c 1DB1     		cbz	r5, .L33
 176              		.loc 1 436 0 is_stmt 1
 177 002e 2868     		ldr	r0, [r5, #0]
 178 0030 08B1     		cbz	r0, .L33
 179              		.loc 1 436 0 is_stmt 0 discriminator 1
 180 0032 8142     		cmp	r1, r0
 181 0034 F3D1     		bne	.L26
 182              	.L33:
 183              		.loc 1 438 0 is_stmt 1
 184 0036 F820     		movs	r0, #248
 185              	.LVL12:
 186              	.L23:
 187              		.loc 1 452 0
 188 0038 40B2     		sxtb	r0, r0
 189 003a F8BD     		pop	{r3, r4, r5, r6, r7, pc}
 190              	.LVL13:
 191              	.L25:
 192              		.loc 1 424 0
 193 003c BE42     		cmp	r6, r7
 194 003e E9D1     		bne	.L28
 195              		.loc 1 445 0
 196 0040 15B1     		cbz	r5, .L29
 197              		.loc 1 445 0 is_stmt 0 discriminator 1
 198 0042 2B68     		ldr	r3, [r5, #0]
 199              	.LVL14:
 200 0044 03B1     		cbz	r3, .L29
 201              		.loc 1 446 0 is_stmt 1
 202 0046 2360     		str	r3, [r4, #0]
 203              	.L29:
 204              		.loc 1 449 0
 205 0048 094B     		ldr	r3, .L39+4
 206              		.loc 1 448 0
 207 004a A283     		strh	r2, [r4, #28]	@ movhi
 208              		.loc 1 449 0
 209 004c 1A68     		ldr	r2, [r3, #0]
 210              	.LVL15:
 211 004e 1C60     		str	r4, [r3, #0]
 212 0050 E260     		str	r2, [r4, #12]
 213 0052 FFF7FEFF 		bl	tcp_timer_needed
 214              		.loc 1 451 0
 215 0056 0020     		movs	r0, #0
 216              		.loc 1 452 0
 217 0058 40B2     		sxtb	r0, r0
 218 005a F8BD     		pop	{r3, r4, r5, r6, r7, pc}
 219              	.LVL16:
 220              	.L38:
 221              		.loc 1 420 0
 222 005c FFF7FEFF 		bl	tcp_new_port
 223              	.LVL17:
 224 0060 0246     		mov	r2, r0
 225              	.LVL18:
 226 0062 D4E7     		b	.L24
ARM GAS  /var/folders/5n/p_75w94d66l9ssrldxqdhh700000gn/T//cc9Mn9JC.s 			page 5


 227              	.LVL19:
 228              	.L37:
 229              		.loc 1 406 0 discriminator 1
 230 0064 FFF7FEFF 		bl	port_halt
 231              	.LVL20:
 232 0068 FA20     		movs	r0, #250
 233 006a E5E7     		b	.L23
 234              	.L40:
 235              		.align	2
 236              	.L39:
 237 006c FCFFFFFF 		.word	.LANCHOR1-4
 238 0070 00000000 		.word	.LANCHOR2
 239              		.cfi_endproc
 240              	.LFE13:
 241              		.size	tcp_bind, .-tcp_bind
 242 0074 AFF30080 		.section	.text.tcp_listen_with_backlog,"ax",%progbits
 242      AFF30080 
 242      AFF30080 
 243              		.align	2
 244              		.p2align 4,,15
 245              		.global	tcp_listen_with_backlog
 246              		.thumb
 247              		.thumb_func
 248              		.type	tcp_listen_with_backlog, %function
 249              	tcp_listen_with_backlog:
 250              	.LFB15:
 251              		.loc 1 484 0
 252              		.cfi_startproc
 253              		@ args = 0, pretend = 0, frame = 0
 254              		@ frame_needed = 0, uses_anonymous_args = 0
 255              	.LVL21:
 256 0000 38B5     		push	{r3, r4, r5, lr}
 257              	.LCFI2:
 258              		.cfi_def_cfa_offset 16
 259              		.cfi_offset 14, -4
 260              		.cfi_offset 5, -8
 261              		.cfi_offset 4, -12
 262              		.cfi_offset 3, -16
 263              		.loc 1 488 0
 264 0002 037C     		ldrb	r3, [r0, #16]	@ zero_extendqisi2
 265              		.loc 1 484 0
 266 0004 0546     		mov	r5, r0
 267              		.loc 1 488 0
 268 0006 002B     		cmp	r3, #0
 269 0008 46D1     		bne	.L55
 270              		.loc 1 509 0
 271 000a 0320     		movs	r0, #3
 272              	.LVL22:
 273 000c FFF7FEFF 		bl	memp_malloc
 274              	.LVL23:
 275              		.loc 1 510 0
 276 0010 0446     		mov	r4, r0
 277 0012 0028     		cmp	r0, #0
 278 0014 44D0     		beq	.L51
 279              		.loc 1 514 0
 280 0016 AB8B     		ldrh	r3, [r5, #28]
 281              		.loc 1 513 0
ARM GAS  /var/folders/5n/p_75w94d66l9ssrldxqdhh700000gn/T//cc9Mn9JC.s 			page 6


 282 0018 6A69     		ldr	r2, [r5, #20]
 283              		.loc 1 514 0
 284 001a 8383     		strh	r3, [r0, #28]	@ movhi
 285              		.loc 1 515 0
 286 001c 0123     		movs	r3, #1
 287              		.loc 1 513 0
 288 001e 4261     		str	r2, [r0, #20]
 289              		.loc 1 515 0
 290 0020 0374     		strb	r3, [r0, #16]
 291              		.loc 1 516 0
 292 0022 6B7C     		ldrb	r3, [r5, #17]	@ zero_extendqisi2
 293 0024 4374     		strb	r3, [r0, #17]
 294              		.loc 1 518 0
 295 0026 2B7A     		ldrb	r3, [r5, #8]	@ zero_extendqisi2
 296 0028 43F00203 		orr	r3, r3, #2
 297 002c 0372     		strb	r3, [r0, #8]
 298              		.loc 1 519 0
 299 002e AB7A     		ldrb	r3, [r5, #10]	@ zero_extendqisi2
 300 0030 8372     		strb	r3, [r0, #10]
 301              		.loc 1 520 0
 302 0032 6B7A     		ldrb	r3, [r5, #9]	@ zero_extendqisi2
 303 0034 4372     		strb	r3, [r0, #9]
 304              		.loc 1 521 0
 305 0036 2A68     		ldr	r2, [r5, #0]
 306              		.loc 1 522 0
 307 0038 AB8B     		ldrh	r3, [r5, #28]
 308              		.loc 1 521 0
 309 003a 0260     		str	r2, [r0, #0]
 310              		.loc 1 522 0
 311 003c 9BB1     		cbz	r3, .L44
 312              		.loc 1 523 0
 313 003e 194B     		ldr	r3, .L60
 314 0040 1A68     		ldr	r2, [r3, #0]
 315 0042 AA42     		cmp	r2, r5
 316 0044 25D0     		beq	.L56
 317              		.loc 1 523 0 is_stmt 0 discriminator 2
 318 0046 1849     		ldr	r1, .L60+4
 319 0048 0A60     		str	r2, [r1, #0]
 320 004a 52B1     		cbz	r2, .L46
 321              		.loc 1 523 0
 322 004c D368     		ldr	r3, [r2, #12]
 323 004e AB42     		cmp	r3, r5
 324 0050 1DD0     		beq	.L57
 325              		.loc 1 523 0 discriminator 5
 326 0052 2BB1     		cbz	r3, .L58
 327              	.L50:
 328              		.loc 1 523 0 discriminator 7
 329 0054 DA68     		ldr	r2, [r3, #12]
 330 0056 AA42     		cmp	r2, r5
 331 0058 13D0     		beq	.L59
 332              		.loc 1 523 0
 333 005a 1346     		mov	r3, r2
 334 005c 002B     		cmp	r3, #0
 335 005e F9D1     		bne	.L50
 336              	.L58:
 337 0060 0B60     		str	r3, [r1, #0]
 338              	.L46:
ARM GAS  /var/folders/5n/p_75w94d66l9ssrldxqdhh700000gn/T//cc9Mn9JC.s 			page 7


 339              		.loc 1 523 0 discriminator 6
 340 0062 0023     		movs	r3, #0
 341 0064 EB60     		str	r3, [r5, #12]
 342              	.L44:
 343              		.loc 1 525 0 is_stmt 1
 344 0066 0220     		movs	r0, #2
 345              	.LVL24:
 346 0068 2946     		mov	r1, r5
 347 006a FFF7FEFF 		bl	memp_free
 348              		.loc 1 533 0
 349 006e 0F4B     		ldr	r3, .L60+8
 350              		.loc 1 527 0
 351 0070 0F49     		ldr	r1, .L60+12
 352              		.loc 1 533 0
 353 0072 1A68     		ldr	r2, [r3, #0]
 354              		.loc 1 527 0
 355 0074 A161     		str	r1, [r4, #24]
 356              		.loc 1 533 0
 357 0076 E260     		str	r2, [r4, #12]
 358 0078 1C60     		str	r4, [r3, #0]
 359 007a FFF7FEFF 		bl	tcp_timer_needed
 360              		.loc 1 534 0
 361 007e 2046     		mov	r0, r4
 362 0080 38BD     		pop	{r3, r4, r5, pc}
 363              	.L59:
 364              		.loc 1 523 0
 365 0082 0B60     		str	r3, [r1, #0]
 366              	.L47:
 367              		.loc 1 523 0 is_stmt 0 discriminator 4
 368 0084 EA68     		ldr	r2, [r5, #12]
 369 0086 DA60     		str	r2, [r3, #12]
 370 0088 0023     		movs	r3, #0
 371 008a EB60     		str	r3, [r5, #12]
 372 008c EBE7     		b	.L44
 373              	.L57:
 374              		.loc 1 523 0
 375 008e 1346     		mov	r3, r2
 376 0090 F8E7     		b	.L47
 377              	.L56:
 378              		.loc 1 523 0 discriminator 1
 379 0092 EA68     		ldr	r2, [r5, #12]
 380 0094 1A60     		str	r2, [r3, #0]
 381 0096 E4E7     		b	.L46
 382              	.LVL25:
 383              	.L55:
 384              		.loc 1 488 0 is_stmt 1 discriminator 1
 385 0098 FFF7FEFF 		bl	port_halt
 386              	.LVL26:
 387 009c 0020     		movs	r0, #0
 388 009e 38BD     		pop	{r3, r4, r5, pc}
 389              	.LVL27:
 390              	.L51:
 391              		.loc 1 535 0
 392 00a0 38BD     		pop	{r3, r4, r5, pc}
 393              	.L61:
 394 00a2 00BF     		.align	2
 395              	.L60:
ARM GAS  /var/folders/5n/p_75w94d66l9ssrldxqdhh700000gn/T//cc9Mn9JC.s 			page 8


 396 00a4 00000000 		.word	.LANCHOR2
 397 00a8 00000000 		.word	.LANCHOR3
 398 00ac 00000000 		.word	.LANCHOR4
 399 00b0 00000000 		.word	tcp_accept_null
 400              		.cfi_endproc
 401              	.LFE15:
 402              		.size	tcp_listen_with_backlog, .-tcp_listen_with_backlog
 403 00b4 AFF30080 		.section	.text.tcp_update_rcv_ann_wnd,"ax",%progbits
 403      AFF30080 
 403      AFF30080 
 404              		.align	2
 405              		.p2align 4,,15
 406              		.global	tcp_update_rcv_ann_wnd
 407              		.thumb
 408              		.thumb_func
 409              		.type	tcp_update_rcv_ann_wnd, %function
 410              	tcp_update_rcv_ann_wnd:
 411              	.LFB16:
 412              		.loc 1 544 0
 413              		.cfi_startproc
 414              		@ args = 0, pretend = 0, frame = 0
 415              		@ frame_needed = 0, uses_anonymous_args = 0
 416              	.LVL28:
 417 0000 38B5     		push	{r3, r4, r5, lr}
 418              	.LCFI3:
 419              		.cfi_def_cfa_offset 16
 420              		.cfi_offset 14, -4
 421              		.cfi_offset 5, -8
 422              		.cfi_offset 4, -12
 423              		.cfi_offset 3, -16
 424              		.loc 1 547 0
 425 0002 C16A     		ldr	r1, [r0, #44]
 426              		.loc 1 545 0
 427 0004 038D     		ldrh	r3, [r0, #40]
 428 0006 426A     		ldr	r2, [r0, #36]
 429              	.LVL29:
 430              		.loc 1 547 0
 431 0008 058F     		ldrh	r5, [r0, #56]
 432              		.loc 1 544 0
 433 000a 0446     		mov	r4, r0
 434              		.loc 1 545 0
 435 000c 581A     		subs	r0, r3, r1
 436              	.LVL30:
 437              		.loc 1 547 0
 438 000e B5F5866F 		cmp	r5, #1072
 439 0012 28BF     		it	cs
 440 0014 4FF48665 		movcs	r5, #1072
 441 0018 8018     		adds	r0, r0, r2
 442 001a 451B     		subs	r5, r0, r5
 443 001c 002D     		cmp	r5, #0
 444 001e 01DB     		blt	.L64
 445              		.loc 1 549 0
 446 0020 6385     		strh	r3, [r4, #42]	@ movhi
 447              		.loc 1 550 0
 448 0022 38BD     		pop	{r3, r4, r5, pc}
 449              	.L64:
 450              		.loc 1 552 0
ARM GAS  /var/folders/5n/p_75w94d66l9ssrldxqdhh700000gn/T//cc9Mn9JC.s 			page 9


 451 0024 531A     		subs	r3, r2, r1
 452              	.LVL31:
 453 0026 002B     		cmp	r3, #0
 454 0028 02DD     		ble	.L66
 455              		.loc 1 555 0
 456 002a 0020     		movs	r0, #0
 457 002c 6085     		strh	r0, [r4, #42]	@ movhi
 458 002e 38BD     		pop	{r3, r4, r5, pc}
 459              	.L66:
 460              	.LBB11:
 461              		.loc 1 558 0
 462 0030 8D1A     		subs	r5, r1, r2
 463              	.LVL32:
 464              		.loc 1 559 0
 465 0032 B5F5803F 		cmp	r5, #65536
 466 0036 02D2     		bcs	.L69
 467              	.L67:
 468              		.loc 1 560 0
 469 0038 6585     		strh	r5, [r4, #42]	@ movhi
 470              		.loc 1 562 0
 471 003a 0020     		movs	r0, #0
 472              	.LBE11:
 473              		.loc 1 564 0
 474 003c 38BD     		pop	{r3, r4, r5, pc}
 475              	.L69:
 476              	.LBB12:
 477              		.loc 1 559 0 discriminator 1
 478 003e FFF7FEFF 		bl	port_halt
 479 0042 F9E7     		b	.L67
 480              	.LBE12:
 481              		.cfi_endproc
 482              	.LFE16:
 483              		.size	tcp_update_rcv_ann_wnd, .-tcp_update_rcv_ann_wnd
 484 0044 AFF30080 		.section	.text.tcp_recved,"ax",%progbits
 484      AFF30080 
 484      AFF30080 
 485              		.align	2
 486              		.p2align 4,,15
 487              		.global	tcp_recved
 488              		.thumb
 489              		.thumb_func
 490              		.type	tcp_recved, %function
 491              	tcp_recved:
 492              	.LFB17:
 493              		.loc 1 576 0
 494              		.cfi_startproc
 495              		@ args = 0, pretend = 0, frame = 0
 496              		@ frame_needed = 0, uses_anonymous_args = 0
 497              	.LVL33:
 498              		.loc 1 579 0
 499 0000 028D     		ldrh	r2, [r0, #40]
 500              		.loc 1 576 0
 501 0002 38B5     		push	{r3, r4, r5, lr}
 502              	.LCFI4:
 503              		.cfi_def_cfa_offset 16
 504              		.cfi_offset 14, -4
 505              		.cfi_offset 5, -8
ARM GAS  /var/folders/5n/p_75w94d66l9ssrldxqdhh700000gn/T//cc9Mn9JC.s 			page 10


 506              		.cfi_offset 4, -12
 507              		.cfi_offset 3, -16
 508              		.loc 1 579 0
 509 0004 C2F57F43 		rsb	r3, r2, #65280
 510 0008 FF33     		adds	r3, r3, #255
 511 000a 8B42     		cmp	r3, r1
 512              		.loc 1 576 0
 513 000c 0446     		mov	r4, r0
 514 000e 0D46     		mov	r5, r1
 515              		.loc 1 579 0
 516 0010 1BDB     		blt	.L74
 517              	.LVL34:
 518              	.L71:
 519              		.loc 1 582 0
 520 0012 5219     		adds	r2, r2, r5
 521 0014 92B2     		uxth	r2, r2
 522              		.loc 1 583 0
 523 0016 B2F5066F 		cmp	r2, #2144
 524              		.loc 1 584 0
 525 001a 88BF     		it	hi
 526 001c 4FF40663 		movhi	r3, #2144
 527              		.loc 1 582 0
 528 0020 2285     		strh	r2, [r4, #40]	@ movhi
 529              		.loc 1 587 0
 530 0022 2046     		mov	r0, r4
 531              		.loc 1 584 0
 532 0024 88BF     		it	hi
 533 0026 2385     		strhhi	r3, [r4, #40]	@ movhi
 534              		.loc 1 587 0
 535 0028 FFF7FEFF 		bl	tcp_update_rcv_ann_wnd
 536              	.LVL35:
 537              		.loc 1 593 0
 538 002c B0F5067F 		cmp	r0, #536
 539 0030 00DA     		bge	.L75
 540 0032 38BD     		pop	{r3, r4, r5, pc}
 541              	.L75:
 542              		.loc 1 594 0
 543 0034 94F82030 		ldrb	r3, [r4, #32]	@ zero_extendqisi2
 544              		.loc 1 595 0
 545 0038 2046     		mov	r0, r4
 546              	.LVL36:
 547              		.loc 1 594 0
 548 003a 43F00203 		orr	r3, r3, #2
 549 003e 84F82030 		strb	r3, [r4, #32]
 550              		.loc 1 600 0
 551 0042 BDE83840 		pop	{r3, r4, r5, lr}
 552              		.loc 1 595 0
 553 0046 FFF7FEBF 		b	tcp_output
 554              	.LVL37:
 555              	.L74:
 556              		.loc 1 579 0 discriminator 1
 557 004a FFF7FEFF 		bl	port_halt
 558              	.LVL38:
 559 004e 228D     		ldrh	r2, [r4, #40]
 560 0050 DFE7     		b	.L71
 561              		.cfi_endproc
 562              	.LFE17:
ARM GAS  /var/folders/5n/p_75w94d66l9ssrldxqdhh700000gn/T//cc9Mn9JC.s 			page 11


 563              		.size	tcp_recved, .-tcp_recved
 564 0052 00BFAFF3 		.section	.text.tcp_seg_free,"ax",%progbits
 564      0080AFF3 
 564      0080AFF3 
 564      0080
 565              		.align	2
 566              		.p2align 4,,15
 567              		.global	tcp_seg_free
 568              		.thumb
 569              		.thumb_func
 570              		.type	tcp_seg_free, %function
 571              	tcp_seg_free:
 572              	.LFB23:
 573              		.loc 1 1047 0
 574              		.cfi_startproc
 575              		@ args = 0, pretend = 0, frame = 0
 576              		@ frame_needed = 0, uses_anonymous_args = 0
 577              	.LVL39:
 578 0000 10B5     		push	{r4, lr}
 579              	.LCFI5:
 580              		.cfi_def_cfa_offset 8
 581              		.cfi_offset 14, -4
 582              		.cfi_offset 4, -8
 583              		.loc 1 1048 0
 584 0002 0446     		mov	r4, r0
 585 0004 48B1     		cbz	r0, .L76
 586              		.loc 1 1049 0
 587 0006 4068     		ldr	r0, [r0, #4]
 588              	.LVL40:
 589 0008 08B1     		cbz	r0, .L78
 590              		.loc 1 1050 0
 591 000a FFF7FEFF 		bl	pbuf_free
 592              	.L78:
 593              		.loc 1 1055 0
 594 000e 0420     		movs	r0, #4
 595 0010 2146     		mov	r1, r4
 596              		.loc 1 1057 0
 597 0012 BDE81040 		pop	{r4, lr}
 598              		.loc 1 1055 0
 599 0016 FFF7FEBF 		b	memp_free
 600              	.L76:
 601 001a 10BD     		pop	{r4, pc}
 602              		.cfi_endproc
 603              	.LFE23:
 604              		.size	tcp_seg_free, .-tcp_seg_free
 605 001c AFF30080 		.section	.text.tcp_segs_free,"ax",%progbits
 606              		.align	2
 607              		.p2align 4,,15
 608              		.global	tcp_segs_free
 609              		.thumb
 610              		.thumb_func
 611              		.type	tcp_segs_free, %function
 612              	tcp_segs_free:
 613              	.LFB22:
 614              		.loc 1 1032 0
 615              		.cfi_startproc
 616              		@ args = 0, pretend = 0, frame = 0
ARM GAS  /var/folders/5n/p_75w94d66l9ssrldxqdhh700000gn/T//cc9Mn9JC.s 			page 12


 617              		@ frame_needed = 0, uses_anonymous_args = 0
 618              	.LVL41:
 619 0000 10B5     		push	{r4, lr}
 620              	.LCFI6:
 621              		.cfi_def_cfa_offset 8
 622              		.cfi_offset 14, -4
 623              		.cfi_offset 4, -8
 624              		.loc 1 1033 0
 625 0002 08B9     		cbnz	r0, .L83
 626 0004 06E0     		b	.L85
 627              	.LVL42:
 628              	.L82:
 629              		.loc 1 1036 0
 630 0006 2046     		mov	r0, r4
 631              	.LVL43:
 632              	.L83:
 633              	.LBB13:
 634              		.loc 1 1034 0
 635 0008 0468     		ldr	r4, [r0, #0]
 636              	.LVL44:
 637              		.loc 1 1035 0
 638 000a FFF7FEFF 		bl	tcp_seg_free
 639              	.LVL45:
 640              	.LBE13:
 641              		.loc 1 1033 0
 642 000e 002C     		cmp	r4, #0
 643 0010 F9D1     		bne	.L82
 644 0012 10BD     		pop	{r4, pc}
 645              	.LVL46:
 646              	.L85:
 647 0014 10BD     		pop	{r4, pc}
 648              		.cfi_endproc
 649              	.LFE22:
 650              		.size	tcp_segs_free, .-tcp_segs_free
 651 0016 00BFAFF3 		.section	.text.tcp_setprio,"ax",%progbits
 651      0080AFF3 
 651      0080
 652              		.align	2
 653              		.p2align 4,,15
 654              		.global	tcp_setprio
 655              		.thumb
 656              		.thumb_func
 657              		.type	tcp_setprio, %function
 658              	tcp_setprio:
 659              	.LFB24:
 660              		.loc 1 1067 0
 661              		.cfi_startproc
 662              		@ args = 0, pretend = 0, frame = 0
 663              		@ frame_needed = 0, uses_anonymous_args = 0
 664              		@ link register save eliminated.
 665              	.LVL47:
 666              		.loc 1 1068 0
 667 0000 4174     		strb	r1, [r0, #17]
 668              		.loc 1 1069 0
 669 0002 7047     		bx	lr
 670              		.cfi_endproc
 671              	.LFE24:
ARM GAS  /var/folders/5n/p_75w94d66l9ssrldxqdhh700000gn/T//cc9Mn9JC.s 			page 13


 672              		.size	tcp_setprio, .-tcp_setprio
 673 0004 AFF30080 		.section	.text.tcp_seg_copy,"ax",%progbits
 673      AFF30080 
 673      AFF30080 
 674              		.align	2
 675              		.p2align 4,,15
 676              		.global	tcp_seg_copy
 677              		.thumb
 678              		.thumb_func
 679              		.type	tcp_seg_copy, %function
 680              	tcp_seg_copy:
 681              	.LFB25:
 682              		.loc 1 1081 0
 683              		.cfi_startproc
 684              		@ args = 0, pretend = 0, frame = 0
 685              		@ frame_needed = 0, uses_anonymous_args = 0
 686              	.LVL48:
 687 0000 38B5     		push	{r3, r4, r5, lr}
 688              	.LCFI7:
 689              		.cfi_def_cfa_offset 16
 690              		.cfi_offset 14, -4
 691              		.cfi_offset 5, -8
 692              		.cfi_offset 4, -12
 693              		.cfi_offset 3, -16
 694              		.loc 1 1081 0
 695 0002 0546     		mov	r5, r0
 696              		.loc 1 1084 0
 697 0004 0420     		movs	r0, #4
 698              	.LVL49:
 699 0006 FFF7FEFF 		bl	memp_malloc
 700              	.LVL50:
 701              		.loc 1 1085 0
 702 000a 0446     		mov	r4, r0
 703 000c 30B1     		cbz	r0, .L88
 704              		.loc 1 1088 0
 705 000e 2946     		mov	r1, r5
 706 0010 1022     		movs	r2, #16
 707 0012 FFF7FEFF 		bl	memcpy
 708              	.LVL51:
 709              		.loc 1 1089 0
 710 0016 6068     		ldr	r0, [r4, #4]
 711 0018 FFF7FEFF 		bl	pbuf_ref
 712              	.L88:
 713              		.loc 1 1091 0
 714 001c 2046     		mov	r0, r4
 715 001e 38BD     		pop	{r3, r4, r5, pc}
 716              		.cfi_endproc
 717              	.LFE25:
 718              		.size	tcp_seg_copy, .-tcp_seg_copy
 719              		.section	.text.tcp_arg,"ax",%progbits
 720              		.align	2
 721              		.p2align 4,,15
 722              		.global	tcp_arg
 723              		.thumb
 724              		.thumb_func
 725              		.type	tcp_arg, %function
 726              	tcp_arg:
ARM GAS  /var/folders/5n/p_75w94d66l9ssrldxqdhh700000gn/T//cc9Mn9JC.s 			page 14


 727              	.LFB31:
 728              		.loc 1 1278 0
 729              		.cfi_startproc
 730              		@ args = 0, pretend = 0, frame = 0
 731              		@ frame_needed = 0, uses_anonymous_args = 0
 732              		@ link register save eliminated.
 733              	.LVL52:
 734              		.loc 1 1279 0
 735 0000 4161     		str	r1, [r0, #20]
 736              		.loc 1 1280 0
 737 0002 7047     		bx	lr
 738              		.cfi_endproc
 739              	.LFE31:
 740              		.size	tcp_arg, .-tcp_arg
 741 0004 AFF30080 		.section	.text.tcp_recv,"ax",%progbits
 741      AFF30080 
 741      AFF30080 
 742              		.align	2
 743              		.p2align 4,,15
 744              		.global	tcp_recv
 745              		.thumb
 746              		.thumb_func
 747              		.type	tcp_recv, %function
 748              	tcp_recv:
 749              	.LFB32:
 750              		.loc 1 1292 0
 751              		.cfi_startproc
 752              		@ args = 0, pretend = 0, frame = 0
 753              		@ frame_needed = 0, uses_anonymous_args = 0
 754              		@ link register save eliminated.
 755              	.LVL53:
 756              		.loc 1 1293 0
 757 0000 C0F88810 		str	r1, [r0, #136]
 758              		.loc 1 1294 0
 759 0004 7047     		bx	lr
 760              		.cfi_endproc
 761              	.LFE32:
 762              		.size	tcp_recv, .-tcp_recv
 763 0006 00BFAFF3 		.section	.text.tcp_sent,"ax",%progbits
 763      0080AFF3 
 763      0080
 764              		.align	2
 765              		.p2align 4,,15
 766              		.global	tcp_sent
 767              		.thumb
 768              		.thumb_func
 769              		.type	tcp_sent, %function
 770              	tcp_sent:
 771              	.LFB33:
 772              		.loc 1 1305 0
 773              		.cfi_startproc
 774              		@ args = 0, pretend = 0, frame = 0
 775              		@ frame_needed = 0, uses_anonymous_args = 0
 776              		@ link register save eliminated.
 777              	.LVL54:
 778              		.loc 1 1306 0
 779 0000 C0F88410 		str	r1, [r0, #132]
ARM GAS  /var/folders/5n/p_75w94d66l9ssrldxqdhh700000gn/T//cc9Mn9JC.s 			page 15


 780              		.loc 1 1307 0
 781 0004 7047     		bx	lr
 782              		.cfi_endproc
 783              	.LFE33:
 784              		.size	tcp_sent, .-tcp_sent
 785 0006 00BFAFF3 		.section	.text.tcp_err,"ax",%progbits
 785      0080AFF3 
 785      0080
 786              		.align	2
 787              		.p2align 4,,15
 788              		.global	tcp_err
 789              		.thumb
 790              		.thumb_func
 791              		.type	tcp_err, %function
 792              	tcp_err:
 793              	.LFB34:
 794              		.loc 1 1319 0
 795              		.cfi_startproc
 796              		@ args = 0, pretend = 0, frame = 0
 797              		@ frame_needed = 0, uses_anonymous_args = 0
 798              		@ link register save eliminated.
 799              	.LVL55:
 800              		.loc 1 1320 0
 801 0000 C0F89410 		str	r1, [r0, #148]
 802              		.loc 1 1321 0
 803 0004 7047     		bx	lr
 804              		.cfi_endproc
 805              	.LFE34:
 806              		.size	tcp_err, .-tcp_err
 807 0006 00BFAFF3 		.section	.text.tcp_accept,"ax",%progbits
 807      0080AFF3 
 807      0080
 808              		.align	2
 809              		.p2align 4,,15
 810              		.global	tcp_accept
 811              		.thumb
 812              		.thumb_func
 813              		.type	tcp_accept, %function
 814              	tcp_accept:
 815              	.LFB35:
 816              		.loc 1 1333 0
 817              		.cfi_startproc
 818              		@ args = 0, pretend = 0, frame = 0
 819              		@ frame_needed = 0, uses_anonymous_args = 0
 820              		@ link register save eliminated.
 821              	.LVL56:
 822              		.loc 1 1334 0
 823 0000 8161     		str	r1, [r0, #24]
 824              		.loc 1 1335 0
 825 0002 7047     		bx	lr
 826              		.cfi_endproc
 827              	.LFE35:
 828              		.size	tcp_accept, .-tcp_accept
 829 0004 AFF30080 		.section	.text.tcp_poll,"ax",%progbits
 829      AFF30080 
 829      AFF30080 
 830              		.align	2
ARM GAS  /var/folders/5n/p_75w94d66l9ssrldxqdhh700000gn/T//cc9Mn9JC.s 			page 16


 831              		.p2align 4,,15
 832              		.global	tcp_poll
 833              		.thumb
 834              		.thumb_func
 835              		.type	tcp_poll, %function
 836              	tcp_poll:
 837              	.LFB36:
 838              		.loc 1 1347 0
 839              		.cfi_startproc
 840              		@ args = 0, pretend = 0, frame = 0
 841              		@ frame_needed = 0, uses_anonymous_args = 0
 842              		@ link register save eliminated.
 843              	.LVL57:
 844              		.loc 1 1349 0
 845 0000 C0F89010 		str	r1, [r0, #144]
 846              		.loc 1 1353 0
 847 0004 80F83520 		strb	r2, [r0, #53]
 848              		.loc 1 1354 0
 849 0008 7047     		bx	lr
 850              		.cfi_endproc
 851              	.LFE36:
 852              		.size	tcp_poll, .-tcp_poll
 853 000a 00BFAFF3 		.section	.text.tcp_pcb_purge,"ax",%progbits
 853      0080
 854              		.align	2
 855              		.p2align 4,,15
 856              		.global	tcp_pcb_purge
 857              		.thumb
 858              		.thumb_func
 859              		.type	tcp_pcb_purge, %function
 860              	tcp_pcb_purge:
 861              	.LFB37:
 862              		.loc 1 1364 0
 863              		.cfi_startproc
 864              		@ args = 0, pretend = 0, frame = 0
 865              		@ frame_needed = 0, uses_anonymous_args = 0
 866              	.LVL58:
 867 0000 38B5     		push	{r3, r4, r5, lr}
 868              	.LCFI8:
 869              		.cfi_def_cfa_offset 16
 870              		.cfi_offset 14, -4
 871              		.cfi_offset 5, -8
 872              		.cfi_offset 4, -12
 873              		.cfi_offset 3, -16
 874              		.loc 1 1365 0
 875 0002 037C     		ldrb	r3, [r0, #16]	@ zero_extendqisi2
 876 0004 0A2B     		cmp	r3, #10
 877 0006 18BF     		it	ne
 878 0008 002B     		cmpne	r3, #0
 879              		.loc 1 1364 0
 880 000a 0446     		mov	r4, r0
 881              		.loc 1 1365 0
 882 000c 1BD0     		beq	.L95
 883              		.loc 1 1366 0
 884 000e 012B     		cmp	r3, #1
 885 0010 19D0     		beq	.L95
 886              	.LVL59:
ARM GAS  /var/folders/5n/p_75w94d66l9ssrldxqdhh700000gn/T//cc9Mn9JC.s 			page 17


 887              	.LBB16:
 888              	.LBB17:
 889              		.loc 1 1392 0
 890 0012 D0F88000 		ldr	r0, [r0, #128]
 891              	.LVL60:
 892 0016 20B1     		cbz	r0, .L97
 893              		.loc 1 1394 0
 894 0018 FFF7FEFF 		bl	pbuf_free
 895              		.loc 1 1395 0
 896 001c 0023     		movs	r3, #0
 897 001e C4F88030 		str	r3, [r4, #128]
 898              	.L97:
 899              		.loc 1 1407 0
 900 0022 E06F     		ldr	r0, [r4, #124]
 901 0024 FFF7FEFF 		bl	tcp_segs_free
 902              		.loc 1 1408 0
 903 0028 0025     		movs	r5, #0
 904              		.loc 1 1413 0
 905 002a 4FF6FF73 		movw	r3, #65535
 906              		.loc 1 1415 0
 907 002e 606F     		ldr	r0, [r4, #116]
 908              		.loc 1 1413 0
 909 0030 E386     		strh	r3, [r4, #54]	@ movhi
 910              		.loc 1 1408 0
 911 0032 E567     		str	r5, [r4, #124]
 912              		.loc 1 1415 0
 913 0034 FFF7FEFF 		bl	tcp_segs_free
 914              		.loc 1 1416 0
 915 0038 A06F     		ldr	r0, [r4, #120]
 916 003a FFF7FEFF 		bl	tcp_segs_free
 917              		.loc 1 1417 0
 918 003e 6567     		str	r5, [r4, #116]
 919 0040 A567     		str	r5, [r4, #120]
 920              		.loc 1 1419 0
 921 0042 A4F87250 		strh	r5, [r4, #114]	@ movhi
 922              	.LVL61:
 923              	.L95:
 924 0046 38BD     		pop	{r3, r4, r5, pc}
 925              	.LBE17:
 926              	.LBE16:
 927              		.cfi_endproc
 928              	.LFE37:
 929              		.size	tcp_pcb_purge, .-tcp_pcb_purge
 930 0048 AFF30080 		.section	.text.tcp_slowtmr,"ax",%progbits
 930      AFF30080 
 931              		.align	2
 932              		.p2align 4,,15
 933              		.global	tcp_slowtmr
 934              		.thumb
 935              		.thumb_func
 936              		.type	tcp_slowtmr, %function
 937              	tcp_slowtmr:
 938              	.LFB20:
 939              		.loc 1 751 0
 940              		.cfi_startproc
 941              		@ args = 0, pretend = 0, frame = 8
 942              		@ frame_needed = 0, uses_anonymous_args = 0
ARM GAS  /var/folders/5n/p_75w94d66l9ssrldxqdhh700000gn/T//cc9Mn9JC.s 			page 18


 943              	.LVL62:
 944 0000 2DE9F04F 		push	{r4, r5, r6, r7, r8, r9, sl, fp, lr}
 945              	.LCFI9:
 946              		.cfi_def_cfa_offset 36
 947              		.cfi_offset 14, -4
 948              		.cfi_offset 11, -8
 949              		.cfi_offset 10, -12
 950              		.cfi_offset 9, -16
 951              		.cfi_offset 8, -20
 952              		.cfi_offset 7, -24
 953              		.cfi_offset 6, -28
 954              		.cfi_offset 5, -32
 955              		.cfi_offset 4, -36
 956              		.loc 1 760 0
 957 0004 C04D     		ldr	r5, .L164
 958              		.loc 1 764 0
 959 0006 C14F     		ldr	r7, .L164+4
 960              		.loc 1 760 0
 961 0008 2B68     		ldr	r3, [r5, #0]
 962              		.loc 1 764 0
 963 000a 3C68     		ldr	r4, [r7, #0]
 964              		.loc 1 760 0
 965 000c 0133     		adds	r3, r3, #1
 966              		.loc 1 751 0
 967 000e 85B0     		sub	sp, sp, #20
 968              	.LCFI10:
 969              		.cfi_def_cfa_offset 56
 970              		.loc 1 760 0
 971 0010 2B60     		str	r3, [r5, #0]
 972              	.LVL63:
 973              		.loc 1 768 0
 974 0012 002C     		cmp	r4, #0
 975 0014 00F0A880 		beq	.L99
 976              		.loc 1 868 0
 977 0018 42F2F840 		movw	r0, #9464
 978              		.loc 1 768 0
 979 001c 0026     		movs	r6, #0
 980              		.loc 1 852 0
 981 001e 44F6D358 		movw	r8, #19923
 982              		.loc 1 868 0
 983 0022 C0F20100 		movt	r0, 1
 984              		.loc 1 774 0
 985 0026 B146     		mov	r9, r6
 986              		.loc 1 852 0
 987 0028 C1F26208 		movt	r8, 4194
 988              		.loc 1 868 0
 989 002c 0390     		str	r0, [sp, #12]
 990              	.LVL64:
 991              	.L128:
 992              		.loc 1 770 0
 993 002e 237C     		ldrb	r3, [r4, #16]	@ zero_extendqisi2
 994 0030 002B     		cmp	r3, #0
 995 0032 00F03E81 		beq	.L152
 996              		.loc 1 771 0
 997 0036 012B     		cmp	r3, #1
 998 0038 00F04181 		beq	.L153
 999              	.L101:
ARM GAS  /var/folders/5n/p_75w94d66l9ssrldxqdhh700000gn/T//cc9Mn9JC.s 			page 19


 1000              		.loc 1 772 0
 1001 003c 0A2B     		cmp	r3, #10
 1002 003e 00F04481 		beq	.L154
 1003              	.L102:
 1004              	.LVL65:
 1005              		.loc 1 777 0
 1006 0042 022B     		cmp	r3, #2
 1007 0044 94F84A20 		ldrb	r2, [r4, #74]	@ zero_extendqisi2
 1008 0048 00F04781 		beq	.L103
 1009              	.L104:
 1010              		.loc 1 781 0
 1011 004c 0C2A     		cmp	r2, #12
 1012              		.loc 1 782 0
 1013 004e 08BF     		it	eq
 1014 0050 4FF0010B 		moveq	fp, #1
 1015              		.loc 1 781 0
 1016 0054 20D0     		beq	.L106
 1017              		.loc 1 785 0
 1018 0056 94F8A010 		ldrb	r1, [r4, #160]	@ zero_extendqisi2
 1019 005a 0029     		cmp	r1, #0
 1020 005c 00F0DF80 		beq	.L107
 1021              		.loc 1 789 0
 1022 0060 40F20002 		movw	r2, #:lower16:.LANCHOR7
 1023 0064 C0F20002 		movt	r2, #:upper16:.LANCHOR7
 1024 0068 5018     		adds	r0, r2, r1
 1025              		.loc 1 788 0
 1026 006a D4F89C20 		ldr	r2, [r4, #156]
 1027              		.loc 1 789 0
 1028 006e 10F8010C 		ldrb	r0, [r0, #-1]	@ zero_extendqisi2
 1029              		.loc 1 788 0
 1030 0072 0132     		adds	r2, r2, #1
 1031              		.loc 1 789 0
 1032 0074 8242     		cmp	r2, r0
 1033              		.loc 1 788 0
 1034 0076 C4F89C20 		str	r2, [r4, #156]
 1035              		.loc 1 789 0
 1036 007a C0F01781 		bcc	.L143
 1037              		.loc 1 791 0
 1038 007e 0629     		cmp	r1, #6
 1039              		.loc 1 790 0
 1040 0080 C4F89C90 		str	r9, [r4, #156]
 1041              		.loc 1 791 0
 1042 0084 02D8     		bhi	.L108
 1043              		.loc 1 792 0
 1044 0086 0131     		adds	r1, r1, #1
 1045 0088 84F8A010 		strb	r1, [r4, #160]
 1046              	.L108:
 1047              		.loc 1 794 0
 1048 008c 2046     		mov	r0, r4
 1049 008e FFF7FEFF 		bl	tcp_zero_window_probe
 1050 0092 237C     		ldrb	r3, [r4, #16]	@ zero_extendqisi2
 1051              		.loc 1 774 0
 1052 0094 4FF0000B 		mov	fp, #0
 1053              	.L106:
 1054              	.LVL66:
 1055              		.loc 1 834 0
 1056 0098 062B     		cmp	r3, #6
ARM GAS  /var/folders/5n/p_75w94d66l9ssrldxqdhh700000gn/T//cc9Mn9JC.s 			page 20


 1057 009a 00F0FD80 		beq	.L155
 1058              	.LVL67:
 1059              	.L105:
 1060              		.loc 1 843 0
 1061 009e 94F808A0 		ldrb	sl, [r4, #8]	@ zero_extendqisi2
 1062 00a2 1AF0080A 		ands	sl, sl, #8
 1063 00a6 2BD0     		beq	.L112
 1064              		.loc 1 843 0 is_stmt 0 discriminator 1
 1065 00a8 042B     		cmp	r3, #4
 1066 00aa 18BF     		it	ne
 1067 00ac 072B     		cmpne	r3, #7
 1068 00ae 14BF     		ite	ne
 1069 00b0 4FF0000A 		movne	sl, #0
 1070 00b4 4FF0010A 		moveq	sl, #1
 1071 00b8 22D1     		bne	.L112
 1072              		.loc 1 852 0 is_stmt 1
 1073 00ba D4F89820 		ldr	r2, [r4, #152]
 1074              		.loc 1 851 0
 1075 00be 2868     		ldr	r0, [r5, #0]
 1076 00c0 236B     		ldr	r3, [r4, #48]
 1077              		.loc 1 852 0
 1078 00c2 02F52421 		add	r1, r2, #671744
 1079 00c6 01F6B841 		addw	r1, r1, #3256
 1080              		.loc 1 851 0
 1081 00ca C31A     		subs	r3, r0, r3
 1082              		.loc 1 852 0
 1083 00cc A8FB0101 		umull	r0, r1, r8, r1
 1084              		.loc 1 851 0
 1085 00d0 B3EB511F 		cmp	r3, r1, lsr #5
 1086              		.loc 1 859 0
 1087 00d4 82BF     		ittt	hi
 1088 00d6 0BF1010B 		addhi	fp, fp, #1
 1089              	.LVL68:
 1090 00da 5FFA8BFB 		uxtbhi	fp, fp
 1091              	.LVL69:
 1092              		.loc 1 860 0
 1093 00de 4FF0010A 		movhi	sl, #1
 1094              		.loc 1 851 0
 1095 00e2 0DD8     		bhi	.L112
 1096              		.loc 1 868 0
 1097 00e4 94F8A110 		ldrb	r1, [r4, #161]	@ zero_extendqisi2
 1098 00e8 0398     		ldr	r0, [sp, #12]
 1099 00ea 00FB0122 		mla	r2, r0, r1, r2
 1100              		.loc 1 869 0
 1101 00ee A8FB0212 		umull	r1, r2, r8, r2
 1102              		.loc 1 867 0
 1103 00f2 B3EB521F 		cmp	r3, r2, lsr #5
 1104              		.loc 1 775 0
 1105 00f6 98BF     		it	ls
 1106 00f8 4FF0000A 		movls	sl, #0
 1107              		.loc 1 867 0
 1108 00fc 00F23081 		bhi	.L156
 1109              	.LVL70:
 1110              	.L112:
 1111              		.loc 1 881 0
 1112 0100 E06F     		ldr	r0, [r4, #124]
 1113 0102 50B1     		cbz	r0, .L114
ARM GAS  /var/folders/5n/p_75w94d66l9ssrldxqdhh700000gn/T//cc9Mn9JC.s 			page 21


 1114              		.loc 1 882 0 discriminator 1
 1115 0104 2968     		ldr	r1, [r5, #0]
 1116 0106 226B     		ldr	r2, [r4, #48]
 1117 0108 B4F94830 		ldrsh	r3, [r4, #72]
 1118 010c 8A1A     		subs	r2, r1, r2
 1119 010e 03EB4303 		add	r3, r3, r3, lsl #1
 1120              		.loc 1 881 0 discriminator 1
 1121 0112 B2EB430F 		cmp	r2, r3, lsl #1
 1122 0116 80F0F180 		bcs	.L157
 1123              	.L114:
 1124              		.loc 1 890 0
 1125 011a 237C     		ldrb	r3, [r4, #16]	@ zero_extendqisi2
 1126 011c 032B     		cmp	r3, #3
 1127 011e 00F0E380 		beq	.L158
 1128              		.loc 1 899 0
 1129 0122 092B     		cmp	r3, #9
 1130 0124 3CD0     		beq	.L159
 1131              	.LVL71:
 1132              	.L117:
 1133              		.loc 1 907 0
 1134 0126 BBF1000F 		cmp	fp, #0
 1135 012a 3ED1     		bne	.L118
 1136              	.LVL72:
 1137              		.loc 1 935 0
 1138 012c 94F83430 		ldrb	r3, [r4, #52]	@ zero_extendqisi2
 1139              		.loc 1 936 0
 1140 0130 94F83520 		ldrb	r2, [r4, #53]	@ zero_extendqisi2
 1141              		.loc 1 932 0
 1142 0134 D4F80CA0 		ldr	sl, [r4, #12]
 1143              	.LVL73:
 1144              		.loc 1 935 0
 1145 0138 0133     		adds	r3, r3, #1
 1146 013a DBB2     		uxtb	r3, r3
 1147              		.loc 1 936 0
 1148 013c 9A42     		cmp	r2, r3
 1149              		.loc 1 935 0
 1150 013e 84F83430 		strb	r3, [r4, #52]
 1151              		.loc 1 936 0
 1152 0142 0CD8     		bhi	.L148
 1153              		.loc 1 939 0
 1154 0144 D4F89030 		ldr	r3, [r4, #144]
 1155              		.loc 1 937 0
 1156 0148 84F834B0 		strb	fp, [r4, #52]
 1157              		.loc 1 939 0
 1158 014c 002B     		cmp	r3, #0
 1159 014e 00F0E180 		beq	.L127
 1160              		.loc 1 939 0 is_stmt 0 discriminator 1
 1161 0152 6069     		ldr	r0, [r4, #20]
 1162 0154 2146     		mov	r1, r4
 1163 0156 9847     		blx	r3
 1164              	.LVL74:
 1165              		.loc 1 941 0 is_stmt 1 discriminator 1
 1166 0158 0028     		cmp	r0, #0
 1167 015a 00F0DB80 		beq	.L127
 1168              	.LVL75:
 1169              	.L148:
 1170              		.loc 1 941 0 is_stmt 0
ARM GAS  /var/folders/5n/p_75w94d66l9ssrldxqdhh700000gn/T//cc9Mn9JC.s 			page 22


 1171 015e 2646     		mov	r6, r4
 1172              		.loc 1 932 0 is_stmt 1
 1173 0160 5446     		mov	r4, sl
 1174              	.LVL76:
 1175              		.loc 1 768 0
 1176 0162 002C     		cmp	r4, #0
 1177 0164 7FF463AF 		bne	.L128
 1178              	.LVL77:
 1179              	.L99:
 1180              		.loc 1 951 0
 1181 0168 694F     		ldr	r7, .L164+8
 1182 016a D7F80080 		ldr	r8, [r7, #0]
 1183              	.LVL78:
 1184              		.loc 1 952 0
 1185 016e B8F1000F 		cmp	r8, #0
 1186 0172 12D0     		beq	.L98
 1187 0174 0024     		movs	r4, #0
 1188              	.LVL79:
 1189              	.L136:
 1190              		.loc 1 953 0
 1191 0176 98F81030 		ldrb	r3, [r8, #16]	@ zero_extendqisi2
 1192 017a 0A2B     		cmp	r3, #10
 1193 017c 01D0     		beq	.L130
 1194              		.loc 1 953 0 is_stmt 0 discriminator 1
 1195 017e FFF7FEFF 		bl	port_halt
 1196              	.L130:
 1197              	.LVL80:
 1198              		.loc 1 957 0 is_stmt 1
 1199 0182 2A68     		ldr	r2, [r5, #0]
 1200 0184 D8F83030 		ldr	r3, [r8, #48]
 1201 0188 D31A     		subs	r3, r2, r3
 1202 018a F02B     		cmp	r3, #240
 1203 018c 2FD8     		bhi	.L131
 1204              	.LVL81:
 1205              		.loc 1 981 0
 1206 018e 4446     		mov	r4, r8
 1207 0190 D8F80C80 		ldr	r8, [r8, #12]
 1208              	.LVL82:
 1209              		.loc 1 952 0
 1210 0194 B8F1000F 		cmp	r8, #0
 1211 0198 EDD1     		bne	.L136
 1212              	.LVL83:
 1213              	.L98:
 1214              		.loc 1 984 0
 1215 019a 05B0     		add	sp, sp, #20
 1216 019c BDE8F08F 		pop	{r4, r5, r6, r7, r8, r9, sl, fp, pc}
 1217              	.LVL84:
 1218              	.L159:
 1219              		.loc 1 900 0
 1220 01a0 2A68     		ldr	r2, [r5, #0]
 1221 01a2 236B     		ldr	r3, [r4, #48]
 1222 01a4 D31A     		subs	r3, r2, r3
 1223 01a6 F02B     		cmp	r3, #240
 1224 01a8 BDD9     		bls	.L117
 1225              	.LVL85:
 1226              	.L118:
 1227              	.LBB18:
ARM GAS  /var/folders/5n/p_75w94d66l9ssrldxqdhh700000gn/T//cc9Mn9JC.s 			page 23


 1228              		.loc 1 909 0
 1229 01aa 2046     		mov	r0, r4
 1230 01ac FFF7FEFF 		bl	tcp_pcb_purge
 1231              		.loc 1 912 0
 1232 01b0 3B68     		ldr	r3, [r7, #0]
 1233              		.loc 1 911 0
 1234 01b2 002E     		cmp	r6, #0
 1235 01b4 00F0C480 		beq	.L120
 1236              		.loc 1 912 0
 1237 01b8 9C42     		cmp	r4, r3
 1238 01ba 00F0DC80 		beq	.L160
 1239              	.L121:
 1240              		.loc 1 913 0
 1241 01be E368     		ldr	r3, [r4, #12]
 1242 01c0 F360     		str	r3, [r6, #12]
 1243              	.L122:
 1244              		.loc 1 920 0
 1245 01c2 D4F89430 		ldr	r3, [r4, #148]
 1246 01c6 1BB1     		cbz	r3, .L124
 1247              		.loc 1 920 0 is_stmt 0 discriminator 1
 1248 01c8 6069     		ldr	r0, [r4, #20]
 1249 01ca 6FF00901 		mvn	r1, #9
 1250 01ce 9847     		blx	r3
 1251              	.L124:
 1252              		.loc 1 921 0 is_stmt 1
 1253 01d0 BAF1000F 		cmp	sl, #0
 1254 01d4 40F0A780 		bne	.L161
 1255              	.L125:
 1256              	.LVL86:
 1257              		.loc 1 927 0
 1258 01d8 D4F80CA0 		ldr	sl, [r4, #12]
 1259              	.LVL87:
 1260              		.loc 1 928 0
 1261 01dc 2146     		mov	r1, r4
 1262 01de 0220     		movs	r0, #2
 1263              		.loc 1 927 0
 1264 01e0 5446     		mov	r4, sl
 1265              	.LVL88:
 1266              		.loc 1 928 0
 1267 01e2 FFF7FEFF 		bl	memp_free
 1268              	.LVL89:
 1269              	.LBE18:
 1270              		.loc 1 768 0
 1271 01e6 002C     		cmp	r4, #0
 1272 01e8 7FF421AF 		bne	.L128
 1273 01ec BCE7     		b	.L99
 1274              	.LVL90:
 1275              	.L131:
 1276              	.LBB19:
 1277              		.loc 1 966 0
 1278 01ee 4046     		mov	r0, r8
 1279 01f0 FFF7FEFF 		bl	tcp_pcb_purge
 1280              		.loc 1 968 0
 1281 01f4 002C     		cmp	r4, #0
 1282 01f6 00F0AA80 		beq	.L162
 1283              		.loc 1 969 0
 1284 01fa 3B68     		ldr	r3, [r7, #0]
ARM GAS  /var/folders/5n/p_75w94d66l9ssrldxqdhh700000gn/T//cc9Mn9JC.s 			page 24


 1285 01fc 9845     		cmp	r8, r3
 1286 01fe 00F0BD80 		beq	.L163
 1287              	.L133:
 1288              		.loc 1 970 0
 1289 0202 D8F80C30 		ldr	r3, [r8, #12]
 1290 0206 E360     		str	r3, [r4, #12]
 1291 0208 D8F80C60 		ldr	r6, [r8, #12]
 1292              	.L134:
 1293              	.LVL91:
 1294              		.loc 1 978 0
 1295 020c 4146     		mov	r1, r8
 1296 020e 0220     		movs	r0, #2
 1297              		.loc 1 977 0
 1298 0210 B046     		mov	r8, r6
 1299              	.LVL92:
 1300              		.loc 1 978 0
 1301 0212 FFF7FEFF 		bl	memp_free
 1302              	.LVL93:
 1303              	.LBE19:
 1304              		.loc 1 952 0
 1305 0216 B8F1000F 		cmp	r8, #0
 1306 021a ACD1     		bne	.L136
 1307 021c BDE7     		b	.L98
 1308              	.LVL94:
 1309              	.L107:
 1310              		.loc 1 798 0
 1311 021e E18E     		ldrh	r1, [r4, #54]
 1312 0220 0804     		lsls	r0, r1, #16
 1313 0222 01D4     		bmi	.L109
 1314              		.loc 1 799 0
 1315 0224 0131     		adds	r1, r1, #1
 1316 0226 E186     		strh	r1, [r4, #54]	@ movhi
 1317              	.L109:
 1318              		.loc 1 801 0
 1319 0228 A16F     		ldr	r1, [r4, #120]
 1320              		.loc 1 774 0
 1321 022a 8B46     		mov	fp, r1
 1322              		.loc 1 801 0
 1323 022c 0029     		cmp	r1, #0
 1324 022e 3FF433AF 		beq	.L106
 1325              		.loc 1 801 0 is_stmt 0 discriminator 1
 1326 0232 B4F93600 		ldrsh	r0, [r4, #54]
 1327 0236 B4F94810 		ldrsh	r1, [r4, #72]
 1328 023a 8842     		cmp	r0, r1
 1329 023c 36DB     		blt	.L143
 1330              		.loc 1 809 0 is_stmt 1
 1331 023e 022B     		cmp	r3, #2
 1332 0240 0DD0     		beq	.L110
 1333              		.loc 1 810 0
 1334 0242 40F20000 		movw	r0, #:lower16:.LANCHOR8
 1335 0246 C0F20000 		movt	r0, #:upper16:.LANCHOR8
 1336 024a B4F94410 		ldrsh	r1, [r4, #68]
 1337 024e B4F94630 		ldrsh	r3, [r4, #70]
 1338 0252 825C     		ldrb	r2, [r0, r2]	@ zero_extendqisi2
 1339 0254 03EBE103 		add	r3, r3, r1, asr #3
 1340 0258 9340     		lsls	r3, r3, r2
 1341 025a A4F84830 		strh	r3, [r4, #72]	@ movhi
ARM GAS  /var/folders/5n/p_75w94d66l9ssrldxqdhh700000gn/T//cc9Mn9JC.s 			page 25


 1342              	.L110:
 1343              		.loc 1 817 0
 1344 025e B4F85210 		ldrh	r1, [r4, #82]
 1345 0262 B4F85C20 		ldrh	r2, [r4, #92]
 1346              		.loc 1 819 0
 1347 0266 238F     		ldrh	r3, [r4, #56]
 1348              		.loc 1 814 0
 1349 0268 A4F83690 		strh	r9, [r4, #54]	@ movhi
 1350              	.LVL95:
 1351              		.loc 1 818 0
 1352 026c 9142     		cmp	r1, r2
 1353 026e 38BF     		it	cc
 1354 0270 0A46     		movcc	r2, r1
 1355 0272 5208     		lsrs	r2, r2, #1
 1356              		.loc 1 819 0
 1357 0274 5900     		lsls	r1, r3, #1
 1358 0276 8A42     		cmp	r2, r1
 1359              		.loc 1 818 0
 1360 0278 A4F85420 		strh	r2, [r4, #84]	@ movhi
 1361              		.loc 1 822 0
 1362 027c A4F85230 		strh	r3, [r4, #82]	@ movhi
 1363              		.loc 1 820 0
 1364 0280 B8BF     		it	lt
 1365 0282 A4F85410 		strhlt	r1, [r4, #84]	@ movhi
 1366              		.loc 1 829 0
 1367 0286 2046     		mov	r0, r4
 1368 0288 FFF7FEFF 		bl	tcp_rexmit_rto
 1369              	.LVL96:
 1370 028c 237C     		ldrb	r3, [r4, #16]	@ zero_extendqisi2
 1371              		.loc 1 834 0
 1372 028e 062B     		cmp	r3, #6
 1373              		.loc 1 774 0
 1374 0290 4FF0000B 		mov	fp, #0
 1375              	.LVL97:
 1376              		.loc 1 834 0
 1377 0294 7FF403AF 		bne	.L105
 1378              	.LVL98:
 1379              	.L155:
 1380              		.loc 1 835 0
 1381 0298 2968     		ldr	r1, [r5, #0]
 1382 029a 226B     		ldr	r2, [r4, #48]
 1383 029c 8A1A     		subs	r2, r1, r2
 1384 029e 282A     		cmp	r2, #40
 1385              		.loc 1 837 0
 1386 02a0 84BF     		itt	hi
 1387 02a2 0BF1010B 		addhi	fp, fp, #1
 1388 02a6 5FFA8BFB 		uxtbhi	fp, fp
 1389              	.LVL99:
 1390 02aa F8E6     		b	.L105
 1391              	.LVL100:
 1392              	.L143:
 1393              		.loc 1 774 0
 1394 02ac 4FF0000B 		mov	fp, #0
 1395 02b0 F2E6     		b	.L106
 1396              	.LVL101:
 1397              	.L152:
 1398              		.loc 1 770 0 discriminator 1
ARM GAS  /var/folders/5n/p_75w94d66l9ssrldxqdhh700000gn/T//cc9Mn9JC.s 			page 26


 1399 02b2 FFF7FEFF 		bl	port_halt
 1400 02b6 237C     		ldrb	r3, [r4, #16]	@ zero_extendqisi2
 1401              		.loc 1 771 0 discriminator 1
 1402 02b8 012B     		cmp	r3, #1
 1403 02ba 7FF4BFAE 		bne	.L101
 1404              	.L153:
 1405 02be FFF7FEFF 		bl	port_halt
 1406 02c2 237C     		ldrb	r3, [r4, #16]	@ zero_extendqisi2
 1407              		.loc 1 772 0 discriminator 1
 1408 02c4 0A2B     		cmp	r3, #10
 1409 02c6 7FF4BCAE 		bne	.L102
 1410              	.L154:
 1411 02ca FFF7FEFF 		bl	port_halt
 1412 02ce 237C     		ldrb	r3, [r4, #16]	@ zero_extendqisi2
 1413              	.LVL102:
 1414              		.loc 1 777 0 discriminator 1
 1415 02d0 94F84A20 		ldrb	r2, [r4, #74]	@ zero_extendqisi2
 1416 02d4 022B     		cmp	r3, #2
 1417 02d6 7FF4B9AE 		bne	.L104
 1418              	.L103:
 1419 02da 062A     		cmp	r2, #6
 1420              		.loc 1 778 0 discriminator 1
 1421 02dc 08BF     		it	eq
 1422 02de 4FF0010B 		moveq	fp, #1
 1423              		.loc 1 777 0 discriminator 1
 1424 02e2 7FF4B3AE 		bne	.L104
 1425 02e6 DAE6     		b	.L105
 1426              	.LVL103:
 1427              	.L158:
 1428              		.loc 1 891 0
 1429 02e8 2A68     		ldr	r2, [r5, #0]
 1430 02ea 236B     		ldr	r3, [r4, #48]
 1431 02ec D31A     		subs	r3, r2, r3
 1432 02ee 282B     		cmp	r3, #40
 1433              		.loc 1 893 0
 1434 02f0 84BF     		itt	hi
 1435 02f2 0BF1010B 		addhi	fp, fp, #1
 1436              	.LVL104:
 1437 02f6 5FFA8BFB 		uxtbhi	fp, fp
 1438 02fa 14E7     		b	.L117
 1439              	.LVL105:
 1440              	.L157:
 1441              		.loc 1 883 0
 1442 02fc FFF7FEFF 		bl	tcp_segs_free
 1443              		.loc 1 884 0
 1444 0300 C4F87C90 		str	r9, [r4, #124]
 1445 0304 09E7     		b	.L114
 1446              	.L165:
 1447 0306 00BF     		.align	2
 1448              	.L164:
 1449 0308 00000000 		.word	.LANCHOR5
 1450 030c 00000000 		.word	.LANCHOR6
 1451 0310 00000000 		.word	.LANCHOR9
 1452              	.LVL106:
 1453              	.L127:
 1454              		.loc 1 942 0
 1455 0314 2046     		mov	r0, r4
ARM GAS  /var/folders/5n/p_75w94d66l9ssrldxqdhh700000gn/T//cc9Mn9JC.s 			page 27


 1456 0316 2646     		mov	r6, r4
 1457              		.loc 1 932 0
 1458 0318 5446     		mov	r4, sl
 1459              	.LVL107:
 1460              		.loc 1 942 0
 1461 031a FFF7FEFF 		bl	tcp_output
 1462              	.LVL108:
 1463              		.loc 1 768 0
 1464 031e 002C     		cmp	r4, #0
 1465 0320 7FF485AE 		bne	.L128
 1466 0324 20E7     		b	.L99
 1467              	.LVL109:
 1468              	.L161:
 1469              	.LBB20:
 1470              		.loc 1 922 0
 1471 0326 A38B     		ldrh	r3, [r4, #28]
 1472 0328 A06D     		ldr	r0, [r4, #88]
 1473 032a 616A     		ldr	r1, [r4, #36]
 1474 032c 0093     		str	r3, [sp, #0]
 1475 032e B4F81EE0 		ldrh	lr, [r4, #30]
 1476 0332 2246     		mov	r2, r4
 1477 0334 231D     		adds	r3, r4, #4
 1478 0336 CDF804E0 		str	lr, [sp, #4]
 1479 033a FFF7FEFF 		bl	tcp_rst
 1480 033e 4BE7     		b	.L125
 1481              	.L120:
 1482              		.loc 1 916 0
 1483 0340 A342     		cmp	r3, r4
 1484 0342 01D0     		beq	.L123
 1485              		.loc 1 916 0 is_stmt 0 discriminator 1
 1486 0344 FFF7FEFF 		bl	port_halt
 1487              	.L123:
 1488              		.loc 1 917 0 is_stmt 1
 1489 0348 E368     		ldr	r3, [r4, #12]
 1490 034a 3B60     		str	r3, [r7, #0]
 1491 034c 39E7     		b	.L122
 1492              	.LVL110:
 1493              	.L162:
 1494              	.LBE20:
 1495              	.LBB21:
 1496              		.loc 1 973 0
 1497 034e 3B68     		ldr	r3, [r7, #0]
 1498 0350 4345     		cmp	r3, r8
 1499 0352 01D0     		beq	.L135
 1500              		.loc 1 973 0 is_stmt 0 discriminator 1
 1501 0354 FFF7FEFF 		bl	port_halt
 1502              	.L135:
 1503              		.loc 1 974 0 is_stmt 1
 1504 0358 D8F80C60 		ldr	r6, [r8, #12]
 1505 035c 3E60     		str	r6, [r7, #0]
 1506 035e 55E7     		b	.L134
 1507              	.LVL111:
 1508              	.L156:
 1509              	.LBE21:
 1510              		.loc 1 872 0
 1511 0360 2046     		mov	r0, r4
 1512 0362 FFF7FEFF 		bl	tcp_keepalive
ARM GAS  /var/folders/5n/p_75w94d66l9ssrldxqdhh700000gn/T//cc9Mn9JC.s 			page 28


 1513              		.loc 1 873 0
 1514 0366 94F8A130 		ldrb	r3, [r4, #161]	@ zero_extendqisi2
 1515 036a 0133     		adds	r3, r3, #1
 1516 036c 84F8A130 		strb	r3, [r4, #161]
 1517              		.loc 1 775 0
 1518 0370 4FF0000A 		mov	sl, #0
 1519 0374 C4E6     		b	.L112
 1520              	.LVL112:
 1521              	.L160:
 1522              	.LBB22:
 1523              		.loc 1 912 0 discriminator 1
 1524 0376 FFF7FEFF 		bl	port_halt
 1525 037a 20E7     		b	.L121
 1526              	.LVL113:
 1527              	.L163:
 1528              	.LBE22:
 1529              	.LBB23:
 1530              		.loc 1 969 0 discriminator 1
 1531 037c FFF7FEFF 		bl	port_halt
 1532 0380 3FE7     		b	.L133
 1533              	.LBE23:
 1534              		.cfi_endproc
 1535              	.LFE20:
 1536              		.size	tcp_slowtmr, .-tcp_slowtmr
 1537 0382 00BFAFF3 		.section	.text.tcp_pcb_remove,"ax",%progbits
 1537      0080AFF3 
 1537      0080AFF3 
 1537      0080
 1538              		.align	2
 1539              		.p2align 4,,15
 1540              		.global	tcp_pcb_remove
 1541              		.thumb
 1542              		.thumb_func
 1543              		.type	tcp_pcb_remove, %function
 1544              	tcp_pcb_remove:
 1545              	.LFB38:
 1546              		.loc 1 1432 0
 1547              		.cfi_startproc
 1548              		@ args = 0, pretend = 0, frame = 0
 1549              		@ frame_needed = 0, uses_anonymous_args = 0
 1550              	.LVL114:
 1551              		.loc 1 1433 0
 1552 0000 0268     		ldr	r2, [r0, #0]
 1553 0002 8A42     		cmp	r2, r1
 1554              		.loc 1 1432 0
 1555 0004 10B5     		push	{r4, lr}
 1556              	.LCFI11:
 1557              		.cfi_def_cfa_offset 8
 1558              		.cfi_offset 14, -4
 1559              		.cfi_offset 4, -8
 1560              		.loc 1 1432 0
 1561 0006 0C46     		mov	r4, r1
 1562              		.loc 1 1433 0
 1563 0008 39D0     		beq	.L181
 1564              		.loc 1 1433 0 is_stmt 0 discriminator 2
 1565 000a 1F49     		ldr	r1, .L186
 1566              	.LVL115:
ARM GAS  /var/folders/5n/p_75w94d66l9ssrldxqdhh700000gn/T//cc9Mn9JC.s 			page 29


 1567 000c 0A60     		str	r2, [r1, #0]
 1568 000e 52B1     		cbz	r2, .L168
 1569              		.loc 1 1433 0
 1570 0010 D368     		ldr	r3, [r2, #12]
 1571 0012 A342     		cmp	r3, r4
 1572 0014 36D0     		beq	.L182
 1573              		.loc 1 1433 0 discriminator 5
 1574 0016 2BB1     		cbz	r3, .L183
 1575              	.L172:
 1576              		.loc 1 1433 0 discriminator 7
 1577 0018 DA68     		ldr	r2, [r3, #12]
 1578 001a A242     		cmp	r2, r4
 1579 001c 2BD0     		beq	.L184
 1580              		.loc 1 1433 0
 1581 001e 1346     		mov	r3, r2
 1582 0020 002B     		cmp	r3, #0
 1583 0022 F9D1     		bne	.L172
 1584              	.L183:
 1585 0024 0B60     		str	r3, [r1, #0]
 1586              	.L168:
 1587              		.loc 1 1433 0 discriminator 6
 1588 0026 0023     		movs	r3, #0
 1589 0028 E360     		str	r3, [r4, #12]
 1590              		.loc 1 1435 0 is_stmt 1 discriminator 6
 1591 002a 2046     		mov	r0, r4
 1592              	.LVL116:
 1593 002c FFF7FEFF 		bl	tcp_pcb_purge
 1594              		.loc 1 1438 0 discriminator 6
 1595 0030 237C     		ldrb	r3, [r4, #16]	@ zero_extendqisi2
 1596 0032 012B     		cmp	r3, #1
 1597 0034 18BF     		it	ne
 1598 0036 0A2B     		cmpne	r3, #10
 1599 0038 1AD0     		beq	.L173
 1600              		.loc 1 1440 0
 1601 003a 94F82030 		ldrb	r3, [r4, #32]	@ zero_extendqisi2
 1602              		.loc 1 1439 0
 1603 003e DA07     		lsls	r2, r3, #31
 1604 0040 0ED4     		bmi	.L185
 1605              	.L174:
 1606              		.loc 1 1446 0
 1607 0042 636F     		ldr	r3, [r4, #116]
 1608 0044 0BB1     		cbz	r3, .L176
 1609              		.loc 1 1446 0 is_stmt 0 discriminator 1
 1610 0046 FFF7FEFF 		bl	port_halt
 1611              	.L176:
 1612              		.loc 1 1447 0 is_stmt 1
 1613 004a A36F     		ldr	r3, [r4, #120]
 1614 004c 0BB1     		cbz	r3, .L177
 1615              		.loc 1 1447 0 is_stmt 0 discriminator 1
 1616 004e FFF7FEFF 		bl	port_halt
 1617              	.L177:
 1618              		.loc 1 1449 0 is_stmt 1
 1619 0052 E36F     		ldr	r3, [r4, #124]
 1620 0054 0BB1     		cbz	r3, .L175
 1621              		.loc 1 1449 0 is_stmt 0 discriminator 1
 1622 0056 FFF7FEFF 		bl	port_halt
 1623              	.L175:
ARM GAS  /var/folders/5n/p_75w94d66l9ssrldxqdhh700000gn/T//cc9Mn9JC.s 			page 30


 1624              		.loc 1 1453 0 is_stmt 1
 1625 005a 0023     		movs	r3, #0
 1626 005c 2374     		strb	r3, [r4, #16]
 1627              		.loc 1 1456 0
 1628 005e 10BD     		pop	{r4, pc}
 1629              	.L185:
 1630              		.loc 1 1441 0
 1631 0060 43F00203 		orr	r3, r3, #2
 1632 0064 84F82030 		strb	r3, [r4, #32]
 1633              		.loc 1 1442 0
 1634 0068 2046     		mov	r0, r4
 1635 006a FFF7FEFF 		bl	tcp_output
 1636 006e 237C     		ldrb	r3, [r4, #16]	@ zero_extendqisi2
 1637              	.L173:
 1638              		.loc 1 1445 0
 1639 0070 012B     		cmp	r3, #1
 1640 0072 E6D1     		bne	.L174
 1641 0074 F1E7     		b	.L175
 1642              	.LVL117:
 1643              	.L184:
 1644              		.loc 1 1433 0
 1645 0076 0B60     		str	r3, [r1, #0]
 1646              	.L169:
 1647              		.loc 1 1433 0 is_stmt 0 discriminator 4
 1648 0078 E268     		ldr	r2, [r4, #12]
 1649 007a DA60     		str	r2, [r3, #12]
 1650 007c D3E7     		b	.L168
 1651              	.L181:
 1652              		.loc 1 1433 0 discriminator 1
 1653 007e CB68     		ldr	r3, [r1, #12]
 1654 0080 0360     		str	r3, [r0, #0]
 1655 0082 D0E7     		b	.L168
 1656              	.L182:
 1657              		.loc 1 1433 0
 1658 0084 1346     		mov	r3, r2
 1659 0086 F7E7     		b	.L169
 1660              	.L187:
 1661              		.align	2
 1662              	.L186:
 1663 0088 00000000 		.word	.LANCHOR3
 1664              		.cfi_endproc
 1665              	.LFE38:
 1666              		.size	tcp_pcb_remove, .-tcp_pcb_remove
 1667 008c AFF30080 		.section	.text.tcp_abandon,"ax",%progbits
 1668              		.align	2
 1669              		.p2align 4,,15
 1670              		.global	tcp_abandon
 1671              		.thumb
 1672              		.thumb_func
 1673              		.type	tcp_abandon, %function
 1674              	tcp_abandon:
 1675              	.LFB11:
 1676              		.loc 1 319 0 is_stmt 1
 1677              		.cfi_startproc
 1678              		@ args = 0, pretend = 0, frame = 8
 1679              		@ frame_needed = 0, uses_anonymous_args = 0
 1680              	.LVL118:
ARM GAS  /var/folders/5n/p_75w94d66l9ssrldxqdhh700000gn/T//cc9Mn9JC.s 			page 31


 1681 0000 2DE9F04F 		push	{r4, r5, r6, r7, r8, r9, sl, fp, lr}
 1682              	.LCFI12:
 1683              		.cfi_def_cfa_offset 36
 1684              		.cfi_offset 14, -4
 1685              		.cfi_offset 11, -8
 1686              		.cfi_offset 10, -12
 1687              		.cfi_offset 9, -16
 1688              		.cfi_offset 8, -20
 1689              		.cfi_offset 7, -24
 1690              		.cfi_offset 6, -28
 1691              		.cfi_offset 5, -32
 1692              		.cfi_offset 4, -36
 1693              		.loc 1 329 0
 1694 0004 037C     		ldrb	r3, [r0, #16]	@ zero_extendqisi2
 1695 0006 012B     		cmp	r3, #1
 1696              		.loc 1 319 0
 1697 0008 85B0     		sub	sp, sp, #20
 1698              	.LCFI13:
 1699              		.cfi_def_cfa_offset 56
 1700              		.loc 1 319 0
 1701 000a 0646     		mov	r6, r0
 1702 000c 8846     		mov	r8, r1
 1703              		.loc 1 329 0
 1704 000e 40D0     		beq	.L196
 1705              	.LVL119:
 1706              	.L189:
 1707              		.loc 1 334 0
 1708 0010 0A2B     		cmp	r3, #10
 1709 0012 35D0     		beq	.L197
 1710              		.loc 1 341 0
 1711 0014 96E80C00 		ldmia	r6, {r2, r3}
 1712              		.loc 1 348 0
 1713 0018 2048     		ldr	r0, .L199
 1714              		.loc 1 338 0
 1715 001a D6F858B0 		ldr	fp, [r6, #88]
 1716              	.LVL120:
 1717              		.loc 1 339 0
 1718 001e D6F824A0 		ldr	sl, [r6, #36]
 1719              	.LVL121:
 1720              		.loc 1 340 0
 1721 0022 0392     		str	r2, [sp, #12]
 1722              		.loc 1 348 0
 1723 0024 3146     		mov	r1, r6
 1724              		.loc 1 341 0
 1725 0026 0293     		str	r3, [sp, #8]
 1726              		.loc 1 342 0
 1727 0028 B58B     		ldrh	r5, [r6, #28]
 1728              	.LVL122:
 1729              		.loc 1 343 0
 1730 002a F48B     		ldrh	r4, [r6, #30]
 1731              	.LVL123:
 1732              		.loc 1 345 0
 1733 002c D6F89470 		ldr	r7, [r6, #148]
 1734              	.LVL124:
 1735              		.loc 1 347 0
 1736 0030 D6F81490 		ldr	r9, [r6, #20]
 1737              	.LVL125:
ARM GAS  /var/folders/5n/p_75w94d66l9ssrldxqdhh700000gn/T//cc9Mn9JC.s 			page 32


 1738              		.loc 1 348 0
 1739 0034 FFF7FEFF 		bl	tcp_pcb_remove
 1740              	.LVL126:
 1741              		.loc 1 349 0
 1742 0038 B06F     		ldr	r0, [r6, #120]
 1743 003a 08B1     		cbz	r0, .L192
 1744              		.loc 1 350 0
 1745 003c FFF7FEFF 		bl	tcp_segs_free
 1746              	.L192:
 1747              		.loc 1 352 0
 1748 0040 706F     		ldr	r0, [r6, #116]
 1749 0042 08B1     		cbz	r0, .L193
 1750              		.loc 1 353 0
 1751 0044 FFF7FEFF 		bl	tcp_segs_free
 1752              	.L193:
 1753              		.loc 1 356 0
 1754 0048 F06F     		ldr	r0, [r6, #124]
 1755 004a 08B1     		cbz	r0, .L194
 1756              		.loc 1 357 0
 1757 004c FFF7FEFF 		bl	tcp_segs_free
 1758              	.L194:
 1759              		.loc 1 360 0
 1760 0050 0220     		movs	r0, #2
 1761 0052 3146     		mov	r1, r6
 1762 0054 FFF7FEFF 		bl	memp_free
 1763              		.loc 1 361 0
 1764 0058 1FB1     		cbz	r7, .L195
 1765              		.loc 1 361 0 is_stmt 0 discriminator 1
 1766 005a 4846     		mov	r0, r9
 1767 005c 6FF00901 		mvn	r1, #9
 1768 0060 B847     		blx	r7
 1769              	.L195:
 1770              		.loc 1 362 0 is_stmt 1
 1771 0062 B8F1000F 		cmp	r8, #0
 1772 0066 02D1     		bne	.L198
 1773              	.LVL127:
 1774              	.L188:
 1775              		.loc 1 367 0
 1776 0068 05B0     		add	sp, sp, #20
 1777 006a BDE8F08F 		pop	{r4, r5, r6, r7, r8, r9, sl, fp, pc}
 1778              	.LVL128:
 1779              	.L198:
 1780              		.loc 1 364 0
 1781 006e 5846     		mov	r0, fp
 1782 0070 5146     		mov	r1, sl
 1783 0072 03AA     		add	r2, sp, #12
 1784 0074 02AB     		add	r3, sp, #8
 1785 0076 0095     		str	r5, [sp, #0]
 1786 0078 0194     		str	r4, [sp, #4]
 1787 007a FFF7FEFF 		bl	tcp_rst
 1788 007e F3E7     		b	.L188
 1789              	.LVL129:
 1790              	.L197:
 1791              		.loc 1 335 0
 1792 0080 3146     		mov	r1, r6
 1793 0082 0748     		ldr	r0, .L199+4
 1794 0084 FFF7FEFF 		bl	tcp_pcb_remove
ARM GAS  /var/folders/5n/p_75w94d66l9ssrldxqdhh700000gn/T//cc9Mn9JC.s 			page 33


 1795              		.loc 1 336 0
 1796 0088 0220     		movs	r0, #2
 1797 008a 3146     		mov	r1, r6
 1798 008c FFF7FEFF 		bl	memp_free
 1799 0090 EAE7     		b	.L188
 1800              	.L196:
 1801              		.loc 1 329 0 discriminator 1
 1802 0092 FFF7FEFF 		bl	port_halt
 1803 0096 337C     		ldrb	r3, [r6, #16]	@ zero_extendqisi2
 1804 0098 BAE7     		b	.L189
 1805              	.L200:
 1806 009a 00BF     		.align	2
 1807              	.L199:
 1808 009c 00000000 		.word	.LANCHOR6
 1809 00a0 00000000 		.word	.LANCHOR9
 1810              		.cfi_endproc
 1811              	.LFE11:
 1812              		.size	tcp_abandon, .-tcp_abandon
 1813 00a4 AFF30080 		.section	.text.tcp_abort,"ax",%progbits
 1813      AFF30080 
 1813      AFF30080 
 1814              		.align	2
 1815              		.p2align 4,,15
 1816              		.global	tcp_abort
 1817              		.thumb
 1818              		.thumb_func
 1819              		.type	tcp_abort, %function
 1820              	tcp_abort:
 1821              	.LFB12:
 1822              		.loc 1 381 0
 1823              		.cfi_startproc
 1824              		@ args = 0, pretend = 0, frame = 0
 1825              		@ frame_needed = 0, uses_anonymous_args = 0
 1826              		@ link register save eliminated.
 1827              	.LVL130:
 1828              		.loc 1 382 0
 1829 0000 0121     		movs	r1, #1
 1830              		.loc 1 383 0
 1831              		.loc 1 382 0
 1832 0002 FFF7FEBF 		b	tcp_abandon
 1833              	.LVL131:
 1834              		.cfi_endproc
 1835              	.LFE12:
 1836              		.size	tcp_abort, .-tcp_abort
 1837 0006 00BFAFF3 		.section	.text.tcp_alloc,"ax",%progbits
 1837      0080AFF3 
 1837      0080
 1838              		.align	2
 1839              		.p2align 4,,15
 1840              		.global	tcp_alloc
 1841              		.thumb
 1842              		.thumb_func
 1843              		.type	tcp_alloc, %function
 1844              	tcp_alloc:
 1845              	.LFB29:
 1846              		.loc 1 1181 0
 1847              		.cfi_startproc
ARM GAS  /var/folders/5n/p_75w94d66l9ssrldxqdhh700000gn/T//cc9Mn9JC.s 			page 34


 1848              		@ args = 0, pretend = 0, frame = 0
 1849              		@ frame_needed = 0, uses_anonymous_args = 0
 1850              	.LVL132:
 1851 0000 2DE9F041 		push	{r4, r5, r6, r7, r8, lr}
 1852              	.LCFI14:
 1853              		.cfi_def_cfa_offset 24
 1854              		.cfi_offset 14, -4
 1855              		.cfi_offset 8, -8
 1856              		.cfi_offset 7, -12
 1857              		.cfi_offset 6, -16
 1858              		.cfi_offset 5, -20
 1859              		.cfi_offset 4, -24
 1860              		.loc 1 1181 0
 1861 0004 0546     		mov	r5, r0
 1862              		.loc 1 1185 0
 1863 0006 0220     		movs	r0, #2
 1864              	.LVL133:
 1865 0008 FFF7FEFF 		bl	memp_malloc
 1866              	.LVL134:
 1867              		.loc 1 1186 0
 1868 000c 0446     		mov	r4, r0
 1869 000e 0028     		cmp	r0, #0
 1870 0010 44D0     		beq	.L215
 1871              	.L203:
 1872              		.loc 1 1209 0
 1873 0012 0021     		movs	r1, #0
 1874 0014 A422     		movs	r2, #164
 1875 0016 2046     		mov	r0, r4
 1876              	.LVL135:
 1877 0018 FFF7FEFF 		bl	memset
 1878              	.LBB24:
 1879              	.LBB25:
 1880              		.loc 1 1468 0
 1881 001c 414F     		ldr	r7, .L216
 1882 001e 424A     		ldr	r2, .L216+4
 1883 0020 3B68     		ldr	r3, [r7, #0]
 1884 0022 1668     		ldr	r6, [r2, #0]
 1885              	.LBE25:
 1886              	.LBE24:
 1887              		.loc 1 1210 0
 1888 0024 6574     		strb	r5, [r4, #17]
 1889              	.LBB28:
 1890              	.LBB26:
 1891              		.loc 1 1468 0
 1892 0026 F318     		adds	r3, r6, r3
 1893              	.LBE26:
 1894              	.LBE28:
 1895              		.loc 1 1212 0
 1896 0028 0021     		movs	r1, #0
 1897              		.loc 1 1213 0
 1898 002a 4FF4066C 		mov	ip, #2144
 1899              		.loc 1 1212 0
 1900 002e 0A46     		mov	r2, r1	@ movhi
 1901              		.loc 1 1239 0
 1902 0030 4FF45D40 		mov	r0, #56576
 1903              		.loc 1 1212 0
 1904 0034 A4F87010 		strh	r1, [r4, #112]	@ movhi
ARM GAS  /var/folders/5n/p_75w94d66l9ssrldxqdhh700000gn/T//cc9Mn9JC.s 			page 35


 1905              		.loc 1 1213 0
 1906 0038 A4F828C0 		strh	ip, [r4, #40]	@ movhi
 1907              		.loc 1 1214 0
 1908 003c A4F82AC0 		strh	ip, [r4, #42]	@ movhi
 1909              		.loc 1 1215 0
 1910 0040 6172     		strb	r1, [r4, #9]
 1911              		.loc 1 1216 0
 1912 0042 4FF0FF0C 		mov	ip, #255
 1913              		.loc 1 1221 0
 1914 0046 A4F84410 		strh	r1, [r4, #68]	@ movhi
 1915              	.LBB29:
 1916              	.LBB27:
 1917              		.loc 1 1468 0
 1918 004a 3B60     		str	r3, [r7, #0]
 1919              	.LBE27:
 1920              	.LBE29:
 1921              		.loc 1 1223 0
 1922 004c 4FF6FF71 		movw	r1, #65535
 1923              		.loc 1 1226 0
 1924 0050 6366     		str	r3, [r4, #100]
 1925              		.loc 1 1227 0
 1926 0052 A365     		str	r3, [r4, #88]
 1927              		.loc 1 1228 0
 1928 0054 E364     		str	r3, [r4, #76]
 1929              		.loc 1 1229 0
 1930 0056 A366     		str	r3, [r4, #104]
 1931              		.loc 1 1235 0
 1932 0058 344B     		ldr	r3, .L216+8
 1933              		.loc 1 1216 0
 1934 005a 84F80AC0 		strb	ip, [r4, #10]
 1935              		.loc 1 1220 0
 1936 005e 0625     		movs	r5, #6
 1937              		.loc 1 1239 0
 1938 0060 C0F26D00 		movt	r0, 109
 1939              		.loc 1 1211 0
 1940 0064 4FF48078 		mov	r8, #256
 1941              		.loc 1 1219 0
 1942 0068 4FF4067C 		mov	ip, #536
 1943              		.loc 1 1223 0
 1944 006c E186     		strh	r1, [r4, #54]	@ movhi
 1945              		.loc 1 1224 0
 1946 006e 0121     		movs	r1, #1
 1947              		.loc 1 1211 0
 1948 0070 A4F86E80 		strh	r8, [r4, #110]	@ movhi
 1949              		.loc 1 1219 0
 1950 0074 A4F838C0 		strh	ip, [r4, #56]	@ movhi
 1951              		.loc 1 1220 0
 1952 0078 A4F84850 		strh	r5, [r4, #72]	@ movhi
 1953              		.loc 1 1222 0
 1954 007c A4F84650 		strh	r5, [r4, #70]	@ movhi
 1955              		.loc 1 1224 0
 1956 0080 A4F85210 		strh	r1, [r4, #82]	@ movhi
 1957              		.loc 1 1230 0
 1958 0084 2663     		str	r6, [r4, #48]
 1959              		.loc 1 1232 0
 1960 0086 84F83420 		strb	r2, [r4, #52]
 1961              		.loc 1 1235 0
ARM GAS  /var/folders/5n/p_75w94d66l9ssrldxqdhh700000gn/T//cc9Mn9JC.s 			page 36


 1962 008a C4F88830 		str	r3, [r4, #136]
 1963              		.loc 1 1239 0
 1964 008e C4F89800 		str	r0, [r4, #152]
 1965              		.loc 1 1246 0
 1966 0092 84F8A120 		strb	r2, [r4, #161]
 1967              	.L212:
 1968              		.loc 1 1249 0
 1969 0096 2046     		mov	r0, r4
 1970 0098 BDE8F081 		pop	{r4, r5, r6, r7, r8, pc}
 1971              	.LVL136:
 1972              	.L215:
 1973              	.LBB30:
 1974              	.LBB31:
 1975              		.loc 1 1160 0
 1976 009c 244B     		ldr	r3, .L216+12
 1977 009e 1B68     		ldr	r3, [r3, #0]
 1978              	.LVL137:
 1979 00a0 7BB1     		cbz	r3, .L204
 1980 00a2 214A     		ldr	r2, .L216+4
 1981 00a4 1668     		ldr	r6, [r2, #0]
 1982              		.loc 1 1157 0
 1983 00a6 0146     		mov	r1, r0
 1984              	.LVL138:
 1985              	.L206:
 1986              		.loc 1 1161 0
 1987 00a8 1A6B     		ldr	r2, [r3, #48]
 1988 00aa B21A     		subs	r2, r6, r2
 1989 00ac 8A42     		cmp	r2, r1
 1990 00ae 28BF     		it	cs
 1991 00b0 1846     		movcs	r0, r3
 1992              		.loc 1 1160 0
 1993 00b2 DB68     		ldr	r3, [r3, #12]
 1994              	.LVL139:
 1995              		.loc 1 1161 0
 1996 00b4 28BF     		it	cs
 1997 00b6 1146     		movcs	r1, r2
 1998              	.LVL140:
 1999              		.loc 1 1160 0
 2000 00b8 002B     		cmp	r3, #0
 2001 00ba F5D1     		bne	.L206
 2002              		.loc 1 1166 0
 2003 00bc 08B1     		cbz	r0, .L204
 2004              		.loc 1 1169 0
 2005 00be FFF7FEFF 		bl	tcp_abort
 2006              	.LVL141:
 2007              	.L204:
 2008              	.LBE31:
 2009              	.LBE30:
 2010              		.loc 1 1191 0
 2011 00c2 0220     		movs	r0, #2
 2012 00c4 FFF7FEFF 		bl	memp_malloc
 2013              	.LVL142:
 2014              		.loc 1 1192 0
 2015 00c8 0446     		mov	r4, r0
 2016 00ca 30B1     		cbz	r0, .L207
 2017 00cc 194B     		ldr	r3, .L216+16
 2018 00ce B3F8CC20 		ldrh	r2, [r3, #204]
ARM GAS  /var/folders/5n/p_75w94d66l9ssrldxqdhh700000gn/T//cc9Mn9JC.s 			page 37


 2019              	.L208:
 2020              		.loc 1 1205 0
 2021 00d2 013A     		subs	r2, r2, #1
 2022 00d4 A3F8CC20 		strh	r2, [r3, #204]	@ movhi
 2023 00d8 9BE7     		b	.L203
 2024              	.L207:
 2025              	.LVL143:
 2026              	.LBB32:
 2027              	.LBB33:
 2028              		.loc 1 1131 0
 2029 00da 174B     		ldr	r3, .L216+20
 2030 00dc 1B68     		ldr	r3, [r3, #0]
 2031              	.LVL144:
 2032 00de ABB1     		cbz	r3, .L209
 2033              		.loc 1 1134 0
 2034 00e0 114A     		ldr	r2, .L216+4
 2035 00e2 1468     		ldr	r4, [r2, #0]
 2036              		.loc 1 1129 0
 2037 00e4 0746     		mov	r7, r0
 2038              		.loc 1 1126 0
 2039 00e6 7F21     		movs	r1, #127
 2040              	.LVL145:
 2041              	.L211:
 2042              		.loc 1 1132 0
 2043 00e8 5A7C     		ldrb	r2, [r3, #17]	@ zero_extendqisi2
 2044 00ea 9542     		cmp	r5, r2
 2045 00ec 08D3     		bcc	.L210
 2046 00ee 8A42     		cmp	r2, r1
 2047 00f0 06D8     		bhi	.L210
 2048              		.loc 1 1134 0
 2049 00f2 1E6B     		ldr	r6, [r3, #48]
 2050 00f4 A61B     		subs	r6, r4, r6
 2051              		.loc 1 1133 0
 2052 00f6 BE42     		cmp	r6, r7
 2053 00f8 22BF     		ittt	cs
 2054 00fa 1846     		movcs	r0, r3
 2055 00fc 1146     		movcs	r1, r2
 2056 00fe 3746     		movcs	r7, r6
 2057              	.L210:
 2058              	.LVL146:
 2059              		.loc 1 1131 0
 2060 0100 DB68     		ldr	r3, [r3, #12]
 2061              	.LVL147:
 2062 0102 002B     		cmp	r3, #0
 2063 0104 F0D1     		bne	.L211
 2064              		.loc 1 1140 0
 2065 0106 08B1     		cbz	r0, .L209
 2066              		.loc 1 1143 0
 2067 0108 FFF7FEFF 		bl	tcp_abort
 2068              	.LVL148:
 2069              	.L209:
 2070              	.LBE33:
 2071              	.LBE32:
 2072              		.loc 1 1197 0
 2073 010c 0220     		movs	r0, #2
 2074 010e FFF7FEFF 		bl	memp_malloc
 2075              	.LVL149:
ARM GAS  /var/folders/5n/p_75w94d66l9ssrldxqdhh700000gn/T//cc9Mn9JC.s 			page 38


 2076              		.loc 1 1198 0
 2077 0112 0446     		mov	r4, r0
 2078 0114 0028     		cmp	r0, #0
 2079 0116 BED0     		beq	.L212
 2080              		.loc 1 1200 0
 2081 0118 064B     		ldr	r3, .L216+16
 2082 011a B3F8CC20 		ldrh	r2, [r3, #204]
 2083 011e 013A     		subs	r2, r2, #1
 2084 0120 92B2     		uxth	r2, r2
 2085 0122 D6E7     		b	.L208
 2086              	.L217:
 2087              		.align	2
 2088              	.L216:
 2089 0124 00000000 		.word	.LANCHOR10
 2090 0128 00000000 		.word	.LANCHOR5
 2091 012c 00000000 		.word	tcp_recv_null
 2092 0130 00000000 		.word	.LANCHOR9
 2093 0134 00000000 		.word	lwip_stats
 2094 0138 00000000 		.word	.LANCHOR6
 2095              		.cfi_endproc
 2096              	.LFE29:
 2097              		.size	tcp_alloc, .-tcp_alloc
 2098 013c AFF30080 		.section	.text.tcp_new,"ax",%progbits
 2099              		.align	2
 2100              		.p2align 4,,15
 2101              		.global	tcp_new
 2102              		.thumb
 2103              		.thumb_func
 2104              		.type	tcp_new, %function
 2105              	tcp_new:
 2106              	.LFB30:
 2107              		.loc 1 1265 0
 2108              		.cfi_startproc
 2109              		@ args = 0, pretend = 0, frame = 0
 2110              		@ frame_needed = 0, uses_anonymous_args = 0
 2111              		@ link register save eliminated.
 2112              		.loc 1 1266 0
 2113 0000 4020     		movs	r0, #64
 2114              		.loc 1 1267 0
 2115              		.loc 1 1266 0
 2116 0002 FFF7FEBF 		b	tcp_alloc
 2117              		.cfi_endproc
 2118              	.LFE30:
 2119              		.size	tcp_new, .-tcp_new
 2120 0006 00BFAFF3 		.section	.text.tcp_close_shutdown,"ax",%progbits
 2120      0080AFF3 
 2120      0080
 2121              		.align	2
 2122              		.p2align 4,,15
 2123              		.thumb
 2124              		.thumb_func
 2125              		.type	tcp_close_shutdown, %function
 2126              	tcp_close_shutdown:
 2127              	.LFB8:
 2128              		.loc 1 139 0
 2129              		.cfi_startproc
 2130              		@ args = 0, pretend = 0, frame = 0
ARM GAS  /var/folders/5n/p_75w94d66l9ssrldxqdhh700000gn/T//cc9Mn9JC.s 			page 39


 2131              		@ frame_needed = 0, uses_anonymous_args = 0
 2132              	.LVL150:
 2133 0000 30B5     		push	{r4, r5, lr}
 2134              	.LCFI15:
 2135              		.cfi_def_cfa_offset 12
 2136              		.cfi_offset 14, -4
 2137              		.cfi_offset 5, -8
 2138              		.cfi_offset 4, -12
 2139              		.loc 1 142 0
 2140 0002 037C     		ldrb	r3, [r0, #16]	@ zero_extendqisi2
 2141              		.loc 1 139 0
 2142 0004 83B0     		sub	sp, sp, #12
 2143              	.LCFI16:
 2144              		.cfi_def_cfa_offset 24
 2145              		.loc 1 139 0
 2146 0006 0446     		mov	r4, r0
 2147              		.loc 1 142 0
 2148 0008 0029     		cmp	r1, #0
 2149 000a 36D0     		beq	.L223
 2150              		.loc 1 142 0 is_stmt 0 discriminator 1
 2151 000c 012B     		cmp	r3, #1
 2152 000e 4AD0     		beq	.L221
 2153              		.loc 1 143 0 is_stmt 1
 2154 0010 D0F88020 		ldr	r2, [r0, #128]
 2155 0014 002A     		cmp	r2, #0
 2156 0016 2CD0     		beq	.L260
 2157              	.L222:
 2158              		.loc 1 146 0
 2159 0018 94F82030 		ldrb	r3, [r4, #32]	@ zero_extendqisi2
 2160 001c D906     		lsls	r1, r3, #27
 2161              	.LVL151:
 2162 001e 73D5     		bpl	.L261
 2163              	.LVL152:
 2164              	.L224:
 2165              		.loc 1 150 0
 2166 0020 A38B     		ldrh	r3, [r4, #28]
 2167 0022 E58B     		ldrh	r5, [r4, #30]
 2168 0024 A06D     		ldr	r0, [r4, #88]
 2169 0026 616A     		ldr	r1, [r4, #36]
 2170 0028 0093     		str	r3, [sp, #0]
 2171 002a 2246     		mov	r2, r4
 2172 002c 231D     		adds	r3, r4, #4
 2173 002e 0195     		str	r5, [sp, #4]
 2174 0030 FFF7FEFF 		bl	tcp_rst
 2175              		.loc 1 153 0
 2176 0034 2046     		mov	r0, r4
 2177 0036 FFF7FEFF 		bl	tcp_pcb_purge
 2178              		.loc 1 158 0
 2179 003a 3E4B     		ldr	r3, .L270
 2180 003c 1A68     		ldr	r2, [r3, #0]
 2181 003e A242     		cmp	r2, r4
 2182 0040 65D0     		beq	.L262
 2183              		.loc 1 158 0 is_stmt 0 discriminator 2
 2184 0042 3D49     		ldr	r1, .L270+4
 2185 0044 0A60     		str	r2, [r1, #0]
 2186 0046 52B1     		cbz	r2, .L226
 2187              		.loc 1 158 0
ARM GAS  /var/folders/5n/p_75w94d66l9ssrldxqdhh700000gn/T//cc9Mn9JC.s 			page 40


 2188 0048 D368     		ldr	r3, [r2, #12]
 2189 004a A342     		cmp	r3, r4
 2190 004c 62D0     		beq	.L263
 2191              		.loc 1 158 0 discriminator 5
 2192 004e 2BB1     		cbz	r3, .L264
 2193              	.L230:
 2194              		.loc 1 158 0 discriminator 7
 2195 0050 DA68     		ldr	r2, [r3, #12]
 2196 0052 A242     		cmp	r2, r4
 2197 0054 54D0     		beq	.L265
 2198              		.loc 1 158 0
 2199 0056 1346     		mov	r3, r2
 2200 0058 002B     		cmp	r3, #0
 2201 005a F9D1     		bne	.L230
 2202              	.L264:
 2203 005c 0B60     		str	r3, [r1, #0]
 2204              	.L226:
 2205              		.loc 1 160 0 is_stmt 1 discriminator 6
 2206 005e 374B     		ldr	r3, .L270+8
 2207 0060 1A68     		ldr	r2, [r3, #0]
 2208 0062 1C60     		str	r4, [r3, #0]
 2209              		.loc 1 159 0 discriminator 6
 2210 0064 0A23     		movs	r3, #10
 2211 0066 2374     		strb	r3, [r4, #16]
 2212              		.loc 1 160 0 discriminator 6
 2213 0068 E260     		str	r2, [r4, #12]
 2214 006a FFF7FEFF 		bl	tcp_timer_needed
 2215              		.loc 1 162 0 discriminator 6
 2216 006e 0020     		movs	r0, #0
 2217 0070 16E0     		b	.L231
 2218              	.LVL153:
 2219              	.L260:
 2220              		.loc 1 143 0 discriminator 1
 2221 0072 028D     		ldrh	r2, [r0, #40]
 2222 0074 B2F5066F 		cmp	r2, #2144
 2223 0078 CED1     		bne	.L222
 2224              	.L223:
 2225              		.loc 1 166 0
 2226 007a 072B     		cmp	r3, #7
 2227 007c 0FD8     		bhi	.L259
 2228 007e DFE803F0 		tbb	[pc, r3]
 2229              	.L237:
 2230 0082 1C       		.byte	(.L232-.L237)/2
 2231 0083 12       		.byte	(.L221-.L237)/2
 2232 0084 2E       		.byte	(.L233-.L237)/2
 2233 0085 04       		.byte	(.L235-.L237)/2
 2234 0086 04       		.byte	(.L235-.L237)/2
 2235 0087 0E       		.byte	(.L259-.L237)/2
 2236 0088 0E       		.byte	(.L259-.L237)/2
 2237 0089 37       		.byte	(.L236-.L237)/2
 2238              		.align	1
 2239              	.L235:
 2240              		.loc 1 203 0
 2241 008a 2046     		mov	r0, r4
 2242 008c FFF7FEFF 		bl	tcp_send_fin
 2243              	.LVL154:
 2244              		.loc 1 204 0
ARM GAS  /var/folders/5n/p_75w94d66l9ssrldxqdhh700000gn/T//cc9Mn9JC.s 			page 41


 2245 0090 30B9     		cbnz	r0, .L231
 2246              		.loc 1 206 0
 2247 0092 0523     		movs	r3, #5
 2248 0094 2374     		strb	r3, [r4, #16]
 2249              	.L246:
 2250              	.LVL155:
 2251              		.loc 1 232 0
 2252 0096 2046     		mov	r0, r4
 2253              		.loc 1 223 0
 2254 0098 14B1     		cbz	r4, .L231
 2255              		.loc 1 232 0
 2256 009a FFF7FEFF 		bl	tcp_output
 2257              	.LVL156:
 2258              	.L259:
 2259 009e 0020     		movs	r0, #0
 2260              	.L231:
 2261              		.loc 1 235 0
 2262 00a0 40B2     		sxtb	r0, r0
 2263 00a2 03B0     		add	sp, sp, #12
 2264 00a4 30BD     		pop	{r4, r5, pc}
 2265              	.LVL157:
 2266              	.L221:
 2267              		.loc 1 184 0
 2268 00a6 2648     		ldr	r0, .L270+12
 2269 00a8 2146     		mov	r1, r4
 2270              	.LVL158:
 2271 00aa FFF7FEFF 		bl	tcp_pcb_remove
 2272              		.loc 1 185 0
 2273 00ae 0320     		movs	r0, #3
 2274 00b0 2146     		mov	r1, r4
 2275 00b2 FFF7FEFF 		bl	memp_free
 2276              	.LVL159:
 2277              		.loc 1 187 0
 2278 00b6 0020     		movs	r0, #0
 2279 00b8 F2E7     		b	.L231
 2280              	.LVL160:
 2281              	.L232:
 2282              		.loc 1 176 0
 2283 00ba A38B     		ldrh	r3, [r4, #28]
 2284 00bc 9BB1     		cbz	r3, .L256
 2285              		.loc 1 177 0
 2286 00be 214B     		ldr	r3, .L270+16
 2287 00c0 1A68     		ldr	r2, [r3, #0]
 2288 00c2 A242     		cmp	r2, r4
 2289 00c4 32D0     		beq	.L266
 2290              		.loc 1 177 0 is_stmt 0 discriminator 2
 2291 00c6 1C49     		ldr	r1, .L270+4
 2292              	.LVL161:
 2293 00c8 0A60     		str	r2, [r1, #0]
 2294 00ca 42B3     		cbz	r2, .L240
 2295              		.loc 1 177 0
 2296 00cc D368     		ldr	r3, [r2, #12]
 2297 00ce A342     		cmp	r3, r4
 2298 00d0 22D0     		beq	.L267
 2299              	.L254:
 2300              		.loc 1 177 0 discriminator 5
 2301 00d2 3BB3     		cbz	r3, .L268
ARM GAS  /var/folders/5n/p_75w94d66l9ssrldxqdhh700000gn/T//cc9Mn9JC.s 			page 42


 2302              		.loc 1 177 0 discriminator 7
 2303 00d4 DA68     		ldr	r2, [r3, #12]
 2304 00d6 A242     		cmp	r2, r4
 2305 00d8 26D0     		beq	.L269
 2306              		.loc 1 177 0
 2307 00da 1346     		mov	r3, r2
 2308 00dc F9E7     		b	.L254
 2309              	.LVL162:
 2310              	.L233:
 2311              		.loc 1 190 0 is_stmt 1
 2312 00de 1548     		ldr	r0, .L270
 2313 00e0 2146     		mov	r1, r4
 2314              	.LVL163:
 2315 00e2 FFF7FEFF 		bl	tcp_pcb_remove
 2316              	.L256:
 2317              		.loc 1 191 0
 2318 00e6 0220     		movs	r0, #2
 2319 00e8 2146     		mov	r1, r4
 2320 00ea FFF7FEFF 		bl	memp_free
 2321              	.LVL164:
 2322 00ee D6E7     		b	.L259
 2323              	.LVL165:
 2324              	.L236:
 2325              		.loc 1 210 0
 2326 00f0 2046     		mov	r0, r4
 2327 00f2 FFF7FEFF 		bl	tcp_send_fin
 2328              	.LVL166:
 2329              		.loc 1 211 0
 2330 00f6 0028     		cmp	r0, #0
 2331 00f8 D2D1     		bne	.L231
 2332              		.loc 1 213 0
 2333 00fa 0923     		movs	r3, #9
 2334 00fc 2374     		strb	r3, [r4, #16]
 2335 00fe CAE7     		b	.L246
 2336              	.LVL167:
 2337              	.L265:
 2338              		.loc 1 158 0
 2339 0100 0B60     		str	r3, [r1, #0]
 2340              	.L227:
 2341              		.loc 1 158 0 is_stmt 0 discriminator 4
 2342 0102 E268     		ldr	r2, [r4, #12]
 2343 0104 DA60     		str	r2, [r3, #12]
 2344 0106 AAE7     		b	.L226
 2345              	.L261:
 2346              		.loc 1 146 0 is_stmt 1 discriminator 1
 2347 0108 FFF7FEFF 		bl	port_halt
 2348 010c 88E7     		b	.L224
 2349              	.L262:
 2350              		.loc 1 158 0 discriminator 1
 2351 010e E268     		ldr	r2, [r4, #12]
 2352 0110 1A60     		str	r2, [r3, #0]
 2353 0112 A4E7     		b	.L226
 2354              	.L263:
 2355              		.loc 1 158 0 is_stmt 0
 2356 0114 1346     		mov	r3, r2
 2357 0116 F4E7     		b	.L227
 2358              	.LVL168:
ARM GAS  /var/folders/5n/p_75w94d66l9ssrldxqdhh700000gn/T//cc9Mn9JC.s 			page 43


 2359              	.L267:
 2360              		.loc 1 177 0 is_stmt 1
 2361 0118 1346     		mov	r3, r2
 2362              	.L241:
 2363              		.loc 1 177 0 is_stmt 0 discriminator 4
 2364 011a E268     		ldr	r2, [r4, #12]
 2365 011c DA60     		str	r2, [r3, #12]
 2366              	.L240:
 2367              		.loc 1 177 0 discriminator 6
 2368 011e 0023     		movs	r3, #0
 2369 0120 E360     		str	r3, [r4, #12]
 2370 0122 E0E7     		b	.L256
 2371              	.L268:
 2372              		.loc 1 177 0
 2373 0124 0B60     		str	r3, [r1, #0]
 2374 0126 FAE7     		b	.L240
 2375              	.L269:
 2376 0128 0B60     		str	r3, [r1, #0]
 2377 012a F6E7     		b	.L241
 2378              	.LVL169:
 2379              	.L266:
 2380              		.loc 1 177 0 discriminator 1
 2381 012c E268     		ldr	r2, [r4, #12]
 2382 012e 1A60     		str	r2, [r3, #0]
 2383 0130 F5E7     		b	.L240
 2384              	.L271:
 2385 0132 00BF     		.align	2
 2386              	.L270:
 2387 0134 00000000 		.word	.LANCHOR6
 2388 0138 00000000 		.word	.LANCHOR3
 2389 013c 00000000 		.word	.LANCHOR9
 2390 0140 00000000 		.word	.LANCHOR4
 2391 0144 00000000 		.word	.LANCHOR2
 2392              		.cfi_endproc
 2393              	.LFE8:
 2394              		.size	tcp_close_shutdown, .-tcp_close_shutdown
 2395 0148 AFF30080 		.section	.text.tcp_shutdown,"ax",%progbits
 2395      AFF30080 
 2396              		.align	2
 2397              		.p2align 4,,15
 2398              		.global	tcp_shutdown
 2399              		.thumb
 2400              		.thumb_func
 2401              		.type	tcp_shutdown, %function
 2402              	tcp_shutdown:
 2403              	.LFB10:
 2404              		.loc 1 279 0 is_stmt 1
 2405              		.cfi_startproc
 2406              		@ args = 0, pretend = 0, frame = 0
 2407              		@ frame_needed = 0, uses_anonymous_args = 0
 2408              	.LVL170:
 2409 0000 38B5     		push	{r3, r4, r5, lr}
 2410              	.LCFI17:
 2411              		.cfi_def_cfa_offset 16
 2412              		.cfi_offset 14, -4
 2413              		.cfi_offset 5, -8
 2414              		.cfi_offset 4, -12
ARM GAS  /var/folders/5n/p_75w94d66l9ssrldxqdhh700000gn/T//cc9Mn9JC.s 			page 44


 2415              		.cfi_offset 3, -16
 2416              		.loc 1 280 0
 2417 0002 037C     		ldrb	r3, [r0, #16]	@ zero_extendqisi2
 2418 0004 012B     		cmp	r3, #1
 2419              		.loc 1 279 0
 2420 0006 0446     		mov	r4, r0
 2421 0008 1546     		mov	r5, r2
 2422              		.loc 1 280 0
 2423 000a 23D0     		beq	.L277
 2424              		.loc 1 283 0
 2425 000c 69B1     		cbz	r1, .L274
 2426              		.loc 1 285 0
 2427 000e D0F88000 		ldr	r0, [r0, #128]
 2428              	.LVL171:
 2429 0012 20B1     		cbz	r0, .L275
 2430              		.loc 1 286 0
 2431 0014 FFF7FEFF 		bl	pbuf_free
 2432              	.LVL172:
 2433              		.loc 1 287 0
 2434 0018 0023     		movs	r3, #0
 2435 001a C4F88030 		str	r3, [r4, #128]
 2436              	.L275:
 2437              		.loc 1 290 0
 2438 001e 94F82030 		ldrb	r3, [r4, #32]	@ zero_extendqisi2
 2439 0022 43F01003 		orr	r3, r3, #16
 2440 0026 84F82030 		strb	r3, [r4, #32]
 2441              	.L274:
 2442              		.loc 1 292 0
 2443 002a 1DB1     		cbz	r5, .L273
 2444              		.loc 1 295 0
 2445 002c 237C     		ldrb	r3, [r4, #16]	@ zero_extendqisi2
 2446 002e 072B     		cmp	r3, #7
 2447 0030 02D9     		bls	.L280
 2448              	.L279:
 2449              		.loc 1 306 0
 2450 0032 0025     		movs	r5, #0
 2451              	.LVL173:
 2452              	.L273:
 2453              		.loc 1 307 0
 2454 0034 68B2     		sxtb	r0, r5
 2455 0036 38BD     		pop	{r3, r4, r5, pc}
 2456              	.LVL174:
 2457              	.L280:
 2458              		.loc 1 295 0
 2459 0038 94F91030 		ldrsb	r3, [r4, #16]
 2460 003c 0122     		movs	r2, #1
 2461 003e 12FA03F3 		lsls	r3, r2, r3
 2462 0042 13F0980F 		tst	r3, #152
 2463 0046 F4D0     		beq	.L279
 2464              		.loc 1 299 0
 2465 0048 2046     		mov	r0, r4
 2466 004a 0021     		movs	r1, #0
 2467              		.loc 1 307 0
 2468 004c BDE83840 		pop	{r3, r4, r5, lr}
 2469              		.loc 1 299 0
 2470 0050 FFF7FEBF 		b	tcp_close_shutdown
 2471              	.LVL175:
ARM GAS  /var/folders/5n/p_75w94d66l9ssrldxqdhh700000gn/T//cc9Mn9JC.s 			page 45


 2472              	.L277:
 2473              		.loc 1 281 0
 2474 0054 F325     		movs	r5, #243
 2475              	.LVL176:
 2476 0056 EDE7     		b	.L273
 2477              		.cfi_endproc
 2478              	.LFE10:
 2479              		.size	tcp_shutdown, .-tcp_shutdown
 2480 0058 AFF30080 		.section	.text.tcp_close,"ax",%progbits
 2480      AFF30080 
 2481              		.align	2
 2482              		.p2align 4,,15
 2483              		.global	tcp_close
 2484              		.thumb
 2485              		.thumb_func
 2486              		.type	tcp_close, %function
 2487              	tcp_close:
 2488              	.LFB9:
 2489              		.loc 1 253 0
 2490              		.cfi_startproc
 2491              		@ args = 0, pretend = 0, frame = 0
 2492              		@ frame_needed = 0, uses_anonymous_args = 0
 2493              		@ link register save eliminated.
 2494              	.LVL177:
 2495              		.loc 1 259 0
 2496 0000 037C     		ldrb	r3, [r0, #16]	@ zero_extendqisi2
 2497 0002 012B     		cmp	r3, #1
 2498              		.loc 1 261 0
 2499 0004 1EBF     		ittt	ne
 2500 0006 90F82030 		ldrbne	r3, [r0, #32]	@ zero_extendqisi2
 2501 000a 43F01003 		orrne	r3, r3, #16
 2502 000e 80F82030 		strbne	r3, [r0, #32]
 2503              		.loc 1 264 0
 2504 0012 0121     		movs	r1, #1
 2505              		.loc 1 265 0
 2506              		.loc 1 264 0
 2507 0014 FFF7FEBF 		b	tcp_close_shutdown
 2508              	.LVL178:
 2509              		.cfi_endproc
 2510              	.LFE9:
 2511              		.size	tcp_close, .-tcp_close
 2512 0018 AFF30080 		.section	.text.tcp_recv_null,"ax",%progbits
 2512      AFF30080 
 2513              		.align	2
 2514              		.p2align 4,,15
 2515              		.global	tcp_recv_null
 2516              		.thumb
 2517              		.thumb_func
 2518              		.type	tcp_recv_null, %function
 2519              	tcp_recv_null:
 2520              	.LFB26:
 2521              		.loc 1 1101 0
 2522              		.cfi_startproc
 2523              		@ args = 0, pretend = 0, frame = 0
 2524              		@ frame_needed = 0, uses_anonymous_args = 0
 2525              	.LVL179:
 2526 0000 10B5     		push	{r4, lr}
ARM GAS  /var/folders/5n/p_75w94d66l9ssrldxqdhh700000gn/T//cc9Mn9JC.s 			page 46


 2527              	.LCFI18:
 2528              		.cfi_def_cfa_offset 8
 2529              		.cfi_offset 14, -4
 2530              		.cfi_offset 4, -8
 2531              		.loc 1 1103 0
 2532 0002 1446     		mov	r4, r2
 2533 0004 42B1     		cbz	r2, .L284
 2534              		.loc 1 1104 0
 2535 0006 0846     		mov	r0, r1
 2536              	.LVL180:
 2537 0008 1189     		ldrh	r1, [r2, #8]
 2538              	.LVL181:
 2539 000a FFF7FEFF 		bl	tcp_recved
 2540              	.LVL182:
 2541              		.loc 1 1105 0
 2542 000e 2046     		mov	r0, r4
 2543 0010 FFF7FEFF 		bl	pbuf_free
 2544              	.L285:
 2545              		.loc 1 1110 0
 2546 0014 0020     		movs	r0, #0
 2547 0016 10BD     		pop	{r4, pc}
 2548              	.LVL183:
 2549              	.L284:
 2550              	.LBB36:
 2551              	.LBB37:
 2552              		.loc 1 1106 0
 2553 0018 002B     		cmp	r3, #0
 2554 001a FBD1     		bne	.L285
 2555              	.LVL184:
 2556              		.loc 1 1107 0
 2557 001c 0846     		mov	r0, r1
 2558              	.LVL185:
 2559              	.LBE37:
 2560              	.LBE36:
 2561              		.loc 1 1110 0
 2562 001e BDE81040 		pop	{r4, lr}
 2563              	.LBB39:
 2564              	.LBB38:
 2565              		.loc 1 1107 0
 2566 0022 FFF7FEBF 		b	tcp_close
 2567              	.LVL186:
 2568              	.LVL187:
 2569              	.LVL188:
 2570              	.LBE38:
 2571              	.LBE39:
 2572              		.cfi_endproc
 2573              	.LFE26:
 2574              		.size	tcp_recv_null, .-tcp_recv_null
 2575 0026 00BFAFF3 		.section	.text.tcp_fasttmr,"ax",%progbits
 2575      0080AFF3 
 2575      0080
 2576              		.align	2
 2577              		.p2align 4,,15
 2578              		.global	tcp_fasttmr
 2579              		.thumb
 2580              		.thumb_func
 2581              		.type	tcp_fasttmr, %function
ARM GAS  /var/folders/5n/p_75w94d66l9ssrldxqdhh700000gn/T//cc9Mn9JC.s 			page 47


 2582              	tcp_fasttmr:
 2583              	.LFB21:
 2584              		.loc 1 994 0
 2585              		.cfi_startproc
 2586              		@ args = 0, pretend = 0, frame = 0
 2587              		@ frame_needed = 0, uses_anonymous_args = 0
 2588              		.loc 1 995 0
 2589 0000 1A4B     		ldr	r3, .L300
 2590              		.loc 1 994 0
 2591 0002 70B5     		push	{r4, r5, r6, lr}
 2592              	.LCFI19:
 2593              		.cfi_def_cfa_offset 16
 2594              		.cfi_offset 14, -4
 2595              		.cfi_offset 6, -8
 2596              		.cfi_offset 5, -12
 2597              		.cfi_offset 4, -16
 2598              		.loc 1 995 0
 2599 0004 1C68     		ldr	r4, [r3, #0]
 2600              	.LVL189:
 2601              		.loc 1 997 0
 2602 0006 002C     		cmp	r4, #0
 2603 0008 2ED0     		beq	.L297
 2604              	.LVL190:
 2605              	.L296:
 2606              	.LBB40:
 2607              		.loc 1 1000 0
 2608 000a D4F88020 		ldr	r2, [r4, #128]
 2609              		.loc 1 998 0
 2610 000e E568     		ldr	r5, [r4, #12]
 2611              	.LVL191:
 2612              		.loc 1 1000 0
 2613 0010 4AB1     		cbz	r2, .L289
 2614              	.LVL192:
 2615              	.LBB41:
 2616              		.loc 1 1004 0
 2617 0012 D4F88860 		ldr	r6, [r4, #136]
 2618 0016 0EB3     		cbz	r6, .L290
 2619              		.loc 1 1004 0 is_stmt 0 discriminator 1
 2620 0018 6069     		ldr	r0, [r4, #20]
 2621 001a 2146     		mov	r1, r4
 2622 001c 0023     		movs	r3, #0
 2623 001e B047     		blx	r6
 2624              	.LVL193:
 2625              	.L291:
 2626              		.loc 1 1005 0 is_stmt 1
 2627 0020 C0B9     		cbnz	r0, .L292
 2628              		.loc 1 1006 0
 2629 0022 C4F88000 		str	r0, [r4, #128]
 2630              	.LVL194:
 2631              	.L289:
 2632              	.LBE41:
 2633              		.loc 1 1014 0
 2634 0026 94F82030 		ldrb	r3, [r4, #32]	@ zero_extendqisi2
 2635 002a D807     		lsls	r0, r3, #31
 2636 002c 02D4     		bmi	.L298
 2637              	.L293:
 2638              	.LVL195:
ARM GAS  /var/folders/5n/p_75w94d66l9ssrldxqdhh700000gn/T//cc9Mn9JC.s 			page 48


 2639              	.LBE40:
 2640              		.loc 1 997 0 discriminator 1
 2641 002e 85B1     		cbz	r5, .L299
 2642              	.L295:
 2643              		.loc 1 997 0 is_stmt 0
 2644 0030 2C46     		mov	r4, r5
 2645 0032 EAE7     		b	.L296
 2646              	.LVL196:
 2647              	.L298:
 2648              	.LBB43:
 2649              		.loc 1 1016 0 is_stmt 1
 2650 0034 43F00203 		orr	r3, r3, #2
 2651 0038 84F82030 		strb	r3, [r4, #32]
 2652              		.loc 1 1017 0
 2653 003c 2046     		mov	r0, r4
 2654 003e FFF7FEFF 		bl	tcp_output
 2655              		.loc 1 1018 0
 2656 0042 94F82030 		ldrb	r3, [r4, #32]	@ zero_extendqisi2
 2657 0046 23F00303 		bic	r3, r3, #3
 2658 004a 84F82030 		strb	r3, [r4, #32]
 2659              	.LVL197:
 2660              	.LBE43:
 2661              		.loc 1 997 0
 2662 004e 002D     		cmp	r5, #0
 2663 0050 EED1     		bne	.L295
 2664              	.L299:
 2665 0052 70BD     		pop	{r4, r5, r6, pc}
 2666              	.LVL198:
 2667              	.L292:
 2668              	.LBB44:
 2669              	.LBB42:
 2670              		.loc 1 1007 0
 2671 0054 40B2     		sxtb	r0, r0
 2672              	.LVL199:
 2673 0056 0A30     		adds	r0, r0, #10
 2674 0058 E5D1     		bne	.L289
 2675 005a E8E7     		b	.L293
 2676              	.L290:
 2677              		.loc 1 1004 0 discriminator 2
 2678 005c 3046     		mov	r0, r6
 2679 005e 2146     		mov	r1, r4
 2680 0060 3346     		mov	r3, r6
 2681 0062 FFF7FEFF 		bl	tcp_recv_null
 2682              	.LVL200:
 2683 0066 DBE7     		b	.L291
 2684              	.LVL201:
 2685              	.L297:
 2686 0068 70BD     		pop	{r4, r5, r6, pc}
 2687              	.L301:
 2688 006a 00BF     		.align	2
 2689              	.L300:
 2690 006c 00000000 		.word	.LANCHOR6
 2691              	.LBE42:
 2692              	.LBE44:
 2693              		.cfi_endproc
 2694              	.LFE21:
 2695              		.size	tcp_fasttmr, .-tcp_fasttmr
ARM GAS  /var/folders/5n/p_75w94d66l9ssrldxqdhh700000gn/T//cc9Mn9JC.s 			page 49


 2696              		.section	.text.tcp_tmr,"ax",%progbits
 2697              		.align	2
 2698              		.p2align 4,,15
 2699              		.global	tcp_tmr
 2700              		.thumb
 2701              		.thumb_func
 2702              		.type	tcp_tmr, %function
 2703              	tcp_tmr:
 2704              	.LFB7:
 2705              		.loc 1 110 0
 2706              		.cfi_startproc
 2707              		@ args = 0, pretend = 0, frame = 0
 2708              		@ frame_needed = 0, uses_anonymous_args = 0
 2709 0000 08B5     		push	{r3, lr}
 2710              	.LCFI20:
 2711              		.cfi_def_cfa_offset 8
 2712              		.cfi_offset 14, -4
 2713              		.cfi_offset 3, -8
 2714              		.loc 1 112 0
 2715 0002 FFF7FEFF 		bl	tcp_fasttmr
 2716              		.loc 1 114 0
 2717 0006 064A     		ldr	r2, .L305
 2718 0008 1378     		ldrb	r3, [r2, #0]	@ zero_extendqisi2
 2719 000a 0133     		adds	r3, r3, #1
 2720 000c DBB2     		uxtb	r3, r3
 2721 000e 1370     		strb	r3, [r2, #0]
 2722 0010 DB07     		lsls	r3, r3, #31
 2723 0012 00D4     		bmi	.L304
 2724 0014 08BD     		pop	{r3, pc}
 2725              	.L304:
 2726              		.loc 1 119 0
 2727 0016 BDE80840 		pop	{r3, lr}
 2728              		.loc 1 117 0
 2729 001a FFF7FEBF 		b	tcp_slowtmr
 2730              	.L306:
 2731 001e 00BF     		.align	2
 2732              	.L305:
 2733 0020 00000000 		.word	.LANCHOR11
 2734              		.cfi_endproc
 2735              	.LFE7:
 2736              		.size	tcp_tmr, .-tcp_tmr
 2737 0024 AFF30080 		.section	.text.tcp_next_iss,"ax",%progbits
 2737      AFF30080 
 2737      AFF30080 
 2738              		.align	2
 2739              		.p2align 4,,15
 2740              		.global	tcp_next_iss
 2741              		.thumb
 2742              		.thumb_func
 2743              		.type	tcp_next_iss, %function
 2744              	tcp_next_iss:
 2745              	.LFB39:
 2746              		.loc 1 1465 0
 2747              		.cfi_startproc
 2748              		@ args = 0, pretend = 0, frame = 0
 2749              		@ frame_needed = 0, uses_anonymous_args = 0
 2750              		@ link register save eliminated.
ARM GAS  /var/folders/5n/p_75w94d66l9ssrldxqdhh700000gn/T//cc9Mn9JC.s 			page 50


 2751              		.loc 1 1468 0
 2752 0000 40F20002 		movw	r2, #:lower16:.LANCHOR5
 2753 0004 40F20003 		movw	r3, #:lower16:.LANCHOR10
 2754 0008 C0F20003 		movt	r3, #:upper16:.LANCHOR10
 2755 000c C0F20002 		movt	r2, #:upper16:.LANCHOR5
 2756 0010 1968     		ldr	r1, [r3, #0]
 2757 0012 1068     		ldr	r0, [r2, #0]
 2758 0014 4018     		adds	r0, r0, r1
 2759 0016 1860     		str	r0, [r3, #0]
 2760              		.loc 1 1470 0
 2761 0018 7047     		bx	lr
 2762              		.cfi_endproc
 2763              	.LFE39:
 2764              		.size	tcp_next_iss, .-tcp_next_iss
 2765 001a 00BFAFF3 		.section	.text.tcp_eff_send_mss,"ax",%progbits
 2765      0080
 2766              		.align	2
 2767              		.p2align 4,,15
 2768              		.global	tcp_eff_send_mss
 2769              		.thumb
 2770              		.thumb_func
 2771              		.type	tcp_eff_send_mss, %function
 2772              	tcp_eff_send_mss:
 2773              	.LFB40:
 2774              		.loc 1 1480 0
 2775              		.cfi_startproc
 2776              		@ args = 0, pretend = 0, frame = 0
 2777              		@ frame_needed = 0, uses_anonymous_args = 0
 2778              	.LVL202:
 2779 0000 10B5     		push	{r4, lr}
 2780              	.LCFI21:
 2781              		.cfi_def_cfa_offset 8
 2782              		.cfi_offset 14, -4
 2783              		.cfi_offset 4, -8
 2784              		.loc 1 1480 0
 2785 0002 0446     		mov	r4, r0
 2786              		.loc 1 1484 0
 2787 0004 0846     		mov	r0, r1
 2788              	.LVL203:
 2789 0006 FFF7FEFF 		bl	ip_route
 2790              	.LVL204:
 2791              		.loc 1 1485 0
 2792 000a 30B1     		cbz	r0, .L309
 2793              		.loc 1 1485 0 is_stmt 0 discriminator 1
 2794 000c 038C     		ldrh	r3, [r0, #32]
 2795 000e 23B1     		cbz	r3, .L309
 2796              	.LVL205:
 2797              		.loc 1 1486 0 is_stmt 1
 2798 0010 283B     		subs	r3, r3, #40
 2799              	.LVL206:
 2800              		.loc 1 1491 0
 2801 0012 9BB2     		uxth	r3, r3
 2802              	.LVL207:
 2803 0014 9C42     		cmp	r4, r3
 2804 0016 28BF     		it	cs
 2805 0018 1C46     		movcs	r4, r3
 2806              	.LVL208:
ARM GAS  /var/folders/5n/p_75w94d66l9ssrldxqdhh700000gn/T//cc9Mn9JC.s 			page 51


 2807              	.L309:
 2808              		.loc 1 1494 0
 2809 001a 2046     		mov	r0, r4
 2810              	.LVL209:
 2811 001c 10BD     		pop	{r4, pc}
 2812              		.cfi_endproc
 2813              	.LFE40:
 2814              		.size	tcp_eff_send_mss, .-tcp_eff_send_mss
 2815 001e 00BF     		.section	.text.tcp_connect,"ax",%progbits
 2816              		.align	2
 2817              		.p2align 4,,15
 2818              		.global	tcp_connect
 2819              		.thumb
 2820              		.thumb_func
 2821              		.type	tcp_connect, %function
 2822              	tcp_connect:
 2823              	.LFB19:
 2824              		.loc 1 651 0
 2825              		.cfi_startproc
 2826              		@ args = 0, pretend = 0, frame = 0
 2827              		@ frame_needed = 0, uses_anonymous_args = 0
 2828              	.LVL210:
 2829 0000 2DE9F041 		push	{r4, r5, r6, r7, r8, lr}
 2830              	.LCFI22:
 2831              		.cfi_def_cfa_offset 24
 2832              		.cfi_offset 14, -4
 2833              		.cfi_offset 8, -8
 2834              		.cfi_offset 7, -12
 2835              		.cfi_offset 6, -16
 2836              		.cfi_offset 5, -20
 2837              		.cfi_offset 4, -24
 2838              		.loc 1 651 0
 2839 0004 0D46     		mov	r5, r1
 2840              		.loc 1 656 0
 2841 0006 017C     		ldrb	r1, [r0, #16]	@ zero_extendqisi2
 2842              	.LVL211:
 2843              		.loc 1 651 0
 2844 0008 0446     		mov	r4, r0
 2845 000a 1F46     		mov	r7, r3
 2846              		.loc 1 656 0
 2847 000c 0029     		cmp	r1, #0
 2848 000e 73D1     		bne	.L327
 2849              		.loc 1 659 0
 2850 0010 002D     		cmp	r5, #0
 2851 0012 75D0     		beq	.L322
 2852              		.loc 1 660 0
 2853 0014 2968     		ldr	r1, [r5, #0]
 2854              		.loc 1 667 0
 2855 0016 0368     		ldr	r3, [r0, #0]
 2856              	.LVL212:
 2857              		.loc 1 660 0
 2858 0018 4160     		str	r1, [r0, #4]
 2859              		.loc 1 664 0
 2860 001a C283     		strh	r2, [r0, #30]	@ movhi
 2861              		.loc 1 667 0
 2862 001c 002B     		cmp	r3, #0
 2863 001e 55D0     		beq	.L328
ARM GAS  /var/folders/5n/p_75w94d66l9ssrldxqdhh700000gn/T//cc9Mn9JC.s 			page 52


 2864              		.loc 1 679 0
 2865 0020 A68B     		ldrh	r6, [r4, #28]
 2866              	.LVL213:
 2867              		.loc 1 680 0
 2868 0022 002E     		cmp	r6, #0
 2869 0024 5BD0     		beq	.L329
 2870              	.LVL214:
 2871              	.L314:
 2872              	.LBB45:
 2873              	.LBB46:
 2874              		.loc 1 1468 0
 2875 0026 384A     		ldr	r2, .L334
 2876 0028 3849     		ldr	r1, .L334+4
 2877 002a 1368     		ldr	r3, [r2, #0]
 2878 002c 0968     		ldr	r1, [r1, #0]
 2879 002e CB18     		adds	r3, r1, r3
 2880              	.LBE46:
 2881              	.LBE45:
 2882              		.loc 1 708 0
 2883 0030 4FF4066E 		mov	lr, #2144
 2884              		.loc 1 706 0
 2885 0034 03F1FF38 		add	r8, r3, #-1
 2886              		.loc 1 704 0
 2887 0038 4FF0000C 		mov	ip, #0
 2888              		.loc 1 714 0
 2889 003c 4FF40670 		mov	r0, #536
 2890              		.loc 1 716 0
 2891 0040 2946     		mov	r1, r5
 2892              	.LBB48:
 2893              	.LBB47:
 2894              		.loc 1 1468 0
 2895 0042 1360     		str	r3, [r2, #0]
 2896              	.LBE47:
 2897              	.LBE48:
 2898              		.loc 1 704 0
 2899 0044 C4F824C0 		str	ip, [r4, #36]
 2900              		.loc 1 705 0
 2901 0048 A365     		str	r3, [r4, #88]
 2902              		.loc 1 708 0
 2903 004a A4F828E0 		strh	lr, [r4, #40]	@ movhi
 2904              		.loc 1 709 0
 2905 004e A4F82AE0 		strh	lr, [r4, #42]	@ movhi
 2906              		.loc 1 710 0
 2907 0052 C4F82CC0 		str	ip, [r4, #44]
 2908              		.loc 1 711 0
 2909 0056 A4F85CE0 		strh	lr, [r4, #92]	@ movhi
 2910              		.loc 1 706 0
 2911 005a C4F84C80 		str	r8, [r4, #76]
 2912              		.loc 1 707 0
 2913 005e C4F86880 		str	r8, [r4, #104]
 2914              		.loc 1 714 0
 2915 0062 2087     		strh	r0, [r4, #56]	@ movhi
 2916              		.loc 1 716 0
 2917 0064 FFF7FEFF 		bl	tcp_eff_send_mss
 2918              		.loc 1 719 0
 2919 0068 00EB8003 		add	r3, r0, r0, lsl #2
 2920 006c 5B00     		lsls	r3, r3, #1
ARM GAS  /var/folders/5n/p_75w94d66l9ssrldxqdhh700000gn/T//cc9Mn9JC.s 			page 53


 2921              		.loc 1 718 0
 2922 006e 0122     		movs	r2, #1
 2923              		.loc 1 716 0
 2924 0070 2087     		strh	r0, [r4, #56]	@ movhi
 2925              		.loc 1 718 0
 2926 0072 A4F85220 		strh	r2, [r4, #82]	@ movhi
 2927              		.loc 1 719 0
 2928 0076 A4F85430 		strh	r3, [r4, #84]	@ movhi
 2929              		.loc 1 721 0
 2930 007a C4F88C70 		str	r7, [r4, #140]
 2931              		.loc 1 727 0
 2932 007e 2046     		mov	r0, r4
 2933 0080 0221     		movs	r1, #2
 2934 0082 FFF7FEFF 		bl	tcp_enqueue_flags
 2935              	.LVL215:
 2936              		.loc 1 728 0
 2937 0086 0546     		mov	r5, r0
 2938              	.LVL216:
 2939 0088 E8B9     		cbnz	r0, .L312
 2940              		.loc 1 730 0
 2941 008a 0223     		movs	r3, #2
 2942 008c 2374     		strb	r3, [r4, #16]
 2943              		.loc 1 731 0
 2944 008e 8EB1     		cbz	r6, .L315
 2945              		.loc 1 732 0
 2946 0090 1F4B     		ldr	r3, .L334+8
 2947 0092 1A68     		ldr	r2, [r3, #0]
 2948 0094 A242     		cmp	r2, r4
 2949 0096 2CD0     		beq	.L330
 2950              		.loc 1 732 0 is_stmt 0 discriminator 2
 2951 0098 1E49     		ldr	r1, .L334+12
 2952 009a 0A60     		str	r2, [r1, #0]
 2953 009c 52B1     		cbz	r2, .L315
 2954              		.loc 1 732 0
 2955 009e D368     		ldr	r3, [r2, #12]
 2956 00a0 A342     		cmp	r3, r4
 2957 00a2 24D0     		beq	.L331
 2958              		.loc 1 732 0 discriminator 5
 2959 00a4 2BB1     		cbz	r3, .L332
 2960              	.L321:
 2961              		.loc 1 732 0 discriminator 7
 2962 00a6 DA68     		ldr	r2, [r3, #12]
 2963 00a8 A242     		cmp	r2, r4
 2964 00aa 1CD0     		beq	.L333
 2965              		.loc 1 732 0
 2966 00ac 1346     		mov	r3, r2
 2967 00ae 002B     		cmp	r3, #0
 2968 00b0 F9D1     		bne	.L321
 2969              	.L332:
 2970 00b2 0B60     		str	r3, [r1, #0]
 2971              	.L315:
 2972              		.loc 1 734 0 is_stmt 1
 2973 00b4 184B     		ldr	r3, .L334+16
 2974 00b6 1A68     		ldr	r2, [r3, #0]
 2975 00b8 1C60     		str	r4, [r3, #0]
 2976 00ba E260     		str	r2, [r4, #12]
 2977 00bc FFF7FEFF 		bl	tcp_timer_needed
ARM GAS  /var/folders/5n/p_75w94d66l9ssrldxqdhh700000gn/T//cc9Mn9JC.s 			page 54


 2978              	.LVL217:
 2979              		.loc 1 737 0
 2980 00c0 2046     		mov	r0, r4
 2981 00c2 FFF7FEFF 		bl	tcp_output
 2982              	.L312:
 2983              		.loc 1 740 0
 2984 00c6 68B2     		sxtb	r0, r5
 2985 00c8 BDE8F081 		pop	{r4, r5, r6, r7, r8, pc}
 2986              	.LVL218:
 2987              	.L328:
 2988              	.LBB49:
 2989              		.loc 1 669 0
 2990 00cc 0430     		adds	r0, r0, #4
 2991 00ce FFF7FEFF 		bl	ip_route
 2992              	.LVL219:
 2993              		.loc 1 670 0
 2994 00d2 B8B1     		cbz	r0, .L323
 2995              		.loc 1 676 0
 2996 00d4 4368     		ldr	r3, [r0, #4]
 2997              	.LBE49:
 2998              		.loc 1 679 0
 2999 00d6 A68B     		ldrh	r6, [r4, #28]
 3000              	.LVL220:
 3001              	.LBB50:
 3002              		.loc 1 676 0
 3003 00d8 2360     		str	r3, [r4, #0]
 3004              	.LBE50:
 3005              		.loc 1 680 0
 3006 00da 002E     		cmp	r6, #0
 3007 00dc A3D1     		bne	.L314
 3008              	.LVL221:
 3009              	.L329:
 3010              		.loc 1 681 0
 3011 00de FFF7FEFF 		bl	tcp_new_port
 3012 00e2 A083     		strh	r0, [r4, #28]	@ movhi
 3013 00e4 9FE7     		b	.L314
 3014              	.LVL222:
 3015              	.L333:
 3016              		.loc 1 732 0
 3017 00e6 0B60     		str	r3, [r1, #0]
 3018              	.L318:
 3019              		.loc 1 732 0 is_stmt 0 discriminator 4
 3020 00e8 E268     		ldr	r2, [r4, #12]
 3021 00ea DA60     		str	r2, [r3, #12]
 3022 00ec E2E7     		b	.L315
 3023              	.L331:
 3024              		.loc 1 732 0
 3025 00ee 1346     		mov	r3, r2
 3026 00f0 FAE7     		b	.L318
 3027              	.L330:
 3028              		.loc 1 732 0 discriminator 1
 3029 00f2 E268     		ldr	r2, [r4, #12]
 3030 00f4 1A60     		str	r2, [r3, #0]
 3031 00f6 DDE7     		b	.L315
 3032              	.LVL223:
 3033              	.L327:
 3034              		.loc 1 656 0 is_stmt 1 discriminator 1
ARM GAS  /var/folders/5n/p_75w94d66l9ssrldxqdhh700000gn/T//cc9Mn9JC.s 			page 55


 3035 00f8 FFF7FEFF 		bl	port_halt
 3036              	.LVL224:
 3037 00fc F725     		movs	r5, #247
 3038              	.LVL225:
 3039 00fe E2E7     		b	.L312
 3040              	.LVL226:
 3041              	.L322:
 3042              		.loc 1 662 0
 3043 0100 FA25     		movs	r5, #250
 3044              	.LVL227:
 3045 0102 E0E7     		b	.L312
 3046              	.LVL228:
 3047              	.L323:
 3048              	.LBB51:
 3049              		.loc 1 673 0
 3050 0104 FC25     		movs	r5, #252
 3051              	.LVL229:
 3052 0106 DEE7     		b	.L312
 3053              	.L335:
 3054              		.align	2
 3055              	.L334:
 3056 0108 00000000 		.word	.LANCHOR10
 3057 010c 00000000 		.word	.LANCHOR5
 3058 0110 00000000 		.word	.LANCHOR2
 3059 0114 00000000 		.word	.LANCHOR3
 3060 0118 00000000 		.word	.LANCHOR6
 3061              	.LBE51:
 3062              		.cfi_endproc
 3063              	.LFE19:
 3064              		.size	tcp_connect, .-tcp_connect
 3065 011c AFF30080 		.section	.text.tcp_debug_state_str,"ax",%progbits
 3066              		.align	2
 3067              		.p2align 4,,15
 3068              		.global	tcp_debug_state_str
 3069              		.thumb
 3070              		.thumb_func
 3071              		.type	tcp_debug_state_str, %function
 3072              	tcp_debug_state_str:
 3073              	.LFB41:
 3074              		.loc 1 1499 0
 3075              		.cfi_startproc
 3076              		@ args = 0, pretend = 0, frame = 0
 3077              		@ frame_needed = 0, uses_anonymous_args = 0
 3078              		@ link register save eliminated.
 3079              	.LVL230:
 3080              		.loc 1 1500 0
 3081 0000 40F20003 		movw	r3, #:lower16:.LANCHOR12
 3082 0004 C0F20003 		movt	r3, #:upper16:.LANCHOR12
 3083              		.loc 1 1501 0
 3084 0008 53F82000 		ldr	r0, [r3, r0, lsl #2]
 3085              	.LVL231:
 3086 000c 7047     		bx	lr
 3087              		.cfi_endproc
 3088              	.LFE41:
 3089              		.size	tcp_debug_state_str, .-tcp_debug_state_str
 3090              		.global	tcp_tmp_pcb
 3091              		.global	tcp_pcb_lists
ARM GAS  /var/folders/5n/p_75w94d66l9ssrldxqdhh700000gn/T//cc9Mn9JC.s 			page 56


 3092              		.global	tcp_tw_pcbs
 3093              		.global	tcp_active_pcbs
 3094              		.global	tcp_listen_pcbs
 3095              		.global	tcp_bound_pcbs
 3096              		.global	tcp_persist_backoff
 3097              		.global	tcp_backoff
 3098              		.global	tcp_ticks
 3099              		.global	tcp_state_str
 3100 000e 00BF     		.section	.data.port.3109,"aw",%progbits
 3101              		.align	1
 3102              		.set	.LANCHOR0,. + 0
 3103              		.type	port.3109, %object
 3104              		.size	port.3109, 2
 3105              	port.3109:
 3106 0000 00C0     		.short	-16384
 3107              		.section	.rodata.tcp_state_str,"a",%progbits
 3108              		.align	2
 3109              		.set	.LANCHOR12,. + 0
 3110              		.type	tcp_state_str, %object
 3111              		.size	tcp_state_str, 44
 3112              	tcp_state_str:
 3113 0000 00000000 		.word	.LC0
 3114 0004 08000000 		.word	.LC1
 3115 0008 10000000 		.word	.LC2
 3116 000c 1C000000 		.word	.LC3
 3117 0010 28000000 		.word	.LC4
 3118 0014 34000000 		.word	.LC5
 3119 0018 40000000 		.word	.LC6
 3120 001c 4C000000 		.word	.LC7
 3121 0020 58000000 		.word	.LC8
 3122 0024 60000000 		.word	.LC9
 3123 0028 6C000000 		.word	.LC10
 3124              		.section	.rodata.tcp_pcb_lists,"a",%progbits
 3125              		.align	2
 3126              		.set	.LANCHOR1,. + 0
 3127              		.type	tcp_pcb_lists, %object
 3128              		.size	tcp_pcb_lists, 16
 3129              	tcp_pcb_lists:
 3130 0000 00000000 		.word	tcp_listen_pcbs
 3131 0004 00000000 		.word	tcp_bound_pcbs
 3132 0008 00000000 		.word	tcp_active_pcbs
 3133 000c 00000000 		.word	tcp_tw_pcbs
 3134              		.section	.bss.tcp_ticks,"aw",%nobits
 3135              		.align	2
 3136              		.set	.LANCHOR5,. + 0
 3137              		.type	tcp_ticks, %object
 3138              		.size	tcp_ticks, 4
 3139              	tcp_ticks:
 3140 0000 00000000 		.space	4
 3141              		.section	.bss.tcp_timer,"aw",%nobits
 3142              		.set	.LANCHOR11,. + 0
 3143              		.type	tcp_timer, %object
 3144              		.size	tcp_timer, 1
 3145              	tcp_timer:
 3146 0000 00       		.space	1
 3147              		.section	.data.iss.3245,"aw",%progbits
 3148              		.align	2
ARM GAS  /var/folders/5n/p_75w94d66l9ssrldxqdhh700000gn/T//cc9Mn9JC.s 			page 57


 3149              		.set	.LANCHOR10,. + 0
 3150              		.type	iss.3245, %object
 3151              		.size	iss.3245, 4
 3152              	iss.3245:
 3153 0000 6E190000 		.word	6510
 3154              		.section	.bss.tcp_listen_pcbs,"aw",%nobits
 3155              		.align	2
 3156              		.set	.LANCHOR4,. + 0
 3157              		.type	tcp_listen_pcbs, %object
 3158              		.size	tcp_listen_pcbs, 4
 3159              	tcp_listen_pcbs:
 3160 0000 00000000 		.space	4
 3161              		.section	.rodata.tcp_backoff,"a",%progbits
 3162              		.align	2
 3163              		.set	.LANCHOR8,. + 0
 3164              		.type	tcp_backoff, %object
 3165              		.size	tcp_backoff, 13
 3166              	tcp_backoff:
 3167 0000 01       		.byte	1
 3168 0001 02       		.byte	2
 3169 0002 03       		.byte	3
 3170 0003 04       		.byte	4
 3171 0004 05       		.byte	5
 3172 0005 06       		.byte	6
 3173 0006 07       		.byte	7
 3174 0007 07       		.byte	7
 3175 0008 07       		.byte	7
 3176 0009 07       		.byte	7
 3177 000a 07       		.byte	7
 3178 000b 07       		.byte	7
 3179 000c 07       		.byte	7
 3180 000d 000000   		.section	.bss.tcp_active_pcbs,"aw",%nobits
 3181              		.align	2
 3182              		.set	.LANCHOR6,. + 0
 3183              		.type	tcp_active_pcbs, %object
 3184              		.size	tcp_active_pcbs, 4
 3185              	tcp_active_pcbs:
 3186 0000 00000000 		.space	4
 3187              		.section	.bss.tcp_tw_pcbs,"aw",%nobits
 3188              		.align	2
 3189              		.set	.LANCHOR9,. + 0
 3190              		.type	tcp_tw_pcbs, %object
 3191              		.size	tcp_tw_pcbs, 4
 3192              	tcp_tw_pcbs:
 3193 0000 00000000 		.space	4
 3194              		.section	.bss.tcp_tmp_pcb,"aw",%nobits
 3195              		.align	2
 3196              		.set	.LANCHOR3,. + 0
 3197              		.type	tcp_tmp_pcb, %object
 3198              		.size	tcp_tmp_pcb, 4
 3199              	tcp_tmp_pcb:
 3200 0000 00000000 		.space	4
 3201              		.section	.rodata.str1.4,"aMS",%progbits,1
 3202              		.align	2
 3203              	.LC0:
 3204 0000 434C4F53 		.ascii	"CLOSED\000"
 3204      454400
ARM GAS  /var/folders/5n/p_75w94d66l9ssrldxqdhh700000gn/T//cc9Mn9JC.s 			page 58


 3205 0007 00       		.space	1
 3206              	.LC1:
 3207 0008 4C495354 		.ascii	"LISTEN\000"
 3207      454E00
 3208 000f 00       		.space	1
 3209              	.LC2:
 3210 0010 53594E5F 		.ascii	"SYN_SENT\000"
 3210      53454E54 
 3210      00
 3211 0019 000000   		.space	3
 3212              	.LC3:
 3213 001c 53594E5F 		.ascii	"SYN_RCVD\000"
 3213      52435644 
 3213      00
 3214 0025 000000   		.space	3
 3215              	.LC4:
 3216 0028 45535441 		.ascii	"ESTABLISHED\000"
 3216      424C4953 
 3216      48454400 
 3217              	.LC5:
 3218 0034 46494E5F 		.ascii	"FIN_WAIT_1\000"
 3218      57414954 
 3218      5F3100
 3219 003f 00       		.space	1
 3220              	.LC6:
 3221 0040 46494E5F 		.ascii	"FIN_WAIT_2\000"
 3221      57414954 
 3221      5F3200
 3222 004b 00       		.space	1
 3223              	.LC7:
 3224 004c 434C4F53 		.ascii	"CLOSE_WAIT\000"
 3224      455F5741 
 3224      495400
 3225 0057 00       		.space	1
 3226              	.LC8:
 3227 0058 434C4F53 		.ascii	"CLOSING\000"
 3227      494E4700 
 3228              	.LC9:
 3229 0060 4C415354 		.ascii	"LAST_ACK\000"
 3229      5F41434B 
 3229      00
 3230 0069 000000   		.space	3
 3231              	.LC10:
 3232 006c 54494D45 		.ascii	"TIME_WAIT\000"
 3232      5F574149 
 3232      5400
 3233 0076 0000     		.section	.rodata.tcp_persist_backoff,"a",%progbits
 3234              		.align	2
 3235              		.set	.LANCHOR7,. + 0
 3236              		.type	tcp_persist_backoff, %object
 3237              		.size	tcp_persist_backoff, 7
 3238              	tcp_persist_backoff:
 3239 0000 03       		.byte	3
 3240 0001 06       		.byte	6
 3241 0002 0C       		.byte	12
 3242 0003 18       		.byte	24
 3243 0004 30       		.byte	48
ARM GAS  /var/folders/5n/p_75w94d66l9ssrldxqdhh700000gn/T//cc9Mn9JC.s 			page 59


 3244 0005 60       		.byte	96
 3245 0006 78       		.byte	120
 3246 0007 00       		.section	.bss.tcp_bound_pcbs,"aw",%nobits
 3247              		.align	2
 3248              		.set	.LANCHOR2,. + 0
 3249              		.type	tcp_bound_pcbs, %object
 3250              		.size	tcp_bound_pcbs, 4
 3251              	tcp_bound_pcbs:
 3252 0000 00000000 		.space	4
 3253              		.text
 3254              	.Letext0:
 3255              		.file 2 "/usr/local/summon/lib/gcc/arm-none-eabi/4.6.2/../../../../arm-none-eabi/include/stdint.h"
 3256              		.file 3 "../../os/various/lwip_bindings/arch/cc.h"
 3257              		.file 4 "../../ext/lwip/src/include/lwip/mem.h"
 3258              		.file 5 "../../ext/lwip/src/include/ipv4/lwip/ip_addr.h"
 3259              		.file 6 "../../ext/lwip/src/include/lwip/err.h"
 3260              		.file 7 "../../ext/lwip/src/include/lwip/pbuf.h"
 3261              		.file 8 "../../ext/lwip/src/include/lwip/netif.h"
 3262              		.file 9 "../../ext/lwip/src/include/lwip/tcp.h"
 3263              		.file 10 "../../ext/lwip/src/include/lwip/tcp_impl.h"
 3264              		.file 11 "../../ext/lwip/src/include/lwip/stats.h"
 3265              		.file 12 "../../ext/lwip/src/include/lwip/memp.h"