ARM GAS  /var/folders/5n/p_75w94d66l9ssrldxqdhh700000gn/T//cc4n8EPc.s 			page 1


   1              		.syntax unified
   2              		.cpu cortex-m4
   3              		.fpu softvfp
   4              		.eabi_attribute 20, 1
   5              		.eabi_attribute 21, 1
   6              		.eabi_attribute 23, 3
   7              		.eabi_attribute 24, 1
   8              		.eabi_attribute 25, 1
   9              		.eabi_attribute 26, 1
  10              		.eabi_attribute 30, 2
  11              		.eabi_attribute 18, 4
  12              		.thumb
  13              		.file	"tcp_out.c"
  14              		.text
  15              	.Ltext0:
  16              		.cfi_sections	.debug_frame
  17              		.section	.text.tcp_pbuf_prealloc,"ax",%progbits
  18              		.align	2
  19              		.p2align 4,,15
  20              		.thumb
  21              		.thumb_func
  22              		.type	tcp_pbuf_prealloc, %function
  23              	tcp_pbuf_prealloc:
  24              	.LFB10:
  25              		.file 1 "../../ext/lwip/src/core/tcp_out.c"
  26              		.loc 1 219 0
  27              		.cfi_startproc
  28              		@ args = 12, pretend = 0, frame = 0
  29              		@ frame_needed = 0, uses_anonymous_args = 0
  30              	.LVL0:
  31 0000 70B5     		push	{r4, r5, r6, lr}
  32              	.LCFI0:
  33              		.cfi_def_cfa_offset 16
  34              		.cfi_offset 14, -4
  35              		.cfi_offset 6, -8
  36              		.cfi_offset 5, -12
  37              		.cfi_offset 4, -16
  38              		.loc 1 231 0
  39 0002 9142     		cmp	r1, r2
  40              		.loc 1 219 0
  41 0004 1D46     		mov	r5, r3
  42 0006 0C46     		mov	r4, r1
  43              	.LVL1:
  44 0008 049B     		ldr	r3, [sp, #16]
  45              	.LVL2:
  46              		.loc 1 231 0
  47 000a 10D2     		bcs	.L8
  48              		.loc 1 243 0
  49 000c 9DF81410 		ldrb	r1, [sp, #20]	@ zero_extendqisi2
  50              	.LVL3:
  51 0010 8E07     		lsls	r6, r1, #30
  52 0012 08D5     		bpl	.L10
  53              	.L3:
  54              		.loc 1 248 0
  55 0014 04F21B21 		addw	r1, r4, #539
  56 0018 21F00301 		bic	r1, r1, #3
  57 001c 9142     		cmp	r1, r2
ARM GAS  /var/folders/5n/p_75w94d66l9ssrldxqdhh700000gn/T//cc4n8EPc.s 			page 2


  58 001e B8BF     		it	lt
  59 0020 0A46     		movlt	r2, r1
  60              	.LVL4:
  61 0022 91B2     		uxth	r1, r2
  62              	.LVL5:
  63 0024 04E0     		b	.L2
  64              	.LVL6:
  65              	.L10:
  66              		.loc 1 244 0 discriminator 1
  67 0026 93F82010 		ldrb	r1, [r3, #32]	@ zero_extendqisi2
  68              		.loc 1 243 0 discriminator 1
  69 002a 4906     		lsls	r1, r1, #25
  70 002c 10D5     		bpl	.L11
  71              	.L8:
  72              		.loc 1 246 0
  73 002e 2146     		mov	r1, r4
  74              	.LVL7:
  75              	.L2:
  76              		.loc 1 252 0
  77 0030 0022     		movs	r2, #0
  78 0032 FFF7FEFF 		bl	pbuf_alloc
  79              	.LVL8:
  80              		.loc 1 253 0
  81 0036 0646     		mov	r6, r0
  82 0038 40B1     		cbz	r0, .L4
  83              		.loc 1 256 0
  84 003a 0368     		ldr	r3, [r0, #0]
  85 003c 0BB1     		cbz	r3, .L5
  86              		.loc 1 256 0 is_stmt 0 discriminator 1
  87 003e FFF7FEFF 		bl	port_halt
  88              	.LVL9:
  89              	.L5:
  90              		.loc 1 257 0 is_stmt 1
  91 0042 7389     		ldrh	r3, [r6, #10]
  92 0044 1B1B     		subs	r3, r3, r4
  93 0046 2B80     		strh	r3, [r5, #0]	@ movhi
  94              		.loc 1 259 0
  95 0048 3481     		strh	r4, [r6, #8]	@ movhi
  96 004a 7481     		strh	r4, [r6, #10]	@ movhi
  97              	.L4:
  98              		.loc 1 261 0
  99 004c 3046     		mov	r0, r6
 100 004e 70BD     		pop	{r4, r5, r6, pc}
 101              	.LVL10:
 102              	.L11:
 103              		.loc 1 244 0
 104 0050 9DF81810 		ldrb	r1, [sp, #24]	@ zero_extendqisi2
 105 0054 0029     		cmp	r1, #0
 106 0056 DDD0     		beq	.L3
 107              		.loc 1 245 0
 108 0058 596F     		ldr	r1, [r3, #116]
 109 005a 0029     		cmp	r1, #0
 110 005c DAD1     		bne	.L3
 111              		.loc 1 246 0
 112 005e 9B6F     		ldr	r3, [r3, #120]
 113 0060 002B     		cmp	r3, #0
 114 0062 D7D1     		bne	.L3
ARM GAS  /var/folders/5n/p_75w94d66l9ssrldxqdhh700000gn/T//cc4n8EPc.s 			page 3


 115 0064 E3E7     		b	.L8
 116              		.cfi_endproc
 117              	.LFE10:
 118              		.size	tcp_pbuf_prealloc, .-tcp_pbuf_prealloc
 119 0066 00BFAFF3 		.section	.text.tcp_create_segment,"ax",%progbits
 119      0080AFF3 
 119      0080
 120              		.align	2
 121              		.p2align 4,,15
 122              		.thumb
 123              		.thumb_func
 124              		.type	tcp_create_segment, %function
 125              	tcp_create_segment:
 126              	.LFB9:
 127              		.loc 1 157 0
 128              		.cfi_startproc
 129              		@ args = 4, pretend = 0, frame = 0
 130              		@ frame_needed = 0, uses_anonymous_args = 0
 131              	.LVL11:
 132 0000 2DE9F84F 		push	{r3, r4, r5, r6, r7, r8, r9, sl, fp, lr}
 133              	.LCFI1:
 134              		.cfi_def_cfa_offset 40
 135              		.cfi_offset 14, -4
 136              		.cfi_offset 11, -8
 137              		.cfi_offset 10, -12
 138              		.cfi_offset 9, -16
 139              		.cfi_offset 8, -20
 140              		.cfi_offset 7, -24
 141              		.cfi_offset 6, -28
 142              		.cfi_offset 5, -32
 143              		.cfi_offset 4, -36
 144              		.cfi_offset 3, -40
 145              		.loc 1 157 0
 146 0004 9DF82840 		ldrb	r4, [sp, #40]	@ zero_extendqisi2
 147              		.loc 1 159 0
 148 0008 14F00106 		ands	r6, r4, #1
 149 000c 18BF     		it	ne
 150 000e 0426     		movne	r6, #4
 151              		.loc 1 157 0
 152 0010 0546     		mov	r5, r0
 153              		.loc 1 159 0
 154 0012 14F0020E 		ands	lr, r4, #2
 155              		.loc 1 161 0
 156 0016 4FF00400 		mov	r0, #4
 157              	.LVL12:
 158              		.loc 1 157 0
 159 001a 0F46     		mov	r7, r1
 160 001c 9046     		mov	r8, r2
 161 001e 9A46     		mov	sl, r3
 162              		.loc 1 159 0
 163 0020 0CBF     		ite	eq
 164 0022 F346     		moveq	fp, lr
 165 0024 4FF00C0B 		movne	fp, #12
 166              	.LVL13:
 167              		.loc 1 161 0
 168 0028 FFF7FEFF 		bl	memp_malloc
 169              	.LVL14:
ARM GAS  /var/folders/5n/p_75w94d66l9ssrldxqdhh700000gn/T//cc4n8EPc.s 			page 4


 170 002c 8146     		mov	r9, r0
 171 002e 0028     		cmp	r0, #0
 172 0030 4FD0     		beq	.L20
 173              		.loc 1 166 0
 174 0032 8472     		strb	r4, [r0, #10]
 175              		.loc 1 169 0
 176 0034 3B89     		ldrh	r3, [r7, #8]
 177              		.loc 1 168 0
 178 0036 4760     		str	r7, [r0, #4]
 179              		.loc 1 159 0
 180 0038 5E44     		add	r6, fp, r6
 181              	.LVL15:
 182              		.loc 1 169 0
 183 003a 9B1B     		subs	r3, r3, r6
 184              		.loc 1 167 0
 185 003c 0024     		movs	r4, #0
 186 003e 0460     		str	r4, [r0, #0]
 187              		.loc 1 169 0
 188 0040 0381     		strh	r3, [r0, #8]	@ movhi
 189              		.loc 1 182 0
 190 0042 1421     		movs	r1, #20
 191 0044 3846     		mov	r0, r7
 192              	.LVL16:
 193 0046 FFF7FEFF 		bl	pbuf_header
 194 004a 0746     		mov	r7, r0
 195              	.LVL17:
 196 004c 0028     		cmp	r0, #0
 197 004e 35D1     		bne	.L21
 198              		.loc 1 188 0
 199 0050 D9F80430 		ldr	r3, [r9, #4]
 200              		.loc 1 189 0
 201 0054 A88B     		ldrh	r0, [r5, #28]
 202              		.loc 1 188 0
 203 0056 5C68     		ldr	r4, [r3, #4]
 204 0058 C9F80C40 		str	r4, [r9, #12]
 205              		.loc 1 189 0
 206 005c FFF7FEFF 		bl	lwip_htons
 207 0060 C0F30F23 		ubfx	r3, r0, #8, #16
 208 0064 6370     		strb	r3, [r4, #1]
 209 0066 2070     		strb	r0, [r4, #0]
 210              		.loc 1 190 0
 211 0068 E88B     		ldrh	r0, [r5, #30]
 212 006a D9F80C40 		ldr	r4, [r9, #12]
 213 006e FFF7FEFF 		bl	lwip_htons
 214 0072 C0F30F23 		ubfx	r3, r0, #8, #16
 215 0076 A070     		strb	r0, [r4, #2]
 216 0078 E370     		strb	r3, [r4, #3]
 217              		.loc 1 191 0
 218 007a 5046     		mov	r0, sl
 219 007c D9F80C40 		ldr	r4, [r9, #12]
 220 0080 FFF7FEFF 		bl	lwip_htonl
 221              		.loc 1 193 0
 222 0084 B608     		lsrs	r6, r6, #2
 223              		.loc 1 191 0
 224 0086 030E     		lsrs	r3, r0, #24
 225 0088 C0F30721 		ubfx	r1, r0, #8, #8
 226 008c C0F30742 		ubfx	r2, r0, #16, #8
ARM GAS  /var/folders/5n/p_75w94d66l9ssrldxqdhh700000gn/T//cc4n8EPc.s 			page 5


 227              		.loc 1 193 0
 228 0090 0536     		adds	r6, r6, #5
 229              		.loc 1 191 0
 230 0092 2071     		strb	r0, [r4, #4]
 231 0094 E371     		strb	r3, [r4, #7]
 232 0096 6171     		strb	r1, [r4, #5]
 233 0098 A271     		strb	r2, [r4, #6]
 234              		.loc 1 193 0
 235 009a 48EA0630 		orr	r0, r8, r6, lsl #12
 236 009e D9F80C40 		ldr	r4, [r9, #12]
 237 00a2 FFF7FEFF 		bl	lwip_htons
 238 00a6 C0F30F23 		ubfx	r3, r0, #8, #16
 239 00aa 2073     		strb	r0, [r4, #12]
 240 00ac 6373     		strb	r3, [r4, #13]
 241              		.loc 1 195 0
 242 00ae D9F80C30 		ldr	r3, [r9, #12]
 243 00b2 9F74     		strb	r7, [r3, #18]
 244 00b4 DF74     		strb	r7, [r3, #19]
 245              	.LVL18:
 246              	.L16:
 247              		.loc 1 197 0
 248 00b6 4846     		mov	r0, r9
 249 00b8 BDE8F88F 		pop	{r3, r4, r5, r6, r7, r8, r9, sl, fp, pc}
 250              	.LVL19:
 251              	.L21:
 252              		.loc 1 184 0
 253 00bc 074B     		ldr	r3, .L22
 254 00be B3F8A420 		ldrh	r2, [r3, #164]
 255 00c2 0132     		adds	r2, r2, #1
 256              		.loc 1 185 0
 257 00c4 4846     		mov	r0, r9
 258              		.loc 1 184 0
 259 00c6 A3F8A420 		strh	r2, [r3, #164]	@ movhi
 260              		.loc 1 186 0
 261 00ca A146     		mov	r9, r4
 262              	.LVL20:
 263              		.loc 1 185 0
 264 00cc FFF7FEFF 		bl	tcp_seg_free
 265              	.LVL21:
 266              		.loc 1 186 0
 267 00d0 F1E7     		b	.L16
 268              	.LVL22:
 269              	.L20:
 270              		.loc 1 163 0
 271 00d2 3846     		mov	r0, r7
 272              	.LVL23:
 273 00d4 FFF7FEFF 		bl	pbuf_free
 274              		.loc 1 164 0
 275 00d8 EDE7     		b	.L16
 276              	.L23:
 277 00da 00BF     		.align	2
 278              	.L22:
 279 00dc 00000000 		.word	lwip_stats
 280              		.cfi_endproc
 281              	.LFE9:
 282              		.size	tcp_create_segment, .-tcp_create_segment
 283              		.section	.text.tcp_output_alloc_header.constprop.0,"ax",%progbits
ARM GAS  /var/folders/5n/p_75w94d66l9ssrldxqdhh700000gn/T//cc4n8EPc.s 			page 6


 284              		.align	2
 285              		.p2align 4,,15
 286              		.thumb
 287              		.thumb_func
 288              		.type	tcp_output_alloc_header.constprop.0, %function
 289              	tcp_output_alloc_header.constprop.0:
 290              	.LFB23:
 291              		.loc 1 92 0
 292              		.cfi_startproc
 293              		@ args = 0, pretend = 0, frame = 0
 294              		@ frame_needed = 0, uses_anonymous_args = 0
 295              	.LVL24:
 296              		.loc 1 96 0
 297 0000 1431     		adds	r1, r1, #20
 298              	.LVL25:
 299              		.loc 1 92 0
 300 0002 F8B5     		push	{r3, r4, r5, r6, r7, lr}
 301              	.LCFI2:
 302              		.cfi_def_cfa_offset 24
 303              		.cfi_offset 14, -4
 304              		.cfi_offset 7, -8
 305              		.cfi_offset 6, -12
 306              		.cfi_offset 5, -16
 307              		.cfi_offset 4, -20
 308              		.cfi_offset 3, -24
 309              		.loc 1 96 0
 310 0004 89B2     		uxth	r1, r1
 311              		.loc 1 92 0
 312 0006 0446     		mov	r4, r0
 313 0008 1546     		mov	r5, r2
 314              		.loc 1 96 0
 315 000a 0120     		movs	r0, #1
 316              	.LVL26:
 317 000c 0022     		movs	r2, #0
 318              	.LVL27:
 319 000e FFF7FEFF 		bl	pbuf_alloc
 320              	.LVL28:
 321              		.loc 1 97 0
 322 0012 0746     		mov	r7, r0
 323 0014 0028     		cmp	r0, #0
 324 0016 3FD0     		beq	.L25
 325              		.loc 1 98 0
 326 0018 4389     		ldrh	r3, [r0, #10]
 327 001a 132B     		cmp	r3, #19
 328 001c 3EDD     		ble	.L27
 329              	.LVL29:
 330              	.L26:
 331              		.loc 1 101 0
 332 001e A08B     		ldrh	r0, [r4, #28]
 333              		.loc 1 100 0
 334 0020 7E68     		ldr	r6, [r7, #4]
 335              	.LVL30:
 336              		.loc 1 101 0
 337 0022 FFF7FEFF 		bl	lwip_htons
 338              	.LVL31:
 339 0026 C0F30F23 		ubfx	r3, r0, #8, #16
 340 002a 7370     		strb	r3, [r6, #1]
ARM GAS  /var/folders/5n/p_75w94d66l9ssrldxqdhh700000gn/T//cc4n8EPc.s 			page 7


 341 002c 3070     		strb	r0, [r6, #0]
 342              		.loc 1 102 0
 343 002e E08B     		ldrh	r0, [r4, #30]
 344 0030 FFF7FEFF 		bl	lwip_htons
 345              		.loc 1 103 0
 346 0034 C5F30721 		ubfx	r1, r5, #8, #8
 347              		.loc 1 102 0
 348 0038 C0F30F2E 		ubfx	lr, r0, #8, #16
 349              		.loc 1 103 0
 350 003c C5F30742 		ubfx	r2, r5, #16, #8
 351 0040 2B0E     		lsrs	r3, r5, #24
 352              		.loc 1 102 0
 353 0042 86F803E0 		strb	lr, [r6, #3]
 354              		.loc 1 103 0
 355 0046 7171     		strb	r1, [r6, #5]
 356 0048 B271     		strb	r2, [r6, #6]
 357 004a F371     		strb	r3, [r6, #7]
 358              		.loc 1 102 0
 359 004c B070     		strb	r0, [r6, #2]
 360              		.loc 1 103 0
 361 004e 3571     		strb	r5, [r6, #4]
 362              		.loc 1 104 0
 363 0050 606A     		ldr	r0, [r4, #36]
 364 0052 FFF7FEFF 		bl	lwip_htonl
 365 0056 C0F30742 		ubfx	r2, r0, #16, #8
 366 005a C0F30721 		ubfx	r1, r0, #8, #8
 367 005e 030E     		lsrs	r3, r0, #24
 368 0060 B272     		strb	r2, [r6, #10]
 369 0062 3072     		strb	r0, [r6, #8]
 370 0064 7172     		strb	r1, [r6, #9]
 371 0066 F372     		strb	r3, [r6, #11]
 372              		.loc 1 105 0
 373 0068 45F21000 		movw	r0, #20496
 374 006c FFF7FEFF 		bl	lwip_htons
 375 0070 C0F30F23 		ubfx	r3, r0, #8, #16
 376 0074 7373     		strb	r3, [r6, #13]
 377 0076 3073     		strb	r0, [r6, #12]
 378              		.loc 1 106 0
 379 0078 608D     		ldrh	r0, [r4, #42]
 380 007a FFF7FEFF 		bl	lwip_htons
 381              		.loc 1 101 0
 382 007e 0023     		movs	r3, #0
 383              		.loc 1 106 0
 384 0080 C0F30F22 		ubfx	r2, r0, #8, #16
 385 0084 B073     		strb	r0, [r6, #14]
 386 0086 F273     		strb	r2, [r6, #15]
 387              		.loc 1 107 0
 388 0088 3374     		strb	r3, [r6, #16]
 389 008a 7374     		strb	r3, [r6, #17]
 390              		.loc 1 108 0
 391 008c B374     		strb	r3, [r6, #18]
 392 008e F374     		strb	r3, [r6, #19]
 393              		.loc 1 111 0
 394 0090 628D     		ldrh	r2, [r4, #42]
 395 0092 636A     		ldr	r3, [r4, #36]
 396 0094 D318     		adds	r3, r2, r3
 397 0096 E362     		str	r3, [r4, #44]
ARM GAS  /var/folders/5n/p_75w94d66l9ssrldxqdhh700000gn/T//cc4n8EPc.s 			page 8


 398              	.LVL32:
 399              	.L25:
 400              		.loc 1 114 0
 401 0098 3846     		mov	r0, r7
 402 009a F8BD     		pop	{r3, r4, r5, r6, r7, pc}
 403              	.L27:
 404              		.loc 1 98 0
 405 009c FFF7FEFF 		bl	port_halt
 406 00a0 BDE7     		b	.L26
 407              		.cfi_endproc
 408              	.LFE23:
 409              		.size	tcp_output_alloc_header.constprop.0, .-tcp_output_alloc_header.constprop.0
 410 00a2 00BFAFF3 		.section	.text.tcp_write,"ax",%progbits
 410      0080AFF3 
 410      0080AFF3 
 410      0080
 411              		.align	2
 412              		.p2align 4,,15
 413              		.global	tcp_write
 414              		.thumb
 415              		.thumb_func
 416              		.type	tcp_write, %function
 417              	tcp_write:
 418              	.LFB12:
 419              		.loc 1 352 0
 420              		.cfi_startproc
 421              		@ args = 0, pretend = 0, frame = 48
 422              		@ frame_needed = 0, uses_anonymous_args = 0
 423              	.LVL33:
 424 0000 2DE9F04F 		push	{r4, r5, r6, r7, r8, r9, sl, fp, lr}
 425              	.LCFI3:
 426              		.cfi_def_cfa_offset 36
 427              		.cfi_offset 14, -4
 428              		.cfi_offset 11, -8
 429              		.cfi_offset 10, -12
 430              		.cfi_offset 9, -16
 431              		.cfi_offset 8, -20
 432              		.cfi_offset 7, -24
 433              		.cfi_offset 6, -28
 434              		.cfi_offset 5, -32
 435              		.cfi_offset 4, -36
 436 0004 91B0     		sub	sp, sp, #68
 437              	.LCFI4:
 438              		.cfi_def_cfa_offset 104
 439              		.loc 1 352 0
 440 0006 0546     		mov	r5, r0
 441 0008 0B93     		str	r3, [sp, #44]
 442              		.loc 1 360 0
 443 000a 0023     		movs	r3, #0
 444              	.LVL34:
 445              		.loc 1 377 0
 446 000c 0891     		str	r1, [sp, #32]
 447              		.loc 1 352 0
 448 000e 9246     		mov	sl, r2
 449              		.loc 1 360 0
 450 0010 ADF83E30 		strh	r3, [sp, #62]	@ movhi
 451              	.LVL35:
ARM GAS  /var/folders/5n/p_75w94d66l9ssrldxqdhh700000gn/T//cc4n8EPc.s 			page 9


 452              		.loc 1 377 0
 453 0014 0029     		cmp	r1, #0
 454 0016 00F01D82 		beq	.L100
 455              	.LVL36:
 456              	.LBB9:
 457              	.LBB10:
 458              		.loc 1 294 0
 459 001a 037C     		ldrb	r3, [r0, #16]	@ zero_extendqisi2
 460 001c 072B     		cmp	r3, #7
 461 001e 18BF     		it	ne
 462 0020 042B     		cmpne	r3, #4
 463 0022 40F0D080 		bne	.L101
 464              	.LVL37:
 465              	.L31:
 466              		.loc 1 300 0
 467 0026 BAF1000F 		cmp	sl, #0
 468 002a 00F08C81 		beq	.L33
 469              		.loc 1 305 0
 470 002e B5F86E30 		ldrh	r3, [r5, #110]
 471 0032 5345     		cmp	r3, sl
 472 0034 C0F0C781 		bcc	.L99
 473              		.loc 1 317 0
 474 0038 B5F87030 		ldrh	r3, [r5, #112]
 475 003c 012B     		cmp	r3, #1
 476 003e 00F2BC81 		bhi	.L102
 477              		.loc 1 324 0
 478 0042 002B     		cmp	r3, #0
 479 0044 00F0CA80 		beq	.L36
 480              		.loc 1 325 0
 481 0048 AB6F     		ldr	r3, [r5, #120]
 482 004a 0127     		movs	r7, #1
 483 004c 002B     		cmp	r3, #0
 484 004e 00F0A881 		beq	.L103
 485              	.L37:
 486              	.LVL38:
 487              	.LBE10:
 488              	.LBE9:
 489              		.loc 1 417 0
 490 0052 6E6F     		ldr	r6, [r5, #116]
 491 0054 0A96     		str	r6, [sp, #40]
 492 0056 0A9A     		ldr	r2, [sp, #40]
 493              	.LVL39:
 494 0058 0EB9     		cbnz	r6, .L92
 495 005a CDE0     		b	.L40
 496              	.LVL40:
 497              	.L75:
 498              	.LBB16:
 499              		.loc 1 422 0
 500 005c 1A46     		mov	r2, r3
 501              	.LVL41:
 502              	.L92:
 503              		.loc 1 422 0 is_stmt 0 discriminator 1
 504 005e 1368     		ldr	r3, [r2, #0]
 505 0060 002B     		cmp	r3, #0
 506 0062 FBD1     		bne	.L75
 507              		.loc 1 426 0 is_stmt 1
 508 0064 937A     		ldrb	r3, [r2, #10]	@ zero_extendqisi2
ARM GAS  /var/folders/5n/p_75w94d66l9ssrldxqdhh700000gn/T//cc4n8EPc.s 			page 10


 509 0066 1089     		ldrh	r0, [r2, #8]
 510 0068 2E8F     		ldrh	r6, [r5, #56]
 511 006a 0A92     		str	r2, [sp, #40]
 512 006c 13F00101 		ands	r1, r3, #1
 513 0070 18BF     		it	ne
 514 0072 0421     		movne	r1, #4
 515 0074 361A     		subs	r6, r6, r0
 516 0076 13F00203 		ands	r3, r3, #2
 517              		.loc 1 442 0
 518 007a B5F87220 		ldrh	r2, [r5, #114]
 519              	.LVL42:
 520              		.loc 1 426 0
 521 007e 18BF     		it	ne
 522 0080 0C23     		movne	r3, #12
 523              	.LVL43:
 524              		.loc 1 427 0
 525 0082 761A     		subs	r6, r6, r1
 526 0084 F61A     		subs	r6, r6, r3
 527 0086 B6B2     		uxth	r6, r6
 528              	.LVL44:
 529              		.loc 1 442 0
 530 0088 ADF83E20 		strh	r2, [sp, #62]	@ movhi
 531              		.loc 1 355 0
 532 008c 1446     		mov	r4, r2
 533              		.loc 1 354 0
 534 008e 1346     		mov	r3, r2
 535              	.LVL45:
 536              		.loc 1 443 0
 537 0090 92B1     		cbz	r2, .L44
 538              	.LVL46:
 539              		.loc 1 446 0
 540 0092 9245     		cmp	sl, r2
 541 0094 34BF     		ite	cc
 542 0096 5446     		movcc	r4, sl
 543 0098 1446     		movcs	r4, r2
 544              	.LVL47:
 545              		.loc 1 448 0
 546 009a 121B     		subs	r2, r2, r4
 547 009c 92B2     		uxth	r2, r2
 548              	.LVL48:
 549              		.loc 1 449 0
 550 009e 361B     		subs	r6, r6, r4
 551              	.LVL49:
 552              		.loc 1 452 0
 553 00a0 002A     		cmp	r2, #0
 554 00a2 18BF     		it	ne
 555 00a4 A245     		cmpne	sl, r4
 556              	.LVL50:
 557              		.loc 1 448 0
 558 00a6 ADF83E20 		strh	r2, [sp, #62]	@ movhi
 559              		.loc 1 449 0
 560 00aa B6B2     		uxth	r6, r6
 561              	.LVL51:
 562              		.loc 1 452 0
 563 00ac 08BF     		it	eq
 564 00ae 0A9B     		ldreq	r3, [sp, #40]
 565 00b0 02D0     		beq	.L44
ARM GAS  /var/folders/5n/p_75w94d66l9ssrldxqdhh700000gn/T//cc4n8EPc.s 			page 11


 566              		.loc 1 452 0 is_stmt 0 discriminator 1
 567 00b2 FFF7FEFF 		bl	port_halt
 568              	.LVL52:
 569 00b6 0A9B     		ldr	r3, [sp, #40]
 570              	.LVL53:
 571              	.L44:
 572              		.loc 1 462 0 is_stmt 1
 573 00b8 002E     		cmp	r6, #0
 574 00ba 18BF     		it	ne
 575 00bc 5445     		cmpne	r4, sl
 576 00be 2CBF     		ite	cs
 577 00c0 0022     		movcs	r2, #0
 578 00c2 0122     		movcc	r2, #1
 579 00c4 04D2     		bcs	.L81
 580              		.loc 1 462 0 is_stmt 0 discriminator 1
 581 00c6 0A98     		ldr	r0, [sp, #40]
 582 00c8 0289     		ldrh	r2, [r0, #8]
 583 00ca 002A     		cmp	r2, #0
 584 00cc 40F04381 		bne	.L104
 585              	.L81:
 586              		.loc 1 462 0
 587 00d0 0D94     		str	r4, [sp, #52]
 588              		.loc 1 353 0 is_stmt 1
 589 00d2 0C92     		str	r2, [sp, #48]
 590              	.LVL54:
 591              	.L45:
 592              	.LBE16:
 593              		.loc 1 517 0 discriminator 1
 594 00d4 0026     		movs	r6, #0
 595 00d6 A245     		cmp	sl, r4
 596 00d8 0796     		str	r6, [sp, #28]
 597 00da 40F2A180 		bls	.L49
 598              		.loc 1 517 0 is_stmt 0
 599 00de 0B9E     		ldr	r6, [sp, #44]
 600 00e0 0597     		str	r7, [sp, #20]
 601 00e2 06F00106 		and	r6, r6, #1
 602 00e6 0996     		str	r6, [sp, #36]
 603 00e8 4FF0000B 		mov	fp, #0
 604 00ec 40E0     		b	.L59
 605              	.LVL55:
 606              	.L50:
 607              	.LBB19:
 608              	.LBB20:
 609              		.loc 1 545 0 is_stmt 1
 610 00ee BDF83E30 		ldrh	r3, [sp, #62]
 611              	.LVL56:
 612 00f2 002B     		cmp	r3, #0
 613 00f4 40F08A80 		bne	.L105
 614              	.LVL57:
 615              	.L54:
 616              		.loc 1 547 0
 617 00f8 0020     		movs	r0, #0
 618 00fa 3146     		mov	r1, r6
 619 00fc 0122     		movs	r2, #1
 620 00fe FFF7FEFF 		bl	pbuf_alloc
 621              	.LVL58:
 622 0102 8146     		mov	r9, r0
ARM GAS  /var/folders/5n/p_75w94d66l9ssrldxqdhh700000gn/T//cc4n8EPc.s 			page 12


 623 0104 0028     		cmp	r0, #0
 624 0106 00F0FE80 		beq	.L51
 625              		.loc 1 556 0
 626 010a 089F     		ldr	r7, [sp, #32]
 627              		.loc 1 559 0
 628 010c 0020     		movs	r0, #0
 629              	.LVL59:
 630              		.loc 1 556 0
 631 010e 3B19     		adds	r3, r7, r4
 632 0110 C9F80430 		str	r3, [r9, #4]
 633              		.loc 1 559 0
 634 0114 0146     		mov	r1, r0
 635 0116 0246     		mov	r2, r0
 636 0118 FFF7FEFF 		bl	pbuf_alloc
 637              	.LVL60:
 638 011c 8046     		mov	r8, r0
 639 011e 0028     		cmp	r0, #0
 640 0120 00F0EE80 		beq	.L106
 641              		.loc 1 567 0
 642 0124 4946     		mov	r1, r9
 643 0126 FFF7FEFF 		bl	pbuf_cat
 644              	.LVL61:
 645              	.L53:
 646              	.LBE20:
 647              		.loc 1 570 0
 648 012a 4046     		mov	r0, r8
 649 012c FFF7FEFF 		bl	pbuf_clen
 650 0130 0599     		ldr	r1, [sp, #20]
 651 0132 4718     		adds	r7, r0, r1
 652 0134 BFB2     		uxth	r7, r7
 653              		.loc 1 575 0
 654 0136 022F     		cmp	r7, #2
 655              		.loc 1 570 0
 656 0138 0597     		str	r7, [sp, #20]
 657              	.LVL62:
 658              		.loc 1 575 0
 659 013a 00F23A81 		bhi	.L107
 660              		.loc 1 581 0
 661 013e AB6E     		ldr	r3, [r5, #104]
 662 0140 0022     		movs	r2, #0
 663 0142 2846     		mov	r0, r5
 664 0144 4146     		mov	r1, r8
 665 0146 E318     		adds	r3, r4, r3
 666 0148 0092     		str	r2, [sp, #0]
 667 014a FFF7FEFF 		bl	tcp_create_segment
 668              	.LVL63:
 669 014e 0028     		cmp	r0, #0
 670 0150 00F0D980 		beq	.L51
 671              		.loc 1 594 0
 672 0154 079F     		ldr	r7, [sp, #28]
 673 0156 002F     		cmp	r7, #0
 674 0158 5BD0     		beq	.L84
 675              		.loc 1 598 0
 676 015a BBF1000F 		cmp	fp, #0
 677 015e 00F0F580 		beq	.L108
 678              	.LVL64:
 679              	.L58:
ARM GAS  /var/folders/5n/p_75w94d66l9ssrldxqdhh700000gn/T//cc4n8EPc.s 			page 13


 680              		.loc 1 608 0
 681 0162 3419     		adds	r4, r6, r4
 682              	.LVL65:
 683 0164 A4B2     		uxth	r4, r4
 684              	.LBE19:
 685              		.loc 1 517 0
 686 0166 A245     		cmp	sl, r4
 687              	.LBB23:
 688              		.loc 1 599 0
 689 0168 CBF80000 		str	r0, [fp, #0]
 690              	.LVL66:
 691              	.LBE23:
 692              		.loc 1 517 0
 693 016c 56D9     		bls	.L109
 694              	.LVL67:
 695              	.L85:
 696 016e 8346     		mov	fp, r0
 697              	.LVL68:
 698              	.L59:
 699              	.LBB24:
 700              		.loc 1 520 0
 701 0170 2A8F     		ldrh	r2, [r5, #56]
 702              	.LVL69:
 703              		.loc 1 527 0
 704 0172 099F     		ldr	r7, [sp, #36]
 705              		.loc 1 519 0
 706 0174 C4EB0A06 		rsb	r6, r4, sl
 707              		.loc 1 521 0
 708 0178 B6B2     		uxth	r6, r6
 709 017a 9642     		cmp	r6, r2
 710 017c 28BF     		it	cs
 711 017e 1646     		movcs	r6, r2
 712              	.LVL70:
 713              		.loc 1 527 0
 714 0180 002F     		cmp	r7, #0
 715 0182 B4D0     		beq	.L50
 716              		.loc 1 530 0
 717 0184 079F     		ldr	r7, [sp, #28]
 718 0186 0095     		str	r5, [sp, #0]
 719 0188 D7F1010E 		rsbs	lr, r7, #1
 720 018c 0B9F     		ldr	r7, [sp, #44]
 721 018e 38BF     		it	cc
 722 0190 4FF0000E 		movcc	lr, #0
 723 0194 3146     		mov	r1, r6
 724 0196 0020     		movs	r0, #0
 725 0198 0DF13E03 		add	r3, sp, #62
 726 019c 0197     		str	r7, [sp, #4]
 727 019e CDF808E0 		str	lr, [sp, #8]
 728 01a2 FFF7FEFF 		bl	tcp_pbuf_prealloc
 729              	.LVL71:
 730 01a6 8046     		mov	r8, r0
 731 01a8 0028     		cmp	r0, #0
 732 01aa 00F0AC80 		beq	.L51
 733              		.loc 1 534 0
 734 01ae 4389     		ldrh	r3, [r0, #10]
 735 01b0 B342     		cmp	r3, r6
 736 01b2 C0F0A280 		bcc	.L110
ARM GAS  /var/folders/5n/p_75w94d66l9ssrldxqdhh700000gn/T//cc4n8EPc.s 			page 14


 737              	.LVL72:
 738              	.L52:
 739              		.loc 1 536 0
 740 01b6 089F     		ldr	r7, [sp, #32]
 741 01b8 D8F80400 		ldr	r0, [r8, #4]
 742 01bc 3919     		adds	r1, r7, r4
 743 01be 3246     		mov	r2, r6
 744 01c0 FFF7FEFF 		bl	memcpy
 745 01c4 B1E7     		b	.L53
 746              	.LVL73:
 747              	.L101:
 748              	.LBE24:
 749              	.LBB25:
 750              	.LBB11:
 751              		.loc 1 295 0
 752 01c6 022B     		cmp	r3, #2
 753 01c8 3FF42DAF 		beq	.L31
 754              		.loc 1 299 0
 755 01cc F320     		movs	r0, #243
 756              		.loc 1 296 0
 757 01ce 032B     		cmp	r3, #3
 758 01d0 3FF429AF 		beq	.L31
 759              	.LVL74:
 760              	.L30:
 761              	.LBE11:
 762              	.LBE25:
 763              		.loc 1 702 0
 764 01d4 40B2     		sxtb	r0, r0
 765 01d6 11B0     		add	sp, sp, #68
 766 01d8 BDE8F08F 		pop	{r4, r5, r6, r7, r8, r9, sl, fp, pc}
 767              	.LVL75:
 768              	.L36:
 769              	.LBB26:
 770              	.LBB12:
 771              		.loc 1 328 0
 772 01dc AB6F     		ldr	r3, [r5, #120]
 773 01de 002B     		cmp	r3, #0
 774 01e0 00F0DA80 		beq	.L111
 775              	.L39:
 776 01e4 FFF7FEFF 		bl	port_halt
 777              	.LVL76:
 778              	.LBE12:
 779              	.LBE26:
 780              		.loc 1 417 0
 781 01e8 6E6F     		ldr	r6, [r5, #116]
 782              	.LBB27:
 783              	.LBB13:
 784              		.loc 1 328 0
 785 01ea B5F87070 		ldrh	r7, [r5, #112]
 786              	.LVL77:
 787              	.LBE13:
 788              	.LBE27:
 789              		.loc 1 417 0
 790 01ee 0A96     		str	r6, [sp, #40]
 791 01f0 0A9A     		ldr	r2, [sp, #40]
 792 01f2 002E     		cmp	r6, #0
 793 01f4 7FF433AF 		bne	.L92
ARM GAS  /var/folders/5n/p_75w94d66l9ssrldxqdhh700000gn/T//cc4n8EPc.s 			page 15


 794              	.LVL78:
 795              	.L40:
 796              		.loc 1 506 0
 797 01f8 B5F87230 		ldrh	r3, [r5, #114]
 798 01fc 002B     		cmp	r3, #0
 799 01fe 40F00F81 		bne	.L112
 800              		.loc 1 361 0
 801 0202 0D93     		str	r3, [sp, #52]
 802              		.loc 1 355 0
 803 0204 1C46     		mov	r4, r3
 804              		.loc 1 354 0
 805 0206 0A93     		str	r3, [sp, #40]
 806              		.loc 1 353 0
 807 0208 0C93     		str	r3, [sp, #48]
 808 020a 63E7     		b	.L45
 809              	.LVL79:
 810              	.L105:
 811              	.LBB28:
 812              	.LBB21:
 813              		.loc 1 545 0 discriminator 1
 814 020c FFF7FEFF 		bl	port_halt
 815              	.LVL80:
 816 0210 72E7     		b	.L54
 817              	.LVL81:
 818              	.L84:
 819              	.LBE21:
 820              		.loc 1 608 0
 821 0212 3419     		adds	r4, r6, r4
 822              	.LVL82:
 823 0214 A4B2     		uxth	r4, r4
 824              	.LBE28:
 825              		.loc 1 517 0
 826 0216 A245     		cmp	sl, r4
 827              	.LBB29:
 828              		.loc 1 594 0
 829 0218 0790     		str	r0, [sp, #28]
 830              	.LVL83:
 831              	.LBE29:
 832              		.loc 1 517 0
 833 021a A8D8     		bhi	.L85
 834              	.LVL84:
 835              	.L109:
 836 021c 059F     		ldr	r7, [sp, #20]
 837 021e 0346     		mov	r3, r0
 838              	.LVL85:
 839              	.L49:
 840              		.loc 1 621 0
 841 0220 0D9E     		ldr	r6, [sp, #52]
 842 0222 06B3     		cbz	r6, .L60
 843              	.LBB30:
 844              		.loc 1 624 0
 845 0224 0A9E     		ldr	r6, [sp, #40]
 846 0226 7468     		ldr	r4, [r6, #4]
 847              	.LVL86:
 848 0228 BCB1     		cbz	r4, .L61
 849 022a 0D9E     		ldr	r6, [sp, #52]
 850 022c 9846     		mov	r8, r3
ARM GAS  /var/folders/5n/p_75w94d66l9ssrldxqdhh700000gn/T//cc4n8EPc.s 			page 16


 851 022e 00E0     		b	.L93
 852              	.LVL87:
 853              	.L63:
 854              	.LBE30:
 855              		.loc 1 517 0
 856 0230 1C46     		mov	r4, r3
 857              	.L93:
 858              	.LBB31:
 859              		.loc 1 625 0
 860 0232 2289     		ldrh	r2, [r4, #8]
 861              		.loc 1 626 0
 862 0234 2368     		ldr	r3, [r4, #0]
 863              		.loc 1 625 0
 864 0236 B218     		adds	r2, r6, r2
 865 0238 2281     		strh	r2, [r4, #8]	@ movhi
 866              		.loc 1 626 0
 867 023a 002B     		cmp	r3, #0
 868 023c F8D1     		bne	.L63
 869              		.loc 1 627 0
 870 023e 6389     		ldrh	r3, [r4, #10]
 871 0240 6068     		ldr	r0, [r4, #4]
 872 0242 0899     		ldr	r1, [sp, #32]
 873 0244 C018     		adds	r0, r0, r3
 874 0246 3246     		mov	r2, r6
 875 0248 FFF7FEFF 		bl	memcpy
 876              		.loc 1 628 0
 877 024c 6289     		ldrh	r2, [r4, #10]
 878              		.loc 1 624 0
 879 024e 2368     		ldr	r3, [r4, #0]
 880              	.LVL88:
 881              		.loc 1 628 0
 882 0250 B218     		adds	r2, r6, r2
 883 0252 6281     		strh	r2, [r4, #10]	@ movhi
 884              		.loc 1 624 0
 885 0254 002B     		cmp	r3, #0
 886 0256 EBD1     		bne	.L63
 887 0258 4346     		mov	r3, r8
 888              	.LVL89:
 889              	.L61:
 890              		.loc 1 631 0
 891 025a 0A9E     		ldr	r6, [sp, #40]
 892 025c 3289     		ldrh	r2, [r6, #8]
 893 025e 0D9E     		ldr	r6, [sp, #52]
 894 0260 B218     		adds	r2, r6, r2
 895 0262 0A9E     		ldr	r6, [sp, #40]
 896 0264 3281     		strh	r2, [r6, #8]	@ movhi
 897              	.L60:
 898              	.LBE31:
 899              		.loc 1 636 0
 900 0266 BDF83E20 		ldrh	r2, [sp, #62]
 901              		.loc 1 642 0
 902 026a 0C9E     		ldr	r6, [sp, #48]
 903              		.loc 1 636 0
 904 026c A5F87220 		strh	r2, [r5, #114]	@ movhi
 905              		.loc 1 642 0
 906 0270 86B1     		cbz	r6, .L64
 907              		.loc 1 643 0
ARM GAS  /var/folders/5n/p_75w94d66l9ssrldxqdhh700000gn/T//cc4n8EPc.s 			page 17


 908 0272 0A9E     		ldr	r6, [sp, #40]
 909 0274 002E     		cmp	r6, #0
 910 0276 00F0E880 		beq	.L113
 911              	.LVL90:
 912              	.L65:
 913              		.loc 1 645 0
 914 027a 0A9E     		ldr	r6, [sp, #40]
 915 027c 0C99     		ldr	r1, [sp, #48]
 916 027e 7068     		ldr	r0, [r6, #4]
 917 0280 0693     		str	r3, [sp, #24]
 918 0282 FFF7FEFF 		bl	pbuf_cat
 919              		.loc 1 646 0
 920 0286 0C9E     		ldr	r6, [sp, #48]
 921 0288 069B     		ldr	r3, [sp, #24]
 922 028a 3189     		ldrh	r1, [r6, #8]
 923 028c 0A9E     		ldr	r6, [sp, #40]
 924 028e 3289     		ldrh	r2, [r6, #8]
 925 0290 8A18     		adds	r2, r1, r2
 926 0292 3281     		strh	r2, [r6, #8]	@ movhi
 927              	.L64:
 928              		.loc 1 660 0
 929 0294 0A9E     		ldr	r6, [sp, #40]
 930 0296 002E     		cmp	r6, #0
 931 0298 00F0CB80 		beq	.L114
 932              		.loc 1 663 0
 933 029c 079E     		ldr	r6, [sp, #28]
 934 029e 0A98     		ldr	r0, [sp, #40]
 935 02a0 0660     		str	r6, [r0, #0]
 936              	.L67:
 937              		.loc 1 669 0
 938 02a2 AA6E     		ldr	r2, [r5, #104]
 939              		.loc 1 670 0
 940 02a4 B5F86E10 		ldrh	r1, [r5, #110]
 941              		.loc 1 671 0
 942 02a8 A5F87070 		strh	r7, [r5, #112]	@ movhi
 943              		.loc 1 669 0
 944 02ac 5244     		add	r2, r2, sl
 945              		.loc 1 670 0
 946 02ae CAEB010A 		rsb	sl, sl, r1
 947              	.LVL91:
 948              		.loc 1 669 0
 949 02b2 AA66     		str	r2, [r5, #104]
 950              		.loc 1 670 0
 951 02b4 A5F86EA0 		strh	sl, [r5, #110]	@ movhi
 952              		.loc 1 675 0
 953 02b8 1FB1     		cbz	r7, .L68
 954              		.loc 1 676 0
 955 02ba AA6F     		ldr	r2, [r5, #120]
 956 02bc 002A     		cmp	r2, #0
 957 02be 00F0BB80 		beq	.L115
 958              	.L68:
 959              		.loc 1 685 0
 960 02c2 1846     		mov	r0, r3
 961              		.loc 1 681 0
 962 02c4 002B     		cmp	r3, #0
 963 02c6 85D0     		beq	.L30
 964              		.loc 1 681 0 is_stmt 0 discriminator 1
ARM GAS  /var/folders/5n/p_75w94d66l9ssrldxqdhh700000gn/T//cc4n8EPc.s 			page 18


 965 02c8 DC68     		ldr	r4, [r3, #12]
 966              		.loc 1 685 0 is_stmt 1 discriminator 1
 967 02ca 2046     		mov	r0, r4
 968              		.loc 1 681 0 discriminator 1
 969 02cc 002C     		cmp	r4, #0
 970 02ce 81D0     		beq	.L30
 971 02d0 0B9E     		ldr	r6, [sp, #44]
 972              		.loc 1 685 0 discriminator 1
 973 02d2 0020     		movs	r0, #0
 974              		.loc 1 681 0 discriminator 1
 975 02d4 16F00205 		ands	r5, r6, #2
 976              	.LVL92:
 977 02d8 7FF47CAF 		bne	.L30
 978              		.loc 1 682 0
 979 02dc 237B     		ldrb	r3, [r4, #12]	@ zero_extendqisi2
 980 02de 667B     		ldrb	r6, [r4, #13]	@ zero_extendqisi2
 981 02e0 0820     		movs	r0, #8
 982 02e2 43EA0626 		orr	r6, r3, r6, lsl #8
 983 02e6 FFF7FEFF 		bl	lwip_htons
 984 02ea 40EA0603 		orr	r3, r0, r6
 985 02ee 9BB2     		uxth	r3, r3
 986 02f0 1A0A     		lsrs	r2, r3, #8
 987 02f2 2373     		strb	r3, [r4, #12]
 988 02f4 6273     		strb	r2, [r4, #13]
 989              		.loc 1 685 0
 990 02f6 2846     		mov	r0, r5
 991 02f8 6CE7     		b	.L30
 992              	.LVL93:
 993              	.L110:
 994              	.LBB32:
 995              		.loc 1 534 0 discriminator 1
 996 02fa FFF7FEFF 		bl	port_halt
 997              	.LVL94:
 998 02fe 5AE7     		b	.L52
 999              	.LVL95:
 1000              	.L106:
 1001              	.LBB22:
 1002              		.loc 1 562 0
 1003 0300 4846     		mov	r0, r9
 1004              	.LVL96:
 1005 0302 FFF7FEFF 		bl	pbuf_free
 1006              	.LVL97:
 1007              	.L51:
 1008              	.LBE22:
 1009              	.LBE32:
 1010              		.loc 1 687 0
 1011 0306 95F82020 		ldrb	r2, [r5, #32]	@ zero_extendqisi2
 1012              		.loc 1 688 0
 1013 030a 544B     		ldr	r3, .L117
 1014              		.loc 1 690 0
 1015 030c 0C9F     		ldr	r7, [sp, #48]
 1016              		.loc 1 687 0
 1017 030e 62F07F02 		orn	r2, r2, #127
 1018 0312 85F82020 		strb	r2, [r5, #32]
 1019              		.loc 1 688 0
 1020 0316 B3F89C20 		ldrh	r2, [r3, #156]
 1021 031a 0132     		adds	r2, r2, #1
ARM GAS  /var/folders/5n/p_75w94d66l9ssrldxqdhh700000gn/T//cc4n8EPc.s 			page 19


 1022 031c A3F89C20 		strh	r2, [r3, #156]	@ movhi
 1023              		.loc 1 690 0
 1024 0320 17B1     		cbz	r7, .L69
 1025              		.loc 1 691 0
 1026 0322 3846     		mov	r0, r7
 1027 0324 FFF7FEFF 		bl	pbuf_free
 1028              	.L69:
 1029              		.loc 1 693 0
 1030 0328 079E     		ldr	r6, [sp, #28]
 1031              	.LVL98:
 1032 032a 16B1     		cbz	r6, .L70
 1033              		.loc 1 694 0
 1034 032c 3046     		mov	r0, r6
 1035 032e FFF7FEFF 		bl	tcp_segs_free
 1036              	.LVL99:
 1037              	.L70:
 1038              		.loc 1 696 0
 1039 0332 B5F87030 		ldrh	r3, [r5, #112]
 1040 0336 23B1     		cbz	r3, .L91
 1041              		.loc 1 697 0
 1042 0338 AB6F     		ldr	r3, [r5, #120]
 1043 033a 13B9     		cbnz	r3, .L91
 1044              		.loc 1 697 0 is_stmt 0 discriminator 1
 1045 033c 6B6F     		ldr	r3, [r5, #116]
 1046 033e 002B     		cmp	r3, #0
 1047 0340 5DD0     		beq	.L116
 1048              	.L91:
 1049              		.loc 1 701 0 is_stmt 1
 1050 0342 FF20     		movs	r0, #255
 1051 0344 46E7     		b	.L30
 1052              	.LVL100:
 1053              	.L33:
 1054              		.loc 1 697 0
 1055 0346 B5F87070 		ldrh	r7, [r5, #112]
 1056 034a 82E6     		b	.L37
 1057              	.LVL101:
 1058              	.L108:
 1059              	.LBB33:
 1060              		.loc 1 598 0 discriminator 1
 1061 034c 0690     		str	r0, [sp, #24]
 1062 034e FFF7FEFF 		bl	port_halt
 1063              	.LVL102:
 1064 0352 0698     		ldr	r0, [sp, #24]
 1065 0354 05E7     		b	.L58
 1066              	.LVL103:
 1067              	.L104:
 1068              	.LBE33:
 1069              	.LBB34:
 1070              	.LBB17:
 1071              		.loc 1 469 0
 1072 0356 0B99     		ldr	r1, [sp, #44]
 1073              		.loc 1 463 0
 1074 0358 C4EB0A08 		rsb	r8, r4, sl
 1075 035c B045     		cmp	r8, r6
 1076 035e A8BF     		it	ge
 1077 0360 B046     		movge	r8, r6
 1078 0362 1FFA88F8 		uxth	r8, r8
ARM GAS  /var/folders/5n/p_75w94d66l9ssrldxqdhh700000gn/T//cc4n8EPc.s 			page 20


 1079              	.LVL104:
 1080              		.loc 1 471 0
 1081 0366 0320     		movs	r0, #3
 1082              		.loc 1 469 0
 1083 0368 11F0010F 		tst	r1, #1
 1084              		.loc 1 471 0
 1085 036c 4146     		mov	r1, r8
 1086              		.loc 1 469 0
 1087 036e 32D0     		beq	.L46
 1088              		.loc 1 471 0
 1089 0370 3246     		mov	r2, r6
 1090 0372 0B9E     		ldr	r6, [sp, #44]
 1091 0374 0095     		str	r5, [sp, #0]
 1092 0376 0196     		str	r6, [sp, #4]
 1093 0378 0DF13E03 		add	r3, sp, #62
 1094 037c 0126     		movs	r6, #1
 1095 037e 0296     		str	r6, [sp, #8]
 1096 0380 FFF7FEFF 		bl	tcp_pbuf_prealloc
 1097              	.LVL105:
 1098 0384 0C90     		str	r0, [sp, #48]
 1099 0386 0028     		cmp	r0, #0
 1100 0388 3DD0     		beq	.L47
 1101              		.loc 1 480 0
 1102 038a 089E     		ldr	r6, [sp, #32]
 1103 038c 4068     		ldr	r0, [r0, #4]
 1104              	.LVL106:
 1105 038e 3119     		adds	r1, r6, r4
 1106 0390 4246     		mov	r2, r8
 1107 0392 FFF7FEFF 		bl	memcpy
 1108 0396 26E0     		b	.L48
 1109              	.LVL107:
 1110              	.L111:
 1111              	.LBE17:
 1112              	.LBE34:
 1113              	.LBB35:
 1114              	.LBB14:
 1115              		.loc 1 328 0
 1116 0398 6F6F     		ldr	r7, [r5, #116]
 1117 039a 002F     		cmp	r7, #0
 1118 039c 7FF422AF 		bne	.L39
 1119 03a0 2AE7     		b	.L40
 1120              	.L103:
 1121              		.loc 1 325 0
 1122 03a2 6E6F     		ldr	r6, [r5, #116]
 1123 03a4 0A96     		str	r6, [sp, #40]
 1124 03a6 002E     		cmp	r6, #0
 1125 03a8 3FF41CAF 		beq	.L39
 1126 03ac 0127     		movs	r7, #1
 1127 03ae 0A9A     		ldr	r2, [sp, #40]
 1128              	.LVL108:
 1129 03b0 55E6     		b	.L92
 1130              	.LVL109:
 1131              	.L107:
 1132              	.LBE14:
 1133              	.LBE35:
 1134              	.LBB36:
 1135              		.loc 1 577 0
ARM GAS  /var/folders/5n/p_75w94d66l9ssrldxqdhh700000gn/T//cc4n8EPc.s 			page 21


 1136 03b2 4046     		mov	r0, r8
 1137 03b4 FFF7FEFF 		bl	pbuf_free
 1138              		.loc 1 578 0
 1139 03b8 A5E7     		b	.L51
 1140              	.LVL110:
 1141              	.L102:
 1142              	.LBE36:
 1143              	.LBB37:
 1144              	.LBB15:
 1145              		.loc 1 320 0
 1146 03ba 284B     		ldr	r3, .L117
 1147 03bc B3F89C20 		ldrh	r2, [r3, #156]
 1148              	.LVL111:
 1149 03c0 0132     		adds	r2, r2, #1
 1150 03c2 A3F89C20 		strh	r2, [r3, #156]	@ movhi
 1151              	.L99:
 1152              		.loc 1 321 0
 1153 03c6 95F82030 		ldrb	r3, [r5, #32]	@ zero_extendqisi2
 1154 03ca 63F07F03 		orn	r3, r3, #127
 1155 03ce 85F82030 		strb	r3, [r5, #32]
 1156              		.loc 1 322 0
 1157 03d2 FF20     		movs	r0, #255
 1158 03d4 FEE6     		b	.L30
 1159              	.LVL112:
 1160              	.L46:
 1161              	.LBE15:
 1162              	.LBE37:
 1163              	.LBB38:
 1164              	.LBB18:
 1165              		.loc 1 486 0
 1166 03d6 0122     		movs	r2, #1
 1167 03d8 FFF7FEFF 		bl	pbuf_alloc
 1168              	.LVL113:
 1169 03dc 0C90     		str	r0, [sp, #48]
 1170 03de 90B1     		cbz	r0, .L47
 1171              		.loc 1 498 0
 1172 03e0 089E     		ldr	r6, [sp, #32]
 1173 03e2 3319     		adds	r3, r6, r4
 1174 03e4 4360     		str	r3, [r0, #4]
 1175              	.LVL114:
 1176              	.L48:
 1177              		.loc 1 502 0
 1178 03e6 0C98     		ldr	r0, [sp, #48]
 1179 03e8 FFF7FEFF 		bl	pbuf_clen
 1180              		.loc 1 501 0
 1181 03ec 08EB0406 		add	r6, r8, r4
 1182 03f0 B6B2     		uxth	r6, r6
 1183              	.LVL115:
 1184              		.loc 1 502 0
 1185 03f2 C719     		adds	r7, r0, r7
 1186 03f4 0D94     		str	r4, [sp, #52]
 1187 03f6 BFB2     		uxth	r7, r7
 1188              	.LVL116:
 1189              		.loc 1 501 0
 1190 03f8 3446     		mov	r4, r6
 1191              		.loc 1 502 0
 1192 03fa 0A9B     		ldr	r3, [sp, #40]
ARM GAS  /var/folders/5n/p_75w94d66l9ssrldxqdhh700000gn/T//cc4n8EPc.s 			page 22


 1193 03fc 6AE6     		b	.L45
 1194              	.LVL117:
 1195              	.L116:
 1196              	.LBE18:
 1197              	.LBE38:
 1198              		.loc 1 697 0 discriminator 2
 1199 03fe FFF7FEFF 		bl	port_halt
 1200              		.loc 1 701 0 discriminator 2
 1201 0402 FF20     		movs	r0, #255
 1202 0404 E6E6     		b	.L30
 1203              	.LVL118:
 1204              	.L47:
 1205              		.loc 1 687 0
 1206 0406 95F82020 		ldrb	r2, [r5, #32]	@ zero_extendqisi2
 1207              		.loc 1 688 0
 1208 040a 144B     		ldr	r3, .L117
 1209              		.loc 1 687 0
 1210 040c 62F07F02 		orn	r2, r2, #127
 1211 0410 85F82020 		strb	r2, [r5, #32]
 1212              		.loc 1 688 0
 1213 0414 B3F89C20 		ldrh	r2, [r3, #156]
 1214 0418 0132     		adds	r2, r2, #1
 1215 041a A3F89C20 		strh	r2, [r3, #156]	@ movhi
 1216 041e 88E7     		b	.L70
 1217              	.LVL119:
 1218              	.L112:
 1219              		.loc 1 361 0 discriminator 1
 1220 0420 0026     		movs	r6, #0
 1221 0422 0D96     		str	r6, [sp, #52]
 1222              		.loc 1 506 0 discriminator 1
 1223 0424 FFF7FEFF 		bl	port_halt
 1224              		.loc 1 355 0 discriminator 1
 1225 0428 0D9C     		ldr	r4, [sp, #52]
 1226              		.loc 1 354 0 discriminator 1
 1227 042a 0A96     		str	r6, [sp, #40]
 1228 042c 2346     		mov	r3, r4
 1229              		.loc 1 353 0 discriminator 1
 1230 042e 0C94     		str	r4, [sp, #48]
 1231 0430 50E6     		b	.L45
 1232              	.LVL120:
 1233              	.L114:
 1234              		.loc 1 661 0
 1235 0432 079E     		ldr	r6, [sp, #28]
 1236 0434 6E67     		str	r6, [r5, #116]
 1237 0436 34E7     		b	.L67
 1238              	.LVL121:
 1239              	.L115:
 1240              		.loc 1 676 0 discriminator 1
 1241 0438 6A6F     		ldr	r2, [r5, #116]
 1242 043a 002A     		cmp	r2, #0
 1243 043c 7FF441AF 		bne	.L68
 1244              		.loc 1 676 0 is_stmt 0 discriminator 2
 1245 0440 0693     		str	r3, [sp, #24]
 1246 0442 FFF7FEFF 		bl	port_halt
 1247 0446 069B     		ldr	r3, [sp, #24]
 1248 0448 3BE7     		b	.L68
 1249              	.LVL122:
ARM GAS  /var/folders/5n/p_75w94d66l9ssrldxqdhh700000gn/T//cc4n8EPc.s 			page 23


 1250              	.L113:
 1251              		.loc 1 643 0 is_stmt 1 discriminator 1
 1252 044a 0693     		str	r3, [sp, #24]
 1253 044c FFF7FEFF 		bl	port_halt
 1254              	.LVL123:
 1255 0450 069B     		ldr	r3, [sp, #24]
 1256 0452 12E7     		b	.L65
 1257              	.LVL124:
 1258              	.L100:
 1259              		.loc 1 377 0 discriminator 1
 1260 0454 FFF7FEFF 		bl	port_halt
 1261              	.LVL125:
 1262 0458 F220     		movs	r0, #242
 1263 045a BBE6     		b	.L30
 1264              	.L118:
 1265              		.align	2
 1266              	.L117:
 1267 045c 00000000 		.word	lwip_stats
 1268              		.cfi_endproc
 1269              	.LFE12:
 1270              		.size	tcp_write, .-tcp_write
 1271              		.section	.text.tcp_enqueue_flags,"ax",%progbits
 1272              		.align	2
 1273              		.p2align 4,,15
 1274              		.global	tcp_enqueue_flags
 1275              		.thumb
 1276              		.thumb_func
 1277              		.type	tcp_enqueue_flags, %function
 1278              	tcp_enqueue_flags:
 1279              	.LFB13:
 1280              		.loc 1 716 0
 1281              		.cfi_startproc
 1282              		@ args = 0, pretend = 0, frame = 8
 1283              		@ frame_needed = 0, uses_anonymous_args = 0
 1284              	.LVL126:
 1285 0000 2DE9F041 		push	{r4, r5, r6, r7, r8, lr}
 1286              	.LCFI5:
 1287              		.cfi_def_cfa_offset 24
 1288              		.cfi_offset 14, -4
 1289              		.cfi_offset 8, -8
 1290              		.cfi_offset 7, -12
 1291              		.cfi_offset 6, -16
 1292              		.cfi_offset 5, -20
 1293              		.cfi_offset 4, -24
 1294 0004 0446     		mov	r4, r0
 1295              		.loc 1 724 0
 1296 0006 8807     		lsls	r0, r1, #30
 1297              	.LVL127:
 1298              		.loc 1 716 0
 1299 0008 84B0     		sub	sp, sp, #16
 1300              	.LCFI6:
 1301              		.cfi_def_cfa_offset 40
 1302              		.loc 1 716 0
 1303 000a 0D46     		mov	r5, r1
 1304              		.loc 1 724 0
 1305 000c 65D0     		beq	.L144
 1306              		.loc 1 728 0
ARM GAS  /var/folders/5n/p_75w94d66l9ssrldxqdhh700000gn/T//cc4n8EPc.s 			page 24


 1307 000e B4F87030 		ldrh	r3, [r4, #112]
 1308 0012 012B     		cmp	r3, #1
 1309 0014 67D8     		bhi	.L145
 1310              	.LVL128:
 1311              	.L121:
 1312              		.loc 1 736 0
 1313 0016 05F00206 		and	r6, r5, #2
 1314              		.loc 1 750 0
 1315 001a B4F86E30 		ldrh	r3, [r4, #110]
 1316              		.loc 1 737 0
 1317 001e 002E     		cmp	r6, #0
 1318 0020 0CBF     		ite	eq
 1319 0022 B046     		moveq	r8, r6
 1320 0024 4FF00108 		movne	r8, #1
 1321 0028 0CBF     		ite	eq
 1322 002a 3746     		moveq	r7, r6
 1323 002c 0427     		movne	r7, #4
 1324              	.LVL129:
 1325              		.loc 1 750 0
 1326 002e 002B     		cmp	r3, #0
 1327 0030 7DD0     		beq	.L146
 1328              		.loc 1 757 0
 1329 0032 0020     		movs	r0, #0
 1330 0034 3946     		mov	r1, r7
 1331 0036 0246     		mov	r2, r0
 1332 0038 FFF7FEFF 		bl	pbuf_alloc
 1333              	.LVL130:
 1334 003c 0146     		mov	r1, r0
 1335 003e 0028     		cmp	r0, #0
 1336 0040 7DD0     		beq	.L143
 1337              		.loc 1 762 0
 1338 0042 4389     		ldrh	r3, [r0, #10]
 1339 0044 BB42     		cmp	r3, r7
 1340 0046 5CD3     		bcc	.L147
 1341              	.LVL131:
 1342              	.L126:
 1343              		.loc 1 766 0
 1344 0048 A36E     		ldr	r3, [r4, #104]
 1345 004a CDF80080 		str	r8, [sp, #0]
 1346 004e 2046     		mov	r0, r4
 1347 0050 2A46     		mov	r2, r5
 1348 0052 FFF7FEFF 		bl	tcp_create_segment
 1349              	.LVL132:
 1350 0056 0746     		mov	r7, r0
 1351              	.LVL133:
 1352 0058 0028     		cmp	r0, #0
 1353 005a 70D0     		beq	.L143
 1354              		.loc 1 771 0
 1355 005c C368     		ldr	r3, [r0, #12]
 1356 005e 9907     		lsls	r1, r3, #30
 1357 0060 5BD1     		bne	.L148
 1358              	.LVL134:
 1359              	.L128:
 1360              		.loc 1 772 0
 1361 0062 3B89     		ldrh	r3, [r7, #8]
 1362 0064 002B     		cmp	r3, #0
 1363 0066 51D1     		bne	.L149
ARM GAS  /var/folders/5n/p_75w94d66l9ssrldxqdhh700000gn/T//cc4n8EPc.s 			page 25


 1364              		.loc 1 781 0
 1365 0068 626F     		ldr	r2, [r4, #116]
 1366 006a 0AB9     		cbnz	r2, .L142
 1367 006c 53E0     		b	.L150
 1368              	.LVL135:
 1369              	.L138:
 1370              	.LBB39:
 1371              		.loc 1 785 0
 1372 006e 1A46     		mov	r2, r3
 1373              	.LVL136:
 1374              	.L142:
 1375              		.loc 1 785 0 is_stmt 0 discriminator 1
 1376 0070 1368     		ldr	r3, [r2, #0]
 1377 0072 002B     		cmp	r3, #0
 1378 0074 FBD1     		bne	.L138
 1379              		.loc 1 786 0 is_stmt 1
 1380 0076 1760     		str	r7, [r2, #0]
 1381              	.LVL137:
 1382              	.L131:
 1383              	.LBE39:
 1384              		.loc 1 790 0
 1385 0078 0023     		movs	r3, #0
 1386 007a A4F87230 		strh	r3, [r4, #114]	@ movhi
 1387              		.loc 1 794 0
 1388 007e 0EB3     		cbz	r6, .L133
 1389              		.loc 1 795 0
 1390 0080 A26E     		ldr	r2, [r4, #104]
 1391              		.loc 1 797 0
 1392 0082 B4F86E30 		ldrh	r3, [r4, #110]
 1393              		.loc 1 795 0
 1394 0086 0132     		adds	r2, r2, #1
 1395              		.loc 1 797 0
 1396 0088 013B     		subs	r3, r3, #1
 1397              		.loc 1 795 0
 1398 008a A266     		str	r2, [r4, #104]
 1399              		.loc 1 799 0
 1400 008c EA07     		lsls	r2, r5, #31
 1401              		.loc 1 797 0
 1402 008e A4F86E30 		strh	r3, [r4, #110]	@ movhi
 1403              		.loc 1 799 0
 1404 0092 05D5     		bpl	.L135
 1405              	.L134:
 1406              		.loc 1 800 0
 1407 0094 94F82030 		ldrb	r3, [r4, #32]	@ zero_extendqisi2
 1408 0098 43F02003 		orr	r3, r3, #32
 1409 009c 84F82030 		strb	r3, [r4, #32]
 1410              	.L135:
 1411              		.loc 1 804 0
 1412 00a0 7868     		ldr	r0, [r7, #4]
 1413 00a2 B4F87050 		ldrh	r5, [r4, #112]
 1414 00a6 FFF7FEFF 		bl	pbuf_clen
 1415 00aa 4519     		adds	r5, r0, r5
 1416 00ac ADB2     		uxth	r5, r5
 1417 00ae A4F87050 		strh	r5, [r4, #112]	@ movhi
 1418              		.loc 1 806 0
 1419 00b2 1DB1     		cbz	r5, .L122
 1420              		.loc 1 807 0
ARM GAS  /var/folders/5n/p_75w94d66l9ssrldxqdhh700000gn/T//cc4n8EPc.s 			page 26


 1421 00b4 A56F     		ldr	r5, [r4, #120]
 1422 00b6 002D     		cmp	r5, #0
 1423 00b8 32D0     		beq	.L151
 1424              		.loc 1 811 0
 1425 00ba 0025     		movs	r5, #0
 1426              	.LVL138:
 1427              	.L122:
 1428              		.loc 1 812 0
 1429 00bc 68B2     		sxtb	r0, r5
 1430 00be 04B0     		add	sp, sp, #16
 1431 00c0 BDE8F081 		pop	{r4, r5, r6, r7, r8, pc}
 1432              	.LVL139:
 1433              	.L133:
 1434              		.loc 1 794 0 discriminator 1
 1435 00c4 EB07     		lsls	r3, r5, #31
 1436 00c6 EBD5     		bpl	.L135
 1437              		.loc 1 795 0
 1438 00c8 A26E     		ldr	r2, [r4, #104]
 1439              		.loc 1 797 0
 1440 00ca B4F86E30 		ldrh	r3, [r4, #110]
 1441              		.loc 1 795 0
 1442 00ce 0132     		adds	r2, r2, #1
 1443              		.loc 1 797 0
 1444 00d0 013B     		subs	r3, r3, #1
 1445              		.loc 1 795 0
 1446 00d2 A266     		str	r2, [r4, #104]
 1447              		.loc 1 797 0
 1448 00d4 A4F86E30 		strh	r3, [r4, #110]	@ movhi
 1449 00d8 DCE7     		b	.L134
 1450              	.LVL140:
 1451              	.L144:
 1452              		.loc 1 724 0 discriminator 1
 1453 00da FFF7FEFF 		bl	port_halt
 1454              	.LVL141:
 1455              		.loc 1 728 0 discriminator 1
 1456 00de B4F87030 		ldrh	r3, [r4, #112]
 1457 00e2 012B     		cmp	r3, #1
 1458 00e4 97D9     		bls	.L121
 1459              	.L145:
 1460              		.loc 1 731 0
 1461 00e6 1D4B     		ldr	r3, .L152
 1462 00e8 B3F89C20 		ldrh	r2, [r3, #156]
 1463 00ec 0132     		adds	r2, r2, #1
 1464 00ee A3F89C20 		strh	r2, [r3, #156]	@ movhi
 1465              		.loc 1 732 0
 1466 00f2 94F82030 		ldrb	r3, [r4, #32]	@ zero_extendqisi2
 1467 00f6 63F07F03 		orn	r3, r3, #127
 1468 00fa 84F82030 		strb	r3, [r4, #32]
 1469              		.loc 1 733 0
 1470 00fe FF25     		movs	r5, #255
 1471 0100 DCE7     		b	.L122
 1472              	.LVL142:
 1473              	.L147:
 1474              		.loc 1 762 0 discriminator 1
 1475 0102 0390     		str	r0, [sp, #12]
 1476 0104 FFF7FEFF 		bl	port_halt
 1477              	.LVL143:
ARM GAS  /var/folders/5n/p_75w94d66l9ssrldxqdhh700000gn/T//cc4n8EPc.s 			page 27


 1478 0108 0399     		ldr	r1, [sp, #12]
 1479 010a 9DE7     		b	.L126
 1480              	.LVL144:
 1481              	.L149:
 1482              		.loc 1 772 0 discriminator 1
 1483 010c FFF7FEFF 		bl	port_halt
 1484              		.loc 1 781 0 discriminator 1
 1485 0110 626F     		ldr	r2, [r4, #116]
 1486 0112 002A     		cmp	r2, #0
 1487 0114 ACD1     		bne	.L142
 1488              	.L150:
 1489              		.loc 1 782 0
 1490 0116 6767     		str	r7, [r4, #116]
 1491 0118 AEE7     		b	.L131
 1492              	.L148:
 1493              		.loc 1 771 0 discriminator 1
 1494 011a FFF7FEFF 		bl	port_halt
 1495 011e A0E7     		b	.L128
 1496              	.L151:
 1497              		.loc 1 807 0 discriminator 1
 1498 0120 646F     		ldr	r4, [r4, #116]
 1499              	.LVL145:
 1500 0122 002C     		cmp	r4, #0
 1501 0124 CAD1     		bne	.L122
 1502              		.loc 1 807 0 is_stmt 0 discriminator 2
 1503 0126 FFF7FEFF 		bl	port_halt
 1504              		.loc 1 811 0 is_stmt 1 discriminator 2
 1505 012a 2546     		mov	r5, r4
 1506 012c C6E7     		b	.L122
 1507              	.LVL146:
 1508              	.L146:
 1509              		.loc 1 752 0
 1510 012e 0B4B     		ldr	r3, .L152
 1511 0130 B3F89C20 		ldrh	r2, [r3, #156]
 1512 0134 0132     		adds	r2, r2, #1
 1513 0136 A3F89C20 		strh	r2, [r3, #156]	@ movhi
 1514              		.loc 1 753 0
 1515 013a FF25     		movs	r5, #255
 1516 013c BEE7     		b	.L122
 1517              	.LVL147:
 1518              	.L143:
 1519              		.loc 1 767 0
 1520 013e 94F82020 		ldrb	r2, [r4, #32]	@ zero_extendqisi2
 1521              		.loc 1 768 0
 1522 0142 064B     		ldr	r3, .L152
 1523              		.loc 1 767 0
 1524 0144 62F07F02 		orn	r2, r2, #127
 1525 0148 84F82020 		strb	r2, [r4, #32]
 1526              		.loc 1 768 0
 1527 014c B3F89C20 		ldrh	r2, [r3, #156]
 1528 0150 0132     		adds	r2, r2, #1
 1529 0152 A3F89C20 		strh	r2, [r3, #156]	@ movhi
 1530              		.loc 1 769 0
 1531 0156 FF25     		movs	r5, #255
 1532 0158 B0E7     		b	.L122
 1533              	.L153:
 1534 015a 00BF     		.align	2
ARM GAS  /var/folders/5n/p_75w94d66l9ssrldxqdhh700000gn/T//cc4n8EPc.s 			page 28


 1535              	.L152:
 1536 015c 00000000 		.word	lwip_stats
 1537              		.cfi_endproc
 1538              	.LFE13:
 1539              		.size	tcp_enqueue_flags, .-tcp_enqueue_flags
 1540              		.section	.text.tcp_send_fin,"ax",%progbits
 1541              		.align	2
 1542              		.p2align 4,,15
 1543              		.global	tcp_send_fin
 1544              		.thumb
 1545              		.thumb_func
 1546              		.type	tcp_send_fin, %function
 1547              	tcp_send_fin:
 1548              	.LFB8:
 1549              		.loc 1 124 0
 1550              		.cfi_startproc
 1551              		@ args = 0, pretend = 0, frame = 0
 1552              		@ frame_needed = 0, uses_anonymous_args = 0
 1553              	.LVL148:
 1554 0000 70B5     		push	{r4, r5, r6, lr}
 1555              	.LCFI7:
 1556              		.cfi_def_cfa_offset 16
 1557              		.cfi_offset 14, -4
 1558              		.cfi_offset 6, -8
 1559              		.cfi_offset 5, -12
 1560              		.cfi_offset 4, -16
 1561              		.loc 1 126 0
 1562 0002 446F     		ldr	r4, [r0, #116]
 1563              		.loc 1 124 0
 1564 0004 0546     		mov	r5, r0
 1565              		.loc 1 126 0
 1566 0006 0CB9     		cbnz	r4, .L159
 1567 0008 0DE0     		b	.L155
 1568              	.LVL149:
 1569              	.L158:
 1570              	.LBB40:
 1571              		.loc 1 128 0
 1572 000a 1C46     		mov	r4, r3
 1573              	.LVL150:
 1574              	.L159:
 1575              		.loc 1 128 0 is_stmt 0 discriminator 1
 1576 000c 2368     		ldr	r3, [r4, #0]
 1577 000e 002B     		cmp	r3, #0
 1578 0010 FBD1     		bne	.L158
 1579              		.loc 1 131 0 is_stmt 1
 1580 0012 E368     		ldr	r3, [r4, #12]
 1581 0014 1A7B     		ldrb	r2, [r3, #12]	@ zero_extendqisi2
 1582 0016 587B     		ldrb	r0, [r3, #13]	@ zero_extendqisi2
 1583              	.LVL151:
 1584 0018 42EA0020 		orr	r0, r2, r0, lsl #8
 1585 001c FFF7FEFF 		bl	lwip_ntohs
 1586 0020 10F00706 		ands	r6, r0, #7
 1587 0024 05D0     		beq	.L160
 1588              	.LVL152:
 1589              	.L155:
 1590              	.LBE40:
 1591              		.loc 1 138 0
ARM GAS  /var/folders/5n/p_75w94d66l9ssrldxqdhh700000gn/T//cc4n8EPc.s 			page 29


 1592 0026 2846     		mov	r0, r5
 1593 0028 0121     		movs	r1, #1
 1594              		.loc 1 139 0
 1595 002a BDE87040 		pop	{r4, r5, r6, lr}
 1596              		.loc 1 138 0
 1597 002e FFF7FEBF 		b	tcp_enqueue_flags
 1598              	.LVL153:
 1599              	.L160:
 1600              	.LBB41:
 1601              		.loc 1 133 0
 1602 0032 E468     		ldr	r4, [r4, #12]
 1603              	.LVL154:
 1604 0034 237B     		ldrb	r3, [r4, #12]	@ zero_extendqisi2
 1605 0036 657B     		ldrb	r5, [r4, #13]	@ zero_extendqisi2
 1606              	.LVL155:
 1607 0038 0120     		movs	r0, #1
 1608 003a 43EA0525 		orr	r5, r3, r5, lsl #8
 1609 003e FFF7FEFF 		bl	lwip_htons
 1610 0042 0543     		orrs	r5, r5, r0
 1611 0044 ADB2     		uxth	r5, r5
 1612 0046 2B0A     		lsrs	r3, r5, #8
 1613 0048 2573     		strb	r5, [r4, #12]
 1614 004a 6373     		strb	r3, [r4, #13]
 1615              	.LBE41:
 1616              		.loc 1 139 0
 1617 004c 3046     		mov	r0, r6
 1618 004e 70BD     		pop	{r4, r5, r6, pc}
 1619              		.cfi_endproc
 1620              	.LFE8:
 1621              		.size	tcp_send_fin, .-tcp_send_fin
 1622              		.section	.text.tcp_send_empty_ack,"ax",%progbits
 1623              		.align	2
 1624              		.p2align 4,,15
 1625              		.global	tcp_send_empty_ack
 1626              		.thumb
 1627              		.thumb_func
 1628              		.type	tcp_send_empty_ack, %function
 1629              	tcp_send_empty_ack:
 1630              	.LFB14:
 1631              		.loc 1 837 0
 1632              		.cfi_startproc
 1633              		@ args = 0, pretend = 0, frame = 0
 1634              		@ frame_needed = 0, uses_anonymous_args = 0
 1635              	.LVL156:
 1636 0000 F0B5     		push	{r4, r5, r6, r7, lr}
 1637              	.LCFI8:
 1638              		.cfi_def_cfa_offset 20
 1639              		.cfi_offset 14, -4
 1640              		.cfi_offset 7, -8
 1641              		.cfi_offset 6, -12
 1642              		.cfi_offset 5, -16
 1643              		.cfi_offset 4, -20
 1644 0002 0446     		mov	r4, r0
 1645 0004 83B0     		sub	sp, sp, #12
 1646              	.LCFI9:
 1647              		.cfi_def_cfa_offset 32
 1648              		.loc 1 848 0
ARM GAS  /var/folders/5n/p_75w94d66l9ssrldxqdhh700000gn/T//cc4n8EPc.s 			page 30


 1649 0006 806D     		ldr	r0, [r0, #88]
 1650              	.LVL157:
 1651 0008 FFF7FEFF 		bl	lwip_htonl
 1652 000c 0021     		movs	r1, #0
 1653 000e 0246     		mov	r2, r0
 1654 0010 2046     		mov	r0, r4
 1655 0012 FFF7FEFF 		bl	tcp_output_alloc_header.constprop.0
 1656              	.LVL158:
 1657              		.loc 1 849 0
 1658 0016 0546     		mov	r5, r0
 1659 0018 0028     		cmp	r0, #0
 1660 001a 25D0     		beq	.L163
 1661              		.loc 1 857 0
 1662 001c 94F82030 		ldrb	r3, [r4, #32]	@ zero_extendqisi2
 1663              		.loc 1 853 0
 1664 0020 4768     		ldr	r7, [r0, #4]
 1665              	.LVL159:
 1666              		.loc 1 857 0
 1667 0022 23F00303 		bic	r3, r3, #3
 1668 0026 84F82030 		strb	r3, [r4, #32]
 1669              		.loc 1 869 0
 1670 002a B0F808E0 		ldrh	lr, [r0, #8]
 1671 002e 261D     		adds	r6, r4, #4
 1672 0030 2146     		mov	r1, r4
 1673 0032 3246     		mov	r2, r6
 1674 0034 0623     		movs	r3, #6
 1675 0036 CDF800E0 		str	lr, [sp, #0]
 1676 003a FFF7FEFF 		bl	inet_chksum_pseudo
 1677              	.LVL160:
 1678 003e C0F30F23 		ubfx	r3, r0, #8, #16
 1679 0042 3874     		strb	r0, [r7, #16]
 1680 0044 7B74     		strb	r3, [r7, #17]
 1681              		.loc 1 876 0
 1682 0046 677A     		ldrb	r7, [r4, #9]	@ zero_extendqisi2
 1683              	.LVL161:
 1684 0048 A37A     		ldrb	r3, [r4, #10]	@ zero_extendqisi2
 1685 004a 0097     		str	r7, [sp, #0]
 1686 004c 2146     		mov	r1, r4
 1687 004e 3246     		mov	r2, r6
 1688 0050 2846     		mov	r0, r5
 1689 0052 0624     		movs	r4, #6
 1690              	.LVL162:
 1691 0054 0194     		str	r4, [sp, #4]
 1692 0056 FFF7FEFF 		bl	ip_output
 1693              	.LVL163:
 1694              		.loc 1 879 0
 1695 005a 2846     		mov	r0, r5
 1696 005c FFF7FEFF 		bl	pbuf_free
 1697              		.loc 1 881 0
 1698 0060 0020     		movs	r0, #0
 1699              	.LVL164:
 1700              	.L162:
 1701              		.loc 1 882 0
 1702 0062 40B2     		sxtb	r0, r0
 1703 0064 03B0     		add	sp, sp, #12
 1704 0066 F0BD     		pop	{r4, r5, r6, r7, pc}
 1705              	.LVL165:
ARM GAS  /var/folders/5n/p_75w94d66l9ssrldxqdhh700000gn/T//cc4n8EPc.s 			page 31


 1706              	.L163:
 1707              		.loc 1 851 0
 1708 0068 FE20     		movs	r0, #254
 1709 006a FAE7     		b	.L162
 1710              		.cfi_endproc
 1711              	.LFE14:
 1712              		.size	tcp_send_empty_ack, .-tcp_send_empty_ack
 1713 006c AFF30080 		.section	.text.tcp_output,"ax",%progbits
 1714              		.align	2
 1715              		.p2align 4,,15
 1716              		.global	tcp_output
 1717              		.thumb
 1718              		.thumb_func
 1719              		.type	tcp_output, %function
 1720              	tcp_output:
 1721              	.LFB15:
 1722              		.loc 1 893 0
 1723              		.cfi_startproc
 1724              		@ args = 0, pretend = 0, frame = 8
 1725              		@ frame_needed = 0, uses_anonymous_args = 0
 1726              	.LVL166:
 1727 0000 2DE9F04F 		push	{r4, r5, r6, r7, r8, r9, sl, fp, lr}
 1728              	.LCFI10:
 1729              		.cfi_def_cfa_offset 36
 1730              		.cfi_offset 14, -4
 1731              		.cfi_offset 11, -8
 1732              		.cfi_offset 10, -12
 1733              		.cfi_offset 9, -16
 1734              		.cfi_offset 8, -20
 1735              		.cfi_offset 7, -24
 1736              		.cfi_offset 6, -28
 1737              		.cfi_offset 5, -32
 1738              		.cfi_offset 4, -36
 1739              		.loc 1 904 0
 1740 0004 A54B     		ldr	r3, .L216
 1741 0006 1B68     		ldr	r3, [r3, #0]
 1742 0008 8342     		cmp	r3, r0
 1743              		.loc 1 893 0
 1744 000a 85B0     		sub	sp, sp, #20
 1745              	.LCFI11:
 1746              		.cfi_def_cfa_offset 56
 1747              		.loc 1 893 0
 1748 000c 0446     		mov	r4, r0
 1749              		.loc 1 904 0
 1750 000e 00F05C81 		beq	.L165
 1751              		.loc 1 908 0
 1752 0012 B0F85CB0 		ldrh	fp, [r0, #92]
 1753 0016 B0F85220 		ldrh	r2, [r0, #82]
 1754              		.loc 1 918 0
 1755 001a 90F82030 		ldrb	r3, [r0, #32]	@ zero_extendqisi2
 1756              		.loc 1 910 0
 1757 001e 456F     		ldr	r5, [r0, #116]
 1758              		.loc 1 908 0
 1759 0020 9345     		cmp	fp, r2
 1760 0022 28BF     		it	cs
 1761 0024 9346     		movcs	fp, r2
 1762              	.LVL167:
ARM GAS  /var/folders/5n/p_75w94d66l9ssrldxqdhh700000gn/T//cc4n8EPc.s 			page 32


 1763              		.loc 1 918 0
 1764 0026 9907     		lsls	r1, r3, #30
 1765 0028 00F18E81 		bmi	.L209
 1766              	.LVL168:
 1767              	.L166:
 1768              		.loc 1 925 0
 1769 002c A76F     		ldr	r7, [r4, #120]
 1770              	.LVL169:
 1771              		.loc 1 926 0
 1772 002e 0FB9     		cbnz	r7, .L204
 1773 0030 03E0     		b	.L172
 1774              	.LVL170:
 1775              	.L198:
 1776              		.loc 1 927 0
 1777 0032 1F46     		mov	r7, r3
 1778              	.LVL171:
 1779              	.L204:
 1780              		.loc 1 927 0 is_stmt 0 discriminator 1
 1781 0034 3B68     		ldr	r3, [r7, #0]
 1782 0036 002B     		cmp	r3, #0
 1783 0038 FBD1     		bne	.L198
 1784              	.L172:
 1785              		.loc 1 952 0 is_stmt 1 discriminator 1
 1786 003a 002D     		cmp	r5, #0
 1787 003c 00F09F81 		beq	.L208
 1788              	.LBB45:
 1789              	.LBB46:
 1790              		.loc 1 1069 0 discriminator 2
 1791 0040 40F20243 		movw	r3, #1026
 1792 0044 C1F60203 		movt	r3, 6146
 1793              		.loc 1 1155 0 discriminator 2
 1794 0048 DFF854A2 		ldr	sl, .L216+4
 1795              		.loc 1 1069 0 discriminator 2
 1796 004c 0393     		str	r3, [sp, #12]
 1797              		.loc 1 1084 0 discriminator 2
 1798 004e 4FF00009 		mov	r9, #0
 1799              		.loc 1 1150 0 discriminator 2
 1800 0052 B846     		mov	r8, r7
 1801 0054 E8E0     		b	.L200
 1802              	.LVL172:
 1803              	.L173:
 1804              	.LBE46:
 1805              	.LBE45:
 1806              		.loc 1 963 0
 1807 0056 A36F     		ldr	r3, [r4, #120]
 1808 0058 63B1     		cbz	r3, .L174
 1809              		.loc 1 963 0 is_stmt 0 discriminator 2
 1810 005a 94F82030 		ldrb	r3, [r4, #32]	@ zero_extendqisi2
 1811 005e 13F0440F 		tst	r3, #68
 1812 0062 07D1     		bne	.L174
 1813              		.loc 1 963 0 discriminator 1
 1814 0064 626F     		ldr	r2, [r4, #116]
 1815 0066 002A     		cmp	r2, #0
 1816 0068 00F06781 		beq	.L175
 1817              		.loc 1 963 0 discriminator 2
 1818 006c 1168     		ldr	r1, [r2, #0]
 1819 006e 0029     		cmp	r1, #0
ARM GAS  /var/folders/5n/p_75w94d66l9ssrldxqdhh700000gn/T//cc4n8EPc.s 			page 33


 1820 0070 00F05E81 		beq	.L210
 1821              	.L174:
 1822              		.loc 1 978 0 is_stmt 1
 1823 0074 237C     		ldrb	r3, [r4, #16]	@ zero_extendqisi2
 1824              		.loc 1 976 0
 1825 0076 2A68     		ldr	r2, [r5, #0]
 1826              		.loc 1 978 0
 1827 0078 022B     		cmp	r3, #2
 1828              		.loc 1 976 0
 1829 007a 6267     		str	r2, [r4, #116]
 1830              		.loc 1 978 0
 1831 007c 12D0     		beq	.L176
 1832              		.loc 1 979 0
 1833 007e EE68     		ldr	r6, [r5, #12]
 1834 0080 337B     		ldrb	r3, [r6, #12]	@ zero_extendqisi2
 1835 0082 777B     		ldrb	r7, [r6, #13]	@ zero_extendqisi2
 1836 0084 1020     		movs	r0, #16
 1837 0086 43EA0727 		orr	r7, r3, r7, lsl #8
 1838 008a FFF7FEFF 		bl	lwip_htons
 1839 008e 0743     		orrs	r7, r7, r0
 1840 0090 BFB2     		uxth	r7, r7
 1841 0092 3B0A     		lsrs	r3, r7, #8
 1842 0094 3773     		strb	r7, [r6, #12]
 1843 0096 7373     		strb	r3, [r6, #13]
 1844              		.loc 1 980 0
 1845 0098 94F82030 		ldrb	r3, [r4, #32]	@ zero_extendqisi2
 1846 009c 23F00303 		bic	r3, r3, #3
 1847 00a0 84F82030 		strb	r3, [r4, #32]
 1848              	.L176:
 1849              	.LVL173:
 1850              	.LBB49:
 1851              	.LBB47:
 1852              		.loc 1 1057 0
 1853 00a4 606A     		ldr	r0, [r4, #36]
 1854 00a6 EE68     		ldr	r6, [r5, #12]
 1855 00a8 FFF7FEFF 		bl	lwip_htonl
 1856 00ac 030E     		lsrs	r3, r0, #24
 1857 00ae C0F30742 		ubfx	r2, r0, #16, #8
 1858 00b2 C0F30721 		ubfx	r1, r0, #8, #8
 1859 00b6 B272     		strb	r2, [r6, #10]
 1860 00b8 F372     		strb	r3, [r6, #11]
 1861 00ba 3072     		strb	r0, [r6, #8]
 1862 00bc 7172     		strb	r1, [r6, #9]
 1863              		.loc 1 1060 0
 1864 00be 608D     		ldrh	r0, [r4, #42]
 1865 00c0 EE68     		ldr	r6, [r5, #12]
 1866 00c2 FFF7FEFF 		bl	lwip_htons
 1867 00c6 C0F30F23 		ubfx	r3, r0, #8, #16
 1868 00ca B073     		strb	r0, [r6, #14]
 1869 00cc F373     		strb	r3, [r6, #15]
 1870              		.loc 1 1062 0
 1871 00ce 628D     		ldrh	r2, [r4, #42]
 1872 00d0 636A     		ldr	r3, [r4, #36]
 1873              		.loc 1 1066 0
 1874 00d2 EE68     		ldr	r6, [r5, #12]
 1875              		.loc 1 1062 0
 1876 00d4 D318     		adds	r3, r2, r3
ARM GAS  /var/folders/5n/p_75w94d66l9ssrldxqdhh700000gn/T//cc4n8EPc.s 			page 34


 1877 00d6 E362     		str	r3, [r4, #44]
 1878              		.loc 1 1066 0
 1879 00d8 B307     		lsls	r3, r6, #30
 1880 00da 40F0C680 		bne	.L211
 1881              	.L177:
 1882              	.LVL174:
 1883              		.loc 1 1068 0
 1884 00de AB7A     		ldrb	r3, [r5, #10]	@ zero_extendqisi2
 1885 00e0 DF07     		lsls	r7, r3, #31
 1886              		.loc 1 1069 0
 1887 00e2 48BF     		it	mi
 1888 00e4 039A     		ldrmi	r2, [sp, #12]
 1889              		.loc 1 1083 0
 1890 00e6 B4F93630 		ldrsh	r3, [r4, #54]
 1891              		.loc 1 1069 0
 1892 00ea 48BF     		it	mi
 1893 00ec 7261     		strmi	r2, [r6, #20]
 1894              	.LVL175:
 1895              		.loc 1 1083 0
 1896 00ee 0133     		adds	r3, r3, #1
 1897              		.loc 1 1089 0
 1898 00f0 2368     		ldr	r3, [r4, #0]
 1899              		.loc 1 1084 0
 1900 00f2 08BF     		it	eq
 1901 00f4 A4F83690 		strheq	r9, [r4, #54]	@ movhi
 1902              		.loc 1 1090 0
 1903 00f8 271D     		adds	r7, r4, #4
 1904              		.loc 1 1089 0
 1905 00fa 3BB9     		cbnz	r3, .L180
 1906              		.loc 1 1090 0
 1907 00fc 3846     		mov	r0, r7
 1908 00fe FFF7FEFF 		bl	ip_route
 1909              	.LVL176:
 1910              		.loc 1 1091 0
 1911 0102 0028     		cmp	r0, #0
 1912 0104 34D0     		beq	.L181
 1913              		.loc 1 1094 0
 1914 0106 4368     		ldr	r3, [r0, #4]
 1915 0108 EE68     		ldr	r6, [r5, #12]
 1916              	.LVL177:
 1917 010a 2360     		str	r3, [r4, #0]
 1918              	.LVL178:
 1919              	.L180:
 1920              		.loc 1 1097 0
 1921 010c E36B     		ldr	r3, [r4, #60]
 1922 010e 002B     		cmp	r3, #0
 1923 0110 00F0AF80 		beq	.L212
 1924              	.L182:
 1925              		.loc 1 1107 0
 1926 0114 6868     		ldr	r0, [r5, #4]
 1927 0116 4368     		ldr	r3, [r0, #4]
 1928              		.loc 1 1110 0
 1929 0118 B0F808E0 		ldrh	lr, [r0, #8]
 1930              		.loc 1 1109 0
 1931 011c 4289     		ldrh	r2, [r0, #10]
 1932              		.loc 1 1112 0
 1933 011e 4660     		str	r6, [r0, #4]
ARM GAS  /var/folders/5n/p_75w94d66l9ssrldxqdhh700000gn/T//cc4n8EPc.s 			page 35


 1934              		.loc 1 1107 0
 1935 0120 F31A     		subs	r3, r6, r3
 1936 0122 9BB2     		uxth	r3, r3
 1937              	.LVL179:
 1938              		.loc 1 1110 0
 1939 0124 C3EB0E0E 		rsb	lr, r3, lr
 1940 0128 1FFA8EFE 		uxth	lr, lr
 1941              		.loc 1 1109 0
 1942 012c D31A     		subs	r3, r2, r3
 1943              	.LVL180:
 1944 012e 4381     		strh	r3, [r0, #10]	@ movhi
 1945              		.loc 1 1110 0
 1946 0130 A0F808E0 		strh	lr, [r0, #8]	@ movhi
 1947              		.loc 1 1150 0
 1948 0134 2146     		mov	r1, r4
 1949              		.loc 1 1114 0
 1950 0136 86F81090 		strb	r9, [r6, #16]
 1951 013a 86F81190 		strb	r9, [r6, #17]
 1952              		.loc 1 1150 0
 1953 013e 3A46     		mov	r2, r7
 1954 0140 0623     		movs	r3, #6
 1955 0142 CDF800E0 		str	lr, [sp, #0]
 1956 0146 FFF7FEFF 		bl	inet_chksum_pseudo
 1957 014a C0F30F23 		ubfx	r3, r0, #8, #16
 1958 014e 3074     		strb	r0, [r6, #16]
 1959 0150 7374     		strb	r3, [r6, #17]
 1960              		.loc 1 1155 0
 1961 0152 BAF89030 		ldrh	r3, [sl, #144]
 1962              		.loc 1 1161 0
 1963 0156 6868     		ldr	r0, [r5, #4]
 1964 0158 0622     		movs	r2, #6
 1965              		.loc 1 1155 0
 1966 015a 0133     		adds	r3, r3, #1
 1967              		.loc 1 1161 0
 1968 015c 0192     		str	r2, [sp, #4]
 1969              		.loc 1 1155 0
 1970 015e AAF89030 		strh	r3, [sl, #144]	@ movhi
 1971              		.loc 1 1161 0
 1972 0162 667A     		ldrb	r6, [r4, #9]	@ zero_extendqisi2
 1973 0164 A37A     		ldrb	r3, [r4, #10]	@ zero_extendqisi2
 1974 0166 0096     		str	r6, [sp, #0]
 1975 0168 2146     		mov	r1, r4
 1976 016a 3A46     		mov	r2, r7
 1977 016c FFF7FEFF 		bl	ip_output
 1978              	.L181:
 1979              	.LBE47:
 1980              	.LBE49:
 1981              		.loc 1 984 0
 1982 0170 EB68     		ldr	r3, [r5, #12]
 1983 0172 1979     		ldrb	r1, [r3, #4]	@ zero_extendqisi2
 1984 0174 5E79     		ldrb	r6, [r3, #5]	@ zero_extendqisi2
 1985 0176 9A79     		ldrb	r2, [r3, #6]	@ zero_extendqisi2
 1986 0178 D879     		ldrb	r0, [r3, #7]	@ zero_extendqisi2
 1987 017a 41EA0623 		orr	r3, r1, r6, lsl #8
 1988 017e 43EA0243 		orr	r3, r3, r2, lsl #16
 1989 0182 43EA0060 		orr	r0, r3, r0, lsl #24
 1990 0186 FFF7FEFF 		bl	lwip_ntohl
ARM GAS  /var/folders/5n/p_75w94d66l9ssrldxqdhh700000gn/T//cc4n8EPc.s 			page 36


 1991 018a EB68     		ldr	r3, [r5, #12]
 1992 018c 2F89     		ldrh	r7, [r5, #8]
 1993 018e 1A7B     		ldrb	r2, [r3, #12]	@ zero_extendqisi2
 1994 0190 0646     		mov	r6, r0
 1995 0192 587B     		ldrb	r0, [r3, #13]	@ zero_extendqisi2
 1996 0194 42EA0020 		orr	r0, r2, r0, lsl #8
 1997 0198 FFF7FEFF 		bl	lwip_ntohs
 1998 019c 10F00300 		ands	r0, r0, #3
 1999 01a0 18BF     		it	ne
 2000 01a2 0120     		movne	r0, #1
 2001              		.loc 1 985 0
 2002 01a4 A36D     		ldr	r3, [r4, #88]
 2003              		.loc 1 984 0
 2004 01a6 3F18     		adds	r7, r7, r0
 2005 01a8 BE19     		adds	r6, r7, r6
 2006              	.LVL181:
 2007              		.loc 1 985 0
 2008 01aa 9B1B     		subs	r3, r3, r6
 2009 01ac 002B     		cmp	r3, #0
 2010              		.loc 1 989 0
 2011 01ae EB68     		ldr	r3, [r5, #12]
 2012              		.loc 1 986 0
 2013 01b0 B8BF     		it	lt
 2014 01b2 A665     		strlt	r6, [r4, #88]
 2015              		.loc 1 989 0
 2016 01b4 1A7B     		ldrb	r2, [r3, #12]	@ zero_extendqisi2
 2017 01b6 587B     		ldrb	r0, [r3, #13]	@ zero_extendqisi2
 2018 01b8 2E89     		ldrh	r6, [r5, #8]
 2019              	.LVL182:
 2020 01ba 42EA0020 		orr	r0, r2, r0, lsl #8
 2021 01be FFF7FEFF 		bl	lwip_ntohs
 2022 01c2 10F00300 		ands	r0, r0, #3
 2023 01c6 18BF     		it	ne
 2024 01c8 0120     		movne	r0, #1
 2025 01ca 3618     		adds	r6, r6, r0
 2026 01cc 002E     		cmp	r6, #0
 2027 01ce 00F0AB80 		beq	.L184
 2028              		.loc 1 992 0
 2029 01d2 A36F     		ldr	r3, [r4, #120]
 2030              		.loc 1 990 0
 2031 01d4 C5F80090 		str	r9, [r5, #0]
 2032              		.loc 1 992 0
 2033 01d8 002B     		cmp	r3, #0
 2034 01da 63D0     		beq	.L213
 2035              		.loc 1 1000 0
 2036 01dc EB68     		ldr	r3, [r5, #12]
 2037 01de 1979     		ldrb	r1, [r3, #4]	@ zero_extendqisi2
 2038 01e0 5E79     		ldrb	r6, [r3, #5]	@ zero_extendqisi2
 2039 01e2 9A79     		ldrb	r2, [r3, #6]	@ zero_extendqisi2
 2040 01e4 D879     		ldrb	r0, [r3, #7]	@ zero_extendqisi2
 2041 01e6 41EA0623 		orr	r3, r1, r6, lsl #8
 2042 01ea 43EA0243 		orr	r3, r3, r2, lsl #16
 2043 01ee 43EA0060 		orr	r0, r3, r0, lsl #24
 2044 01f2 FFF7FEFF 		bl	lwip_ntohl
 2045 01f6 D8F80C30 		ldr	r3, [r8, #12]
 2046 01fa 1979     		ldrb	r1, [r3, #4]	@ zero_extendqisi2
 2047 01fc 5F79     		ldrb	r7, [r3, #5]	@ zero_extendqisi2
ARM GAS  /var/folders/5n/p_75w94d66l9ssrldxqdhh700000gn/T//cc4n8EPc.s 			page 37


 2048 01fe 9A79     		ldrb	r2, [r3, #6]	@ zero_extendqisi2
 2049 0200 0646     		mov	r6, r0
 2050 0202 D879     		ldrb	r0, [r3, #7]	@ zero_extendqisi2
 2051 0204 41EA0723 		orr	r3, r1, r7, lsl #8
 2052 0208 43EA0243 		orr	r3, r3, r2, lsl #16
 2053 020c 43EA0060 		orr	r0, r3, r0, lsl #24
 2054 0210 FFF7FEFF 		bl	lwip_ntohl
 2055 0214 301A     		subs	r0, r6, r0
 2056 0216 0028     		cmp	r0, #0
 2057              		.loc 1 1011 0
 2058 0218 A4BF     		itt	ge
 2059 021a C8F80050 		strge	r5, [r8, #0]
 2060              	.LVL183:
 2061 021e A846     		movge	r8, r5
 2062              		.loc 1 1000 0
 2063 0220 57DB     		blt	.L214
 2064              	.LVL184:
 2065              	.L186:
 2066              		.loc 1 1019 0
 2067 0222 656F     		ldr	r5, [r4, #116]
 2068              	.LVL185:
 2069              		.loc 1 952 0
 2070 0224 002D     		cmp	r5, #0
 2071 0226 42D0     		beq	.L193
 2072              	.LVL186:
 2073              	.L200:
 2074              		.loc 1 953 0 discriminator 2
 2075 0228 EB68     		ldr	r3, [r5, #12]
 2076 022a 1979     		ldrb	r1, [r3, #4]	@ zero_extendqisi2
 2077 022c 5E79     		ldrb	r6, [r3, #5]	@ zero_extendqisi2
 2078 022e 9A79     		ldrb	r2, [r3, #6]	@ zero_extendqisi2
 2079 0230 D879     		ldrb	r0, [r3, #7]	@ zero_extendqisi2
 2080 0232 41EA0623 		orr	r3, r1, r6, lsl #8
 2081 0236 43EA0243 		orr	r3, r3, r2, lsl #16
 2082 023a 43EA0060 		orr	r0, r3, r0, lsl #24
 2083 023e FFF7FEFF 		bl	lwip_ntohl
 2084 0242 2A89     		ldrh	r2, [r5, #8]
 2085 0244 E36C     		ldr	r3, [r4, #76]
 2086 0246 D31A     		subs	r3, r2, r3
 2087 0248 1B18     		adds	r3, r3, r0
 2088              		.loc 1 952 0 discriminator 2
 2089 024a 9B45     		cmp	fp, r3
 2090 024c C0F09780 		bcc	.L208
 2091              		.loc 1 954 0
 2092 0250 EB68     		ldr	r3, [r5, #12]
 2093 0252 1A7B     		ldrb	r2, [r3, #12]	@ zero_extendqisi2
 2094 0254 587B     		ldrb	r0, [r3, #13]	@ zero_extendqisi2
 2095 0256 42EA0020 		orr	r0, r2, r0, lsl #8
 2096 025a FFF7FEFF 		bl	lwip_ntohs
 2097 025e 4207     		lsls	r2, r0, #29
 2098 0260 7FF5F9AE 		bpl	.L173
 2099              		.loc 1 954 0 is_stmt 0 discriminator 1
 2100 0264 FFF7FEFF 		bl	port_halt
 2101 0268 F5E6     		b	.L173
 2102              	.LVL187:
 2103              	.L211:
 2104              	.LBB50:
ARM GAS  /var/folders/5n/p_75w94d66l9ssrldxqdhh700000gn/T//cc4n8EPc.s 			page 38


 2105              	.LBB48:
 2106              		.loc 1 1066 0 is_stmt 1
 2107 026a FFF7FEFF 		bl	port_halt
 2108 026e EE68     		ldr	r6, [r5, #12]
 2109 0270 35E7     		b	.L177
 2110              	.L212:
 2111              		.loc 1 1098 0
 2112 0272 40F20002 		movw	r2, #:lower16:tcp_ticks
 2113 0276 C0F20002 		movt	r2, #:upper16:tcp_ticks
 2114 027a 1368     		ldr	r3, [r2, #0]
 2115 027c E363     		str	r3, [r4, #60]
 2116              		.loc 1 1099 0
 2117 027e 3379     		ldrb	r3, [r6, #4]	@ zero_extendqisi2
 2118 0280 7179     		ldrb	r1, [r6, #5]	@ zero_extendqisi2
 2119 0282 B279     		ldrb	r2, [r6, #6]	@ zero_extendqisi2
 2120 0284 F079     		ldrb	r0, [r6, #7]	@ zero_extendqisi2
 2121 0286 43EA0123 		orr	r3, r3, r1, lsl #8
 2122 028a 43EA0243 		orr	r3, r3, r2, lsl #16
 2123 028e 43EA0060 		orr	r0, r3, r0, lsl #24
 2124 0292 FFF7FEFF 		bl	lwip_ntohl
 2125 0296 EE68     		ldr	r6, [r5, #12]
 2126 0298 2064     		str	r0, [r4, #64]
 2127 029a 3BE7     		b	.L182
 2128              	.L217:
 2129              		.align	2
 2130              	.L216:
 2131 029c 00000000 		.word	tcp_input_pcb
 2132 02a0 00000000 		.word	lwip_stats
 2133              	.L213:
 2134              	.LBE48:
 2135              	.LBE50:
 2136              		.loc 1 993 0
 2137 02a4 A567     		str	r5, [r4, #120]
 2138              	.LVL188:
 2139 02a6 A846     		mov	r8, r5
 2140              		.loc 1 1019 0
 2141 02a8 656F     		ldr	r5, [r4, #116]
 2142              	.LVL189:
 2143              		.loc 1 952 0
 2144 02aa 002D     		cmp	r5, #0
 2145 02ac BCD1     		bne	.L200
 2146              	.LVL190:
 2147              	.L193:
 2148              		.loc 1 1024 0
 2149 02ae 0023     		movs	r3, #0
 2150 02b0 A4F87230 		strh	r3, [r4, #114]	@ movhi
 2151              	.L195:
 2152              		.loc 1 1028 0
 2153 02b4 1DB1     		cbz	r5, .L196
 2154              		.loc 1 1028 0 is_stmt 0 discriminator 1
 2155 02b6 94F8A060 		ldrb	r6, [r4, #160]	@ zero_extendqisi2
 2156 02ba 002E     		cmp	r6, #0
 2157 02bc 63D0     		beq	.L215
 2158              	.L196:
 2159              		.loc 1 1035 0 is_stmt 1
 2160 02be 94F82030 		ldrb	r3, [r4, #32]	@ zero_extendqisi2
 2161 02c2 03F07F03 		and	r3, r3, #127
ARM GAS  /var/folders/5n/p_75w94d66l9ssrldxqdhh700000gn/T//cc4n8EPc.s 			page 39


 2162 02c6 84F82030 		strb	r3, [r4, #32]
 2163              	.LVL191:
 2164              	.L165:
 2165              		.loc 1 1037 0
 2166 02ca 0020     		movs	r0, #0
 2167 02cc 05B0     		add	sp, sp, #20
 2168 02ce BDE8F08F 		pop	{r4, r5, r6, r7, r8, r9, sl, fp, pc}
 2169              	.LVL192:
 2170              	.L214:
 2171              	.LBB51:
 2172              		.loc 1 1003 0
 2173 02d2 A36F     		ldr	r3, [r4, #120]
 2174              		.loc 1 1002 0
 2175 02d4 04F17806 		add	r6, r4, #120
 2176              	.LVL193:
 2177              		.loc 1 1003 0
 2178 02d8 1BB9     		cbnz	r3, .L201
 2179 02da 22E0     		b	.L189
 2180              	.LVL194:
 2181              	.L191:
 2182              		.loc 1 1005 0
 2183 02dc 3668     		ldr	r6, [r6, #0]
 2184              	.LVL195:
 2185              		.loc 1 1003 0
 2186 02de 3368     		ldr	r3, [r6, #0]
 2187 02e0 FBB1     		cbz	r3, .L189
 2188              	.L201:
 2189              		.loc 1 1004 0 discriminator 2
 2190 02e2 DB68     		ldr	r3, [r3, #12]
 2191 02e4 1979     		ldrb	r1, [r3, #4]	@ zero_extendqisi2
 2192 02e6 5F79     		ldrb	r7, [r3, #5]	@ zero_extendqisi2
 2193 02e8 9A79     		ldrb	r2, [r3, #6]	@ zero_extendqisi2
 2194 02ea D879     		ldrb	r0, [r3, #7]	@ zero_extendqisi2
 2195 02ec 41EA0723 		orr	r3, r1, r7, lsl #8
 2196 02f0 43EA0243 		orr	r3, r3, r2, lsl #16
 2197 02f4 43EA0060 		orr	r0, r3, r0, lsl #24
 2198 02f8 FFF7FEFF 		bl	lwip_ntohl
 2199 02fc EB68     		ldr	r3, [r5, #12]
 2200 02fe 1979     		ldrb	r1, [r3, #4]	@ zero_extendqisi2
 2201 0300 93F805E0 		ldrb	lr, [r3, #5]	@ zero_extendqisi2
 2202 0304 9A79     		ldrb	r2, [r3, #6]	@ zero_extendqisi2
 2203 0306 0746     		mov	r7, r0
 2204 0308 D879     		ldrb	r0, [r3, #7]	@ zero_extendqisi2
 2205 030a 41EA0E23 		orr	r3, r1, lr, lsl #8
 2206 030e 43EA0243 		orr	r3, r3, r2, lsl #16
 2207 0312 43EA0060 		orr	r0, r3, r0, lsl #24
 2208 0316 FFF7FEFF 		bl	lwip_ntohl
 2209 031a 381A     		subs	r0, r7, r0
 2210              		.loc 1 1003 0 discriminator 2
 2211 031c 0028     		cmp	r0, #0
 2212 031e DDDB     		blt	.L191
 2213              		.loc 1 1003 0 is_stmt 0
 2214 0320 3368     		ldr	r3, [r6, #0]
 2215              	.L189:
 2216              		.loc 1 1007 0 is_stmt 1
 2217 0322 2B60     		str	r3, [r5, #0]
 2218              		.loc 1 1008 0
ARM GAS  /var/folders/5n/p_75w94d66l9ssrldxqdhh700000gn/T//cc4n8EPc.s 			page 40


 2219 0324 3560     		str	r5, [r6, #0]
 2220 0326 7CE7     		b	.L186
 2221              	.LVL196:
 2222              	.L184:
 2223              	.LBE51:
 2224              		.loc 1 1017 0
 2225 0328 2846     		mov	r0, r5
 2226 032a FFF7FEFF 		bl	tcp_seg_free
 2227 032e 78E7     		b	.L186
 2228              	.LVL197:
 2229              	.L210:
 2230              		.loc 1 963 0 discriminator 4
 2231 0330 1089     		ldrh	r0, [r2, #8]
 2232 0332 218F     		ldrh	r1, [r4, #56]
 2233 0334 8842     		cmp	r0, r1
 2234 0336 BFF49DAE 		bcs	.L174
 2235              	.L175:
 2236              		.loc 1 963 0 is_stmt 0
 2237 033a 13F0A00F 		tst	r3, #160
 2238 033e 7FF499AE 		bne	.L174
 2239              		.loc 1 1022 0 is_stmt 1
 2240 0342 002A     		cmp	r2, #0
 2241 0344 B6D1     		bne	.L195
 2242 0346 B2E7     		b	.L193
 2243              	.LVL198:
 2244              	.L209:
 2245              		.loc 1 918 0 discriminator 1
 2246 0348 9DB1     		cbz	r5, .L167
 2247              		.loc 1 920 0
 2248 034a EB68     		ldr	r3, [r5, #12]
 2249 034c 1979     		ldrb	r1, [r3, #4]	@ zero_extendqisi2
 2250 034e 5E79     		ldrb	r6, [r3, #5]	@ zero_extendqisi2
 2251 0350 9A79     		ldrb	r2, [r3, #6]	@ zero_extendqisi2
 2252 0352 D879     		ldrb	r0, [r3, #7]	@ zero_extendqisi2
 2253 0354 41EA0623 		orr	r3, r1, r6, lsl #8
 2254 0358 43EA0243 		orr	r3, r3, r2, lsl #16
 2255 035c 43EA0060 		orr	r0, r3, r0, lsl #24
 2256 0360 FFF7FEFF 		bl	lwip_ntohl
 2257 0364 2A89     		ldrh	r2, [r5, #8]
 2258 0366 E36C     		ldr	r3, [r4, #76]
 2259 0368 D31A     		subs	r3, r2, r3
 2260 036a 1B18     		adds	r3, r3, r0
 2261              		.loc 1 919 0
 2262 036c 9B45     		cmp	fp, r3
 2263 036e BFF45DAE 		bcs	.L166
 2264              	.L167:
 2265              		.loc 1 921 0
 2266 0372 2046     		mov	r0, r4
 2267              		.loc 1 1037 0
 2268 0374 05B0     		add	sp, sp, #20
 2269 0376 BDE8F04F 		pop	{r4, r5, r6, r7, r8, r9, sl, fp, lr}
 2270              		.loc 1 921 0
 2271 037a FFF7FEBF 		b	tcp_send_empty_ack
 2272              	.L208:
 2273              		.loc 1 952 0
 2274 037e 626F     		ldr	r2, [r4, #116]
 2275              		.loc 1 1022 0
ARM GAS  /var/folders/5n/p_75w94d66l9ssrldxqdhh700000gn/T//cc4n8EPc.s 			page 41


 2276 0380 002A     		cmp	r2, #0
 2277 0382 97D1     		bne	.L195
 2278 0384 93E7     		b	.L193
 2279              	.L215:
 2280              		.loc 1 1029 0 discriminator 1
 2281 0386 EB68     		ldr	r3, [r5, #12]
 2282 0388 1979     		ldrb	r1, [r3, #4]	@ zero_extendqisi2
 2283 038a 5F79     		ldrb	r7, [r3, #5]	@ zero_extendqisi2
 2284 038c 9A79     		ldrb	r2, [r3, #6]	@ zero_extendqisi2
 2285 038e D879     		ldrb	r0, [r3, #7]	@ zero_extendqisi2
 2286 0390 41EA0723 		orr	r3, r1, r7, lsl #8
 2287 0394 43EA0243 		orr	r3, r3, r2, lsl #16
 2288 0398 43EA0060 		orr	r0, r3, r0, lsl #24
 2289 039c FFF7FEFF 		bl	lwip_ntohl
 2290 03a0 2989     		ldrh	r1, [r5, #8]
 2291 03a2 E26C     		ldr	r2, [r4, #76]
 2292 03a4 B4F85C30 		ldrh	r3, [r4, #92]
 2293 03a8 8A1A     		subs	r2, r1, r2
 2294 03aa 1218     		adds	r2, r2, r0
 2295              		.loc 1 1028 0 discriminator 1
 2296 03ac 9A42     		cmp	r2, r3
 2297 03ae 86D9     		bls	.L196
 2298              		.loc 1 1032 0
 2299 03b0 0123     		movs	r3, #1
 2300              		.loc 1 1031 0
 2301 03b2 C4F89C60 		str	r6, [r4, #156]
 2302              		.loc 1 1032 0
 2303 03b6 84F8A030 		strb	r3, [r4, #160]
 2304 03ba 80E7     		b	.L196
 2305              		.cfi_endproc
 2306              	.LFE15:
 2307              		.size	tcp_output, .-tcp_output
 2308 03bc AFF30080 		.section	.text.tcp_rst,"ax",%progbits
 2309              		.align	2
 2310              		.p2align 4,,15
 2311              		.global	tcp_rst
 2312              		.thumb
 2313              		.thumb_func
 2314              		.type	tcp_rst, %function
 2315              	tcp_rst:
 2316              	.LFB17:
 2317              		.loc 1 1190 0
 2318              		.cfi_startproc
 2319              		@ args = 8, pretend = 0, frame = 0
 2320              		@ frame_needed = 0, uses_anonymous_args = 0
 2321              	.LVL199:
 2322 0000 2DE9F047 		push	{r4, r5, r6, r7, r8, r9, sl, lr}
 2323              	.LCFI12:
 2324              		.cfi_def_cfa_offset 32
 2325              		.cfi_offset 14, -4
 2326              		.cfi_offset 10, -8
 2327              		.cfi_offset 9, -12
 2328              		.cfi_offset 8, -16
 2329              		.cfi_offset 7, -20
 2330              		.cfi_offset 6, -24
 2331              		.cfi_offset 5, -28
 2332              		.cfi_offset 4, -32
ARM GAS  /var/folders/5n/p_75w94d66l9ssrldxqdhh700000gn/T//cc4n8EPc.s 			page 42


 2333 0004 82B0     		sub	sp, sp, #8
 2334              	.LCFI13:
 2335              		.cfi_def_cfa_offset 40
 2336              		.loc 1 1190 0
 2337 0006 0646     		mov	r6, r0
 2338 0008 8A46     		mov	sl, r1
 2339 000a 1746     		mov	r7, r2
 2340              		.loc 1 1193 0
 2341 000c 0120     		movs	r0, #1
 2342              	.LVL200:
 2343 000e 1421     		movs	r1, #20
 2344              	.LVL201:
 2345 0010 0022     		movs	r2, #0
 2346              	.LVL202:
 2347              		.loc 1 1190 0
 2348 0012 9846     		mov	r8, r3
 2349 0014 BDF82840 		ldrh	r4, [sp, #40]
 2350 0018 BDF82C90 		ldrh	r9, [sp, #44]
 2351              		.loc 1 1193 0
 2352 001c FFF7FEFF 		bl	pbuf_alloc
 2353              	.LVL203:
 2354              		.loc 1 1194 0
 2355 0020 0546     		mov	r5, r0
 2356 0022 0028     		cmp	r0, #0
 2357 0024 61D0     		beq	.L218
 2358              		.loc 1 1198 0
 2359 0026 4389     		ldrh	r3, [r0, #10]
 2360 0028 132B     		cmp	r3, #19
 2361 002a 5BD9     		bls	.L221
 2362              	.LVL204:
 2363              	.L220:
 2364              		.loc 1 1202 0
 2365 002c 2046     		mov	r0, r4
 2366              		.loc 1 1201 0
 2367 002e 6C68     		ldr	r4, [r5, #4]
 2368              	.LVL205:
 2369              		.loc 1 1202 0
 2370 0030 FFF7FEFF 		bl	lwip_htons
 2371              	.LVL206:
 2372 0034 C0F30F23 		ubfx	r3, r0, #8, #16
 2373 0038 2070     		strb	r0, [r4, #0]
 2374 003a 6370     		strb	r3, [r4, #1]
 2375              		.loc 1 1203 0
 2376 003c 4846     		mov	r0, r9
 2377 003e FFF7FEFF 		bl	lwip_htons
 2378 0042 C0F30F23 		ubfx	r3, r0, #8, #16
 2379 0046 A070     		strb	r0, [r4, #2]
 2380 0048 E370     		strb	r3, [r4, #3]
 2381              		.loc 1 1204 0
 2382 004a 3046     		mov	r0, r6
 2383 004c FFF7FEFF 		bl	lwip_htonl
 2384 0050 030E     		lsrs	r3, r0, #24
 2385 0052 C0F30721 		ubfx	r1, r0, #8, #8
 2386 0056 C0F30742 		ubfx	r2, r0, #16, #8
 2387 005a 2071     		strb	r0, [r4, #4]
 2388 005c 6171     		strb	r1, [r4, #5]
 2389 005e A271     		strb	r2, [r4, #6]
ARM GAS  /var/folders/5n/p_75w94d66l9ssrldxqdhh700000gn/T//cc4n8EPc.s 			page 43


 2390 0060 E371     		strb	r3, [r4, #7]
 2391              		.loc 1 1205 0
 2392 0062 5046     		mov	r0, sl
 2393 0064 FFF7FEFF 		bl	lwip_htonl
 2394 0068 030E     		lsrs	r3, r0, #24
 2395 006a C0F30721 		ubfx	r1, r0, #8, #8
 2396 006e C0F30742 		ubfx	r2, r0, #16, #8
 2397 0072 2072     		strb	r0, [r4, #8]
 2398 0074 6172     		strb	r1, [r4, #9]
 2399 0076 A272     		strb	r2, [r4, #10]
 2400 0078 E372     		strb	r3, [r4, #11]
 2401              		.loc 1 1206 0
 2402 007a 45F21400 		movw	r0, #20500
 2403 007e FFF7FEFF 		bl	lwip_htons
 2404 0082 C0F30F23 		ubfx	r3, r0, #8, #16
 2405 0086 6373     		strb	r3, [r4, #13]
 2406              		.loc 1 1207 0
 2407 0088 0823     		movs	r3, #8
 2408              		.loc 1 1202 0
 2409 008a 0026     		movs	r6, #0
 2410              	.LVL207:
 2411              		.loc 1 1207 0
 2412 008c A373     		strb	r3, [r4, #14]
 2413 008e 6023     		movs	r3, #96
 2414              		.loc 1 1206 0
 2415 0090 2073     		strb	r0, [r4, #12]
 2416              		.loc 1 1207 0
 2417 0092 E373     		strb	r3, [r4, #15]
 2418              		.loc 1 1208 0
 2419 0094 2674     		strb	r6, [r4, #16]
 2420 0096 6674     		strb	r6, [r4, #17]
 2421              		.loc 1 1209 0
 2422 0098 A674     		strb	r6, [r4, #18]
 2423 009a E674     		strb	r6, [r4, #19]
 2424              		.loc 1 1212 0
 2425 009c B5F808E0 		ldrh	lr, [r5, #8]
 2426 00a0 3946     		mov	r1, r7
 2427 00a2 4246     		mov	r2, r8
 2428 00a4 0623     		movs	r3, #6
 2429 00a6 2846     		mov	r0, r5
 2430 00a8 CDF800E0 		str	lr, [sp, #0]
 2431 00ac FFF7FEFF 		bl	inet_chksum_pseudo
 2432              		.loc 1 1215 0
 2433 00b0 DFF83CE0 		ldr	lr, .L222
 2434              		.loc 1 1212 0
 2435 00b4 2074     		strb	r0, [r4, #16]
 2436 00b6 C0F30F23 		ubfx	r3, r0, #8, #16
 2437 00ba 6374     		strb	r3, [r4, #17]
 2438              		.loc 1 1215 0
 2439 00bc BEF89040 		ldrh	r4, [lr, #144]
 2440              	.LVL208:
 2441              		.loc 1 1218 0
 2442 00c0 0096     		str	r6, [sp, #0]
 2443              		.loc 1 1215 0
 2444 00c2 0134     		adds	r4, r4, #1
 2445 00c4 AEF89040 		strh	r4, [lr, #144]	@ movhi
 2446              		.loc 1 1218 0
ARM GAS  /var/folders/5n/p_75w94d66l9ssrldxqdhh700000gn/T//cc4n8EPc.s 			page 44


 2447 00c8 2846     		mov	r0, r5
 2448 00ca 3946     		mov	r1, r7
 2449 00cc 4246     		mov	r2, r8
 2450 00ce FF23     		movs	r3, #255
 2451 00d0 0624     		movs	r4, #6
 2452 00d2 0194     		str	r4, [sp, #4]
 2453 00d4 FFF7FEFF 		bl	ip_output
 2454              		.loc 1 1219 0
 2455 00d8 2846     		mov	r0, r5
 2456              		.loc 1 1221 0
 2457 00da 02B0     		add	sp, sp, #8
 2458 00dc BDE8F047 		pop	{r4, r5, r6, r7, r8, r9, sl, lr}
 2459              		.loc 1 1219 0
 2460 00e0 FFF7FEBF 		b	pbuf_free
 2461              	.LVL209:
 2462              	.L221:
 2463              		.loc 1 1198 0 discriminator 1
 2464 00e4 FFF7FEFF 		bl	port_halt
 2465 00e8 A0E7     		b	.L220
 2466              	.L218:
 2467              		.loc 1 1221 0
 2468 00ea 02B0     		add	sp, sp, #8
 2469 00ec BDE8F087 		pop	{r4, r5, r6, r7, r8, r9, sl, pc}
 2470              	.L223:
 2471              		.align	2
 2472              	.L222:
 2473 00f0 00000000 		.word	lwip_stats
 2474              		.cfi_endproc
 2475              	.LFE17:
 2476              		.size	tcp_rst, .-tcp_rst
 2477 00f4 AFF30080 		.section	.text.tcp_rexmit_rto,"ax",%progbits
 2477      AFF30080 
 2477      AFF30080 
 2478              		.align	2
 2479              		.p2align 4,,15
 2480              		.global	tcp_rexmit_rto
 2481              		.thumb
 2482              		.thumb_func
 2483              		.type	tcp_rexmit_rto, %function
 2484              	tcp_rexmit_rto:
 2485              	.LFB18:
 2486              		.loc 1 1232 0
 2487              		.cfi_startproc
 2488              		@ args = 0, pretend = 0, frame = 0
 2489              		@ frame_needed = 0, uses_anonymous_args = 0
 2490              		@ link register save eliminated.
 2491              	.LVL210:
 2492              		.loc 1 1235 0
 2493 0000 816F     		ldr	r1, [r0, #120]
 2494              		.loc 1 1232 0
 2495 0002 10B4     		push	{r4}
 2496              	.LCFI14:
 2497              		.cfi_def_cfa_offset 4
 2498              		.cfi_offset 4, -4
 2499              		.loc 1 1235 0
 2500 0004 0A46     		mov	r2, r1
 2501 0006 09B9     		cbnz	r1, .L226
ARM GAS  /var/folders/5n/p_75w94d66l9ssrldxqdhh700000gn/T//cc4n8EPc.s 			page 45


 2502 0008 10E0     		b	.L229
 2503              	.LVL211:
 2504              	.L227:
 2505              		.loc 1 1240 0
 2506 000a 1A46     		mov	r2, r3
 2507              	.LVL212:
 2508              	.L226:
 2509              		.loc 1 1240 0 is_stmt 0 discriminator 1
 2510 000c 1368     		ldr	r3, [r2, #0]
 2511 000e 002B     		cmp	r3, #0
 2512 0010 FBD1     		bne	.L227
 2513              		.loc 1 1242 0 is_stmt 1
 2514 0012 446F     		ldr	r4, [r0, #116]
 2515 0014 1460     		str	r4, [r2, #0]
 2516              		.loc 1 1249 0
 2517 0016 90F84A20 		ldrb	r2, [r0, #74]	@ zero_extendqisi2
 2518              	.LVL213:
 2519              		.loc 1 1244 0
 2520 001a 4167     		str	r1, [r0, #116]
 2521              		.loc 1 1249 0
 2522 001c 0132     		adds	r2, r2, #1
 2523              		.loc 1 1246 0
 2524 001e 8367     		str	r3, [r0, #120]
 2525              		.loc 1 1249 0
 2526 0020 80F84A20 		strb	r2, [r0, #74]
 2527              		.loc 1 1252 0
 2528 0024 C363     		str	r3, [r0, #60]
 2529              		.loc 1 1256 0
 2530 0026 10BC     		pop	{r4}
 2531              		.loc 1 1255 0
 2532 0028 FFF7FEBF 		b	tcp_output
 2533              	.LVL214:
 2534              	.L229:
 2535              		.loc 1 1256 0
 2536 002c 10BC     		pop	{r4}
 2537 002e 7047     		bx	lr
 2538              		.cfi_endproc
 2539              	.LFE18:
 2540              		.size	tcp_rexmit_rto, .-tcp_rexmit_rto
 2541              		.section	.text.tcp_rexmit,"ax",%progbits
 2542              		.align	2
 2543              		.p2align 4,,15
 2544              		.global	tcp_rexmit
 2545              		.thumb
 2546              		.thumb_func
 2547              		.type	tcp_rexmit, %function
 2548              	tcp_rexmit:
 2549              	.LFB19:
 2550              		.loc 1 1267 0
 2551              		.cfi_startproc
 2552              		@ args = 0, pretend = 0, frame = 0
 2553              		@ frame_needed = 0, uses_anonymous_args = 0
 2554              	.LVL215:
 2555 0000 F8B5     		push	{r3, r4, r5, r6, r7, lr}
 2556              	.LCFI15:
 2557              		.cfi_def_cfa_offset 24
 2558              		.cfi_offset 14, -4
ARM GAS  /var/folders/5n/p_75w94d66l9ssrldxqdhh700000gn/T//cc4n8EPc.s 			page 46


 2559              		.cfi_offset 7, -8
 2560              		.cfi_offset 6, -12
 2561              		.cfi_offset 5, -16
 2562              		.cfi_offset 4, -20
 2563              		.cfi_offset 3, -24
 2564              		.loc 1 1271 0
 2565 0002 866F     		ldr	r6, [r0, #120]
 2566              		.loc 1 1267 0
 2567 0004 0746     		mov	r7, r0
 2568              		.loc 1 1271 0
 2569 0006 002E     		cmp	r6, #0
 2570 0008 32D0     		beq	.L230
 2571              	.LVL216:
 2572              		.loc 1 1278 0
 2573 000a 3268     		ldr	r2, [r6, #0]
 2574              		.loc 1 1281 0
 2575 000c 436F     		ldr	r3, [r0, #116]
 2576              		.loc 1 1278 0
 2577 000e 8267     		str	r2, [r0, #120]
 2578              		.loc 1 1280 0
 2579 0010 00F17404 		add	r4, r0, #116
 2580              	.LVL217:
 2581              		.loc 1 1281 0
 2582 0014 1BB9     		cbnz	r3, .L236
 2583 0016 22E0     		b	.L233
 2584              	.LVL218:
 2585              	.L235:
 2586              		.loc 1 1283 0
 2587 0018 2468     		ldr	r4, [r4, #0]
 2588              	.LVL219:
 2589              		.loc 1 1281 0
 2590 001a 2368     		ldr	r3, [r4, #0]
 2591 001c FBB1     		cbz	r3, .L233
 2592              	.L236:
 2593              		.loc 1 1282 0 discriminator 2
 2594 001e DB68     		ldr	r3, [r3, #12]
 2595 0020 1979     		ldrb	r1, [r3, #4]	@ zero_extendqisi2
 2596 0022 5D79     		ldrb	r5, [r3, #5]	@ zero_extendqisi2
 2597 0024 9A79     		ldrb	r2, [r3, #6]	@ zero_extendqisi2
 2598 0026 D879     		ldrb	r0, [r3, #7]	@ zero_extendqisi2
 2599 0028 41EA0523 		orr	r3, r1, r5, lsl #8
 2600 002c 43EA0243 		orr	r3, r3, r2, lsl #16
 2601 0030 43EA0060 		orr	r0, r3, r0, lsl #24
 2602 0034 FFF7FEFF 		bl	lwip_ntohl
 2603 0038 F368     		ldr	r3, [r6, #12]
 2604 003a 1979     		ldrb	r1, [r3, #4]	@ zero_extendqisi2
 2605 003c 93F805E0 		ldrb	lr, [r3, #5]	@ zero_extendqisi2
 2606 0040 9A79     		ldrb	r2, [r3, #6]	@ zero_extendqisi2
 2607 0042 0546     		mov	r5, r0
 2608 0044 D879     		ldrb	r0, [r3, #7]	@ zero_extendqisi2
 2609 0046 41EA0E23 		orr	r3, r1, lr, lsl #8
 2610 004a 43EA0243 		orr	r3, r3, r2, lsl #16
 2611 004e 43EA0060 		orr	r0, r3, r0, lsl #24
 2612 0052 FFF7FEFF 		bl	lwip_ntohl
 2613 0056 281A     		subs	r0, r5, r0
 2614              		.loc 1 1281 0 discriminator 2
 2615 0058 0028     		cmp	r0, #0
ARM GAS  /var/folders/5n/p_75w94d66l9ssrldxqdhh700000gn/T//cc4n8EPc.s 			page 47


 2616 005a DDDB     		blt	.L235
 2617              		.loc 1 1281 0 is_stmt 0
 2618 005c 2368     		ldr	r3, [r4, #0]
 2619              	.L233:
 2620              		.loc 1 1285 0 is_stmt 1
 2621 005e 3360     		str	r3, [r6, #0]
 2622              		.loc 1 1286 0
 2623 0060 2660     		str	r6, [r4, #0]
 2624              		.loc 1 1288 0
 2625 0062 97F84A30 		ldrb	r3, [r7, #74]	@ zero_extendqisi2
 2626 0066 0133     		adds	r3, r3, #1
 2627 0068 87F84A30 		strb	r3, [r7, #74]
 2628              		.loc 1 1291 0
 2629 006c 0023     		movs	r3, #0
 2630 006e FB63     		str	r3, [r7, #60]
 2631              	.LVL220:
 2632              	.L230:
 2633 0070 F8BD     		pop	{r3, r4, r5, r6, r7, pc}
 2634              		.cfi_endproc
 2635              	.LFE19:
 2636              		.size	tcp_rexmit, .-tcp_rexmit
 2637 0072 00BFAFF3 		.section	.text.tcp_rexmit_fast,"ax",%progbits
 2637      0080AFF3 
 2637      0080AFF3 
 2637      0080
 2638              		.align	2
 2639              		.p2align 4,,15
 2640              		.global	tcp_rexmit_fast
 2641              		.thumb
 2642              		.thumb_func
 2643              		.type	tcp_rexmit_fast, %function
 2644              	tcp_rexmit_fast:
 2645              	.LFB20:
 2646              		.loc 1 1307 0
 2647              		.cfi_startproc
 2648              		@ args = 0, pretend = 0, frame = 0
 2649              		@ frame_needed = 0, uses_anonymous_args = 0
 2650              	.LVL221:
 2651              		.loc 1 1308 0
 2652 0000 836F     		ldr	r3, [r0, #120]
 2653              		.loc 1 1307 0
 2654 0002 10B5     		push	{r4, lr}
 2655              	.LCFI16:
 2656              		.cfi_def_cfa_offset 8
 2657              		.cfi_offset 14, -4
 2658              		.cfi_offset 4, -8
 2659              		.loc 1 1307 0
 2660 0004 0446     		mov	r4, r0
 2661              		.loc 1 1308 0
 2662 0006 1BB1     		cbz	r3, .L238
 2663              		.loc 1 1308 0 is_stmt 0 discriminator 1
 2664 0008 90F82030 		ldrb	r3, [r0, #32]	@ zero_extendqisi2
 2665 000c 5B07     		lsls	r3, r3, #29
 2666 000e 00D5     		bpl	.L243
 2667              	.L238:
 2668 0010 10BD     		pop	{r4, pc}
 2669              	.L243:
ARM GAS  /var/folders/5n/p_75w94d66l9ssrldxqdhh700000gn/T//cc4n8EPc.s 			page 48


 2670              		.loc 1 1315 0 is_stmt 1
 2671 0012 FFF7FEFF 		bl	tcp_rexmit
 2672              	.LVL222:
 2673              		.loc 1 1319 0
 2674 0016 B4F85230 		ldrh	r3, [r4, #82]
 2675 001a B4F85C20 		ldrh	r2, [r4, #92]
 2676 001e 9342     		cmp	r3, r2
 2677 0020 15D8     		bhi	.L244
 2678              		.loc 1 1322 0
 2679 0022 5B08     		lsrs	r3, r3, #1
 2680 0024 A4F85430 		strh	r3, [r4, #84]	@ movhi
 2681              	.L241:
 2682              		.loc 1 1326 0
 2683 0028 218F     		ldrh	r1, [r4, #56]
 2684              		.loc 1 1335 0
 2685 002a 94F82000 		ldrb	r0, [r4, #32]	@ zero_extendqisi2
 2686              		.loc 1 1326 0
 2687 002e 4A00     		lsls	r2, r1, #1
 2688 0030 9342     		cmp	r3, r2
 2689              		.loc 1 1331 0
 2690 0032 B8BF     		it	lt
 2691 0034 93B2     		uxthlt	r3, r2
 2692              		.loc 1 1334 0
 2693 0036 0A44     		add	r2, r2, r1
 2694              		.loc 1 1331 0
 2695 0038 B8BF     		it	lt
 2696 003a A4F85430 		strhlt	r3, [r4, #84]	@ movhi
 2697              		.loc 1 1335 0
 2698 003e 40F00400 		orr	r0, r0, #4
 2699              		.loc 1 1334 0
 2700 0042 9B18     		adds	r3, r3, r2
 2701 0044 A4F85230 		strh	r3, [r4, #82]	@ movhi
 2702              		.loc 1 1335 0
 2703 0048 84F82000 		strb	r0, [r4, #32]
 2704 004c 10BD     		pop	{r4, pc}
 2705              	.L244:
 2706              		.loc 1 1320 0
 2707 004e 5308     		lsrs	r3, r2, #1
 2708 0050 A4F85430 		strh	r3, [r4, #84]	@ movhi
 2709 0054 E8E7     		b	.L241
 2710              		.cfi_endproc
 2711              	.LFE20:
 2712              		.size	tcp_rexmit_fast, .-tcp_rexmit_fast
 2713 0056 00BFAFF3 		.section	.text.tcp_keepalive,"ax",%progbits
 2713      0080AFF3 
 2713      0080
 2714              		.align	2
 2715              		.p2align 4,,15
 2716              		.global	tcp_keepalive
 2717              		.thumb
 2718              		.thumb_func
 2719              		.type	tcp_keepalive, %function
 2720              	tcp_keepalive:
 2721              	.LFB21:
 2722              		.loc 1 1350 0
 2723              		.cfi_startproc
 2724              		@ args = 0, pretend = 0, frame = 0
ARM GAS  /var/folders/5n/p_75w94d66l9ssrldxqdhh700000gn/T//cc4n8EPc.s 			page 49


 2725              		@ frame_needed = 0, uses_anonymous_args = 0
 2726              	.LVL223:
 2727 0000 F0B5     		push	{r4, r5, r6, r7, lr}
 2728              	.LCFI17:
 2729              		.cfi_def_cfa_offset 20
 2730              		.cfi_offset 14, -4
 2731              		.cfi_offset 7, -8
 2732              		.cfi_offset 6, -12
 2733              		.cfi_offset 5, -16
 2734              		.cfi_offset 4, -20
 2735 0002 0446     		mov	r4, r0
 2736              		.loc 1 1361 0
 2737 0004 806D     		ldr	r0, [r0, #88]
 2738              	.LVL224:
 2739              		.loc 1 1350 0
 2740 0006 83B0     		sub	sp, sp, #12
 2741              	.LCFI18:
 2742              		.cfi_def_cfa_offset 32
 2743              		.loc 1 1361 0
 2744 0008 0138     		subs	r0, r0, #1
 2745 000a FFF7FEFF 		bl	lwip_htonl
 2746 000e 0021     		movs	r1, #0
 2747 0010 0246     		mov	r2, r0
 2748 0012 2046     		mov	r0, r4
 2749 0014 FFF7FEFF 		bl	tcp_output_alloc_header.constprop.0
 2750              	.LVL225:
 2751              		.loc 1 1362 0
 2752 0018 0546     		mov	r5, r0
 2753 001a 0028     		cmp	r0, #0
 2754 001c 22D0     		beq	.L245
 2755              		.loc 1 1370 0
 2756 001e 0389     		ldrh	r3, [r0, #8]
 2757              		.loc 1 1367 0
 2758 0020 4768     		ldr	r7, [r0, #4]
 2759              	.LVL226:
 2760              		.loc 1 1370 0
 2761 0022 0093     		str	r3, [sp, #0]
 2762 0024 261D     		adds	r6, r4, #4
 2763 0026 2146     		mov	r1, r4
 2764 0028 3246     		mov	r2, r6
 2765 002a 0623     		movs	r3, #6
 2766 002c FFF7FEFF 		bl	inet_chksum_pseudo
 2767              	.LVL227:
 2768              		.loc 1 1373 0
 2769 0030 0D4B     		ldr	r3, .L247
 2770              		.loc 1 1370 0
 2771 0032 3874     		strb	r0, [r7, #16]
 2772 0034 C0F30F22 		ubfx	r2, r0, #8, #16
 2773 0038 7A74     		strb	r2, [r7, #17]
 2774              		.loc 1 1373 0
 2775 003a B3F89020 		ldrh	r2, [r3, #144]
 2776 003e 0132     		adds	r2, r2, #1
 2777 0040 A3F89020 		strh	r2, [r3, #144]	@ movhi
 2778              		.loc 1 1380 0
 2779 0044 A37A     		ldrb	r3, [r4, #10]	@ zero_extendqisi2
 2780 0046 2146     		mov	r1, r4
 2781 0048 0024     		movs	r4, #0
ARM GAS  /var/folders/5n/p_75w94d66l9ssrldxqdhh700000gn/T//cc4n8EPc.s 			page 50


 2782              	.LVL228:
 2783 004a 0094     		str	r4, [sp, #0]
 2784 004c 2846     		mov	r0, r5
 2785 004e 3246     		mov	r2, r6
 2786 0050 0624     		movs	r4, #6
 2787 0052 0194     		str	r4, [sp, #4]
 2788 0054 FFF7FEFF 		bl	ip_output
 2789              	.LVL229:
 2790              		.loc 1 1383 0
 2791 0058 2846     		mov	r0, r5
 2792              		.loc 1 1387 0
 2793 005a 03B0     		add	sp, sp, #12
 2794 005c BDE8F040 		pop	{r4, r5, r6, r7, lr}
 2795              		.loc 1 1383 0
 2796 0060 FFF7FEBF 		b	pbuf_free
 2797              	.LVL230:
 2798              	.L245:
 2799              		.loc 1 1387 0
 2800 0064 03B0     		add	sp, sp, #12
 2801 0066 F0BD     		pop	{r4, r5, r6, r7, pc}
 2802              	.L248:
 2803              		.align	2
 2804              	.L247:
 2805 0068 00000000 		.word	lwip_stats
 2806              		.cfi_endproc
 2807              	.LFE21:
 2808              		.size	tcp_keepalive, .-tcp_keepalive
 2809 006c AFF30080 		.section	.text.tcp_zero_window_probe,"ax",%progbits
 2810              		.align	2
 2811              		.p2align 4,,15
 2812              		.global	tcp_zero_window_probe
 2813              		.thumb
 2814              		.thumb_func
 2815              		.type	tcp_zero_window_probe, %function
 2816              	tcp_zero_window_probe:
 2817              	.LFB22:
 2818              		.loc 1 1400 0
 2819              		.cfi_startproc
 2820              		@ args = 0, pretend = 0, frame = 0
 2821              		@ frame_needed = 0, uses_anonymous_args = 0
 2822              	.LVL231:
 2823 0000 2DE9F041 		push	{r4, r5, r6, r7, r8, lr}
 2824              	.LCFI19:
 2825              		.cfi_def_cfa_offset 24
 2826              		.cfi_offset 14, -4
 2827              		.cfi_offset 8, -8
 2828              		.cfi_offset 7, -12
 2829              		.cfi_offset 6, -16
 2830              		.cfi_offset 5, -20
 2831              		.cfi_offset 4, -24
 2832              		.loc 1 1418 0
 2833 0004 876F     		ldr	r7, [r0, #120]
 2834              	.LVL232:
 2835              		.loc 1 1400 0
 2836 0006 82B0     		sub	sp, sp, #8
 2837              	.LCFI20:
 2838              		.cfi_def_cfa_offset 32
ARM GAS  /var/folders/5n/p_75w94d66l9ssrldxqdhh700000gn/T//cc4n8EPc.s 			page 51


 2839              		.loc 1 1400 0
 2840 0008 0446     		mov	r4, r0
 2841              		.loc 1 1420 0
 2842 000a 002F     		cmp	r7, #0
 2843 000c 72D0     		beq	.L257
 2844              	.LVL233:
 2845              	.L250:
 2846              		.loc 1 1427 0
 2847 000e FB68     		ldr	r3, [r7, #12]
 2848 0010 1A7B     		ldrb	r2, [r3, #12]	@ zero_extendqisi2
 2849 0012 587B     		ldrb	r0, [r3, #13]	@ zero_extendqisi2
 2850              	.LVL234:
 2851 0014 42EA0020 		orr	r0, r2, r0, lsl #8
 2852 0018 FFF7FEFF 		bl	lwip_ntohs
 2853 001c 0121     		movs	r1, #1
 2854 001e 10F00108 		ands	r8, r0, #1
 2855 0022 4DD1     		bne	.L258
 2856              	.L252:
 2857              	.LVL235:
 2858              		.loc 1 1431 0 discriminator 3
 2859 0024 FA68     		ldr	r2, [r7, #12]
 2860 0026 5579     		ldrb	r5, [r2, #5]	@ zero_extendqisi2
 2861 0028 1379     		ldrb	r3, [r2, #4]	@ zero_extendqisi2
 2862 002a 9079     		ldrb	r0, [r2, #6]	@ zero_extendqisi2
 2863 002c D279     		ldrb	r2, [r2, #7]	@ zero_extendqisi2
 2864 002e 43EA0523 		orr	r3, r3, r5, lsl #8
 2865 0032 43EA0043 		orr	r3, r3, r0, lsl #16
 2866 0036 43EA0262 		orr	r2, r3, r2, lsl #24
 2867 003a 2046     		mov	r0, r4
 2868 003c FFF7FEFF 		bl	tcp_output_alloc_header.constprop.0
 2869              	.LVL236:
 2870              		.loc 1 1432 0 discriminator 3
 2871 0040 0546     		mov	r5, r0
 2872 0042 0028     		cmp	r0, #0
 2873 0044 59D0     		beq	.L249
 2874              		.loc 1 1436 0
 2875 0046 4668     		ldr	r6, [r0, #4]
 2876              	.LVL237:
 2877              		.loc 1 1438 0
 2878 0048 B8F1000F 		cmp	r8, #0
 2879 004c 42D1     		bne	.L259
 2880              	.LBB52:
 2881              		.loc 1 1443 0
 2882 004e 7F68     		ldr	r7, [r7, #4]
 2883              	.LVL238:
 2884              		.loc 1 1445 0
 2885 0050 7B68     		ldr	r3, [r7, #4]
 2886 0052 1A7B     		ldrb	r2, [r3, #12]	@ zero_extendqisi2
 2887 0054 587B     		ldrb	r0, [r3, #13]	@ zero_extendqisi2
 2888              	.LVL239:
 2889 0056 42EA0020 		orr	r0, r2, r0, lsl #8
 2890 005a FFF7FEFF 		bl	lwip_ntohs
 2891              	.LVL240:
 2892 005e 4FF6FC73 		movw	r3, #65532
 2893 0062 4FEA902E 		lsr	lr, r0, #10
 2894 0066 06F11401 		add	r1, r6, #20
 2895 006a 3846     		mov	r0, r7
ARM GAS  /var/folders/5n/p_75w94d66l9ssrldxqdhh700000gn/T//cc4n8EPc.s 			page 52


 2896 006c 0122     		movs	r2, #1
 2897 006e 0EEA0303 		and	r3, lr, r3
 2898 0072 FFF7FEFF 		bl	pbuf_copy_partial
 2899              	.LVL241:
 2900              	.L254:
 2901              	.LBE52:
 2902              		.loc 1 1449 0
 2903 0076 271D     		adds	r7, r4, #4
 2904 0078 B5F808E0 		ldrh	lr, [r5, #8]
 2905 007c 2146     		mov	r1, r4
 2906 007e 3A46     		mov	r2, r7
 2907 0080 0623     		movs	r3, #6
 2908 0082 2846     		mov	r0, r5
 2909 0084 CDF800E0 		str	lr, [sp, #0]
 2910 0088 FFF7FEFF 		bl	inet_chksum_pseudo
 2911              		.loc 1 1452 0
 2912 008c 1C4B     		ldr	r3, .L260
 2913              		.loc 1 1449 0
 2914 008e 3074     		strb	r0, [r6, #16]
 2915 0090 C0F30F22 		ubfx	r2, r0, #8, #16
 2916 0094 7274     		strb	r2, [r6, #17]
 2917              		.loc 1 1452 0
 2918 0096 B3F89020 		ldrh	r2, [r3, #144]
 2919 009a 0132     		adds	r2, r2, #1
 2920 009c A3F89020 		strh	r2, [r3, #144]	@ movhi
 2921              		.loc 1 1459 0
 2922 00a0 A37A     		ldrb	r3, [r4, #10]	@ zero_extendqisi2
 2923 00a2 2146     		mov	r1, r4
 2924 00a4 0024     		movs	r4, #0
 2925              	.LVL242:
 2926 00a6 0094     		str	r4, [sp, #0]
 2927 00a8 2846     		mov	r0, r5
 2928 00aa 3A46     		mov	r2, r7
 2929 00ac 0624     		movs	r4, #6
 2930 00ae 0194     		str	r4, [sp, #4]
 2931 00b0 FFF7FEFF 		bl	ip_output
 2932              	.LVL243:
 2933              		.loc 1 1462 0
 2934 00b4 2846     		mov	r0, r5
 2935              		.loc 1 1467 0
 2936 00b6 02B0     		add	sp, sp, #8
 2937 00b8 BDE8F041 		pop	{r4, r5, r6, r7, r8, lr}
 2938              		.loc 1 1462 0
 2939 00bc FFF7FEBF 		b	pbuf_free
 2940              	.LVL244:
 2941              	.L258:
 2942              		.loc 1 1427 0 discriminator 1
 2943 00c0 3989     		ldrh	r1, [r7, #8]
 2944 00c2 0029     		cmp	r1, #0
 2945 00c4 18BF     		it	ne
 2946 00c6 0121     		movne	r1, #1
 2947 00c8 14BF     		ite	ne
 2948 00ca 4FF00008 		movne	r8, #0
 2949 00ce 4FF00108 		moveq	r8, #1
 2950 00d2 A7E7     		b	.L252
 2951              	.LVL245:
 2952              	.L259:
ARM GAS  /var/folders/5n/p_75w94d66l9ssrldxqdhh700000gn/T//cc4n8EPc.s 			page 53


 2953              		.loc 1 1440 0
 2954 00d4 337B     		ldrb	r3, [r6, #12]	@ zero_extendqisi2
 2955 00d6 727B     		ldrb	r2, [r6, #13]	@ zero_extendqisi2
 2956 00d8 4CF2FF07 		movw	r7, #49407
 2957              	.LVL246:
 2958 00dc 43EA0223 		orr	r3, r3, r2, lsl #8
 2959 00e0 1120     		movs	r0, #17
 2960              	.LVL247:
 2961 00e2 1F40     		ands	r7, r7, r3
 2962 00e4 FFF7FEFF 		bl	lwip_htons
 2963 00e8 0743     		orrs	r7, r7, r0
 2964 00ea BFB2     		uxth	r7, r7
 2965 00ec 3B0A     		lsrs	r3, r7, #8
 2966 00ee 3773     		strb	r7, [r6, #12]
 2967 00f0 7373     		strb	r3, [r6, #13]
 2968 00f2 C0E7     		b	.L254
 2969              	.LVL248:
 2970              	.L257:
 2971              		.loc 1 1421 0
 2972 00f4 476F     		ldr	r7, [r0, #116]
 2973              	.LVL249:
 2974              		.loc 1 1423 0
 2975 00f6 002F     		cmp	r7, #0
 2976 00f8 89D1     		bne	.L250
 2977              	.LVL250:
 2978              	.L249:
 2979              		.loc 1 1467 0
 2980 00fa 02B0     		add	sp, sp, #8
 2981 00fc BDE8F081 		pop	{r4, r5, r6, r7, r8, pc}
 2982              	.L261:
 2983              		.align	2
 2984              	.L260:
 2985 0100 00000000 		.word	lwip_stats
 2986              		.cfi_endproc
 2987              	.LFE22:
 2988              		.size	tcp_zero_window_probe, .-tcp_zero_window_probe
 2989 0104 AFF30080 		.text
 2989      AFF30080 
 2989      AFF30080 
 2990              	.Letext0:
 2991              		.file 2 "/usr/local/summon/lib/gcc/arm-none-eabi/4.6.2/../../../../arm-none-eabi/include/stdint.h"
 2992              		.file 3 "../../os/various/lwip_bindings/arch/cc.h"
 2993              		.file 4 "../../ext/lwip/src/include/lwip/err.h"
 2994              		.file 5 "../../ext/lwip/src/include/lwip/mem.h"
 2995              		.file 6 "../../ext/lwip/src/include/lwip/pbuf.h"
 2996              		.file 7 "../../ext/lwip/src/include/ipv4/lwip/ip_addr.h"
 2997              		.file 8 "../../ext/lwip/src/include/lwip/netif.h"
 2998              		.file 9 "../../ext/lwip/src/include/lwip/tcp.h"
 2999              		.file 10 "../../ext/lwip/src/include/lwip/tcp_impl.h"
 3000              		.file 11 "../../ext/lwip/src/include/lwip/memp.h"
 3001              		.file 12 "../../ext/lwip/src/include/lwip/stats.h"