ARM GAS  /var/folders/5n/p_75w94d66l9ssrldxqdhh700000gn/T//ccYNR3t7.s 			page 1


   1              		.syntax unified
   2              		.cpu cortex-m4
   3              		.fpu softvfp
   4              		.eabi_attribute 20, 1
   5              		.eabi_attribute 21, 1
   6              		.eabi_attribute 23, 3
   7              		.eabi_attribute 24, 1
   8              		.eabi_attribute 25, 1
   9              		.eabi_attribute 26, 1
  10              		.eabi_attribute 30, 2
  11              		.eabi_attribute 18, 4
  12              		.thumb
  13              		.file	"tcp_in.c"
  14              		.text
  15              	.Ltext0:
  16              		.cfi_sections	.debug_frame
  17              		.section	.text.tcp_parseopt,"ax",%progbits
  18              		.align	2
  19              		.p2align 4,,15
  20              		.thumb
  21              		.thumb_func
  22              		.type	tcp_parseopt, %function
  23              	tcp_parseopt:
  24              	.LFB13:
  25              		.file 1 "../../ext/lwip/src/core/tcp_in.c"
  26              		.loc 1 1491 0
  27              		.cfi_startproc
  28              		@ args = 0, pretend = 0, frame = 0
  29              		@ frame_needed = 0, uses_anonymous_args = 0
  30              	.LVL0:
  31 0000 F8B5     		push	{r3, r4, r5, r6, r7, lr}
  32              	.LCFI0:
  33              		.cfi_def_cfa_offset 24
  34              		.cfi_offset 14, -4
  35              		.cfi_offset 7, -8
  36              		.cfi_offset 6, -12
  37              		.cfi_offset 5, -16
  38              		.cfi_offset 4, -20
  39              		.cfi_offset 3, -24
  40              		.loc 1 1499 0
  41 0002 244D     		ldr	r5, .L16
  42 0004 2C68     		ldr	r4, [r5, #0]
  43              		.loc 1 1502 0
  44 0006 237B     		ldrb	r3, [r4, #12]	@ zero_extendqisi2
  45 0008 627B     		ldrb	r2, [r4, #13]	@ zero_extendqisi2
  46              		.loc 1 1491 0
  47 000a 0646     		mov	r6, r0
  48              		.loc 1 1502 0
  49 000c 43EA0220 		orr	r0, r3, r2, lsl #8
  50              	.LVL1:
  51 0010 FFF7FEFF 		bl	lwip_ntohs
  52 0014 C0F30F30 		ubfx	r0, r0, #12, #16
  53              		.loc 1 1499 0
  54 0018 1434     		adds	r4, r4, #20
  55              	.LVL2:
  56              		.loc 1 1502 0
  57 001a 0528     		cmp	r0, #5
ARM GAS  /var/folders/5n/p_75w94d66l9ssrldxqdhh700000gn/T//ccYNR3t7.s 			page 2


  58 001c 00D8     		bhi	.L13
  59              	.L1:
  60 001e F8BD     		pop	{r3, r4, r5, r6, r7, pc}
  61              	.L13:
  62              		.loc 1 1503 0
  63 0020 2B68     		ldr	r3, [r5, #0]
  64 0022 1A7B     		ldrb	r2, [r3, #12]	@ zero_extendqisi2
  65 0024 587B     		ldrb	r0, [r3, #13]	@ zero_extendqisi2
  66 0026 42EA0020 		orr	r0, r2, r0, lsl #8
  67 002a FFF7FEFF 		bl	lwip_ntohs
  68 002e 010B     		lsrs	r1, r0, #12
  69 0030 0539     		subs	r1, r1, #5
  70 0032 8900     		lsls	r1, r1, #2
  71 0034 89B2     		uxth	r1, r1
  72              	.LVL3:
  73              		.loc 1 1504 0
  74 0036 0029     		cmp	r1, #0
  75 0038 F1D0     		beq	.L1
  76 003a 0023     		movs	r3, #0
  77              		.loc 1 1526 0
  78 003c 40F21725 		movw	r5, #535
  79              	.LVL4:
  80              		.loc 1 1506 0
  81 0040 E25C     		ldrb	r2, [r4, r3]	@ zero_extendqisi2
  82 0042 012A     		cmp	r2, #1
  83 0044 0DD0     		beq	.L4
  84              	.LVL5:
  85              	.L15:
  86 0046 EAD3     		bcc	.L1
  87 0048 022A     		cmp	r2, #2
  88 004a 0DD0     		beq	.L14
  89              		.loc 1 1553 0
  90 004c E218     		adds	r2, r4, r3
  91 004e 5278     		ldrb	r2, [r2, #1]	@ zero_extendqisi2
  92 0050 002A     		cmp	r2, #0
  93 0052 E4D0     		beq	.L1
  94              		.loc 1 1561 0
  95 0054 D318     		adds	r3, r2, r3
  96 0056 9BB2     		uxth	r3, r3
  97              	.LVL6:
  98              	.L6:
  99              		.loc 1 1504 0 discriminator 1
 100 0058 9942     		cmp	r1, r3
 101 005a E0D9     		bls	.L1
 102              	.LVL7:
 103              		.loc 1 1506 0
 104 005c E25C     		ldrb	r2, [r4, r3]	@ zero_extendqisi2
 105 005e 012A     		cmp	r2, #1
 106 0060 F1D1     		bne	.L15
 107              	.LVL8:
 108              	.L4:
 109              		.loc 1 1513 0
 110 0062 0133     		adds	r3, r3, #1
 111 0064 9BB2     		uxth	r3, r3
 112              	.LVL9:
 113              		.loc 1 1515 0
 114 0066 F7E7     		b	.L6
ARM GAS  /var/folders/5n/p_75w94d66l9ssrldxqdhh700000gn/T//ccYNR3t7.s 			page 3


 115              	.LVL10:
 116              	.L14:
 117              		.loc 1 1518 0
 118 0068 E018     		adds	r0, r4, r3
 119 006a 4278     		ldrb	r2, [r0, #1]	@ zero_extendqisi2
 120 006c 042A     		cmp	r2, #4
 121 006e D6D1     		bne	.L1
 122              		.loc 1 1518 0 is_stmt 0 discriminator 1
 123 0070 DA1C     		adds	r2, r3, #3
 124 0072 8A42     		cmp	r2, r1
 125 0074 D3DA     		bge	.L1
 126              		.loc 1 1524 0 is_stmt 1
 127 0076 8778     		ldrb	r7, [r0, #2]	@ zero_extendqisi2
 128 0078 C278     		ldrb	r2, [r0, #3]	@ zero_extendqisi2
 129 007a 42EA0722 		orr	r2, r2, r7, lsl #8
 130              	.LVL11:
 131              		.loc 1 1526 0
 132 007e 501E     		subs	r0, r2, #1
 133 0080 80B2     		uxth	r0, r0
 134 0082 A842     		cmp	r0, r5
 135 0084 88BF     		it	hi
 136 0086 4FF40672 		movhi	r2, #536
 137              	.LVL12:
 138              		.loc 1 1528 0
 139 008a 0433     		adds	r3, r3, #4
 140              		.loc 1 1526 0
 141 008c 3287     		strh	r2, [r6, #56]	@ movhi
 142              		.loc 1 1528 0
 143 008e 9BB2     		uxth	r3, r3
 144              	.LVL13:
 145              		.loc 1 1529 0
 146 0090 E2E7     		b	.L6
 147              	.L17:
 148 0092 00BF     		.align	2
 149              	.L16:
 150 0094 00000000 		.word	.LANCHOR0
 151              		.cfi_endproc
 152              	.LFE13:
 153              		.size	tcp_parseopt, .-tcp_parseopt
 154 0098 AFF30080 		.section	.text.tcp_oos_insert_segment,"ax",%progbits
 154      AFF30080 
 155              		.align	2
 156              		.p2align 4,,15
 157              		.thumb
 158              		.thumb_func
 159              		.type	tcp_oos_insert_segment, %function
 160              	tcp_oos_insert_segment:
 161              	.LFB11:
 162              		.loc 1 798 0
 163              		.cfi_startproc
 164              		@ args = 0, pretend = 0, frame = 0
 165              		@ frame_needed = 0, uses_anonymous_args = 0
 166              	.LVL14:
 167 0000 2DE9F843 		push	{r3, r4, r5, r6, r7, r8, r9, lr}
 168              	.LCFI1:
 169              		.cfi_def_cfa_offset 32
 170              		.cfi_offset 14, -4
ARM GAS  /var/folders/5n/p_75w94d66l9ssrldxqdhh700000gn/T//ccYNR3t7.s 			page 4


 171              		.cfi_offset 9, -8
 172              		.cfi_offset 8, -12
 173              		.cfi_offset 7, -16
 174              		.cfi_offset 6, -20
 175              		.cfi_offset 5, -24
 176              		.cfi_offset 4, -28
 177              		.cfi_offset 3, -32
 178              		.loc 1 801 0
 179 0004 C368     		ldr	r3, [r0, #12]
 180              		.loc 1 798 0
 181 0006 0546     		mov	r5, r0
 182              		.loc 1 801 0
 183 0008 1A7B     		ldrb	r2, [r3, #12]	@ zero_extendqisi2
 184 000a 587B     		ldrb	r0, [r3, #13]	@ zero_extendqisi2
 185              	.LVL15:
 186 000c 42EA0020 		orr	r0, r2, r0, lsl #8
 187              		.loc 1 798 0
 188 0010 0E46     		mov	r6, r1
 189              		.loc 1 801 0
 190 0012 FFF7FEFF 		bl	lwip_ntohs
 191              	.LVL16:
 192 0016 C207     		lsls	r2, r0, #31
 193 0018 67D4     		bmi	.L19
 194              		.loc 1 809 0 discriminator 1
 195 001a 002E     		cmp	r6, #0
 196 001c 56D0     		beq	.L20
 197              		.loc 1 810 0
 198 001e F368     		ldr	r3, [r6, #12]
 199 0020 354F     		ldr	r7, .L30
 200 0022 1979     		ldrb	r1, [r3, #4]	@ zero_extendqisi2
 201 0024 93F80590 		ldrb	r9, [r3, #5]	@ zero_extendqisi2
 202 0028 93F80680 		ldrb	r8, [r3, #6]	@ zero_extendqisi2
 203 002c 93F807C0 		ldrb	ip, [r3, #7]	@ zero_extendqisi2
 204 0030 2889     		ldrh	r0, [r5, #8]
 205 0032 3A68     		ldr	r2, [r7, #0]
 206 0034 3489     		ldrh	r4, [r6, #8]
 207 0036 41EA0921 		orr	r1, r1, r9, lsl #8
 208 003a 41EA0841 		orr	r1, r1, r8, lsl #16
 209 003e 41EA0C61 		orr	r1, r1, ip, lsl #24
 210 0042 401A     		subs	r0, r0, r1
 211 0044 8018     		adds	r0, r0, r2
 212 0046 041B     		subs	r4, r0, r4
 213              		.loc 1 809 0
 214 0048 002C     		cmp	r4, #0
 215 004a B8BF     		it	lt
 216 004c 3446     		movlt	r4, r6
 217 004e 1DDA     		bge	.L28
 218 0050 40E0     		b	.L22
 219              	.L24:
 220              	.LVL17:
 221              		.loc 1 817 0
 222 0052 3468     		ldr	r4, [r6, #0]
 223              	.LVL18:
 224              		.loc 1 818 0
 225 0054 3046     		mov	r0, r6
 226 0056 FFF7FEFF 		bl	tcp_seg_free
 227              	.LVL19:
ARM GAS  /var/folders/5n/p_75w94d66l9ssrldxqdhh700000gn/T//ccYNR3t7.s 			page 5


 228              		.loc 1 809 0
 229 005a 002C     		cmp	r4, #0
 230 005c 36D0     		beq	.L20
 231              	.L29:
 232              		.loc 1 810 0 discriminator 2
 233 005e E368     		ldr	r3, [r4, #12]
 234 0060 2889     		ldrh	r0, [r5, #8]
 235 0062 1979     		ldrb	r1, [r3, #4]	@ zero_extendqisi2
 236 0064 93F80590 		ldrb	r9, [r3, #5]	@ zero_extendqisi2
 237 0068 93F80680 		ldrb	r8, [r3, #6]	@ zero_extendqisi2
 238 006c 93F807C0 		ldrb	ip, [r3, #7]	@ zero_extendqisi2
 239 0070 3A68     		ldr	r2, [r7, #0]
 240 0072 2689     		ldrh	r6, [r4, #8]
 241              	.LVL20:
 242 0074 41EA0921 		orr	r1, r1, r9, lsl #8
 243 0078 41EA0841 		orr	r1, r1, r8, lsl #16
 244 007c 41EA0C61 		orr	r1, r1, ip, lsl #24
 245 0080 401A     		subs	r0, r0, r1
 246 0082 8018     		adds	r0, r0, r2
 247 0084 861B     		subs	r6, r0, r6
 248              		.loc 1 809 0 discriminator 2
 249 0086 002E     		cmp	r6, #0
 250 0088 24DB     		blt	.L22
 251              		.loc 1 809 0 is_stmt 0
 252 008a 2646     		mov	r6, r4
 253              	.LVL21:
 254              	.L28:
 255              		.loc 1 813 0 is_stmt 1
 256 008c 1A7B     		ldrb	r2, [r3, #12]	@ zero_extendqisi2
 257 008e 587B     		ldrb	r0, [r3, #13]	@ zero_extendqisi2
 258 0090 42EA0020 		orr	r0, r2, r0, lsl #8
 259 0094 FFF7FEFF 		bl	lwip_ntohs
 260 0098 C307     		lsls	r3, r0, #31
 261 009a DAD5     		bpl	.L24
 262              		.loc 1 814 0
 263 009c EC68     		ldr	r4, [r5, #12]
 264 009e 237B     		ldrb	r3, [r4, #12]	@ zero_extendqisi2
 265 00a0 94F80D80 		ldrb	r8, [r4, #13]	@ zero_extendqisi2
 266 00a4 0120     		movs	r0, #1
 267 00a6 43EA0828 		orr	r8, r3, r8, lsl #8
 268 00aa FFF7FEFF 		bl	lwip_htons
 269 00ae 40EA0808 		orr	r8, r0, r8
 270 00b2 1FFA88F8 		uxth	r8, r8
 271 00b6 4FEA1823 		lsr	r3, r8, #8
 272 00ba 84F80C80 		strb	r8, [r4, #12]
 273 00be 6373     		strb	r3, [r4, #13]
 274              	.LVL22:
 275              		.loc 1 817 0
 276 00c0 3468     		ldr	r4, [r6, #0]
 277              	.LVL23:
 278              		.loc 1 818 0
 279 00c2 3046     		mov	r0, r6
 280 00c4 FFF7FEFF 		bl	tcp_seg_free
 281              	.LVL24:
 282              		.loc 1 809 0
 283 00c8 002C     		cmp	r4, #0
 284 00ca C8D1     		bne	.L29
ARM GAS  /var/folders/5n/p_75w94d66l9ssrldxqdhh700000gn/T//ccYNR3t7.s 			page 6


 285              	.LVL25:
 286              	.L20:
 287              		.loc 1 804 0
 288 00cc 0024     		movs	r4, #0
 289              	.LVL26:
 290              		.loc 1 827 0
 291 00ce 2C60     		str	r4, [r5, #0]
 292              		.loc 1 828 0
 293 00d0 BDE8F883 		pop	{r3, r4, r5, r6, r7, r8, r9, pc}
 294              	.LVL27:
 295              	.L22:
 296              		.loc 1 820 0
 297 00d4 0028     		cmp	r0, #0
 298 00d6 05DD     		ble	.L23
 299              		.loc 1 823 0
 300 00d8 891A     		subs	r1, r1, r2
 301 00da 89B2     		uxth	r1, r1
 302 00dc 2981     		strh	r1, [r5, #8]	@ movhi
 303              		.loc 1 824 0
 304 00de 6868     		ldr	r0, [r5, #4]
 305 00e0 FFF7FEFF 		bl	pbuf_realloc
 306              	.L23:
 307              	.LVL28:
 308              		.loc 1 827 0
 309 00e4 2C60     		str	r4, [r5, #0]
 310              		.loc 1 828 0
 311 00e6 BDE8F883 		pop	{r3, r4, r5, r6, r7, r8, r9, pc}
 312              	.LVL29:
 313              	.L19:
 314              		.loc 1 803 0
 315 00ea 3046     		mov	r0, r6
 316              		.loc 1 804 0
 317 00ec 0024     		movs	r4, #0
 318              		.loc 1 803 0
 319 00ee FFF7FEFF 		bl	tcp_segs_free
 320              	.LVL30:
 321              		.loc 1 827 0
 322 00f2 2C60     		str	r4, [r5, #0]
 323              		.loc 1 828 0
 324 00f4 BDE8F883 		pop	{r3, r4, r5, r6, r7, r8, r9, pc}
 325              	.L31:
 326              		.align	2
 327              	.L30:
 328 00f8 00000000 		.word	.LANCHOR1
 329              		.cfi_endproc
 330              	.LFE11:
 331              		.size	tcp_oos_insert_segment, .-tcp_oos_insert_segment
 332 00fc AFF30080 		.section	.text.tcp_receive,"ax",%progbits
 333              		.align	2
 334              		.p2align 4,,15
 335              		.thumb
 336              		.thumb_func
 337              		.type	tcp_receive, %function
 338              	tcp_receive:
 339              	.LFB12:
 340              		.loc 1 845 0
 341              		.cfi_startproc
ARM GAS  /var/folders/5n/p_75w94d66l9ssrldxqdhh700000gn/T//ccYNR3t7.s 			page 7


 342              		@ args = 0, pretend = 0, frame = 16
 343              		@ frame_needed = 0, uses_anonymous_args = 0
 344              	.LVL31:
 345 0000 2DE9F04F 		push	{r4, r5, r6, r7, r8, r9, sl, fp, lr}
 346              	.LCFI2:
 347              		.cfi_def_cfa_offset 36
 348              		.cfi_offset 14, -4
 349              		.cfi_offset 11, -8
 350              		.cfi_offset 10, -12
 351              		.cfi_offset 9, -16
 352              		.cfi_offset 8, -20
 353              		.cfi_offset 7, -24
 354              		.cfi_offset 6, -28
 355              		.cfi_offset 5, -32
 356              		.cfi_offset 4, -36
 357              		.loc 1 857 0
 358 0004 764B     		ldr	r3, .L196
 359              		.loc 1 861 0
 360 0006 774F     		ldr	r7, .L196+4
 361              		.loc 1 857 0
 362 0008 1B78     		ldrb	r3, [r3, #0]	@ zero_extendqisi2
 363              		.loc 1 845 0
 364 000a 0446     		mov	r4, r0
 365              		.loc 1 857 0
 366 000c D806     		lsls	r0, r3, #27
 367              	.LVL32:
 368              		.loc 1 845 0
 369 000e 85B0     		sub	sp, sp, #20
 370              	.LCFI3:
 371              		.cfi_def_cfa_offset 56
 372 0010 58BF     		it	pl
 373 0012 DFF8D8B1 		ldrpl	fp, .L196+12
 374              		.loc 1 857 0
 375 0016 7ED5     		bpl	.L33
 376              		.loc 1 861 0
 377 0018 236E     		ldr	r3, [r4, #96]
 378 001a 3A68     		ldr	r2, [r7, #0]
 379              		.loc 1 858 0
 380 001c B4F85C50 		ldrh	r5, [r4, #92]
 381 0020 616E     		ldr	r1, [r4, #100]
 382              	.LVL33:
 383              		.loc 1 861 0
 384 0022 DFF8CC91 		ldr	r9, .L196+16
 385 0026 981A     		subs	r0, r3, r2
 386 0028 0028     		cmp	r0, #0
 387 002a C0F2C180 		blt	.L167
 388              		.loc 1 861 0 is_stmt 0 discriminator 1
 389 002e 9342     		cmp	r3, r2
 390              		.loc 1 862 0 is_stmt 1 discriminator 1
 391 0030 D9F80030 		ldr	r3, [r9, #0]
 392              		.loc 1 861 0 discriminator 1
 393 0034 00F07482 		beq	.L36
 394              	.L37:
 395              		.loc 1 862 0 discriminator 1
 396 0038 9942     		cmp	r1, r3
 397 003a 00F0D082 		beq	.L168
 398              	.L38:
ARM GAS  /var/folders/5n/p_75w94d66l9ssrldxqdhh700000gn/T//ccYNR3t7.s 			page 8


 399              		.loc 1 903 0
 400 003e E26C     		ldr	r2, [r4, #76]
 401 0040 981A     		subs	r0, r3, r2
 402 0042 0028     		cmp	r0, #0
 403 0044 40F35082 		ble	.L169
 404              		.loc 1 935 0
 405 0048 D243     		mvns	r2, r2
 406 004a D342     		cmn	r3, r2
 407 004c 04D4     		bmi	.L44
 408              		.loc 1 935 0 is_stmt 0 discriminator 1
 409 004e A26D     		ldr	r2, [r4, #88]
 410 0050 9A1A     		subs	r2, r3, r2
 411 0052 002A     		cmp	r2, #0
 412 0054 40F3CE80 		ble	.L170
 413              	.L44:
 414              		.loc 1 1024 0 is_stmt 1
 415 0058 0023     		movs	r3, #0
 416 005a A4F86C30 		strh	r3, [r4, #108]	@ movhi
 417 005e DFF88CB1 		ldr	fp, .L196+12
 418 0062 636F     		ldr	r3, [r4, #116]
 419              	.LVL34:
 420              	.L57:
 421              		.loc 1 1034 0 discriminator 1
 422 0064 DFF888A1 		ldr	sl, .L196+16
 423              		.loc 1 1033 0 discriminator 1
 424 0068 002B     		cmp	r3, #0
 425 006a 4BD0     		beq	.L63
 426              	.L136:
 427              		.loc 1 1034 0 discriminator 2
 428 006c DB68     		ldr	r3, [r3, #12]
 429 006e D9F80060 		ldr	r6, [r9, #0]
 430 0072 1979     		ldrb	r1, [r3, #4]	@ zero_extendqisi2
 431 0074 5D79     		ldrb	r5, [r3, #5]	@ zero_extendqisi2
 432 0076 9A79     		ldrb	r2, [r3, #6]	@ zero_extendqisi2
 433 0078 D879     		ldrb	r0, [r3, #7]	@ zero_extendqisi2
 434 007a 41EA0523 		orr	r3, r1, r5, lsl #8
 435 007e 43EA0243 		orr	r3, r3, r2, lsl #16
 436 0082 43EA0060 		orr	r0, r3, r0, lsl #24
 437 0086 FFF7FEFF 		bl	lwip_ntohl
 438 008a 626F     		ldr	r2, [r4, #116]
 439 008c D368     		ldr	r3, [r2, #12]
 440 008e B2F80880 		ldrh	r8, [r2, #8]
 441 0092 1A7B     		ldrb	r2, [r3, #12]	@ zero_extendqisi2
 442 0094 0546     		mov	r5, r0
 443 0096 587B     		ldrb	r0, [r3, #13]	@ zero_extendqisi2
 444 0098 42EA0020 		orr	r0, r2, r0, lsl #8
 445 009c FFF7FEFF 		bl	lwip_ntohs
 446 00a0 10F00300 		ands	r0, r0, #3
 447 00a4 18BF     		it	ne
 448 00a6 0120     		movne	r0, #1
 449 00a8 8044     		add	r8, r8, r0
 450 00aa 751B     		subs	r5, r6, r5
 451 00ac C8EB0500 		rsb	r0, r8, r5
 452              		.loc 1 1033 0 discriminator 2
 453 00b0 0028     		cmp	r0, #0
 454 00b2 27DB     		blt	.L63
 455              		.loc 1 1034 0
ARM GAS  /var/folders/5n/p_75w94d66l9ssrldxqdhh700000gn/T//ccYNR3t7.s 			page 9


 456 00b4 DAF80020 		ldr	r2, [sl, #0]
 457 00b8 A36D     		ldr	r3, [r4, #88]
 458 00ba D31A     		subs	r3, r2, r3
 459 00bc 002B     		cmp	r3, #0
 460 00be 21DC     		bgt	.L63
 461              		.loc 1 1040 0
 462 00c0 656F     		ldr	r5, [r4, #116]
 463              	.LVL35:
 464              		.loc 1 1043 0
 465 00c2 B4F87060 		ldrh	r6, [r4, #112]
 466              		.loc 1 1041 0
 467 00c6 2B68     		ldr	r3, [r5, #0]
 468              		.loc 1 1043 0
 469 00c8 6868     		ldr	r0, [r5, #4]
 470              		.loc 1 1041 0
 471 00ca 6367     		str	r3, [r4, #116]
 472              		.loc 1 1043 0
 473 00cc FFF7FEFF 		bl	pbuf_clen
 474              	.LVL36:
 475 00d0 8642     		cmp	r6, r0
 476 00d2 63D3     		bcc	.L171
 477              	.L58:
 478              		.loc 1 1045 0
 479 00d4 B4F86C30 		ldrh	r3, [r4, #108]
 480 00d8 002B     		cmp	r3, #0
 481 00da 50D1     		bne	.L172
 482              	.L59:
 483              		.loc 1 1048 0
 484 00dc 6868     		ldr	r0, [r5, #4]
 485 00de B4F87060 		ldrh	r6, [r4, #112]
 486 00e2 FFF7FEFF 		bl	pbuf_clen
 487 00e6 301A     		subs	r0, r6, r0
 488 00e8 A4F87000 		strh	r0, [r4, #112]	@ movhi
 489              		.loc 1 1049 0
 490 00ec 2846     		mov	r0, r5
 491 00ee FFF7FEFF 		bl	tcp_seg_free
 492              		.loc 1 1051 0
 493 00f2 B4F87030 		ldrh	r3, [r4, #112]
 494 00f6 13B1     		cbz	r3, .L158
 495              		.loc 1 1052 0
 496 00f8 A36F     		ldr	r3, [r4, #120]
 497 00fa 002B     		cmp	r3, #0
 498 00fc 51D0     		beq	.L62
 499              	.L158:
 500              		.loc 1 1052 0 is_stmt 0 discriminator 2
 501 00fe 636F     		ldr	r3, [r4, #116]
 502              		.loc 1 1033 0 is_stmt 1 discriminator 2
 503 0100 002B     		cmp	r3, #0
 504 0102 B3D1     		bne	.L136
 505              	.LVL37:
 506              	.L63:
 507              		.loc 1 1064 0
 508 0104 E36B     		ldr	r3, [r4, #60]
 509 0106 33B1     		cbz	r3, .L33
 510              		.loc 1 1064 0 is_stmt 0 discriminator 1
 511 0108 216C     		ldr	r1, [r4, #64]
 512 010a D9F80020 		ldr	r2, [r9, #0]
ARM GAS  /var/folders/5n/p_75w94d66l9ssrldxqdhh700000gn/T//ccYNR3t7.s 			page 10


 513 010e 8A1A     		subs	r2, r1, r2
 514 0110 002A     		cmp	r2, #0
 515 0112 C0F2E980 		blt	.L173
 516              	.L33:
 517              		.loc 1 1091 0 is_stmt 1
 518 0116 BBF80010 		ldrh	r1, [fp, #0]
 519 011a E1B1     		cbz	r1, .L66
 520              		.loc 1 1122 0
 521 011c 3B68     		ldr	r3, [r7, #0]
 522 011e 626A     		ldr	r2, [r4, #36]
 523 0120 D843     		mvns	r0, r3
 524 0122 D042     		cmn	r0, r2
 525 0124 05D4     		bmi	.L67
 526              		.loc 1 1122 0 is_stmt 0 discriminator 1
 527 0126 501C     		adds	r0, r2, #1
 528 0128 C01A     		subs	r0, r0, r3
 529 012a 411A     		subs	r1, r0, r1
 530 012c 0029     		cmp	r1, #0
 531 012e 40F30D82 		ble	.L174
 532              	.L67:
 533              		.loc 1 1173 0 is_stmt 1
 534 0132 991A     		subs	r1, r3, r2
 535 0134 0029     		cmp	r1, #0
 536 0136 C0F2EC81 		blt	.L175
 537              	.L75:
 538              		.loc 1 1185 0 discriminator 1
 539 013a 218D     		ldrh	r1, [r4, #40]
 540 013c C1F10101 		rsb	r1, r1, #1
 541 0140 C918     		adds	r1, r1, r3
 542 0142 891A     		subs	r1, r1, r2
 543 0144 0029     		cmp	r1, #0
 544 0146 40F30381 		ble	.L176
 545              	.L76:
 546              		.loc 1 1468 0
 547 014a 2046     		mov	r0, r4
 548              		.loc 1 1479 0
 549 014c 05B0     		add	sp, sp, #20
 550 014e BDE8F04F 		pop	{r4, r5, r6, r7, r8, r9, sl, fp, lr}
 551              		.loc 1 1468 0
 552 0152 FFF7FEBF 		b	tcp_send_empty_ack
 553              	.L66:
 554              		.loc 1 1475 0
 555 0156 3A68     		ldr	r2, [r7, #0]
 556 0158 636A     		ldr	r3, [r4, #36]
 557 015a D11A     		subs	r1, r2, r3
 558 015c 0029     		cmp	r1, #0
 559 015e 05DB     		blt	.L117
 560              		.loc 1 1475 0 is_stmt 0 discriminator 1
 561 0160 0132     		adds	r2, r2, #1
 562 0162 218D     		ldrh	r1, [r4, #40]
 563 0164 D31A     		subs	r3, r2, r3
 564 0166 5B1A     		subs	r3, r3, r1
 565 0168 002B     		cmp	r3, #0
 566 016a 05DD     		ble	.L32
 567              	.L117:
 568              		.loc 1 1476 0 is_stmt 1
 569 016c 94F82030 		ldrb	r3, [r4, #32]	@ zero_extendqisi2
ARM GAS  /var/folders/5n/p_75w94d66l9ssrldxqdhh700000gn/T//ccYNR3t7.s 			page 11


 570 0170 43F00203 		orr	r3, r3, #2
 571 0174 84F82030 		strb	r3, [r4, #32]
 572              	.LVL38:
 573              	.L32:
 574              		.loc 1 1479 0
 575 0178 05B0     		add	sp, sp, #20
 576 017a BDE8F08F 		pop	{r4, r5, r6, r7, r8, r9, sl, fp, pc}
 577              	.LVL39:
 578              	.L172:
 579              		.loc 1 1045 0 discriminator 1
 580 017e EB68     		ldr	r3, [r5, #12]
 581 0180 1A7B     		ldrb	r2, [r3, #12]	@ zero_extendqisi2
 582 0182 587B     		ldrb	r0, [r3, #13]	@ zero_extendqisi2
 583 0184 42EA0020 		orr	r0, r2, r0, lsl #8
 584 0188 FFF7FEFF 		bl	lwip_ntohs
 585 018c C607     		lsls	r6, r0, #31
 586 018e A5D5     		bpl	.L59
 587              		.loc 1 1046 0
 588 0190 B4F86C30 		ldrh	r3, [r4, #108]
 589 0194 013B     		subs	r3, r3, #1
 590 0196 A4F86C30 		strh	r3, [r4, #108]	@ movhi
 591 019a 9FE7     		b	.L59
 592              	.L171:
 593              		.loc 1 1043 0 discriminator 1
 594 019c FFF7FEFF 		bl	port_halt
 595 01a0 98E7     		b	.L58
 596              	.L62:
 597              		.loc 1 1052 0 discriminator 1
 598 01a2 636F     		ldr	r3, [r4, #116]
 599 01a4 002B     		cmp	r3, #0
 600 01a6 7FF461AF 		bne	.L136
 601              		.loc 1 1052 0 is_stmt 0 discriminator 2
 602 01aa FFF7FEFF 		bl	port_halt
 603 01ae A6E7     		b	.L158
 604              	.LVL40:
 605              	.L167:
 606              		.loc 1 861 0 is_stmt 1
 607 01b0 0D4B     		ldr	r3, .L196+8
 608 01b2 1E68     		ldr	r6, [r3, #0]
 609 01b4 D9F80030 		ldr	r3, [r9, #0]
 610 01b8 B07B     		ldrb	r0, [r6, #14]	@ zero_extendqisi2
 611 01ba F67B     		ldrb	r6, [r6, #15]	@ zero_extendqisi2
 612 01bc 40EA0620 		orr	r0, r0, r6, lsl #8
 613              	.L35:
 614              		.loc 1 864 0
 615 01c0 A4F85C00 		strh	r0, [r4, #92]	@ movhi
 616              		.loc 1 865 0
 617 01c4 2266     		str	r2, [r4, #96]
 618              		.loc 1 866 0
 619 01c6 6366     		str	r3, [r4, #100]
 620              		.loc 1 867 0
 621 01c8 0028     		cmp	r0, #0
 622 01ca 3FF438AF 		beq	.L38
 623              		.loc 1 867 0 is_stmt 0 discriminator 1
 624 01ce 94F8A020 		ldrb	r2, [r4, #160]	@ zero_extendqisi2
 625 01d2 002A     		cmp	r2, #0
 626 01d4 3FF433AF 		beq	.L38
ARM GAS  /var/folders/5n/p_75w94d66l9ssrldxqdhh700000gn/T//ccYNR3t7.s 			page 12


 627              		.loc 1 868 0 is_stmt 1
 628 01d8 0022     		movs	r2, #0
 629 01da 84F8A020 		strb	r2, [r4, #160]
 630 01de 2EE7     		b	.L38
 631              	.L197:
 632              		.align	2
 633              	.L196:
 634 01e0 00000000 		.word	.LANCHOR2
 635 01e4 00000000 		.word	.LANCHOR1
 636 01e8 00000000 		.word	.LANCHOR0
 637 01ec 00000000 		.word	.LANCHOR4
 638 01f0 00000000 		.word	.LANCHOR3
 639              	.L170:
 640              		.loc 1 941 0
 641 01f4 94F82020 		ldrb	r2, [r4, #32]	@ zero_extendqisi2
 642              		.loc 1 950 0
 643 01f8 B4F94460 		ldrsh	r6, [r4, #68]
 644 01fc B4F84650 		ldrh	r5, [r4, #70]
 645              	.LVL41:
 646              		.loc 1 959 0
 647 0200 E364     		str	r3, [r4, #76]
 648              		.loc 1 941 0
 649 0202 5107     		lsls	r1, r2, #29
 650              		.loc 1 943 0
 651 0204 41BF     		itttt	mi
 652 0206 B4F85410 		ldrhmi	r1, [r4, #84]
 653              		.loc 1 942 0
 654 020a 22F00402 		bicmi	r2, r2, #4
 655 020e 84F82020 		strbmi	r2, [r4, #32]
 656              		.loc 1 943 0
 657 0212 A4F85210 		strhmi	r1, [r4, #82]	@ movhi
 658              		.loc 1 963 0
 659 0216 227C     		ldrb	r2, [r4, #16]	@ zero_extendqisi2
 660              		.loc 1 955 0
 661 0218 B4F86E10 		ldrh	r1, [r4, #110]
 662              		.loc 1 953 0
 663 021c 80B2     		uxth	r0, r0
 664              		.loc 1 947 0
 665 021e 0023     		movs	r3, #0
 666              		.loc 1 950 0
 667 0220 05EBE605 		add	r5, r5, r6, asr #3
 668              		.loc 1 955 0
 669 0224 4118     		adds	r1, r0, r1
 670              		.loc 1 963 0
 671 0226 032A     		cmp	r2, #3
 672              		.loc 1 947 0
 673 0228 84F84A30 		strb	r3, [r4, #74]
 674              		.loc 1 950 0
 675 022c A4F84850 		strh	r5, [r4, #72]	@ movhi
 676              		.loc 1 953 0
 677 0230 A4F86C00 		strh	r0, [r4, #108]	@ movhi
 678              		.loc 1 955 0
 679 0234 A4F86E10 		strh	r1, [r4, #110]	@ movhi
 680              		.loc 1 958 0
 681 0238 84F85030 		strb	r3, [r4, #80]
 682              		.loc 1 963 0
 683 023c 00F2DA81 		bhi	.L177
ARM GAS  /var/folders/5n/p_75w94d66l9ssrldxqdhh700000gn/T//ccYNR3t7.s 			page 13


 684              	.L156:
 685              		.loc 1 1009 0 discriminator 2
 686 0240 A36F     		ldr	r3, [r4, #120]
 687              		.loc 1 986 0 discriminator 2
 688 0242 002B     		cmp	r3, #0
 689 0244 00F09583 		beq	.L157
 690              	.L137:
 691              		.loc 1 987 0 discriminator 2
 692 0248 DB68     		ldr	r3, [r3, #12]
 693 024a 1979     		ldrb	r1, [r3, #4]	@ zero_extendqisi2
 694 024c 5D79     		ldrb	r5, [r3, #5]	@ zero_extendqisi2
 695 024e 9A79     		ldrb	r2, [r3, #6]	@ zero_extendqisi2
 696 0250 D879     		ldrb	r0, [r3, #7]	@ zero_extendqisi2
 697 0252 41EA0523 		orr	r3, r1, r5, lsl #8
 698 0256 43EA0243 		orr	r3, r3, r2, lsl #16
 699 025a 43EA0060 		orr	r0, r3, r0, lsl #24
 700 025e FFF7FEFF 		bl	lwip_ntohl
 701 0262 A26F     		ldr	r2, [r4, #120]
 702 0264 D368     		ldr	r3, [r2, #12]
 703 0266 1589     		ldrh	r5, [r2, #8]
 704 0268 1A7B     		ldrb	r2, [r3, #12]	@ zero_extendqisi2
 705 026a 0646     		mov	r6, r0
 706 026c 587B     		ldrb	r0, [r3, #13]	@ zero_extendqisi2
 707 026e 42EA0020 		orr	r0, r2, r0, lsl #8
 708 0272 FFF7FEFF 		bl	lwip_ntohs
 709 0276 D9F80030 		ldr	r3, [r9, #0]
 710 027a 10F00300 		ands	r0, r0, #3
 711 027e 18BF     		it	ne
 712 0280 0120     		movne	r0, #1
 713 0282 F31A     		subs	r3, r6, r3
 714 0284 2D18     		adds	r5, r5, r0
 715 0286 5B19     		adds	r3, r3, r5
 716              		.loc 1 986 0 discriminator 2
 717 0288 002B     		cmp	r3, #0
 718 028a 00F37483 		bgt	.L178
 719              		.loc 1 994 0
 720 028e A56F     		ldr	r5, [r4, #120]
 721              	.LVL42:
 722              		.loc 1 998 0
 723 0290 B4F87060 		ldrh	r6, [r4, #112]
 724              		.loc 1 995 0
 725 0294 2B68     		ldr	r3, [r5, #0]
 726              		.loc 1 998 0
 727 0296 6868     		ldr	r0, [r5, #4]
 728              		.loc 1 995 0
 729 0298 A367     		str	r3, [r4, #120]
 730              		.loc 1 998 0
 731 029a FFF7FEFF 		bl	pbuf_clen
 732              	.LVL43:
 733 029e 8642     		cmp	r6, r0
 734 02a0 53D3     		bcc	.L179
 735              	.L49:
 736              		.loc 1 1000 0
 737 02a2 B4F86C30 		ldrh	r3, [r4, #108]
 738 02a6 002B     		cmp	r3, #0
 739 02a8 40D1     		bne	.L180
 740              	.L50:
ARM GAS  /var/folders/5n/p_75w94d66l9ssrldxqdhh700000gn/T//ccYNR3t7.s 			page 14


 741              		.loc 1 1004 0
 742 02aa 6868     		ldr	r0, [r5, #4]
 743 02ac B4F87060 		ldrh	r6, [r4, #112]
 744 02b0 FFF7FEFF 		bl	pbuf_clen
 745 02b4 301A     		subs	r0, r6, r0
 746 02b6 A4F87000 		strh	r0, [r4, #112]	@ movhi
 747              		.loc 1 1005 0
 748 02ba 2846     		mov	r0, r5
 749 02bc FFF7FEFF 		bl	tcp_seg_free
 750              		.loc 1 1008 0
 751 02c0 B4F87030 		ldrh	r3, [r4, #112]
 752 02c4 002B     		cmp	r3, #0
 753 02c6 BBD0     		beq	.L156
 754              		.loc 1 1009 0
 755 02c8 A36F     		ldr	r3, [r4, #120]
 756 02ca 002B     		cmp	r3, #0
 757 02cc BCD1     		bne	.L137
 758              		.loc 1 1009 0 is_stmt 0 discriminator 1
 759 02ce 636F     		ldr	r3, [r4, #116]
 760 02d0 002B     		cmp	r3, #0
 761 02d2 00F02A84 		beq	.L181
 762              	.LVL44:
 763              	.L53:
 764              		.loc 1 1017 0 is_stmt 1
 765 02d6 4FF6FF72 		movw	r2, #65535
 766 02da E286     		strh	r2, [r4, #54]	@ movhi
 767              	.L56:
 768              		.loc 1 1021 0
 769 02dc 0022     		movs	r2, #0
 770 02de 84F83420 		strb	r2, [r4, #52]
 771 02e2 DFF864B2 		ldr	fp, .L198+16
 772 02e6 BDE6     		b	.L57
 773              	.LVL45:
 774              	.L173:
 775              		.loc 1 1067 0
 776 02e8 934A     		ldr	r2, .L198
 777              		.loc 1 1073 0
 778 02ea B4F84410 		ldrh	r1, [r4, #68]
 779              		.loc 1 1067 0
 780 02ee 1068     		ldr	r0, [r2, #0]
 781              		.loc 1 1073 0
 782 02f0 41F3CC02 		sbfx	r2, r1, #3, #13
 783              		.loc 1 1067 0
 784 02f4 C31A     		subs	r3, r0, r3
 785              	.LVL46:
 786              		.loc 1 1073 0
 787 02f6 9A1A     		subs	r2, r3, r2
 788 02f8 92B2     		uxth	r2, r2
 789              		.loc 1 1074 0
 790 02fa 5118     		adds	r1, r2, r1
 791              		.loc 1 1073 0
 792 02fc 93B2     		uxth	r3, r2
 793              	.LVL47:
 794              		.loc 1 1074 0
 795 02fe 89B2     		uxth	r1, r1
 796              		.loc 1 1075 0
 797 0300 1804     		lsls	r0, r3, #16
ARM GAS  /var/folders/5n/p_75w94d66l9ssrldxqdhh700000gn/T//ccYNR3t7.s 			page 15


 798              		.loc 1 1074 0
 799 0302 A4F84410 		strh	r1, [r4, #68]	@ movhi
 800              		.loc 1 1075 0
 801 0306 00F1A381 		bmi	.L182
 802              	.LVL48:
 803              	.L65:
 804              		.loc 1 1078 0
 805 030a B4F84620 		ldrh	r2, [r4, #70]
 806              	.LVL49:
 807 030e 42F38D00 		sbfx	r0, r2, #2, #14
 808 0312 121A     		subs	r2, r2, r0
 809              	.LVL50:
 810              		.loc 1 1079 0
 811 0314 D318     		adds	r3, r2, r3
 812 0316 9BB2     		uxth	r3, r3
 813              		.loc 1 1080 0
 814 0318 41F3CC02 		sbfx	r2, r1, #3, #13
 815 031c 9A18     		adds	r2, r3, r2
 816              		.loc 1 1079 0
 817 031e A4F84630 		strh	r3, [r4, #70]	@ movhi
 818              		.loc 1 1085 0
 819 0322 0023     		movs	r3, #0
 820              		.loc 1 1080 0
 821 0324 A4F84820 		strh	r2, [r4, #72]	@ movhi
 822              		.loc 1 1085 0
 823 0328 E363     		str	r3, [r4, #60]
 824 032a F4E6     		b	.L33
 825              	.LVL51:
 826              	.L180:
 827              		.loc 1 1000 0 discriminator 1
 828 032c EB68     		ldr	r3, [r5, #12]
 829 032e 1A7B     		ldrb	r2, [r3, #12]	@ zero_extendqisi2
 830 0330 587B     		ldrb	r0, [r3, #13]	@ zero_extendqisi2
 831 0332 42EA0020 		orr	r0, r2, r0, lsl #8
 832 0336 FFF7FEFF 		bl	lwip_ntohs
 833 033a C307     		lsls	r3, r0, #31
 834 033c B5D5     		bpl	.L50
 835              		.loc 1 1001 0
 836 033e B4F86C30 		ldrh	r3, [r4, #108]
 837 0342 013B     		subs	r3, r3, #1
 838 0344 A4F86C30 		strh	r3, [r4, #108]	@ movhi
 839 0348 AFE7     		b	.L50
 840              	.L179:
 841              		.loc 1 998 0 discriminator 1
 842 034a FFF7FEFF 		bl	port_halt
 843 034e A8E7     		b	.L49
 844              	.LVL52:
 845              	.L176:
 846              		.loc 1 1187 0
 847 0350 9342     		cmp	r3, r2
 848 0352 00F08081 		beq	.L183
 849              		.loc 1 1341 0
 850 0356 2046     		mov	r0, r4
 851 0358 FFF7FEFF 		bl	tcp_send_empty_ack
 852              		.loc 1 1344 0
 853 035c E56F     		ldr	r5, [r4, #124]
 854 035e 002D     		cmp	r5, #0
ARM GAS  /var/folders/5n/p_75w94d66l9ssrldxqdhh700000gn/T//ccYNR3t7.s 			page 16


 855 0360 00F0DD83 		beq	.L106
 856              	.LVL53:
 857              		.loc 1 1361 0 discriminator 1
 858 0364 EB68     		ldr	r3, [r5, #12]
 859 0366 3968     		ldr	r1, [r7, #0]
 860 0368 1A79     		ldrb	r2, [r3, #4]	@ zero_extendqisi2
 861 036a 93F805C0 		ldrb	ip, [r3, #5]	@ zero_extendqisi2
 862 036e 9E79     		ldrb	r6, [r3, #6]	@ zero_extendqisi2
 863 0370 D879     		ldrb	r0, [r3, #7]	@ zero_extendqisi2
 864 0372 42EA0C22 		orr	r2, r2, ip, lsl #8
 865 0376 42EA0642 		orr	r2, r2, r6, lsl #16
 866 037a 42EA0060 		orr	r0, r2, r0, lsl #24
 867 037e 8842     		cmp	r0, r1
 868 0380 00F0DE82 		beq	.L123
 869 0384 CDF80CB0 		str	fp, [sp, #12]
 870              		.loc 1 1361 0 is_stmt 0
 871 0388 0026     		movs	r6, #0
 872              		.loc 1 1403 0 is_stmt 1
 873 038a 01F1010A 		add	sl, r1, #1
 874 038e BB46     		mov	fp, r7
 875 0390 27E0     		b	.L108
 876              	.LVL54:
 877              	.L111:
 878 0392 F268     		ldr	r2, [r6, #12]
 879 0394 92F804C0 		ldrb	ip, [r2, #4]	@ zero_extendqisi2
 880 0398 92F80580 		ldrb	r8, [r2, #5]	@ zero_extendqisi2
 881 039c 9779     		ldrb	r7, [r2, #6]	@ zero_extendqisi2
 882 039e D279     		ldrb	r2, [r2, #7]	@ zero_extendqisi2
 883 03a0 4CEA082C 		orr	ip, ip, r8, lsl #8
 884 03a4 4CEA074C 		orr	ip, ip, r7, lsl #16
 885 03a8 4CEA0262 		orr	r2, ip, r2, lsl #24
 886 03ac D243     		mvns	r2, r2
 887 03ae CA42     		cmn	r2, r1
 888 03b0 03D4     		bmi	.L112
 889              		.loc 1 1403 0 is_stmt 0 discriminator 1
 890 03b2 B9F1000F 		cmp	r9, #0
 891 03b6 40F3F382 		ble	.L184
 892              	.L112:
 893              		.loc 1 1425 0 is_stmt 1
 894 03ba 2A68     		ldr	r2, [r5, #0]
 895 03bc 002A     		cmp	r2, #0
 896 03be 24D0     		beq	.L185
 897              	.LVL55:
 898              		.loc 1 1361 0 discriminator 1
 899 03c0 D368     		ldr	r3, [r2, #12]
 900 03c2 1879     		ldrb	r0, [r3, #4]	@ zero_extendqisi2
 901 03c4 93F805C0 		ldrb	ip, [r3, #5]	@ zero_extendqisi2
 902 03c8 9F79     		ldrb	r7, [r3, #6]	@ zero_extendqisi2
 903 03ca DE79     		ldrb	r6, [r3, #7]	@ zero_extendqisi2
 904 03cc 40EA0C20 		orr	r0, r0, ip, lsl #8
 905 03d0 40EA0740 		orr	r0, r0, r7, lsl #16
 906 03d4 40EA0660 		orr	r0, r0, r6, lsl #24
 907 03d8 8142     		cmp	r1, r0
 908 03da 00F0B382 		beq	.L107
 909              		.loc 1 1361 0 is_stmt 0
 910 03de 2E46     		mov	r6, r5
 911 03e0 1546     		mov	r5, r2
ARM GAS  /var/folders/5n/p_75w94d66l9ssrldxqdhh700000gn/T//ccYNR3t7.s 			page 17


 912              	.LVL56:
 913              	.L108:
 914              		.loc 1 1403 0 is_stmt 1
 915 03e2 C0EB0A09 		rsb	r9, r0, sl
 916              		.loc 1 1387 0
 917 03e6 002E     		cmp	r6, #0
 918 03e8 D3D1     		bne	.L111
 919              		.loc 1 1388 0
 920 03ea 0A1A     		subs	r2, r1, r0
 921 03ec 002A     		cmp	r2, #0
 922 03ee E4DA     		bge	.L112
 923              		.loc 1 1393 0
 924 03f0 5248     		ldr	r0, .L198+4
 925 03f2 FFF7FEFF 		bl	tcp_seg_copy
 926              	.LVL57:
 927              		.loc 1 1394 0
 928 03f6 0028     		cmp	r0, #0
 929 03f8 3FF4BEAE 		beq	.L32
 930              		.loc 1 1396 0
 931 03fc 2946     		mov	r1, r5
 932              		.loc 1 1395 0
 933 03fe E067     		str	r0, [r4, #124]
 934              		.loc 1 1479 0
 935 0400 05B0     		add	sp, sp, #20
 936 0402 BDE8F04F 		pop	{r4, r5, r6, r7, r8, r9, sl, fp, lr}
 937              		.loc 1 1396 0
 938 0406 FFF7FEBF 		b	tcp_oos_insert_segment
 939              	.LVL58:
 940              	.L185:
 941              		.loc 1 1426 0 discriminator 1
 942 040a 091A     		subs	r1, r1, r0
 943              		.loc 1 1425 0 discriminator 1
 944 040c 0029     		cmp	r1, #0
 945 040e 5F46     		mov	r7, fp
 946 0410 DDF80CB0 		ldr	fp, [sp, #12]
 947 0414 7FF7B0AE 		ble	.L32
 948              		.loc 1 1427 0
 949 0418 1A7B     		ldrb	r2, [r3, #12]	@ zero_extendqisi2
 950 041a 587B     		ldrb	r0, [r3, #13]	@ zero_extendqisi2
 951 041c 42EA0020 		orr	r0, r2, r0, lsl #8
 952 0420 FFF7FEFF 		bl	lwip_ntohs
 953 0424 C007     		lsls	r0, r0, #31
 954 0426 3FF5A7AE 		bmi	.L32
 955              		.loc 1 1431 0
 956 042a 4448     		ldr	r0, .L198+4
 957 042c FFF7FEFF 		bl	tcp_seg_copy
 958 0430 2860     		str	r0, [r5, #0]
 959              		.loc 1 1432 0
 960 0432 0028     		cmp	r0, #0
 961 0434 3FF4A0AE 		beq	.L32
 962              		.loc 1 1433 0
 963 0438 EA68     		ldr	r2, [r5, #12]
 964 043a 3B68     		ldr	r3, [r7, #0]
 965 043c 92F804C0 		ldrb	ip, [r2, #4]	@ zero_extendqisi2
 966 0440 92F80580 		ldrb	r8, [r2, #5]	@ zero_extendqisi2
 967 0444 9679     		ldrb	r6, [r2, #6]	@ zero_extendqisi2
 968 0446 D079     		ldrb	r0, [r2, #7]	@ zero_extendqisi2
ARM GAS  /var/folders/5n/p_75w94d66l9ssrldxqdhh700000gn/T//ccYNR3t7.s 			page 18


 969 0448 2989     		ldrh	r1, [r5, #8]
 970 044a 4CEA0822 		orr	r2, ip, r8, lsl #8
 971 044e 42EA0642 		orr	r2, r2, r6, lsl #16
 972 0452 42EA0062 		orr	r2, r2, r0, lsl #24
 973 0456 C91A     		subs	r1, r1, r3
 974 0458 8918     		adds	r1, r1, r2
 975 045a 0029     		cmp	r1, #0
 976 045c 07DD     		ble	.L115
 977              		.loc 1 1435 0
 978 045e 9B1A     		subs	r3, r3, r2
 979 0460 99B2     		uxth	r1, r3
 980 0462 2981     		strh	r1, [r5, #8]	@ movhi
 981              		.loc 1 1436 0
 982 0464 6868     		ldr	r0, [r5, #4]
 983 0466 FFF7FEFF 		bl	pbuf_realloc
 984 046a 354B     		ldr	r3, .L198+8
 985 046c 1B68     		ldr	r3, [r3, #0]
 986              	.L115:
 987              		.loc 1 1439 0
 988 046e BBF80000 		ldrh	r0, [fp, #0]
 989 0472 218D     		ldrh	r1, [r4, #40]
 990 0474 626A     		ldr	r2, [r4, #36]
 991 0476 1B18     		adds	r3, r3, r0
 992 0478 8A18     		adds	r2, r1, r2
 993 047a 9342     		cmp	r3, r2
 994 047c 7FF67CAE 		bls	.L32
 995              		.loc 1 1444 0
 996 0480 2B68     		ldr	r3, [r5, #0]
 997 0482 DB68     		ldr	r3, [r3, #12]
 998 0484 1A7B     		ldrb	r2, [r3, #12]	@ zero_extendqisi2
 999 0486 587B     		ldrb	r0, [r3, #13]	@ zero_extendqisi2
 1000 0488 42EA0020 		orr	r0, r2, r0, lsl #8
 1001 048c FFF7FEFF 		bl	lwip_ntohs
 1002 0490 C107     		lsls	r1, r0, #31
 1003 0492 00F16D83 		bmi	.L186
 1004              	.L116:
 1005              		.loc 1 1450 0
 1006 0496 606A     		ldr	r0, [r4, #36]
 1007 0498 218D     		ldrh	r1, [r4, #40]
 1008 049a 3A68     		ldr	r2, [r7, #0]
 1009 049c 2B68     		ldr	r3, [r5, #0]
 1010 049e 4118     		adds	r1, r0, r1
 1011 04a0 891A     		subs	r1, r1, r2
 1012 04a2 89B2     		uxth	r1, r1
 1013 04a4 1981     		strh	r1, [r3, #8]	@ movhi
 1014              		.loc 1 1451 0
 1015 04a6 5868     		ldr	r0, [r3, #4]
 1016 04a8 FFF7FEFF 		bl	pbuf_realloc
 1017              		.loc 1 1452 0
 1018 04ac 2A68     		ldr	r2, [r5, #0]
 1019 04ae D368     		ldr	r3, [r2, #12]
 1020 04b0 1589     		ldrh	r5, [r2, #8]
 1021              	.LVL59:
 1022 04b2 587B     		ldrb	r0, [r3, #13]	@ zero_extendqisi2
 1023 04b4 1A7B     		ldrb	r2, [r3, #12]	@ zero_extendqisi2
 1024 04b6 42EA0020 		orr	r0, r2, r0, lsl #8
 1025 04ba FFF7FEFF 		bl	lwip_ntohs
ARM GAS  /var/folders/5n/p_75w94d66l9ssrldxqdhh700000gn/T//ccYNR3t7.s 			page 19


 1026 04be 10F00300 		ands	r0, r0, #3
 1027 04c2 18BF     		it	ne
 1028 04c4 0120     		movne	r0, #1
 1029 04c6 2B18     		adds	r3, r5, r0
 1030              		.loc 1 1453 0
 1031 04c8 3968     		ldr	r1, [r7, #0]
 1032 04ca 268D     		ldrh	r6, [r4, #40]
 1033 04cc 626A     		ldr	r2, [r4, #36]
 1034              		.loc 1 1452 0
 1035 04ce 9BB2     		uxth	r3, r3
 1036              		.loc 1 1453 0
 1037 04d0 5918     		adds	r1, r3, r1
 1038 04d2 B218     		adds	r2, r6, r2
 1039 04d4 9142     		cmp	r1, r2
 1040              		.loc 1 1452 0
 1041 04d6 ABF80030 		strh	r3, [fp, #0]	@ movhi
 1042              		.loc 1 1453 0
 1043 04da 3FF44DAE 		beq	.L32
 1044              		.loc 1 1479 0 discriminator 1
 1045 04de 05B0     		add	sp, sp, #20
 1046 04e0 BDE8F04F 		pop	{r4, r5, r6, r7, r8, r9, sl, fp, lr}
 1047              		.loc 1 1453 0 discriminator 1
 1048 04e4 FFF7FEBF 		b	port_halt
 1049              	.LVL60:
 1050              	.L169:
 1051              		.loc 1 906 0
 1052 04e8 DFF85CB0 		ldr	fp, .L198+16
 1053 04ec BBF80000 		ldrh	r0, [fp, #0]
 1054              		.loc 1 904 0
 1055 04f0 0026     		movs	r6, #0
 1056 04f2 A4F86C60 		strh	r6, [r4, #108]	@ movhi
 1057              		.loc 1 906 0
 1058 04f6 38B9     		cbnz	r0, .L40
 1059              		.loc 1 908 0
 1060 04f8 B4F85C60 		ldrh	r6, [r4, #92]
 1061 04fc 606E     		ldr	r0, [r4, #100]
 1062              		.loc 1 858 0
 1063 04fe 6918     		adds	r1, r5, r1
 1064              	.LVL61:
 1065              		.loc 1 908 0
 1066 0500 3018     		adds	r0, r6, r0
 1067 0502 8842     		cmp	r0, r1
 1068 0504 00F08780 		beq	.L187
 1069              	.L40:
 1070              		.loc 1 933 0
 1071 0508 0022     		movs	r2, #0
 1072 050a 636F     		ldr	r3, [r4, #116]
 1073 050c 84F85020 		strb	r2, [r4, #80]
 1074 0510 A8E5     		b	.L57
 1075              	.LVL62:
 1076              	.L175:
 1077              		.loc 1 1178 0
 1078 0512 94F82030 		ldrb	r3, [r4, #32]	@ zero_extendqisi2
 1079 0516 43F00203 		orr	r3, r3, #2
 1080 051a 84F82030 		strb	r3, [r4, #32]
 1081 051e 14E6     		b	.L76
 1082              	.LVL63:
ARM GAS  /var/folders/5n/p_75w94d66l9ssrldxqdhh700000gn/T//ccYNR3t7.s 			page 20


 1083              	.L36:
 1084              		.loc 1 862 0
 1085 0520 C81A     		subs	r0, r1, r3
 1086 0522 0028     		cmp	r0, #0
 1087 0524 BFF688AD 		bge	.L37
 1088 0528 0648     		ldr	r0, .L198+12
 1089 052a 0668     		ldr	r6, [r0, #0]
 1090 052c B07B     		ldrb	r0, [r6, #14]	@ zero_extendqisi2
 1091 052e F67B     		ldrb	r6, [r6, #15]	@ zero_extendqisi2
 1092 0530 40EA0620 		orr	r0, r0, r6, lsl #8
 1093 0534 44E6     		b	.L35
 1094              	.L199:
 1095 0536 00BF     		.align	2
 1096              	.L198:
 1097 0538 00000000 		.word	tcp_ticks
 1098 053c 00000000 		.word	.LANCHOR5
 1099 0540 00000000 		.word	.LANCHOR1
 1100 0544 00000000 		.word	.LANCHOR0
 1101 0548 00000000 		.word	.LANCHOR4
 1102              	.LVL64:
 1103              	.L174:
 1104              		.loc 1 1144 0
 1105 054c B54D     		ldr	r5, .L200
 1106 054e 6E68     		ldr	r6, [r5, #4]
 1107              		.loc 1 1143 0
 1108 0550 C3EB0208 		rsb	r8, r3, r2
 1109              	.LVL65:
 1110              		.loc 1 1145 0
 1111 0554 002E     		cmp	r6, #0
 1112 0556 00F0DF82 		beq	.L188
 1113              	.LVL66:
 1114              	.L68:
 1115              		.loc 1 1146 0
 1116 055a 47F6FE73 		movw	r3, #32766
 1117 055e 9845     		cmp	r8, r3
 1118 0560 00F31B82 		bgt	.L189
 1119              	.L69:
 1120              		.loc 1 1147 0
 1121 0564 6868     		ldr	r0, [r5, #4]
 1122 0566 4389     		ldrh	r3, [r0, #10]
 1123 0568 9845     		cmp	r8, r3
 1124 056a 40F30B82 		ble	.L70
 1125              		.loc 1 1148 0
 1126 056e 0289     		ldrh	r2, [r0, #8]
 1127 0570 9045     		cmp	r8, r2
 1128 0572 00F33F82 		bgt	.L190
 1129              	.L71:
 1130              		.loc 1 1150 0
 1131 0576 7389     		ldrh	r3, [r6, #10]
 1132              		.loc 1 1149 0
 1133 0578 1FFA88F1 		uxth	r1, r8
 1134 057c 521A     		subs	r2, r2, r1
 1135              		.loc 1 1150 0
 1136 057e 9845     		cmp	r8, r3
 1137              		.loc 1 1149 0
 1138 0580 92B2     		uxth	r2, r2
 1139              	.LVL67:
ARM GAS  /var/folders/5n/p_75w94d66l9ssrldxqdhh700000gn/T//ccYNR3t7.s 			page 21


 1140              		.loc 1 1150 0
 1141 0582 0ADD     		ble	.L72
 1142              		.loc 1 1156 0
 1143 0584 0021     		movs	r1, #0
 1144              	.L135:
 1145 0586 7181     		strh	r1, [r6, #10]	@ movhi
 1146              		.loc 1 1155 0
 1147 0588 3281     		strh	r2, [r6, #8]	@ movhi
 1148              		.loc 1 1157 0
 1149 058a 3668     		ldr	r6, [r6, #0]
 1150              	.LVL68:
 1151              		.loc 1 1151 0
 1152 058c C3EB0808 		rsb	r8, r3, r8
 1153              	.LVL69:
 1154              		.loc 1 1150 0
 1155 0590 7389     		ldrh	r3, [r6, #10]
 1156 0592 4345     		cmp	r3, r8
 1157 0594 F7DB     		blt	.L135
 1158 0596 1FFA88F1 		uxth	r1, r8
 1159              	.L72:
 1160              		.loc 1 1159 0
 1161 059a 4942     		negs	r1, r1
 1162 059c 3046     		mov	r0, r6
 1163 059e 09B2     		sxth	r1, r1
 1164 05a0 FFF7FEFF 		bl	pbuf_header
 1165              	.LVL70:
 1166 05a4 0028     		cmp	r0, #0
 1167 05a6 40F0F581 		bne	.L159
 1168              	.L74:
 1169              		.loc 1 1169 0
 1170 05aa 3868     		ldr	r0, [r7, #0]
 1171 05ac 2989     		ldrh	r1, [r5, #8]
 1172 05ae 636A     		ldr	r3, [r4, #36]
 1173              		.loc 1 1170 0
 1174 05b0 EA68     		ldr	r2, [r5, #12]
 1175 05b2 3B60     		str	r3, [r7, #0]
 1176              		.loc 1 1169 0
 1177 05b4 00EB010C 		add	ip, r0, r1
 1178 05b8 C3EB0C0C 		rsb	ip, r3, ip
 1179              		.loc 1 1170 0
 1180 05bc 190E     		lsrs	r1, r3, #24
 1181 05be C3F30726 		ubfx	r6, r3, #8, #8
 1182              	.LVL71:
 1183 05c2 C3F30740 		ubfx	r0, r3, #16, #8
 1184              		.loc 1 1169 0
 1185 05c6 A5F808C0 		strh	ip, [r5, #8]	@ movhi
 1186              		.loc 1 1170 0
 1187 05ca D171     		strb	r1, [r2, #7]
 1188 05cc 1371     		strb	r3, [r2, #4]
 1189 05ce 5671     		strb	r6, [r2, #5]
 1190 05d0 9071     		strb	r0, [r2, #6]
 1191 05d2 626A     		ldr	r2, [r4, #36]
 1192              		.loc 1 1185 0
 1193 05d4 991A     		subs	r1, r3, r2
 1194 05d6 0029     		cmp	r1, #0
 1195 05d8 BFF6AFAD 		bge	.L75
 1196 05dc B5E5     		b	.L76
ARM GAS  /var/folders/5n/p_75w94d66l9ssrldxqdhh700000gn/T//ccYNR3t7.s 			page 22


 1197              	.LVL72:
 1198              	.L168:
 1199              		.loc 1 863 0
 1200 05de 924B     		ldr	r3, .L200+4
 1201 05e0 1B68     		ldr	r3, [r3, #0]
 1202 05e2 987B     		ldrb	r0, [r3, #14]	@ zero_extendqisi2
 1203 05e4 DB7B     		ldrb	r3, [r3, #15]	@ zero_extendqisi2
 1204 05e6 40EA0320 		orr	r0, r0, r3, lsl #8
 1205 05ea 8542     		cmp	r5, r0
 1206 05ec 0B46     		mov	r3, r1
 1207 05ee BFF426AD 		bcs	.L38
 1208 05f2 E5E5     		b	.L35
 1209              	.LVL73:
 1210              	.L177:
 1211              		.loc 1 964 0
 1212 05f4 B4F85230 		ldrh	r3, [r4, #82]
 1213 05f8 B4F85420 		ldrh	r2, [r4, #84]
 1214 05fc 9A42     		cmp	r2, r3
 1215              		.loc 1 965 0
 1216 05fe 228F     		ldrh	r2, [r4, #56]
 1217              	.LBB2:
 1218              		.loc 1 970 0
 1219 0600 9CBF     		itt	ls
 1220 0602 5243     		mulls	r2, r2, r2
 1221 0604 92FBF3F2 		sdivls	r2, r2, r3
 1222 0608 9A18     		adds	r2, r3, r2
 1223 060a 92B2     		uxth	r2, r2
 1224              	.LVL74:
 1225              		.loc 1 971 0
 1226 060c 9342     		cmp	r3, r2
 1227              		.loc 1 972 0
 1228 060e 38BF     		it	cc
 1229 0610 A4F85220 		strhcc	r2, [r4, #82]	@ movhi
 1230 0614 14E6     		b	.L156
 1231              	.LVL75:
 1232              	.L187:
 1233              	.LBE2:
 1234              		.loc 1 910 0
 1235 0616 B4F93610 		ldrsh	r1, [r4, #54]
 1236 061a 0029     		cmp	r1, #0
 1237 061c FFF674AF 		blt	.L40
 1238              		.loc 1 912 0
 1239 0620 9A42     		cmp	r2, r3
 1240 0622 7FF471AF 		bne	.L40
 1241              	.LVL76:
 1242              		.loc 1 915 0
 1243 0626 94F85030 		ldrb	r3, [r4, #80]	@ zero_extendqisi2
 1244 062a 0133     		adds	r3, r3, #1
 1245 062c DBB2     		uxtb	r3, r3
 1246              		.loc 1 916 0
 1247 062e 032B     		cmp	r3, #3
 1248              		.loc 1 915 0
 1249 0630 84F85030 		strb	r3, [r4, #80]
 1250              		.loc 1 916 0
 1251 0634 40F29382 		bls	.L41
 1252              		.loc 1 919 0
 1253 0638 B4F85220 		ldrh	r2, [r4, #82]
ARM GAS  /var/folders/5n/p_75w94d66l9ssrldxqdhh700000gn/T//ccYNR3t7.s 			page 23


 1254 063c 238F     		ldrh	r3, [r4, #56]
 1255 063e D318     		adds	r3, r2, r3
 1256 0640 9BB2     		uxth	r3, r3
 1257 0642 9A42     		cmp	r2, r3
 1258 0644 80F08F82 		bcs	.L154
 1259              		.loc 1 920 0
 1260 0648 A4F85230 		strh	r3, [r4, #82]	@ movhi
 1261 064c 636F     		ldr	r3, [r4, #116]
 1262 064e 09E5     		b	.L57
 1263              	.LVL77:
 1264              	.L182:
 1265              		.loc 1 1076 0
 1266 0650 5342     		negs	r3, r2
 1267              	.LVL78:
 1268 0652 9BB2     		uxth	r3, r3
 1269              	.LVL79:
 1270 0654 59E6     		b	.L65
 1271              	.LVL80:
 1272              	.L183:
 1273              		.loc 1 1191 0
 1274 0656 734D     		ldr	r5, .L200
 1275 0658 EB68     		ldr	r3, [r5, #12]
 1276 065a 2E89     		ldrh	r6, [r5, #8]
 1277 065c 1A7B     		ldrb	r2, [r3, #12]	@ zero_extendqisi2
 1278 065e 587B     		ldrb	r0, [r3, #13]	@ zero_extendqisi2
 1279 0660 42EA0020 		orr	r0, r2, r0, lsl #8
 1280 0664 FFF7FEFF 		bl	lwip_ntohs
 1281 0668 10F00300 		ands	r0, r0, #3
 1282 066c 18BF     		it	ne
 1283 066e 0120     		movne	r0, #1
 1284 0670 3318     		adds	r3, r6, r0
 1285              		.loc 1 1193 0
 1286 0672 228D     		ldrh	r2, [r4, #40]
 1287              		.loc 1 1191 0
 1288 0674 9BB2     		uxth	r3, r3
 1289              		.loc 1 1193 0
 1290 0676 9A42     		cmp	r2, r3
 1291              		.loc 1 1191 0
 1292 0678 ABF80030 		strh	r3, [fp, #0]	@ movhi
 1293              		.loc 1 1193 0
 1294 067c C0F0C081 		bcc	.L191
 1295              	.L78:
 1296              		.loc 1 1217 0
 1297 0680 E36F     		ldr	r3, [r4, #124]
 1298 0682 002B     		cmp	r3, #0
 1299 0684 00F08C80 		beq	.L162
 1300              		.loc 1 1218 0
 1301 0688 EB68     		ldr	r3, [r5, #12]
 1302 068a 1A7B     		ldrb	r2, [r3, #12]	@ zero_extendqisi2
 1303 068c 587B     		ldrb	r0, [r3, #13]	@ zero_extendqisi2
 1304 068e 42EA0020 		orr	r0, r2, r0, lsl #8
 1305 0692 FFF7FEFF 		bl	lwip_ntohs
 1306 0696 C007     		lsls	r0, r0, #31
 1307 0698 7FD4     		bmi	.L166
 1308              		.loc 1 1231 0
 1309 069a D4F87C80 		ldr	r8, [r4, #124]
 1310              	.LVL81:
ARM GAS  /var/folders/5n/p_75w94d66l9ssrldxqdhh700000gn/T//ccYNR3t7.s 			page 24


 1311              		.loc 1 1234 0
 1312 069e B8F1000F 		cmp	r8, #0
 1313 06a2 00F03382 		beq	.L87
 1314              		.loc 1 1235 0
 1315 06a6 D8F80C30 		ldr	r3, [r8, #12]
 1316 06aa BBF80020 		ldrh	r2, [fp, #0]
 1317 06ae 93F80590 		ldrb	r9, [r3, #5]	@ zero_extendqisi2
 1318 06b2 1879     		ldrb	r0, [r3, #4]	@ zero_extendqisi2
 1319 06b4 93F806C0 		ldrb	ip, [r3, #6]	@ zero_extendqisi2
 1320 06b8 93F807E0 		ldrb	lr, [r3, #7]	@ zero_extendqisi2
 1321 06bc 3968     		ldr	r1, [r7, #0]
 1322 06be B8F80860 		ldrh	r6, [r8, #8]
 1323 06c2 40EA0920 		orr	r0, r0, r9, lsl #8
 1324 06c6 40EA0C40 		orr	r0, r0, ip, lsl #16
 1325 06ca 40EA0E6E 		orr	lr, r0, lr, lsl #24
 1326 06ce CEEB0200 		rsb	r0, lr, r2
 1327 06d2 4018     		adds	r0, r0, r1
 1328 06d4 861B     		subs	r6, r0, r6
 1329              		.loc 1 1234 0
 1330 06d6 002E     		cmp	r6, #0
 1331              		.loc 1 1239 0
 1332 06d8 A8BF     		it	ge
 1333 06da DFF84891 		ldrge	r9, .L200
 1334              		.loc 1 1234 0
 1335 06de 25DA     		bge	.L149
 1336 06e0 CDE1     		b	.L195
 1337              	.LVL82:
 1338              	.L89:
 1339              		.loc 1 1244 0
 1340 06e2 D8F80060 		ldr	r6, [r8, #0]
 1341              	.LVL83:
 1342              		.loc 1 1245 0
 1343 06e6 4046     		mov	r0, r8
 1344 06e8 FFF7FEFF 		bl	tcp_seg_free
 1345              	.LVL84:
 1346              		.loc 1 1234 0
 1347 06ec 002E     		cmp	r6, #0
 1348 06ee 00F00D82 		beq	.L87
 1349              		.loc 1 1235 0 discriminator 2
 1350 06f2 F368     		ldr	r3, [r6, #12]
 1351 06f4 BBF80020 		ldrh	r2, [fp, #0]
 1352 06f8 1879     		ldrb	r0, [r3, #4]	@ zero_extendqisi2
 1353 06fa 93F805A0 		ldrb	sl, [r3, #5]	@ zero_extendqisi2
 1354 06fe 93F80680 		ldrb	r8, [r3, #6]	@ zero_extendqisi2
 1355              	.LVL85:
 1356 0702 93F807E0 		ldrb	lr, [r3, #7]	@ zero_extendqisi2
 1357 0706 3968     		ldr	r1, [r7, #0]
 1358 0708 B6F808C0 		ldrh	ip, [r6, #8]
 1359 070c 40EA0A20 		orr	r0, r0, sl, lsl #8
 1360 0710 40EA0840 		orr	r0, r0, r8, lsl #16
 1361 0714 40EA0E6E 		orr	lr, r0, lr, lsl #24
 1362 0718 CEEB0200 		rsb	r0, lr, r2
 1363 071c 4018     		adds	r0, r0, r1
 1364 071e CCEB000C 		rsb	ip, ip, r0
 1365              		.loc 1 1234 0 discriminator 2
 1366 0722 BCF1000F 		cmp	ip, #0
 1367 0726 C0F2AB81 		blt	.L88
ARM GAS  /var/folders/5n/p_75w94d66l9ssrldxqdhh700000gn/T//ccYNR3t7.s 			page 25


 1368              		.loc 1 1234 0 is_stmt 0
 1369 072a B046     		mov	r8, r6
 1370              	.LVL86:
 1371              	.L149:
 1372              		.loc 1 1238 0 is_stmt 1
 1373 072c 1A7B     		ldrb	r2, [r3, #12]	@ zero_extendqisi2
 1374 072e 587B     		ldrb	r0, [r3, #13]	@ zero_extendqisi2
 1375 0730 42EA0020 		orr	r0, r2, r0, lsl #8
 1376 0734 FFF7FEFF 		bl	lwip_ntohs
 1377 0738 C107     		lsls	r1, r0, #31
 1378 073a D2D5     		bpl	.L89
 1379              		.loc 1 1239 0 discriminator 1
 1380 073c EB68     		ldr	r3, [r5, #12]
 1381 073e 1A7B     		ldrb	r2, [r3, #12]	@ zero_extendqisi2
 1382 0740 587B     		ldrb	r0, [r3, #13]	@ zero_extendqisi2
 1383 0742 42EA0020 		orr	r0, r2, r0, lsl #8
 1384 0746 FFF7FEFF 		bl	lwip_ntohs
 1385              		.loc 1 1238 0 discriminator 1
 1386 074a 8207     		lsls	r2, r0, #30
 1387 074c C9D4     		bmi	.L89
 1388              		.loc 1 1240 0
 1389 074e D9F80C60 		ldr	r6, [r9, #12]
 1390 0752 337B     		ldrb	r3, [r6, #12]	@ zero_extendqisi2
 1391 0754 96F80DA0 		ldrb	sl, [r6, #13]	@ zero_extendqisi2
 1392 0758 0120     		movs	r0, #1
 1393 075a 43EA0A2A 		orr	sl, r3, sl, lsl #8
 1394 075e FFF7FEFF 		bl	lwip_htons
 1395 0762 40EA0A03 		orr	r3, r0, sl
 1396 0766 9BB2     		uxth	r3, r3
 1397 0768 1A0A     		lsrs	r2, r3, #8
 1398 076a 3373     		strb	r3, [r6, #12]
 1399 076c 7273     		strb	r2, [r6, #13]
 1400              		.loc 1 1241 0
 1401 076e D9F80C30 		ldr	r3, [r9, #12]
 1402 0772 B9F80860 		ldrh	r6, [r9, #8]
 1403 0776 1A7B     		ldrb	r2, [r3, #12]	@ zero_extendqisi2
 1404 0778 587B     		ldrb	r0, [r3, #13]	@ zero_extendqisi2
 1405 077a 42EA0020 		orr	r0, r2, r0, lsl #8
 1406 077e FFF7FEFF 		bl	lwip_ntohs
 1407 0782 10F00300 		ands	r0, r0, #3
 1408 0786 18BF     		it	ne
 1409 0788 0120     		movne	r0, #1
 1410 078a 3018     		adds	r0, r6, r0
 1411 078c ABF80000 		strh	r0, [fp, #0]	@ movhi
 1412 0790 A7E7     		b	.L89
 1413              	.LVL87:
 1414              	.L134:
 1415              	.LBB3:
 1416              		.loc 1 1226 0
 1417 0792 0368     		ldr	r3, [r0, #0]
 1418 0794 E367     		str	r3, [r4, #124]
 1419              		.loc 1 1227 0
 1420 0796 FFF7FEFF 		bl	tcp_seg_free
 1421              	.LVL88:
 1422              	.L166:
 1423              	.LBE3:
 1424              		.loc 1 1224 0
ARM GAS  /var/folders/5n/p_75w94d66l9ssrldxqdhh700000gn/T//ccYNR3t7.s 			page 26


 1425 079a E06F     		ldr	r0, [r4, #124]
 1426 079c 0028     		cmp	r0, #0
 1427 079e F8D1     		bne	.L134
 1428              	.L162:
 1429 07a0 BBF80020 		ldrh	r2, [fp, #0]
 1430 07a4 3968     		ldr	r1, [r7, #0]
 1431 07a6 5118     		adds	r1, r2, r1
 1432              	.L83:
 1433              		.loc 1 1270 0
 1434 07a8 238D     		ldrh	r3, [r4, #40]
 1435              		.loc 1 1267 0
 1436 07aa 6162     		str	r1, [r4, #36]
 1437              		.loc 1 1270 0
 1438 07ac 9342     		cmp	r3, r2
 1439 07ae C0F06081 		bcc	.L193
 1440              	.L94:
 1441              		.loc 1 1271 0
 1442 07b2 9B1A     		subs	r3, r3, r2
 1443 07b4 2385     		strh	r3, [r4, #40]	@ movhi
 1444              		.loc 1 1273 0
 1445 07b6 2046     		mov	r0, r4
 1446 07b8 FFF7FEFF 		bl	tcp_update_rcv_ann_wnd
 1447              		.loc 1 1284 0
 1448 07bc 6B68     		ldr	r3, [r5, #4]
 1449 07be 1A89     		ldrh	r2, [r3, #8]
 1450 07c0 22B1     		cbz	r2, .L95
 1451              		.loc 1 1285 0
 1452 07c2 1A4A     		ldr	r2, .L200+8
 1453 07c4 1360     		str	r3, [r2, #0]
 1454              		.loc 1 1289 0
 1455 07c6 174B     		ldr	r3, .L200
 1456 07c8 0022     		movs	r2, #0
 1457 07ca 5A60     		str	r2, [r3, #4]
 1458              	.L95:
 1459              		.loc 1 1291 0
 1460 07cc EB68     		ldr	r3, [r5, #12]
 1461 07ce 1A7B     		ldrb	r2, [r3, #12]	@ zero_extendqisi2
 1462 07d0 587B     		ldrb	r0, [r3, #13]	@ zero_extendqisi2
 1463 07d2 42EA0020 		orr	r0, r2, r0, lsl #8
 1464 07d6 FFF7FEFF 		bl	lwip_ntohs
 1465 07da C007     		lsls	r0, r0, #31
 1466              		.loc 1 1293 0
 1467 07dc 48BF     		it	mi
 1468 07de 144B     		ldrmi	r3, .L200+12
 1469              		.loc 1 1299 0
 1470 07e0 E56F     		ldr	r5, [r4, #124]
 1471              		.loc 1 1293 0
 1472 07e2 42BF     		ittt	mi
 1473 07e4 1A78     		ldrbmi	r2, [r3, #0]	@ zero_extendqisi2
 1474 07e6 42F02002 		orrmi	r2, r2, #32
 1475 07ea 1A70     		strbmi	r2, [r3, #0]
 1476              		.loc 1 1299 0
 1477 07ec 002D     		cmp	r5, #0
 1478 07ee 00F09A80 		beq	.L97
 1479              		.loc 1 1300 0
 1480 07f2 EB68     		ldr	r3, [r5, #12]
 1481              		.loc 1 1299 0
ARM GAS  /var/folders/5n/p_75w94d66l9ssrldxqdhh700000gn/T//ccYNR3t7.s 			page 27


 1482 07f4 626A     		ldr	r2, [r4, #36]
 1483              		.loc 1 1300 0
 1484 07f6 1879     		ldrb	r0, [r3, #4]	@ zero_extendqisi2
 1485 07f8 5E79     		ldrb	r6, [r3, #5]	@ zero_extendqisi2
 1486 07fa 9979     		ldrb	r1, [r3, #6]	@ zero_extendqisi2
 1487 07fc 93F807B0 		ldrb	fp, [r3, #7]	@ zero_extendqisi2
 1488 0800 40EA0623 		orr	r3, r0, r6, lsl #8
 1489 0804 43EA0143 		orr	r3, r3, r1, lsl #16
 1490 0808 43EA0B6B 		orr	fp, r3, fp, lsl #24
 1491              		.loc 1 1299 0
 1492 080c 9345     		cmp	fp, r2
 1493 080e 40F08A80 		bne	.L97
 1494              		.loc 1 1315 0
 1495 0812 DFF81880 		ldr	r8, .L200+8
 1496              		.loc 1 1324 0
 1497 0816 064E     		ldr	r6, .L200+12
 1498              		.loc 1 1320 0
 1499 0818 4FF00009 		mov	r9, #0
 1500              		.loc 1 1326 0
 1501 081c 4FF0070A 		mov	sl, #7
 1502 0820 54E0     		b	.L133
 1503              	.L201:
 1504 0822 00BF     		.align	2
 1505              	.L200:
 1506 0824 00000000 		.word	.LANCHOR5
 1507 0828 00000000 		.word	.LANCHOR0
 1508 082c 00000000 		.word	.LANCHOR6
 1509 0830 00000000 		.word	.LANCHOR7
 1510              	.LVL89:
 1511              	.L98:
 1512              		.loc 1 1308 0
 1513 0834 EA68     		ldr	r2, [r5, #12]
 1514 0836 238D     		ldrh	r3, [r4, #40]
 1515 0838 117B     		ldrb	r1, [r2, #12]	@ zero_extendqisi2
 1516 083a 507B     		ldrb	r0, [r2, #13]	@ zero_extendqisi2
 1517 083c B5F808B0 		ldrh	fp, [r5, #8]
 1518 0840 0193     		str	r3, [sp, #4]
 1519 0842 41EA0020 		orr	r0, r1, r0, lsl #8
 1520 0846 FFF7FEFF 		bl	lwip_ntohs
 1521 084a 019B     		ldr	r3, [sp, #4]
 1522 084c 10F00300 		ands	r0, r0, #3
 1523 0850 CBEB030B 		rsb	fp, fp, r3
 1524 0854 18BF     		it	ne
 1525 0856 0120     		movne	r0, #1
 1526 0858 C0EB0B00 		rsb	r0, r0, fp
 1527 085c 2085     		strh	r0, [r4, #40]	@ movhi
 1528              		.loc 1 1310 0
 1529 085e 2046     		mov	r0, r4
 1530 0860 FFF7FEFF 		bl	tcp_update_rcv_ann_wnd
 1531              		.loc 1 1312 0
 1532 0864 6968     		ldr	r1, [r5, #4]
 1533 0866 0B89     		ldrh	r3, [r1, #8]
 1534 0868 3BB1     		cbz	r3, .L99
 1535              		.loc 1 1315 0
 1536 086a D8F80000 		ldr	r0, [r8, #0]
 1537 086e 0028     		cmp	r0, #0
 1538 0870 56D0     		beq	.L100
ARM GAS  /var/folders/5n/p_75w94d66l9ssrldxqdhh700000gn/T//ccYNR3t7.s 			page 28


 1539              		.loc 1 1316 0
 1540 0872 FFF7FEFF 		bl	pbuf_cat
 1541              	.L101:
 1542              		.loc 1 1320 0
 1543 0876 C5F80490 		str	r9, [r5, #4]
 1544              	.L99:
 1545              		.loc 1 1322 0
 1546 087a EB68     		ldr	r3, [r5, #12]
 1547 087c 1A7B     		ldrb	r2, [r3, #12]	@ zero_extendqisi2
 1548 087e 587B     		ldrb	r0, [r3, #13]	@ zero_extendqisi2
 1549 0880 42EA0020 		orr	r0, r2, r0, lsl #8
 1550 0884 FFF7FEFF 		bl	lwip_ntohs
 1551 0888 C107     		lsls	r1, r0, #31
 1552 088a 08D5     		bpl	.L102
 1553              		.loc 1 1324 0
 1554 088c 3278     		ldrb	r2, [r6, #0]	@ zero_extendqisi2
 1555              		.loc 1 1325 0
 1556 088e 237C     		ldrb	r3, [r4, #16]	@ zero_extendqisi2
 1557              		.loc 1 1324 0
 1558 0890 42F02002 		orr	r2, r2, #32
 1559              		.loc 1 1325 0
 1560 0894 042B     		cmp	r3, #4
 1561              		.loc 1 1324 0
 1562 0896 3270     		strb	r2, [r6, #0]
 1563              		.loc 1 1326 0
 1564 0898 08BF     		it	eq
 1565 089a 84F810A0 		strbeq	sl, [r4, #16]
 1566              	.L102:
 1567              		.loc 1 1330 0
 1568 089e 2B68     		ldr	r3, [r5, #0]
 1569              		.loc 1 1331 0
 1570 08a0 2846     		mov	r0, r5
 1571              		.loc 1 1330 0
 1572 08a2 E367     		str	r3, [r4, #124]
 1573              		.loc 1 1331 0
 1574 08a4 FFF7FEFF 		bl	tcp_seg_free
 1575              		.loc 1 1299 0
 1576 08a8 E56F     		ldr	r5, [r4, #124]
 1577              	.LVL90:
 1578 08aa 002D     		cmp	r5, #0
 1579 08ac 3BD0     		beq	.L97
 1580              		.loc 1 1300 0 discriminator 2
 1581 08ae EB68     		ldr	r3, [r5, #12]
 1582              		.loc 1 1299 0 discriminator 2
 1583 08b0 626A     		ldr	r2, [r4, #36]
 1584              		.loc 1 1300 0 discriminator 2
 1585 08b2 1879     		ldrb	r0, [r3, #4]	@ zero_extendqisi2
 1586 08b4 93F805C0 		ldrb	ip, [r3, #5]	@ zero_extendqisi2
 1587 08b8 9979     		ldrb	r1, [r3, #6]	@ zero_extendqisi2
 1588 08ba DB79     		ldrb	r3, [r3, #7]	@ zero_extendqisi2
 1589 08bc 40EA0C2B 		orr	fp, r0, ip, lsl #8
 1590 08c0 4BEA014B 		orr	fp, fp, r1, lsl #16
 1591 08c4 4BEA036B 		orr	fp, fp, r3, lsl #24
 1592              		.loc 1 1299 0 discriminator 2
 1593 08c8 9345     		cmp	fp, r2
 1594 08ca 2CD1     		bne	.L97
 1595              	.L133:
ARM GAS  /var/folders/5n/p_75w94d66l9ssrldxqdhh700000gn/T//ccYNR3t7.s 			page 29


 1596              	.LVL91:
 1597              		.loc 1 1305 0
 1598 08cc EB68     		ldr	r3, [r5, #12]
 1599              		.loc 1 1303 0
 1600 08ce C7F800B0 		str	fp, [r7, #0]
 1601              		.loc 1 1305 0
 1602 08d2 1A7B     		ldrb	r2, [r3, #12]	@ zero_extendqisi2
 1603 08d4 587B     		ldrb	r0, [r3, #13]	@ zero_extendqisi2
 1604 08d6 2B89     		ldrh	r3, [r5, #8]
 1605 08d8 42EA0020 		orr	r0, r2, r0, lsl #8
 1606 08dc 0193     		str	r3, [sp, #4]
 1607 08de FFF7FEFF 		bl	lwip_ntohs
 1608 08e2 019B     		ldr	r3, [sp, #4]
 1609              		.loc 1 1306 0
 1610 08e4 E968     		ldr	r1, [r5, #12]
 1611 08e6 2A89     		ldrh	r2, [r5, #8]
 1612              		.loc 1 1305 0
 1613 08e8 10F00300 		ands	r0, r0, #3
 1614 08ec 18BF     		it	ne
 1615 08ee 0120     		movne	r0, #1
 1616 08f0 1818     		adds	r0, r3, r0
 1617 08f2 5844     		add	r0, r0, fp
 1618 08f4 6062     		str	r0, [r4, #36]
 1619              		.loc 1 1306 0
 1620 08f6 087B     		ldrb	r0, [r1, #12]	@ zero_extendqisi2
 1621 08f8 497B     		ldrb	r1, [r1, #13]	@ zero_extendqisi2
 1622 08fa 238D     		ldrh	r3, [r4, #40]
 1623 08fc 0292     		str	r2, [sp, #8]
 1624 08fe 40EA0120 		orr	r0, r0, r1, lsl #8
 1625 0902 0193     		str	r3, [sp, #4]
 1626 0904 FFF7FEFF 		bl	lwip_ntohs
 1627 0908 029A     		ldr	r2, [sp, #8]
 1628 090a 019B     		ldr	r3, [sp, #4]
 1629 090c 10F00300 		ands	r0, r0, #3
 1630 0910 18BF     		it	ne
 1631 0912 0120     		movne	r0, #1
 1632 0914 1218     		adds	r2, r2, r0
 1633 0916 9342     		cmp	r3, r2
 1634 0918 8CDA     		bge	.L98
 1635              		.loc 1 1306 0 is_stmt 0 discriminator 1
 1636 091a FFF7FEFF 		bl	port_halt
 1637 091e 89E7     		b	.L98
 1638              	.L100:
 1639              		.loc 1 1318 0 is_stmt 1
 1640 0920 C8F80010 		str	r1, [r8, #0]
 1641 0924 A7E7     		b	.L101
 1642              	.LVL92:
 1643              	.L97:
 1644              		.loc 1 1337 0
 1645 0926 94F82030 		ldrb	r3, [r4, #32]	@ zero_extendqisi2
 1646 092a DA07     		lsls	r2, r3, #31
 1647 092c 46BF     		itte	mi
 1648 092e 23F00103 		bicmi	r3, r3, #1
 1649 0932 43F00203 		orrmi	r3, r3, #2
 1650 0936 43F00103 		orrpl	r3, r3, #1
 1651 093a 84F82030 		strb	r3, [r4, #32]
 1652 093e 1BE4     		b	.L32
ARM GAS  /var/folders/5n/p_75w94d66l9ssrldxqdhh700000gn/T//ccYNR3t7.s 			page 30


 1653              	.LVL93:
 1654              	.L123:
 1655              		.loc 1 1361 0
 1656 0940 2A46     		mov	r2, r5
 1657 0942 0025     		movs	r5, #0
 1658              	.LVL94:
 1659              	.L107:
 1660              		.loc 1 1366 0
 1661 0944 9648     		ldr	r0, .L202
 1662 0946 1389     		ldrh	r3, [r2, #8]
 1663 0948 0189     		ldrh	r1, [r0, #8]
 1664 094a 9942     		cmp	r1, r3
 1665 094c 7FF614AC 		bls	.L32
 1666              		.loc 1 1370 0
 1667 0950 0292     		str	r2, [sp, #8]
 1668 0952 FFF7FEFF 		bl	tcp_seg_copy
 1669              	.LVL95:
 1670              		.loc 1 1371 0
 1671 0956 029A     		ldr	r2, [sp, #8]
 1672 0958 0028     		cmp	r0, #0
 1673 095a 3FF40DAC 		beq	.L32
 1674              		.loc 1 1372 0
 1675 095e 002D     		cmp	r5, #0
 1676 0960 00F00481 		beq	.L109
 1677              		.loc 1 1373 0
 1678 0964 2860     		str	r0, [r5, #0]
 1679              	.L110:
 1680              		.loc 1 1377 0
 1681 0966 1146     		mov	r1, r2
 1682              		.loc 1 1479 0
 1683 0968 05B0     		add	sp, sp, #20
 1684 096a BDE8F04F 		pop	{r4, r5, r6, r7, r8, r9, sl, fp, lr}
 1685              		.loc 1 1377 0
 1686 096e FFF7FEBF 		b	tcp_oos_insert_segment
 1687              	.LVL96:
 1688              	.L157:
 1689 0972 636F     		ldr	r3, [r4, #116]
 1690 0974 AFE4     		b	.L53
 1691              	.L178:
 1692              		.loc 1 1016 0
 1693 0976 A36F     		ldr	r3, [r4, #120]
 1694 0978 002B     		cmp	r3, #0
 1695 097a FAD0     		beq	.L157
 1696              		.loc 1 1019 0
 1697 097c 0022     		movs	r2, #0
 1698 097e 636F     		ldr	r3, [r4, #116]
 1699 0980 E286     		strh	r2, [r4, #54]	@ movhi
 1700 0982 ABE4     		b	.L56
 1701              	.LVL97:
 1702              	.L70:
 1703              		.loc 1 1164 0
 1704 0984 C8F10001 		rsb	r1, r8, #0
 1705 0988 09B2     		sxth	r1, r1
 1706 098a FFF7FEFF 		bl	pbuf_header
 1707 098e 0028     		cmp	r0, #0
 1708 0990 3FF40BAE 		beq	.L74
 1709              	.L159:
ARM GAS  /var/folders/5n/p_75w94d66l9ssrldxqdhh700000gn/T//ccYNR3t7.s 			page 31


 1710              		.loc 1 1166 0 discriminator 1
 1711 0994 FFF7FEFF 		bl	port_halt
 1712 0998 07E6     		b	.L74
 1713              	.L189:
 1714              		.loc 1 1146 0 discriminator 1
 1715 099a FFF7FEFF 		bl	port_halt
 1716 099e E1E5     		b	.L69
 1717              	.LVL98:
 1718              	.L184:
 1719              		.loc 1 1409 0
 1720 09a0 7F48     		ldr	r0, .L202
 1721 09a2 FFF7FEFF 		bl	tcp_seg_copy
 1722              	.LVL99:
 1723 09a6 5F46     		mov	r7, fp
 1724              		.loc 1 1410 0
 1725 09a8 0446     		mov	r4, r0
 1726              	.LVL100:
 1727 09aa 0028     		cmp	r0, #0
 1728 09ac 3FF4E4AB 		beq	.L32
 1729              		.loc 1 1411 0
 1730 09b0 F368     		ldr	r3, [r6, #12]
 1731 09b2 DBF80020 		ldr	r2, [fp, #0]
 1732 09b6 93F804C0 		ldrb	ip, [r3, #4]	@ zero_extendqisi2
 1733 09ba 93F80580 		ldrb	r8, [r3, #5]	@ zero_extendqisi2
 1734 09be 9F79     		ldrb	r7, [r3, #6]	@ zero_extendqisi2
 1735 09c0 D879     		ldrb	r0, [r3, #7]	@ zero_extendqisi2
 1736              	.LVL101:
 1737 09c2 3189     		ldrh	r1, [r6, #8]
 1738 09c4 4CEA0823 		orr	r3, ip, r8, lsl #8
 1739 09c8 43EA0743 		orr	r3, r3, r7, lsl #16
 1740 09cc 43EA0063 		orr	r3, r3, r0, lsl #24
 1741 09d0 891A     		subs	r1, r1, r2
 1742 09d2 C918     		adds	r1, r1, r3
 1743 09d4 0029     		cmp	r1, #0
 1744 09d6 05DD     		ble	.L113
 1745              		.loc 1 1413 0
 1746 09d8 D31A     		subs	r3, r2, r3
 1747 09da 99B2     		uxth	r1, r3
 1748 09dc 3181     		strh	r1, [r6, #8]	@ movhi
 1749              		.loc 1 1414 0
 1750 09de 7068     		ldr	r0, [r6, #4]
 1751 09e0 FFF7FEFF 		bl	pbuf_realloc
 1752              	.L113:
 1753              		.loc 1 1417 0
 1754 09e4 2046     		mov	r0, r4
 1755 09e6 2946     		mov	r1, r5
 1756              		.loc 1 1416 0
 1757 09e8 3460     		str	r4, [r6, #0]
 1758              		.loc 1 1479 0
 1759 09ea 05B0     		add	sp, sp, #20
 1760 09ec BDE8F04F 		pop	{r4, r5, r6, r7, r8, r9, sl, fp, lr}
 1761              		.loc 1 1417 0
 1762 09f0 FFF7FEBF 		b	tcp_oos_insert_segment
 1763              	.LVL102:
 1764              	.L190:
 1765              		.loc 1 1148 0 discriminator 1
 1766 09f4 FFF7FEFF 		bl	port_halt
ARM GAS  /var/folders/5n/p_75w94d66l9ssrldxqdhh700000gn/T//ccYNR3t7.s 			page 32


 1767 09f8 694B     		ldr	r3, .L202
 1768 09fa 5B68     		ldr	r3, [r3, #4]
 1769 09fc 1A89     		ldrh	r2, [r3, #8]
 1770 09fe BAE5     		b	.L71
 1771              	.LVL103:
 1772              	.L191:
 1773              		.loc 1 1198 0
 1774 0a00 EB68     		ldr	r3, [r5, #12]
 1775 0a02 1A7B     		ldrb	r2, [r3, #12]	@ zero_extendqisi2
 1776 0a04 587B     		ldrb	r0, [r3, #13]	@ zero_extendqisi2
 1777 0a06 42EA0020 		orr	r0, r2, r0, lsl #8
 1778 0a0a FFF7FEFF 		bl	lwip_ntohs
 1779 0a0e C207     		lsls	r2, r0, #31
 1780 0a10 00F18F80 		bmi	.L194
 1781              	.L79:
 1782              		.loc 1 1204 0
 1783 0a14 228D     		ldrh	r2, [r4, #40]
 1784              		.loc 1 1205 0
 1785 0a16 EB68     		ldr	r3, [r5, #12]
 1786              		.loc 1 1204 0
 1787 0a18 2A81     		strh	r2, [r5, #8]	@ movhi
 1788              		.loc 1 1205 0
 1789 0a1a 1A7B     		ldrb	r2, [r3, #12]	@ zero_extendqisi2
 1790 0a1c 587B     		ldrb	r0, [r3, #13]	@ zero_extendqisi2
 1791              		.loc 1 1204 0
 1792 0a1e 604E     		ldr	r6, .L202
 1793              		.loc 1 1205 0
 1794 0a20 42EA0020 		orr	r0, r2, r0, lsl #8
 1795 0a24 FFF7FEFF 		bl	lwip_ntohs
 1796 0a28 8307     		lsls	r3, r0, #30
 1797              		.loc 1 1206 0
 1798 0a2a 3189     		ldrh	r1, [r6, #8]
 1799              		.loc 1 1205 0
 1800 0a2c 02D5     		bpl	.L81
 1801              		.loc 1 1206 0
 1802 0a2e 0139     		subs	r1, r1, #1
 1803 0a30 89B2     		uxth	r1, r1
 1804 0a32 3181     		strh	r1, [r6, #8]	@ movhi
 1805              	.L81:
 1806              		.loc 1 1208 0
 1807 0a34 6868     		ldr	r0, [r5, #4]
 1808 0a36 FFF7FEFF 		bl	pbuf_realloc
 1809              		.loc 1 1209 0
 1810 0a3a EB68     		ldr	r3, [r5, #12]
 1811 0a3c 2E89     		ldrh	r6, [r5, #8]
 1812 0a3e 1A7B     		ldrb	r2, [r3, #12]	@ zero_extendqisi2
 1813 0a40 587B     		ldrb	r0, [r3, #13]	@ zero_extendqisi2
 1814 0a42 42EA0020 		orr	r0, r2, r0, lsl #8
 1815 0a46 FFF7FEFF 		bl	lwip_ntohs
 1816 0a4a 10F00300 		ands	r0, r0, #3
 1817 0a4e 18BF     		it	ne
 1818 0a50 0120     		movne	r0, #1
 1819 0a52 3318     		adds	r3, r6, r0
 1820              		.loc 1 1210 0
 1821 0a54 3968     		ldr	r1, [r7, #0]
 1822 0a56 B4F828E0 		ldrh	lr, [r4, #40]
 1823 0a5a 626A     		ldr	r2, [r4, #36]
ARM GAS  /var/folders/5n/p_75w94d66l9ssrldxqdhh700000gn/T//ccYNR3t7.s 			page 33


 1824              		.loc 1 1209 0
 1825 0a5c 9BB2     		uxth	r3, r3
 1826              		.loc 1 1210 0
 1827 0a5e 5918     		adds	r1, r3, r1
 1828 0a60 7244     		add	r2, lr, r2
 1829 0a62 9142     		cmp	r1, r2
 1830              		.loc 1 1209 0
 1831 0a64 ABF80030 		strh	r3, [fp, #0]	@ movhi
 1832              		.loc 1 1210 0
 1833 0a68 3FF40AAE 		beq	.L78
 1834              		.loc 1 1210 0 is_stmt 0 discriminator 1
 1835 0a6c FFF7FEFF 		bl	port_halt
 1836 0a70 06E6     		b	.L78
 1837              	.L193:
 1838              		.loc 1 1270 0 is_stmt 1 discriminator 1
 1839 0a72 FFF7FEFF 		bl	port_halt
 1840 0a76 238D     		ldrh	r3, [r4, #40]
 1841 0a78 BBF80020 		ldrh	r2, [fp, #0]
 1842 0a7c 99E6     		b	.L94
 1843              	.LVL104:
 1844              	.L195:
 1845              		.loc 1 1234 0
 1846 0a7e 4646     		mov	r6, r8
 1847              	.LVL105:
 1848              	.L88:
 1849              		.loc 1 1249 0
 1850 0a80 0028     		cmp	r0, #0
 1851 0a82 40DD     		ble	.L160
 1852              		.loc 1 1254 0
 1853 0a84 EB68     		ldr	r3, [r5, #12]
 1854              		.loc 1 1253 0
 1855 0a86 DFF81881 		ldr	r8, .L202
 1856 0a8a C1EB0E01 		rsb	r1, r1, lr
 1857 0a8e 2981     		strh	r1, [r5, #8]	@ movhi
 1858              		.loc 1 1254 0
 1859 0a90 1A7B     		ldrb	r2, [r3, #12]	@ zero_extendqisi2
 1860 0a92 587B     		ldrb	r0, [r3, #13]	@ zero_extendqisi2
 1861 0a94 42EA0020 		orr	r0, r2, r0, lsl #8
 1862 0a98 FFF7FEFF 		bl	lwip_ntohs
 1863 0a9c 8307     		lsls	r3, r0, #30
 1864              		.loc 1 1255 0
 1865 0a9e B8F80810 		ldrh	r1, [r8, #8]
 1866              		.loc 1 1254 0
 1867 0aa2 03D5     		bpl	.L93
 1868              		.loc 1 1255 0
 1869 0aa4 0139     		subs	r1, r1, #1
 1870 0aa6 89B2     		uxth	r1, r1
 1871 0aa8 A8F80810 		strh	r1, [r8, #8]	@ movhi
 1872              	.L93:
 1873              		.loc 1 1257 0
 1874 0aac 6868     		ldr	r0, [r5, #4]
 1875 0aae FFF7FEFF 		bl	pbuf_realloc
 1876              		.loc 1 1258 0
 1877 0ab2 EB68     		ldr	r3, [r5, #12]
 1878 0ab4 B5F80880 		ldrh	r8, [r5, #8]
 1879 0ab8 1A7B     		ldrb	r2, [r3, #12]	@ zero_extendqisi2
 1880 0aba 587B     		ldrb	r0, [r3, #13]	@ zero_extendqisi2
ARM GAS  /var/folders/5n/p_75w94d66l9ssrldxqdhh700000gn/T//ccYNR3t7.s 			page 34


 1881 0abc 42EA0020 		orr	r0, r2, r0, lsl #8
 1882 0ac0 FFF7FEFF 		bl	lwip_ntohs
 1883 0ac4 10F00300 		ands	r0, r0, #3
 1884 0ac8 18BF     		it	ne
 1885 0aca 0120     		movne	r0, #1
 1886 0acc 08EB0002 		add	r2, r8, r0
 1887              		.loc 1 1259 0
 1888 0ad0 F368     		ldr	r3, [r6, #12]
 1889 0ad2 3968     		ldr	r1, [r7, #0]
 1890              		.loc 1 1258 0
 1891 0ad4 92B2     		uxth	r2, r2
 1892 0ad6 ABF80020 		strh	r2, [fp, #0]	@ movhi
 1893              		.loc 1 1259 0
 1894 0ada 93F804C0 		ldrb	ip, [r3, #4]	@ zero_extendqisi2
 1895 0ade 93F80580 		ldrb	r8, [r3, #5]	@ zero_extendqisi2
 1896 0ae2 93F806E0 		ldrb	lr, [r3, #6]	@ zero_extendqisi2
 1897 0ae6 D879     		ldrb	r0, [r3, #7]	@ zero_extendqisi2
 1898 0ae8 4CEA0823 		orr	r3, ip, r8, lsl #8
 1899 0aec 43EA0E43 		orr	r3, r3, lr, lsl #16
 1900 0af0 5118     		adds	r1, r2, r1
 1901 0af2 43EA0063 		orr	r3, r3, r0, lsl #24
 1902 0af6 9942     		cmp	r1, r3
 1903 0af8 06D0     		beq	.L91
 1904              		.loc 1 1259 0 is_stmt 0 discriminator 1
 1905 0afa FFF7FEFF 		bl	port_halt
 1906 0afe 294B     		ldr	r3, .L202+4
 1907 0b00 1A88     		ldrh	r2, [r3, #0]
 1908 0b02 294B     		ldr	r3, .L202+8
 1909 0b04 1968     		ldr	r1, [r3, #0]
 1910              	.L160:
 1911 0b06 5118     		adds	r1, r2, r1
 1912              	.LVL106:
 1913              	.L91:
 1914              		.loc 1 1262 0 is_stmt 1
 1915 0b08 E667     		str	r6, [r4, #124]
 1916 0b0a 4DE6     		b	.L83
 1917              	.L87:
 1918              		.loc 1 1234 0
 1919 0b0c BBF80020 		ldrh	r2, [fp, #0]
 1920 0b10 3968     		ldr	r1, [r7, #0]
 1921 0b12 0026     		movs	r6, #0
 1922 0b14 5118     		adds	r1, r2, r1
 1923 0b16 F7E7     		b	.L91
 1924              	.LVL107:
 1925              	.L188:
 1926              		.loc 1 1145 0 discriminator 1
 1927 0b18 FFF7FEFF 		bl	port_halt
 1928 0b1c 1DE5     		b	.L68
 1929              	.LVL108:
 1930              	.L106:
 1931              		.loc 1 1345 0
 1932 0b1e 2048     		ldr	r0, .L202
 1933 0b20 FFF7FEFF 		bl	tcp_seg_copy
 1934 0b24 E067     		str	r0, [r4, #124]
 1935 0b26 FFF727BB 		b	.L32
 1936              	.LVL109:
 1937              	.L181:
ARM GAS  /var/folders/5n/p_75w94d66l9ssrldxqdhh700000gn/T//ccYNR3t7.s 			page 35


 1938              		.loc 1 1009 0 discriminator 2
 1939 0b2a FFF7FEFF 		bl	port_halt
 1940 0b2e FFF787BB 		b	.L156
 1941              	.LVL110:
 1942              	.L194:
 1943              		.loc 1 1201 0
 1944 0b32 EE68     		ldr	r6, [r5, #12]
 1945 0b34 337B     		ldrb	r3, [r6, #12]	@ zero_extendqisi2
 1946 0b36 96F80D80 		ldrb	r8, [r6, #13]	@ zero_extendqisi2
 1947 0b3a 43EA0828 		orr	r8, r3, r8, lsl #8
 1948 0b3e 4046     		mov	r0, r8
 1949 0b40 FFF7FEFF 		bl	lwip_ntohs
 1950 0b44 00F03E00 		and	r0, r0, #62
 1951 0b48 FFF7FEFF 		bl	lwip_htons
 1952 0b4c 28F47C58 		bic	r8, r8, #16128
 1953 0b50 40EA0803 		orr	r3, r0, r8
 1954 0b54 9BB2     		uxth	r3, r3
 1955 0b56 1A0A     		lsrs	r2, r3, #8
 1956 0b58 3373     		strb	r3, [r6, #12]
 1957 0b5a 7273     		strb	r2, [r6, #13]
 1958 0b5c 5AE7     		b	.L79
 1959              	.LVL111:
 1960              	.L41:
 1961              		.loc 1 922 0
 1962 0b5e 02D1     		bne	.L154
 1963              		.loc 1 924 0
 1964 0b60 2046     		mov	r0, r4
 1965 0b62 FFF7FEFF 		bl	tcp_rexmit_fast
 1966              	.LVL112:
 1967              	.L154:
 1968 0b66 636F     		ldr	r3, [r4, #116]
 1969 0b68 FFF77CBA 		b	.L57
 1970              	.LVL113:
 1971              	.L109:
 1972              		.loc 1 1375 0
 1973 0b6c E067     		str	r0, [r4, #124]
 1974 0b6e FAE6     		b	.L110
 1975              	.LVL114:
 1976              	.L186:
 1977              		.loc 1 1447 0
 1978 0b70 2B68     		ldr	r3, [r5, #0]
 1979 0b72 DE68     		ldr	r6, [r3, #12]
 1980 0b74 337B     		ldrb	r3, [r6, #12]	@ zero_extendqisi2
 1981 0b76 96F80D80 		ldrb	r8, [r6, #13]	@ zero_extendqisi2
 1982 0b7a 43EA0828 		orr	r8, r3, r8, lsl #8
 1983 0b7e 4046     		mov	r0, r8
 1984 0b80 FFF7FEFF 		bl	lwip_ntohs
 1985 0b84 00F03E00 		and	r0, r0, #62
 1986 0b88 FFF7FEFF 		bl	lwip_htons
 1987 0b8c 28F47C58 		bic	r8, r8, #16128
 1988 0b90 40EA0803 		orr	r3, r0, r8
 1989 0b94 9BB2     		uxth	r3, r3
 1990 0b96 1A0A     		lsrs	r2, r3, #8
 1991 0b98 3373     		strb	r3, [r6, #12]
 1992 0b9a 7273     		strb	r2, [r6, #13]
 1993 0b9c 7BE4     		b	.L116
 1994              	.L203:
ARM GAS  /var/folders/5n/p_75w94d66l9ssrldxqdhh700000gn/T//ccYNR3t7.s 			page 36


 1995 0b9e 00BF     		.align	2
 1996              	.L202:
 1997 0ba0 00000000 		.word	.LANCHOR5
 1998 0ba4 00000000 		.word	.LANCHOR4
 1999 0ba8 00000000 		.word	.LANCHOR1
 2000              		.cfi_endproc
 2001              	.LFE12:
 2002              		.size	tcp_receive, .-tcp_receive
 2003 0bac AFF30080 		.section	.text.tcp_input,"ax",%progbits
 2004              		.align	2
 2005              		.p2align 4,,15
 2006              		.global	tcp_input
 2007              		.thumb
 2008              		.thumb_func
 2009              		.type	tcp_input, %function
 2010              	tcp_input:
 2011              	.LFB7:
 2012              		.loc 1 93 0
 2013              		.cfi_startproc
 2014              		@ args = 0, pretend = 0, frame = 0
 2015              		@ frame_needed = 0, uses_anonymous_args = 0
 2016              	.LVL115:
 2017 0000 2DE9F04F 		push	{r4, r5, r6, r7, r8, r9, sl, fp, lr}
 2018              	.LCFI4:
 2019              		.cfi_def_cfa_offset 36
 2020              		.cfi_offset 14, -4
 2021              		.cfi_offset 11, -8
 2022              		.cfi_offset 10, -12
 2023              		.cfi_offset 9, -16
 2024              		.cfi_offset 8, -20
 2025              		.cfi_offset 7, -24
 2026              		.cfi_offset 6, -28
 2027              		.cfi_offset 5, -32
 2028              		.cfi_offset 4, -36
 2029              		.loc 1 105 0
 2030 0004 8C4D     		ldr	r5, .L362
 2031              		.loc 1 108 0
 2032 0006 4468     		ldr	r4, [r0, #4]
 2033              		.loc 1 105 0
 2034 0008 B5F89230 		ldrh	r3, [r5, #146]
 2035              		.loc 1 108 0
 2036 000c 8B4F     		ldr	r7, .L362+4
 2037              		.loc 1 109 0
 2038 000e DFF83882 		ldr	r8, .L362+16
 2039              		.loc 1 108 0
 2040 0012 3C60     		str	r4, [r7, #0]
 2041              		.loc 1 105 0
 2042 0014 0133     		adds	r3, r3, #1
 2043 0016 A5F89230 		strh	r3, [r5, #146]	@ movhi
 2044              		.loc 1 109 0
 2045 001a 2378     		ldrb	r3, [r4, #0]	@ zero_extendqisi2
 2046              		.loc 1 93 0
 2047 001c 0646     		mov	r6, r0
 2048              		.loc 1 109 0
 2049 001e 6078     		ldrb	r0, [r4, #1]	@ zero_extendqisi2
 2050              	.LVL116:
 2051              		.loc 1 93 0
ARM GAS  /var/folders/5n/p_75w94d66l9ssrldxqdhh700000gn/T//ccYNR3t7.s 			page 37


 2052 0020 83B0     		sub	sp, sp, #12
 2053              	.LCFI5:
 2054              		.cfi_def_cfa_offset 48
 2055              		.loc 1 109 0
 2056 0022 43EA0020 		orr	r0, r3, r0, lsl #8
 2057              		.loc 1 93 0
 2058 0026 8946     		mov	r9, r1
 2059              		.loc 1 109 0
 2060 0028 FFF7FEFF 		bl	lwip_ntohs
 2061              	.LVL117:
 2062 002c C0F30320 		ubfx	r0, r0, #8, #4
 2063              		.loc 1 116 0
 2064 0030 3B68     		ldr	r3, [r7, #0]
 2065              		.loc 1 109 0
 2066 0032 04EB8004 		add	r4, r4, r0, lsl #2
 2067 0036 C8F80040 		str	r4, [r8, #0]
 2068              		.loc 1 116 0
 2069 003a 1A78     		ldrb	r2, [r3, #0]	@ zero_extendqisi2
 2070 003c 5878     		ldrb	r0, [r3, #1]	@ zero_extendqisi2
 2071 003e 42EA0020 		orr	r0, r2, r0, lsl #8
 2072 0042 FFF7FEFF 		bl	lwip_ntohs
 2073 0046 C0F30321 		ubfx	r1, r0, #8, #4
 2074 004a 8900     		lsls	r1, r1, #2
 2075 004c 3046     		mov	r0, r6
 2076 004e 4942     		negs	r1, r1
 2077 0050 FFF7FEFF 		bl	pbuf_header
 2078 0054 10B9     		cbnz	r0, .L334
 2079              		.loc 1 116 0 is_stmt 0 discriminator 1
 2080 0056 3389     		ldrh	r3, [r6, #8]
 2081 0058 132B     		cmp	r3, #19
 2082 005a 0FD8     		bhi	.L206
 2083              	.L334:
 2084              		.loc 1 160 0 is_stmt 1
 2085 005c B5F89A20 		ldrh	r2, [r5, #154]
 2086              		.loc 1 161 0
 2087 0060 B5F89630 		ldrh	r3, [r5, #150]
 2088              		.loc 1 160 0
 2089 0064 0132     		adds	r2, r2, #1
 2090              		.loc 1 161 0
 2091 0066 0133     		adds	r3, r3, #1
 2092              		.loc 1 163 0
 2093 0068 3046     		mov	r0, r6
 2094              		.loc 1 160 0
 2095 006a A5F89A20 		strh	r2, [r5, #154]	@ movhi
 2096              		.loc 1 161 0
 2097 006e A5F89630 		strh	r3, [r5, #150]	@ movhi
 2098              		.loc 1 427 0
 2099 0072 03B0     		add	sp, sp, #12
 2100 0074 BDE8F04F 		pop	{r4, r5, r6, r7, r8, r9, sl, fp, lr}
 2101              		.loc 1 163 0
 2102 0078 FFF7FEBF 		b	pbuf_free
 2103              	.L206:
 2104              		.loc 1 127 0
 2105 007c 704F     		ldr	r7, .L362+8
 2106 007e 4946     		mov	r1, r9
 2107 0080 3868     		ldr	r0, [r7, #0]
 2108 0082 FFF7FEFF 		bl	ip4_addr_isbroadcast
ARM GAS  /var/folders/5n/p_75w94d66l9ssrldxqdhh700000gn/T//ccYNR3t7.s 			page 38


 2109 0086 0028     		cmp	r0, #0
 2110 0088 40F0C680 		bne	.L207
 2111              		.loc 1 128 0 discriminator 1
 2112 008c 3B68     		ldr	r3, [r7, #0]
 2113 008e 03F0F003 		and	r3, r3, #240
 2114              		.loc 1 127 0 discriminator 1
 2115 0092 E02B     		cmp	r3, #224
 2116 0094 00F0C080 		beq	.L207
 2117              		.loc 1 138 0
 2118 0098 3389     		ldrh	r3, [r6, #8]
 2119 009a 6A49     		ldr	r1, .L362+12
 2120 009c 0093     		str	r3, [sp, #0]
 2121 009e 3046     		mov	r0, r6
 2122 00a0 3A46     		mov	r2, r7
 2123 00a2 0623     		movs	r3, #6
 2124 00a4 FFF7FEFF 		bl	inet_chksum_pseudo
 2125 00a8 0028     		cmp	r0, #0
 2126 00aa 40F05481 		bne	.L338
 2127              		.loc 1 156 0
 2128 00ae D8F80030 		ldr	r3, [r8, #0]
 2129 00b2 1A7B     		ldrb	r2, [r3, #12]	@ zero_extendqisi2
 2130 00b4 587B     		ldrb	r0, [r3, #13]	@ zero_extendqisi2
 2131 00b6 42EA0020 		orr	r0, r2, r0, lsl #8
 2132 00ba FFF7FEFF 		bl	lwip_ntohs
 2133              	.LVL118:
 2134              		.loc 1 157 0
 2135 00be C0F30731 		ubfx	r1, r0, #12, #8
 2136 00c2 C1EB8131 		rsb	r1, r1, r1, lsl #14
 2137 00c6 8900     		lsls	r1, r1, #2
 2138 00c8 3046     		mov	r0, r6
 2139              	.LVL119:
 2140 00ca 09B2     		sxth	r1, r1
 2141 00cc FFF7FEFF 		bl	pbuf_header
 2142 00d0 8246     		mov	sl, r0
 2143 00d2 0028     		cmp	r0, #0
 2144 00d4 C2D1     		bne	.L334
 2145              		.loc 1 168 0
 2146 00d6 D8F80040 		ldr	r4, [r8, #0]
 2147              		.loc 1 174 0
 2148 00da DFF87091 		ldr	r9, .L362+20
 2149              	.LVL120:
 2150              		.loc 1 168 0
 2151 00de 2378     		ldrb	r3, [r4, #0]	@ zero_extendqisi2
 2152 00e0 6078     		ldrb	r0, [r4, #1]	@ zero_extendqisi2
 2153              		.loc 1 188 0
 2154 00e2 DFF860B1 		ldr	fp, .L362+12
 2155              		.loc 1 168 0
 2156 00e6 43EA0020 		orr	r0, r3, r0, lsl #8
 2157 00ea FFF7FEFF 		bl	lwip_ntohs
 2158 00ee C0F30F23 		ubfx	r3, r0, #8, #16
 2159 00f2 2070     		strb	r0, [r4, #0]
 2160 00f4 6370     		strb	r3, [r4, #1]
 2161              		.loc 1 169 0
 2162 00f6 D8F80040 		ldr	r4, [r8, #0]
 2163 00fa A378     		ldrb	r3, [r4, #2]	@ zero_extendqisi2
 2164 00fc E078     		ldrb	r0, [r4, #3]	@ zero_extendqisi2
 2165 00fe 43EA0020 		orr	r0, r3, r0, lsl #8
ARM GAS  /var/folders/5n/p_75w94d66l9ssrldxqdhh700000gn/T//ccYNR3t7.s 			page 39


 2166 0102 FFF7FEFF 		bl	lwip_ntohs
 2167 0106 C0F30F23 		ubfx	r3, r0, #8, #16
 2168 010a A070     		strb	r0, [r4, #2]
 2169 010c E370     		strb	r3, [r4, #3]
 2170              		.loc 1 170 0
 2171 010e D8F80040 		ldr	r4, [r8, #0]
 2172 0112 2179     		ldrb	r1, [r4, #4]	@ zero_extendqisi2
 2173 0114 6079     		ldrb	r0, [r4, #5]	@ zero_extendqisi2
 2174 0116 A279     		ldrb	r2, [r4, #6]	@ zero_extendqisi2
 2175 0118 E379     		ldrb	r3, [r4, #7]	@ zero_extendqisi2
 2176 011a 41EA0020 		orr	r0, r1, r0, lsl #8
 2177 011e 40EA0240 		orr	r0, r0, r2, lsl #16
 2178 0122 40EA0360 		orr	r0, r0, r3, lsl #24
 2179 0126 FFF7FEFF 		bl	lwip_ntohl
 2180 012a C0F30721 		ubfx	r1, r0, #8, #8
 2181 012e 030E     		lsrs	r3, r0, #24
 2182 0130 6171     		strb	r1, [r4, #5]
 2183 0132 C0F30742 		ubfx	r2, r0, #16, #8
 2184 0136 40F20001 		movw	r1, #:lower16:.LANCHOR1
 2185 013a 2071     		strb	r0, [r4, #4]
 2186 013c A271     		strb	r2, [r4, #6]
 2187 013e E371     		strb	r3, [r4, #7]
 2188 0140 C0F20001 		movt	r1, #:upper16:.LANCHOR1
 2189              		.loc 1 171 0
 2190 0144 D8F80040 		ldr	r4, [r8, #0]
 2191              		.loc 1 170 0
 2192 0148 0860     		str	r0, [r1, #0]
 2193              		.loc 1 171 0
 2194 014a 217A     		ldrb	r1, [r4, #8]	@ zero_extendqisi2
 2195 014c 607A     		ldrb	r0, [r4, #9]	@ zero_extendqisi2
 2196 014e A27A     		ldrb	r2, [r4, #10]	@ zero_extendqisi2
 2197 0150 E37A     		ldrb	r3, [r4, #11]	@ zero_extendqisi2
 2198 0152 41EA0020 		orr	r0, r1, r0, lsl #8
 2199 0156 40EA0240 		orr	r0, r0, r2, lsl #16
 2200 015a 40EA0360 		orr	r0, r0, r3, lsl #24
 2201 015e FFF7FEFF 		bl	lwip_ntohl
 2202 0162 C0F30742 		ubfx	r2, r0, #16, #8
 2203 0166 C0F30721 		ubfx	r1, r0, #8, #8
 2204 016a 030E     		lsrs	r3, r0, #24
 2205 016c A272     		strb	r2, [r4, #10]
 2206 016e 40F20002 		movw	r2, #:lower16:.LANCHOR3
 2207 0172 6172     		strb	r1, [r4, #9]
 2208 0174 2072     		strb	r0, [r4, #8]
 2209 0176 E372     		strb	r3, [r4, #11]
 2210 0178 C0F20002 		movt	r2, #:upper16:.LANCHOR3
 2211              		.loc 1 172 0
 2212 017c D8F80040 		ldr	r4, [r8, #0]
 2213              		.loc 1 171 0
 2214 0180 1060     		str	r0, [r2, #0]
 2215              		.loc 1 172 0
 2216 0182 A37B     		ldrb	r3, [r4, #14]	@ zero_extendqisi2
 2217 0184 E07B     		ldrb	r0, [r4, #15]	@ zero_extendqisi2
 2218 0186 43EA0020 		orr	r0, r3, r0, lsl #8
 2219 018a FFF7FEFF 		bl	lwip_ntohs
 2220 018e C0F30F23 		ubfx	r3, r0, #8, #16
 2221 0192 A073     		strb	r0, [r4, #14]
 2222 0194 E373     		strb	r3, [r4, #15]
ARM GAS  /var/folders/5n/p_75w94d66l9ssrldxqdhh700000gn/T//ccYNR3t7.s 			page 40


 2223              		.loc 1 174 0
 2224 0196 D8F80030 		ldr	r3, [r8, #0]
 2225 019a 1A7B     		ldrb	r2, [r3, #12]	@ zero_extendqisi2
 2226 019c 587B     		ldrb	r0, [r3, #13]	@ zero_extendqisi2
 2227 019e 42EA0020 		orr	r0, r2, r0, lsl #8
 2228 01a2 FFF7FEFF 		bl	lwip_ntohs
 2229 01a6 00F03F00 		and	r0, r0, #63
 2230              		.loc 1 175 0
 2231 01aa 3289     		ldrh	r2, [r6, #8]
 2232              		.loc 1 174 0
 2233 01ac 89F80000 		strb	r0, [r9, #0]
 2234              		.loc 1 175 0
 2235 01b0 10F00303 		ands	r3, r0, #3
 2236              		.loc 1 182 0
 2237 01b4 40F20001 		movw	r1, #:lower16:tcp_active_pcbs
 2238 01b8 C0F20001 		movt	r1, #:upper16:tcp_active_pcbs
 2239              		.loc 1 175 0
 2240 01bc 18BF     		it	ne
 2241 01be 0123     		movne	r3, #1
 2242 01c0 9B18     		adds	r3, r3, r2
 2243 01c2 40F20002 		movw	r2, #:lower16:.LANCHOR4
 2244 01c6 C0F20002 		movt	r2, #:upper16:.LANCHOR4
 2245              		.loc 1 182 0
 2246 01ca 0C68     		ldr	r4, [r1, #0]
 2247              		.loc 1 175 0
 2248 01cc 1380     		strh	r3, [r2, #0]	@ movhi
 2249              	.LVL121:
 2250              		.loc 1 182 0
 2251 01ce 9CB9     		cbnz	r4, .L219
 2252 01d0 84E2     		b	.L316
 2253              	.LVL122:
 2254              	.L212:
 2255              		.loc 1 184 0
 2256 01d2 0A2B     		cmp	r3, #10
 2257 01d4 18D0     		beq	.L339
 2258              	.L213:
 2259              		.loc 1 185 0
 2260 01d6 012B     		cmp	r3, #1
 2261 01d8 1BD0     		beq	.L340
 2262              	.L214:
 2263              		.loc 1 186 0
 2264 01da D8F80030 		ldr	r3, [r8, #0]
 2265 01de E18B     		ldrh	r1, [r4, #30]
 2266 01e0 1A78     		ldrb	r2, [r3, #0]	@ zero_extendqisi2
 2267 01e2 5878     		ldrb	r0, [r3, #1]	@ zero_extendqisi2
 2268 01e4 42EA0022 		orr	r2, r2, r0, lsl #8
 2269 01e8 9142     		cmp	r1, r2
 2270 01ea 31D0     		beq	.L341
 2271              	.L215:
 2272              	.LVL123:
 2273              		.loc 1 182 0
 2274 01ec E368     		ldr	r3, [r4, #12]
 2275              	.LVL124:
 2276 01ee 002B     		cmp	r3, #0
 2277 01f0 00F07482 		beq	.L316
 2278 01f4 A246     		mov	sl, r4
 2279 01f6 1C46     		mov	r4, r3
ARM GAS  /var/folders/5n/p_75w94d66l9ssrldxqdhh700000gn/T//ccYNR3t7.s 			page 41


 2280              	.LVL125:
 2281              	.L219:
 2282              		.loc 1 183 0
 2283 01f8 237C     		ldrb	r3, [r4, #16]	@ zero_extendqisi2
 2284 01fa 002B     		cmp	r3, #0
 2285 01fc E9D1     		bne	.L212
 2286              		.loc 1 183 0 is_stmt 0 discriminator 1
 2287 01fe FFF7FEFF 		bl	port_halt
 2288 0202 237C     		ldrb	r3, [r4, #16]	@ zero_extendqisi2
 2289              		.loc 1 184 0 is_stmt 1 discriminator 1
 2290 0204 0A2B     		cmp	r3, #10
 2291 0206 E6D1     		bne	.L213
 2292              	.L339:
 2293 0208 FFF7FEFF 		bl	port_halt
 2294 020c 237C     		ldrb	r3, [r4, #16]	@ zero_extendqisi2
 2295              		.loc 1 185 0 discriminator 1
 2296 020e 012B     		cmp	r3, #1
 2297 0210 E3D1     		bne	.L214
 2298              	.L340:
 2299 0212 FFF7FEFF 		bl	port_halt
 2300 0216 E0E7     		b	.L214
 2301              	.LVL126:
 2302              	.L207:
 2303              		.loc 1 129 0
 2304 0218 B5F8A020 		ldrh	r2, [r5, #160]
 2305              		.loc 1 130 0
 2306 021c B5F89630 		ldrh	r3, [r5, #150]
 2307              		.loc 1 129 0
 2308 0220 0132     		adds	r2, r2, #1
 2309              		.loc 1 130 0
 2310 0222 0133     		adds	r3, r3, #1
 2311              		.loc 1 132 0
 2312 0224 3046     		mov	r0, r6
 2313              		.loc 1 129 0
 2314 0226 A5F8A020 		strh	r2, [r5, #160]	@ movhi
 2315              		.loc 1 130 0
 2316 022a A5F89630 		strh	r3, [r5, #150]	@ movhi
 2317              		.loc 1 427 0
 2318 022e 03B0     		add	sp, sp, #12
 2319 0230 BDE8F04F 		pop	{r4, r5, r6, r7, r8, r9, sl, fp, lr}
 2320              		.loc 1 132 0
 2321 0234 FFF7FEBF 		b	pbuf_free
 2322              	.L363:
 2323              		.align	2
 2324              	.L362:
 2325 0238 00000000 		.word	lwip_stats
 2326 023c 00000000 		.word	.LANCHOR8
 2327 0240 00000000 		.word	current_iphdr_dest
 2328 0244 00000000 		.word	current_iphdr_src
 2329 0248 00000000 		.word	.LANCHOR0
 2330 024c 00000000 		.word	.LANCHOR2
 2331              	.LVL127:
 2332              	.L341:
 2333              		.loc 1 187 0 discriminator 1
 2334 0250 9978     		ldrb	r1, [r3, #2]	@ zero_extendqisi2
 2335 0252 DB78     		ldrb	r3, [r3, #3]	@ zero_extendqisi2
 2336              		.loc 1 186 0 discriminator 1
ARM GAS  /var/folders/5n/p_75w94d66l9ssrldxqdhh700000gn/T//ccYNR3t7.s 			page 42


 2337 0254 A28B     		ldrh	r2, [r4, #28]
 2338 0256 41EA0323 		orr	r3, r1, r3, lsl #8
 2339 025a 9A42     		cmp	r2, r3
 2340 025c C6D1     		bne	.L215
 2341              		.loc 1 187 0
 2342 025e 6268     		ldr	r2, [r4, #4]
 2343 0260 DBF80030 		ldr	r3, [fp, #0]
 2344 0264 9A42     		cmp	r2, r3
 2345 0266 C1D1     		bne	.L215
 2346              		.loc 1 188 0
 2347 0268 2268     		ldr	r2, [r4, #0]
 2348 026a 3B68     		ldr	r3, [r7, #0]
 2349 026c 9A42     		cmp	r2, r3
 2350 026e BDD1     		bne	.L215
 2351              		.loc 1 194 0
 2352 0270 E368     		ldr	r3, [r4, #12]
 2353 0272 A342     		cmp	r3, r4
 2354 0274 00F08280 		beq	.L342
 2355              	.L216:
 2356              		.loc 1 195 0
 2357 0278 BAF1000F 		cmp	sl, #0
 2358 027c 08D0     		beq	.L217
 2359              		.loc 1 197 0
 2360 027e 40F20000 		movw	r0, #:lower16:tcp_active_pcbs
 2361 0282 C0F20000 		movt	r0, #:upper16:tcp_active_pcbs
 2362              		.loc 1 196 0
 2363 0286 CAF80C30 		str	r3, [sl, #12]
 2364              		.loc 1 197 0
 2365 028a 0368     		ldr	r3, [r0, #0]
 2366              		.loc 1 198 0
 2367 028c 0460     		str	r4, [r0, #0]
 2368              		.loc 1 197 0
 2369 028e E360     		str	r3, [r4, #12]
 2370              	.L217:
 2371              		.loc 1 200 0
 2372 0290 A342     		cmp	r3, r4
 2373 0292 70D0     		beq	.L343
 2374              	.L218:
 2375              		.loc 1 206 0
 2376 0294 002C     		cmp	r4, #0
 2377 0296 00F02182 		beq	.L316
 2378              		.loc 1 293 0
 2379 029a 40F20000 		movw	r0, #:lower16:.LANCHOR5
 2380 029e 3389     		ldrh	r3, [r6, #8]
 2381              		.loc 1 295 0
 2382 02a0 D8F80010 		ldr	r1, [r8, #0]
 2383              		.loc 1 297 0
 2384 02a4 DFF8B0A2 		ldr	sl, .L364+24
 2385              		.loc 1 298 0
 2386 02a8 DFF8B0B2 		ldr	fp, .L364+28
 2387              		.loc 1 301 0
 2388 02ac D4F88020 		ldr	r2, [r4, #128]
 2389              		.loc 1 293 0
 2390 02b0 C0F20000 		movt	r0, #:upper16:.LANCHOR5
 2391 02b4 0381     		strh	r3, [r0, #8]	@ movhi
 2392              		.loc 1 292 0
 2393 02b6 0023     		movs	r3, #0
ARM GAS  /var/folders/5n/p_75w94d66l9ssrldxqdhh700000gn/T//ccYNR3t7.s 			page 43


 2394              		.loc 1 294 0
 2395 02b8 80E84800 		stmia	r0, {r3, r6}
 2396              		.loc 1 295 0
 2397 02bc C160     		str	r1, [r0, #12]
 2398              		.loc 1 297 0
 2399 02be CAF80030 		str	r3, [sl, #0]
 2400              		.loc 1 298 0
 2401 02c2 8BF80030 		strb	r3, [fp, #0]
 2402              		.loc 1 301 0
 2403 02c6 5AB1     		cbz	r2, .L238
 2404              		.loc 1 304 0
 2405 02c8 D4F88870 		ldr	r7, [r4, #136]
 2406 02cc 002F     		cmp	r7, #0
 2407 02ce 00F0F882 		beq	.L239
 2408              		.loc 1 304 0 is_stmt 0 discriminator 1
 2409 02d2 6069     		ldr	r0, [r4, #20]
 2410 02d4 2146     		mov	r1, r4
 2411 02d6 B847     		blx	r7
 2412              	.LVL128:
 2413              	.L240:
 2414              		.loc 1 305 0 is_stmt 1
 2415 02d8 0028     		cmp	r0, #0
 2416 02da 53D1     		bne	.L241
 2417              		.loc 1 306 0
 2418 02dc C4F88000 		str	r0, [r4, #128]
 2419              	.LVL129:
 2420              	.L238:
 2421              	.LBB11:
 2422              	.LBB12:
 2423              		.loc 1 581 0
 2424 02e0 99F80030 		ldrb	r3, [r9, #0]	@ zero_extendqisi2
 2425              	.LBE12:
 2426              	.LBE11:
 2427              		.loc 1 318 0
 2428 02e4 964D     		ldr	r5, .L364
 2429              	.LBB25:
 2430              	.LBB16:
 2431              		.loc 1 581 0
 2432 02e6 5907     		lsls	r1, r3, #29
 2433              	.LBE16:
 2434              	.LBE25:
 2435              		.loc 1 318 0
 2436 02e8 2C60     		str	r4, [r5, #0]
 2437              	.LVL130:
 2438              	.LBB26:
 2439              	.LBB17:
 2440              		.loc 1 581 0
 2441 02ea 60D5     		bpl	.L243
 2442              		.loc 1 583 0
 2443 02ec 237C     		ldrb	r3, [r4, #16]	@ zero_extendqisi2
 2444 02ee 022B     		cmp	r3, #2
 2445 02f0 00F0ED82 		beq	.L344
 2446              		.loc 1 588 0
 2447 02f4 40F20002 		movw	r2, #:lower16:.LANCHOR1
 2448 02f8 C0F20002 		movt	r2, #:upper16:.LANCHOR1
 2449 02fc 1168     		ldr	r1, [r2, #0]
 2450 02fe 626A     		ldr	r2, [r4, #36]
ARM GAS  /var/folders/5n/p_75w94d66l9ssrldxqdhh700000gn/T//ccYNR3t7.s 			page 44


 2451 0300 8A1A     		subs	r2, r1, r2
 2452 0302 04D4     		bmi	.L330
 2453 0304 218D     		ldrh	r1, [r4, #40]
 2454 0306 521A     		subs	r2, r2, r1
 2455 0308 002A     		cmp	r2, #0
 2456 030a 40F32F83 		ble	.L248
 2457              	.LVL131:
 2458              	.L330:
 2459              		.loc 1 763 0
 2460 030e 9BF80030 		ldrb	r3, [fp, #0]	@ zero_extendqisi2
 2461              	.LVL132:
 2462              	.L246:
 2463              	.LBE17:
 2464              	.LBE26:
 2465              		.loc 1 323 0
 2466 0312 1A07     		lsls	r2, r3, #28
 2467 0314 5AD5     		bpl	.L301
 2468              		.loc 1 328 0
 2469 0316 D4F89430 		ldr	r3, [r4, #148]
 2470 031a 1BB1     		cbz	r3, .L333
 2471              		.loc 1 328 0 is_stmt 0 discriminator 1
 2472 031c 6069     		ldr	r0, [r4, #20]
 2473 031e 6FF00A01 		mvn	r1, #10
 2474 0322 9847     		blx	r3
 2475              	.L333:
 2476              		.loc 1 334 0 is_stmt 1
 2477 0324 2146     		mov	r1, r4
 2478 0326 8748     		ldr	r0, .L364+4
 2479 0328 FFF7FEFF 		bl	tcp_pcb_remove
 2480              		.loc 1 335 0
 2481 032c 0220     		movs	r0, #2
 2482 032e 2146     		mov	r1, r4
 2483 0330 FFF7FEFF 		bl	memp_free
 2484              	.L303:
 2485              		.loc 1 405 0
 2486 0334 40F20001 		movw	r1, #:lower16:.LANCHOR5
 2487 0338 C0F20001 		movt	r1, #:upper16:.LANCHOR5
 2488              		.loc 1 401 0
 2489 033c 0024     		movs	r4, #0
 2490              	.LVL133:
 2491              		.loc 1 405 0
 2492 033e 4868     		ldr	r0, [r1, #4]
 2493              		.loc 1 401 0
 2494 0340 2C60     		str	r4, [r5, #0]
 2495              		.loc 1 402 0
 2496 0342 CAF80040 		str	r4, [sl, #0]
 2497              		.loc 1 405 0
 2498 0346 18B1     		cbz	r0, .L204
 2499              		.loc 1 407 0
 2500 0348 FFF7FEFF 		bl	pbuf_free
 2501              		.loc 1 408 0
 2502 034c 7E4B     		ldr	r3, .L364+8
 2503 034e 5C60     		str	r4, [r3, #4]
 2504              	.L204:
 2505              		.loc 1 427 0
 2506 0350 03B0     		add	sp, sp, #12
 2507 0352 BDE8F08F 		pop	{r4, r5, r6, r7, r8, r9, sl, fp, pc}
ARM GAS  /var/folders/5n/p_75w94d66l9ssrldxqdhh700000gn/T//ccYNR3t7.s 			page 45


 2508              	.LVL134:
 2509              	.L338:
 2510              		.loc 1 146 0
 2511 0356 B5F89820 		ldrh	r2, [r5, #152]
 2512              		.loc 1 147 0
 2513 035a B5F89630 		ldrh	r3, [r5, #150]
 2514              		.loc 1 146 0
 2515 035e 0132     		adds	r2, r2, #1
 2516              		.loc 1 147 0
 2517 0360 0133     		adds	r3, r3, #1
 2518              		.loc 1 149 0
 2519 0362 3046     		mov	r0, r6
 2520              		.loc 1 146 0
 2521 0364 A5F89820 		strh	r2, [r5, #152]	@ movhi
 2522              		.loc 1 147 0
 2523 0368 A5F89630 		strh	r3, [r5, #150]	@ movhi
 2524              		.loc 1 427 0
 2525 036c 03B0     		add	sp, sp, #12
 2526 036e BDE8F04F 		pop	{r4, r5, r6, r7, r8, r9, sl, fp, lr}
 2527              		.loc 1 149 0
 2528 0372 FFF7FEBF 		b	pbuf_free
 2529              	.LVL135:
 2530              	.L343:
 2531              		.loc 1 200 0 discriminator 1
 2532 0376 FFF7FEFF 		bl	port_halt
 2533 037a 8BE7     		b	.L218
 2534              	.L342:
 2535              		.loc 1 194 0 discriminator 1
 2536 037c FFF7FEFF 		bl	port_halt
 2537 0380 E368     		ldr	r3, [r4, #12]
 2538 0382 79E7     		b	.L216
 2539              	.LVL136:
 2540              	.L241:
 2541              		.loc 1 307 0
 2542 0384 40B2     		sxtb	r0, r0
 2543              	.LVL137:
 2544 0386 0A30     		adds	r0, r0, #10
 2545 0388 06D0     		beq	.L242
 2546              		.loc 1 307 0 is_stmt 0 discriminator 1
 2547 038a 40F20001 		movw	r1, #:lower16:.LANCHOR4
 2548 038e C0F20001 		movt	r1, #:upper16:.LANCHOR4
 2549 0392 0B88     		ldrh	r3, [r1, #0]
 2550 0394 002B     		cmp	r3, #0
 2551 0396 A3D0     		beq	.L238
 2552              	.L242:
 2553              		.loc 1 312 0 is_stmt 1
 2554 0398 B5F89630 		ldrh	r3, [r5, #150]
 2555              		.loc 1 314 0
 2556 039c 3046     		mov	r0, r6
 2557              		.loc 1 312 0
 2558 039e 0133     		adds	r3, r3, #1
 2559 03a0 A5F89630 		strh	r3, [r5, #150]	@ movhi
 2560              		.loc 1 427 0
 2561 03a4 03B0     		add	sp, sp, #12
 2562 03a6 BDE8F04F 		pop	{r4, r5, r6, r7, r8, r9, sl, fp, lr}
 2563              		.loc 1 314 0
 2564 03aa FFF7FEBF 		b	pbuf_free
ARM GAS  /var/folders/5n/p_75w94d66l9ssrldxqdhh700000gn/T//ccYNR3t7.s 			page 46


 2565              	.LVL138:
 2566              	.L243:
 2567              	.LBB27:
 2568              	.LBB18:
 2569              		.loc 1 609 0
 2570 03ae 9A07     		lsls	r2, r3, #30
 2571 03b0 5ED5     		bpl	.L249
 2572 03b2 237C     		ldrb	r3, [r4, #16]	@ zero_extendqisi2
 2573 03b4 023B     		subs	r3, r3, #2
 2574 03b6 012B     		cmp	r3, #1
 2575 03b8 5AD9     		bls	.L249
 2576              	.LVL139:
 2577              	.L266:
 2578              		.loc 1 671 0
 2579 03ba 94F82020 		ldrb	r2, [r4, #32]	@ zero_extendqisi2
 2580 03be 9BF80030 		ldrb	r3, [fp, #0]	@ zero_extendqisi2
 2581 03c2 42F00202 		orr	r2, r2, #2
 2582 03c6 84F82020 		strb	r2, [r4, #32]
 2583 03ca A2E7     		b	.L246
 2584              	.LVL140:
 2585              	.L301:
 2586              	.LBE18:
 2587              	.LBE27:
 2588              		.loc 1 331 0
 2589 03cc DB06     		lsls	r3, r3, #27
 2590 03ce A9D4     		bmi	.L333
 2591              	.LVL141:
 2592              		.loc 1 341 0
 2593 03d0 B4F86C20 		ldrh	r2, [r4, #108]
 2594 03d4 3AB1     		cbz	r2, .L305
 2595              		.loc 1 342 0
 2596 03d6 D4F88430 		ldr	r3, [r4, #132]
 2597 03da 23B1     		cbz	r3, .L305
 2598              		.loc 1 342 0 is_stmt 0 discriminator 1
 2599 03dc 6069     		ldr	r0, [r4, #20]
 2600 03de 2146     		mov	r1, r4
 2601 03e0 9847     		blx	r3
 2602              	.LVL142:
 2603              		.loc 1 343 0 is_stmt 1 discriminator 1
 2604 03e2 0A30     		adds	r0, r0, #10
 2605              	.LVL143:
 2606 03e4 A6D0     		beq	.L303
 2607              	.L305:
 2608              		.loc 1 348 0
 2609 03e6 DAF80030 		ldr	r3, [sl, #0]
 2610 03ea 33B3     		cbz	r3, .L306
 2611              		.loc 1 349 0
 2612 03ec D4F88030 		ldr	r3, [r4, #128]
 2613 03f0 0BB1     		cbz	r3, .L307
 2614              		.loc 1 349 0 is_stmt 0 discriminator 1
 2615 03f2 FFF7FEFF 		bl	port_halt
 2616              	.L307:
 2617              		.loc 1 350 0 is_stmt 1
 2618 03f6 94F82030 		ldrb	r3, [r4, #32]	@ zero_extendqisi2
 2619 03fa D806     		lsls	r0, r3, #27
 2620 03fc 00F1BB82 		bmi	.L345
 2621              		.loc 1 357 0
ARM GAS  /var/folders/5n/p_75w94d66l9ssrldxqdhh700000gn/T//ccYNR3t7.s 			page 47


 2622 0400 99F80030 		ldrb	r3, [r9, #0]	@ zero_extendqisi2
 2623 0404 1907     		lsls	r1, r3, #28
 2624              		.loc 1 358 0
 2625 0406 41BF     		itttt	mi
 2626 0408 DAF80030 		ldrmi	r3, [sl, #0]
 2627 040c 5A7B     		ldrbmi	r2, [r3, #13]	@ zero_extendqisi2
 2628 040e 42F00102 		orrmi	r2, r2, #1
 2629 0412 5A73     		strbmi	r2, [r3, #13]
 2630              		.loc 1 362 0
 2631 0414 D4F88860 		ldr	r6, [r4, #136]
 2632 0418 002E     		cmp	r6, #0
 2633 041a 00F0D582 		beq	.L310
 2634              		.loc 1 362 0 is_stmt 0 discriminator 1
 2635 041e 6069     		ldr	r0, [r4, #20]
 2636 0420 DAF80020 		ldr	r2, [sl, #0]
 2637 0424 2146     		mov	r1, r4
 2638 0426 0023     		movs	r3, #0
 2639 0428 B047     		blx	r6
 2640              	.LVL144:
 2641              	.L311:
 2642              		.loc 1 363 0 is_stmt 1
 2643 042a 43B2     		sxtb	r3, r0
 2644 042c 0A33     		adds	r3, r3, #10
 2645 042e 81D0     		beq	.L303
 2646              		.loc 1 368 0
 2647 0430 18B1     		cbz	r0, .L306
 2648              		.loc 1 369 0
 2649 0432 DAF80030 		ldr	r3, [sl, #0]
 2650 0436 C4F88030 		str	r3, [r4, #128]
 2651              	.LVL145:
 2652              	.L306:
 2653              		.loc 1 376 0
 2654 043a 9BF80030 		ldrb	r3, [fp, #0]	@ zero_extendqisi2
 2655 043e 9A06     		lsls	r2, r3, #26
 2656 0440 10D5     		bpl	.L312
 2657              		.loc 1 379 0
 2658 0442 238D     		ldrh	r3, [r4, #40]
 2659 0444 B3F5066F 		cmp	r3, #2144
 2660 0448 01D0     		beq	.L313
 2661              		.loc 1 380 0
 2662 044a 0133     		adds	r3, r3, #1
 2663 044c 2385     		strh	r3, [r4, #40]	@ movhi
 2664              	.L313:
 2665              		.loc 1 382 0
 2666 044e D4F88860 		ldr	r6, [r4, #136]
 2667 0452 3EB1     		cbz	r6, .L312
 2668              		.loc 1 382 0 is_stmt 0 discriminator 1
 2669 0454 0022     		movs	r2, #0
 2670 0456 6069     		ldr	r0, [r4, #20]
 2671 0458 2146     		mov	r1, r4
 2672 045a 1346     		mov	r3, r2
 2673 045c B047     		blx	r6
 2674              	.LVL146:
 2675              		.loc 1 383 0 is_stmt 1 discriminator 1
 2676 045e 0A30     		adds	r0, r0, #10
 2677              	.LVL147:
 2678 0460 3FF468AF 		beq	.L303
ARM GAS  /var/folders/5n/p_75w94d66l9ssrldxqdhh700000gn/T//ccYNR3t7.s 			page 48


 2679              	.L312:
 2680              		.loc 1 388 0
 2681 0464 0023     		movs	r3, #0
 2682              		.loc 1 390 0
 2683 0466 2046     		mov	r0, r4
 2684              		.loc 1 388 0
 2685 0468 2B60     		str	r3, [r5, #0]
 2686              		.loc 1 390 0
 2687 046a FFF7FEFF 		bl	tcp_output
 2688 046e 61E7     		b	.L303
 2689              	.LVL148:
 2690              	.L249:
 2691              	.LBB28:
 2692              	.LBB19:
 2693              		.loc 1 615 0
 2694 0470 94F82030 		ldrb	r3, [r4, #32]	@ zero_extendqisi2
 2695 0474 DB06     		lsls	r3, r3, #27
 2696              		.loc 1 617 0
 2697 0476 5EBF     		ittt	pl
 2698 0478 344B     		ldrpl	r3, .L364+12
 2699 047a 1B68     		ldrpl	r3, [r3, #0]
 2700 047c 2363     		strpl	r3, [r4, #48]
 2701              		.loc 1 619 0
 2702 047e 0023     		movs	r3, #0
 2703 0480 84F8A130 		strb	r3, [r4, #161]
 2704              		.loc 1 621 0
 2705 0484 2046     		mov	r0, r4
 2706 0486 FFF7FEFF 		bl	tcp_parseopt
 2707              		.loc 1 624 0
 2708 048a 237C     		ldrb	r3, [r4, #16]	@ zero_extendqisi2
 2709 048c 023B     		subs	r3, r3, #2
 2710 048e 072B     		cmp	r3, #7
 2711 0490 3FF63DAF 		bhi	.L330
 2712 0494 DFE813F0 		tbh	[pc, r3, lsl #1]
 2713              	.L259:
 2714 0498 F100     		.2byte	(.L252-.L259)/2
 2715 049a BC00     		.2byte	(.L253-.L259)/2
 2716 049c AB00     		.2byte	(.L254-.L259)/2
 2717 049e 8D00     		.2byte	(.L255-.L259)/2
 2718 04a0 6400     		.2byte	(.L256-.L259)/2
 2719 04a2 AB00     		.2byte	(.L254-.L259)/2
 2720 04a4 1F00     		.2byte	(.L257-.L259)/2
 2721 04a6 0800     		.2byte	(.L258-.L259)/2
 2722              	.L258:
 2723              		.loc 1 777 0
 2724 04a8 2046     		mov	r0, r4
 2725 04aa FFF7FEFF 		bl	tcp_receive
 2726              		.loc 1 778 0
 2727 04ae 99F80030 		ldrb	r3, [r9, #0]	@ zero_extendqisi2
 2728 04b2 D906     		lsls	r1, r3, #27
 2729 04b4 7FF52BAF 		bpl	.L330
 2730 04b8 40F20000 		movw	r0, #:lower16:.LANCHOR3
 2731 04bc C0F20000 		movt	r0, #:upper16:.LANCHOR3
 2732 04c0 A26D     		ldr	r2, [r4, #88]
 2733 04c2 0368     		ldr	r3, [r0, #0]
 2734 04c4 9A42     		cmp	r2, r3
 2735              		.loc 1 781 0
ARM GAS  /var/folders/5n/p_75w94d66l9ssrldxqdhh700000gn/T//ccYNR3t7.s 			page 49


 2736 04c6 9BF80030 		ldrb	r3, [fp, #0]	@ zero_extendqisi2
 2737 04ca 04BF     		itt	eq
 2738 04cc 43F01003 		orreq	r3, r3, #16
 2739 04d0 8BF80030 		strbeq	r3, [fp, #0]
 2740 04d4 1DE7     		b	.L246
 2741              	.L257:
 2742              		.loc 1 767 0
 2743 04d6 2046     		mov	r0, r4
 2744 04d8 FFF7FEFF 		bl	tcp_receive
 2745              		.loc 1 768 0
 2746 04dc 99F80030 		ldrb	r3, [r9, #0]	@ zero_extendqisi2
 2747 04e0 D806     		lsls	r0, r3, #27
 2748 04e2 7FF514AF 		bpl	.L330
 2749 04e6 40F20000 		movw	r0, #:lower16:.LANCHOR3
 2750 04ea C0F20000 		movt	r0, #:upper16:.LANCHOR3
 2751 04ee A26D     		ldr	r2, [r4, #88]
 2752 04f0 0368     		ldr	r3, [r0, #0]
 2753 04f2 9A42     		cmp	r2, r3
 2754 04f4 7FF40BAF 		bne	.L330
 2755              		.loc 1 770 0
 2756 04f8 2046     		mov	r0, r4
 2757 04fa FFF7FEFF 		bl	tcp_pcb_purge
 2758              		.loc 1 771 0
 2759 04fe 40F20001 		movw	r1, #:lower16:tcp_active_pcbs
 2760 0502 C0F20001 		movt	r1, #:upper16:tcp_active_pcbs
 2761 0506 0B68     		ldr	r3, [r1, #0]
 2762 0508 9C42     		cmp	r4, r3
 2763 050a 00F0C682 		beq	.L336
 2764 050e 104A     		ldr	r2, .L364+16
 2765 0510 1360     		str	r3, [r2, #0]
 2766 0512 5BB1     		cbz	r3, .L286
 2767 0514 D968     		ldr	r1, [r3, #12]
 2768 0516 8C42     		cmp	r4, r1
 2769 0518 04D1     		bne	.L323
 2770 051a 80E2     		b	.L295
 2771              	.L298:
 2772 051c D968     		ldr	r1, [r3, #12]
 2773 051e 8C42     		cmp	r4, r1
 2774 0520 00F07C82 		beq	.L337
 2775              	.L323:
 2776 0524 0B46     		mov	r3, r1
 2777 0526 0029     		cmp	r1, #0
 2778 0528 F8D1     		bne	.L298
 2779              	.L335:
 2780              		.loc 1 761 0
 2781 052a 1360     		str	r3, [r2, #0]
 2782              	.L286:
 2783              		.loc 1 763 0
 2784 052c 094B     		ldr	r3, .L364+20
 2785 052e 1A68     		ldr	r2, [r3, #0]
 2786 0530 1C60     		str	r4, [r3, #0]
 2787              		.loc 1 762 0
 2788 0532 0A23     		movs	r3, #10
 2789 0534 2374     		strb	r3, [r4, #16]
 2790              		.loc 1 763 0
 2791 0536 E260     		str	r2, [r4, #12]
 2792 0538 FFF7FEFF 		bl	tcp_timer_needed
ARM GAS  /var/folders/5n/p_75w94d66l9ssrldxqdhh700000gn/T//ccYNR3t7.s 			page 50


 2793 053c E7E6     		b	.L330
 2794              	.L365:
 2795 053e 00BF     		.align	2
 2796              	.L364:
 2797 0540 00000000 		.word	.LANCHOR9
 2798 0544 00000000 		.word	tcp_active_pcbs
 2799 0548 00000000 		.word	.LANCHOR5
 2800 054c 00000000 		.word	tcp_ticks
 2801 0550 00000000 		.word	tcp_tmp_pcb
 2802 0554 00000000 		.word	tcp_tw_pcbs
 2803 0558 00000000 		.word	.LANCHOR6
 2804 055c 00000000 		.word	.LANCHOR7
 2805              	.L256:
 2806              		.loc 1 756 0
 2807 0560 2046     		mov	r0, r4
 2808 0562 FFF7FEFF 		bl	tcp_receive
 2809              		.loc 1 757 0
 2810 0566 9BF80030 		ldrb	r3, [fp, #0]	@ zero_extendqisi2
 2811 056a 9A06     		lsls	r2, r3, #26
 2812 056c 7FF5D1AE 		bpl	.L246
 2813              		.loc 1 759 0
 2814 0570 94F82030 		ldrb	r3, [r4, #32]	@ zero_extendqisi2
 2815 0574 43F00203 		orr	r3, r3, #2
 2816 0578 84F82030 		strb	r3, [r4, #32]
 2817              		.loc 1 760 0
 2818 057c 2046     		mov	r0, r4
 2819 057e FFF7FEFF 		bl	tcp_pcb_purge
 2820              		.loc 1 761 0
 2821 0582 40F20001 		movw	r1, #:lower16:tcp_active_pcbs
 2822 0586 C0F20001 		movt	r1, #:upper16:tcp_active_pcbs
 2823 058a 0B68     		ldr	r3, [r1, #0]
 2824 058c 9C42     		cmp	r4, r3
 2825 058e 00F08482 		beq	.L336
 2826 0592 864A     		ldr	r2, .L366
 2827 0594 1360     		str	r3, [r2, #0]
 2828 0596 002B     		cmp	r3, #0
 2829 0598 C8D0     		beq	.L286
 2830 059a D968     		ldr	r1, [r3, #12]
 2831 059c 8C42     		cmp	r4, r1
 2832 059e 04D1     		bne	.L322
 2833 05a0 3DE2     		b	.L295
 2834              	.L290:
 2835 05a2 D968     		ldr	r1, [r3, #12]
 2836 05a4 8C42     		cmp	r4, r1
 2837 05a6 00F03982 		beq	.L337
 2838              	.L322:
 2839 05aa 0B46     		mov	r3, r1
 2840 05ac 0029     		cmp	r1, #0
 2841 05ae F8D1     		bne	.L290
 2842 05b0 BBE7     		b	.L335
 2843              	.L255:
 2844              		.loc 1 737 0
 2845 05b2 2046     		mov	r0, r4
 2846 05b4 FFF7FEFF 		bl	tcp_receive
 2847              		.loc 1 738 0
 2848 05b8 9BF80030 		ldrb	r3, [fp, #0]	@ zero_extendqisi2
 2849              		.loc 1 739 0
ARM GAS  /var/folders/5n/p_75w94d66l9ssrldxqdhh700000gn/T//ccYNR3t7.s 			page 51


 2850 05bc 99F80020 		ldrb	r2, [r9, #0]	@ zero_extendqisi2
 2851              		.loc 1 738 0
 2852 05c0 9906     		lsls	r1, r3, #26
 2853 05c2 40F11C82 		bpl	.L279
 2854              		.loc 1 739 0
 2855 05c6 D006     		lsls	r0, r2, #27
 2856 05c8 08D5     		bpl	.L280
 2857 05ca 40F20000 		movw	r0, #:lower16:.LANCHOR3
 2858 05ce C0F20000 		movt	r0, #:upper16:.LANCHOR3
 2859 05d2 A16D     		ldr	r1, [r4, #88]
 2860 05d4 0268     		ldr	r2, [r0, #0]
 2861 05d6 9142     		cmp	r1, r2
 2862 05d8 00F06382 		beq	.L346
 2863              	.L280:
 2864              		.loc 1 748 0
 2865 05dc 94F82020 		ldrb	r2, [r4, #32]	@ zero_extendqisi2
 2866 05e0 42F00202 		orr	r2, r2, #2
 2867 05e4 84F82020 		strb	r2, [r4, #32]
 2868              		.loc 1 749 0
 2869 05e8 0822     		movs	r2, #8
 2870 05ea 2274     		strb	r2, [r4, #16]
 2871 05ec 91E6     		b	.L246
 2872              	.L254:
 2873              		.loc 1 730 0
 2874 05ee 2046     		mov	r0, r4
 2875 05f0 FFF7FEFF 		bl	tcp_receive
 2876              		.loc 1 731 0
 2877 05f4 9BF80030 		ldrb	r3, [fp, #0]	@ zero_extendqisi2
 2878 05f8 9806     		lsls	r0, r3, #26
 2879 05fa 7FF58AAE 		bpl	.L246
 2880              	.LVL149:
 2881              	.L331:
 2882              		.loc 1 732 0
 2883 05fe 94F82020 		ldrb	r2, [r4, #32]	@ zero_extendqisi2
 2884 0602 42F00202 		orr	r2, r2, #2
 2885 0606 84F82020 		strb	r2, [r4, #32]
 2886              		.loc 1 733 0
 2887 060a 0722     		movs	r2, #7
 2888 060c 2274     		strb	r2, [r4, #16]
 2889 060e 80E6     		b	.L246
 2890              	.LVL150:
 2891              	.L253:
 2892              		.loc 1 681 0
 2893 0610 99F80030 		ldrb	r3, [r9, #0]	@ zero_extendqisi2
 2894 0614 D906     		lsls	r1, r3, #27
 2895 0616 40F1DF81 		bpl	.L269
 2896              		.loc 1 683 0
 2897 061a 40F20001 		movw	r1, #:lower16:.LANCHOR3
 2898 061e C0F20001 		movt	r1, #:upper16:.LANCHOR3
 2899 0622 E36C     		ldr	r3, [r4, #76]
 2900 0624 0868     		ldr	r0, [r1, #0]
 2901 0626 DB43     		mvns	r3, r3
 2902 0628 C342     		cmn	r3, r0
 2903 062a 04D4     		bmi	.L270
 2904 062c A36D     		ldr	r3, [r4, #88]
 2905 062e C31A     		subs	r3, r0, r3
 2906 0630 002B     		cmp	r3, #0
ARM GAS  /var/folders/5n/p_75w94d66l9ssrldxqdhh700000gn/T//ccYNR3t7.s 			page 52


 2907 0632 40F3F781 		ble	.L347
 2908              	.L270:
 2909              		.loc 1 720 0
 2910 0636 D8F80010 		ldr	r1, [r8, #0]
 2911              		.loc 1 719 0
 2912 063a 40F20002 		movw	r2, #:lower16:.LANCHOR4
 2913 063e 91F802C0 		ldrb	ip, [r1, #2]	@ zero_extendqisi2
 2914 0642 CE78     		ldrb	r6, [r1, #3]	@ zero_extendqisi2
 2915              	.LVL151:
 2916 0644 40F20003 		movw	r3, #:lower16:.LANCHOR1
 2917 0648 C0F20002 		movt	r2, #:upper16:.LANCHOR4
 2918 064c C0F20003 		movt	r3, #:upper16:.LANCHOR1
 2919 0650 4CEA0626 		orr	r6, ip, r6, lsl #8
 2920 0654 1788     		ldrh	r7, [r2, #0]
 2921 0656 D3F800E0 		ldr	lr, [r3, #0]
 2922 065a 0096     		str	r6, [sp, #0]
 2923 065c 91F800C0 		ldrb	ip, [r1, #0]	@ zero_extendqisi2
 2924 0660 4E78     		ldrb	r6, [r1, #1]	@ zero_extendqisi2
 2925 0662 534B     		ldr	r3, .L366+4
 2926 0664 534A     		ldr	r2, .L366+8
 2927 0666 4CEA0626 		orr	r6, ip, r6, lsl #8
 2928 066a 07EB0E01 		add	r1, r7, lr
 2929 066e 0196     		str	r6, [sp, #4]
 2930 0670 FFF7FEFF 		bl	tcp_rst
 2931 0674 9BF80030 		ldrb	r3, [fp, #0]	@ zero_extendqisi2
 2932 0678 4BE6     		b	.L246
 2933              	.LVL152:
 2934              	.L252:
 2935              		.loc 1 629 0
 2936 067a 99F80030 		ldrb	r3, [r9, #0]	@ zero_extendqisi2
 2937 067e 03F01202 		and	r2, r3, #18
 2938 0682 122A     		cmp	r2, #18
 2939 0684 00F0F081 		beq	.L348
 2940              	.LVL153:
 2941              	.L260:
 2942              		.loc 1 674 0
 2943 0688 D806     		lsls	r0, r3, #27
 2944 068a 7FF540AE 		bpl	.L330
 2945              		.loc 1 677 0
 2946 068e D8F80010 		ldr	r1, [r8, #0]
 2947              		.loc 1 676 0
 2948 0692 40F20003 		movw	r3, #:lower16:.LANCHOR4
 2949 0696 91F802C0 		ldrb	ip, [r1, #2]	@ zero_extendqisi2
 2950 069a CE78     		ldrb	r6, [r1, #3]	@ zero_extendqisi2
 2951 069c 40F20000 		movw	r0, #:lower16:.LANCHOR1
 2952 06a0 40F20002 		movw	r2, #:lower16:.LANCHOR3
 2953 06a4 C0F20003 		movt	r3, #:upper16:.LANCHOR4
 2954 06a8 C0F20000 		movt	r0, #:upper16:.LANCHOR1
 2955 06ac C0F20002 		movt	r2, #:upper16:.LANCHOR3
 2956 06b0 4CEA0626 		orr	r6, ip, r6, lsl #8
 2957 06b4 1F88     		ldrh	r7, [r3, #0]
 2958 06b6 D0F800E0 		ldr	lr, [r0, #0]
 2959 06ba 1068     		ldr	r0, [r2, #0]
 2960 06bc 0096     		str	r6, [sp, #0]
 2961 06be 91F800C0 		ldrb	ip, [r1, #0]	@ zero_extendqisi2
 2962 06c2 4E78     		ldrb	r6, [r1, #1]	@ zero_extendqisi2
 2963 06c4 3A4B     		ldr	r3, .L366+4
ARM GAS  /var/folders/5n/p_75w94d66l9ssrldxqdhh700000gn/T//ccYNR3t7.s 			page 53


 2964 06c6 3B4A     		ldr	r2, .L366+8
 2965 06c8 4CEA0626 		orr	r6, ip, r6, lsl #8
 2966 06cc 07EB0E01 		add	r1, r7, lr
 2967 06d0 0196     		str	r6, [sp, #4]
 2968 06d2 FFF7FEFF 		bl	tcp_rst
 2969 06d6 9BF80030 		ldrb	r3, [fp, #0]	@ zero_extendqisi2
 2970 06da 1AE6     		b	.L246
 2971              	.LVL154:
 2972              	.L316:
 2973              	.LBE19:
 2974              	.LBE28:
 2975              		.loc 1 209 0
 2976 06dc 364B     		ldr	r3, .L366+12
 2977 06de D3F800A0 		ldr	sl, [r3, #0]
 2978              	.LVL155:
 2979 06e2 BAF1000F 		cmp	sl, #0
 2980 06e6 4DD0     		beq	.L349
 2981              		.loc 1 213 0
 2982 06e8 DFF8C4B0 		ldr	fp, .L366+4
 2983 06ec 5446     		mov	r4, sl
 2984 06ee 02E0     		b	.L324
 2985              	.LVL156:
 2986              	.L224:
 2987              		.loc 1 209 0
 2988 06f0 E468     		ldr	r4, [r4, #12]
 2989              	.LVL157:
 2990 06f2 002C     		cmp	r4, #0
 2991 06f4 48D0     		beq	.L222
 2992              	.L324:
 2993              		.loc 1 210 0
 2994 06f6 237C     		ldrb	r3, [r4, #16]	@ zero_extendqisi2
 2995 06f8 0A2B     		cmp	r3, #10
 2996 06fa 01D0     		beq	.L223
 2997              		.loc 1 210 0 is_stmt 0 discriminator 1
 2998 06fc FFF7FEFF 		bl	port_halt
 2999              	.L223:
 3000              		.loc 1 211 0 is_stmt 1
 3001 0700 D8F80030 		ldr	r3, [r8, #0]
 3002 0704 E28B     		ldrh	r2, [r4, #30]
 3003 0706 1978     		ldrb	r1, [r3, #0]	@ zero_extendqisi2
 3004 0708 5878     		ldrb	r0, [r3, #1]	@ zero_extendqisi2
 3005 070a 41EA0021 		orr	r1, r1, r0, lsl #8
 3006 070e 8A42     		cmp	r2, r1
 3007 0710 EED1     		bne	.L224
 3008              		.loc 1 212 0 discriminator 1
 3009 0712 9878     		ldrb	r0, [r3, #2]	@ zero_extendqisi2
 3010 0714 93F803C0 		ldrb	ip, [r3, #3]	@ zero_extendqisi2
 3011 0718 A18B     		ldrh	r1, [r4, #28]
 3012              		.loc 1 211 0 discriminator 1
 3013 071a 40EA0C20 		orr	r0, r0, ip, lsl #8
 3014 071e 8142     		cmp	r1, r0
 3015 0720 E6D1     		bne	.L224
 3016              		.loc 1 212 0
 3017 0722 D4F804C0 		ldr	ip, [r4, #4]
 3018 0726 DBF80000 		ldr	r0, [fp, #0]
 3019 072a 8445     		cmp	ip, r0
 3020 072c E0D1     		bne	.L224
ARM GAS  /var/folders/5n/p_75w94d66l9ssrldxqdhh700000gn/T//ccYNR3t7.s 			page 54


 3021              		.loc 1 213 0
 3022 072e D4F800C0 		ldr	ip, [r4, #0]
 3023 0732 3868     		ldr	r0, [r7, #0]
 3024 0734 8445     		cmp	ip, r0
 3025 0736 DBD1     		bne	.L224
 3026              	.LBB29:
 3027              	.LBB30:
 3028              		.loc 1 533 0
 3029 0738 99F80030 		ldrb	r3, [r9, #0]	@ zero_extendqisi2
 3030 073c 5807     		lsls	r0, r3, #29
 3031 073e A246     		mov	sl, r4
 3032              	.LVL158:
 3033 0740 1446     		mov	r4, r2
 3034              	.LVL159:
 3035 0742 19D4     		bmi	.L318
 3036              	.LVL160:
 3037              		.loc 1 537 0
 3038 0744 9A07     		lsls	r2, r3, #30
 3039 0746 40F1EC81 		bpl	.L226
 3040              		.loc 1 540 0
 3041 074a 40F20002 		movw	r2, #:lower16:.LANCHOR1
 3042 074e C0F20002 		movt	r2, #:upper16:.LANCHOR1
 3043 0752 DAF82430 		ldr	r3, [sl, #36]
 3044 0756 1568     		ldr	r5, [r2, #0]
 3045 0758 EB1A     		subs	r3, r5, r3
 3046 075a 05D4     		bmi	.L227
 3047 075c BAF82820 		ldrh	r2, [sl, #40]
 3048 0760 9B1A     		subs	r3, r3, r2
 3049 0762 002B     		cmp	r3, #0
 3050 0764 40F3F581 		ble	.L350
 3051              	.L227:
 3052              		.loc 1 552 0
 3053 0768 40F20000 		movw	r0, #:lower16:.LANCHOR4
 3054 076c C0F20000 		movt	r0, #:upper16:.LANCHOR4
 3055 0770 0388     		ldrh	r3, [r0, #0]
 3056 0772 002B     		cmp	r3, #0
 3057 0774 40F0DC81 		bne	.L351
 3058              	.LVL161:
 3059              	.L318:
 3060              	.LBE30:
 3061              	.LBE29:
 3062              		.loc 1 422 0
 3063 0778 3046     		mov	r0, r6
 3064              		.loc 1 427 0
 3065 077a 03B0     		add	sp, sp, #12
 3066 077c BDE8F04F 		pop	{r4, r5, r6, r7, r8, r9, sl, fp, lr}
 3067              		.loc 1 422 0
 3068 0780 FFF7FEBF 		b	pbuf_free
 3069              	.LVL162:
 3070              	.L349:
 3071              		.loc 1 209 0
 3072 0784 D8F80030 		ldr	r3, [r8, #0]
 3073              	.LVL163:
 3074              	.L222:
 3075              		.loc 1 228 0
 3076 0788 DFF830B0 		ldr	fp, .L366+16
 3077 078c DBF800A0 		ldr	sl, [fp, #0]
ARM GAS  /var/folders/5n/p_75w94d66l9ssrldxqdhh700000gn/T//ccYNR3t7.s 			page 55


 3078              	.LVL164:
 3079 0790 BAF1000F 		cmp	sl, #0
 3080 0794 00F0B180 		beq	.L229
 3081 0798 9A78     		ldrb	r2, [r3, #2]	@ zero_extendqisi2
 3082 079a D978     		ldrb	r1, [r3, #3]	@ zero_extendqisi2
 3083              		.loc 1 240 0
 3084 079c D7F800C0 		ldr	ip, [r7, #0]
 3085              		.loc 1 228 0
 3086 07a0 42EA0121 		orr	r1, r2, r1, lsl #8
 3087              		.loc 1 240 0
 3088 07a4 5446     		mov	r4, sl
 3089              		.loc 1 227 0
 3090 07a6 0020     		movs	r0, #0
 3091 07a8 10E0     		b	.L232
 3092              	.L367:
 3093 07aa 00BF     		.align	2
 3094              	.L366:
 3095 07ac 00000000 		.word	tcp_tmp_pcb
 3096 07b0 00000000 		.word	current_iphdr_src
 3097 07b4 00000000 		.word	current_iphdr_dest
 3098 07b8 00000000 		.word	tcp_tw_pcbs
 3099 07bc 00000000 		.word	tcp_listen_pcbs
 3100              	.LVL165:
 3101              	.L230:
 3102              		.loc 1 228 0
 3103 07c0 E268     		ldr	r2, [r4, #12]
 3104              	.LVL166:
 3105 07c2 002A     		cmp	r2, #0
 3106 07c4 00F09980 		beq	.L229
 3107 07c8 2046     		mov	r0, r4
 3108 07ca 1446     		mov	r4, r2
 3109              	.LVL167:
 3110              	.L232:
 3111              		.loc 1 229 0
 3112 07cc A28B     		ldrh	r2, [r4, #28]
 3113 07ce 8A42     		cmp	r2, r1
 3114 07d0 F6D1     		bne	.L230
 3115              		.loc 1 240 0
 3116 07d2 2268     		ldr	r2, [r4, #0]
 3117 07d4 6245     		cmp	r2, ip
 3118 07d6 01D0     		beq	.L231
 3119              		.loc 1 241 0 discriminator 1
 3120 07d8 002A     		cmp	r2, #0
 3121 07da F1D1     		bne	.L230
 3122              	.L231:
 3123              		.loc 1 261 0
 3124 07dc 28B1     		cbz	r0, .L233
 3125              		.loc 1 262 0
 3126 07de E268     		ldr	r2, [r4, #12]
 3127              		.loc 1 266 0
 3128 07e0 CBF80040 		str	r4, [fp, #0]
 3129              		.loc 1 262 0
 3130 07e4 C260     		str	r2, [r0, #12]
 3131              		.loc 1 264 0
 3132 07e6 C4F80CA0 		str	sl, [r4, #12]
 3133              	.L233:
 3134              	.LVL168:
ARM GAS  /var/folders/5n/p_75w94d66l9ssrldxqdhh700000gn/T//ccYNR3t7.s 			page 56


 3135              	.LBB33:
 3136              	.LBB34:
 3137              		.loc 1 449 0
 3138 07ea 99F80020 		ldrb	r2, [r9, #0]	@ zero_extendqisi2
 3139 07ee 12F0100A 		ands	sl, r2, #16
 3140 07f2 40F0C880 		bne	.L352
 3141              		.loc 1 456 0
 3142 07f6 9007     		lsls	r0, r2, #30
 3143 07f8 BED5     		bpl	.L318
 3144              		.loc 1 464 0
 3145 07fa 607C     		ldrb	r0, [r4, #17]	@ zero_extendqisi2
 3146 07fc FFF7FEFF 		bl	tcp_alloc
 3147              	.LVL169:
 3148              		.loc 1 468 0
 3149 0800 8146     		mov	r9, r0
 3150 0802 0028     		cmp	r0, #0
 3151 0804 00F0B781 		beq	.L353
 3152              		.loc 1 479 0
 3153 0808 BC4B     		ldr	r3, .L368
 3154              		.loc 1 477 0
 3155 080a 3868     		ldr	r0, [r7, #0]
 3156              	.LVL170:
 3157              		.loc 1 478 0
 3158 080c A18B     		ldrh	r1, [r4, #28]
 3159              		.loc 1 479 0
 3160 080e 1A68     		ldr	r2, [r3, #0]
 3161              		.loc 1 477 0
 3162 0810 C9F80000 		str	r0, [r9, #0]
 3163              		.loc 1 480 0
 3164 0814 D8F80030 		ldr	r3, [r8, #0]
 3165              		.loc 1 478 0
 3166 0818 A9F81C10 		strh	r1, [r9, #28]	@ movhi
 3167              		.loc 1 482 0
 3168 081c 40F20000 		movw	r0, #:lower16:.LANCHOR1
 3169              		.loc 1 479 0
 3170 0820 C9F80420 		str	r2, [r9, #4]
 3171              		.loc 1 482 0
 3172 0824 C0F20000 		movt	r0, #:upper16:.LANCHOR1
 3173              		.loc 1 480 0
 3174 0828 93F801C0 		ldrb	ip, [r3, #1]	@ zero_extendqisi2
 3175 082c 93F800E0 		ldrb	lr, [r3, #0]	@ zero_extendqisi2
 3176              		.loc 1 482 0
 3177 0830 0268     		ldr	r2, [r0, #0]
 3178              		.loc 1 487 0
 3179 0832 6769     		ldr	r7, [r4, #20]
 3180              		.loc 1 489 0
 3181 0834 A569     		ldr	r5, [r4, #24]
 3182              		.loc 1 495 0
 3183 0836 40F20001 		movw	r1, #:lower16:tcp_active_pcbs
 3184 083a C0F20001 		movt	r1, #:upper16:tcp_active_pcbs
 3185              		.loc 1 480 0
 3186 083e 4EEA0C2E 		orr	lr, lr, ip, lsl #8
 3187              		.loc 1 495 0
 3188 0842 0868     		ldr	r0, [r1, #0]
 3189              		.loc 1 480 0
 3190 0844 A9F81EE0 		strh	lr, [r9, #30]	@ movhi
 3191              		.loc 1 482 0
ARM GAS  /var/folders/5n/p_75w94d66l9ssrldxqdhh700000gn/T//ccYNR3t7.s 			page 57


 3192 0848 511C     		adds	r1, r2, #1
 3193              		.loc 1 481 0
 3194 084a 4FF0030E 		mov	lr, #3
 3195 084e 89F810E0 		strb	lr, [r9, #16]
 3196              		.loc 1 482 0
 3197 0852 C9F82410 		str	r1, [r9, #36]
 3198              		.loc 1 483 0
 3199 0856 C9F82C10 		str	r1, [r9, #44]
 3200              		.loc 1 484 0
 3201 085a 997B     		ldrb	r1, [r3, #14]	@ zero_extendqisi2
 3202 085c DB7B     		ldrb	r3, [r3, #15]	@ zero_extendqisi2
 3203              		.loc 1 487 0
 3204 085e C9F81470 		str	r7, [r9, #20]
 3205              		.loc 1 484 0
 3206 0862 41EA0323 		orr	r3, r1, r3, lsl #8
 3207              		.loc 1 486 0
 3208 0866 013A     		subs	r2, r2, #1
 3209 0868 C9F86020 		str	r2, [r9, #96]
 3210              		.loc 1 484 0
 3211 086c A9F85C30 		strh	r3, [r9, #92]	@ movhi
 3212              		.loc 1 485 0
 3213 0870 A9F85430 		strh	r3, [r9, #84]	@ movhi
 3214              		.loc 1 489 0
 3215 0874 C9F81850 		str	r5, [r9, #24]
 3216              		.loc 1 492 0
 3217 0878 237A     		ldrb	r3, [r4, #8]	@ zero_extendqisi2
 3218              		.loc 1 495 0
 3219 087a C9F80C00 		str	r0, [r9, #12]
 3220 087e 40F20002 		movw	r2, #:lower16:tcp_active_pcbs
 3221 0882 C0F20002 		movt	r2, #:upper16:tcp_active_pcbs
 3222              		.loc 1 492 0
 3223 0886 23F07303 		bic	r3, r3, #115
 3224 088a 89F80830 		strb	r3, [r9, #8]
 3225              		.loc 1 495 0
 3226 088e C2F80090 		str	r9, [r2, #0]
 3227 0892 FFF7FEFF 		bl	tcp_timer_needed
 3228              		.loc 1 498 0
 3229 0896 4846     		mov	r0, r9
 3230 0898 FFF7FEFF 		bl	tcp_parseopt
 3231              		.loc 1 500 0
 3232 089c 09F10401 		add	r1, r9, #4
 3233 08a0 B9F83800 		ldrh	r0, [r9, #56]
 3234 08a4 FFF7FEFF 		bl	tcp_eff_send_mss
 3235              		.loc 1 506 0
 3236 08a8 1221     		movs	r1, #18
 3237              		.loc 1 500 0
 3238 08aa A9F83800 		strh	r0, [r9, #56]	@ movhi
 3239              		.loc 1 506 0
 3240 08ae 4846     		mov	r0, r9
 3241 08b0 FFF7FEFF 		bl	tcp_enqueue_flags
 3242              	.LVL171:
 3243              		.loc 1 507 0
 3244 08b4 0028     		cmp	r0, #0
 3245 08b6 40F08280 		bne	.L354
 3246              		.loc 1 511 0
 3247 08ba 4846     		mov	r0, r9
 3248              	.LVL172:
ARM GAS  /var/folders/5n/p_75w94d66l9ssrldxqdhh700000gn/T//ccYNR3t7.s 			page 58


 3249 08bc FFF7FEFF 		bl	tcp_output
 3250 08c0 5AE7     		b	.L318
 3251              	.LVL173:
 3252              	.L239:
 3253              	.LBE34:
 3254              	.LBE33:
 3255              		.loc 1 304 0 discriminator 2
 3256 08c2 3846     		mov	r0, r7
 3257 08c4 2146     		mov	r1, r4
 3258 08c6 3B46     		mov	r3, r7
 3259 08c8 FFF7FEFF 		bl	tcp_recv_null
 3260              	.LVL174:
 3261 08cc 04E5     		b	.L240
 3262              	.LVL175:
 3263              	.L344:
 3264              	.LBB37:
 3265              	.LBB20:
 3266              		.loc 1 584 0
 3267 08ce 40F20000 		movw	r0, #:lower16:.LANCHOR3
 3268 08d2 C0F20000 		movt	r0, #:upper16:.LANCHOR3
 3269 08d6 A26D     		ldr	r2, [r4, #88]
 3270 08d8 0368     		ldr	r3, [r0, #0]
 3271 08da 9A42     		cmp	r2, r3
 3272 08dc 7FF417AD 		bne	.L330
 3273              	.LVL176:
 3274              	.L245:
 3275              		.loc 1 597 0
 3276 08e0 9BF80030 		ldrb	r3, [fp, #0]	@ zero_extendqisi2
 3277              		.loc 1 598 0
 3278 08e4 94F82020 		ldrb	r2, [r4, #32]	@ zero_extendqisi2
 3279              		.loc 1 597 0
 3280 08e8 43F00803 		orr	r3, r3, #8
 3281              		.loc 1 598 0
 3282 08ec 22F00102 		bic	r2, r2, #1
 3283              		.loc 1 597 0
 3284 08f0 8BF80030 		strb	r3, [fp, #0]
 3285              		.loc 1 598 0
 3286 08f4 84F82020 		strb	r2, [r4, #32]
 3287 08f8 0BE5     		b	.L246
 3288              	.LVL177:
 3289              	.L229:
 3290              	.LBE20:
 3291              	.LBE37:
 3292              		.loc 1 415 0
 3293 08fa 1A7B     		ldrb	r2, [r3, #12]	@ zero_extendqisi2
 3294 08fc 587B     		ldrb	r0, [r3, #13]	@ zero_extendqisi2
 3295 08fe 42EA0020 		orr	r0, r2, r0, lsl #8
 3296 0902 FFF7FEFF 		bl	lwip_ntohs
 3297 0906 4307     		lsls	r3, r0, #29
 3298 0908 3FF536AF 		bmi	.L318
 3299              		.loc 1 416 0
 3300 090c B5F8A0E0 		ldrh	lr, [r5, #160]
 3301              		.loc 1 417 0
 3302 0910 B5F89640 		ldrh	r4, [r5, #150]
 3303              		.loc 1 420 0
 3304 0914 D8F800C0 		ldr	ip, [r8, #0]
 3305              		.loc 1 418 0
ARM GAS  /var/folders/5n/p_75w94d66l9ssrldxqdhh700000gn/T//ccYNR3t7.s 			page 59


 3306 0918 40F20002 		movw	r2, #:lower16:.LANCHOR3
 3307              		.loc 1 417 0
 3308 091c 0134     		adds	r4, r4, #1
 3309              		.loc 1 418 0
 3310 091e C0F20002 		movt	r2, #:upper16:.LANCHOR3
 3311              		.loc 1 416 0
 3312 0922 0EF1010E 		add	lr, lr, #1
 3313 0926 A5F8A0E0 		strh	lr, [r5, #160]	@ movhi
 3314              		.loc 1 417 0
 3315 092a A5F89640 		strh	r4, [r5, #150]	@ movhi
 3316              		.loc 1 418 0
 3317 092e 9CF80350 		ldrb	r5, [ip, #3]	@ zero_extendqisi2
 3318 0932 1068     		ldr	r0, [r2, #0]
 3319 0934 9CF80240 		ldrb	r4, [ip, #2]	@ zero_extendqisi2
 3320 0938 40F20003 		movw	r3, #:lower16:.LANCHOR4
 3321 093c 40F20002 		movw	r2, #:lower16:.LANCHOR1
 3322 0940 C0F20003 		movt	r3, #:upper16:.LANCHOR4
 3323 0944 C0F20002 		movt	r2, #:upper16:.LANCHOR1
 3324 0948 44EA0524 		orr	r4, r4, r5, lsl #8
 3325 094c 1F88     		ldrh	r7, [r3, #0]
 3326 094e 1168     		ldr	r1, [r2, #0]
 3327 0950 0094     		str	r4, [sp, #0]
 3328 0952 9CF80040 		ldrb	r4, [ip, #0]	@ zero_extendqisi2
 3329 0956 9CF80150 		ldrb	r5, [ip, #1]	@ zero_extendqisi2
 3330 095a 694A     		ldr	r2, .L368+4
 3331 095c 674B     		ldr	r3, .L368
 3332 095e 44EA0524 		orr	r4, r4, r5, lsl #8
 3333 0962 7918     		adds	r1, r7, r1
 3334 0964 0194     		str	r4, [sp, #4]
 3335 0966 FFF7FEFF 		bl	tcp_rst
 3336 096a 05E7     		b	.L318
 3337              	.LVL178:
 3338              	.L248:
 3339              	.LBB38:
 3340              	.LBB21:
 3341              		.loc 1 596 0
 3342 096c 002B     		cmp	r3, #0
 3343 096e B7D1     		bne	.L245
 3344 0970 FFF7FEFF 		bl	port_halt
 3345 0974 B4E7     		b	.L245
 3346              	.LVL179:
 3347              	.L345:
 3348              	.LBE21:
 3349              	.LBE38:
 3350              		.loc 1 353 0
 3351 0976 DAF80000 		ldr	r0, [sl, #0]
 3352 097a FFF7FEFF 		bl	pbuf_free
 3353              	.L332:
 3354              		.loc 1 354 0
 3355 097e 2046     		mov	r0, r4
 3356 0980 FFF7FEFF 		bl	tcp_abort
 3357              		.loc 1 355 0
 3358 0984 D6E4     		b	.L303
 3359              	.LVL180:
 3360              	.L352:
 3361              	.LBB39:
 3362              	.LBB35:
ARM GAS  /var/folders/5n/p_75w94d66l9ssrldxqdhh700000gn/T//ccYNR3t7.s 			page 60


 3363              		.loc 1 453 0
 3364 0986 0091     		str	r1, [sp, #0]
 3365 0988 5F78     		ldrb	r7, [r3, #1]	@ zero_extendqisi2
 3366 098a 1C78     		ldrb	r4, [r3, #0]	@ zero_extendqisi2
 3367              	.LVL181:
 3368 098c 40F20001 		movw	r1, #:lower16:.LANCHOR3
 3369 0990 40F20002 		movw	r2, #:lower16:.LANCHOR4
 3370 0994 40F20003 		movw	r3, #:lower16:.LANCHOR1
 3371 0998 C0F20001 		movt	r1, #:upper16:.LANCHOR3
 3372 099c C0F20002 		movt	r2, #:upper16:.LANCHOR4
 3373 09a0 C0F20003 		movt	r3, #:upper16:.LANCHOR1
 3374 09a4 1588     		ldrh	r5, [r2, #0]
 3375 09a6 0868     		ldr	r0, [r1, #0]
 3376 09a8 1968     		ldr	r1, [r3, #0]
 3377 09aa 554A     		ldr	r2, .L368+4
 3378 09ac 534B     		ldr	r3, .L368
 3379 09ae 44EA0724 		orr	r4, r4, r7, lsl #8
 3380 09b2 0130     		adds	r0, r0, #1
 3381 09b4 6918     		adds	r1, r5, r1
 3382 09b6 0194     		str	r4, [sp, #4]
 3383 09b8 FFF7FEFF 		bl	tcp_rst
 3384 09bc DCE6     		b	.L318
 3385              	.LVL182:
 3386              	.L354:
 3387              		.loc 1 508 0
 3388 09be 4846     		mov	r0, r9
 3389              	.LVL183:
 3390 09c0 5146     		mov	r1, sl
 3391 09c2 FFF7FEFF 		bl	tcp_abandon
 3392 09c6 D7E6     		b	.L318
 3393              	.LVL184:
 3394              	.L310:
 3395              	.LBE35:
 3396              	.LBE39:
 3397              		.loc 1 362 0 discriminator 2
 3398 09c8 3046     		mov	r0, r6
 3399 09ca 2146     		mov	r1, r4
 3400 09cc DAF80020 		ldr	r2, [sl, #0]
 3401 09d0 3346     		mov	r3, r6
 3402 09d2 FFF7FEFF 		bl	tcp_recv_null
 3403              	.LVL185:
 3404 09d6 28E5     		b	.L311
 3405              	.LVL186:
 3406              	.L269:
 3407              	.LBB40:
 3408              	.LBB22:
 3409              		.loc 1 722 0
 3410 09d8 9B07     		lsls	r3, r3, #30
 3411 09da 7FF598AC 		bpl	.L330
 3412 09de 40F20000 		movw	r0, #:lower16:.LANCHOR1
 3413 09e2 C0F20000 		movt	r0, #:upper16:.LANCHOR1
 3414 09e6 626A     		ldr	r2, [r4, #36]
 3415 09e8 0368     		ldr	r3, [r0, #0]
 3416 09ea 013A     		subs	r2, r2, #1
 3417 09ec 9A42     		cmp	r2, r3
 3418 09ee 7FF48EAC 		bne	.L330
 3419              		.loc 1 724 0
ARM GAS  /var/folders/5n/p_75w94d66l9ssrldxqdhh700000gn/T//ccYNR3t7.s 			page 61


 3420 09f2 2046     		mov	r0, r4
 3421 09f4 FFF7FEFF 		bl	tcp_rexmit
 3422 09f8 9BF80030 		ldrb	r3, [fp, #0]	@ zero_extendqisi2
 3423 09fc 89E4     		b	.L246
 3424              	.L279:
 3425              		.loc 1 751 0
 3426 09fe D106     		lsls	r1, r2, #27
 3427 0a00 7FF587AC 		bpl	.L246
 3428 0a04 40F20000 		movw	r0, #:lower16:.LANCHOR3
 3429 0a08 C0F20000 		movt	r0, #:upper16:.LANCHOR3
 3430 0a0c A16D     		ldr	r1, [r4, #88]
 3431 0a0e 0268     		ldr	r2, [r0, #0]
 3432 0a10 9142     		cmp	r1, r2
 3433 0a12 7FF47EAC 		bne	.L246
 3434              		.loc 1 752 0
 3435 0a16 0622     		movs	r2, #6
 3436 0a18 2274     		strb	r2, [r4, #16]
 3437 0a1a 7AE4     		b	.L246
 3438              	.L337:
 3439              		.loc 1 771 0
 3440 0a1c 1360     		str	r3, [r2, #0]
 3441              	.L295:
 3442 0a1e E268     		ldr	r2, [r4, #12]
 3443 0a20 DA60     		str	r2, [r3, #12]
 3444 0a22 83E5     		b	.L286
 3445              	.L347:
 3446              	.LBB13:
 3447              		.loc 1 688 0
 3448 0a24 A369     		ldr	r3, [r4, #24]
 3449              		.loc 1 685 0
 3450 0a26 0422     		movs	r2, #4
 3451 0a28 2274     		strb	r2, [r4, #16]
 3452              		.loc 1 688 0
 3453 0a2a 002B     		cmp	r3, #0
 3454 0a2c 00F08A80 		beq	.L355
 3455              	.L271:
 3456              		.loc 1 691 0
 3457 0a30 6069     		ldr	r0, [r4, #20]
 3458 0a32 2146     		mov	r1, r4
 3459 0a34 0022     		movs	r2, #0
 3460 0a36 9847     		blx	r3
 3461              	.LVL187:
 3462              		.loc 1 692 0
 3463 0a38 0028     		cmp	r0, #0
 3464 0a3a 6BD1     		bne	.L356
 3465              		.loc 1 704 0
 3466 0a3c 2046     		mov	r0, r4
 3467              	.LVL188:
 3468              		.loc 1 701 0
 3469 0a3e B4F85260 		ldrh	r6, [r4, #82]
 3470              	.LVL189:
 3471              		.loc 1 704 0
 3472 0a42 FFF7FEFF 		bl	tcp_receive
 3473              		.loc 1 707 0
 3474 0a46 B4F86C30 		ldrh	r3, [r4, #108]
 3475 0a4a 13B1     		cbz	r3, .L274
 3476              		.loc 1 708 0
ARM GAS  /var/folders/5n/p_75w94d66l9ssrldxqdhh700000gn/T//ccYNR3t7.s 			page 62


 3477 0a4c 013B     		subs	r3, r3, #1
 3478 0a4e A4F86C30 		strh	r3, [r4, #108]	@ movhi
 3479              	.L274:
 3480              		.loc 1 711 0
 3481 0a52 012E     		cmp	r6, #1
 3482 0a54 228F     		ldrh	r2, [r4, #56]
 3483 0a56 61D0     		beq	.L357
 3484              	.L276:
 3485              		.loc 1 713 0
 3486 0a58 9BF80030 		ldrb	r3, [fp, #0]	@ zero_extendqisi2
 3487              		.loc 1 711 0
 3488 0a5c A4F85220 		strh	r2, [r4, #82]	@ movhi
 3489              		.loc 1 713 0
 3490 0a60 9A06     		lsls	r2, r3, #26
 3491 0a62 7FF556AC 		bpl	.L246
 3492 0a66 CAE5     		b	.L331
 3493              	.LVL190:
 3494              	.L348:
 3495              	.LBE13:
 3496              		.loc 1 630 0
 3497 0a68 A36F     		ldr	r3, [r4, #120]
 3498 0a6a DB68     		ldr	r3, [r3, #12]
 3499 0a6c 1979     		ldrb	r1, [r3, #4]	@ zero_extendqisi2
 3500 0a6e 5E79     		ldrb	r6, [r3, #5]	@ zero_extendqisi2
 3501              	.LVL191:
 3502 0a70 9A79     		ldrb	r2, [r3, #6]	@ zero_extendqisi2
 3503 0a72 DB79     		ldrb	r3, [r3, #7]	@ zero_extendqisi2
 3504 0a74 41EA0621 		orr	r1, r1, r6, lsl #8
 3505 0a78 41EA0242 		orr	r2, r1, r2, lsl #16
 3506 0a7c 42EA0360 		orr	r0, r2, r3, lsl #24
 3507 0a80 FFF7FEFF 		bl	lwip_ntohl
 3508 0a84 40F20001 		movw	r1, #:lower16:.LANCHOR3
 3509 0a88 C0F20001 		movt	r1, #:upper16:.LANCHOR3
 3510 0a8c 0130     		adds	r0, r0, #1
 3511 0a8e 0B68     		ldr	r3, [r1, #0]
 3512 0a90 9842     		cmp	r0, r3
 3513 0a92 76D0     		beq	.L261
 3514 0a94 1B4B     		ldr	r3, .L368+8
 3515 0a96 1B78     		ldrb	r3, [r3, #0]	@ zero_extendqisi2
 3516 0a98 F6E5     		b	.L260
 3517              	.LVL192:
 3518              	.L336:
 3519              		.loc 1 771 0
 3520 0a9a E268     		ldr	r2, [r4, #12]
 3521 0a9c 1A4B     		ldr	r3, .L368+12
 3522 0a9e 1A60     		str	r2, [r3, #0]
 3523 0aa0 44E5     		b	.L286
 3524              	.L346:
 3525              		.loc 1 742 0
 3526 0aa2 94F82030 		ldrb	r3, [r4, #32]	@ zero_extendqisi2
 3527 0aa6 43F00203 		orr	r3, r3, #2
 3528 0aaa 84F82030 		strb	r3, [r4, #32]
 3529              		.loc 1 743 0
 3530 0aae 2046     		mov	r0, r4
 3531 0ab0 FFF7FEFF 		bl	tcp_pcb_purge
 3532              		.loc 1 744 0
 3533 0ab4 40F20001 		movw	r1, #:lower16:tcp_active_pcbs
ARM GAS  /var/folders/5n/p_75w94d66l9ssrldxqdhh700000gn/T//ccYNR3t7.s 			page 63


 3534 0ab8 C0F20001 		movt	r1, #:upper16:tcp_active_pcbs
 3535 0abc 0B68     		ldr	r3, [r1, #0]
 3536 0abe 9C42     		cmp	r4, r3
 3537 0ac0 07D0     		beq	.L358
 3538 0ac2 124A     		ldr	r2, .L368+16
 3539 0ac4 1360     		str	r3, [r2, #0]
 3540              	.L283:
 3541 0ac6 B3B1     		cbz	r3, .L359
 3542 0ac8 D968     		ldr	r1, [r3, #12]
 3543 0aca 8C42     		cmp	r4, r1
 3544 0acc 0FD0     		beq	.L360
 3545 0ace 0B46     		mov	r3, r1
 3546 0ad0 F9E7     		b	.L283
 3547              	.L358:
 3548 0ad2 E268     		ldr	r2, [r4, #12]
 3549 0ad4 0C4B     		ldr	r3, .L368+12
 3550 0ad6 1A60     		str	r2, [r3, #0]
 3551              	.L282:
 3552              		.loc 1 746 0
 3553 0ad8 0D4B     		ldr	r3, .L368+20
 3554 0ada 1A68     		ldr	r2, [r3, #0]
 3555 0adc 1C60     		str	r4, [r3, #0]
 3556              		.loc 1 745 0
 3557 0ade 0A23     		movs	r3, #10
 3558 0ae0 2374     		strb	r3, [r4, #16]
 3559              		.loc 1 746 0
 3560 0ae2 E260     		str	r2, [r4, #12]
 3561 0ae4 FFF7FEFF 		bl	tcp_timer_needed
 3562 0ae8 9BF80030 		ldrb	r3, [fp, #0]	@ zero_extendqisi2
 3563 0aec 11E4     		b	.L246
 3564              	.L360:
 3565              		.loc 1 744 0
 3566 0aee E168     		ldr	r1, [r4, #12]
 3567 0af0 1360     		str	r3, [r2, #0]
 3568 0af2 D960     		str	r1, [r3, #12]
 3569 0af4 F0E7     		b	.L282
 3570              	.L359:
 3571 0af6 1360     		str	r3, [r2, #0]
 3572 0af8 EEE7     		b	.L282
 3573              	.L369:
 3574 0afa 00BF     		.align	2
 3575              	.L368:
 3576 0afc 00000000 		.word	current_iphdr_src
 3577 0b00 00000000 		.word	current_iphdr_dest
 3578 0b04 00000000 		.word	.LANCHOR2
 3579 0b08 00000000 		.word	tcp_active_pcbs
 3580 0b0c 00000000 		.word	tcp_tmp_pcb
 3581 0b10 00000000 		.word	tcp_tw_pcbs
 3582              	.LVL193:
 3583              	.L356:
 3584              	.LBB14:
 3585              		.loc 1 696 0
 3586 0b14 0A30     		adds	r0, r0, #10
 3587              	.LVL194:
 3588 0b16 3FF40DAC 		beq	.L303
 3589 0b1a 30E7     		b	.L332
 3590              	.LVL195:
ARM GAS  /var/folders/5n/p_75w94d66l9ssrldxqdhh700000gn/T//ccYNR3t7.s 			page 64


 3591              	.L357:
 3592              		.loc 1 711 0
 3593 0b1c 5200     		lsls	r2, r2, #1
 3594 0b1e 92B2     		uxth	r2, r2
 3595 0b20 9AE7     		b	.L276
 3596              	.LVL196:
 3597              	.L226:
 3598              	.LBE14:
 3599              	.LBE22:
 3600              	.LBE40:
 3601              	.LBB41:
 3602              	.LBB31:
 3603              		.loc 1 546 0
 3604 0b22 DB07     		lsls	r3, r3, #31
 3605              		.loc 1 549 0
 3606 0b24 42BF     		ittt	mi
 3607 0b26 404B     		ldrmi	r3, .L370
 3608 0b28 1B68     		ldrmi	r3, [r3, #0]
 3609 0b2a CAF83030 		strmi	r3, [sl, #48]
 3610 0b2e 1BE6     		b	.L227
 3611              	.L351:
 3612              		.loc 1 554 0
 3613 0b30 9AF82030 		ldrb	r3, [sl, #32]	@ zero_extendqisi2
 3614 0b34 43F00203 		orr	r3, r3, #2
 3615 0b38 8AF82030 		strb	r3, [sl, #32]
 3616              		.loc 1 555 0
 3617 0b3c 5046     		mov	r0, sl
 3618 0b3e FFF7FEFF 		bl	tcp_output
 3619 0b42 19E6     		b	.L318
 3620              	.LVL197:
 3621              	.L355:
 3622              	.LBE31:
 3623              	.LBE41:
 3624              	.LBB42:
 3625              	.LBB23:
 3626              	.LBB15:
 3627              		.loc 1 688 0
 3628 0b44 FFF7FEFF 		bl	port_halt
 3629              		.loc 1 691 0
 3630 0b48 A369     		ldr	r3, [r4, #24]
 3631 0b4a 002B     		cmp	r3, #0
 3632 0b4c 3FF417AF 		beq	.L332
 3633 0b50 6EE7     		b	.L271
 3634              	.LVL198:
 3635              	.L350:
 3636              	.LBE15:
 3637              	.LBE23:
 3638              	.LBE42:
 3639              	.LBB43:
 3640              	.LBB32:
 3641              		.loc 1 542 0
 3642 0b52 40F20003 		movw	r3, #:lower16:.LANCHOR4
 3643 0b56 C0F20003 		movt	r3, #:upper16:.LANCHOR4
 3644 0b5a 40F20002 		movw	r2, #:lower16:.LANCHOR3
 3645 0b5e 1F88     		ldrh	r7, [r3, #0]
 3646 0b60 324B     		ldr	r3, .L370+4
 3647 0b62 C0F20002 		movt	r2, #:upper16:.LANCHOR3
ARM GAS  /var/folders/5n/p_75w94d66l9ssrldxqdhh700000gn/T//ccYNR3t7.s 			page 65


 3648 0b66 1068     		ldr	r0, [r2, #0]
 3649 0b68 0091     		str	r1, [sp, #0]
 3650 0b6a 314A     		ldr	r2, .L370+8
 3651 0b6c 0194     		str	r4, [sp, #4]
 3652 0b6e 7919     		adds	r1, r7, r5
 3653 0b70 FFF7FEFF 		bl	tcp_rst
 3654 0b74 00E6     		b	.L318
 3655              	.LVL199:
 3656              	.L353:
 3657              	.LBE32:
 3658              	.LBE43:
 3659              	.LBB44:
 3660              	.LBB36:
 3661              		.loc 1 470 0
 3662 0b76 B5F89C30 		ldrh	r3, [r5, #156]
 3663 0b7a 0133     		adds	r3, r3, #1
 3664 0b7c A5F89C30 		strh	r3, [r5, #156]	@ movhi
 3665 0b80 FAE5     		b	.L318
 3666              	.LVL200:
 3667              	.L261:
 3668              	.LBE36:
 3669              	.LBE44:
 3670              	.LBB45:
 3671              	.LBB24:
 3672              		.loc 1 632 0
 3673 0b82 40F20002 		movw	r2, #:lower16:.LANCHOR1
 3674 0b86 C0F20002 		movt	r2, #:upper16:.LANCHOR1
 3675              		.loc 1 631 0
 3676 0b8a B4F86E60 		ldrh	r6, [r4, #110]
 3677              		.loc 1 632 0
 3678 0b8e 1368     		ldr	r3, [r2, #0]
 3679              		.loc 1 634 0
 3680 0b90 E064     		str	r0, [r4, #76]
 3681              		.loc 1 632 0
 3682 0b92 5A1C     		adds	r2, r3, #1
 3683              		.loc 1 635 0
 3684 0b94 D8F80010 		ldr	r1, [r8, #0]
 3685              		.loc 1 632 0
 3686 0b98 6262     		str	r2, [r4, #36]
 3687              		.loc 1 631 0
 3688 0b9a 701C     		adds	r0, r6, #1
 3689 0b9c A4F86E00 		strh	r0, [r4, #110]	@ movhi
 3690              		.loc 1 633 0
 3691 0ba0 E262     		str	r2, [r4, #44]
 3692              		.loc 1 635 0
 3693 0ba2 8A7B     		ldrb	r2, [r1, #14]	@ zero_extendqisi2
 3694 0ba4 C97B     		ldrb	r1, [r1, #15]	@ zero_extendqisi2
 3695              		.loc 1 640 0
 3696 0ba6 208F     		ldrh	r0, [r4, #56]
 3697              		.loc 1 636 0
 3698 0ba8 013B     		subs	r3, r3, #1
 3699              		.loc 1 635 0
 3700 0baa 42EA0122 		orr	r2, r2, r1, lsl #8
 3701              		.loc 1 636 0
 3702 0bae 2366     		str	r3, [r4, #96]
 3703              		.loc 1 637 0
 3704 0bb0 0423     		movs	r3, #4
ARM GAS  /var/folders/5n/p_75w94d66l9ssrldxqdhh700000gn/T//ccYNR3t7.s 			page 66


 3705              		.loc 1 635 0
 3706 0bb2 A4F85C20 		strh	r2, [r4, #92]	@ movhi
 3707              		.loc 1 637 0
 3708 0bb6 2374     		strb	r3, [r4, #16]
 3709              		.loc 1 640 0
 3710 0bb8 E118     		adds	r1, r4, r3
 3711 0bba FFF7FEFF 		bl	tcp_eff_send_mss
 3712              		.loc 1 647 0
 3713 0bbe B4F85230 		ldrh	r3, [r4, #82]
 3714              		.loc 1 640 0
 3715 0bc2 2087     		strh	r0, [r4, #56]	@ movhi
 3716              		.loc 1 645 0
 3717 0bc4 0A22     		movs	r2, #10
 3718 0bc6 02FB00F2 		mul	r2, r2, r0
 3719              		.loc 1 647 0
 3720 0bca 012B     		cmp	r3, #1
 3721              		.loc 1 645 0
 3722 0bcc A4F85420 		strh	r2, [r4, #84]	@ movhi
 3723              		.loc 1 647 0
 3724 0bd0 01D1     		bne	.L262
 3725 0bd2 4000     		lsls	r0, r0, #1
 3726 0bd4 80B2     		uxth	r0, r0
 3727              	.L262:
 3728              		.loc 1 648 0
 3729 0bd6 B4F87030 		ldrh	r3, [r4, #112]
 3730              		.loc 1 647 0
 3731 0bda A4F85200 		strh	r0, [r4, #82]	@ movhi
 3732              		.loc 1 648 0
 3733 0bde 0BB9     		cbnz	r3, .L263
 3734 0be0 FFF7FEFF 		bl	port_halt
 3735              	.L263:
 3736              		.loc 1 651 0
 3737 0be4 A06F     		ldr	r0, [r4, #120]
 3738              	.LVL201:
 3739              		.loc 1 649 0
 3740 0be6 B4F87020 		ldrh	r2, [r4, #112]
 3741              		.loc 1 652 0
 3742 0bea 0368     		ldr	r3, [r0, #0]
 3743              		.loc 1 649 0
 3744 0bec 013A     		subs	r2, r2, #1
 3745 0bee A4F87020 		strh	r2, [r4, #112]	@ movhi
 3746              		.loc 1 652 0
 3747 0bf2 A367     		str	r3, [r4, #120]
 3748              		.loc 1 656 0
 3749 0bf4 9BB1     		cbz	r3, .L361
 3750              		.loc 1 659 0
 3751 0bf6 0023     		movs	r3, #0
 3752 0bf8 E386     		strh	r3, [r4, #54]	@ movhi
 3753              		.loc 1 660 0
 3754 0bfa 84F84A30 		strb	r3, [r4, #74]
 3755              	.L265:
 3756              		.loc 1 663 0
 3757 0bfe FFF7FEFF 		bl	tcp_seg_free
 3758              	.LVL202:
 3759              		.loc 1 667 0
 3760 0c02 D4F88C30 		ldr	r3, [r4, #140]
 3761 0c06 002B     		cmp	r3, #0
ARM GAS  /var/folders/5n/p_75w94d66l9ssrldxqdhh700000gn/T//ccYNR3t7.s 			page 67


 3762 0c08 3FF4D7AB 		beq	.L266
 3763 0c0c 0022     		movs	r2, #0
 3764 0c0e 6069     		ldr	r0, [r4, #20]
 3765 0c10 2146     		mov	r1, r4
 3766 0c12 9847     		blx	r3
 3767              	.LVL203:
 3768              		.loc 1 668 0
 3769 0c14 0A30     		adds	r0, r0, #10
 3770              	.LVL204:
 3771 0c16 7FF4D0AB 		bne	.L266
 3772 0c1a FFF78BBB 		b	.L303
 3773              	.LVL205:
 3774              	.L361:
 3775              		.loc 1 657 0
 3776 0c1e 4FF6FF73 		movw	r3, #65535
 3777 0c22 E386     		strh	r3, [r4, #54]	@ movhi
 3778 0c24 EBE7     		b	.L265
 3779              	.L371:
 3780 0c26 00BF     		.align	2
 3781              	.L370:
 3782 0c28 00000000 		.word	tcp_ticks
 3783 0c2c 00000000 		.word	current_iphdr_src
 3784 0c30 00000000 		.word	current_iphdr_dest
 3785              	.LBE24:
 3786              	.LBE45:
 3787              		.cfi_endproc
 3788              	.LFE7:
 3789              		.size	tcp_input, .-tcp_input
 3790              		.global	tcp_input_pcb
 3791 0c34 AFF30080 		.section	.bss.tcphdr,"aw",%nobits
 3791      AFF30080 
 3791      AFF30080 
 3792              		.align	2
 3793              		.set	.LANCHOR0,. + 0
 3794              		.type	tcphdr, %object
 3795              		.size	tcphdr, 4
 3796              	tcphdr:
 3797 0000 00000000 		.space	4
 3798              		.section	.bss.seqno,"aw",%nobits
 3799              		.align	2
 3800              		.set	.LANCHOR1,. + 0
 3801              		.type	seqno, %object
 3802              		.size	seqno, 4
 3803              	seqno:
 3804 0000 00000000 		.space	4
 3805              		.section	.bss.tcplen,"aw",%nobits
 3806              		.align	1
 3807              		.set	.LANCHOR4,. + 0
 3808              		.type	tcplen, %object
 3809              		.size	tcplen, 2
 3810              	tcplen:
 3811 0000 0000     		.space	2
 3812              		.section	.bss.ackno,"aw",%nobits
 3813              		.align	2
 3814              		.set	.LANCHOR3,. + 0
 3815              		.type	ackno, %object
 3816              		.size	ackno, 4
ARM GAS  /var/folders/5n/p_75w94d66l9ssrldxqdhh700000gn/T//ccYNR3t7.s 			page 68


 3817              	ackno:
 3818 0000 00000000 		.space	4
 3819              		.section	.bss.flags,"aw",%nobits
 3820              		.set	.LANCHOR2,. + 0
 3821              		.type	flags, %object
 3822              		.size	flags, 1
 3823              	flags:
 3824 0000 00       		.space	1
 3825              		.section	.bss.recv_flags,"aw",%nobits
 3826              		.set	.LANCHOR7,. + 0
 3827              		.type	recv_flags, %object
 3828              		.size	recv_flags, 1
 3829              	recv_flags:
 3830 0000 00       		.space	1
 3831              		.section	.bss.recv_data,"aw",%nobits
 3832              		.align	2
 3833              		.set	.LANCHOR6,. + 0
 3834              		.type	recv_data, %object
 3835              		.size	recv_data, 4
 3836              	recv_data:
 3837 0000 00000000 		.space	4
 3838              		.section	.bss.iphdr,"aw",%nobits
 3839              		.align	2
 3840              		.set	.LANCHOR8,. + 0
 3841              		.type	iphdr, %object
 3842              		.size	iphdr, 4
 3843              	iphdr:
 3844 0000 00000000 		.space	4
 3845              		.section	.bss.inseg,"aw",%nobits
 3846              		.align	2
 3847              		.set	.LANCHOR5,. + 0
 3848              		.type	inseg, %object
 3849              		.size	inseg, 16
 3850              	inseg:
 3851 0000 00000000 		.space	16
 3851      00000000 
 3851      00000000 
 3851      00000000 
 3852              		.section	.bss.tcp_input_pcb,"aw",%nobits
 3853              		.align	2
 3854              		.set	.LANCHOR9,. + 0
 3855              		.type	tcp_input_pcb, %object
 3856              		.size	tcp_input_pcb, 4
 3857              	tcp_input_pcb:
 3858 0000 00000000 		.space	4
 3859              		.text
 3860              	.Letext0:
 3861              		.file 2 "/usr/local/summon/lib/gcc/arm-none-eabi/4.6.2/../../../../arm-none-eabi/include/stdint.h"
 3862              		.file 3 "../../os/various/lwip_bindings/arch/cc.h"
 3863              		.file 4 "../../ext/lwip/src/include/lwip/err.h"
 3864              		.file 5 "../../ext/lwip/src/include/lwip/mem.h"
 3865              		.file 6 "../../ext/lwip/src/include/lwip/pbuf.h"
 3866              		.file 7 "../../ext/lwip/src/include/ipv4/lwip/ip_addr.h"
 3867              		.file 8 "../../ext/lwip/src/include/lwip/netif.h"
 3868              		.file 9 "../../ext/lwip/src/include/ipv4/lwip/ip.h"
 3869              		.file 10 "../../ext/lwip/src/include/lwip/tcp.h"
 3870              		.file 11 "../../ext/lwip/src/include/lwip/tcp_impl.h"
ARM GAS  /var/folders/5n/p_75w94d66l9ssrldxqdhh700000gn/T//ccYNR3t7.s 			page 69


 3871              		.file 12 "../../ext/lwip/src/include/lwip/stats.h"
 3872              		.file 13 "../../ext/lwip/src/include/lwip/memp.h"
 3873              		.section	.debug_info,"",%progbits
 3874              	.Ldebug_info0:
 3875 0000 66110000 		.4byte	0x1166
 3876 0004 0200     		.2byte	0x2
 3877 0006 00000000 		.4byte	.Ldebug_abbrev0
 3878 000a 04       		.byte	0x4
 3879 000b 01       		.uleb128 0x1
 3880 000c 3B030000 		.4byte	.LASF203
 3881 0010 01       		.byte	0x1
 3882 0011 A9050000 		.4byte	.LASF204
 3883 0015 78040000 		.4byte	.LASF205
 3884 0019 00000000 		.4byte	0
 3885 001d 00000000 		.4byte	0
 3886 0021 30010000 		.4byte	.Ldebug_ranges0+0x130
 3887 0025 00000000 		.4byte	.Ldebug_line0
 3888 0029 02       		.uleb128 0x2
 3889 002a 04       		.byte	0x4
 3890 002b 05       		.byte	0x5
 3891 002c 696E7400 		.ascii	"int\000"
 3892 0030 03       		.uleb128 0x3
 3893 0031 04       		.byte	0x4
 3894 0032 07       		.byte	0x7
 3895 0033 84000000 		.4byte	.LASF0
 3896 0037 04       		.uleb128 0x4
 3897 0038 88010000 		.4byte	.LASF2
 3898 003c 02       		.byte	0x2
 3899 003d 29       		.byte	0x29
 3900 003e 42000000 		.4byte	0x42
 3901 0042 03       		.uleb128 0x3
 3902 0043 01       		.byte	0x1
 3903 0044 06       		.byte	0x6
 3904 0045 D2070000 		.4byte	.LASF1
 3905 0049 04       		.uleb128 0x4
 3906 004a A6030000 		.4byte	.LASF3
 3907 004e 02       		.byte	0x2
 3908 004f 2A       		.byte	0x2a
 3909 0050 54000000 		.4byte	0x54
 3910 0054 03       		.uleb128 0x3
 3911 0055 01       		.byte	0x1
 3912 0056 08       		.byte	0x8
 3913 0057 29070000 		.4byte	.LASF4
 3914 005b 04       		.uleb128 0x4
 3915 005c CF010000 		.4byte	.LASF5
 3916 0060 02       		.byte	0x2
 3917 0061 35       		.byte	0x35
 3918 0062 66000000 		.4byte	0x66
 3919 0066 03       		.uleb128 0x3
 3920 0067 02       		.byte	0x2
 3921 0068 05       		.byte	0x5
 3922 0069 67050000 		.4byte	.LASF6
 3923 006d 04       		.uleb128 0x4
 3924 006e 29050000 		.4byte	.LASF7
 3925 0072 02       		.byte	0x2
 3926 0073 36       		.byte	0x36
 3927 0074 78000000 		.4byte	0x78
ARM GAS  /var/folders/5n/p_75w94d66l9ssrldxqdhh700000gn/T//ccYNR3t7.s 			page 70


 3928 0078 03       		.uleb128 0x3
 3929 0079 02       		.byte	0x2
 3930 007a 07       		.byte	0x7
 3931 007b E6070000 		.4byte	.LASF8
 3932 007f 04       		.uleb128 0x4
 3933 0080 F5060000 		.4byte	.LASF9
 3934 0084 02       		.byte	0x2
 3935 0085 4F       		.byte	0x4f
 3936 0086 8A000000 		.4byte	0x8a
 3937 008a 03       		.uleb128 0x3
 3938 008b 04       		.byte	0x4
 3939 008c 05       		.byte	0x5
 3940 008d 76050000 		.4byte	.LASF10
 3941 0091 04       		.uleb128 0x4
 3942 0092 7F010000 		.4byte	.LASF11
 3943 0096 02       		.byte	0x2
 3944 0097 50       		.byte	0x50
 3945 0098 9C000000 		.4byte	0x9c
 3946 009c 03       		.uleb128 0x3
 3947 009d 04       		.byte	0x4
 3948 009e 07       		.byte	0x7
 3949 009f C2060000 		.4byte	.LASF12
 3950 00a3 03       		.uleb128 0x3
 3951 00a4 08       		.byte	0x8
 3952 00a5 05       		.byte	0x5
 3953 00a6 11040000 		.4byte	.LASF13
 3954 00aa 03       		.uleb128 0x3
 3955 00ab 08       		.byte	0x8
 3956 00ac 07       		.byte	0x7
 3957 00ad ED010000 		.4byte	.LASF14
 3958 00b1 05       		.uleb128 0x5
 3959 00b2 04       		.byte	0x4
 3960 00b3 03       		.uleb128 0x3
 3961 00b4 01       		.byte	0x1
 3962 00b5 08       		.byte	0x8
 3963 00b6 36030000 		.4byte	.LASF15
 3964 00ba 04       		.uleb128 0x4
 3965 00bb 64040000 		.4byte	.LASF16
 3966 00bf 03       		.byte	0x3
 3967 00c0 3C       		.byte	0x3c
 3968 00c1 49000000 		.4byte	0x49
 3969 00c5 04       		.uleb128 0x4
 3970 00c6 E0020000 		.4byte	.LASF17
 3971 00ca 03       		.byte	0x3
 3972 00cb 3D       		.byte	0x3d
 3973 00cc 37000000 		.4byte	0x37
 3974 00d0 04       		.uleb128 0x4
 3975 00d1 BD000000 		.4byte	.LASF18
 3976 00d5 03       		.byte	0x3
 3977 00d6 3E       		.byte	0x3e
 3978 00d7 6D000000 		.4byte	0x6d
 3979 00db 04       		.uleb128 0x4
 3980 00dc EF060000 		.4byte	.LASF19
 3981 00e0 03       		.byte	0x3
 3982 00e1 3F       		.byte	0x3f
 3983 00e2 5B000000 		.4byte	0x5b
 3984 00e6 04       		.uleb128 0x4
ARM GAS  /var/folders/5n/p_75w94d66l9ssrldxqdhh700000gn/T//ccYNR3t7.s 			page 71


 3985 00e7 61050000 		.4byte	.LASF20
 3986 00eb 03       		.byte	0x3
 3987 00ec 40       		.byte	0x40
 3988 00ed 91000000 		.4byte	0x91
 3989 00f1 04       		.uleb128 0x4
 3990 00f2 E5020000 		.4byte	.LASF21
 3991 00f6 03       		.byte	0x3
 3992 00f7 41       		.byte	0x41
 3993 00f8 7F000000 		.4byte	0x7f
 3994 00fc 04       		.uleb128 0x4
 3995 00fd A7000000 		.4byte	.LASF22
 3996 0101 04       		.byte	0x4
 3997 0102 2F       		.byte	0x2f
 3998 0103 C5000000 		.4byte	0xc5
 3999 0107 04       		.uleb128 0x4
 4000 0108 5D030000 		.4byte	.LASF23
 4001 010c 05       		.byte	0x5
 4002 010d 4B       		.byte	0x4b
 4003 010e D0000000 		.4byte	0xd0
 4004 0112 06       		.uleb128 0x6
 4005 0113 B6020000 		.4byte	.LASF29
 4006 0117 10       		.byte	0x10
 4007 0118 06       		.byte	0x6
 4008 0119 49       		.byte	0x49
 4009 011a 81010000 		.4byte	0x181
 4010 011e 07       		.uleb128 0x7
 4011 011f A2000000 		.4byte	.LASF24
 4012 0123 06       		.byte	0x6
 4013 0124 4B       		.byte	0x4b
 4014 0125 81010000 		.4byte	0x181
 4015 0129 02       		.byte	0x2
 4016 012a 23       		.byte	0x23
 4017 012b 00       		.uleb128 0
 4018 012c 07       		.uleb128 0x7
 4019 012d 88020000 		.4byte	.LASF25
 4020 0131 06       		.byte	0x6
 4021 0132 4E       		.byte	0x4e
 4022 0133 B1000000 		.4byte	0xb1
 4023 0137 02       		.byte	0x2
 4024 0138 23       		.byte	0x23
 4025 0139 04       		.uleb128 0x4
 4026 013a 07       		.uleb128 0x7
 4027 013b 80020000 		.4byte	.LASF26
 4028 013f 06       		.byte	0x6
 4029 0140 57       		.byte	0x57
 4030 0141 D0000000 		.4byte	0xd0
 4031 0145 02       		.byte	0x2
 4032 0146 23       		.byte	0x23
 4033 0147 08       		.uleb128 0x8
 4034 0148 08       		.uleb128 0x8
 4035 0149 6C656E00 		.ascii	"len\000"
 4036 014d 06       		.byte	0x6
 4037 014e 5A       		.byte	0x5a
 4038 014f D0000000 		.4byte	0xd0
 4039 0153 02       		.byte	0x2
 4040 0154 23       		.byte	0x23
 4041 0155 0A       		.uleb128 0xa
ARM GAS  /var/folders/5n/p_75w94d66l9ssrldxqdhh700000gn/T//ccYNR3t7.s 			page 72


 4042 0156 07       		.uleb128 0x7
 4043 0157 1A070000 		.4byte	.LASF27
 4044 015b 06       		.byte	0x6
 4045 015c 5D       		.byte	0x5d
 4046 015d BA000000 		.4byte	0xba
 4047 0161 02       		.byte	0x2
 4048 0162 23       		.byte	0x23
 4049 0163 0C       		.uleb128 0xc
 4050 0164 07       		.uleb128 0x7
 4051 0165 74000000 		.4byte	.LASF28
 4052 0169 06       		.byte	0x6
 4053 016a 60       		.byte	0x60
 4054 016b BA000000 		.4byte	0xba
 4055 016f 02       		.byte	0x2
 4056 0170 23       		.byte	0x23
 4057 0171 0D       		.uleb128 0xd
 4058 0172 08       		.uleb128 0x8
 4059 0173 72656600 		.ascii	"ref\000"
 4060 0177 06       		.byte	0x6
 4061 0178 67       		.byte	0x67
 4062 0179 D0000000 		.4byte	0xd0
 4063 017d 02       		.byte	0x2
 4064 017e 23       		.byte	0x23
 4065 017f 0E       		.uleb128 0xe
 4066 0180 00       		.byte	0
 4067 0181 09       		.uleb128 0x9
 4068 0182 04       		.byte	0x4
 4069 0183 12010000 		.4byte	0x112
 4070 0187 06       		.uleb128 0x6
 4071 0188 6C080000 		.4byte	.LASF30
 4072 018c 04       		.byte	0x4
 4073 018d 07       		.byte	0x7
 4074 018e 2C       		.byte	0x2c
 4075 018f A2010000 		.4byte	0x1a2
 4076 0193 07       		.uleb128 0x7
 4077 0194 91070000 		.4byte	.LASF31
 4078 0198 07       		.byte	0x7
 4079 0199 2D       		.byte	0x2d
 4080 019a E6000000 		.4byte	0xe6
 4081 019e 02       		.byte	0x2
 4082 019f 23       		.byte	0x23
 4083 01a0 00       		.uleb128 0
 4084 01a1 00       		.byte	0
 4085 01a2 06       		.uleb128 0x6
 4086 01a3 80030000 		.4byte	.LASF32
 4087 01a7 04       		.byte	0x4
 4088 01a8 07       		.byte	0x7
 4089 01a9 36       		.byte	0x36
 4090 01aa BD010000 		.4byte	0x1bd
 4091 01ae 07       		.uleb128 0x7
 4092 01af 91070000 		.4byte	.LASF31
 4093 01b3 07       		.byte	0x7
 4094 01b4 37       		.byte	0x37
 4095 01b5 E6000000 		.4byte	0xe6
 4096 01b9 02       		.byte	0x2
 4097 01ba 23       		.byte	0x23
 4098 01bb 00       		.uleb128 0
ARM GAS  /var/folders/5n/p_75w94d66l9ssrldxqdhh700000gn/T//ccYNR3t7.s 			page 73


 4099 01bc 00       		.byte	0
 4100 01bd 04       		.uleb128 0x4
 4101 01be 38080000 		.4byte	.LASF33
 4102 01c2 07       		.byte	0x7
 4103 01c3 40       		.byte	0x40
 4104 01c4 87010000 		.4byte	0x187
 4105 01c8 04       		.uleb128 0x4
 4106 01c9 61070000 		.4byte	.LASF34
 4107 01cd 07       		.byte	0x7
 4108 01ce 41       		.byte	0x41
 4109 01cf A2010000 		.4byte	0x1a2
 4110 01d3 09       		.uleb128 0x9
 4111 01d4 04       		.byte	0x4
 4112 01d5 D9010000 		.4byte	0x1d9
 4113 01d9 06       		.uleb128 0x6
 4114 01da A1070000 		.4byte	.LASF35
 4115 01de 30       		.byte	0x30
 4116 01df 08       		.byte	0x8
 4117 01e0 88       		.byte	0x88
 4118 01e1 A9020000 		.4byte	0x2a9
 4119 01e5 07       		.uleb128 0x7
 4120 01e6 A2000000 		.4byte	.LASF24
 4121 01ea 08       		.byte	0x8
 4122 01eb 8A       		.byte	0x8a
 4123 01ec D3010000 		.4byte	0x1d3
 4124 01f0 02       		.byte	0x2
 4125 01f1 23       		.byte	0x23
 4126 01f2 00       		.uleb128 0
 4127 01f3 07       		.uleb128 0x7
 4128 01f4 6C080000 		.4byte	.LASF30
 4129 01f8 08       		.byte	0x8
 4130 01f9 8D       		.byte	0x8d
 4131 01fa BD010000 		.4byte	0x1bd
 4132 01fe 02       		.byte	0x2
 4133 01ff 23       		.byte	0x23
 4134 0200 04       		.uleb128 0x4
 4135 0201 07       		.uleb128 0x7
 4136 0202 09040000 		.4byte	.LASF36
 4137 0206 08       		.byte	0x8
 4138 0207 8E       		.byte	0x8e
 4139 0208 BD010000 		.4byte	0x1bd
 4140 020c 02       		.byte	0x2
 4141 020d 23       		.byte	0x23
 4142 020e 08       		.uleb128 0x8
 4143 020f 08       		.uleb128 0x8
 4144 0210 677700   		.ascii	"gw\000"
 4145 0213 08       		.byte	0x8
 4146 0214 8F       		.byte	0x8f
 4147 0215 BD010000 		.4byte	0x1bd
 4148 0219 02       		.byte	0x2
 4149 021a 23       		.byte	0x23
 4150 021b 0C       		.uleb128 0xc
 4151 021c 07       		.uleb128 0x7
 4152 021d 39000000 		.4byte	.LASF37
 4153 0221 08       		.byte	0x8
 4154 0222 93       		.byte	0x93
 4155 0223 A9020000 		.4byte	0x2a9
ARM GAS  /var/folders/5n/p_75w94d66l9ssrldxqdhh700000gn/T//ccYNR3t7.s 			page 74


 4156 0227 02       		.byte	0x2
 4157 0228 23       		.byte	0x23
 4158 0229 10       		.uleb128 0x10
 4159 022a 07       		.uleb128 0x7
 4160 022b A5020000 		.4byte	.LASF38
 4161 022f 08       		.byte	0x8
 4162 0230 97       		.byte	0x97
 4163 0231 CF020000 		.4byte	0x2cf
 4164 0235 02       		.byte	0x2
 4165 0236 23       		.byte	0x23
 4166 0237 14       		.uleb128 0x14
 4167 0238 07       		.uleb128 0x7
 4168 0239 AD000000 		.4byte	.LASF39
 4169 023d 08       		.byte	0x8
 4170 023e 9B       		.byte	0x9b
 4171 023f 00030000 		.4byte	0x300
 4172 0243 02       		.byte	0x2
 4173 0244 23       		.byte	0x23
 4174 0245 18       		.uleb128 0x18
 4175 0246 07       		.uleb128 0x7
 4176 0247 9B070000 		.4byte	.LASF40
 4177 024b 08       		.byte	0x8
 4178 024c A8       		.byte	0xa8
 4179 024d B1000000 		.4byte	0xb1
 4180 0251 02       		.byte	0x2
 4181 0252 23       		.byte	0x23
 4182 0253 1C       		.uleb128 0x1c
 4183 0254 08       		.uleb128 0x8
 4184 0255 6D747500 		.ascii	"mtu\000"
 4185 0259 08       		.byte	0x8
 4186 025a B6       		.byte	0xb6
 4187 025b D0000000 		.4byte	0xd0
 4188 025f 02       		.byte	0x2
 4189 0260 23       		.byte	0x23
 4190 0261 20       		.uleb128 0x20
 4191 0262 07       		.uleb128 0x7
 4192 0263 24020000 		.4byte	.LASF41
 4193 0267 08       		.byte	0x8
 4194 0268 B8       		.byte	0xb8
 4195 0269 BA000000 		.4byte	0xba
 4196 026d 02       		.byte	0x2
 4197 026e 23       		.byte	0x23
 4198 026f 22       		.uleb128 0x22
 4199 0270 07       		.uleb128 0x7
 4200 0271 D7010000 		.4byte	.LASF42
 4201 0275 08       		.byte	0x8
 4202 0276 BA       		.byte	0xba
 4203 0277 26030000 		.4byte	0x326
 4204 027b 02       		.byte	0x2
 4205 027c 23       		.byte	0x23
 4206 027d 23       		.uleb128 0x23
 4207 027e 07       		.uleb128 0x7
 4208 027f 74000000 		.4byte	.LASF28
 4209 0283 08       		.byte	0x8
 4210 0284 BC       		.byte	0xbc
 4211 0285 BA000000 		.4byte	0xba
 4212 0289 02       		.byte	0x2
ARM GAS  /var/folders/5n/p_75w94d66l9ssrldxqdhh700000gn/T//ccYNR3t7.s 			page 75


 4213 028a 23       		.byte	0x23
 4214 028b 29       		.uleb128 0x29
 4215 028c 07       		.uleb128 0x7
 4216 028d 49060000 		.4byte	.LASF43
 4217 0291 08       		.byte	0x8
 4218 0292 BE       		.byte	0xbe
 4219 0293 36030000 		.4byte	0x336
 4220 0297 02       		.byte	0x2
 4221 0298 23       		.byte	0x23
 4222 0299 2A       		.uleb128 0x2a
 4223 029a 08       		.uleb128 0x8
 4224 029b 6E756D00 		.ascii	"num\000"
 4225 029f 08       		.byte	0x8
 4226 02a0 C0       		.byte	0xc0
 4227 02a1 BA000000 		.4byte	0xba
 4228 02a5 02       		.byte	0x2
 4229 02a6 23       		.byte	0x23
 4230 02a7 2C       		.uleb128 0x2c
 4231 02a8 00       		.byte	0
 4232 02a9 04       		.uleb128 0x4
 4233 02aa 64010000 		.4byte	.LASF44
 4234 02ae 08       		.byte	0x8
 4235 02af 6D       		.byte	0x6d
 4236 02b0 B4020000 		.4byte	0x2b4
 4237 02b4 09       		.uleb128 0x9
 4238 02b5 04       		.byte	0x4
 4239 02b6 BA020000 		.4byte	0x2ba
 4240 02ba 0A       		.uleb128 0xa
 4241 02bb 01       		.byte	0x1
 4242 02bc FC000000 		.4byte	0xfc
 4243 02c0 CF020000 		.4byte	0x2cf
 4244 02c4 0B       		.uleb128 0xb
 4245 02c5 81010000 		.4byte	0x181
 4246 02c9 0B       		.uleb128 0xb
 4247 02ca D3010000 		.4byte	0x1d3
 4248 02ce 00       		.byte	0
 4249 02cf 04       		.uleb128 0x4
 4250 02d0 EF000000 		.4byte	.LASF45
 4251 02d4 08       		.byte	0x8
 4252 02d5 76       		.byte	0x76
 4253 02d6 DA020000 		.4byte	0x2da
 4254 02da 09       		.uleb128 0x9
 4255 02db 04       		.byte	0x4
 4256 02dc E0020000 		.4byte	0x2e0
 4257 02e0 0A       		.uleb128 0xa
 4258 02e1 01       		.byte	0x1
 4259 02e2 FC000000 		.4byte	0xfc
 4260 02e6 FA020000 		.4byte	0x2fa
 4261 02ea 0B       		.uleb128 0xb
 4262 02eb D3010000 		.4byte	0x1d3
 4263 02ef 0B       		.uleb128 0xb
 4264 02f0 81010000 		.4byte	0x181
 4265 02f4 0B       		.uleb128 0xb
 4266 02f5 FA020000 		.4byte	0x2fa
 4267 02f9 00       		.byte	0
 4268 02fa 09       		.uleb128 0x9
 4269 02fb 04       		.byte	0x4
ARM GAS  /var/folders/5n/p_75w94d66l9ssrldxqdhh700000gn/T//ccYNR3t7.s 			page 76


 4270 02fc BD010000 		.4byte	0x1bd
 4271 0300 04       		.uleb128 0x4
 4272 0301 4E060000 		.4byte	.LASF46
 4273 0305 08       		.byte	0x8
 4274 0306 7E       		.byte	0x7e
 4275 0307 0B030000 		.4byte	0x30b
 4276 030b 09       		.uleb128 0x9
 4277 030c 04       		.byte	0x4
 4278 030d 11030000 		.4byte	0x311
 4279 0311 0A       		.uleb128 0xa
 4280 0312 01       		.byte	0x1
 4281 0313 FC000000 		.4byte	0xfc
 4282 0317 26030000 		.4byte	0x326
 4283 031b 0B       		.uleb128 0xb
 4284 031c D3010000 		.4byte	0x1d3
 4285 0320 0B       		.uleb128 0xb
 4286 0321 81010000 		.4byte	0x181
 4287 0325 00       		.byte	0
 4288 0326 0C       		.uleb128 0xc
 4289 0327 BA000000 		.4byte	0xba
 4290 032b 36030000 		.4byte	0x336
 4291 032f 0D       		.uleb128 0xd
 4292 0330 30000000 		.4byte	0x30
 4293 0334 05       		.byte	0x5
 4294 0335 00       		.byte	0
 4295 0336 0C       		.uleb128 0xc
 4296 0337 B3000000 		.4byte	0xb3
 4297 033b 46030000 		.4byte	0x346
 4298 033f 0D       		.uleb128 0xd
 4299 0340 30000000 		.4byte	0x30
 4300 0344 01       		.byte	0x1
 4301 0345 00       		.byte	0
 4302 0346 06       		.uleb128 0x6
 4303 0347 42060000 		.4byte	.LASF47
 4304 034b 14       		.byte	0x14
 4305 034c 09       		.byte	0x9
 4306 034d 74       		.byte	0x74
 4307 034e D1030000 		.4byte	0x3d1
 4308 0352 07       		.uleb128 0x7
 4309 0353 3F050000 		.4byte	.LASF48
 4310 0357 09       		.byte	0x9
 4311 0358 76       		.byte	0x76
 4312 0359 D0000000 		.4byte	0xd0
 4313 035d 02       		.byte	0x2
 4314 035e 23       		.byte	0x23
 4315 035f 00       		.uleb128 0
 4316 0360 07       		.uleb128 0x7
 4317 0361 33080000 		.4byte	.LASF49
 4318 0365 09       		.byte	0x9
 4319 0366 78       		.byte	0x78
 4320 0367 D0000000 		.4byte	0xd0
 4321 036b 02       		.byte	0x2
 4322 036c 23       		.byte	0x23
 4323 036d 02       		.uleb128 0x2
 4324 036e 08       		.uleb128 0x8
 4325 036f 5F696400 		.ascii	"_id\000"
 4326 0373 09       		.byte	0x9
ARM GAS  /var/folders/5n/p_75w94d66l9ssrldxqdhh700000gn/T//ccYNR3t7.s 			page 77


 4327 0374 7A       		.byte	0x7a
 4328 0375 D0000000 		.4byte	0xd0
 4329 0379 02       		.byte	0x2
 4330 037a 23       		.byte	0x23
 4331 037b 04       		.uleb128 0x4
 4332 037c 07       		.uleb128 0x7
 4333 037d 2F020000 		.4byte	.LASF50
 4334 0381 09       		.byte	0x9
 4335 0382 7C       		.byte	0x7c
 4336 0383 D0000000 		.4byte	0xd0
 4337 0387 02       		.byte	0x2
 4338 0388 23       		.byte	0x23
 4339 0389 06       		.uleb128 0x6
 4340 038a 07       		.uleb128 0x7
 4341 038b C3000000 		.4byte	.LASF51
 4342 038f 09       		.byte	0x9
 4343 0390 82       		.byte	0x82
 4344 0391 BA000000 		.4byte	0xba
 4345 0395 02       		.byte	0x2
 4346 0396 23       		.byte	0x23
 4347 0397 08       		.uleb128 0x8
 4348 0398 07       		.uleb128 0x7
 4349 0399 BE030000 		.4byte	.LASF52
 4350 039d 09       		.byte	0x9
 4351 039e 84       		.byte	0x84
 4352 039f BA000000 		.4byte	0xba
 4353 03a3 02       		.byte	0x2
 4354 03a4 23       		.byte	0x23
 4355 03a5 09       		.uleb128 0x9
 4356 03a6 07       		.uleb128 0x7
 4357 03a7 16020000 		.4byte	.LASF53
 4358 03ab 09       		.byte	0x9
 4359 03ac 86       		.byte	0x86
 4360 03ad D0000000 		.4byte	0xd0
 4361 03b1 02       		.byte	0x2
 4362 03b2 23       		.byte	0x23
 4363 03b3 0A       		.uleb128 0xa
 4364 03b4 08       		.uleb128 0x8
 4365 03b5 73726300 		.ascii	"src\000"
 4366 03b9 09       		.byte	0x9
 4367 03ba 88       		.byte	0x88
 4368 03bb C8010000 		.4byte	0x1c8
 4369 03bf 02       		.byte	0x2
 4370 03c0 23       		.byte	0x23
 4371 03c1 0C       		.uleb128 0xc
 4372 03c2 07       		.uleb128 0x7
 4373 03c3 5E080000 		.4byte	.LASF54
 4374 03c7 09       		.byte	0x9
 4375 03c8 89       		.byte	0x89
 4376 03c9 C8010000 		.4byte	0x1c8
 4377 03cd 02       		.byte	0x2
 4378 03ce 23       		.byte	0x23
 4379 03cf 10       		.uleb128 0x10
 4380 03d0 00       		.byte	0
 4381 03d1 04       		.uleb128 0x4
 4382 03d2 66000000 		.4byte	.LASF55
 4383 03d6 0A       		.byte	0xa
ARM GAS  /var/folders/5n/p_75w94d66l9ssrldxqdhh700000gn/T//ccYNR3t7.s 			page 78


 4384 03d7 3D       		.byte	0x3d
 4385 03d8 DC030000 		.4byte	0x3dc
 4386 03dc 09       		.uleb128 0x9
 4387 03dd 04       		.byte	0x4
 4388 03de E2030000 		.4byte	0x3e2
 4389 03e2 0A       		.uleb128 0xa
 4390 03e3 01       		.byte	0x1
 4391 03e4 FC000000 		.4byte	0xfc
 4392 03e8 FC030000 		.4byte	0x3fc
 4393 03ec 0B       		.uleb128 0xb
 4394 03ed B1000000 		.4byte	0xb1
 4395 03f1 0B       		.uleb128 0xb
 4396 03f2 FC030000 		.4byte	0x3fc
 4397 03f6 0B       		.uleb128 0xb
 4398 03f7 FC000000 		.4byte	0xfc
 4399 03fb 00       		.byte	0
 4400 03fc 09       		.uleb128 0x9
 4401 03fd 04       		.byte	0x4
 4402 03fe 02040000 		.4byte	0x402
 4403 0402 06       		.uleb128 0x6
 4404 0403 DE070000 		.4byte	.LASF56
 4405 0407 A4       		.byte	0xa4
 4406 0408 0A       		.byte	0xa
 4407 0409 A9       		.byte	0xa9
 4408 040a 11070000 		.4byte	0x711
 4409 040e 07       		.uleb128 0x7
 4410 040f FE050000 		.4byte	.LASF57
 4411 0413 0A       		.byte	0xa
 4412 0414 AB       		.byte	0xab
 4413 0415 BD010000 		.4byte	0x1bd
 4414 0419 02       		.byte	0x2
 4415 041a 23       		.byte	0x23
 4416 041b 00       		.uleb128 0
 4417 041c 07       		.uleb128 0x7
 4418 041d 1D080000 		.4byte	.LASF58
 4419 0421 0A       		.byte	0xa
 4420 0422 AB       		.byte	0xab
 4421 0423 BD010000 		.4byte	0x1bd
 4422 0427 02       		.byte	0x2
 4423 0428 23       		.byte	0x23
 4424 0429 04       		.uleb128 0x4
 4425 042a 07       		.uleb128 0x7
 4426 042b 2E000000 		.4byte	.LASF59
 4427 042f 0A       		.byte	0xa
 4428 0430 AB       		.byte	0xab
 4429 0431 BA000000 		.4byte	0xba
 4430 0435 02       		.byte	0x2
 4431 0436 23       		.byte	0x23
 4432 0437 08       		.uleb128 0x8
 4433 0438 08       		.uleb128 0x8
 4434 0439 746F7300 		.ascii	"tos\000"
 4435 043d 0A       		.byte	0xa
 4436 043e AB       		.byte	0xab
 4437 043f BA000000 		.4byte	0xba
 4438 0443 02       		.byte	0x2
 4439 0444 23       		.byte	0x23
 4440 0445 09       		.uleb128 0x9
ARM GAS  /var/folders/5n/p_75w94d66l9ssrldxqdhh700000gn/T//ccYNR3t7.s 			page 79


 4441 0446 08       		.uleb128 0x8
 4442 0447 74746C00 		.ascii	"ttl\000"
 4443 044b 0A       		.byte	0xa
 4444 044c AB       		.byte	0xab
 4445 044d BA000000 		.4byte	0xba
 4446 0451 02       		.byte	0x2
 4447 0452 23       		.byte	0x23
 4448 0453 0A       		.uleb128 0xa
 4449 0454 07       		.uleb128 0x7
 4450 0455 A2000000 		.4byte	.LASF24
 4451 0459 0A       		.byte	0xa
 4452 045a AD       		.byte	0xad
 4453 045b FC030000 		.4byte	0x3fc
 4454 045f 02       		.byte	0x2
 4455 0460 23       		.byte	0x23
 4456 0461 0C       		.uleb128 0xc
 4457 0462 07       		.uleb128 0x7
 4458 0463 9B070000 		.4byte	.LASF40
 4459 0467 0A       		.byte	0xa
 4460 0468 AD       		.byte	0xad
 4461 0469 BF070000 		.4byte	0x7bf
 4462 046d 02       		.byte	0x2
 4463 046e 23       		.byte	0x23
 4464 046f 10       		.uleb128 0x10
 4465 0470 07       		.uleb128 0x7
 4466 0471 1B030000 		.4byte	.LASF60
 4467 0475 0A       		.byte	0xa
 4468 0476 AD       		.byte	0xad
 4469 0477 BA000000 		.4byte	0xba
 4470 047b 02       		.byte	0x2
 4471 047c 23       		.byte	0x23
 4472 047d 11       		.uleb128 0x11
 4473 047e 07       		.uleb128 0x7
 4474 047f 7D070000 		.4byte	.LASF61
 4475 0483 0A       		.byte	0xa
 4476 0484 AD       		.byte	0xad
 4477 0485 B1000000 		.4byte	0xb1
 4478 0489 02       		.byte	0x2
 4479 048a 23       		.byte	0x23
 4480 048b 14       		.uleb128 0x14
 4481 048c 07       		.uleb128 0x7
 4482 048d 20030000 		.4byte	.LASF62
 4483 0491 0A       		.byte	0xa
 4484 0492 AD       		.byte	0xad
 4485 0493 D1030000 		.4byte	0x3d1
 4486 0497 02       		.byte	0x2
 4487 0498 23       		.byte	0x23
 4488 0499 18       		.uleb128 0x18
 4489 049a 07       		.uleb128 0x7
 4490 049b AE010000 		.4byte	.LASF63
 4491 049f 0A       		.byte	0xa
 4492 04a0 AD       		.byte	0xad
 4493 04a1 D0000000 		.4byte	0xd0
 4494 04a5 02       		.byte	0x2
 4495 04a6 23       		.byte	0x23
 4496 04a7 1C       		.uleb128 0x1c
 4497 04a8 07       		.uleb128 0x7
ARM GAS  /var/folders/5n/p_75w94d66l9ssrldxqdhh700000gn/T//ccYNR3t7.s 			page 80


 4498 04a9 CE040000 		.4byte	.LASF64
 4499 04ad 0A       		.byte	0xa
 4500 04ae B0       		.byte	0xb0
 4501 04af D0000000 		.4byte	0xd0
 4502 04b3 02       		.byte	0x2
 4503 04b4 23       		.byte	0x23
 4504 04b5 1E       		.uleb128 0x1e
 4505 04b6 07       		.uleb128 0x7
 4506 04b7 74000000 		.4byte	.LASF28
 4507 04bb 0A       		.byte	0xa
 4508 04bc B2       		.byte	0xb2
 4509 04bd BA000000 		.4byte	0xba
 4510 04c1 02       		.byte	0x2
 4511 04c2 23       		.byte	0x23
 4512 04c3 20       		.uleb128 0x20
 4513 04c4 07       		.uleb128 0x7
 4514 04c5 3D020000 		.4byte	.LASF65
 4515 04c9 0A       		.byte	0xa
 4516 04ca BF       		.byte	0xbf
 4517 04cb E6000000 		.4byte	0xe6
 4518 04cf 02       		.byte	0x2
 4519 04d0 23       		.byte	0x23
 4520 04d1 24       		.uleb128 0x24
 4521 04d2 07       		.uleb128 0x7
 4522 04d3 9A050000 		.4byte	.LASF66
 4523 04d7 0A       		.byte	0xa
 4524 04d8 C0       		.byte	0xc0
 4525 04d9 D0000000 		.4byte	0xd0
 4526 04dd 02       		.byte	0x2
 4527 04de 23       		.byte	0x23
 4528 04df 28       		.uleb128 0x28
 4529 04e0 07       		.uleb128 0x7
 4530 04e1 EA040000 		.4byte	.LASF67
 4531 04e5 0A       		.byte	0xa
 4532 04e6 C1       		.byte	0xc1
 4533 04e7 D0000000 		.4byte	0xd0
 4534 04eb 02       		.byte	0x2
 4535 04ec 23       		.byte	0x23
 4536 04ed 2A       		.uleb128 0x2a
 4537 04ee 07       		.uleb128 0x7
 4538 04ef D2000000 		.4byte	.LASF68
 4539 04f3 0A       		.byte	0xa
 4540 04f4 C2       		.byte	0xc2
 4541 04f5 E6000000 		.4byte	0xe6
 4542 04f9 02       		.byte	0x2
 4543 04fa 23       		.byte	0x23
 4544 04fb 2C       		.uleb128 0x2c
 4545 04fc 08       		.uleb128 0x8
 4546 04fd 746D7200 		.ascii	"tmr\000"
 4547 0501 0A       		.byte	0xa
 4548 0502 C5       		.byte	0xc5
 4549 0503 E6000000 		.4byte	0xe6
 4550 0507 02       		.byte	0x2
 4551 0508 23       		.byte	0x23
 4552 0509 30       		.uleb128 0x30
 4553 050a 07       		.uleb128 0x7
 4554 050b 5E000000 		.4byte	.LASF69
ARM GAS  /var/folders/5n/p_75w94d66l9ssrldxqdhh700000gn/T//ccYNR3t7.s 			page 81


 4555 050f 0A       		.byte	0xa
 4556 0510 C6       		.byte	0xc6
 4557 0511 BA000000 		.4byte	0xba
 4558 0515 02       		.byte	0x2
 4559 0516 23       		.byte	0x23
 4560 0517 34       		.uleb128 0x34
 4561 0518 07       		.uleb128 0x7
 4562 0519 82060000 		.4byte	.LASF70
 4563 051d 0A       		.byte	0xa
 4564 051e C6       		.byte	0xc6
 4565 051f BA000000 		.4byte	0xba
 4566 0523 02       		.byte	0x2
 4567 0524 23       		.byte	0x23
 4568 0525 35       		.uleb128 0x35
 4569 0526 07       		.uleb128 0x7
 4570 0527 1E020000 		.4byte	.LASF71
 4571 052b 0A       		.byte	0xa
 4572 052c C9       		.byte	0xc9
 4573 052d DB000000 		.4byte	0xdb
 4574 0531 02       		.byte	0x2
 4575 0532 23       		.byte	0x23
 4576 0533 36       		.uleb128 0x36
 4577 0534 08       		.uleb128 0x8
 4578 0535 6D737300 		.ascii	"mss\000"
 4579 0539 0A       		.byte	0xa
 4580 053a CB       		.byte	0xcb
 4581 053b D0000000 		.4byte	0xd0
 4582 053f 02       		.byte	0x2
 4583 0540 23       		.byte	0x23
 4584 0541 38       		.uleb128 0x38
 4585 0542 07       		.uleb128 0x7
 4586 0543 A2050000 		.4byte	.LASF72
 4587 0547 0A       		.byte	0xa
 4588 0548 CE       		.byte	0xce
 4589 0549 E6000000 		.4byte	0xe6
 4590 054d 02       		.byte	0x2
 4591 054e 23       		.byte	0x23
 4592 054f 3C       		.uleb128 0x3c
 4593 0550 07       		.uleb128 0x7
 4594 0551 FD020000 		.4byte	.LASF73
 4595 0555 0A       		.byte	0xa
 4596 0556 CF       		.byte	0xcf
 4597 0557 E6000000 		.4byte	0xe6
 4598 055b 02       		.byte	0x2
 4599 055c 23       		.byte	0x23
 4600 055d 40       		.uleb128 0x40
 4601 055e 08       		.uleb128 0x8
 4602 055f 736100   		.ascii	"sa\000"
 4603 0562 0A       		.byte	0xa
 4604 0563 D0       		.byte	0xd0
 4605 0564 DB000000 		.4byte	0xdb
 4606 0568 02       		.byte	0x2
 4607 0569 23       		.byte	0x23
 4608 056a 44       		.uleb128 0x44
 4609 056b 08       		.uleb128 0x8
 4610 056c 737600   		.ascii	"sv\000"
 4611 056f 0A       		.byte	0xa
ARM GAS  /var/folders/5n/p_75w94d66l9ssrldxqdhh700000gn/T//ccYNR3t7.s 			page 82


 4612 0570 D0       		.byte	0xd0
 4613 0571 DB000000 		.4byte	0xdb
 4614 0575 02       		.byte	0x2
 4615 0576 23       		.byte	0x23
 4616 0577 46       		.uleb128 0x46
 4617 0578 08       		.uleb128 0x8
 4618 0579 72746F00 		.ascii	"rto\000"
 4619 057d 0A       		.byte	0xa
 4620 057e D2       		.byte	0xd2
 4621 057f DB000000 		.4byte	0xdb
 4622 0583 02       		.byte	0x2
 4623 0584 23       		.byte	0x23
 4624 0585 48       		.uleb128 0x48
 4625 0586 07       		.uleb128 0x7
 4626 0587 59080000 		.4byte	.LASF74
 4627 058b 0A       		.byte	0xa
 4628 058c D3       		.byte	0xd3
 4629 058d BA000000 		.4byte	0xba
 4630 0591 02       		.byte	0x2
 4631 0592 23       		.byte	0x23
 4632 0593 4A       		.uleb128 0x4a
 4633 0594 07       		.uleb128 0x7
 4634 0595 CF020000 		.4byte	.LASF75
 4635 0599 0A       		.byte	0xa
 4636 059a D6       		.byte	0xd6
 4637 059b E6000000 		.4byte	0xe6
 4638 059f 02       		.byte	0x2
 4639 05a0 23       		.byte	0x23
 4640 05a1 4C       		.uleb128 0x4c
 4641 05a2 07       		.uleb128 0x7
 4642 05a3 13030000 		.4byte	.LASF76
 4643 05a7 0A       		.byte	0xa
 4644 05a8 D7       		.byte	0xd7
 4645 05a9 BA000000 		.4byte	0xba
 4646 05ad 02       		.byte	0x2
 4647 05ae 23       		.byte	0x23
 4648 05af 50       		.uleb128 0x50
 4649 05b0 07       		.uleb128 0x7
 4650 05b1 8F010000 		.4byte	.LASF77
 4651 05b5 0A       		.byte	0xa
 4652 05b6 DA       		.byte	0xda
 4653 05b7 D0000000 		.4byte	0xd0
 4654 05bb 02       		.byte	0x2
 4655 05bc 23       		.byte	0x23
 4656 05bd 52       		.uleb128 0x52
 4657 05be 07       		.uleb128 0x7
 4658 05bf 71060000 		.4byte	.LASF78
 4659 05c3 0A       		.byte	0xa
 4660 05c4 DB       		.byte	0xdb
 4661 05c5 D0000000 		.4byte	0xd0
 4662 05c9 02       		.byte	0x2
 4663 05ca 23       		.byte	0x23
 4664 05cb 54       		.uleb128 0x54
 4665 05cc 07       		.uleb128 0x7
 4666 05cd 2E060000 		.4byte	.LASF79
 4667 05d1 0A       		.byte	0xa
 4668 05d2 DE       		.byte	0xde
ARM GAS  /var/folders/5n/p_75w94d66l9ssrldxqdhh700000gn/T//ccYNR3t7.s 			page 83


 4669 05d3 E6000000 		.4byte	0xe6
 4670 05d7 02       		.byte	0x2
 4671 05d8 23       		.byte	0x23
 4672 05d9 58       		.uleb128 0x58
 4673 05da 07       		.uleb128 0x7
 4674 05db 37050000 		.4byte	.LASF80
 4675 05df 0A       		.byte	0xa
 4676 05e0 DF       		.byte	0xdf
 4677 05e1 D0000000 		.4byte	0xd0
 4678 05e5 02       		.byte	0x2
 4679 05e6 23       		.byte	0x23
 4680 05e7 5C       		.uleb128 0x5c
 4681 05e8 07       		.uleb128 0x7
 4682 05e9 AE030000 		.4byte	.LASF81
 4683 05ed 0A       		.byte	0xa
 4684 05ee E0       		.byte	0xe0
 4685 05ef E6000000 		.4byte	0xe6
 4686 05f3 02       		.byte	0x2
 4687 05f4 23       		.byte	0x23
 4688 05f5 60       		.uleb128 0x60
 4689 05f6 07       		.uleb128 0x7
 4690 05f7 B6030000 		.4byte	.LASF82
 4691 05fb 0A       		.byte	0xa
 4692 05fc E0       		.byte	0xe0
 4693 05fd E6000000 		.4byte	0xe6
 4694 0601 02       		.byte	0x2
 4695 0602 23       		.byte	0x23
 4696 0603 64       		.uleb128 0x64
 4697 0604 07       		.uleb128 0x7
 4698 0605 F5030000 		.4byte	.LASF83
 4699 0609 0A       		.byte	0xa
 4700 060a E2       		.byte	0xe2
 4701 060b E6000000 		.4byte	0xe6
 4702 060f 02       		.byte	0x2
 4703 0610 23       		.byte	0x23
 4704 0611 68       		.uleb128 0x68
 4705 0612 07       		.uleb128 0x7
 4706 0613 37020000 		.4byte	.LASF84
 4707 0617 0A       		.byte	0xa
 4708 0618 E4       		.byte	0xe4
 4709 0619 D0000000 		.4byte	0xd0
 4710 061d 02       		.byte	0x2
 4711 061e 23       		.byte	0x23
 4712 061f 6C       		.uleb128 0x6c
 4713 0620 07       		.uleb128 0x7
 4714 0621 7A060000 		.4byte	.LASF85
 4715 0625 0A       		.byte	0xa
 4716 0626 E6       		.byte	0xe6
 4717 0627 D0000000 		.4byte	0xd0
 4718 062b 02       		.byte	0x2
 4719 062c 23       		.byte	0x23
 4720 062d 6E       		.uleb128 0x6e
 4721 062e 07       		.uleb128 0x7
 4722 062f A7070000 		.4byte	.LASF86
 4723 0633 0A       		.byte	0xa
 4724 0634 E8       		.byte	0xe8
 4725 0635 D0000000 		.4byte	0xd0
ARM GAS  /var/folders/5n/p_75w94d66l9ssrldxqdhh700000gn/T//ccYNR3t7.s 			page 84


 4726 0639 02       		.byte	0x2
 4727 063a 23       		.byte	0x23
 4728 063b 70       		.uleb128 0x70
 4729 063c 07       		.uleb128 0x7
 4730 063d 0C060000 		.4byte	.LASF87
 4731 0641 0A       		.byte	0xa
 4732 0642 EC       		.byte	0xec
 4733 0643 D0000000 		.4byte	0xd0
 4734 0647 02       		.byte	0x2
 4735 0648 23       		.byte	0x23
 4736 0649 72       		.uleb128 0x72
 4737 064a 07       		.uleb128 0x7
 4738 064b 93050000 		.4byte	.LASF88
 4739 064f 0A       		.byte	0xa
 4740 0650 F0       		.byte	0xf0
 4741 0651 65080000 		.4byte	0x865
 4742 0655 02       		.byte	0x2
 4743 0656 23       		.byte	0x23
 4744 0657 74       		.uleb128 0x74
 4745 0658 07       		.uleb128 0x7
 4746 0659 5F020000 		.4byte	.LASF89
 4747 065d 0A       		.byte	0xa
 4748 065e F1       		.byte	0xf1
 4749 065f 65080000 		.4byte	0x865
 4750 0663 02       		.byte	0x2
 4751 0664 23       		.byte	0x23
 4752 0665 78       		.uleb128 0x78
 4753 0666 07       		.uleb128 0x7
 4754 0667 54050000 		.4byte	.LASF90
 4755 066b 0A       		.byte	0xa
 4756 066c F3       		.byte	0xf3
 4757 066d 65080000 		.4byte	0x865
 4758 0671 02       		.byte	0x2
 4759 0672 23       		.byte	0x23
 4760 0673 7C       		.uleb128 0x7c
 4761 0674 07       		.uleb128 0x7
 4762 0675 FD060000 		.4byte	.LASF91
 4763 0679 0A       		.byte	0xa
 4764 067a F6       		.byte	0xf6
 4765 067b 81010000 		.4byte	0x181
 4766 067f 03       		.byte	0x3
 4767 0680 23       		.byte	0x23
 4768 0681 8001     		.uleb128 0x80
 4769 0683 07       		.uleb128 0x7
 4770 0684 A1030000 		.4byte	.LASF92
 4771 0688 0A       		.byte	0xa
 4772 0689 FA       		.byte	0xfa
 4773 068a 41070000 		.4byte	0x741
 4774 068e 03       		.byte	0x3
 4775 068f 23       		.byte	0x23
 4776 0690 8401     		.uleb128 0x84
 4777 0692 07       		.uleb128 0x7
 4778 0693 C6070000 		.4byte	.LASF93
 4779 0697 0A       		.byte	0xa
 4780 0698 FC       		.byte	0xfc
 4781 0699 11070000 		.4byte	0x711
 4782 069d 03       		.byte	0x3
ARM GAS  /var/folders/5n/p_75w94d66l9ssrldxqdhh700000gn/T//ccYNR3t7.s 			page 85


 4783 069e 23       		.byte	0x23
 4784 069f 8801     		.uleb128 0x88
 4785 06a1 07       		.uleb128 0x7
 4786 06a2 AC020000 		.4byte	.LASF94
 4787 06a6 0A       		.byte	0xa
 4788 06a7 FE       		.byte	0xfe
 4789 06a8 B4070000 		.4byte	0x7b4
 4790 06ac 03       		.byte	0x3
 4791 06ad 23       		.byte	0x23
 4792 06ae 8C01     		.uleb128 0x8c
 4793 06b0 0E       		.uleb128 0xe
 4794 06b1 31030000 		.4byte	.LASF95
 4795 06b5 0A       		.byte	0xa
 4796 06b6 0001     		.2byte	0x100
 4797 06b8 6C070000 		.4byte	0x76c
 4798 06bc 03       		.byte	0x3
 4799 06bd 23       		.byte	0x23
 4800 06be 9001     		.uleb128 0x90
 4801 06c0 0E       		.uleb128 0xe
 4802 06c1 32050000 		.4byte	.LASF96
 4803 06c5 0A       		.byte	0xa
 4804 06c6 0201     		.2byte	0x102
 4805 06c8 92070000 		.4byte	0x792
 4806 06cc 03       		.byte	0x3
 4807 06cd 23       		.byte	0x23
 4808 06ce 9401     		.uleb128 0x94
 4809 06d0 0E       		.uleb128 0xe
 4810 06d1 6D070000 		.4byte	.LASF97
 4811 06d5 0A       		.byte	0xa
 4812 06d6 0B01     		.2byte	0x10b
 4813 06d8 E6000000 		.4byte	0xe6
 4814 06dc 03       		.byte	0x3
 4815 06dd 23       		.byte	0x23
 4816 06de 9801     		.uleb128 0x98
 4817 06e0 0E       		.uleb128 0xe
 4818 06e1 FE070000 		.4byte	.LASF98
 4819 06e5 0A       		.byte	0xa
 4820 06e6 1201     		.2byte	0x112
 4821 06e8 E6000000 		.4byte	0xe6
 4822 06ec 03       		.byte	0x3
 4823 06ed 23       		.byte	0x23
 4824 06ee 9C01     		.uleb128 0x9c
 4825 06f0 0E       		.uleb128 0xe
 4826 06f1 42040000 		.4byte	.LASF99
 4827 06f5 0A       		.byte	0xa
 4828 06f6 1401     		.2byte	0x114
 4829 06f8 BA000000 		.4byte	0xba
 4830 06fc 03       		.byte	0x3
 4831 06fd 23       		.byte	0x23
 4832 06fe A001     		.uleb128 0xa0
 4833 0700 0E       		.uleb128 0xe
 4834 0701 FF000000 		.4byte	.LASF100
 4835 0705 0A       		.byte	0xa
 4836 0706 1701     		.2byte	0x117
 4837 0708 BA000000 		.4byte	0xba
 4838 070c 03       		.byte	0x3
 4839 070d 23       		.byte	0x23
ARM GAS  /var/folders/5n/p_75w94d66l9ssrldxqdhh700000gn/T//ccYNR3t7.s 			page 86


 4840 070e A101     		.uleb128 0xa1
 4841 0710 00       		.byte	0
 4842 0711 04       		.uleb128 0x4
 4843 0712 11050000 		.4byte	.LASF101
 4844 0716 0A       		.byte	0xa
 4845 0717 49       		.byte	0x49
 4846 0718 1C070000 		.4byte	0x71c
 4847 071c 09       		.uleb128 0x9
 4848 071d 04       		.byte	0x4
 4849 071e 22070000 		.4byte	0x722
 4850 0722 0A       		.uleb128 0xa
 4851 0723 01       		.byte	0x1
 4852 0724 FC000000 		.4byte	0xfc
 4853 0728 41070000 		.4byte	0x741
 4854 072c 0B       		.uleb128 0xb
 4855 072d B1000000 		.4byte	0xb1
 4856 0731 0B       		.uleb128 0xb
 4857 0732 FC030000 		.4byte	0x3fc
 4858 0736 0B       		.uleb128 0xb
 4859 0737 81010000 		.4byte	0x181
 4860 073b 0B       		.uleb128 0xb
 4861 073c FC000000 		.4byte	0xfc
 4862 0740 00       		.byte	0
 4863 0741 04       		.uleb128 0x4
 4864 0742 3E010000 		.4byte	.LASF102
 4865 0746 0A       		.byte	0xa
 4866 0747 57       		.byte	0x57
 4867 0748 4C070000 		.4byte	0x74c
 4868 074c 09       		.uleb128 0x9
 4869 074d 04       		.byte	0x4
 4870 074e 52070000 		.4byte	0x752
 4871 0752 0A       		.uleb128 0xa
 4872 0753 01       		.byte	0x1
 4873 0754 FC000000 		.4byte	0xfc
 4874 0758 6C070000 		.4byte	0x76c
 4875 075c 0B       		.uleb128 0xb
 4876 075d B1000000 		.4byte	0xb1
 4877 0761 0B       		.uleb128 0xb
 4878 0762 FC030000 		.4byte	0x3fc
 4879 0766 0B       		.uleb128 0xb
 4880 0767 D0000000 		.4byte	0xd0
 4881 076b 00       		.byte	0
 4882 076c 04       		.uleb128 0x4
 4883 076d 1D050000 		.4byte	.LASF103
 4884 0771 0A       		.byte	0xa
 4885 0772 63       		.byte	0x63
 4886 0773 77070000 		.4byte	0x777
 4887 0777 09       		.uleb128 0x9
 4888 0778 04       		.byte	0x4
 4889 0779 7D070000 		.4byte	0x77d
 4890 077d 0A       		.uleb128 0xa
 4891 077e 01       		.byte	0x1
 4892 077f FC000000 		.4byte	0xfc
 4893 0783 92070000 		.4byte	0x792
 4894 0787 0B       		.uleb128 0xb
 4895 0788 B1000000 		.4byte	0xb1
 4896 078c 0B       		.uleb128 0xb
ARM GAS  /var/folders/5n/p_75w94d66l9ssrldxqdhh700000gn/T//ccYNR3t7.s 			page 87


 4897 078d FC030000 		.4byte	0x3fc
 4898 0791 00       		.byte	0
 4899 0792 04       		.uleb128 0x4
 4900 0793 C5030000 		.4byte	.LASF104
 4901 0797 0A       		.byte	0xa
 4902 0798 6F       		.byte	0x6f
 4903 0799 9D070000 		.4byte	0x79d
 4904 079d 09       		.uleb128 0x9
 4905 079e 04       		.byte	0x4
 4906 079f A3070000 		.4byte	0x7a3
 4907 07a3 0F       		.uleb128 0xf
 4908 07a4 01       		.byte	0x1
 4909 07a5 B4070000 		.4byte	0x7b4
 4910 07a9 0B       		.uleb128 0xb
 4911 07aa B1000000 		.4byte	0xb1
 4912 07ae 0B       		.uleb128 0xb
 4913 07af FC000000 		.4byte	0xfc
 4914 07b3 00       		.byte	0
 4915 07b4 04       		.uleb128 0x4
 4916 07b5 91000000 		.4byte	.LASF105
 4917 07b9 0A       		.byte	0xa
 4918 07ba 7D       		.byte	0x7d
 4919 07bb DC030000 		.4byte	0x3dc
 4920 07bf 10       		.uleb128 0x10
 4921 07c0 42080000 		.4byte	.LASF206
 4922 07c4 01       		.byte	0x1
 4923 07c5 0A       		.byte	0xa
 4924 07c6 7F       		.byte	0x7f
 4925 07c7 0E080000 		.4byte	0x80e
 4926 07cb 11       		.uleb128 0x11
 4927 07cc 5A050000 		.4byte	.LASF106
 4928 07d0 00       		.sleb128 0
 4929 07d1 11       		.uleb128 0x11
 4930 07d2 8A070000 		.4byte	.LASF107
 4931 07d6 01       		.sleb128 1
 4932 07d7 11       		.uleb128 0x11
 4933 07d8 1C060000 		.4byte	.LASF108
 4934 07dc 02       		.sleb128 2
 4935 07dd 11       		.uleb128 0x11
 4936 07de 63080000 		.4byte	.LASF109
 4937 07e2 03       		.sleb128 3
 4938 07e3 11       		.uleb128 0x11
 4939 07e4 36060000 		.4byte	.LASF110
 4940 07e8 04       		.sleb128 4
 4941 07e9 11       		.uleb128 0x11
 4942 07ea 37070000 		.4byte	.LASF111
 4943 07ee 05       		.sleb128 5
 4944 07ef 11       		.uleb128 0x11
 4945 07f0 42070000 		.4byte	.LASF112
 4946 07f4 06       		.sleb128 6
 4947 07f5 11       		.uleb128 0x11
 4948 07f6 8F030000 		.4byte	.LASF113
 4949 07fa 07       		.sleb128 7
 4950 07fb 11       		.uleb128 0x11
 4951 07fc C7020000 		.4byte	.LASF114
 4952 0800 08       		.sleb128 8
 4953 0801 11       		.uleb128 0x11
ARM GAS  /var/folders/5n/p_75w94d66l9ssrldxqdhh700000gn/T//ccYNR3t7.s 			page 88


 4954 0802 77020000 		.4byte	.LASF115
 4955 0806 09       		.sleb128 9
 4956 0807 11       		.uleb128 0x11
 4957 0808 7A000000 		.4byte	.LASF116
 4958 080c 0A       		.sleb128 10
 4959 080d 00       		.byte	0
 4960 080e 12       		.uleb128 0x12
 4961 080f E5010000 		.4byte	.LASF117
 4962 0813 10       		.byte	0x10
 4963 0814 0B       		.byte	0xb
 4964 0815 1601     		.2byte	0x116
 4965 0817 65080000 		.4byte	0x865
 4966 081b 0E       		.uleb128 0xe
 4967 081c A2000000 		.4byte	.LASF24
 4968 0820 0B       		.byte	0xb
 4969 0821 1701     		.2byte	0x117
 4970 0823 65080000 		.4byte	0x865
 4971 0827 02       		.byte	0x2
 4972 0828 23       		.byte	0x23
 4973 0829 00       		.uleb128 0
 4974 082a 13       		.uleb128 0x13
 4975 082b 7000     		.ascii	"p\000"
 4976 082d 0B       		.byte	0xb
 4977 082e 1801     		.2byte	0x118
 4978 0830 81010000 		.4byte	0x181
 4979 0834 02       		.byte	0x2
 4980 0835 23       		.byte	0x23
 4981 0836 04       		.uleb128 0x4
 4982 0837 13       		.uleb128 0x13
 4983 0838 6C656E00 		.ascii	"len\000"
 4984 083c 0B       		.byte	0xb
 4985 083d 1901     		.2byte	0x119
 4986 083f D0000000 		.4byte	0xd0
 4987 0843 02       		.byte	0x2
 4988 0844 23       		.byte	0x23
 4989 0845 08       		.uleb128 0x8
 4990 0846 0E       		.uleb128 0xe
 4991 0847 74000000 		.4byte	.LASF28
 4992 084b 0B       		.byte	0xb
 4993 084c 2301     		.2byte	0x123
 4994 084e BA000000 		.4byte	0xba
 4995 0852 02       		.byte	0x2
 4996 0853 23       		.byte	0x23
 4997 0854 0A       		.uleb128 0xa
 4998 0855 0E       		.uleb128 0xe
 4999 0856 E8060000 		.4byte	.LASF118
 5000 085a 0B       		.byte	0xb
 5001 085b 2801     		.2byte	0x128
 5002 085d A1090000 		.4byte	0x9a1
 5003 0861 02       		.byte	0x2
 5004 0862 23       		.byte	0x23
 5005 0863 0C       		.uleb128 0xc
 5006 0864 00       		.byte	0
 5007 0865 09       		.uleb128 0x9
 5008 0866 04       		.byte	0x4
 5009 0867 0E080000 		.4byte	0x80e
 5010 086b 12       		.uleb128 0x12
ARM GAS  /var/folders/5n/p_75w94d66l9ssrldxqdhh700000gn/T//ccYNR3t7.s 			page 89


 5011 086c 1F040000 		.4byte	.LASF119
 5012 0870 20       		.byte	0x20
 5013 0871 0A       		.byte	0xa
 5014 0872 1A01     		.2byte	0x11a
 5015 0874 1E090000 		.4byte	0x91e
 5016 0878 0E       		.uleb128 0xe
 5017 0879 FE050000 		.4byte	.LASF57
 5018 087d 0A       		.byte	0xa
 5019 087e 1C01     		.2byte	0x11c
 5020 0880 BD010000 		.4byte	0x1bd
 5021 0884 02       		.byte	0x2
 5022 0885 23       		.byte	0x23
 5023 0886 00       		.uleb128 0
 5024 0887 0E       		.uleb128 0xe
 5025 0888 1D080000 		.4byte	.LASF58
 5026 088c 0A       		.byte	0xa
 5027 088d 1C01     		.2byte	0x11c
 5028 088f BD010000 		.4byte	0x1bd
 5029 0893 02       		.byte	0x2
 5030 0894 23       		.byte	0x23
 5031 0895 04       		.uleb128 0x4
 5032 0896 0E       		.uleb128 0xe
 5033 0897 2E000000 		.4byte	.LASF59
 5034 089b 0A       		.byte	0xa
 5035 089c 1C01     		.2byte	0x11c
 5036 089e BA000000 		.4byte	0xba
 5037 08a2 02       		.byte	0x2
 5038 08a3 23       		.byte	0x23
 5039 08a4 08       		.uleb128 0x8
 5040 08a5 13       		.uleb128 0x13
 5041 08a6 746F7300 		.ascii	"tos\000"
 5042 08aa 0A       		.byte	0xa
 5043 08ab 1C01     		.2byte	0x11c
 5044 08ad BA000000 		.4byte	0xba
 5045 08b1 02       		.byte	0x2
 5046 08b2 23       		.byte	0x23
 5047 08b3 09       		.uleb128 0x9
 5048 08b4 13       		.uleb128 0x13
 5049 08b5 74746C00 		.ascii	"ttl\000"
 5050 08b9 0A       		.byte	0xa
 5051 08ba 1C01     		.2byte	0x11c
 5052 08bc BA000000 		.4byte	0xba
 5053 08c0 02       		.byte	0x2
 5054 08c1 23       		.byte	0x23
 5055 08c2 0A       		.uleb128 0xa
 5056 08c3 0E       		.uleb128 0xe
 5057 08c4 A2000000 		.4byte	.LASF24
 5058 08c8 0A       		.byte	0xa
 5059 08c9 1E01     		.2byte	0x11e
 5060 08cb 1E090000 		.4byte	0x91e
 5061 08cf 02       		.byte	0x2
 5062 08d0 23       		.byte	0x23
 5063 08d1 0C       		.uleb128 0xc
 5064 08d2 0E       		.uleb128 0xe
 5065 08d3 9B070000 		.4byte	.LASF40
 5066 08d7 0A       		.byte	0xa
 5067 08d8 1E01     		.2byte	0x11e
ARM GAS  /var/folders/5n/p_75w94d66l9ssrldxqdhh700000gn/T//ccYNR3t7.s 			page 90


 5068 08da BF070000 		.4byte	0x7bf
 5069 08de 02       		.byte	0x2
 5070 08df 23       		.byte	0x23
 5071 08e0 10       		.uleb128 0x10
 5072 08e1 0E       		.uleb128 0xe
 5073 08e2 1B030000 		.4byte	.LASF60
 5074 08e6 0A       		.byte	0xa
 5075 08e7 1E01     		.2byte	0x11e
 5076 08e9 BA000000 		.4byte	0xba
 5077 08ed 02       		.byte	0x2
 5078 08ee 23       		.byte	0x23
 5079 08ef 11       		.uleb128 0x11
 5080 08f0 0E       		.uleb128 0xe
 5081 08f1 7D070000 		.4byte	.LASF61
 5082 08f5 0A       		.byte	0xa
 5083 08f6 1E01     		.2byte	0x11e
 5084 08f8 B1000000 		.4byte	0xb1
 5085 08fc 02       		.byte	0x2
 5086 08fd 23       		.byte	0x23
 5087 08fe 14       		.uleb128 0x14
 5088 08ff 0E       		.uleb128 0xe
 5089 0900 20030000 		.4byte	.LASF62
 5090 0904 0A       		.byte	0xa
 5091 0905 1E01     		.2byte	0x11e
 5092 0907 D1030000 		.4byte	0x3d1
 5093 090b 02       		.byte	0x2
 5094 090c 23       		.byte	0x23
 5095 090d 18       		.uleb128 0x18
 5096 090e 0E       		.uleb128 0xe
 5097 090f AE010000 		.4byte	.LASF63
 5098 0913 0A       		.byte	0xa
 5099 0914 1E01     		.2byte	0x11e
 5100 0916 D0000000 		.4byte	0xd0
 5101 091a 02       		.byte	0x2
 5102 091b 23       		.byte	0x23
 5103 091c 1C       		.uleb128 0x1c
 5104 091d 00       		.byte	0
 5105 091e 09       		.uleb128 0x9
 5106 091f 04       		.byte	0x4
 5107 0920 6B080000 		.4byte	0x86b
 5108 0924 06       		.uleb128 0x6
 5109 0925 12070000 		.4byte	.LASF120
 5110 0929 14       		.byte	0x14
 5111 092a 0B       		.byte	0xb
 5112 092b 9E       		.byte	0x9e
 5113 092c A1090000 		.4byte	0x9a1
 5114 0930 08       		.uleb128 0x8
 5115 0931 73726300 		.ascii	"src\000"
 5116 0935 0B       		.byte	0xb
 5117 0936 9F       		.byte	0x9f
 5118 0937 D0000000 		.4byte	0xd0
 5119 093b 02       		.byte	0x2
 5120 093c 23       		.byte	0x23
 5121 093d 00       		.uleb128 0
 5122 093e 07       		.uleb128 0x7
 5123 093f 5E080000 		.4byte	.LASF54
 5124 0943 0B       		.byte	0xb
ARM GAS  /var/folders/5n/p_75w94d66l9ssrldxqdhh700000gn/T//ccYNR3t7.s 			page 91


 5125 0944 A0       		.byte	0xa0
 5126 0945 D0000000 		.4byte	0xd0
 5127 0949 02       		.byte	0x2
 5128 094a 23       		.byte	0x23
 5129 094b 02       		.uleb128 0x2
 5130 094c 07       		.uleb128 0x7
 5131 094d 5E010000 		.4byte	.LASF121
 5132 0951 0B       		.byte	0xb
 5133 0952 A1       		.byte	0xa1
 5134 0953 E6000000 		.4byte	0xe6
 5135 0957 02       		.byte	0x2
 5136 0958 23       		.byte	0x23
 5137 0959 04       		.uleb128 0x4
 5138 095a 07       		.uleb128 0x7
 5139 095b 2E040000 		.4byte	.LASF122
 5140 095f 0B       		.byte	0xb
 5141 0960 A2       		.byte	0xa2
 5142 0961 E6000000 		.4byte	0xe6
 5143 0965 02       		.byte	0x2
 5144 0966 23       		.byte	0x23
 5145 0967 08       		.uleb128 0x8
 5146 0968 07       		.uleb128 0x7
 5147 0969 9C060000 		.4byte	.LASF123
 5148 096d 0B       		.byte	0xb
 5149 096e A3       		.byte	0xa3
 5150 096f D0000000 		.4byte	0xd0
 5151 0973 02       		.byte	0x2
 5152 0974 23       		.byte	0x23
 5153 0975 0C       		.uleb128 0xc
 5154 0976 08       		.uleb128 0x8
 5155 0977 776E6400 		.ascii	"wnd\000"
 5156 097b 0B       		.byte	0xb
 5157 097c A4       		.byte	0xa4
 5158 097d D0000000 		.4byte	0xd0
 5159 0981 02       		.byte	0x2
 5160 0982 23       		.byte	0x23
 5161 0983 0E       		.uleb128 0xe
 5162 0984 07       		.uleb128 0x7
 5163 0985 B4070000 		.4byte	.LASF124
 5164 0989 0B       		.byte	0xb
 5165 098a A5       		.byte	0xa5
 5166 098b D0000000 		.4byte	0xd0
 5167 098f 02       		.byte	0x2
 5168 0990 23       		.byte	0x23
 5169 0991 10       		.uleb128 0x10
 5170 0992 07       		.uleb128 0x7
 5171 0993 59000000 		.4byte	.LASF125
 5172 0997 0B       		.byte	0xb
 5173 0998 A6       		.byte	0xa6
 5174 0999 D0000000 		.4byte	0xd0
 5175 099d 02       		.byte	0x2
 5176 099e 23       		.byte	0x23
 5177 099f 12       		.uleb128 0x12
 5178 09a0 00       		.byte	0
 5179 09a1 09       		.uleb128 0x9
 5180 09a2 04       		.byte	0x4
 5181 09a3 24090000 		.4byte	0x924
ARM GAS  /var/folders/5n/p_75w94d66l9ssrldxqdhh700000gn/T//ccYNR3t7.s 			page 92


 5182 09a7 14       		.uleb128 0x14
 5183 09a8 E3030000 		.4byte	.LASF207
 5184 09ac 04       		.byte	0x4
 5185 09ad 0B       		.byte	0xb
 5186 09ae 3A01     		.2byte	0x13a
 5187 09b0 CD090000 		.4byte	0x9cd
 5188 09b4 15       		.uleb128 0x15
 5189 09b5 00000000 		.4byte	.LASF126
 5190 09b9 0B       		.byte	0xb
 5191 09ba 3B01     		.2byte	0x13b
 5192 09bc 1E090000 		.4byte	0x91e
 5193 09c0 15       		.uleb128 0x15
 5194 09c1 74080000 		.4byte	.LASF127
 5195 09c5 0B       		.byte	0xb
 5196 09c6 3C01     		.2byte	0x13c
 5197 09c8 FC030000 		.4byte	0x3fc
 5198 09cc 00       		.byte	0
 5199 09cd 16       		.uleb128 0x16
 5200 09ce 01       		.byte	0x1
 5201 09cf 0D       		.byte	0xd
 5202 09d0 2B       		.byte	0x2b
 5203 09d1 300A0000 		.4byte	0xa30
 5204 09d5 11       		.uleb128 0x11
 5205 09d6 8F060000 		.4byte	.LASF128
 5206 09da 00       		.sleb128 0
 5207 09db 11       		.uleb128 0x11
 5208 09dc F1050000 		.4byte	.LASF129
 5209 09e0 01       		.sleb128 1
 5210 09e1 11       		.uleb128 0x11
 5211 09e2 52040000 		.4byte	.LASF130
 5212 09e6 02       		.sleb128 2
 5213 09e7 11       		.uleb128 0x11
 5214 09e8 0C000000 		.4byte	.LASF131
 5215 09ec 03       		.sleb128 3
 5216 09ed 11       		.uleb128 0x11
 5217 09ee 54070000 		.4byte	.LASF132
 5218 09f2 04       		.sleb128 4
 5219 09f3 11       		.uleb128 0x11
 5220 09f4 02050000 		.4byte	.LASF133
 5221 09f8 05       		.sleb128 5
 5222 09f9 11       		.uleb128 0x11
 5223 09fa 62060000 		.4byte	.LASF134
 5224 09fe 06       		.sleb128 6
 5225 09ff 11       		.uleb128 0x11
 5226 0a00 FD030000 		.4byte	.LASF135
 5227 0a04 07       		.sleb128 7
 5228 0a05 11       		.uleb128 0x11
 5229 0a06 EB020000 		.4byte	.LASF136
 5230 0a0a 08       		.sleb128 8
 5231 0a0b 11       		.uleb128 0x11
 5232 0a0c 94010000 		.4byte	.LASF137
 5233 0a10 09       		.sleb128 9
 5234 0a11 11       		.uleb128 0x11
 5235 0a12 45020000 		.4byte	.LASF138
 5236 0a16 0A       		.sleb128 10
 5237 0a17 11       		.uleb128 0x11
 5238 0a18 E0050000 		.4byte	.LASF139
ARM GAS  /var/folders/5n/p_75w94d66l9ssrldxqdhh700000gn/T//ccYNR3t7.s 			page 93


 5239 0a1c 0B       		.sleb128 11
 5240 0a1d 11       		.uleb128 0x11
 5241 0a1e 27030000 		.4byte	.LASF140
 5242 0a22 0C       		.sleb128 12
 5243 0a23 11       		.uleb128 0x11
 5244 0a24 0D010000 		.4byte	.LASF141
 5245 0a28 0D       		.sleb128 13
 5246 0a29 11       		.uleb128 0x11
 5247 0a2a D7020000 		.4byte	.LASF142
 5248 0a2e 0E       		.sleb128 14
 5249 0a2f 00       		.byte	0
 5250 0a30 06       		.uleb128 0x6
 5251 0a31 68030000 		.4byte	.LASF143
 5252 0a35 18       		.byte	0x18
 5253 0a36 0C       		.byte	0xc
 5254 0a37 3A       		.byte	0x3a
 5255 0a38 E40A0000 		.4byte	0xae4
 5256 0a3c 07       		.uleb128 0x7
 5257 0a3d F9070000 		.4byte	.LASF144
 5258 0a41 0C       		.byte	0xc
 5259 0a42 3B       		.byte	0x3b
 5260 0a43 D0000000 		.4byte	0xd0
 5261 0a47 02       		.byte	0x2
 5262 0a48 23       		.byte	0x23
 5263 0a49 00       		.uleb128 0
 5264 0a4a 07       		.uleb128 0x7
 5265 0a4b C6070000 		.4byte	.LASF93
 5266 0a4f 0C       		.byte	0xc
 5267 0a50 3C       		.byte	0x3c
 5268 0a51 D0000000 		.4byte	0xd0
 5269 0a55 02       		.byte	0x2
 5270 0a56 23       		.byte	0x23
 5271 0a57 02       		.uleb128 0x2
 5272 0a58 08       		.uleb128 0x8
 5273 0a59 667700   		.ascii	"fw\000"
 5274 0a5c 0C       		.byte	0xc
 5275 0a5d 3D       		.byte	0x3d
 5276 0a5e D0000000 		.4byte	0xd0
 5277 0a62 02       		.byte	0x2
 5278 0a63 23       		.byte	0x23
 5279 0a64 04       		.uleb128 0x4
 5280 0a65 07       		.uleb128 0x7
 5281 0a66 96070000 		.4byte	.LASF145
 5282 0a6a 0C       		.byte	0xc
 5283 0a6b 3E       		.byte	0x3e
 5284 0a6c D0000000 		.4byte	0xd0
 5285 0a70 02       		.byte	0x2
 5286 0a71 23       		.byte	0x23
 5287 0a72 06       		.uleb128 0x6
 5288 0a73 07       		.uleb128 0x7
 5289 0a74 F6040000 		.4byte	.LASF146
 5290 0a78 0C       		.byte	0xc
 5291 0a79 3F       		.byte	0x3f
 5292 0a7a D0000000 		.4byte	0xd0
 5293 0a7e 02       		.byte	0x2
 5294 0a7f 23       		.byte	0x23
 5295 0a80 08       		.uleb128 0x8
ARM GAS  /var/folders/5n/p_75w94d66l9ssrldxqdhh700000gn/T//ccYNR3t7.s 			page 94


 5296 0a81 07       		.uleb128 0x7
 5297 0a82 AF060000 		.4byte	.LASF147
 5298 0a86 0C       		.byte	0xc
 5299 0a87 40       		.byte	0x40
 5300 0a88 D0000000 		.4byte	0xd0
 5301 0a8c 02       		.byte	0x2
 5302 0a8d 23       		.byte	0x23
 5303 0a8e 0A       		.uleb128 0xa
 5304 0a8f 07       		.uleb128 0x7
 5305 0a90 4D070000 		.4byte	.LASF148
 5306 0a94 0C       		.byte	0xc
 5307 0a95 41       		.byte	0x41
 5308 0a96 D0000000 		.4byte	0xd0
 5309 0a9a 02       		.byte	0x2
 5310 0a9b 23       		.byte	0x23
 5311 0a9c 0C       		.uleb128 0xc
 5312 0a9d 07       		.uleb128 0x7
 5313 0a9e 7F050000 		.4byte	.LASF149
 5314 0aa2 0C       		.byte	0xc
 5315 0aa3 42       		.byte	0x42
 5316 0aa4 D0000000 		.4byte	0xd0
 5317 0aa8 02       		.byte	0x2
 5318 0aa9 23       		.byte	0x23
 5319 0aaa 0E       		.uleb128 0xe
 5320 0aab 07       		.uleb128 0x7
 5321 0aac 0A070000 		.4byte	.LASF150
 5322 0ab0 0C       		.byte	0xc
 5323 0ab1 43       		.byte	0x43
 5324 0ab2 D0000000 		.4byte	0xd0
 5325 0ab6 02       		.byte	0x2
 5326 0ab7 23       		.byte	0x23
 5327 0ab8 10       		.uleb128 0x10
 5328 0ab9 07       		.uleb128 0x7
 5329 0aba A7010000 		.4byte	.LASF151
 5330 0abe 0C       		.byte	0xc
 5331 0abf 44       		.byte	0x44
 5332 0ac0 D0000000 		.4byte	0xd0
 5333 0ac4 02       		.byte	0x2
 5334 0ac5 23       		.byte	0x23
 5335 0ac6 12       		.uleb128 0x12
 5336 0ac7 08       		.uleb128 0x8
 5337 0ac8 65727200 		.ascii	"err\000"
 5338 0acc 0C       		.byte	0xc
 5339 0acd 45       		.byte	0x45
 5340 0ace D0000000 		.4byte	0xd0
 5341 0ad2 02       		.byte	0x2
 5342 0ad3 23       		.byte	0x23
 5343 0ad4 14       		.uleb128 0x14
 5344 0ad5 07       		.uleb128 0x7
 5345 0ad6 25060000 		.4byte	.LASF152
 5346 0ada 0C       		.byte	0xc
 5347 0adb 46       		.byte	0x46
 5348 0adc D0000000 		.4byte	0xd0
 5349 0ae0 02       		.byte	0x2
 5350 0ae1 23       		.byte	0x23
 5351 0ae2 16       		.uleb128 0x16
 5352 0ae3 00       		.byte	0
ARM GAS  /var/folders/5n/p_75w94d66l9ssrldxqdhh700000gn/T//ccYNR3t7.s 			page 95


 5353 0ae4 06       		.uleb128 0x6
 5354 0ae5 E5000000 		.4byte	.LASF153
 5355 0ae9 0A       		.byte	0xa
 5356 0aea 0C       		.byte	0xc
 5357 0aeb 5A       		.byte	0x5a
 5358 0aec 370B0000 		.4byte	0xb37
 5359 0af0 07       		.uleb128 0x7
 5360 0af1 85050000 		.4byte	.LASF154
 5361 0af5 0C       		.byte	0xc
 5362 0af6 5E       		.byte	0x5e
 5363 0af7 07010000 		.4byte	0x107
 5364 0afb 02       		.byte	0x2
 5365 0afc 23       		.byte	0x23
 5366 0afd 00       		.uleb128 0
 5367 0afe 07       		.uleb128 0x7
 5368 0aff 5A020000 		.4byte	.LASF155
 5369 0b03 0C       		.byte	0xc
 5370 0b04 5F       		.byte	0x5f
 5371 0b05 07010000 		.4byte	0x107
 5372 0b09 02       		.byte	0x2
 5373 0b0a 23       		.byte	0x23
 5374 0b0b 02       		.uleb128 0x2
 5375 0b0c 08       		.uleb128 0x8
 5376 0b0d 6D617800 		.ascii	"max\000"
 5377 0b11 0C       		.byte	0xc
 5378 0b12 60       		.byte	0x60
 5379 0b13 07010000 		.4byte	0x107
 5380 0b17 02       		.byte	0x2
 5381 0b18 23       		.byte	0x23
 5382 0b19 04       		.uleb128 0x4
 5383 0b1a 08       		.uleb128 0x8
 5384 0b1b 65727200 		.ascii	"err\000"
 5385 0b1f 0C       		.byte	0xc
 5386 0b20 61       		.byte	0x61
 5387 0b21 D0000000 		.4byte	0xd0
 5388 0b25 02       		.byte	0x2
 5389 0b26 23       		.byte	0x23
 5390 0b27 06       		.uleb128 0x6
 5391 0b28 07       		.uleb128 0x7
 5392 0b29 C7010000 		.4byte	.LASF156
 5393 0b2d 0C       		.byte	0xc
 5394 0b2e 62       		.byte	0x62
 5395 0b2f D0000000 		.4byte	0xd0
 5396 0b33 02       		.byte	0x2
 5397 0b34 23       		.byte	0x23
 5398 0b35 08       		.uleb128 0x8
 5399 0b36 00       		.byte	0
 5400 0b37 06       		.uleb128 0x6
 5401 0b38 50010000 		.4byte	.LASF157
 5402 0b3c 06       		.byte	0x6
 5403 0b3d 0C       		.byte	0xc
 5404 0b3e 65       		.byte	0x65
 5405 0b3f 6E0B0000 		.4byte	0xb6e
 5406 0b43 07       		.uleb128 0x7
 5407 0b44 5A020000 		.4byte	.LASF155
 5408 0b48 0C       		.byte	0xc
 5409 0b49 66       		.byte	0x66
ARM GAS  /var/folders/5n/p_75w94d66l9ssrldxqdhh700000gn/T//ccYNR3t7.s 			page 96


 5410 0b4a D0000000 		.4byte	0xd0
 5411 0b4e 02       		.byte	0x2
 5412 0b4f 23       		.byte	0x23
 5413 0b50 00       		.uleb128 0
 5414 0b51 08       		.uleb128 0x8
 5415 0b52 6D617800 		.ascii	"max\000"
 5416 0b56 0C       		.byte	0xc
 5417 0b57 67       		.byte	0x67
 5418 0b58 D0000000 		.4byte	0xd0
 5419 0b5c 02       		.byte	0x2
 5420 0b5d 23       		.byte	0x23
 5421 0b5e 02       		.uleb128 0x2
 5422 0b5f 08       		.uleb128 0x8
 5423 0b60 65727200 		.ascii	"err\000"
 5424 0b64 0C       		.byte	0xc
 5425 0b65 68       		.byte	0x68
 5426 0b66 D0000000 		.4byte	0xd0
 5427 0b6a 02       		.byte	0x2
 5428 0b6b 23       		.byte	0x23
 5429 0b6c 04       		.uleb128 0x4
 5430 0b6d 00       		.byte	0
 5431 0b6e 06       		.uleb128 0x6
 5432 0b6f 1F070000 		.4byte	.LASF158
 5433 0b73 12       		.byte	0x12
 5434 0b74 0C       		.byte	0xc
 5435 0b75 6B       		.byte	0x6b
 5436 0b76 A50B0000 		.4byte	0xba5
 5437 0b7a 08       		.uleb128 0x8
 5438 0b7b 73656D00 		.ascii	"sem\000"
 5439 0b7f 0C       		.byte	0xc
 5440 0b80 6C       		.byte	0x6c
 5441 0b81 370B0000 		.4byte	0xb37
 5442 0b85 02       		.byte	0x2
 5443 0b86 23       		.byte	0x23
 5444 0b87 00       		.uleb128 0
 5445 0b88 07       		.uleb128 0x7
 5446 0b89 B9010000 		.4byte	.LASF159
 5447 0b8d 0C       		.byte	0xc
 5448 0b8e 6D       		.byte	0x6d
 5449 0b8f 370B0000 		.4byte	0xb37
 5450 0b93 02       		.byte	0x2
 5451 0b94 23       		.byte	0x23
 5452 0b95 06       		.uleb128 0x6
 5453 0b96 07       		.uleb128 0x7
 5454 0b97 07060000 		.4byte	.LASF160
 5455 0b9b 0C       		.byte	0xc
 5456 0b9c 6E       		.byte	0x6e
 5457 0b9d 370B0000 		.4byte	0xb37
 5458 0ba1 02       		.byte	0x2
 5459 0ba2 23       		.byte	0x23
 5460 0ba3 0C       		.uleb128 0xc
 5461 0ba4 00       		.byte	0
 5462 0ba5 17       		.uleb128 0x17
 5463 0ba6 67020000 		.4byte	.LASF161
 5464 0baa 5001     		.2byte	0x150
 5465 0bac 0C       		.byte	0xc
 5466 0bad 71       		.byte	0x71
ARM GAS  /var/folders/5n/p_75w94d66l9ssrldxqdhh700000gn/T//ccYNR3t7.s 			page 97


 5467 0bae 420C0000 		.4byte	0xc42
 5468 0bb2 07       		.uleb128 0x7
 5469 0bb3 F8020000 		.4byte	.LASF162
 5470 0bb7 0C       		.byte	0xc
 5471 0bb8 73       		.byte	0x73
 5472 0bb9 300A0000 		.4byte	0xa30
 5473 0bbd 02       		.byte	0x2
 5474 0bbe 23       		.byte	0x23
 5475 0bbf 00       		.uleb128 0
 5476 0bc0 07       		.uleb128 0x7
 5477 0bc1 DE010000 		.4byte	.LASF163
 5478 0bc5 0C       		.byte	0xc
 5479 0bc6 76       		.byte	0x76
 5480 0bc7 300A0000 		.4byte	0xa30
 5481 0bcb 02       		.byte	0x2
 5482 0bcc 23       		.byte	0x23
 5483 0bcd 18       		.uleb128 0x18
 5484 0bce 07       		.uleb128 0x7
 5485 0bcf BF010000 		.4byte	.LASF164
 5486 0bd3 0C       		.byte	0xc
 5487 0bd4 79       		.byte	0x79
 5488 0bd5 300A0000 		.4byte	0xa30
 5489 0bd9 02       		.byte	0x2
 5490 0bda 23       		.byte	0x23
 5491 0bdb 30       		.uleb128 0x30
 5492 0bdc 08       		.uleb128 0x8
 5493 0bdd 697000   		.ascii	"ip\000"
 5494 0be0 0C       		.byte	0xc
 5495 0be1 7C       		.byte	0x7c
 5496 0be2 300A0000 		.4byte	0xa30
 5497 0be6 02       		.byte	0x2
 5498 0be7 23       		.byte	0x23
 5499 0be8 48       		.uleb128 0x48
 5500 0be9 07       		.uleb128 0x7
 5501 0bea 71050000 		.4byte	.LASF165
 5502 0bee 0C       		.byte	0xc
 5503 0bef 7F       		.byte	0x7f
 5504 0bf0 300A0000 		.4byte	0xa30
 5505 0bf4 02       		.byte	0x2
 5506 0bf5 23       		.byte	0x23
 5507 0bf6 60       		.uleb128 0x60
 5508 0bf7 08       		.uleb128 0x8
 5509 0bf8 75647000 		.ascii	"udp\000"
 5510 0bfc 0C       		.byte	0xc
 5511 0bfd 85       		.byte	0x85
 5512 0bfe 300A0000 		.4byte	0xa30
 5513 0c02 02       		.byte	0x2
 5514 0c03 23       		.byte	0x23
 5515 0c04 78       		.uleb128 0x78
 5516 0c05 08       		.uleb128 0x8
 5517 0c06 74637000 		.ascii	"tcp\000"
 5518 0c0a 0C       		.byte	0xc
 5519 0c0b 88       		.byte	0x88
 5520 0c0c 300A0000 		.4byte	0xa30
 5521 0c10 03       		.byte	0x3
 5522 0c11 23       		.byte	0x23
 5523 0c12 9001     		.uleb128 0x90
ARM GAS  /var/folders/5n/p_75w94d66l9ssrldxqdhh700000gn/T//ccYNR3t7.s 			page 98


 5524 0c14 08       		.uleb128 0x8
 5525 0c15 6D656D00 		.ascii	"mem\000"
 5526 0c19 0C       		.byte	0xc
 5527 0c1a 8B       		.byte	0x8b
 5528 0c1b E40A0000 		.4byte	0xae4
 5529 0c1f 03       		.byte	0x3
 5530 0c20 23       		.byte	0x23
 5531 0c21 A801     		.uleb128 0xa8
 5532 0c23 07       		.uleb128 0x7
 5533 0c24 5F040000 		.4byte	.LASF166
 5534 0c28 0C       		.byte	0xc
 5535 0c29 8E       		.byte	0x8e
 5536 0c2a 420C0000 		.4byte	0xc42
 5537 0c2e 03       		.byte	0x3
 5538 0c2f 23       		.byte	0x23
 5539 0c30 B201     		.uleb128 0xb2
 5540 0c32 08       		.uleb128 0x8
 5541 0c33 73797300 		.ascii	"sys\000"
 5542 0c37 0C       		.byte	0xc
 5543 0c38 91       		.byte	0x91
 5544 0c39 6E0B0000 		.4byte	0xb6e
 5545 0c3d 03       		.byte	0x3
 5546 0c3e 23       		.byte	0x23
 5547 0c3f BE02     		.uleb128 0x13e
 5548 0c41 00       		.byte	0
 5549 0c42 0C       		.uleb128 0xc
 5550 0c43 E40A0000 		.4byte	0xae4
 5551 0c47 520C0000 		.4byte	0xc52
 5552 0c4b 0D       		.uleb128 0xd
 5553 0c4c 30000000 		.4byte	0x30
 5554 0c50 0D       		.byte	0xd
 5555 0c51 00       		.byte	0
 5556 0c52 18       		.uleb128 0x18
 5557 0c53 4C080000 		.4byte	.LASF169
 5558 0c57 01       		.byte	0x1
 5559 0c58 D205     		.2byte	0x5d2
 5560 0c5a 01       		.byte	0x1
 5561 0c5b 00000000 		.4byte	.LFB13
 5562 0c5f 98000000 		.4byte	.LFE13
 5563 0c63 00000000 		.4byte	.LLST0
 5564 0c67 C60C0000 		.4byte	0xcc6
 5565 0c6b 19       		.uleb128 0x19
 5566 0c6c 70636200 		.ascii	"pcb\000"
 5567 0c70 01       		.byte	0x1
 5568 0c71 D205     		.2byte	0x5d2
 5569 0c73 FC030000 		.4byte	0x3fc
 5570 0c77 20000000 		.4byte	.LLST1
 5571 0c7b 1A       		.uleb128 0x1a
 5572 0c7c 6300     		.ascii	"c\000"
 5573 0c7e 01       		.byte	0x1
 5574 0c7f D405     		.2byte	0x5d4
 5575 0c81 D0000000 		.4byte	0xd0
 5576 0c85 3E000000 		.4byte	.LLST2
 5577 0c89 1B       		.uleb128 0x1b
 5578 0c8a 77070000 		.4byte	.LASF167
 5579 0c8e 01       		.byte	0x1
 5580 0c8f D405     		.2byte	0x5d4
ARM GAS  /var/folders/5n/p_75w94d66l9ssrldxqdhh700000gn/T//ccYNR3t7.s 			page 99


 5581 0c91 D0000000 		.4byte	0xd0
 5582 0c95 01       		.byte	0x1
 5583 0c96 51       		.byte	0x51
 5584 0c97 1A       		.uleb128 0x1a
 5585 0c98 6D737300 		.ascii	"mss\000"
 5586 0c9c 01       		.byte	0x1
 5587 0c9d D505     		.2byte	0x5d5
 5588 0c9f D0000000 		.4byte	0xd0
 5589 0ca3 73000000 		.4byte	.LLST3
 5590 0ca7 1B       		.uleb128 0x1b
 5591 0ca8 CA050000 		.4byte	.LASF168
 5592 0cac 01       		.byte	0x1
 5593 0cad D605     		.2byte	0x5d6
 5594 0caf C60C0000 		.4byte	0xcc6
 5595 0cb3 01       		.byte	0x1
 5596 0cb4 54       		.byte	0x54
 5597 0cb5 1A       		.uleb128 0x1a
 5598 0cb6 6F707400 		.ascii	"opt\000"
 5599 0cba 01       		.byte	0x1
 5600 0cbb D605     		.2byte	0x5d6
 5601 0cbd BA000000 		.4byte	0xba
 5602 0cc1 86000000 		.4byte	.LLST4
 5603 0cc5 00       		.byte	0
 5604 0cc6 09       		.uleb128 0x9
 5605 0cc7 04       		.byte	0x4
 5606 0cc8 BA000000 		.4byte	0xba
 5607 0ccc 18       		.uleb128 0x18
 5608 0ccd 27010000 		.4byte	.LASF170
 5609 0cd1 01       		.byte	0x1
 5610 0cd2 1D03     		.2byte	0x31d
 5611 0cd4 01       		.byte	0x1
 5612 0cd5 00000000 		.4byte	.LFB11
 5613 0cd9 FC000000 		.4byte	.LFE11
 5614 0cdd AC000000 		.4byte	.LLST5
 5615 0ce1 160D0000 		.4byte	0xd16
 5616 0ce5 1C       		.uleb128 0x1c
 5617 0ce6 20000000 		.4byte	.LASF171
 5618 0cea 01       		.byte	0x1
 5619 0ceb 1D03     		.2byte	0x31d
 5620 0ced 65080000 		.4byte	0x865
 5621 0cf1 CC000000 		.4byte	.LLST6
 5622 0cf5 1C       		.uleb128 0x1c
 5623 0cf6 A2000000 		.4byte	.LASF24
 5624 0cfa 01       		.byte	0x1
 5625 0cfb 1D03     		.2byte	0x31d
 5626 0cfd 65080000 		.4byte	0x865
 5627 0d01 EA000000 		.4byte	.LLST7
 5628 0d05 1D       		.uleb128 0x1d
 5629 0d06 3F000000 		.4byte	.LASF172
 5630 0d0a 01       		.byte	0x1
 5631 0d0b 1F03     		.2byte	0x31f
 5632 0d0d 65080000 		.4byte	0x865
 5633 0d11 6D010000 		.4byte	.LLST8
 5634 0d15 00       		.byte	0
 5635 0d16 18       		.uleb128 0x18
 5636 0d17 B6060000 		.4byte	.LASF173
 5637 0d1b 01       		.byte	0x1
ARM GAS  /var/folders/5n/p_75w94d66l9ssrldxqdhh700000gn/T//ccYNR3t7.s 			page 100


 5638 0d1c 4C03     		.2byte	0x34c
 5639 0d1e 01       		.byte	0x1
 5640 0d1f 00000000 		.4byte	.LFB12
 5641 0d23 AC0B0000 		.4byte	.LFE12
 5642 0d27 8B010000 		.4byte	.LLST9
 5643 0d2b 040E0000 		.4byte	0xe04
 5644 0d2f 19       		.uleb128 0x19
 5645 0d30 70636200 		.ascii	"pcb\000"
 5646 0d34 01       		.byte	0x1
 5647 0d35 4C03     		.2byte	0x34c
 5648 0d37 FC030000 		.4byte	0x3fc
 5649 0d3b B7010000 		.4byte	.LLST10
 5650 0d3f 1D       		.uleb128 0x1d
 5651 0d40 A2000000 		.4byte	.LASF24
 5652 0d44 01       		.byte	0x1
 5653 0d45 4E03     		.2byte	0x34e
 5654 0d47 65080000 		.4byte	0x865
 5655 0d4b EB010000 		.4byte	.LLST11
 5656 0d4f 1D       		.uleb128 0x1d
 5657 0d50 B8000000 		.4byte	.LASF174
 5658 0d54 01       		.byte	0x1
 5659 0d55 5003     		.2byte	0x350
 5660 0d57 65080000 		.4byte	0x865
 5661 0d5b EF020000 		.4byte	.LLST12
 5662 0d5f 1D       		.uleb128 0x1d
 5663 0d60 20000000 		.4byte	.LASF171
 5664 0d64 01       		.byte	0x1
 5665 0d65 5003     		.2byte	0x350
 5666 0d67 65080000 		.4byte	0x865
 5667 0d6b 25030000 		.4byte	.LLST13
 5668 0d6f 1A       		.uleb128 0x1a
 5669 0d70 7000     		.ascii	"p\000"
 5670 0d72 01       		.byte	0x1
 5671 0d73 5203     		.2byte	0x352
 5672 0d75 81010000 		.4byte	0x181
 5673 0d79 7A030000 		.4byte	.LLST14
 5674 0d7d 1A       		.uleb128 0x1a
 5675 0d7e 6F666600 		.ascii	"off\000"
 5676 0d82 01       		.byte	0x1
 5677 0d83 5303     		.2byte	0x353
 5678 0d85 F1000000 		.4byte	0xf1
 5679 0d89 C8030000 		.4byte	.LLST15
 5680 0d8d 1A       		.uleb128 0x1a
 5681 0d8e 6D00     		.ascii	"m\000"
 5682 0d90 01       		.byte	0x1
 5683 0d91 5403     		.2byte	0x354
 5684 0d93 DB000000 		.4byte	0xdb
 5685 0d97 FC030000 		.4byte	.LLST16
 5686 0d9b 1D       		.uleb128 0x1d
 5687 0d9c 69040000 		.4byte	.LASF175
 5688 0da0 01       		.byte	0x1
 5689 0da1 5503     		.2byte	0x355
 5690 0da3 E6000000 		.4byte	0xe6
 5691 0da7 37040000 		.4byte	.LLST17
 5692 0dab 1D       		.uleb128 0x1d
 5693 0dac 73010000 		.4byte	.LASF176
 5694 0db0 01       		.byte	0x1
ARM GAS  /var/folders/5n/p_75w94d66l9ssrldxqdhh700000gn/T//ccYNR3t7.s 			page 101


 5695 0db1 5603     		.2byte	0x356
 5696 0db3 D0000000 		.4byte	0xd0
 5697 0db7 E7040000 		.4byte	.LLST18
 5698 0dbb 1D       		.uleb128 0x1d
 5699 0dbc 47000000 		.4byte	.LASF177
 5700 0dc0 01       		.byte	0x1
 5701 0dc1 5703     		.2byte	0x357
 5702 0dc3 29000000 		.4byte	0x29
 5703 0dc7 FA040000 		.4byte	.LLST19
 5704 0dcb 1E       		.uleb128 0x1e
 5705 0dcc 00060000 		.4byte	.LBB2
 5706 0dd0 16060000 		.4byte	.LBE2
 5707 0dd4 E90D0000 		.4byte	0xde9
 5708 0dd8 1D       		.uleb128 0x1d
 5709 0dd9 6E020000 		.4byte	.LASF178
 5710 0ddd 01       		.byte	0x1
 5711 0dde CA03     		.2byte	0x3ca
 5712 0de0 D0000000 		.4byte	0xd0
 5713 0de4 7A050000 		.4byte	.LLST20
 5714 0de8 00       		.byte	0
 5715 0de9 1F       		.uleb128 0x1f
 5716 0dea 92070000 		.4byte	.LBB3
 5717 0dee 9A070000 		.4byte	.LBE3
 5718 0df2 1D       		.uleb128 0x1d
 5719 0df3 C8000000 		.4byte	.LASF179
 5720 0df7 01       		.byte	0x1
 5721 0df8 C904     		.2byte	0x4c9
 5722 0dfa 65080000 		.4byte	0x865
 5723 0dfe 8D050000 		.4byte	.LLST21
 5724 0e02 00       		.byte	0
 5725 0e03 00       		.byte	0
 5726 0e04 20       		.uleb128 0x20
 5727 0e05 D0030000 		.4byte	.LASF180
 5728 0e09 01       		.byte	0x1
 5729 0e0a 0E02     		.2byte	0x20e
 5730 0e0c 01       		.byte	0x1
 5731 0e0d FC000000 		.4byte	0xfc
 5732 0e11 01       		.byte	0x1
 5733 0e12 230E0000 		.4byte	0xe23
 5734 0e16 21       		.uleb128 0x21
 5735 0e17 70636200 		.ascii	"pcb\000"
 5736 0e1b 01       		.byte	0x1
 5737 0e1c 0E02     		.2byte	0x20e
 5738 0e1e FC030000 		.4byte	0x3fc
 5739 0e22 00       		.byte	0
 5740 0e23 20       		.uleb128 0x20
 5741 0e24 CF050000 		.4byte	.LASF181
 5742 0e28 01       		.byte	0x1
 5743 0e29 BA01     		.2byte	0x1ba
 5744 0e2b 01       		.byte	0x1
 5745 0e2c FC000000 		.4byte	0xfc
 5746 0e30 01       		.byte	0x1
 5747 0e31 590E0000 		.4byte	0xe59
 5748 0e35 21       		.uleb128 0x21
 5749 0e36 70636200 		.ascii	"pcb\000"
 5750 0e3a 01       		.byte	0x1
 5751 0e3b BA01     		.2byte	0x1ba
ARM GAS  /var/folders/5n/p_75w94d66l9ssrldxqdhh700000gn/T//ccYNR3t7.s 			page 102


 5752 0e3d 1E090000 		.4byte	0x91e
 5753 0e41 22       		.uleb128 0x22
 5754 0e42 54000000 		.4byte	.LASF182
 5755 0e46 01       		.byte	0x1
 5756 0e47 BC01     		.2byte	0x1bc
 5757 0e49 FC030000 		.4byte	0x3fc
 5758 0e4d 23       		.uleb128 0x23
 5759 0e4e 726300   		.ascii	"rc\000"
 5760 0e51 01       		.byte	0x1
 5761 0e52 BD01     		.2byte	0x1bd
 5762 0e54 FC000000 		.4byte	0xfc
 5763 0e58 00       		.byte	0
 5764 0e59 20       		.uleb128 0x20
 5765 0e5a 74030000 		.4byte	.LASF183
 5766 0e5e 01       		.byte	0x1
 5767 0e5f 3C02     		.2byte	0x23c
 5768 0e61 01       		.byte	0x1
 5769 0e62 FC000000 		.4byte	0xfc
 5770 0e66 01       		.byte	0x1
 5771 0e67 AA0E0000 		.4byte	0xeaa
 5772 0e6b 21       		.uleb128 0x21
 5773 0e6c 70636200 		.ascii	"pcb\000"
 5774 0e70 01       		.byte	0x1
 5775 0e71 3C02     		.2byte	0x23c
 5776 0e73 FC030000 		.4byte	0x3fc
 5777 0e77 22       		.uleb128 0x22
 5778 0e78 FD040000 		.4byte	.LASF184
 5779 0e7c 01       		.byte	0x1
 5780 0e7d 3E02     		.2byte	0x23e
 5781 0e7f 65080000 		.4byte	0x865
 5782 0e83 22       		.uleb128 0x22
 5783 0e84 9A020000 		.4byte	.LASF185
 5784 0e88 01       		.byte	0x1
 5785 0e89 3F02     		.2byte	0x23f
 5786 0e8b BA000000 		.4byte	0xba
 5787 0e8f 23       		.uleb128 0x23
 5788 0e90 65727200 		.ascii	"err\000"
 5789 0e94 01       		.byte	0x1
 5790 0e95 4002     		.2byte	0x240
 5791 0e97 FC000000 		.4byte	0xfc
 5792 0e9b 24       		.uleb128 0x24
 5793 0e9c 22       		.uleb128 0x22
 5794 0e9d 25000000 		.4byte	.LASF186
 5795 0ea1 01       		.byte	0x1
 5796 0ea2 AC02     		.2byte	0x2ac
 5797 0ea4 D0000000 		.4byte	0xd0
 5798 0ea8 00       		.byte	0
 5799 0ea9 00       		.byte	0
 5800 0eaa 25       		.uleb128 0x25
 5801 0eab 01       		.byte	0x1
 5802 0eac 90020000 		.4byte	.LASF208
 5803 0eb0 01       		.byte	0x1
 5804 0eb1 5C       		.byte	0x5c
 5805 0eb2 01       		.byte	0x1
 5806 0eb3 00000000 		.4byte	.LFB7
 5807 0eb7 340C0000 		.4byte	.LFE7
 5808 0ebb A0050000 		.4byte	.LLST22
ARM GAS  /var/folders/5n/p_75w94d66l9ssrldxqdhh700000gn/T//ccYNR3t7.s 			page 103


 5809 0ebf D00F0000 		.4byte	0xfd0
 5810 0ec3 26       		.uleb128 0x26
 5811 0ec4 7000     		.ascii	"p\000"
 5812 0ec6 01       		.byte	0x1
 5813 0ec7 5C       		.byte	0x5c
 5814 0ec8 81010000 		.4byte	0x181
 5815 0ecc CC050000 		.4byte	.LLST23
 5816 0ed0 26       		.uleb128 0x26
 5817 0ed1 696E7000 		.ascii	"inp\000"
 5818 0ed5 01       		.byte	0x1
 5819 0ed6 5C       		.byte	0x5c
 5820 0ed7 D3010000 		.4byte	0x1d3
 5821 0edb 58060000 		.4byte	.LLST24
 5822 0edf 27       		.uleb128 0x27
 5823 0ee0 70636200 		.ascii	"pcb\000"
 5824 0ee4 01       		.byte	0x1
 5825 0ee5 5E       		.byte	0x5e
 5826 0ee6 FC030000 		.4byte	0x3fc
 5827 0eea 8C060000 		.4byte	.LLST25
 5828 0eee 28       		.uleb128 0x28
 5829 0eef B8000000 		.4byte	.LASF174
 5830 0ef3 01       		.byte	0x1
 5831 0ef4 5E       		.byte	0x5e
 5832 0ef5 FC030000 		.4byte	0x3fc
 5833 0ef9 5E070000 		.4byte	.LLST26
 5834 0efd 28       		.uleb128 0x28
 5835 0efe BB070000 		.4byte	.LASF187
 5836 0f02 01       		.byte	0x1
 5837 0f03 5F       		.byte	0x5f
 5838 0f04 1E090000 		.4byte	0x91e
 5839 0f08 94070000 		.4byte	.LLST27
 5840 0f0c 29       		.uleb128 0x29
 5841 0f0d CB070000 		.4byte	.LASF188
 5842 0f11 01       		.byte	0x1
 5843 0f12 64       		.byte	0x64
 5844 0f13 BA000000 		.4byte	0xba
 5845 0f17 27       		.uleb128 0x27
 5846 0f18 65727200 		.ascii	"err\000"
 5847 0f1c 01       		.byte	0x1
 5848 0f1d 65       		.byte	0x65
 5849 0f1e FC000000 		.4byte	0xfc
 5850 0f22 EB070000 		.4byte	.LLST28
 5851 0f26 2A       		.uleb128 0x2a
 5852 0f27 8B050000 		.4byte	.LASF209
 5853 0f2b 01       		.byte	0x1
 5854 0f2c 9001     		.2byte	0x190
 5855 0f2e 34030000 		.4byte	.L303
 5856 0f32 2B       		.uleb128 0x2b
 5857 0f33 590E0000 		.4byte	0xe59
 5858 0f37 E0020000 		.4byte	.LBB11
 5859 0f3b 00000000 		.4byte	.Ldebug_ranges0+0
 5860 0f3f 01       		.byte	0x1
 5861 0f40 3F01     		.2byte	0x13f
 5862 0f42 800F0000 		.4byte	0xf80
 5863 0f46 2C       		.uleb128 0x2c
 5864 0f47 6B0E0000 		.4byte	0xe6b
 5865 0f4b 4C080000 		.4byte	.LLST29
ARM GAS  /var/folders/5n/p_75w94d66l9ssrldxqdhh700000gn/T//ccYNR3t7.s 			page 104


 5866 0f4f 2D       		.uleb128 0x2d
 5867 0f50 58000000 		.4byte	.Ldebug_ranges0+0x58
 5868 0f54 2E       		.uleb128 0x2e
 5869 0f55 770E0000 		.4byte	0xe77
 5870 0f59 A1080000 		.4byte	.LLST30
 5871 0f5d 2E       		.uleb128 0x2e
 5872 0f5e 830E0000 		.4byte	0xe83
 5873 0f62 C1080000 		.4byte	.LLST31
 5874 0f66 2E       		.uleb128 0x2e
 5875 0f67 8F0E0000 		.4byte	0xe8f
 5876 0f6b 29090000 		.4byte	.LLST32
 5877 0f6f 2D       		.uleb128 0x2d
 5878 0f70 B0000000 		.4byte	.Ldebug_ranges0+0xb0
 5879 0f74 2E       		.uleb128 0x2e
 5880 0f75 9C0E0000 		.4byte	0xe9c
 5881 0f79 D6090000 		.4byte	.LLST33
 5882 0f7d 00       		.byte	0
 5883 0f7e 00       		.byte	0
 5884 0f7f 00       		.byte	0
 5885 0f80 2F       		.uleb128 0x2f
 5886 0f81 040E0000 		.4byte	0xe04
 5887 0f85 38070000 		.4byte	.LBB29
 5888 0f89 D0000000 		.4byte	.Ldebug_ranges0+0xd0
 5889 0f8d 01       		.byte	0x1
 5890 0f8e DB       		.byte	0xdb
 5891 0f8f 9D0F0000 		.4byte	0xf9d
 5892 0f93 2C       		.uleb128 0x2c
 5893 0f94 160E0000 		.4byte	0xe16
 5894 0f98 F4090000 		.4byte	.LLST34
 5895 0f9c 00       		.byte	0
 5896 0f9d 30       		.uleb128 0x30
 5897 0f9e 230E0000 		.4byte	0xe23
 5898 0fa2 EA070000 		.4byte	.LBB33
 5899 0fa6 F0000000 		.4byte	.Ldebug_ranges0+0xf0
 5900 0faa 01       		.byte	0x1
 5901 0fab 0E01     		.2byte	0x10e
 5902 0fad 2C       		.uleb128 0x2c
 5903 0fae 350E0000 		.4byte	0xe35
 5904 0fb2 280A0000 		.4byte	.LLST35
 5905 0fb6 2D       		.uleb128 0x2d
 5906 0fb7 10010000 		.4byte	.Ldebug_ranges0+0x110
 5907 0fbb 2E       		.uleb128 0x2e
 5908 0fbc 410E0000 		.4byte	0xe41
 5909 0fc0 5C0A0000 		.4byte	.LLST36
 5910 0fc4 2E       		.uleb128 0x2e
 5911 0fc5 4D0E0000 		.4byte	0xe4d
 5912 0fc9 900A0000 		.4byte	.LLST37
 5913 0fcd 00       		.byte	0
 5914 0fce 00       		.byte	0
 5915 0fcf 00       		.byte	0
 5916 0fd0 31       		.uleb128 0x31
 5917 0fd1 04020000 		.4byte	.LASF189
 5918 0fd5 09       		.byte	0x9
 5919 0fd6 A7       		.byte	0xa7
 5920 0fd7 BD010000 		.4byte	0x1bd
 5921 0fdb 01       		.byte	0x1
 5922 0fdc 01       		.byte	0x1
ARM GAS  /var/folders/5n/p_75w94d66l9ssrldxqdhh700000gn/T//ccYNR3t7.s 			page 105


 5923 0fdd 31       		.uleb128 0x31
 5924 0fde 0A080000 		.4byte	.LASF190
 5925 0fe2 09       		.byte	0x9
 5926 0fe3 A9       		.byte	0xa9
 5927 0fe4 BD010000 		.4byte	0x1bd
 5928 0fe8 01       		.byte	0x1
 5929 0fe9 01       		.byte	0x1
 5930 0fea 32       		.uleb128 0x32
 5931 0feb 34040000 		.4byte	.LASF191
 5932 0fef 0B       		.byte	0xb
 5933 0ff0 3601     		.2byte	0x136
 5934 0ff2 FC030000 		.4byte	0x3fc
 5935 0ff6 01       		.byte	0x1
 5936 0ff7 01       		.byte	0x1
 5937 0ff8 32       		.uleb128 0x32
 5938 0ff9 D4060000 		.4byte	.LASF192
 5939 0ffd 0B       		.byte	0xb
 5940 0ffe 3701     		.2byte	0x137
 5941 1000 E6000000 		.4byte	0xe6
 5942 1004 01       		.byte	0x1
 5943 1005 01       		.byte	0x1
 5944 1006 32       		.uleb128 0x32
 5945 1007 DA040000 		.4byte	.LASF193
 5946 100b 0B       		.byte	0xb
 5947 100c 3F01     		.2byte	0x13f
 5948 100e A7090000 		.4byte	0x9a7
 5949 1012 01       		.byte	0x1
 5950 1013 01       		.byte	0x1
 5951 1014 32       		.uleb128 0x32
 5952 1015 03030000 		.4byte	.LASF194
 5953 1019 0B       		.byte	0xb
 5954 101a 4001     		.2byte	0x140
 5955 101c FC030000 		.4byte	0x3fc
 5956 1020 01       		.byte	0x1
 5957 1021 01       		.byte	0x1
 5958 1022 32       		.uleb128 0x32
 5959 1023 27080000 		.4byte	.LASF195
 5960 1027 0B       		.byte	0xb
 5961 1028 4301     		.2byte	0x143
 5962 102a FC030000 		.4byte	0x3fc
 5963 102e 01       		.byte	0x1
 5964 102f 01       		.byte	0x1
 5965 1030 32       		.uleb128 0x32
 5966 1031 BB020000 		.4byte	.LASF196
 5967 1035 0B       		.byte	0xb
 5968 1036 4501     		.2byte	0x145
 5969 1038 FC030000 		.4byte	0x3fc
 5970 103c 01       		.byte	0x1
 5971 103d 01       		.byte	0x1
 5972 103e 31       		.uleb128 0x31
 5973 103f 1C010000 		.4byte	.LASF197
 5974 1043 0C       		.byte	0xc
 5975 1044 95       		.byte	0x95
 5976 1045 A50B0000 		.4byte	0xba5
 5977 1049 01       		.byte	0x1
 5978 104a 01       		.byte	0x1
 5979 104b 33       		.uleb128 0x33
ARM GAS  /var/folders/5n/p_75w94d66l9ssrldxqdhh700000gn/T//ccYNR3t7.s 			page 106


 5980 104c 4A010000 		.4byte	.LASF198
 5981 1050 01       		.byte	0x1
 5982 1051 3E       		.byte	0x3e
 5983 1052 0E080000 		.4byte	0x80e
 5984 1056 05       		.byte	0x5
 5985 1057 03       		.byte	0x3
 5986 1058 00000000 		.4byte	inseg
 5987 105c 33       		.uleb128 0x33
 5988 105d E8060000 		.4byte	.LASF118
 5989 1061 01       		.byte	0x1
 5990 1062 3F       		.byte	0x3f
 5991 1063 A1090000 		.4byte	0x9a1
 5992 1067 05       		.byte	0x5
 5993 1068 03       		.byte	0x3
 5994 1069 00000000 		.4byte	tcphdr
 5995 106d 33       		.uleb128 0x33
 5996 106e C0070000 		.4byte	.LASF199
 5997 1072 01       		.byte	0x1
 5998 1073 40       		.byte	0x40
 5999 1074 7E100000 		.4byte	0x107e
 6000 1078 05       		.byte	0x5
 6001 1079 03       		.byte	0x3
 6002 107a 00000000 		.4byte	iphdr
 6003 107e 09       		.uleb128 0x9
 6004 107f 04       		.byte	0x4
 6005 1080 46030000 		.4byte	0x346
 6006 1084 33       		.uleb128 0x33
 6007 1085 5E010000 		.4byte	.LASF121
 6008 1089 01       		.byte	0x1
 6009 108a 41       		.byte	0x41
 6010 108b E6000000 		.4byte	0xe6
 6011 108f 05       		.byte	0x5
 6012 1090 03       		.byte	0x3
 6013 1091 00000000 		.4byte	seqno
 6014 1095 33       		.uleb128 0x33
 6015 1096 2E040000 		.4byte	.LASF122
 6016 109a 01       		.byte	0x1
 6017 109b 41       		.byte	0x41
 6018 109c E6000000 		.4byte	0xe6
 6019 10a0 05       		.byte	0x5
 6020 10a1 03       		.byte	0x3
 6021 10a2 00000000 		.4byte	ackno
 6022 10a6 33       		.uleb128 0x33
 6023 10a7 74000000 		.4byte	.LASF28
 6024 10ab 01       		.byte	0x1
 6025 10ac 42       		.byte	0x42
 6026 10ad BA000000 		.4byte	0xba
 6027 10b1 05       		.byte	0x5
 6028 10b2 03       		.byte	0x3
 6029 10b3 00000000 		.4byte	flags
 6030 10b7 33       		.uleb128 0x33
 6031 10b8 9A030000 		.4byte	.LASF200
 6032 10bc 01       		.byte	0x1
 6033 10bd 43       		.byte	0x43
 6034 10be D0000000 		.4byte	0xd0
 6035 10c2 05       		.byte	0x5
 6036 10c3 03       		.byte	0x3
ARM GAS  /var/folders/5n/p_75w94d66l9ssrldxqdhh700000gn/T//ccYNR3t7.s 			page 107


 6037 10c4 00000000 		.4byte	tcplen
 6038 10c8 33       		.uleb128 0x33
 6039 10c9 49050000 		.4byte	.LASF201
 6040 10cd 01       		.byte	0x1
 6041 10ce 45       		.byte	0x45
 6042 10cf BA000000 		.4byte	0xba
 6043 10d3 05       		.byte	0x5
 6044 10d4 03       		.byte	0x3
 6045 10d5 00000000 		.4byte	recv_flags
 6046 10d9 33       		.uleb128 0x33
 6047 10da DE060000 		.4byte	.LASF202
 6048 10de 01       		.byte	0x1
 6049 10df 46       		.byte	0x46
 6050 10e0 81010000 		.4byte	0x181
 6051 10e4 05       		.byte	0x5
 6052 10e5 03       		.byte	0x3
 6053 10e6 00000000 		.4byte	recv_data
 6054 10ea 31       		.uleb128 0x31
 6055 10eb 04020000 		.4byte	.LASF189
 6056 10ef 09       		.byte	0x9
 6057 10f0 A7       		.byte	0xa7
 6058 10f1 BD010000 		.4byte	0x1bd
 6059 10f5 01       		.byte	0x1
 6060 10f6 01       		.byte	0x1
 6061 10f7 31       		.uleb128 0x31
 6062 10f8 0A080000 		.4byte	.LASF190
 6063 10fc 09       		.byte	0x9
 6064 10fd A9       		.byte	0xa9
 6065 10fe BD010000 		.4byte	0x1bd
 6066 1102 01       		.byte	0x1
 6067 1103 01       		.byte	0x1
 6068 1104 34       		.uleb128 0x34
 6069 1105 34040000 		.4byte	.LASF191
 6070 1109 01       		.byte	0x1
 6071 110a 48       		.byte	0x48
 6072 110b FC030000 		.4byte	0x3fc
 6073 110f 01       		.byte	0x1
 6074 1110 05       		.byte	0x5
 6075 1111 03       		.byte	0x3
 6076 1112 00000000 		.4byte	tcp_input_pcb
 6077 1116 32       		.uleb128 0x32
 6078 1117 D4060000 		.4byte	.LASF192
 6079 111b 0B       		.byte	0xb
 6080 111c 3701     		.2byte	0x137
 6081 111e E6000000 		.4byte	0xe6
 6082 1122 01       		.byte	0x1
 6083 1123 01       		.byte	0x1
 6084 1124 32       		.uleb128 0x32
 6085 1125 DA040000 		.4byte	.LASF193
 6086 1129 0B       		.byte	0xb
 6087 112a 3F01     		.2byte	0x13f
 6088 112c A7090000 		.4byte	0x9a7
 6089 1130 01       		.byte	0x1
 6090 1131 01       		.byte	0x1
 6091 1132 32       		.uleb128 0x32
 6092 1133 03030000 		.4byte	.LASF194
 6093 1137 0B       		.byte	0xb
ARM GAS  /var/folders/5n/p_75w94d66l9ssrldxqdhh700000gn/T//ccYNR3t7.s 			page 108


 6094 1138 4001     		.2byte	0x140
 6095 113a FC030000 		.4byte	0x3fc
 6096 113e 01       		.byte	0x1
 6097 113f 01       		.byte	0x1
 6098 1140 32       		.uleb128 0x32
 6099 1141 27080000 		.4byte	.LASF195
 6100 1145 0B       		.byte	0xb
 6101 1146 4301     		.2byte	0x143
 6102 1148 FC030000 		.4byte	0x3fc
 6103 114c 01       		.byte	0x1
 6104 114d 01       		.byte	0x1
 6105 114e 32       		.uleb128 0x32
 6106 114f BB020000 		.4byte	.LASF196
 6107 1153 0B       		.byte	0xb
 6108 1154 4501     		.2byte	0x145
 6109 1156 FC030000 		.4byte	0x3fc
 6110 115a 01       		.byte	0x1
 6111 115b 01       		.byte	0x1
 6112 115c 31       		.uleb128 0x31
 6113 115d 1C010000 		.4byte	.LASF197
 6114 1161 0C       		.byte	0xc
 6115 1162 95       		.byte	0x95
 6116 1163 A50B0000 		.4byte	0xba5
 6117 1167 01       		.byte	0x1
 6118 1168 01       		.byte	0x1
 6119 1169 00       		.byte	0
 6120              		.section	.debug_abbrev,"",%progbits
 6121              	.Ldebug_abbrev0:
 6122 0000 01       		.uleb128 0x1
 6123 0001 11       		.uleb128 0x11
 6124 0002 01       		.byte	0x1
 6125 0003 25       		.uleb128 0x25
 6126 0004 0E       		.uleb128 0xe
 6127 0005 13       		.uleb128 0x13
 6128 0006 0B       		.uleb128 0xb
 6129 0007 03       		.uleb128 0x3
 6130 0008 0E       		.uleb128 0xe
 6131 0009 1B       		.uleb128 0x1b
 6132 000a 0E       		.uleb128 0xe
 6133 000b 11       		.uleb128 0x11
 6134 000c 01       		.uleb128 0x1
 6135 000d 52       		.uleb128 0x52
 6136 000e 01       		.uleb128 0x1
 6137 000f 55       		.uleb128 0x55
 6138 0010 06       		.uleb128 0x6
 6139 0011 10       		.uleb128 0x10
 6140 0012 06       		.uleb128 0x6
 6141 0013 00       		.byte	0
 6142 0014 00       		.byte	0
 6143 0015 02       		.uleb128 0x2
 6144 0016 24       		.uleb128 0x24
 6145 0017 00       		.byte	0
 6146 0018 0B       		.uleb128 0xb
 6147 0019 0B       		.uleb128 0xb
 6148 001a 3E       		.uleb128 0x3e
 6149 001b 0B       		.uleb128 0xb
 6150 001c 03       		.uleb128 0x3
ARM GAS  /var/folders/5n/p_75w94d66l9ssrldxqdhh700000gn/T//ccYNR3t7.s 			page 109


 6151 001d 08       		.uleb128 0x8
 6152 001e 00       		.byte	0
 6153 001f 00       		.byte	0
 6154 0020 03       		.uleb128 0x3
 6155 0021 24       		.uleb128 0x24
 6156 0022 00       		.byte	0
 6157 0023 0B       		.uleb128 0xb
 6158 0024 0B       		.uleb128 0xb
 6159 0025 3E       		.uleb128 0x3e
 6160 0026 0B       		.uleb128 0xb
 6161 0027 03       		.uleb128 0x3
 6162 0028 0E       		.uleb128 0xe
 6163 0029 00       		.byte	0
 6164 002a 00       		.byte	0
 6165 002b 04       		.uleb128 0x4
 6166 002c 16       		.uleb128 0x16
 6167 002d 00       		.byte	0
 6168 002e 03       		.uleb128 0x3
 6169 002f 0E       		.uleb128 0xe
 6170 0030 3A       		.uleb128 0x3a
 6171 0031 0B       		.uleb128 0xb
 6172 0032 3B       		.uleb128 0x3b
 6173 0033 0B       		.uleb128 0xb
 6174 0034 49       		.uleb128 0x49
 6175 0035 13       		.uleb128 0x13
 6176 0036 00       		.byte	0
 6177 0037 00       		.byte	0
 6178 0038 05       		.uleb128 0x5
 6179 0039 0F       		.uleb128 0xf
 6180 003a 00       		.byte	0
 6181 003b 0B       		.uleb128 0xb
 6182 003c 0B       		.uleb128 0xb
 6183 003d 00       		.byte	0
 6184 003e 00       		.byte	0
 6185 003f 06       		.uleb128 0x6
 6186 0040 13       		.uleb128 0x13
 6187 0041 01       		.byte	0x1
 6188 0042 03       		.uleb128 0x3
 6189 0043 0E       		.uleb128 0xe
 6190 0044 0B       		.uleb128 0xb
 6191 0045 0B       		.uleb128 0xb
 6192 0046 3A       		.uleb128 0x3a
 6193 0047 0B       		.uleb128 0xb
 6194 0048 3B       		.uleb128 0x3b
 6195 0049 0B       		.uleb128 0xb
 6196 004a 01       		.uleb128 0x1
 6197 004b 13       		.uleb128 0x13
 6198 004c 00       		.byte	0
 6199 004d 00       		.byte	0
 6200 004e 07       		.uleb128 0x7
 6201 004f 0D       		.uleb128 0xd
 6202 0050 00       		.byte	0
 6203 0051 03       		.uleb128 0x3
 6204 0052 0E       		.uleb128 0xe
 6205 0053 3A       		.uleb128 0x3a
 6206 0054 0B       		.uleb128 0xb
 6207 0055 3B       		.uleb128 0x3b
ARM GAS  /var/folders/5n/p_75w94d66l9ssrldxqdhh700000gn/T//ccYNR3t7.s 			page 110


 6208 0056 0B       		.uleb128 0xb
 6209 0057 49       		.uleb128 0x49
 6210 0058 13       		.uleb128 0x13
 6211 0059 38       		.uleb128 0x38
 6212 005a 0A       		.uleb128 0xa
 6213 005b 00       		.byte	0
 6214 005c 00       		.byte	0
 6215 005d 08       		.uleb128 0x8
 6216 005e 0D       		.uleb128 0xd
 6217 005f 00       		.byte	0
 6218 0060 03       		.uleb128 0x3
 6219 0061 08       		.uleb128 0x8
 6220 0062 3A       		.uleb128 0x3a
 6221 0063 0B       		.uleb128 0xb
 6222 0064 3B       		.uleb128 0x3b
 6223 0065 0B       		.uleb128 0xb
 6224 0066 49       		.uleb128 0x49
 6225 0067 13       		.uleb128 0x13
 6226 0068 38       		.uleb128 0x38
 6227 0069 0A       		.uleb128 0xa
 6228 006a 00       		.byte	0
 6229 006b 00       		.byte	0
 6230 006c 09       		.uleb128 0x9
 6231 006d 0F       		.uleb128 0xf
 6232 006e 00       		.byte	0
 6233 006f 0B       		.uleb128 0xb
 6234 0070 0B       		.uleb128 0xb
 6235 0071 49       		.uleb128 0x49
 6236 0072 13       		.uleb128 0x13
 6237 0073 00       		.byte	0
 6238 0074 00       		.byte	0
 6239 0075 0A       		.uleb128 0xa
 6240 0076 15       		.uleb128 0x15
 6241 0077 01       		.byte	0x1
 6242 0078 27       		.uleb128 0x27
 6243 0079 0C       		.uleb128 0xc
 6244 007a 49       		.uleb128 0x49
 6245 007b 13       		.uleb128 0x13
 6246 007c 01       		.uleb128 0x1
 6247 007d 13       		.uleb128 0x13
 6248 007e 00       		.byte	0
 6249 007f 00       		.byte	0
 6250 0080 0B       		.uleb128 0xb
 6251 0081 05       		.uleb128 0x5
 6252 0082 00       		.byte	0
 6253 0083 49       		.uleb128 0x49
 6254 0084 13       		.uleb128 0x13
 6255 0085 00       		.byte	0
 6256 0086 00       		.byte	0
 6257 0087 0C       		.uleb128 0xc
 6258 0088 01       		.uleb128 0x1
 6259 0089 01       		.byte	0x1
 6260 008a 49       		.uleb128 0x49
 6261 008b 13       		.uleb128 0x13
 6262 008c 01       		.uleb128 0x1
 6263 008d 13       		.uleb128 0x13
 6264 008e 00       		.byte	0
ARM GAS  /var/folders/5n/p_75w94d66l9ssrldxqdhh700000gn/T//ccYNR3t7.s 			page 111


 6265 008f 00       		.byte	0
 6266 0090 0D       		.uleb128 0xd
 6267 0091 21       		.uleb128 0x21
 6268 0092 00       		.byte	0
 6269 0093 49       		.uleb128 0x49
 6270 0094 13       		.uleb128 0x13
 6271 0095 2F       		.uleb128 0x2f
 6272 0096 0B       		.uleb128 0xb
 6273 0097 00       		.byte	0
 6274 0098 00       		.byte	0
 6275 0099 0E       		.uleb128 0xe
 6276 009a 0D       		.uleb128 0xd
 6277 009b 00       		.byte	0
 6278 009c 03       		.uleb128 0x3
 6279 009d 0E       		.uleb128 0xe
 6280 009e 3A       		.uleb128 0x3a
 6281 009f 0B       		.uleb128 0xb
 6282 00a0 3B       		.uleb128 0x3b
 6283 00a1 05       		.uleb128 0x5
 6284 00a2 49       		.uleb128 0x49
 6285 00a3 13       		.uleb128 0x13
 6286 00a4 38       		.uleb128 0x38
 6287 00a5 0A       		.uleb128 0xa
 6288 00a6 00       		.byte	0
 6289 00a7 00       		.byte	0
 6290 00a8 0F       		.uleb128 0xf
 6291 00a9 15       		.uleb128 0x15
 6292 00aa 01       		.byte	0x1
 6293 00ab 27       		.uleb128 0x27
 6294 00ac 0C       		.uleb128 0xc
 6295 00ad 01       		.uleb128 0x1
 6296 00ae 13       		.uleb128 0x13
 6297 00af 00       		.byte	0
 6298 00b0 00       		.byte	0
 6299 00b1 10       		.uleb128 0x10
 6300 00b2 04       		.uleb128 0x4
 6301 00b3 01       		.byte	0x1
 6302 00b4 03       		.uleb128 0x3
 6303 00b5 0E       		.uleb128 0xe
 6304 00b6 0B       		.uleb128 0xb
 6305 00b7 0B       		.uleb128 0xb
 6306 00b8 3A       		.uleb128 0x3a
 6307 00b9 0B       		.uleb128 0xb
 6308 00ba 3B       		.uleb128 0x3b
 6309 00bb 0B       		.uleb128 0xb
 6310 00bc 01       		.uleb128 0x1
 6311 00bd 13       		.uleb128 0x13
 6312 00be 00       		.byte	0
 6313 00bf 00       		.byte	0
 6314 00c0 11       		.uleb128 0x11
 6315 00c1 28       		.uleb128 0x28
 6316 00c2 00       		.byte	0
 6317 00c3 03       		.uleb128 0x3
 6318 00c4 0E       		.uleb128 0xe
 6319 00c5 1C       		.uleb128 0x1c
 6320 00c6 0D       		.uleb128 0xd
 6321 00c7 00       		.byte	0
ARM GAS  /var/folders/5n/p_75w94d66l9ssrldxqdhh700000gn/T//ccYNR3t7.s 			page 112


 6322 00c8 00       		.byte	0
 6323 00c9 12       		.uleb128 0x12
 6324 00ca 13       		.uleb128 0x13
 6325 00cb 01       		.byte	0x1
 6326 00cc 03       		.uleb128 0x3
 6327 00cd 0E       		.uleb128 0xe
 6328 00ce 0B       		.uleb128 0xb
 6329 00cf 0B       		.uleb128 0xb
 6330 00d0 3A       		.uleb128 0x3a
 6331 00d1 0B       		.uleb128 0xb
 6332 00d2 3B       		.uleb128 0x3b
 6333 00d3 05       		.uleb128 0x5
 6334 00d4 01       		.uleb128 0x1
 6335 00d5 13       		.uleb128 0x13
 6336 00d6 00       		.byte	0
 6337 00d7 00       		.byte	0
 6338 00d8 13       		.uleb128 0x13
 6339 00d9 0D       		.uleb128 0xd
 6340 00da 00       		.byte	0
 6341 00db 03       		.uleb128 0x3
 6342 00dc 08       		.uleb128 0x8
 6343 00dd 3A       		.uleb128 0x3a
 6344 00de 0B       		.uleb128 0xb
 6345 00df 3B       		.uleb128 0x3b
 6346 00e0 05       		.uleb128 0x5
 6347 00e1 49       		.uleb128 0x49
 6348 00e2 13       		.uleb128 0x13
 6349 00e3 38       		.uleb128 0x38
 6350 00e4 0A       		.uleb128 0xa
 6351 00e5 00       		.byte	0
 6352 00e6 00       		.byte	0
 6353 00e7 14       		.uleb128 0x14
 6354 00e8 17       		.uleb128 0x17
 6355 00e9 01       		.byte	0x1
 6356 00ea 03       		.uleb128 0x3
 6357 00eb 0E       		.uleb128 0xe
 6358 00ec 0B       		.uleb128 0xb
 6359 00ed 0B       		.uleb128 0xb
 6360 00ee 3A       		.uleb128 0x3a
 6361 00ef 0B       		.uleb128 0xb
 6362 00f0 3B       		.uleb128 0x3b
 6363 00f1 05       		.uleb128 0x5
 6364 00f2 01       		.uleb128 0x1
 6365 00f3 13       		.uleb128 0x13
 6366 00f4 00       		.byte	0
 6367 00f5 00       		.byte	0
 6368 00f6 15       		.uleb128 0x15
 6369 00f7 0D       		.uleb128 0xd
 6370 00f8 00       		.byte	0
 6371 00f9 03       		.uleb128 0x3
 6372 00fa 0E       		.uleb128 0xe
 6373 00fb 3A       		.uleb128 0x3a
 6374 00fc 0B       		.uleb128 0xb
 6375 00fd 3B       		.uleb128 0x3b
 6376 00fe 05       		.uleb128 0x5
 6377 00ff 49       		.uleb128 0x49
 6378 0100 13       		.uleb128 0x13
ARM GAS  /var/folders/5n/p_75w94d66l9ssrldxqdhh700000gn/T//ccYNR3t7.s 			page 113


 6379 0101 00       		.byte	0
 6380 0102 00       		.byte	0
 6381 0103 16       		.uleb128 0x16
 6382 0104 04       		.uleb128 0x4
 6383 0105 01       		.byte	0x1
 6384 0106 0B       		.uleb128 0xb
 6385 0107 0B       		.uleb128 0xb
 6386 0108 3A       		.uleb128 0x3a
 6387 0109 0B       		.uleb128 0xb
 6388 010a 3B       		.uleb128 0x3b
 6389 010b 0B       		.uleb128 0xb
 6390 010c 01       		.uleb128 0x1
 6391 010d 13       		.uleb128 0x13
 6392 010e 00       		.byte	0
 6393 010f 00       		.byte	0
 6394 0110 17       		.uleb128 0x17
 6395 0111 13       		.uleb128 0x13
 6396 0112 01       		.byte	0x1
 6397 0113 03       		.uleb128 0x3
 6398 0114 0E       		.uleb128 0xe
 6399 0115 0B       		.uleb128 0xb
 6400 0116 05       		.uleb128 0x5
 6401 0117 3A       		.uleb128 0x3a
 6402 0118 0B       		.uleb128 0xb
 6403 0119 3B       		.uleb128 0x3b
 6404 011a 0B       		.uleb128 0xb
 6405 011b 01       		.uleb128 0x1
 6406 011c 13       		.uleb128 0x13
 6407 011d 00       		.byte	0
 6408 011e 00       		.byte	0
 6409 011f 18       		.uleb128 0x18
 6410 0120 2E       		.uleb128 0x2e
 6411 0121 01       		.byte	0x1
 6412 0122 03       		.uleb128 0x3
 6413 0123 0E       		.uleb128 0xe
 6414 0124 3A       		.uleb128 0x3a
 6415 0125 0B       		.uleb128 0xb
 6416 0126 3B       		.uleb128 0x3b
 6417 0127 05       		.uleb128 0x5
 6418 0128 27       		.uleb128 0x27
 6419 0129 0C       		.uleb128 0xc
 6420 012a 11       		.uleb128 0x11
 6421 012b 01       		.uleb128 0x1
 6422 012c 12       		.uleb128 0x12
 6423 012d 01       		.uleb128 0x1
 6424 012e 40       		.uleb128 0x40
 6425 012f 06       		.uleb128 0x6
 6426 0130 01       		.uleb128 0x1
 6427 0131 13       		.uleb128 0x13
 6428 0132 00       		.byte	0
 6429 0133 00       		.byte	0
 6430 0134 19       		.uleb128 0x19
 6431 0135 05       		.uleb128 0x5
 6432 0136 00       		.byte	0
 6433 0137 03       		.uleb128 0x3
 6434 0138 08       		.uleb128 0x8
 6435 0139 3A       		.uleb128 0x3a
ARM GAS  /var/folders/5n/p_75w94d66l9ssrldxqdhh700000gn/T//ccYNR3t7.s 			page 114


 6436 013a 0B       		.uleb128 0xb
 6437 013b 3B       		.uleb128 0x3b
 6438 013c 05       		.uleb128 0x5
 6439 013d 49       		.uleb128 0x49
 6440 013e 13       		.uleb128 0x13
 6441 013f 02       		.uleb128 0x2
 6442 0140 06       		.uleb128 0x6
 6443 0141 00       		.byte	0
 6444 0142 00       		.byte	0
 6445 0143 1A       		.uleb128 0x1a
 6446 0144 34       		.uleb128 0x34
 6447 0145 00       		.byte	0
 6448 0146 03       		.uleb128 0x3
 6449 0147 08       		.uleb128 0x8
 6450 0148 3A       		.uleb128 0x3a
 6451 0149 0B       		.uleb128 0xb
 6452 014a 3B       		.uleb128 0x3b
 6453 014b 05       		.uleb128 0x5
 6454 014c 49       		.uleb128 0x49
 6455 014d 13       		.uleb128 0x13
 6456 014e 02       		.uleb128 0x2
 6457 014f 06       		.uleb128 0x6
 6458 0150 00       		.byte	0
 6459 0151 00       		.byte	0
 6460 0152 1B       		.uleb128 0x1b
 6461 0153 34       		.uleb128 0x34
 6462 0154 00       		.byte	0
 6463 0155 03       		.uleb128 0x3
 6464 0156 0E       		.uleb128 0xe
 6465 0157 3A       		.uleb128 0x3a
 6466 0158 0B       		.uleb128 0xb
 6467 0159 3B       		.uleb128 0x3b
 6468 015a 05       		.uleb128 0x5
 6469 015b 49       		.uleb128 0x49
 6470 015c 13       		.uleb128 0x13
 6471 015d 02       		.uleb128 0x2
 6472 015e 0A       		.uleb128 0xa
 6473 015f 00       		.byte	0
 6474 0160 00       		.byte	0
 6475 0161 1C       		.uleb128 0x1c
 6476 0162 05       		.uleb128 0x5
 6477 0163 00       		.byte	0
 6478 0164 03       		.uleb128 0x3
 6479 0165 0E       		.uleb128 0xe
 6480 0166 3A       		.uleb128 0x3a
 6481 0167 0B       		.uleb128 0xb
 6482 0168 3B       		.uleb128 0x3b
 6483 0169 05       		.uleb128 0x5
 6484 016a 49       		.uleb128 0x49
 6485 016b 13       		.uleb128 0x13
 6486 016c 02       		.uleb128 0x2
 6487 016d 06       		.uleb128 0x6
 6488 016e 00       		.byte	0
 6489 016f 00       		.byte	0
 6490 0170 1D       		.uleb128 0x1d
 6491 0171 34       		.uleb128 0x34
 6492 0172 00       		.byte	0
ARM GAS  /var/folders/5n/p_75w94d66l9ssrldxqdhh700000gn/T//ccYNR3t7.s 			page 115


 6493 0173 03       		.uleb128 0x3
 6494 0174 0E       		.uleb128 0xe
 6495 0175 3A       		.uleb128 0x3a
 6496 0176 0B       		.uleb128 0xb
 6497 0177 3B       		.uleb128 0x3b
 6498 0178 05       		.uleb128 0x5
 6499 0179 49       		.uleb128 0x49
 6500 017a 13       		.uleb128 0x13
 6501 017b 02       		.uleb128 0x2
 6502 017c 06       		.uleb128 0x6
 6503 017d 00       		.byte	0
 6504 017e 00       		.byte	0
 6505 017f 1E       		.uleb128 0x1e
 6506 0180 0B       		.uleb128 0xb
 6507 0181 01       		.byte	0x1
 6508 0182 11       		.uleb128 0x11
 6509 0183 01       		.uleb128 0x1
 6510 0184 12       		.uleb128 0x12
 6511 0185 01       		.uleb128 0x1
 6512 0186 01       		.uleb128 0x1
 6513 0187 13       		.uleb128 0x13
 6514 0188 00       		.byte	0
 6515 0189 00       		.byte	0
 6516 018a 1F       		.uleb128 0x1f
 6517 018b 0B       		.uleb128 0xb
 6518 018c 01       		.byte	0x1
 6519 018d 11       		.uleb128 0x11
 6520 018e 01       		.uleb128 0x1
 6521 018f 12       		.uleb128 0x12
 6522 0190 01       		.uleb128 0x1
 6523 0191 00       		.byte	0
 6524 0192 00       		.byte	0
 6525 0193 20       		.uleb128 0x20
 6526 0194 2E       		.uleb128 0x2e
 6527 0195 01       		.byte	0x1
 6528 0196 03       		.uleb128 0x3
 6529 0197 0E       		.uleb128 0xe
 6530 0198 3A       		.uleb128 0x3a
 6531 0199 0B       		.uleb128 0xb
 6532 019a 3B       		.uleb128 0x3b
 6533 019b 05       		.uleb128 0x5
 6534 019c 27       		.uleb128 0x27
 6535 019d 0C       		.uleb128 0xc
 6536 019e 49       		.uleb128 0x49
 6537 019f 13       		.uleb128 0x13
 6538 01a0 20       		.uleb128 0x20
 6539 01a1 0B       		.uleb128 0xb
 6540 01a2 01       		.uleb128 0x1
 6541 01a3 13       		.uleb128 0x13
 6542 01a4 00       		.byte	0
 6543 01a5 00       		.byte	0
 6544 01a6 21       		.uleb128 0x21
 6545 01a7 05       		.uleb128 0x5
 6546 01a8 00       		.byte	0
 6547 01a9 03       		.uleb128 0x3
 6548 01aa 08       		.uleb128 0x8
 6549 01ab 3A       		.uleb128 0x3a
ARM GAS  /var/folders/5n/p_75w94d66l9ssrldxqdhh700000gn/T//ccYNR3t7.s 			page 116


 6550 01ac 0B       		.uleb128 0xb
 6551 01ad 3B       		.uleb128 0x3b
 6552 01ae 05       		.uleb128 0x5
 6553 01af 49       		.uleb128 0x49
 6554 01b0 13       		.uleb128 0x13
 6555 01b1 00       		.byte	0
 6556 01b2 00       		.byte	0
 6557 01b3 22       		.uleb128 0x22
 6558 01b4 34       		.uleb128 0x34
 6559 01b5 00       		.byte	0
 6560 01b6 03       		.uleb128 0x3
 6561 01b7 0E       		.uleb128 0xe
 6562 01b8 3A       		.uleb128 0x3a
 6563 01b9 0B       		.uleb128 0xb
 6564 01ba 3B       		.uleb128 0x3b
 6565 01bb 05       		.uleb128 0x5
 6566 01bc 49       		.uleb128 0x49
 6567 01bd 13       		.uleb128 0x13
 6568 01be 00       		.byte	0
 6569 01bf 00       		.byte	0
 6570 01c0 23       		.uleb128 0x23
 6571 01c1 34       		.uleb128 0x34
 6572 01c2 00       		.byte	0
 6573 01c3 03       		.uleb128 0x3
 6574 01c4 08       		.uleb128 0x8
 6575 01c5 3A       		.uleb128 0x3a
 6576 01c6 0B       		.uleb128 0xb
 6577 01c7 3B       		.uleb128 0x3b
 6578 01c8 05       		.uleb128 0x5
 6579 01c9 49       		.uleb128 0x49
 6580 01ca 13       		.uleb128 0x13
 6581 01cb 00       		.byte	0
 6582 01cc 00       		.byte	0
 6583 01cd 24       		.uleb128 0x24
 6584 01ce 0B       		.uleb128 0xb
 6585 01cf 01       		.byte	0x1
 6586 01d0 00       		.byte	0
 6587 01d1 00       		.byte	0
 6588 01d2 25       		.uleb128 0x25
 6589 01d3 2E       		.uleb128 0x2e
 6590 01d4 01       		.byte	0x1
 6591 01d5 3F       		.uleb128 0x3f
 6592 01d6 0C       		.uleb128 0xc
 6593 01d7 03       		.uleb128 0x3
 6594 01d8 0E       		.uleb128 0xe
 6595 01d9 3A       		.uleb128 0x3a
 6596 01da 0B       		.uleb128 0xb
 6597 01db 3B       		.uleb128 0x3b
 6598 01dc 0B       		.uleb128 0xb
 6599 01dd 27       		.uleb128 0x27
 6600 01de 0C       		.uleb128 0xc
 6601 01df 11       		.uleb128 0x11
 6602 01e0 01       		.uleb128 0x1
 6603 01e1 12       		.uleb128 0x12
 6604 01e2 01       		.uleb128 0x1
 6605 01e3 40       		.uleb128 0x40
 6606 01e4 06       		.uleb128 0x6
ARM GAS  /var/folders/5n/p_75w94d66l9ssrldxqdhh700000gn/T//ccYNR3t7.s 			page 117


 6607 01e5 01       		.uleb128 0x1
 6608 01e6 13       		.uleb128 0x13
 6609 01e7 00       		.byte	0
 6610 01e8 00       		.byte	0
 6611 01e9 26       		.uleb128 0x26
 6612 01ea 05       		.uleb128 0x5
 6613 01eb 00       		.byte	0
 6614 01ec 03       		.uleb128 0x3
 6615 01ed 08       		.uleb128 0x8
 6616 01ee 3A       		.uleb128 0x3a
 6617 01ef 0B       		.uleb128 0xb
 6618 01f0 3B       		.uleb128 0x3b
 6619 01f1 0B       		.uleb128 0xb
 6620 01f2 49       		.uleb128 0x49
 6621 01f3 13       		.uleb128 0x13
 6622 01f4 02       		.uleb128 0x2
 6623 01f5 06       		.uleb128 0x6
 6624 01f6 00       		.byte	0
 6625 01f7 00       		.byte	0
 6626 01f8 27       		.uleb128 0x27
 6627 01f9 34       		.uleb128 0x34
 6628 01fa 00       		.byte	0
 6629 01fb 03       		.uleb128 0x3
 6630 01fc 08       		.uleb128 0x8
 6631 01fd 3A       		.uleb128 0x3a
 6632 01fe 0B       		.uleb128 0xb
 6633 01ff 3B       		.uleb128 0x3b
 6634 0200 0B       		.uleb128 0xb
 6635 0201 49       		.uleb128 0x49
 6636 0202 13       		.uleb128 0x13
 6637 0203 02       		.uleb128 0x2
 6638 0204 06       		.uleb128 0x6
 6639 0205 00       		.byte	0
 6640 0206 00       		.byte	0
 6641 0207 28       		.uleb128 0x28
 6642 0208 34       		.uleb128 0x34
 6643 0209 00       		.byte	0
 6644 020a 03       		.uleb128 0x3
 6645 020b 0E       		.uleb128 0xe
 6646 020c 3A       		.uleb128 0x3a
 6647 020d 0B       		.uleb128 0xb
 6648 020e 3B       		.uleb128 0x3b
 6649 020f 0B       		.uleb128 0xb
 6650 0210 49       		.uleb128 0x49
 6651 0211 13       		.uleb128 0x13
 6652 0212 02       		.uleb128 0x2
 6653 0213 06       		.uleb128 0x6
 6654 0214 00       		.byte	0
 6655 0215 00       		.byte	0
 6656 0216 29       		.uleb128 0x29
 6657 0217 34       		.uleb128 0x34
 6658 0218 00       		.byte	0
 6659 0219 03       		.uleb128 0x3
 6660 021a 0E       		.uleb128 0xe
 6661 021b 3A       		.uleb128 0x3a
 6662 021c 0B       		.uleb128 0xb
 6663 021d 3B       		.uleb128 0x3b
ARM GAS  /var/folders/5n/p_75w94d66l9ssrldxqdhh700000gn/T//ccYNR3t7.s 			page 118


 6664 021e 0B       		.uleb128 0xb
 6665 021f 49       		.uleb128 0x49
 6666 0220 13       		.uleb128 0x13
 6667 0221 00       		.byte	0
 6668 0222 00       		.byte	0
 6669 0223 2A       		.uleb128 0x2a
 6670 0224 0A       		.uleb128 0xa
 6671 0225 00       		.byte	0
 6672 0226 03       		.uleb128 0x3
 6673 0227 0E       		.uleb128 0xe
 6674 0228 3A       		.uleb128 0x3a
 6675 0229 0B       		.uleb128 0xb
 6676 022a 3B       		.uleb128 0x3b
 6677 022b 05       		.uleb128 0x5
 6678 022c 11       		.uleb128 0x11
 6679 022d 01       		.uleb128 0x1
 6680 022e 00       		.byte	0
 6681 022f 00       		.byte	0
 6682 0230 2B       		.uleb128 0x2b
 6683 0231 1D       		.uleb128 0x1d
 6684 0232 01       		.byte	0x1
 6685 0233 31       		.uleb128 0x31
 6686 0234 13       		.uleb128 0x13
 6687 0235 52       		.uleb128 0x52
 6688 0236 01       		.uleb128 0x1
 6689 0237 55       		.uleb128 0x55
 6690 0238 06       		.uleb128 0x6
 6691 0239 58       		.uleb128 0x58
 6692 023a 0B       		.uleb128 0xb
 6693 023b 59       		.uleb128 0x59
 6694 023c 05       		.uleb128 0x5
 6695 023d 01       		.uleb128 0x1
 6696 023e 13       		.uleb128 0x13
 6697 023f 00       		.byte	0
 6698 0240 00       		.byte	0
 6699 0241 2C       		.uleb128 0x2c
 6700 0242 05       		.uleb128 0x5
 6701 0243 00       		.byte	0
 6702 0244 31       		.uleb128 0x31
 6703 0245 13       		.uleb128 0x13
 6704 0246 02       		.uleb128 0x2
 6705 0247 06       		.uleb128 0x6
 6706 0248 00       		.byte	0
 6707 0249 00       		.byte	0
 6708 024a 2D       		.uleb128 0x2d
 6709 024b 0B       		.uleb128 0xb
 6710 024c 01       		.byte	0x1
 6711 024d 55       		.uleb128 0x55
 6712 024e 06       		.uleb128 0x6
 6713 024f 00       		.byte	0
 6714 0250 00       		.byte	0
 6715 0251 2E       		.uleb128 0x2e
 6716 0252 34       		.uleb128 0x34
 6717 0253 00       		.byte	0
 6718 0254 31       		.uleb128 0x31
 6719 0255 13       		.uleb128 0x13
 6720 0256 02       		.uleb128 0x2
ARM GAS  /var/folders/5n/p_75w94d66l9ssrldxqdhh700000gn/T//ccYNR3t7.s 			page 119


 6721 0257 06       		.uleb128 0x6
 6722 0258 00       		.byte	0
 6723 0259 00       		.byte	0
 6724 025a 2F       		.uleb128 0x2f
 6725 025b 1D       		.uleb128 0x1d
 6726 025c 01       		.byte	0x1
 6727 025d 31       		.uleb128 0x31
 6728 025e 13       		.uleb128 0x13
 6729 025f 52       		.uleb128 0x52
 6730 0260 01       		.uleb128 0x1
 6731 0261 55       		.uleb128 0x55
 6732 0262 06       		.uleb128 0x6
 6733 0263 58       		.uleb128 0x58
 6734 0264 0B       		.uleb128 0xb
 6735 0265 59       		.uleb128 0x59
 6736 0266 0B       		.uleb128 0xb
 6737 0267 01       		.uleb128 0x1
 6738 0268 13       		.uleb128 0x13
 6739 0269 00       		.byte	0
 6740 026a 00       		.byte	0
 6741 026b 30       		.uleb128 0x30
 6742 026c 1D       		.uleb128 0x1d
 6743 026d 01       		.byte	0x1
 6744 026e 31       		.uleb128 0x31
 6745 026f 13       		.uleb128 0x13
 6746 0270 52       		.uleb128 0x52
 6747 0271 01       		.uleb128 0x1
 6748 0272 55       		.uleb128 0x55
 6749 0273 06       		.uleb128 0x6
 6750 0274 58       		.uleb128 0x58
 6751 0275 0B       		.uleb128 0xb
 6752 0276 59       		.uleb128 0x59
 6753 0277 05       		.uleb128 0x5
 6754 0278 00       		.byte	0
 6755 0279 00       		.byte	0
 6756 027a 31       		.uleb128 0x31
 6757 027b 34       		.uleb128 0x34
 6758 027c 00       		.byte	0
 6759 027d 03       		.uleb128 0x3
 6760 027e 0E       		.uleb128 0xe
 6761 027f 3A       		.uleb128 0x3a
 6762 0280 0B       		.uleb128 0xb
 6763 0281 3B       		.uleb128 0x3b
 6764 0282 0B       		.uleb128 0xb
 6765 0283 49       		.uleb128 0x49
 6766 0284 13       		.uleb128 0x13
 6767 0285 3F       		.uleb128 0x3f
 6768 0286 0C       		.uleb128 0xc
 6769 0287 3C       		.uleb128 0x3c
 6770 0288 0C       		.uleb128 0xc
 6771 0289 00       		.byte	0
 6772 028a 00       		.byte	0
 6773 028b 32       		.uleb128 0x32
 6774 028c 34       		.uleb128 0x34
 6775 028d 00       		.byte	0
 6776 028e 03       		.uleb128 0x3
 6777 028f 0E       		.uleb128 0xe
ARM GAS  /var/folders/5n/p_75w94d66l9ssrldxqdhh700000gn/T//ccYNR3t7.s 			page 120


 6778 0290 3A       		.uleb128 0x3a
 6779 0291 0B       		.uleb128 0xb
 6780 0292 3B       		.uleb128 0x3b
 6781 0293 05       		.uleb128 0x5
 6782 0294 49       		.uleb128 0x49
 6783 0295 13       		.uleb128 0x13
 6784 0296 3F       		.uleb128 0x3f
 6785 0297 0C       		.uleb128 0xc
 6786 0298 3C       		.uleb128 0x3c
 6787 0299 0C       		.uleb128 0xc
 6788 029a 00       		.byte	0
 6789 029b 00       		.byte	0
 6790 029c 33       		.uleb128 0x33
 6791 029d 34       		.uleb128 0x34
 6792 029e 00       		.byte	0
 6793 029f 03       		.uleb128 0x3
 6794 02a0 0E       		.uleb128 0xe
 6795 02a1 3A       		.uleb128 0x3a
 6796 02a2 0B       		.uleb128 0xb
 6797 02a3 3B       		.uleb128 0x3b
 6798 02a4 0B       		.uleb128 0xb
 6799 02a5 49       		.uleb128 0x49
 6800 02a6 13       		.uleb128 0x13
 6801 02a7 02       		.uleb128 0x2
 6802 02a8 0A       		.uleb128 0xa
 6803 02a9 00       		.byte	0
 6804 02aa 00       		.byte	0
 6805 02ab 34       		.uleb128 0x34
 6806 02ac 34       		.uleb128 0x34
 6807 02ad 00       		.byte	0
 6808 02ae 03       		.uleb128 0x3
 6809 02af 0E       		.uleb128 0xe
 6810 02b0 3A       		.uleb128 0x3a
 6811 02b1 0B       		.uleb128 0xb
 6812 02b2 3B       		.uleb128 0x3b
 6813 02b3 0B       		.uleb128 0xb
 6814 02b4 49       		.uleb128 0x49
 6815 02b5 13       		.uleb128 0x13
 6816 02b6 3F       		.uleb128 0x3f
 6817 02b7 0C       		.uleb128 0xc
 6818 02b8 02       		.uleb128 0x2
 6819 02b9 0A       		.uleb128 0xa
 6820 02ba 00       		.byte	0
 6821 02bb 00       		.byte	0
 6822 02bc 00       		.byte	0
 6823              		.section	.debug_loc,"",%progbits
 6824              	.Ldebug_loc0:
 6825              	.LLST0:
 6826 0000 00000000 		.4byte	.LFB13
 6827 0004 02000000 		.4byte	.LCFI0
 6828 0008 0200     		.2byte	0x2
 6829 000a 7D       		.byte	0x7d
 6830 000b 00       		.sleb128 0
 6831 000c 02000000 		.4byte	.LCFI0
 6832 0010 98000000 		.4byte	.LFE13
 6833 0014 0200     		.2byte	0x2
 6834 0016 7D       		.byte	0x7d
ARM GAS  /var/folders/5n/p_75w94d66l9ssrldxqdhh700000gn/T//ccYNR3t7.s 			page 121


 6835 0017 18       		.sleb128 24
 6836 0018 00000000 		.4byte	0
 6837 001c 00000000 		.4byte	0
 6838              	.LLST1:
 6839 0020 00000000 		.4byte	.LVL0
 6840 0024 10000000 		.4byte	.LVL1
 6841 0028 0100     		.2byte	0x1
 6842 002a 50       		.byte	0x50
 6843 002b 10000000 		.4byte	.LVL1
 6844 002f 98000000 		.4byte	.LFE13
 6845 0033 0100     		.2byte	0x1
 6846 0035 56       		.byte	0x56
 6847 0036 00000000 		.4byte	0
 6848 003a 00000000 		.4byte	0
 6849              	.LLST2:
 6850 003e 36000000 		.4byte	.LVL3
 6851 0042 46000000 		.4byte	.LVL5
 6852 0046 0200     		.2byte	0x2
 6853 0048 30       		.byte	0x30
 6854 0049 9F       		.byte	0x9f
 6855 004a 58000000 		.4byte	.LVL6
 6856 004e 62000000 		.4byte	.LVL8
 6857 0052 0100     		.2byte	0x1
 6858 0054 53       		.byte	0x53
 6859 0055 66000000 		.4byte	.LVL9
 6860 0059 68000000 		.4byte	.LVL10
 6861 005d 0100     		.2byte	0x1
 6862 005f 53       		.byte	0x53
 6863 0060 90000000 		.4byte	.LVL13
 6864 0064 98000000 		.4byte	.LFE13
 6865 0068 0100     		.2byte	0x1
 6866 006a 53       		.byte	0x53
 6867 006b 00000000 		.4byte	0
 6868 006f 00000000 		.4byte	0
 6869              	.LLST3:
 6870 0073 7E000000 		.4byte	.LVL11
 6871 0077 8A000000 		.4byte	.LVL12
 6872 007b 0100     		.2byte	0x1
 6873 007d 52       		.byte	0x52
 6874 007e 00000000 		.4byte	0
 6875 0082 00000000 		.4byte	0
 6876              	.LLST4:
 6877 0086 40000000 		.4byte	.LVL4
 6878 008a 46000000 		.4byte	.LVL5
 6879 008e 0500     		.2byte	0x5
 6880 0090 74       		.byte	0x74
 6881 0091 00       		.sleb128 0
 6882 0092 73       		.byte	0x73
 6883 0093 00       		.sleb128 0
 6884 0094 22       		.byte	0x22
 6885 0095 5C000000 		.4byte	.LVL7
 6886 0099 62000000 		.4byte	.LVL8
 6887 009d 0500     		.2byte	0x5
 6888 009f 74       		.byte	0x74
 6889 00a0 00       		.sleb128 0
 6890 00a1 73       		.byte	0x73
 6891 00a2 00       		.sleb128 0
ARM GAS  /var/folders/5n/p_75w94d66l9ssrldxqdhh700000gn/T//ccYNR3t7.s 			page 122


 6892 00a3 22       		.byte	0x22
 6893 00a4 00000000 		.4byte	0
 6894 00a8 00000000 		.4byte	0
 6895              	.LLST5:
 6896 00ac 00000000 		.4byte	.LFB11
 6897 00b0 04000000 		.4byte	.LCFI1
 6898 00b4 0200     		.2byte	0x2
 6899 00b6 7D       		.byte	0x7d
 6900 00b7 00       		.sleb128 0
 6901 00b8 04000000 		.4byte	.LCFI1
 6902 00bc FC000000 		.4byte	.LFE11
 6903 00c0 0200     		.2byte	0x2
 6904 00c2 7D       		.byte	0x7d
 6905 00c3 20       		.sleb128 32
 6906 00c4 00000000 		.4byte	0
 6907 00c8 00000000 		.4byte	0
 6908              	.LLST6:
 6909 00cc 00000000 		.4byte	.LVL14
 6910 00d0 0C000000 		.4byte	.LVL15
 6911 00d4 0100     		.2byte	0x1
 6912 00d6 50       		.byte	0x50
 6913 00d7 0C000000 		.4byte	.LVL15
 6914 00db FC000000 		.4byte	.LFE11
 6915 00df 0100     		.2byte	0x1
 6916 00e1 55       		.byte	0x55
 6917 00e2 00000000 		.4byte	0
 6918 00e6 00000000 		.4byte	0
 6919              	.LLST7:
 6920 00ea 00000000 		.4byte	.LVL14
 6921 00ee 15000000 		.4byte	.LVL16-1
 6922 00f2 0100     		.2byte	0x1
 6923 00f4 51       		.byte	0x51
 6924 00f5 15000000 		.4byte	.LVL16-1
 6925 00f9 54000000 		.4byte	.LVL18
 6926 00fd 0100     		.2byte	0x1
 6927 00ff 56       		.byte	0x56
 6928 0100 54000000 		.4byte	.LVL18
 6929 0104 59000000 		.4byte	.LVL19-1
 6930 0108 0200     		.2byte	0x2
 6931 010a 76       		.byte	0x76
 6932 010b 00       		.sleb128 0
 6933 010c 59000000 		.4byte	.LVL19-1
 6934 0110 8C000000 		.4byte	.LVL21
 6935 0114 0100     		.2byte	0x1
 6936 0116 54       		.byte	0x54
 6937 0117 8C000000 		.4byte	.LVL21
 6938 011b C2000000 		.4byte	.LVL23
 6939 011f 0100     		.2byte	0x1
 6940 0121 56       		.byte	0x56
 6941 0122 C2000000 		.4byte	.LVL23
 6942 0126 C7000000 		.4byte	.LVL24-1
 6943 012a 0200     		.2byte	0x2
 6944 012c 76       		.byte	0x76
 6945 012d 00       		.sleb128 0
 6946 012e C7000000 		.4byte	.LVL24-1
 6947 0132 CC000000 		.4byte	.LVL25
 6948 0136 0100     		.2byte	0x1
ARM GAS  /var/folders/5n/p_75w94d66l9ssrldxqdhh700000gn/T//ccYNR3t7.s 			page 123


 6949 0138 54       		.byte	0x54
 6950 0139 CE000000 		.4byte	.LVL26
 6951 013d D4000000 		.4byte	.LVL27
 6952 0141 0100     		.2byte	0x1
 6953 0143 54       		.byte	0x54
 6954 0144 E4000000 		.4byte	.LVL28
 6955 0148 EA000000 		.4byte	.LVL29
 6956 014c 0100     		.2byte	0x1
 6957 014e 54       		.byte	0x54
 6958 014f EA000000 		.4byte	.LVL29
 6959 0153 F2000000 		.4byte	.LVL30
 6960 0157 0100     		.2byte	0x1
 6961 0159 56       		.byte	0x56
 6962 015a F2000000 		.4byte	.LVL30
 6963 015e FC000000 		.4byte	.LFE11
 6964 0162 0100     		.2byte	0x1
 6965 0164 54       		.byte	0x54
 6966 0165 00000000 		.4byte	0
 6967 0169 00000000 		.4byte	0
 6968              	.LLST8:
 6969 016d 52000000 		.4byte	.LVL17
 6970 0171 74000000 		.4byte	.LVL20
 6971 0175 0100     		.2byte	0x1
 6972 0177 56       		.byte	0x56
 6973 0178 C0000000 		.4byte	.LVL22
 6974 017c CC000000 		.4byte	.LVL25
 6975 0180 0100     		.2byte	0x1
 6976 0182 56       		.byte	0x56
 6977 0183 00000000 		.4byte	0
 6978 0187 00000000 		.4byte	0
 6979              	.LLST9:
 6980 018b 00000000 		.4byte	.LFB12
 6981 018f 04000000 		.4byte	.LCFI2
 6982 0193 0200     		.2byte	0x2
 6983 0195 7D       		.byte	0x7d
 6984 0196 00       		.sleb128 0
 6985 0197 04000000 		.4byte	.LCFI2
 6986 019b 10000000 		.4byte	.LCFI3
 6987 019f 0200     		.2byte	0x2
 6988 01a1 7D       		.byte	0x7d
 6989 01a2 24       		.sleb128 36
 6990 01a3 10000000 		.4byte	.LCFI3
 6991 01a7 AC0B0000 		.4byte	.LFE12
 6992 01ab 0200     		.2byte	0x2
 6993 01ad 7D       		.byte	0x7d
 6994 01ae 38       		.sleb128 56
 6995 01af 00000000 		.4byte	0
 6996 01b3 00000000 		.4byte	0
 6997              	.LLST10:
 6998 01b7 00000000 		.4byte	.LVL31
 6999 01bb 0E000000 		.4byte	.LVL32
 7000 01bf 0100     		.2byte	0x1
 7001 01c1 50       		.byte	0x50
 7002 01c2 0E000000 		.4byte	.LVL32
 7003 01c6 78010000 		.4byte	.LVL38
 7004 01ca 0100     		.2byte	0x1
 7005 01cc 54       		.byte	0x54
ARM GAS  /var/folders/5n/p_75w94d66l9ssrldxqdhh700000gn/T//ccYNR3t7.s 			page 124


 7006 01cd 7E010000 		.4byte	.LVL39
 7007 01d1 AA090000 		.4byte	.LVL100
 7008 01d5 0100     		.2byte	0x1
 7009 01d7 54       		.byte	0x54
 7010 01d8 F4090000 		.4byte	.LVL102
 7011 01dc AC0B0000 		.4byte	.LFE12
 7012 01e0 0100     		.2byte	0x1
 7013 01e2 54       		.byte	0x54
 7014 01e3 00000000 		.4byte	0
 7015 01e7 00000000 		.4byte	0
 7016              	.LLST11:
 7017 01eb C2000000 		.4byte	.LVL35
 7018 01ef CF000000 		.4byte	.LVL36-1
 7019 01f3 0300     		.2byte	0x3
 7020 01f5 74       		.byte	0x74
 7021 01f6 F400     		.sleb128 116
 7022 01f8 CF000000 		.4byte	.LVL36-1
 7023 01fc 04010000 		.4byte	.LVL37
 7024 0200 0100     		.2byte	0x1
 7025 0202 55       		.byte	0x55
 7026 0203 7E010000 		.4byte	.LVL39
 7027 0207 B0010000 		.4byte	.LVL40
 7028 020b 0100     		.2byte	0x1
 7029 020d 55       		.byte	0x55
 7030 020e 90020000 		.4byte	.LVL42
 7031 0212 9D020000 		.4byte	.LVL43-1
 7032 0216 0300     		.2byte	0x3
 7033 0218 74       		.byte	0x74
 7034 0219 F800     		.sleb128 120
 7035 021b 9D020000 		.4byte	.LVL43-1
 7036 021f D6020000 		.4byte	.LVL44
 7037 0223 0100     		.2byte	0x1
 7038 0225 55       		.byte	0x55
 7039 0226 2C030000 		.4byte	.LVL51
 7040 022a 50030000 		.4byte	.LVL52
 7041 022e 0100     		.2byte	0x1
 7042 0230 55       		.byte	0x55
 7043 0231 64030000 		.4byte	.LVL53
 7044 0235 92030000 		.4byte	.LVL54
 7045 0239 0300     		.2byte	0x3
 7046 023b 74       		.byte	0x74
 7047 023c FC00     		.sleb128 124
 7048 023e 92030000 		.4byte	.LVL54
 7049 0242 C0030000 		.4byte	.LVL55
 7050 0246 0100     		.2byte	0x1
 7051 0248 55       		.byte	0x55
 7052 0249 C0030000 		.4byte	.LVL55
 7053 024d E2030000 		.4byte	.LVL56
 7054 0251 0200     		.2byte	0x2
 7055 0253 75       		.byte	0x75
 7056 0254 00       		.sleb128 0
 7057 0255 E2030000 		.4byte	.LVL56
 7058 0259 B2040000 		.4byte	.LVL59
 7059 025d 0100     		.2byte	0x1
 7060 025f 55       		.byte	0x55
 7061 0260 9E060000 		.4byte	.LVL81
 7062 0264 E2060000 		.4byte	.LVL82
ARM GAS  /var/folders/5n/p_75w94d66l9ssrldxqdhh700000gn/T//ccYNR3t7.s 			page 125


 7063 0268 0300     		.2byte	0x3
 7064 026a 74       		.byte	0x74
 7065 026b FC00     		.sleb128 124
 7066 026d E2060000 		.4byte	.LVL82
 7067 0271 E6060000 		.4byte	.LVL83
 7068 0275 0100     		.2byte	0x1
 7069 0277 58       		.byte	0x58
 7070 0278 E6060000 		.4byte	.LVL83
 7071 027c EB060000 		.4byte	.LVL84-1
 7072 0280 0200     		.2byte	0x2
 7073 0282 78       		.byte	0x78
 7074 0283 00       		.sleb128 0
 7075 0284 EB060000 		.4byte	.LVL84-1
 7076 0288 2C070000 		.4byte	.LVL86
 7077 028c 0100     		.2byte	0x1
 7078 028e 56       		.byte	0x56
 7079 028f 2C070000 		.4byte	.LVL86
 7080 0293 92070000 		.4byte	.LVL87
 7081 0297 0100     		.2byte	0x1
 7082 0299 58       		.byte	0x58
 7083 029a 40090000 		.4byte	.LVL93
 7084 029e 44090000 		.4byte	.LVL94
 7085 02a2 0100     		.2byte	0x1
 7086 02a4 55       		.byte	0x55
 7087 02a5 44090000 		.4byte	.LVL94
 7088 02a9 55090000 		.4byte	.LVL95-1
 7089 02ad 0100     		.2byte	0x1
 7090 02af 52       		.byte	0x52
 7091 02b0 A0090000 		.4byte	.LVL98
 7092 02b4 F4090000 		.4byte	.LVL102
 7093 02b8 0100     		.2byte	0x1
 7094 02ba 55       		.byte	0x55
 7095 02bb 7E0A0000 		.4byte	.LVL104
 7096 02bf 800A0000 		.4byte	.LVL105
 7097 02c3 0100     		.2byte	0x1
 7098 02c5 58       		.byte	0x58
 7099 02c6 800A0000 		.4byte	.LVL105
 7100 02ca 080B0000 		.4byte	.LVL106
 7101 02ce 0100     		.2byte	0x1
 7102 02d0 56       		.byte	0x56
 7103 02d1 2A0B0000 		.4byte	.LVL109
 7104 02d5 320B0000 		.4byte	.LVL110
 7105 02d9 0100     		.2byte	0x1
 7106 02db 55       		.byte	0x55
 7107 02dc 700B0000 		.4byte	.LVL114
 7108 02e0 AC0B0000 		.4byte	.LFE12
 7109 02e4 0100     		.2byte	0x1
 7110 02e6 55       		.byte	0x55
 7111 02e7 00000000 		.4byte	0
 7112 02eb 00000000 		.4byte	0
 7113              	.LLST12:
 7114 02ef 64030000 		.4byte	.LVL53
 7115 02f3 92030000 		.4byte	.LVL54
 7116 02f7 0200     		.2byte	0x2
 7117 02f9 30       		.byte	0x30
 7118 02fa 9F       		.byte	0x9f
 7119 02fb C0030000 		.4byte	.LVL55
ARM GAS  /var/folders/5n/p_75w94d66l9ssrldxqdhh700000gn/T//ccYNR3t7.s 			page 126


 7120 02ff E2030000 		.4byte	.LVL56
 7121 0303 0100     		.2byte	0x1
 7122 0305 55       		.byte	0x55
 7123 0306 E2060000 		.4byte	.LVL82
 7124 030a 02070000 		.4byte	.LVL85
 7125 030e 0100     		.2byte	0x1
 7126 0310 58       		.byte	0x58
 7127 0311 40090000 		.4byte	.LVL93
 7128 0315 44090000 		.4byte	.LVL94
 7129 0319 0200     		.2byte	0x2
 7130 031b 30       		.byte	0x30
 7131 031c 9F       		.byte	0x9f
 7132 031d 00000000 		.4byte	0
 7133 0321 00000000 		.4byte	0
 7134              	.LLST13:
 7135 0325 F6030000 		.4byte	.LVL57
 7136 0329 09040000 		.4byte	.LVL58-1
 7137 032d 0100     		.2byte	0x1
 7138 032f 50       		.byte	0x50
 7139 0330 34080000 		.4byte	.LVL89
 7140 0334 AA080000 		.4byte	.LVL90
 7141 0338 0100     		.2byte	0x1
 7142 033a 55       		.byte	0x55
 7143 033b CC080000 		.4byte	.LVL91
 7144 033f 26090000 		.4byte	.LVL92
 7145 0343 0100     		.2byte	0x1
 7146 0345 55       		.byte	0x55
 7147 0346 56090000 		.4byte	.LVL95
 7148 034a 71090000 		.4byte	.LVL96-1
 7149 034e 0100     		.2byte	0x1
 7150 0350 50       		.byte	0x50
 7151 0351 A6090000 		.4byte	.LVL99
 7152 0355 C2090000 		.4byte	.LVL101
 7153 0359 0100     		.2byte	0x1
 7154 035b 50       		.byte	0x50
 7155 035c C2090000 		.4byte	.LVL101
 7156 0360 F4090000 		.4byte	.LVL102
 7157 0364 0100     		.2byte	0x1
 7158 0366 54       		.byte	0x54
 7159 0367 6C0B0000 		.4byte	.LVL113
 7160 036b 700B0000 		.4byte	.LVL114
 7161 036f 0100     		.2byte	0x1
 7162 0371 50       		.byte	0x50
 7163 0372 00000000 		.4byte	0
 7164 0376 00000000 		.4byte	0
 7165              	.LLST14:
 7166 037a 54050000 		.4byte	.LVL65
 7167 037e 5A050000 		.4byte	.LVL66
 7168 0382 0500     		.2byte	0x5
 7169 0384 03       		.byte	0x3
 7170 0385 04000000 		.4byte	inseg+4
 7171 0389 5A050000 		.4byte	.LVL66
 7172 038d 8C050000 		.4byte	.LVL68
 7173 0391 0100     		.2byte	0x1
 7174 0393 56       		.byte	0x56
 7175 0394 90050000 		.4byte	.LVL69
 7176 0398 C2050000 		.4byte	.LVL71
ARM GAS  /var/folders/5n/p_75w94d66l9ssrldxqdhh700000gn/T//ccYNR3t7.s 			page 127


 7177 039c 0100     		.2byte	0x1
 7178 039e 56       		.byte	0x56
 7179 039f 84090000 		.4byte	.LVL97
 7180 03a3 A0090000 		.4byte	.LVL98
 7181 03a7 0100     		.2byte	0x1
 7182 03a9 56       		.byte	0x56
 7183 03aa F4090000 		.4byte	.LVL102
 7184 03ae 000A0000 		.4byte	.LVL103
 7185 03b2 0100     		.2byte	0x1
 7186 03b4 56       		.byte	0x56
 7187 03b5 180B0000 		.4byte	.LVL107
 7188 03b9 1E0B0000 		.4byte	.LVL108
 7189 03bd 0100     		.2byte	0x1
 7190 03bf 56       		.byte	0x56
 7191 03c0 00000000 		.4byte	0
 7192 03c4 00000000 		.4byte	0
 7193              	.LLST15:
 7194 03c8 54050000 		.4byte	.LVL65
 7195 03cc DE050000 		.4byte	.LVL72
 7196 03d0 0100     		.2byte	0x1
 7197 03d2 58       		.byte	0x58
 7198 03d3 84090000 		.4byte	.LVL97
 7199 03d7 A0090000 		.4byte	.LVL98
 7200 03db 0100     		.2byte	0x1
 7201 03dd 58       		.byte	0x58
 7202 03de F4090000 		.4byte	.LVL102
 7203 03e2 000A0000 		.4byte	.LVL103
 7204 03e6 0100     		.2byte	0x1
 7205 03e8 58       		.byte	0x58
 7206 03e9 180B0000 		.4byte	.LVL107
 7207 03ed 1E0B0000 		.4byte	.LVL108
 7208 03f1 0100     		.2byte	0x1
 7209 03f3 58       		.byte	0x58
 7210 03f4 00000000 		.4byte	0
 7211 03f8 00000000 		.4byte	0
 7212              	.LLST16:
 7213 03fc FE020000 		.4byte	.LVL47
 7214 0400 0E030000 		.4byte	.LVL49
 7215 0404 0100     		.2byte	0x1
 7216 0406 53       		.byte	0x53
 7217 0407 0E030000 		.4byte	.LVL49
 7218 040b 14030000 		.4byte	.LVL50
 7219 040f 0800     		.2byte	0x8
 7220 0411 73       		.byte	0x73
 7221 0412 00       		.sleb128 0
 7222 0413 72       		.byte	0x72
 7223 0414 00       		.sleb128 0
 7224 0415 32       		.byte	0x32
 7225 0416 26       		.byte	0x26
 7226 0417 1C       		.byte	0x1c
 7227 0418 9F       		.byte	0x9f
 7228 0419 50060000 		.4byte	.LVL77
 7229 041d 52060000 		.4byte	.LVL78
 7230 0421 0100     		.2byte	0x1
 7231 0423 53       		.byte	0x53
 7232 0424 54060000 		.4byte	.LVL79
 7233 0428 56060000 		.4byte	.LVL80
ARM GAS  /var/folders/5n/p_75w94d66l9ssrldxqdhh700000gn/T//ccYNR3t7.s 			page 128


 7234 042c 0100     		.2byte	0x1
 7235 042e 53       		.byte	0x53
 7236 042f 00000000 		.4byte	0
 7237 0433 00000000 		.4byte	0
 7238              	.LLST17:
 7239 0437 22000000 		.4byte	.LVL33
 7240 043b 64000000 		.4byte	.LVL34
 7241 043f 0C00     		.2byte	0xc
 7242 0441 75       		.byte	0x75
 7243 0442 00       		.sleb128 0
 7244 0443 40       		.byte	0x40
 7245 0444 24       		.byte	0x24
 7246 0445 40       		.byte	0x40
 7247 0446 25       		.byte	0x25
 7248 0447 74       		.byte	0x74
 7249 0448 E400     		.sleb128 100
 7250 044a 06       		.byte	0x6
 7251 044b 22       		.byte	0x22
 7252 044c 9F       		.byte	0x9f
 7253 044d B0010000 		.4byte	.LVL40
 7254 0451 00020000 		.4byte	.LVL41
 7255 0455 0A00     		.2byte	0xa
 7256 0457 75       		.byte	0x75
 7257 0458 00       		.sleb128 0
 7258 0459 40       		.byte	0x40
 7259 045a 24       		.byte	0x24
 7260 045b 40       		.byte	0x40
 7261 045c 25       		.byte	0x25
 7262 045d 71       		.byte	0x71
 7263 045e 00       		.sleb128 0
 7264 045f 22       		.byte	0x22
 7265 0460 9F       		.byte	0x9f
 7266 0461 E8040000 		.4byte	.LVL60
 7267 0465 00050000 		.4byte	.LVL61
 7268 0469 0A00     		.2byte	0xa
 7269 046b 75       		.byte	0x75
 7270 046c 00       		.sleb128 0
 7271 046d 40       		.byte	0x40
 7272 046e 24       		.byte	0x24
 7273 046f 40       		.byte	0x40
 7274 0470 25       		.byte	0x25
 7275 0471 71       		.byte	0x71
 7276 0472 00       		.sleb128 0
 7277 0473 22       		.byte	0x22
 7278 0474 9F       		.byte	0x9f
 7279 0475 00050000 		.4byte	.LVL61
 7280 0479 12050000 		.4byte	.LVL62
 7281 047d 0C00     		.2byte	0xc
 7282 047f 75       		.byte	0x75
 7283 0480 00       		.sleb128 0
 7284 0481 40       		.byte	0x40
 7285 0482 24       		.byte	0x24
 7286 0483 40       		.byte	0x40
 7287 0484 25       		.byte	0x25
 7288 0485 74       		.byte	0x74
 7289 0486 E400     		.sleb128 100
 7290 0488 06       		.byte	0x6
ARM GAS  /var/folders/5n/p_75w94d66l9ssrldxqdhh700000gn/T//ccYNR3t7.s 			page 129


 7291 0489 22       		.byte	0x22
 7292 048a 9F       		.byte	0x9f
 7293 048b 20050000 		.4byte	.LVL63
 7294 048f 4C050000 		.4byte	.LVL64
 7295 0493 0A00     		.2byte	0xa
 7296 0495 75       		.byte	0x75
 7297 0496 00       		.sleb128 0
 7298 0497 40       		.byte	0x40
 7299 0498 24       		.byte	0x24
 7300 0499 40       		.byte	0x40
 7301 049a 25       		.byte	0x25
 7302 049b 71       		.byte	0x71
 7303 049c 00       		.sleb128 0
 7304 049d 22       		.byte	0x22
 7305 049e 9F       		.byte	0x9f
 7306 049f DE050000 		.4byte	.LVL72
 7307 04a3 F4050000 		.4byte	.LVL73
 7308 04a7 0A00     		.2byte	0xa
 7309 04a9 75       		.byte	0x75
 7310 04aa 00       		.sleb128 0
 7311 04ab 40       		.byte	0x40
 7312 04ac 24       		.byte	0x24
 7313 04ad 40       		.byte	0x40
 7314 04ae 25       		.byte	0x25
 7315 04af 71       		.byte	0x71
 7316 04b0 00       		.sleb128 0
 7317 04b1 22       		.byte	0x22
 7318 04b2 9F       		.byte	0x9f
 7319 04b3 16060000 		.4byte	.LVL75
 7320 04b7 50060000 		.4byte	.LVL77
 7321 04bb 0C00     		.2byte	0xc
 7322 04bd 75       		.byte	0x75
 7323 04be 00       		.sleb128 0
 7324 04bf 40       		.byte	0x40
 7325 04c0 24       		.byte	0x24
 7326 04c1 40       		.byte	0x40
 7327 04c2 25       		.byte	0x25
 7328 04c3 74       		.byte	0x74
 7329 04c4 E400     		.sleb128 100
 7330 04c6 06       		.byte	0x6
 7331 04c7 22       		.byte	0x22
 7332 04c8 9F       		.byte	0x9f
 7333 04c9 5E0B0000 		.4byte	.LVL111
 7334 04cd 650B0000 		.4byte	.LVL112-1
 7335 04d1 0C00     		.2byte	0xc
 7336 04d3 75       		.byte	0x75
 7337 04d4 00       		.sleb128 0
 7338 04d5 40       		.byte	0x40
 7339 04d6 24       		.byte	0x24
 7340 04d7 40       		.byte	0x40
 7341 04d8 25       		.byte	0x25
 7342 04d9 74       		.byte	0x74
 7343 04da E400     		.sleb128 100
 7344 04dc 06       		.byte	0x6
 7345 04dd 22       		.byte	0x22
 7346 04de 9F       		.byte	0x9f
 7347 04df 00000000 		.4byte	0
ARM GAS  /var/folders/5n/p_75w94d66l9ssrldxqdhh700000gn/T//ccYNR3t7.s 			page 130


 7348 04e3 00000000 		.4byte	0
 7349              	.LLST18:
 7350 04e7 82050000 		.4byte	.LVL67
 7351 04eb A3050000 		.4byte	.LVL70-1
 7352 04ef 0100     		.2byte	0x1
 7353 04f1 52       		.byte	0x52
 7354 04f2 00000000 		.4byte	0
 7355 04f6 00000000 		.4byte	0
 7356              	.LLST19:
 7357 04fa 00000000 		.4byte	.LVL31
 7358 04fe 64000000 		.4byte	.LVL34
 7359 0502 0200     		.2byte	0x2
 7360 0504 30       		.byte	0x30
 7361 0505 9F       		.byte	0x9f
 7362 0506 B0010000 		.4byte	.LVL40
 7363 050a E8020000 		.4byte	.LVL45
 7364 050e 0200     		.2byte	0x2
 7365 0510 30       		.byte	0x30
 7366 0511 9F       		.byte	0x9f
 7367 0512 2C030000 		.4byte	.LVL51
 7368 0516 50030000 		.4byte	.LVL52
 7369 051a 0200     		.2byte	0x2
 7370 051c 30       		.byte	0x30
 7371 051d 9F       		.byte	0x9f
 7372 051e E8040000 		.4byte	.LVL60
 7373 0522 12050000 		.4byte	.LVL62
 7374 0526 0200     		.2byte	0x2
 7375 0528 30       		.byte	0x30
 7376 0529 9F       		.byte	0x9f
 7377 052a 20050000 		.4byte	.LVL63
 7378 052e 4C050000 		.4byte	.LVL64
 7379 0532 0200     		.2byte	0x2
 7380 0534 30       		.byte	0x30
 7381 0535 9F       		.byte	0x9f
 7382 0536 DE050000 		.4byte	.LVL72
 7383 053a 26060000 		.4byte	.LVL76
 7384 053e 0200     		.2byte	0x2
 7385 0540 30       		.byte	0x30
 7386 0541 9F       		.byte	0x9f
 7387 0542 26060000 		.4byte	.LVL76
 7388 0546 50060000 		.4byte	.LVL77
 7389 054a 0200     		.2byte	0x2
 7390 054c 31       		.byte	0x31
 7391 054d 9F       		.byte	0x9f
 7392 054e 72090000 		.4byte	.LVL96
 7393 0552 84090000 		.4byte	.LVL97
 7394 0556 0200     		.2byte	0x2
 7395 0558 30       		.byte	0x30
 7396 0559 9F       		.byte	0x9f
 7397 055a 2A0B0000 		.4byte	.LVL109
 7398 055e 320B0000 		.4byte	.LVL110
 7399 0562 0200     		.2byte	0x2
 7400 0564 30       		.byte	0x30
 7401 0565 9F       		.byte	0x9f
 7402 0566 5E0B0000 		.4byte	.LVL111
 7403 056a 6C0B0000 		.4byte	.LVL113
 7404 056e 0200     		.2byte	0x2
ARM GAS  /var/folders/5n/p_75w94d66l9ssrldxqdhh700000gn/T//ccYNR3t7.s 			page 131


 7405 0570 31       		.byte	0x31
 7406 0571 9F       		.byte	0x9f
 7407 0572 00000000 		.4byte	0
 7408 0576 00000000 		.4byte	0
 7409              	.LLST20:
 7410 057a 0C060000 		.4byte	.LVL74
 7411 057e 16060000 		.4byte	.LVL75
 7412 0582 0100     		.2byte	0x1
 7413 0584 52       		.byte	0x52
 7414 0585 00000000 		.4byte	0
 7415 0589 00000000 		.4byte	0
 7416              	.LLST21:
 7417 058d 92070000 		.4byte	.LVL87
 7418 0591 99070000 		.4byte	.LVL88-1
 7419 0595 0100     		.2byte	0x1
 7420 0597 50       		.byte	0x50
 7421 0598 00000000 		.4byte	0
 7422 059c 00000000 		.4byte	0
 7423              	.LLST22:
 7424 05a0 00000000 		.4byte	.LFB7
 7425 05a4 04000000 		.4byte	.LCFI4
 7426 05a8 0200     		.2byte	0x2
 7427 05aa 7D       		.byte	0x7d
 7428 05ab 00       		.sleb128 0
 7429 05ac 04000000 		.4byte	.LCFI4
 7430 05b0 22000000 		.4byte	.LCFI5
 7431 05b4 0200     		.2byte	0x2
 7432 05b6 7D       		.byte	0x7d
 7433 05b7 24       		.sleb128 36
 7434 05b8 22000000 		.4byte	.LCFI5
 7435 05bc 340C0000 		.4byte	.LFE7
 7436 05c0 0200     		.2byte	0x2
 7437 05c2 7D       		.byte	0x7d
 7438 05c3 30       		.sleb128 48
 7439 05c4 00000000 		.4byte	0
 7440 05c8 00000000 		.4byte	0
 7441              	.LLST23:
 7442 05cc 00000000 		.4byte	.LVL115
 7443 05d0 20000000 		.4byte	.LVL116
 7444 05d4 0100     		.2byte	0x1
 7445 05d6 50       		.byte	0x50
 7446 05d7 20000000 		.4byte	.LVL116
 7447 05db 0E030000 		.4byte	.LVL131
 7448 05df 0100     		.2byte	0x1
 7449 05e1 56       		.byte	0x56
 7450 05e2 56030000 		.4byte	.LVL134
 7451 05e6 BA030000 		.4byte	.LVL139
 7452 05ea 0100     		.2byte	0x1
 7453 05ec 56       		.byte	0x56
 7454 05ed 70040000 		.4byte	.LVL148
 7455 05f1 FE050000 		.4byte	.LVL149
 7456 05f5 0100     		.2byte	0x1
 7457 05f7 56       		.byte	0x56
 7458 05f8 10060000 		.4byte	.LVL150
 7459 05fc 44060000 		.4byte	.LVL151
 7460 0600 0100     		.2byte	0x1
 7461 0602 56       		.byte	0x56
ARM GAS  /var/folders/5n/p_75w94d66l9ssrldxqdhh700000gn/T//ccYNR3t7.s 			page 132


 7462 0603 7A060000 		.4byte	.LVL152
 7463 0607 88060000 		.4byte	.LVL153
 7464 060b 0100     		.2byte	0x1
 7465 060d 56       		.byte	0x56
 7466 060e DC060000 		.4byte	.LVL154
 7467 0612 76090000 		.4byte	.LVL179
 7468 0616 0100     		.2byte	0x1
 7469 0618 56       		.byte	0x56
 7470 0619 86090000 		.4byte	.LVL180
 7471 061d C8090000 		.4byte	.LVL184
 7472 0621 0100     		.2byte	0x1
 7473 0623 56       		.byte	0x56
 7474 0624 D8090000 		.4byte	.LVL186
 7475 0628 420A0000 		.4byte	.LVL189
 7476 062c 0100     		.2byte	0x1
 7477 062e 56       		.byte	0x56
 7478 062f 680A0000 		.4byte	.LVL190
 7479 0633 700A0000 		.4byte	.LVL191
 7480 0637 0100     		.2byte	0x1
 7481 0639 56       		.byte	0x56
 7482 063a 9A0A0000 		.4byte	.LVL192
 7483 063e 1C0B0000 		.4byte	.LVL195
 7484 0642 0100     		.2byte	0x1
 7485 0644 56       		.byte	0x56
 7486 0645 220B0000 		.4byte	.LVL196
 7487 0649 820B0000 		.4byte	.LVL200
 7488 064d 0100     		.2byte	0x1
 7489 064f 56       		.byte	0x56
 7490 0650 00000000 		.4byte	0
 7491 0654 00000000 		.4byte	0
 7492              	.LLST24:
 7493 0658 00000000 		.4byte	.LVL115
 7494 065c 2B000000 		.4byte	.LVL117-1
 7495 0660 0100     		.2byte	0x1
 7496 0662 51       		.byte	0x51
 7497 0663 2B000000 		.4byte	.LVL117-1
 7498 0667 DE000000 		.4byte	.LVL120
 7499 066b 0100     		.2byte	0x1
 7500 066d 59       		.byte	0x59
 7501 066e 18020000 		.4byte	.LVL126
 7502 0672 50020000 		.4byte	.LVL127
 7503 0676 0100     		.2byte	0x1
 7504 0678 59       		.byte	0x59
 7505 0679 56030000 		.4byte	.LVL134
 7506 067d 76030000 		.4byte	.LVL135
 7507 0681 0100     		.2byte	0x1
 7508 0683 59       		.byte	0x59
 7509 0684 00000000 		.4byte	0
 7510 0688 00000000 		.4byte	0
 7511              	.LLST25:
 7512 068c CE010000 		.4byte	.LVL121
 7513 0690 D2010000 		.4byte	.LVL122
 7514 0694 0200     		.2byte	0x2
 7515 0696 71       		.byte	0x71
 7516 0697 00       		.sleb128 0
 7517 0698 D2010000 		.4byte	.LVL122
 7518 069c EE010000 		.4byte	.LVL124
ARM GAS  /var/folders/5n/p_75w94d66l9ssrldxqdhh700000gn/T//ccYNR3t7.s 			page 133


 7519 06a0 0100     		.2byte	0x1
 7520 06a2 54       		.byte	0x54
 7521 06a3 EE010000 		.4byte	.LVL124
 7522 06a7 F8010000 		.4byte	.LVL125
 7523 06ab 0200     		.2byte	0x2
 7524 06ad 74       		.byte	0x74
 7525 06ae 0C       		.sleb128 12
 7526 06af F8010000 		.4byte	.LVL125
 7527 06b3 18020000 		.4byte	.LVL126
 7528 06b7 0100     		.2byte	0x1
 7529 06b9 54       		.byte	0x54
 7530 06ba 50020000 		.4byte	.LVL127
 7531 06be 3E030000 		.4byte	.LVL133
 7532 06c2 0100     		.2byte	0x1
 7533 06c4 54       		.byte	0x54
 7534 06c5 76030000 		.4byte	.LVL135
 7535 06c9 DC060000 		.4byte	.LVL154
 7536 06cd 0100     		.2byte	0x1
 7537 06cf 54       		.byte	0x54
 7538 06d0 E2060000 		.4byte	.LVL155
 7539 06d4 F0060000 		.4byte	.LVL156
 7540 06d8 0200     		.2byte	0x2
 7541 06da 73       		.byte	0x73
 7542 06db 00       		.sleb128 0
 7543 06dc F0060000 		.4byte	.LVL156
 7544 06e0 42070000 		.4byte	.LVL159
 7545 06e4 0100     		.2byte	0x1
 7546 06e6 54       		.byte	0x54
 7547 06e7 44070000 		.4byte	.LVL160
 7548 06eb 78070000 		.4byte	.LVL161
 7549 06ef 0100     		.2byte	0x1
 7550 06f1 5A       		.byte	0x5a
 7551 06f2 84070000 		.4byte	.LVL162
 7552 06f6 88070000 		.4byte	.LVL163
 7553 06fa 0100     		.2byte	0x1
 7554 06fc 5A       		.byte	0x5a
 7555 06fd C2080000 		.4byte	.LVL173
 7556 0701 FA080000 		.4byte	.LVL177
 7557 0705 0100     		.2byte	0x1
 7558 0707 54       		.byte	0x54
 7559 0708 FA080000 		.4byte	.LVL177
 7560 070c 6C090000 		.4byte	.LVL178
 7561 0710 0200     		.2byte	0x2
 7562 0712 30       		.byte	0x30
 7563 0713 9F       		.byte	0x9f
 7564 0714 6C090000 		.4byte	.LVL178
 7565 0718 86090000 		.4byte	.LVL180
 7566 071c 0100     		.2byte	0x1
 7567 071e 54       		.byte	0x54
 7568 071f C8090000 		.4byte	.LVL184
 7569 0723 220B0000 		.4byte	.LVL196
 7570 0727 0100     		.2byte	0x1
 7571 0729 54       		.byte	0x54
 7572 072a 220B0000 		.4byte	.LVL196
 7573 072e 440B0000 		.4byte	.LVL197
 7574 0732 0100     		.2byte	0x1
 7575 0734 5A       		.byte	0x5a
ARM GAS  /var/folders/5n/p_75w94d66l9ssrldxqdhh700000gn/T//ccYNR3t7.s 			page 134


 7576 0735 440B0000 		.4byte	.LVL197
 7577 0739 520B0000 		.4byte	.LVL198
 7578 073d 0100     		.2byte	0x1
 7579 073f 54       		.byte	0x54
 7580 0740 520B0000 		.4byte	.LVL198
 7581 0744 760B0000 		.4byte	.LVL199
 7582 0748 0100     		.2byte	0x1
 7583 074a 5A       		.byte	0x5a
 7584 074b 820B0000 		.4byte	.LVL200
 7585 074f 340C0000 		.4byte	.LFE7
 7586 0753 0100     		.2byte	0x1
 7587 0755 54       		.byte	0x54
 7588 0756 00000000 		.4byte	0
 7589 075a 00000000 		.4byte	0
 7590              	.LLST26:
 7591 075e CE010000 		.4byte	.LVL121
 7592 0762 D2010000 		.4byte	.LVL122
 7593 0766 0200     		.2byte	0x2
 7594 0768 30       		.byte	0x30
 7595 0769 9F       		.byte	0x9f
 7596 076a EC010000 		.4byte	.LVL123
 7597 076e F8010000 		.4byte	.LVL125
 7598 0772 0100     		.2byte	0x1
 7599 0774 54       		.byte	0x54
 7600 0775 88070000 		.4byte	.LVL163
 7601 0779 C0070000 		.4byte	.LVL165
 7602 077d 0200     		.2byte	0x2
 7603 077f 30       		.byte	0x30
 7604 0780 9F       		.byte	0x9f
 7605 0781 C0070000 		.4byte	.LVL165
 7606 0785 CC070000 		.4byte	.LVL167
 7607 0789 0100     		.2byte	0x1
 7608 078b 54       		.byte	0x54
 7609 078c 00000000 		.4byte	0
 7610 0790 00000000 		.4byte	0
 7611              	.LLST27:
 7612 0794 90070000 		.4byte	.LVL164
 7613 0798 C0070000 		.4byte	.LVL165
 7614 079c 0200     		.2byte	0x2
 7615 079e 7B       		.byte	0x7b
 7616 079f 00       		.sleb128 0
 7617 07a0 C0070000 		.4byte	.LVL165
 7618 07a4 C2070000 		.4byte	.LVL166
 7619 07a8 0100     		.2byte	0x1
 7620 07aa 54       		.byte	0x54
 7621 07ab C2070000 		.4byte	.LVL166
 7622 07af CC070000 		.4byte	.LVL167
 7623 07b3 0200     		.2byte	0x2
 7624 07b5 74       		.byte	0x74
 7625 07b6 0C       		.sleb128 12
 7626 07b7 CC070000 		.4byte	.LVL167
 7627 07bb C2080000 		.4byte	.LVL173
 7628 07bf 0100     		.2byte	0x1
 7629 07c1 54       		.byte	0x54
 7630 07c2 86090000 		.4byte	.LVL180
 7631 07c6 8C090000 		.4byte	.LVL181
 7632 07ca 0100     		.2byte	0x1
ARM GAS  /var/folders/5n/p_75w94d66l9ssrldxqdhh700000gn/T//ccYNR3t7.s 			page 135


 7633 07cc 54       		.byte	0x54
 7634 07cd BE090000 		.4byte	.LVL182
 7635 07d1 C8090000 		.4byte	.LVL184
 7636 07d5 0100     		.2byte	0x1
 7637 07d7 54       		.byte	0x54
 7638 07d8 760B0000 		.4byte	.LVL199
 7639 07dc 820B0000 		.4byte	.LVL200
 7640 07e0 0100     		.2byte	0x1
 7641 07e2 54       		.byte	0x54
 7642 07e3 00000000 		.4byte	0
 7643 07e7 00000000 		.4byte	0
 7644              	.LLST28:
 7645 07eb D8020000 		.4byte	.LVL128
 7646 07ef E0020000 		.4byte	.LVL129
 7647 07f3 0100     		.2byte	0x1
 7648 07f5 50       		.byte	0x50
 7649 07f6 84030000 		.4byte	.LVL136
 7650 07fa 86030000 		.4byte	.LVL137
 7651 07fe 0100     		.2byte	0x1
 7652 0800 50       		.byte	0x50
 7653 0801 D0030000 		.4byte	.LVL141
 7654 0805 E2030000 		.4byte	.LVL142
 7655 0809 0200     		.2byte	0x2
 7656 080b 30       		.byte	0x30
 7657 080c 9F       		.byte	0x9f
 7658 080d E2030000 		.4byte	.LVL142
 7659 0811 E4030000 		.4byte	.LVL143
 7660 0815 0100     		.2byte	0x1
 7661 0817 50       		.byte	0x50
 7662 0818 2A040000 		.4byte	.LVL144
 7663 081c 3A040000 		.4byte	.LVL145
 7664 0820 0100     		.2byte	0x1
 7665 0822 50       		.byte	0x50
 7666 0823 5E040000 		.4byte	.LVL146
 7667 0827 60040000 		.4byte	.LVL147
 7668 082b 0100     		.2byte	0x1
 7669 082d 50       		.byte	0x50
 7670 082e CC080000 		.4byte	.LVL174
 7671 0832 CE080000 		.4byte	.LVL175
 7672 0836 0100     		.2byte	0x1
 7673 0838 50       		.byte	0x50
 7674 0839 D6090000 		.4byte	.LVL185
 7675 083d D8090000 		.4byte	.LVL186
 7676 0841 0100     		.2byte	0x1
 7677 0843 50       		.byte	0x50
 7678 0844 00000000 		.4byte	0
 7679 0848 00000000 		.4byte	0
 7680              	.LLST29:
 7681 084c EA020000 		.4byte	.LVL130
 7682 0850 3E030000 		.4byte	.LVL133
 7683 0854 0100     		.2byte	0x1
 7684 0856 54       		.byte	0x54
 7685 0857 AE030000 		.4byte	.LVL138
 7686 085b DC060000 		.4byte	.LVL154
 7687 085f 0100     		.2byte	0x1
 7688 0861 54       		.byte	0x54
 7689 0862 CE080000 		.4byte	.LVL175
ARM GAS  /var/folders/5n/p_75w94d66l9ssrldxqdhh700000gn/T//ccYNR3t7.s 			page 136


 7690 0866 FA080000 		.4byte	.LVL177
 7691 086a 0100     		.2byte	0x1
 7692 086c 54       		.byte	0x54
 7693 086d 6C090000 		.4byte	.LVL178
 7694 0871 86090000 		.4byte	.LVL180
 7695 0875 0100     		.2byte	0x1
 7696 0877 54       		.byte	0x54
 7697 0878 C8090000 		.4byte	.LVL184
 7698 087c 220B0000 		.4byte	.LVL196
 7699 0880 0100     		.2byte	0x1
 7700 0882 54       		.byte	0x54
 7701 0883 440B0000 		.4byte	.LVL197
 7702 0887 520B0000 		.4byte	.LVL198
 7703 088b 0100     		.2byte	0x1
 7704 088d 54       		.byte	0x54
 7705 088e 820B0000 		.4byte	.LVL200
 7706 0892 340C0000 		.4byte	.LFE7
 7707 0896 0100     		.2byte	0x1
 7708 0898 54       		.byte	0x54
 7709 0899 00000000 		.4byte	0
 7710 089d 00000000 		.4byte	0
 7711              	.LLST30:
 7712 08a1 E60B0000 		.4byte	.LVL201
 7713 08a5 010C0000 		.4byte	.LVL202-1
 7714 08a9 0300     		.2byte	0x3
 7715 08ab 74       		.byte	0x74
 7716 08ac F800     		.sleb128 120
 7717 08ae 1E0C0000 		.4byte	.LVL205
 7718 08b2 340C0000 		.4byte	.LFE7
 7719 08b6 0100     		.2byte	0x1
 7720 08b8 50       		.byte	0x50
 7721 08b9 00000000 		.4byte	0
 7722 08bd 00000000 		.4byte	0
 7723              	.LLST31:
 7724 08c1 EA020000 		.4byte	.LVL130
 7725 08c5 12030000 		.4byte	.LVL132
 7726 08c9 0200     		.2byte	0x2
 7727 08cb 30       		.byte	0x30
 7728 08cc 9F       		.byte	0x9f
 7729 08cd AE030000 		.4byte	.LVL138
 7730 08d1 CC030000 		.4byte	.LVL140
 7731 08d5 0200     		.2byte	0x2
 7732 08d7 30       		.byte	0x30
 7733 08d8 9F       		.byte	0x9f
 7734 08d9 70040000 		.4byte	.LVL148
 7735 08dd DC060000 		.4byte	.LVL154
 7736 08e1 0200     		.2byte	0x2
 7737 08e3 30       		.byte	0x30
 7738 08e4 9F       		.byte	0x9f
 7739 08e5 CE080000 		.4byte	.LVL175
 7740 08e9 E0080000 		.4byte	.LVL176
 7741 08ed 0200     		.2byte	0x2
 7742 08ef 30       		.byte	0x30
 7743 08f0 9F       		.byte	0x9f
 7744 08f1 6C090000 		.4byte	.LVL178
 7745 08f5 76090000 		.4byte	.LVL179
 7746 08f9 0200     		.2byte	0x2
ARM GAS  /var/folders/5n/p_75w94d66l9ssrldxqdhh700000gn/T//ccYNR3t7.s 			page 137


 7747 08fb 31       		.byte	0x31
 7748 08fc 9F       		.byte	0x9f
 7749 08fd D8090000 		.4byte	.LVL186
 7750 0901 220B0000 		.4byte	.LVL196
 7751 0905 0200     		.2byte	0x2
 7752 0907 30       		.byte	0x30
 7753 0908 9F       		.byte	0x9f
 7754 0909 440B0000 		.4byte	.LVL197
 7755 090d 520B0000 		.4byte	.LVL198
 7756 0911 0200     		.2byte	0x2
 7757 0913 30       		.byte	0x30
 7758 0914 9F       		.byte	0x9f
 7759 0915 820B0000 		.4byte	.LVL200
 7760 0919 340C0000 		.4byte	.LFE7
 7761 091d 0200     		.2byte	0x2
 7762 091f 30       		.byte	0x30
 7763 0920 9F       		.byte	0x9f
 7764 0921 00000000 		.4byte	0
 7765 0925 00000000 		.4byte	0
 7766              	.LLST32:
 7767 0929 EA020000 		.4byte	.LVL130
 7768 092d 12030000 		.4byte	.LVL132
 7769 0931 0200     		.2byte	0x2
 7770 0933 30       		.byte	0x30
 7771 0934 9F       		.byte	0x9f
 7772 0935 AE030000 		.4byte	.LVL138
 7773 0939 BA030000 		.4byte	.LVL139
 7774 093d 0200     		.2byte	0x2
 7775 093f 30       		.byte	0x30
 7776 0940 9F       		.byte	0x9f
 7777 0941 70040000 		.4byte	.LVL148
 7778 0945 FE050000 		.4byte	.LVL149
 7779 0949 0200     		.2byte	0x2
 7780 094b 30       		.byte	0x30
 7781 094c 9F       		.byte	0x9f
 7782 094d 10060000 		.4byte	.LVL150
 7783 0951 DC060000 		.4byte	.LVL154
 7784 0955 0200     		.2byte	0x2
 7785 0957 30       		.byte	0x30
 7786 0958 9F       		.byte	0x9f
 7787 0959 CE080000 		.4byte	.LVL175
 7788 095d FA080000 		.4byte	.LVL177
 7789 0961 0200     		.2byte	0x2
 7790 0963 30       		.byte	0x30
 7791 0964 9F       		.byte	0x9f
 7792 0965 6C090000 		.4byte	.LVL178
 7793 0969 76090000 		.4byte	.LVL179
 7794 096d 0200     		.2byte	0x2
 7795 096f 30       		.byte	0x30
 7796 0970 9F       		.byte	0x9f
 7797 0971 D8090000 		.4byte	.LVL186
 7798 0975 380A0000 		.4byte	.LVL187
 7799 0979 0200     		.2byte	0x2
 7800 097b 30       		.byte	0x30
 7801 097c 9F       		.byte	0x9f
 7802 097d 380A0000 		.4byte	.LVL187
 7803 0981 3E0A0000 		.4byte	.LVL188
ARM GAS  /var/folders/5n/p_75w94d66l9ssrldxqdhh700000gn/T//ccYNR3t7.s 			page 138


 7804 0985 0100     		.2byte	0x1
 7805 0987 50       		.byte	0x50
 7806 0988 680A0000 		.4byte	.LVL190
 7807 098c 140B0000 		.4byte	.LVL193
 7808 0990 0200     		.2byte	0x2
 7809 0992 30       		.byte	0x30
 7810 0993 9F       		.byte	0x9f
 7811 0994 140B0000 		.4byte	.LVL193
 7812 0998 160B0000 		.4byte	.LVL194
 7813 099c 0100     		.2byte	0x1
 7814 099e 50       		.byte	0x50
 7815 099f 440B0000 		.4byte	.LVL197
 7816 09a3 520B0000 		.4byte	.LVL198
 7817 09a7 0200     		.2byte	0x2
 7818 09a9 30       		.byte	0x30
 7819 09aa 9F       		.byte	0x9f
 7820 09ab 820B0000 		.4byte	.LVL200
 7821 09af 140C0000 		.4byte	.LVL203
 7822 09b3 0200     		.2byte	0x2
 7823 09b5 30       		.byte	0x30
 7824 09b6 9F       		.byte	0x9f
 7825 09b7 140C0000 		.4byte	.LVL203
 7826 09bb 160C0000 		.4byte	.LVL204
 7827 09bf 0100     		.2byte	0x1
 7828 09c1 50       		.byte	0x50
 7829 09c2 1E0C0000 		.4byte	.LVL205
 7830 09c6 340C0000 		.4byte	.LFE7
 7831 09ca 0200     		.2byte	0x2
 7832 09cc 30       		.byte	0x30
 7833 09cd 9F       		.byte	0x9f
 7834 09ce 00000000 		.4byte	0
 7835 09d2 00000000 		.4byte	0
 7836              	.LLST33:
 7837 09d6 420A0000 		.4byte	.LVL189
 7838 09da 680A0000 		.4byte	.LVL190
 7839 09de 0100     		.2byte	0x1
 7840 09e0 56       		.byte	0x56
 7841 09e1 1C0B0000 		.4byte	.LVL195
 7842 09e5 220B0000 		.4byte	.LVL196
 7843 09e9 0100     		.2byte	0x1
 7844 09eb 56       		.byte	0x56
 7845 09ec 00000000 		.4byte	0
 7846 09f0 00000000 		.4byte	0
 7847              	.LLST34:
 7848 09f4 40070000 		.4byte	.LVL158
 7849 09f8 42070000 		.4byte	.LVL159
 7850 09fc 0100     		.2byte	0x1
 7851 09fe 54       		.byte	0x54
 7852 09ff 42070000 		.4byte	.LVL159
 7853 0a03 78070000 		.4byte	.LVL161
 7854 0a07 0100     		.2byte	0x1
 7855 0a09 5A       		.byte	0x5a
 7856 0a0a 220B0000 		.4byte	.LVL196
 7857 0a0e 440B0000 		.4byte	.LVL197
 7858 0a12 0100     		.2byte	0x1
 7859 0a14 5A       		.byte	0x5a
 7860 0a15 520B0000 		.4byte	.LVL198
ARM GAS  /var/folders/5n/p_75w94d66l9ssrldxqdhh700000gn/T//ccYNR3t7.s 			page 139


 7861 0a19 760B0000 		.4byte	.LVL199
 7862 0a1d 0100     		.2byte	0x1
 7863 0a1f 5A       		.byte	0x5a
 7864 0a20 00000000 		.4byte	0
 7865 0a24 00000000 		.4byte	0
 7866              	.LLST35:
 7867 0a28 EA070000 		.4byte	.LVL168
 7868 0a2c C2080000 		.4byte	.LVL173
 7869 0a30 0100     		.2byte	0x1
 7870 0a32 54       		.byte	0x54
 7871 0a33 86090000 		.4byte	.LVL180
 7872 0a37 8C090000 		.4byte	.LVL181
 7873 0a3b 0100     		.2byte	0x1
 7874 0a3d 54       		.byte	0x54
 7875 0a3e BE090000 		.4byte	.LVL182
 7876 0a42 C8090000 		.4byte	.LVL184
 7877 0a46 0100     		.2byte	0x1
 7878 0a48 54       		.byte	0x54
 7879 0a49 760B0000 		.4byte	.LVL199
 7880 0a4d 820B0000 		.4byte	.LVL200
 7881 0a51 0100     		.2byte	0x1
 7882 0a53 54       		.byte	0x54
 7883 0a54 00000000 		.4byte	0
 7884 0a58 00000000 		.4byte	0
 7885              	.LLST36:
 7886 0a5c 00080000 		.4byte	.LVL169
 7887 0a60 0C080000 		.4byte	.LVL170
 7888 0a64 0100     		.2byte	0x1
 7889 0a66 50       		.byte	0x50
 7890 0a67 0C080000 		.4byte	.LVL170
 7891 0a6b C2080000 		.4byte	.LVL173
 7892 0a6f 0100     		.2byte	0x1
 7893 0a71 59       		.byte	0x59
 7894 0a72 BE090000 		.4byte	.LVL182
 7895 0a76 C8090000 		.4byte	.LVL184
 7896 0a7a 0100     		.2byte	0x1
 7897 0a7c 59       		.byte	0x59
 7898 0a7d 760B0000 		.4byte	.LVL199
 7899 0a81 820B0000 		.4byte	.LVL200
 7900 0a85 0100     		.2byte	0x1
 7901 0a87 50       		.byte	0x50
 7902 0a88 00000000 		.4byte	0
 7903 0a8c 00000000 		.4byte	0
 7904              	.LLST37:
 7905 0a90 B4080000 		.4byte	.LVL171
 7906 0a94 BC080000 		.4byte	.LVL172
 7907 0a98 0100     		.2byte	0x1
 7908 0a9a 50       		.byte	0x50
 7909 0a9b BE090000 		.4byte	.LVL182
 7910 0a9f C0090000 		.4byte	.LVL183
 7911 0aa3 0100     		.2byte	0x1
 7912 0aa5 50       		.byte	0x50
 7913 0aa6 00000000 		.4byte	0
 7914 0aaa 00000000 		.4byte	0
 7915              		.section	.debug_aranges,"",%progbits
 7916 0000 34000000 		.4byte	0x34
 7917 0004 0200     		.2byte	0x2
ARM GAS  /var/folders/5n/p_75w94d66l9ssrldxqdhh700000gn/T//ccYNR3t7.s 			page 140


 7918 0006 00000000 		.4byte	.Ldebug_info0
 7919 000a 04       		.byte	0x4
 7920 000b 00       		.byte	0
 7921 000c 0000     		.2byte	0
 7922 000e 0000     		.2byte	0
 7923 0010 00000000 		.4byte	.LFB13
 7924 0014 98000000 		.4byte	.LFE13-.LFB13
 7925 0018 00000000 		.4byte	.LFB11
 7926 001c FC000000 		.4byte	.LFE11-.LFB11
 7927 0020 00000000 		.4byte	.LFB12
 7928 0024 AC0B0000 		.4byte	.LFE12-.LFB12
 7929 0028 00000000 		.4byte	.LFB7
 7930 002c 340C0000 		.4byte	.LFE7-.LFB7
 7931 0030 00000000 		.4byte	0
 7932 0034 00000000 		.4byte	0
 7933              		.section	.debug_ranges,"",%progbits
 7934              	.Ldebug_ranges0:
 7935 0000 E0020000 		.4byte	.LBB11
 7936 0004 E4020000 		.4byte	.LBE11
 7937 0008 E6020000 		.4byte	.LBB25
 7938 000c E8020000 		.4byte	.LBE25
 7939 0010 EA020000 		.4byte	.LBB26
 7940 0014 12030000 		.4byte	.LBE26
 7941 0018 AE030000 		.4byte	.LBB27
 7942 001c CC030000 		.4byte	.LBE27
 7943 0020 70040000 		.4byte	.LBB28
 7944 0024 DC060000 		.4byte	.LBE28
 7945 0028 CE080000 		.4byte	.LBB37
 7946 002c FA080000 		.4byte	.LBE37
 7947 0030 6C090000 		.4byte	.LBB38
 7948 0034 76090000 		.4byte	.LBE38
 7949 0038 D8090000 		.4byte	.LBB40
 7950 003c 220B0000 		.4byte	.LBE40
 7951 0040 440B0000 		.4byte	.LBB42
 7952 0044 520B0000 		.4byte	.LBE42
 7953 0048 820B0000 		.4byte	.LBB45
 7954 004c 340C0000 		.4byte	.LBE45
 7955 0050 00000000 		.4byte	0
 7956 0054 00000000 		.4byte	0
 7957 0058 E0020000 		.4byte	.LBB12
 7958 005c E4020000 		.4byte	.LBE12
 7959 0060 E6020000 		.4byte	.LBB16
 7960 0064 E8020000 		.4byte	.LBE16
 7961 0068 EA020000 		.4byte	.LBB17
 7962 006c 12030000 		.4byte	.LBE17
 7963 0070 AE030000 		.4byte	.LBB18
 7964 0074 CC030000 		.4byte	.LBE18
 7965 0078 70040000 		.4byte	.LBB19
 7966 007c DC060000 		.4byte	.LBE19
 7967 0080 CE080000 		.4byte	.LBB20
 7968 0084 FA080000 		.4byte	.LBE20
 7969 0088 6C090000 		.4byte	.LBB21
 7970 008c 76090000 		.4byte	.LBE21
 7971 0090 D8090000 		.4byte	.LBB22
 7972 0094 220B0000 		.4byte	.LBE22
 7973 0098 440B0000 		.4byte	.LBB23
 7974 009c 520B0000 		.4byte	.LBE23
ARM GAS  /var/folders/5n/p_75w94d66l9ssrldxqdhh700000gn/T//ccYNR3t7.s 			page 141


 7975 00a0 820B0000 		.4byte	.LBB24
 7976 00a4 340C0000 		.4byte	.LBE24
 7977 00a8 00000000 		.4byte	0
 7978 00ac 00000000 		.4byte	0
 7979 00b0 240A0000 		.4byte	.LBB13
 7980 00b4 680A0000 		.4byte	.LBE13
 7981 00b8 140B0000 		.4byte	.LBB14
 7982 00bc 220B0000 		.4byte	.LBE14
 7983 00c0 440B0000 		.4byte	.LBB15
 7984 00c4 520B0000 		.4byte	.LBE15
 7985 00c8 00000000 		.4byte	0
 7986 00cc 00000000 		.4byte	0
 7987 00d0 38070000 		.4byte	.LBB29
 7988 00d4 78070000 		.4byte	.LBE29
 7989 00d8 220B0000 		.4byte	.LBB41
 7990 00dc 440B0000 		.4byte	.LBE41
 7991 00e0 520B0000 		.4byte	.LBB43
 7992 00e4 760B0000 		.4byte	.LBE43
 7993 00e8 00000000 		.4byte	0
 7994 00ec 00000000 		.4byte	0
 7995 00f0 EA070000 		.4byte	.LBB33
 7996 00f4 C2080000 		.4byte	.LBE33
 7997 00f8 86090000 		.4byte	.LBB39
 7998 00fc C8090000 		.4byte	.LBE39
 7999 0100 760B0000 		.4byte	.LBB44
 8000 0104 820B0000 		.4byte	.LBE44
 8001 0108 00000000 		.4byte	0
 8002 010c 00000000 		.4byte	0
 8003 0110 EA070000 		.4byte	.LBB34
 8004 0114 C2080000 		.4byte	.LBE34
 8005 0118 86090000 		.4byte	.LBB35
 8006 011c C8090000 		.4byte	.LBE35
 8007 0120 760B0000 		.4byte	.LBB36
 8008 0124 820B0000 		.4byte	.LBE36
 8009 0128 00000000 		.4byte	0
 8010 012c 00000000 		.4byte	0
 8011 0130 00000000 		.4byte	.LFB13
 8012 0134 98000000 		.4byte	.LFE13
 8013 0138 00000000 		.4byte	.LFB11
 8014 013c FC000000 		.4byte	.LFE11
 8015 0140 00000000 		.4byte	.LFB12
 8016 0144 AC0B0000 		.4byte	.LFE12
 8017 0148 00000000 		.4byte	.LFB7
 8018 014c 340C0000 		.4byte	.LFE7
 8019 0150 00000000 		.4byte	0
 8020 0154 00000000 		.4byte	0
 8021              		.section	.debug_line,"",%progbits
 8022              	.Ldebug_line0:
 8023 0000 65080000 		.section	.debug_str,"MS",%progbits,1
 8023      02006C01 
 8023      00000201 
 8023      FB0E0D00 
 8023      01010101 
 8024              	.LASF126:
 8025 0000 6C697374 		.ascii	"listen_pcbs\000"
 8025      656E5F70 
 8025      63627300 
ARM GAS  /var/folders/5n/p_75w94d66l9ssrldxqdhh700000gn/T//ccYNR3t7.s 			page 142


 8026              	.LASF131:
 8027 000c 4D454D50 		.ascii	"MEMP_TCP_PCB_LISTEN\000"
 8027      5F544350 
 8027      5F504342 
 8027      5F4C4953 
 8027      54454E00 
 8028              	.LASF171:
 8029 0020 63736567 		.ascii	"cseg\000"
 8029      00
 8030              	.LASF186:
 8031 0025 6F6C645F 		.ascii	"old_cwnd\000"
 8031      63776E64 
 8031      00
 8032              	.LASF59:
 8033 002e 736F5F6F 		.ascii	"so_options\000"
 8033      7074696F 
 8033      6E7300
 8034              	.LASF37:
 8035 0039 696E7075 		.ascii	"input\000"
 8035      7400
 8036              	.LASF172:
 8037 003f 6F6C645F 		.ascii	"old_seg\000"
 8037      73656700 
 8038              	.LASF177:
 8039 0047 666F756E 		.ascii	"found_dupack\000"
 8039      645F6475 
 8039      7061636B 
 8039      00
 8040              	.LASF182:
 8041 0054 6E706362 		.ascii	"npcb\000"
 8041      00
 8042              	.LASF125:
 8043 0059 75726770 		.ascii	"urgp\000"
 8043      00
 8044              	.LASF69:
 8045 005e 706F6C6C 		.ascii	"polltmr\000"
 8045      746D7200 
 8046              	.LASF55:
 8047 0066 7463705F 		.ascii	"tcp_accept_fn\000"
 8047      61636365 
 8047      70745F66 
 8047      6E00
 8048              	.LASF28:
 8049 0074 666C6167 		.ascii	"flags\000"
 8049      7300
 8050              	.LASF116:
 8051 007a 54494D45 		.ascii	"TIME_WAIT\000"
 8051      5F574149 
 8051      5400
 8052              	.LASF0:
 8053 0084 756E7369 		.ascii	"unsigned int\000"
 8053      676E6564 
 8053      20696E74 
 8053      00
 8054              	.LASF105:
 8055 0091 7463705F 		.ascii	"tcp_connected_fn\000"
 8055      636F6E6E 
ARM GAS  /var/folders/5n/p_75w94d66l9ssrldxqdhh700000gn/T//ccYNR3t7.s 			page 143


 8055      65637465 
 8055      645F666E 
 8055      00
 8056              	.LASF24:
 8057 00a2 6E657874 		.ascii	"next\000"
 8057      00
 8058              	.LASF22:
 8059 00a7 6572725F 		.ascii	"err_t\000"
 8059      7400
 8060              	.LASF39:
 8061 00ad 6C696E6B 		.ascii	"linkoutput\000"
 8061      6F757470 
 8061      757400
 8062              	.LASF174:
 8063 00b8 70726576 		.ascii	"prev\000"
 8063      00
 8064              	.LASF18:
 8065 00bd 7531365F 		.ascii	"u16_t\000"
 8065      7400
 8066              	.LASF51:
 8067 00c3 5F74746C 		.ascii	"_ttl\000"
 8067      00
 8068              	.LASF179:
 8069 00c8 6F6C645F 		.ascii	"old_ooseq\000"
 8069      6F6F7365 
 8069      7100
 8070              	.LASF68:
 8071 00d2 7263765F 		.ascii	"rcv_ann_right_edge\000"
 8071      616E6E5F 
 8071      72696768 
 8071      745F6564 
 8071      676500
 8072              	.LASF153:
 8073 00e5 73746174 		.ascii	"stats_mem\000"
 8073      735F6D65 
 8073      6D00
 8074              	.LASF45:
 8075 00ef 6E657469 		.ascii	"netif_output_fn\000"
 8075      665F6F75 
 8075      74707574 
 8075      5F666E00 
 8076              	.LASF100:
 8077 00ff 6B656570 		.ascii	"keep_cnt_sent\000"
 8077      5F636E74 
 8077      5F73656E 
 8077      7400
 8078              	.LASF141:
 8079 010d 4D454D50 		.ascii	"MEMP_PBUF_POOL\000"
 8079      5F504255 
 8079      465F504F 
 8079      4F4C00
 8080              	.LASF197:
 8081 011c 6C776970 		.ascii	"lwip_stats\000"
 8081      5F737461 
 8081      747300
 8082              	.LASF170:
 8083 0127 7463705F 		.ascii	"tcp_oos_insert_segment\000"
ARM GAS  /var/folders/5n/p_75w94d66l9ssrldxqdhh700000gn/T//ccYNR3t7.s 			page 144


 8083      6F6F735F 
 8083      696E7365 
 8083      72745F73 
 8083      65676D65 
 8084              	.LASF102:
 8085 013e 7463705F 		.ascii	"tcp_sent_fn\000"
 8085      73656E74 
 8085      5F666E00 
 8086              	.LASF198:
 8087 014a 696E7365 		.ascii	"inseg\000"
 8087      6700
 8088              	.LASF157:
 8089 0150 73746174 		.ascii	"stats_syselem\000"
 8089      735F7379 
 8089      73656C65 
 8089      6D00
 8090              	.LASF121:
 8091 015e 7365716E 		.ascii	"seqno\000"
 8091      6F00
 8092              	.LASF44:
 8093 0164 6E657469 		.ascii	"netif_input_fn\000"
 8093      665F696E 
 8093      7075745F 
 8093      666E00
 8094              	.LASF176:
 8095 0173 6E65775F 		.ascii	"new_tot_len\000"
 8095      746F745F 
 8095      6C656E00 
 8096              	.LASF11:
 8097 017f 75696E74 		.ascii	"uint32_t\000"
 8097      33325F74 
 8097      00
 8098              	.LASF2:
 8099 0188 696E7438 		.ascii	"int8_t\000"
 8099      5F7400
 8100              	.LASF77:
 8101 018f 63776E64 		.ascii	"cwnd\000"
 8101      00
 8102              	.LASF137:
 8103 0194 4D454D50 		.ascii	"MEMP_TCPIP_MSG_API\000"
 8103      5F544350 
 8103      49505F4D 
 8103      53475F41 
 8103      504900
 8104              	.LASF151:
 8105 01a7 6F707465 		.ascii	"opterr\000"
 8105      727200
 8106              	.LASF63:
 8107 01ae 6C6F6361 		.ascii	"local_port\000"
 8107      6C5F706F 
 8107      727400
 8108              	.LASF159:
 8109 01b9 6D757465 		.ascii	"mutex\000"
 8109      7800
 8110              	.LASF164:
 8111 01bf 69705F66 		.ascii	"ip_frag\000"
 8111      72616700 
ARM GAS  /var/folders/5n/p_75w94d66l9ssrldxqdhh700000gn/T//ccYNR3t7.s 			page 145


 8112              	.LASF156:
 8113 01c7 696C6C65 		.ascii	"illegal\000"
 8113      67616C00 
 8114              	.LASF5:
 8115 01cf 696E7431 		.ascii	"int16_t\000"
 8115      365F7400 
 8116              	.LASF42:
 8117 01d7 68776164 		.ascii	"hwaddr\000"
 8117      647200
 8118              	.LASF163:
 8119 01de 65746861 		.ascii	"etharp\000"
 8119      727000
 8120              	.LASF117:
 8121 01e5 7463705F 		.ascii	"tcp_seg\000"
 8121      73656700 
 8122              	.LASF14:
 8123 01ed 6C6F6E67 		.ascii	"long long unsigned int\000"
 8123      206C6F6E 
 8123      6720756E 
 8123      7369676E 
 8123      65642069 
 8124              	.LASF189:
 8125 0204 63757272 		.ascii	"current_iphdr_src\000"
 8125      656E745F 
 8125      69706864 
 8125      725F7372 
 8125      6300
 8126              	.LASF53:
 8127 0216 5F63686B 		.ascii	"_chksum\000"
 8127      73756D00 
 8128              	.LASF71:
 8129 021e 7274696D 		.ascii	"rtime\000"
 8129      6500
 8130              	.LASF41:
 8131 0224 68776164 		.ascii	"hwaddr_len\000"
 8131      64725F6C 
 8131      656E00
 8132              	.LASF50:
 8133 022f 5F6F6666 		.ascii	"_offset\000"
 8133      73657400 
 8134              	.LASF84:
 8135 0237 61636B65 		.ascii	"acked\000"
 8135      6400
 8136              	.LASF65:
 8137 023d 7263765F 		.ascii	"rcv_nxt\000"
 8137      6E787400 
 8138              	.LASF138:
 8139 0245 4D454D50 		.ascii	"MEMP_TCPIP_MSG_INPKT\000"
 8139      5F544350 
 8139      49505F4D 
 8139      53475F49 
 8139      4E504B54 
 8140              	.LASF155:
 8141 025a 75736564 		.ascii	"used\000"
 8141      00
 8142              	.LASF89:
 8143 025f 756E6163 		.ascii	"unacked\000"
ARM GAS  /var/folders/5n/p_75w94d66l9ssrldxqdhh700000gn/T//ccYNR3t7.s 			page 146


 8143      6B656400 
 8144              	.LASF161:
 8145 0267 73746174 		.ascii	"stats_\000"
 8145      735F00
 8146              	.LASF178:
 8147 026e 6E65775F 		.ascii	"new_cwnd\000"
 8147      63776E64 
 8147      00
 8148              	.LASF115:
 8149 0277 4C415354 		.ascii	"LAST_ACK\000"
 8149      5F41434B 
 8149      00
 8150              	.LASF26:
 8151 0280 746F745F 		.ascii	"tot_len\000"
 8151      6C656E00 
 8152              	.LASF25:
 8153 0288 7061796C 		.ascii	"payload\000"
 8153      6F616400 
 8154              	.LASF208:
 8155 0290 7463705F 		.ascii	"tcp_input\000"
 8155      696E7075 
 8155      7400
 8156              	.LASF185:
 8157 029a 61636365 		.ascii	"acceptable\000"
 8157      70746162 
 8157      6C6500
 8158              	.LASF38:
 8159 02a5 6F757470 		.ascii	"output\000"
 8159      757400
 8160              	.LASF94:
 8161 02ac 636F6E6E 		.ascii	"connected\000"
 8161      65637465 
 8161      6400
 8162              	.LASF29:
 8163 02b6 70627566 		.ascii	"pbuf\000"
 8163      00
 8164              	.LASF196:
 8165 02bb 7463705F 		.ascii	"tcp_tmp_pcb\000"
 8165      746D705F 
 8165      70636200 
 8166              	.LASF114:
 8167 02c7 434C4F53 		.ascii	"CLOSING\000"
 8167      494E4700 
 8168              	.LASF75:
 8169 02cf 6C617374 		.ascii	"lastack\000"
 8169      61636B00 
 8170              	.LASF142:
 8171 02d7 4D454D50 		.ascii	"MEMP_MAX\000"
 8171      5F4D4158 
 8171      00
 8172              	.LASF17:
 8173 02e0 73385F74 		.ascii	"s8_t\000"
 8173      00
 8174              	.LASF21:
 8175 02e5 7333325F 		.ascii	"s32_t\000"
 8175      7400
 8176              	.LASF136:
ARM GAS  /var/folders/5n/p_75w94d66l9ssrldxqdhh700000gn/T//ccYNR3t7.s 			page 147


 8177 02eb 4D454D50 		.ascii	"MEMP_NETCONN\000"
 8177      5F4E4554 
 8177      434F4E4E 
 8177      00
 8178              	.LASF162:
 8179 02f8 6C696E6B 		.ascii	"link\000"
 8179      00
 8180              	.LASF73:
 8181 02fd 72747365 		.ascii	"rtseq\000"
 8181      7100
 8182              	.LASF194:
 8183 0303 7463705F 		.ascii	"tcp_active_pcbs\000"
 8183      61637469 
 8183      76655F70 
 8183      63627300 
 8184              	.LASF76:
 8185 0313 64757061 		.ascii	"dupacks\000"
 8185      636B7300 
 8186              	.LASF60:
 8187 031b 7072696F 		.ascii	"prio\000"
 8187      00
 8188              	.LASF62:
 8189 0320 61636365 		.ascii	"accept\000"
 8189      707400
 8190              	.LASF140:
 8191 0327 4D454D50 		.ascii	"MEMP_PBUF\000"
 8191      5F504255 
 8191      4600
 8192              	.LASF95:
 8193 0331 706F6C6C 		.ascii	"poll\000"
 8193      00
 8194              	.LASF15:
 8195 0336 63686172 		.ascii	"char\000"
 8195      00
 8196              	.LASF203:
 8197 033b 474E5520 		.ascii	"GNU C 4.6.2 20111004 (prerelease)\000"
 8197      4320342E 
 8197      362E3220 
 8197      32303131 
 8197      31303034 
 8198              	.LASF23:
 8199 035d 6D656D5F 		.ascii	"mem_size_t\000"
 8199      73697A65 
 8199      5F7400
 8200              	.LASF143:
 8201 0368 73746174 		.ascii	"stats_proto\000"
 8201      735F7072 
 8201      6F746F00 
 8202              	.LASF183:
 8203 0374 7463705F 		.ascii	"tcp_process\000"
 8203      70726F63 
 8203      65737300 
 8204              	.LASF32:
 8205 0380 69705F61 		.ascii	"ip_addr_packed\000"
 8205      6464725F 
 8205      7061636B 
 8205      656400
ARM GAS  /var/folders/5n/p_75w94d66l9ssrldxqdhh700000gn/T//ccYNR3t7.s 			page 148


 8206              	.LASF113:
 8207 038f 434C4F53 		.ascii	"CLOSE_WAIT\000"
 8207      455F5741 
 8207      495400
 8208              	.LASF200:
 8209 039a 7463706C 		.ascii	"tcplen\000"
 8209      656E00
 8210              	.LASF92:
 8211 03a1 73656E74 		.ascii	"sent\000"
 8211      00
 8212              	.LASF3:
 8213 03a6 75696E74 		.ascii	"uint8_t\000"
 8213      385F7400 
 8214              	.LASF81:
 8215 03ae 736E645F 		.ascii	"snd_wl1\000"
 8215      776C3100 
 8216              	.LASF82:
 8217 03b6 736E645F 		.ascii	"snd_wl2\000"
 8217      776C3200 
 8218              	.LASF52:
 8219 03be 5F70726F 		.ascii	"_proto\000"
 8219      746F00
 8220              	.LASF104:
 8221 03c5 7463705F 		.ascii	"tcp_err_fn\000"
 8221      6572725F 
 8221      666E00
 8222              	.LASF180:
 8223 03d0 7463705F 		.ascii	"tcp_timewait_input\000"
 8223      74696D65 
 8223      77616974 
 8223      5F696E70 
 8223      757400
 8224              	.LASF207:
 8225 03e3 7463705F 		.ascii	"tcp_listen_pcbs_t\000"
 8225      6C697374 
 8225      656E5F70 
 8225      6362735F 
 8225      7400
 8226              	.LASF83:
 8227 03f5 736E645F 		.ascii	"snd_lbb\000"
 8227      6C626200 
 8228              	.LASF135:
 8229 03fd 4D454D50 		.ascii	"MEMP_NETBUF\000"
 8229      5F4E4554 
 8229      42554600 
 8230              	.LASF36:
 8231 0409 6E65746D 		.ascii	"netmask\000"
 8231      61736B00 
 8232              	.LASF13:
 8233 0411 6C6F6E67 		.ascii	"long long int\000"
 8233      206C6F6E 
 8233      6720696E 
 8233      7400
 8234              	.LASF119:
 8235 041f 7463705F 		.ascii	"tcp_pcb_listen\000"
 8235      7063625F 
 8235      6C697374 
ARM GAS  /var/folders/5n/p_75w94d66l9ssrldxqdhh700000gn/T//ccYNR3t7.s 			page 149


 8235      656E00
 8236              	.LASF122:
 8237 042e 61636B6E 		.ascii	"ackno\000"
 8237      6F00
 8238              	.LASF191:
 8239 0434 7463705F 		.ascii	"tcp_input_pcb\000"
 8239      696E7075 
 8239      745F7063 
 8239      6200
 8240              	.LASF99:
 8241 0442 70657273 		.ascii	"persist_backoff\000"
 8241      6973745F 
 8241      6261636B 
 8241      6F666600 
 8242              	.LASF130:
 8243 0452 4D454D50 		.ascii	"MEMP_TCP_PCB\000"
 8243      5F544350 
 8243      5F504342 
 8243      00
 8244              	.LASF166:
 8245 045f 6D656D70 		.ascii	"memp\000"
 8245      00
 8246              	.LASF16:
 8247 0464 75385F74 		.ascii	"u8_t\000"
 8247      00
 8248              	.LASF175:
 8249 0469 72696768 		.ascii	"right_wnd_edge\000"
 8249      745F776E 
 8249      645F6564 
 8249      676500
 8250              	.LASF205:
 8251 0478 2F557365 		.ascii	"/Users/sin/Documents/Eclipse/Workspace/mabl-ChibiOS"
 8251      72732F73 
 8251      696E2F44 
 8251      6F63756D 
 8251      656E7473 
 8252 04ab 2D322E35 		.ascii	"-2.5.1/demos/ARMCM4-STM32F407-LWIP\000"
 8252      2E312F64 
 8252      656D6F73 
 8252      2F41524D 
 8252      434D342D 
 8253              	.LASF64:
 8254 04ce 72656D6F 		.ascii	"remote_port\000"
 8254      74655F70 
 8254      6F727400 
 8255              	.LASF193:
 8256 04da 7463705F 		.ascii	"tcp_listen_pcbs\000"
 8256      6C697374 
 8256      656E5F70 
 8256      63627300 
 8257              	.LASF67:
 8258 04ea 7263765F 		.ascii	"rcv_ann_wnd\000"
 8258      616E6E5F 
 8258      776E6400 
 8259              	.LASF146:
 8260 04f6 63686B65 		.ascii	"chkerr\000"
 8260      727200
ARM GAS  /var/folders/5n/p_75w94d66l9ssrldxqdhh700000gn/T//ccYNR3t7.s 			page 150


 8261              	.LASF184:
 8262 04fd 72736567 		.ascii	"rseg\000"
 8262      00
 8263              	.LASF133:
 8264 0502 4D454D50 		.ascii	"MEMP_REASSDATA\000"
 8264      5F524541 
 8264      53534441 
 8264      544100
 8265              	.LASF101:
 8266 0511 7463705F 		.ascii	"tcp_recv_fn\000"
 8266      72656376 
 8266      5F666E00 
 8267              	.LASF103:
 8268 051d 7463705F 		.ascii	"tcp_poll_fn\000"
 8268      706F6C6C 
 8268      5F666E00 
 8269              	.LASF7:
 8270 0529 75696E74 		.ascii	"uint16_t\000"
 8270      31365F74 
 8270      00
 8271              	.LASF96:
 8272 0532 65727266 		.ascii	"errf\000"
 8272      00
 8273              	.LASF80:
 8274 0537 736E645F 		.ascii	"snd_wnd\000"
 8274      776E6400 
 8275              	.LASF48:
 8276 053f 5F765F68 		.ascii	"_v_hl_tos\000"
 8276      6C5F746F 
 8276      7300
 8277              	.LASF201:
 8278 0549 72656376 		.ascii	"recv_flags\000"
 8278      5F666C61 
 8278      677300
 8279              	.LASF90:
 8280 0554 6F6F7365 		.ascii	"ooseq\000"
 8280      7100
 8281              	.LASF106:
 8282 055a 434C4F53 		.ascii	"CLOSED\000"
 8282      454400
 8283              	.LASF20:
 8284 0561 7533325F 		.ascii	"u32_t\000"
 8284      7400
 8285              	.LASF6:
 8286 0567 73686F72 		.ascii	"short int\000"
 8286      7420696E 
 8286      7400
 8287              	.LASF165:
 8288 0571 69636D70 		.ascii	"icmp\000"
 8288      00
 8289              	.LASF10:
 8290 0576 6C6F6E67 		.ascii	"long int\000"
 8290      20696E74 
 8290      00
 8291              	.LASF149:
 8292 057f 72746572 		.ascii	"rterr\000"
 8292      7200
ARM GAS  /var/folders/5n/p_75w94d66l9ssrldxqdhh700000gn/T//ccYNR3t7.s 			page 151


 8293              	.LASF154:
 8294 0585 61766169 		.ascii	"avail\000"
 8294      6C00
 8295              	.LASF209:
 8296 058b 61626F72 		.ascii	"aborted\000"
 8296      74656400 
 8297              	.LASF88:
 8298 0593 756E7365 		.ascii	"unsent\000"
 8298      6E7400
 8299              	.LASF66:
 8300 059a 7263765F 		.ascii	"rcv_wnd\000"
 8300      776E6400 
 8301              	.LASF72:
 8302 05a2 72747465 		.ascii	"rttest\000"
 8302      737400
 8303              	.LASF204:
 8304 05a9 2E2E2F2E 		.ascii	"../../ext/lwip/src/core/tcp_in.c\000"
 8304      2E2F6578 
 8304      742F6C77 
 8304      69702F73 
 8304      72632F63 
 8305              	.LASF168:
 8306 05ca 6F707473 		.ascii	"opts\000"
 8306      00
 8307              	.LASF181:
 8308 05cf 7463705F 		.ascii	"tcp_listen_input\000"
 8308      6C697374 
 8308      656E5F69 
 8308      6E707574 
 8308      00
 8309              	.LASF139:
 8310 05e0 4D454D50 		.ascii	"MEMP_SYS_TIMEOUT\000"
 8310      5F535953 
 8310      5F54494D 
 8310      454F5554 
 8310      00
 8311              	.LASF129:
 8312 05f1 4D454D50 		.ascii	"MEMP_UDP_PCB\000"
 8312      5F554450 
 8312      5F504342 
 8312      00
 8313              	.LASF57:
 8314 05fe 6C6F6361 		.ascii	"local_ip\000"
 8314      6C5F6970 
 8314      00
 8315              	.LASF160:
 8316 0607 6D626F78 		.ascii	"mbox\000"
 8316      00
 8317              	.LASF87:
 8318 060c 756E7365 		.ascii	"unsent_oversize\000"
 8318      6E745F6F 
 8318      76657273 
 8318      697A6500 
 8319              	.LASF108:
 8320 061c 53594E5F 		.ascii	"SYN_SENT\000"
 8320      53454E54 
 8320      00
ARM GAS  /var/folders/5n/p_75w94d66l9ssrldxqdhh700000gn/T//ccYNR3t7.s 			page 152


 8321              	.LASF152:
 8322 0625 63616368 		.ascii	"cachehit\000"
 8322      65686974 
 8322      00
 8323              	.LASF79:
 8324 062e 736E645F 		.ascii	"snd_nxt\000"
 8324      6E787400 
 8325              	.LASF110:
 8326 0636 45535441 		.ascii	"ESTABLISHED\000"
 8326      424C4953 
 8326      48454400 
 8327              	.LASF47:
 8328 0642 69705F68 		.ascii	"ip_hdr\000"
 8328      647200
 8329              	.LASF43:
 8330 0649 6E616D65 		.ascii	"name\000"
 8330      00
 8331              	.LASF46:
 8332 064e 6E657469 		.ascii	"netif_linkoutput_fn\000"
 8332      665F6C69 
 8332      6E6B6F75 
 8332      74707574 
 8332      5F666E00 
 8333              	.LASF134:
 8334 0662 4D454D50 		.ascii	"MEMP_FRAG_PBUF\000"
 8334      5F465241 
 8334      475F5042 
 8334      554600
 8335              	.LASF78:
 8336 0671 73737468 		.ascii	"ssthresh\000"
 8336      72657368 
 8336      00
 8337              	.LASF85:
 8338 067a 736E645F 		.ascii	"snd_buf\000"
 8338      62756600 
 8339              	.LASF70:
 8340 0682 706F6C6C 		.ascii	"pollinterval\000"
 8340      696E7465 
 8340      7276616C 
 8340      00
 8341              	.LASF128:
 8342 068f 4D454D50 		.ascii	"MEMP_RAW_PCB\000"
 8342      5F524157 
 8342      5F504342 
 8342      00
 8343              	.LASF123:
 8344 069c 5F686472 		.ascii	"_hdrlen_rsvd_flags\000"
 8344      6C656E5F 
 8344      72737664 
 8344      5F666C61 
 8344      677300
 8345              	.LASF147:
 8346 06af 6C656E65 		.ascii	"lenerr\000"
 8346      727200
 8347              	.LASF173:
 8348 06b6 7463705F 		.ascii	"tcp_receive\000"
 8348      72656365 
ARM GAS  /var/folders/5n/p_75w94d66l9ssrldxqdhh700000gn/T//ccYNR3t7.s 			page 153


 8348      69766500 
 8349              	.LASF12:
 8350 06c2 6C6F6E67 		.ascii	"long unsigned int\000"
 8350      20756E73 
 8350      69676E65 
 8350      6420696E 
 8350      7400
 8351              	.LASF192:
 8352 06d4 7463705F 		.ascii	"tcp_ticks\000"
 8352      7469636B 
 8352      7300
 8353              	.LASF202:
 8354 06de 72656376 		.ascii	"recv_data\000"
 8354      5F646174 
 8354      6100
 8355              	.LASF118:
 8356 06e8 74637068 		.ascii	"tcphdr\000"
 8356      647200
 8357              	.LASF19:
 8358 06ef 7331365F 		.ascii	"s16_t\000"
 8358      7400
 8359              	.LASF9:
 8360 06f5 696E7433 		.ascii	"int32_t\000"
 8360      325F7400 
 8361              	.LASF91:
 8362 06fd 72656675 		.ascii	"refused_data\000"
 8362      7365645F 
 8362      64617461 
 8362      00
 8363              	.LASF150:
 8364 070a 70726F74 		.ascii	"proterr\000"
 8364      65727200 
 8365              	.LASF120:
 8366 0712 7463705F 		.ascii	"tcp_hdr\000"
 8366      68647200 
 8367              	.LASF27:
 8368 071a 74797065 		.ascii	"type\000"
 8368      00
 8369              	.LASF158:
 8370 071f 73746174 		.ascii	"stats_sys\000"
 8370      735F7379 
 8370      7300
 8371              	.LASF4:
 8372 0729 756E7369 		.ascii	"unsigned char\000"
 8372      676E6564 
 8372      20636861 
 8372      7200
 8373              	.LASF111:
 8374 0737 46494E5F 		.ascii	"FIN_WAIT_1\000"
 8374      57414954 
 8374      5F3100
 8375              	.LASF112:
 8376 0742 46494E5F 		.ascii	"FIN_WAIT_2\000"
 8376      57414954 
 8376      5F3200
 8377              	.LASF148:
 8378 074d 6D656D65 		.ascii	"memerr\000"
ARM GAS  /var/folders/5n/p_75w94d66l9ssrldxqdhh700000gn/T//ccYNR3t7.s 			page 154


 8378      727200
 8379              	.LASF132:
 8380 0754 4D454D50 		.ascii	"MEMP_TCP_SEG\000"
 8380      5F544350 
 8380      5F534547 
 8380      00
 8381              	.LASF34:
 8382 0761 69705F61 		.ascii	"ip_addr_p_t\000"
 8382      6464725F 
 8382      705F7400 
 8383              	.LASF97:
 8384 076d 6B656570 		.ascii	"keep_idle\000"
 8384      5F69646C 
 8384      6500
 8385              	.LASF167:
 8386 0777 6D61785F 		.ascii	"max_c\000"
 8386      6300
 8387              	.LASF61:
 8388 077d 63616C6C 		.ascii	"callback_arg\000"
 8388      6261636B 
 8388      5F617267 
 8388      00
 8389              	.LASF107:
 8390 078a 4C495354 		.ascii	"LISTEN\000"
 8390      454E00
 8391              	.LASF31:
 8392 0791 61646472 		.ascii	"addr\000"
 8392      00
 8393              	.LASF145:
 8394 0796 64726F70 		.ascii	"drop\000"
 8394      00
 8395              	.LASF40:
 8396 079b 73746174 		.ascii	"state\000"
 8396      6500
 8397              	.LASF35:
 8398 07a1 6E657469 		.ascii	"netif\000"
 8398      6600
 8399              	.LASF86:
 8400 07a7 736E645F 		.ascii	"snd_queuelen\000"
 8400      71756575 
 8400      656C656E 
 8400      00
 8401              	.LASF124:
 8402 07b4 63686B73 		.ascii	"chksum\000"
 8402      756D00
 8403              	.LASF187:
 8404 07bb 6C706362 		.ascii	"lpcb\000"
 8404      00
 8405              	.LASF199:
 8406 07c0 69706864 		.ascii	"iphdr\000"
 8406      7200
 8407              	.LASF93:
 8408 07c6 72656376 		.ascii	"recv\000"
 8408      00
 8409              	.LASF188:
 8410 07cb 6864726C 		.ascii	"hdrlen\000"
 8410      656E00
ARM GAS  /var/folders/5n/p_75w94d66l9ssrldxqdhh700000gn/T//ccYNR3t7.s 			page 155


 8411              	.LASF1:
 8412 07d2 7369676E 		.ascii	"signed char\000"
 8412      65642063 
 8412      68617200 
 8413              	.LASF56:
 8414 07de 7463705F 		.ascii	"tcp_pcb\000"
 8414      70636200 
 8415              	.LASF8:
 8416 07e6 73686F72 		.ascii	"short unsigned int\000"
 8416      7420756E 
 8416      7369676E 
 8416      65642069 
 8416      6E7400
 8417              	.LASF144:
 8418 07f9 786D6974 		.ascii	"xmit\000"
 8418      00
 8419              	.LASF98:
 8420 07fe 70657273 		.ascii	"persist_cnt\000"
 8420      6973745F 
 8420      636E7400 
 8421              	.LASF190:
 8422 080a 63757272 		.ascii	"current_iphdr_dest\000"
 8422      656E745F 
 8422      69706864 
 8422      725F6465 
 8422      737400
 8423              	.LASF58:
 8424 081d 72656D6F 		.ascii	"remote_ip\000"
 8424      74655F69 
 8424      7000
 8425              	.LASF195:
 8426 0827 7463705F 		.ascii	"tcp_tw_pcbs\000"
 8426      74775F70 
 8426      63627300 
 8427              	.LASF49:
 8428 0833 5F6C656E 		.ascii	"_len\000"
 8428      00
 8429              	.LASF33:
 8430 0838 69705F61 		.ascii	"ip_addr_t\000"
 8430      6464725F 
 8430      7400
 8431              	.LASF206:
 8432 0842 7463705F 		.ascii	"tcp_state\000"
 8432      73746174 
 8432      6500
 8433              	.LASF169:
 8434 084c 7463705F 		.ascii	"tcp_parseopt\000"
 8434      70617273 
 8434      656F7074 
 8434      00
 8435              	.LASF74:
 8436 0859 6E727478 		.ascii	"nrtx\000"
 8436      00
 8437              	.LASF54:
 8438 085e 64657374 		.ascii	"dest\000"
 8438      00
 8439              	.LASF109:
ARM GAS  /var/folders/5n/p_75w94d66l9ssrldxqdhh700000gn/T//ccYNR3t7.s 			page 156


 8440 0863 53594E5F 		.ascii	"SYN_RCVD\000"
 8440      52435644 
 8440      00
 8441              	.LASF30:
 8442 086c 69705F61 		.ascii	"ip_addr\000"
 8442      64647200 
 8443              	.LASF127:
 8444 0874 70636273 		.ascii	"pcbs\000"
 8444      00
 8445              		.ident	"GCC: (Linaro GCC 4.6-2011.10) 4.6.2 20111004 (prerelease)"
ARM GAS  /var/folders/5n/p_75w94d66l9ssrldxqdhh700000gn/T//ccYNR3t7.s 			page 157


DEFINED SYMBOLS
                            *ABS*:0000000000000000 tcp_in.c
/var/folders/5n/p_75w94d66l9ssrldxqdhh700000gn/T//ccYNR3t7.s:18     .text.tcp_parseopt:0000000000000000 $t
/var/folders/5n/p_75w94d66l9ssrldxqdhh700000gn/T//ccYNR3t7.s:23     .text.tcp_parseopt:0000000000000000 tcp_parseopt
/var/folders/5n/p_75w94d66l9ssrldxqdhh700000gn/T//ccYNR3t7.s:150    .text.tcp_parseopt:0000000000000094 $d
/var/folders/5n/p_75w94d66l9ssrldxqdhh700000gn/T//ccYNR3t7.s:155    .text.tcp_oos_insert_segment:0000000000000000 $t
/var/folders/5n/p_75w94d66l9ssrldxqdhh700000gn/T//ccYNR3t7.s:160    .text.tcp_oos_insert_segment:0000000000000000 tcp_oos_insert_segment
/var/folders/5n/p_75w94d66l9ssrldxqdhh700000gn/T//ccYNR3t7.s:328    .text.tcp_oos_insert_segment:00000000000000f8 $d
/var/folders/5n/p_75w94d66l9ssrldxqdhh700000gn/T//ccYNR3t7.s:333    .text.tcp_receive:0000000000000000 $t
/var/folders/5n/p_75w94d66l9ssrldxqdhh700000gn/T//ccYNR3t7.s:338    .text.tcp_receive:0000000000000000 tcp_receive
/var/folders/5n/p_75w94d66l9ssrldxqdhh700000gn/T//ccYNR3t7.s:634    .text.tcp_receive:00000000000001e0 $d
/var/folders/5n/p_75w94d66l9ssrldxqdhh700000gn/T//ccYNR3t7.s:641    .text.tcp_receive:00000000000001f4 $t
/var/folders/5n/p_75w94d66l9ssrldxqdhh700000gn/T//ccYNR3t7.s:1097   .text.tcp_receive:0000000000000538 $d
/var/folders/5n/p_75w94d66l9ssrldxqdhh700000gn/T//ccYNR3t7.s:1105   .text.tcp_receive:000000000000054c $t
/var/folders/5n/p_75w94d66l9ssrldxqdhh700000gn/T//ccYNR3t7.s:1506   .text.tcp_receive:0000000000000824 $d
/var/folders/5n/p_75w94d66l9ssrldxqdhh700000gn/T//ccYNR3t7.s:1513   .text.tcp_receive:0000000000000834 $t
/var/folders/5n/p_75w94d66l9ssrldxqdhh700000gn/T//ccYNR3t7.s:1997   .text.tcp_receive:0000000000000ba0 $d
/var/folders/5n/p_75w94d66l9ssrldxqdhh700000gn/T//ccYNR3t7.s:2004   .text.tcp_input:0000000000000000 $t
/var/folders/5n/p_75w94d66l9ssrldxqdhh700000gn/T//ccYNR3t7.s:2010   .text.tcp_input:0000000000000000 tcp_input
/var/folders/5n/p_75w94d66l9ssrldxqdhh700000gn/T//ccYNR3t7.s:3800   .bss.seqno:0000000000000000 .LANCHOR1
/var/folders/5n/p_75w94d66l9ssrldxqdhh700000gn/T//ccYNR3t7.s:3814   .bss.ackno:0000000000000000 .LANCHOR3
/var/folders/5n/p_75w94d66l9ssrldxqdhh700000gn/T//ccYNR3t7.s:3807   .bss.tcplen:0000000000000000 .LANCHOR4
/var/folders/5n/p_75w94d66l9ssrldxqdhh700000gn/T//ccYNR3t7.s:2325   .text.tcp_input:0000000000000238 $d
/var/folders/5n/p_75w94d66l9ssrldxqdhh700000gn/T//ccYNR3t7.s:2334   .text.tcp_input:0000000000000250 $t
/var/folders/5n/p_75w94d66l9ssrldxqdhh700000gn/T//ccYNR3t7.s:3847   .bss.inseg:0000000000000000 .LANCHOR5
/var/folders/5n/p_75w94d66l9ssrldxqdhh700000gn/T//ccYNR3t7.s:2714   .text.tcp_input:0000000000000498 $d
/var/folders/5n/p_75w94d66l9ssrldxqdhh700000gn/T//ccYNR3t7.s:2724   .text.tcp_input:00000000000004a8 $t
/var/folders/5n/p_75w94d66l9ssrldxqdhh700000gn/T//ccYNR3t7.s:2797   .text.tcp_input:0000000000000540 $d
/var/folders/5n/p_75w94d66l9ssrldxqdhh700000gn/T//ccYNR3t7.s:2807   .text.tcp_input:0000000000000560 $t
/var/folders/5n/p_75w94d66l9ssrldxqdhh700000gn/T//ccYNR3t7.s:3095   .text.tcp_input:00000000000007ac $d
/var/folders/5n/p_75w94d66l9ssrldxqdhh700000gn/T//ccYNR3t7.s:3103   .text.tcp_input:00000000000007c0 $t
/var/folders/5n/p_75w94d66l9ssrldxqdhh700000gn/T//ccYNR3t7.s:3576   .text.tcp_input:0000000000000afc $d
/var/folders/5n/p_75w94d66l9ssrldxqdhh700000gn/T//ccYNR3t7.s:3586   .text.tcp_input:0000000000000b14 $t
/var/folders/5n/p_75w94d66l9ssrldxqdhh700000gn/T//ccYNR3t7.s:3782   .text.tcp_input:0000000000000c28 $d
/var/folders/5n/p_75w94d66l9ssrldxqdhh700000gn/T//ccYNR3t7.s:3857   .bss.tcp_input_pcb:0000000000000000 tcp_input_pcb
/var/folders/5n/p_75w94d66l9ssrldxqdhh700000gn/T//ccYNR3t7.s:3792   .bss.tcphdr:0000000000000000 $d
/var/folders/5n/p_75w94d66l9ssrldxqdhh700000gn/T//ccYNR3t7.s:3796   .bss.tcphdr:0000000000000000 tcphdr
/var/folders/5n/p_75w94d66l9ssrldxqdhh700000gn/T//ccYNR3t7.s:3799   .bss.seqno:0000000000000000 $d
/var/folders/5n/p_75w94d66l9ssrldxqdhh700000gn/T//ccYNR3t7.s:3803   .bss.seqno:0000000000000000 seqno
/var/folders/5n/p_75w94d66l9ssrldxqdhh700000gn/T//ccYNR3t7.s:3806   .bss.tcplen:0000000000000000 $d
/var/folders/5n/p_75w94d66l9ssrldxqdhh700000gn/T//ccYNR3t7.s:3810   .bss.tcplen:0000000000000000 tcplen
/var/folders/5n/p_75w94d66l9ssrldxqdhh700000gn/T//ccYNR3t7.s:3813   .bss.ackno:0000000000000000 $d
/var/folders/5n/p_75w94d66l9ssrldxqdhh700000gn/T//ccYNR3t7.s:3817   .bss.ackno:0000000000000000 ackno
/var/folders/5n/p_75w94d66l9ssrldxqdhh700000gn/T//ccYNR3t7.s:3823   .bss.flags:0000000000000000 flags
/var/folders/5n/p_75w94d66l9ssrldxqdhh700000gn/T//ccYNR3t7.s:3824   .bss.flags:0000000000000000 $d
/var/folders/5n/p_75w94d66l9ssrldxqdhh700000gn/T//ccYNR3t7.s:3829   .bss.recv_flags:0000000000000000 recv_flags
/var/folders/5n/p_75w94d66l9ssrldxqdhh700000gn/T//ccYNR3t7.s:3830   .bss.recv_flags:0000000000000000 $d
/var/folders/5n/p_75w94d66l9ssrldxqdhh700000gn/T//ccYNR3t7.s:3832   .bss.recv_data:0000000000000000 $d
/var/folders/5n/p_75w94d66l9ssrldxqdhh700000gn/T//ccYNR3t7.s:3836   .bss.recv_data:0000000000000000 recv_data
/var/folders/5n/p_75w94d66l9ssrldxqdhh700000gn/T//ccYNR3t7.s:3839   .bss.iphdr:0000000000000000 $d
/var/folders/5n/p_75w94d66l9ssrldxqdhh700000gn/T//ccYNR3t7.s:3843   .bss.iphdr:0000000000000000 iphdr
/var/folders/5n/p_75w94d66l9ssrldxqdhh700000gn/T//ccYNR3t7.s:3846   .bss.inseg:0000000000000000 $d
/var/folders/5n/p_75w94d66l9ssrldxqdhh700000gn/T//ccYNR3t7.s:3850   .bss.inseg:0000000000000000 inseg
/var/folders/5n/p_75w94d66l9ssrldxqdhh700000gn/T//ccYNR3t7.s:3853   .bss.tcp_input_pcb:0000000000000000 $d
                     .debug_frame:0000000000000010 $d
/var/folders/5n/p_75w94d66l9ssrldxqdhh700000gn/T//ccYNR3t7.s:154    .text.tcp_parseopt:0000000000000098 $t
/var/folders/5n/p_75w94d66l9ssrldxqdhh700000gn/T//ccYNR3t7.s:332    .text.tcp_oos_insert_segment:00000000000000fc $t
ARM GAS  /var/folders/5n/p_75w94d66l9ssrldxqdhh700000gn/T//ccYNR3t7.s 			page 158


/var/folders/5n/p_75w94d66l9ssrldxqdhh700000gn/T//ccYNR3t7.s:2003   .text.tcp_receive:0000000000000bac $t
/var/folders/5n/p_75w94d66l9ssrldxqdhh700000gn/T//ccYNR3t7.s:3791   .text.tcp_input:0000000000000c34 $t

UNDEFINED SYMBOLS
lwip_ntohs
tcp_seg_free
lwip_htons
pbuf_realloc
tcp_segs_free
lwip_ntohl
pbuf_clen
tcp_send_empty_ack
port_halt
tcp_seg_copy
tcp_ticks
pbuf_header
tcp_update_rcv_ann_wnd
pbuf_cat
tcp_rexmit_fast
pbuf_free
ip4_addr_isbroadcast
inet_chksum_pseudo
tcp_active_pcbs
lwip_stats
current_iphdr_dest
current_iphdr_src
tcp_pcb_remove
memp_free
tcp_output
tcp_pcb_purge
tcp_timer_needed
tcp_tmp_pcb
tcp_tw_pcbs
tcp_rst
tcp_listen_pcbs
tcp_alloc
tcp_eff_send_mss
tcp_enqueue_flags
tcp_recv_null
tcp_abort
tcp_abandon
tcp_rexmit
