ARM GAS  /var/folders/5n/p_75w94d66l9ssrldxqdhh700000gn/T//cc4n8EPc.s 			page 1


   1              		.syntax unified
   2              		.cpu cortex-m4
   3              		.fpu softvfp
   4              		.eabi_attribute 20, 1
   5              		.eabi_attribute 21, 1
   6              		.eabi_attribute 23, 3
   7              		.eabi_attribute 24, 1
   8              		.eabi_attribute 25, 1
   9              		.eabi_attribute 26, 1
  10              		.eabi_attribute 30, 2
  11              		.eabi_attribute 18, 4
  12              		.thumb
  13              		.file	"tcp_out.c"
  14              		.text
  15              	.Ltext0:
  16              		.cfi_sections	.debug_frame
  17              		.section	.text.tcp_pbuf_prealloc,"ax",%progbits
  18              		.align	2
  19              		.p2align 4,,15
  20              		.thumb
  21              		.thumb_func
  22              		.type	tcp_pbuf_prealloc, %function
  23              	tcp_pbuf_prealloc:
  24              	.LFB10:
  25              		.file 1 "../../ext/lwip/src/core/tcp_out.c"
  26              		.loc 1 219 0
  27              		.cfi_startproc
  28              		@ args = 12, pretend = 0, frame = 0
  29              		@ frame_needed = 0, uses_anonymous_args = 0
  30              	.LVL0:
  31 0000 70B5     		push	{r4, r5, r6, lr}
  32              	.LCFI0:
  33              		.cfi_def_cfa_offset 16
  34              		.cfi_offset 14, -4
  35              		.cfi_offset 6, -8
  36              		.cfi_offset 5, -12
  37              		.cfi_offset 4, -16
  38              		.loc 1 231 0
  39 0002 9142     		cmp	r1, r2
  40              		.loc 1 219 0
  41 0004 1D46     		mov	r5, r3
  42 0006 0C46     		mov	r4, r1
  43              	.LVL1:
  44 0008 049B     		ldr	r3, [sp, #16]
  45              	.LVL2:
  46              		.loc 1 231 0
  47 000a 10D2     		bcs	.L8
  48              		.loc 1 243 0
  49 000c 9DF81410 		ldrb	r1, [sp, #20]	@ zero_extendqisi2
  50              	.LVL3:
  51 0010 8E07     		lsls	r6, r1, #30
  52 0012 08D5     		bpl	.L10
  53              	.L3:
  54              		.loc 1 248 0
  55 0014 04F21B21 		addw	r1, r4, #539
  56 0018 21F00301 		bic	r1, r1, #3
  57 001c 9142     		cmp	r1, r2
ARM GAS  /var/folders/5n/p_75w94d66l9ssrldxqdhh700000gn/T//cc4n8EPc.s 			page 2


  58 001e B8BF     		it	lt
  59 0020 0A46     		movlt	r2, r1
  60              	.LVL4:
  61 0022 91B2     		uxth	r1, r2
  62              	.LVL5:
  63 0024 04E0     		b	.L2
  64              	.LVL6:
  65              	.L10:
  66              		.loc 1 244 0 discriminator 1
  67 0026 93F82010 		ldrb	r1, [r3, #32]	@ zero_extendqisi2
  68              		.loc 1 243 0 discriminator 1
  69 002a 4906     		lsls	r1, r1, #25
  70 002c 10D5     		bpl	.L11
  71              	.L8:
  72              		.loc 1 246 0
  73 002e 2146     		mov	r1, r4
  74              	.LVL7:
  75              	.L2:
  76              		.loc 1 252 0
  77 0030 0022     		movs	r2, #0
  78 0032 FFF7FEFF 		bl	pbuf_alloc
  79              	.LVL8:
  80              		.loc 1 253 0
  81 0036 0646     		mov	r6, r0
  82 0038 40B1     		cbz	r0, .L4
  83              		.loc 1 256 0
  84 003a 0368     		ldr	r3, [r0, #0]
  85 003c 0BB1     		cbz	r3, .L5
  86              		.loc 1 256 0 is_stmt 0 discriminator 1
  87 003e FFF7FEFF 		bl	port_halt
  88              	.LVL9:
  89              	.L5:
  90              		.loc 1 257 0 is_stmt 1
  91 0042 7389     		ldrh	r3, [r6, #10]
  92 0044 1B1B     		subs	r3, r3, r4
  93 0046 2B80     		strh	r3, [r5, #0]	@ movhi
  94              		.loc 1 259 0
  95 0048 3481     		strh	r4, [r6, #8]	@ movhi
  96 004a 7481     		strh	r4, [r6, #10]	@ movhi
  97              	.L4:
  98              		.loc 1 261 0
  99 004c 3046     		mov	r0, r6
 100 004e 70BD     		pop	{r4, r5, r6, pc}
 101              	.LVL10:
 102              	.L11:
 103              		.loc 1 244 0
 104 0050 9DF81810 		ldrb	r1, [sp, #24]	@ zero_extendqisi2
 105 0054 0029     		cmp	r1, #0
 106 0056 DDD0     		beq	.L3
 107              		.loc 1 245 0
 108 0058 596F     		ldr	r1, [r3, #116]
 109 005a 0029     		cmp	r1, #0
 110 005c DAD1     		bne	.L3
 111              		.loc 1 246 0
 112 005e 9B6F     		ldr	r3, [r3, #120]
 113 0060 002B     		cmp	r3, #0
 114 0062 D7D1     		bne	.L3
ARM GAS  /var/folders/5n/p_75w94d66l9ssrldxqdhh700000gn/T//cc4n8EPc.s 			page 3


 115 0064 E3E7     		b	.L8
 116              		.cfi_endproc
 117              	.LFE10:
 118              		.size	tcp_pbuf_prealloc, .-tcp_pbuf_prealloc
 119 0066 00BFAFF3 		.section	.text.tcp_create_segment,"ax",%progbits
 119      0080AFF3 
 119      0080
 120              		.align	2
 121              		.p2align 4,,15
 122              		.thumb
 123              		.thumb_func
 124              		.type	tcp_create_segment, %function
 125              	tcp_create_segment:
 126              	.LFB9:
 127              		.loc 1 157 0
 128              		.cfi_startproc
 129              		@ args = 4, pretend = 0, frame = 0
 130              		@ frame_needed = 0, uses_anonymous_args = 0
 131              	.LVL11:
 132 0000 2DE9F84F 		push	{r3, r4, r5, r6, r7, r8, r9, sl, fp, lr}
 133              	.LCFI1:
 134              		.cfi_def_cfa_offset 40
 135              		.cfi_offset 14, -4
 136              		.cfi_offset 11, -8
 137              		.cfi_offset 10, -12
 138              		.cfi_offset 9, -16
 139              		.cfi_offset 8, -20
 140              		.cfi_offset 7, -24
 141              		.cfi_offset 6, -28
 142              		.cfi_offset 5, -32
 143              		.cfi_offset 4, -36
 144              		.cfi_offset 3, -40
 145              		.loc 1 157 0
 146 0004 9DF82840 		ldrb	r4, [sp, #40]	@ zero_extendqisi2
 147              		.loc 1 159 0
 148 0008 14F00106 		ands	r6, r4, #1
 149 000c 18BF     		it	ne
 150 000e 0426     		movne	r6, #4
 151              		.loc 1 157 0
 152 0010 0546     		mov	r5, r0
 153              		.loc 1 159 0
 154 0012 14F0020E 		ands	lr, r4, #2
 155              		.loc 1 161 0
 156 0016 4FF00400 		mov	r0, #4
 157              	.LVL12:
 158              		.loc 1 157 0
 159 001a 0F46     		mov	r7, r1
 160 001c 9046     		mov	r8, r2
 161 001e 9A46     		mov	sl, r3
 162              		.loc 1 159 0
 163 0020 0CBF     		ite	eq
 164 0022 F346     		moveq	fp, lr
 165 0024 4FF00C0B 		movne	fp, #12
 166              	.LVL13:
 167              		.loc 1 161 0
 168 0028 FFF7FEFF 		bl	memp_malloc
 169              	.LVL14:
ARM GAS  /var/folders/5n/p_75w94d66l9ssrldxqdhh700000gn/T//cc4n8EPc.s 			page 4


 170 002c 8146     		mov	r9, r0
 171 002e 0028     		cmp	r0, #0
 172 0030 4FD0     		beq	.L20
 173              		.loc 1 166 0
 174 0032 8472     		strb	r4, [r0, #10]
 175              		.loc 1 169 0
 176 0034 3B89     		ldrh	r3, [r7, #8]
 177              		.loc 1 168 0
 178 0036 4760     		str	r7, [r0, #4]
 179              		.loc 1 159 0
 180 0038 5E44     		add	r6, fp, r6
 181              	.LVL15:
 182              		.loc 1 169 0
 183 003a 9B1B     		subs	r3, r3, r6
 184              		.loc 1 167 0
 185 003c 0024     		movs	r4, #0
 186 003e 0460     		str	r4, [r0, #0]
 187              		.loc 1 169 0
 188 0040 0381     		strh	r3, [r0, #8]	@ movhi
 189              		.loc 1 182 0
 190 0042 1421     		movs	r1, #20
 191 0044 3846     		mov	r0, r7
 192              	.LVL16:
 193 0046 FFF7FEFF 		bl	pbuf_header
 194 004a 0746     		mov	r7, r0
 195              	.LVL17:
 196 004c 0028     		cmp	r0, #0
 197 004e 35D1     		bne	.L21
 198              		.loc 1 188 0
 199 0050 D9F80430 		ldr	r3, [r9, #4]
 200              		.loc 1 189 0
 201 0054 A88B     		ldrh	r0, [r5, #28]
 202              		.loc 1 188 0
 203 0056 5C68     		ldr	r4, [r3, #4]
 204 0058 C9F80C40 		str	r4, [r9, #12]
 205              		.loc 1 189 0
 206 005c FFF7FEFF 		bl	lwip_htons
 207 0060 C0F30F23 		ubfx	r3, r0, #8, #16
 208 0064 6370     		strb	r3, [r4, #1]
 209 0066 2070     		strb	r0, [r4, #0]
 210              		.loc 1 190 0
 211 0068 E88B     		ldrh	r0, [r5, #30]
 212 006a D9F80C40 		ldr	r4, [r9, #12]
 213 006e FFF7FEFF 		bl	lwip_htons
 214 0072 C0F30F23 		ubfx	r3, r0, #8, #16
 215 0076 A070     		strb	r0, [r4, #2]
 216 0078 E370     		strb	r3, [r4, #3]
 217              		.loc 1 191 0
 218 007a 5046     		mov	r0, sl
 219 007c D9F80C40 		ldr	r4, [r9, #12]
 220 0080 FFF7FEFF 		bl	lwip_htonl
 221              		.loc 1 193 0
 222 0084 B608     		lsrs	r6, r6, #2
 223              		.loc 1 191 0
 224 0086 030E     		lsrs	r3, r0, #24
 225 0088 C0F30721 		ubfx	r1, r0, #8, #8
 226 008c C0F30742 		ubfx	r2, r0, #16, #8
ARM GAS  /var/folders/5n/p_75w94d66l9ssrldxqdhh700000gn/T//cc4n8EPc.s 			page 5


 227              		.loc 1 193 0
 228 0090 0536     		adds	r6, r6, #5
 229              		.loc 1 191 0
 230 0092 2071     		strb	r0, [r4, #4]
 231 0094 E371     		strb	r3, [r4, #7]
 232 0096 6171     		strb	r1, [r4, #5]
 233 0098 A271     		strb	r2, [r4, #6]
 234              		.loc 1 193 0
 235 009a 48EA0630 		orr	r0, r8, r6, lsl #12
 236 009e D9F80C40 		ldr	r4, [r9, #12]
 237 00a2 FFF7FEFF 		bl	lwip_htons
 238 00a6 C0F30F23 		ubfx	r3, r0, #8, #16
 239 00aa 2073     		strb	r0, [r4, #12]
 240 00ac 6373     		strb	r3, [r4, #13]
 241              		.loc 1 195 0
 242 00ae D9F80C30 		ldr	r3, [r9, #12]
 243 00b2 9F74     		strb	r7, [r3, #18]
 244 00b4 DF74     		strb	r7, [r3, #19]
 245              	.LVL18:
 246              	.L16:
 247              		.loc 1 197 0
 248 00b6 4846     		mov	r0, r9
 249 00b8 BDE8F88F 		pop	{r3, r4, r5, r6, r7, r8, r9, sl, fp, pc}
 250              	.LVL19:
 251              	.L21:
 252              		.loc 1 184 0
 253 00bc 074B     		ldr	r3, .L22
 254 00be B3F8A420 		ldrh	r2, [r3, #164]
 255 00c2 0132     		adds	r2, r2, #1
 256              		.loc 1 185 0
 257 00c4 4846     		mov	r0, r9
 258              		.loc 1 184 0
 259 00c6 A3F8A420 		strh	r2, [r3, #164]	@ movhi
 260              		.loc 1 186 0
 261 00ca A146     		mov	r9, r4
 262              	.LVL20:
 263              		.loc 1 185 0
 264 00cc FFF7FEFF 		bl	tcp_seg_free
 265              	.LVL21:
 266              		.loc 1 186 0
 267 00d0 F1E7     		b	.L16
 268              	.LVL22:
 269              	.L20:
 270              		.loc 1 163 0
 271 00d2 3846     		mov	r0, r7
 272              	.LVL23:
 273 00d4 FFF7FEFF 		bl	pbuf_free
 274              		.loc 1 164 0
 275 00d8 EDE7     		b	.L16
 276              	.L23:
 277 00da 00BF     		.align	2
 278              	.L22:
 279 00dc 00000000 		.word	lwip_stats
 280              		.cfi_endproc
 281              	.LFE9:
 282              		.size	tcp_create_segment, .-tcp_create_segment
 283              		.section	.text.tcp_output_alloc_header.constprop.0,"ax",%progbits
ARM GAS  /var/folders/5n/p_75w94d66l9ssrldxqdhh700000gn/T//cc4n8EPc.s 			page 6


 284              		.align	2
 285              		.p2align 4,,15
 286              		.thumb
 287              		.thumb_func
 288              		.type	tcp_output_alloc_header.constprop.0, %function
 289              	tcp_output_alloc_header.constprop.0:
 290              	.LFB23:
 291              		.loc 1 92 0
 292              		.cfi_startproc
 293              		@ args = 0, pretend = 0, frame = 0
 294              		@ frame_needed = 0, uses_anonymous_args = 0
 295              	.LVL24:
 296              		.loc 1 96 0
 297 0000 1431     		adds	r1, r1, #20
 298              	.LVL25:
 299              		.loc 1 92 0
 300 0002 F8B5     		push	{r3, r4, r5, r6, r7, lr}
 301              	.LCFI2:
 302              		.cfi_def_cfa_offset 24
 303              		.cfi_offset 14, -4
 304              		.cfi_offset 7, -8
 305              		.cfi_offset 6, -12
 306              		.cfi_offset 5, -16
 307              		.cfi_offset 4, -20
 308              		.cfi_offset 3, -24
 309              		.loc 1 96 0
 310 0004 89B2     		uxth	r1, r1
 311              		.loc 1 92 0
 312 0006 0446     		mov	r4, r0
 313 0008 1546     		mov	r5, r2
 314              		.loc 1 96 0
 315 000a 0120     		movs	r0, #1
 316              	.LVL26:
 317 000c 0022     		movs	r2, #0
 318              	.LVL27:
 319 000e FFF7FEFF 		bl	pbuf_alloc
 320              	.LVL28:
 321              		.loc 1 97 0
 322 0012 0746     		mov	r7, r0
 323 0014 0028     		cmp	r0, #0
 324 0016 3FD0     		beq	.L25
 325              		.loc 1 98 0
 326 0018 4389     		ldrh	r3, [r0, #10]
 327 001a 132B     		cmp	r3, #19
 328 001c 3EDD     		ble	.L27
 329              	.LVL29:
 330              	.L26:
 331              		.loc 1 101 0
 332 001e A08B     		ldrh	r0, [r4, #28]
 333              		.loc 1 100 0
 334 0020 7E68     		ldr	r6, [r7, #4]
 335              	.LVL30:
 336              		.loc 1 101 0
 337 0022 FFF7FEFF 		bl	lwip_htons
 338              	.LVL31:
 339 0026 C0F30F23 		ubfx	r3, r0, #8, #16
 340 002a 7370     		strb	r3, [r6, #1]
ARM GAS  /var/folders/5n/p_75w94d66l9ssrldxqdhh700000gn/T//cc4n8EPc.s 			page 7


 341 002c 3070     		strb	r0, [r6, #0]
 342              		.loc 1 102 0
 343 002e E08B     		ldrh	r0, [r4, #30]
 344 0030 FFF7FEFF 		bl	lwip_htons
 345              		.loc 1 103 0
 346 0034 C5F30721 		ubfx	r1, r5, #8, #8
 347              		.loc 1 102 0
 348 0038 C0F30F2E 		ubfx	lr, r0, #8, #16
 349              		.loc 1 103 0
 350 003c C5F30742 		ubfx	r2, r5, #16, #8
 351 0040 2B0E     		lsrs	r3, r5, #24
 352              		.loc 1 102 0
 353 0042 86F803E0 		strb	lr, [r6, #3]
 354              		.loc 1 103 0
 355 0046 7171     		strb	r1, [r6, #5]
 356 0048 B271     		strb	r2, [r6, #6]
 357 004a F371     		strb	r3, [r6, #7]
 358              		.loc 1 102 0
 359 004c B070     		strb	r0, [r6, #2]
 360              		.loc 1 103 0
 361 004e 3571     		strb	r5, [r6, #4]
 362              		.loc 1 104 0
 363 0050 606A     		ldr	r0, [r4, #36]
 364 0052 FFF7FEFF 		bl	lwip_htonl
 365 0056 C0F30742 		ubfx	r2, r0, #16, #8
 366 005a C0F30721 		ubfx	r1, r0, #8, #8
 367 005e 030E     		lsrs	r3, r0, #24
 368 0060 B272     		strb	r2, [r6, #10]
 369 0062 3072     		strb	r0, [r6, #8]
 370 0064 7172     		strb	r1, [r6, #9]
 371 0066 F372     		strb	r3, [r6, #11]
 372              		.loc 1 105 0
 373 0068 45F21000 		movw	r0, #20496
 374 006c FFF7FEFF 		bl	lwip_htons
 375 0070 C0F30F23 		ubfx	r3, r0, #8, #16
 376 0074 7373     		strb	r3, [r6, #13]
 377 0076 3073     		strb	r0, [r6, #12]
 378              		.loc 1 106 0
 379 0078 608D     		ldrh	r0, [r4, #42]
 380 007a FFF7FEFF 		bl	lwip_htons
 381              		.loc 1 101 0
 382 007e 0023     		movs	r3, #0
 383              		.loc 1 106 0
 384 0080 C0F30F22 		ubfx	r2, r0, #8, #16
 385 0084 B073     		strb	r0, [r6, #14]
 386 0086 F273     		strb	r2, [r6, #15]
 387              		.loc 1 107 0
 388 0088 3374     		strb	r3, [r6, #16]
 389 008a 7374     		strb	r3, [r6, #17]
 390              		.loc 1 108 0
 391 008c B374     		strb	r3, [r6, #18]
 392 008e F374     		strb	r3, [r6, #19]
 393              		.loc 1 111 0
 394 0090 628D     		ldrh	r2, [r4, #42]
 395 0092 636A     		ldr	r3, [r4, #36]
 396 0094 D318     		adds	r3, r2, r3
 397 0096 E362     		str	r3, [r4, #44]
ARM GAS  /var/folders/5n/p_75w94d66l9ssrldxqdhh700000gn/T//cc4n8EPc.s 			page 8


 398              	.LVL32:
 399              	.L25:
 400              		.loc 1 114 0
 401 0098 3846     		mov	r0, r7
 402 009a F8BD     		pop	{r3, r4, r5, r6, r7, pc}
 403              	.L27:
 404              		.loc 1 98 0
 405 009c FFF7FEFF 		bl	port_halt
 406 00a0 BDE7     		b	.L26
 407              		.cfi_endproc
 408              	.LFE23:
 409              		.size	tcp_output_alloc_header.constprop.0, .-tcp_output_alloc_header.constprop.0
 410 00a2 00BFAFF3 		.section	.text.tcp_write,"ax",%progbits
 410      0080AFF3 
 410      0080AFF3 
 410      0080
 411              		.align	2
 412              		.p2align 4,,15
 413              		.global	tcp_write
 414              		.thumb
 415              		.thumb_func
 416              		.type	tcp_write, %function
 417              	tcp_write:
 418              	.LFB12:
 419              		.loc 1 352 0
 420              		.cfi_startproc
 421              		@ args = 0, pretend = 0, frame = 48
 422              		@ frame_needed = 0, uses_anonymous_args = 0
 423              	.LVL33:
 424 0000 2DE9F04F 		push	{r4, r5, r6, r7, r8, r9, sl, fp, lr}
 425              	.LCFI3:
 426              		.cfi_def_cfa_offset 36
 427              		.cfi_offset 14, -4
 428              		.cfi_offset 11, -8
 429              		.cfi_offset 10, -12
 430              		.cfi_offset 9, -16
 431              		.cfi_offset 8, -20
 432              		.cfi_offset 7, -24
 433              		.cfi_offset 6, -28
 434              		.cfi_offset 5, -32
 435              		.cfi_offset 4, -36
 436 0004 91B0     		sub	sp, sp, #68
 437              	.LCFI4:
 438              		.cfi_def_cfa_offset 104
 439              		.loc 1 352 0
 440 0006 0546     		mov	r5, r0
 441 0008 0B93     		str	r3, [sp, #44]
 442              		.loc 1 360 0
 443 000a 0023     		movs	r3, #0
 444              	.LVL34:
 445              		.loc 1 377 0
 446 000c 0891     		str	r1, [sp, #32]
 447              		.loc 1 352 0
 448 000e 9246     		mov	sl, r2
 449              		.loc 1 360 0
 450 0010 ADF83E30 		strh	r3, [sp, #62]	@ movhi
 451              	.LVL35:
ARM GAS  /var/folders/5n/p_75w94d66l9ssrldxqdhh700000gn/T//cc4n8EPc.s 			page 9


 452              		.loc 1 377 0
 453 0014 0029     		cmp	r1, #0
 454 0016 00F01D82 		beq	.L100
 455              	.LVL36:
 456              	.LBB9:
 457              	.LBB10:
 458              		.loc 1 294 0
 459 001a 037C     		ldrb	r3, [r0, #16]	@ zero_extendqisi2
 460 001c 072B     		cmp	r3, #7
 461 001e 18BF     		it	ne
 462 0020 042B     		cmpne	r3, #4
 463 0022 40F0D080 		bne	.L101
 464              	.LVL37:
 465              	.L31:
 466              		.loc 1 300 0
 467 0026 BAF1000F 		cmp	sl, #0
 468 002a 00F08C81 		beq	.L33
 469              		.loc 1 305 0
 470 002e B5F86E30 		ldrh	r3, [r5, #110]
 471 0032 5345     		cmp	r3, sl
 472 0034 C0F0C781 		bcc	.L99
 473              		.loc 1 317 0
 474 0038 B5F87030 		ldrh	r3, [r5, #112]
 475 003c 012B     		cmp	r3, #1
 476 003e 00F2BC81 		bhi	.L102
 477              		.loc 1 324 0
 478 0042 002B     		cmp	r3, #0
 479 0044 00F0CA80 		beq	.L36
 480              		.loc 1 325 0
 481 0048 AB6F     		ldr	r3, [r5, #120]
 482 004a 0127     		movs	r7, #1
 483 004c 002B     		cmp	r3, #0
 484 004e 00F0A881 		beq	.L103
 485              	.L37:
 486              	.LVL38:
 487              	.LBE10:
 488              	.LBE9:
 489              		.loc 1 417 0
 490 0052 6E6F     		ldr	r6, [r5, #116]
 491 0054 0A96     		str	r6, [sp, #40]
 492 0056 0A9A     		ldr	r2, [sp, #40]
 493              	.LVL39:
 494 0058 0EB9     		cbnz	r6, .L92
 495 005a CDE0     		b	.L40
 496              	.LVL40:
 497              	.L75:
 498              	.LBB16:
 499              		.loc 1 422 0
 500 005c 1A46     		mov	r2, r3
 501              	.LVL41:
 502              	.L92:
 503              		.loc 1 422 0 is_stmt 0 discriminator 1
 504 005e 1368     		ldr	r3, [r2, #0]
 505 0060 002B     		cmp	r3, #0
 506 0062 FBD1     		bne	.L75
 507              		.loc 1 426 0 is_stmt 1
 508 0064 937A     		ldrb	r3, [r2, #10]	@ zero_extendqisi2
ARM GAS  /var/folders/5n/p_75w94d66l9ssrldxqdhh700000gn/T//cc4n8EPc.s 			page 10


 509 0066 1089     		ldrh	r0, [r2, #8]
 510 0068 2E8F     		ldrh	r6, [r5, #56]
 511 006a 0A92     		str	r2, [sp, #40]
 512 006c 13F00101 		ands	r1, r3, #1
 513 0070 18BF     		it	ne
 514 0072 0421     		movne	r1, #4
 515 0074 361A     		subs	r6, r6, r0
 516 0076 13F00203 		ands	r3, r3, #2
 517              		.loc 1 442 0
 518 007a B5F87220 		ldrh	r2, [r5, #114]
 519              	.LVL42:
 520              		.loc 1 426 0
 521 007e 18BF     		it	ne
 522 0080 0C23     		movne	r3, #12
 523              	.LVL43:
 524              		.loc 1 427 0
 525 0082 761A     		subs	r6, r6, r1
 526 0084 F61A     		subs	r6, r6, r3
 527 0086 B6B2     		uxth	r6, r6
 528              	.LVL44:
 529              		.loc 1 442 0
 530 0088 ADF83E20 		strh	r2, [sp, #62]	@ movhi
 531              		.loc 1 355 0
 532 008c 1446     		mov	r4, r2
 533              		.loc 1 354 0
 534 008e 1346     		mov	r3, r2
 535              	.LVL45:
 536              		.loc 1 443 0
 537 0090 92B1     		cbz	r2, .L44
 538              	.LVL46:
 539              		.loc 1 446 0
 540 0092 9245     		cmp	sl, r2
 541 0094 34BF     		ite	cc
 542 0096 5446     		movcc	r4, sl
 543 0098 1446     		movcs	r4, r2
 544              	.LVL47:
 545              		.loc 1 448 0
 546 009a 121B     		subs	r2, r2, r4
 547 009c 92B2     		uxth	r2, r2
 548              	.LVL48:
 549              		.loc 1 449 0
 550 009e 361B     		subs	r6, r6, r4
 551              	.LVL49:
 552              		.loc 1 452 0
 553 00a0 002A     		cmp	r2, #0
 554 00a2 18BF     		it	ne
 555 00a4 A245     		cmpne	sl, r4
 556              	.LVL50:
 557              		.loc 1 448 0
 558 00a6 ADF83E20 		strh	r2, [sp, #62]	@ movhi
 559              		.loc 1 449 0
 560 00aa B6B2     		uxth	r6, r6
 561              	.LVL51:
 562              		.loc 1 452 0
 563 00ac 08BF     		it	eq
 564 00ae 0A9B     		ldreq	r3, [sp, #40]
 565 00b0 02D0     		beq	.L44
ARM GAS  /var/folders/5n/p_75w94d66l9ssrldxqdhh700000gn/T//cc4n8EPc.s 			page 11


 566              		.loc 1 452 0 is_stmt 0 discriminator 1
 567 00b2 FFF7FEFF 		bl	port_halt
 568              	.LVL52:
 569 00b6 0A9B     		ldr	r3, [sp, #40]
 570              	.LVL53:
 571              	.L44:
 572              		.loc 1 462 0 is_stmt 1
 573 00b8 002E     		cmp	r6, #0
 574 00ba 18BF     		it	ne
 575 00bc 5445     		cmpne	r4, sl
 576 00be 2CBF     		ite	cs
 577 00c0 0022     		movcs	r2, #0
 578 00c2 0122     		movcc	r2, #1
 579 00c4 04D2     		bcs	.L81
 580              		.loc 1 462 0 is_stmt 0 discriminator 1
 581 00c6 0A98     		ldr	r0, [sp, #40]
 582 00c8 0289     		ldrh	r2, [r0, #8]
 583 00ca 002A     		cmp	r2, #0
 584 00cc 40F04381 		bne	.L104
 585              	.L81:
 586              		.loc 1 462 0
 587 00d0 0D94     		str	r4, [sp, #52]
 588              		.loc 1 353 0 is_stmt 1
 589 00d2 0C92     		str	r2, [sp, #48]
 590              	.LVL54:
 591              	.L45:
 592              	.LBE16:
 593              		.loc 1 517 0 discriminator 1
 594 00d4 0026     		movs	r6, #0
 595 00d6 A245     		cmp	sl, r4
 596 00d8 0796     		str	r6, [sp, #28]
 597 00da 40F2A180 		bls	.L49
 598              		.loc 1 517 0 is_stmt 0
 599 00de 0B9E     		ldr	r6, [sp, #44]
 600 00e0 0597     		str	r7, [sp, #20]
 601 00e2 06F00106 		and	r6, r6, #1
 602 00e6 0996     		str	r6, [sp, #36]
 603 00e8 4FF0000B 		mov	fp, #0
 604 00ec 40E0     		b	.L59
 605              	.LVL55:
 606              	.L50:
 607              	.LBB19:
 608              	.LBB20:
 609              		.loc 1 545 0 is_stmt 1
 610 00ee BDF83E30 		ldrh	r3, [sp, #62]
 611              	.LVL56:
 612 00f2 002B     		cmp	r3, #0
 613 00f4 40F08A80 		bne	.L105
 614              	.LVL57:
 615              	.L54:
 616              		.loc 1 547 0
 617 00f8 0020     		movs	r0, #0
 618 00fa 3146     		mov	r1, r6
 619 00fc 0122     		movs	r2, #1
 620 00fe FFF7FEFF 		bl	pbuf_alloc
 621              	.LVL58:
 622 0102 8146     		mov	r9, r0
ARM GAS  /var/folders/5n/p_75w94d66l9ssrldxqdhh700000gn/T//cc4n8EPc.s 			page 12


 623 0104 0028     		cmp	r0, #0
 624 0106 00F0FE80 		beq	.L51
 625              		.loc 1 556 0
 626 010a 089F     		ldr	r7, [sp, #32]
 627              		.loc 1 559 0
 628 010c 0020     		movs	r0, #0
 629              	.LVL59:
 630              		.loc 1 556 0
 631 010e 3B19     		adds	r3, r7, r4
 632 0110 C9F80430 		str	r3, [r9, #4]
 633              		.loc 1 559 0
 634 0114 0146     		mov	r1, r0
 635 0116 0246     		mov	r2, r0
 636 0118 FFF7FEFF 		bl	pbuf_alloc
 637              	.LVL60:
 638 011c 8046     		mov	r8, r0
 639 011e 0028     		cmp	r0, #0
 640 0120 00F0EE80 		beq	.L106
 641              		.loc 1 567 0
 642 0124 4946     		mov	r1, r9
 643 0126 FFF7FEFF 		bl	pbuf_cat
 644              	.LVL61:
 645              	.L53:
 646              	.LBE20:
 647              		.loc 1 570 0
 648 012a 4046     		mov	r0, r8
 649 012c FFF7FEFF 		bl	pbuf_clen
 650 0130 0599     		ldr	r1, [sp, #20]
 651 0132 4718     		adds	r7, r0, r1
 652 0134 BFB2     		uxth	r7, r7
 653              		.loc 1 575 0
 654 0136 022F     		cmp	r7, #2
 655              		.loc 1 570 0
 656 0138 0597     		str	r7, [sp, #20]
 657              	.LVL62:
 658              		.loc 1 575 0
 659 013a 00F23A81 		bhi	.L107
 660              		.loc 1 581 0
 661 013e AB6E     		ldr	r3, [r5, #104]
 662 0140 0022     		movs	r2, #0
 663 0142 2846     		mov	r0, r5
 664 0144 4146     		mov	r1, r8
 665 0146 E318     		adds	r3, r4, r3
 666 0148 0092     		str	r2, [sp, #0]
 667 014a FFF7FEFF 		bl	tcp_create_segment
 668              	.LVL63:
 669 014e 0028     		cmp	r0, #0
 670 0150 00F0D980 		beq	.L51
 671              		.loc 1 594 0
 672 0154 079F     		ldr	r7, [sp, #28]
 673 0156 002F     		cmp	r7, #0
 674 0158 5BD0     		beq	.L84
 675              		.loc 1 598 0
 676 015a BBF1000F 		cmp	fp, #0
 677 015e 00F0F580 		beq	.L108
 678              	.LVL64:
 679              	.L58:
ARM GAS  /var/folders/5n/p_75w94d66l9ssrldxqdhh700000gn/T//cc4n8EPc.s 			page 13


 680              		.loc 1 608 0
 681 0162 3419     		adds	r4, r6, r4
 682              	.LVL65:
 683 0164 A4B2     		uxth	r4, r4
 684              	.LBE19:
 685              		.loc 1 517 0
 686 0166 A245     		cmp	sl, r4
 687              	.LBB23:
 688              		.loc 1 599 0
 689 0168 CBF80000 		str	r0, [fp, #0]
 690              	.LVL66:
 691              	.LBE23:
 692              		.loc 1 517 0
 693 016c 56D9     		bls	.L109
 694              	.LVL67:
 695              	.L85:
 696 016e 8346     		mov	fp, r0
 697              	.LVL68:
 698              	.L59:
 699              	.LBB24:
 700              		.loc 1 520 0
 701 0170 2A8F     		ldrh	r2, [r5, #56]
 702              	.LVL69:
 703              		.loc 1 527 0
 704 0172 099F     		ldr	r7, [sp, #36]
 705              		.loc 1 519 0
 706 0174 C4EB0A06 		rsb	r6, r4, sl
 707              		.loc 1 521 0
 708 0178 B6B2     		uxth	r6, r6
 709 017a 9642     		cmp	r6, r2
 710 017c 28BF     		it	cs
 711 017e 1646     		movcs	r6, r2
 712              	.LVL70:
 713              		.loc 1 527 0
 714 0180 002F     		cmp	r7, #0
 715 0182 B4D0     		beq	.L50
 716              		.loc 1 530 0
 717 0184 079F     		ldr	r7, [sp, #28]
 718 0186 0095     		str	r5, [sp, #0]
 719 0188 D7F1010E 		rsbs	lr, r7, #1
 720 018c 0B9F     		ldr	r7, [sp, #44]
 721 018e 38BF     		it	cc
 722 0190 4FF0000E 		movcc	lr, #0
 723 0194 3146     		mov	r1, r6
 724 0196 0020     		movs	r0, #0
 725 0198 0DF13E03 		add	r3, sp, #62
 726 019c 0197     		str	r7, [sp, #4]
 727 019e CDF808E0 		str	lr, [sp, #8]
 728 01a2 FFF7FEFF 		bl	tcp_pbuf_prealloc
 729              	.LVL71:
 730 01a6 8046     		mov	r8, r0
 731 01a8 0028     		cmp	r0, #0
 732 01aa 00F0AC80 		beq	.L51
 733              		.loc 1 534 0
 734 01ae 4389     		ldrh	r3, [r0, #10]
 735 01b0 B342     		cmp	r3, r6
 736 01b2 C0F0A280 		bcc	.L110
ARM GAS  /var/folders/5n/p_75w94d66l9ssrldxqdhh700000gn/T//cc4n8EPc.s 			page 14


 737              	.LVL72:
 738              	.L52:
 739              		.loc 1 536 0
 740 01b6 089F     		ldr	r7, [sp, #32]
 741 01b8 D8F80400 		ldr	r0, [r8, #4]
 742 01bc 3919     		adds	r1, r7, r4
 743 01be 3246     		mov	r2, r6
 744 01c0 FFF7FEFF 		bl	memcpy
 745 01c4 B1E7     		b	.L53
 746              	.LVL73:
 747              	.L101:
 748              	.LBE24:
 749              	.LBB25:
 750              	.LBB11:
 751              		.loc 1 295 0
 752 01c6 022B     		cmp	r3, #2
 753 01c8 3FF42DAF 		beq	.L31
 754              		.loc 1 299 0
 755 01cc F320     		movs	r0, #243
 756              		.loc 1 296 0
 757 01ce 032B     		cmp	r3, #3
 758 01d0 3FF429AF 		beq	.L31
 759              	.LVL74:
 760              	.L30:
 761              	.LBE11:
 762              	.LBE25:
 763              		.loc 1 702 0
 764 01d4 40B2     		sxtb	r0, r0
 765 01d6 11B0     		add	sp, sp, #68
 766 01d8 BDE8F08F 		pop	{r4, r5, r6, r7, r8, r9, sl, fp, pc}
 767              	.LVL75:
 768              	.L36:
 769              	.LBB26:
 770              	.LBB12:
 771              		.loc 1 328 0
 772 01dc AB6F     		ldr	r3, [r5, #120]
 773 01de 002B     		cmp	r3, #0
 774 01e0 00F0DA80 		beq	.L111
 775              	.L39:
 776 01e4 FFF7FEFF 		bl	port_halt
 777              	.LVL76:
 778              	.LBE12:
 779              	.LBE26:
 780              		.loc 1 417 0
 781 01e8 6E6F     		ldr	r6, [r5, #116]
 782              	.LBB27:
 783              	.LBB13:
 784              		.loc 1 328 0
 785 01ea B5F87070 		ldrh	r7, [r5, #112]
 786              	.LVL77:
 787              	.LBE13:
 788              	.LBE27:
 789              		.loc 1 417 0
 790 01ee 0A96     		str	r6, [sp, #40]
 791 01f0 0A9A     		ldr	r2, [sp, #40]
 792 01f2 002E     		cmp	r6, #0
 793 01f4 7FF433AF 		bne	.L92
ARM GAS  /var/folders/5n/p_75w94d66l9ssrldxqdhh700000gn/T//cc4n8EPc.s 			page 15


 794              	.LVL78:
 795              	.L40:
 796              		.loc 1 506 0
 797 01f8 B5F87230 		ldrh	r3, [r5, #114]
 798 01fc 002B     		cmp	r3, #0
 799 01fe 40F00F81 		bne	.L112
 800              		.loc 1 361 0
 801 0202 0D93     		str	r3, [sp, #52]
 802              		.loc 1 355 0
 803 0204 1C46     		mov	r4, r3
 804              		.loc 1 354 0
 805 0206 0A93     		str	r3, [sp, #40]
 806              		.loc 1 353 0
 807 0208 0C93     		str	r3, [sp, #48]
 808 020a 63E7     		b	.L45
 809              	.LVL79:
 810              	.L105:
 811              	.LBB28:
 812              	.LBB21:
 813              		.loc 1 545 0 discriminator 1
 814 020c FFF7FEFF 		bl	port_halt
 815              	.LVL80:
 816 0210 72E7     		b	.L54
 817              	.LVL81:
 818              	.L84:
 819              	.LBE21:
 820              		.loc 1 608 0
 821 0212 3419     		adds	r4, r6, r4
 822              	.LVL82:
 823 0214 A4B2     		uxth	r4, r4
 824              	.LBE28:
 825              		.loc 1 517 0
 826 0216 A245     		cmp	sl, r4
 827              	.LBB29:
 828              		.loc 1 594 0
 829 0218 0790     		str	r0, [sp, #28]
 830              	.LVL83:
 831              	.LBE29:
 832              		.loc 1 517 0
 833 021a A8D8     		bhi	.L85
 834              	.LVL84:
 835              	.L109:
 836 021c 059F     		ldr	r7, [sp, #20]
 837 021e 0346     		mov	r3, r0
 838              	.LVL85:
 839              	.L49:
 840              		.loc 1 621 0
 841 0220 0D9E     		ldr	r6, [sp, #52]
 842 0222 06B3     		cbz	r6, .L60
 843              	.LBB30:
 844              		.loc 1 624 0
 845 0224 0A9E     		ldr	r6, [sp, #40]
 846 0226 7468     		ldr	r4, [r6, #4]
 847              	.LVL86:
 848 0228 BCB1     		cbz	r4, .L61
 849 022a 0D9E     		ldr	r6, [sp, #52]
 850 022c 9846     		mov	r8, r3
ARM GAS  /var/folders/5n/p_75w94d66l9ssrldxqdhh700000gn/T//cc4n8EPc.s 			page 16


 851 022e 00E0     		b	.L93
 852              	.LVL87:
 853              	.L63:
 854              	.LBE30:
 855              		.loc 1 517 0
 856 0230 1C46     		mov	r4, r3
 857              	.L93:
 858              	.LBB31:
 859              		.loc 1 625 0
 860 0232 2289     		ldrh	r2, [r4, #8]
 861              		.loc 1 626 0
 862 0234 2368     		ldr	r3, [r4, #0]
 863              		.loc 1 625 0
 864 0236 B218     		adds	r2, r6, r2
 865 0238 2281     		strh	r2, [r4, #8]	@ movhi
 866              		.loc 1 626 0
 867 023a 002B     		cmp	r3, #0
 868 023c F8D1     		bne	.L63
 869              		.loc 1 627 0
 870 023e 6389     		ldrh	r3, [r4, #10]
 871 0240 6068     		ldr	r0, [r4, #4]
 872 0242 0899     		ldr	r1, [sp, #32]
 873 0244 C018     		adds	r0, r0, r3
 874 0246 3246     		mov	r2, r6
 875 0248 FFF7FEFF 		bl	memcpy
 876              		.loc 1 628 0
 877 024c 6289     		ldrh	r2, [r4, #10]
 878              		.loc 1 624 0
 879 024e 2368     		ldr	r3, [r4, #0]
 880              	.LVL88:
 881              		.loc 1 628 0
 882 0250 B218     		adds	r2, r6, r2
 883 0252 6281     		strh	r2, [r4, #10]	@ movhi
 884              		.loc 1 624 0
 885 0254 002B     		cmp	r3, #0
 886 0256 EBD1     		bne	.L63
 887 0258 4346     		mov	r3, r8
 888              	.LVL89:
 889              	.L61:
 890              		.loc 1 631 0
 891 025a 0A9E     		ldr	r6, [sp, #40]
 892 025c 3289     		ldrh	r2, [r6, #8]
 893 025e 0D9E     		ldr	r6, [sp, #52]
 894 0260 B218     		adds	r2, r6, r2
 895 0262 0A9E     		ldr	r6, [sp, #40]
 896 0264 3281     		strh	r2, [r6, #8]	@ movhi
 897              	.L60:
 898              	.LBE31:
 899              		.loc 1 636 0
 900 0266 BDF83E20 		ldrh	r2, [sp, #62]
 901              		.loc 1 642 0
 902 026a 0C9E     		ldr	r6, [sp, #48]
 903              		.loc 1 636 0
 904 026c A5F87220 		strh	r2, [r5, #114]	@ movhi
 905              		.loc 1 642 0
 906 0270 86B1     		cbz	r6, .L64
 907              		.loc 1 643 0
ARM GAS  /var/folders/5n/p_75w94d66l9ssrldxqdhh700000gn/T//cc4n8EPc.s 			page 17


 908 0272 0A9E     		ldr	r6, [sp, #40]
 909 0274 002E     		cmp	r6, #0
 910 0276 00F0E880 		beq	.L113
 911              	.LVL90:
 912              	.L65:
 913              		.loc 1 645 0
 914 027a 0A9E     		ldr	r6, [sp, #40]
 915 027c 0C99     		ldr	r1, [sp, #48]
 916 027e 7068     		ldr	r0, [r6, #4]
 917 0280 0693     		str	r3, [sp, #24]
 918 0282 FFF7FEFF 		bl	pbuf_cat
 919              		.loc 1 646 0
 920 0286 0C9E     		ldr	r6, [sp, #48]
 921 0288 069B     		ldr	r3, [sp, #24]
 922 028a 3189     		ldrh	r1, [r6, #8]
 923 028c 0A9E     		ldr	r6, [sp, #40]
 924 028e 3289     		ldrh	r2, [r6, #8]
 925 0290 8A18     		adds	r2, r1, r2
 926 0292 3281     		strh	r2, [r6, #8]	@ movhi
 927              	.L64:
 928              		.loc 1 660 0
 929 0294 0A9E     		ldr	r6, [sp, #40]
 930 0296 002E     		cmp	r6, #0
 931 0298 00F0CB80 		beq	.L114
 932              		.loc 1 663 0
 933 029c 079E     		ldr	r6, [sp, #28]
 934 029e 0A98     		ldr	r0, [sp, #40]
 935 02a0 0660     		str	r6, [r0, #0]
 936              	.L67:
 937              		.loc 1 669 0
 938 02a2 AA6E     		ldr	r2, [r5, #104]
 939              		.loc 1 670 0
 940 02a4 B5F86E10 		ldrh	r1, [r5, #110]
 941              		.loc 1 671 0
 942 02a8 A5F87070 		strh	r7, [r5, #112]	@ movhi
 943              		.loc 1 669 0
 944 02ac 5244     		add	r2, r2, sl
 945              		.loc 1 670 0
 946 02ae CAEB010A 		rsb	sl, sl, r1
 947              	.LVL91:
 948              		.loc 1 669 0
 949 02b2 AA66     		str	r2, [r5, #104]
 950              		.loc 1 670 0
 951 02b4 A5F86EA0 		strh	sl, [r5, #110]	@ movhi
 952              		.loc 1 675 0
 953 02b8 1FB1     		cbz	r7, .L68
 954              		.loc 1 676 0
 955 02ba AA6F     		ldr	r2, [r5, #120]
 956 02bc 002A     		cmp	r2, #0
 957 02be 00F0BB80 		beq	.L115
 958              	.L68:
 959              		.loc 1 685 0
 960 02c2 1846     		mov	r0, r3
 961              		.loc 1 681 0
 962 02c4 002B     		cmp	r3, #0
 963 02c6 85D0     		beq	.L30
 964              		.loc 1 681 0 is_stmt 0 discriminator 1
ARM GAS  /var/folders/5n/p_75w94d66l9ssrldxqdhh700000gn/T//cc4n8EPc.s 			page 18


 965 02c8 DC68     		ldr	r4, [r3, #12]
 966              		.loc 1 685 0 is_stmt 1 discriminator 1
 967 02ca 2046     		mov	r0, r4
 968              		.loc 1 681 0 discriminator 1
 969 02cc 002C     		cmp	r4, #0
 970 02ce 81D0     		beq	.L30
 971 02d0 0B9E     		ldr	r6, [sp, #44]
 972              		.loc 1 685 0 discriminator 1
 973 02d2 0020     		movs	r0, #0
 974              		.loc 1 681 0 discriminator 1
 975 02d4 16F00205 		ands	r5, r6, #2
 976              	.LVL92:
 977 02d8 7FF47CAF 		bne	.L30
 978              		.loc 1 682 0
 979 02dc 237B     		ldrb	r3, [r4, #12]	@ zero_extendqisi2
 980 02de 667B     		ldrb	r6, [r4, #13]	@ zero_extendqisi2
 981 02e0 0820     		movs	r0, #8
 982 02e2 43EA0626 		orr	r6, r3, r6, lsl #8
 983 02e6 FFF7FEFF 		bl	lwip_htons
 984 02ea 40EA0603 		orr	r3, r0, r6
 985 02ee 9BB2     		uxth	r3, r3
 986 02f0 1A0A     		lsrs	r2, r3, #8
 987 02f2 2373     		strb	r3, [r4, #12]
 988 02f4 6273     		strb	r2, [r4, #13]
 989              		.loc 1 685 0
 990 02f6 2846     		mov	r0, r5
 991 02f8 6CE7     		b	.L30
 992              	.LVL93:
 993              	.L110:
 994              	.LBB32:
 995              		.loc 1 534 0 discriminator 1
 996 02fa FFF7FEFF 		bl	port_halt
 997              	.LVL94:
 998 02fe 5AE7     		b	.L52
 999              	.LVL95:
 1000              	.L106:
 1001              	.LBB22:
 1002              		.loc 1 562 0
 1003 0300 4846     		mov	r0, r9
 1004              	.LVL96:
 1005 0302 FFF7FEFF 		bl	pbuf_free
 1006              	.LVL97:
 1007              	.L51:
 1008              	.LBE22:
 1009              	.LBE32:
 1010              		.loc 1 687 0
 1011 0306 95F82020 		ldrb	r2, [r5, #32]	@ zero_extendqisi2
 1012              		.loc 1 688 0
 1013 030a 544B     		ldr	r3, .L117
 1014              		.loc 1 690 0
 1015 030c 0C9F     		ldr	r7, [sp, #48]
 1016              		.loc 1 687 0
 1017 030e 62F07F02 		orn	r2, r2, #127
 1018 0312 85F82020 		strb	r2, [r5, #32]
 1019              		.loc 1 688 0
 1020 0316 B3F89C20 		ldrh	r2, [r3, #156]
 1021 031a 0132     		adds	r2, r2, #1
ARM GAS  /var/folders/5n/p_75w94d66l9ssrldxqdhh700000gn/T//cc4n8EPc.s 			page 19


 1022 031c A3F89C20 		strh	r2, [r3, #156]	@ movhi
 1023              		.loc 1 690 0
 1024 0320 17B1     		cbz	r7, .L69
 1025              		.loc 1 691 0
 1026 0322 3846     		mov	r0, r7
 1027 0324 FFF7FEFF 		bl	pbuf_free
 1028              	.L69:
 1029              		.loc 1 693 0
 1030 0328 079E     		ldr	r6, [sp, #28]
 1031              	.LVL98:
 1032 032a 16B1     		cbz	r6, .L70
 1033              		.loc 1 694 0
 1034 032c 3046     		mov	r0, r6
 1035 032e FFF7FEFF 		bl	tcp_segs_free
 1036              	.LVL99:
 1037              	.L70:
 1038              		.loc 1 696 0
 1039 0332 B5F87030 		ldrh	r3, [r5, #112]
 1040 0336 23B1     		cbz	r3, .L91
 1041              		.loc 1 697 0
 1042 0338 AB6F     		ldr	r3, [r5, #120]
 1043 033a 13B9     		cbnz	r3, .L91
 1044              		.loc 1 697 0 is_stmt 0 discriminator 1
 1045 033c 6B6F     		ldr	r3, [r5, #116]
 1046 033e 002B     		cmp	r3, #0
 1047 0340 5DD0     		beq	.L116
 1048              	.L91:
 1049              		.loc 1 701 0 is_stmt 1
 1050 0342 FF20     		movs	r0, #255
 1051 0344 46E7     		b	.L30
 1052              	.LVL100:
 1053              	.L33:
 1054              		.loc 1 697 0
 1055 0346 B5F87070 		ldrh	r7, [r5, #112]
 1056 034a 82E6     		b	.L37
 1057              	.LVL101:
 1058              	.L108:
 1059              	.LBB33:
 1060              		.loc 1 598 0 discriminator 1
 1061 034c 0690     		str	r0, [sp, #24]
 1062 034e FFF7FEFF 		bl	port_halt
 1063              	.LVL102:
 1064 0352 0698     		ldr	r0, [sp, #24]
 1065 0354 05E7     		b	.L58
 1066              	.LVL103:
 1067              	.L104:
 1068              	.LBE33:
 1069              	.LBB34:
 1070              	.LBB17:
 1071              		.loc 1 469 0
 1072 0356 0B99     		ldr	r1, [sp, #44]
 1073              		.loc 1 463 0
 1074 0358 C4EB0A08 		rsb	r8, r4, sl
 1075 035c B045     		cmp	r8, r6
 1076 035e A8BF     		it	ge
 1077 0360 B046     		movge	r8, r6
 1078 0362 1FFA88F8 		uxth	r8, r8
ARM GAS  /var/folders/5n/p_75w94d66l9ssrldxqdhh700000gn/T//cc4n8EPc.s 			page 20


 1079              	.LVL104:
 1080              		.loc 1 471 0
 1081 0366 0320     		movs	r0, #3
 1082              		.loc 1 469 0
 1083 0368 11F0010F 		tst	r1, #1
 1084              		.loc 1 471 0
 1085 036c 4146     		mov	r1, r8
 1086              		.loc 1 469 0
 1087 036e 32D0     		beq	.L46
 1088              		.loc 1 471 0
 1089 0370 3246     		mov	r2, r6
 1090 0372 0B9E     		ldr	r6, [sp, #44]
 1091 0374 0095     		str	r5, [sp, #0]
 1092 0376 0196     		str	r6, [sp, #4]
 1093 0378 0DF13E03 		add	r3, sp, #62
 1094 037c 0126     		movs	r6, #1
 1095 037e 0296     		str	r6, [sp, #8]
 1096 0380 FFF7FEFF 		bl	tcp_pbuf_prealloc
 1097              	.LVL105:
 1098 0384 0C90     		str	r0, [sp, #48]
 1099 0386 0028     		cmp	r0, #0
 1100 0388 3DD0     		beq	.L47
 1101              		.loc 1 480 0
 1102 038a 089E     		ldr	r6, [sp, #32]
 1103 038c 4068     		ldr	r0, [r0, #4]
 1104              	.LVL106:
 1105 038e 3119     		adds	r1, r6, r4
 1106 0390 4246     		mov	r2, r8
 1107 0392 FFF7FEFF 		bl	memcpy
 1108 0396 26E0     		b	.L48
 1109              	.LVL107:
 1110              	.L111:
 1111              	.LBE17:
 1112              	.LBE34:
 1113              	.LBB35:
 1114              	.LBB14:
 1115              		.loc 1 328 0
 1116 0398 6F6F     		ldr	r7, [r5, #116]
 1117 039a 002F     		cmp	r7, #0
 1118 039c 7FF422AF 		bne	.L39
 1119 03a0 2AE7     		b	.L40
 1120              	.L103:
 1121              		.loc 1 325 0
 1122 03a2 6E6F     		ldr	r6, [r5, #116]
 1123 03a4 0A96     		str	r6, [sp, #40]
 1124 03a6 002E     		cmp	r6, #0
 1125 03a8 3FF41CAF 		beq	.L39
 1126 03ac 0127     		movs	r7, #1
 1127 03ae 0A9A     		ldr	r2, [sp, #40]
 1128              	.LVL108:
 1129 03b0 55E6     		b	.L92
 1130              	.LVL109:
 1131              	.L107:
 1132              	.LBE14:
 1133              	.LBE35:
 1134              	.LBB36:
 1135              		.loc 1 577 0
ARM GAS  /var/folders/5n/p_75w94d66l9ssrldxqdhh700000gn/T//cc4n8EPc.s 			page 21


 1136 03b2 4046     		mov	r0, r8
 1137 03b4 FFF7FEFF 		bl	pbuf_free
 1138              		.loc 1 578 0
 1139 03b8 A5E7     		b	.L51
 1140              	.LVL110:
 1141              	.L102:
 1142              	.LBE36:
 1143              	.LBB37:
 1144              	.LBB15:
 1145              		.loc 1 320 0
 1146 03ba 284B     		ldr	r3, .L117
 1147 03bc B3F89C20 		ldrh	r2, [r3, #156]
 1148              	.LVL111:
 1149 03c0 0132     		adds	r2, r2, #1
 1150 03c2 A3F89C20 		strh	r2, [r3, #156]	@ movhi
 1151              	.L99:
 1152              		.loc 1 321 0
 1153 03c6 95F82030 		ldrb	r3, [r5, #32]	@ zero_extendqisi2
 1154 03ca 63F07F03 		orn	r3, r3, #127
 1155 03ce 85F82030 		strb	r3, [r5, #32]
 1156              		.loc 1 322 0
 1157 03d2 FF20     		movs	r0, #255
 1158 03d4 FEE6     		b	.L30
 1159              	.LVL112:
 1160              	.L46:
 1161              	.LBE15:
 1162              	.LBE37:
 1163              	.LBB38:
 1164              	.LBB18:
 1165              		.loc 1 486 0
 1166 03d6 0122     		movs	r2, #1
 1167 03d8 FFF7FEFF 		bl	pbuf_alloc
 1168              	.LVL113:
 1169 03dc 0C90     		str	r0, [sp, #48]
 1170 03de 90B1     		cbz	r0, .L47
 1171              		.loc 1 498 0
 1172 03e0 089E     		ldr	r6, [sp, #32]
 1173 03e2 3319     		adds	r3, r6, r4
 1174 03e4 4360     		str	r3, [r0, #4]
 1175              	.LVL114:
 1176              	.L48:
 1177              		.loc 1 502 0
 1178 03e6 0C98     		ldr	r0, [sp, #48]
 1179 03e8 FFF7FEFF 		bl	pbuf_clen
 1180              		.loc 1 501 0
 1181 03ec 08EB0406 		add	r6, r8, r4
 1182 03f0 B6B2     		uxth	r6, r6
 1183              	.LVL115:
 1184              		.loc 1 502 0
 1185 03f2 C719     		adds	r7, r0, r7
 1186 03f4 0D94     		str	r4, [sp, #52]
 1187 03f6 BFB2     		uxth	r7, r7
 1188              	.LVL116:
 1189              		.loc 1 501 0
 1190 03f8 3446     		mov	r4, r6
 1191              		.loc 1 502 0
 1192 03fa 0A9B     		ldr	r3, [sp, #40]
ARM GAS  /var/folders/5n/p_75w94d66l9ssrldxqdhh700000gn/T//cc4n8EPc.s 			page 22


 1193 03fc 6AE6     		b	.L45
 1194              	.LVL117:
 1195              	.L116:
 1196              	.LBE18:
 1197              	.LBE38:
 1198              		.loc 1 697 0 discriminator 2
 1199 03fe FFF7FEFF 		bl	port_halt
 1200              		.loc 1 701 0 discriminator 2
 1201 0402 FF20     		movs	r0, #255
 1202 0404 E6E6     		b	.L30
 1203              	.LVL118:
 1204              	.L47:
 1205              		.loc 1 687 0
 1206 0406 95F82020 		ldrb	r2, [r5, #32]	@ zero_extendqisi2
 1207              		.loc 1 688 0
 1208 040a 144B     		ldr	r3, .L117
 1209              		.loc 1 687 0
 1210 040c 62F07F02 		orn	r2, r2, #127
 1211 0410 85F82020 		strb	r2, [r5, #32]
 1212              		.loc 1 688 0
 1213 0414 B3F89C20 		ldrh	r2, [r3, #156]
 1214 0418 0132     		adds	r2, r2, #1
 1215 041a A3F89C20 		strh	r2, [r3, #156]	@ movhi
 1216 041e 88E7     		b	.L70
 1217              	.LVL119:
 1218              	.L112:
 1219              		.loc 1 361 0 discriminator 1
 1220 0420 0026     		movs	r6, #0
 1221 0422 0D96     		str	r6, [sp, #52]
 1222              		.loc 1 506 0 discriminator 1
 1223 0424 FFF7FEFF 		bl	port_halt
 1224              		.loc 1 355 0 discriminator 1
 1225 0428 0D9C     		ldr	r4, [sp, #52]
 1226              		.loc 1 354 0 discriminator 1
 1227 042a 0A96     		str	r6, [sp, #40]
 1228 042c 2346     		mov	r3, r4
 1229              		.loc 1 353 0 discriminator 1
 1230 042e 0C94     		str	r4, [sp, #48]
 1231 0430 50E6     		b	.L45
 1232              	.LVL120:
 1233              	.L114:
 1234              		.loc 1 661 0
 1235 0432 079E     		ldr	r6, [sp, #28]
 1236 0434 6E67     		str	r6, [r5, #116]
 1237 0436 34E7     		b	.L67
 1238              	.LVL121:
 1239              	.L115:
 1240              		.loc 1 676 0 discriminator 1
 1241 0438 6A6F     		ldr	r2, [r5, #116]
 1242 043a 002A     		cmp	r2, #0
 1243 043c 7FF441AF 		bne	.L68
 1244              		.loc 1 676 0 is_stmt 0 discriminator 2
 1245 0440 0693     		str	r3, [sp, #24]
 1246 0442 FFF7FEFF 		bl	port_halt
 1247 0446 069B     		ldr	r3, [sp, #24]
 1248 0448 3BE7     		b	.L68
 1249              	.LVL122:
ARM GAS  /var/folders/5n/p_75w94d66l9ssrldxqdhh700000gn/T//cc4n8EPc.s 			page 23


 1250              	.L113:
 1251              		.loc 1 643 0 is_stmt 1 discriminator 1
 1252 044a 0693     		str	r3, [sp, #24]
 1253 044c FFF7FEFF 		bl	port_halt
 1254              	.LVL123:
 1255 0450 069B     		ldr	r3, [sp, #24]
 1256 0452 12E7     		b	.L65
 1257              	.LVL124:
 1258              	.L100:
 1259              		.loc 1 377 0 discriminator 1
 1260 0454 FFF7FEFF 		bl	port_halt
 1261              	.LVL125:
 1262 0458 F220     		movs	r0, #242
 1263 045a BBE6     		b	.L30
 1264              	.L118:
 1265              		.align	2
 1266              	.L117:
 1267 045c 00000000 		.word	lwip_stats
 1268              		.cfi_endproc
 1269              	.LFE12:
 1270              		.size	tcp_write, .-tcp_write
 1271              		.section	.text.tcp_enqueue_flags,"ax",%progbits
 1272              		.align	2
 1273              		.p2align 4,,15
 1274              		.global	tcp_enqueue_flags
 1275              		.thumb
 1276              		.thumb_func
 1277              		.type	tcp_enqueue_flags, %function
 1278              	tcp_enqueue_flags:
 1279              	.LFB13:
 1280              		.loc 1 716 0
 1281              		.cfi_startproc
 1282              		@ args = 0, pretend = 0, frame = 8
 1283              		@ frame_needed = 0, uses_anonymous_args = 0
 1284              	.LVL126:
 1285 0000 2DE9F041 		push	{r4, r5, r6, r7, r8, lr}
 1286              	.LCFI5:
 1287              		.cfi_def_cfa_offset 24
 1288              		.cfi_offset 14, -4
 1289              		.cfi_offset 8, -8
 1290              		.cfi_offset 7, -12
 1291              		.cfi_offset 6, -16
 1292              		.cfi_offset 5, -20
 1293              		.cfi_offset 4, -24
 1294 0004 0446     		mov	r4, r0
 1295              		.loc 1 724 0
 1296 0006 8807     		lsls	r0, r1, #30
 1297              	.LVL127:
 1298              		.loc 1 716 0
 1299 0008 84B0     		sub	sp, sp, #16
 1300              	.LCFI6:
 1301              		.cfi_def_cfa_offset 40
 1302              		.loc 1 716 0
 1303 000a 0D46     		mov	r5, r1
 1304              		.loc 1 724 0
 1305 000c 65D0     		beq	.L144
 1306              		.loc 1 728 0
ARM GAS  /var/folders/5n/p_75w94d66l9ssrldxqdhh700000gn/T//cc4n8EPc.s 			page 24


 1307 000e B4F87030 		ldrh	r3, [r4, #112]
 1308 0012 012B     		cmp	r3, #1
 1309 0014 67D8     		bhi	.L145
 1310              	.LVL128:
 1311              	.L121:
 1312              		.loc 1 736 0
 1313 0016 05F00206 		and	r6, r5, #2
 1314              		.loc 1 750 0
 1315 001a B4F86E30 		ldrh	r3, [r4, #110]
 1316              		.loc 1 737 0
 1317 001e 002E     		cmp	r6, #0
 1318 0020 0CBF     		ite	eq
 1319 0022 B046     		moveq	r8, r6
 1320 0024 4FF00108 		movne	r8, #1
 1321 0028 0CBF     		ite	eq
 1322 002a 3746     		moveq	r7, r6
 1323 002c 0427     		movne	r7, #4
 1324              	.LVL129:
 1325              		.loc 1 750 0
 1326 002e 002B     		cmp	r3, #0
 1327 0030 7DD0     		beq	.L146
 1328              		.loc 1 757 0
 1329 0032 0020     		movs	r0, #0
 1330 0034 3946     		mov	r1, r7
 1331 0036 0246     		mov	r2, r0
 1332 0038 FFF7FEFF 		bl	pbuf_alloc
 1333              	.LVL130:
 1334 003c 0146     		mov	r1, r0
 1335 003e 0028     		cmp	r0, #0
 1336 0040 7DD0     		beq	.L143
 1337              		.loc 1 762 0
 1338 0042 4389     		ldrh	r3, [r0, #10]
 1339 0044 BB42     		cmp	r3, r7
 1340 0046 5CD3     		bcc	.L147
 1341              	.LVL131:
 1342              	.L126:
 1343              		.loc 1 766 0
 1344 0048 A36E     		ldr	r3, [r4, #104]
 1345 004a CDF80080 		str	r8, [sp, #0]
 1346 004e 2046     		mov	r0, r4
 1347 0050 2A46     		mov	r2, r5
 1348 0052 FFF7FEFF 		bl	tcp_create_segment
 1349              	.LVL132:
 1350 0056 0746     		mov	r7, r0
 1351              	.LVL133:
 1352 0058 0028     		cmp	r0, #0
 1353 005a 70D0     		beq	.L143
 1354              		.loc 1 771 0
 1355 005c C368     		ldr	r3, [r0, #12]
 1356 005e 9907     		lsls	r1, r3, #30
 1357 0060 5BD1     		bne	.L148
 1358              	.LVL134:
 1359              	.L128:
 1360              		.loc 1 772 0
 1361 0062 3B89     		ldrh	r3, [r7, #8]
 1362 0064 002B     		cmp	r3, #0
 1363 0066 51D1     		bne	.L149
ARM GAS  /var/folders/5n/p_75w94d66l9ssrldxqdhh700000gn/T//cc4n8EPc.s 			page 25


 1364              		.loc 1 781 0
 1365 0068 626F     		ldr	r2, [r4, #116]
 1366 006a 0AB9     		cbnz	r2, .L142
 1367 006c 53E0     		b	.L150
 1368              	.LVL135:
 1369              	.L138:
 1370              	.LBB39:
 1371              		.loc 1 785 0
 1372 006e 1A46     		mov	r2, r3
 1373              	.LVL136:
 1374              	.L142:
 1375              		.loc 1 785 0 is_stmt 0 discriminator 1
 1376 0070 1368     		ldr	r3, [r2, #0]
 1377 0072 002B     		cmp	r3, #0
 1378 0074 FBD1     		bne	.L138
 1379              		.loc 1 786 0 is_stmt 1
 1380 0076 1760     		str	r7, [r2, #0]
 1381              	.LVL137:
 1382              	.L131:
 1383              	.LBE39:
 1384              		.loc 1 790 0
 1385 0078 0023     		movs	r3, #0
 1386 007a A4F87230 		strh	r3, [r4, #114]	@ movhi
 1387              		.loc 1 794 0
 1388 007e 0EB3     		cbz	r6, .L133
 1389              		.loc 1 795 0
 1390 0080 A26E     		ldr	r2, [r4, #104]
 1391              		.loc 1 797 0
 1392 0082 B4F86E30 		ldrh	r3, [r4, #110]
 1393              		.loc 1 795 0
 1394 0086 0132     		adds	r2, r2, #1
 1395              		.loc 1 797 0
 1396 0088 013B     		subs	r3, r3, #1
 1397              		.loc 1 795 0
 1398 008a A266     		str	r2, [r4, #104]
 1399              		.loc 1 799 0
 1400 008c EA07     		lsls	r2, r5, #31
 1401              		.loc 1 797 0
 1402 008e A4F86E30 		strh	r3, [r4, #110]	@ movhi
 1403              		.loc 1 799 0
 1404 0092 05D5     		bpl	.L135
 1405              	.L134:
 1406              		.loc 1 800 0
 1407 0094 94F82030 		ldrb	r3, [r4, #32]	@ zero_extendqisi2
 1408 0098 43F02003 		orr	r3, r3, #32
 1409 009c 84F82030 		strb	r3, [r4, #32]
 1410              	.L135:
 1411              		.loc 1 804 0
 1412 00a0 7868     		ldr	r0, [r7, #4]
 1413 00a2 B4F87050 		ldrh	r5, [r4, #112]
 1414 00a6 FFF7FEFF 		bl	pbuf_clen
 1415 00aa 4519     		adds	r5, r0, r5
 1416 00ac ADB2     		uxth	r5, r5
 1417 00ae A4F87050 		strh	r5, [r4, #112]	@ movhi
 1418              		.loc 1 806 0
 1419 00b2 1DB1     		cbz	r5, .L122
 1420              		.loc 1 807 0
ARM GAS  /var/folders/5n/p_75w94d66l9ssrldxqdhh700000gn/T//cc4n8EPc.s 			page 26


 1421 00b4 A56F     		ldr	r5, [r4, #120]
 1422 00b6 002D     		cmp	r5, #0
 1423 00b8 32D0     		beq	.L151
 1424              		.loc 1 811 0
 1425 00ba 0025     		movs	r5, #0
 1426              	.LVL138:
 1427              	.L122:
 1428              		.loc 1 812 0
 1429 00bc 68B2     		sxtb	r0, r5
 1430 00be 04B0     		add	sp, sp, #16
 1431 00c0 BDE8F081 		pop	{r4, r5, r6, r7, r8, pc}
 1432              	.LVL139:
 1433              	.L133:
 1434              		.loc 1 794 0 discriminator 1
 1435 00c4 EB07     		lsls	r3, r5, #31
 1436 00c6 EBD5     		bpl	.L135
 1437              		.loc 1 795 0
 1438 00c8 A26E     		ldr	r2, [r4, #104]
 1439              		.loc 1 797 0
 1440 00ca B4F86E30 		ldrh	r3, [r4, #110]
 1441              		.loc 1 795 0
 1442 00ce 0132     		adds	r2, r2, #1
 1443              		.loc 1 797 0
 1444 00d0 013B     		subs	r3, r3, #1
 1445              		.loc 1 795 0
 1446 00d2 A266     		str	r2, [r4, #104]
 1447              		.loc 1 797 0
 1448 00d4 A4F86E30 		strh	r3, [r4, #110]	@ movhi
 1449 00d8 DCE7     		b	.L134
 1450              	.LVL140:
 1451              	.L144:
 1452              		.loc 1 724 0 discriminator 1
 1453 00da FFF7FEFF 		bl	port_halt
 1454              	.LVL141:
 1455              		.loc 1 728 0 discriminator 1
 1456 00de B4F87030 		ldrh	r3, [r4, #112]
 1457 00e2 012B     		cmp	r3, #1
 1458 00e4 97D9     		bls	.L121
 1459              	.L145:
 1460              		.loc 1 731 0
 1461 00e6 1D4B     		ldr	r3, .L152
 1462 00e8 B3F89C20 		ldrh	r2, [r3, #156]
 1463 00ec 0132     		adds	r2, r2, #1
 1464 00ee A3F89C20 		strh	r2, [r3, #156]	@ movhi
 1465              		.loc 1 732 0
 1466 00f2 94F82030 		ldrb	r3, [r4, #32]	@ zero_extendqisi2
 1467 00f6 63F07F03 		orn	r3, r3, #127
 1468 00fa 84F82030 		strb	r3, [r4, #32]
 1469              		.loc 1 733 0
 1470 00fe FF25     		movs	r5, #255
 1471 0100 DCE7     		b	.L122
 1472              	.LVL142:
 1473              	.L147:
 1474              		.loc 1 762 0 discriminator 1
 1475 0102 0390     		str	r0, [sp, #12]
 1476 0104 FFF7FEFF 		bl	port_halt
 1477              	.LVL143:
ARM GAS  /var/folders/5n/p_75w94d66l9ssrldxqdhh700000gn/T//cc4n8EPc.s 			page 27


 1478 0108 0399     		ldr	r1, [sp, #12]
 1479 010a 9DE7     		b	.L126
 1480              	.LVL144:
 1481              	.L149:
 1482              		.loc 1 772 0 discriminator 1
 1483 010c FFF7FEFF 		bl	port_halt
 1484              		.loc 1 781 0 discriminator 1
 1485 0110 626F     		ldr	r2, [r4, #116]
 1486 0112 002A     		cmp	r2, #0
 1487 0114 ACD1     		bne	.L142
 1488              	.L150:
 1489              		.loc 1 782 0
 1490 0116 6767     		str	r7, [r4, #116]
 1491 0118 AEE7     		b	.L131
 1492              	.L148:
 1493              		.loc 1 771 0 discriminator 1
 1494 011a FFF7FEFF 		bl	port_halt
 1495 011e A0E7     		b	.L128
 1496              	.L151:
 1497              		.loc 1 807 0 discriminator 1
 1498 0120 646F     		ldr	r4, [r4, #116]
 1499              	.LVL145:
 1500 0122 002C     		cmp	r4, #0
 1501 0124 CAD1     		bne	.L122
 1502              		.loc 1 807 0 is_stmt 0 discriminator 2
 1503 0126 FFF7FEFF 		bl	port_halt
 1504              		.loc 1 811 0 is_stmt 1 discriminator 2
 1505 012a 2546     		mov	r5, r4
 1506 012c C6E7     		b	.L122
 1507              	.LVL146:
 1508              	.L146:
 1509              		.loc 1 752 0
 1510 012e 0B4B     		ldr	r3, .L152
 1511 0130 B3F89C20 		ldrh	r2, [r3, #156]
 1512 0134 0132     		adds	r2, r2, #1
 1513 0136 A3F89C20 		strh	r2, [r3, #156]	@ movhi
 1514              		.loc 1 753 0
 1515 013a FF25     		movs	r5, #255
 1516 013c BEE7     		b	.L122
 1517              	.LVL147:
 1518              	.L143:
 1519              		.loc 1 767 0
 1520 013e 94F82020 		ldrb	r2, [r4, #32]	@ zero_extendqisi2
 1521              		.loc 1 768 0
 1522 0142 064B     		ldr	r3, .L152
 1523              		.loc 1 767 0
 1524 0144 62F07F02 		orn	r2, r2, #127
 1525 0148 84F82020 		strb	r2, [r4, #32]
 1526              		.loc 1 768 0
 1527 014c B3F89C20 		ldrh	r2, [r3, #156]
 1528 0150 0132     		adds	r2, r2, #1
 1529 0152 A3F89C20 		strh	r2, [r3, #156]	@ movhi
 1530              		.loc 1 769 0
 1531 0156 FF25     		movs	r5, #255
 1532 0158 B0E7     		b	.L122
 1533              	.L153:
 1534 015a 00BF     		.align	2
ARM GAS  /var/folders/5n/p_75w94d66l9ssrldxqdhh700000gn/T//cc4n8EPc.s 			page 28


 1535              	.L152:
 1536 015c 00000000 		.word	lwip_stats
 1537              		.cfi_endproc
 1538              	.LFE13:
 1539              		.size	tcp_enqueue_flags, .-tcp_enqueue_flags
 1540              		.section	.text.tcp_send_fin,"ax",%progbits
 1541              		.align	2
 1542              		.p2align 4,,15
 1543              		.global	tcp_send_fin
 1544              		.thumb
 1545              		.thumb_func
 1546              		.type	tcp_send_fin, %function
 1547              	tcp_send_fin:
 1548              	.LFB8:
 1549              		.loc 1 124 0
 1550              		.cfi_startproc
 1551              		@ args = 0, pretend = 0, frame = 0
 1552              		@ frame_needed = 0, uses_anonymous_args = 0
 1553              	.LVL148:
 1554 0000 70B5     		push	{r4, r5, r6, lr}
 1555              	.LCFI7:
 1556              		.cfi_def_cfa_offset 16
 1557              		.cfi_offset 14, -4
 1558              		.cfi_offset 6, -8
 1559              		.cfi_offset 5, -12
 1560              		.cfi_offset 4, -16
 1561              		.loc 1 126 0
 1562 0002 446F     		ldr	r4, [r0, #116]
 1563              		.loc 1 124 0
 1564 0004 0546     		mov	r5, r0
 1565              		.loc 1 126 0
 1566 0006 0CB9     		cbnz	r4, .L159
 1567 0008 0DE0     		b	.L155
 1568              	.LVL149:
 1569              	.L158:
 1570              	.LBB40:
 1571              		.loc 1 128 0
 1572 000a 1C46     		mov	r4, r3
 1573              	.LVL150:
 1574              	.L159:
 1575              		.loc 1 128 0 is_stmt 0 discriminator 1
 1576 000c 2368     		ldr	r3, [r4, #0]
 1577 000e 002B     		cmp	r3, #0
 1578 0010 FBD1     		bne	.L158
 1579              		.loc 1 131 0 is_stmt 1
 1580 0012 E368     		ldr	r3, [r4, #12]
 1581 0014 1A7B     		ldrb	r2, [r3, #12]	@ zero_extendqisi2
 1582 0016 587B     		ldrb	r0, [r3, #13]	@ zero_extendqisi2
 1583              	.LVL151:
 1584 0018 42EA0020 		orr	r0, r2, r0, lsl #8
 1585 001c FFF7FEFF 		bl	lwip_ntohs
 1586 0020 10F00706 		ands	r6, r0, #7
 1587 0024 05D0     		beq	.L160
 1588              	.LVL152:
 1589              	.L155:
 1590              	.LBE40:
 1591              		.loc 1 138 0
ARM GAS  /var/folders/5n/p_75w94d66l9ssrldxqdhh700000gn/T//cc4n8EPc.s 			page 29


 1592 0026 2846     		mov	r0, r5
 1593 0028 0121     		movs	r1, #1
 1594              		.loc 1 139 0
 1595 002a BDE87040 		pop	{r4, r5, r6, lr}
 1596              		.loc 1 138 0
 1597 002e FFF7FEBF 		b	tcp_enqueue_flags
 1598              	.LVL153:
 1599              	.L160:
 1600              	.LBB41:
 1601              		.loc 1 133 0
 1602 0032 E468     		ldr	r4, [r4, #12]
 1603              	.LVL154:
 1604 0034 237B     		ldrb	r3, [r4, #12]	@ zero_extendqisi2
 1605 0036 657B     		ldrb	r5, [r4, #13]	@ zero_extendqisi2
 1606              	.LVL155:
 1607 0038 0120     		movs	r0, #1
 1608 003a 43EA0525 		orr	r5, r3, r5, lsl #8
 1609 003e FFF7FEFF 		bl	lwip_htons
 1610 0042 0543     		orrs	r5, r5, r0
 1611 0044 ADB2     		uxth	r5, r5
 1612 0046 2B0A     		lsrs	r3, r5, #8
 1613 0048 2573     		strb	r5, [r4, #12]
 1614 004a 6373     		strb	r3, [r4, #13]
 1615              	.LBE41:
 1616              		.loc 1 139 0
 1617 004c 3046     		mov	r0, r6
 1618 004e 70BD     		pop	{r4, r5, r6, pc}
 1619              		.cfi_endproc
 1620              	.LFE8:
 1621              		.size	tcp_send_fin, .-tcp_send_fin
 1622              		.section	.text.tcp_send_empty_ack,"ax",%progbits
 1623              		.align	2
 1624              		.p2align 4,,15
 1625              		.global	tcp_send_empty_ack
 1626              		.thumb
 1627              		.thumb_func
 1628              		.type	tcp_send_empty_ack, %function
 1629              	tcp_send_empty_ack:
 1630              	.LFB14:
 1631              		.loc 1 837 0
 1632              		.cfi_startproc
 1633              		@ args = 0, pretend = 0, frame = 0
 1634              		@ frame_needed = 0, uses_anonymous_args = 0
 1635              	.LVL156:
 1636 0000 F0B5     		push	{r4, r5, r6, r7, lr}
 1637              	.LCFI8:
 1638              		.cfi_def_cfa_offset 20
 1639              		.cfi_offset 14, -4
 1640              		.cfi_offset 7, -8
 1641              		.cfi_offset 6, -12
 1642              		.cfi_offset 5, -16
 1643              		.cfi_offset 4, -20
 1644 0002 0446     		mov	r4, r0
 1645 0004 83B0     		sub	sp, sp, #12
 1646              	.LCFI9:
 1647              		.cfi_def_cfa_offset 32
 1648              		.loc 1 848 0
ARM GAS  /var/folders/5n/p_75w94d66l9ssrldxqdhh700000gn/T//cc4n8EPc.s 			page 30


 1649 0006 806D     		ldr	r0, [r0, #88]
 1650              	.LVL157:
 1651 0008 FFF7FEFF 		bl	lwip_htonl
 1652 000c 0021     		movs	r1, #0
 1653 000e 0246     		mov	r2, r0
 1654 0010 2046     		mov	r0, r4
 1655 0012 FFF7FEFF 		bl	tcp_output_alloc_header.constprop.0
 1656              	.LVL158:
 1657              		.loc 1 849 0
 1658 0016 0546     		mov	r5, r0
 1659 0018 0028     		cmp	r0, #0
 1660 001a 25D0     		beq	.L163
 1661              		.loc 1 857 0
 1662 001c 94F82030 		ldrb	r3, [r4, #32]	@ zero_extendqisi2
 1663              		.loc 1 853 0
 1664 0020 4768     		ldr	r7, [r0, #4]
 1665              	.LVL159:
 1666              		.loc 1 857 0
 1667 0022 23F00303 		bic	r3, r3, #3
 1668 0026 84F82030 		strb	r3, [r4, #32]
 1669              		.loc 1 869 0
 1670 002a B0F808E0 		ldrh	lr, [r0, #8]
 1671 002e 261D     		adds	r6, r4, #4
 1672 0030 2146     		mov	r1, r4
 1673 0032 3246     		mov	r2, r6
 1674 0034 0623     		movs	r3, #6
 1675 0036 CDF800E0 		str	lr, [sp, #0]
 1676 003a FFF7FEFF 		bl	inet_chksum_pseudo
 1677              	.LVL160:
 1678 003e C0F30F23 		ubfx	r3, r0, #8, #16
 1679 0042 3874     		strb	r0, [r7, #16]
 1680 0044 7B74     		strb	r3, [r7, #17]
 1681              		.loc 1 876 0
 1682 0046 677A     		ldrb	r7, [r4, #9]	@ zero_extendqisi2
 1683              	.LVL161:
 1684 0048 A37A     		ldrb	r3, [r4, #10]	@ zero_extendqisi2
 1685 004a 0097     		str	r7, [sp, #0]
 1686 004c 2146     		mov	r1, r4
 1687 004e 3246     		mov	r2, r6
 1688 0050 2846     		mov	r0, r5
 1689 0052 0624     		movs	r4, #6
 1690              	.LVL162:
 1691 0054 0194     		str	r4, [sp, #4]
 1692 0056 FFF7FEFF 		bl	ip_output
 1693              	.LVL163:
 1694              		.loc 1 879 0
 1695 005a 2846     		mov	r0, r5
 1696 005c FFF7FEFF 		bl	pbuf_free
 1697              		.loc 1 881 0
 1698 0060 0020     		movs	r0, #0
 1699              	.LVL164:
 1700              	.L162:
 1701              		.loc 1 882 0
 1702 0062 40B2     		sxtb	r0, r0
 1703 0064 03B0     		add	sp, sp, #12
 1704 0066 F0BD     		pop	{r4, r5, r6, r7, pc}
 1705              	.LVL165:
ARM GAS  /var/folders/5n/p_75w94d66l9ssrldxqdhh700000gn/T//cc4n8EPc.s 			page 31


 1706              	.L163:
 1707              		.loc 1 851 0
 1708 0068 FE20     		movs	r0, #254
 1709 006a FAE7     		b	.L162
 1710              		.cfi_endproc
 1711              	.LFE14:
 1712              		.size	tcp_send_empty_ack, .-tcp_send_empty_ack
 1713 006c AFF30080 		.section	.text.tcp_output,"ax",%progbits
 1714              		.align	2
 1715              		.p2align 4,,15
 1716              		.global	tcp_output
 1717              		.thumb
 1718              		.thumb_func
 1719              		.type	tcp_output, %function
 1720              	tcp_output:
 1721              	.LFB15:
 1722              		.loc 1 893 0
 1723              		.cfi_startproc
 1724              		@ args = 0, pretend = 0, frame = 8
 1725              		@ frame_needed = 0, uses_anonymous_args = 0
 1726              	.LVL166:
 1727 0000 2DE9F04F 		push	{r4, r5, r6, r7, r8, r9, sl, fp, lr}
 1728              	.LCFI10:
 1729              		.cfi_def_cfa_offset 36
 1730              		.cfi_offset 14, -4
 1731              		.cfi_offset 11, -8
 1732              		.cfi_offset 10, -12
 1733              		.cfi_offset 9, -16
 1734              		.cfi_offset 8, -20
 1735              		.cfi_offset 7, -24
 1736              		.cfi_offset 6, -28
 1737              		.cfi_offset 5, -32
 1738              		.cfi_offset 4, -36
 1739              		.loc 1 904 0
 1740 0004 A54B     		ldr	r3, .L216
 1741 0006 1B68     		ldr	r3, [r3, #0]
 1742 0008 8342     		cmp	r3, r0
 1743              		.loc 1 893 0
 1744 000a 85B0     		sub	sp, sp, #20
 1745              	.LCFI11:
 1746              		.cfi_def_cfa_offset 56
 1747              		.loc 1 893 0
 1748 000c 0446     		mov	r4, r0
 1749              		.loc 1 904 0
 1750 000e 00F05C81 		beq	.L165
 1751              		.loc 1 908 0
 1752 0012 B0F85CB0 		ldrh	fp, [r0, #92]
 1753 0016 B0F85220 		ldrh	r2, [r0, #82]
 1754              		.loc 1 918 0
 1755 001a 90F82030 		ldrb	r3, [r0, #32]	@ zero_extendqisi2
 1756              		.loc 1 910 0
 1757 001e 456F     		ldr	r5, [r0, #116]
 1758              		.loc 1 908 0
 1759 0020 9345     		cmp	fp, r2
 1760 0022 28BF     		it	cs
 1761 0024 9346     		movcs	fp, r2
 1762              	.LVL167:
ARM GAS  /var/folders/5n/p_75w94d66l9ssrldxqdhh700000gn/T//cc4n8EPc.s 			page 32


 1763              		.loc 1 918 0
 1764 0026 9907     		lsls	r1, r3, #30
 1765 0028 00F18E81 		bmi	.L209
 1766              	.LVL168:
 1767              	.L166:
 1768              		.loc 1 925 0
 1769 002c A76F     		ldr	r7, [r4, #120]
 1770              	.LVL169:
 1771              		.loc 1 926 0
 1772 002e 0FB9     		cbnz	r7, .L204
 1773 0030 03E0     		b	.L172
 1774              	.LVL170:
 1775              	.L198:
 1776              		.loc 1 927 0
 1777 0032 1F46     		mov	r7, r3
 1778              	.LVL171:
 1779              	.L204:
 1780              		.loc 1 927 0 is_stmt 0 discriminator 1
 1781 0034 3B68     		ldr	r3, [r7, #0]
 1782 0036 002B     		cmp	r3, #0
 1783 0038 FBD1     		bne	.L198
 1784              	.L172:
 1785              		.loc 1 952 0 is_stmt 1 discriminator 1
 1786 003a 002D     		cmp	r5, #0
 1787 003c 00F09F81 		beq	.L208
 1788              	.LBB45:
 1789              	.LBB46:
 1790              		.loc 1 1069 0 discriminator 2
 1791 0040 40F20243 		movw	r3, #1026
 1792 0044 C1F60203 		movt	r3, 6146
 1793              		.loc 1 1155 0 discriminator 2
 1794 0048 DFF854A2 		ldr	sl, .L216+4
 1795              		.loc 1 1069 0 discriminator 2
 1796 004c 0393     		str	r3, [sp, #12]
 1797              		.loc 1 1084 0 discriminator 2
 1798 004e 4FF00009 		mov	r9, #0
 1799              		.loc 1 1150 0 discriminator 2
 1800 0052 B846     		mov	r8, r7
 1801 0054 E8E0     		b	.L200
 1802              	.LVL172:
 1803              	.L173:
 1804              	.LBE46:
 1805              	.LBE45:
 1806              		.loc 1 963 0
 1807 0056 A36F     		ldr	r3, [r4, #120]
 1808 0058 63B1     		cbz	r3, .L174
 1809              		.loc 1 963 0 is_stmt 0 discriminator 2
 1810 005a 94F82030 		ldrb	r3, [r4, #32]	@ zero_extendqisi2
 1811 005e 13F0440F 		tst	r3, #68
 1812 0062 07D1     		bne	.L174
 1813              		.loc 1 963 0 discriminator 1
 1814 0064 626F     		ldr	r2, [r4, #116]
 1815 0066 002A     		cmp	r2, #0
 1816 0068 00F06781 		beq	.L175
 1817              		.loc 1 963 0 discriminator 2
 1818 006c 1168     		ldr	r1, [r2, #0]
 1819 006e 0029     		cmp	r1, #0
ARM GAS  /var/folders/5n/p_75w94d66l9ssrldxqdhh700000gn/T//cc4n8EPc.s 			page 33


 1820 0070 00F05E81 		beq	.L210
 1821              	.L174:
 1822              		.loc 1 978 0 is_stmt 1
 1823 0074 237C     		ldrb	r3, [r4, #16]	@ zero_extendqisi2
 1824              		.loc 1 976 0
 1825 0076 2A68     		ldr	r2, [r5, #0]
 1826              		.loc 1 978 0
 1827 0078 022B     		cmp	r3, #2
 1828              		.loc 1 976 0
 1829 007a 6267     		str	r2, [r4, #116]
 1830              		.loc 1 978 0
 1831 007c 12D0     		beq	.L176
 1832              		.loc 1 979 0
 1833 007e EE68     		ldr	r6, [r5, #12]
 1834 0080 337B     		ldrb	r3, [r6, #12]	@ zero_extendqisi2
 1835 0082 777B     		ldrb	r7, [r6, #13]	@ zero_extendqisi2
 1836 0084 1020     		movs	r0, #16
 1837 0086 43EA0727 		orr	r7, r3, r7, lsl #8
 1838 008a FFF7FEFF 		bl	lwip_htons
 1839 008e 0743     		orrs	r7, r7, r0
 1840 0090 BFB2     		uxth	r7, r7
 1841 0092 3B0A     		lsrs	r3, r7, #8
 1842 0094 3773     		strb	r7, [r6, #12]
 1843 0096 7373     		strb	r3, [r6, #13]
 1844              		.loc 1 980 0
 1845 0098 94F82030 		ldrb	r3, [r4, #32]	@ zero_extendqisi2
 1846 009c 23F00303 		bic	r3, r3, #3
 1847 00a0 84F82030 		strb	r3, [r4, #32]
 1848              	.L176:
 1849              	.LVL173:
 1850              	.LBB49:
 1851              	.LBB47:
 1852              		.loc 1 1057 0
 1853 00a4 606A     		ldr	r0, [r4, #36]
 1854 00a6 EE68     		ldr	r6, [r5, #12]
 1855 00a8 FFF7FEFF 		bl	lwip_htonl
 1856 00ac 030E     		lsrs	r3, r0, #24
 1857 00ae C0F30742 		ubfx	r2, r0, #16, #8
 1858 00b2 C0F30721 		ubfx	r1, r0, #8, #8
 1859 00b6 B272     		strb	r2, [r6, #10]
 1860 00b8 F372     		strb	r3, [r6, #11]
 1861 00ba 3072     		strb	r0, [r6, #8]
 1862 00bc 7172     		strb	r1, [r6, #9]
 1863              		.loc 1 1060 0
 1864 00be 608D     		ldrh	r0, [r4, #42]
 1865 00c0 EE68     		ldr	r6, [r5, #12]
 1866 00c2 FFF7FEFF 		bl	lwip_htons
 1867 00c6 C0F30F23 		ubfx	r3, r0, #8, #16
 1868 00ca B073     		strb	r0, [r6, #14]
 1869 00cc F373     		strb	r3, [r6, #15]
 1870              		.loc 1 1062 0
 1871 00ce 628D     		ldrh	r2, [r4, #42]
 1872 00d0 636A     		ldr	r3, [r4, #36]
 1873              		.loc 1 1066 0
 1874 00d2 EE68     		ldr	r6, [r5, #12]
 1875              		.loc 1 1062 0
 1876 00d4 D318     		adds	r3, r2, r3
ARM GAS  /var/folders/5n/p_75w94d66l9ssrldxqdhh700000gn/T//cc4n8EPc.s 			page 34


 1877 00d6 E362     		str	r3, [r4, #44]
 1878              		.loc 1 1066 0
 1879 00d8 B307     		lsls	r3, r6, #30
 1880 00da 40F0C680 		bne	.L211
 1881              	.L177:
 1882              	.LVL174:
 1883              		.loc 1 1068 0
 1884 00de AB7A     		ldrb	r3, [r5, #10]	@ zero_extendqisi2
 1885 00e0 DF07     		lsls	r7, r3, #31
 1886              		.loc 1 1069 0
 1887 00e2 48BF     		it	mi
 1888 00e4 039A     		ldrmi	r2, [sp, #12]
 1889              		.loc 1 1083 0
 1890 00e6 B4F93630 		ldrsh	r3, [r4, #54]
 1891              		.loc 1 1069 0
 1892 00ea 48BF     		it	mi
 1893 00ec 7261     		strmi	r2, [r6, #20]
 1894              	.LVL175:
 1895              		.loc 1 1083 0
 1896 00ee 0133     		adds	r3, r3, #1
 1897              		.loc 1 1089 0
 1898 00f0 2368     		ldr	r3, [r4, #0]
 1899              		.loc 1 1084 0
 1900 00f2 08BF     		it	eq
 1901 00f4 A4F83690 		strheq	r9, [r4, #54]	@ movhi
 1902              		.loc 1 1090 0
 1903 00f8 271D     		adds	r7, r4, #4
 1904              		.loc 1 1089 0
 1905 00fa 3BB9     		cbnz	r3, .L180
 1906              		.loc 1 1090 0
 1907 00fc 3846     		mov	r0, r7
 1908 00fe FFF7FEFF 		bl	ip_route
 1909              	.LVL176:
 1910              		.loc 1 1091 0
 1911 0102 0028     		cmp	r0, #0
 1912 0104 34D0     		beq	.L181
 1913              		.loc 1 1094 0
 1914 0106 4368     		ldr	r3, [r0, #4]
 1915 0108 EE68     		ldr	r6, [r5, #12]
 1916              	.LVL177:
 1917 010a 2360     		str	r3, [r4, #0]
 1918              	.LVL178:
 1919              	.L180:
 1920              		.loc 1 1097 0
 1921 010c E36B     		ldr	r3, [r4, #60]
 1922 010e 002B     		cmp	r3, #0
 1923 0110 00F0AF80 		beq	.L212
 1924              	.L182:
 1925              		.loc 1 1107 0
 1926 0114 6868     		ldr	r0, [r5, #4]
 1927 0116 4368     		ldr	r3, [r0, #4]
 1928              		.loc 1 1110 0
 1929 0118 B0F808E0 		ldrh	lr, [r0, #8]
 1930              		.loc 1 1109 0
 1931 011c 4289     		ldrh	r2, [r0, #10]
 1932              		.loc 1 1112 0
 1933 011e 4660     		str	r6, [r0, #4]
ARM GAS  /var/folders/5n/p_75w94d66l9ssrldxqdhh700000gn/T//cc4n8EPc.s 			page 35


 1934              		.loc 1 1107 0
 1935 0120 F31A     		subs	r3, r6, r3
 1936 0122 9BB2     		uxth	r3, r3
 1937              	.LVL179:
 1938              		.loc 1 1110 0
 1939 0124 C3EB0E0E 		rsb	lr, r3, lr
 1940 0128 1FFA8EFE 		uxth	lr, lr
 1941              		.loc 1 1109 0
 1942 012c D31A     		subs	r3, r2, r3
 1943              	.LVL180:
 1944 012e 4381     		strh	r3, [r0, #10]	@ movhi
 1945              		.loc 1 1110 0
 1946 0130 A0F808E0 		strh	lr, [r0, #8]	@ movhi
 1947              		.loc 1 1150 0
 1948 0134 2146     		mov	r1, r4
 1949              		.loc 1 1114 0
 1950 0136 86F81090 		strb	r9, [r6, #16]
 1951 013a 86F81190 		strb	r9, [r6, #17]
 1952              		.loc 1 1150 0
 1953 013e 3A46     		mov	r2, r7
 1954 0140 0623     		movs	r3, #6
 1955 0142 CDF800E0 		str	lr, [sp, #0]
 1956 0146 FFF7FEFF 		bl	inet_chksum_pseudo
 1957 014a C0F30F23 		ubfx	r3, r0, #8, #16
 1958 014e 3074     		strb	r0, [r6, #16]
 1959 0150 7374     		strb	r3, [r6, #17]
 1960              		.loc 1 1155 0
 1961 0152 BAF89030 		ldrh	r3, [sl, #144]
 1962              		.loc 1 1161 0
 1963 0156 6868     		ldr	r0, [r5, #4]
 1964 0158 0622     		movs	r2, #6
 1965              		.loc 1 1155 0
 1966 015a 0133     		adds	r3, r3, #1
 1967              		.loc 1 1161 0
 1968 015c 0192     		str	r2, [sp, #4]
 1969              		.loc 1 1155 0
 1970 015e AAF89030 		strh	r3, [sl, #144]	@ movhi
 1971              		.loc 1 1161 0
 1972 0162 667A     		ldrb	r6, [r4, #9]	@ zero_extendqisi2
 1973 0164 A37A     		ldrb	r3, [r4, #10]	@ zero_extendqisi2
 1974 0166 0096     		str	r6, [sp, #0]
 1975 0168 2146     		mov	r1, r4
 1976 016a 3A46     		mov	r2, r7
 1977 016c FFF7FEFF 		bl	ip_output
 1978              	.L181:
 1979              	.LBE47:
 1980              	.LBE49:
 1981              		.loc 1 984 0
 1982 0170 EB68     		ldr	r3, [r5, #12]
 1983 0172 1979     		ldrb	r1, [r3, #4]	@ zero_extendqisi2
 1984 0174 5E79     		ldrb	r6, [r3, #5]	@ zero_extendqisi2
 1985 0176 9A79     		ldrb	r2, [r3, #6]	@ zero_extendqisi2
 1986 0178 D879     		ldrb	r0, [r3, #7]	@ zero_extendqisi2
 1987 017a 41EA0623 		orr	r3, r1, r6, lsl #8
 1988 017e 43EA0243 		orr	r3, r3, r2, lsl #16
 1989 0182 43EA0060 		orr	r0, r3, r0, lsl #24
 1990 0186 FFF7FEFF 		bl	lwip_ntohl
ARM GAS  /var/folders/5n/p_75w94d66l9ssrldxqdhh700000gn/T//cc4n8EPc.s 			page 36


 1991 018a EB68     		ldr	r3, [r5, #12]
 1992 018c 2F89     		ldrh	r7, [r5, #8]
 1993 018e 1A7B     		ldrb	r2, [r3, #12]	@ zero_extendqisi2
 1994 0190 0646     		mov	r6, r0
 1995 0192 587B     		ldrb	r0, [r3, #13]	@ zero_extendqisi2
 1996 0194 42EA0020 		orr	r0, r2, r0, lsl #8
 1997 0198 FFF7FEFF 		bl	lwip_ntohs
 1998 019c 10F00300 		ands	r0, r0, #3
 1999 01a0 18BF     		it	ne
 2000 01a2 0120     		movne	r0, #1
 2001              		.loc 1 985 0
 2002 01a4 A36D     		ldr	r3, [r4, #88]
 2003              		.loc 1 984 0
 2004 01a6 3F18     		adds	r7, r7, r0
 2005 01a8 BE19     		adds	r6, r7, r6
 2006              	.LVL181:
 2007              		.loc 1 985 0
 2008 01aa 9B1B     		subs	r3, r3, r6
 2009 01ac 002B     		cmp	r3, #0
 2010              		.loc 1 989 0
 2011 01ae EB68     		ldr	r3, [r5, #12]
 2012              		.loc 1 986 0
 2013 01b0 B8BF     		it	lt
 2014 01b2 A665     		strlt	r6, [r4, #88]
 2015              		.loc 1 989 0
 2016 01b4 1A7B     		ldrb	r2, [r3, #12]	@ zero_extendqisi2
 2017 01b6 587B     		ldrb	r0, [r3, #13]	@ zero_extendqisi2
 2018 01b8 2E89     		ldrh	r6, [r5, #8]
 2019              	.LVL182:
 2020 01ba 42EA0020 		orr	r0, r2, r0, lsl #8
 2021 01be FFF7FEFF 		bl	lwip_ntohs
 2022 01c2 10F00300 		ands	r0, r0, #3
 2023 01c6 18BF     		it	ne
 2024 01c8 0120     		movne	r0, #1
 2025 01ca 3618     		adds	r6, r6, r0
 2026 01cc 002E     		cmp	r6, #0
 2027 01ce 00F0AB80 		beq	.L184
 2028              		.loc 1 992 0
 2029 01d2 A36F     		ldr	r3, [r4, #120]
 2030              		.loc 1 990 0
 2031 01d4 C5F80090 		str	r9, [r5, #0]
 2032              		.loc 1 992 0
 2033 01d8 002B     		cmp	r3, #0
 2034 01da 63D0     		beq	.L213
 2035              		.loc 1 1000 0
 2036 01dc EB68     		ldr	r3, [r5, #12]
 2037 01de 1979     		ldrb	r1, [r3, #4]	@ zero_extendqisi2
 2038 01e0 5E79     		ldrb	r6, [r3, #5]	@ zero_extendqisi2
 2039 01e2 9A79     		ldrb	r2, [r3, #6]	@ zero_extendqisi2
 2040 01e4 D879     		ldrb	r0, [r3, #7]	@ zero_extendqisi2
 2041 01e6 41EA0623 		orr	r3, r1, r6, lsl #8
 2042 01ea 43EA0243 		orr	r3, r3, r2, lsl #16
 2043 01ee 43EA0060 		orr	r0, r3, r0, lsl #24
 2044 01f2 FFF7FEFF 		bl	lwip_ntohl
 2045 01f6 D8F80C30 		ldr	r3, [r8, #12]
 2046 01fa 1979     		ldrb	r1, [r3, #4]	@ zero_extendqisi2
 2047 01fc 5F79     		ldrb	r7, [r3, #5]	@ zero_extendqisi2
ARM GAS  /var/folders/5n/p_75w94d66l9ssrldxqdhh700000gn/T//cc4n8EPc.s 			page 37


 2048 01fe 9A79     		ldrb	r2, [r3, #6]	@ zero_extendqisi2
 2049 0200 0646     		mov	r6, r0
 2050 0202 D879     		ldrb	r0, [r3, #7]	@ zero_extendqisi2
 2051 0204 41EA0723 		orr	r3, r1, r7, lsl #8
 2052 0208 43EA0243 		orr	r3, r3, r2, lsl #16
 2053 020c 43EA0060 		orr	r0, r3, r0, lsl #24
 2054 0210 FFF7FEFF 		bl	lwip_ntohl
 2055 0214 301A     		subs	r0, r6, r0
 2056 0216 0028     		cmp	r0, #0
 2057              		.loc 1 1011 0
 2058 0218 A4BF     		itt	ge
 2059 021a C8F80050 		strge	r5, [r8, #0]
 2060              	.LVL183:
 2061 021e A846     		movge	r8, r5
 2062              		.loc 1 1000 0
 2063 0220 57DB     		blt	.L214
 2064              	.LVL184:
 2065              	.L186:
 2066              		.loc 1 1019 0
 2067 0222 656F     		ldr	r5, [r4, #116]
 2068              	.LVL185:
 2069              		.loc 1 952 0
 2070 0224 002D     		cmp	r5, #0
 2071 0226 42D0     		beq	.L193
 2072              	.LVL186:
 2073              	.L200:
 2074              		.loc 1 953 0 discriminator 2
 2075 0228 EB68     		ldr	r3, [r5, #12]
 2076 022a 1979     		ldrb	r1, [r3, #4]	@ zero_extendqisi2
 2077 022c 5E79     		ldrb	r6, [r3, #5]	@ zero_extendqisi2
 2078 022e 9A79     		ldrb	r2, [r3, #6]	@ zero_extendqisi2
 2079 0230 D879     		ldrb	r0, [r3, #7]	@ zero_extendqisi2
 2080 0232 41EA0623 		orr	r3, r1, r6, lsl #8
 2081 0236 43EA0243 		orr	r3, r3, r2, lsl #16
 2082 023a 43EA0060 		orr	r0, r3, r0, lsl #24
 2083 023e FFF7FEFF 		bl	lwip_ntohl
 2084 0242 2A89     		ldrh	r2, [r5, #8]
 2085 0244 E36C     		ldr	r3, [r4, #76]
 2086 0246 D31A     		subs	r3, r2, r3
 2087 0248 1B18     		adds	r3, r3, r0
 2088              		.loc 1 952 0 discriminator 2
 2089 024a 9B45     		cmp	fp, r3
 2090 024c C0F09780 		bcc	.L208
 2091              		.loc 1 954 0
 2092 0250 EB68     		ldr	r3, [r5, #12]
 2093 0252 1A7B     		ldrb	r2, [r3, #12]	@ zero_extendqisi2
 2094 0254 587B     		ldrb	r0, [r3, #13]	@ zero_extendqisi2
 2095 0256 42EA0020 		orr	r0, r2, r0, lsl #8
 2096 025a FFF7FEFF 		bl	lwip_ntohs
 2097 025e 4207     		lsls	r2, r0, #29
 2098 0260 7FF5F9AE 		bpl	.L173
 2099              		.loc 1 954 0 is_stmt 0 discriminator 1
 2100 0264 FFF7FEFF 		bl	port_halt
 2101 0268 F5E6     		b	.L173
 2102              	.LVL187:
 2103              	.L211:
 2104              	.LBB50:
ARM GAS  /var/folders/5n/p_75w94d66l9ssrldxqdhh700000gn/T//cc4n8EPc.s 			page 38


 2105              	.LBB48:
 2106              		.loc 1 1066 0 is_stmt 1
 2107 026a FFF7FEFF 		bl	port_halt
 2108 026e EE68     		ldr	r6, [r5, #12]
 2109 0270 35E7     		b	.L177
 2110              	.L212:
 2111              		.loc 1 1098 0
 2112 0272 40F20002 		movw	r2, #:lower16:tcp_ticks
 2113 0276 C0F20002 		movt	r2, #:upper16:tcp_ticks
 2114 027a 1368     		ldr	r3, [r2, #0]
 2115 027c E363     		str	r3, [r4, #60]
 2116              		.loc 1 1099 0
 2117 027e 3379     		ldrb	r3, [r6, #4]	@ zero_extendqisi2
 2118 0280 7179     		ldrb	r1, [r6, #5]	@ zero_extendqisi2
 2119 0282 B279     		ldrb	r2, [r6, #6]	@ zero_extendqisi2
 2120 0284 F079     		ldrb	r0, [r6, #7]	@ zero_extendqisi2
 2121 0286 43EA0123 		orr	r3, r3, r1, lsl #8
 2122 028a 43EA0243 		orr	r3, r3, r2, lsl #16
 2123 028e 43EA0060 		orr	r0, r3, r0, lsl #24
 2124 0292 FFF7FEFF 		bl	lwip_ntohl
 2125 0296 EE68     		ldr	r6, [r5, #12]
 2126 0298 2064     		str	r0, [r4, #64]
 2127 029a 3BE7     		b	.L182
 2128              	.L217:
 2129              		.align	2
 2130              	.L216:
 2131 029c 00000000 		.word	tcp_input_pcb
 2132 02a0 00000000 		.word	lwip_stats
 2133              	.L213:
 2134              	.LBE48:
 2135              	.LBE50:
 2136              		.loc 1 993 0
 2137 02a4 A567     		str	r5, [r4, #120]
 2138              	.LVL188:
 2139 02a6 A846     		mov	r8, r5
 2140              		.loc 1 1019 0
 2141 02a8 656F     		ldr	r5, [r4, #116]
 2142              	.LVL189:
 2143              		.loc 1 952 0
 2144 02aa 002D     		cmp	r5, #0
 2145 02ac BCD1     		bne	.L200
 2146              	.LVL190:
 2147              	.L193:
 2148              		.loc 1 1024 0
 2149 02ae 0023     		movs	r3, #0
 2150 02b0 A4F87230 		strh	r3, [r4, #114]	@ movhi
 2151              	.L195:
 2152              		.loc 1 1028 0
 2153 02b4 1DB1     		cbz	r5, .L196
 2154              		.loc 1 1028 0 is_stmt 0 discriminator 1
 2155 02b6 94F8A060 		ldrb	r6, [r4, #160]	@ zero_extendqisi2
 2156 02ba 002E     		cmp	r6, #0
 2157 02bc 63D0     		beq	.L215
 2158              	.L196:
 2159              		.loc 1 1035 0 is_stmt 1
 2160 02be 94F82030 		ldrb	r3, [r4, #32]	@ zero_extendqisi2
 2161 02c2 03F07F03 		and	r3, r3, #127
ARM GAS  /var/folders/5n/p_75w94d66l9ssrldxqdhh700000gn/T//cc4n8EPc.s 			page 39


 2162 02c6 84F82030 		strb	r3, [r4, #32]
 2163              	.LVL191:
 2164              	.L165:
 2165              		.loc 1 1037 0
 2166 02ca 0020     		movs	r0, #0
 2167 02cc 05B0     		add	sp, sp, #20
 2168 02ce BDE8F08F 		pop	{r4, r5, r6, r7, r8, r9, sl, fp, pc}
 2169              	.LVL192:
 2170              	.L214:
 2171              	.LBB51:
 2172              		.loc 1 1003 0
 2173 02d2 A36F     		ldr	r3, [r4, #120]
 2174              		.loc 1 1002 0
 2175 02d4 04F17806 		add	r6, r4, #120
 2176              	.LVL193:
 2177              		.loc 1 1003 0
 2178 02d8 1BB9     		cbnz	r3, .L201
 2179 02da 22E0     		b	.L189
 2180              	.LVL194:
 2181              	.L191:
 2182              		.loc 1 1005 0
 2183 02dc 3668     		ldr	r6, [r6, #0]
 2184              	.LVL195:
 2185              		.loc 1 1003 0
 2186 02de 3368     		ldr	r3, [r6, #0]
 2187 02e0 FBB1     		cbz	r3, .L189
 2188              	.L201:
 2189              		.loc 1 1004 0 discriminator 2
 2190 02e2 DB68     		ldr	r3, [r3, #12]
 2191 02e4 1979     		ldrb	r1, [r3, #4]	@ zero_extendqisi2
 2192 02e6 5F79     		ldrb	r7, [r3, #5]	@ zero_extendqisi2
 2193 02e8 9A79     		ldrb	r2, [r3, #6]	@ zero_extendqisi2
 2194 02ea D879     		ldrb	r0, [r3, #7]	@ zero_extendqisi2
 2195 02ec 41EA0723 		orr	r3, r1, r7, lsl #8
 2196 02f0 43EA0243 		orr	r3, r3, r2, lsl #16
 2197 02f4 43EA0060 		orr	r0, r3, r0, lsl #24
 2198 02f8 FFF7FEFF 		bl	lwip_ntohl
 2199 02fc EB68     		ldr	r3, [r5, #12]
 2200 02fe 1979     		ldrb	r1, [r3, #4]	@ zero_extendqisi2
 2201 0300 93F805E0 		ldrb	lr, [r3, #5]	@ zero_extendqisi2
 2202 0304 9A79     		ldrb	r2, [r3, #6]	@ zero_extendqisi2
 2203 0306 0746     		mov	r7, r0
 2204 0308 D879     		ldrb	r0, [r3, #7]	@ zero_extendqisi2
 2205 030a 41EA0E23 		orr	r3, r1, lr, lsl #8
 2206 030e 43EA0243 		orr	r3, r3, r2, lsl #16
 2207 0312 43EA0060 		orr	r0, r3, r0, lsl #24
 2208 0316 FFF7FEFF 		bl	lwip_ntohl
 2209 031a 381A     		subs	r0, r7, r0
 2210              		.loc 1 1003 0 discriminator 2
 2211 031c 0028     		cmp	r0, #0
 2212 031e DDDB     		blt	.L191
 2213              		.loc 1 1003 0 is_stmt 0
 2214 0320 3368     		ldr	r3, [r6, #0]
 2215              	.L189:
 2216              		.loc 1 1007 0 is_stmt 1
 2217 0322 2B60     		str	r3, [r5, #0]
 2218              		.loc 1 1008 0
ARM GAS  /var/folders/5n/p_75w94d66l9ssrldxqdhh700000gn/T//cc4n8EPc.s 			page 40


 2219 0324 3560     		str	r5, [r6, #0]
 2220 0326 7CE7     		b	.L186
 2221              	.LVL196:
 2222              	.L184:
 2223              	.LBE51:
 2224              		.loc 1 1017 0
 2225 0328 2846     		mov	r0, r5
 2226 032a FFF7FEFF 		bl	tcp_seg_free
 2227 032e 78E7     		b	.L186
 2228              	.LVL197:
 2229              	.L210:
 2230              		.loc 1 963 0 discriminator 4
 2231 0330 1089     		ldrh	r0, [r2, #8]
 2232 0332 218F     		ldrh	r1, [r4, #56]
 2233 0334 8842     		cmp	r0, r1
 2234 0336 BFF49DAE 		bcs	.L174
 2235              	.L175:
 2236              		.loc 1 963 0 is_stmt 0
 2237 033a 13F0A00F 		tst	r3, #160
 2238 033e 7FF499AE 		bne	.L174
 2239              		.loc 1 1022 0 is_stmt 1
 2240 0342 002A     		cmp	r2, #0
 2241 0344 B6D1     		bne	.L195
 2242 0346 B2E7     		b	.L193
 2243              	.LVL198:
 2244              	.L209:
 2245              		.loc 1 918 0 discriminator 1
 2246 0348 9DB1     		cbz	r5, .L167
 2247              		.loc 1 920 0
 2248 034a EB68     		ldr	r3, [r5, #12]
 2249 034c 1979     		ldrb	r1, [r3, #4]	@ zero_extendqisi2
 2250 034e 5E79     		ldrb	r6, [r3, #5]	@ zero_extendqisi2
 2251 0350 9A79     		ldrb	r2, [r3, #6]	@ zero_extendqisi2
 2252 0352 D879     		ldrb	r0, [r3, #7]	@ zero_extendqisi2
 2253 0354 41EA0623 		orr	r3, r1, r6, lsl #8
 2254 0358 43EA0243 		orr	r3, r3, r2, lsl #16
 2255 035c 43EA0060 		orr	r0, r3, r0, lsl #24
 2256 0360 FFF7FEFF 		bl	lwip_ntohl
 2257 0364 2A89     		ldrh	r2, [r5, #8]
 2258 0366 E36C     		ldr	r3, [r4, #76]
 2259 0368 D31A     		subs	r3, r2, r3
 2260 036a 1B18     		adds	r3, r3, r0
 2261              		.loc 1 919 0
 2262 036c 9B45     		cmp	fp, r3
 2263 036e BFF45DAE 		bcs	.L166
 2264              	.L167:
 2265              		.loc 1 921 0
 2266 0372 2046     		mov	r0, r4
 2267              		.loc 1 1037 0
 2268 0374 05B0     		add	sp, sp, #20
 2269 0376 BDE8F04F 		pop	{r4, r5, r6, r7, r8, r9, sl, fp, lr}
 2270              		.loc 1 921 0
 2271 037a FFF7FEBF 		b	tcp_send_empty_ack
 2272              	.L208:
 2273              		.loc 1 952 0
 2274 037e 626F     		ldr	r2, [r4, #116]
 2275              		.loc 1 1022 0
ARM GAS  /var/folders/5n/p_75w94d66l9ssrldxqdhh700000gn/T//cc4n8EPc.s 			page 41


 2276 0380 002A     		cmp	r2, #0
 2277 0382 97D1     		bne	.L195
 2278 0384 93E7     		b	.L193
 2279              	.L215:
 2280              		.loc 1 1029 0 discriminator 1
 2281 0386 EB68     		ldr	r3, [r5, #12]
 2282 0388 1979     		ldrb	r1, [r3, #4]	@ zero_extendqisi2
 2283 038a 5F79     		ldrb	r7, [r3, #5]	@ zero_extendqisi2
 2284 038c 9A79     		ldrb	r2, [r3, #6]	@ zero_extendqisi2
 2285 038e D879     		ldrb	r0, [r3, #7]	@ zero_extendqisi2
 2286 0390 41EA0723 		orr	r3, r1, r7, lsl #8
 2287 0394 43EA0243 		orr	r3, r3, r2, lsl #16
 2288 0398 43EA0060 		orr	r0, r3, r0, lsl #24
 2289 039c FFF7FEFF 		bl	lwip_ntohl
 2290 03a0 2989     		ldrh	r1, [r5, #8]
 2291 03a2 E26C     		ldr	r2, [r4, #76]
 2292 03a4 B4F85C30 		ldrh	r3, [r4, #92]
 2293 03a8 8A1A     		subs	r2, r1, r2
 2294 03aa 1218     		adds	r2, r2, r0
 2295              		.loc 1 1028 0 discriminator 1
 2296 03ac 9A42     		cmp	r2, r3
 2297 03ae 86D9     		bls	.L196
 2298              		.loc 1 1032 0
 2299 03b0 0123     		movs	r3, #1
 2300              		.loc 1 1031 0
 2301 03b2 C4F89C60 		str	r6, [r4, #156]
 2302              		.loc 1 1032 0
 2303 03b6 84F8A030 		strb	r3, [r4, #160]
 2304 03ba 80E7     		b	.L196
 2305              		.cfi_endproc
 2306              	.LFE15:
 2307              		.size	tcp_output, .-tcp_output
 2308 03bc AFF30080 		.section	.text.tcp_rst,"ax",%progbits
 2309              		.align	2
 2310              		.p2align 4,,15
 2311              		.global	tcp_rst
 2312              		.thumb
 2313              		.thumb_func
 2314              		.type	tcp_rst, %function
 2315              	tcp_rst:
 2316              	.LFB17:
 2317              		.loc 1 1190 0
 2318              		.cfi_startproc
 2319              		@ args = 8, pretend = 0, frame = 0
 2320              		@ frame_needed = 0, uses_anonymous_args = 0
 2321              	.LVL199:
 2322 0000 2DE9F047 		push	{r4, r5, r6, r7, r8, r9, sl, lr}
 2323              	.LCFI12:
 2324              		.cfi_def_cfa_offset 32
 2325              		.cfi_offset 14, -4
 2326              		.cfi_offset 10, -8
 2327              		.cfi_offset 9, -12
 2328              		.cfi_offset 8, -16
 2329              		.cfi_offset 7, -20
 2330              		.cfi_offset 6, -24
 2331              		.cfi_offset 5, -28
 2332              		.cfi_offset 4, -32
ARM GAS  /var/folders/5n/p_75w94d66l9ssrldxqdhh700000gn/T//cc4n8EPc.s 			page 42


 2333 0004 82B0     		sub	sp, sp, #8
 2334              	.LCFI13:
 2335              		.cfi_def_cfa_offset 40
 2336              		.loc 1 1190 0
 2337 0006 0646     		mov	r6, r0
 2338 0008 8A46     		mov	sl, r1
 2339 000a 1746     		mov	r7, r2
 2340              		.loc 1 1193 0
 2341 000c 0120     		movs	r0, #1
 2342              	.LVL200:
 2343 000e 1421     		movs	r1, #20
 2344              	.LVL201:
 2345 0010 0022     		movs	r2, #0
 2346              	.LVL202:
 2347              		.loc 1 1190 0
 2348 0012 9846     		mov	r8, r3
 2349 0014 BDF82840 		ldrh	r4, [sp, #40]
 2350 0018 BDF82C90 		ldrh	r9, [sp, #44]
 2351              		.loc 1 1193 0
 2352 001c FFF7FEFF 		bl	pbuf_alloc
 2353              	.LVL203:
 2354              		.loc 1 1194 0
 2355 0020 0546     		mov	r5, r0
 2356 0022 0028     		cmp	r0, #0
 2357 0024 61D0     		beq	.L218
 2358              		.loc 1 1198 0
 2359 0026 4389     		ldrh	r3, [r0, #10]
 2360 0028 132B     		cmp	r3, #19
 2361 002a 5BD9     		bls	.L221
 2362              	.LVL204:
 2363              	.L220:
 2364              		.loc 1 1202 0
 2365 002c 2046     		mov	r0, r4
 2366              		.loc 1 1201 0
 2367 002e 6C68     		ldr	r4, [r5, #4]
 2368              	.LVL205:
 2369              		.loc 1 1202 0
 2370 0030 FFF7FEFF 		bl	lwip_htons
 2371              	.LVL206:
 2372 0034 C0F30F23 		ubfx	r3, r0, #8, #16
 2373 0038 2070     		strb	r0, [r4, #0]
 2374 003a 6370     		strb	r3, [r4, #1]
 2375              		.loc 1 1203 0
 2376 003c 4846     		mov	r0, r9
 2377 003e FFF7FEFF 		bl	lwip_htons
 2378 0042 C0F30F23 		ubfx	r3, r0, #8, #16
 2379 0046 A070     		strb	r0, [r4, #2]
 2380 0048 E370     		strb	r3, [r4, #3]
 2381              		.loc 1 1204 0
 2382 004a 3046     		mov	r0, r6
 2383 004c FFF7FEFF 		bl	lwip_htonl
 2384 0050 030E     		lsrs	r3, r0, #24
 2385 0052 C0F30721 		ubfx	r1, r0, #8, #8
 2386 0056 C0F30742 		ubfx	r2, r0, #16, #8
 2387 005a 2071     		strb	r0, [r4, #4]
 2388 005c 6171     		strb	r1, [r4, #5]
 2389 005e A271     		strb	r2, [r4, #6]
ARM GAS  /var/folders/5n/p_75w94d66l9ssrldxqdhh700000gn/T//cc4n8EPc.s 			page 43


 2390 0060 E371     		strb	r3, [r4, #7]
 2391              		.loc 1 1205 0
 2392 0062 5046     		mov	r0, sl
 2393 0064 FFF7FEFF 		bl	lwip_htonl
 2394 0068 030E     		lsrs	r3, r0, #24
 2395 006a C0F30721 		ubfx	r1, r0, #8, #8
 2396 006e C0F30742 		ubfx	r2, r0, #16, #8
 2397 0072 2072     		strb	r0, [r4, #8]
 2398 0074 6172     		strb	r1, [r4, #9]
 2399 0076 A272     		strb	r2, [r4, #10]
 2400 0078 E372     		strb	r3, [r4, #11]
 2401              		.loc 1 1206 0
 2402 007a 45F21400 		movw	r0, #20500
 2403 007e FFF7FEFF 		bl	lwip_htons
 2404 0082 C0F30F23 		ubfx	r3, r0, #8, #16
 2405 0086 6373     		strb	r3, [r4, #13]
 2406              		.loc 1 1207 0
 2407 0088 0823     		movs	r3, #8
 2408              		.loc 1 1202 0
 2409 008a 0026     		movs	r6, #0
 2410              	.LVL207:
 2411              		.loc 1 1207 0
 2412 008c A373     		strb	r3, [r4, #14]
 2413 008e 6023     		movs	r3, #96
 2414              		.loc 1 1206 0
 2415 0090 2073     		strb	r0, [r4, #12]
 2416              		.loc 1 1207 0
 2417 0092 E373     		strb	r3, [r4, #15]
 2418              		.loc 1 1208 0
 2419 0094 2674     		strb	r6, [r4, #16]
 2420 0096 6674     		strb	r6, [r4, #17]
 2421              		.loc 1 1209 0
 2422 0098 A674     		strb	r6, [r4, #18]
 2423 009a E674     		strb	r6, [r4, #19]
 2424              		.loc 1 1212 0
 2425 009c B5F808E0 		ldrh	lr, [r5, #8]
 2426 00a0 3946     		mov	r1, r7
 2427 00a2 4246     		mov	r2, r8
 2428 00a4 0623     		movs	r3, #6
 2429 00a6 2846     		mov	r0, r5
 2430 00a8 CDF800E0 		str	lr, [sp, #0]
 2431 00ac FFF7FEFF 		bl	inet_chksum_pseudo
 2432              		.loc 1 1215 0
 2433 00b0 DFF83CE0 		ldr	lr, .L222
 2434              		.loc 1 1212 0
 2435 00b4 2074     		strb	r0, [r4, #16]
 2436 00b6 C0F30F23 		ubfx	r3, r0, #8, #16
 2437 00ba 6374     		strb	r3, [r4, #17]
 2438              		.loc 1 1215 0
 2439 00bc BEF89040 		ldrh	r4, [lr, #144]
 2440              	.LVL208:
 2441              		.loc 1 1218 0
 2442 00c0 0096     		str	r6, [sp, #0]
 2443              		.loc 1 1215 0
 2444 00c2 0134     		adds	r4, r4, #1
 2445 00c4 AEF89040 		strh	r4, [lr, #144]	@ movhi
 2446              		.loc 1 1218 0
ARM GAS  /var/folders/5n/p_75w94d66l9ssrldxqdhh700000gn/T//cc4n8EPc.s 			page 44


 2447 00c8 2846     		mov	r0, r5
 2448 00ca 3946     		mov	r1, r7
 2449 00cc 4246     		mov	r2, r8
 2450 00ce FF23     		movs	r3, #255
 2451 00d0 0624     		movs	r4, #6
 2452 00d2 0194     		str	r4, [sp, #4]
 2453 00d4 FFF7FEFF 		bl	ip_output
 2454              		.loc 1 1219 0
 2455 00d8 2846     		mov	r0, r5
 2456              		.loc 1 1221 0
 2457 00da 02B0     		add	sp, sp, #8
 2458 00dc BDE8F047 		pop	{r4, r5, r6, r7, r8, r9, sl, lr}
 2459              		.loc 1 1219 0
 2460 00e0 FFF7FEBF 		b	pbuf_free
 2461              	.LVL209:
 2462              	.L221:
 2463              		.loc 1 1198 0 discriminator 1
 2464 00e4 FFF7FEFF 		bl	port_halt
 2465 00e8 A0E7     		b	.L220
 2466              	.L218:
 2467              		.loc 1 1221 0
 2468 00ea 02B0     		add	sp, sp, #8
 2469 00ec BDE8F087 		pop	{r4, r5, r6, r7, r8, r9, sl, pc}
 2470              	.L223:
 2471              		.align	2
 2472              	.L222:
 2473 00f0 00000000 		.word	lwip_stats
 2474              		.cfi_endproc
 2475              	.LFE17:
 2476              		.size	tcp_rst, .-tcp_rst
 2477 00f4 AFF30080 		.section	.text.tcp_rexmit_rto,"ax",%progbits
 2477      AFF30080 
 2477      AFF30080 
 2478              		.align	2
 2479              		.p2align 4,,15
 2480              		.global	tcp_rexmit_rto
 2481              		.thumb
 2482              		.thumb_func
 2483              		.type	tcp_rexmit_rto, %function
 2484              	tcp_rexmit_rto:
 2485              	.LFB18:
 2486              		.loc 1 1232 0
 2487              		.cfi_startproc
 2488              		@ args = 0, pretend = 0, frame = 0
 2489              		@ frame_needed = 0, uses_anonymous_args = 0
 2490              		@ link register save eliminated.
 2491              	.LVL210:
 2492              		.loc 1 1235 0
 2493 0000 816F     		ldr	r1, [r0, #120]
 2494              		.loc 1 1232 0
 2495 0002 10B4     		push	{r4}
 2496              	.LCFI14:
 2497              		.cfi_def_cfa_offset 4
 2498              		.cfi_offset 4, -4
 2499              		.loc 1 1235 0
 2500 0004 0A46     		mov	r2, r1
 2501 0006 09B9     		cbnz	r1, .L226
ARM GAS  /var/folders/5n/p_75w94d66l9ssrldxqdhh700000gn/T//cc4n8EPc.s 			page 45


 2502 0008 10E0     		b	.L229
 2503              	.LVL211:
 2504              	.L227:
 2505              		.loc 1 1240 0
 2506 000a 1A46     		mov	r2, r3
 2507              	.LVL212:
 2508              	.L226:
 2509              		.loc 1 1240 0 is_stmt 0 discriminator 1
 2510 000c 1368     		ldr	r3, [r2, #0]
 2511 000e 002B     		cmp	r3, #0
 2512 0010 FBD1     		bne	.L227
 2513              		.loc 1 1242 0 is_stmt 1
 2514 0012 446F     		ldr	r4, [r0, #116]
 2515 0014 1460     		str	r4, [r2, #0]
 2516              		.loc 1 1249 0
 2517 0016 90F84A20 		ldrb	r2, [r0, #74]	@ zero_extendqisi2
 2518              	.LVL213:
 2519              		.loc 1 1244 0
 2520 001a 4167     		str	r1, [r0, #116]
 2521              		.loc 1 1249 0
 2522 001c 0132     		adds	r2, r2, #1
 2523              		.loc 1 1246 0
 2524 001e 8367     		str	r3, [r0, #120]
 2525              		.loc 1 1249 0
 2526 0020 80F84A20 		strb	r2, [r0, #74]
 2527              		.loc 1 1252 0
 2528 0024 C363     		str	r3, [r0, #60]
 2529              		.loc 1 1256 0
 2530 0026 10BC     		pop	{r4}
 2531              		.loc 1 1255 0
 2532 0028 FFF7FEBF 		b	tcp_output
 2533              	.LVL214:
 2534              	.L229:
 2535              		.loc 1 1256 0
 2536 002c 10BC     		pop	{r4}
 2537 002e 7047     		bx	lr
 2538              		.cfi_endproc
 2539              	.LFE18:
 2540              		.size	tcp_rexmit_rto, .-tcp_rexmit_rto
 2541              		.section	.text.tcp_rexmit,"ax",%progbits
 2542              		.align	2
 2543              		.p2align 4,,15
 2544              		.global	tcp_rexmit
 2545              		.thumb
 2546              		.thumb_func
 2547              		.type	tcp_rexmit, %function
 2548              	tcp_rexmit:
 2549              	.LFB19:
 2550              		.loc 1 1267 0
 2551              		.cfi_startproc
 2552              		@ args = 0, pretend = 0, frame = 0
 2553              		@ frame_needed = 0, uses_anonymous_args = 0
 2554              	.LVL215:
 2555 0000 F8B5     		push	{r3, r4, r5, r6, r7, lr}
 2556              	.LCFI15:
 2557              		.cfi_def_cfa_offset 24
 2558              		.cfi_offset 14, -4
ARM GAS  /var/folders/5n/p_75w94d66l9ssrldxqdhh700000gn/T//cc4n8EPc.s 			page 46


 2559              		.cfi_offset 7, -8
 2560              		.cfi_offset 6, -12
 2561              		.cfi_offset 5, -16
 2562              		.cfi_offset 4, -20
 2563              		.cfi_offset 3, -24
 2564              		.loc 1 1271 0
 2565 0002 866F     		ldr	r6, [r0, #120]
 2566              		.loc 1 1267 0
 2567 0004 0746     		mov	r7, r0
 2568              		.loc 1 1271 0
 2569 0006 002E     		cmp	r6, #0
 2570 0008 32D0     		beq	.L230
 2571              	.LVL216:
 2572              		.loc 1 1278 0
 2573 000a 3268     		ldr	r2, [r6, #0]
 2574              		.loc 1 1281 0
 2575 000c 436F     		ldr	r3, [r0, #116]
 2576              		.loc 1 1278 0
 2577 000e 8267     		str	r2, [r0, #120]
 2578              		.loc 1 1280 0
 2579 0010 00F17404 		add	r4, r0, #116
 2580              	.LVL217:
 2581              		.loc 1 1281 0
 2582 0014 1BB9     		cbnz	r3, .L236
 2583 0016 22E0     		b	.L233
 2584              	.LVL218:
 2585              	.L235:
 2586              		.loc 1 1283 0
 2587 0018 2468     		ldr	r4, [r4, #0]
 2588              	.LVL219:
 2589              		.loc 1 1281 0
 2590 001a 2368     		ldr	r3, [r4, #0]
 2591 001c FBB1     		cbz	r3, .L233
 2592              	.L236:
 2593              		.loc 1 1282 0 discriminator 2
 2594 001e DB68     		ldr	r3, [r3, #12]
 2595 0020 1979     		ldrb	r1, [r3, #4]	@ zero_extendqisi2
 2596 0022 5D79     		ldrb	r5, [r3, #5]	@ zero_extendqisi2
 2597 0024 9A79     		ldrb	r2, [r3, #6]	@ zero_extendqisi2
 2598 0026 D879     		ldrb	r0, [r3, #7]	@ zero_extendqisi2
 2599 0028 41EA0523 		orr	r3, r1, r5, lsl #8
 2600 002c 43EA0243 		orr	r3, r3, r2, lsl #16
 2601 0030 43EA0060 		orr	r0, r3, r0, lsl #24
 2602 0034 FFF7FEFF 		bl	lwip_ntohl
 2603 0038 F368     		ldr	r3, [r6, #12]
 2604 003a 1979     		ldrb	r1, [r3, #4]	@ zero_extendqisi2
 2605 003c 93F805E0 		ldrb	lr, [r3, #5]	@ zero_extendqisi2
 2606 0040 9A79     		ldrb	r2, [r3, #6]	@ zero_extendqisi2
 2607 0042 0546     		mov	r5, r0
 2608 0044 D879     		ldrb	r0, [r3, #7]	@ zero_extendqisi2
 2609 0046 41EA0E23 		orr	r3, r1, lr, lsl #8
 2610 004a 43EA0243 		orr	r3, r3, r2, lsl #16
 2611 004e 43EA0060 		orr	r0, r3, r0, lsl #24
 2612 0052 FFF7FEFF 		bl	lwip_ntohl
 2613 0056 281A     		subs	r0, r5, r0
 2614              		.loc 1 1281 0 discriminator 2
 2615 0058 0028     		cmp	r0, #0
ARM GAS  /var/folders/5n/p_75w94d66l9ssrldxqdhh700000gn/T//cc4n8EPc.s 			page 47


 2616 005a DDDB     		blt	.L235
 2617              		.loc 1 1281 0 is_stmt 0
 2618 005c 2368     		ldr	r3, [r4, #0]
 2619              	.L233:
 2620              		.loc 1 1285 0 is_stmt 1
 2621 005e 3360     		str	r3, [r6, #0]
 2622              		.loc 1 1286 0
 2623 0060 2660     		str	r6, [r4, #0]
 2624              		.loc 1 1288 0
 2625 0062 97F84A30 		ldrb	r3, [r7, #74]	@ zero_extendqisi2
 2626 0066 0133     		adds	r3, r3, #1
 2627 0068 87F84A30 		strb	r3, [r7, #74]
 2628              		.loc 1 1291 0
 2629 006c 0023     		movs	r3, #0
 2630 006e FB63     		str	r3, [r7, #60]
 2631              	.LVL220:
 2632              	.L230:
 2633 0070 F8BD     		pop	{r3, r4, r5, r6, r7, pc}
 2634              		.cfi_endproc
 2635              	.LFE19:
 2636              		.size	tcp_rexmit, .-tcp_rexmit
 2637 0072 00BFAFF3 		.section	.text.tcp_rexmit_fast,"ax",%progbits
 2637      0080AFF3 
 2637      0080AFF3 
 2637      0080
 2638              		.align	2
 2639              		.p2align 4,,15
 2640              		.global	tcp_rexmit_fast
 2641              		.thumb
 2642              		.thumb_func
 2643              		.type	tcp_rexmit_fast, %function
 2644              	tcp_rexmit_fast:
 2645              	.LFB20:
 2646              		.loc 1 1307 0
 2647              		.cfi_startproc
 2648              		@ args = 0, pretend = 0, frame = 0
 2649              		@ frame_needed = 0, uses_anonymous_args = 0
 2650              	.LVL221:
 2651              		.loc 1 1308 0
 2652 0000 836F     		ldr	r3, [r0, #120]
 2653              		.loc 1 1307 0
 2654 0002 10B5     		push	{r4, lr}
 2655              	.LCFI16:
 2656              		.cfi_def_cfa_offset 8
 2657              		.cfi_offset 14, -4
 2658              		.cfi_offset 4, -8
 2659              		.loc 1 1307 0
 2660 0004 0446     		mov	r4, r0
 2661              		.loc 1 1308 0
 2662 0006 1BB1     		cbz	r3, .L238
 2663              		.loc 1 1308 0 is_stmt 0 discriminator 1
 2664 0008 90F82030 		ldrb	r3, [r0, #32]	@ zero_extendqisi2
 2665 000c 5B07     		lsls	r3, r3, #29
 2666 000e 00D5     		bpl	.L243
 2667              	.L238:
 2668 0010 10BD     		pop	{r4, pc}
 2669              	.L243:
ARM GAS  /var/folders/5n/p_75w94d66l9ssrldxqdhh700000gn/T//cc4n8EPc.s 			page 48


 2670              		.loc 1 1315 0 is_stmt 1
 2671 0012 FFF7FEFF 		bl	tcp_rexmit
 2672              	.LVL222:
 2673              		.loc 1 1319 0
 2674 0016 B4F85230 		ldrh	r3, [r4, #82]
 2675 001a B4F85C20 		ldrh	r2, [r4, #92]
 2676 001e 9342     		cmp	r3, r2
 2677 0020 15D8     		bhi	.L244
 2678              		.loc 1 1322 0
 2679 0022 5B08     		lsrs	r3, r3, #1
 2680 0024 A4F85430 		strh	r3, [r4, #84]	@ movhi
 2681              	.L241:
 2682              		.loc 1 1326 0
 2683 0028 218F     		ldrh	r1, [r4, #56]
 2684              		.loc 1 1335 0
 2685 002a 94F82000 		ldrb	r0, [r4, #32]	@ zero_extendqisi2
 2686              		.loc 1 1326 0
 2687 002e 4A00     		lsls	r2, r1, #1
 2688 0030 9342     		cmp	r3, r2
 2689              		.loc 1 1331 0
 2690 0032 B8BF     		it	lt
 2691 0034 93B2     		uxthlt	r3, r2
 2692              		.loc 1 1334 0
 2693 0036 0A44     		add	r2, r2, r1
 2694              		.loc 1 1331 0
 2695 0038 B8BF     		it	lt
 2696 003a A4F85430 		strhlt	r3, [r4, #84]	@ movhi
 2697              		.loc 1 1335 0
 2698 003e 40F00400 		orr	r0, r0, #4
 2699              		.loc 1 1334 0
 2700 0042 9B18     		adds	r3, r3, r2
 2701 0044 A4F85230 		strh	r3, [r4, #82]	@ movhi
 2702              		.loc 1 1335 0
 2703 0048 84F82000 		strb	r0, [r4, #32]
 2704 004c 10BD     		pop	{r4, pc}
 2705              	.L244:
 2706              		.loc 1 1320 0
 2707 004e 5308     		lsrs	r3, r2, #1
 2708 0050 A4F85430 		strh	r3, [r4, #84]	@ movhi
 2709 0054 E8E7     		b	.L241
 2710              		.cfi_endproc
 2711              	.LFE20:
 2712              		.size	tcp_rexmit_fast, .-tcp_rexmit_fast
 2713 0056 00BFAFF3 		.section	.text.tcp_keepalive,"ax",%progbits
 2713      0080AFF3 
 2713      0080
 2714              		.align	2
 2715              		.p2align 4,,15
 2716              		.global	tcp_keepalive
 2717              		.thumb
 2718              		.thumb_func
 2719              		.type	tcp_keepalive, %function
 2720              	tcp_keepalive:
 2721              	.LFB21:
 2722              		.loc 1 1350 0
 2723              		.cfi_startproc
 2724              		@ args = 0, pretend = 0, frame = 0
ARM GAS  /var/folders/5n/p_75w94d66l9ssrldxqdhh700000gn/T//cc4n8EPc.s 			page 49


 2725              		@ frame_needed = 0, uses_anonymous_args = 0
 2726              	.LVL223:
 2727 0000 F0B5     		push	{r4, r5, r6, r7, lr}
 2728              	.LCFI17:
 2729              		.cfi_def_cfa_offset 20
 2730              		.cfi_offset 14, -4
 2731              		.cfi_offset 7, -8
 2732              		.cfi_offset 6, -12
 2733              		.cfi_offset 5, -16
 2734              		.cfi_offset 4, -20
 2735 0002 0446     		mov	r4, r0
 2736              		.loc 1 1361 0
 2737 0004 806D     		ldr	r0, [r0, #88]
 2738              	.LVL224:
 2739              		.loc 1 1350 0
 2740 0006 83B0     		sub	sp, sp, #12
 2741              	.LCFI18:
 2742              		.cfi_def_cfa_offset 32
 2743              		.loc 1 1361 0
 2744 0008 0138     		subs	r0, r0, #1
 2745 000a FFF7FEFF 		bl	lwip_htonl
 2746 000e 0021     		movs	r1, #0
 2747 0010 0246     		mov	r2, r0
 2748 0012 2046     		mov	r0, r4
 2749 0014 FFF7FEFF 		bl	tcp_output_alloc_header.constprop.0
 2750              	.LVL225:
 2751              		.loc 1 1362 0
 2752 0018 0546     		mov	r5, r0
 2753 001a 0028     		cmp	r0, #0
 2754 001c 22D0     		beq	.L245
 2755              		.loc 1 1370 0
 2756 001e 0389     		ldrh	r3, [r0, #8]
 2757              		.loc 1 1367 0
 2758 0020 4768     		ldr	r7, [r0, #4]
 2759              	.LVL226:
 2760              		.loc 1 1370 0
 2761 0022 0093     		str	r3, [sp, #0]
 2762 0024 261D     		adds	r6, r4, #4
 2763 0026 2146     		mov	r1, r4
 2764 0028 3246     		mov	r2, r6
 2765 002a 0623     		movs	r3, #6
 2766 002c FFF7FEFF 		bl	inet_chksum_pseudo
 2767              	.LVL227:
 2768              		.loc 1 1373 0
 2769 0030 0D4B     		ldr	r3, .L247
 2770              		.loc 1 1370 0
 2771 0032 3874     		strb	r0, [r7, #16]
 2772 0034 C0F30F22 		ubfx	r2, r0, #8, #16
 2773 0038 7A74     		strb	r2, [r7, #17]
 2774              		.loc 1 1373 0
 2775 003a B3F89020 		ldrh	r2, [r3, #144]
 2776 003e 0132     		adds	r2, r2, #1
 2777 0040 A3F89020 		strh	r2, [r3, #144]	@ movhi
 2778              		.loc 1 1380 0
 2779 0044 A37A     		ldrb	r3, [r4, #10]	@ zero_extendqisi2
 2780 0046 2146     		mov	r1, r4
 2781 0048 0024     		movs	r4, #0
ARM GAS  /var/folders/5n/p_75w94d66l9ssrldxqdhh700000gn/T//cc4n8EPc.s 			page 50


 2782              	.LVL228:
 2783 004a 0094     		str	r4, [sp, #0]
 2784 004c 2846     		mov	r0, r5
 2785 004e 3246     		mov	r2, r6
 2786 0050 0624     		movs	r4, #6
 2787 0052 0194     		str	r4, [sp, #4]
 2788 0054 FFF7FEFF 		bl	ip_output
 2789              	.LVL229:
 2790              		.loc 1 1383 0
 2791 0058 2846     		mov	r0, r5
 2792              		.loc 1 1387 0
 2793 005a 03B0     		add	sp, sp, #12
 2794 005c BDE8F040 		pop	{r4, r5, r6, r7, lr}
 2795              		.loc 1 1383 0
 2796 0060 FFF7FEBF 		b	pbuf_free
 2797              	.LVL230:
 2798              	.L245:
 2799              		.loc 1 1387 0
 2800 0064 03B0     		add	sp, sp, #12
 2801 0066 F0BD     		pop	{r4, r5, r6, r7, pc}
 2802              	.L248:
 2803              		.align	2
 2804              	.L247:
 2805 0068 00000000 		.word	lwip_stats
 2806              		.cfi_endproc
 2807              	.LFE21:
 2808              		.size	tcp_keepalive, .-tcp_keepalive
 2809 006c AFF30080 		.section	.text.tcp_zero_window_probe,"ax",%progbits
 2810              		.align	2
 2811              		.p2align 4,,15
 2812              		.global	tcp_zero_window_probe
 2813              		.thumb
 2814              		.thumb_func
 2815              		.type	tcp_zero_window_probe, %function
 2816              	tcp_zero_window_probe:
 2817              	.LFB22:
 2818              		.loc 1 1400 0
 2819              		.cfi_startproc
 2820              		@ args = 0, pretend = 0, frame = 0
 2821              		@ frame_needed = 0, uses_anonymous_args = 0
 2822              	.LVL231:
 2823 0000 2DE9F041 		push	{r4, r5, r6, r7, r8, lr}
 2824              	.LCFI19:
 2825              		.cfi_def_cfa_offset 24
 2826              		.cfi_offset 14, -4
 2827              		.cfi_offset 8, -8
 2828              		.cfi_offset 7, -12
 2829              		.cfi_offset 6, -16
 2830              		.cfi_offset 5, -20
 2831              		.cfi_offset 4, -24
 2832              		.loc 1 1418 0
 2833 0004 876F     		ldr	r7, [r0, #120]
 2834              	.LVL232:
 2835              		.loc 1 1400 0
 2836 0006 82B0     		sub	sp, sp, #8
 2837              	.LCFI20:
 2838              		.cfi_def_cfa_offset 32
ARM GAS  /var/folders/5n/p_75w94d66l9ssrldxqdhh700000gn/T//cc4n8EPc.s 			page 51


 2839              		.loc 1 1400 0
 2840 0008 0446     		mov	r4, r0
 2841              		.loc 1 1420 0
 2842 000a 002F     		cmp	r7, #0
 2843 000c 72D0     		beq	.L257
 2844              	.LVL233:
 2845              	.L250:
 2846              		.loc 1 1427 0
 2847 000e FB68     		ldr	r3, [r7, #12]
 2848 0010 1A7B     		ldrb	r2, [r3, #12]	@ zero_extendqisi2
 2849 0012 587B     		ldrb	r0, [r3, #13]	@ zero_extendqisi2
 2850              	.LVL234:
 2851 0014 42EA0020 		orr	r0, r2, r0, lsl #8
 2852 0018 FFF7FEFF 		bl	lwip_ntohs
 2853 001c 0121     		movs	r1, #1
 2854 001e 10F00108 		ands	r8, r0, #1
 2855 0022 4DD1     		bne	.L258
 2856              	.L252:
 2857              	.LVL235:
 2858              		.loc 1 1431 0 discriminator 3
 2859 0024 FA68     		ldr	r2, [r7, #12]
 2860 0026 5579     		ldrb	r5, [r2, #5]	@ zero_extendqisi2
 2861 0028 1379     		ldrb	r3, [r2, #4]	@ zero_extendqisi2
 2862 002a 9079     		ldrb	r0, [r2, #6]	@ zero_extendqisi2
 2863 002c D279     		ldrb	r2, [r2, #7]	@ zero_extendqisi2
 2864 002e 43EA0523 		orr	r3, r3, r5, lsl #8
 2865 0032 43EA0043 		orr	r3, r3, r0, lsl #16
 2866 0036 43EA0262 		orr	r2, r3, r2, lsl #24
 2867 003a 2046     		mov	r0, r4
 2868 003c FFF7FEFF 		bl	tcp_output_alloc_header.constprop.0
 2869              	.LVL236:
 2870              		.loc 1 1432 0 discriminator 3
 2871 0040 0546     		mov	r5, r0
 2872 0042 0028     		cmp	r0, #0
 2873 0044 59D0     		beq	.L249
 2874              		.loc 1 1436 0
 2875 0046 4668     		ldr	r6, [r0, #4]
 2876              	.LVL237:
 2877              		.loc 1 1438 0
 2878 0048 B8F1000F 		cmp	r8, #0
 2879 004c 42D1     		bne	.L259
 2880              	.LBB52:
 2881              		.loc 1 1443 0
 2882 004e 7F68     		ldr	r7, [r7, #4]
 2883              	.LVL238:
 2884              		.loc 1 1445 0
 2885 0050 7B68     		ldr	r3, [r7, #4]
 2886 0052 1A7B     		ldrb	r2, [r3, #12]	@ zero_extendqisi2
 2887 0054 587B     		ldrb	r0, [r3, #13]	@ zero_extendqisi2
 2888              	.LVL239:
 2889 0056 42EA0020 		orr	r0, r2, r0, lsl #8
 2890 005a FFF7FEFF 		bl	lwip_ntohs
 2891              	.LVL240:
 2892 005e 4FF6FC73 		movw	r3, #65532
 2893 0062 4FEA902E 		lsr	lr, r0, #10
 2894 0066 06F11401 		add	r1, r6, #20
 2895 006a 3846     		mov	r0, r7
ARM GAS  /var/folders/5n/p_75w94d66l9ssrldxqdhh700000gn/T//cc4n8EPc.s 			page 52


 2896 006c 0122     		movs	r2, #1
 2897 006e 0EEA0303 		and	r3, lr, r3
 2898 0072 FFF7FEFF 		bl	pbuf_copy_partial
 2899              	.LVL241:
 2900              	.L254:
 2901              	.LBE52:
 2902              		.loc 1 1449 0
 2903 0076 271D     		adds	r7, r4, #4
 2904 0078 B5F808E0 		ldrh	lr, [r5, #8]
 2905 007c 2146     		mov	r1, r4
 2906 007e 3A46     		mov	r2, r7
 2907 0080 0623     		movs	r3, #6
 2908 0082 2846     		mov	r0, r5
 2909 0084 CDF800E0 		str	lr, [sp, #0]
 2910 0088 FFF7FEFF 		bl	inet_chksum_pseudo
 2911              		.loc 1 1452 0
 2912 008c 1C4B     		ldr	r3, .L260
 2913              		.loc 1 1449 0
 2914 008e 3074     		strb	r0, [r6, #16]
 2915 0090 C0F30F22 		ubfx	r2, r0, #8, #16
 2916 0094 7274     		strb	r2, [r6, #17]
 2917              		.loc 1 1452 0
 2918 0096 B3F89020 		ldrh	r2, [r3, #144]
 2919 009a 0132     		adds	r2, r2, #1
 2920 009c A3F89020 		strh	r2, [r3, #144]	@ movhi
 2921              		.loc 1 1459 0
 2922 00a0 A37A     		ldrb	r3, [r4, #10]	@ zero_extendqisi2
 2923 00a2 2146     		mov	r1, r4
 2924 00a4 0024     		movs	r4, #0
 2925              	.LVL242:
 2926 00a6 0094     		str	r4, [sp, #0]
 2927 00a8 2846     		mov	r0, r5
 2928 00aa 3A46     		mov	r2, r7
 2929 00ac 0624     		movs	r4, #6
 2930 00ae 0194     		str	r4, [sp, #4]
 2931 00b0 FFF7FEFF 		bl	ip_output
 2932              	.LVL243:
 2933              		.loc 1 1462 0
 2934 00b4 2846     		mov	r0, r5
 2935              		.loc 1 1467 0
 2936 00b6 02B0     		add	sp, sp, #8
 2937 00b8 BDE8F041 		pop	{r4, r5, r6, r7, r8, lr}
 2938              		.loc 1 1462 0
 2939 00bc FFF7FEBF 		b	pbuf_free
 2940              	.LVL244:
 2941              	.L258:
 2942              		.loc 1 1427 0 discriminator 1
 2943 00c0 3989     		ldrh	r1, [r7, #8]
 2944 00c2 0029     		cmp	r1, #0
 2945 00c4 18BF     		it	ne
 2946 00c6 0121     		movne	r1, #1
 2947 00c8 14BF     		ite	ne
 2948 00ca 4FF00008 		movne	r8, #0
 2949 00ce 4FF00108 		moveq	r8, #1
 2950 00d2 A7E7     		b	.L252
 2951              	.LVL245:
 2952              	.L259:
ARM GAS  /var/folders/5n/p_75w94d66l9ssrldxqdhh700000gn/T//cc4n8EPc.s 			page 53


 2953              		.loc 1 1440 0
 2954 00d4 337B     		ldrb	r3, [r6, #12]	@ zero_extendqisi2
 2955 00d6 727B     		ldrb	r2, [r6, #13]	@ zero_extendqisi2
 2956 00d8 4CF2FF07 		movw	r7, #49407
 2957              	.LVL246:
 2958 00dc 43EA0223 		orr	r3, r3, r2, lsl #8
 2959 00e0 1120     		movs	r0, #17
 2960              	.LVL247:
 2961 00e2 1F40     		ands	r7, r7, r3
 2962 00e4 FFF7FEFF 		bl	lwip_htons
 2963 00e8 0743     		orrs	r7, r7, r0
 2964 00ea BFB2     		uxth	r7, r7
 2965 00ec 3B0A     		lsrs	r3, r7, #8
 2966 00ee 3773     		strb	r7, [r6, #12]
 2967 00f0 7373     		strb	r3, [r6, #13]
 2968 00f2 C0E7     		b	.L254
 2969              	.LVL248:
 2970              	.L257:
 2971              		.loc 1 1421 0
 2972 00f4 476F     		ldr	r7, [r0, #116]
 2973              	.LVL249:
 2974              		.loc 1 1423 0
 2975 00f6 002F     		cmp	r7, #0
 2976 00f8 89D1     		bne	.L250
 2977              	.LVL250:
 2978              	.L249:
 2979              		.loc 1 1467 0
 2980 00fa 02B0     		add	sp, sp, #8
 2981 00fc BDE8F081 		pop	{r4, r5, r6, r7, r8, pc}
 2982              	.L261:
 2983              		.align	2
 2984              	.L260:
 2985 0100 00000000 		.word	lwip_stats
 2986              		.cfi_endproc
 2987              	.LFE22:
 2988              		.size	tcp_zero_window_probe, .-tcp_zero_window_probe
 2989 0104 AFF30080 		.text
 2989      AFF30080 
 2989      AFF30080 
 2990              	.Letext0:
 2991              		.file 2 "/usr/local/summon/lib/gcc/arm-none-eabi/4.6.2/../../../../arm-none-eabi/include/stdint.h"
 2992              		.file 3 "../../os/various/lwip_bindings/arch/cc.h"
 2993              		.file 4 "../../ext/lwip/src/include/lwip/err.h"
 2994              		.file 5 "../../ext/lwip/src/include/lwip/mem.h"
 2995              		.file 6 "../../ext/lwip/src/include/lwip/pbuf.h"
 2996              		.file 7 "../../ext/lwip/src/include/ipv4/lwip/ip_addr.h"
 2997              		.file 8 "../../ext/lwip/src/include/lwip/netif.h"
 2998              		.file 9 "../../ext/lwip/src/include/lwip/tcp.h"
 2999              		.file 10 "../../ext/lwip/src/include/lwip/tcp_impl.h"
 3000              		.file 11 "../../ext/lwip/src/include/lwip/memp.h"
 3001              		.file 12 "../../ext/lwip/src/include/lwip/stats.h"
 3002              		.section	.debug_info,"",%progbits
 3003              	.Ldebug_info0:
 3004 0000 E9130000 		.4byte	0x13e9
 3005 0004 0200     		.2byte	0x2
 3006 0006 00000000 		.4byte	.Ldebug_abbrev0
 3007 000a 04       		.byte	0x4
ARM GAS  /var/folders/5n/p_75w94d66l9ssrldxqdhh700000gn/T//cc4n8EPc.s 			page 54


 3008 000b 01       		.uleb128 0x1
 3009 000c B5030000 		.4byte	.LASF210
 3010 0010 01       		.byte	0x1
 3011 0011 FD000000 		.4byte	.LASF211
 3012 0015 92040000 		.4byte	.LASF212
 3013 0019 00000000 		.4byte	0
 3014 001d 00000000 		.4byte	0
 3015 0021 48010000 		.4byte	.Ldebug_ranges0+0x148
 3016 0025 00000000 		.4byte	.Ldebug_line0
 3017 0029 02       		.uleb128 0x2
 3018 002a 04       		.byte	0x4
 3019 002b 05       		.byte	0x5
 3020 002c 696E7400 		.ascii	"int\000"
 3021 0030 03       		.uleb128 0x3
 3022 0031 04       		.byte	0x4
 3023 0032 07       		.byte	0x7
 3024 0033 A2000000 		.4byte	.LASF0
 3025 0037 04       		.uleb128 0x4
 3026 0038 E2010000 		.4byte	.LASF2
 3027 003c 02       		.byte	0x2
 3028 003d 29       		.byte	0x29
 3029 003e 42000000 		.4byte	0x42
 3030 0042 03       		.uleb128 0x3
 3031 0043 01       		.byte	0x1
 3032 0044 06       		.byte	0x6
 3033 0045 28080000 		.4byte	.LASF1
 3034 0049 04       		.uleb128 0x4
 3035 004a 0A040000 		.4byte	.LASF3
 3036 004e 02       		.byte	0x2
 3037 004f 2A       		.byte	0x2a
 3038 0050 54000000 		.4byte	0x54
 3039 0054 03       		.uleb128 0x3
 3040 0055 01       		.byte	0x1
 3041 0056 08       		.byte	0x8
 3042 0057 87070000 		.4byte	.LASF4
 3043 005b 04       		.uleb128 0x4
 3044 005c 29020000 		.4byte	.LASF5
 3045 0060 02       		.byte	0x2
 3046 0061 35       		.byte	0x35
 3047 0062 66000000 		.4byte	0x66
 3048 0066 03       		.uleb128 0x3
 3049 0067 02       		.byte	0x2
 3050 0068 05       		.byte	0x5
 3051 0069 B5050000 		.4byte	.LASF6
 3052 006d 04       		.uleb128 0x4
 3053 006e 4E050000 		.4byte	.LASF7
 3054 0072 02       		.byte	0x2
 3055 0073 36       		.byte	0x36
 3056 0074 78000000 		.4byte	0x78
 3057 0078 03       		.uleb128 0x3
 3058 0079 02       		.byte	0x2
 3059 007a 07       		.byte	0x7
 3060 007b 3C080000 		.4byte	.LASF8
 3061 007f 04       		.uleb128 0x4
 3062 0080 30070000 		.4byte	.LASF9
 3063 0084 02       		.byte	0x2
 3064 0085 4F       		.byte	0x4f
ARM GAS  /var/folders/5n/p_75w94d66l9ssrldxqdhh700000gn/T//cc4n8EPc.s 			page 55


 3065 0086 8A000000 		.4byte	0x8a
 3066 008a 03       		.uleb128 0x3
 3067 008b 04       		.byte	0x4
 3068 008c 05       		.byte	0x5
 3069 008d CD050000 		.4byte	.LASF10
 3070 0091 04       		.uleb128 0x4
 3071 0092 D9010000 		.4byte	.LASF11
 3072 0096 02       		.byte	0x2
 3073 0097 50       		.byte	0x50
 3074 0098 9C000000 		.4byte	0x9c
 3075 009c 03       		.uleb128 0x3
 3076 009d 04       		.byte	0x4
 3077 009e 07       		.byte	0x7
 3078 009f 07070000 		.4byte	.LASF12
 3079 00a3 03       		.uleb128 0x3
 3080 00a4 08       		.byte	0x8
 3081 00a5 05       		.byte	0x5
 3082 00a6 49040000 		.4byte	.LASF13
 3083 00aa 03       		.uleb128 0x3
 3084 00ab 08       		.byte	0x8
 3085 00ac 07       		.byte	0x7
 3086 00ad 4E020000 		.4byte	.LASF14
 3087 00b1 05       		.uleb128 0x5
 3088 00b2 04       		.byte	0x4
 3089 00b3 03       		.uleb128 0x3
 3090 00b4 01       		.byte	0x1
 3091 00b5 08       		.byte	0x8
 3092 00b6 A4030000 		.4byte	.LASF15
 3093 00ba 04       		.uleb128 0x4
 3094 00bb 8D040000 		.4byte	.LASF16
 3095 00bf 03       		.byte	0x3
 3096 00c0 3C       		.byte	0x3c
 3097 00c1 49000000 		.4byte	0x49
 3098 00c5 04       		.uleb128 0x4
 3099 00c6 45030000 		.4byte	.LASF17
 3100 00ca 03       		.byte	0x3
 3101 00cb 3D       		.byte	0x3d
 3102 00cc 37000000 		.4byte	0x37
 3103 00d0 04       		.uleb128 0x4
 3104 00d1 F7000000 		.4byte	.LASF18
 3105 00d5 03       		.byte	0x3
 3106 00d6 3E       		.byte	0x3e
 3107 00d7 6D000000 		.4byte	0x6d
 3108 00db 04       		.uleb128 0x4
 3109 00dc 2A070000 		.4byte	.LASF19
 3110 00e0 03       		.byte	0x3
 3111 00e1 3F       		.byte	0x3f
 3112 00e2 5B000000 		.4byte	0x5b
 3113 00e6 04       		.uleb128 0x4
 3114 00e7 A9050000 		.4byte	.LASF20
 3115 00eb 03       		.byte	0x3
 3116 00ec 40       		.byte	0x40
 3117 00ed 91000000 		.4byte	0x91
 3118 00f1 04       		.uleb128 0x4
 3119 00f2 4A030000 		.4byte	.LASF21
 3120 00f6 03       		.byte	0x3
 3121 00f7 41       		.byte	0x41
ARM GAS  /var/folders/5n/p_75w94d66l9ssrldxqdhh700000gn/T//cc4n8EPc.s 			page 56


 3122 00f8 7F000000 		.4byte	0x7f
 3123 00fc 04       		.uleb128 0x4
 3124 00fd 7B060000 		.4byte	.LASF22
 3125 0101 03       		.byte	0x3
 3126 0102 42       		.byte	0x42
 3127 0103 91000000 		.4byte	0x91
 3128 0107 04       		.uleb128 0x4
 3129 0108 DB000000 		.4byte	.LASF23
 3130 010c 04       		.byte	0x4
 3131 010d 2F       		.byte	0x2f
 3132 010e C5000000 		.4byte	0xc5
 3133 0112 04       		.uleb128 0x4
 3134 0113 D7030000 		.4byte	.LASF24
 3135 0117 05       		.byte	0x5
 3136 0118 4B       		.byte	0x4b
 3137 0119 D0000000 		.4byte	0xd0
 3138 011d 06       		.uleb128 0x6
 3139 011e 01       		.byte	0x1
 3140 011f 06       		.byte	0x6
 3141 0120 32       		.byte	0x32
 3142 0121 3E010000 		.4byte	0x13e
 3143 0125 07       		.uleb128 0x7
 3144 0126 95010000 		.4byte	.LASF25
 3145 012a 00       		.sleb128 0
 3146 012b 07       		.uleb128 0x7
 3147 012c E7020000 		.4byte	.LASF26
 3148 0130 01       		.sleb128 1
 3149 0131 07       		.uleb128 0x7
 3150 0132 38050000 		.4byte	.LASF27
 3151 0136 02       		.sleb128 2
 3152 0137 07       		.uleb128 0x7
 3153 0138 77000000 		.4byte	.LASF28
 3154 013c 03       		.sleb128 3
 3155 013d 00       		.byte	0
 3156 013e 04       		.uleb128 0x4
 3157 013f 38070000 		.4byte	.LASF29
 3158 0143 06       		.byte	0x6
 3159 0144 37       		.byte	0x37
 3160 0145 1D010000 		.4byte	0x11d
 3161 0149 06       		.uleb128 0x6
 3162 014a 01       		.byte	0x1
 3163 014b 06       		.byte	0x6
 3164 014c 39       		.byte	0x39
 3165 014d 6A010000 		.4byte	0x16a
 3166 0151 07       		.uleb128 0x7
 3167 0152 53000000 		.4byte	.LASF30
 3168 0156 00       		.sleb128 0
 3169 0157 07       		.uleb128 0x7
 3170 0158 9C080000 		.4byte	.LASF31
 3171 015c 01       		.sleb128 1
 3172 015d 07       		.uleb128 0x7
 3173 015e AC020000 		.4byte	.LASF32
 3174 0162 02       		.sleb128 2
 3175 0163 07       		.uleb128 0x7
 3176 0164 18030000 		.4byte	.LASF33
 3177 0168 03       		.sleb128 3
 3178 0169 00       		.byte	0
ARM GAS  /var/folders/5n/p_75w94d66l9ssrldxqdhh700000gn/T//cc4n8EPc.s 			page 57


 3179 016a 08       		.uleb128 0x8
 3180 016b 13030000 		.4byte	.LASF39
 3181 016f 10       		.byte	0x10
 3182 0170 06       		.byte	0x6
 3183 0171 49       		.byte	0x49
 3184 0172 D9010000 		.4byte	0x1d9
 3185 0176 09       		.uleb128 0x9
 3186 0177 C0000000 		.4byte	.LASF34
 3187 017b 06       		.byte	0x6
 3188 017c 4B       		.byte	0x4b
 3189 017d D9010000 		.4byte	0x1d9
 3190 0181 02       		.byte	0x2
 3191 0182 23       		.byte	0x23
 3192 0183 00       		.uleb128 0
 3193 0184 09       		.uleb128 0x9
 3194 0185 DF020000 		.4byte	.LASF35
 3195 0189 06       		.byte	0x6
 3196 018a 4E       		.byte	0x4e
 3197 018b B1000000 		.4byte	0xb1
 3198 018f 02       		.byte	0x2
 3199 0190 23       		.byte	0x23
 3200 0191 04       		.uleb128 0x4
 3201 0192 09       		.uleb128 0x9
 3202 0193 D7020000 		.4byte	.LASF36
 3203 0197 06       		.byte	0x6
 3204 0198 57       		.byte	0x57
 3205 0199 D0000000 		.4byte	0xd0
 3206 019d 02       		.byte	0x2
 3207 019e 23       		.byte	0x23
 3208 019f 08       		.uleb128 0x8
 3209 01a0 0A       		.uleb128 0xa
 3210 01a1 6C656E00 		.ascii	"len\000"
 3211 01a5 06       		.byte	0x6
 3212 01a6 5A       		.byte	0x5a
 3213 01a7 D0000000 		.4byte	0xd0
 3214 01ab 02       		.byte	0x2
 3215 01ac 23       		.byte	0x23
 3216 01ad 0A       		.uleb128 0xa
 3217 01ae 09       		.uleb128 0x9
 3218 01af 78070000 		.4byte	.LASF37
 3219 01b3 06       		.byte	0x6
 3220 01b4 5D       		.byte	0x5d
 3221 01b5 BA000000 		.4byte	0xba
 3222 01b9 02       		.byte	0x2
 3223 01ba 23       		.byte	0x23
 3224 01bb 0C       		.uleb128 0xc
 3225 01bc 09       		.uleb128 0x9
 3226 01bd 80000000 		.4byte	.LASF38
 3227 01c1 06       		.byte	0x6
 3228 01c2 60       		.byte	0x60
 3229 01c3 BA000000 		.4byte	0xba
 3230 01c7 02       		.byte	0x2
 3231 01c8 23       		.byte	0x23
 3232 01c9 0D       		.uleb128 0xd
 3233 01ca 0A       		.uleb128 0xa
 3234 01cb 72656600 		.ascii	"ref\000"
 3235 01cf 06       		.byte	0x6
ARM GAS  /var/folders/5n/p_75w94d66l9ssrldxqdhh700000gn/T//cc4n8EPc.s 			page 58


 3236 01d0 67       		.byte	0x67
 3237 01d1 D0000000 		.4byte	0xd0
 3238 01d5 02       		.byte	0x2
 3239 01d6 23       		.byte	0x23
 3240 01d7 0E       		.uleb128 0xe
 3241 01d8 00       		.byte	0
 3242 01d9 0B       		.uleb128 0xb
 3243 01da 04       		.byte	0x4
 3244 01db 6A010000 		.4byte	0x16a
 3245 01df 08       		.uleb128 0x8
 3246 01e0 B8080000 		.4byte	.LASF40
 3247 01e4 04       		.byte	0x4
 3248 01e5 07       		.byte	0x7
 3249 01e6 2C       		.byte	0x2c
 3250 01e7 FA010000 		.4byte	0x1fa
 3251 01eb 09       		.uleb128 0x9
 3252 01ec EF070000 		.4byte	.LASF41
 3253 01f0 07       		.byte	0x7
 3254 01f1 2D       		.byte	0x2d
 3255 01f2 E6000000 		.4byte	0xe6
 3256 01f6 02       		.byte	0x2
 3257 01f7 23       		.byte	0x23
 3258 01f8 00       		.uleb128 0
 3259 01f9 00       		.byte	0
 3260 01fa 04       		.uleb128 0x4
 3261 01fb 92080000 		.4byte	.LASF42
 3262 01ff 07       		.byte	0x7
 3263 0200 40       		.byte	0x40
 3264 0201 DF010000 		.4byte	0x1df
 3265 0205 0B       		.uleb128 0xb
 3266 0206 04       		.byte	0x4
 3267 0207 0B020000 		.4byte	0x20b
 3268 020b 08       		.uleb128 0x8
 3269 020c FF070000 		.4byte	.LASF43
 3270 0210 30       		.byte	0x30
 3271 0211 08       		.byte	0x8
 3272 0212 88       		.byte	0x88
 3273 0213 DB020000 		.4byte	0x2db
 3274 0217 09       		.uleb128 0x9
 3275 0218 C0000000 		.4byte	.LASF34
 3276 021c 08       		.byte	0x8
 3277 021d 8A       		.byte	0x8a
 3278 021e 05020000 		.4byte	0x205
 3279 0222 02       		.byte	0x2
 3280 0223 23       		.byte	0x23
 3281 0224 00       		.uleb128 0
 3282 0225 09       		.uleb128 0x9
 3283 0226 B8080000 		.4byte	.LASF40
 3284 022a 08       		.byte	0x8
 3285 022b 8D       		.byte	0x8d
 3286 022c FA010000 		.4byte	0x1fa
 3287 0230 02       		.byte	0x2
 3288 0231 23       		.byte	0x23
 3289 0232 04       		.uleb128 0x4
 3290 0233 09       		.uleb128 0x9
 3291 0234 41040000 		.4byte	.LASF44
 3292 0238 08       		.byte	0x8
ARM GAS  /var/folders/5n/p_75w94d66l9ssrldxqdhh700000gn/T//cc4n8EPc.s 			page 59


 3293 0239 8E       		.byte	0x8e
 3294 023a FA010000 		.4byte	0x1fa
 3295 023e 02       		.byte	0x2
 3296 023f 23       		.byte	0x23
 3297 0240 08       		.uleb128 0x8
 3298 0241 0A       		.uleb128 0xa
 3299 0242 677700   		.ascii	"gw\000"
 3300 0245 08       		.byte	0x8
 3301 0246 8F       		.byte	0x8f
 3302 0247 FA010000 		.4byte	0x1fa
 3303 024b 02       		.byte	0x2
 3304 024c 23       		.byte	0x23
 3305 024d 0C       		.uleb128 0xc
 3306 024e 09       		.uleb128 0x9
 3307 024f 44000000 		.4byte	.LASF45
 3308 0253 08       		.byte	0x8
 3309 0254 93       		.byte	0x93
 3310 0255 DB020000 		.4byte	0x2db
 3311 0259 02       		.byte	0x2
 3312 025a 23       		.byte	0x23
 3313 025b 10       		.uleb128 0x10
 3314 025c 09       		.uleb128 0x9
 3315 025d EF020000 		.4byte	.LASF46
 3316 0261 08       		.byte	0x8
 3317 0262 97       		.byte	0x97
 3318 0263 01030000 		.4byte	0x301
 3319 0267 02       		.byte	0x2
 3320 0268 23       		.byte	0x23
 3321 0269 14       		.uleb128 0x14
 3322 026a 09       		.uleb128 0x9
 3323 026b E1000000 		.4byte	.LASF47
 3324 026f 08       		.byte	0x8
 3325 0270 9B       		.byte	0x9b
 3326 0271 32030000 		.4byte	0x332
 3327 0275 02       		.byte	0x2
 3328 0276 23       		.byte	0x23
 3329 0277 18       		.uleb128 0x18
 3330 0278 09       		.uleb128 0x9
 3331 0279 F9070000 		.4byte	.LASF48
 3332 027d 08       		.byte	0x8
 3333 027e A8       		.byte	0xa8
 3334 027f B1000000 		.4byte	0xb1
 3335 0283 02       		.byte	0x2
 3336 0284 23       		.byte	0x23
 3337 0285 1C       		.uleb128 0x1c
 3338 0286 0A       		.uleb128 0xa
 3339 0287 6D747500 		.ascii	"mtu\000"
 3340 028b 08       		.byte	0x8
 3341 028c B6       		.byte	0xb6
 3342 028d D0000000 		.4byte	0xd0
 3343 0291 02       		.byte	0x2
 3344 0292 23       		.byte	0x23
 3345 0293 20       		.uleb128 0x20
 3346 0294 09       		.uleb128 0x9
 3347 0295 84020000 		.4byte	.LASF49
 3348 0299 08       		.byte	0x8
 3349 029a B8       		.byte	0xb8
ARM GAS  /var/folders/5n/p_75w94d66l9ssrldxqdhh700000gn/T//cc4n8EPc.s 			page 60


 3350 029b BA000000 		.4byte	0xba
 3351 029f 02       		.byte	0x2
 3352 02a0 23       		.byte	0x23
 3353 02a1 22       		.uleb128 0x22
 3354 02a2 09       		.uleb128 0x9
 3355 02a3 38020000 		.4byte	.LASF50
 3356 02a7 08       		.byte	0x8
 3357 02a8 BA       		.byte	0xba
 3358 02a9 58030000 		.4byte	0x358
 3359 02ad 02       		.byte	0x2
 3360 02ae 23       		.byte	0x23
 3361 02af 23       		.uleb128 0x23
 3362 02b0 09       		.uleb128 0x9
 3363 02b1 80000000 		.4byte	.LASF38
 3364 02b5 08       		.byte	0x8
 3365 02b6 BC       		.byte	0xbc
 3366 02b7 BA000000 		.4byte	0xba
 3367 02bb 02       		.byte	0x2
 3368 02bc 23       		.byte	0x23
 3369 02bd 29       		.uleb128 0x29
 3370 02be 09       		.uleb128 0x9
 3371 02bf 9A060000 		.4byte	.LASF51
 3372 02c3 08       		.byte	0x8
 3373 02c4 BE       		.byte	0xbe
 3374 02c5 68030000 		.4byte	0x368
 3375 02c9 02       		.byte	0x2
 3376 02ca 23       		.byte	0x23
 3377 02cb 2A       		.uleb128 0x2a
 3378 02cc 0A       		.uleb128 0xa
 3379 02cd 6E756D00 		.ascii	"num\000"
 3380 02d1 08       		.byte	0x8
 3381 02d2 C0       		.byte	0xc0
 3382 02d3 BA000000 		.4byte	0xba
 3383 02d7 02       		.byte	0x2
 3384 02d8 23       		.byte	0x23
 3385 02d9 2C       		.uleb128 0x2c
 3386 02da 00       		.byte	0
 3387 02db 04       		.uleb128 0x4
 3388 02dc CA010000 		.4byte	.LASF52
 3389 02e0 08       		.byte	0x8
 3390 02e1 6D       		.byte	0x6d
 3391 02e2 E6020000 		.4byte	0x2e6
 3392 02e6 0B       		.uleb128 0xb
 3393 02e7 04       		.byte	0x4
 3394 02e8 EC020000 		.4byte	0x2ec
 3395 02ec 0C       		.uleb128 0xc
 3396 02ed 01       		.byte	0x1
 3397 02ee 07010000 		.4byte	0x107
 3398 02f2 01030000 		.4byte	0x301
 3399 02f6 0D       		.uleb128 0xd
 3400 02f7 D9010000 		.4byte	0x1d9
 3401 02fb 0D       		.uleb128 0xd
 3402 02fc 05020000 		.4byte	0x205
 3403 0300 00       		.byte	0
 3404 0301 04       		.uleb128 0x4
 3405 0302 51010000 		.4byte	.LASF53
 3406 0306 08       		.byte	0x8
ARM GAS  /var/folders/5n/p_75w94d66l9ssrldxqdhh700000gn/T//cc4n8EPc.s 			page 61


 3407 0307 76       		.byte	0x76
 3408 0308 0C030000 		.4byte	0x30c
 3409 030c 0B       		.uleb128 0xb
 3410 030d 04       		.byte	0x4
 3411 030e 12030000 		.4byte	0x312
 3412 0312 0C       		.uleb128 0xc
 3413 0313 01       		.byte	0x1
 3414 0314 07010000 		.4byte	0x107
 3415 0318 2C030000 		.4byte	0x32c
 3416 031c 0D       		.uleb128 0xd
 3417 031d 05020000 		.4byte	0x205
 3418 0321 0D       		.uleb128 0xd
 3419 0322 D9010000 		.4byte	0x1d9
 3420 0326 0D       		.uleb128 0xd
 3421 0327 2C030000 		.4byte	0x32c
 3422 032b 00       		.byte	0
 3423 032c 0B       		.uleb128 0xb
 3424 032d 04       		.byte	0x4
 3425 032e FA010000 		.4byte	0x1fa
 3426 0332 04       		.uleb128 0x4
 3427 0333 9F060000 		.4byte	.LASF54
 3428 0337 08       		.byte	0x8
 3429 0338 7E       		.byte	0x7e
 3430 0339 3D030000 		.4byte	0x33d
 3431 033d 0B       		.uleb128 0xb
 3432 033e 04       		.byte	0x4
 3433 033f 43030000 		.4byte	0x343
 3434 0343 0C       		.uleb128 0xc
 3435 0344 01       		.byte	0x1
 3436 0345 07010000 		.4byte	0x107
 3437 0349 58030000 		.4byte	0x358
 3438 034d 0D       		.uleb128 0xd
 3439 034e 05020000 		.4byte	0x205
 3440 0352 0D       		.uleb128 0xd
 3441 0353 D9010000 		.4byte	0x1d9
 3442 0357 00       		.byte	0
 3443 0358 0E       		.uleb128 0xe
 3444 0359 BA000000 		.4byte	0xba
 3445 035d 68030000 		.4byte	0x368
 3446 0361 0F       		.uleb128 0xf
 3447 0362 30000000 		.4byte	0x30
 3448 0366 05       		.byte	0x5
 3449 0367 00       		.byte	0
 3450 0368 0E       		.uleb128 0xe
 3451 0369 B3000000 		.4byte	0xb3
 3452 036d 78030000 		.4byte	0x378
 3453 0371 0F       		.uleb128 0xf
 3454 0372 30000000 		.4byte	0x30
 3455 0376 01       		.byte	0x1
 3456 0377 00       		.byte	0
 3457 0378 04       		.uleb128 0x4
 3458 0379 68030000 		.4byte	.LASF55
 3459 037d 09       		.byte	0x9
 3460 037e 3D       		.byte	0x3d
 3461 037f 83030000 		.4byte	0x383
 3462 0383 0B       		.uleb128 0xb
 3463 0384 04       		.byte	0x4
ARM GAS  /var/folders/5n/p_75w94d66l9ssrldxqdhh700000gn/T//cc4n8EPc.s 			page 62


 3464 0385 89030000 		.4byte	0x389
 3465 0389 0C       		.uleb128 0xc
 3466 038a 01       		.byte	0x1
 3467 038b 07010000 		.4byte	0x107
 3468 038f A3030000 		.4byte	0x3a3
 3469 0393 0D       		.uleb128 0xd
 3470 0394 B1000000 		.4byte	0xb1
 3471 0398 0D       		.uleb128 0xd
 3472 0399 A3030000 		.4byte	0x3a3
 3473 039d 0D       		.uleb128 0xd
 3474 039e 07010000 		.4byte	0x107
 3475 03a2 00       		.byte	0
 3476 03a3 0B       		.uleb128 0xb
 3477 03a4 04       		.byte	0x4
 3478 03a5 A9030000 		.4byte	0x3a9
 3479 03a9 08       		.uleb128 0x8
 3480 03aa 34080000 		.4byte	.LASF56
 3481 03ae A4       		.byte	0xa4
 3482 03af 09       		.byte	0x9
 3483 03b0 A9       		.byte	0xa9
 3484 03b1 B8060000 		.4byte	0x6b8
 3485 03b5 09       		.uleb128 0x9
 3486 03b6 48060000 		.4byte	.LASF57
 3487 03ba 09       		.byte	0x9
 3488 03bb AB       		.byte	0xab
 3489 03bc FA010000 		.4byte	0x1fa
 3490 03c0 02       		.byte	0x2
 3491 03c1 23       		.byte	0x23
 3492 03c2 00       		.uleb128 0
 3493 03c3 09       		.uleb128 0x9
 3494 03c4 78080000 		.4byte	.LASF58
 3495 03c8 09       		.byte	0x9
 3496 03c9 AB       		.byte	0xab
 3497 03ca FA010000 		.4byte	0x1fa
 3498 03ce 02       		.byte	0x2
 3499 03cf 23       		.byte	0x23
 3500 03d0 04       		.uleb128 0x4
 3501 03d1 09       		.uleb128 0x9
 3502 03d2 39000000 		.4byte	.LASF59
 3503 03d6 09       		.byte	0x9
 3504 03d7 AB       		.byte	0xab
 3505 03d8 BA000000 		.4byte	0xba
 3506 03dc 02       		.byte	0x2
 3507 03dd 23       		.byte	0x23
 3508 03de 08       		.uleb128 0x8
 3509 03df 0A       		.uleb128 0xa
 3510 03e0 746F7300 		.ascii	"tos\000"
 3511 03e4 09       		.byte	0x9
 3512 03e5 AB       		.byte	0xab
 3513 03e6 BA000000 		.4byte	0xba
 3514 03ea 02       		.byte	0x2
 3515 03eb 23       		.byte	0x23
 3516 03ec 09       		.uleb128 0x9
 3517 03ed 0A       		.uleb128 0xa
 3518 03ee 74746C00 		.ascii	"ttl\000"
 3519 03f2 09       		.byte	0x9
 3520 03f3 AB       		.byte	0xab
ARM GAS  /var/folders/5n/p_75w94d66l9ssrldxqdhh700000gn/T//cc4n8EPc.s 			page 63


 3521 03f4 BA000000 		.4byte	0xba
 3522 03f8 02       		.byte	0x2
 3523 03f9 23       		.byte	0x23
 3524 03fa 0A       		.uleb128 0xa
 3525 03fb 09       		.uleb128 0x9
 3526 03fc C0000000 		.4byte	.LASF34
 3527 0400 09       		.byte	0x9
 3528 0401 AD       		.byte	0xad
 3529 0402 A3030000 		.4byte	0x3a3
 3530 0406 02       		.byte	0x2
 3531 0407 23       		.byte	0x23
 3532 0408 0C       		.uleb128 0xc
 3533 0409 09       		.uleb128 0x9
 3534 040a F9070000 		.4byte	.LASF48
 3535 040e 09       		.byte	0x9
 3536 040f AD       		.byte	0xad
 3537 0410 66070000 		.4byte	0x766
 3538 0414 02       		.byte	0x2
 3539 0415 23       		.byte	0x23
 3540 0416 10       		.uleb128 0x10
 3541 0417 09       		.uleb128 0x9
 3542 0418 89030000 		.4byte	.LASF60
 3543 041c 09       		.byte	0x9
 3544 041d AD       		.byte	0xad
 3545 041e BA000000 		.4byte	0xba
 3546 0422 02       		.byte	0x2
 3547 0423 23       		.byte	0x23
 3548 0424 11       		.uleb128 0x11
 3549 0425 09       		.uleb128 0x9
 3550 0426 DB070000 		.4byte	.LASF61
 3551 042a 09       		.byte	0x9
 3552 042b AD       		.byte	0xad
 3553 042c B1000000 		.4byte	0xb1
 3554 0430 02       		.byte	0x2
 3555 0431 23       		.byte	0x23
 3556 0432 14       		.uleb128 0x14
 3557 0433 09       		.uleb128 0x9
 3558 0434 8E030000 		.4byte	.LASF62
 3559 0438 09       		.byte	0x9
 3560 0439 AD       		.byte	0xad
 3561 043a 78030000 		.4byte	0x378
 3562 043e 02       		.byte	0x2
 3563 043f 23       		.byte	0x23
 3564 0440 18       		.uleb128 0x18
 3565 0441 09       		.uleb128 0x9
 3566 0442 08020000 		.4byte	.LASF63
 3567 0446 09       		.byte	0x9
 3568 0447 AD       		.byte	0xad
 3569 0448 D0000000 		.4byte	0xd0
 3570 044c 02       		.byte	0x2
 3571 044d 23       		.byte	0x23
 3572 044e 1C       		.uleb128 0x1c
 3573 044f 09       		.uleb128 0x9
 3574 0450 F1040000 		.4byte	.LASF64
 3575 0454 09       		.byte	0x9
 3576 0455 B0       		.byte	0xb0
 3577 0456 D0000000 		.4byte	0xd0
ARM GAS  /var/folders/5n/p_75w94d66l9ssrldxqdhh700000gn/T//cc4n8EPc.s 			page 64


 3578 045a 02       		.byte	0x2
 3579 045b 23       		.byte	0x23
 3580 045c 1E       		.uleb128 0x1e
 3581 045d 09       		.uleb128 0x9
 3582 045e 80000000 		.4byte	.LASF38
 3583 0462 09       		.byte	0x9
 3584 0463 B2       		.byte	0xb2
 3585 0464 BA000000 		.4byte	0xba
 3586 0468 02       		.byte	0x2
 3587 0469 23       		.byte	0x23
 3588 046a 20       		.uleb128 0x20
 3589 046b 09       		.uleb128 0x9
 3590 046c 8F020000 		.4byte	.LASF65
 3591 0470 09       		.byte	0x9
 3592 0471 BF       		.byte	0xbf
 3593 0472 E6000000 		.4byte	0xe6
 3594 0476 02       		.byte	0x2
 3595 0477 23       		.byte	0x23
 3596 0478 24       		.uleb128 0x24
 3597 0479 09       		.uleb128 0x9
 3598 047a F0050000 		.4byte	.LASF66
 3599 047e 09       		.byte	0x9
 3600 047f C0       		.byte	0xc0
 3601 0480 D0000000 		.4byte	0xd0
 3602 0484 02       		.byte	0x2
 3603 0485 23       		.byte	0x23
 3604 0486 28       		.uleb128 0x28
 3605 0487 09       		.uleb128 0x9
 3606 0488 0A050000 		.4byte	.LASF67
 3607 048c 09       		.byte	0x9
 3608 048d C1       		.byte	0xc1
 3609 048e D0000000 		.4byte	0xd0
 3610 0492 02       		.byte	0x2
 3611 0493 23       		.byte	0x23
 3612 0494 2A       		.uleb128 0x2a
 3613 0495 09       		.uleb128 0x9
 3614 0496 1F010000 		.4byte	.LASF68
 3615 049a 09       		.byte	0x9
 3616 049b C2       		.byte	0xc2
 3617 049c E6000000 		.4byte	0xe6
 3618 04a0 02       		.byte	0x2
 3619 04a1 23       		.byte	0x23
 3620 04a2 2C       		.uleb128 0x2c
 3621 04a3 0A       		.uleb128 0xa
 3622 04a4 746D7200 		.ascii	"tmr\000"
 3623 04a8 09       		.byte	0x9
 3624 04a9 C5       		.byte	0xc5
 3625 04aa E6000000 		.4byte	0xe6
 3626 04ae 02       		.byte	0x2
 3627 04af 23       		.byte	0x23
 3628 04b0 30       		.uleb128 0x30
 3629 04b1 09       		.uleb128 0x9
 3630 04b2 6F000000 		.4byte	.LASF69
 3631 04b6 09       		.byte	0x9
 3632 04b7 C6       		.byte	0xc6
 3633 04b8 BA000000 		.4byte	0xba
 3634 04bc 02       		.byte	0x2
ARM GAS  /var/folders/5n/p_75w94d66l9ssrldxqdhh700000gn/T//cc4n8EPc.s 			page 65


 3635 04bd 23       		.byte	0x23
 3636 04be 34       		.uleb128 0x34
 3637 04bf 09       		.uleb128 0x9
 3638 04c0 D3060000 		.4byte	.LASF70
 3639 04c4 09       		.byte	0x9
 3640 04c5 C6       		.byte	0xc6
 3641 04c6 BA000000 		.4byte	0xba
 3642 04ca 02       		.byte	0x2
 3643 04cb 23       		.byte	0x23
 3644 04cc 35       		.uleb128 0x35
 3645 04cd 09       		.uleb128 0x9
 3646 04ce 7E020000 		.4byte	.LASF71
 3647 04d2 09       		.byte	0x9
 3648 04d3 C9       		.byte	0xc9
 3649 04d4 DB000000 		.4byte	0xdb
 3650 04d8 02       		.byte	0x2
 3651 04d9 23       		.byte	0x23
 3652 04da 36       		.uleb128 0x36
 3653 04db 0A       		.uleb128 0xa
 3654 04dc 6D737300 		.ascii	"mss\000"
 3655 04e0 09       		.byte	0x9
 3656 04e1 CB       		.byte	0xcb
 3657 04e2 D0000000 		.4byte	0xd0
 3658 04e6 02       		.byte	0x2
 3659 04e7 23       		.byte	0x23
 3660 04e8 38       		.uleb128 0x38
 3661 04e9 09       		.uleb128 0x9
 3662 04ea F8050000 		.4byte	.LASF72
 3663 04ee 09       		.byte	0x9
 3664 04ef CE       		.byte	0xce
 3665 04f0 E6000000 		.4byte	0xe6
 3666 04f4 02       		.byte	0x2
 3667 04f5 23       		.byte	0x23
 3668 04f6 3C       		.uleb128 0x3c
 3669 04f7 09       		.uleb128 0x9
 3670 04f8 7B030000 		.4byte	.LASF73
 3671 04fc 09       		.byte	0x9
 3672 04fd CF       		.byte	0xcf
 3673 04fe E6000000 		.4byte	0xe6
 3674 0502 02       		.byte	0x2
 3675 0503 23       		.byte	0x23
 3676 0504 40       		.uleb128 0x40
 3677 0505 0A       		.uleb128 0xa
 3678 0506 736100   		.ascii	"sa\000"
 3679 0509 09       		.byte	0x9
 3680 050a D0       		.byte	0xd0
 3681 050b DB000000 		.4byte	0xdb
 3682 050f 02       		.byte	0x2
 3683 0510 23       		.byte	0x23
 3684 0511 44       		.uleb128 0x44
 3685 0512 0A       		.uleb128 0xa
 3686 0513 737600   		.ascii	"sv\000"
 3687 0516 09       		.byte	0x9
 3688 0517 D0       		.byte	0xd0
 3689 0518 DB000000 		.4byte	0xdb
 3690 051c 02       		.byte	0x2
 3691 051d 23       		.byte	0x23
ARM GAS  /var/folders/5n/p_75w94d66l9ssrldxqdhh700000gn/T//cc4n8EPc.s 			page 66


 3692 051e 46       		.uleb128 0x46
 3693 051f 0A       		.uleb128 0xa
 3694 0520 72746F00 		.ascii	"rto\000"
 3695 0524 09       		.byte	0x9
 3696 0525 D2       		.byte	0xd2
 3697 0526 DB000000 		.4byte	0xdb
 3698 052a 02       		.byte	0x2
 3699 052b 23       		.byte	0x23
 3700 052c 48       		.uleb128 0x48
 3701 052d 09       		.uleb128 0x9
 3702 052e A5080000 		.4byte	.LASF74
 3703 0532 09       		.byte	0x9
 3704 0533 D3       		.byte	0xd3
 3705 0534 BA000000 		.4byte	0xba
 3706 0538 02       		.byte	0x2
 3707 0539 23       		.byte	0x23
 3708 053a 4A       		.uleb128 0x4a
 3709 053b 09       		.uleb128 0x9
 3710 053c 34030000 		.4byte	.LASF75
 3711 0540 09       		.byte	0x9
 3712 0541 D6       		.byte	0xd6
 3713 0542 E6000000 		.4byte	0xe6
 3714 0546 02       		.byte	0x2
 3715 0547 23       		.byte	0x23
 3716 0548 4C       		.uleb128 0x4c
 3717 0549 09       		.uleb128 0x9
 3718 054a 81030000 		.4byte	.LASF76
 3719 054e 09       		.byte	0x9
 3720 054f D7       		.byte	0xd7
 3721 0550 BA000000 		.4byte	0xba
 3722 0554 02       		.byte	0x2
 3723 0555 23       		.byte	0x23
 3724 0556 50       		.uleb128 0x50
 3725 0557 09       		.uleb128 0x9
 3726 0558 E9010000 		.4byte	.LASF77
 3727 055c 09       		.byte	0x9
 3728 055d DA       		.byte	0xda
 3729 055e D0000000 		.4byte	0xd0
 3730 0562 02       		.byte	0x2
 3731 0563 23       		.byte	0x23
 3732 0564 52       		.uleb128 0x52
 3733 0565 09       		.uleb128 0x9
 3734 0566 C2060000 		.4byte	.LASF78
 3735 056a 09       		.byte	0x9
 3736 056b DB       		.byte	0xdb
 3737 056c D0000000 		.4byte	0xd0
 3738 0570 02       		.byte	0x2
 3739 0571 23       		.byte	0x23
 3740 0572 54       		.uleb128 0x54
 3741 0573 09       		.uleb128 0x9
 3742 0574 6E060000 		.4byte	.LASF79
 3743 0578 09       		.byte	0x9
 3744 0579 DE       		.byte	0xde
 3745 057a E6000000 		.4byte	0xe6
 3746 057e 02       		.byte	0x2
 3747 057f 23       		.byte	0x23
 3748 0580 58       		.uleb128 0x58
ARM GAS  /var/folders/5n/p_75w94d66l9ssrldxqdhh700000gn/T//cc4n8EPc.s 			page 67


 3749 0581 09       		.uleb128 0x9
 3750 0582 69050000 		.4byte	.LASF80
 3751 0586 09       		.byte	0x9
 3752 0587 DF       		.byte	0xdf
 3753 0588 D0000000 		.4byte	0xd0
 3754 058c 02       		.byte	0x2
 3755 058d 23       		.byte	0x23
 3756 058e 5C       		.uleb128 0x5c
 3757 058f 09       		.uleb128 0x9
 3758 0590 12040000 		.4byte	.LASF81
 3759 0594 09       		.byte	0x9
 3760 0595 E0       		.byte	0xe0
 3761 0596 E6000000 		.4byte	0xe6
 3762 059a 02       		.byte	0x2
 3763 059b 23       		.byte	0x23
 3764 059c 60       		.uleb128 0x60
 3765 059d 09       		.uleb128 0x9
 3766 059e 1A040000 		.4byte	.LASF82
 3767 05a2 09       		.byte	0x9
 3768 05a3 E0       		.byte	0xe0
 3769 05a4 E6000000 		.4byte	0xe6
 3770 05a8 02       		.byte	0x2
 3771 05a9 23       		.byte	0x23
 3772 05aa 64       		.uleb128 0x64
 3773 05ab 09       		.uleb128 0x9
 3774 05ac 2D040000 		.4byte	.LASF83
 3775 05b0 09       		.byte	0x9
 3776 05b1 E2       		.byte	0xe2
 3777 05b2 E6000000 		.4byte	0xe6
 3778 05b6 02       		.byte	0x2
 3779 05b7 23       		.byte	0x23
 3780 05b8 68       		.uleb128 0x68
 3781 05b9 09       		.uleb128 0x9
 3782 05ba EE030000 		.4byte	.LASF84
 3783 05be 09       		.byte	0x9
 3784 05bf E4       		.byte	0xe4
 3785 05c0 D0000000 		.4byte	0xd0
 3786 05c4 02       		.byte	0x2
 3787 05c5 23       		.byte	0x23
 3788 05c6 6C       		.uleb128 0x6c
 3789 05c7 09       		.uleb128 0x9
 3790 05c8 CB060000 		.4byte	.LASF85
 3791 05cc 09       		.byte	0x9
 3792 05cd E6       		.byte	0xe6
 3793 05ce D0000000 		.4byte	0xd0
 3794 05d2 02       		.byte	0x2
 3795 05d3 23       		.byte	0x23
 3796 05d4 6E       		.uleb128 0x6e
 3797 05d5 09       		.uleb128 0x9
 3798 05d6 05080000 		.4byte	.LASF86
 3799 05da 09       		.byte	0x9
 3800 05db E8       		.byte	0xe8
 3801 05dc D0000000 		.4byte	0xd0
 3802 05e0 02       		.byte	0x2
 3803 05e1 23       		.byte	0x23
 3804 05e2 70       		.uleb128 0x70
 3805 05e3 09       		.uleb128 0x9
ARM GAS  /var/folders/5n/p_75w94d66l9ssrldxqdhh700000gn/T//cc4n8EPc.s 			page 68


 3806 05e4 5E060000 		.4byte	.LASF87
 3807 05e8 09       		.byte	0x9
 3808 05e9 EC       		.byte	0xec
 3809 05ea D0000000 		.4byte	0xd0
 3810 05ee 02       		.byte	0x2
 3811 05ef 23       		.byte	0x23
 3812 05f0 72       		.uleb128 0x72
 3813 05f1 09       		.uleb128 0x9
 3814 05f2 E9050000 		.4byte	.LASF88
 3815 05f6 09       		.byte	0x9
 3816 05f7 F0       		.byte	0xf0
 3817 05f8 0C080000 		.4byte	0x80c
 3818 05fc 02       		.byte	0x2
 3819 05fd 23       		.byte	0x23
 3820 05fe 74       		.uleb128 0x74
 3821 05ff 09       		.uleb128 0x9
 3822 0600 B5020000 		.4byte	.LASF89
 3823 0604 09       		.byte	0x9
 3824 0605 F1       		.byte	0xf1
 3825 0606 0C080000 		.4byte	0x80c
 3826 060a 02       		.byte	0x2
 3827 060b 23       		.byte	0x23
 3828 060c 78       		.uleb128 0x78
 3829 060d 09       		.uleb128 0x9
 3830 060e 91050000 		.4byte	.LASF90
 3831 0612 09       		.byte	0x9
 3832 0613 F3       		.byte	0xf3
 3833 0614 0C080000 		.4byte	0x80c
 3834 0618 02       		.byte	0x2
 3835 0619 23       		.byte	0x23
 3836 061a 7C       		.uleb128 0x7c
 3837 061b 09       		.uleb128 0x9
 3838 061c 4C070000 		.4byte	.LASF91
 3839 0620 09       		.byte	0x9
 3840 0621 F6       		.byte	0xf6
 3841 0622 D9010000 		.4byte	0x1d9
 3842 0626 03       		.byte	0x3
 3843 0627 23       		.byte	0x23
 3844 0628 8001     		.uleb128 0x80
 3845 062a 09       		.uleb128 0x9
 3846 062b 05040000 		.4byte	.LASF92
 3847 062f 09       		.byte	0x9
 3848 0630 FA       		.byte	0xfa
 3849 0631 E8060000 		.4byte	0x6e8
 3850 0635 03       		.byte	0x3
 3851 0636 23       		.byte	0x23
 3852 0637 8401     		.uleb128 0x84
 3853 0639 09       		.uleb128 0x9
 3854 063a 23080000 		.4byte	.LASF93
 3855 063e 09       		.byte	0x9
 3856 063f FC       		.byte	0xfc
 3857 0640 B8060000 		.4byte	0x6b8
 3858 0644 03       		.byte	0x3
 3859 0645 23       		.byte	0x23
 3860 0646 8801     		.uleb128 0x88
 3861 0648 09       		.uleb128 0x9
 3862 0649 F6020000 		.4byte	.LASF94
ARM GAS  /var/folders/5n/p_75w94d66l9ssrldxqdhh700000gn/T//cc4n8EPc.s 			page 69


 3863 064d 09       		.byte	0x9
 3864 064e FE       		.byte	0xfe
 3865 064f 5B070000 		.4byte	0x75b
 3866 0653 03       		.byte	0x3
 3867 0654 23       		.byte	0x23
 3868 0655 8C01     		.uleb128 0x8c
 3869 0657 10       		.uleb128 0x10
 3870 0658 9F030000 		.4byte	.LASF95
 3871 065c 09       		.byte	0x9
 3872 065d 0001     		.2byte	0x100
 3873 065f 13070000 		.4byte	0x713
 3874 0663 03       		.byte	0x3
 3875 0664 23       		.byte	0x23
 3876 0665 9001     		.uleb128 0x90
 3877 0667 10       		.uleb128 0x10
 3878 0668 64050000 		.4byte	.LASF96
 3879 066c 09       		.byte	0x9
 3880 066d 0201     		.2byte	0x102
 3881 066f 39070000 		.4byte	0x739
 3882 0673 03       		.byte	0x3
 3883 0674 23       		.byte	0x23
 3884 0675 9401     		.uleb128 0x94
 3885 0677 10       		.uleb128 0x10
 3886 0678 D1070000 		.4byte	.LASF97
 3887 067c 09       		.byte	0x9
 3888 067d 0B01     		.2byte	0x10b
 3889 067f E6000000 		.4byte	0xe6
 3890 0683 03       		.byte	0x3
 3891 0684 23       		.byte	0x23
 3892 0685 9801     		.uleb128 0x98
 3893 0687 10       		.uleb128 0x10
 3894 0688 6C080000 		.4byte	.LASF98
 3895 068c 09       		.byte	0x9
 3896 068d 1201     		.2byte	0x112
 3897 068f E6000000 		.4byte	0xe6
 3898 0693 03       		.byte	0x3
 3899 0694 23       		.byte	0x23
 3900 0695 9C01     		.uleb128 0x9c
 3901 0697 10       		.uleb128 0x10
 3902 0698 6B040000 		.4byte	.LASF99
 3903 069c 09       		.byte	0x9
 3904 069d 1401     		.2byte	0x114
 3905 069f BA000000 		.4byte	0xba
 3906 06a3 03       		.byte	0x3
 3907 06a4 23       		.byte	0x23
 3908 06a5 A001     		.uleb128 0xa0
 3909 06a7 10       		.uleb128 0x10
 3910 06a8 61010000 		.4byte	.LASF100
 3911 06ac 09       		.byte	0x9
 3912 06ad 1701     		.2byte	0x117
 3913 06af BA000000 		.4byte	0xba
 3914 06b3 03       		.byte	0x3
 3915 06b4 23       		.byte	0x23
 3916 06b5 A101     		.uleb128 0xa1
 3917 06b7 00       		.byte	0
 3918 06b8 04       		.uleb128 0x4
 3919 06b9 2C050000 		.4byte	.LASF101
ARM GAS  /var/folders/5n/p_75w94d66l9ssrldxqdhh700000gn/T//cc4n8EPc.s 			page 70


 3920 06bd 09       		.byte	0x9
 3921 06be 49       		.byte	0x49
 3922 06bf C3060000 		.4byte	0x6c3
 3923 06c3 0B       		.uleb128 0xb
 3924 06c4 04       		.byte	0x4
 3925 06c5 C9060000 		.4byte	0x6c9
 3926 06c9 0C       		.uleb128 0xc
 3927 06ca 01       		.byte	0x1
 3928 06cb 07010000 		.4byte	0x107
 3929 06cf E8060000 		.4byte	0x6e8
 3930 06d3 0D       		.uleb128 0xd
 3931 06d4 B1000000 		.4byte	0xb1
 3932 06d8 0D       		.uleb128 0xd
 3933 06d9 A3030000 		.4byte	0x3a3
 3934 06dd 0D       		.uleb128 0xd
 3935 06de D9010000 		.4byte	0x1d9
 3936 06e2 0D       		.uleb128 0xd
 3937 06e3 07010000 		.4byte	0x107
 3938 06e7 00       		.byte	0
 3939 06e8 04       		.uleb128 0x4
 3940 06e9 89010000 		.4byte	.LASF102
 3941 06ed 09       		.byte	0x9
 3942 06ee 57       		.byte	0x57
 3943 06ef F3060000 		.4byte	0x6f3
 3944 06f3 0B       		.uleb128 0xb
 3945 06f4 04       		.byte	0x4
 3946 06f5 F9060000 		.4byte	0x6f9
 3947 06f9 0C       		.uleb128 0xc
 3948 06fa 01       		.byte	0x1
 3949 06fb 07010000 		.4byte	0x107
 3950 06ff 13070000 		.4byte	0x713
 3951 0703 0D       		.uleb128 0xd
 3952 0704 B1000000 		.4byte	0xb1
 3953 0708 0D       		.uleb128 0xd
 3954 0709 A3030000 		.4byte	0x3a3
 3955 070d 0D       		.uleb128 0xd
 3956 070e D0000000 		.4byte	0xd0
 3957 0712 00       		.byte	0
 3958 0713 04       		.uleb128 0x4
 3959 0714 42050000 		.4byte	.LASF103
 3960 0718 09       		.byte	0x9
 3961 0719 63       		.byte	0x63
 3962 071a 1E070000 		.4byte	0x71e
 3963 071e 0B       		.uleb128 0xb
 3964 071f 04       		.byte	0x4
 3965 0720 24070000 		.4byte	0x724
 3966 0724 0C       		.uleb128 0xc
 3967 0725 01       		.byte	0x1
 3968 0726 07010000 		.4byte	0x107
 3969 072a 39070000 		.4byte	0x739
 3970 072e 0D       		.uleb128 0xd
 3971 072f B1000000 		.4byte	0xb1
 3972 0733 0D       		.uleb128 0xd
 3973 0734 A3030000 		.4byte	0x3a3
 3974 0738 00       		.byte	0
 3975 0739 04       		.uleb128 0x4
 3976 073a 22040000 		.4byte	.LASF104
ARM GAS  /var/folders/5n/p_75w94d66l9ssrldxqdhh700000gn/T//cc4n8EPc.s 			page 71


 3977 073e 09       		.byte	0x9
 3978 073f 6F       		.byte	0x6f
 3979 0740 44070000 		.4byte	0x744
 3980 0744 0B       		.uleb128 0xb
 3981 0745 04       		.byte	0x4
 3982 0746 4A070000 		.4byte	0x74a
 3983 074a 11       		.uleb128 0x11
 3984 074b 01       		.byte	0x1
 3985 074c 5B070000 		.4byte	0x75b
 3986 0750 0D       		.uleb128 0xd
 3987 0751 B1000000 		.4byte	0xb1
 3988 0755 0D       		.uleb128 0xd
 3989 0756 07010000 		.4byte	0x107
 3990 075a 00       		.byte	0
 3991 075b 04       		.uleb128 0x4
 3992 075c AF000000 		.4byte	.LASF105
 3993 0760 09       		.byte	0x9
 3994 0761 7D       		.byte	0x7d
 3995 0762 83030000 		.4byte	0x383
 3996 0766 12       		.uleb128 0x12
 3997 0767 74020000 		.4byte	.LASF213
 3998 076b 01       		.byte	0x1
 3999 076c 09       		.byte	0x9
 4000 076d 7F       		.byte	0x7f
 4001 076e B5070000 		.4byte	0x7b5
 4002 0772 07       		.uleb128 0x7
 4003 0773 A2050000 		.4byte	.LASF106
 4004 0777 00       		.sleb128 0
 4005 0778 07       		.uleb128 0x7
 4006 0779 E8070000 		.4byte	.LASF107
 4007 077d 01       		.sleb128 1
 4008 077e 07       		.uleb128 0x7
 4009 077f C8070000 		.4byte	.LASF108
 4010 0783 02       		.sleb128 2
 4011 0784 07       		.uleb128 0x7
 4012 0785 AF080000 		.4byte	.LASF109
 4013 0789 03       		.sleb128 3
 4014 078a 07       		.uleb128 0x7
 4015 078b 85060000 		.4byte	.LASF110
 4016 078f 04       		.sleb128 4
 4017 0790 07       		.uleb128 0x7
 4018 0791 95070000 		.4byte	.LASF111
 4019 0795 05       		.sleb128 5
 4020 0796 07       		.uleb128 0x7
 4021 0797 A0070000 		.4byte	.LASF112
 4022 079b 06       		.sleb128 6
 4023 079c 07       		.uleb128 0x7
 4024 079d F4030000 		.4byte	.LASF113
 4025 07a1 07       		.sleb128 7
 4026 07a2 07       		.uleb128 0x7
 4027 07a3 22030000 		.4byte	.LASF114
 4028 07a7 08       		.sleb128 8
 4029 07a8 07       		.uleb128 0x7
 4030 07a9 CE020000 		.4byte	.LASF115
 4031 07ad 09       		.sleb128 9
 4032 07ae 07       		.uleb128 0x7
 4033 07af 98000000 		.4byte	.LASF116
ARM GAS  /var/folders/5n/p_75w94d66l9ssrldxqdhh700000gn/T//cc4n8EPc.s 			page 72


 4034 07b3 0A       		.sleb128 10
 4035 07b4 00       		.byte	0
 4036 07b5 13       		.uleb128 0x13
 4037 07b6 46020000 		.4byte	.LASF117
 4038 07ba 10       		.byte	0x10
 4039 07bb 0A       		.byte	0xa
 4040 07bc 1601     		.2byte	0x116
 4041 07be 0C080000 		.4byte	0x80c
 4042 07c2 10       		.uleb128 0x10
 4043 07c3 C0000000 		.4byte	.LASF34
 4044 07c7 0A       		.byte	0xa
 4045 07c8 1701     		.2byte	0x117
 4046 07ca 0C080000 		.4byte	0x80c
 4047 07ce 02       		.byte	0x2
 4048 07cf 23       		.byte	0x23
 4049 07d0 00       		.uleb128 0
 4050 07d1 14       		.uleb128 0x14
 4051 07d2 7000     		.ascii	"p\000"
 4052 07d4 0A       		.byte	0xa
 4053 07d5 1801     		.2byte	0x118
 4054 07d7 D9010000 		.4byte	0x1d9
 4055 07db 02       		.byte	0x2
 4056 07dc 23       		.byte	0x23
 4057 07dd 04       		.uleb128 0x4
 4058 07de 14       		.uleb128 0x14
 4059 07df 6C656E00 		.ascii	"len\000"
 4060 07e3 0A       		.byte	0xa
 4061 07e4 1901     		.2byte	0x119
 4062 07e6 D0000000 		.4byte	0xd0
 4063 07ea 02       		.byte	0x2
 4064 07eb 23       		.byte	0x23
 4065 07ec 08       		.uleb128 0x8
 4066 07ed 10       		.uleb128 0x10
 4067 07ee 80000000 		.4byte	.LASF38
 4068 07f2 0A       		.byte	0xa
 4069 07f3 2301     		.2byte	0x123
 4070 07f5 BA000000 		.4byte	0xba
 4071 07f9 02       		.byte	0x2
 4072 07fa 23       		.byte	0x23
 4073 07fb 0A       		.uleb128 0xa
 4074 07fc 10       		.uleb128 0x10
 4075 07fd 23070000 		.4byte	.LASF118
 4076 0801 0A       		.byte	0xa
 4077 0802 2801     		.2byte	0x128
 4078 0804 8F080000 		.4byte	0x88f
 4079 0808 02       		.byte	0x2
 4080 0809 23       		.byte	0x23
 4081 080a 0C       		.uleb128 0xc
 4082 080b 00       		.byte	0
 4083 080c 0B       		.uleb128 0xb
 4084 080d 04       		.byte	0x4
 4085 080e B5070000 		.4byte	0x7b5
 4086 0812 08       		.uleb128 0x8
 4087 0813 70070000 		.4byte	.LASF119
 4088 0817 14       		.byte	0x14
 4089 0818 0A       		.byte	0xa
 4090 0819 9E       		.byte	0x9e
ARM GAS  /var/folders/5n/p_75w94d66l9ssrldxqdhh700000gn/T//cc4n8EPc.s 			page 73


 4091 081a 8F080000 		.4byte	0x88f
 4092 081e 0A       		.uleb128 0xa
 4093 081f 73726300 		.ascii	"src\000"
 4094 0823 0A       		.byte	0xa
 4095 0824 9F       		.byte	0x9f
 4096 0825 D0000000 		.4byte	0xd0
 4097 0829 02       		.byte	0x2
 4098 082a 23       		.byte	0x23
 4099 082b 00       		.uleb128 0
 4100 082c 09       		.uleb128 0x9
 4101 082d AA080000 		.4byte	.LASF120
 4102 0831 0A       		.byte	0xa
 4103 0832 A0       		.byte	0xa0
 4104 0833 D0000000 		.4byte	0xd0
 4105 0837 02       		.byte	0x2
 4106 0838 23       		.byte	0x23
 4107 0839 02       		.uleb128 0x2
 4108 083a 09       		.uleb128 0x9
 4109 083b C4010000 		.4byte	.LASF121
 4110 083f 0A       		.byte	0xa
 4111 0840 A1       		.byte	0xa1
 4112 0841 E6000000 		.4byte	0xe6
 4113 0845 02       		.byte	0x2
 4114 0846 23       		.byte	0x23
 4115 0847 04       		.uleb128 0x4
 4116 0848 09       		.uleb128 0x9
 4117 0849 57040000 		.4byte	.LASF122
 4118 084d 0A       		.byte	0xa
 4119 084e A2       		.byte	0xa2
 4120 084f E6000000 		.4byte	0xe6
 4121 0853 02       		.byte	0x2
 4122 0854 23       		.byte	0x23
 4123 0855 08       		.uleb128 0x8
 4124 0856 09       		.uleb128 0x9
 4125 0857 ED060000 		.4byte	.LASF123
 4126 085b 0A       		.byte	0xa
 4127 085c A3       		.byte	0xa3
 4128 085d D0000000 		.4byte	0xd0
 4129 0861 02       		.byte	0x2
 4130 0862 23       		.byte	0x23
 4131 0863 0C       		.uleb128 0xc
 4132 0864 0A       		.uleb128 0xa
 4133 0865 776E6400 		.ascii	"wnd\000"
 4134 0869 0A       		.byte	0xa
 4135 086a A4       		.byte	0xa4
 4136 086b D0000000 		.4byte	0xd0
 4137 086f 02       		.byte	0x2
 4138 0870 23       		.byte	0x23
 4139 0871 0E       		.uleb128 0xe
 4140 0872 09       		.uleb128 0x9
 4141 0873 12080000 		.4byte	.LASF124
 4142 0877 0A       		.byte	0xa
 4143 0878 A5       		.byte	0xa5
 4144 0879 D0000000 		.4byte	0xd0
 4145 087d 02       		.byte	0x2
 4146 087e 23       		.byte	0x23
 4147 087f 10       		.uleb128 0x10
ARM GAS  /var/folders/5n/p_75w94d66l9ssrldxqdhh700000gn/T//cc4n8EPc.s 			page 74


 4148 0880 09       		.uleb128 0x9
 4149 0881 5C000000 		.4byte	.LASF125
 4150 0885 0A       		.byte	0xa
 4151 0886 A6       		.byte	0xa6
 4152 0887 D0000000 		.4byte	0xd0
 4153 088b 02       		.byte	0x2
 4154 088c 23       		.byte	0x23
 4155 088d 12       		.uleb128 0x12
 4156 088e 00       		.byte	0
 4157 088f 0B       		.uleb128 0xb
 4158 0890 04       		.byte	0x4
 4159 0891 12080000 		.4byte	0x812
 4160 0895 06       		.uleb128 0x6
 4161 0896 01       		.byte	0x1
 4162 0897 0B       		.byte	0xb
 4163 0898 2B       		.byte	0x2b
 4164 0899 F8080000 		.4byte	0x8f8
 4165 089d 07       		.uleb128 0x7
 4166 089e E0060000 		.4byte	.LASF126
 4167 08a2 00       		.sleb128 0
 4168 08a3 07       		.uleb128 0x7
 4169 08a4 3B060000 		.4byte	.LASF127
 4170 08a8 01       		.sleb128 1
 4171 08a9 07       		.uleb128 0x7
 4172 08aa 7B040000 		.4byte	.LASF128
 4173 08ae 02       		.sleb128 2
 4174 08af 07       		.uleb128 0x7
 4175 08b0 17000000 		.4byte	.LASF129
 4176 08b4 03       		.sleb128 3
 4177 08b5 07       		.uleb128 0x7
 4178 08b6 B2070000 		.4byte	.LASF130
 4179 08ba 04       		.sleb128 4
 4180 08bb 07       		.uleb128 0x7
 4181 08bc 1D050000 		.4byte	.LASF131
 4182 08c0 05       		.sleb128 5
 4183 08c1 07       		.uleb128 0x7
 4184 08c2 B3060000 		.4byte	.LASF132
 4185 08c6 06       		.sleb128 6
 4186 08c7 07       		.uleb128 0x7
 4187 08c8 35040000 		.4byte	.LASF133
 4188 08cc 07       		.sleb128 7
 4189 08cd 07       		.uleb128 0x7
 4190 08ce 50030000 		.4byte	.LASF134
 4191 08d2 08       		.sleb128 8
 4192 08d3 07       		.uleb128 0x7
 4193 08d4 EE010000 		.4byte	.LASF135
 4194 08d8 09       		.sleb128 9
 4195 08d9 07       		.uleb128 0x7
 4196 08da 97020000 		.4byte	.LASF136
 4197 08de 0A       		.sleb128 10
 4198 08df 07       		.uleb128 0x7
 4199 08e0 2A060000 		.4byte	.LASF137
 4200 08e4 0B       		.sleb128 11
 4201 08e5 07       		.uleb128 0x7
 4202 08e6 95030000 		.4byte	.LASF138
 4203 08ea 0C       		.sleb128 12
 4204 08eb 07       		.uleb128 0x7
ARM GAS  /var/folders/5n/p_75w94d66l9ssrldxqdhh700000gn/T//cc4n8EPc.s 			page 75


 4205 08ec 6F010000 		.4byte	.LASF139
 4206 08f0 0D       		.sleb128 13
 4207 08f1 07       		.uleb128 0x7
 4208 08f2 3C030000 		.4byte	.LASF140
 4209 08f6 0E       		.sleb128 14
 4210 08f7 00       		.byte	0
 4211 08f8 08       		.uleb128 0x8
 4212 08f9 E2030000 		.4byte	.LASF141
 4213 08fd 18       		.byte	0x18
 4214 08fe 0C       		.byte	0xc
 4215 08ff 3A       		.byte	0x3a
 4216 0900 AC090000 		.4byte	0x9ac
 4217 0904 09       		.uleb128 0x9
 4218 0905 67080000 		.4byte	.LASF142
 4219 0909 0C       		.byte	0xc
 4220 090a 3B       		.byte	0x3b
 4221 090b D0000000 		.4byte	0xd0
 4222 090f 02       		.byte	0x2
 4223 0910 23       		.byte	0x23
 4224 0911 00       		.uleb128 0
 4225 0912 09       		.uleb128 0x9
 4226 0913 23080000 		.4byte	.LASF93
 4227 0917 0C       		.byte	0xc
 4228 0918 3C       		.byte	0x3c
 4229 0919 D0000000 		.4byte	0xd0
 4230 091d 02       		.byte	0x2
 4231 091e 23       		.byte	0x23
 4232 091f 02       		.uleb128 0x2
 4233 0920 0A       		.uleb128 0xa
 4234 0921 667700   		.ascii	"fw\000"
 4235 0924 0C       		.byte	0xc
 4236 0925 3D       		.byte	0x3d
 4237 0926 D0000000 		.4byte	0xd0
 4238 092a 02       		.byte	0x2
 4239 092b 23       		.byte	0x23
 4240 092c 04       		.uleb128 0x4
 4241 092d 09       		.uleb128 0x9
 4242 092e F4070000 		.4byte	.LASF143
 4243 0932 0C       		.byte	0xc
 4244 0933 3E       		.byte	0x3e
 4245 0934 D0000000 		.4byte	0xd0
 4246 0938 02       		.byte	0x2
 4247 0939 23       		.byte	0x23
 4248 093a 06       		.uleb128 0x6
 4249 093b 09       		.uleb128 0x9
 4250 093c 16050000 		.4byte	.LASF144
 4251 0940 0C       		.byte	0xc
 4252 0941 3F       		.byte	0x3f
 4253 0942 D0000000 		.4byte	0xd0
 4254 0946 02       		.byte	0x2
 4255 0947 23       		.byte	0x23
 4256 0948 08       		.uleb128 0x8
 4257 0949 09       		.uleb128 0x9
 4258 094a 00070000 		.4byte	.LASF145
 4259 094e 0C       		.byte	0xc
 4260 094f 40       		.byte	0x40
 4261 0950 D0000000 		.4byte	0xd0
ARM GAS  /var/folders/5n/p_75w94d66l9ssrldxqdhh700000gn/T//cc4n8EPc.s 			page 76


 4262 0954 02       		.byte	0x2
 4263 0955 23       		.byte	0x23
 4264 0956 0A       		.uleb128 0xa
 4265 0957 09       		.uleb128 0x9
 4266 0958 AB070000 		.4byte	.LASF146
 4267 095c 0C       		.byte	0xc
 4268 095d 41       		.byte	0x41
 4269 095e D0000000 		.4byte	0xd0
 4270 0962 02       		.byte	0x2
 4271 0963 23       		.byte	0x23
 4272 0964 0C       		.uleb128 0xc
 4273 0965 09       		.uleb128 0x9
 4274 0966 D6050000 		.4byte	.LASF147
 4275 096a 0C       		.byte	0xc
 4276 096b 42       		.byte	0x42
 4277 096c D0000000 		.4byte	0xd0
 4278 0970 02       		.byte	0x2
 4279 0971 23       		.byte	0x23
 4280 0972 0E       		.uleb128 0xe
 4281 0973 09       		.uleb128 0x9
 4282 0974 5F070000 		.4byte	.LASF148
 4283 0978 0C       		.byte	0xc
 4284 0979 43       		.byte	0x43
 4285 097a D0000000 		.4byte	0xd0
 4286 097e 02       		.byte	0x2
 4287 097f 23       		.byte	0x23
 4288 0980 10       		.uleb128 0x10
 4289 0981 09       		.uleb128 0x9
 4290 0982 01020000 		.4byte	.LASF149
 4291 0986 0C       		.byte	0xc
 4292 0987 44       		.byte	0x44
 4293 0988 D0000000 		.4byte	0xd0
 4294 098c 02       		.byte	0x2
 4295 098d 23       		.byte	0x23
 4296 098e 12       		.uleb128 0x12
 4297 098f 0A       		.uleb128 0xa
 4298 0990 65727200 		.ascii	"err\000"
 4299 0994 0C       		.byte	0xc
 4300 0995 45       		.byte	0x45
 4301 0996 D0000000 		.4byte	0xd0
 4302 099a 02       		.byte	0x2
 4303 099b 23       		.byte	0x23
 4304 099c 14       		.uleb128 0x14
 4305 099d 09       		.uleb128 0x9
 4306 099e 91060000 		.4byte	.LASF150
 4307 09a2 0C       		.byte	0xc
 4308 09a3 46       		.byte	0x46
 4309 09a4 D0000000 		.4byte	0xd0
 4310 09a8 02       		.byte	0x2
 4311 09a9 23       		.byte	0x23
 4312 09aa 16       		.uleb128 0x16
 4313 09ab 00       		.byte	0
 4314 09ac 08       		.uleb128 0x8
 4315 09ad 40010000 		.4byte	.LASF151
 4316 09b1 0A       		.byte	0xa
 4317 09b2 0C       		.byte	0xc
 4318 09b3 5A       		.byte	0x5a
ARM GAS  /var/folders/5n/p_75w94d66l9ssrldxqdhh700000gn/T//cc4n8EPc.s 			page 77


 4319 09b4 FF090000 		.4byte	0x9ff
 4320 09b8 09       		.uleb128 0x9
 4321 09b9 DC050000 		.4byte	.LASF152
 4322 09bd 0C       		.byte	0xc
 4323 09be 5E       		.byte	0x5e
 4324 09bf 12010000 		.4byte	0x112
 4325 09c3 02       		.byte	0x2
 4326 09c4 23       		.byte	0x23
 4327 09c5 00       		.uleb128 0
 4328 09c6 09       		.uleb128 0x9
 4329 09c7 FD040000 		.4byte	.LASF153
 4330 09cb 0C       		.byte	0xc
 4331 09cc 5F       		.byte	0x5f
 4332 09cd 12010000 		.4byte	0x112
 4333 09d1 02       		.byte	0x2
 4334 09d2 23       		.byte	0x23
 4335 09d3 02       		.uleb128 0x2
 4336 09d4 0A       		.uleb128 0xa
 4337 09d5 6D617800 		.ascii	"max\000"
 4338 09d9 0C       		.byte	0xc
 4339 09da 60       		.byte	0x60
 4340 09db 12010000 		.4byte	0x112
 4341 09df 02       		.byte	0x2
 4342 09e0 23       		.byte	0x23
 4343 09e1 04       		.uleb128 0x4
 4344 09e2 0A       		.uleb128 0xa
 4345 09e3 65727200 		.ascii	"err\000"
 4346 09e7 0C       		.byte	0xc
 4347 09e8 61       		.byte	0x61
 4348 09e9 D0000000 		.4byte	0xd0
 4349 09ed 02       		.byte	0x2
 4350 09ee 23       		.byte	0x23
 4351 09ef 06       		.uleb128 0x6
 4352 09f0 09       		.uleb128 0x9
 4353 09f1 21020000 		.4byte	.LASF154
 4354 09f5 0C       		.byte	0xc
 4355 09f6 62       		.byte	0x62
 4356 09f7 D0000000 		.4byte	0xd0
 4357 09fb 02       		.byte	0x2
 4358 09fc 23       		.byte	0x23
 4359 09fd 08       		.uleb128 0x8
 4360 09fe 00       		.byte	0
 4361 09ff 08       		.uleb128 0x8
 4362 0a00 B6010000 		.4byte	.LASF155
 4363 0a04 06       		.byte	0x6
 4364 0a05 0C       		.byte	0xc
 4365 0a06 65       		.byte	0x65
 4366 0a07 360A0000 		.4byte	0xa36
 4367 0a0b 09       		.uleb128 0x9
 4368 0a0c FD040000 		.4byte	.LASF153
 4369 0a10 0C       		.byte	0xc
 4370 0a11 66       		.byte	0x66
 4371 0a12 D0000000 		.4byte	0xd0
 4372 0a16 02       		.byte	0x2
 4373 0a17 23       		.byte	0x23
 4374 0a18 00       		.uleb128 0
 4375 0a19 0A       		.uleb128 0xa
ARM GAS  /var/folders/5n/p_75w94d66l9ssrldxqdhh700000gn/T//cc4n8EPc.s 			page 78


 4376 0a1a 6D617800 		.ascii	"max\000"
 4377 0a1e 0C       		.byte	0xc
 4378 0a1f 67       		.byte	0x67
 4379 0a20 D0000000 		.4byte	0xd0
 4380 0a24 02       		.byte	0x2
 4381 0a25 23       		.byte	0x23
 4382 0a26 02       		.uleb128 0x2
 4383 0a27 0A       		.uleb128 0xa
 4384 0a28 65727200 		.ascii	"err\000"
 4385 0a2c 0C       		.byte	0xc
 4386 0a2d 68       		.byte	0x68
 4387 0a2e D0000000 		.4byte	0xd0
 4388 0a32 02       		.byte	0x2
 4389 0a33 23       		.byte	0x23
 4390 0a34 04       		.uleb128 0x4
 4391 0a35 00       		.byte	0
 4392 0a36 08       		.uleb128 0x8
 4393 0a37 7D070000 		.4byte	.LASF156
 4394 0a3b 12       		.byte	0x12
 4395 0a3c 0C       		.byte	0xc
 4396 0a3d 6B       		.byte	0x6b
 4397 0a3e 6D0A0000 		.4byte	0xa6d
 4398 0a42 0A       		.uleb128 0xa
 4399 0a43 73656D00 		.ascii	"sem\000"
 4400 0a47 0C       		.byte	0xc
 4401 0a48 6C       		.byte	0x6c
 4402 0a49 FF090000 		.4byte	0x9ff
 4403 0a4d 02       		.byte	0x2
 4404 0a4e 23       		.byte	0x23
 4405 0a4f 00       		.uleb128 0
 4406 0a50 09       		.uleb128 0x9
 4407 0a51 13020000 		.4byte	.LASF157
 4408 0a55 0C       		.byte	0xc
 4409 0a56 6D       		.byte	0x6d
 4410 0a57 FF090000 		.4byte	0x9ff
 4411 0a5b 02       		.byte	0x2
 4412 0a5c 23       		.byte	0x23
 4413 0a5d 06       		.uleb128 0x6
 4414 0a5e 09       		.uleb128 0x9
 4415 0a5f 59060000 		.4byte	.LASF158
 4416 0a63 0C       		.byte	0xc
 4417 0a64 6E       		.byte	0x6e
 4418 0a65 FF090000 		.4byte	0x9ff
 4419 0a69 02       		.byte	0x2
 4420 0a6a 23       		.byte	0x23
 4421 0a6b 0C       		.uleb128 0xc
 4422 0a6c 00       		.byte	0
 4423 0a6d 15       		.uleb128 0x15
 4424 0a6e C2020000 		.4byte	.LASF159
 4425 0a72 5001     		.2byte	0x150
 4426 0a74 0C       		.byte	0xc
 4427 0a75 71       		.byte	0x71
 4428 0a76 0A0B0000 		.4byte	0xb0a
 4429 0a7a 09       		.uleb128 0x9
 4430 0a7b 76030000 		.4byte	.LASF160
 4431 0a7f 0C       		.byte	0xc
 4432 0a80 73       		.byte	0x73
ARM GAS  /var/folders/5n/p_75w94d66l9ssrldxqdhh700000gn/T//cc4n8EPc.s 			page 79


 4433 0a81 F8080000 		.4byte	0x8f8
 4434 0a85 02       		.byte	0x2
 4435 0a86 23       		.byte	0x23
 4436 0a87 00       		.uleb128 0
 4437 0a88 09       		.uleb128 0x9
 4438 0a89 3F020000 		.4byte	.LASF161
 4439 0a8d 0C       		.byte	0xc
 4440 0a8e 76       		.byte	0x76
 4441 0a8f F8080000 		.4byte	0x8f8
 4442 0a93 02       		.byte	0x2
 4443 0a94 23       		.byte	0x23
 4444 0a95 18       		.uleb128 0x18
 4445 0a96 09       		.uleb128 0x9
 4446 0a97 19020000 		.4byte	.LASF162
 4447 0a9b 0C       		.byte	0xc
 4448 0a9c 79       		.byte	0x79
 4449 0a9d F8080000 		.4byte	0x8f8
 4450 0aa1 02       		.byte	0x2
 4451 0aa2 23       		.byte	0x23
 4452 0aa3 30       		.uleb128 0x30
 4453 0aa4 0A       		.uleb128 0xa
 4454 0aa5 697000   		.ascii	"ip\000"
 4455 0aa8 0C       		.byte	0xc
 4456 0aa9 7C       		.byte	0x7c
 4457 0aaa F8080000 		.4byte	0x8f8
 4458 0aae 02       		.byte	0x2
 4459 0aaf 23       		.byte	0x23
 4460 0ab0 48       		.uleb128 0x48
 4461 0ab1 09       		.uleb128 0x9
 4462 0ab2 BF050000 		.4byte	.LASF163
 4463 0ab6 0C       		.byte	0xc
 4464 0ab7 7F       		.byte	0x7f
 4465 0ab8 F8080000 		.4byte	0x8f8
 4466 0abc 02       		.byte	0x2
 4467 0abd 23       		.byte	0x23
 4468 0abe 60       		.uleb128 0x60
 4469 0abf 0A       		.uleb128 0xa
 4470 0ac0 75647000 		.ascii	"udp\000"
 4471 0ac4 0C       		.byte	0xc
 4472 0ac5 85       		.byte	0x85
 4473 0ac6 F8080000 		.4byte	0x8f8
 4474 0aca 02       		.byte	0x2
 4475 0acb 23       		.byte	0x23
 4476 0acc 78       		.uleb128 0x78
 4477 0acd 0A       		.uleb128 0xa
 4478 0ace 74637000 		.ascii	"tcp\000"
 4479 0ad2 0C       		.byte	0xc
 4480 0ad3 88       		.byte	0x88
 4481 0ad4 F8080000 		.4byte	0x8f8
 4482 0ad8 03       		.byte	0x3
 4483 0ad9 23       		.byte	0x23
 4484 0ada 9001     		.uleb128 0x90
 4485 0adc 0A       		.uleb128 0xa
 4486 0add 6D656D00 		.ascii	"mem\000"
 4487 0ae1 0C       		.byte	0xc
 4488 0ae2 8B       		.byte	0x8b
 4489 0ae3 AC090000 		.4byte	0x9ac
ARM GAS  /var/folders/5n/p_75w94d66l9ssrldxqdhh700000gn/T//cc4n8EPc.s 			page 80


 4490 0ae7 03       		.byte	0x3
 4491 0ae8 23       		.byte	0x23
 4492 0ae9 A801     		.uleb128 0xa8
 4493 0aeb 09       		.uleb128 0x9
 4494 0aec 88040000 		.4byte	.LASF164
 4495 0af0 0C       		.byte	0xc
 4496 0af1 8E       		.byte	0x8e
 4497 0af2 0A0B0000 		.4byte	0xb0a
 4498 0af6 03       		.byte	0x3
 4499 0af7 23       		.byte	0x23
 4500 0af8 B201     		.uleb128 0xb2
 4501 0afa 0A       		.uleb128 0xa
 4502 0afb 73797300 		.ascii	"sys\000"
 4503 0aff 0C       		.byte	0xc
 4504 0b00 91       		.byte	0x91
 4505 0b01 360A0000 		.4byte	0xa36
 4506 0b05 03       		.byte	0x3
 4507 0b06 23       		.byte	0x23
 4508 0b07 BE02     		.uleb128 0x13e
 4509 0b09 00       		.byte	0
 4510 0b0a 0E       		.uleb128 0xe
 4511 0b0b AC090000 		.4byte	0x9ac
 4512 0b0f 1A0B0000 		.4byte	0xb1a
 4513 0b13 0F       		.uleb128 0xf
 4514 0b14 30000000 		.4byte	0x30
 4515 0b18 0D       		.byte	0xd
 4516 0b19 00       		.byte	0
 4517 0b1a 0B       		.uleb128 0xb
 4518 0b1b 04       		.byte	0x4
 4519 0b1c B3000000 		.4byte	0xb3
 4520 0b20 16       		.uleb128 0x16
 4521 0b21 71050000 		.4byte	.LASF178
 4522 0b25 01       		.byte	0x1
 4523 0b26 5C       		.byte	0x5c
 4524 0b27 01       		.byte	0x1
 4525 0b28 D9010000 		.4byte	0x1d9
 4526 0b2c 01       		.byte	0x1
 4527 0b2d 720B0000 		.4byte	0xb72
 4528 0b31 17       		.uleb128 0x17
 4529 0b32 70636200 		.ascii	"pcb\000"
 4530 0b36 01       		.byte	0x1
 4531 0b37 5C       		.byte	0x5c
 4532 0b38 A3030000 		.4byte	0x3a3
 4533 0b3c 18       		.uleb128 0x18
 4534 0b3d 4A010000 		.4byte	.LASF165
 4535 0b41 01       		.byte	0x1
 4536 0b42 5C       		.byte	0x5c
 4537 0b43 D0000000 		.4byte	0xd0
 4538 0b47 18       		.uleb128 0x18
 4539 0b48 51060000 		.4byte	.LASF166
 4540 0b4c 01       		.byte	0x1
 4541 0b4d 5C       		.byte	0x5c
 4542 0b4e D0000000 		.4byte	0xd0
 4543 0b52 18       		.uleb128 0x18
 4544 0b53 BF070000 		.4byte	.LASF167
 4545 0b57 01       		.byte	0x1
 4546 0b58 5D       		.byte	0x5d
ARM GAS  /var/folders/5n/p_75w94d66l9ssrldxqdhh700000gn/T//cc4n8EPc.s 			page 81


 4547 0b59 E6000000 		.4byte	0xe6
 4548 0b5d 19       		.uleb128 0x19
 4549 0b5e 23070000 		.4byte	.LASF118
 4550 0b62 01       		.byte	0x1
 4551 0b63 5F       		.byte	0x5f
 4552 0b64 8F080000 		.4byte	0x88f
 4553 0b68 1A       		.uleb128 0x1a
 4554 0b69 7000     		.ascii	"p\000"
 4555 0b6b 01       		.byte	0x1
 4556 0b6c 60       		.byte	0x60
 4557 0b6d D9010000 		.4byte	0x1d9
 4558 0b71 00       		.byte	0
 4559 0b72 1B       		.uleb128 0x1b
 4560 0b73 86000000 		.4byte	.LASF175
 4561 0b77 01       		.byte	0x1
 4562 0b78 D8       		.byte	0xd8
 4563 0b79 01       		.byte	0x1
 4564 0b7a D9010000 		.4byte	0x1d9
 4565 0b7e 00000000 		.4byte	.LFB10
 4566 0b82 66000000 		.4byte	.LFE10
 4567 0b86 00000000 		.4byte	.LLST0
 4568 0b8a 110C0000 		.4byte	0xc11
 4569 0b8e 1C       		.uleb128 0x1c
 4570 0b8f 11000000 		.4byte	.LASF168
 4571 0b93 01       		.byte	0x1
 4572 0b94 D8       		.byte	0xd8
 4573 0b95 3E010000 		.4byte	0x13e
 4574 0b99 20000000 		.4byte	.LLST1
 4575 0b9d 1C       		.uleb128 0x1c
 4576 0b9e E2050000 		.4byte	.LASF169
 4577 0ba2 01       		.byte	0x1
 4578 0ba3 D8       		.byte	0xd8
 4579 0ba4 D0000000 		.4byte	0xd0
 4580 0ba8 3E000000 		.4byte	.LLST2
 4581 0bac 1C       		.uleb128 0x1c
 4582 0bad 97050000 		.4byte	.LASF170
 4583 0bb1 01       		.byte	0x1
 4584 0bb2 D8       		.byte	0xd8
 4585 0bb3 D0000000 		.4byte	0xd0
 4586 0bb7 51000000 		.4byte	.LLST3
 4587 0bbb 1C       		.uleb128 0x1c
 4588 0bbc 4A000000 		.4byte	.LASF171
 4589 0bc0 01       		.byte	0x1
 4590 0bc1 D9       		.byte	0xd9
 4591 0bc2 110C0000 		.4byte	0xc11
 4592 0bc6 7A000000 		.4byte	.LLST4
 4593 0bca 1D       		.uleb128 0x1d
 4594 0bcb 70636200 		.ascii	"pcb\000"
 4595 0bcf 01       		.byte	0x1
 4596 0bd0 D9       		.byte	0xd9
 4597 0bd1 A3030000 		.4byte	0x3a3
 4598 0bd5 02       		.byte	0x2
 4599 0bd6 91       		.byte	0x91
 4600 0bd7 00       		.sleb128 0
 4601 0bd8 1E       		.uleb128 0x1e
 4602 0bd9 43070000 		.4byte	.LASF172
 4603 0bdd 01       		.byte	0x1
ARM GAS  /var/folders/5n/p_75w94d66l9ssrldxqdhh700000gn/T//cc4n8EPc.s 			page 82


 4604 0bde D9       		.byte	0xd9
 4605 0bdf BA000000 		.4byte	0xba
 4606 0be3 02       		.byte	0x2
 4607 0be4 91       		.byte	0x91
 4608 0be5 04       		.sleb128 4
 4609 0be6 1E       		.uleb128 0x1e
 4610 0be7 2A030000 		.4byte	.LASF173
 4611 0beb 01       		.byte	0x1
 4612 0bec DA       		.byte	0xda
 4613 0bed BA000000 		.4byte	0xba
 4614 0bf1 02       		.byte	0x2
 4615 0bf2 91       		.byte	0x91
 4616 0bf3 08       		.sleb128 8
 4617 0bf4 1F       		.uleb128 0x1f
 4618 0bf5 7000     		.ascii	"p\000"
 4619 0bf7 01       		.byte	0x1
 4620 0bf8 DC       		.byte	0xdc
 4621 0bf9 D9010000 		.4byte	0x1d9
 4622 0bfd 98000000 		.4byte	.LLST5
 4623 0c01 20       		.uleb128 0x20
 4624 0c02 AF050000 		.4byte	.LASF174
 4625 0c06 01       		.byte	0x1
 4626 0c07 DD       		.byte	0xdd
 4627 0c08 D0000000 		.4byte	0xd0
 4628 0c0c B6000000 		.4byte	.LLST6
 4629 0c10 00       		.byte	0
 4630 0c11 0B       		.uleb128 0xb
 4631 0c12 04       		.byte	0x4
 4632 0c13 D0000000 		.4byte	0xd0
 4633 0c17 1B       		.uleb128 0x1b
 4634 0c18 17060000 		.4byte	.LASF176
 4635 0c1c 01       		.byte	0x1
 4636 0c1d 9C       		.byte	0x9c
 4637 0c1e 01       		.byte	0x1
 4638 0c1f 0C080000 		.4byte	0x80c
 4639 0c23 00000000 		.4byte	.LFB9
 4640 0c27 E0000000 		.4byte	.LFE9
 4641 0c2b 00010000 		.4byte	.LLST7
 4642 0c2f 9A0C0000 		.4byte	0xc9a
 4643 0c33 21       		.uleb128 0x21
 4644 0c34 70636200 		.ascii	"pcb\000"
 4645 0c38 01       		.byte	0x1
 4646 0c39 9C       		.byte	0x9c
 4647 0c3a A3030000 		.4byte	0x3a3
 4648 0c3e 20010000 		.4byte	.LLST8
 4649 0c42 21       		.uleb128 0x21
 4650 0c43 7000     		.ascii	"p\000"
 4651 0c45 01       		.byte	0x1
 4652 0c46 9C       		.byte	0x9c
 4653 0c47 D9010000 		.4byte	0x1d9
 4654 0c4b 3E010000 		.4byte	.LLST9
 4655 0c4f 1C       		.uleb128 0x1c
 4656 0c50 80000000 		.4byte	.LASF38
 4657 0c54 01       		.byte	0x1
 4658 0c55 9C       		.byte	0x9c
 4659 0c56 BA000000 		.4byte	0xba
 4660 0c5a 67010000 		.4byte	.LLST10
ARM GAS  /var/folders/5n/p_75w94d66l9ssrldxqdhh700000gn/T//cc4n8EPc.s 			page 83


 4661 0c5e 1C       		.uleb128 0x1c
 4662 0c5f C4010000 		.4byte	.LASF121
 4663 0c63 01       		.byte	0x1
 4664 0c64 9C       		.byte	0x9c
 4665 0c65 E6000000 		.4byte	0xe6
 4666 0c69 7A010000 		.4byte	.LLST11
 4667 0c6d 1E       		.uleb128 0x1e
 4668 0c6e E8040000 		.4byte	.LASF177
 4669 0c72 01       		.byte	0x1
 4670 0c73 9C       		.byte	0x9c
 4671 0c74 BA000000 		.4byte	0xba
 4672 0c78 02       		.byte	0x2
 4673 0c79 91       		.byte	0x91
 4674 0c7a 00       		.sleb128 0
 4675 0c7b 1F       		.uleb128 0x1f
 4676 0c7c 73656700 		.ascii	"seg\000"
 4677 0c80 01       		.byte	0x1
 4678 0c81 9E       		.byte	0x9e
 4679 0c82 0C080000 		.4byte	0x80c
 4680 0c86 98010000 		.4byte	.LLST12
 4681 0c8a 20       		.uleb128 0x20
 4682 0c8b 4A010000 		.4byte	.LASF165
 4683 0c8f 01       		.byte	0x1
 4684 0c90 9F       		.byte	0x9f
 4685 0c91 BA000000 		.4byte	0xba
 4686 0c95 E2010000 		.4byte	.LLST13
 4687 0c99 00       		.byte	0
 4688 0c9a 22       		.uleb128 0x22
 4689 0c9b 200B0000 		.4byte	0xb20
 4690 0c9f 00000000 		.4byte	.LFB23
 4691 0ca3 A2000000 		.4byte	.LFE23
 4692 0ca7 0A020000 		.4byte	.LLST14
 4693 0cab E30C0000 		.4byte	0xce3
 4694 0caf 23       		.uleb128 0x23
 4695 0cb0 310B0000 		.4byte	0xb31
 4696 0cb4 2A020000 		.4byte	.LLST15
 4697 0cb8 23       		.uleb128 0x23
 4698 0cb9 470B0000 		.4byte	0xb47
 4699 0cbd 48020000 		.4byte	.LLST16
 4700 0cc1 23       		.uleb128 0x23
 4701 0cc2 520B0000 		.4byte	0xb52
 4702 0cc6 5B020000 		.4byte	.LLST17
 4703 0cca 24       		.uleb128 0x24
 4704 0ccb 5D0B0000 		.4byte	0xb5d
 4705 0ccf 79020000 		.4byte	.LLST18
 4706 0cd3 24       		.uleb128 0x24
 4707 0cd4 680B0000 		.4byte	0xb68
 4708 0cd8 98020000 		.4byte	.LLST19
 4709 0cdc 25       		.uleb128 0x25
 4710 0cdd 3C0B0000 		.4byte	0xb3c
 4711 0ce1 00       		.byte	0
 4712 0ce2 00       		.byte	0
 4713 0ce3 26       		.uleb128 0x26
 4714 0ce4 00000000 		.4byte	.LASF179
 4715 0ce8 01       		.byte	0x1
 4716 0ce9 2301     		.2byte	0x123
 4717 0ceb 01       		.byte	0x1
ARM GAS  /var/folders/5n/p_75w94d66l9ssrldxqdhh700000gn/T//cc4n8EPc.s 			page 84


 4718 0cec 07010000 		.4byte	0x107
 4719 0cf0 01       		.byte	0x1
 4720 0cf1 0E0D0000 		.4byte	0xd0e
 4721 0cf5 27       		.uleb128 0x27
 4722 0cf6 70636200 		.ascii	"pcb\000"
 4723 0cfa 01       		.byte	0x1
 4724 0cfb 2301     		.2byte	0x123
 4725 0cfd A3030000 		.4byte	0x3a3
 4726 0d01 27       		.uleb128 0x27
 4727 0d02 6C656E00 		.ascii	"len\000"
 4728 0d06 01       		.byte	0x1
 4729 0d07 2301     		.2byte	0x123
 4730 0d09 D0000000 		.4byte	0xd0
 4731 0d0d 00       		.byte	0
 4732 0d0e 28       		.uleb128 0x28
 4733 0d0f 01       		.byte	0x1
 4734 0d10 19080000 		.4byte	.LASF191
 4735 0d14 01       		.byte	0x1
 4736 0d15 5F01     		.2byte	0x15f
 4737 0d17 01       		.byte	0x1
 4738 0d18 07010000 		.4byte	0x107
 4739 0d1c 00000000 		.4byte	.LFB12
 4740 0d20 60040000 		.4byte	.LFE12
 4741 0d24 B6020000 		.4byte	.LLST20
 4742 0d28 090F0000 		.4byte	0xf09
 4743 0d2c 29       		.uleb128 0x29
 4744 0d2d 70636200 		.ascii	"pcb\000"
 4745 0d31 01       		.byte	0x1
 4746 0d32 5F01     		.2byte	0x15f
 4747 0d34 A3030000 		.4byte	0x3a3
 4748 0d38 E3020000 		.4byte	.LLST21
 4749 0d3c 29       		.uleb128 0x29
 4750 0d3d 61726700 		.ascii	"arg\000"
 4751 0d41 01       		.byte	0x1
 4752 0d42 5F01     		.2byte	0x15f
 4753 0d44 090F0000 		.4byte	0xf09
 4754 0d48 17030000 		.4byte	.LLST22
 4755 0d4c 29       		.uleb128 0x29
 4756 0d4d 6C656E00 		.ascii	"len\000"
 4757 0d51 01       		.byte	0x1
 4758 0d52 5F01     		.2byte	0x15f
 4759 0d54 D0000000 		.4byte	0xd0
 4760 0d58 37030000 		.4byte	.LLST23
 4761 0d5c 2A       		.uleb128 0x2a
 4762 0d5d 43070000 		.4byte	.LASF172
 4763 0d61 01       		.byte	0x1
 4764 0d62 5F01     		.2byte	0x15f
 4765 0d64 BA000000 		.4byte	0xba
 4766 0d68 8C030000 		.4byte	.LLST24
 4767 0d6c 2B       		.uleb128 0x2b
 4768 0d6d C4050000 		.4byte	.LASF180
 4769 0d71 01       		.byte	0x1
 4770 0d72 6101     		.2byte	0x161
 4771 0d74 D9010000 		.4byte	0x1d9
 4772 0d78 9F030000 		.4byte	.LLST25
 4773 0d7c 2B       		.uleb128 0x2b
 4774 0d7d A9030000 		.4byte	.LASF181
ARM GAS  /var/folders/5n/p_75w94d66l9ssrldxqdhh700000gn/T//cc4n8EPc.s 			page 85


 4775 0d81 01       		.byte	0x1
 4776 0d82 6201     		.2byte	0x162
 4777 0d84 0C080000 		.4byte	0x80c
 4778 0d88 59040000 		.4byte	.LLST26
 4779 0d8c 2C       		.uleb128 0x2c
 4780 0d8d 73656700 		.ascii	"seg\000"
 4781 0d91 01       		.byte	0x1
 4782 0d92 6201     		.2byte	0x162
 4783 0d94 0C080000 		.4byte	0x80c
 4784 0d98 FC040000 		.4byte	.LLST27
 4785 0d9c 2B       		.uleb128 0x2b
 4786 0d9d 67070000 		.4byte	.LASF182
 4787 0da1 01       		.byte	0x1
 4788 0da2 6201     		.2byte	0x162
 4789 0da4 0C080000 		.4byte	0x80c
 4790 0da8 D3050000 		.4byte	.LLST28
 4791 0dac 2B       		.uleb128 0x2b
 4792 0dad 59070000 		.4byte	.LASF183
 4793 0db1 01       		.byte	0x1
 4794 0db2 6201     		.2byte	0x162
 4795 0db4 0C080000 		.4byte	0x80c
 4796 0db8 51060000 		.4byte	.LLST29
 4797 0dbc 2C       		.uleb128 0x2c
 4798 0dbd 706F7300 		.ascii	"pos\000"
 4799 0dc1 01       		.byte	0x1
 4800 0dc2 6301     		.2byte	0x163
 4801 0dc4 D0000000 		.4byte	0xd0
 4802 0dc8 EB060000 		.4byte	.LLST30
 4803 0dcc 2B       		.uleb128 0x2b
 4804 0dcd 5E080000 		.4byte	.LASF184
 4805 0dd1 01       		.byte	0x1
 4806 0dd2 6401     		.2byte	0x164
 4807 0dd4 D0000000 		.4byte	0xd0
 4808 0dd8 8A070000 		.4byte	.LLST31
 4809 0ddc 2D       		.uleb128 0x2d
 4810 0ddd 4A010000 		.4byte	.LASF165
 4811 0de1 01       		.byte	0x1
 4812 0de2 6501     		.2byte	0x165
 4813 0de4 BA000000 		.4byte	0xba
 4814 0de8 00       		.byte	0
 4815 0de9 2D       		.uleb128 0x2d
 4816 0dea E8040000 		.4byte	.LASF177
 4817 0dee 01       		.byte	0x1
 4818 0def 6601     		.2byte	0x166
 4819 0df1 BA000000 		.4byte	0xba
 4820 0df5 00       		.byte	0
 4821 0df6 2B       		.uleb128 0x2b
 4822 0df7 4A000000 		.4byte	.LASF171
 4823 0dfb 01       		.byte	0x1
 4824 0dfc 6801     		.2byte	0x168
 4825 0dfe D0000000 		.4byte	0xd0
 4826 0e02 F2070000 		.4byte	.LLST32
 4827 0e06 2B       		.uleb128 0x2b
 4828 0e07 32010000 		.4byte	.LASF185
 4829 0e0b 01       		.byte	0x1
 4830 0e0c 6901     		.2byte	0x169
 4831 0e0e D0000000 		.4byte	0xd0
ARM GAS  /var/folders/5n/p_75w94d66l9ssrldxqdhh700000gn/T//cc4n8EPc.s 			page 86


 4832 0e12 57080000 		.4byte	.LLST33
 4833 0e16 2E       		.uleb128 0x2e
 4834 0e17 65727200 		.ascii	"err\000"
 4835 0e1b 01       		.byte	0x1
 4836 0e1c 7001     		.2byte	0x170
 4837 0e1e 07010000 		.4byte	0x107
 4838 0e22 01       		.byte	0x1
 4839 0e23 50       		.byte	0x50
 4840 0e24 2F       		.uleb128 0x2f
 4841 0e25 AB070000 		.4byte	.LASF146
 4842 0e29 01       		.byte	0x1
 4843 0e2a AE02     		.2byte	0x2ae
 4844 0e2c 06030000 		.4byte	.L51
 4845 0e30 30       		.uleb128 0x30
 4846 0e31 E30C0000 		.4byte	0xce3
 4847 0e35 1A000000 		.4byte	.LBB9
 4848 0e39 00000000 		.4byte	.Ldebug_ranges0+0
 4849 0e3d 01       		.byte	0x1
 4850 0e3e 7C01     		.2byte	0x17c
 4851 0e40 570E0000 		.4byte	0xe57
 4852 0e44 23       		.uleb128 0x23
 4853 0e45 010D0000 		.4byte	0xd01
 4854 0e49 D6080000 		.4byte	.LLST34
 4855 0e4d 23       		.uleb128 0x23
 4856 0e4e F50C0000 		.4byte	0xcf5
 4857 0e52 20090000 		.4byte	.LLST35
 4858 0e56 00       		.byte	0
 4859 0e57 31       		.uleb128 0x31
 4860 0e58 38000000 		.4byte	.Ldebug_ranges0+0x38
 4861 0e5c 970E0000 		.4byte	0xe97
 4862 0e60 2B       		.uleb128 0x2b
 4863 0e61 FF030000 		.4byte	.LASF186
 4864 0e65 01       		.byte	0x1
 4865 0e66 A201     		.2byte	0x1a2
 4866 0e68 D0000000 		.4byte	0xd0
 4867 0e6c 54090000 		.4byte	.LLST36
 4868 0e70 2B       		.uleb128 0x2b
 4869 0e71 61000000 		.4byte	.LASF187
 4870 0e75 01       		.byte	0x1
 4871 0e76 A301     		.2byte	0x1a3
 4872 0e78 D0000000 		.4byte	0xd0
 4873 0e7c 72090000 		.4byte	.LLST37
 4874 0e80 32       		.uleb128 0x32
 4875 0e81 58000000 		.4byte	.Ldebug_ranges0+0x58
 4876 0e85 2B       		.uleb128 0x2b
 4877 0e86 4F080000 		.4byte	.LASF188
 4878 0e8a 01       		.byte	0x1
 4879 0e8b CF01     		.2byte	0x1cf
 4880 0e8d D0000000 		.4byte	0xd0
 4881 0e91 8B090000 		.4byte	.LLST38
 4882 0e95 00       		.byte	0
 4883 0e96 00       		.byte	0
 4884 0e97 31       		.uleb128 0x31
 4885 0e98 70000000 		.4byte	.Ldebug_ranges0+0x70
 4886 0e9c F40E0000 		.4byte	0xef4
 4887 0ea0 2C       		.uleb128 0x2c
 4888 0ea1 7000     		.ascii	"p\000"
ARM GAS  /var/folders/5n/p_75w94d66l9ssrldxqdhh700000gn/T//cc4n8EPc.s 			page 87


 4889 0ea3 01       		.byte	0x1
 4890 0ea4 0602     		.2byte	0x206
 4891 0ea6 D9010000 		.4byte	0x1d9
 4892 0eaa BF090000 		.4byte	.LLST39
 4893 0eae 2B       		.uleb128 0x2b
 4894 0eaf 76060000 		.4byte	.LASF189
 4895 0eb3 01       		.byte	0x1
 4896 0eb4 0702     		.2byte	0x207
 4897 0eb6 D0000000 		.4byte	0xd0
 4898 0eba 400A0000 		.4byte	.LLST40
 4899 0ebe 2B       		.uleb128 0x2b
 4900 0ebf 02050000 		.4byte	.LASF190
 4901 0ec3 01       		.byte	0x1
 4902 0ec4 0802     		.2byte	0x208
 4903 0ec6 D0000000 		.4byte	0xd0
 4904 0eca A80A0000 		.4byte	.LLST41
 4905 0ece 2B       		.uleb128 0x2b
 4906 0ecf 4F080000 		.4byte	.LASF188
 4907 0ed3 01       		.byte	0x1
 4908 0ed4 0902     		.2byte	0x209
 4909 0ed6 D0000000 		.4byte	0xd0
 4910 0eda D10A0000 		.4byte	.LLST42
 4911 0ede 32       		.uleb128 0x32
 4912 0edf B8000000 		.4byte	.Ldebug_ranges0+0xb8
 4913 0ee3 2C       		.uleb128 0x2c
 4914 0ee4 703200   		.ascii	"p2\000"
 4915 0ee7 01       		.byte	0x1
 4916 0ee8 1F02     		.2byte	0x21f
 4917 0eea D9010000 		.4byte	0x1d9
 4918 0eee 1B0B0000 		.4byte	.LLST43
 4919 0ef2 00       		.byte	0
 4920 0ef3 00       		.byte	0
 4921 0ef4 32       		.uleb128 0x32
 4922 0ef5 D8000000 		.4byte	.Ldebug_ranges0+0xd8
 4923 0ef9 2C       		.uleb128 0x2c
 4924 0efa 7000     		.ascii	"p\000"
 4925 0efc 01       		.byte	0x1
 4926 0efd 6E02     		.2byte	0x26e
 4927 0eff D9010000 		.4byte	0x1d9
 4928 0f03 440B0000 		.4byte	.LLST44
 4929 0f07 00       		.byte	0
 4930 0f08 00       		.byte	0
 4931 0f09 0B       		.uleb128 0xb
 4932 0f0a 04       		.byte	0x4
 4933 0f0b 0F0F0000 		.4byte	0xf0f
 4934 0f0f 33       		.uleb128 0x33
 4935 0f10 28       		.uleb128 0x28
 4936 0f11 01       		.byte	0x1
 4937 0f12 A4010000 		.4byte	.LASF192
 4938 0f16 01       		.byte	0x1
 4939 0f17 CB02     		.2byte	0x2cb
 4940 0f19 01       		.byte	0x1
 4941 0f1a 07010000 		.4byte	0x107
 4942 0f1e 00000000 		.4byte	.LFB13
 4943 0f22 60010000 		.4byte	.LFE13
 4944 0f26 670B0000 		.4byte	.LLST45
 4945 0f2a A40F0000 		.4byte	0xfa4
ARM GAS  /var/folders/5n/p_75w94d66l9ssrldxqdhh700000gn/T//cc4n8EPc.s 			page 88


 4946 0f2e 29       		.uleb128 0x29
 4947 0f2f 70636200 		.ascii	"pcb\000"
 4948 0f33 01       		.byte	0x1
 4949 0f34 CB02     		.2byte	0x2cb
 4950 0f36 A3030000 		.4byte	0x3a3
 4951 0f3a 930B0000 		.4byte	.LLST46
 4952 0f3e 2A       		.uleb128 0x2a
 4953 0f3f 80000000 		.4byte	.LASF38
 4954 0f43 01       		.byte	0x1
 4955 0f44 CB02     		.2byte	0x2cb
 4956 0f46 BA000000 		.4byte	0xba
 4957 0f4a C70B0000 		.4byte	.LLST47
 4958 0f4e 2C       		.uleb128 0x2c
 4959 0f4f 7000     		.ascii	"p\000"
 4960 0f51 01       		.byte	0x1
 4961 0f52 CD02     		.2byte	0x2cd
 4962 0f54 D9010000 		.4byte	0x1d9
 4963 0f58 E50B0000 		.4byte	.LLST48
 4964 0f5c 2C       		.uleb128 0x2c
 4965 0f5d 73656700 		.ascii	"seg\000"
 4966 0f61 01       		.byte	0x1
 4967 0f62 CE02     		.2byte	0x2ce
 4968 0f64 0C080000 		.4byte	0x80c
 4969 0f68 030C0000 		.4byte	.LLST49
 4970 0f6c 2D       		.uleb128 0x2d
 4971 0f6d E8040000 		.4byte	.LASF177
 4972 0f71 01       		.byte	0x1
 4973 0f72 CF02     		.2byte	0x2cf
 4974 0f74 BA000000 		.4byte	0xba
 4975 0f78 00       		.byte	0
 4976 0f79 2B       		.uleb128 0x2b
 4977 0f7a 4A010000 		.4byte	.LASF165
 4978 0f7e 01       		.byte	0x1
 4979 0f7f D002     		.2byte	0x2d0
 4980 0f81 BA000000 		.4byte	0xba
 4981 0f85 370C0000 		.4byte	.LLST50
 4982 0f89 34       		.uleb128 0x34
 4983 0f8a 6E000000 		.4byte	.LBB39
 4984 0f8e 78000000 		.4byte	.LBE39
 4985 0f92 2B       		.uleb128 0x2b
 4986 0f93 BD020000 		.4byte	.LASF193
 4987 0f97 01       		.byte	0x1
 4988 0f98 1003     		.2byte	0x310
 4989 0f9a 0C080000 		.4byte	0x80c
 4990 0f9e 780C0000 		.4byte	.LLST51
 4991 0fa2 00       		.byte	0
 4992 0fa3 00       		.byte	0
 4993 0fa4 35       		.uleb128 0x35
 4994 0fa5 01       		.byte	0x1
 4995 0fa6 57050000 		.4byte	.LASF194
 4996 0faa 01       		.byte	0x1
 4997 0fab 7B       		.byte	0x7b
 4998 0fac 01       		.byte	0x1
 4999 0fad 07010000 		.4byte	0x107
 5000 0fb1 00000000 		.4byte	.LFB8
 5001 0fb5 50000000 		.4byte	.LFE8
 5002 0fb9 8B0C0000 		.4byte	.LLST52
ARM GAS  /var/folders/5n/p_75w94d66l9ssrldxqdhh700000gn/T//cc4n8EPc.s 			page 89


 5003 0fbd E60F0000 		.4byte	0xfe6
 5004 0fc1 21       		.uleb128 0x21
 5005 0fc2 70636200 		.ascii	"pcb\000"
 5006 0fc6 01       		.byte	0x1
 5007 0fc7 7B       		.byte	0x7b
 5008 0fc8 A3030000 		.4byte	0x3a3
 5009 0fcc AB0C0000 		.4byte	.LLST53
 5010 0fd0 32       		.uleb128 0x32
 5011 0fd1 F0000000 		.4byte	.Ldebug_ranges0+0xf0
 5012 0fd5 20       		.uleb128 0x20
 5013 0fd6 A9030000 		.4byte	.LASF181
 5014 0fda 01       		.byte	0x1
 5015 0fdb 7F       		.byte	0x7f
 5016 0fdc 0C080000 		.4byte	0x80c
 5017 0fe0 C90C0000 		.4byte	.LLST54
 5018 0fe4 00       		.byte	0
 5019 0fe5 00       		.byte	0
 5020 0fe6 28       		.uleb128 0x28
 5021 0fe7 01       		.byte	0x1
 5022 0fe8 FF050000 		.4byte	.LASF195
 5023 0fec 01       		.byte	0x1
 5024 0fed 4403     		.2byte	0x344
 5025 0fef 01       		.byte	0x1
 5026 0ff0 07010000 		.4byte	0x107
 5027 0ff4 00000000 		.4byte	.LFB14
 5028 0ff8 6C000000 		.4byte	.LFE14
 5029 0ffc E70C0000 		.4byte	.LLST55
 5030 1000 40100000 		.4byte	0x1040
 5031 1004 29       		.uleb128 0x29
 5032 1005 70636200 		.ascii	"pcb\000"
 5033 1009 01       		.byte	0x1
 5034 100a 4403     		.2byte	0x344
 5035 100c A3030000 		.4byte	0x3a3
 5036 1010 130D0000 		.4byte	.LLST56
 5037 1014 2C       		.uleb128 0x2c
 5038 1015 7000     		.ascii	"p\000"
 5039 1017 01       		.byte	0x1
 5040 1018 4603     		.2byte	0x346
 5041 101a D9010000 		.4byte	0x1d9
 5042 101e 540D0000 		.4byte	.LLST57
 5043 1022 2B       		.uleb128 0x2b
 5044 1023 23070000 		.4byte	.LASF118
 5045 1027 01       		.byte	0x1
 5046 1028 4703     		.2byte	0x347
 5047 102a 8F080000 		.4byte	0x88f
 5048 102e 720D0000 		.4byte	.LLST58
 5049 1032 2D       		.uleb128 0x2d
 5050 1033 4A010000 		.4byte	.LASF165
 5051 1037 01       		.byte	0x1
 5052 1038 4803     		.2byte	0x348
 5053 103a BA000000 		.4byte	0xba
 5054 103e 00       		.byte	0
 5055 103f 00       		.byte	0
 5056 1040 36       		.uleb128 0x36
 5057 1041 00030000 		.4byte	.LASF214
 5058 1045 01       		.byte	0x1
 5059 1046 1604     		.2byte	0x416
ARM GAS  /var/folders/5n/p_75w94d66l9ssrldxqdhh700000gn/T//cc4n8EPc.s 			page 90


 5060 1048 01       		.byte	0x1
 5061 1049 01       		.byte	0x1
 5062 104a 8B100000 		.4byte	0x108b
 5063 104e 27       		.uleb128 0x27
 5064 104f 73656700 		.ascii	"seg\000"
 5065 1053 01       		.byte	0x1
 5066 1054 1604     		.2byte	0x416
 5067 1056 0C080000 		.4byte	0x80c
 5068 105a 27       		.uleb128 0x27
 5069 105b 70636200 		.ascii	"pcb\000"
 5070 105f 01       		.byte	0x1
 5071 1060 1604     		.2byte	0x416
 5072 1062 A3030000 		.4byte	0x3a3
 5073 1066 37       		.uleb128 0x37
 5074 1067 6C656E00 		.ascii	"len\000"
 5075 106b 01       		.byte	0x1
 5076 106c 1804     		.2byte	0x418
 5077 106e D0000000 		.4byte	0xd0
 5078 1072 38       		.uleb128 0x38
 5079 1073 FF070000 		.4byte	.LASF43
 5080 1077 01       		.byte	0x1
 5081 1078 1904     		.2byte	0x419
 5082 107a 05020000 		.4byte	0x205
 5083 107e 38       		.uleb128 0x38
 5084 107f 12060000 		.4byte	.LASF196
 5085 1083 01       		.byte	0x1
 5086 1084 1A04     		.2byte	0x41a
 5087 1086 8B100000 		.4byte	0x108b
 5088 108a 00       		.byte	0
 5089 108b 0B       		.uleb128 0xb
 5090 108c 04       		.byte	0x4
 5091 108d E6000000 		.4byte	0xe6
 5092 1091 28       		.uleb128 0x28
 5093 1092 01       		.byte	0x1
 5094 1093 5D030000 		.4byte	.LASF197
 5095 1097 01       		.byte	0x1
 5096 1098 7C03     		.2byte	0x37c
 5097 109a 01       		.byte	0x1
 5098 109b 07010000 		.4byte	0x107
 5099 109f 00000000 		.4byte	.LFB15
 5100 10a3 BC030000 		.4byte	.LFE15
 5101 10a7 910D0000 		.4byte	.LLST59
 5102 10ab 62110000 		.4byte	0x1162
 5103 10af 29       		.uleb128 0x29
 5104 10b0 70636200 		.ascii	"pcb\000"
 5105 10b4 01       		.byte	0x1
 5106 10b5 7C03     		.2byte	0x37c
 5107 10b7 A3030000 		.4byte	0x3a3
 5108 10bb BD0D0000 		.4byte	.LLST60
 5109 10bf 2C       		.uleb128 0x2c
 5110 10c0 73656700 		.ascii	"seg\000"
 5111 10c4 01       		.byte	0x1
 5112 10c5 7E03     		.2byte	0x37e
 5113 10c7 0C080000 		.4byte	0x80c
 5114 10cb DB0D0000 		.4byte	.LLST61
 5115 10cf 2B       		.uleb128 0x2b
 5116 10d0 BD020000 		.4byte	.LASF193
ARM GAS  /var/folders/5n/p_75w94d66l9ssrldxqdhh700000gn/T//cc4n8EPc.s 			page 91


 5117 10d4 01       		.byte	0x1
 5118 10d5 7E03     		.2byte	0x37e
 5119 10d7 0C080000 		.4byte	0x80c
 5120 10db 360E0000 		.4byte	.LLST62
 5121 10df 2C       		.uleb128 0x2c
 5122 10e0 776E6400 		.ascii	"wnd\000"
 5123 10e4 01       		.byte	0x1
 5124 10e5 7F03     		.2byte	0x37f
 5125 10e7 E6000000 		.4byte	0xe6
 5126 10eb A30E0000 		.4byte	.LLST63
 5127 10ef 2B       		.uleb128 0x2b
 5128 10f0 6E060000 		.4byte	.LASF79
 5129 10f4 01       		.byte	0x1
 5130 10f5 7F03     		.2byte	0x37f
 5131 10f7 E6000000 		.4byte	0xe6
 5132 10fb C10E0000 		.4byte	.LLST64
 5133 10ff 30       		.uleb128 0x30
 5134 1100 40100000 		.4byte	0x1040
 5135 1104 40000000 		.4byte	.LBB45
 5136 1108 08010000 		.4byte	.Ldebug_ranges0+0x108
 5137 110c 01       		.byte	0x1
 5138 110d D703     		.2byte	0x3d7
 5139 110f 47110000 		.4byte	0x1147
 5140 1113 23       		.uleb128 0x23
 5141 1114 5A100000 		.4byte	0x105a
 5142 1118 D40E0000 		.4byte	.LLST65
 5143 111c 23       		.uleb128 0x23
 5144 111d 4E100000 		.4byte	0x104e
 5145 1121 FD0E0000 		.4byte	.LLST66
 5146 1125 32       		.uleb128 0x32
 5147 1126 28010000 		.4byte	.Ldebug_ranges0+0x128
 5148 112a 24       		.uleb128 0x24
 5149 112b 66100000 		.4byte	0x1066
 5150 112f 310F0000 		.4byte	.LLST67
 5151 1133 24       		.uleb128 0x24
 5152 1134 72100000 		.4byte	0x1072
 5153 1138 440F0000 		.4byte	.LLST68
 5154 113c 24       		.uleb128 0x24
 5155 113d 7E100000 		.4byte	0x107e
 5156 1141 570F0000 		.4byte	.LLST69
 5157 1145 00       		.byte	0
 5158 1146 00       		.byte	0
 5159 1147 34       		.uleb128 0x34
 5160 1148 D2020000 		.4byte	.LBB51
 5161 114c 28030000 		.4byte	.LBE51
 5162 1150 2B       		.uleb128 0x2b
 5163 1151 56080000 		.4byte	.LASF198
 5164 1155 01       		.byte	0x1
 5165 1156 EA03     		.2byte	0x3ea
 5166 1158 62110000 		.4byte	0x1162
 5167 115c 790F0000 		.4byte	.LLST70
 5168 1160 00       		.byte	0
 5169 1161 00       		.byte	0
 5170 1162 0B       		.uleb128 0xb
 5171 1163 04       		.byte	0x4
 5172 1164 0C080000 		.4byte	0x80c
 5173 1168 39       		.uleb128 0x39
ARM GAS  /var/folders/5n/p_75w94d66l9ssrldxqdhh700000gn/T//cc4n8EPc.s 			page 92


 5174 1169 01       		.byte	0x1
 5175 116a 89050000 		.4byte	.LASF199
 5176 116e 01       		.byte	0x1
 5177 116f A304     		.2byte	0x4a3
 5178 1171 01       		.byte	0x1
 5179 1172 00000000 		.4byte	.LFB17
 5180 1176 F4000000 		.4byte	.LFE17
 5181 117a 9A0F0000 		.4byte	.LLST71
 5182 117e FF110000 		.4byte	0x11ff
 5183 1182 2A       		.uleb128 0x2a
 5184 1183 C4010000 		.4byte	.LASF121
 5185 1187 01       		.byte	0x1
 5186 1188 A304     		.2byte	0x4a3
 5187 118a E6000000 		.4byte	0xe6
 5188 118e C60F0000 		.4byte	.LLST72
 5189 1192 2A       		.uleb128 0x2a
 5190 1193 57040000 		.4byte	.LASF122
 5191 1197 01       		.byte	0x1
 5192 1198 A304     		.2byte	0x4a3
 5193 119a E6000000 		.4byte	0xe6
 5194 119e EF0F0000 		.4byte	.LLST73
 5195 11a2 2A       		.uleb128 0x2a
 5196 11a3 48060000 		.4byte	.LASF57
 5197 11a7 01       		.byte	0x1
 5198 11a8 A404     		.2byte	0x4a4
 5199 11aa 2C030000 		.4byte	0x32c
 5200 11ae 0D100000 		.4byte	.LLST74
 5201 11b2 2A       		.uleb128 0x2a
 5202 11b3 78080000 		.4byte	.LASF58
 5203 11b7 01       		.byte	0x1
 5204 11b8 A404     		.2byte	0x4a4
 5205 11ba 2C030000 		.4byte	0x32c
 5206 11be 2B100000 		.4byte	.LLST75
 5207 11c2 3A       		.uleb128 0x3a
 5208 11c3 08020000 		.4byte	.LASF63
 5209 11c7 01       		.byte	0x1
 5210 11c8 A504     		.2byte	0x4a5
 5211 11ca D0000000 		.4byte	0xd0
 5212 11ce 02       		.byte	0x2
 5213 11cf 91       		.byte	0x91
 5214 11d0 00       		.sleb128 0
 5215 11d1 3A       		.uleb128 0x3a
 5216 11d2 F1040000 		.4byte	.LASF64
 5217 11d6 01       		.byte	0x1
 5218 11d7 A504     		.2byte	0x4a5
 5219 11d9 D0000000 		.4byte	0xd0
 5220 11dd 02       		.byte	0x2
 5221 11de 91       		.byte	0x91
 5222 11df 04       		.sleb128 4
 5223 11e0 2C       		.uleb128 0x2c
 5224 11e1 7000     		.ascii	"p\000"
 5225 11e3 01       		.byte	0x1
 5226 11e4 A704     		.2byte	0x4a7
 5227 11e6 D9010000 		.4byte	0x1d9
 5228 11ea 49100000 		.4byte	.LLST76
 5229 11ee 2B       		.uleb128 0x2b
 5230 11ef 23070000 		.4byte	.LASF118
ARM GAS  /var/folders/5n/p_75w94d66l9ssrldxqdhh700000gn/T//cc4n8EPc.s 			page 93


 5231 11f3 01       		.byte	0x1
 5232 11f4 A804     		.2byte	0x4a8
 5233 11f6 8F080000 		.4byte	0x88f
 5234 11fa 67100000 		.4byte	.LLST77
 5235 11fe 00       		.byte	0
 5236 11ff 39       		.uleb128 0x39
 5237 1200 01       		.byte	0x1
 5238 1201 65020000 		.4byte	.LASF200
 5239 1205 01       		.byte	0x1
 5240 1206 CF04     		.2byte	0x4cf
 5241 1208 01       		.byte	0x1
 5242 1209 00000000 		.4byte	.LFB18
 5243 120d 30000000 		.4byte	.LFE18
 5244 1211 86100000 		.4byte	.LLST78
 5245 1215 3A120000 		.4byte	0x123a
 5246 1219 29       		.uleb128 0x29
 5247 121a 70636200 		.ascii	"pcb\000"
 5248 121e 01       		.byte	0x1
 5249 121f CF04     		.2byte	0x4cf
 5250 1221 A3030000 		.4byte	0x3a3
 5251 1225 A6100000 		.4byte	.LLST79
 5252 1229 2C       		.uleb128 0x2c
 5253 122a 73656700 		.ascii	"seg\000"
 5254 122e 01       		.byte	0x1
 5255 122f D104     		.2byte	0x4d1
 5256 1231 0C080000 		.4byte	0x80c
 5257 1235 C4100000 		.4byte	.LLST80
 5258 1239 00       		.byte	0
 5259 123a 39       		.uleb128 0x39
 5260 123b 01       		.byte	0x1
 5261 123c EC000000 		.4byte	.LASF201
 5262 1240 01       		.byte	0x1
 5263 1241 F204     		.2byte	0x4f2
 5264 1243 01       		.byte	0x1
 5265 1244 00000000 		.4byte	.LFB19
 5266 1248 72000000 		.4byte	.LFE19
 5267 124c D7100000 		.4byte	.LLST81
 5268 1250 85120000 		.4byte	0x1285
 5269 1254 29       		.uleb128 0x29
 5270 1255 70636200 		.ascii	"pcb\000"
 5271 1259 01       		.byte	0x1
 5272 125a F204     		.2byte	0x4f2
 5273 125c A3030000 		.4byte	0x3a3
 5274 1260 F7100000 		.4byte	.LLST82
 5275 1264 2C       		.uleb128 0x2c
 5276 1265 73656700 		.ascii	"seg\000"
 5277 1269 01       		.byte	0x1
 5278 126a F404     		.2byte	0x4f4
 5279 126c 0C080000 		.4byte	0x80c
 5280 1270 15110000 		.4byte	.LLST83
 5281 1274 2B       		.uleb128 0x2b
 5282 1275 56080000 		.4byte	.LASF198
 5283 1279 01       		.byte	0x1
 5284 127a F504     		.2byte	0x4f5
 5285 127c 62110000 		.4byte	0x1162
 5286 1280 35110000 		.4byte	.LLST84
 5287 1284 00       		.byte	0
ARM GAS  /var/folders/5n/p_75w94d66l9ssrldxqdhh700000gn/T//cc4n8EPc.s 			page 94


 5288 1285 39       		.uleb128 0x39
 5289 1286 01       		.byte	0x1
 5290 1287 82080000 		.4byte	.LASF202
 5291 128b 01       		.byte	0x1
 5292 128c 1A05     		.2byte	0x51a
 5293 128e 01       		.byte	0x1
 5294 128f 00000000 		.4byte	.LFB20
 5295 1293 56000000 		.4byte	.LFE20
 5296 1297 56110000 		.4byte	.LLST85
 5297 129b B0120000 		.4byte	0x12b0
 5298 129f 29       		.uleb128 0x29
 5299 12a0 70636200 		.ascii	"pcb\000"
 5300 12a4 01       		.byte	0x1
 5301 12a5 1A05     		.2byte	0x51a
 5302 12a7 A3030000 		.4byte	0x3a3
 5303 12ab 76110000 		.4byte	.LLST86
 5304 12af 00       		.byte	0
 5305 12b0 39       		.uleb128 0x39
 5306 12b1 01       		.byte	0x1
 5307 12b2 2B000000 		.4byte	.LASF203
 5308 12b6 01       		.byte	0x1
 5309 12b7 4505     		.2byte	0x545
 5310 12b9 01       		.byte	0x1
 5311 12ba 00000000 		.4byte	.LFB21
 5312 12be 6C000000 		.4byte	.LFE21
 5313 12c2 94110000 		.4byte	.LLST87
 5314 12c6 F9120000 		.4byte	0x12f9
 5315 12ca 29       		.uleb128 0x29
 5316 12cb 70636200 		.ascii	"pcb\000"
 5317 12cf 01       		.byte	0x1
 5318 12d0 4505     		.2byte	0x545
 5319 12d2 A3030000 		.4byte	0x3a3
 5320 12d6 C0110000 		.4byte	.LLST88
 5321 12da 2C       		.uleb128 0x2c
 5322 12db 7000     		.ascii	"p\000"
 5323 12dd 01       		.byte	0x1
 5324 12de 4705     		.2byte	0x547
 5325 12e0 D9010000 		.4byte	0x1d9
 5326 12e4 01120000 		.4byte	.LLST89
 5327 12e8 2B       		.uleb128 0x2b
 5328 12e9 23070000 		.4byte	.LASF118
 5329 12ed 01       		.byte	0x1
 5330 12ee 4805     		.2byte	0x548
 5331 12f0 8F080000 		.4byte	0x88f
 5332 12f4 1F120000 		.4byte	.LLST90
 5333 12f8 00       		.byte	0
 5334 12f9 39       		.uleb128 0x39
 5335 12fa 01       		.byte	0x1
 5336 12fb C5000000 		.4byte	.LASF204
 5337 12ff 01       		.byte	0x1
 5338 1300 7705     		.2byte	0x577
 5339 1302 01       		.byte	0x1
 5340 1303 00000000 		.4byte	.LFB22
 5341 1307 04010000 		.4byte	.LFE22
 5342 130b 3E120000 		.4byte	.LLST91
 5343 130f 9A130000 		.4byte	0x139a
 5344 1313 29       		.uleb128 0x29
ARM GAS  /var/folders/5n/p_75w94d66l9ssrldxqdhh700000gn/T//cc4n8EPc.s 			page 95


 5345 1314 70636200 		.ascii	"pcb\000"
 5346 1318 01       		.byte	0x1
 5347 1319 7705     		.2byte	0x577
 5348 131b A3030000 		.4byte	0x3a3
 5349 131f 6A120000 		.4byte	.LLST92
 5350 1323 2C       		.uleb128 0x2c
 5351 1324 7000     		.ascii	"p\000"
 5352 1326 01       		.byte	0x1
 5353 1327 7905     		.2byte	0x579
 5354 1329 D9010000 		.4byte	0x1d9
 5355 132d AB120000 		.4byte	.LLST93
 5356 1331 2B       		.uleb128 0x2b
 5357 1332 23070000 		.4byte	.LASF118
 5358 1336 01       		.byte	0x1
 5359 1337 7A05     		.2byte	0x57a
 5360 1339 8F080000 		.4byte	0x88f
 5361 133d DF120000 		.4byte	.LLST94
 5362 1341 2C       		.uleb128 0x2c
 5363 1342 73656700 		.ascii	"seg\000"
 5364 1346 01       		.byte	0x1
 5365 1347 7B05     		.2byte	0x57b
 5366 1349 0C080000 		.4byte	0x80c
 5367 134d 15130000 		.4byte	.LLST95
 5368 1351 2C       		.uleb128 0x2c
 5369 1352 6C656E00 		.ascii	"len\000"
 5370 1356 01       		.byte	0x1
 5371 1357 7C05     		.2byte	0x57c
 5372 1359 D0000000 		.4byte	0xd0
 5373 135d 63130000 		.4byte	.LLST96
 5374 1361 2B       		.uleb128 0x2b
 5375 1362 31020000 		.4byte	.LASF205
 5376 1366 01       		.byte	0x1
 5377 1367 7D05     		.2byte	0x57d
 5378 1369 BA000000 		.4byte	0xba
 5379 136d 76130000 		.4byte	.LLST97
 5380 1371 34       		.uleb128 0x34
 5381 1372 4E000000 		.4byte	.LBB52
 5382 1376 76000000 		.4byte	.LBE52
 5383 137a 2B       		.uleb128 0x2b
 5384 137b C9020000 		.4byte	.LASF206
 5385 137f 01       		.byte	0x1
 5386 1380 A305     		.2byte	0x5a3
 5387 1382 8F080000 		.4byte	0x88f
 5388 1386 94130000 		.4byte	.LLST98
 5389 138a 2C       		.uleb128 0x2c
 5390 138b 6400     		.ascii	"d\000"
 5391 138d 01       		.byte	0x1
 5392 138e A405     		.2byte	0x5a4
 5393 1390 1A0B0000 		.4byte	0xb1a
 5394 1394 A8130000 		.4byte	.LLST99
 5395 1398 00       		.byte	0
 5396 1399 00       		.byte	0
 5397 139a 3B       		.uleb128 0x3b
 5398 139b 5D040000 		.4byte	.LASF207
 5399 139f 0A       		.byte	0xa
 5400 13a0 3601     		.2byte	0x136
 5401 13a2 A3030000 		.4byte	0x3a3
ARM GAS  /var/folders/5n/p_75w94d66l9ssrldxqdhh700000gn/T//cc4n8EPc.s 			page 96


 5402 13a6 01       		.byte	0x1
 5403 13a7 01       		.byte	0x1
 5404 13a8 3B       		.uleb128 0x3b
 5405 13a9 19070000 		.4byte	.LASF208
 5406 13ad 0A       		.byte	0xa
 5407 13ae 3701     		.2byte	0x137
 5408 13b0 E6000000 		.4byte	0xe6
 5409 13b4 01       		.byte	0x1
 5410 13b5 01       		.byte	0x1
 5411 13b6 3C       		.uleb128 0x3c
 5412 13b7 7E010000 		.4byte	.LASF209
 5413 13bb 0C       		.byte	0xc
 5414 13bc 95       		.byte	0x95
 5415 13bd 6D0A0000 		.4byte	0xa6d
 5416 13c1 01       		.byte	0x1
 5417 13c2 01       		.byte	0x1
 5418 13c3 3B       		.uleb128 0x3b
 5419 13c4 5D040000 		.4byte	.LASF207
 5420 13c8 0A       		.byte	0xa
 5421 13c9 3601     		.2byte	0x136
 5422 13cb A3030000 		.4byte	0x3a3
 5423 13cf 01       		.byte	0x1
 5424 13d0 01       		.byte	0x1
 5425 13d1 3B       		.uleb128 0x3b
 5426 13d2 19070000 		.4byte	.LASF208
 5427 13d6 0A       		.byte	0xa
 5428 13d7 3701     		.2byte	0x137
 5429 13d9 E6000000 		.4byte	0xe6
 5430 13dd 01       		.byte	0x1
 5431 13de 01       		.byte	0x1
 5432 13df 3C       		.uleb128 0x3c
 5433 13e0 7E010000 		.4byte	.LASF209
 5434 13e4 0C       		.byte	0xc
 5435 13e5 95       		.byte	0x95
 5436 13e6 6D0A0000 		.4byte	0xa6d
 5437 13ea 01       		.byte	0x1
 5438 13eb 01       		.byte	0x1
 5439 13ec 00       		.byte	0
 5440              		.section	.debug_abbrev,"",%progbits
 5441              	.Ldebug_abbrev0:
 5442 0000 01       		.uleb128 0x1
 5443 0001 11       		.uleb128 0x11
 5444 0002 01       		.byte	0x1
 5445 0003 25       		.uleb128 0x25
 5446 0004 0E       		.uleb128 0xe
 5447 0005 13       		.uleb128 0x13
 5448 0006 0B       		.uleb128 0xb
 5449 0007 03       		.uleb128 0x3
 5450 0008 0E       		.uleb128 0xe
 5451 0009 1B       		.uleb128 0x1b
 5452 000a 0E       		.uleb128 0xe
 5453 000b 11       		.uleb128 0x11
 5454 000c 01       		.uleb128 0x1
 5455 000d 52       		.uleb128 0x52
 5456 000e 01       		.uleb128 0x1
 5457 000f 55       		.uleb128 0x55
 5458 0010 06       		.uleb128 0x6
ARM GAS  /var/folders/5n/p_75w94d66l9ssrldxqdhh700000gn/T//cc4n8EPc.s 			page 97


 5459 0011 10       		.uleb128 0x10
 5460 0012 06       		.uleb128 0x6
 5461 0013 00       		.byte	0
 5462 0014 00       		.byte	0
 5463 0015 02       		.uleb128 0x2
 5464 0016 24       		.uleb128 0x24
 5465 0017 00       		.byte	0
 5466 0018 0B       		.uleb128 0xb
 5467 0019 0B       		.uleb128 0xb
 5468 001a 3E       		.uleb128 0x3e
 5469 001b 0B       		.uleb128 0xb
 5470 001c 03       		.uleb128 0x3
 5471 001d 08       		.uleb128 0x8
 5472 001e 00       		.byte	0
 5473 001f 00       		.byte	0
 5474 0020 03       		.uleb128 0x3
 5475 0021 24       		.uleb128 0x24
 5476 0022 00       		.byte	0
 5477 0023 0B       		.uleb128 0xb
 5478 0024 0B       		.uleb128 0xb
 5479 0025 3E       		.uleb128 0x3e
 5480 0026 0B       		.uleb128 0xb
 5481 0027 03       		.uleb128 0x3
 5482 0028 0E       		.uleb128 0xe
 5483 0029 00       		.byte	0
 5484 002a 00       		.byte	0
 5485 002b 04       		.uleb128 0x4
 5486 002c 16       		.uleb128 0x16
 5487 002d 00       		.byte	0
 5488 002e 03       		.uleb128 0x3
 5489 002f 0E       		.uleb128 0xe
 5490 0030 3A       		.uleb128 0x3a
 5491 0031 0B       		.uleb128 0xb
 5492 0032 3B       		.uleb128 0x3b
 5493 0033 0B       		.uleb128 0xb
 5494 0034 49       		.uleb128 0x49
 5495 0035 13       		.uleb128 0x13
 5496 0036 00       		.byte	0
 5497 0037 00       		.byte	0
 5498 0038 05       		.uleb128 0x5
 5499 0039 0F       		.uleb128 0xf
 5500 003a 00       		.byte	0
 5501 003b 0B       		.uleb128 0xb
 5502 003c 0B       		.uleb128 0xb
 5503 003d 00       		.byte	0
 5504 003e 00       		.byte	0
 5505 003f 06       		.uleb128 0x6
 5506 0040 04       		.uleb128 0x4
 5507 0041 01       		.byte	0x1
 5508 0042 0B       		.uleb128 0xb
 5509 0043 0B       		.uleb128 0xb
 5510 0044 3A       		.uleb128 0x3a
 5511 0045 0B       		.uleb128 0xb
 5512 0046 3B       		.uleb128 0x3b
 5513 0047 0B       		.uleb128 0xb
 5514 0048 01       		.uleb128 0x1
 5515 0049 13       		.uleb128 0x13
ARM GAS  /var/folders/5n/p_75w94d66l9ssrldxqdhh700000gn/T//cc4n8EPc.s 			page 98


 5516 004a 00       		.byte	0
 5517 004b 00       		.byte	0
 5518 004c 07       		.uleb128 0x7
 5519 004d 28       		.uleb128 0x28
 5520 004e 00       		.byte	0
 5521 004f 03       		.uleb128 0x3
 5522 0050 0E       		.uleb128 0xe
 5523 0051 1C       		.uleb128 0x1c
 5524 0052 0D       		.uleb128 0xd
 5525 0053 00       		.byte	0
 5526 0054 00       		.byte	0
 5527 0055 08       		.uleb128 0x8
 5528 0056 13       		.uleb128 0x13
 5529 0057 01       		.byte	0x1
 5530 0058 03       		.uleb128 0x3
 5531 0059 0E       		.uleb128 0xe
 5532 005a 0B       		.uleb128 0xb
 5533 005b 0B       		.uleb128 0xb
 5534 005c 3A       		.uleb128 0x3a
 5535 005d 0B       		.uleb128 0xb
 5536 005e 3B       		.uleb128 0x3b
 5537 005f 0B       		.uleb128 0xb
 5538 0060 01       		.uleb128 0x1
 5539 0061 13       		.uleb128 0x13
 5540 0062 00       		.byte	0
 5541 0063 00       		.byte	0
 5542 0064 09       		.uleb128 0x9
 5543 0065 0D       		.uleb128 0xd
 5544 0066 00       		.byte	0
 5545 0067 03       		.uleb128 0x3
 5546 0068 0E       		.uleb128 0xe
 5547 0069 3A       		.uleb128 0x3a
 5548 006a 0B       		.uleb128 0xb
 5549 006b 3B       		.uleb128 0x3b
 5550 006c 0B       		.uleb128 0xb
 5551 006d 49       		.uleb128 0x49
 5552 006e 13       		.uleb128 0x13
 5553 006f 38       		.uleb128 0x38
 5554 0070 0A       		.uleb128 0xa
 5555 0071 00       		.byte	0
 5556 0072 00       		.byte	0
 5557 0073 0A       		.uleb128 0xa
 5558 0074 0D       		.uleb128 0xd
 5559 0075 00       		.byte	0
 5560 0076 03       		.uleb128 0x3
 5561 0077 08       		.uleb128 0x8
 5562 0078 3A       		.uleb128 0x3a
 5563 0079 0B       		.uleb128 0xb
 5564 007a 3B       		.uleb128 0x3b
 5565 007b 0B       		.uleb128 0xb
 5566 007c 49       		.uleb128 0x49
 5567 007d 13       		.uleb128 0x13
 5568 007e 38       		.uleb128 0x38
 5569 007f 0A       		.uleb128 0xa
 5570 0080 00       		.byte	0
 5571 0081 00       		.byte	0
 5572 0082 0B       		.uleb128 0xb
ARM GAS  /var/folders/5n/p_75w94d66l9ssrldxqdhh700000gn/T//cc4n8EPc.s 			page 99


 5573 0083 0F       		.uleb128 0xf
 5574 0084 00       		.byte	0
 5575 0085 0B       		.uleb128 0xb
 5576 0086 0B       		.uleb128 0xb
 5577 0087 49       		.uleb128 0x49
 5578 0088 13       		.uleb128 0x13
 5579 0089 00       		.byte	0
 5580 008a 00       		.byte	0
 5581 008b 0C       		.uleb128 0xc
 5582 008c 15       		.uleb128 0x15
 5583 008d 01       		.byte	0x1
 5584 008e 27       		.uleb128 0x27
 5585 008f 0C       		.uleb128 0xc
 5586 0090 49       		.uleb128 0x49
 5587 0091 13       		.uleb128 0x13
 5588 0092 01       		.uleb128 0x1
 5589 0093 13       		.uleb128 0x13
 5590 0094 00       		.byte	0
 5591 0095 00       		.byte	0
 5592 0096 0D       		.uleb128 0xd
 5593 0097 05       		.uleb128 0x5
 5594 0098 00       		.byte	0
 5595 0099 49       		.uleb128 0x49
 5596 009a 13       		.uleb128 0x13
 5597 009b 00       		.byte	0
 5598 009c 00       		.byte	0
 5599 009d 0E       		.uleb128 0xe
 5600 009e 01       		.uleb128 0x1
 5601 009f 01       		.byte	0x1
 5602 00a0 49       		.uleb128 0x49
 5603 00a1 13       		.uleb128 0x13
 5604 00a2 01       		.uleb128 0x1
 5605 00a3 13       		.uleb128 0x13
 5606 00a4 00       		.byte	0
 5607 00a5 00       		.byte	0
 5608 00a6 0F       		.uleb128 0xf
 5609 00a7 21       		.uleb128 0x21
 5610 00a8 00       		.byte	0
 5611 00a9 49       		.uleb128 0x49
 5612 00aa 13       		.uleb128 0x13
 5613 00ab 2F       		.uleb128 0x2f
 5614 00ac 0B       		.uleb128 0xb
 5615 00ad 00       		.byte	0
 5616 00ae 00       		.byte	0
 5617 00af 10       		.uleb128 0x10
 5618 00b0 0D       		.uleb128 0xd
 5619 00b1 00       		.byte	0
 5620 00b2 03       		.uleb128 0x3
 5621 00b3 0E       		.uleb128 0xe
 5622 00b4 3A       		.uleb128 0x3a
 5623 00b5 0B       		.uleb128 0xb
 5624 00b6 3B       		.uleb128 0x3b
 5625 00b7 05       		.uleb128 0x5
 5626 00b8 49       		.uleb128 0x49
 5627 00b9 13       		.uleb128 0x13
 5628 00ba 38       		.uleb128 0x38
 5629 00bb 0A       		.uleb128 0xa
ARM GAS  /var/folders/5n/p_75w94d66l9ssrldxqdhh700000gn/T//cc4n8EPc.s 			page 100


 5630 00bc 00       		.byte	0
 5631 00bd 00       		.byte	0
 5632 00be 11       		.uleb128 0x11
 5633 00bf 15       		.uleb128 0x15
 5634 00c0 01       		.byte	0x1
 5635 00c1 27       		.uleb128 0x27
 5636 00c2 0C       		.uleb128 0xc
 5637 00c3 01       		.uleb128 0x1
 5638 00c4 13       		.uleb128 0x13
 5639 00c5 00       		.byte	0
 5640 00c6 00       		.byte	0
 5641 00c7 12       		.uleb128 0x12
 5642 00c8 04       		.uleb128 0x4
 5643 00c9 01       		.byte	0x1
 5644 00ca 03       		.uleb128 0x3
 5645 00cb 0E       		.uleb128 0xe
 5646 00cc 0B       		.uleb128 0xb
 5647 00cd 0B       		.uleb128 0xb
 5648 00ce 3A       		.uleb128 0x3a
 5649 00cf 0B       		.uleb128 0xb
 5650 00d0 3B       		.uleb128 0x3b
 5651 00d1 0B       		.uleb128 0xb
 5652 00d2 01       		.uleb128 0x1
 5653 00d3 13       		.uleb128 0x13
 5654 00d4 00       		.byte	0
 5655 00d5 00       		.byte	0
 5656 00d6 13       		.uleb128 0x13
 5657 00d7 13       		.uleb128 0x13
 5658 00d8 01       		.byte	0x1
 5659 00d9 03       		.uleb128 0x3
 5660 00da 0E       		.uleb128 0xe
 5661 00db 0B       		.uleb128 0xb
 5662 00dc 0B       		.uleb128 0xb
 5663 00dd 3A       		.uleb128 0x3a
 5664 00de 0B       		.uleb128 0xb
 5665 00df 3B       		.uleb128 0x3b
 5666 00e0 05       		.uleb128 0x5
 5667 00e1 01       		.uleb128 0x1
 5668 00e2 13       		.uleb128 0x13
 5669 00e3 00       		.byte	0
 5670 00e4 00       		.byte	0
 5671 00e5 14       		.uleb128 0x14
 5672 00e6 0D       		.uleb128 0xd
 5673 00e7 00       		.byte	0
 5674 00e8 03       		.uleb128 0x3
 5675 00e9 08       		.uleb128 0x8
 5676 00ea 3A       		.uleb128 0x3a
 5677 00eb 0B       		.uleb128 0xb
 5678 00ec 3B       		.uleb128 0x3b
 5679 00ed 05       		.uleb128 0x5
 5680 00ee 49       		.uleb128 0x49
 5681 00ef 13       		.uleb128 0x13
 5682 00f0 38       		.uleb128 0x38
 5683 00f1 0A       		.uleb128 0xa
 5684 00f2 00       		.byte	0
 5685 00f3 00       		.byte	0
 5686 00f4 15       		.uleb128 0x15
ARM GAS  /var/folders/5n/p_75w94d66l9ssrldxqdhh700000gn/T//cc4n8EPc.s 			page 101


 5687 00f5 13       		.uleb128 0x13
 5688 00f6 01       		.byte	0x1
 5689 00f7 03       		.uleb128 0x3
 5690 00f8 0E       		.uleb128 0xe
 5691 00f9 0B       		.uleb128 0xb
 5692 00fa 05       		.uleb128 0x5
 5693 00fb 3A       		.uleb128 0x3a
 5694 00fc 0B       		.uleb128 0xb
 5695 00fd 3B       		.uleb128 0x3b
 5696 00fe 0B       		.uleb128 0xb
 5697 00ff 01       		.uleb128 0x1
 5698 0100 13       		.uleb128 0x13
 5699 0101 00       		.byte	0
 5700 0102 00       		.byte	0
 5701 0103 16       		.uleb128 0x16
 5702 0104 2E       		.uleb128 0x2e
 5703 0105 01       		.byte	0x1
 5704 0106 03       		.uleb128 0x3
 5705 0107 0E       		.uleb128 0xe
 5706 0108 3A       		.uleb128 0x3a
 5707 0109 0B       		.uleb128 0xb
 5708 010a 3B       		.uleb128 0x3b
 5709 010b 0B       		.uleb128 0xb
 5710 010c 27       		.uleb128 0x27
 5711 010d 0C       		.uleb128 0xc
 5712 010e 49       		.uleb128 0x49
 5713 010f 13       		.uleb128 0x13
 5714 0110 20       		.uleb128 0x20
 5715 0111 0B       		.uleb128 0xb
 5716 0112 01       		.uleb128 0x1
 5717 0113 13       		.uleb128 0x13
 5718 0114 00       		.byte	0
 5719 0115 00       		.byte	0
 5720 0116 17       		.uleb128 0x17
 5721 0117 05       		.uleb128 0x5
 5722 0118 00       		.byte	0
 5723 0119 03       		.uleb128 0x3
 5724 011a 08       		.uleb128 0x8
 5725 011b 3A       		.uleb128 0x3a
 5726 011c 0B       		.uleb128 0xb
 5727 011d 3B       		.uleb128 0x3b
 5728 011e 0B       		.uleb128 0xb
 5729 011f 49       		.uleb128 0x49
 5730 0120 13       		.uleb128 0x13
 5731 0121 00       		.byte	0
 5732 0122 00       		.byte	0
 5733 0123 18       		.uleb128 0x18
 5734 0124 05       		.uleb128 0x5
 5735 0125 00       		.byte	0
 5736 0126 03       		.uleb128 0x3
 5737 0127 0E       		.uleb128 0xe
 5738 0128 3A       		.uleb128 0x3a
 5739 0129 0B       		.uleb128 0xb
 5740 012a 3B       		.uleb128 0x3b
 5741 012b 0B       		.uleb128 0xb
 5742 012c 49       		.uleb128 0x49
 5743 012d 13       		.uleb128 0x13
ARM GAS  /var/folders/5n/p_75w94d66l9ssrldxqdhh700000gn/T//cc4n8EPc.s 			page 102


 5744 012e 00       		.byte	0
 5745 012f 00       		.byte	0
 5746 0130 19       		.uleb128 0x19
 5747 0131 34       		.uleb128 0x34
 5748 0132 00       		.byte	0
 5749 0133 03       		.uleb128 0x3
 5750 0134 0E       		.uleb128 0xe
 5751 0135 3A       		.uleb128 0x3a
 5752 0136 0B       		.uleb128 0xb
 5753 0137 3B       		.uleb128 0x3b
 5754 0138 0B       		.uleb128 0xb
 5755 0139 49       		.uleb128 0x49
 5756 013a 13       		.uleb128 0x13
 5757 013b 00       		.byte	0
 5758 013c 00       		.byte	0
 5759 013d 1A       		.uleb128 0x1a
 5760 013e 34       		.uleb128 0x34
 5761 013f 00       		.byte	0
 5762 0140 03       		.uleb128 0x3
 5763 0141 08       		.uleb128 0x8
 5764 0142 3A       		.uleb128 0x3a
 5765 0143 0B       		.uleb128 0xb
 5766 0144 3B       		.uleb128 0x3b
 5767 0145 0B       		.uleb128 0xb
 5768 0146 49       		.uleb128 0x49
 5769 0147 13       		.uleb128 0x13
 5770 0148 00       		.byte	0
 5771 0149 00       		.byte	0
 5772 014a 1B       		.uleb128 0x1b
 5773 014b 2E       		.uleb128 0x2e
 5774 014c 01       		.byte	0x1
 5775 014d 03       		.uleb128 0x3
 5776 014e 0E       		.uleb128 0xe
 5777 014f 3A       		.uleb128 0x3a
 5778 0150 0B       		.uleb128 0xb
 5779 0151 3B       		.uleb128 0x3b
 5780 0152 0B       		.uleb128 0xb
 5781 0153 27       		.uleb128 0x27
 5782 0154 0C       		.uleb128 0xc
 5783 0155 49       		.uleb128 0x49
 5784 0156 13       		.uleb128 0x13
 5785 0157 11       		.uleb128 0x11
 5786 0158 01       		.uleb128 0x1
 5787 0159 12       		.uleb128 0x12
 5788 015a 01       		.uleb128 0x1
 5789 015b 40       		.uleb128 0x40
 5790 015c 06       		.uleb128 0x6
 5791 015d 01       		.uleb128 0x1
 5792 015e 13       		.uleb128 0x13
 5793 015f 00       		.byte	0
 5794 0160 00       		.byte	0
 5795 0161 1C       		.uleb128 0x1c
 5796 0162 05       		.uleb128 0x5
 5797 0163 00       		.byte	0
 5798 0164 03       		.uleb128 0x3
 5799 0165 0E       		.uleb128 0xe
 5800 0166 3A       		.uleb128 0x3a
ARM GAS  /var/folders/5n/p_75w94d66l9ssrldxqdhh700000gn/T//cc4n8EPc.s 			page 103


 5801 0167 0B       		.uleb128 0xb
 5802 0168 3B       		.uleb128 0x3b
 5803 0169 0B       		.uleb128 0xb
 5804 016a 49       		.uleb128 0x49
 5805 016b 13       		.uleb128 0x13
 5806 016c 02       		.uleb128 0x2
 5807 016d 06       		.uleb128 0x6
 5808 016e 00       		.byte	0
 5809 016f 00       		.byte	0
 5810 0170 1D       		.uleb128 0x1d
 5811 0171 05       		.uleb128 0x5
 5812 0172 00       		.byte	0
 5813 0173 03       		.uleb128 0x3
 5814 0174 08       		.uleb128 0x8
 5815 0175 3A       		.uleb128 0x3a
 5816 0176 0B       		.uleb128 0xb
 5817 0177 3B       		.uleb128 0x3b
 5818 0178 0B       		.uleb128 0xb
 5819 0179 49       		.uleb128 0x49
 5820 017a 13       		.uleb128 0x13
 5821 017b 02       		.uleb128 0x2
 5822 017c 0A       		.uleb128 0xa
 5823 017d 00       		.byte	0
 5824 017e 00       		.byte	0
 5825 017f 1E       		.uleb128 0x1e
 5826 0180 05       		.uleb128 0x5
 5827 0181 00       		.byte	0
 5828 0182 03       		.uleb128 0x3
 5829 0183 0E       		.uleb128 0xe
 5830 0184 3A       		.uleb128 0x3a
 5831 0185 0B       		.uleb128 0xb
 5832 0186 3B       		.uleb128 0x3b
 5833 0187 0B       		.uleb128 0xb
 5834 0188 49       		.uleb128 0x49
 5835 0189 13       		.uleb128 0x13
 5836 018a 02       		.uleb128 0x2
 5837 018b 0A       		.uleb128 0xa
 5838 018c 00       		.byte	0
 5839 018d 00       		.byte	0
 5840 018e 1F       		.uleb128 0x1f
 5841 018f 34       		.uleb128 0x34
 5842 0190 00       		.byte	0
 5843 0191 03       		.uleb128 0x3
 5844 0192 08       		.uleb128 0x8
 5845 0193 3A       		.uleb128 0x3a
 5846 0194 0B       		.uleb128 0xb
 5847 0195 3B       		.uleb128 0x3b
 5848 0196 0B       		.uleb128 0xb
 5849 0197 49       		.uleb128 0x49
 5850 0198 13       		.uleb128 0x13
 5851 0199 02       		.uleb128 0x2
 5852 019a 06       		.uleb128 0x6
 5853 019b 00       		.byte	0
 5854 019c 00       		.byte	0
 5855 019d 20       		.uleb128 0x20
 5856 019e 34       		.uleb128 0x34
 5857 019f 00       		.byte	0
ARM GAS  /var/folders/5n/p_75w94d66l9ssrldxqdhh700000gn/T//cc4n8EPc.s 			page 104


 5858 01a0 03       		.uleb128 0x3
 5859 01a1 0E       		.uleb128 0xe
 5860 01a2 3A       		.uleb128 0x3a
 5861 01a3 0B       		.uleb128 0xb
 5862 01a4 3B       		.uleb128 0x3b
 5863 01a5 0B       		.uleb128 0xb
 5864 01a6 49       		.uleb128 0x49
 5865 01a7 13       		.uleb128 0x13
 5866 01a8 02       		.uleb128 0x2
 5867 01a9 06       		.uleb128 0x6
 5868 01aa 00       		.byte	0
 5869 01ab 00       		.byte	0
 5870 01ac 21       		.uleb128 0x21
 5871 01ad 05       		.uleb128 0x5
 5872 01ae 00       		.byte	0
 5873 01af 03       		.uleb128 0x3
 5874 01b0 08       		.uleb128 0x8
 5875 01b1 3A       		.uleb128 0x3a
 5876 01b2 0B       		.uleb128 0xb
 5877 01b3 3B       		.uleb128 0x3b
 5878 01b4 0B       		.uleb128 0xb
 5879 01b5 49       		.uleb128 0x49
 5880 01b6 13       		.uleb128 0x13
 5881 01b7 02       		.uleb128 0x2
 5882 01b8 06       		.uleb128 0x6
 5883 01b9 00       		.byte	0
 5884 01ba 00       		.byte	0
 5885 01bb 22       		.uleb128 0x22
 5886 01bc 2E       		.uleb128 0x2e
 5887 01bd 01       		.byte	0x1
 5888 01be 31       		.uleb128 0x31
 5889 01bf 13       		.uleb128 0x13
 5890 01c0 11       		.uleb128 0x11
 5891 01c1 01       		.uleb128 0x1
 5892 01c2 12       		.uleb128 0x12
 5893 01c3 01       		.uleb128 0x1
 5894 01c4 40       		.uleb128 0x40
 5895 01c5 06       		.uleb128 0x6
 5896 01c6 01       		.uleb128 0x1
 5897 01c7 13       		.uleb128 0x13
 5898 01c8 00       		.byte	0
 5899 01c9 00       		.byte	0
 5900 01ca 23       		.uleb128 0x23
 5901 01cb 05       		.uleb128 0x5
 5902 01cc 00       		.byte	0
 5903 01cd 31       		.uleb128 0x31
 5904 01ce 13       		.uleb128 0x13
 5905 01cf 02       		.uleb128 0x2
 5906 01d0 06       		.uleb128 0x6
 5907 01d1 00       		.byte	0
 5908 01d2 00       		.byte	0
 5909 01d3 24       		.uleb128 0x24
 5910 01d4 34       		.uleb128 0x34
 5911 01d5 00       		.byte	0
 5912 01d6 31       		.uleb128 0x31
 5913 01d7 13       		.uleb128 0x13
 5914 01d8 02       		.uleb128 0x2
ARM GAS  /var/folders/5n/p_75w94d66l9ssrldxqdhh700000gn/T//cc4n8EPc.s 			page 105


 5915 01d9 06       		.uleb128 0x6
 5916 01da 00       		.byte	0
 5917 01db 00       		.byte	0
 5918 01dc 25       		.uleb128 0x25
 5919 01dd 05       		.uleb128 0x5
 5920 01de 00       		.byte	0
 5921 01df 31       		.uleb128 0x31
 5922 01e0 13       		.uleb128 0x13
 5923 01e1 1C       		.uleb128 0x1c
 5924 01e2 0B       		.uleb128 0xb
 5925 01e3 00       		.byte	0
 5926 01e4 00       		.byte	0
 5927 01e5 26       		.uleb128 0x26
 5928 01e6 2E       		.uleb128 0x2e
 5929 01e7 01       		.byte	0x1
 5930 01e8 03       		.uleb128 0x3
 5931 01e9 0E       		.uleb128 0xe
 5932 01ea 3A       		.uleb128 0x3a
 5933 01eb 0B       		.uleb128 0xb
 5934 01ec 3B       		.uleb128 0x3b
 5935 01ed 05       		.uleb128 0x5
 5936 01ee 27       		.uleb128 0x27
 5937 01ef 0C       		.uleb128 0xc
 5938 01f0 49       		.uleb128 0x49
 5939 01f1 13       		.uleb128 0x13
 5940 01f2 20       		.uleb128 0x20
 5941 01f3 0B       		.uleb128 0xb
 5942 01f4 01       		.uleb128 0x1
 5943 01f5 13       		.uleb128 0x13
 5944 01f6 00       		.byte	0
 5945 01f7 00       		.byte	0
 5946 01f8 27       		.uleb128 0x27
 5947 01f9 05       		.uleb128 0x5
 5948 01fa 00       		.byte	0
 5949 01fb 03       		.uleb128 0x3
 5950 01fc 08       		.uleb128 0x8
 5951 01fd 3A       		.uleb128 0x3a
 5952 01fe 0B       		.uleb128 0xb
 5953 01ff 3B       		.uleb128 0x3b
 5954 0200 05       		.uleb128 0x5
 5955 0201 49       		.uleb128 0x49
 5956 0202 13       		.uleb128 0x13
 5957 0203 00       		.byte	0
 5958 0204 00       		.byte	0
 5959 0205 28       		.uleb128 0x28
 5960 0206 2E       		.uleb128 0x2e
 5961 0207 01       		.byte	0x1
 5962 0208 3F       		.uleb128 0x3f
 5963 0209 0C       		.uleb128 0xc
 5964 020a 03       		.uleb128 0x3
 5965 020b 0E       		.uleb128 0xe
 5966 020c 3A       		.uleb128 0x3a
 5967 020d 0B       		.uleb128 0xb
 5968 020e 3B       		.uleb128 0x3b
 5969 020f 05       		.uleb128 0x5
 5970 0210 27       		.uleb128 0x27
 5971 0211 0C       		.uleb128 0xc
ARM GAS  /var/folders/5n/p_75w94d66l9ssrldxqdhh700000gn/T//cc4n8EPc.s 			page 106


 5972 0212 49       		.uleb128 0x49
 5973 0213 13       		.uleb128 0x13
 5974 0214 11       		.uleb128 0x11
 5975 0215 01       		.uleb128 0x1
 5976 0216 12       		.uleb128 0x12
 5977 0217 01       		.uleb128 0x1
 5978 0218 40       		.uleb128 0x40
 5979 0219 06       		.uleb128 0x6
 5980 021a 01       		.uleb128 0x1
 5981 021b 13       		.uleb128 0x13
 5982 021c 00       		.byte	0
 5983 021d 00       		.byte	0
 5984 021e 29       		.uleb128 0x29
 5985 021f 05       		.uleb128 0x5
 5986 0220 00       		.byte	0
 5987 0221 03       		.uleb128 0x3
 5988 0222 08       		.uleb128 0x8
 5989 0223 3A       		.uleb128 0x3a
 5990 0224 0B       		.uleb128 0xb
 5991 0225 3B       		.uleb128 0x3b
 5992 0226 05       		.uleb128 0x5
 5993 0227 49       		.uleb128 0x49
 5994 0228 13       		.uleb128 0x13
 5995 0229 02       		.uleb128 0x2
 5996 022a 06       		.uleb128 0x6
 5997 022b 00       		.byte	0
 5998 022c 00       		.byte	0
 5999 022d 2A       		.uleb128 0x2a
 6000 022e 05       		.uleb128 0x5
 6001 022f 00       		.byte	0
 6002 0230 03       		.uleb128 0x3
 6003 0231 0E       		.uleb128 0xe
 6004 0232 3A       		.uleb128 0x3a
 6005 0233 0B       		.uleb128 0xb
 6006 0234 3B       		.uleb128 0x3b
 6007 0235 05       		.uleb128 0x5
 6008 0236 49       		.uleb128 0x49
 6009 0237 13       		.uleb128 0x13
 6010 0238 02       		.uleb128 0x2
 6011 0239 06       		.uleb128 0x6
 6012 023a 00       		.byte	0
 6013 023b 00       		.byte	0
 6014 023c 2B       		.uleb128 0x2b
 6015 023d 34       		.uleb128 0x34
 6016 023e 00       		.byte	0
 6017 023f 03       		.uleb128 0x3
 6018 0240 0E       		.uleb128 0xe
 6019 0241 3A       		.uleb128 0x3a
 6020 0242 0B       		.uleb128 0xb
 6021 0243 3B       		.uleb128 0x3b
 6022 0244 05       		.uleb128 0x5
 6023 0245 49       		.uleb128 0x49
 6024 0246 13       		.uleb128 0x13
 6025 0247 02       		.uleb128 0x2
 6026 0248 06       		.uleb128 0x6
 6027 0249 00       		.byte	0
 6028 024a 00       		.byte	0
ARM GAS  /var/folders/5n/p_75w94d66l9ssrldxqdhh700000gn/T//cc4n8EPc.s 			page 107


 6029 024b 2C       		.uleb128 0x2c
 6030 024c 34       		.uleb128 0x34
 6031 024d 00       		.byte	0
 6032 024e 03       		.uleb128 0x3
 6033 024f 08       		.uleb128 0x8
 6034 0250 3A       		.uleb128 0x3a
 6035 0251 0B       		.uleb128 0xb
 6036 0252 3B       		.uleb128 0x3b
 6037 0253 05       		.uleb128 0x5
 6038 0254 49       		.uleb128 0x49
 6039 0255 13       		.uleb128 0x13
 6040 0256 02       		.uleb128 0x2
 6041 0257 06       		.uleb128 0x6
 6042 0258 00       		.byte	0
 6043 0259 00       		.byte	0
 6044 025a 2D       		.uleb128 0x2d
 6045 025b 34       		.uleb128 0x34
 6046 025c 00       		.byte	0
 6047 025d 03       		.uleb128 0x3
 6048 025e 0E       		.uleb128 0xe
 6049 025f 3A       		.uleb128 0x3a
 6050 0260 0B       		.uleb128 0xb
 6051 0261 3B       		.uleb128 0x3b
 6052 0262 05       		.uleb128 0x5
 6053 0263 49       		.uleb128 0x49
 6054 0264 13       		.uleb128 0x13
 6055 0265 1C       		.uleb128 0x1c
 6056 0266 0B       		.uleb128 0xb
 6057 0267 00       		.byte	0
 6058 0268 00       		.byte	0
 6059 0269 2E       		.uleb128 0x2e
 6060 026a 34       		.uleb128 0x34
 6061 026b 00       		.byte	0
 6062 026c 03       		.uleb128 0x3
 6063 026d 08       		.uleb128 0x8
 6064 026e 3A       		.uleb128 0x3a
 6065 026f 0B       		.uleb128 0xb
 6066 0270 3B       		.uleb128 0x3b
 6067 0271 05       		.uleb128 0x5
 6068 0272 49       		.uleb128 0x49
 6069 0273 13       		.uleb128 0x13
 6070 0274 02       		.uleb128 0x2
 6071 0275 0A       		.uleb128 0xa
 6072 0276 00       		.byte	0
 6073 0277 00       		.byte	0
 6074 0278 2F       		.uleb128 0x2f
 6075 0279 0A       		.uleb128 0xa
 6076 027a 00       		.byte	0
 6077 027b 03       		.uleb128 0x3
 6078 027c 0E       		.uleb128 0xe
 6079 027d 3A       		.uleb128 0x3a
 6080 027e 0B       		.uleb128 0xb
 6081 027f 3B       		.uleb128 0x3b
 6082 0280 05       		.uleb128 0x5
 6083 0281 11       		.uleb128 0x11
 6084 0282 01       		.uleb128 0x1
 6085 0283 00       		.byte	0
ARM GAS  /var/folders/5n/p_75w94d66l9ssrldxqdhh700000gn/T//cc4n8EPc.s 			page 108


 6086 0284 00       		.byte	0
 6087 0285 30       		.uleb128 0x30
 6088 0286 1D       		.uleb128 0x1d
 6089 0287 01       		.byte	0x1
 6090 0288 31       		.uleb128 0x31
 6091 0289 13       		.uleb128 0x13
 6092 028a 52       		.uleb128 0x52
 6093 028b 01       		.uleb128 0x1
 6094 028c 55       		.uleb128 0x55
 6095 028d 06       		.uleb128 0x6
 6096 028e 58       		.uleb128 0x58
 6097 028f 0B       		.uleb128 0xb
 6098 0290 59       		.uleb128 0x59
 6099 0291 05       		.uleb128 0x5
 6100 0292 01       		.uleb128 0x1
 6101 0293 13       		.uleb128 0x13
 6102 0294 00       		.byte	0
 6103 0295 00       		.byte	0
 6104 0296 31       		.uleb128 0x31
 6105 0297 0B       		.uleb128 0xb
 6106 0298 01       		.byte	0x1
 6107 0299 55       		.uleb128 0x55
 6108 029a 06       		.uleb128 0x6
 6109 029b 01       		.uleb128 0x1
 6110 029c 13       		.uleb128 0x13
 6111 029d 00       		.byte	0
 6112 029e 00       		.byte	0
 6113 029f 32       		.uleb128 0x32
 6114 02a0 0B       		.uleb128 0xb
 6115 02a1 01       		.byte	0x1
 6116 02a2 55       		.uleb128 0x55
 6117 02a3 06       		.uleb128 0x6
 6118 02a4 00       		.byte	0
 6119 02a5 00       		.byte	0
 6120 02a6 33       		.uleb128 0x33
 6121 02a7 26       		.uleb128 0x26
 6122 02a8 00       		.byte	0
 6123 02a9 00       		.byte	0
 6124 02aa 00       		.byte	0
 6125 02ab 34       		.uleb128 0x34
 6126 02ac 0B       		.uleb128 0xb
 6127 02ad 01       		.byte	0x1
 6128 02ae 11       		.uleb128 0x11
 6129 02af 01       		.uleb128 0x1
 6130 02b0 12       		.uleb128 0x12
 6131 02b1 01       		.uleb128 0x1
 6132 02b2 00       		.byte	0
 6133 02b3 00       		.byte	0
 6134 02b4 35       		.uleb128 0x35
 6135 02b5 2E       		.uleb128 0x2e
 6136 02b6 01       		.byte	0x1
 6137 02b7 3F       		.uleb128 0x3f
 6138 02b8 0C       		.uleb128 0xc
 6139 02b9 03       		.uleb128 0x3
 6140 02ba 0E       		.uleb128 0xe
 6141 02bb 3A       		.uleb128 0x3a
 6142 02bc 0B       		.uleb128 0xb
ARM GAS  /var/folders/5n/p_75w94d66l9ssrldxqdhh700000gn/T//cc4n8EPc.s 			page 109


 6143 02bd 3B       		.uleb128 0x3b
 6144 02be 0B       		.uleb128 0xb
 6145 02bf 27       		.uleb128 0x27
 6146 02c0 0C       		.uleb128 0xc
 6147 02c1 49       		.uleb128 0x49
 6148 02c2 13       		.uleb128 0x13
 6149 02c3 11       		.uleb128 0x11
 6150 02c4 01       		.uleb128 0x1
 6151 02c5 12       		.uleb128 0x12
 6152 02c6 01       		.uleb128 0x1
 6153 02c7 40       		.uleb128 0x40
 6154 02c8 06       		.uleb128 0x6
 6155 02c9 01       		.uleb128 0x1
 6156 02ca 13       		.uleb128 0x13
 6157 02cb 00       		.byte	0
 6158 02cc 00       		.byte	0
 6159 02cd 36       		.uleb128 0x36
 6160 02ce 2E       		.uleb128 0x2e
 6161 02cf 01       		.byte	0x1
 6162 02d0 03       		.uleb128 0x3
 6163 02d1 0E       		.uleb128 0xe
 6164 02d2 3A       		.uleb128 0x3a
 6165 02d3 0B       		.uleb128 0xb
 6166 02d4 3B       		.uleb128 0x3b
 6167 02d5 05       		.uleb128 0x5
 6168 02d6 27       		.uleb128 0x27
 6169 02d7 0C       		.uleb128 0xc
 6170 02d8 20       		.uleb128 0x20
 6171 02d9 0B       		.uleb128 0xb
 6172 02da 01       		.uleb128 0x1
 6173 02db 13       		.uleb128 0x13
 6174 02dc 00       		.byte	0
 6175 02dd 00       		.byte	0
 6176 02de 37       		.uleb128 0x37
 6177 02df 34       		.uleb128 0x34
 6178 02e0 00       		.byte	0
 6179 02e1 03       		.uleb128 0x3
 6180 02e2 08       		.uleb128 0x8
 6181 02e3 3A       		.uleb128 0x3a
 6182 02e4 0B       		.uleb128 0xb
 6183 02e5 3B       		.uleb128 0x3b
 6184 02e6 05       		.uleb128 0x5
 6185 02e7 49       		.uleb128 0x49
 6186 02e8 13       		.uleb128 0x13
 6187 02e9 00       		.byte	0
 6188 02ea 00       		.byte	0
 6189 02eb 38       		.uleb128 0x38
 6190 02ec 34       		.uleb128 0x34
 6191 02ed 00       		.byte	0
 6192 02ee 03       		.uleb128 0x3
 6193 02ef 0E       		.uleb128 0xe
 6194 02f0 3A       		.uleb128 0x3a
 6195 02f1 0B       		.uleb128 0xb
 6196 02f2 3B       		.uleb128 0x3b
 6197 02f3 05       		.uleb128 0x5
 6198 02f4 49       		.uleb128 0x49
 6199 02f5 13       		.uleb128 0x13
ARM GAS  /var/folders/5n/p_75w94d66l9ssrldxqdhh700000gn/T//cc4n8EPc.s 			page 110


 6200 02f6 00       		.byte	0
 6201 02f7 00       		.byte	0
 6202 02f8 39       		.uleb128 0x39
 6203 02f9 2E       		.uleb128 0x2e
 6204 02fa 01       		.byte	0x1
 6205 02fb 3F       		.uleb128 0x3f
 6206 02fc 0C       		.uleb128 0xc
 6207 02fd 03       		.uleb128 0x3
 6208 02fe 0E       		.uleb128 0xe
 6209 02ff 3A       		.uleb128 0x3a
 6210 0300 0B       		.uleb128 0xb
 6211 0301 3B       		.uleb128 0x3b
 6212 0302 05       		.uleb128 0x5
 6213 0303 27       		.uleb128 0x27
 6214 0304 0C       		.uleb128 0xc
 6215 0305 11       		.uleb128 0x11
 6216 0306 01       		.uleb128 0x1
 6217 0307 12       		.uleb128 0x12
 6218 0308 01       		.uleb128 0x1
 6219 0309 40       		.uleb128 0x40
 6220 030a 06       		.uleb128 0x6
 6221 030b 01       		.uleb128 0x1
 6222 030c 13       		.uleb128 0x13
 6223 030d 00       		.byte	0
 6224 030e 00       		.byte	0
 6225 030f 3A       		.uleb128 0x3a
 6226 0310 05       		.uleb128 0x5
 6227 0311 00       		.byte	0
 6228 0312 03       		.uleb128 0x3
 6229 0313 0E       		.uleb128 0xe
 6230 0314 3A       		.uleb128 0x3a
 6231 0315 0B       		.uleb128 0xb
 6232 0316 3B       		.uleb128 0x3b
 6233 0317 05       		.uleb128 0x5
 6234 0318 49       		.uleb128 0x49
 6235 0319 13       		.uleb128 0x13
 6236 031a 02       		.uleb128 0x2
 6237 031b 0A       		.uleb128 0xa
 6238 031c 00       		.byte	0
 6239 031d 00       		.byte	0
 6240 031e 3B       		.uleb128 0x3b
 6241 031f 34       		.uleb128 0x34
 6242 0320 00       		.byte	0
 6243 0321 03       		.uleb128 0x3
 6244 0322 0E       		.uleb128 0xe
 6245 0323 3A       		.uleb128 0x3a
 6246 0324 0B       		.uleb128 0xb
 6247 0325 3B       		.uleb128 0x3b
 6248 0326 05       		.uleb128 0x5
 6249 0327 49       		.uleb128 0x49
 6250 0328 13       		.uleb128 0x13
 6251 0329 3F       		.uleb128 0x3f
 6252 032a 0C       		.uleb128 0xc
 6253 032b 3C       		.uleb128 0x3c
 6254 032c 0C       		.uleb128 0xc
 6255 032d 00       		.byte	0
 6256 032e 00       		.byte	0
ARM GAS  /var/folders/5n/p_75w94d66l9ssrldxqdhh700000gn/T//cc4n8EPc.s 			page 111


 6257 032f 3C       		.uleb128 0x3c
 6258 0330 34       		.uleb128 0x34
 6259 0331 00       		.byte	0
 6260 0332 03       		.uleb128 0x3
 6261 0333 0E       		.uleb128 0xe
 6262 0334 3A       		.uleb128 0x3a
 6263 0335 0B       		.uleb128 0xb
 6264 0336 3B       		.uleb128 0x3b
 6265 0337 0B       		.uleb128 0xb
 6266 0338 49       		.uleb128 0x49
 6267 0339 13       		.uleb128 0x13
 6268 033a 3F       		.uleb128 0x3f
 6269 033b 0C       		.uleb128 0xc
 6270 033c 3C       		.uleb128 0x3c
 6271 033d 0C       		.uleb128 0xc
 6272 033e 00       		.byte	0
 6273 033f 00       		.byte	0
 6274 0340 00       		.byte	0
 6275              		.section	.debug_loc,"",%progbits
 6276              	.Ldebug_loc0:
 6277              	.LLST0:
 6278 0000 00000000 		.4byte	.LFB10
 6279 0004 02000000 		.4byte	.LCFI0
 6280 0008 0200     		.2byte	0x2
 6281 000a 7D       		.byte	0x7d
 6282 000b 00       		.sleb128 0
 6283 000c 02000000 		.4byte	.LCFI0
 6284 0010 66000000 		.4byte	.LFE10
 6285 0014 0200     		.2byte	0x2
 6286 0016 7D       		.byte	0x7d
 6287 0017 10       		.sleb128 16
 6288 0018 00000000 		.4byte	0
 6289 001c 00000000 		.4byte	0
 6290              	.LLST1:
 6291 0020 00000000 		.4byte	.LVL0
 6292 0024 35000000 		.4byte	.LVL8-1
 6293 0028 0100     		.2byte	0x1
 6294 002a 50       		.byte	0x50
 6295 002b 50000000 		.4byte	.LVL10
 6296 002f 66000000 		.4byte	.LFE10
 6297 0033 0100     		.2byte	0x1
 6298 0035 50       		.byte	0x50
 6299 0036 00000000 		.4byte	0
 6300 003a 00000000 		.4byte	0
 6301              	.LLST2:
 6302 003e 00000000 		.4byte	.LVL0
 6303 0042 10000000 		.4byte	.LVL3
 6304 0046 0100     		.2byte	0x1
 6305 0048 51       		.byte	0x51
 6306 0049 00000000 		.4byte	0
 6307 004d 00000000 		.4byte	0
 6308              	.LLST3:
 6309 0051 00000000 		.4byte	.LVL0
 6310 0055 22000000 		.4byte	.LVL4
 6311 0059 0100     		.2byte	0x1
 6312 005b 52       		.byte	0x52
 6313 005c 26000000 		.4byte	.LVL6
ARM GAS  /var/folders/5n/p_75w94d66l9ssrldxqdhh700000gn/T//cc4n8EPc.s 			page 112


 6314 0060 30000000 		.4byte	.LVL7
 6315 0064 0100     		.2byte	0x1
 6316 0066 52       		.byte	0x52
 6317 0067 50000000 		.4byte	.LVL10
 6318 006b 66000000 		.4byte	.LFE10
 6319 006f 0100     		.2byte	0x1
 6320 0071 52       		.byte	0x52
 6321 0072 00000000 		.4byte	0
 6322 0076 00000000 		.4byte	0
 6323              	.LLST4:
 6324 007a 00000000 		.4byte	.LVL0
 6325 007e 0A000000 		.4byte	.LVL2
 6326 0082 0100     		.2byte	0x1
 6327 0084 53       		.byte	0x53
 6328 0085 0A000000 		.4byte	.LVL2
 6329 0089 66000000 		.4byte	.LFE10
 6330 008d 0100     		.2byte	0x1
 6331 008f 55       		.byte	0x55
 6332 0090 00000000 		.4byte	0
 6333 0094 00000000 		.4byte	0
 6334              	.LLST5:
 6335 0098 36000000 		.4byte	.LVL8
 6336 009c 41000000 		.4byte	.LVL9-1
 6337 00a0 0100     		.2byte	0x1
 6338 00a2 50       		.byte	0x50
 6339 00a3 41000000 		.4byte	.LVL9-1
 6340 00a7 50000000 		.4byte	.LVL10
 6341 00ab 0100     		.2byte	0x1
 6342 00ad 56       		.byte	0x56
 6343 00ae 00000000 		.4byte	0
 6344 00b2 00000000 		.4byte	0
 6345              	.LLST6:
 6346 00b6 08000000 		.4byte	.LVL1
 6347 00ba 10000000 		.4byte	.LVL3
 6348 00be 0100     		.2byte	0x1
 6349 00c0 51       		.byte	0x51
 6350 00c1 10000000 		.4byte	.LVL3
 6351 00c5 24000000 		.4byte	.LVL5
 6352 00c9 0100     		.2byte	0x1
 6353 00cb 54       		.byte	0x54
 6354 00cc 24000000 		.4byte	.LVL5
 6355 00d0 26000000 		.4byte	.LVL6
 6356 00d4 0100     		.2byte	0x1
 6357 00d6 51       		.byte	0x51
 6358 00d7 26000000 		.4byte	.LVL6
 6359 00db 30000000 		.4byte	.LVL7
 6360 00df 0100     		.2byte	0x1
 6361 00e1 54       		.byte	0x54
 6362 00e2 30000000 		.4byte	.LVL7
 6363 00e6 35000000 		.4byte	.LVL8-1
 6364 00ea 0100     		.2byte	0x1
 6365 00ec 51       		.byte	0x51
 6366 00ed 50000000 		.4byte	.LVL10
 6367 00f1 66000000 		.4byte	.LFE10
 6368 00f5 0100     		.2byte	0x1
 6369 00f7 54       		.byte	0x54
 6370 00f8 00000000 		.4byte	0
ARM GAS  /var/folders/5n/p_75w94d66l9ssrldxqdhh700000gn/T//cc4n8EPc.s 			page 113


 6371 00fc 00000000 		.4byte	0
 6372              	.LLST7:
 6373 0100 00000000 		.4byte	.LFB9
 6374 0104 04000000 		.4byte	.LCFI1
 6375 0108 0200     		.2byte	0x2
 6376 010a 7D       		.byte	0x7d
 6377 010b 00       		.sleb128 0
 6378 010c 04000000 		.4byte	.LCFI1
 6379 0110 E0000000 		.4byte	.LFE9
 6380 0114 0200     		.2byte	0x2
 6381 0116 7D       		.byte	0x7d
 6382 0117 28       		.sleb128 40
 6383 0118 00000000 		.4byte	0
 6384 011c 00000000 		.4byte	0
 6385              	.LLST8:
 6386 0120 00000000 		.4byte	.LVL11
 6387 0124 1A000000 		.4byte	.LVL12
 6388 0128 0100     		.2byte	0x1
 6389 012a 50       		.byte	0x50
 6390 012b 1A000000 		.4byte	.LVL12
 6391 012f E0000000 		.4byte	.LFE9
 6392 0133 0100     		.2byte	0x1
 6393 0135 55       		.byte	0x55
 6394 0136 00000000 		.4byte	0
 6395 013a 00000000 		.4byte	0
 6396              	.LLST9:
 6397 013e 00000000 		.4byte	.LVL11
 6398 0142 2B000000 		.4byte	.LVL14-1
 6399 0146 0100     		.2byte	0x1
 6400 0148 51       		.byte	0x51
 6401 0149 2B000000 		.4byte	.LVL14-1
 6402 014d 4C000000 		.4byte	.LVL17
 6403 0151 0100     		.2byte	0x1
 6404 0153 57       		.byte	0x57
 6405 0154 D2000000 		.4byte	.LVL22
 6406 0158 E0000000 		.4byte	.LFE9
 6407 015c 0100     		.2byte	0x1
 6408 015e 57       		.byte	0x57
 6409 015f 00000000 		.4byte	0
 6410 0163 00000000 		.4byte	0
 6411              	.LLST10:
 6412 0167 00000000 		.4byte	.LVL11
 6413 016b 2B000000 		.4byte	.LVL14-1
 6414 016f 0100     		.2byte	0x1
 6415 0171 52       		.byte	0x52
 6416 0172 00000000 		.4byte	0
 6417 0176 00000000 		.4byte	0
 6418              	.LLST11:
 6419 017a 00000000 		.4byte	.LVL11
 6420 017e 2B000000 		.4byte	.LVL14-1
 6421 0182 0100     		.2byte	0x1
 6422 0184 53       		.byte	0x53
 6423 0185 2B000000 		.4byte	.LVL14-1
 6424 0189 E0000000 		.4byte	.LFE9
 6425 018d 0100     		.2byte	0x1
 6426 018f 5A       		.byte	0x5a
 6427 0190 00000000 		.4byte	0
ARM GAS  /var/folders/5n/p_75w94d66l9ssrldxqdhh700000gn/T//cc4n8EPc.s 			page 114


 6428 0194 00000000 		.4byte	0
 6429              	.LLST12:
 6430 0198 2C000000 		.4byte	.LVL14
 6431 019c 46000000 		.4byte	.LVL16
 6432 01a0 0100     		.2byte	0x1
 6433 01a2 50       		.byte	0x50
 6434 01a3 46000000 		.4byte	.LVL16
 6435 01a7 B6000000 		.4byte	.LVL18
 6436 01ab 0100     		.2byte	0x1
 6437 01ad 59       		.byte	0x59
 6438 01ae BC000000 		.4byte	.LVL19
 6439 01b2 CC000000 		.4byte	.LVL20
 6440 01b6 0100     		.2byte	0x1
 6441 01b8 59       		.byte	0x59
 6442 01b9 CC000000 		.4byte	.LVL20
 6443 01bd CF000000 		.4byte	.LVL21-1
 6444 01c1 0100     		.2byte	0x1
 6445 01c3 50       		.byte	0x50
 6446 01c4 D2000000 		.4byte	.LVL22
 6447 01c8 D4000000 		.4byte	.LVL23
 6448 01cc 0100     		.2byte	0x1
 6449 01ce 50       		.byte	0x50
 6450 01cf D4000000 		.4byte	.LVL23
 6451 01d3 E0000000 		.4byte	.LFE9
 6452 01d7 0100     		.2byte	0x1
 6453 01d9 59       		.byte	0x59
 6454 01da 00000000 		.4byte	0
 6455 01de 00000000 		.4byte	0
 6456              	.LLST13:
 6457 01e2 28000000 		.4byte	.LVL13
 6458 01e6 3A000000 		.4byte	.LVL15
 6459 01ea 0600     		.2byte	0x6
 6460 01ec 7B       		.byte	0x7b
 6461 01ed 00       		.sleb128 0
 6462 01ee 76       		.byte	0x76
 6463 01ef 00       		.sleb128 0
 6464 01f0 22       		.byte	0x22
 6465 01f1 9F       		.byte	0x9f
 6466 01f2 D2000000 		.4byte	.LVL22
 6467 01f6 E0000000 		.4byte	.LFE9
 6468 01fa 0600     		.2byte	0x6
 6469 01fc 7B       		.byte	0x7b
 6470 01fd 00       		.sleb128 0
 6471 01fe 76       		.byte	0x76
 6472 01ff 00       		.sleb128 0
 6473 0200 22       		.byte	0x22
 6474 0201 9F       		.byte	0x9f
 6475 0202 00000000 		.4byte	0
 6476 0206 00000000 		.4byte	0
 6477              	.LLST14:
 6478 020a 00000000 		.4byte	.LFB23
 6479 020e 04000000 		.4byte	.LCFI2
 6480 0212 0200     		.2byte	0x2
 6481 0214 7D       		.byte	0x7d
 6482 0215 00       		.sleb128 0
 6483 0216 04000000 		.4byte	.LCFI2
 6484 021a A2000000 		.4byte	.LFE23
ARM GAS  /var/folders/5n/p_75w94d66l9ssrldxqdhh700000gn/T//cc4n8EPc.s 			page 115


 6485 021e 0200     		.2byte	0x2
 6486 0220 7D       		.byte	0x7d
 6487 0221 18       		.sleb128 24
 6488 0222 00000000 		.4byte	0
 6489 0226 00000000 		.4byte	0
 6490              	.LLST15:
 6491 022a 00000000 		.4byte	.LVL24
 6492 022e 0C000000 		.4byte	.LVL26
 6493 0232 0100     		.2byte	0x1
 6494 0234 50       		.byte	0x50
 6495 0235 0C000000 		.4byte	.LVL26
 6496 0239 A2000000 		.4byte	.LFE23
 6497 023d 0100     		.2byte	0x1
 6498 023f 54       		.byte	0x54
 6499 0240 00000000 		.4byte	0
 6500 0244 00000000 		.4byte	0
 6501              	.LLST16:
 6502 0248 00000000 		.4byte	.LVL24
 6503 024c 02000000 		.4byte	.LVL25
 6504 0250 0100     		.2byte	0x1
 6505 0252 51       		.byte	0x51
 6506 0253 00000000 		.4byte	0
 6507 0257 00000000 		.4byte	0
 6508              	.LLST17:
 6509 025b 00000000 		.4byte	.LVL24
 6510 025f 0E000000 		.4byte	.LVL27
 6511 0263 0100     		.2byte	0x1
 6512 0265 52       		.byte	0x52
 6513 0266 0E000000 		.4byte	.LVL27
 6514 026a A2000000 		.4byte	.LFE23
 6515 026e 0100     		.2byte	0x1
 6516 0270 55       		.byte	0x55
 6517 0271 00000000 		.4byte	0
 6518 0275 00000000 		.4byte	0
 6519              	.LLST18:
 6520 0279 22000000 		.4byte	.LVL30
 6521 027d 25000000 		.4byte	.LVL31-1
 6522 0281 0200     		.2byte	0x2
 6523 0283 77       		.byte	0x77
 6524 0284 04       		.sleb128 4
 6525 0285 25000000 		.4byte	.LVL31-1
 6526 0289 98000000 		.4byte	.LVL32
 6527 028d 0100     		.2byte	0x1
 6528 028f 56       		.byte	0x56
 6529 0290 00000000 		.4byte	0
 6530 0294 00000000 		.4byte	0
 6531              	.LLST19:
 6532 0298 12000000 		.4byte	.LVL28
 6533 029c 1E000000 		.4byte	.LVL29
 6534 02a0 0100     		.2byte	0x1
 6535 02a2 50       		.byte	0x50
 6536 02a3 1E000000 		.4byte	.LVL29
 6537 02a7 A2000000 		.4byte	.LFE23
 6538 02ab 0100     		.2byte	0x1
 6539 02ad 57       		.byte	0x57
 6540 02ae 00000000 		.4byte	0
 6541 02b2 00000000 		.4byte	0
ARM GAS  /var/folders/5n/p_75w94d66l9ssrldxqdhh700000gn/T//cc4n8EPc.s 			page 116


 6542              	.LLST20:
 6543 02b6 00000000 		.4byte	.LFB12
 6544 02ba 04000000 		.4byte	.LCFI3
 6545 02be 0200     		.2byte	0x2
 6546 02c0 7D       		.byte	0x7d
 6547 02c1 00       		.sleb128 0
 6548 02c2 04000000 		.4byte	.LCFI3
 6549 02c6 06000000 		.4byte	.LCFI4
 6550 02ca 0200     		.2byte	0x2
 6551 02cc 7D       		.byte	0x7d
 6552 02cd 24       		.sleb128 36
 6553 02ce 06000000 		.4byte	.LCFI4
 6554 02d2 60040000 		.4byte	.LFE12
 6555 02d6 0300     		.2byte	0x3
 6556 02d8 7D       		.byte	0x7d
 6557 02d9 E800     		.sleb128 104
 6558 02db 00000000 		.4byte	0
 6559 02df 00000000 		.4byte	0
 6560              	.LLST21:
 6561 02e3 00000000 		.4byte	.LVL33
 6562 02e7 26000000 		.4byte	.LVL37
 6563 02eb 0100     		.2byte	0x1
 6564 02ed 50       		.byte	0x50
 6565 02ee 26000000 		.4byte	.LVL37
 6566 02f2 D4010000 		.4byte	.LVL74
 6567 02f6 0100     		.2byte	0x1
 6568 02f8 55       		.byte	0x55
 6569 02f9 DC010000 		.4byte	.LVL75
 6570 02fd D8020000 		.4byte	.LVL92
 6571 0301 0100     		.2byte	0x1
 6572 0303 55       		.byte	0x55
 6573 0304 FA020000 		.4byte	.LVL93
 6574 0308 60040000 		.4byte	.LFE12
 6575 030c 0100     		.2byte	0x1
 6576 030e 55       		.byte	0x55
 6577 030f 00000000 		.4byte	0
 6578 0313 00000000 		.4byte	0
 6579              	.LLST22:
 6580 0317 00000000 		.4byte	.LVL33
 6581 031b 5C000000 		.4byte	.LVL40
 6582 031f 0100     		.2byte	0x1
 6583 0321 51       		.byte	0x51
 6584 0322 5C000000 		.4byte	.LVL40
 6585 0326 60040000 		.4byte	.LFE12
 6586 032a 0300     		.2byte	0x3
 6587 032c 91       		.byte	0x91
 6588 032d B87F     		.sleb128 -72
 6589 032f 00000000 		.4byte	0
 6590 0333 00000000 		.4byte	0
 6591              	.LLST23:
 6592 0337 00000000 		.4byte	.LVL33
 6593 033b 58000000 		.4byte	.LVL39
 6594 033f 0100     		.2byte	0x1
 6595 0341 52       		.byte	0x52
 6596 0342 C6010000 		.4byte	.LVL73
 6597 0346 D4010000 		.4byte	.LVL74
 6598 034a 0100     		.2byte	0x1
ARM GAS  /var/folders/5n/p_75w94d66l9ssrldxqdhh700000gn/T//cc4n8EPc.s 			page 117


 6599 034c 52       		.byte	0x52
 6600 034d DC010000 		.4byte	.LVL75
 6601 0351 E7010000 		.4byte	.LVL76-1
 6602 0355 0100     		.2byte	0x1
 6603 0357 52       		.byte	0x52
 6604 0358 46030000 		.4byte	.LVL100
 6605 035c 4C030000 		.4byte	.LVL101
 6606 0360 0100     		.2byte	0x1
 6607 0362 52       		.byte	0x52
 6608 0363 98030000 		.4byte	.LVL107
 6609 0367 B0030000 		.4byte	.LVL108
 6610 036b 0100     		.2byte	0x1
 6611 036d 52       		.byte	0x52
 6612 036e BA030000 		.4byte	.LVL110
 6613 0372 C0030000 		.4byte	.LVL111
 6614 0376 0100     		.2byte	0x1
 6615 0378 52       		.byte	0x52
 6616 0379 54040000 		.4byte	.LVL124
 6617 037d 57040000 		.4byte	.LVL125-1
 6618 0381 0100     		.2byte	0x1
 6619 0383 52       		.byte	0x52
 6620 0384 00000000 		.4byte	0
 6621 0388 00000000 		.4byte	0
 6622              	.LLST24:
 6623 038c 00000000 		.4byte	.LVL33
 6624 0390 0C000000 		.4byte	.LVL34
 6625 0394 0100     		.2byte	0x1
 6626 0396 53       		.byte	0x53
 6627 0397 00000000 		.4byte	0
 6628 039b 00000000 		.4byte	0
 6629              	.LLST25:
 6630 039f 00000000 		.4byte	.LVL33
 6631 03a3 D4000000 		.4byte	.LVL54
 6632 03a7 0200     		.2byte	0x2
 6633 03a9 30       		.byte	0x30
 6634 03aa 9F       		.byte	0x9f
 6635 03ab D4000000 		.4byte	.LVL54
 6636 03af EE000000 		.4byte	.LVL55
 6637 03b3 0200     		.2byte	0x2
 6638 03b5 91       		.byte	0x91
 6639 03b6 48       		.sleb128 -56
 6640 03b7 C6010000 		.4byte	.LVL73
 6641 03bb D4010000 		.4byte	.LVL74
 6642 03bf 0200     		.2byte	0x2
 6643 03c1 30       		.byte	0x30
 6644 03c2 9F       		.byte	0x9f
 6645 03c3 DC010000 		.4byte	.LVL75
 6646 03c7 0C020000 		.4byte	.LVL79
 6647 03cb 0200     		.2byte	0x2
 6648 03cd 30       		.byte	0x30
 6649 03ce 9F       		.byte	0x9f
 6650 03cf 06030000 		.4byte	.LVL97
 6651 03d3 32030000 		.4byte	.LVL99
 6652 03d7 0200     		.2byte	0x2
 6653 03d9 91       		.byte	0x91
 6654 03da 48       		.sleb128 -56
 6655 03db 46030000 		.4byte	.LVL100
ARM GAS  /var/folders/5n/p_75w94d66l9ssrldxqdhh700000gn/T//cc4n8EPc.s 			page 118


 6656 03df 4C030000 		.4byte	.LVL101
 6657 03e3 0200     		.2byte	0x2
 6658 03e5 30       		.byte	0x30
 6659 03e6 9F       		.byte	0x9f
 6660 03e7 56030000 		.4byte	.LVL103
 6661 03eb 84030000 		.4byte	.LVL105
 6662 03ef 0200     		.2byte	0x2
 6663 03f1 30       		.byte	0x30
 6664 03f2 9F       		.byte	0x9f
 6665 03f3 84030000 		.4byte	.LVL105
 6666 03f7 8E030000 		.4byte	.LVL106
 6667 03fb 0100     		.2byte	0x1
 6668 03fd 50       		.byte	0x50
 6669 03fe 8E030000 		.4byte	.LVL106
 6670 0402 98030000 		.4byte	.LVL107
 6671 0406 0200     		.2byte	0x2
 6672 0408 91       		.byte	0x91
 6673 0409 48       		.sleb128 -56
 6674 040a 98030000 		.4byte	.LVL107
 6675 040e B2030000 		.4byte	.LVL109
 6676 0412 0200     		.2byte	0x2
 6677 0414 30       		.byte	0x30
 6678 0415 9F       		.byte	0x9f
 6679 0416 BA030000 		.4byte	.LVL110
 6680 041a DC030000 		.4byte	.LVL113
 6681 041e 0200     		.2byte	0x2
 6682 0420 30       		.byte	0x30
 6683 0421 9F       		.byte	0x9f
 6684 0422 DC030000 		.4byte	.LVL113
 6685 0426 E6030000 		.4byte	.LVL114
 6686 042a 0100     		.2byte	0x1
 6687 042c 50       		.byte	0x50
 6688 042d E6030000 		.4byte	.LVL114
 6689 0431 FE030000 		.4byte	.LVL117
 6690 0435 0200     		.2byte	0x2
 6691 0437 91       		.byte	0x91
 6692 0438 48       		.sleb128 -56
 6693 0439 06040000 		.4byte	.LVL118
 6694 043d 32040000 		.4byte	.LVL120
 6695 0441 0200     		.2byte	0x2
 6696 0443 30       		.byte	0x30
 6697 0444 9F       		.byte	0x9f
 6698 0445 54040000 		.4byte	.LVL124
 6699 0449 60040000 		.4byte	.LFE12
 6700 044d 0200     		.2byte	0x2
 6701 044f 30       		.byte	0x30
 6702 0450 9F       		.byte	0x9f
 6703 0451 00000000 		.4byte	0
 6704 0455 00000000 		.4byte	0
 6705              	.LLST26:
 6706 0459 00000000 		.4byte	.LVL33
 6707 045d 5C000000 		.4byte	.LVL40
 6708 0461 0200     		.2byte	0x2
 6709 0463 30       		.byte	0x30
 6710 0464 9F       		.byte	0x9f
 6711 0465 5C000000 		.4byte	.LVL40
 6712 0469 7E000000 		.4byte	.LVL42
ARM GAS  /var/folders/5n/p_75w94d66l9ssrldxqdhh700000gn/T//cc4n8EPc.s 			page 119


 6713 046d 0100     		.2byte	0x1
 6714 046f 52       		.byte	0x52
 6715 0470 7E000000 		.4byte	.LVL42
 6716 0474 EE000000 		.4byte	.LVL55
 6717 0478 0200     		.2byte	0x2
 6718 047a 91       		.byte	0x91
 6719 047b 40       		.sleb128 -64
 6720 047c C6010000 		.4byte	.LVL73
 6721 0480 D4010000 		.4byte	.LVL74
 6722 0484 0200     		.2byte	0x2
 6723 0486 30       		.byte	0x30
 6724 0487 9F       		.byte	0x9f
 6725 0488 DC010000 		.4byte	.LVL75
 6726 048c 0C020000 		.4byte	.LVL79
 6727 0490 0200     		.2byte	0x2
 6728 0492 30       		.byte	0x30
 6729 0493 9F       		.byte	0x9f
 6730 0494 46030000 		.4byte	.LVL100
 6731 0498 4C030000 		.4byte	.LVL101
 6732 049c 0200     		.2byte	0x2
 6733 049e 30       		.byte	0x30
 6734 049f 9F       		.byte	0x9f
 6735 04a0 56030000 		.4byte	.LVL103
 6736 04a4 98030000 		.4byte	.LVL107
 6737 04a8 0200     		.2byte	0x2
 6738 04aa 91       		.byte	0x91
 6739 04ab 40       		.sleb128 -64
 6740 04ac 98030000 		.4byte	.LVL107
 6741 04b0 B2030000 		.4byte	.LVL109
 6742 04b4 0200     		.2byte	0x2
 6743 04b6 30       		.byte	0x30
 6744 04b7 9F       		.byte	0x9f
 6745 04b8 BA030000 		.4byte	.LVL110
 6746 04bc D6030000 		.4byte	.LVL112
 6747 04c0 0200     		.2byte	0x2
 6748 04c2 30       		.byte	0x30
 6749 04c3 9F       		.byte	0x9f
 6750 04c4 D6030000 		.4byte	.LVL112
 6751 04c8 FE030000 		.4byte	.LVL117
 6752 04cc 0200     		.2byte	0x2
 6753 04ce 91       		.byte	0x91
 6754 04cf 40       		.sleb128 -64
 6755 04d0 06040000 		.4byte	.LVL118
 6756 04d4 20040000 		.4byte	.LVL119
 6757 04d8 0200     		.2byte	0x2
 6758 04da 91       		.byte	0x91
 6759 04db 40       		.sleb128 -64
 6760 04dc 20040000 		.4byte	.LVL119
 6761 04e0 32040000 		.4byte	.LVL120
 6762 04e4 0200     		.2byte	0x2
 6763 04e6 30       		.byte	0x30
 6764 04e7 9F       		.byte	0x9f
 6765 04e8 54040000 		.4byte	.LVL124
 6766 04ec 60040000 		.4byte	.LFE12
 6767 04f0 0200     		.2byte	0x2
 6768 04f2 30       		.byte	0x30
 6769 04f3 9F       		.byte	0x9f
ARM GAS  /var/folders/5n/p_75w94d66l9ssrldxqdhh700000gn/T//cc4n8EPc.s 			page 120


 6770 04f4 00000000 		.4byte	0
 6771 04f8 00000000 		.4byte	0
 6772              	.LLST27:
 6773 04fc 00000000 		.4byte	.LVL33
 6774 0500 92000000 		.4byte	.LVL46
 6775 0504 0200     		.2byte	0x2
 6776 0506 30       		.byte	0x30
 6777 0507 9F       		.byte	0x9f
 6778 0508 92000000 		.4byte	.LVL46
 6779 050c B8000000 		.4byte	.LVL53
 6780 0510 0200     		.2byte	0x2
 6781 0512 91       		.byte	0x91
 6782 0513 40       		.sleb128 -64
 6783 0514 D4000000 		.4byte	.LVL54
 6784 0518 EE000000 		.4byte	.LVL55
 6785 051c 0100     		.2byte	0x1
 6786 051e 53       		.byte	0x53
 6787 051f 4E010000 		.4byte	.LVL63
 6788 0523 62010000 		.4byte	.LVL64
 6789 0527 0100     		.2byte	0x1
 6790 0529 50       		.byte	0x50
 6791 052a 6C010000 		.4byte	.LVL66
 6792 052e 70010000 		.4byte	.LVL68
 6793 0532 0100     		.2byte	0x1
 6794 0534 50       		.byte	0x50
 6795 0535 C6010000 		.4byte	.LVL73
 6796 0539 D4010000 		.4byte	.LVL74
 6797 053d 0200     		.2byte	0x2
 6798 053f 30       		.byte	0x30
 6799 0540 9F       		.byte	0x9f
 6800 0541 DC010000 		.4byte	.LVL75
 6801 0545 0C020000 		.4byte	.LVL79
 6802 0549 0200     		.2byte	0x2
 6803 054b 30       		.byte	0x30
 6804 054c 9F       		.byte	0x9f
 6805 054d 12020000 		.4byte	.LVL81
 6806 0551 20020000 		.4byte	.LVL85
 6807 0555 0100     		.2byte	0x1
 6808 0557 50       		.byte	0x50
 6809 0558 20020000 		.4byte	.LVL85
 6810 055c 30020000 		.4byte	.LVL87
 6811 0560 0100     		.2byte	0x1
 6812 0562 53       		.byte	0x53
 6813 0563 30020000 		.4byte	.LVL87
 6814 0567 5A020000 		.4byte	.LVL89
 6815 056b 0100     		.2byte	0x1
 6816 056d 58       		.byte	0x58
 6817 056e 5A020000 		.4byte	.LVL89
 6818 0572 7A020000 		.4byte	.LVL90
 6819 0576 0100     		.2byte	0x1
 6820 0578 53       		.byte	0x53
 6821 0579 46030000 		.4byte	.LVL100
 6822 057d 4C030000 		.4byte	.LVL101
 6823 0581 0200     		.2byte	0x2
 6824 0583 30       		.byte	0x30
 6825 0584 9F       		.byte	0x9f
 6826 0585 4C030000 		.4byte	.LVL101
ARM GAS  /var/folders/5n/p_75w94d66l9ssrldxqdhh700000gn/T//cc4n8EPc.s 			page 121


 6827 0589 51030000 		.4byte	.LVL102-1
 6828 058d 0100     		.2byte	0x1
 6829 058f 50       		.byte	0x50
 6830 0590 98030000 		.4byte	.LVL107
 6831 0594 B2030000 		.4byte	.LVL109
 6832 0598 0200     		.2byte	0x2
 6833 059a 30       		.byte	0x30
 6834 059b 9F       		.byte	0x9f
 6835 059c BA030000 		.4byte	.LVL110
 6836 05a0 D6030000 		.4byte	.LVL112
 6837 05a4 0200     		.2byte	0x2
 6838 05a6 30       		.byte	0x30
 6839 05a7 9F       		.byte	0x9f
 6840 05a8 20040000 		.4byte	.LVL119
 6841 05ac 32040000 		.4byte	.LVL120
 6842 05b0 0200     		.2byte	0x2
 6843 05b2 30       		.byte	0x30
 6844 05b3 9F       		.byte	0x9f
 6845 05b4 4A040000 		.4byte	.LVL122
 6846 05b8 4F040000 		.4byte	.LVL123-1
 6847 05bc 0100     		.2byte	0x1
 6848 05be 53       		.byte	0x53
 6849 05bf 54040000 		.4byte	.LVL124
 6850 05c3 60040000 		.4byte	.LFE12
 6851 05c7 0200     		.2byte	0x2
 6852 05c9 30       		.byte	0x30
 6853 05ca 9F       		.byte	0x9f
 6854 05cb 00000000 		.4byte	0
 6855 05cf 00000000 		.4byte	0
 6856              	.LLST28:
 6857 05d3 00000000 		.4byte	.LVL33
 6858 05d7 EE000000 		.4byte	.LVL55
 6859 05db 0200     		.2byte	0x2
 6860 05dd 30       		.byte	0x30
 6861 05de 9F       		.byte	0x9f
 6862 05df 6C010000 		.4byte	.LVL66
 6863 05e3 70010000 		.4byte	.LVL68
 6864 05e7 0100     		.2byte	0x1
 6865 05e9 50       		.byte	0x50
 6866 05ea C6010000 		.4byte	.LVL73
 6867 05ee D4010000 		.4byte	.LVL74
 6868 05f2 0200     		.2byte	0x2
 6869 05f4 30       		.byte	0x30
 6870 05f5 9F       		.byte	0x9f
 6871 05f6 DC010000 		.4byte	.LVL75
 6872 05fa 0C020000 		.4byte	.LVL79
 6873 05fe 0200     		.2byte	0x2
 6874 0600 30       		.byte	0x30
 6875 0601 9F       		.byte	0x9f
 6876 0602 1A020000 		.4byte	.LVL83
 6877 0606 20020000 		.4byte	.LVL85
 6878 060a 0100     		.2byte	0x1
 6879 060c 50       		.byte	0x50
 6880 060d 46030000 		.4byte	.LVL100
 6881 0611 4C030000 		.4byte	.LVL101
 6882 0615 0200     		.2byte	0x2
 6883 0617 30       		.byte	0x30
ARM GAS  /var/folders/5n/p_75w94d66l9ssrldxqdhh700000gn/T//cc4n8EPc.s 			page 122


 6884 0618 9F       		.byte	0x9f
 6885 0619 56030000 		.4byte	.LVL103
 6886 061d B2030000 		.4byte	.LVL109
 6887 0621 0200     		.2byte	0x2
 6888 0623 30       		.byte	0x30
 6889 0624 9F       		.byte	0x9f
 6890 0625 BA030000 		.4byte	.LVL110
 6891 0629 FE030000 		.4byte	.LVL117
 6892 062d 0200     		.2byte	0x2
 6893 062f 30       		.byte	0x30
 6894 0630 9F       		.byte	0x9f
 6895 0631 06040000 		.4byte	.LVL118
 6896 0635 32040000 		.4byte	.LVL120
 6897 0639 0200     		.2byte	0x2
 6898 063b 30       		.byte	0x30
 6899 063c 9F       		.byte	0x9f
 6900 063d 54040000 		.4byte	.LVL124
 6901 0641 60040000 		.4byte	.LFE12
 6902 0645 0200     		.2byte	0x2
 6903 0647 30       		.byte	0x30
 6904 0648 9F       		.byte	0x9f
 6905 0649 00000000 		.4byte	0
 6906 064d 00000000 		.4byte	0
 6907              	.LLST29:
 6908 0651 00000000 		.4byte	.LVL33
 6909 0655 EE000000 		.4byte	.LVL55
 6910 0659 0200     		.2byte	0x2
 6911 065b 30       		.byte	0x30
 6912 065c 9F       		.byte	0x9f
 6913 065d 6C010000 		.4byte	.LVL66
 6914 0661 70010000 		.4byte	.LVL68
 6915 0665 0300     		.2byte	0x3
 6916 0667 91       		.byte	0x91
 6917 0668 B47F     		.sleb128 -76
 6918 066a C6010000 		.4byte	.LVL73
 6919 066e D4010000 		.4byte	.LVL74
 6920 0672 0200     		.2byte	0x2
 6921 0674 30       		.byte	0x30
 6922 0675 9F       		.byte	0x9f
 6923 0676 DC010000 		.4byte	.LVL75
 6924 067a 0C020000 		.4byte	.LVL79
 6925 067e 0200     		.2byte	0x2
 6926 0680 30       		.byte	0x30
 6927 0681 9F       		.byte	0x9f
 6928 0682 1A020000 		.4byte	.LVL83
 6929 0686 1C020000 		.4byte	.LVL84
 6930 068a 0100     		.2byte	0x1
 6931 068c 50       		.byte	0x50
 6932 068d 1C020000 		.4byte	.LVL84
 6933 0691 20020000 		.4byte	.LVL85
 6934 0695 0300     		.2byte	0x3
 6935 0697 91       		.byte	0x91
 6936 0698 B47F     		.sleb128 -76
 6937 069a 06030000 		.4byte	.LVL97
 6938 069e 32030000 		.4byte	.LVL99
 6939 06a2 0300     		.2byte	0x3
 6940 06a4 91       		.byte	0x91
ARM GAS  /var/folders/5n/p_75w94d66l9ssrldxqdhh700000gn/T//cc4n8EPc.s 			page 123


 6941 06a5 B47F     		.sleb128 -76
 6942 06a7 46030000 		.4byte	.LVL100
 6943 06ab 4C030000 		.4byte	.LVL101
 6944 06af 0200     		.2byte	0x2
 6945 06b1 30       		.byte	0x30
 6946 06b2 9F       		.byte	0x9f
 6947 06b3 56030000 		.4byte	.LVL103
 6948 06b7 B2030000 		.4byte	.LVL109
 6949 06bb 0200     		.2byte	0x2
 6950 06bd 30       		.byte	0x30
 6951 06be 9F       		.byte	0x9f
 6952 06bf BA030000 		.4byte	.LVL110
 6953 06c3 FE030000 		.4byte	.LVL117
 6954 06c7 0200     		.2byte	0x2
 6955 06c9 30       		.byte	0x30
 6956 06ca 9F       		.byte	0x9f
 6957 06cb 06040000 		.4byte	.LVL118
 6958 06cf 32040000 		.4byte	.LVL120
 6959 06d3 0200     		.2byte	0x2
 6960 06d5 30       		.byte	0x30
 6961 06d6 9F       		.byte	0x9f
 6962 06d7 54040000 		.4byte	.LVL124
 6963 06db 60040000 		.4byte	.LFE12
 6964 06df 0200     		.2byte	0x2
 6965 06e1 30       		.byte	0x30
 6966 06e2 9F       		.byte	0x9f
 6967 06e3 00000000 		.4byte	0
 6968 06e7 00000000 		.4byte	0
 6969              	.LLST30:
 6970 06eb 00000000 		.4byte	.LVL33
 6971 06ef 9A000000 		.4byte	.LVL47
 6972 06f3 0200     		.2byte	0x2
 6973 06f5 30       		.byte	0x30
 6974 06f6 9F       		.byte	0x9f
 6975 06f7 9A000000 		.4byte	.LVL47
 6976 06fb B8000000 		.4byte	.LVL53
 6977 06ff 0100     		.2byte	0x1
 6978 0701 54       		.byte	0x54
 6979 0702 D4000000 		.4byte	.LVL54
 6980 0706 EE000000 		.4byte	.LVL55
 6981 070a 0100     		.2byte	0x1
 6982 070c 54       		.byte	0x54
 6983 070d 6C010000 		.4byte	.LVL66
 6984 0711 6E010000 		.4byte	.LVL67
 6985 0715 0100     		.2byte	0x1
 6986 0717 54       		.byte	0x54
 6987 0718 C6010000 		.4byte	.LVL73
 6988 071c D4010000 		.4byte	.LVL74
 6989 0720 0200     		.2byte	0x2
 6990 0722 30       		.byte	0x30
 6991 0723 9F       		.byte	0x9f
 6992 0724 DC010000 		.4byte	.LVL75
 6993 0728 0C020000 		.4byte	.LVL79
 6994 072c 0200     		.2byte	0x2
 6995 072e 30       		.byte	0x30
 6996 072f 9F       		.byte	0x9f
 6997 0730 1A020000 		.4byte	.LVL83
ARM GAS  /var/folders/5n/p_75w94d66l9ssrldxqdhh700000gn/T//cc4n8EPc.s 			page 124


 6998 0734 1C020000 		.4byte	.LVL84
 6999 0738 0100     		.2byte	0x1
 7000 073a 54       		.byte	0x54
 7001 073b 46030000 		.4byte	.LVL100
 7002 073f 4C030000 		.4byte	.LVL101
 7003 0743 0200     		.2byte	0x2
 7004 0745 30       		.byte	0x30
 7005 0746 9F       		.byte	0x9f
 7006 0747 98030000 		.4byte	.LVL107
 7007 074b B2030000 		.4byte	.LVL109
 7008 074f 0200     		.2byte	0x2
 7009 0751 30       		.byte	0x30
 7010 0752 9F       		.byte	0x9f
 7011 0753 BA030000 		.4byte	.LVL110
 7012 0757 D6030000 		.4byte	.LVL112
 7013 075b 0200     		.2byte	0x2
 7014 075d 30       		.byte	0x30
 7015 075e 9F       		.byte	0x9f
 7016 075f F2030000 		.4byte	.LVL115
 7017 0763 FE030000 		.4byte	.LVL117
 7018 0767 0100     		.2byte	0x1
 7019 0769 56       		.byte	0x56
 7020 076a 20040000 		.4byte	.LVL119
 7021 076e 32040000 		.4byte	.LVL120
 7022 0772 0200     		.2byte	0x2
 7023 0774 30       		.byte	0x30
 7024 0775 9F       		.byte	0x9f
 7025 0776 54040000 		.4byte	.LVL124
 7026 077a 60040000 		.4byte	.LFE12
 7027 077e 0200     		.2byte	0x2
 7028 0780 30       		.byte	0x30
 7029 0781 9F       		.byte	0x9f
 7030 0782 00000000 		.4byte	0
 7031 0786 00000000 		.4byte	0
 7032              	.LLST31:
 7033 078a 52000000 		.4byte	.LVL38
 7034 078e 5C000000 		.4byte	.LVL40
 7035 0792 0100     		.2byte	0x1
 7036 0794 57       		.byte	0x57
 7037 0795 D4000000 		.4byte	.LVL54
 7038 0799 EE000000 		.4byte	.LVL55
 7039 079d 0100     		.2byte	0x1
 7040 079f 57       		.byte	0x57
 7041 07a0 3A010000 		.4byte	.LVL62
 7042 07a4 70010000 		.4byte	.LVL68
 7043 07a8 0300     		.2byte	0x3
 7044 07aa 91       		.byte	0x91
 7045 07ab AC7F     		.sleb128 -84
 7046 07ad EE010000 		.4byte	.LVL77
 7047 07b1 F8010000 		.4byte	.LVL78
 7048 07b5 0100     		.2byte	0x1
 7049 07b7 57       		.byte	0x57
 7050 07b8 12020000 		.4byte	.LVL81
 7051 07bc 20020000 		.4byte	.LVL85
 7052 07c0 0300     		.2byte	0x3
 7053 07c2 91       		.byte	0x91
 7054 07c3 AC7F     		.sleb128 -84
ARM GAS  /var/folders/5n/p_75w94d66l9ssrldxqdhh700000gn/T//cc4n8EPc.s 			page 125


 7055 07c5 4C030000 		.4byte	.LVL101
 7056 07c9 56030000 		.4byte	.LVL103
 7057 07cd 0300     		.2byte	0x3
 7058 07cf 91       		.byte	0x91
 7059 07d0 AC7F     		.sleb128 -84
 7060 07d2 B2030000 		.4byte	.LVL109
 7061 07d6 BA030000 		.4byte	.LVL110
 7062 07da 0300     		.2byte	0x3
 7063 07dc 91       		.byte	0x91
 7064 07dd AC7F     		.sleb128 -84
 7065 07df F8030000 		.4byte	.LVL116
 7066 07e3 FE030000 		.4byte	.LVL117
 7067 07e7 0100     		.2byte	0x1
 7068 07e9 57       		.byte	0x57
 7069 07ea 00000000 		.4byte	0
 7070 07ee 00000000 		.4byte	0
 7071              	.LLST32:
 7072 07f2 14000000 		.4byte	.LVL35
 7073 07f6 9E000000 		.4byte	.LVL48
 7074 07fa 0200     		.2byte	0x2
 7075 07fc 91       		.byte	0x91
 7076 07fd 56       		.sleb128 -42
 7077 07fe A6000000 		.4byte	.LVL50
 7078 0802 B5000000 		.4byte	.LVL52-1
 7079 0806 0100     		.2byte	0x1
 7080 0808 52       		.byte	0x52
 7081 0809 B5000000 		.4byte	.LVL52-1
 7082 080d F2000000 		.4byte	.LVL56
 7083 0811 0200     		.2byte	0x2
 7084 0813 91       		.byte	0x91
 7085 0814 56       		.sleb128 -42
 7086 0815 F8000000 		.4byte	.LVL57
 7087 0819 01010000 		.4byte	.LVL58-1
 7088 081d 0100     		.2byte	0x1
 7089 081f 53       		.byte	0x53
 7090 0820 2A010000 		.4byte	.LVL61
 7091 0824 0C020000 		.4byte	.LVL79
 7092 0828 0200     		.2byte	0x2
 7093 082a 91       		.byte	0x91
 7094 082b 56       		.sleb128 -42
 7095 082c 0C020000 		.4byte	.LVL79
 7096 0830 0F020000 		.4byte	.LVL80-1
 7097 0834 0100     		.2byte	0x1
 7098 0836 53       		.byte	0x53
 7099 0837 12020000 		.4byte	.LVL81
 7100 083b 00030000 		.4byte	.LVL95
 7101 083f 0200     		.2byte	0x2
 7102 0841 91       		.byte	0x91
 7103 0842 56       		.sleb128 -42
 7104 0843 06030000 		.4byte	.LVL97
 7105 0847 60040000 		.4byte	.LFE12
 7106 084b 0200     		.2byte	0x2
 7107 084d 91       		.byte	0x91
 7108 084e 56       		.sleb128 -42
 7109 084f 00000000 		.4byte	0
 7110 0853 00000000 		.4byte	0
 7111              	.LLST33:
ARM GAS  /var/folders/5n/p_75w94d66l9ssrldxqdhh700000gn/T//cc4n8EPc.s 			page 126


 7112 0857 14000000 		.4byte	.LVL35
 7113 085b 9A000000 		.4byte	.LVL47
 7114 085f 0200     		.2byte	0x2
 7115 0861 30       		.byte	0x30
 7116 0862 9F       		.byte	0x9f
 7117 0863 9A000000 		.4byte	.LVL47
 7118 0867 B8000000 		.4byte	.LVL53
 7119 086b 0100     		.2byte	0x1
 7120 086d 54       		.byte	0x54
 7121 086e D4000000 		.4byte	.LVL54
 7122 0872 EE000000 		.4byte	.LVL55
 7123 0876 0200     		.2byte	0x2
 7124 0878 91       		.byte	0x91
 7125 0879 4C       		.sleb128 -52
 7126 087a C6010000 		.4byte	.LVL73
 7127 087e D4010000 		.4byte	.LVL74
 7128 0882 0200     		.2byte	0x2
 7129 0884 30       		.byte	0x30
 7130 0885 9F       		.byte	0x9f
 7131 0886 DC010000 		.4byte	.LVL75
 7132 088a 0C020000 		.4byte	.LVL79
 7133 088e 0200     		.2byte	0x2
 7134 0890 30       		.byte	0x30
 7135 0891 9F       		.byte	0x9f
 7136 0892 46030000 		.4byte	.LVL100
 7137 0896 4C030000 		.4byte	.LVL101
 7138 089a 0200     		.2byte	0x2
 7139 089c 30       		.byte	0x30
 7140 089d 9F       		.byte	0x9f
 7141 089e 98030000 		.4byte	.LVL107
 7142 08a2 B2030000 		.4byte	.LVL109
 7143 08a6 0200     		.2byte	0x2
 7144 08a8 30       		.byte	0x30
 7145 08a9 9F       		.byte	0x9f
 7146 08aa BA030000 		.4byte	.LVL110
 7147 08ae D6030000 		.4byte	.LVL112
 7148 08b2 0200     		.2byte	0x2
 7149 08b4 30       		.byte	0x30
 7150 08b5 9F       		.byte	0x9f
 7151 08b6 20040000 		.4byte	.LVL119
 7152 08ba 32040000 		.4byte	.LVL120
 7153 08be 0200     		.2byte	0x2
 7154 08c0 30       		.byte	0x30
 7155 08c1 9F       		.byte	0x9f
 7156 08c2 54040000 		.4byte	.LVL124
 7157 08c6 60040000 		.4byte	.LFE12
 7158 08ca 0200     		.2byte	0x2
 7159 08cc 30       		.byte	0x30
 7160 08cd 9F       		.byte	0x9f
 7161 08ce 00000000 		.4byte	0
 7162 08d2 00000000 		.4byte	0
 7163              	.LLST34:
 7164 08d6 1A000000 		.4byte	.LVL36
 7165 08da 58000000 		.4byte	.LVL39
 7166 08de 0100     		.2byte	0x1
 7167 08e0 52       		.byte	0x52
 7168 08e1 58000000 		.4byte	.LVL39
ARM GAS  /var/folders/5n/p_75w94d66l9ssrldxqdhh700000gn/T//cc4n8EPc.s 			page 127


 7169 08e5 D4010000 		.4byte	.LVL74
 7170 08e9 0100     		.2byte	0x1
 7171 08eb 5A       		.byte	0x5a
 7172 08ec DC010000 		.4byte	.LVL75
 7173 08f0 E7010000 		.4byte	.LVL76-1
 7174 08f4 0100     		.2byte	0x1
 7175 08f6 52       		.byte	0x52
 7176 08f7 E7010000 		.4byte	.LVL76-1
 7177 08fb B2020000 		.4byte	.LVL91
 7178 08ff 0100     		.2byte	0x1
 7179 0901 5A       		.byte	0x5a
 7180 0902 FA020000 		.4byte	.LVL93
 7181 0906 38040000 		.4byte	.LVL121
 7182 090a 0100     		.2byte	0x1
 7183 090c 5A       		.byte	0x5a
 7184 090d 4A040000 		.4byte	.LVL122
 7185 0911 54040000 		.4byte	.LVL124
 7186 0915 0100     		.2byte	0x1
 7187 0917 5A       		.byte	0x5a
 7188 0918 00000000 		.4byte	0
 7189 091c 00000000 		.4byte	0
 7190              	.LLST35:
 7191 0920 1A000000 		.4byte	.LVL36
 7192 0924 26000000 		.4byte	.LVL37
 7193 0928 0100     		.2byte	0x1
 7194 092a 50       		.byte	0x50
 7195 092b 26000000 		.4byte	.LVL37
 7196 092f D4010000 		.4byte	.LVL74
 7197 0933 0100     		.2byte	0x1
 7198 0935 55       		.byte	0x55
 7199 0936 DC010000 		.4byte	.LVL75
 7200 093a D8020000 		.4byte	.LVL92
 7201 093e 0100     		.2byte	0x1
 7202 0940 55       		.byte	0x55
 7203 0941 FA020000 		.4byte	.LVL93
 7204 0945 54040000 		.4byte	.LVL124
 7205 0949 0100     		.2byte	0x1
 7206 094b 55       		.byte	0x55
 7207 094c 00000000 		.4byte	0
 7208 0950 00000000 		.4byte	0
 7209              	.LLST36:
 7210 0954 88000000 		.4byte	.LVL44
 7211 0958 A0000000 		.4byte	.LVL49
 7212 095c 0100     		.2byte	0x1
 7213 095e 56       		.byte	0x56
 7214 095f AC000000 		.4byte	.LVL51
 7215 0963 B8000000 		.4byte	.LVL53
 7216 0967 0100     		.2byte	0x1
 7217 0969 56       		.byte	0x56
 7218 096a 00000000 		.4byte	0
 7219 096e 00000000 		.4byte	0
 7220              	.LLST37:
 7221 0972 82000000 		.4byte	.LVL43
 7222 0976 90000000 		.4byte	.LVL45
 7223 097a 0700     		.2byte	0x7
 7224 097c 73       		.byte	0x73
 7225 097d 00       		.sleb128 0
ARM GAS  /var/folders/5n/p_75w94d66l9ssrldxqdhh700000gn/T//cc4n8EPc.s 			page 128


 7226 097e 1F       		.byte	0x1f
 7227 097f 71       		.byte	0x71
 7228 0980 00       		.sleb128 0
 7229 0981 1C       		.byte	0x1c
 7230 0982 9F       		.byte	0x9f
 7231 0983 00000000 		.4byte	0
 7232 0987 00000000 		.4byte	0
 7233              	.LLST38:
 7234 098b 66030000 		.4byte	.LVL104
 7235 098f 98030000 		.4byte	.LVL107
 7236 0993 0100     		.2byte	0x1
 7237 0995 58       		.byte	0x58
 7238 0996 D6030000 		.4byte	.LVL112
 7239 099a DB030000 		.4byte	.LVL113-1
 7240 099e 0100     		.2byte	0x1
 7241 09a0 51       		.byte	0x51
 7242 09a1 DB030000 		.4byte	.LVL113-1
 7243 09a5 FE030000 		.4byte	.LVL117
 7244 09a9 0100     		.2byte	0x1
 7245 09ab 58       		.byte	0x58
 7246 09ac 06040000 		.4byte	.LVL118
 7247 09b0 20040000 		.4byte	.LVL119
 7248 09b4 0100     		.2byte	0x1
 7249 09b6 58       		.byte	0x58
 7250 09b7 00000000 		.4byte	0
 7251 09bb 00000000 		.4byte	0
 7252              	.LLST39:
 7253 09bf 1C010000 		.4byte	.LVL60
 7254 09c3 29010000 		.4byte	.LVL61-1
 7255 09c7 0100     		.2byte	0x1
 7256 09c9 50       		.byte	0x50
 7257 09ca 29010000 		.4byte	.LVL61-1
 7258 09ce 70010000 		.4byte	.LVL68
 7259 09d2 0100     		.2byte	0x1
 7260 09d4 58       		.byte	0x58
 7261 09d5 A6010000 		.4byte	.LVL71
 7262 09d9 B6010000 		.4byte	.LVL72
 7263 09dd 0100     		.2byte	0x1
 7264 09df 50       		.byte	0x50
 7265 09e0 B6010000 		.4byte	.LVL72
 7266 09e4 C6010000 		.4byte	.LVL73
 7267 09e8 0100     		.2byte	0x1
 7268 09ea 58       		.byte	0x58
 7269 09eb 12020000 		.4byte	.LVL81
 7270 09ef 20020000 		.4byte	.LVL85
 7271 09f3 0100     		.2byte	0x1
 7272 09f5 58       		.byte	0x58
 7273 09f6 FA020000 		.4byte	.LVL93
 7274 09fa FD020000 		.4byte	.LVL94-1
 7275 09fe 0100     		.2byte	0x1
 7276 0a00 50       		.byte	0x50
 7277 0a01 FD020000 		.4byte	.LVL94-1
 7278 0a05 00030000 		.4byte	.LVL95
 7279 0a09 0100     		.2byte	0x1
 7280 0a0b 58       		.byte	0x58
 7281 0a0c 00030000 		.4byte	.LVL95
 7282 0a10 02030000 		.4byte	.LVL96
ARM GAS  /var/folders/5n/p_75w94d66l9ssrldxqdhh700000gn/T//cc4n8EPc.s 			page 129


 7283 0a14 0100     		.2byte	0x1
 7284 0a16 50       		.byte	0x50
 7285 0a17 02030000 		.4byte	.LVL96
 7286 0a1b 06030000 		.4byte	.LVL97
 7287 0a1f 0100     		.2byte	0x1
 7288 0a21 58       		.byte	0x58
 7289 0a22 4C030000 		.4byte	.LVL101
 7290 0a26 56030000 		.4byte	.LVL103
 7291 0a2a 0100     		.2byte	0x1
 7292 0a2c 58       		.byte	0x58
 7293 0a2d B2030000 		.4byte	.LVL109
 7294 0a31 BA030000 		.4byte	.LVL110
 7295 0a35 0100     		.2byte	0x1
 7296 0a37 58       		.byte	0x58
 7297 0a38 00000000 		.4byte	0
 7298 0a3c 00000000 		.4byte	0
 7299              	.LLST40:
 7300 0a40 EE000000 		.4byte	.LVL55
 7301 0a44 64010000 		.4byte	.LVL65
 7302 0a48 0600     		.2byte	0x6
 7303 0a4a 7A       		.byte	0x7a
 7304 0a4b 00       		.sleb128 0
 7305 0a4c 74       		.byte	0x74
 7306 0a4d 00       		.sleb128 0
 7307 0a4e 1C       		.byte	0x1c
 7308 0a4f 9F       		.byte	0x9f
 7309 0a50 70010000 		.4byte	.LVL68
 7310 0a54 C6010000 		.4byte	.LVL73
 7311 0a58 0600     		.2byte	0x6
 7312 0a5a 7A       		.byte	0x7a
 7313 0a5b 00       		.sleb128 0
 7314 0a5c 74       		.byte	0x74
 7315 0a5d 00       		.sleb128 0
 7316 0a5e 1C       		.byte	0x1c
 7317 0a5f 9F       		.byte	0x9f
 7318 0a60 0C020000 		.4byte	.LVL79
 7319 0a64 14020000 		.4byte	.LVL82
 7320 0a68 0600     		.2byte	0x6
 7321 0a6a 7A       		.byte	0x7a
 7322 0a6b 00       		.sleb128 0
 7323 0a6c 74       		.byte	0x74
 7324 0a6d 00       		.sleb128 0
 7325 0a6e 1C       		.byte	0x1c
 7326 0a6f 9F       		.byte	0x9f
 7327 0a70 FA020000 		.4byte	.LVL93
 7328 0a74 32030000 		.4byte	.LVL99
 7329 0a78 0600     		.2byte	0x6
 7330 0a7a 7A       		.byte	0x7a
 7331 0a7b 00       		.sleb128 0
 7332 0a7c 74       		.byte	0x74
 7333 0a7d 00       		.sleb128 0
 7334 0a7e 1C       		.byte	0x1c
 7335 0a7f 9F       		.byte	0x9f
 7336 0a80 4C030000 		.4byte	.LVL101
 7337 0a84 56030000 		.4byte	.LVL103
 7338 0a88 0600     		.2byte	0x6
 7339 0a8a 7A       		.byte	0x7a
ARM GAS  /var/folders/5n/p_75w94d66l9ssrldxqdhh700000gn/T//cc4n8EPc.s 			page 130


 7340 0a8b 00       		.sleb128 0
 7341 0a8c 74       		.byte	0x74
 7342 0a8d 00       		.sleb128 0
 7343 0a8e 1C       		.byte	0x1c
 7344 0a8f 9F       		.byte	0x9f
 7345 0a90 B2030000 		.4byte	.LVL109
 7346 0a94 BA030000 		.4byte	.LVL110
 7347 0a98 0600     		.2byte	0x6
 7348 0a9a 7A       		.byte	0x7a
 7349 0a9b 00       		.sleb128 0
 7350 0a9c 74       		.byte	0x74
 7351 0a9d 00       		.sleb128 0
 7352 0a9e 1C       		.byte	0x1c
 7353 0a9f 9F       		.byte	0x9f
 7354 0aa0 00000000 		.4byte	0
 7355 0aa4 00000000 		.4byte	0
 7356              	.LLST41:
 7357 0aa8 EE000000 		.4byte	.LVL55
 7358 0aac F8000000 		.4byte	.LVL57
 7359 0ab0 0100     		.2byte	0x1
 7360 0ab2 52       		.byte	0x52
 7361 0ab3 72010000 		.4byte	.LVL69
 7362 0ab7 A5010000 		.4byte	.LVL71-1
 7363 0abb 0100     		.2byte	0x1
 7364 0abd 52       		.byte	0x52
 7365 0abe 0C020000 		.4byte	.LVL79
 7366 0ac2 0F020000 		.4byte	.LVL80-1
 7367 0ac6 0100     		.2byte	0x1
 7368 0ac8 52       		.byte	0x52
 7369 0ac9 00000000 		.4byte	0
 7370 0acd 00000000 		.4byte	0
 7371              	.LLST42:
 7372 0ad1 EE000000 		.4byte	.LVL55
 7373 0ad5 70010000 		.4byte	.LVL68
 7374 0ad9 0100     		.2byte	0x1
 7375 0adb 56       		.byte	0x56
 7376 0adc 80010000 		.4byte	.LVL70
 7377 0ae0 C6010000 		.4byte	.LVL73
 7378 0ae4 0100     		.2byte	0x1
 7379 0ae6 56       		.byte	0x56
 7380 0ae7 0C020000 		.4byte	.LVL79
 7381 0aeb 20020000 		.4byte	.LVL85
 7382 0aef 0100     		.2byte	0x1
 7383 0af1 56       		.byte	0x56
 7384 0af2 FA020000 		.4byte	.LVL93
 7385 0af6 2A030000 		.4byte	.LVL98
 7386 0afa 0100     		.2byte	0x1
 7387 0afc 56       		.byte	0x56
 7388 0afd 4C030000 		.4byte	.LVL101
 7389 0b01 56030000 		.4byte	.LVL103
 7390 0b05 0100     		.2byte	0x1
 7391 0b07 56       		.byte	0x56
 7392 0b08 B2030000 		.4byte	.LVL109
 7393 0b0c BA030000 		.4byte	.LVL110
 7394 0b10 0100     		.2byte	0x1
 7395 0b12 56       		.byte	0x56
 7396 0b13 00000000 		.4byte	0
ARM GAS  /var/folders/5n/p_75w94d66l9ssrldxqdhh700000gn/T//cc4n8EPc.s 			page 131


 7397 0b17 00000000 		.4byte	0
 7398              	.LLST43:
 7399 0b1b 02010000 		.4byte	.LVL58
 7400 0b1f 0E010000 		.4byte	.LVL59
 7401 0b23 0100     		.2byte	0x1
 7402 0b25 50       		.byte	0x50
 7403 0b26 0E010000 		.4byte	.LVL59
 7404 0b2a 2A010000 		.4byte	.LVL61
 7405 0b2e 0100     		.2byte	0x1
 7406 0b30 59       		.byte	0x59
 7407 0b31 00030000 		.4byte	.LVL95
 7408 0b35 06030000 		.4byte	.LVL97
 7409 0b39 0100     		.2byte	0x1
 7410 0b3b 59       		.byte	0x59
 7411 0b3c 00000000 		.4byte	0
 7412 0b40 00000000 		.4byte	0
 7413              	.LLST44:
 7414 0b44 28020000 		.4byte	.LVL86
 7415 0b48 30020000 		.4byte	.LVL87
 7416 0b4c 0500     		.2byte	0x5
 7417 0b4e 91       		.byte	0x91
 7418 0b4f 40       		.sleb128 -64
 7419 0b50 06       		.byte	0x6
 7420 0b51 23       		.byte	0x23
 7421 0b52 04       		.uleb128 0x4
 7422 0b53 50020000 		.4byte	.LVL88
 7423 0b57 5A020000 		.4byte	.LVL89
 7424 0b5b 0200     		.2byte	0x2
 7425 0b5d 74       		.byte	0x74
 7426 0b5e 00       		.sleb128 0
 7427 0b5f 00000000 		.4byte	0
 7428 0b63 00000000 		.4byte	0
 7429              	.LLST45:
 7430 0b67 00000000 		.4byte	.LFB13
 7431 0b6b 04000000 		.4byte	.LCFI5
 7432 0b6f 0200     		.2byte	0x2
 7433 0b71 7D       		.byte	0x7d
 7434 0b72 00       		.sleb128 0
 7435 0b73 04000000 		.4byte	.LCFI5
 7436 0b77 0A000000 		.4byte	.LCFI6
 7437 0b7b 0200     		.2byte	0x2
 7438 0b7d 7D       		.byte	0x7d
 7439 0b7e 18       		.sleb128 24
 7440 0b7f 0A000000 		.4byte	.LCFI6
 7441 0b83 60010000 		.4byte	.LFE13
 7442 0b87 0200     		.2byte	0x2
 7443 0b89 7D       		.byte	0x7d
 7444 0b8a 28       		.sleb128 40
 7445 0b8b 00000000 		.4byte	0
 7446 0b8f 00000000 		.4byte	0
 7447              	.LLST46:
 7448 0b93 00000000 		.4byte	.LVL126
 7449 0b97 08000000 		.4byte	.LVL127
 7450 0b9b 0100     		.2byte	0x1
 7451 0b9d 50       		.byte	0x50
 7452 0b9e 08000000 		.4byte	.LVL127
 7453 0ba2 BC000000 		.4byte	.LVL138
ARM GAS  /var/folders/5n/p_75w94d66l9ssrldxqdhh700000gn/T//cc4n8EPc.s 			page 132


 7454 0ba6 0100     		.2byte	0x1
 7455 0ba8 54       		.byte	0x54
 7456 0ba9 C4000000 		.4byte	.LVL139
 7457 0bad 22010000 		.4byte	.LVL145
 7458 0bb1 0100     		.2byte	0x1
 7459 0bb3 54       		.byte	0x54
 7460 0bb4 2E010000 		.4byte	.LVL146
 7461 0bb8 60010000 		.4byte	.LFE13
 7462 0bbc 0100     		.2byte	0x1
 7463 0bbe 54       		.byte	0x54
 7464 0bbf 00000000 		.4byte	0
 7465 0bc3 00000000 		.4byte	0
 7466              	.LLST47:
 7467 0bc7 00000000 		.4byte	.LVL126
 7468 0bcb 16000000 		.4byte	.LVL128
 7469 0bcf 0100     		.2byte	0x1
 7470 0bd1 51       		.byte	0x51
 7471 0bd2 DA000000 		.4byte	.LVL140
 7472 0bd6 DD000000 		.4byte	.LVL141-1
 7473 0bda 0100     		.2byte	0x1
 7474 0bdc 51       		.byte	0x51
 7475 0bdd 00000000 		.4byte	0
 7476 0be1 00000000 		.4byte	0
 7477              	.LLST48:
 7478 0be5 3C000000 		.4byte	.LVL130
 7479 0be9 48000000 		.4byte	.LVL131
 7480 0bed 0100     		.2byte	0x1
 7481 0bef 50       		.byte	0x50
 7482 0bf0 02010000 		.4byte	.LVL142
 7483 0bf4 07010000 		.4byte	.LVL143-1
 7484 0bf8 0100     		.2byte	0x1
 7485 0bfa 50       		.byte	0x50
 7486 0bfb 00000000 		.4byte	0
 7487 0bff 00000000 		.4byte	0
 7488              	.LLST49:
 7489 0c03 56000000 		.4byte	.LVL132
 7490 0c07 62000000 		.4byte	.LVL134
 7491 0c0b 0100     		.2byte	0x1
 7492 0c0d 50       		.byte	0x50
 7493 0c0e 62000000 		.4byte	.LVL134
 7494 0c12 BC000000 		.4byte	.LVL138
 7495 0c16 0100     		.2byte	0x1
 7496 0c18 57       		.byte	0x57
 7497 0c19 C4000000 		.4byte	.LVL139
 7498 0c1d DA000000 		.4byte	.LVL140
 7499 0c21 0100     		.2byte	0x1
 7500 0c23 57       		.byte	0x57
 7501 0c24 0C010000 		.4byte	.LVL144
 7502 0c28 2E010000 		.4byte	.LVL146
 7503 0c2c 0100     		.2byte	0x1
 7504 0c2e 57       		.byte	0x57
 7505 0c2f 00000000 		.4byte	0
 7506 0c33 00000000 		.4byte	0
 7507              	.LLST50:
 7508 0c37 00000000 		.4byte	.LVL126
 7509 0c3b 2E000000 		.4byte	.LVL129
 7510 0c3f 0200     		.2byte	0x2
ARM GAS  /var/folders/5n/p_75w94d66l9ssrldxqdhh700000gn/T//cc4n8EPc.s 			page 133


 7511 0c41 30       		.byte	0x30
 7512 0c42 9F       		.byte	0x9f
 7513 0c43 2E000000 		.4byte	.LVL129
 7514 0c47 58000000 		.4byte	.LVL133
 7515 0c4b 0100     		.2byte	0x1
 7516 0c4d 57       		.byte	0x57
 7517 0c4e DA000000 		.4byte	.LVL140
 7518 0c52 02010000 		.4byte	.LVL142
 7519 0c56 0200     		.2byte	0x2
 7520 0c58 30       		.byte	0x30
 7521 0c59 9F       		.byte	0x9f
 7522 0c5a 02010000 		.4byte	.LVL142
 7523 0c5e 0C010000 		.4byte	.LVL144
 7524 0c62 0100     		.2byte	0x1
 7525 0c64 57       		.byte	0x57
 7526 0c65 2E010000 		.4byte	.LVL146
 7527 0c69 3E010000 		.4byte	.LVL147
 7528 0c6d 0100     		.2byte	0x1
 7529 0c6f 57       		.byte	0x57
 7530 0c70 00000000 		.4byte	0
 7531 0c74 00000000 		.4byte	0
 7532              	.LLST51:
 7533 0c78 6E000000 		.4byte	.LVL135
 7534 0c7c 78000000 		.4byte	.LVL137
 7535 0c80 0100     		.2byte	0x1
 7536 0c82 52       		.byte	0x52
 7537 0c83 00000000 		.4byte	0
 7538 0c87 00000000 		.4byte	0
 7539              	.LLST52:
 7540 0c8b 00000000 		.4byte	.LFB8
 7541 0c8f 02000000 		.4byte	.LCFI7
 7542 0c93 0200     		.2byte	0x2
 7543 0c95 7D       		.byte	0x7d
 7544 0c96 00       		.sleb128 0
 7545 0c97 02000000 		.4byte	.LCFI7
 7546 0c9b 50000000 		.4byte	.LFE8
 7547 0c9f 0200     		.2byte	0x2
 7548 0ca1 7D       		.byte	0x7d
 7549 0ca2 10       		.sleb128 16
 7550 0ca3 00000000 		.4byte	0
 7551 0ca7 00000000 		.4byte	0
 7552              	.LLST53:
 7553 0cab 00000000 		.4byte	.LVL148
 7554 0caf 18000000 		.4byte	.LVL151
 7555 0cb3 0100     		.2byte	0x1
 7556 0cb5 50       		.byte	0x50
 7557 0cb6 18000000 		.4byte	.LVL151
 7558 0cba 38000000 		.4byte	.LVL155
 7559 0cbe 0100     		.2byte	0x1
 7560 0cc0 55       		.byte	0x55
 7561 0cc1 00000000 		.4byte	0
 7562 0cc5 00000000 		.4byte	0
 7563              	.LLST54:
 7564 0cc9 0A000000 		.4byte	.LVL149
 7565 0ccd 26000000 		.4byte	.LVL152
 7566 0cd1 0100     		.2byte	0x1
 7567 0cd3 54       		.byte	0x54
ARM GAS  /var/folders/5n/p_75w94d66l9ssrldxqdhh700000gn/T//cc4n8EPc.s 			page 134


 7568 0cd4 32000000 		.4byte	.LVL153
 7569 0cd8 34000000 		.4byte	.LVL154
 7570 0cdc 0100     		.2byte	0x1
 7571 0cde 54       		.byte	0x54
 7572 0cdf 00000000 		.4byte	0
 7573 0ce3 00000000 		.4byte	0
 7574              	.LLST55:
 7575 0ce7 00000000 		.4byte	.LFB14
 7576 0ceb 02000000 		.4byte	.LCFI8
 7577 0cef 0200     		.2byte	0x2
 7578 0cf1 7D       		.byte	0x7d
 7579 0cf2 00       		.sleb128 0
 7580 0cf3 02000000 		.4byte	.LCFI8
 7581 0cf7 06000000 		.4byte	.LCFI9
 7582 0cfb 0200     		.2byte	0x2
 7583 0cfd 7D       		.byte	0x7d
 7584 0cfe 14       		.sleb128 20
 7585 0cff 06000000 		.4byte	.LCFI9
 7586 0d03 6C000000 		.4byte	.LFE14
 7587 0d07 0200     		.2byte	0x2
 7588 0d09 7D       		.byte	0x7d
 7589 0d0a 20       		.sleb128 32
 7590 0d0b 00000000 		.4byte	0
 7591 0d0f 00000000 		.4byte	0
 7592              	.LLST56:
 7593 0d13 00000000 		.4byte	.LVL156
 7594 0d17 08000000 		.4byte	.LVL157
 7595 0d1b 0100     		.2byte	0x1
 7596 0d1d 50       		.byte	0x50
 7597 0d1e 08000000 		.4byte	.LVL157
 7598 0d22 54000000 		.4byte	.LVL162
 7599 0d26 0100     		.2byte	0x1
 7600 0d28 54       		.byte	0x54
 7601 0d29 54000000 		.4byte	.LVL162
 7602 0d2d 59000000 		.4byte	.LVL163-1
 7603 0d31 0100     		.2byte	0x1
 7604 0d33 51       		.byte	0x51
 7605 0d34 59000000 		.4byte	.LVL163-1
 7606 0d38 62000000 		.4byte	.LVL164
 7607 0d3c 0300     		.2byte	0x3
 7608 0d3e 76       		.byte	0x76
 7609 0d3f 7C       		.sleb128 -4
 7610 0d40 9F       		.byte	0x9f
 7611 0d41 68000000 		.4byte	.LVL165
 7612 0d45 6C000000 		.4byte	.LFE14
 7613 0d49 0100     		.2byte	0x1
 7614 0d4b 54       		.byte	0x54
 7615 0d4c 00000000 		.4byte	0
 7616 0d50 00000000 		.4byte	0
 7617              	.LLST57:
 7618 0d54 16000000 		.4byte	.LVL158
 7619 0d58 3D000000 		.4byte	.LVL160-1
 7620 0d5c 0100     		.2byte	0x1
 7621 0d5e 50       		.byte	0x50
 7622 0d5f 3D000000 		.4byte	.LVL160-1
 7623 0d63 6C000000 		.4byte	.LFE14
 7624 0d67 0100     		.2byte	0x1
ARM GAS  /var/folders/5n/p_75w94d66l9ssrldxqdhh700000gn/T//cc4n8EPc.s 			page 135


 7625 0d69 55       		.byte	0x55
 7626 0d6a 00000000 		.4byte	0
 7627 0d6e 00000000 		.4byte	0
 7628              	.LLST58:
 7629 0d72 22000000 		.4byte	.LVL159
 7630 0d76 3D000000 		.4byte	.LVL160-1
 7631 0d7a 0200     		.2byte	0x2
 7632 0d7c 70       		.byte	0x70
 7633 0d7d 04       		.sleb128 4
 7634 0d7e 3D000000 		.4byte	.LVL160-1
 7635 0d82 48000000 		.4byte	.LVL161
 7636 0d86 0100     		.2byte	0x1
 7637 0d88 57       		.byte	0x57
 7638 0d89 00000000 		.4byte	0
 7639 0d8d 00000000 		.4byte	0
 7640              	.LLST59:
 7641 0d91 00000000 		.4byte	.LFB15
 7642 0d95 04000000 		.4byte	.LCFI10
 7643 0d99 0200     		.2byte	0x2
 7644 0d9b 7D       		.byte	0x7d
 7645 0d9c 00       		.sleb128 0
 7646 0d9d 04000000 		.4byte	.LCFI10
 7647 0da1 0C000000 		.4byte	.LCFI11
 7648 0da5 0200     		.2byte	0x2
 7649 0da7 7D       		.byte	0x7d
 7650 0da8 24       		.sleb128 36
 7651 0da9 0C000000 		.4byte	.LCFI11
 7652 0dad BC030000 		.4byte	.LFE15
 7653 0db1 0200     		.2byte	0x2
 7654 0db3 7D       		.byte	0x7d
 7655 0db4 38       		.sleb128 56
 7656 0db5 00000000 		.4byte	0
 7657 0db9 00000000 		.4byte	0
 7658              	.LLST60:
 7659 0dbd 00000000 		.4byte	.LVL166
 7660 0dc1 2C000000 		.4byte	.LVL168
 7661 0dc5 0100     		.2byte	0x1
 7662 0dc7 50       		.byte	0x50
 7663 0dc8 2C000000 		.4byte	.LVL168
 7664 0dcc BC030000 		.4byte	.LFE15
 7665 0dd0 0100     		.2byte	0x1
 7666 0dd2 54       		.byte	0x54
 7667 0dd3 00000000 		.4byte	0
 7668 0dd7 00000000 		.4byte	0
 7669              	.LLST61:
 7670 0ddb 26000000 		.4byte	.LVL167
 7671 0ddf 2C000000 		.4byte	.LVL168
 7672 0de3 0300     		.2byte	0x3
 7673 0de5 70       		.byte	0x70
 7674 0de6 F400     		.sleb128 116
 7675 0de8 2C000000 		.4byte	.LVL168
 7676 0dec 24020000 		.4byte	.LVL185
 7677 0df0 0100     		.2byte	0x1
 7678 0df2 55       		.byte	0x55
 7679 0df3 24020000 		.4byte	.LVL185
 7680 0df7 28020000 		.4byte	.LVL186
 7681 0dfb 0300     		.2byte	0x3
ARM GAS  /var/folders/5n/p_75w94d66l9ssrldxqdhh700000gn/T//cc4n8EPc.s 			page 136


 7682 0dfd 74       		.byte	0x74
 7683 0dfe F400     		.sleb128 116
 7684 0e00 28020000 		.4byte	.LVL186
 7685 0e04 AA020000 		.4byte	.LVL189
 7686 0e08 0100     		.2byte	0x1
 7687 0e0a 55       		.byte	0x55
 7688 0e0b AA020000 		.4byte	.LVL189
 7689 0e0f AE020000 		.4byte	.LVL190
 7690 0e13 0300     		.2byte	0x3
 7691 0e15 74       		.byte	0x74
 7692 0e16 F400     		.sleb128 116
 7693 0e18 AE020000 		.4byte	.LVL190
 7694 0e1c CA020000 		.4byte	.LVL191
 7695 0e20 0100     		.2byte	0x1
 7696 0e22 55       		.byte	0x55
 7697 0e23 D2020000 		.4byte	.LVL192
 7698 0e27 BC030000 		.4byte	.LFE15
 7699 0e2b 0100     		.2byte	0x1
 7700 0e2d 55       		.byte	0x55
 7701 0e2e 00000000 		.4byte	0
 7702 0e32 00000000 		.4byte	0
 7703              	.LLST62:
 7704 0e36 2E000000 		.4byte	.LVL169
 7705 0e3a 32000000 		.4byte	.LVL170
 7706 0e3e 0300     		.2byte	0x3
 7707 0e40 74       		.byte	0x74
 7708 0e41 F800     		.sleb128 120
 7709 0e43 32000000 		.4byte	.LVL170
 7710 0e47 56000000 		.4byte	.LVL172
 7711 0e4b 0100     		.2byte	0x1
 7712 0e4d 57       		.byte	0x57
 7713 0e4e 56000000 		.4byte	.LVL172
 7714 0e52 1E020000 		.4byte	.LVL183
 7715 0e56 0100     		.2byte	0x1
 7716 0e58 58       		.byte	0x58
 7717 0e59 1E020000 		.4byte	.LVL183
 7718 0e5d 22020000 		.4byte	.LVL184
 7719 0e61 0100     		.2byte	0x1
 7720 0e63 55       		.byte	0x55
 7721 0e64 22020000 		.4byte	.LVL184
 7722 0e68 A6020000 		.4byte	.LVL188
 7723 0e6c 0100     		.2byte	0x1
 7724 0e6e 58       		.byte	0x58
 7725 0e6f A6020000 		.4byte	.LVL188
 7726 0e73 AA020000 		.4byte	.LVL189
 7727 0e77 0100     		.2byte	0x1
 7728 0e79 55       		.byte	0x55
 7729 0e7a AA020000 		.4byte	.LVL189
 7730 0e7e AE020000 		.4byte	.LVL190
 7731 0e82 0100     		.2byte	0x1
 7732 0e84 58       		.byte	0x58
 7733 0e85 D2020000 		.4byte	.LVL192
 7734 0e89 28030000 		.4byte	.LVL196
 7735 0e8d 0100     		.2byte	0x1
 7736 0e8f 55       		.byte	0x55
 7737 0e90 28030000 		.4byte	.LVL196
 7738 0e94 48030000 		.4byte	.LVL198
ARM GAS  /var/folders/5n/p_75w94d66l9ssrldxqdhh700000gn/T//cc4n8EPc.s 			page 137


 7739 0e98 0100     		.2byte	0x1
 7740 0e9a 58       		.byte	0x58
 7741 0e9b 00000000 		.4byte	0
 7742 0e9f 00000000 		.4byte	0
 7743              	.LLST63:
 7744 0ea3 26000000 		.4byte	.LVL167
 7745 0ea7 CA020000 		.4byte	.LVL191
 7746 0eab 0100     		.2byte	0x1
 7747 0ead 5B       		.byte	0x5b
 7748 0eae D2020000 		.4byte	.LVL192
 7749 0eb2 BC030000 		.4byte	.LFE15
 7750 0eb6 0100     		.2byte	0x1
 7751 0eb8 5B       		.byte	0x5b
 7752 0eb9 00000000 		.4byte	0
 7753 0ebd 00000000 		.4byte	0
 7754              	.LLST64:
 7755 0ec1 AA010000 		.4byte	.LVL181
 7756 0ec5 BA010000 		.4byte	.LVL182
 7757 0ec9 0100     		.2byte	0x1
 7758 0ecb 56       		.byte	0x56
 7759 0ecc 00000000 		.4byte	0
 7760 0ed0 00000000 		.4byte	0
 7761              	.LLST65:
 7762 0ed4 A4000000 		.4byte	.LVL173
 7763 0ed8 28020000 		.4byte	.LVL186
 7764 0edc 0100     		.2byte	0x1
 7765 0ede 54       		.byte	0x54
 7766 0edf 6A020000 		.4byte	.LVL187
 7767 0ee3 AE020000 		.4byte	.LVL190
 7768 0ee7 0100     		.2byte	0x1
 7769 0ee9 54       		.byte	0x54
 7770 0eea D2020000 		.4byte	.LVL192
 7771 0eee 30030000 		.4byte	.LVL197
 7772 0ef2 0100     		.2byte	0x1
 7773 0ef4 54       		.byte	0x54
 7774 0ef5 00000000 		.4byte	0
 7775 0ef9 00000000 		.4byte	0
 7776              	.LLST66:
 7777 0efd A4000000 		.4byte	.LVL173
 7778 0f01 24020000 		.4byte	.LVL185
 7779 0f05 0100     		.2byte	0x1
 7780 0f07 55       		.byte	0x55
 7781 0f08 6A020000 		.4byte	.LVL187
 7782 0f0c AA020000 		.4byte	.LVL189
 7783 0f10 0100     		.2byte	0x1
 7784 0f12 55       		.byte	0x55
 7785 0f13 AA020000 		.4byte	.LVL189
 7786 0f17 AE020000 		.4byte	.LVL190
 7787 0f1b 0100     		.2byte	0x1
 7788 0f1d 58       		.byte	0x58
 7789 0f1e D2020000 		.4byte	.LVL192
 7790 0f22 30030000 		.4byte	.LVL197
 7791 0f26 0100     		.2byte	0x1
 7792 0f28 55       		.byte	0x55
 7793 0f29 00000000 		.4byte	0
 7794 0f2d 00000000 		.4byte	0
 7795              	.LLST67:
ARM GAS  /var/folders/5n/p_75w94d66l9ssrldxqdhh700000gn/T//cc4n8EPc.s 			page 138


 7796 0f31 24010000 		.4byte	.LVL179
 7797 0f35 2E010000 		.4byte	.LVL180
 7798 0f39 0100     		.2byte	0x1
 7799 0f3b 53       		.byte	0x53
 7800 0f3c 00000000 		.4byte	0
 7801 0f40 00000000 		.4byte	0
 7802              	.LLST68:
 7803 0f44 02010000 		.4byte	.LVL176
 7804 0f48 0C010000 		.4byte	.LVL178
 7805 0f4c 0100     		.2byte	0x1
 7806 0f4e 50       		.byte	0x50
 7807 0f4f 00000000 		.4byte	0
 7808 0f53 00000000 		.4byte	0
 7809              	.LLST69:
 7810 0f57 DE000000 		.4byte	.LVL174
 7811 0f5b EE000000 		.4byte	.LVL175
 7812 0f5f 0300     		.2byte	0x3
 7813 0f61 76       		.byte	0x76
 7814 0f62 14       		.sleb128 20
 7815 0f63 9F       		.byte	0x9f
 7816 0f64 EE000000 		.4byte	.LVL175
 7817 0f68 0A010000 		.4byte	.LVL177
 7818 0f6c 0300     		.2byte	0x3
 7819 0f6e 76       		.byte	0x76
 7820 0f6f 18       		.sleb128 24
 7821 0f70 9F       		.byte	0x9f
 7822 0f71 00000000 		.4byte	0
 7823 0f75 00000000 		.4byte	0
 7824              	.LLST70:
 7825 0f79 D8020000 		.4byte	.LVL193
 7826 0f7d DC020000 		.4byte	.LVL194
 7827 0f81 0400     		.2byte	0x4
 7828 0f83 74       		.byte	0x74
 7829 0f84 F800     		.sleb128 120
 7830 0f86 9F       		.byte	0x9f
 7831 0f87 DC020000 		.4byte	.LVL194
 7832 0f8b 28030000 		.4byte	.LVL196
 7833 0f8f 0100     		.2byte	0x1
 7834 0f91 56       		.byte	0x56
 7835 0f92 00000000 		.4byte	0
 7836 0f96 00000000 		.4byte	0
 7837              	.LLST71:
 7838 0f9a 00000000 		.4byte	.LFB17
 7839 0f9e 04000000 		.4byte	.LCFI12
 7840 0fa2 0200     		.2byte	0x2
 7841 0fa4 7D       		.byte	0x7d
 7842 0fa5 00       		.sleb128 0
 7843 0fa6 04000000 		.4byte	.LCFI12
 7844 0faa 06000000 		.4byte	.LCFI13
 7845 0fae 0200     		.2byte	0x2
 7846 0fb0 7D       		.byte	0x7d
 7847 0fb1 20       		.sleb128 32
 7848 0fb2 06000000 		.4byte	.LCFI13
 7849 0fb6 F4000000 		.4byte	.LFE17
 7850 0fba 0200     		.2byte	0x2
 7851 0fbc 7D       		.byte	0x7d
 7852 0fbd 28       		.sleb128 40
ARM GAS  /var/folders/5n/p_75w94d66l9ssrldxqdhh700000gn/T//cc4n8EPc.s 			page 139


 7853 0fbe 00000000 		.4byte	0
 7854 0fc2 00000000 		.4byte	0
 7855              	.LLST72:
 7856 0fc6 00000000 		.4byte	.LVL199
 7857 0fca 0E000000 		.4byte	.LVL200
 7858 0fce 0100     		.2byte	0x1
 7859 0fd0 50       		.byte	0x50
 7860 0fd1 0E000000 		.4byte	.LVL200
 7861 0fd5 8C000000 		.4byte	.LVL207
 7862 0fd9 0100     		.2byte	0x1
 7863 0fdb 56       		.byte	0x56
 7864 0fdc E4000000 		.4byte	.LVL209
 7865 0fe0 F4000000 		.4byte	.LFE17
 7866 0fe4 0100     		.2byte	0x1
 7867 0fe6 56       		.byte	0x56
 7868 0fe7 00000000 		.4byte	0
 7869 0feb 00000000 		.4byte	0
 7870              	.LLST73:
 7871 0fef 00000000 		.4byte	.LVL199
 7872 0ff3 10000000 		.4byte	.LVL201
 7873 0ff7 0100     		.2byte	0x1
 7874 0ff9 51       		.byte	0x51
 7875 0ffa 10000000 		.4byte	.LVL201
 7876 0ffe F4000000 		.4byte	.LFE17
 7877 1002 0100     		.2byte	0x1
 7878 1004 5A       		.byte	0x5a
 7879 1005 00000000 		.4byte	0
 7880 1009 00000000 		.4byte	0
 7881              	.LLST74:
 7882 100d 00000000 		.4byte	.LVL199
 7883 1011 12000000 		.4byte	.LVL202
 7884 1015 0100     		.2byte	0x1
 7885 1017 52       		.byte	0x52
 7886 1018 12000000 		.4byte	.LVL202
 7887 101c F4000000 		.4byte	.LFE17
 7888 1020 0100     		.2byte	0x1
 7889 1022 57       		.byte	0x57
 7890 1023 00000000 		.4byte	0
 7891 1027 00000000 		.4byte	0
 7892              	.LLST75:
 7893 102b 00000000 		.4byte	.LVL199
 7894 102f 1F000000 		.4byte	.LVL203-1
 7895 1033 0100     		.2byte	0x1
 7896 1035 53       		.byte	0x53
 7897 1036 1F000000 		.4byte	.LVL203-1
 7898 103a F4000000 		.4byte	.LFE17
 7899 103e 0100     		.2byte	0x1
 7900 1040 58       		.byte	0x58
 7901 1041 00000000 		.4byte	0
 7902 1045 00000000 		.4byte	0
 7903              	.LLST76:
 7904 1049 20000000 		.4byte	.LVL203
 7905 104d 2C000000 		.4byte	.LVL204
 7906 1051 0100     		.2byte	0x1
 7907 1053 50       		.byte	0x50
 7908 1054 2C000000 		.4byte	.LVL204
 7909 1058 F4000000 		.4byte	.LFE17
ARM GAS  /var/folders/5n/p_75w94d66l9ssrldxqdhh700000gn/T//cc4n8EPc.s 			page 140


 7910 105c 0100     		.2byte	0x1
 7911 105e 55       		.byte	0x55
 7912 105f 00000000 		.4byte	0
 7913 1063 00000000 		.4byte	0
 7914              	.LLST77:
 7915 1067 30000000 		.4byte	.LVL205
 7916 106b 33000000 		.4byte	.LVL206-1
 7917 106f 0200     		.2byte	0x2
 7918 1071 75       		.byte	0x75
 7919 1072 04       		.sleb128 4
 7920 1073 33000000 		.4byte	.LVL206-1
 7921 1077 C0000000 		.4byte	.LVL208
 7922 107b 0100     		.2byte	0x1
 7923 107d 54       		.byte	0x54
 7924 107e 00000000 		.4byte	0
 7925 1082 00000000 		.4byte	0
 7926              	.LLST78:
 7927 1086 00000000 		.4byte	.LFB18
 7928 108a 04000000 		.4byte	.LCFI14
 7929 108e 0200     		.2byte	0x2
 7930 1090 7D       		.byte	0x7d
 7931 1091 00       		.sleb128 0
 7932 1092 04000000 		.4byte	.LCFI14
 7933 1096 30000000 		.4byte	.LFE18
 7934 109a 0200     		.2byte	0x2
 7935 109c 7D       		.byte	0x7d
 7936 109d 04       		.sleb128 4
 7937 109e 00000000 		.4byte	0
 7938 10a2 00000000 		.4byte	0
 7939              	.LLST79:
 7940 10a6 00000000 		.4byte	.LVL210
 7941 10aa 2B000000 		.4byte	.LVL214-1
 7942 10ae 0100     		.2byte	0x1
 7943 10b0 50       		.byte	0x50
 7944 10b1 2C000000 		.4byte	.LVL214
 7945 10b5 30000000 		.4byte	.LFE18
 7946 10b9 0100     		.2byte	0x1
 7947 10bb 50       		.byte	0x50
 7948 10bc 00000000 		.4byte	0
 7949 10c0 00000000 		.4byte	0
 7950              	.LLST80:
 7951 10c4 0A000000 		.4byte	.LVL211
 7952 10c8 1A000000 		.4byte	.LVL213
 7953 10cc 0100     		.2byte	0x1
 7954 10ce 52       		.byte	0x52
 7955 10cf 00000000 		.4byte	0
 7956 10d3 00000000 		.4byte	0
 7957              	.LLST81:
 7958 10d7 00000000 		.4byte	.LFB19
 7959 10db 02000000 		.4byte	.LCFI15
 7960 10df 0200     		.2byte	0x2
 7961 10e1 7D       		.byte	0x7d
 7962 10e2 00       		.sleb128 0
 7963 10e3 02000000 		.4byte	.LCFI15
 7964 10e7 72000000 		.4byte	.LFE19
 7965 10eb 0200     		.2byte	0x2
 7966 10ed 7D       		.byte	0x7d
ARM GAS  /var/folders/5n/p_75w94d66l9ssrldxqdhh700000gn/T//cc4n8EPc.s 			page 141


 7967 10ee 18       		.sleb128 24
 7968 10ef 00000000 		.4byte	0
 7969 10f3 00000000 		.4byte	0
 7970              	.LLST82:
 7971 10f7 00000000 		.4byte	.LVL215
 7972 10fb 18000000 		.4byte	.LVL218
 7973 10ff 0100     		.2byte	0x1
 7974 1101 50       		.byte	0x50
 7975 1102 18000000 		.4byte	.LVL218
 7976 1106 72000000 		.4byte	.LFE19
 7977 110a 0100     		.2byte	0x1
 7978 110c 57       		.byte	0x57
 7979 110d 00000000 		.4byte	0
 7980 1111 00000000 		.4byte	0
 7981              	.LLST83:
 7982 1115 0A000000 		.4byte	.LVL216
 7983 1119 18000000 		.4byte	.LVL218
 7984 111d 0300     		.2byte	0x3
 7985 111f 70       		.byte	0x70
 7986 1120 F800     		.sleb128 120
 7987 1122 18000000 		.4byte	.LVL218
 7988 1126 70000000 		.4byte	.LVL220
 7989 112a 0100     		.2byte	0x1
 7990 112c 56       		.byte	0x56
 7991 112d 00000000 		.4byte	0
 7992 1131 00000000 		.4byte	0
 7993              	.LLST84:
 7994 1135 14000000 		.4byte	.LVL217
 7995 1139 18000000 		.4byte	.LVL218
 7996 113d 0400     		.2byte	0x4
 7997 113f 70       		.byte	0x70
 7998 1140 F400     		.sleb128 116
 7999 1142 9F       		.byte	0x9f
 8000 1143 18000000 		.4byte	.LVL218
 8001 1147 70000000 		.4byte	.LVL220
 8002 114b 0100     		.2byte	0x1
 8003 114d 54       		.byte	0x54
 8004 114e 00000000 		.4byte	0
 8005 1152 00000000 		.4byte	0
 8006              	.LLST85:
 8007 1156 00000000 		.4byte	.LFB20
 8008 115a 04000000 		.4byte	.LCFI16
 8009 115e 0200     		.2byte	0x2
 8010 1160 7D       		.byte	0x7d
 8011 1161 00       		.sleb128 0
 8012 1162 04000000 		.4byte	.LCFI16
 8013 1166 56000000 		.4byte	.LFE20
 8014 116a 0200     		.2byte	0x2
 8015 116c 7D       		.byte	0x7d
 8016 116d 08       		.sleb128 8
 8017 116e 00000000 		.4byte	0
 8018 1172 00000000 		.4byte	0
 8019              	.LLST86:
 8020 1176 00000000 		.4byte	.LVL221
 8021 117a 15000000 		.4byte	.LVL222-1
 8022 117e 0100     		.2byte	0x1
 8023 1180 50       		.byte	0x50
ARM GAS  /var/folders/5n/p_75w94d66l9ssrldxqdhh700000gn/T//cc4n8EPc.s 			page 142


 8024 1181 15000000 		.4byte	.LVL222-1
 8025 1185 56000000 		.4byte	.LFE20
 8026 1189 0100     		.2byte	0x1
 8027 118b 54       		.byte	0x54
 8028 118c 00000000 		.4byte	0
 8029 1190 00000000 		.4byte	0
 8030              	.LLST87:
 8031 1194 00000000 		.4byte	.LFB21
 8032 1198 02000000 		.4byte	.LCFI17
 8033 119c 0200     		.2byte	0x2
 8034 119e 7D       		.byte	0x7d
 8035 119f 00       		.sleb128 0
 8036 11a0 02000000 		.4byte	.LCFI17
 8037 11a4 08000000 		.4byte	.LCFI18
 8038 11a8 0200     		.2byte	0x2
 8039 11aa 7D       		.byte	0x7d
 8040 11ab 14       		.sleb128 20
 8041 11ac 08000000 		.4byte	.LCFI18
 8042 11b0 6C000000 		.4byte	.LFE21
 8043 11b4 0200     		.2byte	0x2
 8044 11b6 7D       		.byte	0x7d
 8045 11b7 20       		.sleb128 32
 8046 11b8 00000000 		.4byte	0
 8047 11bc 00000000 		.4byte	0
 8048              	.LLST88:
 8049 11c0 00000000 		.4byte	.LVL223
 8050 11c4 06000000 		.4byte	.LVL224
 8051 11c8 0100     		.2byte	0x1
 8052 11ca 50       		.byte	0x50
 8053 11cb 06000000 		.4byte	.LVL224
 8054 11cf 4A000000 		.4byte	.LVL228
 8055 11d3 0100     		.2byte	0x1
 8056 11d5 54       		.byte	0x54
 8057 11d6 4A000000 		.4byte	.LVL228
 8058 11da 57000000 		.4byte	.LVL229-1
 8059 11de 0100     		.2byte	0x1
 8060 11e0 51       		.byte	0x51
 8061 11e1 57000000 		.4byte	.LVL229-1
 8062 11e5 64000000 		.4byte	.LVL230
 8063 11e9 0300     		.2byte	0x3
 8064 11eb 76       		.byte	0x76
 8065 11ec 7C       		.sleb128 -4
 8066 11ed 9F       		.byte	0x9f
 8067 11ee 64000000 		.4byte	.LVL230
 8068 11f2 6C000000 		.4byte	.LFE21
 8069 11f6 0100     		.2byte	0x1
 8070 11f8 54       		.byte	0x54
 8071 11f9 00000000 		.4byte	0
 8072 11fd 00000000 		.4byte	0
 8073              	.LLST89:
 8074 1201 18000000 		.4byte	.LVL225
 8075 1205 2F000000 		.4byte	.LVL227-1
 8076 1209 0100     		.2byte	0x1
 8077 120b 50       		.byte	0x50
 8078 120c 2F000000 		.4byte	.LVL227-1
 8079 1210 6C000000 		.4byte	.LFE21
 8080 1214 0100     		.2byte	0x1
ARM GAS  /var/folders/5n/p_75w94d66l9ssrldxqdhh700000gn/T//cc4n8EPc.s 			page 143


 8081 1216 55       		.byte	0x55
 8082 1217 00000000 		.4byte	0
 8083 121b 00000000 		.4byte	0
 8084              	.LLST90:
 8085 121f 22000000 		.4byte	.LVL226
 8086 1223 2F000000 		.4byte	.LVL227-1
 8087 1227 0200     		.2byte	0x2
 8088 1229 70       		.byte	0x70
 8089 122a 04       		.sleb128 4
 8090 122b 2F000000 		.4byte	.LVL227-1
 8091 122f 64000000 		.4byte	.LVL230
 8092 1233 0100     		.2byte	0x1
 8093 1235 57       		.byte	0x57
 8094 1236 00000000 		.4byte	0
 8095 123a 00000000 		.4byte	0
 8096              	.LLST91:
 8097 123e 00000000 		.4byte	.LFB22
 8098 1242 04000000 		.4byte	.LCFI19
 8099 1246 0200     		.2byte	0x2
 8100 1248 7D       		.byte	0x7d
 8101 1249 00       		.sleb128 0
 8102 124a 04000000 		.4byte	.LCFI19
 8103 124e 08000000 		.4byte	.LCFI20
 8104 1252 0200     		.2byte	0x2
 8105 1254 7D       		.byte	0x7d
 8106 1255 18       		.sleb128 24
 8107 1256 08000000 		.4byte	.LCFI20
 8108 125a 04010000 		.4byte	.LFE22
 8109 125e 0200     		.2byte	0x2
 8110 1260 7D       		.byte	0x7d
 8111 1261 20       		.sleb128 32
 8112 1262 00000000 		.4byte	0
 8113 1266 00000000 		.4byte	0
 8114              	.LLST92:
 8115 126a 00000000 		.4byte	.LVL231
 8116 126e 14000000 		.4byte	.LVL234
 8117 1272 0100     		.2byte	0x1
 8118 1274 50       		.byte	0x50
 8119 1275 14000000 		.4byte	.LVL234
 8120 1279 A6000000 		.4byte	.LVL242
 8121 127d 0100     		.2byte	0x1
 8122 127f 54       		.byte	0x54
 8123 1280 A6000000 		.4byte	.LVL242
 8124 1284 B3000000 		.4byte	.LVL243-1
 8125 1288 0100     		.2byte	0x1
 8126 128a 51       		.byte	0x51
 8127 128b B3000000 		.4byte	.LVL243-1
 8128 128f C0000000 		.4byte	.LVL244
 8129 1293 0300     		.2byte	0x3
 8130 1295 77       		.byte	0x77
 8131 1296 7C       		.sleb128 -4
 8132 1297 9F       		.byte	0x9f
 8133 1298 C0000000 		.4byte	.LVL244
 8134 129c 04010000 		.4byte	.LFE22
 8135 12a0 0100     		.2byte	0x1
 8136 12a2 54       		.byte	0x54
 8137 12a3 00000000 		.4byte	0
ARM GAS  /var/folders/5n/p_75w94d66l9ssrldxqdhh700000gn/T//cc4n8EPc.s 			page 144


 8138 12a7 00000000 		.4byte	0
 8139              	.LLST93:
 8140 12ab 40000000 		.4byte	.LVL236
 8141 12af 56000000 		.4byte	.LVL239
 8142 12b3 0100     		.2byte	0x1
 8143 12b5 50       		.byte	0x50
 8144 12b6 56000000 		.4byte	.LVL239
 8145 12ba C0000000 		.4byte	.LVL244
 8146 12be 0100     		.2byte	0x1
 8147 12c0 55       		.byte	0x55
 8148 12c1 D4000000 		.4byte	.LVL245
 8149 12c5 E2000000 		.4byte	.LVL247
 8150 12c9 0100     		.2byte	0x1
 8151 12cb 50       		.byte	0x50
 8152 12cc E2000000 		.4byte	.LVL247
 8153 12d0 F4000000 		.4byte	.LVL248
 8154 12d4 0100     		.2byte	0x1
 8155 12d6 55       		.byte	0x55
 8156 12d7 00000000 		.4byte	0
 8157 12db 00000000 		.4byte	0
 8158              	.LLST94:
 8159 12df 48000000 		.4byte	.LVL237
 8160 12e3 56000000 		.4byte	.LVL239
 8161 12e7 0200     		.2byte	0x2
 8162 12e9 70       		.byte	0x70
 8163 12ea 04       		.sleb128 4
 8164 12eb 56000000 		.4byte	.LVL239
 8165 12ef 5D000000 		.4byte	.LVL240-1
 8166 12f3 0200     		.2byte	0x2
 8167 12f5 75       		.byte	0x75
 8168 12f6 04       		.sleb128 4
 8169 12f7 5D000000 		.4byte	.LVL240-1
 8170 12fb C0000000 		.4byte	.LVL244
 8171 12ff 0100     		.2byte	0x1
 8172 1301 56       		.byte	0x56
 8173 1302 D4000000 		.4byte	.LVL245
 8174 1306 F4000000 		.4byte	.LVL248
 8175 130a 0100     		.2byte	0x1
 8176 130c 56       		.byte	0x56
 8177 130d 00000000 		.4byte	0
 8178 1311 00000000 		.4byte	0
 8179              	.LLST95:
 8180 1315 06000000 		.4byte	.LVL232
 8181 1319 0E000000 		.4byte	.LVL233
 8182 131d 0300     		.2byte	0x3
 8183 131f 70       		.byte	0x70
 8184 1320 F800     		.sleb128 120
 8185 1322 0E000000 		.4byte	.LVL233
 8186 1326 50000000 		.4byte	.LVL238
 8187 132a 0100     		.2byte	0x1
 8188 132c 57       		.byte	0x57
 8189 132d C0000000 		.4byte	.LVL244
 8190 1331 DC000000 		.4byte	.LVL246
 8191 1335 0100     		.2byte	0x1
 8192 1337 57       		.byte	0x57
 8193 1338 F4000000 		.4byte	.LVL248
 8194 133c F6000000 		.4byte	.LVL249
ARM GAS  /var/folders/5n/p_75w94d66l9ssrldxqdhh700000gn/T//cc4n8EPc.s 			page 145


 8195 1340 0100     		.2byte	0x1
 8196 1342 57       		.byte	0x57
 8197 1343 F6000000 		.4byte	.LVL249
 8198 1347 FA000000 		.4byte	.LVL250
 8199 134b 0300     		.2byte	0x3
 8200 134d 74       		.byte	0x74
 8201 134e F400     		.sleb128 116
 8202 1350 FA000000 		.4byte	.LVL250
 8203 1354 04010000 		.4byte	.LFE22
 8204 1358 0100     		.2byte	0x1
 8205 135a 57       		.byte	0x57
 8206 135b 00000000 		.4byte	0
 8207 135f 00000000 		.4byte	0
 8208              	.LLST96:
 8209 1363 24000000 		.4byte	.LVL235
 8210 1367 3F000000 		.4byte	.LVL236-1
 8211 136b 0100     		.2byte	0x1
 8212 136d 51       		.byte	0x51
 8213 136e 00000000 		.4byte	0
 8214 1372 00000000 		.4byte	0
 8215              	.LLST97:
 8216 1376 24000000 		.4byte	.LVL235
 8217 137a C0000000 		.4byte	.LVL244
 8218 137e 0100     		.2byte	0x1
 8219 1380 58       		.byte	0x58
 8220 1381 D4000000 		.4byte	.LVL245
 8221 1385 F4000000 		.4byte	.LVL248
 8222 1389 0100     		.2byte	0x1
 8223 138b 58       		.byte	0x58
 8224 138c 00000000 		.4byte	0
 8225 1390 00000000 		.4byte	0
 8226              	.LLST98:
 8227 1394 50000000 		.4byte	.LVL238
 8228 1398 5D000000 		.4byte	.LVL240-1
 8229 139c 0200     		.2byte	0x2
 8230 139e 77       		.byte	0x77
 8231 139f 04       		.sleb128 4
 8232 13a0 00000000 		.4byte	0
 8233 13a4 00000000 		.4byte	0
 8234              	.LLST99:
 8235 13a8 50000000 		.4byte	.LVL238
 8236 13ac 56000000 		.4byte	.LVL239
 8237 13b0 0600     		.2byte	0x6
 8238 13b2 70       		.byte	0x70
 8239 13b3 04       		.sleb128 4
 8240 13b4 06       		.byte	0x6
 8241 13b5 23       		.byte	0x23
 8242 13b6 14       		.uleb128 0x14
 8243 13b7 9F       		.byte	0x9f
 8244 13b8 56000000 		.4byte	.LVL239
 8245 13bc 5D000000 		.4byte	.LVL240-1
 8246 13c0 0600     		.2byte	0x6
 8247 13c2 75       		.byte	0x75
 8248 13c3 04       		.sleb128 4
 8249 13c4 06       		.byte	0x6
 8250 13c5 23       		.byte	0x23
 8251 13c6 14       		.uleb128 0x14
ARM GAS  /var/folders/5n/p_75w94d66l9ssrldxqdhh700000gn/T//cc4n8EPc.s 			page 146


 8252 13c7 9F       		.byte	0x9f
 8253 13c8 5D000000 		.4byte	.LVL240-1
 8254 13cc 76000000 		.4byte	.LVL241
 8255 13d0 0300     		.2byte	0x3
 8256 13d2 76       		.byte	0x76
 8257 13d3 14       		.sleb128 20
 8258 13d4 9F       		.byte	0x9f
 8259 13d5 00000000 		.4byte	0
 8260 13d9 00000000 		.4byte	0
 8261              		.section	.debug_aranges,"",%progbits
 8262 0000 84000000 		.4byte	0x84
 8263 0004 0200     		.2byte	0x2
 8264 0006 00000000 		.4byte	.Ldebug_info0
 8265 000a 04       		.byte	0x4
 8266 000b 00       		.byte	0
 8267 000c 0000     		.2byte	0
 8268 000e 0000     		.2byte	0
 8269 0010 00000000 		.4byte	.LFB10
 8270 0014 66000000 		.4byte	.LFE10-.LFB10
 8271 0018 00000000 		.4byte	.LFB9
 8272 001c E0000000 		.4byte	.LFE9-.LFB9
 8273 0020 00000000 		.4byte	.LFB23
 8274 0024 A2000000 		.4byte	.LFE23-.LFB23
 8275 0028 00000000 		.4byte	.LFB12
 8276 002c 60040000 		.4byte	.LFE12-.LFB12
 8277 0030 00000000 		.4byte	.LFB13
 8278 0034 60010000 		.4byte	.LFE13-.LFB13
 8279 0038 00000000 		.4byte	.LFB8
 8280 003c 50000000 		.4byte	.LFE8-.LFB8
 8281 0040 00000000 		.4byte	.LFB14
 8282 0044 6C000000 		.4byte	.LFE14-.LFB14
 8283 0048 00000000 		.4byte	.LFB15
 8284 004c BC030000 		.4byte	.LFE15-.LFB15
 8285 0050 00000000 		.4byte	.LFB17
 8286 0054 F4000000 		.4byte	.LFE17-.LFB17
 8287 0058 00000000 		.4byte	.LFB18
 8288 005c 30000000 		.4byte	.LFE18-.LFB18
 8289 0060 00000000 		.4byte	.LFB19
 8290 0064 72000000 		.4byte	.LFE19-.LFB19
 8291 0068 00000000 		.4byte	.LFB20
 8292 006c 56000000 		.4byte	.LFE20-.LFB20
 8293 0070 00000000 		.4byte	.LFB21
 8294 0074 6C000000 		.4byte	.LFE21-.LFB21
 8295 0078 00000000 		.4byte	.LFB22
 8296 007c 04010000 		.4byte	.LFE22-.LFB22
 8297 0080 00000000 		.4byte	0
 8298 0084 00000000 		.4byte	0
 8299              		.section	.debug_ranges,"",%progbits
 8300              	.Ldebug_ranges0:
 8301 0000 1A000000 		.4byte	.LBB9
 8302 0004 52000000 		.4byte	.LBE9
 8303 0008 C6010000 		.4byte	.LBB25
 8304 000c D4010000 		.4byte	.LBE25
 8305 0010 DC010000 		.4byte	.LBB26
 8306 0014 E8010000 		.4byte	.LBE26
 8307 0018 EA010000 		.4byte	.LBB27
 8308 001c EE010000 		.4byte	.LBE27
ARM GAS  /var/folders/5n/p_75w94d66l9ssrldxqdhh700000gn/T//cc4n8EPc.s 			page 147


 8309 0020 98030000 		.4byte	.LBB35
 8310 0024 B2030000 		.4byte	.LBE35
 8311 0028 BA030000 		.4byte	.LBB37
 8312 002c D6030000 		.4byte	.LBE37
 8313 0030 00000000 		.4byte	0
 8314 0034 00000000 		.4byte	0
 8315 0038 5C000000 		.4byte	.LBB16
 8316 003c D4000000 		.4byte	.LBE16
 8317 0040 56030000 		.4byte	.LBB34
 8318 0044 98030000 		.4byte	.LBE34
 8319 0048 D6030000 		.4byte	.LBB38
 8320 004c FE030000 		.4byte	.LBE38
 8321 0050 00000000 		.4byte	0
 8322 0054 00000000 		.4byte	0
 8323 0058 56030000 		.4byte	.LBB17
 8324 005c 98030000 		.4byte	.LBE17
 8325 0060 D6030000 		.4byte	.LBB18
 8326 0064 FE030000 		.4byte	.LBE18
 8327 0068 00000000 		.4byte	0
 8328 006c 00000000 		.4byte	0
 8329 0070 EE000000 		.4byte	.LBB19
 8330 0074 66010000 		.4byte	.LBE19
 8331 0078 68010000 		.4byte	.LBB23
 8332 007c 6C010000 		.4byte	.LBE23
 8333 0080 70010000 		.4byte	.LBB24
 8334 0084 C6010000 		.4byte	.LBE24
 8335 0088 0C020000 		.4byte	.LBB28
 8336 008c 16020000 		.4byte	.LBE28
 8337 0090 18020000 		.4byte	.LBB29
 8338 0094 1A020000 		.4byte	.LBE29
 8339 0098 FA020000 		.4byte	.LBB32
 8340 009c 06030000 		.4byte	.LBE32
 8341 00a0 4C030000 		.4byte	.LBB33
 8342 00a4 56030000 		.4byte	.LBE33
 8343 00a8 B2030000 		.4byte	.LBB36
 8344 00ac BA030000 		.4byte	.LBE36
 8345 00b0 00000000 		.4byte	0
 8346 00b4 00000000 		.4byte	0
 8347 00b8 EE000000 		.4byte	.LBB20
 8348 00bc 2A010000 		.4byte	.LBE20
 8349 00c0 0C020000 		.4byte	.LBB21
 8350 00c4 12020000 		.4byte	.LBE21
 8351 00c8 00030000 		.4byte	.LBB22
 8352 00cc 06030000 		.4byte	.LBE22
 8353 00d0 00000000 		.4byte	0
 8354 00d4 00000000 		.4byte	0
 8355 00d8 24020000 		.4byte	.LBB30
 8356 00dc 30020000 		.4byte	.LBE30
 8357 00e0 32020000 		.4byte	.LBB31
 8358 00e4 66020000 		.4byte	.LBE31
 8359 00e8 00000000 		.4byte	0
 8360 00ec 00000000 		.4byte	0
 8361 00f0 0A000000 		.4byte	.LBB40
 8362 00f4 26000000 		.4byte	.LBE40
 8363 00f8 32000000 		.4byte	.LBB41
 8364 00fc 4C000000 		.4byte	.LBE41
 8365 0100 00000000 		.4byte	0
ARM GAS  /var/folders/5n/p_75w94d66l9ssrldxqdhh700000gn/T//cc4n8EPc.s 			page 148


 8366 0104 00000000 		.4byte	0
 8367 0108 40000000 		.4byte	.LBB45
 8368 010c 56000000 		.4byte	.LBE45
 8369 0110 A4000000 		.4byte	.LBB49
 8370 0114 70010000 		.4byte	.LBE49
 8371 0118 6A020000 		.4byte	.LBB50
 8372 011c A4020000 		.4byte	.LBE50
 8373 0120 00000000 		.4byte	0
 8374 0124 00000000 		.4byte	0
 8375 0128 40000000 		.4byte	.LBB46
 8376 012c 56000000 		.4byte	.LBE46
 8377 0130 A4000000 		.4byte	.LBB47
 8378 0134 70010000 		.4byte	.LBE47
 8379 0138 6A020000 		.4byte	.LBB48
 8380 013c A4020000 		.4byte	.LBE48
 8381 0140 00000000 		.4byte	0
 8382 0144 00000000 		.4byte	0
 8383 0148 00000000 		.4byte	.LFB10
 8384 014c 66000000 		.4byte	.LFE10
 8385 0150 00000000 		.4byte	.LFB9
 8386 0154 E0000000 		.4byte	.LFE9
 8387 0158 00000000 		.4byte	.LFB23
 8388 015c A2000000 		.4byte	.LFE23
 8389 0160 00000000 		.4byte	.LFB12
 8390 0164 60040000 		.4byte	.LFE12
 8391 0168 00000000 		.4byte	.LFB13
 8392 016c 60010000 		.4byte	.LFE13
 8393 0170 00000000 		.4byte	.LFB8
 8394 0174 50000000 		.4byte	.LFE8
 8395 0178 00000000 		.4byte	.LFB14
 8396 017c 6C000000 		.4byte	.LFE14
 8397 0180 00000000 		.4byte	.LFB15
 8398 0184 BC030000 		.4byte	.LFE15
 8399 0188 00000000 		.4byte	.LFB17
 8400 018c F4000000 		.4byte	.LFE17
 8401 0190 00000000 		.4byte	.LFB18
 8402 0194 30000000 		.4byte	.LFE18
 8403 0198 00000000 		.4byte	.LFB19
 8404 019c 72000000 		.4byte	.LFE19
 8405 01a0 00000000 		.4byte	.LFB20
 8406 01a4 56000000 		.4byte	.LFE20
 8407 01a8 00000000 		.4byte	.LFB21
 8408 01ac 6C000000 		.4byte	.LFE21
 8409 01b0 00000000 		.4byte	.LFB22
 8410 01b4 04010000 		.4byte	.LFE22
 8411 01b8 00000000 		.4byte	0
 8412 01bc 00000000 		.4byte	0
 8413              		.section	.debug_line,"",%progbits
 8414              	.Ldebug_line0:
 8415 0000 34070000 		.section	.debug_str,"MS",%progbits,1
 8415      02006501 
 8415      00000201 
 8415      FB0E0D00 
 8415      01010101 
 8416              	.LASF179:
 8417 0000 7463705F 		.ascii	"tcp_write_checks\000"
 8417      77726974 
ARM GAS  /var/folders/5n/p_75w94d66l9ssrldxqdhh700000gn/T//cc4n8EPc.s 			page 149


 8417      655F6368 
 8417      65636B73 
 8417      00
 8418              	.LASF168:
 8419 0011 6C617965 		.ascii	"layer\000"
 8419      7200
 8420              	.LASF129:
 8421 0017 4D454D50 		.ascii	"MEMP_TCP_PCB_LISTEN\000"
 8421      5F544350 
 8421      5F504342 
 8421      5F4C4953 
 8421      54454E00 
 8422              	.LASF203:
 8423 002b 7463705F 		.ascii	"tcp_keepalive\000"
 8423      6B656570 
 8423      616C6976 
 8423      6500
 8424              	.LASF59:
 8425 0039 736F5F6F 		.ascii	"so_options\000"
 8425      7074696F 
 8425      6E7300
 8426              	.LASF45:
 8427 0044 696E7075 		.ascii	"input\000"
 8427      7400
 8428              	.LASF171:
 8429 004a 6F766572 		.ascii	"oversize\000"
 8429      73697A65 
 8429      00
 8430              	.LASF30:
 8431 0053 50425546 		.ascii	"PBUF_RAM\000"
 8431      5F52414D 
 8431      00
 8432              	.LASF125:
 8433 005c 75726770 		.ascii	"urgp\000"
 8433      00
 8434              	.LASF187:
 8435 0061 756E7365 		.ascii	"unsent_optlen\000"
 8435      6E745F6F 
 8435      70746C65 
 8435      6E00
 8436              	.LASF69:
 8437 006f 706F6C6C 		.ascii	"polltmr\000"
 8437      746D7200 
 8438              	.LASF28:
 8439 0077 50425546 		.ascii	"PBUF_RAW\000"
 8439      5F524157 
 8439      00
 8440              	.LASF38:
 8441 0080 666C6167 		.ascii	"flags\000"
 8441      7300
 8442              	.LASF175:
 8443 0086 7463705F 		.ascii	"tcp_pbuf_prealloc\000"
 8443      70627566 
 8443      5F707265 
 8443      616C6C6F 
 8443      6300
 8444              	.LASF116:
ARM GAS  /var/folders/5n/p_75w94d66l9ssrldxqdhh700000gn/T//cc4n8EPc.s 			page 150


 8445 0098 54494D45 		.ascii	"TIME_WAIT\000"
 8445      5F574149 
 8445      5400
 8446              	.LASF0:
 8447 00a2 756E7369 		.ascii	"unsigned int\000"
 8447      676E6564 
 8447      20696E74 
 8447      00
 8448              	.LASF105:
 8449 00af 7463705F 		.ascii	"tcp_connected_fn\000"
 8449      636F6E6E 
 8449      65637465 
 8449      645F666E 
 8449      00
 8450              	.LASF34:
 8451 00c0 6E657874 		.ascii	"next\000"
 8451      00
 8452              	.LASF204:
 8453 00c5 7463705F 		.ascii	"tcp_zero_window_probe\000"
 8453      7A65726F 
 8453      5F77696E 
 8453      646F775F 
 8453      70726F62 
 8454              	.LASF23:
 8455 00db 6572725F 		.ascii	"err_t\000"
 8455      7400
 8456              	.LASF47:
 8457 00e1 6C696E6B 		.ascii	"linkoutput\000"
 8457      6F757470 
 8457      757400
 8458              	.LASF201:
 8459 00ec 7463705F 		.ascii	"tcp_rexmit\000"
 8459      7265786D 
 8459      697400
 8460              	.LASF18:
 8461 00f7 7531365F 		.ascii	"u16_t\000"
 8461      7400
 8462              	.LASF211:
 8463 00fd 2E2E2F2E 		.ascii	"../../ext/lwip/src/core/tcp_out.c\000"
 8463      2E2F6578 
 8463      742F6C77 
 8463      69702F73 
 8463      72632F63 
 8464              	.LASF68:
 8465 011f 7263765F 		.ascii	"rcv_ann_right_edge\000"
 8465      616E6E5F 
 8465      72696768 
 8465      745F6564 
 8465      676500
 8466              	.LASF185:
 8467 0132 6F766572 		.ascii	"oversize_used\000"
 8467      73697A65 
 8467      5F757365 
 8467      6400
 8468              	.LASF151:
 8469 0140 73746174 		.ascii	"stats_mem\000"
 8469      735F6D65 
ARM GAS  /var/folders/5n/p_75w94d66l9ssrldxqdhh700000gn/T//cc4n8EPc.s 			page 151


 8469      6D00
 8470              	.LASF165:
 8471 014a 6F70746C 		.ascii	"optlen\000"
 8471      656E00
 8472              	.LASF53:
 8473 0151 6E657469 		.ascii	"netif_output_fn\000"
 8473      665F6F75 
 8473      74707574 
 8473      5F666E00 
 8474              	.LASF100:
 8475 0161 6B656570 		.ascii	"keep_cnt_sent\000"
 8475      5F636E74 
 8475      5F73656E 
 8475      7400
 8476              	.LASF139:
 8477 016f 4D454D50 		.ascii	"MEMP_PBUF_POOL\000"
 8477      5F504255 
 8477      465F504F 
 8477      4F4C00
 8478              	.LASF209:
 8479 017e 6C776970 		.ascii	"lwip_stats\000"
 8479      5F737461 
 8479      747300
 8480              	.LASF102:
 8481 0189 7463705F 		.ascii	"tcp_sent_fn\000"
 8481      73656E74 
 8481      5F666E00 
 8482              	.LASF25:
 8483 0195 50425546 		.ascii	"PBUF_TRANSPORT\000"
 8483      5F545241 
 8483      4E53504F 
 8483      525400
 8484              	.LASF192:
 8485 01a4 7463705F 		.ascii	"tcp_enqueue_flags\000"
 8485      656E7175 
 8485      6575655F 
 8485      666C6167 
 8485      7300
 8486              	.LASF155:
 8487 01b6 73746174 		.ascii	"stats_syselem\000"
 8487      735F7379 
 8487      73656C65 
 8487      6D00
 8488              	.LASF121:
 8489 01c4 7365716E 		.ascii	"seqno\000"
 8489      6F00
 8490              	.LASF52:
 8491 01ca 6E657469 		.ascii	"netif_input_fn\000"
 8491      665F696E 
 8491      7075745F 
 8491      666E00
 8492              	.LASF11:
 8493 01d9 75696E74 		.ascii	"uint32_t\000"
 8493      33325F74 
 8493      00
 8494              	.LASF2:
 8495 01e2 696E7438 		.ascii	"int8_t\000"
ARM GAS  /var/folders/5n/p_75w94d66l9ssrldxqdhh700000gn/T//cc4n8EPc.s 			page 152


 8495      5F7400
 8496              	.LASF77:
 8497 01e9 63776E64 		.ascii	"cwnd\000"
 8497      00
 8498              	.LASF135:
 8499 01ee 4D454D50 		.ascii	"MEMP_TCPIP_MSG_API\000"
 8499      5F544350 
 8499      49505F4D 
 8499      53475F41 
 8499      504900
 8500              	.LASF149:
 8501 0201 6F707465 		.ascii	"opterr\000"
 8501      727200
 8502              	.LASF63:
 8503 0208 6C6F6361 		.ascii	"local_port\000"
 8503      6C5F706F 
 8503      727400
 8504              	.LASF157:
 8505 0213 6D757465 		.ascii	"mutex\000"
 8505      7800
 8506              	.LASF162:
 8507 0219 69705F66 		.ascii	"ip_frag\000"
 8507      72616700 
 8508              	.LASF154:
 8509 0221 696C6C65 		.ascii	"illegal\000"
 8509      67616C00 
 8510              	.LASF5:
 8511 0229 696E7431 		.ascii	"int16_t\000"
 8511      365F7400 
 8512              	.LASF205:
 8513 0231 69735F66 		.ascii	"is_fin\000"
 8513      696E00
 8514              	.LASF50:
 8515 0238 68776164 		.ascii	"hwaddr\000"
 8515      647200
 8516              	.LASF161:
 8517 023f 65746861 		.ascii	"etharp\000"
 8517      727000
 8518              	.LASF117:
 8519 0246 7463705F 		.ascii	"tcp_seg\000"
 8519      73656700 
 8520              	.LASF14:
 8521 024e 6C6F6E67 		.ascii	"long long unsigned int\000"
 8521      206C6F6E 
 8521      6720756E 
 8521      7369676E 
 8521      65642069 
 8522              	.LASF200:
 8523 0265 7463705F 		.ascii	"tcp_rexmit_rto\000"
 8523      7265786D 
 8523      69745F72 
 8523      746F00
 8524              	.LASF213:
 8525 0274 7463705F 		.ascii	"tcp_state\000"
 8525      73746174 
 8525      6500
 8526              	.LASF71:
ARM GAS  /var/folders/5n/p_75w94d66l9ssrldxqdhh700000gn/T//cc4n8EPc.s 			page 153


 8527 027e 7274696D 		.ascii	"rtime\000"
 8527      6500
 8528              	.LASF49:
 8529 0284 68776164 		.ascii	"hwaddr_len\000"
 8529      64725F6C 
 8529      656E00
 8530              	.LASF65:
 8531 028f 7263765F 		.ascii	"rcv_nxt\000"
 8531      6E787400 
 8532              	.LASF136:
 8533 0297 4D454D50 		.ascii	"MEMP_TCPIP_MSG_INPKT\000"
 8533      5F544350 
 8533      49505F4D 
 8533      53475F49 
 8533      4E504B54 
 8534              	.LASF32:
 8535 02ac 50425546 		.ascii	"PBUF_REF\000"
 8535      5F524546 
 8535      00
 8536              	.LASF89:
 8537 02b5 756E6163 		.ascii	"unacked\000"
 8537      6B656400 
 8538              	.LASF193:
 8539 02bd 75736567 		.ascii	"useg\000"
 8539      00
 8540              	.LASF159:
 8541 02c2 73746174 		.ascii	"stats_\000"
 8541      735F00
 8542              	.LASF206:
 8543 02c9 74686472 		.ascii	"thdr\000"
 8543      00
 8544              	.LASF115:
 8545 02ce 4C415354 		.ascii	"LAST_ACK\000"
 8545      5F41434B 
 8545      00
 8546              	.LASF36:
 8547 02d7 746F745F 		.ascii	"tot_len\000"
 8547      6C656E00 
 8548              	.LASF35:
 8549 02df 7061796C 		.ascii	"payload\000"
 8549      6F616400 
 8550              	.LASF26:
 8551 02e7 50425546 		.ascii	"PBUF_IP\000"
 8551      5F495000 
 8552              	.LASF46:
 8553 02ef 6F757470 		.ascii	"output\000"
 8553      757400
 8554              	.LASF94:
 8555 02f6 636F6E6E 		.ascii	"connected\000"
 8555      65637465 
 8555      6400
 8556              	.LASF214:
 8557 0300 7463705F 		.ascii	"tcp_output_segment\000"
 8557      6F757470 
 8557      75745F73 
 8557      65676D65 
 8557      6E7400
ARM GAS  /var/folders/5n/p_75w94d66l9ssrldxqdhh700000gn/T//cc4n8EPc.s 			page 154


 8558              	.LASF39:
 8559 0313 70627566 		.ascii	"pbuf\000"
 8559      00
 8560              	.LASF33:
 8561 0318 50425546 		.ascii	"PBUF_POOL\000"
 8561      5F504F4F 
 8561      4C00
 8562              	.LASF114:
 8563 0322 434C4F53 		.ascii	"CLOSING\000"
 8563      494E4700 
 8564              	.LASF173:
 8565 032a 66697273 		.ascii	"first_seg\000"
 8565      745F7365 
 8565      6700
 8566              	.LASF75:
 8567 0334 6C617374 		.ascii	"lastack\000"
 8567      61636B00 
 8568              	.LASF140:
 8569 033c 4D454D50 		.ascii	"MEMP_MAX\000"
 8569      5F4D4158 
 8569      00
 8570              	.LASF17:
 8571 0345 73385F74 		.ascii	"s8_t\000"
 8571      00
 8572              	.LASF21:
 8573 034a 7333325F 		.ascii	"s32_t\000"
 8573      7400
 8574              	.LASF134:
 8575 0350 4D454D50 		.ascii	"MEMP_NETCONN\000"
 8575      5F4E4554 
 8575      434F4E4E 
 8575      00
 8576              	.LASF197:
 8577 035d 7463705F 		.ascii	"tcp_output\000"
 8577      6F757470 
 8577      757400
 8578              	.LASF55:
 8579 0368 7463705F 		.ascii	"tcp_accept_fn\000"
 8579      61636365 
 8579      70745F66 
 8579      6E00
 8580              	.LASF160:
 8581 0376 6C696E6B 		.ascii	"link\000"
 8581      00
 8582              	.LASF73:
 8583 037b 72747365 		.ascii	"rtseq\000"
 8583      7100
 8584              	.LASF76:
 8585 0381 64757061 		.ascii	"dupacks\000"
 8585      636B7300 
 8586              	.LASF60:
 8587 0389 7072696F 		.ascii	"prio\000"
 8587      00
 8588              	.LASF62:
 8589 038e 61636365 		.ascii	"accept\000"
 8589      707400
 8590              	.LASF138:
ARM GAS  /var/folders/5n/p_75w94d66l9ssrldxqdhh700000gn/T//cc4n8EPc.s 			page 155


 8591 0395 4D454D50 		.ascii	"MEMP_PBUF\000"
 8591      5F504255 
 8591      4600
 8592              	.LASF95:
 8593 039f 706F6C6C 		.ascii	"poll\000"
 8593      00
 8594              	.LASF15:
 8595 03a4 63686172 		.ascii	"char\000"
 8595      00
 8596              	.LASF181:
 8597 03a9 6C617374 		.ascii	"last_unsent\000"
 8597      5F756E73 
 8597      656E7400 
 8598              	.LASF210:
 8599 03b5 474E5520 		.ascii	"GNU C 4.6.2 20111004 (prerelease)\000"
 8599      4320342E 
 8599      362E3220 
 8599      32303131 
 8599      31303034 
 8600              	.LASF24:
 8601 03d7 6D656D5F 		.ascii	"mem_size_t\000"
 8601      73697A65 
 8601      5F7400
 8602              	.LASF141:
 8603 03e2 73746174 		.ascii	"stats_proto\000"
 8603      735F7072 
 8603      6F746F00 
 8604              	.LASF84:
 8605 03ee 61636B65 		.ascii	"acked\000"
 8605      6400
 8606              	.LASF113:
 8607 03f4 434C4F53 		.ascii	"CLOSE_WAIT\000"
 8607      455F5741 
 8607      495400
 8608              	.LASF186:
 8609 03ff 73706163 		.ascii	"space\000"
 8609      6500
 8610              	.LASF92:
 8611 0405 73656E74 		.ascii	"sent\000"
 8611      00
 8612              	.LASF3:
 8613 040a 75696E74 		.ascii	"uint8_t\000"
 8613      385F7400 
 8614              	.LASF81:
 8615 0412 736E645F 		.ascii	"snd_wl1\000"
 8615      776C3100 
 8616              	.LASF82:
 8617 041a 736E645F 		.ascii	"snd_wl2\000"
 8617      776C3200 
 8618              	.LASF104:
 8619 0422 7463705F 		.ascii	"tcp_err_fn\000"
 8619      6572725F 
 8619      666E00
 8620              	.LASF83:
 8621 042d 736E645F 		.ascii	"snd_lbb\000"
 8621      6C626200 
 8622              	.LASF133:
ARM GAS  /var/folders/5n/p_75w94d66l9ssrldxqdhh700000gn/T//cc4n8EPc.s 			page 156


 8623 0435 4D454D50 		.ascii	"MEMP_NETBUF\000"
 8623      5F4E4554 
 8623      42554600 
 8624              	.LASF44:
 8625 0441 6E65746D 		.ascii	"netmask\000"
 8625      61736B00 
 8626              	.LASF13:
 8627 0449 6C6F6E67 		.ascii	"long long int\000"
 8627      206C6F6E 
 8627      6720696E 
 8627      7400
 8628              	.LASF122:
 8629 0457 61636B6E 		.ascii	"ackno\000"
 8629      6F00
 8630              	.LASF207:
 8631 045d 7463705F 		.ascii	"tcp_input_pcb\000"
 8631      696E7075 
 8631      745F7063 
 8631      6200
 8632              	.LASF99:
 8633 046b 70657273 		.ascii	"persist_backoff\000"
 8633      6973745F 
 8633      6261636B 
 8633      6F666600 
 8634              	.LASF128:
 8635 047b 4D454D50 		.ascii	"MEMP_TCP_PCB\000"
 8635      5F544350 
 8635      5F504342 
 8635      00
 8636              	.LASF164:
 8637 0488 6D656D70 		.ascii	"memp\000"
 8637      00
 8638              	.LASF16:
 8639 048d 75385F74 		.ascii	"u8_t\000"
 8639      00
 8640              	.LASF212:
 8641 0492 2F557365 		.ascii	"/Users/sin/Documents/Eclipse/Workspace/mabl-ChibiOS"
 8641      72732F73 
 8641      696E2F44 
 8641      6F63756D 
 8641      656E7473 
 8642 04c5 2D322E35 		.ascii	"-2.5.1/demos/ARMCM4-STM32F407-LWIP\000"
 8642      2E312F64 
 8642      656D6F73 
 8642      2F41524D 
 8642      434D342D 
 8643              	.LASF177:
 8644 04e8 6F707466 		.ascii	"optflags\000"
 8644      6C616773 
 8644      00
 8645              	.LASF64:
 8646 04f1 72656D6F 		.ascii	"remote_port\000"
 8646      74655F70 
 8646      6F727400 
 8647              	.LASF153:
 8648 04fd 75736564 		.ascii	"used\000"
 8648      00
ARM GAS  /var/folders/5n/p_75w94d66l9ssrldxqdhh700000gn/T//cc4n8EPc.s 			page 157


 8649              	.LASF190:
 8650 0502 6D61785F 		.ascii	"max_len\000"
 8650      6C656E00 
 8651              	.LASF67:
 8652 050a 7263765F 		.ascii	"rcv_ann_wnd\000"
 8652      616E6E5F 
 8652      776E6400 
 8653              	.LASF144:
 8654 0516 63686B65 		.ascii	"chkerr\000"
 8654      727200
 8655              	.LASF131:
 8656 051d 4D454D50 		.ascii	"MEMP_REASSDATA\000"
 8656      5F524541 
 8656      53534441 
 8656      544100
 8657              	.LASF101:
 8658 052c 7463705F 		.ascii	"tcp_recv_fn\000"
 8658      72656376 
 8658      5F666E00 
 8659              	.LASF27:
 8660 0538 50425546 		.ascii	"PBUF_LINK\000"
 8660      5F4C494E 
 8660      4B00
 8661              	.LASF103:
 8662 0542 7463705F 		.ascii	"tcp_poll_fn\000"
 8662      706F6C6C 
 8662      5F666E00 
 8663              	.LASF7:
 8664 054e 75696E74 		.ascii	"uint16_t\000"
 8664      31365F74 
 8664      00
 8665              	.LASF194:
 8666 0557 7463705F 		.ascii	"tcp_send_fin\000"
 8666      73656E64 
 8666      5F66696E 
 8666      00
 8667              	.LASF96:
 8668 0564 65727266 		.ascii	"errf\000"
 8668      00
 8669              	.LASF80:
 8670 0569 736E645F 		.ascii	"snd_wnd\000"
 8670      776E6400 
 8671              	.LASF178:
 8672 0571 7463705F 		.ascii	"tcp_output_alloc_header\000"
 8672      6F757470 
 8672      75745F61 
 8672      6C6C6F63 
 8672      5F686561 
 8673              	.LASF199:
 8674 0589 7463705F 		.ascii	"tcp_rst\000"
 8674      72737400 
 8675              	.LASF90:
 8676 0591 6F6F7365 		.ascii	"ooseq\000"
 8676      7100
 8677              	.LASF170:
 8678 0597 6D61785F 		.ascii	"max_length\000"
 8678      6C656E67 
ARM GAS  /var/folders/5n/p_75w94d66l9ssrldxqdhh700000gn/T//cc4n8EPc.s 			page 158


 8678      746800
 8679              	.LASF106:
 8680 05a2 434C4F53 		.ascii	"CLOSED\000"
 8680      454400
 8681              	.LASF20:
 8682 05a9 7533325F 		.ascii	"u32_t\000"
 8682      7400
 8683              	.LASF174:
 8684 05af 616C6C6F 		.ascii	"alloc\000"
 8684      6300
 8685              	.LASF6:
 8686 05b5 73686F72 		.ascii	"short int\000"
 8686      7420696E 
 8686      7400
 8687              	.LASF163:
 8688 05bf 69636D70 		.ascii	"icmp\000"
 8688      00
 8689              	.LASF180:
 8690 05c4 636F6E63 		.ascii	"concat_p\000"
 8690      61745F70 
 8690      00
 8691              	.LASF10:
 8692 05cd 6C6F6E67 		.ascii	"long int\000"
 8692      20696E74 
 8692      00
 8693              	.LASF147:
 8694 05d6 72746572 		.ascii	"rterr\000"
 8694      7200
 8695              	.LASF152:
 8696 05dc 61766169 		.ascii	"avail\000"
 8696      6C00
 8697              	.LASF169:
 8698 05e2 6C656E67 		.ascii	"length\000"
 8698      746800
 8699              	.LASF88:
 8700 05e9 756E7365 		.ascii	"unsent\000"
 8700      6E7400
 8701              	.LASF66:
 8702 05f0 7263765F 		.ascii	"rcv_wnd\000"
 8702      776E6400 
 8703              	.LASF72:
 8704 05f8 72747465 		.ascii	"rttest\000"
 8704      737400
 8705              	.LASF195:
 8706 05ff 7463705F 		.ascii	"tcp_send_empty_ack\000"
 8706      73656E64 
 8706      5F656D70 
 8706      74795F61 
 8706      636B00
 8707              	.LASF196:
 8708 0612 6F707473 		.ascii	"opts\000"
 8708      00
 8709              	.LASF176:
 8710 0617 7463705F 		.ascii	"tcp_create_segment\000"
 8710      63726561 
 8710      74655F73 
 8710      65676D65 
ARM GAS  /var/folders/5n/p_75w94d66l9ssrldxqdhh700000gn/T//cc4n8EPc.s 			page 159


 8710      6E7400
 8711              	.LASF137:
 8712 062a 4D454D50 		.ascii	"MEMP_SYS_TIMEOUT\000"
 8712      5F535953 
 8712      5F54494D 
 8712      454F5554 
 8712      00
 8713              	.LASF127:
 8714 063b 4D454D50 		.ascii	"MEMP_UDP_PCB\000"
 8714      5F554450 
 8714      5F504342 
 8714      00
 8715              	.LASF57:
 8716 0648 6C6F6361 		.ascii	"local_ip\000"
 8716      6C5F6970 
 8716      00
 8717              	.LASF166:
 8718 0651 64617461 		.ascii	"datalen\000"
 8718      6C656E00 
 8719              	.LASF158:
 8720 0659 6D626F78 		.ascii	"mbox\000"
 8720      00
 8721              	.LASF87:
 8722 065e 756E7365 		.ascii	"unsent_oversize\000"
 8722      6E745F6F 
 8722      76657273 
 8722      697A6500 
 8723              	.LASF79:
 8724 066e 736E645F 		.ascii	"snd_nxt\000"
 8724      6E787400 
 8725              	.LASF189:
 8726 0676 6C656674 		.ascii	"left\000"
 8726      00
 8727              	.LASF22:
 8728 067b 6D656D5F 		.ascii	"mem_ptr_t\000"
 8728      7074725F 
 8728      7400
 8729              	.LASF110:
 8730 0685 45535441 		.ascii	"ESTABLISHED\000"
 8730      424C4953 
 8730      48454400 
 8731              	.LASF150:
 8732 0691 63616368 		.ascii	"cachehit\000"
 8732      65686974 
 8732      00
 8733              	.LASF51:
 8734 069a 6E616D65 		.ascii	"name\000"
 8734      00
 8735              	.LASF54:
 8736 069f 6E657469 		.ascii	"netif_linkoutput_fn\000"
 8736      665F6C69 
 8736      6E6B6F75 
 8736      74707574 
 8736      5F666E00 
 8737              	.LASF132:
 8738 06b3 4D454D50 		.ascii	"MEMP_FRAG_PBUF\000"
 8738      5F465241 
ARM GAS  /var/folders/5n/p_75w94d66l9ssrldxqdhh700000gn/T//cc4n8EPc.s 			page 160


 8738      475F5042 
 8738      554600
 8739              	.LASF78:
 8740 06c2 73737468 		.ascii	"ssthresh\000"
 8740      72657368 
 8740      00
 8741              	.LASF85:
 8742 06cb 736E645F 		.ascii	"snd_buf\000"
 8742      62756600 
 8743              	.LASF70:
 8744 06d3 706F6C6C 		.ascii	"pollinterval\000"
 8744      696E7465 
 8744      7276616C 
 8744      00
 8745              	.LASF126:
 8746 06e0 4D454D50 		.ascii	"MEMP_RAW_PCB\000"
 8746      5F524157 
 8746      5F504342 
 8746      00
 8747              	.LASF123:
 8748 06ed 5F686472 		.ascii	"_hdrlen_rsvd_flags\000"
 8748      6C656E5F 
 8748      72737664 
 8748      5F666C61 
 8748      677300
 8749              	.LASF145:
 8750 0700 6C656E65 		.ascii	"lenerr\000"
 8750      727200
 8751              	.LASF12:
 8752 0707 6C6F6E67 		.ascii	"long unsigned int\000"
 8752      20756E73 
 8752      69676E65 
 8752      6420696E 
 8752      7400
 8753              	.LASF208:
 8754 0719 7463705F 		.ascii	"tcp_ticks\000"
 8754      7469636B 
 8754      7300
 8755              	.LASF118:
 8756 0723 74637068 		.ascii	"tcphdr\000"
 8756      647200
 8757              	.LASF19:
 8758 072a 7331365F 		.ascii	"s16_t\000"
 8758      7400
 8759              	.LASF9:
 8760 0730 696E7433 		.ascii	"int32_t\000"
 8760      325F7400 
 8761              	.LASF29:
 8762 0738 70627566 		.ascii	"pbuf_layer\000"
 8762      5F6C6179 
 8762      657200
 8763              	.LASF172:
 8764 0743 61706966 		.ascii	"apiflags\000"
 8764      6C616773 
 8764      00
 8765              	.LASF91:
 8766 074c 72656675 		.ascii	"refused_data\000"
ARM GAS  /var/folders/5n/p_75w94d66l9ssrldxqdhh700000gn/T//cc4n8EPc.s 			page 161


 8766      7365645F 
 8766      64617461 
 8766      00
 8767              	.LASF183:
 8768 0759 71756575 		.ascii	"queue\000"
 8768      6500
 8769              	.LASF148:
 8770 075f 70726F74 		.ascii	"proterr\000"
 8770      65727200 
 8771              	.LASF182:
 8772 0767 70726576 		.ascii	"prev_seg\000"
 8772      5F736567 
 8772      00
 8773              	.LASF119:
 8774 0770 7463705F 		.ascii	"tcp_hdr\000"
 8774      68647200 
 8775              	.LASF37:
 8776 0778 74797065 		.ascii	"type\000"
 8776      00
 8777              	.LASF156:
 8778 077d 73746174 		.ascii	"stats_sys\000"
 8778      735F7379 
 8778      7300
 8779              	.LASF4:
 8780 0787 756E7369 		.ascii	"unsigned char\000"
 8780      676E6564 
 8780      20636861 
 8780      7200
 8781              	.LASF111:
 8782 0795 46494E5F 		.ascii	"FIN_WAIT_1\000"
 8782      57414954 
 8782      5F3100
 8783              	.LASF112:
 8784 07a0 46494E5F 		.ascii	"FIN_WAIT_2\000"
 8784      57414954 
 8784      5F3200
 8785              	.LASF146:
 8786 07ab 6D656D65 		.ascii	"memerr\000"
 8786      727200
 8787              	.LASF130:
 8788 07b2 4D454D50 		.ascii	"MEMP_TCP_SEG\000"
 8788      5F544350 
 8788      5F534547 
 8788      00
 8789              	.LASF167:
 8790 07bf 7365716E 		.ascii	"seqno_be\000"
 8790      6F5F6265 
 8790      00
 8791              	.LASF108:
 8792 07c8 53594E5F 		.ascii	"SYN_SENT\000"
 8792      53454E54 
 8792      00
 8793              	.LASF97:
 8794 07d1 6B656570 		.ascii	"keep_idle\000"
 8794      5F69646C 
 8794      6500
 8795              	.LASF61:
ARM GAS  /var/folders/5n/p_75w94d66l9ssrldxqdhh700000gn/T//cc4n8EPc.s 			page 162


 8796 07db 63616C6C 		.ascii	"callback_arg\000"
 8796      6261636B 
 8796      5F617267 
 8796      00
 8797              	.LASF107:
 8798 07e8 4C495354 		.ascii	"LISTEN\000"
 8798      454E00
 8799              	.LASF41:
 8800 07ef 61646472 		.ascii	"addr\000"
 8800      00
 8801              	.LASF143:
 8802 07f4 64726F70 		.ascii	"drop\000"
 8802      00
 8803              	.LASF48:
 8804 07f9 73746174 		.ascii	"state\000"
 8804      6500
 8805              	.LASF43:
 8806 07ff 6E657469 		.ascii	"netif\000"
 8806      6600
 8807              	.LASF86:
 8808 0805 736E645F 		.ascii	"snd_queuelen\000"
 8808      71756575 
 8808      656C656E 
 8808      00
 8809              	.LASF124:
 8810 0812 63686B73 		.ascii	"chksum\000"
 8810      756D00
 8811              	.LASF191:
 8812 0819 7463705F 		.ascii	"tcp_write\000"
 8812      77726974 
 8812      6500
 8813              	.LASF93:
 8814 0823 72656376 		.ascii	"recv\000"
 8814      00
 8815              	.LASF1:
 8816 0828 7369676E 		.ascii	"signed char\000"
 8816      65642063 
 8816      68617200 
 8817              	.LASF56:
 8818 0834 7463705F 		.ascii	"tcp_pcb\000"
 8818      70636200 
 8819              	.LASF8:
 8820 083c 73686F72 		.ascii	"short unsigned int\000"
 8820      7420756E 
 8820      7369676E 
 8820      65642069 
 8820      6E7400
 8821              	.LASF188:
 8822 084f 7365676C 		.ascii	"seglen\000"
 8822      656E00
 8823              	.LASF198:
 8824 0856 6375725F 		.ascii	"cur_seg\000"
 8824      73656700 
 8825              	.LASF184:
 8826 085e 71756575 		.ascii	"queuelen\000"
 8826      656C656E 
 8826      00
ARM GAS  /var/folders/5n/p_75w94d66l9ssrldxqdhh700000gn/T//cc4n8EPc.s 			page 163


 8827              	.LASF142:
 8828 0867 786D6974 		.ascii	"xmit\000"
 8828      00
 8829              	.LASF98:
 8830 086c 70657273 		.ascii	"persist_cnt\000"
 8830      6973745F 
 8830      636E7400 
 8831              	.LASF58:
 8832 0878 72656D6F 		.ascii	"remote_ip\000"
 8832      74655F69 
 8832      7000
 8833              	.LASF202:
 8834 0882 7463705F 		.ascii	"tcp_rexmit_fast\000"
 8834      7265786D 
 8834      69745F66 
 8834      61737400 
 8835              	.LASF42:
 8836 0892 69705F61 		.ascii	"ip_addr_t\000"
 8836      6464725F 
 8836      7400
 8837              	.LASF31:
 8838 089c 50425546 		.ascii	"PBUF_ROM\000"
 8838      5F524F4D 
 8838      00
 8839              	.LASF74:
 8840 08a5 6E727478 		.ascii	"nrtx\000"
 8840      00
 8841              	.LASF120:
 8842 08aa 64657374 		.ascii	"dest\000"
 8842      00
 8843              	.LASF109:
 8844 08af 53594E5F 		.ascii	"SYN_RCVD\000"
 8844      52435644 
 8844      00
 8845              	.LASF40:
 8846 08b8 69705F61 		.ascii	"ip_addr\000"
 8846      64647200 
 8847              		.ident	"GCC: (Linaro GCC 4.6-2011.10) 4.6.2 20111004 (prerelease)"
ARM GAS  /var/folders/5n/p_75w94d66l9ssrldxqdhh700000gn/T//cc4n8EPc.s 			page 164


DEFINED SYMBOLS
                            *ABS*:0000000000000000 tcp_out.c
/var/folders/5n/p_75w94d66l9ssrldxqdhh700000gn/T//cc4n8EPc.s:18     .text.tcp_pbuf_prealloc:0000000000000000 $t
/var/folders/5n/p_75w94d66l9ssrldxqdhh700000gn/T//cc4n8EPc.s:23     .text.tcp_pbuf_prealloc:0000000000000000 tcp_pbuf_prealloc
/var/folders/5n/p_75w94d66l9ssrldxqdhh700000gn/T//cc4n8EPc.s:120    .text.tcp_create_segment:0000000000000000 $t
/var/folders/5n/p_75w94d66l9ssrldxqdhh700000gn/T//cc4n8EPc.s:125    .text.tcp_create_segment:0000000000000000 tcp_create_segment
/var/folders/5n/p_75w94d66l9ssrldxqdhh700000gn/T//cc4n8EPc.s:279    .text.tcp_create_segment:00000000000000dc $d
/var/folders/5n/p_75w94d66l9ssrldxqdhh700000gn/T//cc4n8EPc.s:284    .text.tcp_output_alloc_header.constprop.0:0000000000000000 $t
/var/folders/5n/p_75w94d66l9ssrldxqdhh700000gn/T//cc4n8EPc.s:289    .text.tcp_output_alloc_header.constprop.0:0000000000000000 tcp_output_alloc_header.constprop.0
/var/folders/5n/p_75w94d66l9ssrldxqdhh700000gn/T//cc4n8EPc.s:411    .text.tcp_write:0000000000000000 $t
/var/folders/5n/p_75w94d66l9ssrldxqdhh700000gn/T//cc4n8EPc.s:417    .text.tcp_write:0000000000000000 tcp_write
/var/folders/5n/p_75w94d66l9ssrldxqdhh700000gn/T//cc4n8EPc.s:1267   .text.tcp_write:000000000000045c $d
/var/folders/5n/p_75w94d66l9ssrldxqdhh700000gn/T//cc4n8EPc.s:1272   .text.tcp_enqueue_flags:0000000000000000 $t
/var/folders/5n/p_75w94d66l9ssrldxqdhh700000gn/T//cc4n8EPc.s:1278   .text.tcp_enqueue_flags:0000000000000000 tcp_enqueue_flags
/var/folders/5n/p_75w94d66l9ssrldxqdhh700000gn/T//cc4n8EPc.s:1536   .text.tcp_enqueue_flags:000000000000015c $d
/var/folders/5n/p_75w94d66l9ssrldxqdhh700000gn/T//cc4n8EPc.s:1541   .text.tcp_send_fin:0000000000000000 $t
/var/folders/5n/p_75w94d66l9ssrldxqdhh700000gn/T//cc4n8EPc.s:1547   .text.tcp_send_fin:0000000000000000 tcp_send_fin
/var/folders/5n/p_75w94d66l9ssrldxqdhh700000gn/T//cc4n8EPc.s:1623   .text.tcp_send_empty_ack:0000000000000000 $t
/var/folders/5n/p_75w94d66l9ssrldxqdhh700000gn/T//cc4n8EPc.s:1629   .text.tcp_send_empty_ack:0000000000000000 tcp_send_empty_ack
/var/folders/5n/p_75w94d66l9ssrldxqdhh700000gn/T//cc4n8EPc.s:1714   .text.tcp_output:0000000000000000 $t
/var/folders/5n/p_75w94d66l9ssrldxqdhh700000gn/T//cc4n8EPc.s:1720   .text.tcp_output:0000000000000000 tcp_output
/var/folders/5n/p_75w94d66l9ssrldxqdhh700000gn/T//cc4n8EPc.s:2131   .text.tcp_output:000000000000029c $d
/var/folders/5n/p_75w94d66l9ssrldxqdhh700000gn/T//cc4n8EPc.s:2137   .text.tcp_output:00000000000002a4 $t
/var/folders/5n/p_75w94d66l9ssrldxqdhh700000gn/T//cc4n8EPc.s:2309   .text.tcp_rst:0000000000000000 $t
/var/folders/5n/p_75w94d66l9ssrldxqdhh700000gn/T//cc4n8EPc.s:2315   .text.tcp_rst:0000000000000000 tcp_rst
/var/folders/5n/p_75w94d66l9ssrldxqdhh700000gn/T//cc4n8EPc.s:2473   .text.tcp_rst:00000000000000f0 $d
/var/folders/5n/p_75w94d66l9ssrldxqdhh700000gn/T//cc4n8EPc.s:2478   .text.tcp_rexmit_rto:0000000000000000 $t
/var/folders/5n/p_75w94d66l9ssrldxqdhh700000gn/T//cc4n8EPc.s:2484   .text.tcp_rexmit_rto:0000000000000000 tcp_rexmit_rto
/var/folders/5n/p_75w94d66l9ssrldxqdhh700000gn/T//cc4n8EPc.s:2542   .text.tcp_rexmit:0000000000000000 $t
/var/folders/5n/p_75w94d66l9ssrldxqdhh700000gn/T//cc4n8EPc.s:2548   .text.tcp_rexmit:0000000000000000 tcp_rexmit
/var/folders/5n/p_75w94d66l9ssrldxqdhh700000gn/T//cc4n8EPc.s:2638   .text.tcp_rexmit_fast:0000000000000000 $t
/var/folders/5n/p_75w94d66l9ssrldxqdhh700000gn/T//cc4n8EPc.s:2644   .text.tcp_rexmit_fast:0000000000000000 tcp_rexmit_fast
/var/folders/5n/p_75w94d66l9ssrldxqdhh700000gn/T//cc4n8EPc.s:2714   .text.tcp_keepalive:0000000000000000 $t
/var/folders/5n/p_75w94d66l9ssrldxqdhh700000gn/T//cc4n8EPc.s:2720   .text.tcp_keepalive:0000000000000000 tcp_keepalive
/var/folders/5n/p_75w94d66l9ssrldxqdhh700000gn/T//cc4n8EPc.s:2805   .text.tcp_keepalive:0000000000000068 $d
/var/folders/5n/p_75w94d66l9ssrldxqdhh700000gn/T//cc4n8EPc.s:2810   .text.tcp_zero_window_probe:0000000000000000 $t
/var/folders/5n/p_75w94d66l9ssrldxqdhh700000gn/T//cc4n8EPc.s:2816   .text.tcp_zero_window_probe:0000000000000000 tcp_zero_window_probe
/var/folders/5n/p_75w94d66l9ssrldxqdhh700000gn/T//cc4n8EPc.s:2985   .text.tcp_zero_window_probe:0000000000000100 $d
                     .debug_frame:0000000000000010 $d
/var/folders/5n/p_75w94d66l9ssrldxqdhh700000gn/T//cc4n8EPc.s:2477   .text.tcp_rst:00000000000000f4 $t
/var/folders/5n/p_75w94d66l9ssrldxqdhh700000gn/T//cc4n8EPc.s:2809   .text.tcp_keepalive:000000000000006c $t
/var/folders/5n/p_75w94d66l9ssrldxqdhh700000gn/T//cc4n8EPc.s:2989   .text.tcp_zero_window_probe:0000000000000104 $t

UNDEFINED SYMBOLS
pbuf_alloc
port_halt
memp_malloc
pbuf_header
lwip_htons
lwip_htonl
tcp_seg_free
pbuf_free
lwip_stats
pbuf_cat
pbuf_clen
memcpy
tcp_segs_free
ARM GAS  /var/folders/5n/p_75w94d66l9ssrldxqdhh700000gn/T//cc4n8EPc.s 			page 165


lwip_ntohs
inet_chksum_pseudo
ip_output
ip_route
lwip_ntohl
tcp_ticks
tcp_input_pcb
pbuf_copy_partial
