ARM GAS  /var/folders/5n/p_75w94d66l9ssrldxqdhh700000gn/T//ccYNR3t7.s 			page 1


   1              		.syntax unified
   2              		.cpu cortex-m4
   3              		.fpu softvfp
   4              		.eabi_attribute 20, 1
   5              		.eabi_attribute 21, 1
   6              		.eabi_attribute 23, 3
   7              		.eabi_attribute 24, 1
   8              		.eabi_attribute 25, 1
   9              		.eabi_attribute 26, 1
  10              		.eabi_attribute 30, 2
  11              		.eabi_attribute 18, 4
  12              		.thumb
  13              		.file	"tcp_in.c"
  14              		.text
  15              	.Ltext0:
  16              		.cfi_sections	.debug_frame
  17              		.section	.text.tcp_parseopt,"ax",%progbits
  18              		.align	2
  19              		.p2align 4,,15
  20              		.thumb
  21              		.thumb_func
  22              		.type	tcp_parseopt, %function
  23              	tcp_parseopt:
  24              	.LFB13:
  25              		.file 1 "../../ext/lwip/src/core/tcp_in.c"
  26              		.loc 1 1491 0
  27              		.cfi_startproc
  28              		@ args = 0, pretend = 0, frame = 0
  29              		@ frame_needed = 0, uses_anonymous_args = 0
  30              	.LVL0:
  31 0000 F8B5     		push	{r3, r4, r5, r6, r7, lr}
  32              	.LCFI0:
  33              		.cfi_def_cfa_offset 24
  34              		.cfi_offset 14, -4
  35              		.cfi_offset 7, -8
  36              		.cfi_offset 6, -12
  37              		.cfi_offset 5, -16
  38              		.cfi_offset 4, -20
  39              		.cfi_offset 3, -24
  40              		.loc 1 1499 0
  41 0002 244D     		ldr	r5, .L16
  42 0004 2C68     		ldr	r4, [r5, #0]
  43              		.loc 1 1502 0
  44 0006 237B     		ldrb	r3, [r4, #12]	@ zero_extendqisi2
  45 0008 627B     		ldrb	r2, [r4, #13]	@ zero_extendqisi2
  46              		.loc 1 1491 0
  47 000a 0646     		mov	r6, r0
  48              		.loc 1 1502 0
  49 000c 43EA0220 		orr	r0, r3, r2, lsl #8
  50              	.LVL1:
  51 0010 FFF7FEFF 		bl	lwip_ntohs
  52 0014 C0F30F30 		ubfx	r0, r0, #12, #16
  53              		.loc 1 1499 0
  54 0018 1434     		adds	r4, r4, #20
  55              	.LVL2:
  56              		.loc 1 1502 0
  57 001a 0528     		cmp	r0, #5
ARM GAS  /var/folders/5n/p_75w94d66l9ssrldxqdhh700000gn/T//ccYNR3t7.s 			page 2


  58 001c 00D8     		bhi	.L13
  59              	.L1:
  60 001e F8BD     		pop	{r3, r4, r5, r6, r7, pc}
  61              	.L13:
  62              		.loc 1 1503 0
  63 0020 2B68     		ldr	r3, [r5, #0]
  64 0022 1A7B     		ldrb	r2, [r3, #12]	@ zero_extendqisi2
  65 0024 587B     		ldrb	r0, [r3, #13]	@ zero_extendqisi2
  66 0026 42EA0020 		orr	r0, r2, r0, lsl #8
  67 002a FFF7FEFF 		bl	lwip_ntohs
  68 002e 010B     		lsrs	r1, r0, #12
  69 0030 0539     		subs	r1, r1, #5
  70 0032 8900     		lsls	r1, r1, #2
  71 0034 89B2     		uxth	r1, r1
  72              	.LVL3:
  73              		.loc 1 1504 0
  74 0036 0029     		cmp	r1, #0
  75 0038 F1D0     		beq	.L1
  76 003a 0023     		movs	r3, #0
  77              		.loc 1 1526 0
  78 003c 40F21725 		movw	r5, #535
  79              	.LVL4:
  80              		.loc 1 1506 0
  81 0040 E25C     		ldrb	r2, [r4, r3]	@ zero_extendqisi2
  82 0042 012A     		cmp	r2, #1
  83 0044 0DD0     		beq	.L4
  84              	.LVL5:
  85              	.L15:
  86 0046 EAD3     		bcc	.L1
  87 0048 022A     		cmp	r2, #2
  88 004a 0DD0     		beq	.L14
  89              		.loc 1 1553 0
  90 004c E218     		adds	r2, r4, r3
  91 004e 5278     		ldrb	r2, [r2, #1]	@ zero_extendqisi2
  92 0050 002A     		cmp	r2, #0
  93 0052 E4D0     		beq	.L1
  94              		.loc 1 1561 0
  95 0054 D318     		adds	r3, r2, r3
  96 0056 9BB2     		uxth	r3, r3
  97              	.LVL6:
  98              	.L6:
  99              		.loc 1 1504 0 discriminator 1
 100 0058 9942     		cmp	r1, r3
 101 005a E0D9     		bls	.L1
 102              	.LVL7:
 103              		.loc 1 1506 0
 104 005c E25C     		ldrb	r2, [r4, r3]	@ zero_extendqisi2
 105 005e 012A     		cmp	r2, #1
 106 0060 F1D1     		bne	.L15
 107              	.LVL8:
 108              	.L4:
 109              		.loc 1 1513 0
 110 0062 0133     		adds	r3, r3, #1
 111 0064 9BB2     		uxth	r3, r3
 112              	.LVL9:
 113              		.loc 1 1515 0
 114 0066 F7E7     		b	.L6
ARM GAS  /var/folders/5n/p_75w94d66l9ssrldxqdhh700000gn/T//ccYNR3t7.s 			page 3


 115              	.LVL10:
 116              	.L14:
 117              		.loc 1 1518 0
 118 0068 E018     		adds	r0, r4, r3
 119 006a 4278     		ldrb	r2, [r0, #1]	@ zero_extendqisi2
 120 006c 042A     		cmp	r2, #4
 121 006e D6D1     		bne	.L1
 122              		.loc 1 1518 0 is_stmt 0 discriminator 1
 123 0070 DA1C     		adds	r2, r3, #3
 124 0072 8A42     		cmp	r2, r1
 125 0074 D3DA     		bge	.L1
 126              		.loc 1 1524 0 is_stmt 1
 127 0076 8778     		ldrb	r7, [r0, #2]	@ zero_extendqisi2
 128 0078 C278     		ldrb	r2, [r0, #3]	@ zero_extendqisi2
 129 007a 42EA0722 		orr	r2, r2, r7, lsl #8
 130              	.LVL11:
 131              		.loc 1 1526 0
 132 007e 501E     		subs	r0, r2, #1
 133 0080 80B2     		uxth	r0, r0
 134 0082 A842     		cmp	r0, r5
 135 0084 88BF     		it	hi
 136 0086 4FF40672 		movhi	r2, #536
 137              	.LVL12:
 138              		.loc 1 1528 0
 139 008a 0433     		adds	r3, r3, #4
 140              		.loc 1 1526 0
 141 008c 3287     		strh	r2, [r6, #56]	@ movhi
 142              		.loc 1 1528 0
 143 008e 9BB2     		uxth	r3, r3
 144              	.LVL13:
 145              		.loc 1 1529 0
 146 0090 E2E7     		b	.L6
 147              	.L17:
 148 0092 00BF     		.align	2
 149              	.L16:
 150 0094 00000000 		.word	.LANCHOR0
 151              		.cfi_endproc
 152              	.LFE13:
 153              		.size	tcp_parseopt, .-tcp_parseopt
 154 0098 AFF30080 		.section	.text.tcp_oos_insert_segment,"ax",%progbits
 154      AFF30080 
 155              		.align	2
 156              		.p2align 4,,15
 157              		.thumb
 158              		.thumb_func
 159              		.type	tcp_oos_insert_segment, %function
 160              	tcp_oos_insert_segment:
 161              	.LFB11:
 162              		.loc 1 798 0
 163              		.cfi_startproc
 164              		@ args = 0, pretend = 0, frame = 0
 165              		@ frame_needed = 0, uses_anonymous_args = 0
 166              	.LVL14:
 167 0000 2DE9F843 		push	{r3, r4, r5, r6, r7, r8, r9, lr}
 168              	.LCFI1:
 169              		.cfi_def_cfa_offset 32
 170              		.cfi_offset 14, -4
ARM GAS  /var/folders/5n/p_75w94d66l9ssrldxqdhh700000gn/T//ccYNR3t7.s 			page 4


 171              		.cfi_offset 9, -8
 172              		.cfi_offset 8, -12
 173              		.cfi_offset 7, -16
 174              		.cfi_offset 6, -20
 175              		.cfi_offset 5, -24
 176              		.cfi_offset 4, -28
 177              		.cfi_offset 3, -32
 178              		.loc 1 801 0
 179 0004 C368     		ldr	r3, [r0, #12]
 180              		.loc 1 798 0
 181 0006 0546     		mov	r5, r0
 182              		.loc 1 801 0
 183 0008 1A7B     		ldrb	r2, [r3, #12]	@ zero_extendqisi2
 184 000a 587B     		ldrb	r0, [r3, #13]	@ zero_extendqisi2
 185              	.LVL15:
 186 000c 42EA0020 		orr	r0, r2, r0, lsl #8
 187              		.loc 1 798 0
 188 0010 0E46     		mov	r6, r1
 189              		.loc 1 801 0
 190 0012 FFF7FEFF 		bl	lwip_ntohs
 191              	.LVL16:
 192 0016 C207     		lsls	r2, r0, #31
 193 0018 67D4     		bmi	.L19
 194              		.loc 1 809 0 discriminator 1
 195 001a 002E     		cmp	r6, #0
 196 001c 56D0     		beq	.L20
 197              		.loc 1 810 0
 198 001e F368     		ldr	r3, [r6, #12]
 199 0020 354F     		ldr	r7, .L30
 200 0022 1979     		ldrb	r1, [r3, #4]	@ zero_extendqisi2
 201 0024 93F80590 		ldrb	r9, [r3, #5]	@ zero_extendqisi2
 202 0028 93F80680 		ldrb	r8, [r3, #6]	@ zero_extendqisi2
 203 002c 93F807C0 		ldrb	ip, [r3, #7]	@ zero_extendqisi2
 204 0030 2889     		ldrh	r0, [r5, #8]
 205 0032 3A68     		ldr	r2, [r7, #0]
 206 0034 3489     		ldrh	r4, [r6, #8]
 207 0036 41EA0921 		orr	r1, r1, r9, lsl #8
 208 003a 41EA0841 		orr	r1, r1, r8, lsl #16
 209 003e 41EA0C61 		orr	r1, r1, ip, lsl #24
 210 0042 401A     		subs	r0, r0, r1
 211 0044 8018     		adds	r0, r0, r2
 212 0046 041B     		subs	r4, r0, r4
 213              		.loc 1 809 0
 214 0048 002C     		cmp	r4, #0
 215 004a B8BF     		it	lt
 216 004c 3446     		movlt	r4, r6
 217 004e 1DDA     		bge	.L28
 218 0050 40E0     		b	.L22
 219              	.L24:
 220              	.LVL17:
 221              		.loc 1 817 0
 222 0052 3468     		ldr	r4, [r6, #0]
 223              	.LVL18:
 224              		.loc 1 818 0
 225 0054 3046     		mov	r0, r6
 226 0056 FFF7FEFF 		bl	tcp_seg_free
 227              	.LVL19:
ARM GAS  /var/folders/5n/p_75w94d66l9ssrldxqdhh700000gn/T//ccYNR3t7.s 			page 5


 228              		.loc 1 809 0
 229 005a 002C     		cmp	r4, #0
 230 005c 36D0     		beq	.L20
 231              	.L29:
 232              		.loc 1 810 0 discriminator 2
 233 005e E368     		ldr	r3, [r4, #12]
 234 0060 2889     		ldrh	r0, [r5, #8]
 235 0062 1979     		ldrb	r1, [r3, #4]	@ zero_extendqisi2
 236 0064 93F80590 		ldrb	r9, [r3, #5]	@ zero_extendqisi2
 237 0068 93F80680 		ldrb	r8, [r3, #6]	@ zero_extendqisi2
 238 006c 93F807C0 		ldrb	ip, [r3, #7]	@ zero_extendqisi2
 239 0070 3A68     		ldr	r2, [r7, #0]
 240 0072 2689     		ldrh	r6, [r4, #8]
 241              	.LVL20:
 242 0074 41EA0921 		orr	r1, r1, r9, lsl #8
 243 0078 41EA0841 		orr	r1, r1, r8, lsl #16
 244 007c 41EA0C61 		orr	r1, r1, ip, lsl #24
 245 0080 401A     		subs	r0, r0, r1
 246 0082 8018     		adds	r0, r0, r2
 247 0084 861B     		subs	r6, r0, r6
 248              		.loc 1 809 0 discriminator 2
 249 0086 002E     		cmp	r6, #0
 250 0088 24DB     		blt	.L22
 251              		.loc 1 809 0 is_stmt 0
 252 008a 2646     		mov	r6, r4
 253              	.LVL21:
 254              	.L28:
 255              		.loc 1 813 0 is_stmt 1
 256 008c 1A7B     		ldrb	r2, [r3, #12]	@ zero_extendqisi2
 257 008e 587B     		ldrb	r0, [r3, #13]	@ zero_extendqisi2
 258 0090 42EA0020 		orr	r0, r2, r0, lsl #8
 259 0094 FFF7FEFF 		bl	lwip_ntohs
 260 0098 C307     		lsls	r3, r0, #31
 261 009a DAD5     		bpl	.L24
 262              		.loc 1 814 0
 263 009c EC68     		ldr	r4, [r5, #12]
 264 009e 237B     		ldrb	r3, [r4, #12]	@ zero_extendqisi2
 265 00a0 94F80D80 		ldrb	r8, [r4, #13]	@ zero_extendqisi2
 266 00a4 0120     		movs	r0, #1
 267 00a6 43EA0828 		orr	r8, r3, r8, lsl #8
 268 00aa FFF7FEFF 		bl	lwip_htons
 269 00ae 40EA0808 		orr	r8, r0, r8
 270 00b2 1FFA88F8 		uxth	r8, r8
 271 00b6 4FEA1823 		lsr	r3, r8, #8
 272 00ba 84F80C80 		strb	r8, [r4, #12]
 273 00be 6373     		strb	r3, [r4, #13]
 274              	.LVL22:
 275              		.loc 1 817 0
 276 00c0 3468     		ldr	r4, [r6, #0]
 277              	.LVL23:
 278              		.loc 1 818 0
 279 00c2 3046     		mov	r0, r6
 280 00c4 FFF7FEFF 		bl	tcp_seg_free
 281              	.LVL24:
 282              		.loc 1 809 0
 283 00c8 002C     		cmp	r4, #0
 284 00ca C8D1     		bne	.L29
ARM GAS  /var/folders/5n/p_75w94d66l9ssrldxqdhh700000gn/T//ccYNR3t7.s 			page 6


 285              	.LVL25:
 286              	.L20:
 287              		.loc 1 804 0
 288 00cc 0024     		movs	r4, #0
 289              	.LVL26:
 290              		.loc 1 827 0
 291 00ce 2C60     		str	r4, [r5, #0]
 292              		.loc 1 828 0
 293 00d0 BDE8F883 		pop	{r3, r4, r5, r6, r7, r8, r9, pc}
 294              	.LVL27:
 295              	.L22:
 296              		.loc 1 820 0
 297 00d4 0028     		cmp	r0, #0
 298 00d6 05DD     		ble	.L23
 299              		.loc 1 823 0
 300 00d8 891A     		subs	r1, r1, r2
 301 00da 89B2     		uxth	r1, r1
 302 00dc 2981     		strh	r1, [r5, #8]	@ movhi
 303              		.loc 1 824 0
 304 00de 6868     		ldr	r0, [r5, #4]
 305 00e0 FFF7FEFF 		bl	pbuf_realloc
 306              	.L23:
 307              	.LVL28:
 308              		.loc 1 827 0
 309 00e4 2C60     		str	r4, [r5, #0]
 310              		.loc 1 828 0
 311 00e6 BDE8F883 		pop	{r3, r4, r5, r6, r7, r8, r9, pc}
 312              	.LVL29:
 313              	.L19:
 314              		.loc 1 803 0
 315 00ea 3046     		mov	r0, r6
 316              		.loc 1 804 0
 317 00ec 0024     		movs	r4, #0
 318              		.loc 1 803 0
 319 00ee FFF7FEFF 		bl	tcp_segs_free
 320              	.LVL30:
 321              		.loc 1 827 0
 322 00f2 2C60     		str	r4, [r5, #0]
 323              		.loc 1 828 0
 324 00f4 BDE8F883 		pop	{r3, r4, r5, r6, r7, r8, r9, pc}
 325              	.L31:
 326              		.align	2
 327              	.L30:
 328 00f8 00000000 		.word	.LANCHOR1
 329              		.cfi_endproc
 330              	.LFE11:
 331              		.size	tcp_oos_insert_segment, .-tcp_oos_insert_segment
 332 00fc AFF30080 		.section	.text.tcp_receive,"ax",%progbits
 333              		.align	2
 334              		.p2align 4,,15
 335              		.thumb
 336              		.thumb_func
 337              		.type	tcp_receive, %function
 338              	tcp_receive:
 339              	.LFB12:
 340              		.loc 1 845 0
 341              		.cfi_startproc
ARM GAS  /var/folders/5n/p_75w94d66l9ssrldxqdhh700000gn/T//ccYNR3t7.s 			page 7


 342              		@ args = 0, pretend = 0, frame = 16
 343              		@ frame_needed = 0, uses_anonymous_args = 0
 344              	.LVL31:
 345 0000 2DE9F04F 		push	{r4, r5, r6, r7, r8, r9, sl, fp, lr}
 346              	.LCFI2:
 347              		.cfi_def_cfa_offset 36
 348              		.cfi_offset 14, -4
 349              		.cfi_offset 11, -8
 350              		.cfi_offset 10, -12
 351              		.cfi_offset 9, -16
 352              		.cfi_offset 8, -20
 353              		.cfi_offset 7, -24
 354              		.cfi_offset 6, -28
 355              		.cfi_offset 5, -32
 356              		.cfi_offset 4, -36
 357              		.loc 1 857 0
 358 0004 764B     		ldr	r3, .L196
 359              		.loc 1 861 0
 360 0006 774F     		ldr	r7, .L196+4
 361              		.loc 1 857 0
 362 0008 1B78     		ldrb	r3, [r3, #0]	@ zero_extendqisi2
 363              		.loc 1 845 0
 364 000a 0446     		mov	r4, r0
 365              		.loc 1 857 0
 366 000c D806     		lsls	r0, r3, #27
 367              	.LVL32:
 368              		.loc 1 845 0
 369 000e 85B0     		sub	sp, sp, #20
 370              	.LCFI3:
 371              		.cfi_def_cfa_offset 56
 372 0010 58BF     		it	pl
 373 0012 DFF8D8B1 		ldrpl	fp, .L196+12
 374              		.loc 1 857 0
 375 0016 7ED5     		bpl	.L33
 376              		.loc 1 861 0
 377 0018 236E     		ldr	r3, [r4, #96]
 378 001a 3A68     		ldr	r2, [r7, #0]
 379              		.loc 1 858 0
 380 001c B4F85C50 		ldrh	r5, [r4, #92]
 381 0020 616E     		ldr	r1, [r4, #100]
 382              	.LVL33:
 383              		.loc 1 861 0
 384 0022 DFF8CC91 		ldr	r9, .L196+16
 385 0026 981A     		subs	r0, r3, r2
 386 0028 0028     		cmp	r0, #0
 387 002a C0F2C180 		blt	.L167
 388              		.loc 1 861 0 is_stmt 0 discriminator 1
 389 002e 9342     		cmp	r3, r2
 390              		.loc 1 862 0 is_stmt 1 discriminator 1
 391 0030 D9F80030 		ldr	r3, [r9, #0]
 392              		.loc 1 861 0 discriminator 1
 393 0034 00F07482 		beq	.L36
 394              	.L37:
 395              		.loc 1 862 0 discriminator 1
 396 0038 9942     		cmp	r1, r3
 397 003a 00F0D082 		beq	.L168
 398              	.L38:
ARM GAS  /var/folders/5n/p_75w94d66l9ssrldxqdhh700000gn/T//ccYNR3t7.s 			page 8


 399              		.loc 1 903 0
 400 003e E26C     		ldr	r2, [r4, #76]
 401 0040 981A     		subs	r0, r3, r2
 402 0042 0028     		cmp	r0, #0
 403 0044 40F35082 		ble	.L169
 404              		.loc 1 935 0
 405 0048 D243     		mvns	r2, r2
 406 004a D342     		cmn	r3, r2
 407 004c 04D4     		bmi	.L44
 408              		.loc 1 935 0 is_stmt 0 discriminator 1
 409 004e A26D     		ldr	r2, [r4, #88]
 410 0050 9A1A     		subs	r2, r3, r2
 411 0052 002A     		cmp	r2, #0
 412 0054 40F3CE80 		ble	.L170
 413              	.L44:
 414              		.loc 1 1024 0 is_stmt 1
 415 0058 0023     		movs	r3, #0
 416 005a A4F86C30 		strh	r3, [r4, #108]	@ movhi
 417 005e DFF88CB1 		ldr	fp, .L196+12
 418 0062 636F     		ldr	r3, [r4, #116]
 419              	.LVL34:
 420              	.L57:
 421              		.loc 1 1034 0 discriminator 1
 422 0064 DFF888A1 		ldr	sl, .L196+16
 423              		.loc 1 1033 0 discriminator 1
 424 0068 002B     		cmp	r3, #0
 425 006a 4BD0     		beq	.L63
 426              	.L136:
 427              		.loc 1 1034 0 discriminator 2
 428 006c DB68     		ldr	r3, [r3, #12]
 429 006e D9F80060 		ldr	r6, [r9, #0]
 430 0072 1979     		ldrb	r1, [r3, #4]	@ zero_extendqisi2
 431 0074 5D79     		ldrb	r5, [r3, #5]	@ zero_extendqisi2
 432 0076 9A79     		ldrb	r2, [r3, #6]	@ zero_extendqisi2
 433 0078 D879     		ldrb	r0, [r3, #7]	@ zero_extendqisi2
 434 007a 41EA0523 		orr	r3, r1, r5, lsl #8
 435 007e 43EA0243 		orr	r3, r3, r2, lsl #16
 436 0082 43EA0060 		orr	r0, r3, r0, lsl #24
 437 0086 FFF7FEFF 		bl	lwip_ntohl
 438 008a 626F     		ldr	r2, [r4, #116]
 439 008c D368     		ldr	r3, [r2, #12]
 440 008e B2F80880 		ldrh	r8, [r2, #8]
 441 0092 1A7B     		ldrb	r2, [r3, #12]	@ zero_extendqisi2
 442 0094 0546     		mov	r5, r0
 443 0096 587B     		ldrb	r0, [r3, #13]	@ zero_extendqisi2
 444 0098 42EA0020 		orr	r0, r2, r0, lsl #8
 445 009c FFF7FEFF 		bl	lwip_ntohs
 446 00a0 10F00300 		ands	r0, r0, #3
 447 00a4 18BF     		it	ne
 448 00a6 0120     		movne	r0, #1
 449 00a8 8044     		add	r8, r8, r0
 450 00aa 751B     		subs	r5, r6, r5
 451 00ac C8EB0500 		rsb	r0, r8, r5
 452              		.loc 1 1033 0 discriminator 2
 453 00b0 0028     		cmp	r0, #0
 454 00b2 27DB     		blt	.L63
 455              		.loc 1 1034 0
ARM GAS  /var/folders/5n/p_75w94d66l9ssrldxqdhh700000gn/T//ccYNR3t7.s 			page 9


 456 00b4 DAF80020 		ldr	r2, [sl, #0]
 457 00b8 A36D     		ldr	r3, [r4, #88]
 458 00ba D31A     		subs	r3, r2, r3
 459 00bc 002B     		cmp	r3, #0
 460 00be 21DC     		bgt	.L63
 461              		.loc 1 1040 0
 462 00c0 656F     		ldr	r5, [r4, #116]
 463              	.LVL35:
 464              		.loc 1 1043 0
 465 00c2 B4F87060 		ldrh	r6, [r4, #112]
 466              		.loc 1 1041 0
 467 00c6 2B68     		ldr	r3, [r5, #0]
 468              		.loc 1 1043 0
 469 00c8 6868     		ldr	r0, [r5, #4]
 470              		.loc 1 1041 0
 471 00ca 6367     		str	r3, [r4, #116]
 472              		.loc 1 1043 0
 473 00cc FFF7FEFF 		bl	pbuf_clen
 474              	.LVL36:
 475 00d0 8642     		cmp	r6, r0
 476 00d2 63D3     		bcc	.L171
 477              	.L58:
 478              		.loc 1 1045 0
 479 00d4 B4F86C30 		ldrh	r3, [r4, #108]
 480 00d8 002B     		cmp	r3, #0
 481 00da 50D1     		bne	.L172
 482              	.L59:
 483              		.loc 1 1048 0
 484 00dc 6868     		ldr	r0, [r5, #4]
 485 00de B4F87060 		ldrh	r6, [r4, #112]
 486 00e2 FFF7FEFF 		bl	pbuf_clen
 487 00e6 301A     		subs	r0, r6, r0
 488 00e8 A4F87000 		strh	r0, [r4, #112]	@ movhi
 489              		.loc 1 1049 0
 490 00ec 2846     		mov	r0, r5
 491 00ee FFF7FEFF 		bl	tcp_seg_free
 492              		.loc 1 1051 0
 493 00f2 B4F87030 		ldrh	r3, [r4, #112]
 494 00f6 13B1     		cbz	r3, .L158
 495              		.loc 1 1052 0
 496 00f8 A36F     		ldr	r3, [r4, #120]
 497 00fa 002B     		cmp	r3, #0
 498 00fc 51D0     		beq	.L62
 499              	.L158:
 500              		.loc 1 1052 0 is_stmt 0 discriminator 2
 501 00fe 636F     		ldr	r3, [r4, #116]
 502              		.loc 1 1033 0 is_stmt 1 discriminator 2
 503 0100 002B     		cmp	r3, #0
 504 0102 B3D1     		bne	.L136
 505              	.LVL37:
 506              	.L63:
 507              		.loc 1 1064 0
 508 0104 E36B     		ldr	r3, [r4, #60]
 509 0106 33B1     		cbz	r3, .L33
 510              		.loc 1 1064 0 is_stmt 0 discriminator 1
 511 0108 216C     		ldr	r1, [r4, #64]
 512 010a D9F80020 		ldr	r2, [r9, #0]
ARM GAS  /var/folders/5n/p_75w94d66l9ssrldxqdhh700000gn/T//ccYNR3t7.s 			page 10


 513 010e 8A1A     		subs	r2, r1, r2
 514 0110 002A     		cmp	r2, #0
 515 0112 C0F2E980 		blt	.L173
 516              	.L33:
 517              		.loc 1 1091 0 is_stmt 1
 518 0116 BBF80010 		ldrh	r1, [fp, #0]
 519 011a E1B1     		cbz	r1, .L66
 520              		.loc 1 1122 0
 521 011c 3B68     		ldr	r3, [r7, #0]
 522 011e 626A     		ldr	r2, [r4, #36]
 523 0120 D843     		mvns	r0, r3
 524 0122 D042     		cmn	r0, r2
 525 0124 05D4     		bmi	.L67
 526              		.loc 1 1122 0 is_stmt 0 discriminator 1
 527 0126 501C     		adds	r0, r2, #1
 528 0128 C01A     		subs	r0, r0, r3
 529 012a 411A     		subs	r1, r0, r1
 530 012c 0029     		cmp	r1, #0
 531 012e 40F30D82 		ble	.L174
 532              	.L67:
 533              		.loc 1 1173 0 is_stmt 1
 534 0132 991A     		subs	r1, r3, r2
 535 0134 0029     		cmp	r1, #0
 536 0136 C0F2EC81 		blt	.L175
 537              	.L75:
 538              		.loc 1 1185 0 discriminator 1
 539 013a 218D     		ldrh	r1, [r4, #40]
 540 013c C1F10101 		rsb	r1, r1, #1
 541 0140 C918     		adds	r1, r1, r3
 542 0142 891A     		subs	r1, r1, r2
 543 0144 0029     		cmp	r1, #0
 544 0146 40F30381 		ble	.L176
 545              	.L76:
 546              		.loc 1 1468 0
 547 014a 2046     		mov	r0, r4
 548              		.loc 1 1479 0
 549 014c 05B0     		add	sp, sp, #20
 550 014e BDE8F04F 		pop	{r4, r5, r6, r7, r8, r9, sl, fp, lr}
 551              		.loc 1 1468 0
 552 0152 FFF7FEBF 		b	tcp_send_empty_ack
 553              	.L66:
 554              		.loc 1 1475 0
 555 0156 3A68     		ldr	r2, [r7, #0]
 556 0158 636A     		ldr	r3, [r4, #36]
 557 015a D11A     		subs	r1, r2, r3
 558 015c 0029     		cmp	r1, #0
 559 015e 05DB     		blt	.L117
 560              		.loc 1 1475 0 is_stmt 0 discriminator 1
 561 0160 0132     		adds	r2, r2, #1
 562 0162 218D     		ldrh	r1, [r4, #40]
 563 0164 D31A     		subs	r3, r2, r3
 564 0166 5B1A     		subs	r3, r3, r1
 565 0168 002B     		cmp	r3, #0
 566 016a 05DD     		ble	.L32
 567              	.L117:
 568              		.loc 1 1476 0 is_stmt 1
 569 016c 94F82030 		ldrb	r3, [r4, #32]	@ zero_extendqisi2
ARM GAS  /var/folders/5n/p_75w94d66l9ssrldxqdhh700000gn/T//ccYNR3t7.s 			page 11


 570 0170 43F00203 		orr	r3, r3, #2
 571 0174 84F82030 		strb	r3, [r4, #32]
 572              	.LVL38:
 573              	.L32:
 574              		.loc 1 1479 0
 575 0178 05B0     		add	sp, sp, #20
 576 017a BDE8F08F 		pop	{r4, r5, r6, r7, r8, r9, sl, fp, pc}
 577              	.LVL39:
 578              	.L172:
 579              		.loc 1 1045 0 discriminator 1
 580 017e EB68     		ldr	r3, [r5, #12]
 581 0180 1A7B     		ldrb	r2, [r3, #12]	@ zero_extendqisi2
 582 0182 587B     		ldrb	r0, [r3, #13]	@ zero_extendqisi2
 583 0184 42EA0020 		orr	r0, r2, r0, lsl #8
 584 0188 FFF7FEFF 		bl	lwip_ntohs
 585 018c C607     		lsls	r6, r0, #31
 586 018e A5D5     		bpl	.L59
 587              		.loc 1 1046 0
 588 0190 B4F86C30 		ldrh	r3, [r4, #108]
 589 0194 013B     		subs	r3, r3, #1
 590 0196 A4F86C30 		strh	r3, [r4, #108]	@ movhi
 591 019a 9FE7     		b	.L59
 592              	.L171:
 593              		.loc 1 1043 0 discriminator 1
 594 019c FFF7FEFF 		bl	port_halt
 595 01a0 98E7     		b	.L58
 596              	.L62:
 597              		.loc 1 1052 0 discriminator 1
 598 01a2 636F     		ldr	r3, [r4, #116]
 599 01a4 002B     		cmp	r3, #0
 600 01a6 7FF461AF 		bne	.L136
 601              		.loc 1 1052 0 is_stmt 0 discriminator 2
 602 01aa FFF7FEFF 		bl	port_halt
 603 01ae A6E7     		b	.L158
 604              	.LVL40:
 605              	.L167:
 606              		.loc 1 861 0 is_stmt 1
 607 01b0 0D4B     		ldr	r3, .L196+8
 608 01b2 1E68     		ldr	r6, [r3, #0]
 609 01b4 D9F80030 		ldr	r3, [r9, #0]
 610 01b8 B07B     		ldrb	r0, [r6, #14]	@ zero_extendqisi2
 611 01ba F67B     		ldrb	r6, [r6, #15]	@ zero_extendqisi2
 612 01bc 40EA0620 		orr	r0, r0, r6, lsl #8
 613              	.L35:
 614              		.loc 1 864 0
 615 01c0 A4F85C00 		strh	r0, [r4, #92]	@ movhi
 616              		.loc 1 865 0
 617 01c4 2266     		str	r2, [r4, #96]
 618              		.loc 1 866 0
 619 01c6 6366     		str	r3, [r4, #100]
 620              		.loc 1 867 0
 621 01c8 0028     		cmp	r0, #0
 622 01ca 3FF438AF 		beq	.L38
 623              		.loc 1 867 0 is_stmt 0 discriminator 1
 624 01ce 94F8A020 		ldrb	r2, [r4, #160]	@ zero_extendqisi2
 625 01d2 002A     		cmp	r2, #0
 626 01d4 3FF433AF 		beq	.L38
ARM GAS  /var/folders/5n/p_75w94d66l9ssrldxqdhh700000gn/T//ccYNR3t7.s 			page 12


 627              		.loc 1 868 0 is_stmt 1
 628 01d8 0022     		movs	r2, #0
 629 01da 84F8A020 		strb	r2, [r4, #160]
 630 01de 2EE7     		b	.L38
 631              	.L197:
 632              		.align	2
 633              	.L196:
 634 01e0 00000000 		.word	.LANCHOR2
 635 01e4 00000000 		.word	.LANCHOR1
 636 01e8 00000000 		.word	.LANCHOR0
 637 01ec 00000000 		.word	.LANCHOR4
 638 01f0 00000000 		.word	.LANCHOR3
 639              	.L170:
 640              		.loc 1 941 0
 641 01f4 94F82020 		ldrb	r2, [r4, #32]	@ zero_extendqisi2
 642              		.loc 1 950 0
 643 01f8 B4F94460 		ldrsh	r6, [r4, #68]
 644 01fc B4F84650 		ldrh	r5, [r4, #70]
 645              	.LVL41:
 646              		.loc 1 959 0
 647 0200 E364     		str	r3, [r4, #76]
 648              		.loc 1 941 0
 649 0202 5107     		lsls	r1, r2, #29
 650              		.loc 1 943 0
 651 0204 41BF     		itttt	mi
 652 0206 B4F85410 		ldrhmi	r1, [r4, #84]
 653              		.loc 1 942 0
 654 020a 22F00402 		bicmi	r2, r2, #4
 655 020e 84F82020 		strbmi	r2, [r4, #32]
 656              		.loc 1 943 0
 657 0212 A4F85210 		strhmi	r1, [r4, #82]	@ movhi
 658              		.loc 1 963 0
 659 0216 227C     		ldrb	r2, [r4, #16]	@ zero_extendqisi2
 660              		.loc 1 955 0
 661 0218 B4F86E10 		ldrh	r1, [r4, #110]
 662              		.loc 1 953 0
 663 021c 80B2     		uxth	r0, r0
 664              		.loc 1 947 0
 665 021e 0023     		movs	r3, #0
 666              		.loc 1 950 0
 667 0220 05EBE605 		add	r5, r5, r6, asr #3
 668              		.loc 1 955 0
 669 0224 4118     		adds	r1, r0, r1
 670              		.loc 1 963 0
 671 0226 032A     		cmp	r2, #3
 672              		.loc 1 947 0
 673 0228 84F84A30 		strb	r3, [r4, #74]
 674              		.loc 1 950 0
 675 022c A4F84850 		strh	r5, [r4, #72]	@ movhi
 676              		.loc 1 953 0
 677 0230 A4F86C00 		strh	r0, [r4, #108]	@ movhi
 678              		.loc 1 955 0
 679 0234 A4F86E10 		strh	r1, [r4, #110]	@ movhi
 680              		.loc 1 958 0
 681 0238 84F85030 		strb	r3, [r4, #80]
 682              		.loc 1 963 0
 683 023c 00F2DA81 		bhi	.L177
ARM GAS  /var/folders/5n/p_75w94d66l9ssrldxqdhh700000gn/T//ccYNR3t7.s 			page 13


 684              	.L156:
 685              		.loc 1 1009 0 discriminator 2
 686 0240 A36F     		ldr	r3, [r4, #120]
 687              		.loc 1 986 0 discriminator 2
 688 0242 002B     		cmp	r3, #0
 689 0244 00F09583 		beq	.L157
 690              	.L137:
 691              		.loc 1 987 0 discriminator 2
 692 0248 DB68     		ldr	r3, [r3, #12]
 693 024a 1979     		ldrb	r1, [r3, #4]	@ zero_extendqisi2
 694 024c 5D79     		ldrb	r5, [r3, #5]	@ zero_extendqisi2
 695 024e 9A79     		ldrb	r2, [r3, #6]	@ zero_extendqisi2
 696 0250 D879     		ldrb	r0, [r3, #7]	@ zero_extendqisi2
 697 0252 41EA0523 		orr	r3, r1, r5, lsl #8
 698 0256 43EA0243 		orr	r3, r3, r2, lsl #16
 699 025a 43EA0060 		orr	r0, r3, r0, lsl #24
 700 025e FFF7FEFF 		bl	lwip_ntohl
 701 0262 A26F     		ldr	r2, [r4, #120]
 702 0264 D368     		ldr	r3, [r2, #12]
 703 0266 1589     		ldrh	r5, [r2, #8]
 704 0268 1A7B     		ldrb	r2, [r3, #12]	@ zero_extendqisi2
 705 026a 0646     		mov	r6, r0
 706 026c 587B     		ldrb	r0, [r3, #13]	@ zero_extendqisi2
 707 026e 42EA0020 		orr	r0, r2, r0, lsl #8
 708 0272 FFF7FEFF 		bl	lwip_ntohs
 709 0276 D9F80030 		ldr	r3, [r9, #0]
 710 027a 10F00300 		ands	r0, r0, #3
 711 027e 18BF     		it	ne
 712 0280 0120     		movne	r0, #1
 713 0282 F31A     		subs	r3, r6, r3
 714 0284 2D18     		adds	r5, r5, r0
 715 0286 5B19     		adds	r3, r3, r5
 716              		.loc 1 986 0 discriminator 2
 717 0288 002B     		cmp	r3, #0
 718 028a 00F37483 		bgt	.L178
 719              		.loc 1 994 0
 720 028e A56F     		ldr	r5, [r4, #120]
 721              	.LVL42:
 722              		.loc 1 998 0
 723 0290 B4F87060 		ldrh	r6, [r4, #112]
 724              		.loc 1 995 0
 725 0294 2B68     		ldr	r3, [r5, #0]
 726              		.loc 1 998 0
 727 0296 6868     		ldr	r0, [r5, #4]
 728              		.loc 1 995 0
 729 0298 A367     		str	r3, [r4, #120]
 730              		.loc 1 998 0
 731 029a FFF7FEFF 		bl	pbuf_clen
 732              	.LVL43:
 733 029e 8642     		cmp	r6, r0
 734 02a0 53D3     		bcc	.L179
 735              	.L49:
 736              		.loc 1 1000 0
 737 02a2 B4F86C30 		ldrh	r3, [r4, #108]
 738 02a6 002B     		cmp	r3, #0
 739 02a8 40D1     		bne	.L180
 740              	.L50:
ARM GAS  /var/folders/5n/p_75w94d66l9ssrldxqdhh700000gn/T//ccYNR3t7.s 			page 14


 741              		.loc 1 1004 0
 742 02aa 6868     		ldr	r0, [r5, #4]
 743 02ac B4F87060 		ldrh	r6, [r4, #112]
 744 02b0 FFF7FEFF 		bl	pbuf_clen
 745 02b4 301A     		subs	r0, r6, r0
 746 02b6 A4F87000 		strh	r0, [r4, #112]	@ movhi
 747              		.loc 1 1005 0
 748 02ba 2846     		mov	r0, r5
 749 02bc FFF7FEFF 		bl	tcp_seg_free
 750              		.loc 1 1008 0
 751 02c0 B4F87030 		ldrh	r3, [r4, #112]
 752 02c4 002B     		cmp	r3, #0
 753 02c6 BBD0     		beq	.L156
 754              		.loc 1 1009 0
 755 02c8 A36F     		ldr	r3, [r4, #120]
 756 02ca 002B     		cmp	r3, #0
 757 02cc BCD1     		bne	.L137
 758              		.loc 1 1009 0 is_stmt 0 discriminator 1
 759 02ce 636F     		ldr	r3, [r4, #116]
 760 02d0 002B     		cmp	r3, #0
 761 02d2 00F02A84 		beq	.L181
 762              	.LVL44:
 763              	.L53:
 764              		.loc 1 1017 0 is_stmt 1
 765 02d6 4FF6FF72 		movw	r2, #65535
 766 02da E286     		strh	r2, [r4, #54]	@ movhi
 767              	.L56:
 768              		.loc 1 1021 0
 769 02dc 0022     		movs	r2, #0
 770 02de 84F83420 		strb	r2, [r4, #52]
 771 02e2 DFF864B2 		ldr	fp, .L198+16
 772 02e6 BDE6     		b	.L57
 773              	.LVL45:
 774              	.L173:
 775              		.loc 1 1067 0
 776 02e8 934A     		ldr	r2, .L198
 777              		.loc 1 1073 0
 778 02ea B4F84410 		ldrh	r1, [r4, #68]
 779              		.loc 1 1067 0
 780 02ee 1068     		ldr	r0, [r2, #0]
 781              		.loc 1 1073 0
 782 02f0 41F3CC02 		sbfx	r2, r1, #3, #13
 783              		.loc 1 1067 0
 784 02f4 C31A     		subs	r3, r0, r3
 785              	.LVL46:
 786              		.loc 1 1073 0
 787 02f6 9A1A     		subs	r2, r3, r2
 788 02f8 92B2     		uxth	r2, r2
 789              		.loc 1 1074 0
 790 02fa 5118     		adds	r1, r2, r1
 791              		.loc 1 1073 0
 792 02fc 93B2     		uxth	r3, r2
 793              	.LVL47:
 794              		.loc 1 1074 0
 795 02fe 89B2     		uxth	r1, r1
 796              		.loc 1 1075 0
 797 0300 1804     		lsls	r0, r3, #16
ARM GAS  /var/folders/5n/p_75w94d66l9ssrldxqdhh700000gn/T//ccYNR3t7.s 			page 15


 798              		.loc 1 1074 0
 799 0302 A4F84410 		strh	r1, [r4, #68]	@ movhi
 800              		.loc 1 1075 0
 801 0306 00F1A381 		bmi	.L182
 802              	.LVL48:
 803              	.L65:
 804              		.loc 1 1078 0
 805 030a B4F84620 		ldrh	r2, [r4, #70]
 806              	.LVL49:
 807 030e 42F38D00 		sbfx	r0, r2, #2, #14
 808 0312 121A     		subs	r2, r2, r0
 809              	.LVL50:
 810              		.loc 1 1079 0
 811 0314 D318     		adds	r3, r2, r3
 812 0316 9BB2     		uxth	r3, r3
 813              		.loc 1 1080 0
 814 0318 41F3CC02 		sbfx	r2, r1, #3, #13
 815 031c 9A18     		adds	r2, r3, r2
 816              		.loc 1 1079 0
 817 031e A4F84630 		strh	r3, [r4, #70]	@ movhi
 818              		.loc 1 1085 0
 819 0322 0023     		movs	r3, #0
 820              		.loc 1 1080 0
 821 0324 A4F84820 		strh	r2, [r4, #72]	@ movhi
 822              		.loc 1 1085 0
 823 0328 E363     		str	r3, [r4, #60]
 824 032a F4E6     		b	.L33
 825              	.LVL51:
 826              	.L180:
 827              		.loc 1 1000 0 discriminator 1
 828 032c EB68     		ldr	r3, [r5, #12]
 829 032e 1A7B     		ldrb	r2, [r3, #12]	@ zero_extendqisi2
 830 0330 587B     		ldrb	r0, [r3, #13]	@ zero_extendqisi2
 831 0332 42EA0020 		orr	r0, r2, r0, lsl #8
 832 0336 FFF7FEFF 		bl	lwip_ntohs
 833 033a C307     		lsls	r3, r0, #31
 834 033c B5D5     		bpl	.L50
 835              		.loc 1 1001 0
 836 033e B4F86C30 		ldrh	r3, [r4, #108]
 837 0342 013B     		subs	r3, r3, #1
 838 0344 A4F86C30 		strh	r3, [r4, #108]	@ movhi
 839 0348 AFE7     		b	.L50
 840              	.L179:
 841              		.loc 1 998 0 discriminator 1
 842 034a FFF7FEFF 		bl	port_halt
 843 034e A8E7     		b	.L49
 844              	.LVL52:
 845              	.L176:
 846              		.loc 1 1187 0
 847 0350 9342     		cmp	r3, r2
 848 0352 00F08081 		beq	.L183
 849              		.loc 1 1341 0
 850 0356 2046     		mov	r0, r4
 851 0358 FFF7FEFF 		bl	tcp_send_empty_ack
 852              		.loc 1 1344 0
 853 035c E56F     		ldr	r5, [r4, #124]
 854 035e 002D     		cmp	r5, #0
ARM GAS  /var/folders/5n/p_75w94d66l9ssrldxqdhh700000gn/T//ccYNR3t7.s 			page 16


 855 0360 00F0DD83 		beq	.L106
 856              	.LVL53:
 857              		.loc 1 1361 0 discriminator 1
 858 0364 EB68     		ldr	r3, [r5, #12]
 859 0366 3968     		ldr	r1, [r7, #0]
 860 0368 1A79     		ldrb	r2, [r3, #4]	@ zero_extendqisi2
 861 036a 93F805C0 		ldrb	ip, [r3, #5]	@ zero_extendqisi2
 862 036e 9E79     		ldrb	r6, [r3, #6]	@ zero_extendqisi2
 863 0370 D879     		ldrb	r0, [r3, #7]	@ zero_extendqisi2
 864 0372 42EA0C22 		orr	r2, r2, ip, lsl #8
 865 0376 42EA0642 		orr	r2, r2, r6, lsl #16
 866 037a 42EA0060 		orr	r0, r2, r0, lsl #24
 867 037e 8842     		cmp	r0, r1
 868 0380 00F0DE82 		beq	.L123
 869 0384 CDF80CB0 		str	fp, [sp, #12]
 870              		.loc 1 1361 0 is_stmt 0
 871 0388 0026     		movs	r6, #0
 872              		.loc 1 1403 0 is_stmt 1
 873 038a 01F1010A 		add	sl, r1, #1
 874 038e BB46     		mov	fp, r7
 875 0390 27E0     		b	.L108
 876              	.LVL54:
 877              	.L111:
 878 0392 F268     		ldr	r2, [r6, #12]
 879 0394 92F804C0 		ldrb	ip, [r2, #4]	@ zero_extendqisi2
 880 0398 92F80580 		ldrb	r8, [r2, #5]	@ zero_extendqisi2
 881 039c 9779     		ldrb	r7, [r2, #6]	@ zero_extendqisi2
 882 039e D279     		ldrb	r2, [r2, #7]	@ zero_extendqisi2
 883 03a0 4CEA082C 		orr	ip, ip, r8, lsl #8
 884 03a4 4CEA074C 		orr	ip, ip, r7, lsl #16
 885 03a8 4CEA0262 		orr	r2, ip, r2, lsl #24
 886 03ac D243     		mvns	r2, r2
 887 03ae CA42     		cmn	r2, r1
 888 03b0 03D4     		bmi	.L112
 889              		.loc 1 1403 0 is_stmt 0 discriminator 1
 890 03b2 B9F1000F 		cmp	r9, #0
 891 03b6 40F3F382 		ble	.L184
 892              	.L112:
 893              		.loc 1 1425 0 is_stmt 1
 894 03ba 2A68     		ldr	r2, [r5, #0]
 895 03bc 002A     		cmp	r2, #0
 896 03be 24D0     		beq	.L185
 897              	.LVL55:
 898              		.loc 1 1361 0 discriminator 1
 899 03c0 D368     		ldr	r3, [r2, #12]
 900 03c2 1879     		ldrb	r0, [r3, #4]	@ zero_extendqisi2
 901 03c4 93F805C0 		ldrb	ip, [r3, #5]	@ zero_extendqisi2
 902 03c8 9F79     		ldrb	r7, [r3, #6]	@ zero_extendqisi2
 903 03ca DE79     		ldrb	r6, [r3, #7]	@ zero_extendqisi2
 904 03cc 40EA0C20 		orr	r0, r0, ip, lsl #8
 905 03d0 40EA0740 		orr	r0, r0, r7, lsl #16
 906 03d4 40EA0660 		orr	r0, r0, r6, lsl #24
 907 03d8 8142     		cmp	r1, r0
 908 03da 00F0B382 		beq	.L107
 909              		.loc 1 1361 0 is_stmt 0
 910 03de 2E46     		mov	r6, r5
 911 03e0 1546     		mov	r5, r2
ARM GAS  /var/folders/5n/p_75w94d66l9ssrldxqdhh700000gn/T//ccYNR3t7.s 			page 17


 912              	.LVL56:
 913              	.L108:
 914              		.loc 1 1403 0 is_stmt 1
 915 03e2 C0EB0A09 		rsb	r9, r0, sl
 916              		.loc 1 1387 0
 917 03e6 002E     		cmp	r6, #0
 918 03e8 D3D1     		bne	.L111
 919              		.loc 1 1388 0
 920 03ea 0A1A     		subs	r2, r1, r0
 921 03ec 002A     		cmp	r2, #0
 922 03ee E4DA     		bge	.L112
 923              		.loc 1 1393 0
 924 03f0 5248     		ldr	r0, .L198+4
 925 03f2 FFF7FEFF 		bl	tcp_seg_copy
 926              	.LVL57:
 927              		.loc 1 1394 0
 928 03f6 0028     		cmp	r0, #0
 929 03f8 3FF4BEAE 		beq	.L32
 930              		.loc 1 1396 0
 931 03fc 2946     		mov	r1, r5
 932              		.loc 1 1395 0
 933 03fe E067     		str	r0, [r4, #124]
 934              		.loc 1 1479 0
 935 0400 05B0     		add	sp, sp, #20
 936 0402 BDE8F04F 		pop	{r4, r5, r6, r7, r8, r9, sl, fp, lr}
 937              		.loc 1 1396 0
 938 0406 FFF7FEBF 		b	tcp_oos_insert_segment
 939              	.LVL58:
 940              	.L185:
 941              		.loc 1 1426 0 discriminator 1
 942 040a 091A     		subs	r1, r1, r0
 943              		.loc 1 1425 0 discriminator 1
 944 040c 0029     		cmp	r1, #0
 945 040e 5F46     		mov	r7, fp
 946 0410 DDF80CB0 		ldr	fp, [sp, #12]
 947 0414 7FF7B0AE 		ble	.L32
 948              		.loc 1 1427 0
 949 0418 1A7B     		ldrb	r2, [r3, #12]	@ zero_extendqisi2
 950 041a 587B     		ldrb	r0, [r3, #13]	@ zero_extendqisi2
 951 041c 42EA0020 		orr	r0, r2, r0, lsl #8
 952 0420 FFF7FEFF 		bl	lwip_ntohs
 953 0424 C007     		lsls	r0, r0, #31
 954 0426 3FF5A7AE 		bmi	.L32
 955              		.loc 1 1431 0
 956 042a 4448     		ldr	r0, .L198+4
 957 042c FFF7FEFF 		bl	tcp_seg_copy
 958 0430 2860     		str	r0, [r5, #0]
 959              		.loc 1 1432 0
 960 0432 0028     		cmp	r0, #0
 961 0434 3FF4A0AE 		beq	.L32
 962              		.loc 1 1433 0
 963 0438 EA68     		ldr	r2, [r5, #12]
 964 043a 3B68     		ldr	r3, [r7, #0]
 965 043c 92F804C0 		ldrb	ip, [r2, #4]	@ zero_extendqisi2
 966 0440 92F80580 		ldrb	r8, [r2, #5]	@ zero_extendqisi2
 967 0444 9679     		ldrb	r6, [r2, #6]	@ zero_extendqisi2
 968 0446 D079     		ldrb	r0, [r2, #7]	@ zero_extendqisi2
ARM GAS  /var/folders/5n/p_75w94d66l9ssrldxqdhh700000gn/T//ccYNR3t7.s 			page 18


 969 0448 2989     		ldrh	r1, [r5, #8]
 970 044a 4CEA0822 		orr	r2, ip, r8, lsl #8
 971 044e 42EA0642 		orr	r2, r2, r6, lsl #16
 972 0452 42EA0062 		orr	r2, r2, r0, lsl #24
 973 0456 C91A     		subs	r1, r1, r3
 974 0458 8918     		adds	r1, r1, r2
 975 045a 0029     		cmp	r1, #0
 976 045c 07DD     		ble	.L115
 977              		.loc 1 1435 0
 978 045e 9B1A     		subs	r3, r3, r2
 979 0460 99B2     		uxth	r1, r3
 980 0462 2981     		strh	r1, [r5, #8]	@ movhi
 981              		.loc 1 1436 0
 982 0464 6868     		ldr	r0, [r5, #4]
 983 0466 FFF7FEFF 		bl	pbuf_realloc
 984 046a 354B     		ldr	r3, .L198+8
 985 046c 1B68     		ldr	r3, [r3, #0]
 986              	.L115:
 987              		.loc 1 1439 0
 988 046e BBF80000 		ldrh	r0, [fp, #0]
 989 0472 218D     		ldrh	r1, [r4, #40]
 990 0474 626A     		ldr	r2, [r4, #36]
 991 0476 1B18     		adds	r3, r3, r0
 992 0478 8A18     		adds	r2, r1, r2
 993 047a 9342     		cmp	r3, r2
 994 047c 7FF67CAE 		bls	.L32
 995              		.loc 1 1444 0
 996 0480 2B68     		ldr	r3, [r5, #0]
 997 0482 DB68     		ldr	r3, [r3, #12]
 998 0484 1A7B     		ldrb	r2, [r3, #12]	@ zero_extendqisi2
 999 0486 587B     		ldrb	r0, [r3, #13]	@ zero_extendqisi2
 1000 0488 42EA0020 		orr	r0, r2, r0, lsl #8
 1001 048c FFF7FEFF 		bl	lwip_ntohs
 1002 0490 C107     		lsls	r1, r0, #31
 1003 0492 00F16D83 		bmi	.L186
 1004              	.L116:
 1005              		.loc 1 1450 0
 1006 0496 606A     		ldr	r0, [r4, #36]
 1007 0498 218D     		ldrh	r1, [r4, #40]
 1008 049a 3A68     		ldr	r2, [r7, #0]
 1009 049c 2B68     		ldr	r3, [r5, #0]
 1010 049e 4118     		adds	r1, r0, r1
 1011 04a0 891A     		subs	r1, r1, r2
 1012 04a2 89B2     		uxth	r1, r1
 1013 04a4 1981     		strh	r1, [r3, #8]	@ movhi
 1014              		.loc 1 1451 0
 1015 04a6 5868     		ldr	r0, [r3, #4]
 1016 04a8 FFF7FEFF 		bl	pbuf_realloc
 1017              		.loc 1 1452 0
 1018 04ac 2A68     		ldr	r2, [r5, #0]
 1019 04ae D368     		ldr	r3, [r2, #12]
 1020 04b0 1589     		ldrh	r5, [r2, #8]
 1021              	.LVL59:
 1022 04b2 587B     		ldrb	r0, [r3, #13]	@ zero_extendqisi2
 1023 04b4 1A7B     		ldrb	r2, [r3, #12]	@ zero_extendqisi2
 1024 04b6 42EA0020 		orr	r0, r2, r0, lsl #8
 1025 04ba FFF7FEFF 		bl	lwip_ntohs
ARM GAS  /var/folders/5n/p_75w94d66l9ssrldxqdhh700000gn/T//ccYNR3t7.s 			page 19


 1026 04be 10F00300 		ands	r0, r0, #3
 1027 04c2 18BF     		it	ne
 1028 04c4 0120     		movne	r0, #1
 1029 04c6 2B18     		adds	r3, r5, r0
 1030              		.loc 1 1453 0
 1031 04c8 3968     		ldr	r1, [r7, #0]
 1032 04ca 268D     		ldrh	r6, [r4, #40]
 1033 04cc 626A     		ldr	r2, [r4, #36]
 1034              		.loc 1 1452 0
 1035 04ce 9BB2     		uxth	r3, r3
 1036              		.loc 1 1453 0
 1037 04d0 5918     		adds	r1, r3, r1
 1038 04d2 B218     		adds	r2, r6, r2
 1039 04d4 9142     		cmp	r1, r2
 1040              		.loc 1 1452 0
 1041 04d6 ABF80030 		strh	r3, [fp, #0]	@ movhi
 1042              		.loc 1 1453 0
 1043 04da 3FF44DAE 		beq	.L32
 1044              		.loc 1 1479 0 discriminator 1
 1045 04de 05B0     		add	sp, sp, #20
 1046 04e0 BDE8F04F 		pop	{r4, r5, r6, r7, r8, r9, sl, fp, lr}
 1047              		.loc 1 1453 0 discriminator 1
 1048 04e4 FFF7FEBF 		b	port_halt
 1049              	.LVL60:
 1050              	.L169:
 1051              		.loc 1 906 0
 1052 04e8 DFF85CB0 		ldr	fp, .L198+16
 1053 04ec BBF80000 		ldrh	r0, [fp, #0]
 1054              		.loc 1 904 0
 1055 04f0 0026     		movs	r6, #0
 1056 04f2 A4F86C60 		strh	r6, [r4, #108]	@ movhi
 1057              		.loc 1 906 0
 1058 04f6 38B9     		cbnz	r0, .L40
 1059              		.loc 1 908 0
 1060 04f8 B4F85C60 		ldrh	r6, [r4, #92]
 1061 04fc 606E     		ldr	r0, [r4, #100]
 1062              		.loc 1 858 0
 1063 04fe 6918     		adds	r1, r5, r1
 1064              	.LVL61:
 1065              		.loc 1 908 0
 1066 0500 3018     		adds	r0, r6, r0
 1067 0502 8842     		cmp	r0, r1
 1068 0504 00F08780 		beq	.L187
 1069              	.L40:
 1070              		.loc 1 933 0
 1071 0508 0022     		movs	r2, #0
 1072 050a 636F     		ldr	r3, [r4, #116]
 1073 050c 84F85020 		strb	r2, [r4, #80]
 1074 0510 A8E5     		b	.L57
 1075              	.LVL62:
 1076              	.L175:
 1077              		.loc 1 1178 0
 1078 0512 94F82030 		ldrb	r3, [r4, #32]	@ zero_extendqisi2
 1079 0516 43F00203 		orr	r3, r3, #2
 1080 051a 84F82030 		strb	r3, [r4, #32]
 1081 051e 14E6     		b	.L76
 1082              	.LVL63:
ARM GAS  /var/folders/5n/p_75w94d66l9ssrldxqdhh700000gn/T//ccYNR3t7.s 			page 20


 1083              	.L36:
 1084              		.loc 1 862 0
 1085 0520 C81A     		subs	r0, r1, r3
 1086 0522 0028     		cmp	r0, #0
 1087 0524 BFF688AD 		bge	.L37
 1088 0528 0648     		ldr	r0, .L198+12
 1089 052a 0668     		ldr	r6, [r0, #0]
 1090 052c B07B     		ldrb	r0, [r6, #14]	@ zero_extendqisi2
 1091 052e F67B     		ldrb	r6, [r6, #15]	@ zero_extendqisi2
 1092 0530 40EA0620 		orr	r0, r0, r6, lsl #8
 1093 0534 44E6     		b	.L35
 1094              	.L199:
 1095 0536 00BF     		.align	2
 1096              	.L198:
 1097 0538 00000000 		.word	tcp_ticks
 1098 053c 00000000 		.word	.LANCHOR5
 1099 0540 00000000 		.word	.LANCHOR1
 1100 0544 00000000 		.word	.LANCHOR0
 1101 0548 00000000 		.word	.LANCHOR4
 1102              	.LVL64:
 1103              	.L174:
 1104              		.loc 1 1144 0
 1105 054c B54D     		ldr	r5, .L200
 1106 054e 6E68     		ldr	r6, [r5, #4]
 1107              		.loc 1 1143 0
 1108 0550 C3EB0208 		rsb	r8, r3, r2
 1109              	.LVL65:
 1110              		.loc 1 1145 0
 1111 0554 002E     		cmp	r6, #0
 1112 0556 00F0DF82 		beq	.L188
 1113              	.LVL66:
 1114              	.L68:
 1115              		.loc 1 1146 0
 1116 055a 47F6FE73 		movw	r3, #32766
 1117 055e 9845     		cmp	r8, r3
 1118 0560 00F31B82 		bgt	.L189
 1119              	.L69:
 1120              		.loc 1 1147 0
 1121 0564 6868     		ldr	r0, [r5, #4]
 1122 0566 4389     		ldrh	r3, [r0, #10]
 1123 0568 9845     		cmp	r8, r3
 1124 056a 40F30B82 		ble	.L70
 1125              		.loc 1 1148 0
 1126 056e 0289     		ldrh	r2, [r0, #8]
 1127 0570 9045     		cmp	r8, r2
 1128 0572 00F33F82 		bgt	.L190
 1129              	.L71:
 1130              		.loc 1 1150 0
 1131 0576 7389     		ldrh	r3, [r6, #10]
 1132              		.loc 1 1149 0
 1133 0578 1FFA88F1 		uxth	r1, r8
 1134 057c 521A     		subs	r2, r2, r1
 1135              		.loc 1 1150 0
 1136 057e 9845     		cmp	r8, r3
 1137              		.loc 1 1149 0
 1138 0580 92B2     		uxth	r2, r2
 1139              	.LVL67:
ARM GAS  /var/folders/5n/p_75w94d66l9ssrldxqdhh700000gn/T//ccYNR3t7.s 			page 21


 1140              		.loc 1 1150 0
 1141 0582 0ADD     		ble	.L72
 1142              		.loc 1 1156 0
 1143 0584 0021     		movs	r1, #0
 1144              	.L135:
 1145 0586 7181     		strh	r1, [r6, #10]	@ movhi
 1146              		.loc 1 1155 0
 1147 0588 3281     		strh	r2, [r6, #8]	@ movhi
 1148              		.loc 1 1157 0
 1149 058a 3668     		ldr	r6, [r6, #0]
 1150              	.LVL68:
 1151              		.loc 1 1151 0
 1152 058c C3EB0808 		rsb	r8, r3, r8
 1153              	.LVL69:
 1154              		.loc 1 1150 0
 1155 0590 7389     		ldrh	r3, [r6, #10]
 1156 0592 4345     		cmp	r3, r8
 1157 0594 F7DB     		blt	.L135
 1158 0596 1FFA88F1 		uxth	r1, r8
 1159              	.L72:
 1160              		.loc 1 1159 0
 1161 059a 4942     		negs	r1, r1
 1162 059c 3046     		mov	r0, r6
 1163 059e 09B2     		sxth	r1, r1
 1164 05a0 FFF7FEFF 		bl	pbuf_header
 1165              	.LVL70:
 1166 05a4 0028     		cmp	r0, #0
 1167 05a6 40F0F581 		bne	.L159
 1168              	.L74:
 1169              		.loc 1 1169 0
 1170 05aa 3868     		ldr	r0, [r7, #0]
 1171 05ac 2989     		ldrh	r1, [r5, #8]
 1172 05ae 636A     		ldr	r3, [r4, #36]
 1173              		.loc 1 1170 0
 1174 05b0 EA68     		ldr	r2, [r5, #12]
 1175 05b2 3B60     		str	r3, [r7, #0]
 1176              		.loc 1 1169 0
 1177 05b4 00EB010C 		add	ip, r0, r1
 1178 05b8 C3EB0C0C 		rsb	ip, r3, ip
 1179              		.loc 1 1170 0
 1180 05bc 190E     		lsrs	r1, r3, #24
 1181 05be C3F30726 		ubfx	r6, r3, #8, #8
 1182              	.LVL71:
 1183 05c2 C3F30740 		ubfx	r0, r3, #16, #8
 1184              		.loc 1 1169 0
 1185 05c6 A5F808C0 		strh	ip, [r5, #8]	@ movhi
 1186              		.loc 1 1170 0
 1187 05ca D171     		strb	r1, [r2, #7]
 1188 05cc 1371     		strb	r3, [r2, #4]
 1189 05ce 5671     		strb	r6, [r2, #5]
 1190 05d0 9071     		strb	r0, [r2, #6]
 1191 05d2 626A     		ldr	r2, [r4, #36]
 1192              		.loc 1 1185 0
 1193 05d4 991A     		subs	r1, r3, r2
 1194 05d6 0029     		cmp	r1, #0
 1195 05d8 BFF6AFAD 		bge	.L75
 1196 05dc B5E5     		b	.L76
ARM GAS  /var/folders/5n/p_75w94d66l9ssrldxqdhh700000gn/T//ccYNR3t7.s 			page 22


 1197              	.LVL72:
 1198              	.L168:
 1199              		.loc 1 863 0
 1200 05de 924B     		ldr	r3, .L200+4
 1201 05e0 1B68     		ldr	r3, [r3, #0]
 1202 05e2 987B     		ldrb	r0, [r3, #14]	@ zero_extendqisi2
 1203 05e4 DB7B     		ldrb	r3, [r3, #15]	@ zero_extendqisi2
 1204 05e6 40EA0320 		orr	r0, r0, r3, lsl #8
 1205 05ea 8542     		cmp	r5, r0
 1206 05ec 0B46     		mov	r3, r1
 1207 05ee BFF426AD 		bcs	.L38
 1208 05f2 E5E5     		b	.L35
 1209              	.LVL73:
 1210              	.L177:
 1211              		.loc 1 964 0
 1212 05f4 B4F85230 		ldrh	r3, [r4, #82]
 1213 05f8 B4F85420 		ldrh	r2, [r4, #84]
 1214 05fc 9A42     		cmp	r2, r3
 1215              		.loc 1 965 0
 1216 05fe 228F     		ldrh	r2, [r4, #56]
 1217              	.LBB2:
 1218              		.loc 1 970 0
 1219 0600 9CBF     		itt	ls
 1220 0602 5243     		mulls	r2, r2, r2
 1221 0604 92FBF3F2 		sdivls	r2, r2, r3
 1222 0608 9A18     		adds	r2, r3, r2
 1223 060a 92B2     		uxth	r2, r2
 1224              	.LVL74:
 1225              		.loc 1 971 0
 1226 060c 9342     		cmp	r3, r2
 1227              		.loc 1 972 0
 1228 060e 38BF     		it	cc
 1229 0610 A4F85220 		strhcc	r2, [r4, #82]	@ movhi
 1230 0614 14E6     		b	.L156
 1231              	.LVL75:
 1232              	.L187:
 1233              	.LBE2:
 1234              		.loc 1 910 0
 1235 0616 B4F93610 		ldrsh	r1, [r4, #54]
 1236 061a 0029     		cmp	r1, #0
 1237 061c FFF674AF 		blt	.L40
 1238              		.loc 1 912 0
 1239 0620 9A42     		cmp	r2, r3
 1240 0622 7FF471AF 		bne	.L40
 1241              	.LVL76:
 1242              		.loc 1 915 0
 1243 0626 94F85030 		ldrb	r3, [r4, #80]	@ zero_extendqisi2
 1244 062a 0133     		adds	r3, r3, #1
 1245 062c DBB2     		uxtb	r3, r3
 1246              		.loc 1 916 0
 1247 062e 032B     		cmp	r3, #3
 1248              		.loc 1 915 0
 1249 0630 84F85030 		strb	r3, [r4, #80]
 1250              		.loc 1 916 0
 1251 0634 40F29382 		bls	.L41
 1252              		.loc 1 919 0
 1253 0638 B4F85220 		ldrh	r2, [r4, #82]
ARM GAS  /var/folders/5n/p_75w94d66l9ssrldxqdhh700000gn/T//ccYNR3t7.s 			page 23


 1254 063c 238F     		ldrh	r3, [r4, #56]
 1255 063e D318     		adds	r3, r2, r3
 1256 0640 9BB2     		uxth	r3, r3
 1257 0642 9A42     		cmp	r2, r3
 1258 0644 80F08F82 		bcs	.L154
 1259              		.loc 1 920 0
 1260 0648 A4F85230 		strh	r3, [r4, #82]	@ movhi
 1261 064c 636F     		ldr	r3, [r4, #116]
 1262 064e 09E5     		b	.L57
 1263              	.LVL77:
 1264              	.L182:
 1265              		.loc 1 1076 0
 1266 0650 5342     		negs	r3, r2
 1267              	.LVL78:
 1268 0652 9BB2     		uxth	r3, r3
 1269              	.LVL79:
 1270 0654 59E6     		b	.L65
 1271              	.LVL80:
 1272              	.L183:
 1273              		.loc 1 1191 0
 1274 0656 734D     		ldr	r5, .L200
 1275 0658 EB68     		ldr	r3, [r5, #12]
 1276 065a 2E89     		ldrh	r6, [r5, #8]
 1277 065c 1A7B     		ldrb	r2, [r3, #12]	@ zero_extendqisi2
 1278 065e 587B     		ldrb	r0, [r3, #13]	@ zero_extendqisi2
 1279 0660 42EA0020 		orr	r0, r2, r0, lsl #8
 1280 0664 FFF7FEFF 		bl	lwip_ntohs
 1281 0668 10F00300 		ands	r0, r0, #3
 1282 066c 18BF     		it	ne
 1283 066e 0120     		movne	r0, #1
 1284 0670 3318     		adds	r3, r6, r0
 1285              		.loc 1 1193 0
 1286 0672 228D     		ldrh	r2, [r4, #40]
 1287              		.loc 1 1191 0
 1288 0674 9BB2     		uxth	r3, r3
 1289              		.loc 1 1193 0
 1290 0676 9A42     		cmp	r2, r3
 1291              		.loc 1 1191 0
 1292 0678 ABF80030 		strh	r3, [fp, #0]	@ movhi
 1293              		.loc 1 1193 0
 1294 067c C0F0C081 		bcc	.L191
 1295              	.L78:
 1296              		.loc 1 1217 0
 1297 0680 E36F     		ldr	r3, [r4, #124]
 1298 0682 002B     		cmp	r3, #0
 1299 0684 00F08C80 		beq	.L162
 1300              		.loc 1 1218 0
 1301 0688 EB68     		ldr	r3, [r5, #12]
 1302 068a 1A7B     		ldrb	r2, [r3, #12]	@ zero_extendqisi2
 1303 068c 587B     		ldrb	r0, [r3, #13]	@ zero_extendqisi2
 1304 068e 42EA0020 		orr	r0, r2, r0, lsl #8
 1305 0692 FFF7FEFF 		bl	lwip_ntohs
 1306 0696 C007     		lsls	r0, r0, #31
 1307 0698 7FD4     		bmi	.L166
 1308              		.loc 1 1231 0
 1309 069a D4F87C80 		ldr	r8, [r4, #124]
 1310              	.LVL81:
ARM GAS  /var/folders/5n/p_75w94d66l9ssrldxqdhh700000gn/T//ccYNR3t7.s 			page 24


 1311              		.loc 1 1234 0
 1312 069e B8F1000F 		cmp	r8, #0
 1313 06a2 00F03382 		beq	.L87
 1314              		.loc 1 1235 0
 1315 06a6 D8F80C30 		ldr	r3, [r8, #12]
 1316 06aa BBF80020 		ldrh	r2, [fp, #0]
 1317 06ae 93F80590 		ldrb	r9, [r3, #5]	@ zero_extendqisi2
 1318 06b2 1879     		ldrb	r0, [r3, #4]	@ zero_extendqisi2
 1319 06b4 93F806C0 		ldrb	ip, [r3, #6]	@ zero_extendqisi2
 1320 06b8 93F807E0 		ldrb	lr, [r3, #7]	@ zero_extendqisi2
 1321 06bc 3968     		ldr	r1, [r7, #0]
 1322 06be B8F80860 		ldrh	r6, [r8, #8]
 1323 06c2 40EA0920 		orr	r0, r0, r9, lsl #8
 1324 06c6 40EA0C40 		orr	r0, r0, ip, lsl #16
 1325 06ca 40EA0E6E 		orr	lr, r0, lr, lsl #24
 1326 06ce CEEB0200 		rsb	r0, lr, r2
 1327 06d2 4018     		adds	r0, r0, r1
 1328 06d4 861B     		subs	r6, r0, r6
 1329              		.loc 1 1234 0
 1330 06d6 002E     		cmp	r6, #0
 1331              		.loc 1 1239 0
 1332 06d8 A8BF     		it	ge
 1333 06da DFF84891 		ldrge	r9, .L200
 1334              		.loc 1 1234 0
 1335 06de 25DA     		bge	.L149
 1336 06e0 CDE1     		b	.L195
 1337              	.LVL82:
 1338              	.L89:
 1339              		.loc 1 1244 0
 1340 06e2 D8F80060 		ldr	r6, [r8, #0]
 1341              	.LVL83:
 1342              		.loc 1 1245 0
 1343 06e6 4046     		mov	r0, r8
 1344 06e8 FFF7FEFF 		bl	tcp_seg_free
 1345              	.LVL84:
 1346              		.loc 1 1234 0
 1347 06ec 002E     		cmp	r6, #0
 1348 06ee 00F00D82 		beq	.L87
 1349              		.loc 1 1235 0 discriminator 2
 1350 06f2 F368     		ldr	r3, [r6, #12]
 1351 06f4 BBF80020 		ldrh	r2, [fp, #0]
 1352 06f8 1879     		ldrb	r0, [r3, #4]	@ zero_extendqisi2
 1353 06fa 93F805A0 		ldrb	sl, [r3, #5]	@ zero_extendqisi2
 1354 06fe 93F80680 		ldrb	r8, [r3, #6]	@ zero_extendqisi2
 1355              	.LVL85:
 1356 0702 93F807E0 		ldrb	lr, [r3, #7]	@ zero_extendqisi2
 1357 0706 3968     		ldr	r1, [r7, #0]
 1358 0708 B6F808C0 		ldrh	ip, [r6, #8]
 1359 070c 40EA0A20 		orr	r0, r0, sl, lsl #8
 1360 0710 40EA0840 		orr	r0, r0, r8, lsl #16
 1361 0714 40EA0E6E 		orr	lr, r0, lr, lsl #24
 1362 0718 CEEB0200 		rsb	r0, lr, r2
 1363 071c 4018     		adds	r0, r0, r1
 1364 071e CCEB000C 		rsb	ip, ip, r0
 1365              		.loc 1 1234 0 discriminator 2
 1366 0722 BCF1000F 		cmp	ip, #0
 1367 0726 C0F2AB81 		blt	.L88
ARM GAS  /var/folders/5n/p_75w94d66l9ssrldxqdhh700000gn/T//ccYNR3t7.s 			page 25


 1368              		.loc 1 1234 0 is_stmt 0
 1369 072a B046     		mov	r8, r6
 1370              	.LVL86:
 1371              	.L149:
 1372              		.loc 1 1238 0 is_stmt 1
 1373 072c 1A7B     		ldrb	r2, [r3, #12]	@ zero_extendqisi2
 1374 072e 587B     		ldrb	r0, [r3, #13]	@ zero_extendqisi2
 1375 0730 42EA0020 		orr	r0, r2, r0, lsl #8
 1376 0734 FFF7FEFF 		bl	lwip_ntohs
 1377 0738 C107     		lsls	r1, r0, #31
 1378 073a D2D5     		bpl	.L89
 1379              		.loc 1 1239 0 discriminator 1
 1380 073c EB68     		ldr	r3, [r5, #12]
 1381 073e 1A7B     		ldrb	r2, [r3, #12]	@ zero_extendqisi2
 1382 0740 587B     		ldrb	r0, [r3, #13]	@ zero_extendqisi2
 1383 0742 42EA0020 		orr	r0, r2, r0, lsl #8
 1384 0746 FFF7FEFF 		bl	lwip_ntohs
 1385              		.loc 1 1238 0 discriminator 1
 1386 074a 8207     		lsls	r2, r0, #30
 1387 074c C9D4     		bmi	.L89
 1388              		.loc 1 1240 0
 1389 074e D9F80C60 		ldr	r6, [r9, #12]
 1390 0752 337B     		ldrb	r3, [r6, #12]	@ zero_extendqisi2
 1391 0754 96F80DA0 		ldrb	sl, [r6, #13]	@ zero_extendqisi2
 1392 0758 0120     		movs	r0, #1
 1393 075a 43EA0A2A 		orr	sl, r3, sl, lsl #8
 1394 075e FFF7FEFF 		bl	lwip_htons
 1395 0762 40EA0A03 		orr	r3, r0, sl
 1396 0766 9BB2     		uxth	r3, r3
 1397 0768 1A0A     		lsrs	r2, r3, #8
 1398 076a 3373     		strb	r3, [r6, #12]
 1399 076c 7273     		strb	r2, [r6, #13]
 1400              		.loc 1 1241 0
 1401 076e D9F80C30 		ldr	r3, [r9, #12]
 1402 0772 B9F80860 		ldrh	r6, [r9, #8]
 1403 0776 1A7B     		ldrb	r2, [r3, #12]	@ zero_extendqisi2
 1404 0778 587B     		ldrb	r0, [r3, #13]	@ zero_extendqisi2
 1405 077a 42EA0020 		orr	r0, r2, r0, lsl #8
 1406 077e FFF7FEFF 		bl	lwip_ntohs
 1407 0782 10F00300 		ands	r0, r0, #3
 1408 0786 18BF     		it	ne
 1409 0788 0120     		movne	r0, #1
 1410 078a 3018     		adds	r0, r6, r0
 1411 078c ABF80000 		strh	r0, [fp, #0]	@ movhi
 1412 0790 A7E7     		b	.L89
 1413              	.LVL87:
 1414              	.L134:
 1415              	.LBB3:
 1416              		.loc 1 1226 0
 1417 0792 0368     		ldr	r3, [r0, #0]
 1418 0794 E367     		str	r3, [r4, #124]
 1419              		.loc 1 1227 0
 1420 0796 FFF7FEFF 		bl	tcp_seg_free
 1421              	.LVL88:
 1422              	.L166:
 1423              	.LBE3:
 1424              		.loc 1 1224 0
ARM GAS  /var/folders/5n/p_75w94d66l9ssrldxqdhh700000gn/T//ccYNR3t7.s 			page 26


 1425 079a E06F     		ldr	r0, [r4, #124]
 1426 079c 0028     		cmp	r0, #0
 1427 079e F8D1     		bne	.L134
 1428              	.L162:
 1429 07a0 BBF80020 		ldrh	r2, [fp, #0]
 1430 07a4 3968     		ldr	r1, [r7, #0]
 1431 07a6 5118     		adds	r1, r2, r1
 1432              	.L83:
 1433              		.loc 1 1270 0
 1434 07a8 238D     		ldrh	r3, [r4, #40]
 1435              		.loc 1 1267 0
 1436 07aa 6162     		str	r1, [r4, #36]
 1437              		.loc 1 1270 0
 1438 07ac 9342     		cmp	r3, r2
 1439 07ae C0F06081 		bcc	.L193
 1440              	.L94:
 1441              		.loc 1 1271 0
 1442 07b2 9B1A     		subs	r3, r3, r2
 1443 07b4 2385     		strh	r3, [r4, #40]	@ movhi
 1444              		.loc 1 1273 0
 1445 07b6 2046     		mov	r0, r4
 1446 07b8 FFF7FEFF 		bl	tcp_update_rcv_ann_wnd
 1447              		.loc 1 1284 0
 1448 07bc 6B68     		ldr	r3, [r5, #4]
 1449 07be 1A89     		ldrh	r2, [r3, #8]
 1450 07c0 22B1     		cbz	r2, .L95
 1451              		.loc 1 1285 0
 1452 07c2 1A4A     		ldr	r2, .L200+8
 1453 07c4 1360     		str	r3, [r2, #0]
 1454              		.loc 1 1289 0
 1455 07c6 174B     		ldr	r3, .L200
 1456 07c8 0022     		movs	r2, #0
 1457 07ca 5A60     		str	r2, [r3, #4]
 1458              	.L95:
 1459              		.loc 1 1291 0
 1460 07cc EB68     		ldr	r3, [r5, #12]
 1461 07ce 1A7B     		ldrb	r2, [r3, #12]	@ zero_extendqisi2
 1462 07d0 587B     		ldrb	r0, [r3, #13]	@ zero_extendqisi2
 1463 07d2 42EA0020 		orr	r0, r2, r0, lsl #8
 1464 07d6 FFF7FEFF 		bl	lwip_ntohs
 1465 07da C007     		lsls	r0, r0, #31
 1466              		.loc 1 1293 0
 1467 07dc 48BF     		it	mi
 1468 07de 144B     		ldrmi	r3, .L200+12
 1469              		.loc 1 1299 0
 1470 07e0 E56F     		ldr	r5, [r4, #124]
 1471              		.loc 1 1293 0
 1472 07e2 42BF     		ittt	mi
 1473 07e4 1A78     		ldrbmi	r2, [r3, #0]	@ zero_extendqisi2
 1474 07e6 42F02002 		orrmi	r2, r2, #32
 1475 07ea 1A70     		strbmi	r2, [r3, #0]
 1476              		.loc 1 1299 0
 1477 07ec 002D     		cmp	r5, #0
 1478 07ee 00F09A80 		beq	.L97
 1479              		.loc 1 1300 0
 1480 07f2 EB68     		ldr	r3, [r5, #12]
 1481              		.loc 1 1299 0
ARM GAS  /var/folders/5n/p_75w94d66l9ssrldxqdhh700000gn/T//ccYNR3t7.s 			page 27


 1482 07f4 626A     		ldr	r2, [r4, #36]
 1483              		.loc 1 1300 0
 1484 07f6 1879     		ldrb	r0, [r3, #4]	@ zero_extendqisi2
 1485 07f8 5E79     		ldrb	r6, [r3, #5]	@ zero_extendqisi2
 1486 07fa 9979     		ldrb	r1, [r3, #6]	@ zero_extendqisi2
 1487 07fc 93F807B0 		ldrb	fp, [r3, #7]	@ zero_extendqisi2
 1488 0800 40EA0623 		orr	r3, r0, r6, lsl #8
 1489 0804 43EA0143 		orr	r3, r3, r1, lsl #16
 1490 0808 43EA0B6B 		orr	fp, r3, fp, lsl #24
 1491              		.loc 1 1299 0
 1492 080c 9345     		cmp	fp, r2
 1493 080e 40F08A80 		bne	.L97
 1494              		.loc 1 1315 0
 1495 0812 DFF81880 		ldr	r8, .L200+8
 1496              		.loc 1 1324 0
 1497 0816 064E     		ldr	r6, .L200+12
 1498              		.loc 1 1320 0
 1499 0818 4FF00009 		mov	r9, #0
 1500              		.loc 1 1326 0
 1501 081c 4FF0070A 		mov	sl, #7
 1502 0820 54E0     		b	.L133
 1503              	.L201:
 1504 0822 00BF     		.align	2
 1505              	.L200:
 1506 0824 00000000 		.word	.LANCHOR5
 1507 0828 00000000 		.word	.LANCHOR0
 1508 082c 00000000 		.word	.LANCHOR6
 1509 0830 00000000 		.word	.LANCHOR7
 1510              	.LVL89:
 1511              	.L98:
 1512              		.loc 1 1308 0
 1513 0834 EA68     		ldr	r2, [r5, #12]
 1514 0836 238D     		ldrh	r3, [r4, #40]
 1515 0838 117B     		ldrb	r1, [r2, #12]	@ zero_extendqisi2
 1516 083a 507B     		ldrb	r0, [r2, #13]	@ zero_extendqisi2
 1517 083c B5F808B0 		ldrh	fp, [r5, #8]
 1518 0840 0193     		str	r3, [sp, #4]
 1519 0842 41EA0020 		orr	r0, r1, r0, lsl #8
 1520 0846 FFF7FEFF 		bl	lwip_ntohs
 1521 084a 019B     		ldr	r3, [sp, #4]
 1522 084c 10F00300 		ands	r0, r0, #3
 1523 0850 CBEB030B 		rsb	fp, fp, r3
 1524 0854 18BF     		it	ne
 1525 0856 0120     		movne	r0, #1
 1526 0858 C0EB0B00 		rsb	r0, r0, fp
 1527 085c 2085     		strh	r0, [r4, #40]	@ movhi
 1528              		.loc 1 1310 0
 1529 085e 2046     		mov	r0, r4
 1530 0860 FFF7FEFF 		bl	tcp_update_rcv_ann_wnd
 1531              		.loc 1 1312 0
 1532 0864 6968     		ldr	r1, [r5, #4]
 1533 0866 0B89     		ldrh	r3, [r1, #8]
 1534 0868 3BB1     		cbz	r3, .L99
 1535              		.loc 1 1315 0
 1536 086a D8F80000 		ldr	r0, [r8, #0]
 1537 086e 0028     		cmp	r0, #0
 1538 0870 56D0     		beq	.L100
ARM GAS  /var/folders/5n/p_75w94d66l9ssrldxqdhh700000gn/T//ccYNR3t7.s 			page 28


 1539              		.loc 1 1316 0
 1540 0872 FFF7FEFF 		bl	pbuf_cat
 1541              	.L101:
 1542              		.loc 1 1320 0
 1543 0876 C5F80490 		str	r9, [r5, #4]
 1544              	.L99:
 1545              		.loc 1 1322 0
 1546 087a EB68     		ldr	r3, [r5, #12]
 1547 087c 1A7B     		ldrb	r2, [r3, #12]	@ zero_extendqisi2
 1548 087e 587B     		ldrb	r0, [r3, #13]	@ zero_extendqisi2
 1549 0880 42EA0020 		orr	r0, r2, r0, lsl #8
 1550 0884 FFF7FEFF 		bl	lwip_ntohs
 1551 0888 C107     		lsls	r1, r0, #31
 1552 088a 08D5     		bpl	.L102
 1553              		.loc 1 1324 0
 1554 088c 3278     		ldrb	r2, [r6, #0]	@ zero_extendqisi2
 1555              		.loc 1 1325 0
 1556 088e 237C     		ldrb	r3, [r4, #16]	@ zero_extendqisi2
 1557              		.loc 1 1324 0
 1558 0890 42F02002 		orr	r2, r2, #32
 1559              		.loc 1 1325 0
 1560 0894 042B     		cmp	r3, #4
 1561              		.loc 1 1324 0
 1562 0896 3270     		strb	r2, [r6, #0]
 1563              		.loc 1 1326 0
 1564 0898 08BF     		it	eq
 1565 089a 84F810A0 		strbeq	sl, [r4, #16]
 1566              	.L102:
 1567              		.loc 1 1330 0
 1568 089e 2B68     		ldr	r3, [r5, #0]
 1569              		.loc 1 1331 0
 1570 08a0 2846     		mov	r0, r5
 1571              		.loc 1 1330 0
 1572 08a2 E367     		str	r3, [r4, #124]
 1573              		.loc 1 1331 0
 1574 08a4 FFF7FEFF 		bl	tcp_seg_free
 1575              		.loc 1 1299 0
 1576 08a8 E56F     		ldr	r5, [r4, #124]
 1577              	.LVL90:
 1578 08aa 002D     		cmp	r5, #0
 1579 08ac 3BD0     		beq	.L97
 1580              		.loc 1 1300 0 discriminator 2
 1581 08ae EB68     		ldr	r3, [r5, #12]
 1582              		.loc 1 1299 0 discriminator 2
 1583 08b0 626A     		ldr	r2, [r4, #36]
 1584              		.loc 1 1300 0 discriminator 2
 1585 08b2 1879     		ldrb	r0, [r3, #4]	@ zero_extendqisi2
 1586 08b4 93F805C0 		ldrb	ip, [r3, #5]	@ zero_extendqisi2
 1587 08b8 9979     		ldrb	r1, [r3, #6]	@ zero_extendqisi2
 1588 08ba DB79     		ldrb	r3, [r3, #7]	@ zero_extendqisi2
 1589 08bc 40EA0C2B 		orr	fp, r0, ip, lsl #8
 1590 08c0 4BEA014B 		orr	fp, fp, r1, lsl #16
 1591 08c4 4BEA036B 		orr	fp, fp, r3, lsl #24
 1592              		.loc 1 1299 0 discriminator 2
 1593 08c8 9345     		cmp	fp, r2
 1594 08ca 2CD1     		bne	.L97
 1595              	.L133:
ARM GAS  /var/folders/5n/p_75w94d66l9ssrldxqdhh700000gn/T//ccYNR3t7.s 			page 29


 1596              	.LVL91:
 1597              		.loc 1 1305 0
 1598 08cc EB68     		ldr	r3, [r5, #12]
 1599              		.loc 1 1303 0
 1600 08ce C7F800B0 		str	fp, [r7, #0]
 1601              		.loc 1 1305 0
 1602 08d2 1A7B     		ldrb	r2, [r3, #12]	@ zero_extendqisi2
 1603 08d4 587B     		ldrb	r0, [r3, #13]	@ zero_extendqisi2
 1604 08d6 2B89     		ldrh	r3, [r5, #8]
 1605 08d8 42EA0020 		orr	r0, r2, r0, lsl #8
 1606 08dc 0193     		str	r3, [sp, #4]
 1607 08de FFF7FEFF 		bl	lwip_ntohs
 1608 08e2 019B     		ldr	r3, [sp, #4]
 1609              		.loc 1 1306 0
 1610 08e4 E968     		ldr	r1, [r5, #12]
 1611 08e6 2A89     		ldrh	r2, [r5, #8]
 1612              		.loc 1 1305 0
 1613 08e8 10F00300 		ands	r0, r0, #3
 1614 08ec 18BF     		it	ne
 1615 08ee 0120     		movne	r0, #1
 1616 08f0 1818     		adds	r0, r3, r0
 1617 08f2 5844     		add	r0, r0, fp
 1618 08f4 6062     		str	r0, [r4, #36]
 1619              		.loc 1 1306 0
 1620 08f6 087B     		ldrb	r0, [r1, #12]	@ zero_extendqisi2
 1621 08f8 497B     		ldrb	r1, [r1, #13]	@ zero_extendqisi2
 1622 08fa 238D     		ldrh	r3, [r4, #40]
 1623 08fc 0292     		str	r2, [sp, #8]
 1624 08fe 40EA0120 		orr	r0, r0, r1, lsl #8
 1625 0902 0193     		str	r3, [sp, #4]
 1626 0904 FFF7FEFF 		bl	lwip_ntohs
 1627 0908 029A     		ldr	r2, [sp, #8]
 1628 090a 019B     		ldr	r3, [sp, #4]
 1629 090c 10F00300 		ands	r0, r0, #3
 1630 0910 18BF     		it	ne
 1631 0912 0120     		movne	r0, #1
 1632 0914 1218     		adds	r2, r2, r0
 1633 0916 9342     		cmp	r3, r2
 1634 0918 8CDA     		bge	.L98
 1635              		.loc 1 1306 0 is_stmt 0 discriminator 1
 1636 091a FFF7FEFF 		bl	port_halt
 1637 091e 89E7     		b	.L98
 1638              	.L100:
 1639              		.loc 1 1318 0 is_stmt 1
 1640 0920 C8F80010 		str	r1, [r8, #0]
 1641 0924 A7E7     		b	.L101
 1642              	.LVL92:
 1643              	.L97:
 1644              		.loc 1 1337 0
 1645 0926 94F82030 		ldrb	r3, [r4, #32]	@ zero_extendqisi2
 1646 092a DA07     		lsls	r2, r3, #31
 1647 092c 46BF     		itte	mi
 1648 092e 23F00103 		bicmi	r3, r3, #1
 1649 0932 43F00203 		orrmi	r3, r3, #2
 1650 0936 43F00103 		orrpl	r3, r3, #1
 1651 093a 84F82030 		strb	r3, [r4, #32]
 1652 093e 1BE4     		b	.L32
ARM GAS  /var/folders/5n/p_75w94d66l9ssrldxqdhh700000gn/T//ccYNR3t7.s 			page 30


 1653              	.LVL93:
 1654              	.L123:
 1655              		.loc 1 1361 0
 1656 0940 2A46     		mov	r2, r5
 1657 0942 0025     		movs	r5, #0
 1658              	.LVL94:
 1659              	.L107:
 1660              		.loc 1 1366 0
 1661 0944 9648     		ldr	r0, .L202
 1662 0946 1389     		ldrh	r3, [r2, #8]
 1663 0948 0189     		ldrh	r1, [r0, #8]
 1664 094a 9942     		cmp	r1, r3
 1665 094c 7FF614AC 		bls	.L32
 1666              		.loc 1 1370 0
 1667 0950 0292     		str	r2, [sp, #8]
 1668 0952 FFF7FEFF 		bl	tcp_seg_copy
 1669              	.LVL95:
 1670              		.loc 1 1371 0
 1671 0956 029A     		ldr	r2, [sp, #8]
 1672 0958 0028     		cmp	r0, #0
 1673 095a 3FF40DAC 		beq	.L32
 1674              		.loc 1 1372 0
 1675 095e 002D     		cmp	r5, #0
 1676 0960 00F00481 		beq	.L109
 1677              		.loc 1 1373 0
 1678 0964 2860     		str	r0, [r5, #0]
 1679              	.L110:
 1680              		.loc 1 1377 0
 1681 0966 1146     		mov	r1, r2
 1682              		.loc 1 1479 0
 1683 0968 05B0     		add	sp, sp, #20
 1684 096a BDE8F04F 		pop	{r4, r5, r6, r7, r8, r9, sl, fp, lr}
 1685              		.loc 1 1377 0
 1686 096e FFF7FEBF 		b	tcp_oos_insert_segment
 1687              	.LVL96:
 1688              	.L157:
 1689 0972 636F     		ldr	r3, [r4, #116]
 1690 0974 AFE4     		b	.L53
 1691              	.L178:
 1692              		.loc 1 1016 0
 1693 0976 A36F     		ldr	r3, [r4, #120]
 1694 0978 002B     		cmp	r3, #0
 1695 097a FAD0     		beq	.L157
 1696              		.loc 1 1019 0
 1697 097c 0022     		movs	r2, #0
 1698 097e 636F     		ldr	r3, [r4, #116]
 1699 0980 E286     		strh	r2, [r4, #54]	@ movhi
 1700 0982 ABE4     		b	.L56
 1701              	.LVL97:
 1702              	.L70:
 1703              		.loc 1 1164 0
 1704 0984 C8F10001 		rsb	r1, r8, #0
 1705 0988 09B2     		sxth	r1, r1
 1706 098a FFF7FEFF 		bl	pbuf_header
 1707 098e 0028     		cmp	r0, #0
 1708 0990 3FF40BAE 		beq	.L74
 1709              	.L159:
ARM GAS  /var/folders/5n/p_75w94d66l9ssrldxqdhh700000gn/T//ccYNR3t7.s 			page 31


 1710              		.loc 1 1166 0 discriminator 1
 1711 0994 FFF7FEFF 		bl	port_halt
 1712 0998 07E6     		b	.L74
 1713              	.L189:
 1714              		.loc 1 1146 0 discriminator 1
 1715 099a FFF7FEFF 		bl	port_halt
 1716 099e E1E5     		b	.L69
 1717              	.LVL98:
 1718              	.L184:
 1719              		.loc 1 1409 0
 1720 09a0 7F48     		ldr	r0, .L202
 1721 09a2 FFF7FEFF 		bl	tcp_seg_copy
 1722              	.LVL99:
 1723 09a6 5F46     		mov	r7, fp
 1724              		.loc 1 1410 0
 1725 09a8 0446     		mov	r4, r0
 1726              	.LVL100:
 1727 09aa 0028     		cmp	r0, #0
 1728 09ac 3FF4E4AB 		beq	.L32
 1729              		.loc 1 1411 0
 1730 09b0 F368     		ldr	r3, [r6, #12]
 1731 09b2 DBF80020 		ldr	r2, [fp, #0]
 1732 09b6 93F804C0 		ldrb	ip, [r3, #4]	@ zero_extendqisi2
 1733 09ba 93F80580 		ldrb	r8, [r3, #5]	@ zero_extendqisi2
 1734 09be 9F79     		ldrb	r7, [r3, #6]	@ zero_extendqisi2
 1735 09c0 D879     		ldrb	r0, [r3, #7]	@ zero_extendqisi2
 1736              	.LVL101:
 1737 09c2 3189     		ldrh	r1, [r6, #8]
 1738 09c4 4CEA0823 		orr	r3, ip, r8, lsl #8
 1739 09c8 43EA0743 		orr	r3, r3, r7, lsl #16
 1740 09cc 43EA0063 		orr	r3, r3, r0, lsl #24
 1741 09d0 891A     		subs	r1, r1, r2
 1742 09d2 C918     		adds	r1, r1, r3
 1743 09d4 0029     		cmp	r1, #0
 1744 09d6 05DD     		ble	.L113
 1745              		.loc 1 1413 0
 1746 09d8 D31A     		subs	r3, r2, r3
 1747 09da 99B2     		uxth	r1, r3
 1748 09dc 3181     		strh	r1, [r6, #8]	@ movhi
 1749              		.loc 1 1414 0
 1750 09de 7068     		ldr	r0, [r6, #4]
 1751 09e0 FFF7FEFF 		bl	pbuf_realloc
 1752              	.L113:
 1753              		.loc 1 1417 0
 1754 09e4 2046     		mov	r0, r4
 1755 09e6 2946     		mov	r1, r5
 1756              		.loc 1 1416 0
 1757 09e8 3460     		str	r4, [r6, #0]
 1758              		.loc 1 1479 0
 1759 09ea 05B0     		add	sp, sp, #20
 1760 09ec BDE8F04F 		pop	{r4, r5, r6, r7, r8, r9, sl, fp, lr}
 1761              		.loc 1 1417 0
 1762 09f0 FFF7FEBF 		b	tcp_oos_insert_segment
 1763              	.LVL102:
 1764              	.L190:
 1765              		.loc 1 1148 0 discriminator 1
 1766 09f4 FFF7FEFF 		bl	port_halt
ARM GAS  /var/folders/5n/p_75w94d66l9ssrldxqdhh700000gn/T//ccYNR3t7.s 			page 32


 1767 09f8 694B     		ldr	r3, .L202
 1768 09fa 5B68     		ldr	r3, [r3, #4]
 1769 09fc 1A89     		ldrh	r2, [r3, #8]
 1770 09fe BAE5     		b	.L71
 1771              	.LVL103:
 1772              	.L191:
 1773              		.loc 1 1198 0
 1774 0a00 EB68     		ldr	r3, [r5, #12]
 1775 0a02 1A7B     		ldrb	r2, [r3, #12]	@ zero_extendqisi2
 1776 0a04 587B     		ldrb	r0, [r3, #13]	@ zero_extendqisi2
 1777 0a06 42EA0020 		orr	r0, r2, r0, lsl #8
 1778 0a0a FFF7FEFF 		bl	lwip_ntohs
 1779 0a0e C207     		lsls	r2, r0, #31
 1780 0a10 00F18F80 		bmi	.L194
 1781              	.L79:
 1782              		.loc 1 1204 0
 1783 0a14 228D     		ldrh	r2, [r4, #40]
 1784              		.loc 1 1205 0
 1785 0a16 EB68     		ldr	r3, [r5, #12]
 1786              		.loc 1 1204 0
 1787 0a18 2A81     		strh	r2, [r5, #8]	@ movhi
 1788              		.loc 1 1205 0
 1789 0a1a 1A7B     		ldrb	r2, [r3, #12]	@ zero_extendqisi2
 1790 0a1c 587B     		ldrb	r0, [r3, #13]	@ zero_extendqisi2
 1791              		.loc 1 1204 0
 1792 0a1e 604E     		ldr	r6, .L202
 1793              		.loc 1 1205 0
 1794 0a20 42EA0020 		orr	r0, r2, r0, lsl #8
 1795 0a24 FFF7FEFF 		bl	lwip_ntohs
 1796 0a28 8307     		lsls	r3, r0, #30
 1797              		.loc 1 1206 0
 1798 0a2a 3189     		ldrh	r1, [r6, #8]
 1799              		.loc 1 1205 0
 1800 0a2c 02D5     		bpl	.L81
 1801              		.loc 1 1206 0
 1802 0a2e 0139     		subs	r1, r1, #1
 1803 0a30 89B2     		uxth	r1, r1
 1804 0a32 3181     		strh	r1, [r6, #8]	@ movhi
 1805              	.L81:
 1806              		.loc 1 1208 0
 1807 0a34 6868     		ldr	r0, [r5, #4]
 1808 0a36 FFF7FEFF 		bl	pbuf_realloc
 1809              		.loc 1 1209 0
 1810 0a3a EB68     		ldr	r3, [r5, #12]
 1811 0a3c 2E89     		ldrh	r6, [r5, #8]
 1812 0a3e 1A7B     		ldrb	r2, [r3, #12]	@ zero_extendqisi2
 1813 0a40 587B     		ldrb	r0, [r3, #13]	@ zero_extendqisi2
 1814 0a42 42EA0020 		orr	r0, r2, r0, lsl #8
 1815 0a46 FFF7FEFF 		bl	lwip_ntohs
 1816 0a4a 10F00300 		ands	r0, r0, #3
 1817 0a4e 18BF     		it	ne
 1818 0a50 0120     		movne	r0, #1
 1819 0a52 3318     		adds	r3, r6, r0
 1820              		.loc 1 1210 0
 1821 0a54 3968     		ldr	r1, [r7, #0]
 1822 0a56 B4F828E0 		ldrh	lr, [r4, #40]
 1823 0a5a 626A     		ldr	r2, [r4, #36]
ARM GAS  /var/folders/5n/p_75w94d66l9ssrldxqdhh700000gn/T//ccYNR3t7.s 			page 33


 1824              		.loc 1 1209 0
 1825 0a5c 9BB2     		uxth	r3, r3
 1826              		.loc 1 1210 0
 1827 0a5e 5918     		adds	r1, r3, r1
 1828 0a60 7244     		add	r2, lr, r2
 1829 0a62 9142     		cmp	r1, r2
 1830              		.loc 1 1209 0
 1831 0a64 ABF80030 		strh	r3, [fp, #0]	@ movhi
 1832              		.loc 1 1210 0
 1833 0a68 3FF40AAE 		beq	.L78
 1834              		.loc 1 1210 0 is_stmt 0 discriminator 1
 1835 0a6c FFF7FEFF 		bl	port_halt
 1836 0a70 06E6     		b	.L78
 1837              	.L193:
 1838              		.loc 1 1270 0 is_stmt 1 discriminator 1
 1839 0a72 FFF7FEFF 		bl	port_halt
 1840 0a76 238D     		ldrh	r3, [r4, #40]
 1841 0a78 BBF80020 		ldrh	r2, [fp, #0]
 1842 0a7c 99E6     		b	.L94
 1843              	.LVL104:
 1844              	.L195:
 1845              		.loc 1 1234 0
 1846 0a7e 4646     		mov	r6, r8
 1847              	.LVL105:
 1848              	.L88:
 1849              		.loc 1 1249 0
 1850 0a80 0028     		cmp	r0, #0
 1851 0a82 40DD     		ble	.L160
 1852              		.loc 1 1254 0
 1853 0a84 EB68     		ldr	r3, [r5, #12]
 1854              		.loc 1 1253 0
 1855 0a86 DFF81881 		ldr	r8, .L202
 1856 0a8a C1EB0E01 		rsb	r1, r1, lr
 1857 0a8e 2981     		strh	r1, [r5, #8]	@ movhi
 1858              		.loc 1 1254 0
 1859 0a90 1A7B     		ldrb	r2, [r3, #12]	@ zero_extendqisi2
 1860 0a92 587B     		ldrb	r0, [r3, #13]	@ zero_extendqisi2
 1861 0a94 42EA0020 		orr	r0, r2, r0, lsl #8
 1862 0a98 FFF7FEFF 		bl	lwip_ntohs
 1863 0a9c 8307     		lsls	r3, r0, #30
 1864              		.loc 1 1255 0
 1865 0a9e B8F80810 		ldrh	r1, [r8, #8]
 1866              		.loc 1 1254 0
 1867 0aa2 03D5     		bpl	.L93
 1868              		.loc 1 1255 0
 1869 0aa4 0139     		subs	r1, r1, #1
 1870 0aa6 89B2     		uxth	r1, r1
 1871 0aa8 A8F80810 		strh	r1, [r8, #8]	@ movhi
 1872              	.L93:
 1873              		.loc 1 1257 0
 1874 0aac 6868     		ldr	r0, [r5, #4]
 1875 0aae FFF7FEFF 		bl	pbuf_realloc
 1876              		.loc 1 1258 0
 1877 0ab2 EB68     		ldr	r3, [r5, #12]
 1878 0ab4 B5F80880 		ldrh	r8, [r5, #8]
 1879 0ab8 1A7B     		ldrb	r2, [r3, #12]	@ zero_extendqisi2
 1880 0aba 587B     		ldrb	r0, [r3, #13]	@ zero_extendqisi2
ARM GAS  /var/folders/5n/p_75w94d66l9ssrldxqdhh700000gn/T//ccYNR3t7.s 			page 34


 1881 0abc 42EA0020 		orr	r0, r2, r0, lsl #8
 1882 0ac0 FFF7FEFF 		bl	lwip_ntohs
 1883 0ac4 10F00300 		ands	r0, r0, #3
 1884 0ac8 18BF     		it	ne
 1885 0aca 0120     		movne	r0, #1
 1886 0acc 08EB0002 		add	r2, r8, r0
 1887              		.loc 1 1259 0
 1888 0ad0 F368     		ldr	r3, [r6, #12]
 1889 0ad2 3968     		ldr	r1, [r7, #0]
 1890              		.loc 1 1258 0
 1891 0ad4 92B2     		uxth	r2, r2
 1892 0ad6 ABF80020 		strh	r2, [fp, #0]	@ movhi
 1893              		.loc 1 1259 0
 1894 0ada 93F804C0 		ldrb	ip, [r3, #4]	@ zero_extendqisi2
 1895 0ade 93F80580 		ldrb	r8, [r3, #5]	@ zero_extendqisi2
 1896 0ae2 93F806E0 		ldrb	lr, [r3, #6]	@ zero_extendqisi2
 1897 0ae6 D879     		ldrb	r0, [r3, #7]	@ zero_extendqisi2
 1898 0ae8 4CEA0823 		orr	r3, ip, r8, lsl #8
 1899 0aec 43EA0E43 		orr	r3, r3, lr, lsl #16
 1900 0af0 5118     		adds	r1, r2, r1
 1901 0af2 43EA0063 		orr	r3, r3, r0, lsl #24
 1902 0af6 9942     		cmp	r1, r3
 1903 0af8 06D0     		beq	.L91
 1904              		.loc 1 1259 0 is_stmt 0 discriminator 1
 1905 0afa FFF7FEFF 		bl	port_halt
 1906 0afe 294B     		ldr	r3, .L202+4
 1907 0b00 1A88     		ldrh	r2, [r3, #0]
 1908 0b02 294B     		ldr	r3, .L202+8
 1909 0b04 1968     		ldr	r1, [r3, #0]
 1910              	.L160:
 1911 0b06 5118     		adds	r1, r2, r1
 1912              	.LVL106:
 1913              	.L91:
 1914              		.loc 1 1262 0 is_stmt 1
 1915 0b08 E667     		str	r6, [r4, #124]
 1916 0b0a 4DE6     		b	.L83
 1917              	.L87:
 1918              		.loc 1 1234 0
 1919 0b0c BBF80020 		ldrh	r2, [fp, #0]
 1920 0b10 3968     		ldr	r1, [r7, #0]
 1921 0b12 0026     		movs	r6, #0
 1922 0b14 5118     		adds	r1, r2, r1
 1923 0b16 F7E7     		b	.L91
 1924              	.LVL107:
 1925              	.L188:
 1926              		.loc 1 1145 0 discriminator 1
 1927 0b18 FFF7FEFF 		bl	port_halt
 1928 0b1c 1DE5     		b	.L68
 1929              	.LVL108:
 1930              	.L106:
 1931              		.loc 1 1345 0
 1932 0b1e 2048     		ldr	r0, .L202
 1933 0b20 FFF7FEFF 		bl	tcp_seg_copy
 1934 0b24 E067     		str	r0, [r4, #124]
 1935 0b26 FFF727BB 		b	.L32
 1936              	.LVL109:
 1937              	.L181:
ARM GAS  /var/folders/5n/p_75w94d66l9ssrldxqdhh700000gn/T//ccYNR3t7.s 			page 35


 1938              		.loc 1 1009 0 discriminator 2
 1939 0b2a FFF7FEFF 		bl	port_halt
 1940 0b2e FFF787BB 		b	.L156
 1941              	.LVL110:
 1942              	.L194:
 1943              		.loc 1 1201 0
 1944 0b32 EE68     		ldr	r6, [r5, #12]
 1945 0b34 337B     		ldrb	r3, [r6, #12]	@ zero_extendqisi2
 1946 0b36 96F80D80 		ldrb	r8, [r6, #13]	@ zero_extendqisi2
 1947 0b3a 43EA0828 		orr	r8, r3, r8, lsl #8
 1948 0b3e 4046     		mov	r0, r8
 1949 0b40 FFF7FEFF 		bl	lwip_ntohs
 1950 0b44 00F03E00 		and	r0, r0, #62
 1951 0b48 FFF7FEFF 		bl	lwip_htons
 1952 0b4c 28F47C58 		bic	r8, r8, #16128
 1953 0b50 40EA0803 		orr	r3, r0, r8
 1954 0b54 9BB2     		uxth	r3, r3
 1955 0b56 1A0A     		lsrs	r2, r3, #8
 1956 0b58 3373     		strb	r3, [r6, #12]
 1957 0b5a 7273     		strb	r2, [r6, #13]
 1958 0b5c 5AE7     		b	.L79
 1959              	.LVL111:
 1960              	.L41:
 1961              		.loc 1 922 0
 1962 0b5e 02D1     		bne	.L154
 1963              		.loc 1 924 0
 1964 0b60 2046     		mov	r0, r4
 1965 0b62 FFF7FEFF 		bl	tcp_rexmit_fast
 1966              	.LVL112:
 1967              	.L154:
 1968 0b66 636F     		ldr	r3, [r4, #116]
 1969 0b68 FFF77CBA 		b	.L57
 1970              	.LVL113:
 1971              	.L109:
 1972              		.loc 1 1375 0
 1973 0b6c E067     		str	r0, [r4, #124]
 1974 0b6e FAE6     		b	.L110
 1975              	.LVL114:
 1976              	.L186:
 1977              		.loc 1 1447 0
 1978 0b70 2B68     		ldr	r3, [r5, #0]
 1979 0b72 DE68     		ldr	r6, [r3, #12]
 1980 0b74 337B     		ldrb	r3, [r6, #12]	@ zero_extendqisi2
 1981 0b76 96F80D80 		ldrb	r8, [r6, #13]	@ zero_extendqisi2
 1982 0b7a 43EA0828 		orr	r8, r3, r8, lsl #8
 1983 0b7e 4046     		mov	r0, r8
 1984 0b80 FFF7FEFF 		bl	lwip_ntohs
 1985 0b84 00F03E00 		and	r0, r0, #62
 1986 0b88 FFF7FEFF 		bl	lwip_htons
 1987 0b8c 28F47C58 		bic	r8, r8, #16128
 1988 0b90 40EA0803 		orr	r3, r0, r8
 1989 0b94 9BB2     		uxth	r3, r3
 1990 0b96 1A0A     		lsrs	r2, r3, #8
 1991 0b98 3373     		strb	r3, [r6, #12]
 1992 0b9a 7273     		strb	r2, [r6, #13]
 1993 0b9c 7BE4     		b	.L116
 1994              	.L203:
ARM GAS  /var/folders/5n/p_75w94d66l9ssrldxqdhh700000gn/T//ccYNR3t7.s 			page 36


 1995 0b9e 00BF     		.align	2
 1996              	.L202:
 1997 0ba0 00000000 		.word	.LANCHOR5
 1998 0ba4 00000000 		.word	.LANCHOR4
 1999 0ba8 00000000 		.word	.LANCHOR1
 2000              		.cfi_endproc
 2001              	.LFE12:
 2002              		.size	tcp_receive, .-tcp_receive
 2003 0bac AFF30080 		.section	.text.tcp_input,"ax",%progbits
 2004              		.align	2
 2005              		.p2align 4,,15
 2006              		.global	tcp_input
 2007              		.thumb
 2008              		.thumb_func
 2009              		.type	tcp_input, %function
 2010              	tcp_input:
 2011              	.LFB7:
 2012              		.loc 1 93 0
 2013              		.cfi_startproc
 2014              		@ args = 0, pretend = 0, frame = 0
 2015              		@ frame_needed = 0, uses_anonymous_args = 0
 2016              	.LVL115:
 2017 0000 2DE9F04F 		push	{r4, r5, r6, r7, r8, r9, sl, fp, lr}
 2018              	.LCFI4:
 2019              		.cfi_def_cfa_offset 36
 2020              		.cfi_offset 14, -4
 2021              		.cfi_offset 11, -8
 2022              		.cfi_offset 10, -12
 2023              		.cfi_offset 9, -16
 2024              		.cfi_offset 8, -20
 2025              		.cfi_offset 7, -24
 2026              		.cfi_offset 6, -28
 2027              		.cfi_offset 5, -32
 2028              		.cfi_offset 4, -36
 2029              		.loc 1 105 0
 2030 0004 8C4D     		ldr	r5, .L362
 2031              		.loc 1 108 0
 2032 0006 4468     		ldr	r4, [r0, #4]
 2033              		.loc 1 105 0
 2034 0008 B5F89230 		ldrh	r3, [r5, #146]
 2035              		.loc 1 108 0
 2036 000c 8B4F     		ldr	r7, .L362+4
 2037              		.loc 1 109 0
 2038 000e DFF83882 		ldr	r8, .L362+16
 2039              		.loc 1 108 0
 2040 0012 3C60     		str	r4, [r7, #0]
 2041              		.loc 1 105 0
 2042 0014 0133     		adds	r3, r3, #1
 2043 0016 A5F89230 		strh	r3, [r5, #146]	@ movhi
 2044              		.loc 1 109 0
 2045 001a 2378     		ldrb	r3, [r4, #0]	@ zero_extendqisi2
 2046              		.loc 1 93 0
 2047 001c 0646     		mov	r6, r0
 2048              		.loc 1 109 0
 2049 001e 6078     		ldrb	r0, [r4, #1]	@ zero_extendqisi2
 2050              	.LVL116:
 2051              		.loc 1 93 0
ARM GAS  /var/folders/5n/p_75w94d66l9ssrldxqdhh700000gn/T//ccYNR3t7.s 			page 37


 2052 0020 83B0     		sub	sp, sp, #12
 2053              	.LCFI5:
 2054              		.cfi_def_cfa_offset 48
 2055              		.loc 1 109 0
 2056 0022 43EA0020 		orr	r0, r3, r0, lsl #8
 2057              		.loc 1 93 0
 2058 0026 8946     		mov	r9, r1
 2059              		.loc 1 109 0
 2060 0028 FFF7FEFF 		bl	lwip_ntohs
 2061              	.LVL117:
 2062 002c C0F30320 		ubfx	r0, r0, #8, #4
 2063              		.loc 1 116 0
 2064 0030 3B68     		ldr	r3, [r7, #0]
 2065              		.loc 1 109 0
 2066 0032 04EB8004 		add	r4, r4, r0, lsl #2
 2067 0036 C8F80040 		str	r4, [r8, #0]
 2068              		.loc 1 116 0
 2069 003a 1A78     		ldrb	r2, [r3, #0]	@ zero_extendqisi2
 2070 003c 5878     		ldrb	r0, [r3, #1]	@ zero_extendqisi2
 2071 003e 42EA0020 		orr	r0, r2, r0, lsl #8
 2072 0042 FFF7FEFF 		bl	lwip_ntohs
 2073 0046 C0F30321 		ubfx	r1, r0, #8, #4
 2074 004a 8900     		lsls	r1, r1, #2
 2075 004c 3046     		mov	r0, r6
 2076 004e 4942     		negs	r1, r1
 2077 0050 FFF7FEFF 		bl	pbuf_header
 2078 0054 10B9     		cbnz	r0, .L334
 2079              		.loc 1 116 0 is_stmt 0 discriminator 1
 2080 0056 3389     		ldrh	r3, [r6, #8]
 2081 0058 132B     		cmp	r3, #19
 2082 005a 0FD8     		bhi	.L206
 2083              	.L334:
 2084              		.loc 1 160 0 is_stmt 1
 2085 005c B5F89A20 		ldrh	r2, [r5, #154]
 2086              		.loc 1 161 0
 2087 0060 B5F89630 		ldrh	r3, [r5, #150]
 2088              		.loc 1 160 0
 2089 0064 0132     		adds	r2, r2, #1
 2090              		.loc 1 161 0
 2091 0066 0133     		adds	r3, r3, #1
 2092              		.loc 1 163 0
 2093 0068 3046     		mov	r0, r6
 2094              		.loc 1 160 0
 2095 006a A5F89A20 		strh	r2, [r5, #154]	@ movhi
 2096              		.loc 1 161 0
 2097 006e A5F89630 		strh	r3, [r5, #150]	@ movhi
 2098              		.loc 1 427 0
 2099 0072 03B0     		add	sp, sp, #12
 2100 0074 BDE8F04F 		pop	{r4, r5, r6, r7, r8, r9, sl, fp, lr}
 2101              		.loc 1 163 0
 2102 0078 FFF7FEBF 		b	pbuf_free
 2103              	.L206:
 2104              		.loc 1 127 0
 2105 007c 704F     		ldr	r7, .L362+8
 2106 007e 4946     		mov	r1, r9
 2107 0080 3868     		ldr	r0, [r7, #0]
 2108 0082 FFF7FEFF 		bl	ip4_addr_isbroadcast
ARM GAS  /var/folders/5n/p_75w94d66l9ssrldxqdhh700000gn/T//ccYNR3t7.s 			page 38


 2109 0086 0028     		cmp	r0, #0
 2110 0088 40F0C680 		bne	.L207
 2111              		.loc 1 128 0 discriminator 1
 2112 008c 3B68     		ldr	r3, [r7, #0]
 2113 008e 03F0F003 		and	r3, r3, #240
 2114              		.loc 1 127 0 discriminator 1
 2115 0092 E02B     		cmp	r3, #224
 2116 0094 00F0C080 		beq	.L207
 2117              		.loc 1 138 0
 2118 0098 3389     		ldrh	r3, [r6, #8]
 2119 009a 6A49     		ldr	r1, .L362+12
 2120 009c 0093     		str	r3, [sp, #0]
 2121 009e 3046     		mov	r0, r6
 2122 00a0 3A46     		mov	r2, r7
 2123 00a2 0623     		movs	r3, #6
 2124 00a4 FFF7FEFF 		bl	inet_chksum_pseudo
 2125 00a8 0028     		cmp	r0, #0
 2126 00aa 40F05481 		bne	.L338
 2127              		.loc 1 156 0
 2128 00ae D8F80030 		ldr	r3, [r8, #0]
 2129 00b2 1A7B     		ldrb	r2, [r3, #12]	@ zero_extendqisi2
 2130 00b4 587B     		ldrb	r0, [r3, #13]	@ zero_extendqisi2
 2131 00b6 42EA0020 		orr	r0, r2, r0, lsl #8
 2132 00ba FFF7FEFF 		bl	lwip_ntohs
 2133              	.LVL118:
 2134              		.loc 1 157 0
 2135 00be C0F30731 		ubfx	r1, r0, #12, #8
 2136 00c2 C1EB8131 		rsb	r1, r1, r1, lsl #14
 2137 00c6 8900     		lsls	r1, r1, #2
 2138 00c8 3046     		mov	r0, r6
 2139              	.LVL119:
 2140 00ca 09B2     		sxth	r1, r1
 2141 00cc FFF7FEFF 		bl	pbuf_header
 2142 00d0 8246     		mov	sl, r0
 2143 00d2 0028     		cmp	r0, #0
 2144 00d4 C2D1     		bne	.L334
 2145              		.loc 1 168 0
 2146 00d6 D8F80040 		ldr	r4, [r8, #0]
 2147              		.loc 1 174 0
 2148 00da DFF87091 		ldr	r9, .L362+20
 2149              	.LVL120:
 2150              		.loc 1 168 0
 2151 00de 2378     		ldrb	r3, [r4, #0]	@ zero_extendqisi2
 2152 00e0 6078     		ldrb	r0, [r4, #1]	@ zero_extendqisi2
 2153              		.loc 1 188 0
 2154 00e2 DFF860B1 		ldr	fp, .L362+12
 2155              		.loc 1 168 0
 2156 00e6 43EA0020 		orr	r0, r3, r0, lsl #8
 2157 00ea FFF7FEFF 		bl	lwip_ntohs
 2158 00ee C0F30F23 		ubfx	r3, r0, #8, #16
 2159 00f2 2070     		strb	r0, [r4, #0]
 2160 00f4 6370     		strb	r3, [r4, #1]
 2161              		.loc 1 169 0
 2162 00f6 D8F80040 		ldr	r4, [r8, #0]
 2163 00fa A378     		ldrb	r3, [r4, #2]	@ zero_extendqisi2
 2164 00fc E078     		ldrb	r0, [r4, #3]	@ zero_extendqisi2
 2165 00fe 43EA0020 		orr	r0, r3, r0, lsl #8
ARM GAS  /var/folders/5n/p_75w94d66l9ssrldxqdhh700000gn/T//ccYNR3t7.s 			page 39


 2166 0102 FFF7FEFF 		bl	lwip_ntohs
 2167 0106 C0F30F23 		ubfx	r3, r0, #8, #16
 2168 010a A070     		strb	r0, [r4, #2]
 2169 010c E370     		strb	r3, [r4, #3]
 2170              		.loc 1 170 0
 2171 010e D8F80040 		ldr	r4, [r8, #0]
 2172 0112 2179     		ldrb	r1, [r4, #4]	@ zero_extendqisi2
 2173 0114 6079     		ldrb	r0, [r4, #5]	@ zero_extendqisi2
 2174 0116 A279     		ldrb	r2, [r4, #6]	@ zero_extendqisi2
 2175 0118 E379     		ldrb	r3, [r4, #7]	@ zero_extendqisi2
 2176 011a 41EA0020 		orr	r0, r1, r0, lsl #8
 2177 011e 40EA0240 		orr	r0, r0, r2, lsl #16
 2178 0122 40EA0360 		orr	r0, r0, r3, lsl #24
 2179 0126 FFF7FEFF 		bl	lwip_ntohl
 2180 012a C0F30721 		ubfx	r1, r0, #8, #8
 2181 012e 030E     		lsrs	r3, r0, #24
 2182 0130 6171     		strb	r1, [r4, #5]
 2183 0132 C0F30742 		ubfx	r2, r0, #16, #8
 2184 0136 40F20001 		movw	r1, #:lower16:.LANCHOR1
 2185 013a 2071     		strb	r0, [r4, #4]
 2186 013c A271     		strb	r2, [r4, #6]
 2187 013e E371     		strb	r3, [r4, #7]
 2188 0140 C0F20001 		movt	r1, #:upper16:.LANCHOR1
 2189              		.loc 1 171 0
 2190 0144 D8F80040 		ldr	r4, [r8, #0]
 2191              		.loc 1 170 0
 2192 0148 0860     		str	r0, [r1, #0]
 2193              		.loc 1 171 0
 2194 014a 217A     		ldrb	r1, [r4, #8]	@ zero_extendqisi2
 2195 014c 607A     		ldrb	r0, [r4, #9]	@ zero_extendqisi2
 2196 014e A27A     		ldrb	r2, [r4, #10]	@ zero_extendqisi2
 2197 0150 E37A     		ldrb	r3, [r4, #11]	@ zero_extendqisi2
 2198 0152 41EA0020 		orr	r0, r1, r0, lsl #8
 2199 0156 40EA0240 		orr	r0, r0, r2, lsl #16
 2200 015a 40EA0360 		orr	r0, r0, r3, lsl #24
 2201 015e FFF7FEFF 		bl	lwip_ntohl
 2202 0162 C0F30742 		ubfx	r2, r0, #16, #8
 2203 0166 C0F30721 		ubfx	r1, r0, #8, #8
 2204 016a 030E     		lsrs	r3, r0, #24
 2205 016c A272     		strb	r2, [r4, #10]
 2206 016e 40F20002 		movw	r2, #:lower16:.LANCHOR3
 2207 0172 6172     		strb	r1, [r4, #9]
 2208 0174 2072     		strb	r0, [r4, #8]
 2209 0176 E372     		strb	r3, [r4, #11]
 2210 0178 C0F20002 		movt	r2, #:upper16:.LANCHOR3
 2211              		.loc 1 172 0
 2212 017c D8F80040 		ldr	r4, [r8, #0]
 2213              		.loc 1 171 0
 2214 0180 1060     		str	r0, [r2, #0]
 2215              		.loc 1 172 0
 2216 0182 A37B     		ldrb	r3, [r4, #14]	@ zero_extendqisi2
 2217 0184 E07B     		ldrb	r0, [r4, #15]	@ zero_extendqisi2
 2218 0186 43EA0020 		orr	r0, r3, r0, lsl #8
 2219 018a FFF7FEFF 		bl	lwip_ntohs
 2220 018e C0F30F23 		ubfx	r3, r0, #8, #16
 2221 0192 A073     		strb	r0, [r4, #14]
 2222 0194 E373     		strb	r3, [r4, #15]
ARM GAS  /var/folders/5n/p_75w94d66l9ssrldxqdhh700000gn/T//ccYNR3t7.s 			page 40


 2223              		.loc 1 174 0
 2224 0196 D8F80030 		ldr	r3, [r8, #0]
 2225 019a 1A7B     		ldrb	r2, [r3, #12]	@ zero_extendqisi2
 2226 019c 587B     		ldrb	r0, [r3, #13]	@ zero_extendqisi2
 2227 019e 42EA0020 		orr	r0, r2, r0, lsl #8
 2228 01a2 FFF7FEFF 		bl	lwip_ntohs
 2229 01a6 00F03F00 		and	r0, r0, #63
 2230              		.loc 1 175 0
 2231 01aa 3289     		ldrh	r2, [r6, #8]
 2232              		.loc 1 174 0
 2233 01ac 89F80000 		strb	r0, [r9, #0]
 2234              		.loc 1 175 0
 2235 01b0 10F00303 		ands	r3, r0, #3
 2236              		.loc 1 182 0
 2237 01b4 40F20001 		movw	r1, #:lower16:tcp_active_pcbs
 2238 01b8 C0F20001 		movt	r1, #:upper16:tcp_active_pcbs
 2239              		.loc 1 175 0
 2240 01bc 18BF     		it	ne
 2241 01be 0123     		movne	r3, #1
 2242 01c0 9B18     		adds	r3, r3, r2
 2243 01c2 40F20002 		movw	r2, #:lower16:.LANCHOR4
 2244 01c6 C0F20002 		movt	r2, #:upper16:.LANCHOR4
 2245              		.loc 1 182 0
 2246 01ca 0C68     		ldr	r4, [r1, #0]
 2247              		.loc 1 175 0
 2248 01cc 1380     		strh	r3, [r2, #0]	@ movhi
 2249              	.LVL121:
 2250              		.loc 1 182 0
 2251 01ce 9CB9     		cbnz	r4, .L219
 2252 01d0 84E2     		b	.L316
 2253              	.LVL122:
 2254              	.L212:
 2255              		.loc 1 184 0
 2256 01d2 0A2B     		cmp	r3, #10
 2257 01d4 18D0     		beq	.L339
 2258              	.L213:
 2259              		.loc 1 185 0
 2260 01d6 012B     		cmp	r3, #1
 2261 01d8 1BD0     		beq	.L340
 2262              	.L214:
 2263              		.loc 1 186 0
 2264 01da D8F80030 		ldr	r3, [r8, #0]
 2265 01de E18B     		ldrh	r1, [r4, #30]
 2266 01e0 1A78     		ldrb	r2, [r3, #0]	@ zero_extendqisi2
 2267 01e2 5878     		ldrb	r0, [r3, #1]	@ zero_extendqisi2
 2268 01e4 42EA0022 		orr	r2, r2, r0, lsl #8
 2269 01e8 9142     		cmp	r1, r2
 2270 01ea 31D0     		beq	.L341
 2271              	.L215:
 2272              	.LVL123:
 2273              		.loc 1 182 0
 2274 01ec E368     		ldr	r3, [r4, #12]
 2275              	.LVL124:
 2276 01ee 002B     		cmp	r3, #0
 2277 01f0 00F07482 		beq	.L316
 2278 01f4 A246     		mov	sl, r4
 2279 01f6 1C46     		mov	r4, r3
ARM GAS  /var/folders/5n/p_75w94d66l9ssrldxqdhh700000gn/T//ccYNR3t7.s 			page 41


 2280              	.LVL125:
 2281              	.L219:
 2282              		.loc 1 183 0
 2283 01f8 237C     		ldrb	r3, [r4, #16]	@ zero_extendqisi2
 2284 01fa 002B     		cmp	r3, #0
 2285 01fc E9D1     		bne	.L212
 2286              		.loc 1 183 0 is_stmt 0 discriminator 1
 2287 01fe FFF7FEFF 		bl	port_halt
 2288 0202 237C     		ldrb	r3, [r4, #16]	@ zero_extendqisi2
 2289              		.loc 1 184 0 is_stmt 1 discriminator 1
 2290 0204 0A2B     		cmp	r3, #10
 2291 0206 E6D1     		bne	.L213
 2292              	.L339:
 2293 0208 FFF7FEFF 		bl	port_halt
 2294 020c 237C     		ldrb	r3, [r4, #16]	@ zero_extendqisi2
 2295              		.loc 1 185 0 discriminator 1
 2296 020e 012B     		cmp	r3, #1
 2297 0210 E3D1     		bne	.L214
 2298              	.L340:
 2299 0212 FFF7FEFF 		bl	port_halt
 2300 0216 E0E7     		b	.L214
 2301              	.LVL126:
 2302              	.L207:
 2303              		.loc 1 129 0
 2304 0218 B5F8A020 		ldrh	r2, [r5, #160]
 2305              		.loc 1 130 0
 2306 021c B5F89630 		ldrh	r3, [r5, #150]
 2307              		.loc 1 129 0
 2308 0220 0132     		adds	r2, r2, #1
 2309              		.loc 1 130 0
 2310 0222 0133     		adds	r3, r3, #1
 2311              		.loc 1 132 0
 2312 0224 3046     		mov	r0, r6
 2313              		.loc 1 129 0
 2314 0226 A5F8A020 		strh	r2, [r5, #160]	@ movhi
 2315              		.loc 1 130 0
 2316 022a A5F89630 		strh	r3, [r5, #150]	@ movhi
 2317              		.loc 1 427 0
 2318 022e 03B0     		add	sp, sp, #12
 2319 0230 BDE8F04F 		pop	{r4, r5, r6, r7, r8, r9, sl, fp, lr}
 2320              		.loc 1 132 0
 2321 0234 FFF7FEBF 		b	pbuf_free
 2322              	.L363:
 2323              		.align	2
 2324              	.L362:
 2325 0238 00000000 		.word	lwip_stats
 2326 023c 00000000 		.word	.LANCHOR8
 2327 0240 00000000 		.word	current_iphdr_dest
 2328 0244 00000000 		.word	current_iphdr_src
 2329 0248 00000000 		.word	.LANCHOR0
 2330 024c 00000000 		.word	.LANCHOR2
 2331              	.LVL127:
 2332              	.L341:
 2333              		.loc 1 187 0 discriminator 1
 2334 0250 9978     		ldrb	r1, [r3, #2]	@ zero_extendqisi2
 2335 0252 DB78     		ldrb	r3, [r3, #3]	@ zero_extendqisi2
 2336              		.loc 1 186 0 discriminator 1
ARM GAS  /var/folders/5n/p_75w94d66l9ssrldxqdhh700000gn/T//ccYNR3t7.s 			page 42


 2337 0254 A28B     		ldrh	r2, [r4, #28]
 2338 0256 41EA0323 		orr	r3, r1, r3, lsl #8
 2339 025a 9A42     		cmp	r2, r3
 2340 025c C6D1     		bne	.L215
 2341              		.loc 1 187 0
 2342 025e 6268     		ldr	r2, [r4, #4]
 2343 0260 DBF80030 		ldr	r3, [fp, #0]
 2344 0264 9A42     		cmp	r2, r3
 2345 0266 C1D1     		bne	.L215
 2346              		.loc 1 188 0
 2347 0268 2268     		ldr	r2, [r4, #0]
 2348 026a 3B68     		ldr	r3, [r7, #0]
 2349 026c 9A42     		cmp	r2, r3
 2350 026e BDD1     		bne	.L215
 2351              		.loc 1 194 0
 2352 0270 E368     		ldr	r3, [r4, #12]
 2353 0272 A342     		cmp	r3, r4
 2354 0274 00F08280 		beq	.L342
 2355              	.L216:
 2356              		.loc 1 195 0
 2357 0278 BAF1000F 		cmp	sl, #0
 2358 027c 08D0     		beq	.L217
 2359              		.loc 1 197 0
 2360 027e 40F20000 		movw	r0, #:lower16:tcp_active_pcbs
 2361 0282 C0F20000 		movt	r0, #:upper16:tcp_active_pcbs
 2362              		.loc 1 196 0
 2363 0286 CAF80C30 		str	r3, [sl, #12]
 2364              		.loc 1 197 0
 2365 028a 0368     		ldr	r3, [r0, #0]
 2366              		.loc 1 198 0
 2367 028c 0460     		str	r4, [r0, #0]
 2368              		.loc 1 197 0
 2369 028e E360     		str	r3, [r4, #12]
 2370              	.L217:
 2371              		.loc 1 200 0
 2372 0290 A342     		cmp	r3, r4
 2373 0292 70D0     		beq	.L343
 2374              	.L218:
 2375              		.loc 1 206 0
 2376 0294 002C     		cmp	r4, #0
 2377 0296 00F02182 		beq	.L316
 2378              		.loc 1 293 0
 2379 029a 40F20000 		movw	r0, #:lower16:.LANCHOR5
 2380 029e 3389     		ldrh	r3, [r6, #8]
 2381              		.loc 1 295 0
 2382 02a0 D8F80010 		ldr	r1, [r8, #0]
 2383              		.loc 1 297 0
 2384 02a4 DFF8B0A2 		ldr	sl, .L364+24
 2385              		.loc 1 298 0
 2386 02a8 DFF8B0B2 		ldr	fp, .L364+28
 2387              		.loc 1 301 0
 2388 02ac D4F88020 		ldr	r2, [r4, #128]
 2389              		.loc 1 293 0
 2390 02b0 C0F20000 		movt	r0, #:upper16:.LANCHOR5
 2391 02b4 0381     		strh	r3, [r0, #8]	@ movhi
 2392              		.loc 1 292 0
 2393 02b6 0023     		movs	r3, #0
ARM GAS  /var/folders/5n/p_75w94d66l9ssrldxqdhh700000gn/T//ccYNR3t7.s 			page 43


 2394              		.loc 1 294 0
 2395 02b8 80E84800 		stmia	r0, {r3, r6}
 2396              		.loc 1 295 0
 2397 02bc C160     		str	r1, [r0, #12]
 2398              		.loc 1 297 0
 2399 02be CAF80030 		str	r3, [sl, #0]
 2400              		.loc 1 298 0
 2401 02c2 8BF80030 		strb	r3, [fp, #0]
 2402              		.loc 1 301 0
 2403 02c6 5AB1     		cbz	r2, .L238
 2404              		.loc 1 304 0
 2405 02c8 D4F88870 		ldr	r7, [r4, #136]
 2406 02cc 002F     		cmp	r7, #0
 2407 02ce 00F0F882 		beq	.L239
 2408              		.loc 1 304 0 is_stmt 0 discriminator 1
 2409 02d2 6069     		ldr	r0, [r4, #20]
 2410 02d4 2146     		mov	r1, r4
 2411 02d6 B847     		blx	r7
 2412              	.LVL128:
 2413              	.L240:
 2414              		.loc 1 305 0 is_stmt 1
 2415 02d8 0028     		cmp	r0, #0
 2416 02da 53D1     		bne	.L241
 2417              		.loc 1 306 0
 2418 02dc C4F88000 		str	r0, [r4, #128]
 2419              	.LVL129:
 2420              	.L238:
 2421              	.LBB11:
 2422              	.LBB12:
 2423              		.loc 1 581 0
 2424 02e0 99F80030 		ldrb	r3, [r9, #0]	@ zero_extendqisi2
 2425              	.LBE12:
 2426              	.LBE11:
 2427              		.loc 1 318 0
 2428 02e4 964D     		ldr	r5, .L364
 2429              	.LBB25:
 2430              	.LBB16:
 2431              		.loc 1 581 0
 2432 02e6 5907     		lsls	r1, r3, #29
 2433              	.LBE16:
 2434              	.LBE25:
 2435              		.loc 1 318 0
 2436 02e8 2C60     		str	r4, [r5, #0]
 2437              	.LVL130:
 2438              	.LBB26:
 2439              	.LBB17:
 2440              		.loc 1 581 0
 2441 02ea 60D5     		bpl	.L243
 2442              		.loc 1 583 0
 2443 02ec 237C     		ldrb	r3, [r4, #16]	@ zero_extendqisi2
 2444 02ee 022B     		cmp	r3, #2
 2445 02f0 00F0ED82 		beq	.L344
 2446              		.loc 1 588 0
 2447 02f4 40F20002 		movw	r2, #:lower16:.LANCHOR1
 2448 02f8 C0F20002 		movt	r2, #:upper16:.LANCHOR1
 2449 02fc 1168     		ldr	r1, [r2, #0]
 2450 02fe 626A     		ldr	r2, [r4, #36]
ARM GAS  /var/folders/5n/p_75w94d66l9ssrldxqdhh700000gn/T//ccYNR3t7.s 			page 44


 2451 0300 8A1A     		subs	r2, r1, r2
 2452 0302 04D4     		bmi	.L330
 2453 0304 218D     		ldrh	r1, [r4, #40]
 2454 0306 521A     		subs	r2, r2, r1
 2455 0308 002A     		cmp	r2, #0
 2456 030a 40F32F83 		ble	.L248
 2457              	.LVL131:
 2458              	.L330:
 2459              		.loc 1 763 0
 2460 030e 9BF80030 		ldrb	r3, [fp, #0]	@ zero_extendqisi2
 2461              	.LVL132:
 2462              	.L246:
 2463              	.LBE17:
 2464              	.LBE26:
 2465              		.loc 1 323 0
 2466 0312 1A07     		lsls	r2, r3, #28
 2467 0314 5AD5     		bpl	.L301
 2468              		.loc 1 328 0
 2469 0316 D4F89430 		ldr	r3, [r4, #148]
 2470 031a 1BB1     		cbz	r3, .L333
 2471              		.loc 1 328 0 is_stmt 0 discriminator 1
 2472 031c 6069     		ldr	r0, [r4, #20]
 2473 031e 6FF00A01 		mvn	r1, #10
 2474 0322 9847     		blx	r3
 2475              	.L333:
 2476              		.loc 1 334 0 is_stmt 1
 2477 0324 2146     		mov	r1, r4
 2478 0326 8748     		ldr	r0, .L364+4
 2479 0328 FFF7FEFF 		bl	tcp_pcb_remove
 2480              		.loc 1 335 0
 2481 032c 0220     		movs	r0, #2
 2482 032e 2146     		mov	r1, r4
 2483 0330 FFF7FEFF 		bl	memp_free
 2484              	.L303:
 2485              		.loc 1 405 0
 2486 0334 40F20001 		movw	r1, #:lower16:.LANCHOR5
 2487 0338 C0F20001 		movt	r1, #:upper16:.LANCHOR5
 2488              		.loc 1 401 0
 2489 033c 0024     		movs	r4, #0
 2490              	.LVL133:
 2491              		.loc 1 405 0
 2492 033e 4868     		ldr	r0, [r1, #4]
 2493              		.loc 1 401 0
 2494 0340 2C60     		str	r4, [r5, #0]
 2495              		.loc 1 402 0
 2496 0342 CAF80040 		str	r4, [sl, #0]
 2497              		.loc 1 405 0
 2498 0346 18B1     		cbz	r0, .L204
 2499              		.loc 1 407 0
 2500 0348 FFF7FEFF 		bl	pbuf_free
 2501              		.loc 1 408 0
 2502 034c 7E4B     		ldr	r3, .L364+8
 2503 034e 5C60     		str	r4, [r3, #4]
 2504              	.L204:
 2505              		.loc 1 427 0
 2506 0350 03B0     		add	sp, sp, #12
 2507 0352 BDE8F08F 		pop	{r4, r5, r6, r7, r8, r9, sl, fp, pc}
ARM GAS  /var/folders/5n/p_75w94d66l9ssrldxqdhh700000gn/T//ccYNR3t7.s 			page 45


 2508              	.LVL134:
 2509              	.L338:
 2510              		.loc 1 146 0
 2511 0356 B5F89820 		ldrh	r2, [r5, #152]
 2512              		.loc 1 147 0
 2513 035a B5F89630 		ldrh	r3, [r5, #150]
 2514              		.loc 1 146 0
 2515 035e 0132     		adds	r2, r2, #1
 2516              		.loc 1 147 0
 2517 0360 0133     		adds	r3, r3, #1
 2518              		.loc 1 149 0
 2519 0362 3046     		mov	r0, r6
 2520              		.loc 1 146 0
 2521 0364 A5F89820 		strh	r2, [r5, #152]	@ movhi
 2522              		.loc 1 147 0
 2523 0368 A5F89630 		strh	r3, [r5, #150]	@ movhi
 2524              		.loc 1 427 0
 2525 036c 03B0     		add	sp, sp, #12
 2526 036e BDE8F04F 		pop	{r4, r5, r6, r7, r8, r9, sl, fp, lr}
 2527              		.loc 1 149 0
 2528 0372 FFF7FEBF 		b	pbuf_free
 2529              	.LVL135:
 2530              	.L343:
 2531              		.loc 1 200 0 discriminator 1
 2532 0376 FFF7FEFF 		bl	port_halt
 2533 037a 8BE7     		b	.L218
 2534              	.L342:
 2535              		.loc 1 194 0 discriminator 1
 2536 037c FFF7FEFF 		bl	port_halt
 2537 0380 E368     		ldr	r3, [r4, #12]
 2538 0382 79E7     		b	.L216
 2539              	.LVL136:
 2540              	.L241:
 2541              		.loc 1 307 0
 2542 0384 40B2     		sxtb	r0, r0
 2543              	.LVL137:
 2544 0386 0A30     		adds	r0, r0, #10
 2545 0388 06D0     		beq	.L242
 2546              		.loc 1 307 0 is_stmt 0 discriminator 1
 2547 038a 40F20001 		movw	r1, #:lower16:.LANCHOR4
 2548 038e C0F20001 		movt	r1, #:upper16:.LANCHOR4
 2549 0392 0B88     		ldrh	r3, [r1, #0]
 2550 0394 002B     		cmp	r3, #0
 2551 0396 A3D0     		beq	.L238
 2552              	.L242:
 2553              		.loc 1 312 0 is_stmt 1
 2554 0398 B5F89630 		ldrh	r3, [r5, #150]
 2555              		.loc 1 314 0
 2556 039c 3046     		mov	r0, r6
 2557              		.loc 1 312 0
 2558 039e 0133     		adds	r3, r3, #1
 2559 03a0 A5F89630 		strh	r3, [r5, #150]	@ movhi
 2560              		.loc 1 427 0
 2561 03a4 03B0     		add	sp, sp, #12
 2562 03a6 BDE8F04F 		pop	{r4, r5, r6, r7, r8, r9, sl, fp, lr}
 2563              		.loc 1 314 0
 2564 03aa FFF7FEBF 		b	pbuf_free
ARM GAS  /var/folders/5n/p_75w94d66l9ssrldxqdhh700000gn/T//ccYNR3t7.s 			page 46


 2565              	.LVL138:
 2566              	.L243:
 2567              	.LBB27:
 2568              	.LBB18:
 2569              		.loc 1 609 0
 2570 03ae 9A07     		lsls	r2, r3, #30
 2571 03b0 5ED5     		bpl	.L249
 2572 03b2 237C     		ldrb	r3, [r4, #16]	@ zero_extendqisi2
 2573 03b4 023B     		subs	r3, r3, #2
 2574 03b6 012B     		cmp	r3, #1
 2575 03b8 5AD9     		bls	.L249
 2576              	.LVL139:
 2577              	.L266:
 2578              		.loc 1 671 0
 2579 03ba 94F82020 		ldrb	r2, [r4, #32]	@ zero_extendqisi2
 2580 03be 9BF80030 		ldrb	r3, [fp, #0]	@ zero_extendqisi2
 2581 03c2 42F00202 		orr	r2, r2, #2
 2582 03c6 84F82020 		strb	r2, [r4, #32]
 2583 03ca A2E7     		b	.L246
 2584              	.LVL140:
 2585              	.L301:
 2586              	.LBE18:
 2587              	.LBE27:
 2588              		.loc 1 331 0
 2589 03cc DB06     		lsls	r3, r3, #27
 2590 03ce A9D4     		bmi	.L333
 2591              	.LVL141:
 2592              		.loc 1 341 0
 2593 03d0 B4F86C20 		ldrh	r2, [r4, #108]
 2594 03d4 3AB1     		cbz	r2, .L305
 2595              		.loc 1 342 0
 2596 03d6 D4F88430 		ldr	r3, [r4, #132]
 2597 03da 23B1     		cbz	r3, .L305
 2598              		.loc 1 342 0 is_stmt 0 discriminator 1
 2599 03dc 6069     		ldr	r0, [r4, #20]
 2600 03de 2146     		mov	r1, r4
 2601 03e0 9847     		blx	r3
 2602              	.LVL142:
 2603              		.loc 1 343 0 is_stmt 1 discriminator 1
 2604 03e2 0A30     		adds	r0, r0, #10
 2605              	.LVL143:
 2606 03e4 A6D0     		beq	.L303
 2607              	.L305:
 2608              		.loc 1 348 0
 2609 03e6 DAF80030 		ldr	r3, [sl, #0]
 2610 03ea 33B3     		cbz	r3, .L306
 2611              		.loc 1 349 0
 2612 03ec D4F88030 		ldr	r3, [r4, #128]
 2613 03f0 0BB1     		cbz	r3, .L307
 2614              		.loc 1 349 0 is_stmt 0 discriminator 1
 2615 03f2 FFF7FEFF 		bl	port_halt
 2616              	.L307:
 2617              		.loc 1 350 0 is_stmt 1
 2618 03f6 94F82030 		ldrb	r3, [r4, #32]	@ zero_extendqisi2
 2619 03fa D806     		lsls	r0, r3, #27
 2620 03fc 00F1BB82 		bmi	.L345
 2621              		.loc 1 357 0
ARM GAS  /var/folders/5n/p_75w94d66l9ssrldxqdhh700000gn/T//ccYNR3t7.s 			page 47


 2622 0400 99F80030 		ldrb	r3, [r9, #0]	@ zero_extendqisi2
 2623 0404 1907     		lsls	r1, r3, #28
 2624              		.loc 1 358 0
 2625 0406 41BF     		itttt	mi
 2626 0408 DAF80030 		ldrmi	r3, [sl, #0]
 2627 040c 5A7B     		ldrbmi	r2, [r3, #13]	@ zero_extendqisi2
 2628 040e 42F00102 		orrmi	r2, r2, #1
 2629 0412 5A73     		strbmi	r2, [r3, #13]
 2630              		.loc 1 362 0
 2631 0414 D4F88860 		ldr	r6, [r4, #136]
 2632 0418 002E     		cmp	r6, #0
 2633 041a 00F0D582 		beq	.L310
 2634              		.loc 1 362 0 is_stmt 0 discriminator 1
 2635 041e 6069     		ldr	r0, [r4, #20]
 2636 0420 DAF80020 		ldr	r2, [sl, #0]
 2637 0424 2146     		mov	r1, r4
 2638 0426 0023     		movs	r3, #0
 2639 0428 B047     		blx	r6
 2640              	.LVL144:
 2641              	.L311:
 2642              		.loc 1 363 0 is_stmt 1
 2643 042a 43B2     		sxtb	r3, r0
 2644 042c 0A33     		adds	r3, r3, #10
 2645 042e 81D0     		beq	.L303
 2646              		.loc 1 368 0
 2647 0430 18B1     		cbz	r0, .L306
 2648              		.loc 1 369 0
 2649 0432 DAF80030 		ldr	r3, [sl, #0]
 2650 0436 C4F88030 		str	r3, [r4, #128]
 2651              	.LVL145:
 2652              	.L306:
 2653              		.loc 1 376 0
 2654 043a 9BF80030 		ldrb	r3, [fp, #0]	@ zero_extendqisi2
 2655 043e 9A06     		lsls	r2, r3, #26
 2656 0440 10D5     		bpl	.L312
 2657              		.loc 1 379 0
 2658 0442 238D     		ldrh	r3, [r4, #40]
 2659 0444 B3F5066F 		cmp	r3, #2144
 2660 0448 01D0     		beq	.L313
 2661              		.loc 1 380 0
 2662 044a 0133     		adds	r3, r3, #1
 2663 044c 2385     		strh	r3, [r4, #40]	@ movhi
 2664              	.L313:
 2665              		.loc 1 382 0
 2666 044e D4F88860 		ldr	r6, [r4, #136]
 2667 0452 3EB1     		cbz	r6, .L312
 2668              		.loc 1 382 0 is_stmt 0 discriminator 1
 2669 0454 0022     		movs	r2, #0
 2670 0456 6069     		ldr	r0, [r4, #20]
 2671 0458 2146     		mov	r1, r4
 2672 045a 1346     		mov	r3, r2
 2673 045c B047     		blx	r6
 2674              	.LVL146:
 2675              		.loc 1 383 0 is_stmt 1 discriminator 1
 2676 045e 0A30     		adds	r0, r0, #10
 2677              	.LVL147:
 2678 0460 3FF468AF 		beq	.L303
ARM GAS  /var/folders/5n/p_75w94d66l9ssrldxqdhh700000gn/T//ccYNR3t7.s 			page 48


 2679              	.L312:
 2680              		.loc 1 388 0
 2681 0464 0023     		movs	r3, #0
 2682              		.loc 1 390 0
 2683 0466 2046     		mov	r0, r4
 2684              		.loc 1 388 0
 2685 0468 2B60     		str	r3, [r5, #0]
 2686              		.loc 1 390 0
 2687 046a FFF7FEFF 		bl	tcp_output
 2688 046e 61E7     		b	.L303
 2689              	.LVL148:
 2690              	.L249:
 2691              	.LBB28:
 2692              	.LBB19:
 2693              		.loc 1 615 0
 2694 0470 94F82030 		ldrb	r3, [r4, #32]	@ zero_extendqisi2
 2695 0474 DB06     		lsls	r3, r3, #27
 2696              		.loc 1 617 0
 2697 0476 5EBF     		ittt	pl
 2698 0478 344B     		ldrpl	r3, .L364+12
 2699 047a 1B68     		ldrpl	r3, [r3, #0]
 2700 047c 2363     		strpl	r3, [r4, #48]
 2701              		.loc 1 619 0
 2702 047e 0023     		movs	r3, #0
 2703 0480 84F8A130 		strb	r3, [r4, #161]
 2704              		.loc 1 621 0
 2705 0484 2046     		mov	r0, r4
 2706 0486 FFF7FEFF 		bl	tcp_parseopt
 2707              		.loc 1 624 0
 2708 048a 237C     		ldrb	r3, [r4, #16]	@ zero_extendqisi2
 2709 048c 023B     		subs	r3, r3, #2
 2710 048e 072B     		cmp	r3, #7
 2711 0490 3FF63DAF 		bhi	.L330
 2712 0494 DFE813F0 		tbh	[pc, r3, lsl #1]
 2713              	.L259:
 2714 0498 F100     		.2byte	(.L252-.L259)/2
 2715 049a BC00     		.2byte	(.L253-.L259)/2
 2716 049c AB00     		.2byte	(.L254-.L259)/2
 2717 049e 8D00     		.2byte	(.L255-.L259)/2
 2718 04a0 6400     		.2byte	(.L256-.L259)/2
 2719 04a2 AB00     		.2byte	(.L254-.L259)/2
 2720 04a4 1F00     		.2byte	(.L257-.L259)/2
 2721 04a6 0800     		.2byte	(.L258-.L259)/2
 2722              	.L258:
 2723              		.loc 1 777 0
 2724 04a8 2046     		mov	r0, r4
 2725 04aa FFF7FEFF 		bl	tcp_receive
 2726              		.loc 1 778 0
 2727 04ae 99F80030 		ldrb	r3, [r9, #0]	@ zero_extendqisi2
 2728 04b2 D906     		lsls	r1, r3, #27
 2729 04b4 7FF52BAF 		bpl	.L330
 2730 04b8 40F20000 		movw	r0, #:lower16:.LANCHOR3
 2731 04bc C0F20000 		movt	r0, #:upper16:.LANCHOR3
 2732 04c0 A26D     		ldr	r2, [r4, #88]
 2733 04c2 0368     		ldr	r3, [r0, #0]
 2734 04c4 9A42     		cmp	r2, r3
 2735              		.loc 1 781 0
ARM GAS  /var/folders/5n/p_75w94d66l9ssrldxqdhh700000gn/T//ccYNR3t7.s 			page 49


 2736 04c6 9BF80030 		ldrb	r3, [fp, #0]	@ zero_extendqisi2
 2737 04ca 04BF     		itt	eq
 2738 04cc 43F01003 		orreq	r3, r3, #16
 2739 04d0 8BF80030 		strbeq	r3, [fp, #0]
 2740 04d4 1DE7     		b	.L246
 2741              	.L257:
 2742              		.loc 1 767 0
 2743 04d6 2046     		mov	r0, r4
 2744 04d8 FFF7FEFF 		bl	tcp_receive
 2745              		.loc 1 768 0
 2746 04dc 99F80030 		ldrb	r3, [r9, #0]	@ zero_extendqisi2
 2747 04e0 D806     		lsls	r0, r3, #27
 2748 04e2 7FF514AF 		bpl	.L330
 2749 04e6 40F20000 		movw	r0, #:lower16:.LANCHOR3
 2750 04ea C0F20000 		movt	r0, #:upper16:.LANCHOR3
 2751 04ee A26D     		ldr	r2, [r4, #88]
 2752 04f0 0368     		ldr	r3, [r0, #0]
 2753 04f2 9A42     		cmp	r2, r3
 2754 04f4 7FF40BAF 		bne	.L330
 2755              		.loc 1 770 0
 2756 04f8 2046     		mov	r0, r4
 2757 04fa FFF7FEFF 		bl	tcp_pcb_purge
 2758              		.loc 1 771 0
 2759 04fe 40F20001 		movw	r1, #:lower16:tcp_active_pcbs
 2760 0502 C0F20001 		movt	r1, #:upper16:tcp_active_pcbs
 2761 0506 0B68     		ldr	r3, [r1, #0]
 2762 0508 9C42     		cmp	r4, r3
 2763 050a 00F0C682 		beq	.L336
 2764 050e 104A     		ldr	r2, .L364+16
 2765 0510 1360     		str	r3, [r2, #0]
 2766 0512 5BB1     		cbz	r3, .L286
 2767 0514 D968     		ldr	r1, [r3, #12]
 2768 0516 8C42     		cmp	r4, r1
 2769 0518 04D1     		bne	.L323
 2770 051a 80E2     		b	.L295
 2771              	.L298:
 2772 051c D968     		ldr	r1, [r3, #12]
 2773 051e 8C42     		cmp	r4, r1
 2774 0520 00F07C82 		beq	.L337
 2775              	.L323:
 2776 0524 0B46     		mov	r3, r1
 2777 0526 0029     		cmp	r1, #0
 2778 0528 F8D1     		bne	.L298
 2779              	.L335:
 2780              		.loc 1 761 0
 2781 052a 1360     		str	r3, [r2, #0]
 2782              	.L286:
 2783              		.loc 1 763 0
 2784 052c 094B     		ldr	r3, .L364+20
 2785 052e 1A68     		ldr	r2, [r3, #0]
 2786 0530 1C60     		str	r4, [r3, #0]
 2787              		.loc 1 762 0
 2788 0532 0A23     		movs	r3, #10
 2789 0534 2374     		strb	r3, [r4, #16]
 2790              		.loc 1 763 0
 2791 0536 E260     		str	r2, [r4, #12]
 2792 0538 FFF7FEFF 		bl	tcp_timer_needed
ARM GAS  /var/folders/5n/p_75w94d66l9ssrldxqdhh700000gn/T//ccYNR3t7.s 			page 50


 2793 053c E7E6     		b	.L330
 2794              	.L365:
 2795 053e 00BF     		.align	2
 2796              	.L364:
 2797 0540 00000000 		.word	.LANCHOR9
 2798 0544 00000000 		.word	tcp_active_pcbs
 2799 0548 00000000 		.word	.LANCHOR5
 2800 054c 00000000 		.word	tcp_ticks
 2801 0550 00000000 		.word	tcp_tmp_pcb
 2802 0554 00000000 		.word	tcp_tw_pcbs
 2803 0558 00000000 		.word	.LANCHOR6
 2804 055c 00000000 		.word	.LANCHOR7
 2805              	.L256:
 2806              		.loc 1 756 0
 2807 0560 2046     		mov	r0, r4
 2808 0562 FFF7FEFF 		bl	tcp_receive
 2809              		.loc 1 757 0
 2810 0566 9BF80030 		ldrb	r3, [fp, #0]	@ zero_extendqisi2
 2811 056a 9A06     		lsls	r2, r3, #26
 2812 056c 7FF5D1AE 		bpl	.L246
 2813              		.loc 1 759 0
 2814 0570 94F82030 		ldrb	r3, [r4, #32]	@ zero_extendqisi2
 2815 0574 43F00203 		orr	r3, r3, #2
 2816 0578 84F82030 		strb	r3, [r4, #32]
 2817              		.loc 1 760 0
 2818 057c 2046     		mov	r0, r4
 2819 057e FFF7FEFF 		bl	tcp_pcb_purge
 2820              		.loc 1 761 0
 2821 0582 40F20001 		movw	r1, #:lower16:tcp_active_pcbs
 2822 0586 C0F20001 		movt	r1, #:upper16:tcp_active_pcbs
 2823 058a 0B68     		ldr	r3, [r1, #0]
 2824 058c 9C42     		cmp	r4, r3
 2825 058e 00F08482 		beq	.L336
 2826 0592 864A     		ldr	r2, .L366
 2827 0594 1360     		str	r3, [r2, #0]
 2828 0596 002B     		cmp	r3, #0
 2829 0598 C8D0     		beq	.L286
 2830 059a D968     		ldr	r1, [r3, #12]
 2831 059c 8C42     		cmp	r4, r1
 2832 059e 04D1     		bne	.L322
 2833 05a0 3DE2     		b	.L295
 2834              	.L290:
 2835 05a2 D968     		ldr	r1, [r3, #12]
 2836 05a4 8C42     		cmp	r4, r1
 2837 05a6 00F03982 		beq	.L337
 2838              	.L322:
 2839 05aa 0B46     		mov	r3, r1
 2840 05ac 0029     		cmp	r1, #0
 2841 05ae F8D1     		bne	.L290
 2842 05b0 BBE7     		b	.L335
 2843              	.L255:
 2844              		.loc 1 737 0
 2845 05b2 2046     		mov	r0, r4
 2846 05b4 FFF7FEFF 		bl	tcp_receive
 2847              		.loc 1 738 0
 2848 05b8 9BF80030 		ldrb	r3, [fp, #0]	@ zero_extendqisi2
 2849              		.loc 1 739 0
ARM GAS  /var/folders/5n/p_75w94d66l9ssrldxqdhh700000gn/T//ccYNR3t7.s 			page 51


 2850 05bc 99F80020 		ldrb	r2, [r9, #0]	@ zero_extendqisi2
 2851              		.loc 1 738 0
 2852 05c0 9906     		lsls	r1, r3, #26
 2853 05c2 40F11C82 		bpl	.L279
 2854              		.loc 1 739 0
 2855 05c6 D006     		lsls	r0, r2, #27
 2856 05c8 08D5     		bpl	.L280
 2857 05ca 40F20000 		movw	r0, #:lower16:.LANCHOR3
 2858 05ce C0F20000 		movt	r0, #:upper16:.LANCHOR3
 2859 05d2 A16D     		ldr	r1, [r4, #88]
 2860 05d4 0268     		ldr	r2, [r0, #0]
 2861 05d6 9142     		cmp	r1, r2
 2862 05d8 00F06382 		beq	.L346
 2863              	.L280:
 2864              		.loc 1 748 0
 2865 05dc 94F82020 		ldrb	r2, [r4, #32]	@ zero_extendqisi2
 2866 05e0 42F00202 		orr	r2, r2, #2
 2867 05e4 84F82020 		strb	r2, [r4, #32]
 2868              		.loc 1 749 0
 2869 05e8 0822     		movs	r2, #8
 2870 05ea 2274     		strb	r2, [r4, #16]
 2871 05ec 91E6     		b	.L246
 2872              	.L254:
 2873              		.loc 1 730 0
 2874 05ee 2046     		mov	r0, r4
 2875 05f0 FFF7FEFF 		bl	tcp_receive
 2876              		.loc 1 731 0
 2877 05f4 9BF80030 		ldrb	r3, [fp, #0]	@ zero_extendqisi2
 2878 05f8 9806     		lsls	r0, r3, #26
 2879 05fa 7FF58AAE 		bpl	.L246
 2880              	.LVL149:
 2881              	.L331:
 2882              		.loc 1 732 0
 2883 05fe 94F82020 		ldrb	r2, [r4, #32]	@ zero_extendqisi2
 2884 0602 42F00202 		orr	r2, r2, #2
 2885 0606 84F82020 		strb	r2, [r4, #32]
 2886              		.loc 1 733 0
 2887 060a 0722     		movs	r2, #7
 2888 060c 2274     		strb	r2, [r4, #16]
 2889 060e 80E6     		b	.L246
 2890              	.LVL150:
 2891              	.L253:
 2892              		.loc 1 681 0
 2893 0610 99F80030 		ldrb	r3, [r9, #0]	@ zero_extendqisi2
 2894 0614 D906     		lsls	r1, r3, #27
 2895 0616 40F1DF81 		bpl	.L269
 2896              		.loc 1 683 0
 2897 061a 40F20001 		movw	r1, #:lower16:.LANCHOR3
 2898 061e C0F20001 		movt	r1, #:upper16:.LANCHOR3
 2899 0622 E36C     		ldr	r3, [r4, #76]
 2900 0624 0868     		ldr	r0, [r1, #0]
 2901 0626 DB43     		mvns	r3, r3
 2902 0628 C342     		cmn	r3, r0
 2903 062a 04D4     		bmi	.L270
 2904 062c A36D     		ldr	r3, [r4, #88]
 2905 062e C31A     		subs	r3, r0, r3
 2906 0630 002B     		cmp	r3, #0
ARM GAS  /var/folders/5n/p_75w94d66l9ssrldxqdhh700000gn/T//ccYNR3t7.s 			page 52


 2907 0632 40F3F781 		ble	.L347
 2908              	.L270:
 2909              		.loc 1 720 0
 2910 0636 D8F80010 		ldr	r1, [r8, #0]
 2911              		.loc 1 719 0
 2912 063a 40F20002 		movw	r2, #:lower16:.LANCHOR4
 2913 063e 91F802C0 		ldrb	ip, [r1, #2]	@ zero_extendqisi2
 2914 0642 CE78     		ldrb	r6, [r1, #3]	@ zero_extendqisi2
 2915              	.LVL151:
 2916 0644 40F20003 		movw	r3, #:lower16:.LANCHOR1
 2917 0648 C0F20002 		movt	r2, #:upper16:.LANCHOR4
 2918 064c C0F20003 		movt	r3, #:upper16:.LANCHOR1
 2919 0650 4CEA0626 		orr	r6, ip, r6, lsl #8
 2920 0654 1788     		ldrh	r7, [r2, #0]
 2921 0656 D3F800E0 		ldr	lr, [r3, #0]
 2922 065a 0096     		str	r6, [sp, #0]
 2923 065c 91F800C0 		ldrb	ip, [r1, #0]	@ zero_extendqisi2
 2924 0660 4E78     		ldrb	r6, [r1, #1]	@ zero_extendqisi2
 2925 0662 534B     		ldr	r3, .L366+4
 2926 0664 534A     		ldr	r2, .L366+8
 2927 0666 4CEA0626 		orr	r6, ip, r6, lsl #8
 2928 066a 07EB0E01 		add	r1, r7, lr
 2929 066e 0196     		str	r6, [sp, #4]
 2930 0670 FFF7FEFF 		bl	tcp_rst
 2931 0674 9BF80030 		ldrb	r3, [fp, #0]	@ zero_extendqisi2
 2932 0678 4BE6     		b	.L246
 2933              	.LVL152:
 2934              	.L252:
 2935              		.loc 1 629 0
 2936 067a 99F80030 		ldrb	r3, [r9, #0]	@ zero_extendqisi2
 2937 067e 03F01202 		and	r2, r3, #18
 2938 0682 122A     		cmp	r2, #18
 2939 0684 00F0F081 		beq	.L348
 2940              	.LVL153:
 2941              	.L260:
 2942              		.loc 1 674 0
 2943 0688 D806     		lsls	r0, r3, #27
 2944 068a 7FF540AE 		bpl	.L330
 2945              		.loc 1 677 0
 2946 068e D8F80010 		ldr	r1, [r8, #0]
 2947              		.loc 1 676 0
 2948 0692 40F20003 		movw	r3, #:lower16:.LANCHOR4
 2949 0696 91F802C0 		ldrb	ip, [r1, #2]	@ zero_extendqisi2
 2950 069a CE78     		ldrb	r6, [r1, #3]	@ zero_extendqisi2
 2951 069c 40F20000 		movw	r0, #:lower16:.LANCHOR1
 2952 06a0 40F20002 		movw	r2, #:lower16:.LANCHOR3
 2953 06a4 C0F20003 		movt	r3, #:upper16:.LANCHOR4
 2954 06a8 C0F20000 		movt	r0, #:upper16:.LANCHOR1
 2955 06ac C0F20002 		movt	r2, #:upper16:.LANCHOR3
 2956 06b0 4CEA0626 		orr	r6, ip, r6, lsl #8
 2957 06b4 1F88     		ldrh	r7, [r3, #0]
 2958 06b6 D0F800E0 		ldr	lr, [r0, #0]
 2959 06ba 1068     		ldr	r0, [r2, #0]
 2960 06bc 0096     		str	r6, [sp, #0]
 2961 06be 91F800C0 		ldrb	ip, [r1, #0]	@ zero_extendqisi2
 2962 06c2 4E78     		ldrb	r6, [r1, #1]	@ zero_extendqisi2
 2963 06c4 3A4B     		ldr	r3, .L366+4
ARM GAS  /var/folders/5n/p_75w94d66l9ssrldxqdhh700000gn/T//ccYNR3t7.s 			page 53


 2964 06c6 3B4A     		ldr	r2, .L366+8
 2965 06c8 4CEA0626 		orr	r6, ip, r6, lsl #8
 2966 06cc 07EB0E01 		add	r1, r7, lr
 2967 06d0 0196     		str	r6, [sp, #4]
 2968 06d2 FFF7FEFF 		bl	tcp_rst
 2969 06d6 9BF80030 		ldrb	r3, [fp, #0]	@ zero_extendqisi2
 2970 06da 1AE6     		b	.L246
 2971              	.LVL154:
 2972              	.L316:
 2973              	.LBE19:
 2974              	.LBE28:
 2975              		.loc 1 209 0
 2976 06dc 364B     		ldr	r3, .L366+12
 2977 06de D3F800A0 		ldr	sl, [r3, #0]
 2978              	.LVL155:
 2979 06e2 BAF1000F 		cmp	sl, #0
 2980 06e6 4DD0     		beq	.L349
 2981              		.loc 1 213 0
 2982 06e8 DFF8C4B0 		ldr	fp, .L366+4
 2983 06ec 5446     		mov	r4, sl
 2984 06ee 02E0     		b	.L324
 2985              	.LVL156:
 2986              	.L224:
 2987              		.loc 1 209 0
 2988 06f0 E468     		ldr	r4, [r4, #12]
 2989              	.LVL157:
 2990 06f2 002C     		cmp	r4, #0
 2991 06f4 48D0     		beq	.L222
 2992              	.L324:
 2993              		.loc 1 210 0
 2994 06f6 237C     		ldrb	r3, [r4, #16]	@ zero_extendqisi2
 2995 06f8 0A2B     		cmp	r3, #10
 2996 06fa 01D0     		beq	.L223
 2997              		.loc 1 210 0 is_stmt 0 discriminator 1
 2998 06fc FFF7FEFF 		bl	port_halt
 2999              	.L223:
 3000              		.loc 1 211 0 is_stmt 1
 3001 0700 D8F80030 		ldr	r3, [r8, #0]
 3002 0704 E28B     		ldrh	r2, [r4, #30]
 3003 0706 1978     		ldrb	r1, [r3, #0]	@ zero_extendqisi2
 3004 0708 5878     		ldrb	r0, [r3, #1]	@ zero_extendqisi2
 3005 070a 41EA0021 		orr	r1, r1, r0, lsl #8
 3006 070e 8A42     		cmp	r2, r1
 3007 0710 EED1     		bne	.L224
 3008              		.loc 1 212 0 discriminator 1
 3009 0712 9878     		ldrb	r0, [r3, #2]	@ zero_extendqisi2
 3010 0714 93F803C0 		ldrb	ip, [r3, #3]	@ zero_extendqisi2
 3011 0718 A18B     		ldrh	r1, [r4, #28]
 3012              		.loc 1 211 0 discriminator 1
 3013 071a 40EA0C20 		orr	r0, r0, ip, lsl #8
 3014 071e 8142     		cmp	r1, r0
 3015 0720 E6D1     		bne	.L224
 3016              		.loc 1 212 0
 3017 0722 D4F804C0 		ldr	ip, [r4, #4]
 3018 0726 DBF80000 		ldr	r0, [fp, #0]
 3019 072a 8445     		cmp	ip, r0
 3020 072c E0D1     		bne	.L224
ARM GAS  /var/folders/5n/p_75w94d66l9ssrldxqdhh700000gn/T//ccYNR3t7.s 			page 54


 3021              		.loc 1 213 0
 3022 072e D4F800C0 		ldr	ip, [r4, #0]
 3023 0732 3868     		ldr	r0, [r7, #0]
 3024 0734 8445     		cmp	ip, r0
 3025 0736 DBD1     		bne	.L224
 3026              	.LBB29:
 3027              	.LBB30:
 3028              		.loc 1 533 0
 3029 0738 99F80030 		ldrb	r3, [r9, #0]	@ zero_extendqisi2
 3030 073c 5807     		lsls	r0, r3, #29
 3031 073e A246     		mov	sl, r4
 3032              	.LVL158:
 3033 0740 1446     		mov	r4, r2
 3034              	.LVL159:
 3035 0742 19D4     		bmi	.L318
 3036              	.LVL160:
 3037              		.loc 1 537 0
 3038 0744 9A07     		lsls	r2, r3, #30
 3039 0746 40F1EC81 		bpl	.L226
 3040              		.loc 1 540 0
 3041 074a 40F20002 		movw	r2, #:lower16:.LANCHOR1
 3042 074e C0F20002 		movt	r2, #:upper16:.LANCHOR1
 3043 0752 DAF82430 		ldr	r3, [sl, #36]
 3044 0756 1568     		ldr	r5, [r2, #0]
 3045 0758 EB1A     		subs	r3, r5, r3
 3046 075a 05D4     		bmi	.L227
 3047 075c BAF82820 		ldrh	r2, [sl, #40]
 3048 0760 9B1A     		subs	r3, r3, r2
 3049 0762 002B     		cmp	r3, #0
 3050 0764 40F3F581 		ble	.L350
 3051              	.L227:
 3052              		.loc 1 552 0
 3053 0768 40F20000 		movw	r0, #:lower16:.LANCHOR4
 3054 076c C0F20000 		movt	r0, #:upper16:.LANCHOR4
 3055 0770 0388     		ldrh	r3, [r0, #0]
 3056 0772 002B     		cmp	r3, #0
 3057 0774 40F0DC81 		bne	.L351
 3058              	.LVL161:
 3059              	.L318:
 3060              	.LBE30:
 3061              	.LBE29:
 3062              		.loc 1 422 0
 3063 0778 3046     		mov	r0, r6
 3064              		.loc 1 427 0
 3065 077a 03B0     		add	sp, sp, #12
 3066 077c BDE8F04F 		pop	{r4, r5, r6, r7, r8, r9, sl, fp, lr}
 3067              		.loc 1 422 0
 3068 0780 FFF7FEBF 		b	pbuf_free
 3069              	.LVL162:
 3070              	.L349:
 3071              		.loc 1 209 0
 3072 0784 D8F80030 		ldr	r3, [r8, #0]
 3073              	.LVL163:
 3074              	.L222:
 3075              		.loc 1 228 0
 3076 0788 DFF830B0 		ldr	fp, .L366+16
 3077 078c DBF800A0 		ldr	sl, [fp, #0]
ARM GAS  /var/folders/5n/p_75w94d66l9ssrldxqdhh700000gn/T//ccYNR3t7.s 			page 55


 3078              	.LVL164:
 3079 0790 BAF1000F 		cmp	sl, #0
 3080 0794 00F0B180 		beq	.L229
 3081 0798 9A78     		ldrb	r2, [r3, #2]	@ zero_extendqisi2
 3082 079a D978     		ldrb	r1, [r3, #3]	@ zero_extendqisi2
 3083              		.loc 1 240 0
 3084 079c D7F800C0 		ldr	ip, [r7, #0]
 3085              		.loc 1 228 0
 3086 07a0 42EA0121 		orr	r1, r2, r1, lsl #8
 3087              		.loc 1 240 0
 3088 07a4 5446     		mov	r4, sl
 3089              		.loc 1 227 0
 3090 07a6 0020     		movs	r0, #0
 3091 07a8 10E0     		b	.L232
 3092              	.L367:
 3093 07aa 00BF     		.align	2
 3094              	.L366:
 3095 07ac 00000000 		.word	tcp_tmp_pcb
 3096 07b0 00000000 		.word	current_iphdr_src
 3097 07b4 00000000 		.word	current_iphdr_dest
 3098 07b8 00000000 		.word	tcp_tw_pcbs
 3099 07bc 00000000 		.word	tcp_listen_pcbs
 3100              	.LVL165:
 3101              	.L230:
 3102              		.loc 1 228 0
 3103 07c0 E268     		ldr	r2, [r4, #12]
 3104              	.LVL166:
 3105 07c2 002A     		cmp	r2, #0
 3106 07c4 00F09980 		beq	.L229
 3107 07c8 2046     		mov	r0, r4
 3108 07ca 1446     		mov	r4, r2
 3109              	.LVL167:
 3110              	.L232:
 3111              		.loc 1 229 0
 3112 07cc A28B     		ldrh	r2, [r4, #28]
 3113 07ce 8A42     		cmp	r2, r1
 3114 07d0 F6D1     		bne	.L230
 3115              		.loc 1 240 0
 3116 07d2 2268     		ldr	r2, [r4, #0]
 3117 07d4 6245     		cmp	r2, ip
 3118 07d6 01D0     		beq	.L231
 3119              		.loc 1 241 0 discriminator 1
 3120 07d8 002A     		cmp	r2, #0
 3121 07da F1D1     		bne	.L230
 3122              	.L231:
 3123              		.loc 1 261 0
 3124 07dc 28B1     		cbz	r0, .L233
 3125              		.loc 1 262 0
 3126 07de E268     		ldr	r2, [r4, #12]
 3127              		.loc 1 266 0
 3128 07e0 CBF80040 		str	r4, [fp, #0]
 3129              		.loc 1 262 0
 3130 07e4 C260     		str	r2, [r0, #12]
 3131              		.loc 1 264 0
 3132 07e6 C4F80CA0 		str	sl, [r4, #12]
 3133              	.L233:
 3134              	.LVL168:
ARM GAS  /var/folders/5n/p_75w94d66l9ssrldxqdhh700000gn/T//ccYNR3t7.s 			page 56


 3135              	.LBB33:
 3136              	.LBB34:
 3137              		.loc 1 449 0
 3138 07ea 99F80020 		ldrb	r2, [r9, #0]	@ zero_extendqisi2
 3139 07ee 12F0100A 		ands	sl, r2, #16
 3140 07f2 40F0C880 		bne	.L352
 3141              		.loc 1 456 0
 3142 07f6 9007     		lsls	r0, r2, #30
 3143 07f8 BED5     		bpl	.L318
 3144              		.loc 1 464 0
 3145 07fa 607C     		ldrb	r0, [r4, #17]	@ zero_extendqisi2
 3146 07fc FFF7FEFF 		bl	tcp_alloc
 3147              	.LVL169:
 3148              		.loc 1 468 0
 3149 0800 8146     		mov	r9, r0
 3150 0802 0028     		cmp	r0, #0
 3151 0804 00F0B781 		beq	.L353
 3152              		.loc 1 479 0
 3153 0808 BC4B     		ldr	r3, .L368
 3154              		.loc 1 477 0
 3155 080a 3868     		ldr	r0, [r7, #0]
 3156              	.LVL170:
 3157              		.loc 1 478 0
 3158 080c A18B     		ldrh	r1, [r4, #28]
 3159              		.loc 1 479 0
 3160 080e 1A68     		ldr	r2, [r3, #0]
 3161              		.loc 1 477 0
 3162 0810 C9F80000 		str	r0, [r9, #0]
 3163              		.loc 1 480 0
 3164 0814 D8F80030 		ldr	r3, [r8, #0]
 3165              		.loc 1 478 0
 3166 0818 A9F81C10 		strh	r1, [r9, #28]	@ movhi
 3167              		.loc 1 482 0
 3168 081c 40F20000 		movw	r0, #:lower16:.LANCHOR1
 3169              		.loc 1 479 0
 3170 0820 C9F80420 		str	r2, [r9, #4]
 3171              		.loc 1 482 0
 3172 0824 C0F20000 		movt	r0, #:upper16:.LANCHOR1
 3173              		.loc 1 480 0
 3174 0828 93F801C0 		ldrb	ip, [r3, #1]	@ zero_extendqisi2
 3175 082c 93F800E0 		ldrb	lr, [r3, #0]	@ zero_extendqisi2
 3176              		.loc 1 482 0
 3177 0830 0268     		ldr	r2, [r0, #0]
 3178              		.loc 1 487 0
 3179 0832 6769     		ldr	r7, [r4, #20]
 3180              		.loc 1 489 0
 3181 0834 A569     		ldr	r5, [r4, #24]
 3182              		.loc 1 495 0
 3183 0836 40F20001 		movw	r1, #:lower16:tcp_active_pcbs
 3184 083a C0F20001 		movt	r1, #:upper16:tcp_active_pcbs
 3185              		.loc 1 480 0
 3186 083e 4EEA0C2E 		orr	lr, lr, ip, lsl #8
 3187              		.loc 1 495 0
 3188 0842 0868     		ldr	r0, [r1, #0]
 3189              		.loc 1 480 0
 3190 0844 A9F81EE0 		strh	lr, [r9, #30]	@ movhi
 3191              		.loc 1 482 0
ARM GAS  /var/folders/5n/p_75w94d66l9ssrldxqdhh700000gn/T//ccYNR3t7.s 			page 57


 3192 0848 511C     		adds	r1, r2, #1
 3193              		.loc 1 481 0
 3194 084a 4FF0030E 		mov	lr, #3
 3195 084e 89F810E0 		strb	lr, [r9, #16]
 3196              		.loc 1 482 0
 3197 0852 C9F82410 		str	r1, [r9, #36]
 3198              		.loc 1 483 0
 3199 0856 C9F82C10 		str	r1, [r9, #44]
 3200              		.loc 1 484 0
 3201 085a 997B     		ldrb	r1, [r3, #14]	@ zero_extendqisi2
 3202 085c DB7B     		ldrb	r3, [r3, #15]	@ zero_extendqisi2
 3203              		.loc 1 487 0
 3204 085e C9F81470 		str	r7, [r9, #20]
 3205              		.loc 1 484 0
 3206 0862 41EA0323 		orr	r3, r1, r3, lsl #8
 3207              		.loc 1 486 0
 3208 0866 013A     		subs	r2, r2, #1
 3209 0868 C9F86020 		str	r2, [r9, #96]
 3210              		.loc 1 484 0
 3211 086c A9F85C30 		strh	r3, [r9, #92]	@ movhi
 3212              		.loc 1 485 0
 3213 0870 A9F85430 		strh	r3, [r9, #84]	@ movhi
 3214              		.loc 1 489 0
 3215 0874 C9F81850 		str	r5, [r9, #24]
 3216              		.loc 1 492 0
 3217 0878 237A     		ldrb	r3, [r4, #8]	@ zero_extendqisi2
 3218              		.loc 1 495 0
 3219 087a C9F80C00 		str	r0, [r9, #12]
 3220 087e 40F20002 		movw	r2, #:lower16:tcp_active_pcbs
 3221 0882 C0F20002 		movt	r2, #:upper16:tcp_active_pcbs
 3222              		.loc 1 492 0
 3223 0886 23F07303 		bic	r3, r3, #115
 3224 088a 89F80830 		strb	r3, [r9, #8]
 3225              		.loc 1 495 0
 3226 088e C2F80090 		str	r9, [r2, #0]
 3227 0892 FFF7FEFF 		bl	tcp_timer_needed
 3228              		.loc 1 498 0
 3229 0896 4846     		mov	r0, r9
 3230 0898 FFF7FEFF 		bl	tcp_parseopt
 3231              		.loc 1 500 0
 3232 089c 09F10401 		add	r1, r9, #4
 3233 08a0 B9F83800 		ldrh	r0, [r9, #56]
 3234 08a4 FFF7FEFF 		bl	tcp_eff_send_mss
 3235              		.loc 1 506 0
 3236 08a8 1221     		movs	r1, #18
 3237              		.loc 1 500 0
 3238 08aa A9F83800 		strh	r0, [r9, #56]	@ movhi
 3239              		.loc 1 506 0
 3240 08ae 4846     		mov	r0, r9
 3241 08b0 FFF7FEFF 		bl	tcp_enqueue_flags
 3242              	.LVL171:
 3243              		.loc 1 507 0
 3244 08b4 0028     		cmp	r0, #0
 3245 08b6 40F08280 		bne	.L354
 3246              		.loc 1 511 0
 3247 08ba 4846     		mov	r0, r9
 3248              	.LVL172:
ARM GAS  /var/folders/5n/p_75w94d66l9ssrldxqdhh700000gn/T//ccYNR3t7.s 			page 58


 3249 08bc FFF7FEFF 		bl	tcp_output
 3250 08c0 5AE7     		b	.L318
 3251              	.LVL173:
 3252              	.L239:
 3253              	.LBE34:
 3254              	.LBE33:
 3255              		.loc 1 304 0 discriminator 2
 3256 08c2 3846     		mov	r0, r7
 3257 08c4 2146     		mov	r1, r4
 3258 08c6 3B46     		mov	r3, r7
 3259 08c8 FFF7FEFF 		bl	tcp_recv_null
 3260              	.LVL174:
 3261 08cc 04E5     		b	.L240
 3262              	.LVL175:
 3263              	.L344:
 3264              	.LBB37:
 3265              	.LBB20:
 3266              		.loc 1 584 0
 3267 08ce 40F20000 		movw	r0, #:lower16:.LANCHOR3
 3268 08d2 C0F20000 		movt	r0, #:upper16:.LANCHOR3
 3269 08d6 A26D     		ldr	r2, [r4, #88]
 3270 08d8 0368     		ldr	r3, [r0, #0]
 3271 08da 9A42     		cmp	r2, r3
 3272 08dc 7FF417AD 		bne	.L330
 3273              	.LVL176:
 3274              	.L245:
 3275              		.loc 1 597 0
 3276 08e0 9BF80030 		ldrb	r3, [fp, #0]	@ zero_extendqisi2
 3277              		.loc 1 598 0
 3278 08e4 94F82020 		ldrb	r2, [r4, #32]	@ zero_extendqisi2
 3279              		.loc 1 597 0
 3280 08e8 43F00803 		orr	r3, r3, #8
 3281              		.loc 1 598 0
 3282 08ec 22F00102 		bic	r2, r2, #1
 3283              		.loc 1 597 0
 3284 08f0 8BF80030 		strb	r3, [fp, #0]
 3285              		.loc 1 598 0
 3286 08f4 84F82020 		strb	r2, [r4, #32]
 3287 08f8 0BE5     		b	.L246
 3288              	.LVL177:
 3289              	.L229:
 3290              	.LBE20:
 3291              	.LBE37:
 3292              		.loc 1 415 0
 3293 08fa 1A7B     		ldrb	r2, [r3, #12]	@ zero_extendqisi2
 3294 08fc 587B     		ldrb	r0, [r3, #13]	@ zero_extendqisi2
 3295 08fe 42EA0020 		orr	r0, r2, r0, lsl #8
 3296 0902 FFF7FEFF 		bl	lwip_ntohs
 3297 0906 4307     		lsls	r3, r0, #29
 3298 0908 3FF536AF 		bmi	.L318
 3299              		.loc 1 416 0
 3300 090c B5F8A0E0 		ldrh	lr, [r5, #160]
 3301              		.loc 1 417 0
 3302 0910 B5F89640 		ldrh	r4, [r5, #150]
 3303              		.loc 1 420 0
 3304 0914 D8F800C0 		ldr	ip, [r8, #0]
 3305              		.loc 1 418 0
ARM GAS  /var/folders/5n/p_75w94d66l9ssrldxqdhh700000gn/T//ccYNR3t7.s 			page 59


 3306 0918 40F20002 		movw	r2, #:lower16:.LANCHOR3
 3307              		.loc 1 417 0
 3308 091c 0134     		adds	r4, r4, #1
 3309              		.loc 1 418 0
 3310 091e C0F20002 		movt	r2, #:upper16:.LANCHOR3
 3311              		.loc 1 416 0
 3312 0922 0EF1010E 		add	lr, lr, #1
 3313 0926 A5F8A0E0 		strh	lr, [r5, #160]	@ movhi
 3314              		.loc 1 417 0
 3315 092a A5F89640 		strh	r4, [r5, #150]	@ movhi
 3316              		.loc 1 418 0
 3317 092e 9CF80350 		ldrb	r5, [ip, #3]	@ zero_extendqisi2
 3318 0932 1068     		ldr	r0, [r2, #0]
 3319 0934 9CF80240 		ldrb	r4, [ip, #2]	@ zero_extendqisi2
 3320 0938 40F20003 		movw	r3, #:lower16:.LANCHOR4
 3321 093c 40F20002 		movw	r2, #:lower16:.LANCHOR1
 3322 0940 C0F20003 		movt	r3, #:upper16:.LANCHOR4
 3323 0944 C0F20002 		movt	r2, #:upper16:.LANCHOR1
 3324 0948 44EA0524 		orr	r4, r4, r5, lsl #8
 3325 094c 1F88     		ldrh	r7, [r3, #0]
 3326 094e 1168     		ldr	r1, [r2, #0]
 3327 0950 0094     		str	r4, [sp, #0]
 3328 0952 9CF80040 		ldrb	r4, [ip, #0]	@ zero_extendqisi2
 3329 0956 9CF80150 		ldrb	r5, [ip, #1]	@ zero_extendqisi2
 3330 095a 694A     		ldr	r2, .L368+4
 3331 095c 674B     		ldr	r3, .L368
 3332 095e 44EA0524 		orr	r4, r4, r5, lsl #8
 3333 0962 7918     		adds	r1, r7, r1
 3334 0964 0194     		str	r4, [sp, #4]
 3335 0966 FFF7FEFF 		bl	tcp_rst
 3336 096a 05E7     		b	.L318
 3337              	.LVL178:
 3338              	.L248:
 3339              	.LBB38:
 3340              	.LBB21:
 3341              		.loc 1 596 0
 3342 096c 002B     		cmp	r3, #0
 3343 096e B7D1     		bne	.L245
 3344 0970 FFF7FEFF 		bl	port_halt
 3345 0974 B4E7     		b	.L245
 3346              	.LVL179:
 3347              	.L345:
 3348              	.LBE21:
 3349              	.LBE38:
 3350              		.loc 1 353 0
 3351 0976 DAF80000 		ldr	r0, [sl, #0]
 3352 097a FFF7FEFF 		bl	pbuf_free
 3353              	.L332:
 3354              		.loc 1 354 0
 3355 097e 2046     		mov	r0, r4
 3356 0980 FFF7FEFF 		bl	tcp_abort
 3357              		.loc 1 355 0
 3358 0984 D6E4     		b	.L303
 3359              	.LVL180:
 3360              	.L352:
 3361              	.LBB39:
 3362              	.LBB35:
ARM GAS  /var/folders/5n/p_75w94d66l9ssrldxqdhh700000gn/T//ccYNR3t7.s 			page 60


 3363              		.loc 1 453 0
 3364 0986 0091     		str	r1, [sp, #0]
 3365 0988 5F78     		ldrb	r7, [r3, #1]	@ zero_extendqisi2
 3366 098a 1C78     		ldrb	r4, [r3, #0]	@ zero_extendqisi2
 3367              	.LVL181:
 3368 098c 40F20001 		movw	r1, #:lower16:.LANCHOR3
 3369 0990 40F20002 		movw	r2, #:lower16:.LANCHOR4
 3370 0994 40F20003 		movw	r3, #:lower16:.LANCHOR1
 3371 0998 C0F20001 		movt	r1, #:upper16:.LANCHOR3
 3372 099c C0F20002 		movt	r2, #:upper16:.LANCHOR4
 3373 09a0 C0F20003 		movt	r3, #:upper16:.LANCHOR1
 3374 09a4 1588     		ldrh	r5, [r2, #0]
 3375 09a6 0868     		ldr	r0, [r1, #0]
 3376 09a8 1968     		ldr	r1, [r3, #0]
 3377 09aa 554A     		ldr	r2, .L368+4
 3378 09ac 534B     		ldr	r3, .L368
 3379 09ae 44EA0724 		orr	r4, r4, r7, lsl #8
 3380 09b2 0130     		adds	r0, r0, #1
 3381 09b4 6918     		adds	r1, r5, r1
 3382 09b6 0194     		str	r4, [sp, #4]
 3383 09b8 FFF7FEFF 		bl	tcp_rst
 3384 09bc DCE6     		b	.L318
 3385              	.LVL182:
 3386              	.L354:
 3387              		.loc 1 508 0
 3388 09be 4846     		mov	r0, r9
 3389              	.LVL183:
 3390 09c0 5146     		mov	r1, sl
 3391 09c2 FFF7FEFF 		bl	tcp_abandon
 3392 09c6 D7E6     		b	.L318
 3393              	.LVL184:
 3394              	.L310:
 3395              	.LBE35:
 3396              	.LBE39:
 3397              		.loc 1 362 0 discriminator 2
 3398 09c8 3046     		mov	r0, r6
 3399 09ca 2146     		mov	r1, r4
 3400 09cc DAF80020 		ldr	r2, [sl, #0]
 3401 09d0 3346     		mov	r3, r6
 3402 09d2 FFF7FEFF 		bl	tcp_recv_null
 3403              	.LVL185:
 3404 09d6 28E5     		b	.L311
 3405              	.LVL186:
 3406              	.L269:
 3407              	.LBB40:
 3408              	.LBB22:
 3409              		.loc 1 722 0
 3410 09d8 9B07     		lsls	r3, r3, #30
 3411 09da 7FF598AC 		bpl	.L330
 3412 09de 40F20000 		movw	r0, #:lower16:.LANCHOR1
 3413 09e2 C0F20000 		movt	r0, #:upper16:.LANCHOR1
 3414 09e6 626A     		ldr	r2, [r4, #36]
 3415 09e8 0368     		ldr	r3, [r0, #0]
 3416 09ea 013A     		subs	r2, r2, #1
 3417 09ec 9A42     		cmp	r2, r3
 3418 09ee 7FF48EAC 		bne	.L330
 3419              		.loc 1 724 0
ARM GAS  /var/folders/5n/p_75w94d66l9ssrldxqdhh700000gn/T//ccYNR3t7.s 			page 61


 3420 09f2 2046     		mov	r0, r4
 3421 09f4 FFF7FEFF 		bl	tcp_rexmit
 3422 09f8 9BF80030 		ldrb	r3, [fp, #0]	@ zero_extendqisi2
 3423 09fc 89E4     		b	.L246
 3424              	.L279:
 3425              		.loc 1 751 0
 3426 09fe D106     		lsls	r1, r2, #27
 3427 0a00 7FF587AC 		bpl	.L246
 3428 0a04 40F20000 		movw	r0, #:lower16:.LANCHOR3
 3429 0a08 C0F20000 		movt	r0, #:upper16:.LANCHOR3
 3430 0a0c A16D     		ldr	r1, [r4, #88]
 3431 0a0e 0268     		ldr	r2, [r0, #0]
 3432 0a10 9142     		cmp	r1, r2
 3433 0a12 7FF47EAC 		bne	.L246
 3434              		.loc 1 752 0
 3435 0a16 0622     		movs	r2, #6
 3436 0a18 2274     		strb	r2, [r4, #16]
 3437 0a1a 7AE4     		b	.L246
 3438              	.L337:
 3439              		.loc 1 771 0
 3440 0a1c 1360     		str	r3, [r2, #0]
 3441              	.L295:
 3442 0a1e E268     		ldr	r2, [r4, #12]
 3443 0a20 DA60     		str	r2, [r3, #12]
 3444 0a22 83E5     		b	.L286
 3445              	.L347:
 3446              	.LBB13:
 3447              		.loc 1 688 0
 3448 0a24 A369     		ldr	r3, [r4, #24]
 3449              		.loc 1 685 0
 3450 0a26 0422     		movs	r2, #4
 3451 0a28 2274     		strb	r2, [r4, #16]
 3452              		.loc 1 688 0
 3453 0a2a 002B     		cmp	r3, #0
 3454 0a2c 00F08A80 		beq	.L355
 3455              	.L271:
 3456              		.loc 1 691 0
 3457 0a30 6069     		ldr	r0, [r4, #20]
 3458 0a32 2146     		mov	r1, r4
 3459 0a34 0022     		movs	r2, #0
 3460 0a36 9847     		blx	r3
 3461              	.LVL187:
 3462              		.loc 1 692 0
 3463 0a38 0028     		cmp	r0, #0
 3464 0a3a 6BD1     		bne	.L356
 3465              		.loc 1 704 0
 3466 0a3c 2046     		mov	r0, r4
 3467              	.LVL188:
 3468              		.loc 1 701 0
 3469 0a3e B4F85260 		ldrh	r6, [r4, #82]
 3470              	.LVL189:
 3471              		.loc 1 704 0
 3472 0a42 FFF7FEFF 		bl	tcp_receive
 3473              		.loc 1 707 0
 3474 0a46 B4F86C30 		ldrh	r3, [r4, #108]
 3475 0a4a 13B1     		cbz	r3, .L274
 3476              		.loc 1 708 0
ARM GAS  /var/folders/5n/p_75w94d66l9ssrldxqdhh700000gn/T//ccYNR3t7.s 			page 62


 3477 0a4c 013B     		subs	r3, r3, #1
 3478 0a4e A4F86C30 		strh	r3, [r4, #108]	@ movhi
 3479              	.L274:
 3480              		.loc 1 711 0
 3481 0a52 012E     		cmp	r6, #1
 3482 0a54 228F     		ldrh	r2, [r4, #56]
 3483 0a56 61D0     		beq	.L357
 3484              	.L276:
 3485              		.loc 1 713 0
 3486 0a58 9BF80030 		ldrb	r3, [fp, #0]	@ zero_extendqisi2
 3487              		.loc 1 711 0
 3488 0a5c A4F85220 		strh	r2, [r4, #82]	@ movhi
 3489              		.loc 1 713 0
 3490 0a60 9A06     		lsls	r2, r3, #26
 3491 0a62 7FF556AC 		bpl	.L246
 3492 0a66 CAE5     		b	.L331
 3493              	.LVL190:
 3494              	.L348:
 3495              	.LBE13:
 3496              		.loc 1 630 0
 3497 0a68 A36F     		ldr	r3, [r4, #120]
 3498 0a6a DB68     		ldr	r3, [r3, #12]
 3499 0a6c 1979     		ldrb	r1, [r3, #4]	@ zero_extendqisi2
 3500 0a6e 5E79     		ldrb	r6, [r3, #5]	@ zero_extendqisi2
 3501              	.LVL191:
 3502 0a70 9A79     		ldrb	r2, [r3, #6]	@ zero_extendqisi2
 3503 0a72 DB79     		ldrb	r3, [r3, #7]	@ zero_extendqisi2
 3504 0a74 41EA0621 		orr	r1, r1, r6, lsl #8
 3505 0a78 41EA0242 		orr	r2, r1, r2, lsl #16
 3506 0a7c 42EA0360 		orr	r0, r2, r3, lsl #24
 3507 0a80 FFF7FEFF 		bl	lwip_ntohl
 3508 0a84 40F20001 		movw	r1, #:lower16:.LANCHOR3
 3509 0a88 C0F20001 		movt	r1, #:upper16:.LANCHOR3
 3510 0a8c 0130     		adds	r0, r0, #1
 3511 0a8e 0B68     		ldr	r3, [r1, #0]
 3512 0a90 9842     		cmp	r0, r3
 3513 0a92 76D0     		beq	.L261
 3514 0a94 1B4B     		ldr	r3, .L368+8
 3515 0a96 1B78     		ldrb	r3, [r3, #0]	@ zero_extendqisi2
 3516 0a98 F6E5     		b	.L260
 3517              	.LVL192:
 3518              	.L336:
 3519              		.loc 1 771 0
 3520 0a9a E268     		ldr	r2, [r4, #12]
 3521 0a9c 1A4B     		ldr	r3, .L368+12
 3522 0a9e 1A60     		str	r2, [r3, #0]
 3523 0aa0 44E5     		b	.L286
 3524              	.L346:
 3525              		.loc 1 742 0
 3526 0aa2 94F82030 		ldrb	r3, [r4, #32]	@ zero_extendqisi2
 3527 0aa6 43F00203 		orr	r3, r3, #2
 3528 0aaa 84F82030 		strb	r3, [r4, #32]
 3529              		.loc 1 743 0
 3530 0aae 2046     		mov	r0, r4
 3531 0ab0 FFF7FEFF 		bl	tcp_pcb_purge
 3532              		.loc 1 744 0
 3533 0ab4 40F20001 		movw	r1, #:lower16:tcp_active_pcbs
ARM GAS  /var/folders/5n/p_75w94d66l9ssrldxqdhh700000gn/T//ccYNR3t7.s 			page 63


 3534 0ab8 C0F20001 		movt	r1, #:upper16:tcp_active_pcbs
 3535 0abc 0B68     		ldr	r3, [r1, #0]
 3536 0abe 9C42     		cmp	r4, r3
 3537 0ac0 07D0     		beq	.L358
 3538 0ac2 124A     		ldr	r2, .L368+16
 3539 0ac4 1360     		str	r3, [r2, #0]
 3540              	.L283:
 3541 0ac6 B3B1     		cbz	r3, .L359
 3542 0ac8 D968     		ldr	r1, [r3, #12]
 3543 0aca 8C42     		cmp	r4, r1
 3544 0acc 0FD0     		beq	.L360
 3545 0ace 0B46     		mov	r3, r1
 3546 0ad0 F9E7     		b	.L283
 3547              	.L358:
 3548 0ad2 E268     		ldr	r2, [r4, #12]
 3549 0ad4 0C4B     		ldr	r3, .L368+12
 3550 0ad6 1A60     		str	r2, [r3, #0]
 3551              	.L282:
 3552              		.loc 1 746 0
 3553 0ad8 0D4B     		ldr	r3, .L368+20
 3554 0ada 1A68     		ldr	r2, [r3, #0]
 3555 0adc 1C60     		str	r4, [r3, #0]
 3556              		.loc 1 745 0
 3557 0ade 0A23     		movs	r3, #10
 3558 0ae0 2374     		strb	r3, [r4, #16]
 3559              		.loc 1 746 0
 3560 0ae2 E260     		str	r2, [r4, #12]
 3561 0ae4 FFF7FEFF 		bl	tcp_timer_needed
 3562 0ae8 9BF80030 		ldrb	r3, [fp, #0]	@ zero_extendqisi2
 3563 0aec 11E4     		b	.L246
 3564              	.L360:
 3565              		.loc 1 744 0
 3566 0aee E168     		ldr	r1, [r4, #12]
 3567 0af0 1360     		str	r3, [r2, #0]
 3568 0af2 D960     		str	r1, [r3, #12]
 3569 0af4 F0E7     		b	.L282
 3570              	.L359:
 3571 0af6 1360     		str	r3, [r2, #0]
 3572 0af8 EEE7     		b	.L282
 3573              	.L369:
 3574 0afa 00BF     		.align	2
 3575              	.L368:
 3576 0afc 00000000 		.word	current_iphdr_src
 3577 0b00 00000000 		.word	current_iphdr_dest
 3578 0b04 00000000 		.word	.LANCHOR2
 3579 0b08 00000000 		.word	tcp_active_pcbs
 3580 0b0c 00000000 		.word	tcp_tmp_pcb
 3581 0b10 00000000 		.word	tcp_tw_pcbs
 3582              	.LVL193:
 3583              	.L356:
 3584              	.LBB14:
 3585              		.loc 1 696 0
 3586 0b14 0A30     		adds	r0, r0, #10
 3587              	.LVL194:
 3588 0b16 3FF40DAC 		beq	.L303
 3589 0b1a 30E7     		b	.L332
 3590              	.LVL195:
ARM GAS  /var/folders/5n/p_75w94d66l9ssrldxqdhh700000gn/T//ccYNR3t7.s 			page 64


 3591              	.L357:
 3592              		.loc 1 711 0
 3593 0b1c 5200     		lsls	r2, r2, #1
 3594 0b1e 92B2     		uxth	r2, r2
 3595 0b20 9AE7     		b	.L276
 3596              	.LVL196:
 3597              	.L226:
 3598              	.LBE14:
 3599              	.LBE22:
 3600              	.LBE40:
 3601              	.LBB41:
 3602              	.LBB31:
 3603              		.loc 1 546 0
 3604 0b22 DB07     		lsls	r3, r3, #31
 3605              		.loc 1 549 0
 3606 0b24 42BF     		ittt	mi
 3607 0b26 404B     		ldrmi	r3, .L370
 3608 0b28 1B68     		ldrmi	r3, [r3, #0]
 3609 0b2a CAF83030 		strmi	r3, [sl, #48]
 3610 0b2e 1BE6     		b	.L227
 3611              	.L351:
 3612              		.loc 1 554 0
 3613 0b30 9AF82030 		ldrb	r3, [sl, #32]	@ zero_extendqisi2
 3614 0b34 43F00203 		orr	r3, r3, #2
 3615 0b38 8AF82030 		strb	r3, [sl, #32]
 3616              		.loc 1 555 0
 3617 0b3c 5046     		mov	r0, sl
 3618 0b3e FFF7FEFF 		bl	tcp_output
 3619 0b42 19E6     		b	.L318
 3620              	.LVL197:
 3621              	.L355:
 3622              	.LBE31:
 3623              	.LBE41:
 3624              	.LBB42:
 3625              	.LBB23:
 3626              	.LBB15:
 3627              		.loc 1 688 0
 3628 0b44 FFF7FEFF 		bl	port_halt
 3629              		.loc 1 691 0
 3630 0b48 A369     		ldr	r3, [r4, #24]
 3631 0b4a 002B     		cmp	r3, #0
 3632 0b4c 3FF417AF 		beq	.L332
 3633 0b50 6EE7     		b	.L271
 3634              	.LVL198:
 3635              	.L350:
 3636              	.LBE15:
 3637              	.LBE23:
 3638              	.LBE42:
 3639              	.LBB43:
 3640              	.LBB32:
 3641              		.loc 1 542 0
 3642 0b52 40F20003 		movw	r3, #:lower16:.LANCHOR4
 3643 0b56 C0F20003 		movt	r3, #:upper16:.LANCHOR4
 3644 0b5a 40F20002 		movw	r2, #:lower16:.LANCHOR3
 3645 0b5e 1F88     		ldrh	r7, [r3, #0]
 3646 0b60 324B     		ldr	r3, .L370+4
 3647 0b62 C0F20002 		movt	r2, #:upper16:.LANCHOR3
ARM GAS  /var/folders/5n/p_75w94d66l9ssrldxqdhh700000gn/T//ccYNR3t7.s 			page 65


 3648 0b66 1068     		ldr	r0, [r2, #0]
 3649 0b68 0091     		str	r1, [sp, #0]
 3650 0b6a 314A     		ldr	r2, .L370+8
 3651 0b6c 0194     		str	r4, [sp, #4]
 3652 0b6e 7919     		adds	r1, r7, r5
 3653 0b70 FFF7FEFF 		bl	tcp_rst
 3654 0b74 00E6     		b	.L318
 3655              	.LVL199:
 3656              	.L353:
 3657              	.LBE32:
 3658              	.LBE43:
 3659              	.LBB44:
 3660              	.LBB36:
 3661              		.loc 1 470 0
 3662 0b76 B5F89C30 		ldrh	r3, [r5, #156]
 3663 0b7a 0133     		adds	r3, r3, #1
 3664 0b7c A5F89C30 		strh	r3, [r5, #156]	@ movhi
 3665 0b80 FAE5     		b	.L318
 3666              	.LVL200:
 3667              	.L261:
 3668              	.LBE36:
 3669              	.LBE44:
 3670              	.LBB45:
 3671              	.LBB24:
 3672              		.loc 1 632 0
 3673 0b82 40F20002 		movw	r2, #:lower16:.LANCHOR1
 3674 0b86 C0F20002 		movt	r2, #:upper16:.LANCHOR1
 3675              		.loc 1 631 0
 3676 0b8a B4F86E60 		ldrh	r6, [r4, #110]
 3677              		.loc 1 632 0
 3678 0b8e 1368     		ldr	r3, [r2, #0]
 3679              		.loc 1 634 0
 3680 0b90 E064     		str	r0, [r4, #76]
 3681              		.loc 1 632 0
 3682 0b92 5A1C     		adds	r2, r3, #1
 3683              		.loc 1 635 0
 3684 0b94 D8F80010 		ldr	r1, [r8, #0]
 3685              		.loc 1 632 0
 3686 0b98 6262     		str	r2, [r4, #36]
 3687              		.loc 1 631 0
 3688 0b9a 701C     		adds	r0, r6, #1
 3689 0b9c A4F86E00 		strh	r0, [r4, #110]	@ movhi
 3690              		.loc 1 633 0
 3691 0ba0 E262     		str	r2, [r4, #44]
 3692              		.loc 1 635 0
 3693 0ba2 8A7B     		ldrb	r2, [r1, #14]	@ zero_extendqisi2
 3694 0ba4 C97B     		ldrb	r1, [r1, #15]	@ zero_extendqisi2
 3695              		.loc 1 640 0
 3696 0ba6 208F     		ldrh	r0, [r4, #56]
 3697              		.loc 1 636 0
 3698 0ba8 013B     		subs	r3, r3, #1
 3699              		.loc 1 635 0
 3700 0baa 42EA0122 		orr	r2, r2, r1, lsl #8
 3701              		.loc 1 636 0
 3702 0bae 2366     		str	r3, [r4, #96]
 3703              		.loc 1 637 0
 3704 0bb0 0423     		movs	r3, #4
ARM GAS  /var/folders/5n/p_75w94d66l9ssrldxqdhh700000gn/T//ccYNR3t7.s 			page 66


 3705              		.loc 1 635 0
 3706 0bb2 A4F85C20 		strh	r2, [r4, #92]	@ movhi
 3707              		.loc 1 637 0
 3708 0bb6 2374     		strb	r3, [r4, #16]
 3709              		.loc 1 640 0
 3710 0bb8 E118     		adds	r1, r4, r3
 3711 0bba FFF7FEFF 		bl	tcp_eff_send_mss
 3712              		.loc 1 647 0
 3713 0bbe B4F85230 		ldrh	r3, [r4, #82]
 3714              		.loc 1 640 0
 3715 0bc2 2087     		strh	r0, [r4, #56]	@ movhi
 3716              		.loc 1 645 0
 3717 0bc4 0A22     		movs	r2, #10
 3718 0bc6 02FB00F2 		mul	r2, r2, r0
 3719              		.loc 1 647 0
 3720 0bca 012B     		cmp	r3, #1
 3721              		.loc 1 645 0
 3722 0bcc A4F85420 		strh	r2, [r4, #84]	@ movhi
 3723              		.loc 1 647 0
 3724 0bd0 01D1     		bne	.L262
 3725 0bd2 4000     		lsls	r0, r0, #1
 3726 0bd4 80B2     		uxth	r0, r0
 3727              	.L262:
 3728              		.loc 1 648 0
 3729 0bd6 B4F87030 		ldrh	r3, [r4, #112]
 3730              		.loc 1 647 0
 3731 0bda A4F85200 		strh	r0, [r4, #82]	@ movhi
 3732              		.loc 1 648 0
 3733 0bde 0BB9     		cbnz	r3, .L263
 3734 0be0 FFF7FEFF 		bl	port_halt
 3735              	.L263:
 3736              		.loc 1 651 0
 3737 0be4 A06F     		ldr	r0, [r4, #120]
 3738              	.LVL201:
 3739              		.loc 1 649 0
 3740 0be6 B4F87020 		ldrh	r2, [r4, #112]
 3741              		.loc 1 652 0
 3742 0bea 0368     		ldr	r3, [r0, #0]
 3743              		.loc 1 649 0
 3744 0bec 013A     		subs	r2, r2, #1
 3745 0bee A4F87020 		strh	r2, [r4, #112]	@ movhi
 3746              		.loc 1 652 0
 3747 0bf2 A367     		str	r3, [r4, #120]
 3748              		.loc 1 656 0
 3749 0bf4 9BB1     		cbz	r3, .L361
 3750              		.loc 1 659 0
 3751 0bf6 0023     		movs	r3, #0
 3752 0bf8 E386     		strh	r3, [r4, #54]	@ movhi
 3753              		.loc 1 660 0
 3754 0bfa 84F84A30 		strb	r3, [r4, #74]
 3755              	.L265:
 3756              		.loc 1 663 0
 3757 0bfe FFF7FEFF 		bl	tcp_seg_free
 3758              	.LVL202:
 3759              		.loc 1 667 0
 3760 0c02 D4F88C30 		ldr	r3, [r4, #140]
 3761 0c06 002B     		cmp	r3, #0
ARM GAS  /var/folders/5n/p_75w94d66l9ssrldxqdhh700000gn/T//ccYNR3t7.s 			page 67


 3762 0c08 3FF4D7AB 		beq	.L266
 3763 0c0c 0022     		movs	r2, #0
 3764 0c0e 6069     		ldr	r0, [r4, #20]
 3765 0c10 2146     		mov	r1, r4
 3766 0c12 9847     		blx	r3
 3767              	.LVL203:
 3768              		.loc 1 668 0
 3769 0c14 0A30     		adds	r0, r0, #10
 3770              	.LVL204:
 3771 0c16 7FF4D0AB 		bne	.L266
 3772 0c1a FFF78BBB 		b	.L303
 3773              	.LVL205:
 3774              	.L361:
 3775              		.loc 1 657 0
 3776 0c1e 4FF6FF73 		movw	r3, #65535
 3777 0c22 E386     		strh	r3, [r4, #54]	@ movhi
 3778 0c24 EBE7     		b	.L265
 3779              	.L371:
 3780 0c26 00BF     		.align	2
 3781              	.L370:
 3782 0c28 00000000 		.word	tcp_ticks
 3783 0c2c 00000000 		.word	current_iphdr_src
 3784 0c30 00000000 		.word	current_iphdr_dest
 3785              	.LBE24:
 3786              	.LBE45:
 3787              		.cfi_endproc
 3788              	.LFE7:
 3789              		.size	tcp_input, .-tcp_input
 3790              		.global	tcp_input_pcb
 3791 0c34 AFF30080 		.section	.bss.tcphdr,"aw",%nobits
 3791      AFF30080 
 3791      AFF30080 
 3792              		.align	2
 3793              		.set	.LANCHOR0,. + 0
 3794              		.type	tcphdr, %object
 3795              		.size	tcphdr, 4
 3796              	tcphdr:
 3797 0000 00000000 		.space	4
 3798              		.section	.bss.seqno,"aw",%nobits
 3799              		.align	2
 3800              		.set	.LANCHOR1,. + 0
 3801              		.type	seqno, %object
 3802              		.size	seqno, 4
 3803              	seqno:
 3804 0000 00000000 		.space	4
 3805              		.section	.bss.tcplen,"aw",%nobits
 3806              		.align	1
 3807              		.set	.LANCHOR4,. + 0
 3808              		.type	tcplen, %object
 3809              		.size	tcplen, 2
 3810              	tcplen:
 3811 0000 0000     		.space	2
 3812              		.section	.bss.ackno,"aw",%nobits
 3813              		.align	2
 3814              		.set	.LANCHOR3,. + 0
 3815              		.type	ackno, %object
 3816              		.size	ackno, 4
ARM GAS  /var/folders/5n/p_75w94d66l9ssrldxqdhh700000gn/T//ccYNR3t7.s 			page 68


 3817              	ackno:
 3818 0000 00000000 		.space	4
 3819              		.section	.bss.flags,"aw",%nobits
 3820              		.set	.LANCHOR2,. + 0
 3821              		.type	flags, %object
 3822              		.size	flags, 1
 3823              	flags:
 3824 0000 00       		.space	1
 3825              		.section	.bss.recv_flags,"aw",%nobits
 3826              		.set	.LANCHOR7,. + 0
 3827              		.type	recv_flags, %object
 3828              		.size	recv_flags, 1
 3829              	recv_flags:
 3830 0000 00       		.space	1
 3831              		.section	.bss.recv_data,"aw",%nobits
 3832              		.align	2
 3833              		.set	.LANCHOR6,. + 0
 3834              		.type	recv_data, %object
 3835              		.size	recv_data, 4
 3836              	recv_data:
 3837 0000 00000000 		.space	4
 3838              		.section	.bss.iphdr,"aw",%nobits
 3839              		.align	2
 3840              		.set	.LANCHOR8,. + 0
 3841              		.type	iphdr, %object
 3842              		.size	iphdr, 4
 3843              	iphdr:
 3844 0000 00000000 		.space	4
 3845              		.section	.bss.inseg,"aw",%nobits
 3846              		.align	2
 3847              		.set	.LANCHOR5,. + 0
 3848              		.type	inseg, %object
 3849              		.size	inseg, 16
 3850              	inseg:
 3851 0000 00000000 		.space	16
 3851      00000000 
 3851      00000000 
 3851      00000000 
 3852              		.section	.bss.tcp_input_pcb,"aw",%nobits
 3853              		.align	2
 3854              		.set	.LANCHOR9,. + 0
 3855              		.type	tcp_input_pcb, %object
 3856              		.size	tcp_input_pcb, 4
 3857              	tcp_input_pcb:
 3858 0000 00000000 		.space	4
 3859              		.text
 3860              	.Letext0:
 3861              		.file 2 "/usr/local/summon/lib/gcc/arm-none-eabi/4.6.2/../../../../arm-none-eabi/include/stdint.h"
 3862              		.file 3 "../../os/various/lwip_bindings/arch/cc.h"
 3863              		.file 4 "../../ext/lwip/src/include/lwip/err.h"
 3864              		.file 5 "../../ext/lwip/src/include/lwip/mem.h"
 3865              		.file 6 "../../ext/lwip/src/include/lwip/pbuf.h"
 3866              		.file 7 "../../ext/lwip/src/include/ipv4/lwip/ip_addr.h"
 3867              		.file 8 "../../ext/lwip/src/include/lwip/netif.h"
 3868              		.file 9 "../../ext/lwip/src/include/ipv4/lwip/ip.h"
 3869              		.file 10 "../../ext/lwip/src/include/lwip/tcp.h"
 3870              		.file 11 "../../ext/lwip/src/include/lwip/tcp_impl.h"
ARM GAS  /var/folders/5n/p_75w94d66l9ssrldxqdhh700000gn/T//ccYNR3t7.s 			page 69


 3871              		.file 12 "../../ext/lwip/src/include/lwip/stats.h"
 3872              		.file 13 "../../ext/lwip/src/include/lwip/memp.h"