ARM GAS  /var/folders/5n/p_75w94d66l9ssrldxqdhh700000gn/T//cc9oN6XQ.s 			page 1


   1              		.syntax unified
   2              		.cpu cortex-m4
   3              		.fpu softvfp
   4              		.eabi_attribute 20, 1
   5              		.eabi_attribute 21, 1
   6              		.eabi_attribute 23, 3
   7              		.eabi_attribute 24, 1
   8              		.eabi_attribute 25, 1
   9              		.eabi_attribute 26, 1
  10              		.eabi_attribute 30, 2
  11              		.eabi_attribute 18, 4
  12              		.thumb
  13              		.file	"tcpip.c"
  14              		.text
  15              	.Ltext0:
  16              		.cfi_sections	.debug_frame
  17              		.section	.text.pbuf_free_int,"ax",%progbits
  18              		.align	2
  19              		.p2align 4,,15
  20              		.thumb
  21              		.thumb_func
  22              		.type	pbuf_free_int, %function
  23              	pbuf_free_int:
  24              	.LFB14:
  25              		.file 1 "../../ext/lwip/src/api/tcpip.c"
  26              		.loc 1 430 0
  27              		.cfi_startproc
  28              		@ args = 0, pretend = 0, frame = 0
  29              		@ frame_needed = 0, uses_anonymous_args = 0
  30              		@ link register save eliminated.
  31              	.LVL0:
  32              		.loc 1 433 0
  33              		.loc 1 432 0
  34 0000 FFF7FEBF 		b	pbuf_free
  35              	.LVL1:
  36              		.cfi_endproc
  37              	.LFE14:
  38              		.size	pbuf_free_int, .-pbuf_free_int
  39 0004 AFF30080 		.section	.text.tcpip_thread,"ax",%progbits
  39      AFF30080 
  39      AFF30080 
  40              		.align	2
  41              		.p2align 4,,15
  42              		.thumb
  43              		.thumb_func
  44              		.type	tcpip_thread, %function
  45              	tcpip_thread:
  46              	.LFB7:
  47              		.loc 1 75 0
  48              		.cfi_startproc
  49              		@ args = 0, pretend = 0, frame = 8
  50              		@ frame_needed = 0, uses_anonymous_args = 0
  51              	.LVL2:
  52 0000 10B5     		push	{r4, lr}
  53              	.LCFI0:
  54              		.cfi_def_cfa_offset 8
  55              		.cfi_offset 14, -4
ARM GAS  /var/folders/5n/p_75w94d66l9ssrldxqdhh700000gn/T//cc9oN6XQ.s 			page 2


  56              		.cfi_offset 4, -8
  57              		.loc 1 79 0
  58 0002 254B     		ldr	r3, .L21
  59 0004 1B68     		ldr	r3, [r3, #0]
  60              		.loc 1 75 0
  61 0006 82B0     		sub	sp, sp, #8
  62              	.LCFI1:
  63              		.cfi_def_cfa_offset 16
  64              		.loc 1 79 0
  65 0008 13B1     		cbz	r3, .L19
  66              		.loc 1 80 0
  67 000a 244A     		ldr	r2, .L21+4
  68 000c 1068     		ldr	r0, [r2, #0]
  69              	.LVL3:
  70 000e 9847     		blx	r3
  71              	.L19:
  72 0010 01AC     		add	r4, sp, #4
  73              	.LVL4:
  74              	.L18:
  75              		.loc 1 88 0
  76 0012 2146     		mov	r1, r4
  77 0014 2248     		ldr	r0, .L21+8
  78 0016 FFF7FEFF 		bl	sys_timeouts_mbox_fetch
  79              		.loc 1 90 0
  80 001a 019B     		ldr	r3, [sp, #4]
  81 001c 1A78     		ldrb	r2, [r3, #0]	@ zero_extendqisi2
  82 001e 042A     		cmp	r2, #4
  83 0020 33D8     		bhi	.L5
  84 0022 DFE802F0 		tbb	[pc, r2]
  85              	.L11:
  86 0026 2D       		.byte	(.L6-.L11)/2
  87 0027 1E       		.byte	(.L7-.L11)/2
  88 0028 14       		.byte	(.L8-.L11)/2
  89 0029 0B       		.byte	(.L9-.L11)/2
  90 002a 03       		.byte	(.L10-.L11)/2
  91 002b 00       		.align	1
  92              	.L10:
  93              		.loc 1 122 0
  94 002c D868     		ldr	r0, [r3, #12]
  95 002e 9B68     		ldr	r3, [r3, #8]
  96 0030 9847     		blx	r3
  97              		.loc 1 123 0
  98 0032 0920     		movs	r0, #9
  99 0034 0199     		ldr	r1, [sp, #4]
 100 0036 FFF7FEFF 		bl	memp_free
 101              		.loc 1 124 0
 102 003a EAE7     		b	.L18
 103              	.L9:
 104              		.loc 1 134 0
 105 003c D868     		ldr	r0, [r3, #12]
 106 003e 1969     		ldr	r1, [r3, #16]
 107 0040 FFF7FEFF 		bl	sys_untimeout
 108              		.loc 1 135 0
 109 0044 0920     		movs	r0, #9
 110 0046 0199     		ldr	r1, [sp, #4]
 111 0048 FFF7FEFF 		bl	memp_free
 112              		.loc 1 136 0
ARM GAS  /var/folders/5n/p_75w94d66l9ssrldxqdhh700000gn/T//cc9oN6XQ.s 			page 3


 113 004c E1E7     		b	.L18
 114              	.L8:
 115              		.loc 1 129 0
 116 004e 03F10800 		add	r0, r3, #8
 117 0052 07C8     		ldmia	r0, {r0, r1, r2}
 118 0054 FFF7FEFF 		bl	sys_timeout
 119              		.loc 1 130 0
 120 0058 0920     		movs	r0, #9
 121 005a 0199     		ldr	r1, [sp, #4]
 122 005c FFF7FEFF 		bl	memp_free
 123              		.loc 1 131 0
 124 0060 D7E7     		b	.L18
 125              	.L7:
 126              		.loc 1 102 0
 127 0062 DA68     		ldr	r2, [r3, #12]
 128              		.loc 1 103 0
 129 0064 9868     		ldr	r0, [r3, #8]
 130              		.loc 1 102 0
 131 0066 92F82910 		ldrb	r1, [r2, #41]	@ zero_extendqisi2
 132 006a 11F0600F 		tst	r1, #96
 133              		.loc 1 107 0
 134 006e 1146     		mov	r1, r2
 135              		.loc 1 102 0
 136 0070 0ED0     		beq	.L13
 137              		.loc 1 103 0
 138 0072 FFF7FEFF 		bl	ethernet_input
 139              	.L14:
 140              		.loc 1 109 0
 141 0076 0A20     		movs	r0, #10
 142 0078 0199     		ldr	r1, [sp, #4]
 143 007a FFF7FEFF 		bl	memp_free
 144              		.loc 1 110 0
 145 007e C8E7     		b	.L18
 146              	.L6:
 147              		.loc 1 94 0
 148 0080 9868     		ldr	r0, [r3, #8]
 149 0082 0368     		ldr	r3, [r0, #0]
 150 0084 0430     		adds	r0, r0, #4
 151 0086 9847     		blx	r3
 152              		.loc 1 95 0
 153 0088 C3E7     		b	.L18
 154              	.L5:
 155              		.loc 1 141 0 discriminator 1
 156 008a FFF7FEFF 		bl	port_halt
 157              		.loc 1 142 0 discriminator 1
 158 008e C0E7     		b	.L18
 159              	.L13:
 160              		.loc 1 107 0
 161 0090 FFF7FEFF 		bl	ip_input
 162 0094 EFE7     		b	.L14
 163              	.L22:
 164 0096 00BF     		.align	2
 165              	.L21:
 166 0098 00000000 		.word	.LANCHOR0
 167 009c 00000000 		.word	.LANCHOR1
 168 00a0 00000000 		.word	.LANCHOR2
 169              		.cfi_endproc
ARM GAS  /var/folders/5n/p_75w94d66l9ssrldxqdhh700000gn/T//cc9oN6XQ.s 			page 4


 170              	.LFE7:
 171              		.size	tcpip_thread, .-tcpip_thread
 172 00a4 AFF30080 		.section	.text.tcpip_input,"ax",%progbits
 172      AFF30080 
 172      AFF30080 
 173              		.align	2
 174              		.p2align 4,,15
 175              		.global	tcpip_input
 176              		.thumb
 177              		.thumb_func
 178              		.type	tcpip_input, %function
 179              	tcpip_input:
 180              	.LFB8:
 181              		.loc 1 157 0
 182              		.cfi_startproc
 183              		@ args = 0, pretend = 0, frame = 0
 184              		@ frame_needed = 0, uses_anonymous_args = 0
 185              	.LVL5:
 186 0000 70B5     		push	{r4, r5, r6, lr}
 187              	.LCFI2:
 188              		.cfi_def_cfa_offset 16
 189              		.cfi_offset 14, -4
 190              		.cfi_offset 6, -8
 191              		.cfi_offset 5, -12
 192              		.cfi_offset 4, -16
 193              		.loc 1 157 0
 194 0002 0546     		mov	r5, r0
 195              		.loc 1 175 0
 196 0004 0E48     		ldr	r0, .L29
 197              	.LVL6:
 198              		.loc 1 157 0
 199 0006 0E46     		mov	r6, r1
 200              		.loc 1 175 0
 201 0008 FFF7FEFF 		bl	sys_mbox_valid
 202              	.LVL7:
 203 000c 80B1     		cbz	r0, .L25
 204              		.loc 1 176 0
 205 000e 0A20     		movs	r0, #10
 206 0010 FFF7FEFF 		bl	memp_malloc
 207              	.LVL8:
 208              		.loc 1 177 0
 209 0014 0446     		mov	r4, r0
 210              		.loc 1 178 0
 211 0016 FF20     		movs	r0, #255
 212              	.LVL9:
 213              		.loc 1 177 0
 214 0018 44B1     		cbz	r4, .L24
 215              		.loc 1 181 0
 216 001a 0123     		movs	r3, #1
 217 001c 2370     		strb	r3, [r4, #0]
 218              		.loc 1 182 0
 219 001e A560     		str	r5, [r4, #8]
 220              		.loc 1 183 0
 221 0020 E660     		str	r6, [r4, #12]
 222              		.loc 1 184 0
 223 0022 0748     		ldr	r0, .L29
 224 0024 2146     		mov	r1, r4
ARM GAS  /var/folders/5n/p_75w94d66l9ssrldxqdhh700000gn/T//cc9oN6XQ.s 			page 5


 225 0026 FFF7FEFF 		bl	sys_mbox_trypost
 226 002a 18B9     		cbnz	r0, .L28
 227              	.LVL10:
 228              	.L24:
 229              		.loc 1 192 0
 230 002c 40B2     		sxtb	r0, r0
 231 002e 70BD     		pop	{r4, r5, r6, pc}
 232              	.L25:
 233              		.loc 1 190 0
 234 0030 FA20     		movs	r0, #250
 235 0032 FBE7     		b	.L24
 236              	.LVL11:
 237              	.L28:
 238              		.loc 1 185 0
 239 0034 0A20     		movs	r0, #10
 240 0036 2146     		mov	r1, r4
 241 0038 FFF7FEFF 		bl	memp_free
 242              		.loc 1 186 0
 243 003c FF20     		movs	r0, #255
 244 003e F5E7     		b	.L24
 245              	.L30:
 246              		.align	2
 247              	.L29:
 248 0040 00000000 		.word	.LANCHOR2
 249              		.cfi_endproc
 250              	.LFE8:
 251              		.size	tcpip_input, .-tcpip_input
 252 0044 AFF30080 		.section	.text.tcpip_callback_with_block,"ax",%progbits
 252      AFF30080 
 252      AFF30080 
 253              		.align	2
 254              		.p2align 4,,15
 255              		.global	tcpip_callback_with_block
 256              		.thumb
 257              		.thumb_func
 258              		.type	tcpip_callback_with_block, %function
 259              	tcpip_callback_with_block:
 260              	.LFB9:
 261              		.loc 1 207 0
 262              		.cfi_startproc
 263              		@ args = 0, pretend = 0, frame = 0
 264              		@ frame_needed = 0, uses_anonymous_args = 0
 265              	.LVL12:
 266 0000 F8B5     		push	{r3, r4, r5, r6, r7, lr}
 267              	.LCFI3:
 268              		.cfi_def_cfa_offset 24
 269              		.cfi_offset 14, -4
 270              		.cfi_offset 7, -8
 271              		.cfi_offset 6, -12
 272              		.cfi_offset 5, -16
 273              		.cfi_offset 4, -20
 274              		.cfi_offset 3, -24
 275              		.loc 1 207 0
 276 0002 0446     		mov	r4, r0
 277              		.loc 1 210 0
 278 0004 1248     		ldr	r0, .L39
 279              	.LVL13:
ARM GAS  /var/folders/5n/p_75w94d66l9ssrldxqdhh700000gn/T//cc9oN6XQ.s 			page 6


 280              		.loc 1 207 0
 281 0006 0E46     		mov	r6, r1
 282 0008 1746     		mov	r7, r2
 283              		.loc 1 210 0
 284 000a FFF7FEFF 		bl	sys_mbox_valid
 285              	.LVL14:
 286 000e B0B1     		cbz	r0, .L34
 287              		.loc 1 211 0
 288 0010 0920     		movs	r0, #9
 289 0012 FFF7FEFF 		bl	memp_malloc
 290              	.LVL15:
 291              		.loc 1 212 0
 292 0016 0546     		mov	r5, r0
 293              		.loc 1 213 0
 294 0018 FF20     		movs	r0, #255
 295              	.LVL16:
 296              		.loc 1 212 0
 297 001a 4DB1     		cbz	r5, .L32
 298              		.loc 1 216 0
 299 001c 0423     		movs	r3, #4
 300 001e 2B70     		strb	r3, [r5, #0]
 301              		.loc 1 217 0
 302 0020 AC60     		str	r4, [r5, #8]
 303              		.loc 1 218 0
 304 0022 EE60     		str	r6, [r5, #12]
 305              		.loc 1 220 0
 306 0024 0A48     		ldr	r0, .L39
 307 0026 2946     		mov	r1, r5
 308              		.loc 1 219 0
 309 0028 27B9     		cbnz	r7, .L37
 310              		.loc 1 222 0
 311 002a FFF7FEFF 		bl	sys_mbox_trypost
 312 002e 40B9     		cbnz	r0, .L38
 313              	.LVL17:
 314              	.L32:
 315              		.loc 1 230 0
 316 0030 40B2     		sxtb	r0, r0
 317 0032 F8BD     		pop	{r3, r4, r5, r6, r7, pc}
 318              	.LVL18:
 319              	.L37:
 320              		.loc 1 220 0
 321 0034 FFF7FEFF 		bl	sys_mbox_post
 322              	.LVL19:
 323              		.loc 1 227 0
 324 0038 0020     		movs	r0, #0
 325              		.loc 1 230 0
 326 003a 40B2     		sxtb	r0, r0
 327 003c F8BD     		pop	{r3, r4, r5, r6, r7, pc}
 328              	.LVL20:
 329              	.L34:
 330              		.loc 1 229 0
 331 003e FA20     		movs	r0, #250
 332 0040 F6E7     		b	.L32
 333              	.LVL21:
 334              	.L38:
 335              		.loc 1 223 0
 336 0042 0920     		movs	r0, #9
ARM GAS  /var/folders/5n/p_75w94d66l9ssrldxqdhh700000gn/T//cc9oN6XQ.s 			page 7


 337 0044 2946     		mov	r1, r5
 338 0046 FFF7FEFF 		bl	memp_free
 339              		.loc 1 224 0
 340 004a FF20     		movs	r0, #255
 341 004c F0E7     		b	.L32
 342              	.L40:
 343 004e 00BF     		.align	2
 344              	.L39:
 345 0050 00000000 		.word	.LANCHOR2
 346              		.cfi_endproc
 347              	.LFE9:
 348              		.size	tcpip_callback_with_block, .-tcpip_callback_with_block
 349 0054 AFF30080 		.section	.text.tcpip_timeout,"ax",%progbits
 349      AFF30080 
 349      AFF30080 
 350              		.align	2
 351              		.p2align 4,,15
 352              		.global	tcpip_timeout
 353              		.thumb
 354              		.thumb_func
 355              		.type	tcpip_timeout, %function
 356              	tcpip_timeout:
 357              	.LFB10:
 358              		.loc 1 243 0
 359              		.cfi_startproc
 360              		@ args = 0, pretend = 0, frame = 0
 361              		@ frame_needed = 0, uses_anonymous_args = 0
 362              	.LVL22:
 363 0000 70B5     		push	{r4, r5, r6, lr}
 364              	.LCFI4:
 365              		.cfi_def_cfa_offset 16
 366              		.cfi_offset 14, -4
 367              		.cfi_offset 6, -8
 368              		.cfi_offset 5, -12
 369              		.cfi_offset 4, -16
 370              		.loc 1 243 0
 371 0002 0446     		mov	r4, r0
 372              		.loc 1 246 0
 373 0004 0C48     		ldr	r0, .L45
 374              	.LVL23:
 375              		.loc 1 243 0
 376 0006 0D46     		mov	r5, r1
 377 0008 1646     		mov	r6, r2
 378              		.loc 1 246 0
 379 000a FFF7FEFF 		bl	sys_mbox_valid
 380              	.LVL24:
 381 000e 80B1     		cbz	r0, .L43
 382              		.loc 1 247 0
 383 0010 0920     		movs	r0, #9
 384 0012 FFF7FEFF 		bl	memp_malloc
 385              	.LVL25:
 386              		.loc 1 248 0
 387 0016 0146     		mov	r1, r0
 388              		.loc 1 249 0
 389 0018 FF20     		movs	r0, #255
 390              	.LVL26:
 391              		.loc 1 248 0
ARM GAS  /var/folders/5n/p_75w94d66l9ssrldxqdhh700000gn/T//cc9oN6XQ.s 			page 8


 392 001a 41B1     		cbz	r1, .L42
 393              		.loc 1 252 0
 394 001c 0223     		movs	r3, #2
 395              		.loc 1 256 0
 396 001e 0648     		ldr	r0, .L45
 397              		.loc 1 252 0
 398 0020 0B70     		strb	r3, [r1, #0]
 399              		.loc 1 253 0
 400 0022 8C60     		str	r4, [r1, #8]
 401              		.loc 1 254 0
 402 0024 CD60     		str	r5, [r1, #12]
 403              		.loc 1 255 0
 404 0026 0E61     		str	r6, [r1, #16]
 405              		.loc 1 256 0
 406 0028 FFF7FEFF 		bl	sys_mbox_post
 407              	.LVL27:
 408              		.loc 1 257 0
 409 002c 0020     		movs	r0, #0
 410              	.L42:
 411              		.loc 1 260 0
 412 002e 40B2     		sxtb	r0, r0
 413 0030 70BD     		pop	{r4, r5, r6, pc}
 414              	.L43:
 415              		.loc 1 259 0
 416 0032 FA20     		movs	r0, #250
 417 0034 FBE7     		b	.L42
 418              	.L46:
 419 0036 00BF     		.align	2
 420              	.L45:
 421 0038 00000000 		.word	.LANCHOR2
 422              		.cfi_endproc
 423              	.LFE10:
 424              		.size	tcpip_timeout, .-tcpip_timeout
 425 003c AFF30080 		.section	.text.tcpip_untimeout,"ax",%progbits
 426              		.align	2
 427              		.p2align 4,,15
 428              		.global	tcpip_untimeout
 429              		.thumb
 430              		.thumb_func
 431              		.type	tcpip_untimeout, %function
 432              	tcpip_untimeout:
 433              	.LFB11:
 434              		.loc 1 272 0
 435              		.cfi_startproc
 436              		@ args = 0, pretend = 0, frame = 0
 437              		@ frame_needed = 0, uses_anonymous_args = 0
 438              	.LVL28:
 439 0000 38B5     		push	{r3, r4, r5, lr}
 440              	.LCFI5:
 441              		.cfi_def_cfa_offset 16
 442              		.cfi_offset 14, -4
 443              		.cfi_offset 5, -8
 444              		.cfi_offset 4, -12
 445              		.cfi_offset 3, -16
 446              		.loc 1 272 0
 447 0002 0446     		mov	r4, r0
 448              		.loc 1 275 0
ARM GAS  /var/folders/5n/p_75w94d66l9ssrldxqdhh700000gn/T//cc9oN6XQ.s 			page 9


 449 0004 0B48     		ldr	r0, .L51
 450              	.LVL29:
 451              		.loc 1 272 0
 452 0006 0D46     		mov	r5, r1
 453              		.loc 1 275 0
 454 0008 FFF7FEFF 		bl	sys_mbox_valid
 455              	.LVL30:
 456 000c 80B1     		cbz	r0, .L49
 457              		.loc 1 276 0
 458 000e 0920     		movs	r0, #9
 459 0010 FFF7FEFF 		bl	memp_malloc
 460              	.LVL31:
 461              		.loc 1 277 0
 462 0014 0346     		mov	r3, r0
 463              		.loc 1 278 0
 464 0016 FF20     		movs	r0, #255
 465              	.LVL32:
 466              		.loc 1 277 0
 467 0018 43B1     		cbz	r3, .L48
 468              		.loc 1 281 0
 469 001a 0322     		movs	r2, #3
 470              		.loc 1 284 0
 471 001c 0548     		ldr	r0, .L51
 472              		.loc 1 281 0
 473 001e 1A70     		strb	r2, [r3, #0]
 474              		.loc 1 282 0
 475 0020 DC60     		str	r4, [r3, #12]
 476              		.loc 1 283 0
 477 0022 1D61     		str	r5, [r3, #16]
 478              		.loc 1 284 0
 479 0024 1946     		mov	r1, r3
 480 0026 FFF7FEFF 		bl	sys_mbox_post
 481              	.LVL33:
 482              		.loc 1 285 0
 483 002a 0020     		movs	r0, #0
 484              	.L48:
 485              		.loc 1 288 0
 486 002c 40B2     		sxtb	r0, r0
 487 002e 38BD     		pop	{r3, r4, r5, pc}
 488              	.L49:
 489              		.loc 1 287 0
 490 0030 FA20     		movs	r0, #250
 491 0032 FBE7     		b	.L48
 492              	.L52:
 493              		.align	2
 494              	.L51:
 495 0034 00000000 		.word	.LANCHOR2
 496              		.cfi_endproc
 497              	.LFE11:
 498              		.size	tcpip_untimeout, .-tcpip_untimeout
 499 0038 AFF30080 		.section	.text.tcpip_apimsg,"ax",%progbits
 499      AFF30080 
 500              		.align	2
 501              		.p2align 4,,15
 502              		.global	tcpip_apimsg
 503              		.thumb
 504              		.thumb_func
ARM GAS  /var/folders/5n/p_75w94d66l9ssrldxqdhh700000gn/T//cc9oN6XQ.s 			page 10


 505              		.type	tcpip_apimsg, %function
 506              	tcpip_apimsg:
 507              	.LFB12:
 508              		.loc 1 302 0
 509              		.cfi_startproc
 510              		@ args = 0, pretend = 0, frame = 24
 511              		@ frame_needed = 0, uses_anonymous_args = 0
 512              	.LVL34:
 513 0000 30B5     		push	{r4, r5, lr}
 514              	.LCFI6:
 515              		.cfi_def_cfa_offset 12
 516              		.cfi_offset 14, -4
 517              		.cfi_offset 5, -8
 518              		.cfi_offset 4, -12
 519 0002 0446     		mov	r4, r0
 520 0004 87B0     		sub	sp, sp, #28
 521              	.LCFI7:
 522              		.cfi_def_cfa_offset 40
 523              		.loc 1 309 0
 524 0006 0B48     		ldr	r0, .L56
 525              	.LVL35:
 526 0008 FFF7FEFF 		bl	sys_mbox_valid
 527 000c 80B1     		cbz	r0, .L55
 528              		.loc 1 310 0
 529 000e 0025     		movs	r5, #0
 530              		.loc 1 312 0
 531 0010 0848     		ldr	r0, .L56
 532              		.loc 1 310 0
 533 0012 8DF80450 		strb	r5, [sp, #4]
 534              		.loc 1 312 0
 535 0016 01A9     		add	r1, sp, #4
 536              		.loc 1 311 0
 537 0018 0394     		str	r4, [sp, #12]
 538              		.loc 1 312 0
 539 001a FFF7FEFF 		bl	sys_mbox_post
 540              		.loc 1 313 0
 541 001e 6068     		ldr	r0, [r4, #4]
 542 0020 2946     		mov	r1, r5
 543 0022 0C30     		adds	r0, r0, #12
 544 0024 FFF7FEFF 		bl	sys_arch_sem_wait
 545              		.loc 1 314 0
 546 0028 207A     		ldrb	r0, [r4, #8]	@ zero_extendqisi2
 547              	.L54:
 548              		.loc 1 317 0
 549 002a 40B2     		sxtb	r0, r0
 550 002c 07B0     		add	sp, sp, #28
 551 002e 30BD     		pop	{r4, r5, pc}
 552              	.L55:
 553              		.loc 1 316 0
 554 0030 FA20     		movs	r0, #250
 555 0032 FAE7     		b	.L54
 556              	.L57:
 557              		.align	2
 558              	.L56:
 559 0034 00000000 		.word	.LANCHOR2
 560              		.cfi_endproc
 561              	.LFE12:
ARM GAS  /var/folders/5n/p_75w94d66l9ssrldxqdhh700000gn/T//cc9oN6XQ.s 			page 11


 562              		.size	tcpip_apimsg, .-tcpip_apimsg
 563 0038 AFF30080 		.section	.text.tcpip_init,"ax",%progbits
 563      AFF30080 
 564              		.align	2
 565              		.p2align 4,,15
 566              		.global	tcpip_init
 567              		.thumb
 568              		.thumb_func
 569              		.type	tcpip_init, %function
 570              	tcpip_init:
 571              	.LFB13:
 572              		.loc 1 405 0
 573              		.cfi_startproc
 574              		@ args = 0, pretend = 0, frame = 0
 575              		@ frame_needed = 0, uses_anonymous_args = 0
 576              	.LVL36:
 577 0000 30B5     		push	{r4, r5, lr}
 578              	.LCFI8:
 579              		.cfi_def_cfa_offset 12
 580              		.cfi_offset 14, -4
 581              		.cfi_offset 5, -8
 582              		.cfi_offset 4, -12
 583 0002 83B0     		sub	sp, sp, #12
 584              	.LCFI9:
 585              		.cfi_def_cfa_offset 24
 586              		.loc 1 405 0
 587 0004 0546     		mov	r5, r0
 588 0006 0C46     		mov	r4, r1
 589              		.loc 1 406 0
 590 0008 FFF7FEFF 		bl	lwip_init
 591              	.LVL37:
 592              		.loc 1 408 0
 593 000c 0A4B     		ldr	r3, .L60
 594              		.loc 1 410 0
 595 000e 0B48     		ldr	r0, .L60+4
 596              		.loc 1 408 0
 597 0010 1D60     		str	r5, [r3, #0]
 598              		.loc 1 409 0
 599 0012 0B4B     		ldr	r3, .L60+8
 600              		.loc 1 410 0
 601 0014 0421     		movs	r1, #4
 602              		.loc 1 409 0
 603 0016 1C60     		str	r4, [r3, #0]
 604              		.loc 1 410 0
 605 0018 FFF7FEFF 		bl	sys_mbox_new
 606 001c 08B1     		cbz	r0, .L59
 607              		.loc 1 411 0 discriminator 1
 608 001e FFF7FEFF 		bl	port_halt
 609              	.L59:
 610              		.loc 1 419 0
 611 0022 0323     		movs	r3, #3
 612 0024 0093     		str	r3, [sp, #0]
 613 0026 0749     		ldr	r1, .L60+12
 614 0028 0748     		ldr	r0, .L60+16
 615 002a 0022     		movs	r2, #0
 616 002c 4FF48063 		mov	r3, #1024
 617 0030 FFF7FEFF 		bl	sys_thread_new
ARM GAS  /var/folders/5n/p_75w94d66l9ssrldxqdhh700000gn/T//cc9oN6XQ.s 			page 12


 618              		.loc 1 420 0
 619 0034 03B0     		add	sp, sp, #12
 620 0036 30BD     		pop	{r4, r5, pc}
 621              	.L61:
 622              		.align	2
 623              	.L60:
 624 0038 00000000 		.word	.LANCHOR0
 625 003c 00000000 		.word	.LANCHOR2
 626 0040 00000000 		.word	.LANCHOR1
 627 0044 00000000 		.word	tcpip_thread
 628 0048 00000000 		.word	.LC0
 629              		.cfi_endproc
 630              	.LFE13:
 631              		.size	tcpip_init, .-tcpip_init
 632 004c AFF30080 		.section	.text.pbuf_free_callback,"ax",%progbits
 633              		.align	2
 634              		.p2align 4,,15
 635              		.global	pbuf_free_callback
 636              		.thumb
 637              		.thumb_func
 638              		.type	pbuf_free_callback, %function
 639              	pbuf_free_callback:
 640              	.LFB15:
 641              		.loc 1 443 0
 642              		.cfi_startproc
 643              		@ args = 0, pretend = 0, frame = 0
 644              		@ frame_needed = 0, uses_anonymous_args = 0
 645              		@ link register save eliminated.
 646              	.LVL38:
 647              		.loc 1 443 0
 648 0000 0146     		mov	r1, r0
 649              		.loc 1 444 0
 650 0002 40F20000 		movw	r0, #:lower16:pbuf_free_int
 651              	.LVL39:
 652 0006 C0F20000 		movt	r0, #:upper16:pbuf_free_int
 653 000a 0022     		movs	r2, #0
 654              		.loc 1 445 0
 655              		.loc 1 444 0
 656 000c FFF7FEBF 		b	tcpip_callback_with_block
 657              	.LVL40:
 658              		.cfi_endproc
 659              	.LFE15:
 660              		.size	pbuf_free_callback, .-pbuf_free_callback
 661              		.section	.text.mem_free_callback,"ax",%progbits
 662              		.align	2
 663              		.p2align 4,,15
 664              		.global	mem_free_callback
 665              		.thumb
 666              		.thumb_func
 667              		.type	mem_free_callback, %function
 668              	mem_free_callback:
 669              	.LFB16:
 670              		.loc 1 456 0
 671              		.cfi_startproc
 672              		@ args = 0, pretend = 0, frame = 0
 673              		@ frame_needed = 0, uses_anonymous_args = 0
 674              		@ link register save eliminated.
ARM GAS  /var/folders/5n/p_75w94d66l9ssrldxqdhh700000gn/T//cc9oN6XQ.s 			page 13


 675              	.LVL41:
 676              		.loc 1 456 0
 677 0000 0146     		mov	r1, r0
 678              		.loc 1 457 0
 679 0002 40F20000 		movw	r0, #:lower16:mem_free
 680              	.LVL42:
 681 0006 C0F20000 		movt	r0, #:upper16:mem_free
 682 000a 0022     		movs	r2, #0
 683              		.loc 1 458 0
 684              		.loc 1 457 0
 685 000c FFF7FEBF 		b	tcpip_callback_with_block
 686              	.LVL43:
 687              		.cfi_endproc
 688              	.LFE16:
 689              		.size	mem_free_callback, .-mem_free_callback
 690              		.section	.rodata.str1.4,"aMS",%progbits,1
 691              		.align	2
 692              	.LC0:
 693 0000 74637069 		.ascii	"tcpip_thread\000"
 693      705F7468 
 693      72656164 
 693      00
 694 000d 000000   		.section	.bss.mbox,"aw",%nobits
 695              		.align	2
 696              		.set	.LANCHOR2,. + 0
 697              		.type	mbox, %object
 698              		.size	mbox, 4
 699              	mbox:
 700 0000 00000000 		.space	4
 701              		.section	.bss.tcpip_init_done_arg,"aw",%nobits
 702              		.align	2
 703              		.set	.LANCHOR1,. + 0
 704              		.type	tcpip_init_done_arg, %object
 705              		.size	tcpip_init_done_arg, 4
 706              	tcpip_init_done_arg:
 707 0000 00000000 		.space	4
 708              		.section	.bss.tcpip_init_done,"aw",%nobits
 709              		.align	2
 710              		.set	.LANCHOR0,. + 0
 711              		.type	tcpip_init_done, %object
 712              		.size	tcpip_init_done, 4
 713              	tcpip_init_done:
 714 0000 00000000 		.space	4
 715              		.text
 716              	.Letext0:
 717              		.file 2 "/usr/local/summon/lib/gcc/arm-none-eabi/4.6.2/include/stddef.h"
 718              		.file 3 "/usr/local/summon/lib/gcc/arm-none-eabi/4.6.2/../../../../arm-none-eabi/include/stdint.h"
 719              		.file 4 "../../os/ports/GCC/ARMCMx/chtypes.h"
 720              		.file 5 "../../os/kernel/include/chlists.h"
 721              		.file 6 "../../os/kernel/include/chthreads.h"
 722              		.file 7 "../../os/ports/GCC/ARMCMx/chcore_v7m.h"
 723              		.file 8 "../../os/kernel/include/chsem.h"
 724              		.file 9 "../../os/kernel/include/chmtx.h"
 725              		.file 10 "../../os/kernel/include/chmboxes.h"
 726              		.file 11 "../../os/various/lwip_bindings/arch/cc.h"
 727              		.file 12 "../../ext/lwip/src/include/lwip/err.h"
 728              		.file 13 "../../os/various/lwip_bindings/arch/sys_arch.h"
ARM GAS  /var/folders/5n/p_75w94d66l9ssrldxqdhh700000gn/T//cc9oN6XQ.s 			page 14


 729              		.file 14 "../../ext/lwip/src/include/lwip/pbuf.h"
 730              		.file 15 "../../ext/lwip/src/include/ipv4/lwip/ip_addr.h"
 731              		.file 16 "../../ext/lwip/src/include/lwip/netif.h"
 732              		.file 17 "../../ext/lwip/src/include/lwip/netbuf.h"
 733              		.file 18 "../../ext/lwip/src/include/lwip/api.h"
 734              		.file 19 "../../ext/lwip/src/include/ipv4/lwip/ip.h"
 735              		.file 20 "../../ext/lwip/src/include/lwip/api_msg.h"
 736              		.file 21 "../../ext/lwip/src/include/lwip/timers.h"
 737              		.file 22 "../../ext/lwip/src/include/lwip/tcpip.h"
 738              		.file 23 "../../ext/lwip/src/include/lwip/memp.h"