ARM GAS  /var/folders/5n/p_75w94d66l9ssrldxqdhh700000gn/T//cc9oN6XQ.s 			page 1


   1              		.syntax unified
   2              		.cpu cortex-m4
   3              		.fpu softvfp
   4              		.eabi_attribute 20, 1
   5              		.eabi_attribute 21, 1
   6              		.eabi_attribute 23, 3
   7              		.eabi_attribute 24, 1
   8              		.eabi_attribute 25, 1
   9              		.eabi_attribute 26, 1
  10              		.eabi_attribute 30, 2
  11              		.eabi_attribute 18, 4
  12              		.thumb
  13              		.file	"tcpip.c"
  14              		.text
  15              	.Ltext0:
  16              		.cfi_sections	.debug_frame
  17              		.section	.text.pbuf_free_int,"ax",%progbits
  18              		.align	2
  19              		.p2align 4,,15
  20              		.thumb
  21              		.thumb_func
  22              		.type	pbuf_free_int, %function
  23              	pbuf_free_int:
  24              	.LFB14:
  25              		.file 1 "../../ext/lwip/src/api/tcpip.c"
  26              		.loc 1 430 0
  27              		.cfi_startproc
  28              		@ args = 0, pretend = 0, frame = 0
  29              		@ frame_needed = 0, uses_anonymous_args = 0
  30              		@ link register save eliminated.
  31              	.LVL0:
  32              		.loc 1 433 0
  33              		.loc 1 432 0
  34 0000 FFF7FEBF 		b	pbuf_free
  35              	.LVL1:
  36              		.cfi_endproc
  37              	.LFE14:
  38              		.size	pbuf_free_int, .-pbuf_free_int
  39 0004 AFF30080 		.section	.text.tcpip_thread,"ax",%progbits
  39      AFF30080 
  39      AFF30080 
  40              		.align	2
  41              		.p2align 4,,15
  42              		.thumb
  43              		.thumb_func
  44              		.type	tcpip_thread, %function
  45              	tcpip_thread:
  46              	.LFB7:
  47              		.loc 1 75 0
  48              		.cfi_startproc
  49              		@ args = 0, pretend = 0, frame = 8
  50              		@ frame_needed = 0, uses_anonymous_args = 0
  51              	.LVL2:
  52 0000 10B5     		push	{r4, lr}
  53              	.LCFI0:
  54              		.cfi_def_cfa_offset 8
  55              		.cfi_offset 14, -4
ARM GAS  /var/folders/5n/p_75w94d66l9ssrldxqdhh700000gn/T//cc9oN6XQ.s 			page 2


  56              		.cfi_offset 4, -8
  57              		.loc 1 79 0
  58 0002 254B     		ldr	r3, .L21
  59 0004 1B68     		ldr	r3, [r3, #0]
  60              		.loc 1 75 0
  61 0006 82B0     		sub	sp, sp, #8
  62              	.LCFI1:
  63              		.cfi_def_cfa_offset 16
  64              		.loc 1 79 0
  65 0008 13B1     		cbz	r3, .L19
  66              		.loc 1 80 0
  67 000a 244A     		ldr	r2, .L21+4
  68 000c 1068     		ldr	r0, [r2, #0]
  69              	.LVL3:
  70 000e 9847     		blx	r3
  71              	.L19:
  72 0010 01AC     		add	r4, sp, #4
  73              	.LVL4:
  74              	.L18:
  75              		.loc 1 88 0
  76 0012 2146     		mov	r1, r4
  77 0014 2248     		ldr	r0, .L21+8
  78 0016 FFF7FEFF 		bl	sys_timeouts_mbox_fetch
  79              		.loc 1 90 0
  80 001a 019B     		ldr	r3, [sp, #4]
  81 001c 1A78     		ldrb	r2, [r3, #0]	@ zero_extendqisi2
  82 001e 042A     		cmp	r2, #4
  83 0020 33D8     		bhi	.L5
  84 0022 DFE802F0 		tbb	[pc, r2]
  85              	.L11:
  86 0026 2D       		.byte	(.L6-.L11)/2
  87 0027 1E       		.byte	(.L7-.L11)/2
  88 0028 14       		.byte	(.L8-.L11)/2
  89 0029 0B       		.byte	(.L9-.L11)/2
  90 002a 03       		.byte	(.L10-.L11)/2
  91 002b 00       		.align	1
  92              	.L10:
  93              		.loc 1 122 0
  94 002c D868     		ldr	r0, [r3, #12]
  95 002e 9B68     		ldr	r3, [r3, #8]
  96 0030 9847     		blx	r3
  97              		.loc 1 123 0
  98 0032 0920     		movs	r0, #9
  99 0034 0199     		ldr	r1, [sp, #4]
 100 0036 FFF7FEFF 		bl	memp_free
 101              		.loc 1 124 0
 102 003a EAE7     		b	.L18
 103              	.L9:
 104              		.loc 1 134 0
 105 003c D868     		ldr	r0, [r3, #12]
 106 003e 1969     		ldr	r1, [r3, #16]
 107 0040 FFF7FEFF 		bl	sys_untimeout
 108              		.loc 1 135 0
 109 0044 0920     		movs	r0, #9
 110 0046 0199     		ldr	r1, [sp, #4]
 111 0048 FFF7FEFF 		bl	memp_free
 112              		.loc 1 136 0
ARM GAS  /var/folders/5n/p_75w94d66l9ssrldxqdhh700000gn/T//cc9oN6XQ.s 			page 3


 113 004c E1E7     		b	.L18
 114              	.L8:
 115              		.loc 1 129 0
 116 004e 03F10800 		add	r0, r3, #8
 117 0052 07C8     		ldmia	r0, {r0, r1, r2}
 118 0054 FFF7FEFF 		bl	sys_timeout
 119              		.loc 1 130 0
 120 0058 0920     		movs	r0, #9
 121 005a 0199     		ldr	r1, [sp, #4]
 122 005c FFF7FEFF 		bl	memp_free
 123              		.loc 1 131 0
 124 0060 D7E7     		b	.L18
 125              	.L7:
 126              		.loc 1 102 0
 127 0062 DA68     		ldr	r2, [r3, #12]
 128              		.loc 1 103 0
 129 0064 9868     		ldr	r0, [r3, #8]
 130              		.loc 1 102 0
 131 0066 92F82910 		ldrb	r1, [r2, #41]	@ zero_extendqisi2
 132 006a 11F0600F 		tst	r1, #96
 133              		.loc 1 107 0
 134 006e 1146     		mov	r1, r2
 135              		.loc 1 102 0
 136 0070 0ED0     		beq	.L13
 137              		.loc 1 103 0
 138 0072 FFF7FEFF 		bl	ethernet_input
 139              	.L14:
 140              		.loc 1 109 0
 141 0076 0A20     		movs	r0, #10
 142 0078 0199     		ldr	r1, [sp, #4]
 143 007a FFF7FEFF 		bl	memp_free
 144              		.loc 1 110 0
 145 007e C8E7     		b	.L18
 146              	.L6:
 147              		.loc 1 94 0
 148 0080 9868     		ldr	r0, [r3, #8]
 149 0082 0368     		ldr	r3, [r0, #0]
 150 0084 0430     		adds	r0, r0, #4
 151 0086 9847     		blx	r3
 152              		.loc 1 95 0
 153 0088 C3E7     		b	.L18
 154              	.L5:
 155              		.loc 1 141 0 discriminator 1
 156 008a FFF7FEFF 		bl	port_halt
 157              		.loc 1 142 0 discriminator 1
 158 008e C0E7     		b	.L18
 159              	.L13:
 160              		.loc 1 107 0
 161 0090 FFF7FEFF 		bl	ip_input
 162 0094 EFE7     		b	.L14
 163              	.L22:
 164 0096 00BF     		.align	2
 165              	.L21:
 166 0098 00000000 		.word	.LANCHOR0
 167 009c 00000000 		.word	.LANCHOR1
 168 00a0 00000000 		.word	.LANCHOR2
 169              		.cfi_endproc
ARM GAS  /var/folders/5n/p_75w94d66l9ssrldxqdhh700000gn/T//cc9oN6XQ.s 			page 4


 170              	.LFE7:
 171              		.size	tcpip_thread, .-tcpip_thread
 172 00a4 AFF30080 		.section	.text.tcpip_input,"ax",%progbits
 172      AFF30080 
 172      AFF30080 
 173              		.align	2
 174              		.p2align 4,,15
 175              		.global	tcpip_input
 176              		.thumb
 177              		.thumb_func
 178              		.type	tcpip_input, %function
 179              	tcpip_input:
 180              	.LFB8:
 181              		.loc 1 157 0
 182              		.cfi_startproc
 183              		@ args = 0, pretend = 0, frame = 0
 184              		@ frame_needed = 0, uses_anonymous_args = 0
 185              	.LVL5:
 186 0000 70B5     		push	{r4, r5, r6, lr}
 187              	.LCFI2:
 188              		.cfi_def_cfa_offset 16
 189              		.cfi_offset 14, -4
 190              		.cfi_offset 6, -8
 191              		.cfi_offset 5, -12
 192              		.cfi_offset 4, -16
 193              		.loc 1 157 0
 194 0002 0546     		mov	r5, r0
 195              		.loc 1 175 0
 196 0004 0E48     		ldr	r0, .L29
 197              	.LVL6:
 198              		.loc 1 157 0
 199 0006 0E46     		mov	r6, r1
 200              		.loc 1 175 0
 201 0008 FFF7FEFF 		bl	sys_mbox_valid
 202              	.LVL7:
 203 000c 80B1     		cbz	r0, .L25
 204              		.loc 1 176 0
 205 000e 0A20     		movs	r0, #10
 206 0010 FFF7FEFF 		bl	memp_malloc
 207              	.LVL8:
 208              		.loc 1 177 0
 209 0014 0446     		mov	r4, r0
 210              		.loc 1 178 0
 211 0016 FF20     		movs	r0, #255
 212              	.LVL9:
 213              		.loc 1 177 0
 214 0018 44B1     		cbz	r4, .L24
 215              		.loc 1 181 0
 216 001a 0123     		movs	r3, #1
 217 001c 2370     		strb	r3, [r4, #0]
 218              		.loc 1 182 0
 219 001e A560     		str	r5, [r4, #8]
 220              		.loc 1 183 0
 221 0020 E660     		str	r6, [r4, #12]
 222              		.loc 1 184 0
 223 0022 0748     		ldr	r0, .L29
 224 0024 2146     		mov	r1, r4
ARM GAS  /var/folders/5n/p_75w94d66l9ssrldxqdhh700000gn/T//cc9oN6XQ.s 			page 5


 225 0026 FFF7FEFF 		bl	sys_mbox_trypost
 226 002a 18B9     		cbnz	r0, .L28
 227              	.LVL10:
 228              	.L24:
 229              		.loc 1 192 0
 230 002c 40B2     		sxtb	r0, r0
 231 002e 70BD     		pop	{r4, r5, r6, pc}
 232              	.L25:
 233              		.loc 1 190 0
 234 0030 FA20     		movs	r0, #250
 235 0032 FBE7     		b	.L24
 236              	.LVL11:
 237              	.L28:
 238              		.loc 1 185 0
 239 0034 0A20     		movs	r0, #10
 240 0036 2146     		mov	r1, r4
 241 0038 FFF7FEFF 		bl	memp_free
 242              		.loc 1 186 0
 243 003c FF20     		movs	r0, #255
 244 003e F5E7     		b	.L24
 245              	.L30:
 246              		.align	2
 247              	.L29:
 248 0040 00000000 		.word	.LANCHOR2
 249              		.cfi_endproc
 250              	.LFE8:
 251              		.size	tcpip_input, .-tcpip_input
 252 0044 AFF30080 		.section	.text.tcpip_callback_with_block,"ax",%progbits
 252      AFF30080 
 252      AFF30080 
 253              		.align	2
 254              		.p2align 4,,15
 255              		.global	tcpip_callback_with_block
 256              		.thumb
 257              		.thumb_func
 258              		.type	tcpip_callback_with_block, %function
 259              	tcpip_callback_with_block:
 260              	.LFB9:
 261              		.loc 1 207 0
 262              		.cfi_startproc
 263              		@ args = 0, pretend = 0, frame = 0
 264              		@ frame_needed = 0, uses_anonymous_args = 0
 265              	.LVL12:
 266 0000 F8B5     		push	{r3, r4, r5, r6, r7, lr}
 267              	.LCFI3:
 268              		.cfi_def_cfa_offset 24
 269              		.cfi_offset 14, -4
 270              		.cfi_offset 7, -8
 271              		.cfi_offset 6, -12
 272              		.cfi_offset 5, -16
 273              		.cfi_offset 4, -20
 274              		.cfi_offset 3, -24
 275              		.loc 1 207 0
 276 0002 0446     		mov	r4, r0
 277              		.loc 1 210 0
 278 0004 1248     		ldr	r0, .L39
 279              	.LVL13:
ARM GAS  /var/folders/5n/p_75w94d66l9ssrldxqdhh700000gn/T//cc9oN6XQ.s 			page 6


 280              		.loc 1 207 0
 281 0006 0E46     		mov	r6, r1
 282 0008 1746     		mov	r7, r2
 283              		.loc 1 210 0
 284 000a FFF7FEFF 		bl	sys_mbox_valid
 285              	.LVL14:
 286 000e B0B1     		cbz	r0, .L34
 287              		.loc 1 211 0
 288 0010 0920     		movs	r0, #9
 289 0012 FFF7FEFF 		bl	memp_malloc
 290              	.LVL15:
 291              		.loc 1 212 0
 292 0016 0546     		mov	r5, r0
 293              		.loc 1 213 0
 294 0018 FF20     		movs	r0, #255
 295              	.LVL16:
 296              		.loc 1 212 0
 297 001a 4DB1     		cbz	r5, .L32
 298              		.loc 1 216 0
 299 001c 0423     		movs	r3, #4
 300 001e 2B70     		strb	r3, [r5, #0]
 301              		.loc 1 217 0
 302 0020 AC60     		str	r4, [r5, #8]
 303              		.loc 1 218 0
 304 0022 EE60     		str	r6, [r5, #12]
 305              		.loc 1 220 0
 306 0024 0A48     		ldr	r0, .L39
 307 0026 2946     		mov	r1, r5
 308              		.loc 1 219 0
 309 0028 27B9     		cbnz	r7, .L37
 310              		.loc 1 222 0
 311 002a FFF7FEFF 		bl	sys_mbox_trypost
 312 002e 40B9     		cbnz	r0, .L38
 313              	.LVL17:
 314              	.L32:
 315              		.loc 1 230 0
 316 0030 40B2     		sxtb	r0, r0
 317 0032 F8BD     		pop	{r3, r4, r5, r6, r7, pc}
 318              	.LVL18:
 319              	.L37:
 320              		.loc 1 220 0
 321 0034 FFF7FEFF 		bl	sys_mbox_post
 322              	.LVL19:
 323              		.loc 1 227 0
 324 0038 0020     		movs	r0, #0
 325              		.loc 1 230 0
 326 003a 40B2     		sxtb	r0, r0
 327 003c F8BD     		pop	{r3, r4, r5, r6, r7, pc}
 328              	.LVL20:
 329              	.L34:
 330              		.loc 1 229 0
 331 003e FA20     		movs	r0, #250
 332 0040 F6E7     		b	.L32
 333              	.LVL21:
 334              	.L38:
 335              		.loc 1 223 0
 336 0042 0920     		movs	r0, #9
ARM GAS  /var/folders/5n/p_75w94d66l9ssrldxqdhh700000gn/T//cc9oN6XQ.s 			page 7


 337 0044 2946     		mov	r1, r5
 338 0046 FFF7FEFF 		bl	memp_free
 339              		.loc 1 224 0
 340 004a FF20     		movs	r0, #255
 341 004c F0E7     		b	.L32
 342              	.L40:
 343 004e 00BF     		.align	2
 344              	.L39:
 345 0050 00000000 		.word	.LANCHOR2
 346              		.cfi_endproc
 347              	.LFE9:
 348              		.size	tcpip_callback_with_block, .-tcpip_callback_with_block
 349 0054 AFF30080 		.section	.text.tcpip_timeout,"ax",%progbits
 349      AFF30080 
 349      AFF30080 
 350              		.align	2
 351              		.p2align 4,,15
 352              		.global	tcpip_timeout
 353              		.thumb
 354              		.thumb_func
 355              		.type	tcpip_timeout, %function
 356              	tcpip_timeout:
 357              	.LFB10:
 358              		.loc 1 243 0
 359              		.cfi_startproc
 360              		@ args = 0, pretend = 0, frame = 0
 361              		@ frame_needed = 0, uses_anonymous_args = 0
 362              	.LVL22:
 363 0000 70B5     		push	{r4, r5, r6, lr}
 364              	.LCFI4:
 365              		.cfi_def_cfa_offset 16
 366              		.cfi_offset 14, -4
 367              		.cfi_offset 6, -8
 368              		.cfi_offset 5, -12
 369              		.cfi_offset 4, -16
 370              		.loc 1 243 0
 371 0002 0446     		mov	r4, r0
 372              		.loc 1 246 0
 373 0004 0C48     		ldr	r0, .L45
 374              	.LVL23:
 375              		.loc 1 243 0
 376 0006 0D46     		mov	r5, r1
 377 0008 1646     		mov	r6, r2
 378              		.loc 1 246 0
 379 000a FFF7FEFF 		bl	sys_mbox_valid
 380              	.LVL24:
 381 000e 80B1     		cbz	r0, .L43
 382              		.loc 1 247 0
 383 0010 0920     		movs	r0, #9
 384 0012 FFF7FEFF 		bl	memp_malloc
 385              	.LVL25:
 386              		.loc 1 248 0
 387 0016 0146     		mov	r1, r0
 388              		.loc 1 249 0
 389 0018 FF20     		movs	r0, #255
 390              	.LVL26:
 391              		.loc 1 248 0
ARM GAS  /var/folders/5n/p_75w94d66l9ssrldxqdhh700000gn/T//cc9oN6XQ.s 			page 8


 392 001a 41B1     		cbz	r1, .L42
 393              		.loc 1 252 0
 394 001c 0223     		movs	r3, #2
 395              		.loc 1 256 0
 396 001e 0648     		ldr	r0, .L45
 397              		.loc 1 252 0
 398 0020 0B70     		strb	r3, [r1, #0]
 399              		.loc 1 253 0
 400 0022 8C60     		str	r4, [r1, #8]
 401              		.loc 1 254 0
 402 0024 CD60     		str	r5, [r1, #12]
 403              		.loc 1 255 0
 404 0026 0E61     		str	r6, [r1, #16]
 405              		.loc 1 256 0
 406 0028 FFF7FEFF 		bl	sys_mbox_post
 407              	.LVL27:
 408              		.loc 1 257 0
 409 002c 0020     		movs	r0, #0
 410              	.L42:
 411              		.loc 1 260 0
 412 002e 40B2     		sxtb	r0, r0
 413 0030 70BD     		pop	{r4, r5, r6, pc}
 414              	.L43:
 415              		.loc 1 259 0
 416 0032 FA20     		movs	r0, #250
 417 0034 FBE7     		b	.L42
 418              	.L46:
 419 0036 00BF     		.align	2
 420              	.L45:
 421 0038 00000000 		.word	.LANCHOR2
 422              		.cfi_endproc
 423              	.LFE10:
 424              		.size	tcpip_timeout, .-tcpip_timeout
 425 003c AFF30080 		.section	.text.tcpip_untimeout,"ax",%progbits
 426              		.align	2
 427              		.p2align 4,,15
 428              		.global	tcpip_untimeout
 429              		.thumb
 430              		.thumb_func
 431              		.type	tcpip_untimeout, %function
 432              	tcpip_untimeout:
 433              	.LFB11:
 434              		.loc 1 272 0
 435              		.cfi_startproc
 436              		@ args = 0, pretend = 0, frame = 0
 437              		@ frame_needed = 0, uses_anonymous_args = 0
 438              	.LVL28:
 439 0000 38B5     		push	{r3, r4, r5, lr}
 440              	.LCFI5:
 441              		.cfi_def_cfa_offset 16
 442              		.cfi_offset 14, -4
 443              		.cfi_offset 5, -8
 444              		.cfi_offset 4, -12
 445              		.cfi_offset 3, -16
 446              		.loc 1 272 0
 447 0002 0446     		mov	r4, r0
 448              		.loc 1 275 0
ARM GAS  /var/folders/5n/p_75w94d66l9ssrldxqdhh700000gn/T//cc9oN6XQ.s 			page 9


 449 0004 0B48     		ldr	r0, .L51
 450              	.LVL29:
 451              		.loc 1 272 0
 452 0006 0D46     		mov	r5, r1
 453              		.loc 1 275 0
 454 0008 FFF7FEFF 		bl	sys_mbox_valid
 455              	.LVL30:
 456 000c 80B1     		cbz	r0, .L49
 457              		.loc 1 276 0
 458 000e 0920     		movs	r0, #9
 459 0010 FFF7FEFF 		bl	memp_malloc
 460              	.LVL31:
 461              		.loc 1 277 0
 462 0014 0346     		mov	r3, r0
 463              		.loc 1 278 0
 464 0016 FF20     		movs	r0, #255
 465              	.LVL32:
 466              		.loc 1 277 0
 467 0018 43B1     		cbz	r3, .L48
 468              		.loc 1 281 0
 469 001a 0322     		movs	r2, #3
 470              		.loc 1 284 0
 471 001c 0548     		ldr	r0, .L51
 472              		.loc 1 281 0
 473 001e 1A70     		strb	r2, [r3, #0]
 474              		.loc 1 282 0
 475 0020 DC60     		str	r4, [r3, #12]
 476              		.loc 1 283 0
 477 0022 1D61     		str	r5, [r3, #16]
 478              		.loc 1 284 0
 479 0024 1946     		mov	r1, r3
 480 0026 FFF7FEFF 		bl	sys_mbox_post
 481              	.LVL33:
 482              		.loc 1 285 0
 483 002a 0020     		movs	r0, #0
 484              	.L48:
 485              		.loc 1 288 0
 486 002c 40B2     		sxtb	r0, r0
 487 002e 38BD     		pop	{r3, r4, r5, pc}
 488              	.L49:
 489              		.loc 1 287 0
 490 0030 FA20     		movs	r0, #250
 491 0032 FBE7     		b	.L48
 492              	.L52:
 493              		.align	2
 494              	.L51:
 495 0034 00000000 		.word	.LANCHOR2
 496              		.cfi_endproc
 497              	.LFE11:
 498              		.size	tcpip_untimeout, .-tcpip_untimeout
 499 0038 AFF30080 		.section	.text.tcpip_apimsg,"ax",%progbits
 499      AFF30080 
 500              		.align	2
 501              		.p2align 4,,15
 502              		.global	tcpip_apimsg
 503              		.thumb
 504              		.thumb_func
ARM GAS  /var/folders/5n/p_75w94d66l9ssrldxqdhh700000gn/T//cc9oN6XQ.s 			page 10


 505              		.type	tcpip_apimsg, %function
 506              	tcpip_apimsg:
 507              	.LFB12:
 508              		.loc 1 302 0
 509              		.cfi_startproc
 510              		@ args = 0, pretend = 0, frame = 24
 511              		@ frame_needed = 0, uses_anonymous_args = 0
 512              	.LVL34:
 513 0000 30B5     		push	{r4, r5, lr}
 514              	.LCFI6:
 515              		.cfi_def_cfa_offset 12
 516              		.cfi_offset 14, -4
 517              		.cfi_offset 5, -8
 518              		.cfi_offset 4, -12
 519 0002 0446     		mov	r4, r0
 520 0004 87B0     		sub	sp, sp, #28
 521              	.LCFI7:
 522              		.cfi_def_cfa_offset 40
 523              		.loc 1 309 0
 524 0006 0B48     		ldr	r0, .L56
 525              	.LVL35:
 526 0008 FFF7FEFF 		bl	sys_mbox_valid
 527 000c 80B1     		cbz	r0, .L55
 528              		.loc 1 310 0
 529 000e 0025     		movs	r5, #0
 530              		.loc 1 312 0
 531 0010 0848     		ldr	r0, .L56
 532              		.loc 1 310 0
 533 0012 8DF80450 		strb	r5, [sp, #4]
 534              		.loc 1 312 0
 535 0016 01A9     		add	r1, sp, #4
 536              		.loc 1 311 0
 537 0018 0394     		str	r4, [sp, #12]
 538              		.loc 1 312 0
 539 001a FFF7FEFF 		bl	sys_mbox_post
 540              		.loc 1 313 0
 541 001e 6068     		ldr	r0, [r4, #4]
 542 0020 2946     		mov	r1, r5
 543 0022 0C30     		adds	r0, r0, #12
 544 0024 FFF7FEFF 		bl	sys_arch_sem_wait
 545              		.loc 1 314 0
 546 0028 207A     		ldrb	r0, [r4, #8]	@ zero_extendqisi2
 547              	.L54:
 548              		.loc 1 317 0
 549 002a 40B2     		sxtb	r0, r0
 550 002c 07B0     		add	sp, sp, #28
 551 002e 30BD     		pop	{r4, r5, pc}
 552              	.L55:
 553              		.loc 1 316 0
 554 0030 FA20     		movs	r0, #250
 555 0032 FAE7     		b	.L54
 556              	.L57:
 557              		.align	2
 558              	.L56:
 559 0034 00000000 		.word	.LANCHOR2
 560              		.cfi_endproc
 561              	.LFE12:
ARM GAS  /var/folders/5n/p_75w94d66l9ssrldxqdhh700000gn/T//cc9oN6XQ.s 			page 11


 562              		.size	tcpip_apimsg, .-tcpip_apimsg
 563 0038 AFF30080 		.section	.text.tcpip_init,"ax",%progbits
 563      AFF30080 
 564              		.align	2
 565              		.p2align 4,,15
 566              		.global	tcpip_init
 567              		.thumb
 568              		.thumb_func
 569              		.type	tcpip_init, %function
 570              	tcpip_init:
 571              	.LFB13:
 572              		.loc 1 405 0
 573              		.cfi_startproc
 574              		@ args = 0, pretend = 0, frame = 0
 575              		@ frame_needed = 0, uses_anonymous_args = 0
 576              	.LVL36:
 577 0000 30B5     		push	{r4, r5, lr}
 578              	.LCFI8:
 579              		.cfi_def_cfa_offset 12
 580              		.cfi_offset 14, -4
 581              		.cfi_offset 5, -8
 582              		.cfi_offset 4, -12
 583 0002 83B0     		sub	sp, sp, #12
 584              	.LCFI9:
 585              		.cfi_def_cfa_offset 24
 586              		.loc 1 405 0
 587 0004 0546     		mov	r5, r0
 588 0006 0C46     		mov	r4, r1
 589              		.loc 1 406 0
 590 0008 FFF7FEFF 		bl	lwip_init
 591              	.LVL37:
 592              		.loc 1 408 0
 593 000c 0A4B     		ldr	r3, .L60
 594              		.loc 1 410 0
 595 000e 0B48     		ldr	r0, .L60+4
 596              		.loc 1 408 0
 597 0010 1D60     		str	r5, [r3, #0]
 598              		.loc 1 409 0
 599 0012 0B4B     		ldr	r3, .L60+8
 600              		.loc 1 410 0
 601 0014 0421     		movs	r1, #4
 602              		.loc 1 409 0
 603 0016 1C60     		str	r4, [r3, #0]
 604              		.loc 1 410 0
 605 0018 FFF7FEFF 		bl	sys_mbox_new
 606 001c 08B1     		cbz	r0, .L59
 607              		.loc 1 411 0 discriminator 1
 608 001e FFF7FEFF 		bl	port_halt
 609              	.L59:
 610              		.loc 1 419 0
 611 0022 0323     		movs	r3, #3
 612 0024 0093     		str	r3, [sp, #0]
 613 0026 0749     		ldr	r1, .L60+12
 614 0028 0748     		ldr	r0, .L60+16
 615 002a 0022     		movs	r2, #0
 616 002c 4FF48063 		mov	r3, #1024
 617 0030 FFF7FEFF 		bl	sys_thread_new
ARM GAS  /var/folders/5n/p_75w94d66l9ssrldxqdhh700000gn/T//cc9oN6XQ.s 			page 12


 618              		.loc 1 420 0
 619 0034 03B0     		add	sp, sp, #12
 620 0036 30BD     		pop	{r4, r5, pc}
 621              	.L61:
 622              		.align	2
 623              	.L60:
 624 0038 00000000 		.word	.LANCHOR0
 625 003c 00000000 		.word	.LANCHOR2
 626 0040 00000000 		.word	.LANCHOR1
 627 0044 00000000 		.word	tcpip_thread
 628 0048 00000000 		.word	.LC0
 629              		.cfi_endproc
 630              	.LFE13:
 631              		.size	tcpip_init, .-tcpip_init
 632 004c AFF30080 		.section	.text.pbuf_free_callback,"ax",%progbits
 633              		.align	2
 634              		.p2align 4,,15
 635              		.global	pbuf_free_callback
 636              		.thumb
 637              		.thumb_func
 638              		.type	pbuf_free_callback, %function
 639              	pbuf_free_callback:
 640              	.LFB15:
 641              		.loc 1 443 0
 642              		.cfi_startproc
 643              		@ args = 0, pretend = 0, frame = 0
 644              		@ frame_needed = 0, uses_anonymous_args = 0
 645              		@ link register save eliminated.
 646              	.LVL38:
 647              		.loc 1 443 0
 648 0000 0146     		mov	r1, r0
 649              		.loc 1 444 0
 650 0002 40F20000 		movw	r0, #:lower16:pbuf_free_int
 651              	.LVL39:
 652 0006 C0F20000 		movt	r0, #:upper16:pbuf_free_int
 653 000a 0022     		movs	r2, #0
 654              		.loc 1 445 0
 655              		.loc 1 444 0
 656 000c FFF7FEBF 		b	tcpip_callback_with_block
 657              	.LVL40:
 658              		.cfi_endproc
 659              	.LFE15:
 660              		.size	pbuf_free_callback, .-pbuf_free_callback
 661              		.section	.text.mem_free_callback,"ax",%progbits
 662              		.align	2
 663              		.p2align 4,,15
 664              		.global	mem_free_callback
 665              		.thumb
 666              		.thumb_func
 667              		.type	mem_free_callback, %function
 668              	mem_free_callback:
 669              	.LFB16:
 670              		.loc 1 456 0
 671              		.cfi_startproc
 672              		@ args = 0, pretend = 0, frame = 0
 673              		@ frame_needed = 0, uses_anonymous_args = 0
 674              		@ link register save eliminated.
ARM GAS  /var/folders/5n/p_75w94d66l9ssrldxqdhh700000gn/T//cc9oN6XQ.s 			page 13


 675              	.LVL41:
 676              		.loc 1 456 0
 677 0000 0146     		mov	r1, r0
 678              		.loc 1 457 0
 679 0002 40F20000 		movw	r0, #:lower16:mem_free
 680              	.LVL42:
 681 0006 C0F20000 		movt	r0, #:upper16:mem_free
 682 000a 0022     		movs	r2, #0
 683              		.loc 1 458 0
 684              		.loc 1 457 0
 685 000c FFF7FEBF 		b	tcpip_callback_with_block
 686              	.LVL43:
 687              		.cfi_endproc
 688              	.LFE16:
 689              		.size	mem_free_callback, .-mem_free_callback
 690              		.section	.rodata.str1.4,"aMS",%progbits,1
 691              		.align	2
 692              	.LC0:
 693 0000 74637069 		.ascii	"tcpip_thread\000"
 693      705F7468 
 693      72656164 
 693      00
 694 000d 000000   		.section	.bss.mbox,"aw",%nobits
 695              		.align	2
 696              		.set	.LANCHOR2,. + 0
 697              		.type	mbox, %object
 698              		.size	mbox, 4
 699              	mbox:
 700 0000 00000000 		.space	4
 701              		.section	.bss.tcpip_init_done_arg,"aw",%nobits
 702              		.align	2
 703              		.set	.LANCHOR1,. + 0
 704              		.type	tcpip_init_done_arg, %object
 705              		.size	tcpip_init_done_arg, 4
 706              	tcpip_init_done_arg:
 707 0000 00000000 		.space	4
 708              		.section	.bss.tcpip_init_done,"aw",%nobits
 709              		.align	2
 710              		.set	.LANCHOR0,. + 0
 711              		.type	tcpip_init_done, %object
 712              		.size	tcpip_init_done, 4
 713              	tcpip_init_done:
 714 0000 00000000 		.space	4
 715              		.text
 716              	.Letext0:
 717              		.file 2 "/usr/local/summon/lib/gcc/arm-none-eabi/4.6.2/include/stddef.h"
 718              		.file 3 "/usr/local/summon/lib/gcc/arm-none-eabi/4.6.2/../../../../arm-none-eabi/include/stdint.h"
 719              		.file 4 "../../os/ports/GCC/ARMCMx/chtypes.h"
 720              		.file 5 "../../os/kernel/include/chlists.h"
 721              		.file 6 "../../os/kernel/include/chthreads.h"
 722              		.file 7 "../../os/ports/GCC/ARMCMx/chcore_v7m.h"
 723              		.file 8 "../../os/kernel/include/chsem.h"
 724              		.file 9 "../../os/kernel/include/chmtx.h"
 725              		.file 10 "../../os/kernel/include/chmboxes.h"
 726              		.file 11 "../../os/various/lwip_bindings/arch/cc.h"
 727              		.file 12 "../../ext/lwip/src/include/lwip/err.h"
 728              		.file 13 "../../os/various/lwip_bindings/arch/sys_arch.h"
ARM GAS  /var/folders/5n/p_75w94d66l9ssrldxqdhh700000gn/T//cc9oN6XQ.s 			page 14


 729              		.file 14 "../../ext/lwip/src/include/lwip/pbuf.h"
 730              		.file 15 "../../ext/lwip/src/include/ipv4/lwip/ip_addr.h"
 731              		.file 16 "../../ext/lwip/src/include/lwip/netif.h"
 732              		.file 17 "../../ext/lwip/src/include/lwip/netbuf.h"
 733              		.file 18 "../../ext/lwip/src/include/lwip/api.h"
 734              		.file 19 "../../ext/lwip/src/include/ipv4/lwip/ip.h"
 735              		.file 20 "../../ext/lwip/src/include/lwip/api_msg.h"
 736              		.file 21 "../../ext/lwip/src/include/lwip/timers.h"
 737              		.file 22 "../../ext/lwip/src/include/lwip/tcpip.h"
 738              		.file 23 "../../ext/lwip/src/include/lwip/memp.h"
 739              		.section	.debug_info,"",%progbits
 740              	.Ldebug_info0:
 741 0000 680F0000 		.4byte	0xf68
 742 0004 0200     		.2byte	0x2
 743 0006 00000000 		.4byte	.Ldebug_abbrev0
 744 000a 04       		.byte	0x4
 745 000b 01       		.uleb128 0x1
 746 000c 5B030000 		.4byte	.LASF185
 747 0010 01       		.byte	0x1
 748 0011 57070000 		.4byte	.LASF186
 749 0015 59040000 		.4byte	.LASF187
 750 0019 00000000 		.4byte	0
 751 001d 00000000 		.4byte	0
 752 0021 00000000 		.4byte	.Ldebug_ranges0+0
 753 0025 00000000 		.4byte	.Ldebug_line0
 754 0029 02       		.uleb128 0x2
 755 002a 04       		.byte	0x4
 756 002b 05       		.byte	0x5
 757 002c 696E7400 		.ascii	"int\000"
 758 0030 03       		.uleb128 0x3
 759 0031 5E020000 		.4byte	.LASF1
 760 0035 02       		.byte	0x2
 761 0036 D4       		.byte	0xd4
 762 0037 3B000000 		.4byte	0x3b
 763 003b 04       		.uleb128 0x4
 764 003c 04       		.byte	0x4
 765 003d 07       		.byte	0x7
 766 003e A4000000 		.4byte	.LASF0
 767 0042 03       		.uleb128 0x3
 768 0043 6B010000 		.4byte	.LASF2
 769 0047 03       		.byte	0x3
 770 0048 29       		.byte	0x29
 771 0049 4D000000 		.4byte	0x4d
 772 004d 04       		.uleb128 0x4
 773 004e 01       		.byte	0x1
 774 004f 06       		.byte	0x6
 775 0050 DA070000 		.4byte	.LASF3
 776 0054 03       		.uleb128 0x3
 777 0055 B6030000 		.4byte	.LASF4
 778 0059 03       		.byte	0x3
 779 005a 2A       		.byte	0x2a
 780 005b 5F000000 		.4byte	0x5f
 781 005f 04       		.uleb128 0x4
 782 0060 01       		.byte	0x1
 783 0061 08       		.byte	0x8
 784 0062 05070000 		.4byte	.LASF5
 785 0066 04       		.uleb128 0x4
ARM GAS  /var/folders/5n/p_75w94d66l9ssrldxqdhh700000gn/T//cc9oN6XQ.s 			page 15


 786 0067 02       		.byte	0x2
 787 0068 05       		.byte	0x5
 788 0069 8F050000 		.4byte	.LASF6
 789 006d 03       		.uleb128 0x3
 790 006e 37050000 		.4byte	.LASF7
 791 0072 03       		.byte	0x3
 792 0073 36       		.byte	0x36
 793 0074 78000000 		.4byte	0x78
 794 0078 04       		.uleb128 0x4
 795 0079 02       		.byte	0x2
 796 007a 07       		.byte	0x7
 797 007b EE070000 		.4byte	.LASF8
 798 007f 03       		.uleb128 0x3
 799 0080 D0060000 		.4byte	.LASF9
 800 0084 03       		.byte	0x3
 801 0085 4F       		.byte	0x4f
 802 0086 8A000000 		.4byte	0x8a
 803 008a 04       		.uleb128 0x4
 804 008b 04       		.byte	0x4
 805 008c 05       		.byte	0x5
 806 008d BE050000 		.4byte	.LASF10
 807 0091 03       		.uleb128 0x3
 808 0092 62010000 		.4byte	.LASF11
 809 0096 03       		.byte	0x3
 810 0097 50       		.byte	0x50
 811 0098 9C000000 		.4byte	0x9c
 812 009c 04       		.uleb128 0x4
 813 009d 04       		.byte	0x4
 814 009e 07       		.byte	0x7
 815 009f B4060000 		.4byte	.LASF12
 816 00a3 04       		.uleb128 0x4
 817 00a4 08       		.byte	0x8
 818 00a5 05       		.byte	0x5
 819 00a6 24040000 		.4byte	.LASF13
 820 00aa 04       		.uleb128 0x4
 821 00ab 08       		.byte	0x8
 822 00ac 07       		.byte	0x7
 823 00ad CF010000 		.4byte	.LASF14
 824 00b1 03       		.uleb128 0x3
 825 00b2 21050000 		.4byte	.LASF15
 826 00b6 04       		.byte	0x4
 827 00b7 28       		.byte	0x28
 828 00b8 54000000 		.4byte	0x54
 829 00bc 03       		.uleb128 0x3
 830 00bd 9D030000 		.4byte	.LASF16
 831 00c1 04       		.byte	0x4
 832 00c2 29       		.byte	0x29
 833 00c3 54000000 		.4byte	0x54
 834 00c7 03       		.uleb128 0x3
 835 00c8 AC060000 		.4byte	.LASF17
 836 00cc 04       		.byte	0x4
 837 00cd 2A       		.byte	0x2a
 838 00ce 54000000 		.4byte	0x54
 839 00d2 03       		.uleb128 0x3
 840 00d3 C8040000 		.4byte	.LASF18
 841 00d7 04       		.byte	0x4
 842 00d8 2B       		.byte	0x2b
ARM GAS  /var/folders/5n/p_75w94d66l9ssrldxqdhh700000gn/T//cc9oN6XQ.s 			page 16


 843 00d9 54000000 		.4byte	0x54
 844 00dd 03       		.uleb128 0x3
 845 00de B3010000 		.4byte	.LASF19
 846 00e2 04       		.byte	0x4
 847 00e3 2C       		.byte	0x2c
 848 00e4 91000000 		.4byte	0x91
 849 00e8 03       		.uleb128 0x3
 850 00e9 3E040000 		.4byte	.LASF20
 851 00ed 04       		.byte	0x4
 852 00ee 2D       		.byte	0x2d
 853 00ef 7F000000 		.4byte	0x7f
 854 00f3 03       		.uleb128 0x3
 855 00f4 72010000 		.4byte	.LASF21
 856 00f8 04       		.byte	0x4
 857 00f9 2F       		.byte	0x2f
 858 00fa 91000000 		.4byte	0x91
 859 00fe 03       		.uleb128 0x3
 860 00ff 6E000000 		.4byte	.LASF22
 861 0103 04       		.byte	0x4
 862 0104 31       		.byte	0x31
 863 0105 91000000 		.4byte	0x91
 864 0109 03       		.uleb128 0x3
 865 010a F6010000 		.4byte	.LASF23
 866 010e 04       		.byte	0x4
 867 010f 32       		.byte	0x32
 868 0110 7F000000 		.4byte	0x7f
 869 0114 03       		.uleb128 0x3
 870 0115 90030000 		.4byte	.LASF24
 871 0119 05       		.byte	0x5
 872 011a 23       		.byte	0x23
 873 011b 1F010000 		.4byte	0x11f
 874 011f 05       		.uleb128 0x5
 875 0120 90030000 		.4byte	.LASF24
 876 0124 48       		.byte	0x48
 877 0125 06       		.byte	0x6
 878 0126 57       		.byte	0x57
 879 0127 44020000 		.4byte	0x244
 880 012b 06       		.uleb128 0x6
 881 012c 0B060000 		.4byte	.LASF25
 882 0130 06       		.byte	0x6
 883 0131 58       		.byte	0x58
 884 0132 69020000 		.4byte	0x269
 885 0136 02       		.byte	0x2
 886 0137 23       		.byte	0x23
 887 0138 00       		.uleb128 0
 888 0139 06       		.uleb128 0x6
 889 013a 9A060000 		.4byte	.LASF26
 890 013e 06       		.byte	0x6
 891 013f 5A       		.byte	0x5a
 892 0140 69020000 		.4byte	0x269
 893 0144 02       		.byte	0x2
 894 0145 23       		.byte	0x23
 895 0146 04       		.uleb128 0x4
 896 0147 06       		.uleb128 0x6
 897 0148 4D000000 		.4byte	.LASF27
 898 014c 06       		.byte	0x6
 899 014d 5C       		.byte	0x5c
ARM GAS  /var/folders/5n/p_75w94d66l9ssrldxqdhh700000gn/T//cc9oN6XQ.s 			page 17


 900 014e DD000000 		.4byte	0xdd
 901 0152 02       		.byte	0x2
 902 0153 23       		.byte	0x23
 903 0154 08       		.uleb128 0x8
 904 0155 06       		.uleb128 0x6
 905 0156 28060000 		.4byte	.LASF28
 906 015a 06       		.byte	0x6
 907 015b 5D       		.byte	0x5d
 908 015c 37030000 		.4byte	0x337
 909 0160 02       		.byte	0x2
 910 0161 23       		.byte	0x23
 911 0162 0C       		.uleb128 0xc
 912 0163 06       		.uleb128 0x6
 913 0164 07020000 		.4byte	.LASF29
 914 0168 06       		.byte	0x6
 915 0169 5F       		.byte	0x5f
 916 016a 69020000 		.4byte	0x269
 917 016e 02       		.byte	0x2
 918 016f 23       		.byte	0x23
 919 0170 10       		.uleb128 0x10
 920 0171 06       		.uleb128 0x6
 921 0172 A6030000 		.4byte	.LASF30
 922 0176 06       		.byte	0x6
 923 0177 60       		.byte	0x60
 924 0178 69020000 		.4byte	0x269
 925 017c 02       		.byte	0x2
 926 017d 23       		.byte	0x23
 927 017e 14       		.uleb128 0x14
 928 017f 06       		.uleb128 0x6
 929 0180 10030000 		.4byte	.LASF31
 930 0184 06       		.byte	0x6
 931 0185 67       		.byte	0x67
 932 0186 90040000 		.4byte	0x490
 933 018a 02       		.byte	0x2
 934 018b 23       		.byte	0x23
 935 018c 18       		.uleb128 0x18
 936 018d 06       		.uleb128 0x6
 937 018e AE030000 		.4byte	.LASF32
 938 0192 06       		.byte	0x6
 939 0193 72       		.byte	0x72
 940 0194 BC000000 		.4byte	0xbc
 941 0198 02       		.byte	0x2
 942 0199 23       		.byte	0x23
 943 019a 1C       		.uleb128 0x1c
 944 019b 06       		.uleb128 0x6
 945 019c 51040000 		.4byte	.LASF33
 946 01a0 06       		.byte	0x6
 947 01a1 76       		.byte	0x76
 948 01a2 B1000000 		.4byte	0xb1
 949 01a6 02       		.byte	0x2
 950 01a7 23       		.byte	0x23
 951 01a8 1D       		.uleb128 0x1d
 952 01a9 06       		.uleb128 0x6
 953 01aa 1C070000 		.4byte	.LASF34
 954 01ae 06       		.byte	0x6
 955 01af 7B       		.byte	0x7b
 956 01b0 C7000000 		.4byte	0xc7
ARM GAS  /var/folders/5n/p_75w94d66l9ssrldxqdhh700000gn/T//cc9oN6XQ.s 			page 18


 957 01b4 02       		.byte	0x2
 958 01b5 23       		.byte	0x23
 959 01b6 1E       		.uleb128 0x1e
 960 01b7 06       		.uleb128 0x6
 961 01b8 76070000 		.4byte	.LASF35
 962 01bc 06       		.byte	0x6
 963 01bd 81       		.byte	0x81
 964 01be D2000000 		.4byte	0xd2
 965 01c2 02       		.byte	0x2
 966 01c3 23       		.byte	0x23
 967 01c4 1F       		.uleb128 0x1f
 968 01c5 06       		.uleb128 0x6
 969 01c6 32000000 		.4byte	.LASF36
 970 01ca 06       		.byte	0x6
 971 01cb 88       		.byte	0x88
 972 01cc 6C030000 		.4byte	0x36c
 973 01d0 02       		.byte	0x2
 974 01d1 23       		.byte	0x23
 975 01d2 20       		.uleb128 0x20
 976 01d3 07       		.uleb128 0x7
 977 01d4 705F7500 		.ascii	"p_u\000"
 978 01d8 06       		.byte	0x6
 979 01d9 AD       		.byte	0xad
 980 01da 5B040000 		.4byte	0x45b
 981 01de 02       		.byte	0x2
 982 01df 23       		.byte	0x23
 983 01e0 24       		.uleb128 0x24
 984 01e1 06       		.uleb128 0x6
 985 01e2 0C000000 		.4byte	.LASF37
 986 01e6 06       		.byte	0x6
 987 01e7 B2       		.byte	0xb2
 988 01e8 91020000 		.4byte	0x291
 989 01ec 02       		.byte	0x2
 990 01ed 23       		.byte	0x23
 991 01ee 28       		.uleb128 0x28
 992 01ef 06       		.uleb128 0x6
 993 01f0 99000000 		.4byte	.LASF38
 994 01f4 06       		.byte	0x6
 995 01f5 B8       		.byte	0xb8
 996 01f6 6F020000 		.4byte	0x26f
 997 01fa 02       		.byte	0x2
 998 01fb 23       		.byte	0x23
 999 01fc 2C       		.uleb128 0x2c
 1000 01fd 06       		.uleb128 0x6
 1001 01fe 13050000 		.4byte	.LASF39
 1002 0202 06       		.byte	0x6
 1003 0203 BC       		.byte	0xbc
 1004 0204 E8000000 		.4byte	0xe8
 1005 0208 02       		.byte	0x2
 1006 0209 23       		.byte	0x23
 1007 020a 34       		.uleb128 0x34
 1008 020b 06       		.uleb128 0x6
 1009 020c AB050000 		.4byte	.LASF40
 1010 0210 06       		.byte	0x6
 1011 0211 C2       		.byte	0xc2
 1012 0212 F3000000 		.4byte	0xf3
 1013 0216 02       		.byte	0x2
ARM GAS  /var/folders/5n/p_75w94d66l9ssrldxqdhh700000gn/T//cc9oN6XQ.s 			page 19


 1014 0217 23       		.byte	0x23
 1015 0218 38       		.uleb128 0x38
 1016 0219 06       		.uleb128 0x6
 1017 021a D1030000 		.4byte	.LASF41
 1018 021e 06       		.byte	0x6
 1019 021f C9       		.byte	0xc9
 1020 0220 A2040000 		.4byte	0x4a2
 1021 0224 02       		.byte	0x2
 1022 0225 23       		.byte	0x23
 1023 0226 3C       		.uleb128 0x3c
 1024 0227 06       		.uleb128 0x6
 1025 0228 7E050000 		.4byte	.LASF42
 1026 022c 06       		.byte	0x6
 1027 022d CD       		.byte	0xcd
 1028 022e DD000000 		.4byte	0xdd
 1029 0232 02       		.byte	0x2
 1030 0233 23       		.byte	0x23
 1031 0234 40       		.uleb128 0x40
 1032 0235 06       		.uleb128 0x6
 1033 0236 C9030000 		.4byte	.LASF43
 1034 023a 06       		.byte	0x6
 1035 023b D3       		.byte	0xd3
 1036 023c A7020000 		.4byte	0x2a7
 1037 0240 02       		.byte	0x2
 1038 0241 23       		.byte	0x23
 1039 0242 44       		.uleb128 0x44
 1040 0243 00       		.byte	0
 1041 0244 08       		.uleb128 0x8
 1042 0245 08       		.byte	0x8
 1043 0246 05       		.byte	0x5
 1044 0247 5A       		.byte	0x5a
 1045 0248 69020000 		.4byte	0x269
 1046 024c 06       		.uleb128 0x6
 1047 024d 0B060000 		.4byte	.LASF25
 1048 0251 05       		.byte	0x5
 1049 0252 5B       		.byte	0x5b
 1050 0253 69020000 		.4byte	0x269
 1051 0257 02       		.byte	0x2
 1052 0258 23       		.byte	0x23
 1053 0259 00       		.uleb128 0
 1054 025a 06       		.uleb128 0x6
 1055 025b 9A060000 		.4byte	.LASF26
 1056 025f 05       		.byte	0x5
 1057 0260 5D       		.byte	0x5d
 1058 0261 69020000 		.4byte	0x269
 1059 0265 02       		.byte	0x2
 1060 0266 23       		.byte	0x23
 1061 0267 04       		.uleb128 0x4
 1062 0268 00       		.byte	0
 1063 0269 09       		.uleb128 0x9
 1064 026a 04       		.byte	0x4
 1065 026b 14010000 		.4byte	0x114
 1066 026f 03       		.uleb128 0x3
 1067 0270 21030000 		.4byte	.LASF44
 1068 0274 05       		.byte	0x5
 1069 0275 5F       		.byte	0x5f
 1070 0276 44020000 		.4byte	0x244
ARM GAS  /var/folders/5n/p_75w94d66l9ssrldxqdhh700000gn/T//cc9oN6XQ.s 			page 20


 1071 027a 08       		.uleb128 0x8
 1072 027b 04       		.byte	0x4
 1073 027c 05       		.byte	0x5
 1074 027d 64       		.byte	0x64
 1075 027e 91020000 		.4byte	0x291
 1076 0282 06       		.uleb128 0x6
 1077 0283 0B060000 		.4byte	.LASF25
 1078 0287 05       		.byte	0x5
 1079 0288 66       		.byte	0x66
 1080 0289 69020000 		.4byte	0x269
 1081 028d 02       		.byte	0x2
 1082 028e 23       		.byte	0x23
 1083 028f 00       		.uleb128 0
 1084 0290 00       		.byte	0
 1085 0291 03       		.uleb128 0x3
 1086 0292 00000000 		.4byte	.LASF45
 1087 0296 05       		.byte	0x5
 1088 0297 69       		.byte	0x69
 1089 0298 7A020000 		.4byte	0x27a
 1090 029c 03       		.uleb128 0x3
 1091 029d 44000000 		.4byte	.LASF46
 1092 02a1 07       		.byte	0x7
 1093 02a2 DE       		.byte	0xde
 1094 02a3 A7020000 		.4byte	0x2a7
 1095 02a7 0A       		.uleb128 0xa
 1096 02a8 04       		.byte	0x4
 1097 02a9 0B       		.uleb128 0xb
 1098 02aa 4D050000 		.4byte	.LASF47
 1099 02ae 24       		.byte	0x24
 1100 02af 07       		.byte	0x7
 1101 02b0 0501     		.2byte	0x105
 1102 02b2 37030000 		.4byte	0x337
 1103 02b6 0C       		.uleb128 0xc
 1104 02b7 723400   		.ascii	"r4\000"
 1105 02ba 07       		.byte	0x7
 1106 02bb 1801     		.2byte	0x118
 1107 02bd 9C020000 		.4byte	0x29c
 1108 02c1 02       		.byte	0x2
 1109 02c2 23       		.byte	0x23
 1110 02c3 00       		.uleb128 0
 1111 02c4 0C       		.uleb128 0xc
 1112 02c5 723500   		.ascii	"r5\000"
 1113 02c8 07       		.byte	0x7
 1114 02c9 1901     		.2byte	0x119
 1115 02cb 9C020000 		.4byte	0x29c
 1116 02cf 02       		.byte	0x2
 1117 02d0 23       		.byte	0x23
 1118 02d1 04       		.uleb128 0x4
 1119 02d2 0C       		.uleb128 0xc
 1120 02d3 723600   		.ascii	"r6\000"
 1121 02d6 07       		.byte	0x7
 1122 02d7 1A01     		.2byte	0x11a
 1123 02d9 9C020000 		.4byte	0x29c
 1124 02dd 02       		.byte	0x2
 1125 02de 23       		.byte	0x23
 1126 02df 08       		.uleb128 0x8
 1127 02e0 0C       		.uleb128 0xc
ARM GAS  /var/folders/5n/p_75w94d66l9ssrldxqdhh700000gn/T//cc9oN6XQ.s 			page 21


 1128 02e1 723700   		.ascii	"r7\000"
 1129 02e4 07       		.byte	0x7
 1130 02e5 1B01     		.2byte	0x11b
 1131 02e7 9C020000 		.4byte	0x29c
 1132 02eb 02       		.byte	0x2
 1133 02ec 23       		.byte	0x23
 1134 02ed 0C       		.uleb128 0xc
 1135 02ee 0C       		.uleb128 0xc
 1136 02ef 723800   		.ascii	"r8\000"
 1137 02f2 07       		.byte	0x7
 1138 02f3 1C01     		.2byte	0x11c
 1139 02f5 9C020000 		.4byte	0x29c
 1140 02f9 02       		.byte	0x2
 1141 02fa 23       		.byte	0x23
 1142 02fb 10       		.uleb128 0x10
 1143 02fc 0C       		.uleb128 0xc
 1144 02fd 723900   		.ascii	"r9\000"
 1145 0300 07       		.byte	0x7
 1146 0301 1D01     		.2byte	0x11d
 1147 0303 9C020000 		.4byte	0x29c
 1148 0307 02       		.byte	0x2
 1149 0308 23       		.byte	0x23
 1150 0309 14       		.uleb128 0x14
 1151 030a 0C       		.uleb128 0xc
 1152 030b 72313000 		.ascii	"r10\000"
 1153 030f 07       		.byte	0x7
 1154 0310 1E01     		.2byte	0x11e
 1155 0312 9C020000 		.4byte	0x29c
 1156 0316 02       		.byte	0x2
 1157 0317 23       		.byte	0x23
 1158 0318 18       		.uleb128 0x18
 1159 0319 0C       		.uleb128 0xc
 1160 031a 72313100 		.ascii	"r11\000"
 1161 031e 07       		.byte	0x7
 1162 031f 1F01     		.2byte	0x11f
 1163 0321 9C020000 		.4byte	0x29c
 1164 0325 02       		.byte	0x2
 1165 0326 23       		.byte	0x23
 1166 0327 1C       		.uleb128 0x1c
 1167 0328 0C       		.uleb128 0xc
 1168 0329 6C7200   		.ascii	"lr\000"
 1169 032c 07       		.byte	0x7
 1170 032d 2001     		.2byte	0x120
 1171 032f 9C020000 		.4byte	0x29c
 1172 0333 02       		.byte	0x2
 1173 0334 23       		.byte	0x23
 1174 0335 20       		.uleb128 0x20
 1175 0336 00       		.byte	0
 1176 0337 0B       		.uleb128 0xb
 1177 0338 44040000 		.4byte	.LASF48
 1178 033c 04       		.byte	0x4
 1179 033d 07       		.byte	0x7
 1180 033e 2A01     		.2byte	0x12a
 1181 0340 54030000 		.4byte	0x354
 1182 0344 0C       		.uleb128 0xc
 1183 0345 72313300 		.ascii	"r13\000"
 1184 0349 07       		.byte	0x7
ARM GAS  /var/folders/5n/p_75w94d66l9ssrldxqdhh700000gn/T//cc9oN6XQ.s 			page 22


 1185 034a 2B01     		.2byte	0x12b
 1186 034c 54030000 		.4byte	0x354
 1187 0350 02       		.byte	0x2
 1188 0351 23       		.byte	0x23
 1189 0352 00       		.uleb128 0
 1190 0353 00       		.byte	0
 1191 0354 09       		.uleb128 0x9
 1192 0355 04       		.byte	0x4
 1193 0356 A9020000 		.4byte	0x2a9
 1194 035a 09       		.uleb128 0x9
 1195 035b 04       		.byte	0x4
 1196 035c 60030000 		.4byte	0x360
 1197 0360 0D       		.uleb128 0xd
 1198 0361 01       		.byte	0x1
 1199 0362 6C030000 		.4byte	0x36c
 1200 0366 0E       		.uleb128 0xe
 1201 0367 A7020000 		.4byte	0x2a7
 1202 036b 00       		.byte	0
 1203 036c 0F       		.uleb128 0xf
 1204 036d FE000000 		.4byte	0xfe
 1205 0371 05       		.uleb128 0x5
 1206 0372 54060000 		.4byte	.LASF49
 1207 0376 0C       		.byte	0xc
 1208 0377 08       		.byte	0x8
 1209 0378 25       		.byte	0x25
 1210 0379 9A030000 		.4byte	0x39a
 1211 037d 06       		.uleb128 0x6
 1212 037e 80000000 		.4byte	.LASF50
 1213 0382 08       		.byte	0x8
 1214 0383 26       		.byte	0x26
 1215 0384 6F020000 		.4byte	0x26f
 1216 0388 02       		.byte	0x2
 1217 0389 23       		.byte	0x23
 1218 038a 00       		.uleb128 0
 1219 038b 06       		.uleb128 0x6
 1220 038c 32010000 		.4byte	.LASF51
 1221 0390 08       		.byte	0x8
 1222 0391 28       		.byte	0x28
 1223 0392 09010000 		.4byte	0x109
 1224 0396 02       		.byte	0x2
 1225 0397 23       		.byte	0x23
 1226 0398 08       		.uleb128 0x8
 1227 0399 00       		.byte	0
 1228 039a 03       		.uleb128 0x3
 1229 039b 54060000 		.4byte	.LASF49
 1230 039f 08       		.byte	0x8
 1231 03a0 29       		.byte	0x29
 1232 03a1 71030000 		.4byte	0x371
 1233 03a5 05       		.uleb128 0x5
 1234 03a6 D0020000 		.4byte	.LASF52
 1235 03aa 10       		.byte	0x10
 1236 03ab 09       		.byte	0x9
 1237 03ac 25       		.byte	0x25
 1238 03ad DC030000 		.4byte	0x3dc
 1239 03b1 06       		.uleb128 0x6
 1240 03b2 B6050000 		.4byte	.LASF53
 1241 03b6 09       		.byte	0x9
ARM GAS  /var/folders/5n/p_75w94d66l9ssrldxqdhh700000gn/T//cc9oN6XQ.s 			page 23


 1242 03b7 26       		.byte	0x26
 1243 03b8 6F020000 		.4byte	0x26f
 1244 03bc 02       		.byte	0x2
 1245 03bd 23       		.byte	0x23
 1246 03be 00       		.uleb128 0
 1247 03bf 06       		.uleb128 0x6
 1248 03c0 78000000 		.4byte	.LASF54
 1249 03c4 09       		.byte	0x9
 1250 03c5 28       		.byte	0x28
 1251 03c6 69020000 		.4byte	0x269
 1252 03ca 02       		.byte	0x2
 1253 03cb 23       		.byte	0x23
 1254 03cc 08       		.uleb128 0x8
 1255 03cd 06       		.uleb128 0x6
 1256 03ce D3070000 		.4byte	.LASF55
 1257 03d2 09       		.byte	0x9
 1258 03d3 2A       		.byte	0x2a
 1259 03d4 DC030000 		.4byte	0x3dc
 1260 03d8 02       		.byte	0x2
 1261 03d9 23       		.byte	0x23
 1262 03da 0C       		.uleb128 0xc
 1263 03db 00       		.byte	0
 1264 03dc 09       		.uleb128 0x9
 1265 03dd 04       		.byte	0x4
 1266 03de A5030000 		.4byte	0x3a5
 1267 03e2 03       		.uleb128 0x3
 1268 03e3 D0020000 		.4byte	.LASF52
 1269 03e7 09       		.byte	0x9
 1270 03e8 2C       		.byte	0x2c
 1271 03e9 A5030000 		.4byte	0x3a5
 1272 03ed 08       		.uleb128 0x8
 1273 03ee 28       		.byte	0x28
 1274 03ef 0A       		.byte	0xa
 1275 03f0 2C       		.byte	0x2c
 1276 03f1 4A040000 		.4byte	0x44a
 1277 03f5 06       		.uleb128 0x6
 1278 03f6 C6060000 		.4byte	.LASF56
 1279 03fa 0A       		.byte	0xa
 1280 03fb 2D       		.byte	0x2d
 1281 03fc 4A040000 		.4byte	0x44a
 1282 0400 02       		.byte	0x2
 1283 0401 23       		.byte	0x23
 1284 0402 00       		.uleb128 0
 1285 0403 06       		.uleb128 0x6
 1286 0404 AF040000 		.4byte	.LASF57
 1287 0408 0A       		.byte	0xa
 1288 0409 2F       		.byte	0x2f
 1289 040a 4A040000 		.4byte	0x44a
 1290 040e 02       		.byte	0x2
 1291 040f 23       		.byte	0x23
 1292 0410 04       		.uleb128 0x4
 1293 0411 06       		.uleb128 0x6
 1294 0412 99050000 		.4byte	.LASF58
 1295 0416 0A       		.byte	0xa
 1296 0417 31       		.byte	0x31
 1297 0418 4A040000 		.4byte	0x44a
 1298 041c 02       		.byte	0x2
ARM GAS  /var/folders/5n/p_75w94d66l9ssrldxqdhh700000gn/T//cc9oN6XQ.s 			page 24


 1299 041d 23       		.byte	0x23
 1300 041e 08       		.uleb128 0x8
 1301 041f 06       		.uleb128 0x6
 1302 0420 80020000 		.4byte	.LASF59
 1303 0424 0A       		.byte	0xa
 1304 0425 32       		.byte	0x32
 1305 0426 4A040000 		.4byte	0x44a
 1306 042a 02       		.byte	0x2
 1307 042b 23       		.byte	0x23
 1308 042c 0C       		.uleb128 0xc
 1309 042d 06       		.uleb128 0x6
 1310 042e BE030000 		.4byte	.LASF60
 1311 0432 0A       		.byte	0xa
 1312 0433 33       		.byte	0x33
 1313 0434 9A030000 		.4byte	0x39a
 1314 0438 02       		.byte	0x2
 1315 0439 23       		.byte	0x23
 1316 043a 10       		.uleb128 0x10
 1317 043b 06       		.uleb128 0x6
 1318 043c D6020000 		.4byte	.LASF61
 1319 0440 0A       		.byte	0xa
 1320 0441 35       		.byte	0x35
 1321 0442 9A030000 		.4byte	0x39a
 1322 0446 02       		.byte	0x2
 1323 0447 23       		.byte	0x23
 1324 0448 1C       		.uleb128 0x1c
 1325 0449 00       		.byte	0
 1326 044a 09       		.uleb128 0x9
 1327 044b 04       		.byte	0x4
 1328 044c E8000000 		.4byte	0xe8
 1329 0450 03       		.uleb128 0x3
 1330 0451 1C010000 		.4byte	.LASF62
 1331 0455 0A       		.byte	0xa
 1332 0456 37       		.byte	0x37
 1333 0457 ED030000 		.4byte	0x3ed
 1334 045b 10       		.uleb128 0x10
 1335 045c 04       		.byte	0x4
 1336 045d 06       		.byte	0x6
 1337 045e 8F       		.byte	0x8f
 1338 045f 90040000 		.4byte	0x490
 1339 0463 11       		.uleb128 0x11
 1340 0464 65020000 		.4byte	.LASF63
 1341 0468 06       		.byte	0x6
 1342 0469 96       		.byte	0x96
 1343 046a E8000000 		.4byte	0xe8
 1344 046e 11       		.uleb128 0x11
 1345 046f 6A080000 		.4byte	.LASF64
 1346 0473 06       		.byte	0x6
 1347 0474 9D       		.byte	0x9d
 1348 0475 E8000000 		.4byte	0xe8
 1349 0479 11       		.uleb128 0x11
 1350 047a FE000000 		.4byte	.LASF65
 1351 047e 06       		.byte	0x6
 1352 047f A4       		.byte	0xa4
 1353 0480 A7020000 		.4byte	0x2a7
 1354 0484 11       		.uleb128 0x11
 1355 0485 05010000 		.4byte	.LASF66
ARM GAS  /var/folders/5n/p_75w94d66l9ssrldxqdhh700000gn/T//cc9oN6XQ.s 			page 25


 1356 0489 06       		.byte	0x6
 1357 048a AB       		.byte	0xab
 1358 048b F3000000 		.4byte	0xf3
 1359 048f 00       		.byte	0
 1360 0490 09       		.uleb128 0x9
 1361 0491 04       		.byte	0x4
 1362 0492 96040000 		.4byte	0x496
 1363 0496 12       		.uleb128 0x12
 1364 0497 9B040000 		.4byte	0x49b
 1365 049b 04       		.uleb128 0x4
 1366 049c 01       		.byte	0x1
 1367 049d 08       		.byte	0x8
 1368 049e 2E030000 		.4byte	.LASF67
 1369 04a2 09       		.uleb128 0x9
 1370 04a3 04       		.byte	0x4
 1371 04a4 E2030000 		.4byte	0x3e2
 1372 04a8 03       		.uleb128 0x3
 1373 04a9 4C040000 		.4byte	.LASF68
 1374 04ad 0B       		.byte	0xb
 1375 04ae 3C       		.byte	0x3c
 1376 04af 54000000 		.4byte	0x54
 1377 04b3 03       		.uleb128 0x3
 1378 04b4 CB020000 		.4byte	.LASF69
 1379 04b8 0B       		.byte	0xb
 1380 04b9 3D       		.byte	0x3d
 1381 04ba 42000000 		.4byte	0x42
 1382 04be 03       		.uleb128 0x3
 1383 04bf EF000000 		.4byte	.LASF70
 1384 04c3 0B       		.byte	0xb
 1385 04c4 3E       		.byte	0x3e
 1386 04c5 6D000000 		.4byte	0x6d
 1387 04c9 03       		.uleb128 0x3
 1388 04ca 89050000 		.4byte	.LASF71
 1389 04ce 0B       		.byte	0xb
 1390 04cf 40       		.byte	0x40
 1391 04d0 91000000 		.4byte	0x91
 1392 04d4 03       		.uleb128 0x3
 1393 04d5 D8000000 		.4byte	.LASF72
 1394 04d9 0C       		.byte	0xc
 1395 04da 2F       		.byte	0x2f
 1396 04db B3040000 		.4byte	0x4b3
 1397 04df 03       		.uleb128 0x3
 1398 04e0 9B020000 		.4byte	.LASF73
 1399 04e4 0D       		.byte	0xd
 1400 04e5 3C       		.byte	0x3c
 1401 04e6 EA040000 		.4byte	0x4ea
 1402 04ea 09       		.uleb128 0x9
 1403 04eb 04       		.byte	0x4
 1404 04ec 9A030000 		.4byte	0x39a
 1405 04f0 03       		.uleb128 0x3
 1406 04f1 A1060000 		.4byte	.LASF74
 1407 04f5 0D       		.byte	0xd
 1408 04f6 3D       		.byte	0x3d
 1409 04f7 FB040000 		.4byte	0x4fb
 1410 04fb 09       		.uleb128 0x9
 1411 04fc 04       		.byte	0x4
 1412 04fd 50040000 		.4byte	0x450
ARM GAS  /var/folders/5n/p_75w94d66l9ssrldxqdhh700000gn/T//cc9oN6XQ.s 			page 26


 1413 0501 13       		.uleb128 0x13
 1414 0502 01       		.byte	0x1
 1415 0503 17       		.byte	0x17
 1416 0504 2B       		.byte	0x2b
 1417 0505 64050000 		.4byte	0x564
 1418 0509 14       		.uleb128 0x14
 1419 050a 8D060000 		.4byte	.LASF75
 1420 050e 00       		.sleb128 0
 1421 050f 14       		.uleb128 0x14
 1422 0510 12060000 		.4byte	.LASF76
 1423 0514 01       		.sleb128 1
 1424 0515 14       		.uleb128 0x14
 1425 0516 71050000 		.4byte	.LASF77
 1426 051a 02       		.sleb128 2
 1427 051b 14       		.uleb128 0x14
 1428 051c 1E000000 		.4byte	.LASF78
 1429 0520 03       		.sleb128 3
 1430 0521 14       		.uleb128 0x14
 1431 0522 23070000 		.4byte	.LASF79
 1432 0526 04       		.sleb128 4
 1433 0527 14       		.uleb128 0x14
 1434 0528 D2040000 		.4byte	.LASF80
 1435 052c 05       		.sleb128 5
 1436 052d 14       		.uleb128 0x14
 1437 052e 7E060000 		.4byte	.LASF81
 1438 0532 06       		.sleb128 6
 1439 0533 14       		.uleb128 0x14
 1440 0534 10040000 		.4byte	.LASF82
 1441 0538 07       		.sleb128 7
 1442 0539 14       		.uleb128 0x14
 1443 053a E2020000 		.4byte	.LASF83
 1444 053e 08       		.sleb128 8
 1445 053f 14       		.uleb128 0x14
 1446 0540 7E010000 		.4byte	.LASF84
 1447 0544 09       		.sleb128 9
 1448 0545 14       		.uleb128 0x14
 1449 0546 1A020000 		.4byte	.LASF85
 1450 054a 0A       		.sleb128 10
 1451 054b 14       		.uleb128 0x14
 1452 054c CE050000 		.4byte	.LASF86
 1453 0550 0B       		.sleb128 11
 1454 0551 14       		.uleb128 0x14
 1455 0552 17030000 		.4byte	.LASF87
 1456 0556 0C       		.sleb128 12
 1457 0557 14       		.uleb128 0x14
 1458 0558 E1040000 		.4byte	.LASF88
 1459 055c 0D       		.sleb128 13
 1460 055d 14       		.uleb128 0x14
 1461 055e AE020000 		.4byte	.LASF89
 1462 0562 0E       		.sleb128 14
 1463 0563 00       		.byte	0
 1464 0564 05       		.uleb128 0x5
 1465 0565 7B020000 		.4byte	.LASF90
 1466 0569 10       		.byte	0x10
 1467 056a 0E       		.byte	0xe
 1468 056b 49       		.byte	0x49
 1469 056c D3050000 		.4byte	0x5d3
ARM GAS  /var/folders/5n/p_75w94d66l9ssrldxqdhh700000gn/T//cc9oN6XQ.s 			page 27


 1470 0570 06       		.uleb128 0x6
 1471 0571 BF000000 		.4byte	.LASF91
 1472 0575 0E       		.byte	0xe
 1473 0576 4B       		.byte	0x4b
 1474 0577 D3050000 		.4byte	0x5d3
 1475 057b 02       		.byte	0x2
 1476 057c 23       		.byte	0x23
 1477 057d 00       		.uleb128 0
 1478 057e 06       		.uleb128 0x6
 1479 057f 6C020000 		.4byte	.LASF92
 1480 0583 0E       		.byte	0xe
 1481 0584 4E       		.byte	0x4e
 1482 0585 A7020000 		.4byte	0x2a7
 1483 0589 02       		.byte	0x2
 1484 058a 23       		.byte	0x23
 1485 058b 04       		.uleb128 0x4
 1486 058c 06       		.uleb128 0x6
 1487 058d 4F020000 		.4byte	.LASF93
 1488 0591 0E       		.byte	0xe
 1489 0592 57       		.byte	0x57
 1490 0593 BE040000 		.4byte	0x4be
 1491 0597 02       		.byte	0x2
 1492 0598 23       		.byte	0x23
 1493 0599 08       		.uleb128 0x8
 1494 059a 07       		.uleb128 0x7
 1495 059b 6C656E00 		.ascii	"len\000"
 1496 059f 0E       		.byte	0xe
 1497 05a0 5A       		.byte	0x5a
 1498 05a1 BE040000 		.4byte	0x4be
 1499 05a5 02       		.byte	0x2
 1500 05a6 23       		.byte	0x23
 1501 05a7 0A       		.uleb128 0xa
 1502 05a8 06       		.uleb128 0x6
 1503 05a9 00070000 		.4byte	.LASF94
 1504 05ad 0E       		.byte	0xe
 1505 05ae 5D       		.byte	0x5d
 1506 05af A8040000 		.4byte	0x4a8
 1507 05b3 02       		.byte	0x2
 1508 05b4 23       		.byte	0x23
 1509 05b5 0C       		.uleb128 0xc
 1510 05b6 06       		.uleb128 0x6
 1511 05b7 68000000 		.4byte	.LASF95
 1512 05bb 0E       		.byte	0xe
 1513 05bc 60       		.byte	0x60
 1514 05bd A8040000 		.4byte	0x4a8
 1515 05c1 02       		.byte	0x2
 1516 05c2 23       		.byte	0x23
 1517 05c3 0D       		.uleb128 0xd
 1518 05c4 07       		.uleb128 0x7
 1519 05c5 72656600 		.ascii	"ref\000"
 1520 05c9 0E       		.byte	0xe
 1521 05ca 67       		.byte	0x67
 1522 05cb BE040000 		.4byte	0x4be
 1523 05cf 02       		.byte	0x2
 1524 05d0 23       		.byte	0x23
 1525 05d1 0E       		.uleb128 0xe
 1526 05d2 00       		.byte	0
ARM GAS  /var/folders/5n/p_75w94d66l9ssrldxqdhh700000gn/T//cc9oN6XQ.s 			page 28


 1527 05d3 09       		.uleb128 0x9
 1528 05d4 04       		.byte	0x4
 1529 05d5 64050000 		.4byte	0x564
 1530 05d9 05       		.uleb128 0x5
 1531 05da 73080000 		.4byte	.LASF96
 1532 05de 04       		.byte	0x4
 1533 05df 0F       		.byte	0xf
 1534 05e0 2C       		.byte	0x2c
 1535 05e1 F4050000 		.4byte	0x5f4
 1536 05e5 06       		.uleb128 0x6
 1537 05e6 8D070000 		.4byte	.LASF97
 1538 05ea 0F       		.byte	0xf
 1539 05eb 2D       		.byte	0x2d
 1540 05ec C9040000 		.4byte	0x4c9
 1541 05f0 02       		.byte	0x2
 1542 05f1 23       		.byte	0x23
 1543 05f2 00       		.uleb128 0
 1544 05f3 00       		.byte	0
 1545 05f4 03       		.uleb128 0x3
 1546 05f5 34080000 		.4byte	.LASF98
 1547 05f9 0F       		.byte	0xf
 1548 05fa 40       		.byte	0x40
 1549 05fb D9050000 		.4byte	0x5d9
 1550 05ff 09       		.uleb128 0x9
 1551 0600 04       		.byte	0x4
 1552 0601 05060000 		.4byte	0x605
 1553 0605 05       		.uleb128 0x5
 1554 0606 A1070000 		.4byte	.LASF99
 1555 060a 30       		.byte	0x30
 1556 060b 10       		.byte	0x10
 1557 060c 88       		.byte	0x88
 1558 060d D5060000 		.4byte	0x6d5
 1559 0611 06       		.uleb128 0x6
 1560 0612 BF000000 		.4byte	.LASF91
 1561 0616 10       		.byte	0x10
 1562 0617 8A       		.byte	0x8a
 1563 0618 FF050000 		.4byte	0x5ff
 1564 061c 02       		.byte	0x2
 1565 061d 23       		.byte	0x23
 1566 061e 00       		.uleb128 0
 1567 061f 06       		.uleb128 0x6
 1568 0620 73080000 		.4byte	.LASF96
 1569 0624 10       		.byte	0x10
 1570 0625 8D       		.byte	0x8d
 1571 0626 F4050000 		.4byte	0x5f4
 1572 062a 02       		.byte	0x2
 1573 062b 23       		.byte	0x23
 1574 062c 04       		.uleb128 0x4
 1575 062d 06       		.uleb128 0x6
 1576 062e 1C040000 		.4byte	.LASF100
 1577 0632 10       		.byte	0x10
 1578 0633 8E       		.byte	0x8e
 1579 0634 F4050000 		.4byte	0x5f4
 1580 0638 02       		.byte	0x2
 1581 0639 23       		.byte	0x23
 1582 063a 08       		.uleb128 0x8
 1583 063b 07       		.uleb128 0x7
ARM GAS  /var/folders/5n/p_75w94d66l9ssrldxqdhh700000gn/T//cc9oN6XQ.s 			page 29


 1584 063c 677700   		.ascii	"gw\000"
 1585 063f 10       		.byte	0x10
 1586 0640 8F       		.byte	0x8f
 1587 0641 F4050000 		.4byte	0x5f4
 1588 0645 02       		.byte	0x2
 1589 0646 23       		.byte	0x23
 1590 0647 0C       		.uleb128 0xc
 1591 0648 06       		.uleb128 0x6
 1592 0649 DD060000 		.4byte	.LASF101
 1593 064d 10       		.byte	0x10
 1594 064e 93       		.byte	0x93
 1595 064f D5060000 		.4byte	0x6d5
 1596 0653 02       		.byte	0x2
 1597 0654 23       		.byte	0x23
 1598 0655 10       		.uleb128 0x10
 1599 0656 06       		.uleb128 0x6
 1600 0657 74020000 		.4byte	.LASF102
 1601 065b 10       		.byte	0x10
 1602 065c 97       		.byte	0x97
 1603 065d FB060000 		.4byte	0x6fb
 1604 0661 02       		.byte	0x2
 1605 0662 23       		.byte	0x23
 1606 0663 14       		.uleb128 0x14
 1607 0664 06       		.uleb128 0x6
 1608 0665 E4000000 		.4byte	.LASF103
 1609 0669 10       		.byte	0x10
 1610 066a 9B       		.byte	0x9b
 1611 066b 2C070000 		.4byte	0x72c
 1612 066f 02       		.byte	0x2
 1613 0670 23       		.byte	0x23
 1614 0671 18       		.uleb128 0x18
 1615 0672 06       		.uleb128 0x6
 1616 0673 92070000 		.4byte	.LASF104
 1617 0677 10       		.byte	0x10
 1618 0678 A8       		.byte	0xa8
 1619 0679 A7020000 		.4byte	0x2a7
 1620 067d 02       		.byte	0x2
 1621 067e 23       		.byte	0x23
 1622 067f 1C       		.uleb128 0x1c
 1623 0680 07       		.uleb128 0x7
 1624 0681 6D747500 		.ascii	"mtu\000"
 1625 0685 10       		.byte	0x10
 1626 0686 B6       		.byte	0xb6
 1627 0687 BE040000 		.4byte	0x4be
 1628 068b 02       		.byte	0x2
 1629 068c 23       		.byte	0x23
 1630 068d 20       		.uleb128 0x20
 1631 068e 06       		.uleb128 0x6
 1632 068f FC010000 		.4byte	.LASF105
 1633 0693 10       		.byte	0x10
 1634 0694 B8       		.byte	0xb8
 1635 0695 A8040000 		.4byte	0x4a8
 1636 0699 02       		.byte	0x2
 1637 069a 23       		.byte	0x23
 1638 069b 22       		.uleb128 0x22
 1639 069c 06       		.uleb128 0x6
 1640 069d C8010000 		.4byte	.LASF106
ARM GAS  /var/folders/5n/p_75w94d66l9ssrldxqdhh700000gn/T//cc9oN6XQ.s 			page 30


 1641 06a1 10       		.byte	0x10
 1642 06a2 BA       		.byte	0xba
 1643 06a3 52070000 		.4byte	0x752
 1644 06a7 02       		.byte	0x2
 1645 06a8 23       		.byte	0x23
 1646 06a9 23       		.uleb128 0x23
 1647 06aa 06       		.uleb128 0x6
 1648 06ab 68000000 		.4byte	.LASF95
 1649 06af 10       		.byte	0x10
 1650 06b0 BC       		.byte	0xbc
 1651 06b1 A8040000 		.4byte	0x4a8
 1652 06b5 02       		.byte	0x2
 1653 06b6 23       		.byte	0x23
 1654 06b7 29       		.uleb128 0x29
 1655 06b8 06       		.uleb128 0x6
 1656 06b9 5E060000 		.4byte	.LASF107
 1657 06bd 10       		.byte	0x10
 1658 06be BE       		.byte	0xbe
 1659 06bf 62070000 		.4byte	0x762
 1660 06c3 02       		.byte	0x2
 1661 06c4 23       		.byte	0x23
 1662 06c5 2A       		.uleb128 0x2a
 1663 06c6 07       		.uleb128 0x7
 1664 06c7 6E756D00 		.ascii	"num\000"
 1665 06cb 10       		.byte	0x10
 1666 06cc C0       		.byte	0xc0
 1667 06cd A8040000 		.4byte	0x4a8
 1668 06d1 02       		.byte	0x2
 1669 06d2 23       		.byte	0x23
 1670 06d3 2C       		.uleb128 0x2c
 1671 06d4 00       		.byte	0
 1672 06d5 03       		.uleb128 0x3
 1673 06d6 53010000 		.4byte	.LASF108
 1674 06da 10       		.byte	0x10
 1675 06db 6D       		.byte	0x6d
 1676 06dc E0060000 		.4byte	0x6e0
 1677 06e0 09       		.uleb128 0x9
 1678 06e1 04       		.byte	0x4
 1679 06e2 E6060000 		.4byte	0x6e6
 1680 06e6 15       		.uleb128 0x15
 1681 06e7 01       		.byte	0x1
 1682 06e8 D4040000 		.4byte	0x4d4
 1683 06ec FB060000 		.4byte	0x6fb
 1684 06f0 0E       		.uleb128 0xe
 1685 06f1 D3050000 		.4byte	0x5d3
 1686 06f5 0E       		.uleb128 0xe
 1687 06f6 FF050000 		.4byte	0x5ff
 1688 06fa 00       		.byte	0
 1689 06fb 03       		.uleb128 0x3
 1690 06fc 0C010000 		.4byte	.LASF109
 1691 0700 10       		.byte	0x10
 1692 0701 76       		.byte	0x76
 1693 0702 06070000 		.4byte	0x706
 1694 0706 09       		.uleb128 0x9
 1695 0707 04       		.byte	0x4
 1696 0708 0C070000 		.4byte	0x70c
 1697 070c 15       		.uleb128 0x15
ARM GAS  /var/folders/5n/p_75w94d66l9ssrldxqdhh700000gn/T//cc9oN6XQ.s 			page 31


 1698 070d 01       		.byte	0x1
 1699 070e D4040000 		.4byte	0x4d4
 1700 0712 26070000 		.4byte	0x726
 1701 0716 0E       		.uleb128 0xe
 1702 0717 FF050000 		.4byte	0x5ff
 1703 071b 0E       		.uleb128 0xe
 1704 071c D3050000 		.4byte	0x5d3
 1705 0720 0E       		.uleb128 0xe
 1706 0721 26070000 		.4byte	0x726
 1707 0725 00       		.byte	0
 1708 0726 09       		.uleb128 0x9
 1709 0727 04       		.byte	0x4
 1710 0728 F4050000 		.4byte	0x5f4
 1711 072c 03       		.uleb128 0x3
 1712 072d 6A060000 		.4byte	.LASF110
 1713 0731 10       		.byte	0x10
 1714 0732 7E       		.byte	0x7e
 1715 0733 37070000 		.4byte	0x737
 1716 0737 09       		.uleb128 0x9
 1717 0738 04       		.byte	0x4
 1718 0739 3D070000 		.4byte	0x73d
 1719 073d 15       		.uleb128 0x15
 1720 073e 01       		.byte	0x1
 1721 073f D4040000 		.4byte	0x4d4
 1722 0743 52070000 		.4byte	0x752
 1723 0747 0E       		.uleb128 0xe
 1724 0748 FF050000 		.4byte	0x5ff
 1725 074c 0E       		.uleb128 0xe
 1726 074d D3050000 		.4byte	0x5d3
 1727 0751 00       		.byte	0
 1728 0752 16       		.uleb128 0x16
 1729 0753 A8040000 		.4byte	0x4a8
 1730 0757 62070000 		.4byte	0x762
 1731 075b 17       		.uleb128 0x17
 1732 075c 3B000000 		.4byte	0x3b
 1733 0760 05       		.byte	0x5
 1734 0761 00       		.byte	0
 1735 0762 16       		.uleb128 0x16
 1736 0763 9B040000 		.4byte	0x49b
 1737 0767 72070000 		.4byte	0x772
 1738 076b 17       		.uleb128 0x17
 1739 076c 3B000000 		.4byte	0x3b
 1740 0770 01       		.byte	0x1
 1741 0771 00       		.byte	0
 1742 0772 05       		.uleb128 0x5
 1743 0773 63060000 		.4byte	.LASF111
 1744 0777 10       		.byte	0x10
 1745 0778 11       		.byte	0x11
 1746 0779 30       		.byte	0x30
 1747 077a B5070000 		.4byte	0x7b5
 1748 077e 07       		.uleb128 0x7
 1749 077f 7000     		.ascii	"p\000"
 1750 0781 11       		.byte	0x11
 1751 0782 31       		.byte	0x31
 1752 0783 D3050000 		.4byte	0x5d3
 1753 0787 02       		.byte	0x2
 1754 0788 23       		.byte	0x23
ARM GAS  /var/folders/5n/p_75w94d66l9ssrldxqdhh700000gn/T//cc9oN6XQ.s 			page 32


 1755 0789 00       		.uleb128 0
 1756 078a 07       		.uleb128 0x7
 1757 078b 70747200 		.ascii	"ptr\000"
 1758 078f 11       		.byte	0x11
 1759 0790 31       		.byte	0x31
 1760 0791 D3050000 		.4byte	0x5d3
 1761 0795 02       		.byte	0x2
 1762 0796 23       		.byte	0x23
 1763 0797 04       		.uleb128 0x4
 1764 0798 06       		.uleb128 0x6
 1765 0799 8D070000 		.4byte	.LASF97
 1766 079d 11       		.byte	0x11
 1767 079e 32       		.byte	0x32
 1768 079f F4050000 		.4byte	0x5f4
 1769 07a3 02       		.byte	0x2
 1770 07a4 23       		.byte	0x23
 1771 07a5 08       		.uleb128 0x8
 1772 07a6 06       		.uleb128 0x6
 1773 07a7 D8060000 		.4byte	.LASF112
 1774 07ab 11       		.byte	0x11
 1775 07ac 33       		.byte	0x33
 1776 07ad BE040000 		.4byte	0x4be
 1777 07b1 02       		.byte	0x2
 1778 07b2 23       		.byte	0x23
 1779 07b3 0C       		.uleb128 0xc
 1780 07b4 00       		.byte	0
 1781 07b5 18       		.uleb128 0x18
 1782 07b6 54050000 		.4byte	.LASF119
 1783 07ba 01       		.byte	0x1
 1784 07bb 12       		.byte	0x12
 1785 07bc 53       		.byte	0x53
 1786 07bd E7070000 		.4byte	0x7e7
 1787 07c1 14       		.uleb128 0x14
 1788 07c2 E6010000 		.4byte	.LASF113
 1789 07c6 00       		.sleb128 0
 1790 07c7 14       		.uleb128 0x14
 1791 07c8 37070000 		.4byte	.LASF114
 1792 07cc 10       		.sleb128 16
 1793 07cd 14       		.uleb128 0x14
 1794 07ce 43020000 		.4byte	.LASF115
 1795 07d2 20       		.sleb128 32
 1796 07d3 14       		.uleb128 0x14
 1797 07d4 0D080000 		.4byte	.LASF116
 1798 07d8 21       		.sleb128 33
 1799 07d9 14       		.uleb128 0x14
 1800 07da C4000000 		.4byte	.LASF117
 1801 07de 22       		.sleb128 34
 1802 07df 14       		.uleb128 0x14
 1803 07e0 01080000 		.4byte	.LASF118
 1804 07e4 C000     		.sleb128 64
 1805 07e6 00       		.byte	0
 1806 07e7 18       		.uleb128 0x18
 1807 07e8 24010000 		.4byte	.LASF120
 1808 07ec 01       		.byte	0x1
 1809 07ed 12       		.byte	0x12
 1810 07ee 61       		.byte	0x61
 1811 07ef 12080000 		.4byte	0x812
ARM GAS  /var/folders/5n/p_75w94d66l9ssrldxqdhh700000gn/T//cc9oN6XQ.s 			page 33


 1812 07f3 14       		.uleb128 0x14
 1813 07f4 40050000 		.4byte	.LASF121
 1814 07f8 00       		.sleb128 0
 1815 07f9 14       		.uleb128 0x14
 1816 07fa B1000000 		.4byte	.LASF122
 1817 07fe 01       		.sleb128 1
 1818 07ff 14       		.uleb128 0x14
 1819 0800 48070000 		.4byte	.LASF123
 1820 0804 02       		.sleb128 2
 1821 0805 14       		.uleb128 0x14
 1822 0806 61050000 		.4byte	.LASF124
 1823 080a 03       		.sleb128 3
 1824 080b 14       		.uleb128 0x14
 1825 080c C5070000 		.4byte	.LASF125
 1826 0810 04       		.sleb128 4
 1827 0811 00       		.byte	0
 1828 0812 18       		.uleb128 0x18
 1829 0813 E3060000 		.4byte	.LASF126
 1830 0817 01       		.byte	0x1
 1831 0818 12       		.byte	0x12
 1832 0819 6A       		.byte	0x6a
 1833 081a 3D080000 		.4byte	0x83d
 1834 081e 14       		.uleb128 0x14
 1835 081f 2F020000 		.4byte	.LASF127
 1836 0823 00       		.sleb128 0
 1837 0824 14       		.uleb128 0x14
 1838 0825 FB020000 		.4byte	.LASF128
 1839 0829 01       		.sleb128 1
 1840 082a 14       		.uleb128 0x14
 1841 082b 3E010000 		.4byte	.LASF129
 1842 082f 02       		.sleb128 2
 1843 0830 14       		.uleb128 0x14
 1844 0831 45030000 		.4byte	.LASF130
 1845 0835 03       		.sleb128 3
 1846 0836 14       		.uleb128 0x14
 1847 0837 91010000 		.4byte	.LASF131
 1848 083b 04       		.sleb128 4
 1849 083c 00       		.byte	0
 1850 083d 03       		.uleb128 0x3
 1851 083e EF060000 		.4byte	.LASF132
 1852 0842 12       		.byte	0x12
 1853 0843 83       		.byte	0x83
 1854 0844 48080000 		.4byte	0x848
 1855 0848 09       		.uleb128 0x9
 1856 0849 04       		.byte	0x4
 1857 084a 4E080000 		.4byte	0x84e
 1858 084e 0D       		.uleb128 0xd
 1859 084f 01       		.byte	0x1
 1860 0850 64080000 		.4byte	0x864
 1861 0854 0E       		.uleb128 0xe
 1862 0855 64080000 		.4byte	0x864
 1863 0859 0E       		.uleb128 0xe
 1864 085a 12080000 		.4byte	0x812
 1865 085e 0E       		.uleb128 0xe
 1866 085f BE040000 		.4byte	0x4be
 1867 0863 00       		.byte	0
 1868 0864 09       		.uleb128 0x9
ARM GAS  /var/folders/5n/p_75w94d66l9ssrldxqdhh700000gn/T//cc9oN6XQ.s 			page 34


 1869 0865 04       		.byte	0x4
 1870 0866 6A080000 		.4byte	0x86a
 1871 086a 05       		.uleb128 0x5
 1872 086b 3E080000 		.4byte	.LASF133
 1873 086f 2C       		.byte	0x2c
 1874 0870 12       		.byte	0x12
 1875 0871 86       		.byte	0x86
 1876 0872 1F090000 		.4byte	0x91f
 1877 0876 06       		.uleb128 0x6
 1878 0877 00070000 		.4byte	.LASF94
 1879 087b 12       		.byte	0x12
 1880 087c 88       		.byte	0x88
 1881 087d B5070000 		.4byte	0x7b5
 1882 0881 02       		.byte	0x2
 1883 0882 23       		.byte	0x23
 1884 0883 00       		.uleb128 0
 1885 0884 06       		.uleb128 0x6
 1886 0885 92070000 		.4byte	.LASF104
 1887 0889 12       		.byte	0x12
 1888 088a 8A       		.byte	0x8a
 1889 088b E7070000 		.4byte	0x7e7
 1890 088f 02       		.byte	0x2
 1891 0890 23       		.byte	0x23
 1892 0891 01       		.uleb128 0x1
 1893 0892 07       		.uleb128 0x7
 1894 0893 70636200 		.ascii	"pcb\000"
 1895 0897 12       		.byte	0x12
 1896 0898 91       		.byte	0x91
 1897 0899 1F090000 		.4byte	0x91f
 1898 089d 02       		.byte	0x2
 1899 089e 23       		.byte	0x23
 1900 089f 04       		.uleb128 0x4
 1901 08a0 06       		.uleb128 0x6
 1902 08a1 A5020000 		.4byte	.LASF134
 1903 08a5 12       		.byte	0x12
 1904 08a6 93       		.byte	0x93
 1905 08a7 D4040000 		.4byte	0x4d4
 1906 08ab 02       		.byte	0x2
 1907 08ac 23       		.byte	0x23
 1908 08ad 08       		.uleb128 0x8
 1909 08ae 06       		.uleb128 0x6
 1910 08af 27080000 		.4byte	.LASF135
 1911 08b3 12       		.byte	0x12
 1912 08b4 95       		.byte	0x95
 1913 08b5 DF040000 		.4byte	0x4df
 1914 08b9 02       		.byte	0x2
 1915 08ba 23       		.byte	0x23
 1916 08bb 0C       		.uleb128 0xc
 1917 08bc 06       		.uleb128 0x6
 1918 08bd 88000000 		.4byte	.LASF136
 1919 08c1 12       		.byte	0x12
 1920 08c2 98       		.byte	0x98
 1921 08c3 F0040000 		.4byte	0x4f0
 1922 08c7 02       		.byte	0x2
 1923 08c8 23       		.byte	0x23
 1924 08c9 10       		.uleb128 0x10
 1925 08ca 06       		.uleb128 0x6
ARM GAS  /var/folders/5n/p_75w94d66l9ssrldxqdhh700000gn/T//cc9oN6XQ.s 			page 35


 1926 08cb DB030000 		.4byte	.LASF137
 1927 08cf 12       		.byte	0x12
 1928 08d0 9C       		.byte	0x9c
 1929 08d1 F0040000 		.4byte	0x4f0
 1930 08d5 02       		.byte	0x2
 1931 08d6 23       		.byte	0x23
 1932 08d7 14       		.uleb128 0x14
 1933 08d8 06       		.uleb128 0x6
 1934 08d9 33060000 		.4byte	.LASF138
 1935 08dd 12       		.byte	0x12
 1936 08de A0       		.byte	0xa0
 1937 08df 29000000 		.4byte	0x29
 1938 08e3 02       		.byte	0x2
 1939 08e4 23       		.byte	0x23
 1940 08e5 18       		.uleb128 0x18
 1941 08e6 06       		.uleb128 0x6
 1942 08e7 68000000 		.4byte	.LASF95
 1943 08eb 12       		.byte	0x12
 1944 08ec B1       		.byte	0xb1
 1945 08ed A8040000 		.4byte	0x4a8
 1946 08f1 02       		.byte	0x2
 1947 08f2 23       		.byte	0x23
 1948 08f3 1C       		.uleb128 0x1c
 1949 08f4 06       		.uleb128 0x6
 1950 08f5 80070000 		.4byte	.LASF139
 1951 08f9 12       		.byte	0x12
 1952 08fa B5       		.byte	0xb5
 1953 08fb 30000000 		.4byte	0x30
 1954 08ff 02       		.byte	0x2
 1955 0900 23       		.byte	0x23
 1956 0901 20       		.uleb128 0x20
 1957 0902 06       		.uleb128 0x6
 1958 0903 F1050000 		.4byte	.LASF140
 1959 0907 12       		.byte	0x12
 1960 0908 B9       		.byte	0xb9
 1961 0909 070A0000 		.4byte	0xa07
 1962 090d 02       		.byte	0x2
 1963 090e 23       		.byte	0x23
 1964 090f 24       		.uleb128 0x24
 1965 0910 06       		.uleb128 0x6
 1966 0911 98070000 		.4byte	.LASF141
 1967 0915 12       		.byte	0x12
 1968 0916 BC       		.byte	0xbc
 1969 0917 3D080000 		.4byte	0x83d
 1970 091b 02       		.byte	0x2
 1971 091c 23       		.byte	0x23
 1972 091d 28       		.uleb128 0x28
 1973 091e 00       		.byte	0
 1974 091f 10       		.uleb128 0x10
 1975 0920 04       		.byte	0x4
 1976 0921 12       		.byte	0x12
 1977 0922 8C       		.byte	0x8c
 1978 0923 53090000 		.4byte	0x953
 1979 0927 19       		.uleb128 0x19
 1980 0928 697000   		.ascii	"ip\000"
 1981 092b 12       		.byte	0x12
 1982 092c 8D       		.byte	0x8d
ARM GAS  /var/folders/5n/p_75w94d66l9ssrldxqdhh700000gn/T//cc9oN6XQ.s 			page 36


 1983 092d A6090000 		.4byte	0x9a6
 1984 0931 19       		.uleb128 0x19
 1985 0932 74637000 		.ascii	"tcp\000"
 1986 0936 12       		.byte	0x12
 1987 0937 8E       		.byte	0x8e
 1988 0938 B2090000 		.4byte	0x9b2
 1989 093c 19       		.uleb128 0x19
 1990 093d 75647000 		.ascii	"udp\000"
 1991 0941 12       		.byte	0x12
 1992 0942 8F       		.byte	0x8f
 1993 0943 BE090000 		.4byte	0x9be
 1994 0947 19       		.uleb128 0x19
 1995 0948 72617700 		.ascii	"raw\000"
 1996 094c 12       		.byte	0x12
 1997 094d 90       		.byte	0x90
 1998 094e CA090000 		.4byte	0x9ca
 1999 0952 00       		.byte	0
 2000 0953 05       		.uleb128 0x5
 2001 0954 30070000 		.4byte	.LASF142
 2002 0958 0C       		.byte	0xc
 2003 0959 13       		.byte	0x13
 2004 095a 59       		.byte	0x59
 2005 095b A6090000 		.4byte	0x9a6
 2006 095f 06       		.uleb128 0x6
 2007 0960 1F060000 		.4byte	.LASF143
 2008 0964 13       		.byte	0x13
 2009 0965 5B       		.byte	0x5b
 2010 0966 F4050000 		.4byte	0x5f4
 2011 096a 02       		.byte	0x2
 2012 096b 23       		.byte	0x23
 2013 096c 00       		.uleb128 0
 2014 096d 06       		.uleb128 0x6
 2015 096e 1D080000 		.4byte	.LASF144
 2016 0972 13       		.byte	0x13
 2017 0973 5B       		.byte	0x5b
 2018 0974 F4050000 		.4byte	0x5f4
 2019 0978 02       		.byte	0x2
 2020 0979 23       		.byte	0x23
 2021 097a 04       		.uleb128 0x4
 2022 097b 06       		.uleb128 0x6
 2023 097c 39000000 		.4byte	.LASF145
 2024 0980 13       		.byte	0x13
 2025 0981 5B       		.byte	0x5b
 2026 0982 A8040000 		.4byte	0x4a8
 2027 0986 02       		.byte	0x2
 2028 0987 23       		.byte	0x23
 2029 0988 08       		.uleb128 0x8
 2030 0989 07       		.uleb128 0x7
 2031 098a 746F7300 		.ascii	"tos\000"
 2032 098e 13       		.byte	0x13
 2033 098f 5B       		.byte	0x5b
 2034 0990 A8040000 		.4byte	0x4a8
 2035 0994 02       		.byte	0x2
 2036 0995 23       		.byte	0x23
 2037 0996 09       		.uleb128 0x9
 2038 0997 07       		.uleb128 0x7
 2039 0998 74746C00 		.ascii	"ttl\000"
ARM GAS  /var/folders/5n/p_75w94d66l9ssrldxqdhh700000gn/T//cc9oN6XQ.s 			page 37


 2040 099c 13       		.byte	0x13
 2041 099d 5B       		.byte	0x5b
 2042 099e A8040000 		.4byte	0x4a8
 2043 09a2 02       		.byte	0x2
 2044 09a3 23       		.byte	0x23
 2045 09a4 0A       		.uleb128 0xa
 2046 09a5 00       		.byte	0
 2047 09a6 09       		.uleb128 0x9
 2048 09a7 04       		.byte	0x4
 2049 09a8 53090000 		.4byte	0x953
 2050 09ac 1A       		.uleb128 0x1a
 2051 09ad E6070000 		.4byte	.LASF146
 2052 09b1 01       		.byte	0x1
 2053 09b2 09       		.uleb128 0x9
 2054 09b3 04       		.byte	0x4
 2055 09b4 AC090000 		.4byte	0x9ac
 2056 09b8 1A       		.uleb128 0x1a
 2057 09b9 16000000 		.4byte	.LASF147
 2058 09bd 01       		.byte	0x1
 2059 09be 09       		.uleb128 0x9
 2060 09bf 04       		.byte	0x4
 2061 09c0 B8090000 		.4byte	0x9b8
 2062 09c4 1A       		.uleb128 0x1a
 2063 09c5 91000000 		.4byte	.LASF148
 2064 09c9 01       		.byte	0x1
 2065 09ca 09       		.uleb128 0x9
 2066 09cb 04       		.byte	0x4
 2067 09cc C4090000 		.4byte	0x9c4
 2068 09d0 05       		.uleb128 0x5
 2069 09d1 EF020000 		.4byte	.LASF149
 2070 09d5 14       		.byte	0x14
 2071 09d6 14       		.byte	0x14
 2072 09d7 3E       		.byte	0x3e
 2073 09d8 070A0000 		.4byte	0xa07
 2074 09dc 06       		.uleb128 0x6
 2075 09dd 89020000 		.4byte	.LASF150
 2076 09e1 14       		.byte	0x14
 2077 09e2 41       		.byte	0x41
 2078 09e3 64080000 		.4byte	0x864
 2079 09e7 02       		.byte	0x2
 2080 09e8 23       		.byte	0x23
 2081 09e9 00       		.uleb128 0
 2082 09ea 07       		.uleb128 0x7
 2083 09eb 65727200 		.ascii	"err\000"
 2084 09ef 14       		.byte	0x14
 2085 09f0 43       		.byte	0x43
 2086 09f1 D4040000 		.4byte	0x4d4
 2087 09f5 02       		.byte	0x2
 2088 09f6 23       		.byte	0x23
 2089 09f7 04       		.uleb128 0x4
 2090 09f8 07       		.uleb128 0x7
 2091 09f9 6D736700 		.ascii	"msg\000"
 2092 09fd 14       		.byte	0x14
 2093 09fe 72       		.byte	0x72
 2094 09ff EA0A0000 		.4byte	0xaea
 2095 0a03 02       		.byte	0x2
 2096 0a04 23       		.byte	0x23
ARM GAS  /var/folders/5n/p_75w94d66l9ssrldxqdhh700000gn/T//cc9oN6XQ.s 			page 38


 2097 0a05 08       		.uleb128 0x8
 2098 0a06 00       		.byte	0
 2099 0a07 09       		.uleb128 0x9
 2100 0a08 04       		.byte	0x4
 2101 0a09 D0090000 		.4byte	0x9d0
 2102 0a0d 08       		.uleb128 0x8
 2103 0a0e 01       		.byte	0x1
 2104 0a0f 14       		.byte	0x14
 2105 0a10 49       		.byte	0x49
 2106 0a11 240A0000 		.4byte	0xa24
 2107 0a15 06       		.uleb128 0x6
 2108 0a16 97030000 		.4byte	.LASF151
 2109 0a1a 14       		.byte	0x14
 2110 0a1b 4A       		.byte	0x4a
 2111 0a1c A8040000 		.4byte	0x4a8
 2112 0a20 02       		.byte	0x2
 2113 0a21 23       		.byte	0x23
 2114 0a22 00       		.uleb128 0
 2115 0a23 00       		.byte	0
 2116 0a24 08       		.uleb128 0x8
 2117 0a25 08       		.byte	0x8
 2118 0a26 14       		.byte	0x14
 2119 0a27 4D       		.byte	0x4d
 2120 0a28 490A0000 		.4byte	0xa49
 2121 0a2c 06       		.uleb128 0x6
 2122 0a2d 57020000 		.4byte	.LASF152
 2123 0a31 14       		.byte	0x14
 2124 0a32 4E       		.byte	0x4e
 2125 0a33 26070000 		.4byte	0x726
 2126 0a37 02       		.byte	0x2
 2127 0a38 23       		.byte	0x23
 2128 0a39 00       		.uleb128 0
 2129 0a3a 06       		.uleb128 0x6
 2130 0a3b D8060000 		.4byte	.LASF112
 2131 0a3f 14       		.byte	0x14
 2132 0a40 4F       		.byte	0x4f
 2133 0a41 BE040000 		.4byte	0x4be
 2134 0a45 02       		.byte	0x2
 2135 0a46 23       		.byte	0x23
 2136 0a47 04       		.uleb128 0x4
 2137 0a48 00       		.byte	0
 2138 0a49 08       		.uleb128 0x8
 2139 0a4a 0C       		.byte	0xc
 2140 0a4b 14       		.byte	0x14
 2141 0a4c 52       		.byte	0x52
 2142 0a4d 7C0A0000 		.4byte	0xa7c
 2143 0a51 06       		.uleb128 0x6
 2144 0a52 57020000 		.4byte	.LASF152
 2145 0a56 14       		.byte	0x14
 2146 0a57 53       		.byte	0x53
 2147 0a58 26070000 		.4byte	0x726
 2148 0a5c 02       		.byte	0x2
 2149 0a5d 23       		.byte	0x23
 2150 0a5e 00       		.uleb128 0
 2151 0a5f 06       		.uleb128 0x6
 2152 0a60 D8060000 		.4byte	.LASF112
 2153 0a64 14       		.byte	0x14
ARM GAS  /var/folders/5n/p_75w94d66l9ssrldxqdhh700000gn/T//cc9oN6XQ.s 			page 39


 2154 0a65 54       		.byte	0x54
 2155 0a66 7C0A0000 		.4byte	0xa7c
 2156 0a6a 02       		.byte	0x2
 2157 0a6b 23       		.byte	0x23
 2158 0a6c 04       		.uleb128 0x4
 2159 0a6d 06       		.uleb128 0x6
 2160 0a6e DE000000 		.4byte	.LASF153
 2161 0a72 14       		.byte	0x14
 2162 0a73 55       		.byte	0x55
 2163 0a74 A8040000 		.4byte	0x4a8
 2164 0a78 02       		.byte	0x2
 2165 0a79 23       		.byte	0x23
 2166 0a7a 08       		.uleb128 0x8
 2167 0a7b 00       		.byte	0
 2168 0a7c 09       		.uleb128 0x9
 2169 0a7d 04       		.byte	0x4
 2170 0a7e BE040000 		.4byte	0x4be
 2171 0a82 08       		.uleb128 0x8
 2172 0a83 0C       		.byte	0xc
 2173 0a84 14       		.byte	0x14
 2174 0a85 58       		.byte	0x58
 2175 0a86 B50A0000 		.4byte	0xab5
 2176 0a8a 06       		.uleb128 0x6
 2177 0a8b 19050000 		.4byte	.LASF154
 2178 0a8f 14       		.byte	0x14
 2179 0a90 59       		.byte	0x59
 2180 0a91 B50A0000 		.4byte	0xab5
 2181 0a95 02       		.byte	0x2
 2182 0a96 23       		.byte	0x23
 2183 0a97 00       		.uleb128 0
 2184 0a98 07       		.uleb128 0x7
 2185 0a99 6C656E00 		.ascii	"len\000"
 2186 0a9d 14       		.byte	0x14
 2187 0a9e 5A       		.byte	0x5a
 2188 0a9f 30000000 		.4byte	0x30
 2189 0aa3 02       		.byte	0x2
 2190 0aa4 23       		.byte	0x23
 2191 0aa5 04       		.uleb128 0x4
 2192 0aa6 06       		.uleb128 0x6
 2193 0aa7 A2050000 		.4byte	.LASF155
 2194 0aab 14       		.byte	0x14
 2195 0aac 5B       		.byte	0x5b
 2196 0aad A8040000 		.4byte	0x4a8
 2197 0ab1 02       		.byte	0x2
 2198 0ab2 23       		.byte	0x23
 2199 0ab3 08       		.uleb128 0x8
 2200 0ab4 00       		.byte	0
 2201 0ab5 09       		.uleb128 0x9
 2202 0ab6 04       		.byte	0x4
 2203 0ab7 BB0A0000 		.4byte	0xabb
 2204 0abb 1B       		.uleb128 0x1b
 2205 0abc 08       		.uleb128 0x8
 2206 0abd 04       		.byte	0x4
 2207 0abe 14       		.byte	0x14
 2208 0abf 5E       		.byte	0x5e
 2209 0ac0 D30A0000 		.4byte	0xad3
 2210 0ac4 07       		.uleb128 0x7
ARM GAS  /var/folders/5n/p_75w94d66l9ssrldxqdhh700000gn/T//cc9oN6XQ.s 			page 40


 2211 0ac5 6C656E00 		.ascii	"len\000"
 2212 0ac9 14       		.byte	0x14
 2213 0aca 5F       		.byte	0x5f
 2214 0acb C9040000 		.4byte	0x4c9
 2215 0acf 02       		.byte	0x2
 2216 0ad0 23       		.byte	0x23
 2217 0ad1 00       		.uleb128 0
 2218 0ad2 00       		.byte	0
 2219 0ad3 08       		.uleb128 0x8
 2220 0ad4 01       		.byte	0x1
 2221 0ad5 14       		.byte	0x14
 2222 0ad6 62       		.byte	0x62
 2223 0ad7 EA0A0000 		.4byte	0xaea
 2224 0adb 06       		.uleb128 0x6
 2225 0adc 43070000 		.4byte	.LASF156
 2226 0ae0 14       		.byte	0x14
 2227 0ae1 63       		.byte	0x63
 2228 0ae2 A8040000 		.4byte	0x4a8
 2229 0ae6 02       		.byte	0x2
 2230 0ae7 23       		.byte	0x23
 2231 0ae8 00       		.uleb128 0
 2232 0ae9 00       		.byte	0
 2233 0aea 10       		.uleb128 0x10
 2234 0aeb 0C       		.byte	0xc
 2235 0aec 14       		.byte	0x14
 2236 0aed 45       		.byte	0x45
 2237 0aee 350B0000 		.4byte	0xb35
 2238 0af2 19       		.uleb128 0x19
 2239 0af3 6200     		.ascii	"b\000"
 2240 0af5 14       		.byte	0x14
 2241 0af6 47       		.byte	0x47
 2242 0af7 350B0000 		.4byte	0xb35
 2243 0afb 19       		.uleb128 0x19
 2244 0afc 6E00     		.ascii	"n\000"
 2245 0afe 14       		.byte	0x14
 2246 0aff 4B       		.byte	0x4b
 2247 0b00 0D0A0000 		.4byte	0xa0d
 2248 0b04 19       		.uleb128 0x19
 2249 0b05 626300   		.ascii	"bc\000"
 2250 0b08 14       		.byte	0x14
 2251 0b09 50       		.byte	0x50
 2252 0b0a 240A0000 		.4byte	0xa24
 2253 0b0e 19       		.uleb128 0x19
 2254 0b0f 616400   		.ascii	"ad\000"
 2255 0b12 14       		.byte	0x14
 2256 0b13 56       		.byte	0x56
 2257 0b14 490A0000 		.4byte	0xa49
 2258 0b18 19       		.uleb128 0x19
 2259 0b19 7700     		.ascii	"w\000"
 2260 0b1b 14       		.byte	0x14
 2261 0b1c 5C       		.byte	0x5c
 2262 0b1d 820A0000 		.4byte	0xa82
 2263 0b21 19       		.uleb128 0x19
 2264 0b22 7200     		.ascii	"r\000"
 2265 0b24 14       		.byte	0x14
 2266 0b25 60       		.byte	0x60
 2267 0b26 BC0A0000 		.4byte	0xabc
ARM GAS  /var/folders/5n/p_75w94d66l9ssrldxqdhh700000gn/T//cc9oN6XQ.s 			page 41


 2268 0b2a 19       		.uleb128 0x19
 2269 0b2b 736400   		.ascii	"sd\000"
 2270 0b2e 14       		.byte	0x14
 2271 0b2f 64       		.byte	0x64
 2272 0b30 D30A0000 		.4byte	0xad3
 2273 0b34 00       		.byte	0
 2274 0b35 09       		.uleb128 0x9
 2275 0b36 04       		.byte	0x4
 2276 0b37 72070000 		.4byte	0x772
 2277 0b3b 05       		.uleb128 0x5
 2278 0b3c F9030000 		.4byte	.LASF157
 2279 0b40 18       		.byte	0x18
 2280 0b41 14       		.byte	0x14
 2281 0b42 78       		.byte	0x78
 2282 0b43 640B0000 		.4byte	0xb64
 2283 0b47 06       		.uleb128 0x6
 2284 0b48 13070000 		.4byte	.LASF158
 2285 0b4c 14       		.byte	0x14
 2286 0b4d 7A       		.byte	0x7a
 2287 0b4e 700B0000 		.4byte	0xb70
 2288 0b52 02       		.byte	0x2
 2289 0b53 23       		.byte	0x23
 2290 0b54 00       		.uleb128 0
 2291 0b55 07       		.uleb128 0x7
 2292 0b56 6D736700 		.ascii	"msg\000"
 2293 0b5a 14       		.byte	0x14
 2294 0b5b 7C       		.byte	0x7c
 2295 0b5c D0090000 		.4byte	0x9d0
 2296 0b60 02       		.byte	0x2
 2297 0b61 23       		.byte	0x23
 2298 0b62 04       		.uleb128 0x4
 2299 0b63 00       		.byte	0
 2300 0b64 0D       		.uleb128 0xd
 2301 0b65 01       		.byte	0x1
 2302 0b66 700B0000 		.4byte	0xb70
 2303 0b6a 0E       		.uleb128 0xe
 2304 0b6b 070A0000 		.4byte	0xa07
 2305 0b6f 00       		.byte	0
 2306 0b70 09       		.uleb128 0x9
 2307 0b71 04       		.byte	0x4
 2308 0b72 640B0000 		.4byte	0xb64
 2309 0b76 03       		.uleb128 0x3
 2310 0b77 54000000 		.4byte	.LASF159
 2311 0b7b 15       		.byte	0x15
 2312 0b7c 3F       		.byte	0x3f
 2313 0b7d 5A030000 		.4byte	0x35a
 2314 0b81 03       		.uleb128 0x3
 2315 0b82 F0040000 		.4byte	.LASF160
 2316 0b86 16       		.byte	0x16
 2317 0b87 4C       		.byte	0x4c
 2318 0b88 5A030000 		.4byte	0x35a
 2319 0b8c 03       		.uleb128 0x3
 2320 0b8d DF050000 		.4byte	.LASF161
 2321 0b91 16       		.byte	0x16
 2322 0b92 4E       		.byte	0x4e
 2323 0b93 5A030000 		.4byte	0x35a
 2324 0b97 18       		.uleb128 0x18
ARM GAS  /var/folders/5n/p_75w94d66l9ssrldxqdhh700000gn/T//cc9oN6XQ.s 			page 42


 2325 0b98 01040000 		.4byte	.LASF162
 2326 0b9c 01       		.byte	0x1
 2327 0b9d 16       		.byte	0x16
 2328 0b9e 6E       		.byte	0x6e
 2329 0b9f C20B0000 		.4byte	0xbc2
 2330 0ba3 14       		.uleb128 0x14
 2331 0ba4 FD050000 		.4byte	.LASF163
 2332 0ba8 00       		.sleb128 0
 2333 0ba9 14       		.uleb128 0x14
 2334 0baa A3010000 		.4byte	.LASF164
 2335 0bae 01       		.sleb128 1
 2336 0baf 14       		.uleb128 0x14
 2337 0bb0 B6040000 		.4byte	.LASF165
 2338 0bb4 02       		.sleb128 2
 2339 0bb5 14       		.uleb128 0x14
 2340 0bb6 46080000 		.4byte	.LASF166
 2341 0bba 03       		.sleb128 3
 2342 0bbb 14       		.uleb128 0x14
 2343 0bbc E6030000 		.4byte	.LASF167
 2344 0bc0 04       		.sleb128 4
 2345 0bc1 00       		.byte	0
 2346 0bc2 08       		.uleb128 0x8
 2347 0bc3 08       		.byte	0x8
 2348 0bc4 16       		.byte	0x16
 2349 0bc5 87       		.byte	0x87
 2350 0bc6 E50B0000 		.4byte	0xbe5
 2351 0bca 07       		.uleb128 0x7
 2352 0bcb 7000     		.ascii	"p\000"
 2353 0bcd 16       		.byte	0x16
 2354 0bce 88       		.byte	0x88
 2355 0bcf D3050000 		.4byte	0x5d3
 2356 0bd3 02       		.byte	0x2
 2357 0bd4 23       		.byte	0x23
 2358 0bd5 00       		.uleb128 0
 2359 0bd6 06       		.uleb128 0x6
 2360 0bd7 A1070000 		.4byte	.LASF99
 2361 0bdb 16       		.byte	0x16
 2362 0bdc 89       		.byte	0x89
 2363 0bdd FF050000 		.4byte	0x5ff
 2364 0be1 02       		.byte	0x2
 2365 0be2 23       		.byte	0x23
 2366 0be3 04       		.uleb128 0x4
 2367 0be4 00       		.byte	0
 2368 0be5 08       		.uleb128 0x8
 2369 0be6 08       		.byte	0x8
 2370 0be7 16       		.byte	0x16
 2371 0be8 8B       		.byte	0x8b
 2372 0be9 0A0C0000 		.4byte	0xc0a
 2373 0bed 06       		.uleb128 0x6
 2374 0bee 13070000 		.4byte	.LASF158
 2375 0bf2 16       		.byte	0x16
 2376 0bf3 8C       		.byte	0x8c
 2377 0bf4 8C0B0000 		.4byte	0xb8c
 2378 0bf8 02       		.byte	0x2
 2379 0bf9 23       		.byte	0x23
 2380 0bfa 00       		.uleb128 0
 2381 0bfb 07       		.uleb128 0x7
ARM GAS  /var/folders/5n/p_75w94d66l9ssrldxqdhh700000gn/T//cc9oN6XQ.s 			page 43


 2382 0bfc 63747800 		.ascii	"ctx\000"
 2383 0c00 16       		.byte	0x16
 2384 0c01 8D       		.byte	0x8d
 2385 0c02 A7020000 		.4byte	0x2a7
 2386 0c06 02       		.byte	0x2
 2387 0c07 23       		.byte	0x23
 2388 0c08 04       		.uleb128 0x4
 2389 0c09 00       		.byte	0
 2390 0c0a 08       		.uleb128 0x8
 2391 0c0b 0C       		.byte	0xc
 2392 0c0c 16       		.byte	0x16
 2393 0c0d 90       		.byte	0x90
 2394 0c0e 3B0C0000 		.4byte	0xc3b
 2395 0c12 06       		.uleb128 0x6
 2396 0c13 64080000 		.4byte	.LASF168
 2397 0c17 16       		.byte	0x16
 2398 0c18 91       		.byte	0x91
 2399 0c19 C9040000 		.4byte	0x4c9
 2400 0c1d 02       		.byte	0x2
 2401 0c1e 23       		.byte	0x23
 2402 0c1f 00       		.uleb128 0
 2403 0c20 07       		.uleb128 0x7
 2404 0c21 6800     		.ascii	"h\000"
 2405 0c23 16       		.byte	0x16
 2406 0c24 92       		.byte	0x92
 2407 0c25 760B0000 		.4byte	0xb76
 2408 0c29 02       		.byte	0x2
 2409 0c2a 23       		.byte	0x23
 2410 0c2b 04       		.uleb128 0x4
 2411 0c2c 07       		.uleb128 0x7
 2412 0c2d 61726700 		.ascii	"arg\000"
 2413 0c31 16       		.byte	0x16
 2414 0c32 93       		.byte	0x93
 2415 0c33 A7020000 		.4byte	0x2a7
 2416 0c37 02       		.byte	0x2
 2417 0c38 23       		.byte	0x23
 2418 0c39 08       		.uleb128 0x8
 2419 0c3a 00       		.byte	0
 2420 0c3b 10       		.uleb128 0x10
 2421 0c3c 0C       		.byte	0xc
 2422 0c3d 16       		.byte	0x16
 2423 0c3e 80       		.byte	0x80
 2424 0c3f 6F0C0000 		.4byte	0xc6f
 2425 0c43 11       		.uleb128 0x11
 2426 0c44 C7050000 		.4byte	.LASF169
 2427 0c48 16       		.byte	0x16
 2428 0c49 82       		.byte	0x82
 2429 0c4a 6F0C0000 		.4byte	0xc6f
 2430 0c4e 19       		.uleb128 0x19
 2431 0c4f 696E7000 		.ascii	"inp\000"
 2432 0c53 16       		.byte	0x16
 2433 0c54 8A       		.byte	0x8a
 2434 0c55 C20B0000 		.4byte	0xbc2
 2435 0c59 19       		.uleb128 0x19
 2436 0c5a 636200   		.ascii	"cb\000"
 2437 0c5d 16       		.byte	0x16
 2438 0c5e 8E       		.byte	0x8e
ARM GAS  /var/folders/5n/p_75w94d66l9ssrldxqdhh700000gn/T//cc9oN6XQ.s 			page 44


 2439 0c5f E50B0000 		.4byte	0xbe5
 2440 0c63 19       		.uleb128 0x19
 2441 0c64 746D6F00 		.ascii	"tmo\000"
 2442 0c68 16       		.byte	0x16
 2443 0c69 94       		.byte	0x94
 2444 0c6a 0A0C0000 		.4byte	0xc0a
 2445 0c6e 00       		.byte	0
 2446 0c6f 09       		.uleb128 0x9
 2447 0c70 04       		.byte	0x4
 2448 0c71 3B0B0000 		.4byte	0xb3b
 2449 0c75 05       		.uleb128 0x5
 2450 0c76 5A080000 		.4byte	.LASF170
 2451 0c7a 14       		.byte	0x14
 2452 0c7b 16       		.byte	0x16
 2453 0c7c 7D       		.byte	0x7d
 2454 0c7d AC0C0000 		.4byte	0xcac
 2455 0c81 06       		.uleb128 0x6
 2456 0c82 00070000 		.4byte	.LASF94
 2457 0c86 16       		.byte	0x16
 2458 0c87 7E       		.byte	0x7e
 2459 0c88 970B0000 		.4byte	0xb97
 2460 0c8c 02       		.byte	0x2
 2461 0c8d 23       		.byte	0x23
 2462 0c8e 00       		.uleb128 0
 2463 0c8f 07       		.uleb128 0x7
 2464 0c90 73656D00 		.ascii	"sem\000"
 2465 0c94 16       		.byte	0x16
 2466 0c95 7F       		.byte	0x7f
 2467 0c96 AC0C0000 		.4byte	0xcac
 2468 0c9a 02       		.byte	0x2
 2469 0c9b 23       		.byte	0x23
 2470 0c9c 04       		.uleb128 0x4
 2471 0c9d 07       		.uleb128 0x7
 2472 0c9e 6D736700 		.ascii	"msg\000"
 2473 0ca2 16       		.byte	0x16
 2474 0ca3 96       		.byte	0x96
 2475 0ca4 3B0C0000 		.4byte	0xc3b
 2476 0ca8 02       		.byte	0x2
 2477 0ca9 23       		.byte	0x23
 2478 0caa 08       		.uleb128 0x8
 2479 0cab 00       		.byte	0
 2480 0cac 09       		.uleb128 0x9
 2481 0cad 04       		.byte	0x4
 2482 0cae DF040000 		.4byte	0x4df
 2483 0cb2 1C       		.uleb128 0x1c
 2484 0cb3 29050000 		.4byte	.LASF171
 2485 0cb7 01       		.byte	0x1
 2486 0cb8 AD01     		.2byte	0x1ad
 2487 0cba 01       		.byte	0x1
 2488 0cbb 00000000 		.4byte	.LFB14
 2489 0cbf 04000000 		.4byte	.LFE14
 2490 0cc3 02       		.byte	0x2
 2491 0cc4 7D       		.byte	0x7d
 2492 0cc5 00       		.sleb128 0
 2493 0cc6 E30C0000 		.4byte	0xce3
 2494 0cca 1D       		.uleb128 0x1d
 2495 0ccb 7000     		.ascii	"p\000"
ARM GAS  /var/folders/5n/p_75w94d66l9ssrldxqdhh700000gn/T//cc9oN6XQ.s 			page 45


 2496 0ccd 01       		.byte	0x1
 2497 0cce AD01     		.2byte	0x1ad
 2498 0cd0 A7020000 		.4byte	0x2a7
 2499 0cd4 00000000 		.4byte	.LLST0
 2500 0cd8 1E       		.uleb128 0x1e
 2501 0cd9 7100     		.ascii	"q\000"
 2502 0cdb 01       		.byte	0x1
 2503 0cdc AF01     		.2byte	0x1af
 2504 0cde D3050000 		.4byte	0x5d3
 2505 0ce2 00       		.byte	0
 2506 0ce3 1F       		.uleb128 0x1f
 2507 0ce4 8E020000 		.4byte	.LASF172
 2508 0ce8 01       		.byte	0x1
 2509 0ce9 4A       		.byte	0x4a
 2510 0cea 01       		.byte	0x1
 2511 0ceb 00000000 		.4byte	.LFB7
 2512 0cef A4000000 		.4byte	.LFE7
 2513 0cf3 13000000 		.4byte	.LLST1
 2514 0cf7 190D0000 		.4byte	0xd19
 2515 0cfb 20       		.uleb128 0x20
 2516 0cfc 61726700 		.ascii	"arg\000"
 2517 0d00 01       		.byte	0x1
 2518 0d01 4A       		.byte	0x4a
 2519 0d02 A7020000 		.4byte	0x2a7
 2520 0d06 3F000000 		.4byte	.LLST2
 2521 0d0a 21       		.uleb128 0x21
 2522 0d0b 6D736700 		.ascii	"msg\000"
 2523 0d0f 01       		.byte	0x1
 2524 0d10 4C       		.byte	0x4c
 2525 0d11 190D0000 		.4byte	0xd19
 2526 0d15 02       		.byte	0x2
 2527 0d16 91       		.byte	0x91
 2528 0d17 74       		.sleb128 -12
 2529 0d18 00       		.byte	0
 2530 0d19 09       		.uleb128 0x9
 2531 0d1a 04       		.byte	0x4
 2532 0d1b 750C0000 		.4byte	0xc75
 2533 0d1f 22       		.uleb128 0x22
 2534 0d20 01       		.byte	0x1
 2535 0d21 32040000 		.4byte	.LASF173
 2536 0d25 01       		.byte	0x1
 2537 0d26 9C       		.byte	0x9c
 2538 0d27 01       		.byte	0x1
 2539 0d28 D4040000 		.4byte	0x4d4
 2540 0d2c 00000000 		.4byte	.LFB8
 2541 0d30 44000000 		.4byte	.LFE8
 2542 0d34 52000000 		.4byte	.LLST3
 2543 0d38 680D0000 		.4byte	0xd68
 2544 0d3c 20       		.uleb128 0x20
 2545 0d3d 7000     		.ascii	"p\000"
 2546 0d3f 01       		.byte	0x1
 2547 0d40 9C       		.byte	0x9c
 2548 0d41 D3050000 		.4byte	0x5d3
 2549 0d45 72000000 		.4byte	.LLST4
 2550 0d49 20       		.uleb128 0x20
 2551 0d4a 696E7000 		.ascii	"inp\000"
 2552 0d4e 01       		.byte	0x1
ARM GAS  /var/folders/5n/p_75w94d66l9ssrldxqdhh700000gn/T//cc9oN6XQ.s 			page 46


 2553 0d4f 9C       		.byte	0x9c
 2554 0d50 FF050000 		.4byte	0x5ff
 2555 0d54 90000000 		.4byte	.LLST5
 2556 0d58 23       		.uleb128 0x23
 2557 0d59 6D736700 		.ascii	"msg\000"
 2558 0d5d 01       		.byte	0x1
 2559 0d5e AD       		.byte	0xad
 2560 0d5f 190D0000 		.4byte	0xd19
 2561 0d63 AE000000 		.4byte	.LLST6
 2562 0d67 00       		.byte	0
 2563 0d68 22       		.uleb128 0x22
 2564 0d69 01       		.byte	0x1
 2565 0d6a 3A060000 		.4byte	.LASF174
 2566 0d6e 01       		.byte	0x1
 2567 0d6f CE       		.byte	0xce
 2568 0d70 01       		.byte	0x1
 2569 0d71 D4040000 		.4byte	0x4d4
 2570 0d75 00000000 		.4byte	.LFB9
 2571 0d79 54000000 		.4byte	.LFE9
 2572 0d7d D7000000 		.4byte	.LLST7
 2573 0d81 C20D0000 		.4byte	0xdc2
 2574 0d85 24       		.uleb128 0x24
 2575 0d86 13070000 		.4byte	.LASF158
 2576 0d8a 01       		.byte	0x1
 2577 0d8b CE       		.byte	0xce
 2578 0d8c 8C0B0000 		.4byte	0xb8c
 2579 0d90 F7000000 		.4byte	.LLST8
 2580 0d94 20       		.uleb128 0x20
 2581 0d95 63747800 		.ascii	"ctx\000"
 2582 0d99 01       		.byte	0x1
 2583 0d9a CE       		.byte	0xce
 2584 0d9b A7020000 		.4byte	0x2a7
 2585 0d9f 15010000 		.4byte	.LLST9
 2586 0da3 24       		.uleb128 0x24
 2587 0da4 38010000 		.4byte	.LASF175
 2588 0da8 01       		.byte	0x1
 2589 0da9 CE       		.byte	0xce
 2590 0daa A8040000 		.4byte	0x4a8
 2591 0dae 33010000 		.4byte	.LLST10
 2592 0db2 23       		.uleb128 0x23
 2593 0db3 6D736700 		.ascii	"msg\000"
 2594 0db7 01       		.byte	0x1
 2595 0db8 D0       		.byte	0xd0
 2596 0db9 190D0000 		.4byte	0xd19
 2597 0dbd 46010000 		.4byte	.LLST11
 2598 0dc1 00       		.byte	0
 2599 0dc2 22       		.uleb128 0x22
 2600 0dc3 01       		.byte	0x1
 2601 0dc4 B7070000 		.4byte	.LASF176
 2602 0dc8 01       		.byte	0x1
 2603 0dc9 F2       		.byte	0xf2
 2604 0dca 01       		.byte	0x1
 2605 0dcb D4040000 		.4byte	0x4d4
 2606 0dcf 00000000 		.4byte	.LFB10
 2607 0dd3 3C000000 		.4byte	.LFE10
 2608 0dd7 85010000 		.4byte	.LLST12
 2609 0ddb 1A0E0000 		.4byte	0xe1a
ARM GAS  /var/folders/5n/p_75w94d66l9ssrldxqdhh700000gn/T//cc9oN6XQ.s 			page 47


 2610 0ddf 24       		.uleb128 0x24
 2611 0de0 64080000 		.4byte	.LASF168
 2612 0de4 01       		.byte	0x1
 2613 0de5 F2       		.byte	0xf2
 2614 0de6 C9040000 		.4byte	0x4c9
 2615 0dea A5010000 		.4byte	.LLST13
 2616 0dee 20       		.uleb128 0x20
 2617 0def 6800     		.ascii	"h\000"
 2618 0df1 01       		.byte	0x1
 2619 0df2 F2       		.byte	0xf2
 2620 0df3 760B0000 		.4byte	0xb76
 2621 0df7 C3010000 		.4byte	.LLST14
 2622 0dfb 20       		.uleb128 0x20
 2623 0dfc 61726700 		.ascii	"arg\000"
 2624 0e00 01       		.byte	0x1
 2625 0e01 F2       		.byte	0xf2
 2626 0e02 A7020000 		.4byte	0x2a7
 2627 0e06 E1010000 		.4byte	.LLST15
 2628 0e0a 23       		.uleb128 0x23
 2629 0e0b 6D736700 		.ascii	"msg\000"
 2630 0e0f 01       		.byte	0x1
 2631 0e10 F4       		.byte	0xf4
 2632 0e11 190D0000 		.4byte	0xd19
 2633 0e15 FF010000 		.4byte	.LLST16
 2634 0e19 00       		.byte	0
 2635 0e1a 25       		.uleb128 0x25
 2636 0e1b 01       		.byte	0x1
 2637 0e1c 03050000 		.4byte	.LASF177
 2638 0e20 01       		.byte	0x1
 2639 0e21 0F01     		.2byte	0x10f
 2640 0e23 01       		.byte	0x1
 2641 0e24 D4040000 		.4byte	0x4d4
 2642 0e28 00000000 		.4byte	.LFB11
 2643 0e2c 38000000 		.4byte	.LFE11
 2644 0e30 1D020000 		.4byte	.LLST17
 2645 0e34 670E0000 		.4byte	0xe67
 2646 0e38 1D       		.uleb128 0x1d
 2647 0e39 6800     		.ascii	"h\000"
 2648 0e3b 01       		.byte	0x1
 2649 0e3c 0F01     		.2byte	0x10f
 2650 0e3e 760B0000 		.4byte	0xb76
 2651 0e42 3D020000 		.4byte	.LLST18
 2652 0e46 1D       		.uleb128 0x1d
 2653 0e47 61726700 		.ascii	"arg\000"
 2654 0e4b 01       		.byte	0x1
 2655 0e4c 0F01     		.2byte	0x10f
 2656 0e4e A7020000 		.4byte	0x2a7
 2657 0e52 5B020000 		.4byte	.LLST19
 2658 0e56 26       		.uleb128 0x26
 2659 0e57 6D736700 		.ascii	"msg\000"
 2660 0e5b 01       		.byte	0x1
 2661 0e5c 1101     		.2byte	0x111
 2662 0e5e 190D0000 		.4byte	0xd19
 2663 0e62 79020000 		.4byte	.LLST20
 2664 0e66 00       		.byte	0
 2665 0e67 25       		.uleb128 0x25
 2666 0e68 01       		.byte	0x1
ARM GAS  /var/folders/5n/p_75w94d66l9ssrldxqdhh700000gn/T//cc9oN6XQ.s 			page 48


 2667 0e69 BB010000 		.4byte	.LASF178
 2668 0e6d 01       		.byte	0x1
 2669 0e6e 2D01     		.2byte	0x12d
 2670 0e70 01       		.byte	0x1
 2671 0e71 D4040000 		.4byte	0x4d4
 2672 0e75 00000000 		.4byte	.LFB12
 2673 0e79 38000000 		.4byte	.LFE12
 2674 0e7d 97020000 		.4byte	.LLST21
 2675 0e81 A50E0000 		.4byte	0xea5
 2676 0e85 27       		.uleb128 0x27
 2677 0e86 C7050000 		.4byte	.LASF169
 2678 0e8a 01       		.byte	0x1
 2679 0e8b 2D01     		.2byte	0x12d
 2680 0e8d 6F0C0000 		.4byte	0xc6f
 2681 0e91 C3020000 		.4byte	.LLST22
 2682 0e95 28       		.uleb128 0x28
 2683 0e96 6D736700 		.ascii	"msg\000"
 2684 0e9a 01       		.byte	0x1
 2685 0e9b 2F01     		.2byte	0x12f
 2686 0e9d 750C0000 		.4byte	0xc75
 2687 0ea1 02       		.byte	0x2
 2688 0ea2 91       		.byte	0x91
 2689 0ea3 5C       		.sleb128 -36
 2690 0ea4 00       		.byte	0
 2691 0ea5 29       		.uleb128 0x29
 2692 0ea6 01       		.byte	0x1
 2693 0ea7 0F020000 		.4byte	.LASF188
 2694 0eab 01       		.byte	0x1
 2695 0eac 9401     		.2byte	0x194
 2696 0eae 01       		.byte	0x1
 2697 0eaf 00000000 		.4byte	.LFB13
 2698 0eb3 4C000000 		.4byte	.LFE13
 2699 0eb7 E1020000 		.4byte	.LLST23
 2700 0ebb E00E0000 		.4byte	0xee0
 2701 0ebf 27       		.uleb128 0x27
 2702 0ec0 F5000000 		.4byte	.LASF179
 2703 0ec4 01       		.byte	0x1
 2704 0ec5 9401     		.2byte	0x194
 2705 0ec7 810B0000 		.4byte	0xb81
 2706 0ecb 0D030000 		.4byte	.LLST24
 2707 0ecf 1D       		.uleb128 0x1d
 2708 0ed0 61726700 		.ascii	"arg\000"
 2709 0ed4 01       		.byte	0x1
 2710 0ed5 9401     		.2byte	0x194
 2711 0ed7 A7020000 		.4byte	0x2a7
 2712 0edb 2B030000 		.4byte	.LLST25
 2713 0edf 00       		.byte	0
 2714 0ee0 2A       		.uleb128 0x2a
 2715 0ee1 01       		.byte	0x1
 2716 0ee2 7D030000 		.4byte	.LASF180
 2717 0ee6 01       		.byte	0x1
 2718 0ee7 BA01     		.2byte	0x1ba
 2719 0ee9 01       		.byte	0x1
 2720 0eea D4040000 		.4byte	0x4d4
 2721 0eee 00000000 		.4byte	.LFB15
 2722 0ef2 10000000 		.4byte	.LFE15
 2723 0ef6 02       		.byte	0x2
ARM GAS  /var/folders/5n/p_75w94d66l9ssrldxqdhh700000gn/T//cc9oN6XQ.s 			page 49


 2724 0ef7 7D       		.byte	0x7d
 2725 0ef8 00       		.sleb128 0
 2726 0ef9 0C0F0000 		.4byte	0xf0c
 2727 0efd 1D       		.uleb128 0x1d
 2728 0efe 7000     		.ascii	"p\000"
 2729 0f00 01       		.byte	0x1
 2730 0f01 BA01     		.2byte	0x1ba
 2731 0f03 D3050000 		.4byte	0x5d3
 2732 0f07 49030000 		.4byte	.LLST26
 2733 0f0b 00       		.byte	0
 2734 0f0c 2A       		.uleb128 0x2a
 2735 0f0d 01       		.byte	0x1
 2736 0f0e 33030000 		.4byte	.LASF181
 2737 0f12 01       		.byte	0x1
 2738 0f13 C701     		.2byte	0x1c7
 2739 0f15 01       		.byte	0x1
 2740 0f16 D4040000 		.4byte	0x4d4
 2741 0f1a 00000000 		.4byte	.LFB16
 2742 0f1e 10000000 		.4byte	.LFE16
 2743 0f22 02       		.byte	0x2
 2744 0f23 7D       		.byte	0x7d
 2745 0f24 00       		.sleb128 0
 2746 0f25 380F0000 		.4byte	0xf38
 2747 0f29 1D       		.uleb128 0x1d
 2748 0f2a 6D00     		.ascii	"m\000"
 2749 0f2c 01       		.byte	0x1
 2750 0f2d C701     		.2byte	0x1c7
 2751 0f2f A7020000 		.4byte	0x2a7
 2752 0f33 67030000 		.4byte	.LLST27
 2753 0f37 00       		.byte	0
 2754 0f38 2B       		.uleb128 0x2b
 2755 0f39 A7070000 		.4byte	.LASF182
 2756 0f3d 01       		.byte	0x1
 2757 0f3e 35       		.byte	0x35
 2758 0f3f 810B0000 		.4byte	0xb81
 2759 0f43 05       		.byte	0x5
 2760 0f44 03       		.byte	0x3
 2761 0f45 00000000 		.4byte	tcpip_init_done
 2762 0f49 2B       		.uleb128 0x2b
 2763 0f4a B7020000 		.4byte	.LASF183
 2764 0f4e 01       		.byte	0x1
 2765 0f4f 36       		.byte	0x36
 2766 0f50 A7020000 		.4byte	0x2a7
 2767 0f54 05       		.byte	0x5
 2768 0f55 03       		.byte	0x3
 2769 0f56 00000000 		.4byte	tcpip_init_done_arg
 2770 0f5a 2B       		.uleb128 0x2b
 2771 0f5b 2E060000 		.4byte	.LASF184
 2772 0f5f 01       		.byte	0x1
 2773 0f60 37       		.byte	0x37
 2774 0f61 F0040000 		.4byte	0x4f0
 2775 0f65 05       		.byte	0x5
 2776 0f66 03       		.byte	0x3
 2777 0f67 00000000 		.4byte	mbox
 2778 0f6b 00       		.byte	0
 2779              		.section	.debug_abbrev,"",%progbits
 2780              	.Ldebug_abbrev0:
ARM GAS  /var/folders/5n/p_75w94d66l9ssrldxqdhh700000gn/T//cc9oN6XQ.s 			page 50


 2781 0000 01       		.uleb128 0x1
 2782 0001 11       		.uleb128 0x11
 2783 0002 01       		.byte	0x1
 2784 0003 25       		.uleb128 0x25
 2785 0004 0E       		.uleb128 0xe
 2786 0005 13       		.uleb128 0x13
 2787 0006 0B       		.uleb128 0xb
 2788 0007 03       		.uleb128 0x3
 2789 0008 0E       		.uleb128 0xe
 2790 0009 1B       		.uleb128 0x1b
 2791 000a 0E       		.uleb128 0xe
 2792 000b 11       		.uleb128 0x11
 2793 000c 01       		.uleb128 0x1
 2794 000d 52       		.uleb128 0x52
 2795 000e 01       		.uleb128 0x1
 2796 000f 55       		.uleb128 0x55
 2797 0010 06       		.uleb128 0x6
 2798 0011 10       		.uleb128 0x10
 2799 0012 06       		.uleb128 0x6
 2800 0013 00       		.byte	0
 2801 0014 00       		.byte	0
 2802 0015 02       		.uleb128 0x2
 2803 0016 24       		.uleb128 0x24
 2804 0017 00       		.byte	0
 2805 0018 0B       		.uleb128 0xb
 2806 0019 0B       		.uleb128 0xb
 2807 001a 3E       		.uleb128 0x3e
 2808 001b 0B       		.uleb128 0xb
 2809 001c 03       		.uleb128 0x3
 2810 001d 08       		.uleb128 0x8
 2811 001e 00       		.byte	0
 2812 001f 00       		.byte	0
 2813 0020 03       		.uleb128 0x3
 2814 0021 16       		.uleb128 0x16
 2815 0022 00       		.byte	0
 2816 0023 03       		.uleb128 0x3
 2817 0024 0E       		.uleb128 0xe
 2818 0025 3A       		.uleb128 0x3a
 2819 0026 0B       		.uleb128 0xb
 2820 0027 3B       		.uleb128 0x3b
 2821 0028 0B       		.uleb128 0xb
 2822 0029 49       		.uleb128 0x49
 2823 002a 13       		.uleb128 0x13
 2824 002b 00       		.byte	0
 2825 002c 00       		.byte	0
 2826 002d 04       		.uleb128 0x4
 2827 002e 24       		.uleb128 0x24
 2828 002f 00       		.byte	0
 2829 0030 0B       		.uleb128 0xb
 2830 0031 0B       		.uleb128 0xb
 2831 0032 3E       		.uleb128 0x3e
 2832 0033 0B       		.uleb128 0xb
 2833 0034 03       		.uleb128 0x3
 2834 0035 0E       		.uleb128 0xe
 2835 0036 00       		.byte	0
 2836 0037 00       		.byte	0
 2837 0038 05       		.uleb128 0x5
ARM GAS  /var/folders/5n/p_75w94d66l9ssrldxqdhh700000gn/T//cc9oN6XQ.s 			page 51


 2838 0039 13       		.uleb128 0x13
 2839 003a 01       		.byte	0x1
 2840 003b 03       		.uleb128 0x3
 2841 003c 0E       		.uleb128 0xe
 2842 003d 0B       		.uleb128 0xb
 2843 003e 0B       		.uleb128 0xb
 2844 003f 3A       		.uleb128 0x3a
 2845 0040 0B       		.uleb128 0xb
 2846 0041 3B       		.uleb128 0x3b
 2847 0042 0B       		.uleb128 0xb
 2848 0043 01       		.uleb128 0x1
 2849 0044 13       		.uleb128 0x13
 2850 0045 00       		.byte	0
 2851 0046 00       		.byte	0
 2852 0047 06       		.uleb128 0x6
 2853 0048 0D       		.uleb128 0xd
 2854 0049 00       		.byte	0
 2855 004a 03       		.uleb128 0x3
 2856 004b 0E       		.uleb128 0xe
 2857 004c 3A       		.uleb128 0x3a
 2858 004d 0B       		.uleb128 0xb
 2859 004e 3B       		.uleb128 0x3b
 2860 004f 0B       		.uleb128 0xb
 2861 0050 49       		.uleb128 0x49
 2862 0051 13       		.uleb128 0x13
 2863 0052 38       		.uleb128 0x38
 2864 0053 0A       		.uleb128 0xa
 2865 0054 00       		.byte	0
 2866 0055 00       		.byte	0
 2867 0056 07       		.uleb128 0x7
 2868 0057 0D       		.uleb128 0xd
 2869 0058 00       		.byte	0
 2870 0059 03       		.uleb128 0x3
 2871 005a 08       		.uleb128 0x8
 2872 005b 3A       		.uleb128 0x3a
 2873 005c 0B       		.uleb128 0xb
 2874 005d 3B       		.uleb128 0x3b
 2875 005e 0B       		.uleb128 0xb
 2876 005f 49       		.uleb128 0x49
 2877 0060 13       		.uleb128 0x13
 2878 0061 38       		.uleb128 0x38
 2879 0062 0A       		.uleb128 0xa
 2880 0063 00       		.byte	0
 2881 0064 00       		.byte	0
 2882 0065 08       		.uleb128 0x8
 2883 0066 13       		.uleb128 0x13
 2884 0067 01       		.byte	0x1
 2885 0068 0B       		.uleb128 0xb
 2886 0069 0B       		.uleb128 0xb
 2887 006a 3A       		.uleb128 0x3a
 2888 006b 0B       		.uleb128 0xb
 2889 006c 3B       		.uleb128 0x3b
 2890 006d 0B       		.uleb128 0xb
 2891 006e 01       		.uleb128 0x1
 2892 006f 13       		.uleb128 0x13
 2893 0070 00       		.byte	0
 2894 0071 00       		.byte	0
ARM GAS  /var/folders/5n/p_75w94d66l9ssrldxqdhh700000gn/T//cc9oN6XQ.s 			page 52


 2895 0072 09       		.uleb128 0x9
 2896 0073 0F       		.uleb128 0xf
 2897 0074 00       		.byte	0
 2898 0075 0B       		.uleb128 0xb
 2899 0076 0B       		.uleb128 0xb
 2900 0077 49       		.uleb128 0x49
 2901 0078 13       		.uleb128 0x13
 2902 0079 00       		.byte	0
 2903 007a 00       		.byte	0
 2904 007b 0A       		.uleb128 0xa
 2905 007c 0F       		.uleb128 0xf
 2906 007d 00       		.byte	0
 2907 007e 0B       		.uleb128 0xb
 2908 007f 0B       		.uleb128 0xb
 2909 0080 00       		.byte	0
 2910 0081 00       		.byte	0
 2911 0082 0B       		.uleb128 0xb
 2912 0083 13       		.uleb128 0x13
 2913 0084 01       		.byte	0x1
 2914 0085 03       		.uleb128 0x3
 2915 0086 0E       		.uleb128 0xe
 2916 0087 0B       		.uleb128 0xb
 2917 0088 0B       		.uleb128 0xb
 2918 0089 3A       		.uleb128 0x3a
 2919 008a 0B       		.uleb128 0xb
 2920 008b 3B       		.uleb128 0x3b
 2921 008c 05       		.uleb128 0x5
 2922 008d 01       		.uleb128 0x1
 2923 008e 13       		.uleb128 0x13
 2924 008f 00       		.byte	0
 2925 0090 00       		.byte	0
 2926 0091 0C       		.uleb128 0xc
 2927 0092 0D       		.uleb128 0xd
 2928 0093 00       		.byte	0
 2929 0094 03       		.uleb128 0x3
 2930 0095 08       		.uleb128 0x8
 2931 0096 3A       		.uleb128 0x3a
 2932 0097 0B       		.uleb128 0xb
 2933 0098 3B       		.uleb128 0x3b
 2934 0099 05       		.uleb128 0x5
 2935 009a 49       		.uleb128 0x49
 2936 009b 13       		.uleb128 0x13
 2937 009c 38       		.uleb128 0x38
 2938 009d 0A       		.uleb128 0xa
 2939 009e 00       		.byte	0
 2940 009f 00       		.byte	0
 2941 00a0 0D       		.uleb128 0xd
 2942 00a1 15       		.uleb128 0x15
 2943 00a2 01       		.byte	0x1
 2944 00a3 27       		.uleb128 0x27
 2945 00a4 0C       		.uleb128 0xc
 2946 00a5 01       		.uleb128 0x1
 2947 00a6 13       		.uleb128 0x13
 2948 00a7 00       		.byte	0
 2949 00a8 00       		.byte	0
 2950 00a9 0E       		.uleb128 0xe
 2951 00aa 05       		.uleb128 0x5
ARM GAS  /var/folders/5n/p_75w94d66l9ssrldxqdhh700000gn/T//cc9oN6XQ.s 			page 53


 2952 00ab 00       		.byte	0
 2953 00ac 49       		.uleb128 0x49
 2954 00ad 13       		.uleb128 0x13
 2955 00ae 00       		.byte	0
 2956 00af 00       		.byte	0
 2957 00b0 0F       		.uleb128 0xf
 2958 00b1 35       		.uleb128 0x35
 2959 00b2 00       		.byte	0
 2960 00b3 49       		.uleb128 0x49
 2961 00b4 13       		.uleb128 0x13
 2962 00b5 00       		.byte	0
 2963 00b6 00       		.byte	0
 2964 00b7 10       		.uleb128 0x10
 2965 00b8 17       		.uleb128 0x17
 2966 00b9 01       		.byte	0x1
 2967 00ba 0B       		.uleb128 0xb
 2968 00bb 0B       		.uleb128 0xb
 2969 00bc 3A       		.uleb128 0x3a
 2970 00bd 0B       		.uleb128 0xb
 2971 00be 3B       		.uleb128 0x3b
 2972 00bf 0B       		.uleb128 0xb
 2973 00c0 01       		.uleb128 0x1
 2974 00c1 13       		.uleb128 0x13
 2975 00c2 00       		.byte	0
 2976 00c3 00       		.byte	0
 2977 00c4 11       		.uleb128 0x11
 2978 00c5 0D       		.uleb128 0xd
 2979 00c6 00       		.byte	0
 2980 00c7 03       		.uleb128 0x3
 2981 00c8 0E       		.uleb128 0xe
 2982 00c9 3A       		.uleb128 0x3a
 2983 00ca 0B       		.uleb128 0xb
 2984 00cb 3B       		.uleb128 0x3b
 2985 00cc 0B       		.uleb128 0xb
 2986 00cd 49       		.uleb128 0x49
 2987 00ce 13       		.uleb128 0x13
 2988 00cf 00       		.byte	0
 2989 00d0 00       		.byte	0
 2990 00d1 12       		.uleb128 0x12
 2991 00d2 26       		.uleb128 0x26
 2992 00d3 00       		.byte	0
 2993 00d4 49       		.uleb128 0x49
 2994 00d5 13       		.uleb128 0x13
 2995 00d6 00       		.byte	0
 2996 00d7 00       		.byte	0
 2997 00d8 13       		.uleb128 0x13
 2998 00d9 04       		.uleb128 0x4
 2999 00da 01       		.byte	0x1
 3000 00db 0B       		.uleb128 0xb
 3001 00dc 0B       		.uleb128 0xb
 3002 00dd 3A       		.uleb128 0x3a
 3003 00de 0B       		.uleb128 0xb
 3004 00df 3B       		.uleb128 0x3b
 3005 00e0 0B       		.uleb128 0xb
 3006 00e1 01       		.uleb128 0x1
 3007 00e2 13       		.uleb128 0x13
 3008 00e3 00       		.byte	0
ARM GAS  /var/folders/5n/p_75w94d66l9ssrldxqdhh700000gn/T//cc9oN6XQ.s 			page 54


 3009 00e4 00       		.byte	0
 3010 00e5 14       		.uleb128 0x14
 3011 00e6 28       		.uleb128 0x28
 3012 00e7 00       		.byte	0
 3013 00e8 03       		.uleb128 0x3
 3014 00e9 0E       		.uleb128 0xe
 3015 00ea 1C       		.uleb128 0x1c
 3016 00eb 0D       		.uleb128 0xd
 3017 00ec 00       		.byte	0
 3018 00ed 00       		.byte	0
 3019 00ee 15       		.uleb128 0x15
 3020 00ef 15       		.uleb128 0x15
 3021 00f0 01       		.byte	0x1
 3022 00f1 27       		.uleb128 0x27
 3023 00f2 0C       		.uleb128 0xc
 3024 00f3 49       		.uleb128 0x49
 3025 00f4 13       		.uleb128 0x13
 3026 00f5 01       		.uleb128 0x1
 3027 00f6 13       		.uleb128 0x13
 3028 00f7 00       		.byte	0
 3029 00f8 00       		.byte	0
 3030 00f9 16       		.uleb128 0x16
 3031 00fa 01       		.uleb128 0x1
 3032 00fb 01       		.byte	0x1
 3033 00fc 49       		.uleb128 0x49
 3034 00fd 13       		.uleb128 0x13
 3035 00fe 01       		.uleb128 0x1
 3036 00ff 13       		.uleb128 0x13
 3037 0100 00       		.byte	0
 3038 0101 00       		.byte	0
 3039 0102 17       		.uleb128 0x17
 3040 0103 21       		.uleb128 0x21
 3041 0104 00       		.byte	0
 3042 0105 49       		.uleb128 0x49
 3043 0106 13       		.uleb128 0x13
 3044 0107 2F       		.uleb128 0x2f
 3045 0108 0B       		.uleb128 0xb
 3046 0109 00       		.byte	0
 3047 010a 00       		.byte	0
 3048 010b 18       		.uleb128 0x18
 3049 010c 04       		.uleb128 0x4
 3050 010d 01       		.byte	0x1
 3051 010e 03       		.uleb128 0x3
 3052 010f 0E       		.uleb128 0xe
 3053 0110 0B       		.uleb128 0xb
 3054 0111 0B       		.uleb128 0xb
 3055 0112 3A       		.uleb128 0x3a
 3056 0113 0B       		.uleb128 0xb
 3057 0114 3B       		.uleb128 0x3b
 3058 0115 0B       		.uleb128 0xb
 3059 0116 01       		.uleb128 0x1
 3060 0117 13       		.uleb128 0x13
 3061 0118 00       		.byte	0
 3062 0119 00       		.byte	0
 3063 011a 19       		.uleb128 0x19
 3064 011b 0D       		.uleb128 0xd
 3065 011c 00       		.byte	0
ARM GAS  /var/folders/5n/p_75w94d66l9ssrldxqdhh700000gn/T//cc9oN6XQ.s 			page 55


 3066 011d 03       		.uleb128 0x3
 3067 011e 08       		.uleb128 0x8
 3068 011f 3A       		.uleb128 0x3a
 3069 0120 0B       		.uleb128 0xb
 3070 0121 3B       		.uleb128 0x3b
 3071 0122 0B       		.uleb128 0xb
 3072 0123 49       		.uleb128 0x49
 3073 0124 13       		.uleb128 0x13
 3074 0125 00       		.byte	0
 3075 0126 00       		.byte	0
 3076 0127 1A       		.uleb128 0x1a
 3077 0128 13       		.uleb128 0x13
 3078 0129 00       		.byte	0
 3079 012a 03       		.uleb128 0x3
 3080 012b 0E       		.uleb128 0xe
 3081 012c 3C       		.uleb128 0x3c
 3082 012d 0C       		.uleb128 0xc
 3083 012e 00       		.byte	0
 3084 012f 00       		.byte	0
 3085 0130 1B       		.uleb128 0x1b
 3086 0131 26       		.uleb128 0x26
 3087 0132 00       		.byte	0
 3088 0133 00       		.byte	0
 3089 0134 00       		.byte	0
 3090 0135 1C       		.uleb128 0x1c
 3091 0136 2E       		.uleb128 0x2e
 3092 0137 01       		.byte	0x1
 3093 0138 03       		.uleb128 0x3
 3094 0139 0E       		.uleb128 0xe
 3095 013a 3A       		.uleb128 0x3a
 3096 013b 0B       		.uleb128 0xb
 3097 013c 3B       		.uleb128 0x3b
 3098 013d 05       		.uleb128 0x5
 3099 013e 27       		.uleb128 0x27
 3100 013f 0C       		.uleb128 0xc
 3101 0140 11       		.uleb128 0x11
 3102 0141 01       		.uleb128 0x1
 3103 0142 12       		.uleb128 0x12
 3104 0143 01       		.uleb128 0x1
 3105 0144 40       		.uleb128 0x40
 3106 0145 0A       		.uleb128 0xa
 3107 0146 01       		.uleb128 0x1
 3108 0147 13       		.uleb128 0x13
 3109 0148 00       		.byte	0
 3110 0149 00       		.byte	0
 3111 014a 1D       		.uleb128 0x1d
 3112 014b 05       		.uleb128 0x5
 3113 014c 00       		.byte	0
 3114 014d 03       		.uleb128 0x3
 3115 014e 08       		.uleb128 0x8
 3116 014f 3A       		.uleb128 0x3a
 3117 0150 0B       		.uleb128 0xb
 3118 0151 3B       		.uleb128 0x3b
 3119 0152 05       		.uleb128 0x5
 3120 0153 49       		.uleb128 0x49
 3121 0154 13       		.uleb128 0x13
 3122 0155 02       		.uleb128 0x2
ARM GAS  /var/folders/5n/p_75w94d66l9ssrldxqdhh700000gn/T//cc9oN6XQ.s 			page 56


 3123 0156 06       		.uleb128 0x6
 3124 0157 00       		.byte	0
 3125 0158 00       		.byte	0
 3126 0159 1E       		.uleb128 0x1e
 3127 015a 34       		.uleb128 0x34
 3128 015b 00       		.byte	0
 3129 015c 03       		.uleb128 0x3
 3130 015d 08       		.uleb128 0x8
 3131 015e 3A       		.uleb128 0x3a
 3132 015f 0B       		.uleb128 0xb
 3133 0160 3B       		.uleb128 0x3b
 3134 0161 05       		.uleb128 0x5
 3135 0162 49       		.uleb128 0x49
 3136 0163 13       		.uleb128 0x13
 3137 0164 00       		.byte	0
 3138 0165 00       		.byte	0
 3139 0166 1F       		.uleb128 0x1f
 3140 0167 2E       		.uleb128 0x2e
 3141 0168 01       		.byte	0x1
 3142 0169 03       		.uleb128 0x3
 3143 016a 0E       		.uleb128 0xe
 3144 016b 3A       		.uleb128 0x3a
 3145 016c 0B       		.uleb128 0xb
 3146 016d 3B       		.uleb128 0x3b
 3147 016e 0B       		.uleb128 0xb
 3148 016f 27       		.uleb128 0x27
 3149 0170 0C       		.uleb128 0xc
 3150 0171 11       		.uleb128 0x11
 3151 0172 01       		.uleb128 0x1
 3152 0173 12       		.uleb128 0x12
 3153 0174 01       		.uleb128 0x1
 3154 0175 40       		.uleb128 0x40
 3155 0176 06       		.uleb128 0x6
 3156 0177 01       		.uleb128 0x1
 3157 0178 13       		.uleb128 0x13
 3158 0179 00       		.byte	0
 3159 017a 00       		.byte	0
 3160 017b 20       		.uleb128 0x20
 3161 017c 05       		.uleb128 0x5
 3162 017d 00       		.byte	0
 3163 017e 03       		.uleb128 0x3
 3164 017f 08       		.uleb128 0x8
 3165 0180 3A       		.uleb128 0x3a
 3166 0181 0B       		.uleb128 0xb
 3167 0182 3B       		.uleb128 0x3b
 3168 0183 0B       		.uleb128 0xb
 3169 0184 49       		.uleb128 0x49
 3170 0185 13       		.uleb128 0x13
 3171 0186 02       		.uleb128 0x2
 3172 0187 06       		.uleb128 0x6
 3173 0188 00       		.byte	0
 3174 0189 00       		.byte	0
 3175 018a 21       		.uleb128 0x21
 3176 018b 34       		.uleb128 0x34
 3177 018c 00       		.byte	0
 3178 018d 03       		.uleb128 0x3
 3179 018e 08       		.uleb128 0x8
ARM GAS  /var/folders/5n/p_75w94d66l9ssrldxqdhh700000gn/T//cc9oN6XQ.s 			page 57


 3180 018f 3A       		.uleb128 0x3a
 3181 0190 0B       		.uleb128 0xb
 3182 0191 3B       		.uleb128 0x3b
 3183 0192 0B       		.uleb128 0xb
 3184 0193 49       		.uleb128 0x49
 3185 0194 13       		.uleb128 0x13
 3186 0195 02       		.uleb128 0x2
 3187 0196 0A       		.uleb128 0xa
 3188 0197 00       		.byte	0
 3189 0198 00       		.byte	0
 3190 0199 22       		.uleb128 0x22
 3191 019a 2E       		.uleb128 0x2e
 3192 019b 01       		.byte	0x1
 3193 019c 3F       		.uleb128 0x3f
 3194 019d 0C       		.uleb128 0xc
 3195 019e 03       		.uleb128 0x3
 3196 019f 0E       		.uleb128 0xe
 3197 01a0 3A       		.uleb128 0x3a
 3198 01a1 0B       		.uleb128 0xb
 3199 01a2 3B       		.uleb128 0x3b
 3200 01a3 0B       		.uleb128 0xb
 3201 01a4 27       		.uleb128 0x27
 3202 01a5 0C       		.uleb128 0xc
 3203 01a6 49       		.uleb128 0x49
 3204 01a7 13       		.uleb128 0x13
 3205 01a8 11       		.uleb128 0x11
 3206 01a9 01       		.uleb128 0x1
 3207 01aa 12       		.uleb128 0x12
 3208 01ab 01       		.uleb128 0x1
 3209 01ac 40       		.uleb128 0x40
 3210 01ad 06       		.uleb128 0x6
 3211 01ae 01       		.uleb128 0x1
 3212 01af 13       		.uleb128 0x13
 3213 01b0 00       		.byte	0
 3214 01b1 00       		.byte	0
 3215 01b2 23       		.uleb128 0x23
 3216 01b3 34       		.uleb128 0x34
 3217 01b4 00       		.byte	0
 3218 01b5 03       		.uleb128 0x3
 3219 01b6 08       		.uleb128 0x8
 3220 01b7 3A       		.uleb128 0x3a
 3221 01b8 0B       		.uleb128 0xb
 3222 01b9 3B       		.uleb128 0x3b
 3223 01ba 0B       		.uleb128 0xb
 3224 01bb 49       		.uleb128 0x49
 3225 01bc 13       		.uleb128 0x13
 3226 01bd 02       		.uleb128 0x2
 3227 01be 06       		.uleb128 0x6
 3228 01bf 00       		.byte	0
 3229 01c0 00       		.byte	0
 3230 01c1 24       		.uleb128 0x24
 3231 01c2 05       		.uleb128 0x5
 3232 01c3 00       		.byte	0
 3233 01c4 03       		.uleb128 0x3
 3234 01c5 0E       		.uleb128 0xe
 3235 01c6 3A       		.uleb128 0x3a
 3236 01c7 0B       		.uleb128 0xb
ARM GAS  /var/folders/5n/p_75w94d66l9ssrldxqdhh700000gn/T//cc9oN6XQ.s 			page 58


 3237 01c8 3B       		.uleb128 0x3b
 3238 01c9 0B       		.uleb128 0xb
 3239 01ca 49       		.uleb128 0x49
 3240 01cb 13       		.uleb128 0x13
 3241 01cc 02       		.uleb128 0x2
 3242 01cd 06       		.uleb128 0x6
 3243 01ce 00       		.byte	0
 3244 01cf 00       		.byte	0
 3245 01d0 25       		.uleb128 0x25
 3246 01d1 2E       		.uleb128 0x2e
 3247 01d2 01       		.byte	0x1
 3248 01d3 3F       		.uleb128 0x3f
 3249 01d4 0C       		.uleb128 0xc
 3250 01d5 03       		.uleb128 0x3
 3251 01d6 0E       		.uleb128 0xe
 3252 01d7 3A       		.uleb128 0x3a
 3253 01d8 0B       		.uleb128 0xb
 3254 01d9 3B       		.uleb128 0x3b
 3255 01da 05       		.uleb128 0x5
 3256 01db 27       		.uleb128 0x27
 3257 01dc 0C       		.uleb128 0xc
 3258 01dd 49       		.uleb128 0x49
 3259 01de 13       		.uleb128 0x13
 3260 01df 11       		.uleb128 0x11
 3261 01e0 01       		.uleb128 0x1
 3262 01e1 12       		.uleb128 0x12
 3263 01e2 01       		.uleb128 0x1
 3264 01e3 40       		.uleb128 0x40
 3265 01e4 06       		.uleb128 0x6
 3266 01e5 01       		.uleb128 0x1
 3267 01e6 13       		.uleb128 0x13
 3268 01e7 00       		.byte	0
 3269 01e8 00       		.byte	0
 3270 01e9 26       		.uleb128 0x26
 3271 01ea 34       		.uleb128 0x34
 3272 01eb 00       		.byte	0
 3273 01ec 03       		.uleb128 0x3
 3274 01ed 08       		.uleb128 0x8
 3275 01ee 3A       		.uleb128 0x3a
 3276 01ef 0B       		.uleb128 0xb
 3277 01f0 3B       		.uleb128 0x3b
 3278 01f1 05       		.uleb128 0x5
 3279 01f2 49       		.uleb128 0x49
 3280 01f3 13       		.uleb128 0x13
 3281 01f4 02       		.uleb128 0x2
 3282 01f5 06       		.uleb128 0x6
 3283 01f6 00       		.byte	0
 3284 01f7 00       		.byte	0
 3285 01f8 27       		.uleb128 0x27
 3286 01f9 05       		.uleb128 0x5
 3287 01fa 00       		.byte	0
 3288 01fb 03       		.uleb128 0x3
 3289 01fc 0E       		.uleb128 0xe
 3290 01fd 3A       		.uleb128 0x3a
 3291 01fe 0B       		.uleb128 0xb
 3292 01ff 3B       		.uleb128 0x3b
 3293 0200 05       		.uleb128 0x5
ARM GAS  /var/folders/5n/p_75w94d66l9ssrldxqdhh700000gn/T//cc9oN6XQ.s 			page 59


 3294 0201 49       		.uleb128 0x49
 3295 0202 13       		.uleb128 0x13
 3296 0203 02       		.uleb128 0x2
 3297 0204 06       		.uleb128 0x6
 3298 0205 00       		.byte	0
 3299 0206 00       		.byte	0
 3300 0207 28       		.uleb128 0x28
 3301 0208 34       		.uleb128 0x34
 3302 0209 00       		.byte	0
 3303 020a 03       		.uleb128 0x3
 3304 020b 08       		.uleb128 0x8
 3305 020c 3A       		.uleb128 0x3a
 3306 020d 0B       		.uleb128 0xb
 3307 020e 3B       		.uleb128 0x3b
 3308 020f 05       		.uleb128 0x5
 3309 0210 49       		.uleb128 0x49
 3310 0211 13       		.uleb128 0x13
 3311 0212 02       		.uleb128 0x2
 3312 0213 0A       		.uleb128 0xa
 3313 0214 00       		.byte	0
 3314 0215 00       		.byte	0
 3315 0216 29       		.uleb128 0x29
 3316 0217 2E       		.uleb128 0x2e
 3317 0218 01       		.byte	0x1
 3318 0219 3F       		.uleb128 0x3f
 3319 021a 0C       		.uleb128 0xc
 3320 021b 03       		.uleb128 0x3
 3321 021c 0E       		.uleb128 0xe
 3322 021d 3A       		.uleb128 0x3a
 3323 021e 0B       		.uleb128 0xb
 3324 021f 3B       		.uleb128 0x3b
 3325 0220 05       		.uleb128 0x5
 3326 0221 27       		.uleb128 0x27
 3327 0222 0C       		.uleb128 0xc
 3328 0223 11       		.uleb128 0x11
 3329 0224 01       		.uleb128 0x1
 3330 0225 12       		.uleb128 0x12
 3331 0226 01       		.uleb128 0x1
 3332 0227 40       		.uleb128 0x40
 3333 0228 06       		.uleb128 0x6
 3334 0229 01       		.uleb128 0x1
 3335 022a 13       		.uleb128 0x13
 3336 022b 00       		.byte	0
 3337 022c 00       		.byte	0
 3338 022d 2A       		.uleb128 0x2a
 3339 022e 2E       		.uleb128 0x2e
 3340 022f 01       		.byte	0x1
 3341 0230 3F       		.uleb128 0x3f
 3342 0231 0C       		.uleb128 0xc
 3343 0232 03       		.uleb128 0x3
 3344 0233 0E       		.uleb128 0xe
 3345 0234 3A       		.uleb128 0x3a
 3346 0235 0B       		.uleb128 0xb
 3347 0236 3B       		.uleb128 0x3b
 3348 0237 05       		.uleb128 0x5
 3349 0238 27       		.uleb128 0x27
 3350 0239 0C       		.uleb128 0xc
ARM GAS  /var/folders/5n/p_75w94d66l9ssrldxqdhh700000gn/T//cc9oN6XQ.s 			page 60


 3351 023a 49       		.uleb128 0x49
 3352 023b 13       		.uleb128 0x13
 3353 023c 11       		.uleb128 0x11
 3354 023d 01       		.uleb128 0x1
 3355 023e 12       		.uleb128 0x12
 3356 023f 01       		.uleb128 0x1
 3357 0240 40       		.uleb128 0x40
 3358 0241 0A       		.uleb128 0xa
 3359 0242 01       		.uleb128 0x1
 3360 0243 13       		.uleb128 0x13
 3361 0244 00       		.byte	0
 3362 0245 00       		.byte	0
 3363 0246 2B       		.uleb128 0x2b
 3364 0247 34       		.uleb128 0x34
 3365 0248 00       		.byte	0
 3366 0249 03       		.uleb128 0x3
 3367 024a 0E       		.uleb128 0xe
 3368 024b 3A       		.uleb128 0x3a
 3369 024c 0B       		.uleb128 0xb
 3370 024d 3B       		.uleb128 0x3b
 3371 024e 0B       		.uleb128 0xb
 3372 024f 49       		.uleb128 0x49
 3373 0250 13       		.uleb128 0x13
 3374 0251 02       		.uleb128 0x2
 3375 0252 0A       		.uleb128 0xa
 3376 0253 00       		.byte	0
 3377 0254 00       		.byte	0
 3378 0255 00       		.byte	0
 3379              		.section	.debug_loc,"",%progbits
 3380              	.Ldebug_loc0:
 3381              	.LLST0:
 3382 0000 00000000 		.4byte	.LVL0
 3383 0004 03000000 		.4byte	.LVL1-1
 3384 0008 0100     		.2byte	0x1
 3385 000a 50       		.byte	0x50
 3386 000b 00000000 		.4byte	0
 3387 000f 00000000 		.4byte	0
 3388              	.LLST1:
 3389 0013 00000000 		.4byte	.LFB7
 3390 0017 02000000 		.4byte	.LCFI0
 3391 001b 0200     		.2byte	0x2
 3392 001d 7D       		.byte	0x7d
 3393 001e 00       		.sleb128 0
 3394 001f 02000000 		.4byte	.LCFI0
 3395 0023 08000000 		.4byte	.LCFI1
 3396 0027 0200     		.2byte	0x2
 3397 0029 7D       		.byte	0x7d
 3398 002a 08       		.sleb128 8
 3399 002b 08000000 		.4byte	.LCFI1
 3400 002f A4000000 		.4byte	.LFE7
 3401 0033 0200     		.2byte	0x2
 3402 0035 7D       		.byte	0x7d
 3403 0036 10       		.sleb128 16
 3404 0037 00000000 		.4byte	0
 3405 003b 00000000 		.4byte	0
 3406              	.LLST2:
 3407 003f 00000000 		.4byte	.LVL2
ARM GAS  /var/folders/5n/p_75w94d66l9ssrldxqdhh700000gn/T//cc9oN6XQ.s 			page 61


 3408 0043 0E000000 		.4byte	.LVL3
 3409 0047 0100     		.2byte	0x1
 3410 0049 50       		.byte	0x50
 3411 004a 00000000 		.4byte	0
 3412 004e 00000000 		.4byte	0
 3413              	.LLST3:
 3414 0052 00000000 		.4byte	.LFB8
 3415 0056 02000000 		.4byte	.LCFI2
 3416 005a 0200     		.2byte	0x2
 3417 005c 7D       		.byte	0x7d
 3418 005d 00       		.sleb128 0
 3419 005e 02000000 		.4byte	.LCFI2
 3420 0062 44000000 		.4byte	.LFE8
 3421 0066 0200     		.2byte	0x2
 3422 0068 7D       		.byte	0x7d
 3423 0069 10       		.sleb128 16
 3424 006a 00000000 		.4byte	0
 3425 006e 00000000 		.4byte	0
 3426              	.LLST4:
 3427 0072 00000000 		.4byte	.LVL5
 3428 0076 06000000 		.4byte	.LVL6
 3429 007a 0100     		.2byte	0x1
 3430 007c 50       		.byte	0x50
 3431 007d 06000000 		.4byte	.LVL6
 3432 0081 44000000 		.4byte	.LFE8
 3433 0085 0100     		.2byte	0x1
 3434 0087 55       		.byte	0x55
 3435 0088 00000000 		.4byte	0
 3436 008c 00000000 		.4byte	0
 3437              	.LLST5:
 3438 0090 00000000 		.4byte	.LVL5
 3439 0094 0B000000 		.4byte	.LVL7-1
 3440 0098 0100     		.2byte	0x1
 3441 009a 51       		.byte	0x51
 3442 009b 0B000000 		.4byte	.LVL7-1
 3443 009f 44000000 		.4byte	.LFE8
 3444 00a3 0100     		.2byte	0x1
 3445 00a5 56       		.byte	0x56
 3446 00a6 00000000 		.4byte	0
 3447 00aa 00000000 		.4byte	0
 3448              	.LLST6:
 3449 00ae 14000000 		.4byte	.LVL8
 3450 00b2 18000000 		.4byte	.LVL9
 3451 00b6 0100     		.2byte	0x1
 3452 00b8 50       		.byte	0x50
 3453 00b9 18000000 		.4byte	.LVL9
 3454 00bd 2C000000 		.4byte	.LVL10
 3455 00c1 0100     		.2byte	0x1
 3456 00c3 54       		.byte	0x54
 3457 00c4 34000000 		.4byte	.LVL11
 3458 00c8 44000000 		.4byte	.LFE8
 3459 00cc 0100     		.2byte	0x1
 3460 00ce 54       		.byte	0x54
 3461 00cf 00000000 		.4byte	0
 3462 00d3 00000000 		.4byte	0
 3463              	.LLST7:
 3464 00d7 00000000 		.4byte	.LFB9
ARM GAS  /var/folders/5n/p_75w94d66l9ssrldxqdhh700000gn/T//cc9oN6XQ.s 			page 62


 3465 00db 02000000 		.4byte	.LCFI3
 3466 00df 0200     		.2byte	0x2
 3467 00e1 7D       		.byte	0x7d
 3468 00e2 00       		.sleb128 0
 3469 00e3 02000000 		.4byte	.LCFI3
 3470 00e7 54000000 		.4byte	.LFE9
 3471 00eb 0200     		.2byte	0x2
 3472 00ed 7D       		.byte	0x7d
 3473 00ee 18       		.sleb128 24
 3474 00ef 00000000 		.4byte	0
 3475 00f3 00000000 		.4byte	0
 3476              	.LLST8:
 3477 00f7 00000000 		.4byte	.LVL12
 3478 00fb 06000000 		.4byte	.LVL13
 3479 00ff 0100     		.2byte	0x1
 3480 0101 50       		.byte	0x50
 3481 0102 06000000 		.4byte	.LVL13
 3482 0106 54000000 		.4byte	.LFE9
 3483 010a 0100     		.2byte	0x1
 3484 010c 54       		.byte	0x54
 3485 010d 00000000 		.4byte	0
 3486 0111 00000000 		.4byte	0
 3487              	.LLST9:
 3488 0115 00000000 		.4byte	.LVL12
 3489 0119 0D000000 		.4byte	.LVL14-1
 3490 011d 0100     		.2byte	0x1
 3491 011f 51       		.byte	0x51
 3492 0120 0D000000 		.4byte	.LVL14-1
 3493 0124 54000000 		.4byte	.LFE9
 3494 0128 0100     		.2byte	0x1
 3495 012a 56       		.byte	0x56
 3496 012b 00000000 		.4byte	0
 3497 012f 00000000 		.4byte	0
 3498              	.LLST10:
 3499 0133 00000000 		.4byte	.LVL12
 3500 0137 0D000000 		.4byte	.LVL14-1
 3501 013b 0100     		.2byte	0x1
 3502 013d 52       		.byte	0x52
 3503 013e 00000000 		.4byte	0
 3504 0142 00000000 		.4byte	0
 3505              	.LLST11:
 3506 0146 16000000 		.4byte	.LVL15
 3507 014a 1A000000 		.4byte	.LVL16
 3508 014e 0100     		.2byte	0x1
 3509 0150 50       		.byte	0x50
 3510 0151 1A000000 		.4byte	.LVL16
 3511 0155 30000000 		.4byte	.LVL17
 3512 0159 0100     		.2byte	0x1
 3513 015b 55       		.byte	0x55
 3514 015c 34000000 		.4byte	.LVL18
 3515 0160 37000000 		.4byte	.LVL19-1
 3516 0164 0100     		.2byte	0x1
 3517 0166 51       		.byte	0x51
 3518 0167 37000000 		.4byte	.LVL19-1
 3519 016b 3E000000 		.4byte	.LVL20
 3520 016f 0100     		.2byte	0x1
 3521 0171 55       		.byte	0x55
ARM GAS  /var/folders/5n/p_75w94d66l9ssrldxqdhh700000gn/T//cc9oN6XQ.s 			page 63


 3522 0172 42000000 		.4byte	.LVL21
 3523 0176 54000000 		.4byte	.LFE9
 3524 017a 0100     		.2byte	0x1
 3525 017c 55       		.byte	0x55
 3526 017d 00000000 		.4byte	0
 3527 0181 00000000 		.4byte	0
 3528              	.LLST12:
 3529 0185 00000000 		.4byte	.LFB10
 3530 0189 02000000 		.4byte	.LCFI4
 3531 018d 0200     		.2byte	0x2
 3532 018f 7D       		.byte	0x7d
 3533 0190 00       		.sleb128 0
 3534 0191 02000000 		.4byte	.LCFI4
 3535 0195 3C000000 		.4byte	.LFE10
 3536 0199 0200     		.2byte	0x2
 3537 019b 7D       		.byte	0x7d
 3538 019c 10       		.sleb128 16
 3539 019d 00000000 		.4byte	0
 3540 01a1 00000000 		.4byte	0
 3541              	.LLST13:
 3542 01a5 00000000 		.4byte	.LVL22
 3543 01a9 06000000 		.4byte	.LVL23
 3544 01ad 0100     		.2byte	0x1
 3545 01af 50       		.byte	0x50
 3546 01b0 06000000 		.4byte	.LVL23
 3547 01b4 3C000000 		.4byte	.LFE10
 3548 01b8 0100     		.2byte	0x1
 3549 01ba 54       		.byte	0x54
 3550 01bb 00000000 		.4byte	0
 3551 01bf 00000000 		.4byte	0
 3552              	.LLST14:
 3553 01c3 00000000 		.4byte	.LVL22
 3554 01c7 0D000000 		.4byte	.LVL24-1
 3555 01cb 0100     		.2byte	0x1
 3556 01cd 51       		.byte	0x51
 3557 01ce 0D000000 		.4byte	.LVL24-1
 3558 01d2 3C000000 		.4byte	.LFE10
 3559 01d6 0100     		.2byte	0x1
 3560 01d8 55       		.byte	0x55
 3561 01d9 00000000 		.4byte	0
 3562 01dd 00000000 		.4byte	0
 3563              	.LLST15:
 3564 01e1 00000000 		.4byte	.LVL22
 3565 01e5 0D000000 		.4byte	.LVL24-1
 3566 01e9 0100     		.2byte	0x1
 3567 01eb 52       		.byte	0x52
 3568 01ec 0D000000 		.4byte	.LVL24-1
 3569 01f0 3C000000 		.4byte	.LFE10
 3570 01f4 0100     		.2byte	0x1
 3571 01f6 56       		.byte	0x56
 3572 01f7 00000000 		.4byte	0
 3573 01fb 00000000 		.4byte	0
 3574              	.LLST16:
 3575 01ff 16000000 		.4byte	.LVL25
 3576 0203 1A000000 		.4byte	.LVL26
 3577 0207 0100     		.2byte	0x1
 3578 0209 50       		.byte	0x50
ARM GAS  /var/folders/5n/p_75w94d66l9ssrldxqdhh700000gn/T//cc9oN6XQ.s 			page 64


 3579 020a 1A000000 		.4byte	.LVL26
 3580 020e 2B000000 		.4byte	.LVL27-1
 3581 0212 0100     		.2byte	0x1
 3582 0214 51       		.byte	0x51
 3583 0215 00000000 		.4byte	0
 3584 0219 00000000 		.4byte	0
 3585              	.LLST17:
 3586 021d 00000000 		.4byte	.LFB11
 3587 0221 02000000 		.4byte	.LCFI5
 3588 0225 0200     		.2byte	0x2
 3589 0227 7D       		.byte	0x7d
 3590 0228 00       		.sleb128 0
 3591 0229 02000000 		.4byte	.LCFI5
 3592 022d 38000000 		.4byte	.LFE11
 3593 0231 0200     		.2byte	0x2
 3594 0233 7D       		.byte	0x7d
 3595 0234 10       		.sleb128 16
 3596 0235 00000000 		.4byte	0
 3597 0239 00000000 		.4byte	0
 3598              	.LLST18:
 3599 023d 00000000 		.4byte	.LVL28
 3600 0241 06000000 		.4byte	.LVL29
 3601 0245 0100     		.2byte	0x1
 3602 0247 50       		.byte	0x50
 3603 0248 06000000 		.4byte	.LVL29
 3604 024c 38000000 		.4byte	.LFE11
 3605 0250 0100     		.2byte	0x1
 3606 0252 54       		.byte	0x54
 3607 0253 00000000 		.4byte	0
 3608 0257 00000000 		.4byte	0
 3609              	.LLST19:
 3610 025b 00000000 		.4byte	.LVL28
 3611 025f 0B000000 		.4byte	.LVL30-1
 3612 0263 0100     		.2byte	0x1
 3613 0265 51       		.byte	0x51
 3614 0266 0B000000 		.4byte	.LVL30-1
 3615 026a 38000000 		.4byte	.LFE11
 3616 026e 0100     		.2byte	0x1
 3617 0270 55       		.byte	0x55
 3618 0271 00000000 		.4byte	0
 3619 0275 00000000 		.4byte	0
 3620              	.LLST20:
 3621 0279 14000000 		.4byte	.LVL31
 3622 027d 18000000 		.4byte	.LVL32
 3623 0281 0100     		.2byte	0x1
 3624 0283 50       		.byte	0x50
 3625 0284 18000000 		.4byte	.LVL32
 3626 0288 29000000 		.4byte	.LVL33-1
 3627 028c 0100     		.2byte	0x1
 3628 028e 53       		.byte	0x53
 3629 028f 00000000 		.4byte	0
 3630 0293 00000000 		.4byte	0
 3631              	.LLST21:
 3632 0297 00000000 		.4byte	.LFB12
 3633 029b 02000000 		.4byte	.LCFI6
 3634 029f 0200     		.2byte	0x2
 3635 02a1 7D       		.byte	0x7d
ARM GAS  /var/folders/5n/p_75w94d66l9ssrldxqdhh700000gn/T//cc9oN6XQ.s 			page 65


 3636 02a2 00       		.sleb128 0
 3637 02a3 02000000 		.4byte	.LCFI6
 3638 02a7 06000000 		.4byte	.LCFI7
 3639 02ab 0200     		.2byte	0x2
 3640 02ad 7D       		.byte	0x7d
 3641 02ae 0C       		.sleb128 12
 3642 02af 06000000 		.4byte	.LCFI7
 3643 02b3 38000000 		.4byte	.LFE12
 3644 02b7 0200     		.2byte	0x2
 3645 02b9 7D       		.byte	0x7d
 3646 02ba 28       		.sleb128 40
 3647 02bb 00000000 		.4byte	0
 3648 02bf 00000000 		.4byte	0
 3649              	.LLST22:
 3650 02c3 00000000 		.4byte	.LVL34
 3651 02c7 08000000 		.4byte	.LVL35
 3652 02cb 0100     		.2byte	0x1
 3653 02cd 50       		.byte	0x50
 3654 02ce 08000000 		.4byte	.LVL35
 3655 02d2 38000000 		.4byte	.LFE12
 3656 02d6 0100     		.2byte	0x1
 3657 02d8 54       		.byte	0x54
 3658 02d9 00000000 		.4byte	0
 3659 02dd 00000000 		.4byte	0
 3660              	.LLST23:
 3661 02e1 00000000 		.4byte	.LFB13
 3662 02e5 02000000 		.4byte	.LCFI8
 3663 02e9 0200     		.2byte	0x2
 3664 02eb 7D       		.byte	0x7d
 3665 02ec 00       		.sleb128 0
 3666 02ed 02000000 		.4byte	.LCFI8
 3667 02f1 04000000 		.4byte	.LCFI9
 3668 02f5 0200     		.2byte	0x2
 3669 02f7 7D       		.byte	0x7d
 3670 02f8 0C       		.sleb128 12
 3671 02f9 04000000 		.4byte	.LCFI9
 3672 02fd 4C000000 		.4byte	.LFE13
 3673 0301 0200     		.2byte	0x2
 3674 0303 7D       		.byte	0x7d
 3675 0304 18       		.sleb128 24
 3676 0305 00000000 		.4byte	0
 3677 0309 00000000 		.4byte	0
 3678              	.LLST24:
 3679 030d 00000000 		.4byte	.LVL36
 3680 0311 0B000000 		.4byte	.LVL37-1
 3681 0315 0100     		.2byte	0x1
 3682 0317 50       		.byte	0x50
 3683 0318 0B000000 		.4byte	.LVL37-1
 3684 031c 4C000000 		.4byte	.LFE13
 3685 0320 0100     		.2byte	0x1
 3686 0322 55       		.byte	0x55
 3687 0323 00000000 		.4byte	0
 3688 0327 00000000 		.4byte	0
 3689              	.LLST25:
 3690 032b 00000000 		.4byte	.LVL36
 3691 032f 0B000000 		.4byte	.LVL37-1
 3692 0333 0100     		.2byte	0x1
ARM GAS  /var/folders/5n/p_75w94d66l9ssrldxqdhh700000gn/T//cc9oN6XQ.s 			page 66


 3693 0335 51       		.byte	0x51
 3694 0336 0B000000 		.4byte	.LVL37-1
 3695 033a 4C000000 		.4byte	.LFE13
 3696 033e 0100     		.2byte	0x1
 3697 0340 54       		.byte	0x54
 3698 0341 00000000 		.4byte	0
 3699 0345 00000000 		.4byte	0
 3700              	.LLST26:
 3701 0349 00000000 		.4byte	.LVL38
 3702 034d 06000000 		.4byte	.LVL39
 3703 0351 0100     		.2byte	0x1
 3704 0353 50       		.byte	0x50
 3705 0354 06000000 		.4byte	.LVL39
 3706 0358 0F000000 		.4byte	.LVL40-1
 3707 035c 0100     		.2byte	0x1
 3708 035e 51       		.byte	0x51
 3709 035f 00000000 		.4byte	0
 3710 0363 00000000 		.4byte	0
 3711              	.LLST27:
 3712 0367 00000000 		.4byte	.LVL41
 3713 036b 06000000 		.4byte	.LVL42
 3714 036f 0100     		.2byte	0x1
 3715 0371 50       		.byte	0x50
 3716 0372 06000000 		.4byte	.LVL42
 3717 0376 0F000000 		.4byte	.LVL43-1
 3718 037a 0100     		.2byte	0x1
 3719 037c 51       		.byte	0x51
 3720 037d 00000000 		.4byte	0
 3721 0381 00000000 		.4byte	0
 3722              		.section	.debug_aranges,"",%progbits
 3723 0000 64000000 		.4byte	0x64
 3724 0004 0200     		.2byte	0x2
 3725 0006 00000000 		.4byte	.Ldebug_info0
 3726 000a 04       		.byte	0x4
 3727 000b 00       		.byte	0
 3728 000c 0000     		.2byte	0
 3729 000e 0000     		.2byte	0
 3730 0010 00000000 		.4byte	.LFB14
 3731 0014 04000000 		.4byte	.LFE14-.LFB14
 3732 0018 00000000 		.4byte	.LFB7
 3733 001c A4000000 		.4byte	.LFE7-.LFB7
 3734 0020 00000000 		.4byte	.LFB8
 3735 0024 44000000 		.4byte	.LFE8-.LFB8
 3736 0028 00000000 		.4byte	.LFB9
 3737 002c 54000000 		.4byte	.LFE9-.LFB9
 3738 0030 00000000 		.4byte	.LFB10
 3739 0034 3C000000 		.4byte	.LFE10-.LFB10
 3740 0038 00000000 		.4byte	.LFB11
 3741 003c 38000000 		.4byte	.LFE11-.LFB11
 3742 0040 00000000 		.4byte	.LFB12
 3743 0044 38000000 		.4byte	.LFE12-.LFB12
 3744 0048 00000000 		.4byte	.LFB13
 3745 004c 4C000000 		.4byte	.LFE13-.LFB13
 3746 0050 00000000 		.4byte	.LFB15
 3747 0054 10000000 		.4byte	.LFE15-.LFB15
 3748 0058 00000000 		.4byte	.LFB16
 3749 005c 10000000 		.4byte	.LFE16-.LFB16
ARM GAS  /var/folders/5n/p_75w94d66l9ssrldxqdhh700000gn/T//cc9oN6XQ.s 			page 67


 3750 0060 00000000 		.4byte	0
 3751 0064 00000000 		.4byte	0
 3752              		.section	.debug_ranges,"",%progbits
 3753              	.Ldebug_ranges0:
 3754 0000 00000000 		.4byte	.LFB14
 3755 0004 04000000 		.4byte	.LFE14
 3756 0008 00000000 		.4byte	.LFB7
 3757 000c A4000000 		.4byte	.LFE7
 3758 0010 00000000 		.4byte	.LFB8
 3759 0014 44000000 		.4byte	.LFE8
 3760 0018 00000000 		.4byte	.LFB9
 3761 001c 54000000 		.4byte	.LFE9
 3762 0020 00000000 		.4byte	.LFB10
 3763 0024 3C000000 		.4byte	.LFE10
 3764 0028 00000000 		.4byte	.LFB11
 3765 002c 38000000 		.4byte	.LFE11
 3766 0030 00000000 		.4byte	.LFB12
 3767 0034 38000000 		.4byte	.LFE12
 3768 0038 00000000 		.4byte	.LFB13
 3769 003c 4C000000 		.4byte	.LFE13
 3770 0040 00000000 		.4byte	.LFB15
 3771 0044 10000000 		.4byte	.LFE15
 3772 0048 00000000 		.4byte	.LFB16
 3773 004c 10000000 		.4byte	.LFE16
 3774 0050 00000000 		.4byte	0
 3775 0054 00000000 		.4byte	0
 3776              		.section	.debug_line,"",%progbits
 3777              	.Ldebug_line0:
 3778 0000 A6030000 		.section	.debug_str,"MS",%progbits,1
 3778      02005702 
 3778      00000201 
 3778      FB0E0D00 
 3778      01010101 
 3779              	.LASF45:
 3780 0000 54687265 		.ascii	"ThreadsList\000"
 3780      6164734C 
 3780      69737400 
 3781              	.LASF37:
 3782 000c 705F7761 		.ascii	"p_waiting\000"
 3782      6974696E 
 3782      6700
 3783              	.LASF147:
 3784 0016 7564705F 		.ascii	"udp_pcb\000"
 3784      70636200 
 3785              	.LASF78:
 3786 001e 4D454D50 		.ascii	"MEMP_TCP_PCB_LISTEN\000"
 3786      5F544350 
 3786      5F504342 
 3786      5F4C4953 
 3786      54454E00 
 3787              	.LASF36:
 3788 0032 705F7469 		.ascii	"p_time\000"
 3788      6D6500
 3789              	.LASF145:
 3790 0039 736F5F6F 		.ascii	"so_options\000"
 3790      7074696F 
 3790      6E7300
ARM GAS  /var/folders/5n/p_75w94d66l9ssrldxqdhh700000gn/T//cc9oN6XQ.s 			page 68


 3791              	.LASF46:
 3792 0044 72656761 		.ascii	"regarm_t\000"
 3792      726D5F74 
 3792      00
 3793              	.LASF27:
 3794 004d 705F7072 		.ascii	"p_prio\000"
 3794      696F00
 3795              	.LASF159:
 3796 0054 7379735F 		.ascii	"sys_timeout_handler\000"
 3796      74696D65 
 3796      6F75745F 
 3796      68616E64 
 3796      6C657200 
 3797              	.LASF95:
 3798 0068 666C6167 		.ascii	"flags\000"
 3798      7300
 3799              	.LASF22:
 3800 006e 73797374 		.ascii	"systime_t\000"
 3800      696D655F 
 3800      7400
 3801              	.LASF54:
 3802 0078 6D5F6F77 		.ascii	"m_owner\000"
 3802      6E657200 
 3803              	.LASF50:
 3804 0080 735F7175 		.ascii	"s_queue\000"
 3804      65756500 
 3805              	.LASF136:
 3806 0088 72656376 		.ascii	"recvmbox\000"
 3806      6D626F78 
 3806      00
 3807              	.LASF148:
 3808 0091 7261775F 		.ascii	"raw_pcb\000"
 3808      70636200 
 3809              	.LASF38:
 3810 0099 705F6D73 		.ascii	"p_msgqueue\000"
 3810      67717565 
 3810      756500
 3811              	.LASF0:
 3812 00a4 756E7369 		.ascii	"unsigned int\000"
 3812      676E6564 
 3812      20696E74 
 3812      00
 3813              	.LASF122:
 3814 00b1 4E455443 		.ascii	"NETCONN_WRITE\000"
 3814      4F4E4E5F 
 3814      57524954 
 3814      4500
 3815              	.LASF91:
 3816 00bf 6E657874 		.ascii	"next\000"
 3816      00
 3817              	.LASF117:
 3818 00c4 4E455443 		.ascii	"NETCONN_UDPNOCHKSUM\000"
 3818      4F4E4E5F 
 3818      5544504E 
 3818      4F43484B 
 3818      53554D00 
 3819              	.LASF72:
ARM GAS  /var/folders/5n/p_75w94d66l9ssrldxqdhh700000gn/T//cc9oN6XQ.s 			page 69


 3820 00d8 6572725F 		.ascii	"err_t\000"
 3820      7400
 3821              	.LASF153:
 3822 00de 6C6F6361 		.ascii	"local\000"
 3822      6C00
 3823              	.LASF103:
 3824 00e4 6C696E6B 		.ascii	"linkoutput\000"
 3824      6F757470 
 3824      757400
 3825              	.LASF70:
 3826 00ef 7531365F 		.ascii	"u16_t\000"
 3826      7400
 3827              	.LASF179:
 3828 00f5 696E6974 		.ascii	"initfunc\000"
 3828      66756E63 
 3828      00
 3829              	.LASF65:
 3830 00fe 77746F62 		.ascii	"wtobjp\000"
 3830      6A7000
 3831              	.LASF66:
 3832 0105 65776D61 		.ascii	"ewmask\000"
 3832      736B00
 3833              	.LASF109:
 3834 010c 6E657469 		.ascii	"netif_output_fn\000"
 3834      665F6F75 
 3834      74707574 
 3834      5F666E00 
 3835              	.LASF62:
 3836 011c 4D61696C 		.ascii	"Mailbox\000"
 3836      626F7800 
 3837              	.LASF120:
 3838 0124 6E657463 		.ascii	"netconn_state\000"
 3838      6F6E6E5F 
 3838      73746174 
 3838      6500
 3839              	.LASF51:
 3840 0132 735F636E 		.ascii	"s_cnt\000"
 3840      7400
 3841              	.LASF175:
 3842 0138 626C6F63 		.ascii	"block\000"
 3842      6B00
 3843              	.LASF129:
 3844 013e 4E455443 		.ascii	"NETCONN_EVT_SENDPLUS\000"
 3844      4F4E4E5F 
 3844      4556545F 
 3844      53454E44 
 3844      504C5553 
 3845              	.LASF108:
 3846 0153 6E657469 		.ascii	"netif_input_fn\000"
 3846      665F696E 
 3846      7075745F 
 3846      666E00
 3847              	.LASF11:
 3848 0162 75696E74 		.ascii	"uint32_t\000"
 3848      33325F74 
 3848      00
 3849              	.LASF2:
ARM GAS  /var/folders/5n/p_75w94d66l9ssrldxqdhh700000gn/T//cc9oN6XQ.s 			page 70


 3850 016b 696E7438 		.ascii	"int8_t\000"
 3850      5F7400
 3851              	.LASF21:
 3852 0172 6576656E 		.ascii	"eventmask_t\000"
 3852      746D6173 
 3852      6B5F7400 
 3853              	.LASF84:
 3854 017e 4D454D50 		.ascii	"MEMP_TCPIP_MSG_API\000"
 3854      5F544350 
 3854      49505F4D 
 3854      53475F41 
 3854      504900
 3855              	.LASF131:
 3856 0191 4E455443 		.ascii	"NETCONN_EVT_ERROR\000"
 3856      4F4E4E5F 
 3856      4556545F 
 3856      4552524F 
 3856      5200
 3857              	.LASF164:
 3858 01a3 54435049 		.ascii	"TCPIP_MSG_INPKT\000"
 3858      505F4D53 
 3858      475F494E 
 3858      504B5400 
 3859              	.LASF19:
 3860 01b3 74707269 		.ascii	"tprio_t\000"
 3860      6F5F7400 
 3861              	.LASF178:
 3862 01bb 74637069 		.ascii	"tcpip_apimsg\000"
 3862      705F6170 
 3862      696D7367 
 3862      00
 3863              	.LASF106:
 3864 01c8 68776164 		.ascii	"hwaddr\000"
 3864      647200
 3865              	.LASF14:
 3866 01cf 6C6F6E67 		.ascii	"long long unsigned int\000"
 3866      206C6F6E 
 3866      6720756E 
 3866      7369676E 
 3866      65642069 
 3867              	.LASF113:
 3868 01e6 4E455443 		.ascii	"NETCONN_INVALID\000"
 3868      4F4E4E5F 
 3868      494E5641 
 3868      4C494400 
 3869              	.LASF23:
 3870 01f6 636E745F 		.ascii	"cnt_t\000"
 3870      7400
 3871              	.LASF105:
 3872 01fc 68776164 		.ascii	"hwaddr_len\000"
 3872      64725F6C 
 3872      656E00
 3873              	.LASF29:
 3874 0207 705F6E65 		.ascii	"p_newer\000"
 3874      77657200 
 3875              	.LASF188:
 3876 020f 74637069 		.ascii	"tcpip_init\000"
ARM GAS  /var/folders/5n/p_75w94d66l9ssrldxqdhh700000gn/T//cc9oN6XQ.s 			page 71


 3876      705F696E 
 3876      697400
 3877              	.LASF85:
 3878 021a 4D454D50 		.ascii	"MEMP_TCPIP_MSG_INPKT\000"
 3878      5F544350 
 3878      49505F4D 
 3878      53475F49 
 3878      4E504B54 
 3879              	.LASF127:
 3880 022f 4E455443 		.ascii	"NETCONN_EVT_RCVPLUS\000"
 3880      4F4E4E5F 
 3880      4556545F 
 3880      52435650 
 3880      4C555300 
 3881              	.LASF115:
 3882 0243 4E455443 		.ascii	"NETCONN_UDP\000"
 3882      4F4E4E5F 
 3882      55445000 
 3883              	.LASF93:
 3884 024f 746F745F 		.ascii	"tot_len\000"
 3884      6C656E00 
 3885              	.LASF152:
 3886 0257 69706164 		.ascii	"ipaddr\000"
 3886      647200
 3887              	.LASF1:
 3888 025e 73697A65 		.ascii	"size_t\000"
 3888      5F7400
 3889              	.LASF63:
 3890 0265 7264796D 		.ascii	"rdymsg\000"
 3890      736700
 3891              	.LASF92:
 3892 026c 7061796C 		.ascii	"payload\000"
 3892      6F616400 
 3893              	.LASF102:
 3894 0274 6F757470 		.ascii	"output\000"
 3894      757400
 3895              	.LASF90:
 3896 027b 70627566 		.ascii	"pbuf\000"
 3896      00
 3897              	.LASF59:
 3898 0280 6D625F72 		.ascii	"mb_rdptr\000"
 3898      64707472 
 3898      00
 3899              	.LASF150:
 3900 0289 636F6E6E 		.ascii	"conn\000"
 3900      00
 3901              	.LASF172:
 3902 028e 74637069 		.ascii	"tcpip_thread\000"
 3902      705F7468 
 3902      72656164 
 3902      00
 3903              	.LASF73:
 3904 029b 7379735F 		.ascii	"sys_sem_t\000"
 3904      73656D5F 
 3904      7400
 3905              	.LASF134:
 3906 02a5 6C617374 		.ascii	"last_err\000"
ARM GAS  /var/folders/5n/p_75w94d66l9ssrldxqdhh700000gn/T//cc9oN6XQ.s 			page 72


 3906      5F657272 
 3906      00
 3907              	.LASF89:
 3908 02ae 4D454D50 		.ascii	"MEMP_MAX\000"
 3908      5F4D4158 
 3908      00
 3909              	.LASF183:
 3910 02b7 74637069 		.ascii	"tcpip_init_done_arg\000"
 3910      705F696E 
 3910      69745F64 
 3910      6F6E655F 
 3910      61726700 
 3911              	.LASF69:
 3912 02cb 73385F74 		.ascii	"s8_t\000"
 3912      00
 3913              	.LASF52:
 3914 02d0 4D757465 		.ascii	"Mutex\000"
 3914      7800
 3915              	.LASF61:
 3916 02d6 6D625F65 		.ascii	"mb_emptysem\000"
 3916      6D707479 
 3916      73656D00 
 3917              	.LASF83:
 3918 02e2 4D454D50 		.ascii	"MEMP_NETCONN\000"
 3918      5F4E4554 
 3918      434F4E4E 
 3918      00
 3919              	.LASF149:
 3920 02ef 6170695F 		.ascii	"api_msg_msg\000"
 3920      6D73675F 
 3920      6D736700 
 3921              	.LASF128:
 3922 02fb 4E455443 		.ascii	"NETCONN_EVT_RCVMINUS\000"
 3922      4F4E4E5F 
 3922      4556545F 
 3922      5243564D 
 3922      494E5553 
 3923              	.LASF31:
 3924 0310 705F6E61 		.ascii	"p_name\000"
 3924      6D6500
 3925              	.LASF87:
 3926 0317 4D454D50 		.ascii	"MEMP_PBUF\000"
 3926      5F504255 
 3926      4600
 3927              	.LASF44:
 3928 0321 54687265 		.ascii	"ThreadsQueue\000"
 3928      61647351 
 3928      75657565 
 3928      00
 3929              	.LASF67:
 3930 032e 63686172 		.ascii	"char\000"
 3930      00
 3931              	.LASF181:
 3932 0333 6D656D5F 		.ascii	"mem_free_callback\000"
 3932      66726565 
 3932      5F63616C 
 3932      6C626163 
ARM GAS  /var/folders/5n/p_75w94d66l9ssrldxqdhh700000gn/T//cc9oN6XQ.s 			page 73


 3932      6B00
 3933              	.LASF130:
 3934 0345 4E455443 		.ascii	"NETCONN_EVT_SENDMINUS\000"
 3934      4F4E4E5F 
 3934      4556545F 
 3934      53454E44 
 3934      4D494E55 
 3935              	.LASF185:
 3936 035b 474E5520 		.ascii	"GNU C 4.6.2 20111004 (prerelease)\000"
 3936      4320342E 
 3936      362E3220 
 3936      32303131 
 3936      31303034 
 3937              	.LASF180:
 3938 037d 70627566 		.ascii	"pbuf_free_callback\000"
 3938      5F667265 
 3938      655F6361 
 3938      6C6C6261 
 3938      636B00
 3939              	.LASF24:
 3940 0390 54687265 		.ascii	"Thread\000"
 3940      616400
 3941              	.LASF151:
 3942 0397 70726F74 		.ascii	"proto\000"
 3942      6F00
 3943              	.LASF16:
 3944 039d 74737461 		.ascii	"tstate_t\000"
 3944      74655F74 
 3944      00
 3945              	.LASF30:
 3946 03a6 705F6F6C 		.ascii	"p_older\000"
 3946      64657200 
 3947              	.LASF32:
 3948 03ae 705F7374 		.ascii	"p_state\000"
 3948      61746500 
 3949              	.LASF4:
 3950 03b6 75696E74 		.ascii	"uint8_t\000"
 3950      385F7400 
 3951              	.LASF60:
 3952 03be 6D625F66 		.ascii	"mb_fullsem\000"
 3952      756C6C73 
 3952      656D00
 3953              	.LASF43:
 3954 03c9 705F6D70 		.ascii	"p_mpool\000"
 3954      6F6F6C00 
 3955              	.LASF41:
 3956 03d1 705F6D74 		.ascii	"p_mtxlist\000"
 3956      786C6973 
 3956      7400
 3957              	.LASF137:
 3958 03db 61636365 		.ascii	"acceptmbox\000"
 3958      70746D62 
 3958      6F7800
 3959              	.LASF167:
 3960 03e6 54435049 		.ascii	"TCPIP_MSG_CALLBACK\000"
 3960      505F4D53 
 3960      475F4341 
ARM GAS  /var/folders/5n/p_75w94d66l9ssrldxqdhh700000gn/T//cc9oN6XQ.s 			page 74


 3960      4C4C4241 
 3960      434B00
 3961              	.LASF157:
 3962 03f9 6170695F 		.ascii	"api_msg\000"
 3962      6D736700 
 3963              	.LASF162:
 3964 0401 74637069 		.ascii	"tcpip_msg_type\000"
 3964      705F6D73 
 3964      675F7479 
 3964      706500
 3965              	.LASF82:
 3966 0410 4D454D50 		.ascii	"MEMP_NETBUF\000"
 3966      5F4E4554 
 3966      42554600 
 3967              	.LASF100:
 3968 041c 6E65746D 		.ascii	"netmask\000"
 3968      61736B00 
 3969              	.LASF13:
 3970 0424 6C6F6E67 		.ascii	"long long int\000"
 3970      206C6F6E 
 3970      6720696E 
 3970      7400
 3971              	.LASF173:
 3972 0432 74637069 		.ascii	"tcpip_input\000"
 3972      705F696E 
 3972      70757400 
 3973              	.LASF20:
 3974 043e 6D73675F 		.ascii	"msg_t\000"
 3974      7400
 3975              	.LASF48:
 3976 0444 636F6E74 		.ascii	"context\000"
 3976      65787400 
 3977              	.LASF68:
 3978 044c 75385F74 		.ascii	"u8_t\000"
 3978      00
 3979              	.LASF33:
 3980 0451 705F666C 		.ascii	"p_flags\000"
 3980      61677300 
 3981              	.LASF187:
 3982 0459 2F557365 		.ascii	"/Users/sin/Documents/Eclipse/Workspace/mabl-ChibiOS"
 3982      72732F73 
 3982      696E2F44 
 3982      6F63756D 
 3982      656E7473 
 3983 048c 2D322E35 		.ascii	"-2.5.1/demos/ARMCM4-STM32F407-LWIP\000"
 3983      2E312F64 
 3983      656D6F73 
 3983      2F41524D 
 3983      434D342D 
 3984              	.LASF57:
 3985 04af 6D625F74 		.ascii	"mb_top\000"
 3985      6F7000
 3986              	.LASF165:
 3987 04b6 54435049 		.ascii	"TCPIP_MSG_TIMEOUT\000"
 3987      505F4D53 
 3987      475F5449 
 3987      4D454F55 
ARM GAS  /var/folders/5n/p_75w94d66l9ssrldxqdhh700000gn/T//cc9oN6XQ.s 			page 75


 3987      5400
 3988              	.LASF18:
 3989 04c8 74736C69 		.ascii	"tslices_t\000"
 3989      6365735F 
 3989      7400
 3990              	.LASF80:
 3991 04d2 4D454D50 		.ascii	"MEMP_REASSDATA\000"
 3991      5F524541 
 3991      53534441 
 3991      544100
 3992              	.LASF88:
 3993 04e1 4D454D50 		.ascii	"MEMP_PBUF_POOL\000"
 3993      5F504255 
 3993      465F504F 
 3993      4F4C00
 3994              	.LASF160:
 3995 04f0 74637069 		.ascii	"tcpip_init_done_fn\000"
 3995      705F696E 
 3995      69745F64 
 3995      6F6E655F 
 3995      666E00
 3996              	.LASF177:
 3997 0503 74637069 		.ascii	"tcpip_untimeout\000"
 3997      705F756E 
 3997      74696D65 
 3997      6F757400 
 3998              	.LASF39:
 3999 0513 705F6D73 		.ascii	"p_msg\000"
 3999      6700
 4000              	.LASF154:
 4001 0519 64617461 		.ascii	"dataptr\000"
 4001      70747200 
 4002              	.LASF15:
 4003 0521 746D6F64 		.ascii	"tmode_t\000"
 4003      655F7400 
 4004              	.LASF171:
 4005 0529 70627566 		.ascii	"pbuf_free_int\000"
 4005      5F667265 
 4005      655F696E 
 4005      7400
 4006              	.LASF7:
 4007 0537 75696E74 		.ascii	"uint16_t\000"
 4007      31365F74 
 4007      00
 4008              	.LASF121:
 4009 0540 4E455443 		.ascii	"NETCONN_NONE\000"
 4009      4F4E4E5F 
 4009      4E4F4E45 
 4009      00
 4010              	.LASF47:
 4011 054d 696E7463 		.ascii	"intctx\000"
 4011      747800
 4012              	.LASF119:
 4013 0554 6E657463 		.ascii	"netconn_type\000"
 4013      6F6E6E5F 
 4013      74797065 
 4013      00
ARM GAS  /var/folders/5n/p_75w94d66l9ssrldxqdhh700000gn/T//cc9oN6XQ.s 			page 76


 4014              	.LASF124:
 4015 0561 4E455443 		.ascii	"NETCONN_CONNECT\000"
 4015      4F4E4E5F 
 4015      434F4E4E 
 4015      45435400 
 4016              	.LASF77:
 4017 0571 4D454D50 		.ascii	"MEMP_TCP_PCB\000"
 4017      5F544350 
 4017      5F504342 
 4017      00
 4018              	.LASF42:
 4019 057e 705F7265 		.ascii	"p_realprio\000"
 4019      616C7072 
 4019      696F00
 4020              	.LASF71:
 4021 0589 7533325F 		.ascii	"u32_t\000"
 4021      7400
 4022              	.LASF6:
 4023 058f 73686F72 		.ascii	"short int\000"
 4023      7420696E 
 4023      7400
 4024              	.LASF58:
 4025 0599 6D625F77 		.ascii	"mb_wrptr\000"
 4025      72707472 
 4025      00
 4026              	.LASF155:
 4027 05a2 61706966 		.ascii	"apiflags\000"
 4027      6C616773 
 4027      00
 4028              	.LASF40:
 4029 05ab 705F6570 		.ascii	"p_epending\000"
 4029      656E6469 
 4029      6E6700
 4030              	.LASF53:
 4031 05b6 6D5F7175 		.ascii	"m_queue\000"
 4031      65756500 
 4032              	.LASF10:
 4033 05be 6C6F6E67 		.ascii	"long int\000"
 4033      20696E74 
 4033      00
 4034              	.LASF169:
 4035 05c7 6170696D 		.ascii	"apimsg\000"
 4035      736700
 4036              	.LASF86:
 4037 05ce 4D454D50 		.ascii	"MEMP_SYS_TIMEOUT\000"
 4037      5F535953 
 4037      5F54494D 
 4037      454F5554 
 4037      00
 4038              	.LASF161:
 4039 05df 74637069 		.ascii	"tcpip_callback_fn\000"
 4039      705F6361 
 4039      6C6C6261 
 4039      636B5F66 
 4039      6E00
 4040              	.LASF140:
 4041 05f1 63757272 		.ascii	"current_msg\000"
ARM GAS  /var/folders/5n/p_75w94d66l9ssrldxqdhh700000gn/T//cc9oN6XQ.s 			page 77


 4041      656E745F 
 4041      6D736700 
 4042              	.LASF163:
 4043 05fd 54435049 		.ascii	"TCPIP_MSG_API\000"
 4043      505F4D53 
 4043      475F4150 
 4043      4900
 4044              	.LASF25:
 4045 060b 705F6E65 		.ascii	"p_next\000"
 4045      787400
 4046              	.LASF76:
 4047 0612 4D454D50 		.ascii	"MEMP_UDP_PCB\000"
 4047      5F554450 
 4047      5F504342 
 4047      00
 4048              	.LASF143:
 4049 061f 6C6F6361 		.ascii	"local_ip\000"
 4049      6C5F6970 
 4049      00
 4050              	.LASF28:
 4051 0628 705F6374 		.ascii	"p_ctx\000"
 4051      7800
 4052              	.LASF184:
 4053 062e 6D626F78 		.ascii	"mbox\000"
 4053      00
 4054              	.LASF138:
 4055 0633 736F636B 		.ascii	"socket\000"
 4055      657400
 4056              	.LASF174:
 4057 063a 74637069 		.ascii	"tcpip_callback_with_block\000"
 4057      705F6361 
 4057      6C6C6261 
 4057      636B5F77 
 4057      6974685F 
 4058              	.LASF49:
 4059 0654 53656D61 		.ascii	"Semaphore\000"
 4059      70686F72 
 4059      6500
 4060              	.LASF107:
 4061 065e 6E616D65 		.ascii	"name\000"
 4061      00
 4062              	.LASF111:
 4063 0663 6E657462 		.ascii	"netbuf\000"
 4063      756600
 4064              	.LASF110:
 4065 066a 6E657469 		.ascii	"netif_linkoutput_fn\000"
 4065      665F6C69 
 4065      6E6B6F75 
 4065      74707574 
 4065      5F666E00 
 4066              	.LASF81:
 4067 067e 4D454D50 		.ascii	"MEMP_FRAG_PBUF\000"
 4067      5F465241 
 4067      475F5042 
 4067      554600
 4068              	.LASF75:
 4069 068d 4D454D50 		.ascii	"MEMP_RAW_PCB\000"
ARM GAS  /var/folders/5n/p_75w94d66l9ssrldxqdhh700000gn/T//cc9oN6XQ.s 			page 78


 4069      5F524157 
 4069      5F504342 
 4069      00
 4070              	.LASF26:
 4071 069a 705F7072 		.ascii	"p_prev\000"
 4071      657600
 4072              	.LASF74:
 4073 06a1 7379735F 		.ascii	"sys_mbox_t\000"
 4073      6D626F78 
 4073      5F7400
 4074              	.LASF17:
 4075 06ac 74726566 		.ascii	"trefs_t\000"
 4075      735F7400 
 4076              	.LASF12:
 4077 06b4 6C6F6E67 		.ascii	"long unsigned int\000"
 4077      20756E73 
 4077      69676E65 
 4077      6420696E 
 4077      7400
 4078              	.LASF56:
 4079 06c6 6D625F62 		.ascii	"mb_buffer\000"
 4079      75666665 
 4079      7200
 4080              	.LASF9:
 4081 06d0 696E7433 		.ascii	"int32_t\000"
 4081      325F7400 
 4082              	.LASF112:
 4083 06d8 706F7274 		.ascii	"port\000"
 4083      00
 4084              	.LASF101:
 4085 06dd 696E7075 		.ascii	"input\000"
 4085      7400
 4086              	.LASF126:
 4087 06e3 6E657463 		.ascii	"netconn_evt\000"
 4087      6F6E6E5F 
 4087      65767400 
 4088              	.LASF132:
 4089 06ef 6E657463 		.ascii	"netconn_callback\000"
 4089      6F6E6E5F 
 4089      63616C6C 
 4089      6261636B 
 4089      00
 4090              	.LASF94:
 4091 0700 74797065 		.ascii	"type\000"
 4091      00
 4092              	.LASF5:
 4093 0705 756E7369 		.ascii	"unsigned char\000"
 4093      676E6564 
 4093      20636861 
 4093      7200
 4094              	.LASF158:
 4095 0713 66756E63 		.ascii	"function\000"
 4095      74696F6E 
 4095      00
 4096              	.LASF34:
 4097 071c 705F7265 		.ascii	"p_refs\000"
 4097      667300
ARM GAS  /var/folders/5n/p_75w94d66l9ssrldxqdhh700000gn/T//cc9oN6XQ.s 			page 79


 4098              	.LASF79:
 4099 0723 4D454D50 		.ascii	"MEMP_TCP_SEG\000"
 4099      5F544350 
 4099      5F534547 
 4099      00
 4100              	.LASF142:
 4101 0730 69705F70 		.ascii	"ip_pcb\000"
 4101      636200
 4102              	.LASF114:
 4103 0737 4E455443 		.ascii	"NETCONN_TCP\000"
 4103      4F4E4E5F 
 4103      54435000 
 4104              	.LASF156:
 4105 0743 73687574 		.ascii	"shut\000"
 4105      00
 4106              	.LASF123:
 4107 0748 4E455443 		.ascii	"NETCONN_LISTEN\000"
 4107      4F4E4E5F 
 4107      4C495354 
 4107      454E00
 4108              	.LASF186:
 4109 0757 2E2E2F2E 		.ascii	"../../ext/lwip/src/api/tcpip.c\000"
 4109      2E2F6578 
 4109      742F6C77 
 4109      69702F73 
 4109      72632F61 
 4110              	.LASF35:
 4111 0776 705F7072 		.ascii	"p_preempt\000"
 4111      65656D70 
 4111      7400
 4112              	.LASF139:
 4113 0780 77726974 		.ascii	"write_offset\000"
 4113      655F6F66 
 4113      66736574 
 4113      00
 4114              	.LASF97:
 4115 078d 61646472 		.ascii	"addr\000"
 4115      00
 4116              	.LASF104:
 4117 0792 73746174 		.ascii	"state\000"
 4117      6500
 4118              	.LASF141:
 4119 0798 63616C6C 		.ascii	"callback\000"
 4119      6261636B 
 4119      00
 4120              	.LASF99:
 4121 07a1 6E657469 		.ascii	"netif\000"
 4121      6600
 4122              	.LASF182:
 4123 07a7 74637069 		.ascii	"tcpip_init_done\000"
 4123      705F696E 
 4123      69745F64 
 4123      6F6E6500 
 4124              	.LASF176:
 4125 07b7 74637069 		.ascii	"tcpip_timeout\000"
 4125      705F7469 
 4125      6D656F75 
ARM GAS  /var/folders/5n/p_75w94d66l9ssrldxqdhh700000gn/T//cc9oN6XQ.s 			page 80


 4125      7400
 4126              	.LASF125:
 4127 07c5 4E455443 		.ascii	"NETCONN_CLOSE\000"
 4127      4F4E4E5F 
 4127      434C4F53 
 4127      4500
 4128              	.LASF55:
 4129 07d3 6D5F6E65 		.ascii	"m_next\000"
 4129      787400
 4130              	.LASF3:
 4131 07da 7369676E 		.ascii	"signed char\000"
 4131      65642063 
 4131      68617200 
 4132              	.LASF146:
 4133 07e6 7463705F 		.ascii	"tcp_pcb\000"
 4133      70636200 
 4134              	.LASF8:
 4135 07ee 73686F72 		.ascii	"short unsigned int\000"
 4135      7420756E 
 4135      7369676E 
 4135      65642069 
 4135      6E7400
 4136              	.LASF118:
 4137 0801 4E455443 		.ascii	"NETCONN_RAW\000"
 4137      4F4E4E5F 
 4137      52415700 
 4138              	.LASF116:
 4139 080d 4E455443 		.ascii	"NETCONN_UDPLITE\000"
 4139      4F4E4E5F 
 4139      5544504C 
 4139      49544500 
 4140              	.LASF144:
 4141 081d 72656D6F 		.ascii	"remote_ip\000"
 4141      74655F69 
 4141      7000
 4142              	.LASF135:
 4143 0827 6F705F63 		.ascii	"op_completed\000"
 4143      6F6D706C 
 4143      65746564 
 4143      00
 4144              	.LASF98:
 4145 0834 69705F61 		.ascii	"ip_addr_t\000"
 4145      6464725F 
 4145      7400
 4146              	.LASF133:
 4147 083e 6E657463 		.ascii	"netconn\000"
 4147      6F6E6E00 
 4148              	.LASF166:
 4149 0846 54435049 		.ascii	"TCPIP_MSG_UNTIMEOUT\000"
 4149      505F4D53 
 4149      475F554E 
 4149      54494D45 
 4149      4F555400 
 4150              	.LASF170:
 4151 085a 74637069 		.ascii	"tcpip_msg\000"
 4151      705F6D73 
 4151      6700
ARM GAS  /var/folders/5n/p_75w94d66l9ssrldxqdhh700000gn/T//cc9oN6XQ.s 			page 81


 4152              	.LASF168:
 4153 0864 6D736563 		.ascii	"msecs\000"
 4153      7300
 4154              	.LASF64:
 4155 086a 65786974 		.ascii	"exitcode\000"
 4155      636F6465 
 4155      00
 4156              	.LASF96:
 4157 0873 69705F61 		.ascii	"ip_addr\000"
 4157      64647200 
 4158              		.ident	"GCC: (Linaro GCC 4.6-2011.10) 4.6.2 20111004 (prerelease)"
ARM GAS  /var/folders/5n/p_75w94d66l9ssrldxqdhh700000gn/T//cc9oN6XQ.s 			page 82


DEFINED SYMBOLS
                            *ABS*:0000000000000000 tcpip.c
/var/folders/5n/p_75w94d66l9ssrldxqdhh700000gn/T//cc9oN6XQ.s:18     .text.pbuf_free_int:0000000000000000 $t
/var/folders/5n/p_75w94d66l9ssrldxqdhh700000gn/T//cc9oN6XQ.s:23     .text.pbuf_free_int:0000000000000000 pbuf_free_int
/var/folders/5n/p_75w94d66l9ssrldxqdhh700000gn/T//cc9oN6XQ.s:40     .text.tcpip_thread:0000000000000000 $t
/var/folders/5n/p_75w94d66l9ssrldxqdhh700000gn/T//cc9oN6XQ.s:45     .text.tcpip_thread:0000000000000000 tcpip_thread
/var/folders/5n/p_75w94d66l9ssrldxqdhh700000gn/T//cc9oN6XQ.s:86     .text.tcpip_thread:0000000000000026 $d
/var/folders/5n/p_75w94d66l9ssrldxqdhh700000gn/T//cc9oN6XQ.s:166    .text.tcpip_thread:0000000000000098 $d
/var/folders/5n/p_75w94d66l9ssrldxqdhh700000gn/T//cc9oN6XQ.s:173    .text.tcpip_input:0000000000000000 $t
/var/folders/5n/p_75w94d66l9ssrldxqdhh700000gn/T//cc9oN6XQ.s:179    .text.tcpip_input:0000000000000000 tcpip_input
/var/folders/5n/p_75w94d66l9ssrldxqdhh700000gn/T//cc9oN6XQ.s:248    .text.tcpip_input:0000000000000040 $d
/var/folders/5n/p_75w94d66l9ssrldxqdhh700000gn/T//cc9oN6XQ.s:253    .text.tcpip_callback_with_block:0000000000000000 $t
/var/folders/5n/p_75w94d66l9ssrldxqdhh700000gn/T//cc9oN6XQ.s:259    .text.tcpip_callback_with_block:0000000000000000 tcpip_callback_with_block
/var/folders/5n/p_75w94d66l9ssrldxqdhh700000gn/T//cc9oN6XQ.s:345    .text.tcpip_callback_with_block:0000000000000050 $d
/var/folders/5n/p_75w94d66l9ssrldxqdhh700000gn/T//cc9oN6XQ.s:350    .text.tcpip_timeout:0000000000000000 $t
/var/folders/5n/p_75w94d66l9ssrldxqdhh700000gn/T//cc9oN6XQ.s:356    .text.tcpip_timeout:0000000000000000 tcpip_timeout
/var/folders/5n/p_75w94d66l9ssrldxqdhh700000gn/T//cc9oN6XQ.s:421    .text.tcpip_timeout:0000000000000038 $d
/var/folders/5n/p_75w94d66l9ssrldxqdhh700000gn/T//cc9oN6XQ.s:426    .text.tcpip_untimeout:0000000000000000 $t
/var/folders/5n/p_75w94d66l9ssrldxqdhh700000gn/T//cc9oN6XQ.s:432    .text.tcpip_untimeout:0000000000000000 tcpip_untimeout
/var/folders/5n/p_75w94d66l9ssrldxqdhh700000gn/T//cc9oN6XQ.s:495    .text.tcpip_untimeout:0000000000000034 $d
/var/folders/5n/p_75w94d66l9ssrldxqdhh700000gn/T//cc9oN6XQ.s:500    .text.tcpip_apimsg:0000000000000000 $t
/var/folders/5n/p_75w94d66l9ssrldxqdhh700000gn/T//cc9oN6XQ.s:506    .text.tcpip_apimsg:0000000000000000 tcpip_apimsg
/var/folders/5n/p_75w94d66l9ssrldxqdhh700000gn/T//cc9oN6XQ.s:559    .text.tcpip_apimsg:0000000000000034 $d
/var/folders/5n/p_75w94d66l9ssrldxqdhh700000gn/T//cc9oN6XQ.s:564    .text.tcpip_init:0000000000000000 $t
/var/folders/5n/p_75w94d66l9ssrldxqdhh700000gn/T//cc9oN6XQ.s:570    .text.tcpip_init:0000000000000000 tcpip_init
/var/folders/5n/p_75w94d66l9ssrldxqdhh700000gn/T//cc9oN6XQ.s:624    .text.tcpip_init:0000000000000038 $d
/var/folders/5n/p_75w94d66l9ssrldxqdhh700000gn/T//cc9oN6XQ.s:633    .text.pbuf_free_callback:0000000000000000 $t
/var/folders/5n/p_75w94d66l9ssrldxqdhh700000gn/T//cc9oN6XQ.s:639    .text.pbuf_free_callback:0000000000000000 pbuf_free_callback
/var/folders/5n/p_75w94d66l9ssrldxqdhh700000gn/T//cc9oN6XQ.s:662    .text.mem_free_callback:0000000000000000 $t
/var/folders/5n/p_75w94d66l9ssrldxqdhh700000gn/T//cc9oN6XQ.s:668    .text.mem_free_callback:0000000000000000 mem_free_callback
/var/folders/5n/p_75w94d66l9ssrldxqdhh700000gn/T//cc9oN6XQ.s:691    .rodata.str1.4:0000000000000000 $d
/var/folders/5n/p_75w94d66l9ssrldxqdhh700000gn/T//cc9oN6XQ.s:695    .bss.mbox:0000000000000000 $d
/var/folders/5n/p_75w94d66l9ssrldxqdhh700000gn/T//cc9oN6XQ.s:699    .bss.mbox:0000000000000000 mbox
/var/folders/5n/p_75w94d66l9ssrldxqdhh700000gn/T//cc9oN6XQ.s:702    .bss.tcpip_init_done_arg:0000000000000000 $d
/var/folders/5n/p_75w94d66l9ssrldxqdhh700000gn/T//cc9oN6XQ.s:706    .bss.tcpip_init_done_arg:0000000000000000 tcpip_init_done_arg
/var/folders/5n/p_75w94d66l9ssrldxqdhh700000gn/T//cc9oN6XQ.s:709    .bss.tcpip_init_done:0000000000000000 $d
/var/folders/5n/p_75w94d66l9ssrldxqdhh700000gn/T//cc9oN6XQ.s:713    .bss.tcpip_init_done:0000000000000000 tcpip_init_done
                     .debug_frame:0000000000000010 $d
/var/folders/5n/p_75w94d66l9ssrldxqdhh700000gn/T//cc9oN6XQ.s:172    .text.tcpip_thread:00000000000000a4 $t
/var/folders/5n/p_75w94d66l9ssrldxqdhh700000gn/T//cc9oN6XQ.s:252    .text.tcpip_input:0000000000000044 $t
/var/folders/5n/p_75w94d66l9ssrldxqdhh700000gn/T//cc9oN6XQ.s:349    .text.tcpip_callback_with_block:0000000000000054 $t
/var/folders/5n/p_75w94d66l9ssrldxqdhh700000gn/T//cc9oN6XQ.s:425    .text.tcpip_timeout:000000000000003c $t
/var/folders/5n/p_75w94d66l9ssrldxqdhh700000gn/T//cc9oN6XQ.s:499    .text.tcpip_untimeout:0000000000000038 $t
/var/folders/5n/p_75w94d66l9ssrldxqdhh700000gn/T//cc9oN6XQ.s:563    .text.tcpip_apimsg:0000000000000038 $t
/var/folders/5n/p_75w94d66l9ssrldxqdhh700000gn/T//cc9oN6XQ.s:632    .text.tcpip_init:000000000000004c $t
/var/folders/5n/p_75w94d66l9ssrldxqdhh700000gn/T//cc9oN6XQ.s:91     .text.tcpip_thread:000000000000002b $d
/var/folders/5n/p_75w94d66l9ssrldxqdhh700000gn/T//cc9oN6XQ.s:91     .text.tcpip_thread:000000000000002c $t

UNDEFINED SYMBOLS
pbuf_free
sys_timeouts_mbox_fetch
memp_free
sys_untimeout
sys_timeout
ethernet_input
port_halt
ip_input
ARM GAS  /var/folders/5n/p_75w94d66l9ssrldxqdhh700000gn/T//cc9oN6XQ.s 			page 83


sys_mbox_valid
memp_malloc
sys_mbox_trypost
sys_mbox_post
sys_arch_sem_wait
lwip_init
sys_mbox_new
sys_thread_new
mem_free
