ARM GAS  /var/folders/5n/p_75w94d66l9ssrldxqdhh700000gn/T//ccu8yyBP.s 			page 1


   1              		.syntax unified
   2              		.cpu cortex-m4
   3              		.fpu softvfp
   4              		.eabi_attribute 20, 1
   5              		.eabi_attribute 21, 1
   6              		.eabi_attribute 23, 3
   7              		.eabi_attribute 24, 1
   8              		.eabi_attribute 25, 1
   9              		.eabi_attribute 26, 1
  10              		.eabi_attribute 30, 2
  11              		.eabi_attribute 18, 4
  12              		.thumb
  13              		.file	"testdyn.c"
  14              		.text
  15              	.Ltext0:
  16              		.cfi_sections	.debug_frame
  17              		.section	.text.regfind,"ax",%progbits
  18              		.align	2
  19              		.p2align 4,,15
  20              		.thumb
  21              		.thumb_func
  22              		.type	regfind, %function
  23              	regfind:
  24              	.LFB12:
  25              		.file 1 "../../test/testdyn.c"
  26              		.loc 1 195 0
  27              		.cfi_startproc
  28              		@ args = 0, pretend = 0, frame = 0
  29              		@ frame_needed = 0, uses_anonymous_args = 0
  30              	.LVL0:
  31 0000 38B5     		push	{r3, r4, r5, lr}
  32              	.LCFI0:
  33              		.cfi_def_cfa_offset 16
  34              		.cfi_offset 14, -4
  35              		.cfi_offset 5, -8
  36              		.cfi_offset 4, -12
  37              		.cfi_offset 3, -16
  38              		.loc 1 195 0
  39 0002 0546     		mov	r5, r0
  40              		.loc 1 199 0
  41 0004 FFF7FEFF 		bl	chRegFirstThread
  42              	.LVL1:
  43              		.loc 1 197 0
  44 0008 0024     		movs	r4, #0
  45              		.loc 1 199 0
  46 000a 0346     		mov	r3, r0
  47              	.LVL2:
  48              	.L2:
  49              		.loc 1 202 0 discriminator 1
  50 000c 1846     		mov	r0, r3
  51              	.LVL3:
  52              		.loc 1 201 0 discriminator 1
  53 000e AB42     		cmp	r3, r5
  54 0010 08BF     		it	eq
  55 0012 44F00104 		orreq	r4, r4, #1
  56              	.LVL4:
  57              		.loc 1 202 0 discriminator 1
ARM GAS  /var/folders/5n/p_75w94d66l9ssrldxqdhh700000gn/T//ccu8yyBP.s 			page 2


  58 0016 FFF7FEFF 		bl	chRegNextThread
  59              	.LVL5:
  60              		.loc 1 203 0 discriminator 1
  61 001a 0346     		mov	r3, r0
  62 001c 0028     		cmp	r0, #0
  63 001e F5D1     		bne	.L2
  64              		.loc 1 205 0
  65 0020 2046     		mov	r0, r4
  66              	.LVL6:
  67 0022 38BD     		pop	{r3, r4, r5, pc}
  68              		.cfi_endproc
  69              	.LFE12:
  70              		.size	regfind, .-regfind
  71 0024 AFF30080 		.section	.text.dyn3_execute,"ax",%progbits
  71      AFF30080 
  71      AFF30080 
  72              		.align	2
  73              		.p2align 4,,15
  74              		.thumb
  75              		.thumb_func
  76              		.type	dyn3_execute, %function
  77              	dyn3_execute:
  78              	.LFB14:
  79              		.loc 1 212 0
  80              		.cfi_startproc
  81              		@ args = 0, pretend = 0, frame = 0
  82              		@ frame_needed = 0, uses_anonymous_args = 0
  83              	.LVL7:
  84 0000 10B5     		push	{r4, lr}
  85              	.LCFI1:
  86              		.cfi_def_cfa_offset 8
  87              		.cfi_offset 14, -4
  88              		.cfi_offset 4, -8
  89              		.loc 1 214 0
  90 0002 4B4B     		ldr	r3, .L8
  91              		.loc 1 217 0
  92 0004 4B49     		ldr	r1, .L8+4
  93              		.loc 1 214 0
  94 0006 9B69     		ldr	r3, [r3, #24]
  95              		.loc 1 217 0
  96 0008 4B48     		ldr	r0, .L8+8
  97 000a 9A68     		ldr	r2, [r3, #8]
  98 000c 4B4B     		ldr	r3, .L8+12
  99              		.loc 1 212 0
 100 000e 82B0     		sub	sp, sp, #8
 101              	.LCFI2:
 102              		.cfi_def_cfa_offset 16
 103              		.loc 1 217 0
 104 0010 013A     		subs	r2, r2, #1
 105 0012 0091     		str	r1, [sp, #0]
 106 0014 4FF49871 		mov	r1, #304
 107 0018 FFF7FEFF 		bl	chThdCreateFromHeap
 108              	.LVL8:
 109 001c 0446     		mov	r4, r0
 110              	.LVL9:
 111              		.loc 1 218 0
 112 001e 0120     		movs	r0, #1
ARM GAS  /var/folders/5n/p_75w94d66l9ssrldxqdhh700000gn/T//ccu8yyBP.s 			page 3


 113              	.LVL10:
 114 0020 A17F     		ldrb	r1, [r4, #30]	@ zero_extendqisi2
 115 0022 C0EB010C 		rsb	ip, r0, r1
 116 0026 DCF10001 		rsbs	r1, ip, #0
 117 002a 41EB0C01 		adc	r1, r1, ip
 118 002e FFF7FEFF 		bl	_test_assert
 119 0032 08B1     		cbz	r0, .L7
 120              	.L5:
 121              		.loc 1 240 0
 122 0034 02B0     		add	sp, sp, #8
 123 0036 10BD     		pop	{r4, pc}
 124              	.L7:
 125              		.loc 1 219 0
 126 0038 2046     		mov	r0, r4
 127 003a FFF7FEFF 		bl	chThdAddRef
 128              		.loc 1 220 0
 129 003e A17F     		ldrb	r1, [r4, #30]	@ zero_extendqisi2
 130 0040 0220     		movs	r0, #2
 131 0042 C0EB010E 		rsb	lr, r0, r1
 132 0046 DEF10001 		rsbs	r1, lr, #0
 133 004a 41EB0E01 		adc	r1, r1, lr
 134 004e FFF7FEFF 		bl	_test_assert
 135 0052 0028     		cmp	r0, #0
 136 0054 EED1     		bne	.L5
 137              		.loc 1 221 0
 138 0056 2046     		mov	r0, r4
 139 0058 FFF7FEFF 		bl	chThdRelease
 140              		.loc 1 222 0
 141 005c A17F     		ldrb	r1, [r4, #30]	@ zero_extendqisi2
 142 005e A1F10102 		sub	r2, r1, #1
 143 0062 0320     		movs	r0, #3
 144 0064 5142     		rsbs	r1, r2, #0
 145 0066 41EB0201 		adc	r1, r1, r2
 146 006a FFF7FEFF 		bl	_test_assert
 147 006e 0028     		cmp	r0, #0
 148 0070 E0D1     		bne	.L5
 149              		.loc 1 225 0
 150 0072 2046     		mov	r0, r4
 151 0074 FFF7FEFF 		bl	regfind
 152 0078 0146     		mov	r1, r0
 153 007a 0420     		movs	r0, #4
 154 007c FFF7FEFF 		bl	_test_assert
 155 0080 0028     		cmp	r0, #0
 156 0082 D7D1     		bne	.L5
 157              		.loc 1 226 0
 158 0084 2046     		mov	r0, r4
 159 0086 FFF7FEFF 		bl	regfind
 160 008a 0146     		mov	r1, r0
 161 008c 0520     		movs	r0, #5
 162 008e FFF7FEFF 		bl	_test_assert
 163 0092 0028     		cmp	r0, #0
 164 0094 CED1     		bne	.L5
 165              		.loc 1 229 0
 166 0096 2046     		mov	r0, r4
 167 0098 FFF7FEFF 		bl	chThdRelease
 168              		.loc 1 230 0
 169 009c A17F     		ldrb	r1, [r4, #30]	@ zero_extendqisi2
ARM GAS  /var/folders/5n/p_75w94d66l9ssrldxqdhh700000gn/T//ccu8yyBP.s 			page 4


 170 009e 0620     		movs	r0, #6
 171 00a0 D1F10101 		rsbs	r1, r1, #1
 172 00a4 38BF     		it	cc
 173 00a6 0021     		movcc	r1, #0
 174 00a8 FFF7FEFF 		bl	_test_assert
 175 00ac 0028     		cmp	r0, #0
 176 00ae C1D1     		bne	.L5
 177              		.loc 1 231 0
 178 00b0 217F     		ldrb	r1, [r4, #28]	@ zero_extendqisi2
 179 00b2 0720     		movs	r0, #7
 180 00b4 D1F10101 		rsbs	r1, r1, #1
 181 00b8 38BF     		it	cc
 182 00ba 0021     		movcc	r1, #0
 183 00bc FFF7FEFF 		bl	_test_assert
 184 00c0 0028     		cmp	r0, #0
 185 00c2 B7D1     		bne	.L5
 186              		.loc 1 232 0
 187 00c4 2046     		mov	r0, r4
 188 00c6 FFF7FEFF 		bl	regfind
 189 00ca 0146     		mov	r1, r0
 190 00cc 0820     		movs	r0, #8
 191 00ce FFF7FEFF 		bl	_test_assert
 192 00d2 0028     		cmp	r0, #0
 193 00d4 AED1     		bne	.L5
 194              		.loc 1 233 0
 195 00d6 2046     		mov	r0, r4
 196 00d8 FFF7FEFF 		bl	regfind
 197 00dc 0146     		mov	r1, r0
 198 00de 0920     		movs	r0, #9
 199 00e0 FFF7FEFF 		bl	_test_assert
 200 00e4 0028     		cmp	r0, #0
 201 00e6 A5D1     		bne	.L5
 202              		.loc 1 234 0
 203 00e8 3220     		movs	r0, #50
 204 00ea FFF7FEFF 		bl	chThdSleep
 205              		.loc 1 235 0
 206 00ee 217F     		ldrb	r1, [r4, #28]	@ zero_extendqisi2
 207 00f0 A1F10E03 		sub	r3, r1, #14
 208 00f4 0A20     		movs	r0, #10
 209 00f6 5942     		rsbs	r1, r3, #0
 210 00f8 41EB0301 		adc	r1, r1, r3
 211 00fc FFF7FEFF 		bl	_test_assert
 212 0100 0028     		cmp	r0, #0
 213 0102 97D1     		bne	.L5
 214              		.loc 1 238 0
 215 0104 2046     		mov	r0, r4
 216 0106 FFF7FEFF 		bl	regfind
 217 010a 0146     		mov	r1, r0
 218 010c 0B20     		movs	r0, #11
 219 010e FFF7FEFF 		bl	_test_assert
 220 0112 0028     		cmp	r0, #0
 221 0114 8ED1     		bne	.L5
 222              		.loc 1 239 0
 223 0116 2046     		mov	r0, r4
 224 0118 FFF7FEFF 		bl	regfind
 225 011c D0F10101 		rsbs	r1, r0, #1
 226 0120 38BF     		it	cc
ARM GAS  /var/folders/5n/p_75w94d66l9ssrldxqdhh700000gn/T//ccu8yyBP.s 			page 5


 227 0122 0021     		movcc	r1, #0
 228 0124 0C20     		movs	r0, #12
 229              		.loc 1 240 0
 230 0126 02B0     		add	sp, sp, #8
 231 0128 BDE81040 		pop	{r4, lr}
 232              		.loc 1 239 0
 233 012c FFF7FEBF 		b	_test_assert
 234              	.L9:
 235              		.align	2
 236              	.L8:
 237 0130 00000000 		.word	rlist
 238 0134 00000000 		.word	.LC0
 239 0138 00000000 		.word	.LANCHOR0
 240 013c 00000000 		.word	thread
 241              		.cfi_endproc
 242              	.LFE14:
 243              		.size	dyn3_execute, .-dyn3_execute
 244              		.section	.text.thread,"ax",%progbits
 245              		.align	2
 246              		.p2align 4,,15
 247              		.thumb
 248              		.thumb_func
 249              		.type	thread, %function
 250              	thread:
 251              	.LFB7:
 252              		.loc 1 75 0
 253              		.cfi_startproc
 254              		@ args = 0, pretend = 0, frame = 0
 255              		@ frame_needed = 0, uses_anonymous_args = 0
 256              	.LVL11:
 257 0000 08B5     		push	{r3, lr}
 258              	.LCFI3:
 259              		.cfi_def_cfa_offset 8
 260              		.cfi_offset 14, -4
 261              		.cfi_offset 3, -8
 262              		.loc 1 77 0
 263 0002 0078     		ldrb	r0, [r0, #0]	@ zero_extendqisi2
 264              	.LVL12:
 265 0004 FFF7FEFF 		bl	test_emit_token
 266              		.loc 1 79 0
 267 0008 0020     		movs	r0, #0
 268 000a 08BD     		pop	{r3, pc}
 269              		.cfi_endproc
 270              	.LFE7:
 271              		.size	thread, .-thread
 272 000c AFF30080 		.section	.text.dyn3_setup,"ax",%progbits
 273              		.align	2
 274              		.p2align 4,,15
 275              		.thumb
 276              		.thumb_func
 277              		.type	dyn3_setup, %function
 278              	dyn3_setup:
 279              	.LFB13:
 280              		.loc 1 207 0
 281              		.cfi_startproc
 282              		@ args = 0, pretend = 0, frame = 0
 283              		@ frame_needed = 0, uses_anonymous_args = 0
ARM GAS  /var/folders/5n/p_75w94d66l9ssrldxqdhh700000gn/T//ccu8yyBP.s 			page 6


 284              		@ link register save eliminated.
 285              		.loc 1 209 0
 286 0000 40F20000 		movw	r0, #:lower16:.LANCHOR0
 287 0004 40F20001 		movw	r1, #:lower16:test
 288 0008 C0F20000 		movt	r0, #:upper16:.LANCHOR0
 289 000c C0F20001 		movt	r1, #:upper16:test
 290 0010 4FF4BE62 		mov	r2, #1520
 291              		.loc 1 210 0
 292              		.loc 1 209 0
 293 0014 FFF7FEBF 		b	chHeapInit
 294              		.cfi_endproc
 295              	.LFE13:
 296              		.size	dyn3_setup, .-dyn3_setup
 297 0018 AFF30080 		.section	.text.dyn1_setup,"ax",%progbits
 297      AFF30080 
 298              		.align	2
 299              		.p2align 4,,15
 300              		.thumb
 301              		.thumb_func
 302              		.type	dyn1_setup, %function
 303              	dyn1_setup:
 304              	.LFB8:
 305              		.loc 1 82 0
 306              		.cfi_startproc
 307              		@ args = 0, pretend = 0, frame = 0
 308              		@ frame_needed = 0, uses_anonymous_args = 0
 309              		@ link register save eliminated.
 310              		.loc 1 84 0
 311 0000 40F20000 		movw	r0, #:lower16:.LANCHOR0
 312 0004 40F20001 		movw	r1, #:lower16:test
 313 0008 C0F20000 		movt	r0, #:upper16:.LANCHOR0
 314 000c C0F20001 		movt	r1, #:upper16:test
 315 0010 4FF4BE62 		mov	r2, #1520
 316              		.loc 1 85 0
 317              		.loc 1 84 0
 318 0014 FFF7FEBF 		b	chHeapInit
 319              		.cfi_endproc
 320              	.LFE8:
 321              		.size	dyn1_setup, .-dyn1_setup
 322 0018 AFF30080 		.section	.text.dyn2_execute,"ax",%progbits
 322      AFF30080 
 323              		.align	2
 324              		.p2align 4,,15
 325              		.thumb
 326              		.thumb_func
 327              		.type	dyn2_execute, %function
 328              	dyn2_execute:
 329              	.LFB11:
 330              		.loc 1 145 0
 331              		.cfi_startproc
 332              		@ args = 0, pretend = 0, frame = 0
 333              		@ frame_needed = 0, uses_anonymous_args = 0
 334              		.loc 1 147 0
 335 0000 324B     		ldr	r3, .L25
 336 0002 9B69     		ldr	r3, [r3, #24]
 337              		.loc 1 145 0
 338 0004 70B5     		push	{r4, r5, r6, lr}
ARM GAS  /var/folders/5n/p_75w94d66l9ssrldxqdhh700000gn/T//ccu8yyBP.s 			page 7


 339              	.LCFI4:
 340              		.cfi_def_cfa_offset 16
 341              		.cfi_offset 14, -4
 342              		.cfi_offset 6, -8
 343              		.cfi_offset 5, -12
 344              		.cfi_offset 4, -16
 345              		.loc 1 147 0
 346 0006 324C     		ldr	r4, .L25+4
 347 0008 9D68     		ldr	r5, [r3, #8]
 348              	.LVL13:
 349              		.loc 1 145 0
 350 000a 04F11006 		add	r6, r4, #16
 351              	.LVL14:
 352              	.L14:
 353              		.loc 1 151 0 discriminator 2
 354 000e 54F8041B 		ldr	r1, [r4], #4
 355 0012 3048     		ldr	r0, .L25+8
 356 0014 FFF7FEFF 		bl	chPoolFree
 357              		.loc 1 150 0 discriminator 2
 358 0018 B442     		cmp	r4, r6
 359 001a F8D1     		bne	.L14
 360              		.loc 1 154 0
 361 001c 691E     		subs	r1, r5, #1
 362 001e 2E4A     		ldr	r2, .L25+12
 363 0020 2E4B     		ldr	r3, .L25+16
 364 0022 2C48     		ldr	r0, .L25+8
 365 0024 2E4C     		ldr	r4, .L25+20
 366 0026 FFF7FEFF 		bl	chThdCreateFromMemoryPool
 367              		.loc 1 155 0
 368 002a A91E     		subs	r1, r5, #2
 369              		.loc 1 154 0
 370 002c 2060     		str	r0, [r4, #0]
 371              		.loc 1 155 0
 372 002e 2A4A     		ldr	r2, .L25+12
 373 0030 2C4B     		ldr	r3, .L25+24
 374 0032 2848     		ldr	r0, .L25+8
 375 0034 FFF7FEFF 		bl	chThdCreateFromMemoryPool
 376              		.loc 1 156 0
 377 0038 E91E     		subs	r1, r5, #3
 378              		.loc 1 155 0
 379 003a 6060     		str	r0, [r4, #4]
 380              		.loc 1 156 0
 381 003c 264A     		ldr	r2, .L25+12
 382 003e 2A4B     		ldr	r3, .L25+28
 383 0040 2448     		ldr	r0, .L25+8
 384 0042 FFF7FEFF 		bl	chThdCreateFromMemoryPool
 385              		.loc 1 157 0
 386 0046 291F     		subs	r1, r5, #4
 387              		.loc 1 156 0
 388 0048 A060     		str	r0, [r4, #8]
 389              		.loc 1 157 0
 390 004a 234A     		ldr	r2, .L25+12
 391 004c 274B     		ldr	r3, .L25+32
 392 004e 2148     		ldr	r0, .L25+8
 393 0050 FFF7FEFF 		bl	chThdCreateFromMemoryPool
 394              		.loc 1 158 0
 395 0054 691F     		subs	r1, r5, #5
ARM GAS  /var/folders/5n/p_75w94d66l9ssrldxqdhh700000gn/T//ccu8yyBP.s 			page 8


 396              		.loc 1 157 0
 397 0056 E060     		str	r0, [r4, #12]
 398              		.loc 1 158 0
 399 0058 1F4A     		ldr	r2, .L25+12
 400 005a 1E48     		ldr	r0, .L25+8
 401 005c 244B     		ldr	r3, .L25+36
 402 005e FFF7FEFF 		bl	chThdCreateFromMemoryPool
 403              		.loc 1 160 0
 404 0062 2168     		ldr	r1, [r4, #0]
 405              		.loc 1 158 0
 406 0064 2061     		str	r0, [r4, #16]
 407              		.loc 1 160 0
 408 0066 49B1     		cbz	r1, .L15
 409              		.loc 1 160 0 is_stmt 0 discriminator 1
 410 0068 6168     		ldr	r1, [r4, #4]
 411 006a 39B1     		cbz	r1, .L15
 412              		.loc 1 160 0 discriminator 3
 413 006c A168     		ldr	r1, [r4, #8]
 414 006e 29B1     		cbz	r1, .L15
 415              		.loc 1 160 0 discriminator 4
 416 0070 E168     		ldr	r1, [r4, #12]
 417 0072 19B1     		cbz	r1, .L15
 418              		.loc 1 145 0 is_stmt 1 discriminator 5
 419 0074 D0F10101 		rsbs	r1, r0, #1
 420 0078 38BF     		it	cc
 421 007a 0021     		movcc	r1, #0
 422              	.L15:
 423              		.loc 1 160 0 discriminator 7
 424 007c 0120     		movs	r0, #1
 425 007e FFF7FEFF 		bl	_test_assert
 426 0082 00B1     		cbz	r0, .L24
 427              	.L13:
 428 0084 70BD     		pop	{r4, r5, r6, pc}
 429              	.L24:
 430              		.loc 1 168 0
 431 0086 FFF7FEFF 		bl	test_wait_threads
 432              		.loc 1 169 0
 433 008a 0220     		movs	r0, #2
 434 008c 1949     		ldr	r1, .L25+40
 435 008e FFF7FEFF 		bl	_test_assert_sequence
 436 0092 0028     		cmp	r0, #0
 437 0094 F6D1     		bne	.L13
 438 0096 0424     		movs	r4, #4
 439              	.L17:
 440              		.loc 1 173 0
 441 0098 0E48     		ldr	r0, .L25+8
 442 009a FFF7FEFF 		bl	chPoolAlloc
 443 009e 011C     		adds	r1, r0, #0
 444 00a0 18BF     		it	ne
 445 00a2 0121     		movne	r1, #1
 446 00a4 0320     		movs	r0, #3
 447 00a6 FFF7FEFF 		bl	_test_assert
 448 00aa 0028     		cmp	r0, #0
 449 00ac EAD1     		bne	.L13
 450              		.loc 1 172 0
 451 00ae 013C     		subs	r4, r4, #1
 452 00b0 F2D1     		bne	.L17
ARM GAS  /var/folders/5n/p_75w94d66l9ssrldxqdhh700000gn/T//ccu8yyBP.s 			page 9


 453              		.loc 1 174 0
 454 00b2 0848     		ldr	r0, .L25+8
 455 00b4 FFF7FEFF 		bl	chPoolAlloc
 456 00b8 D0F10101 		rsbs	r1, r0, #1
 457 00bc 38BF     		it	cc
 458 00be 0021     		movcc	r1, #0
 459 00c0 0420     		movs	r0, #4
 460              		.loc 1 175 0
 461 00c2 BDE87040 		pop	{r4, r5, r6, lr}
 462              		.loc 1 174 0
 463 00c6 FFF7FEBF 		b	_test_assert
 464              	.L26:
 465 00ca 00BF     		.align	2
 466              	.L25:
 467 00cc 00000000 		.word	rlist
 468 00d0 00000000 		.word	wa
 469 00d4 00000000 		.word	.LANCHOR1
 470 00d8 00000000 		.word	thread
 471 00dc 00000000 		.word	.LC0
 472 00e0 00000000 		.word	threads
 473 00e4 04000000 		.word	.LC1
 474 00e8 08000000 		.word	.LC2
 475 00ec 0C000000 		.word	.LC3
 476 00f0 10000000 		.word	.LC4
 477 00f4 14000000 		.word	.LC5
 478              		.cfi_endproc
 479              	.LFE11:
 480              		.size	dyn2_execute, .-dyn2_execute
 481 00f8 AFF30080 		.section	.text.dyn2_setup,"ax",%progbits
 481      AFF30080 
 482              		.align	2
 483              		.p2align 4,,15
 484              		.thumb
 485              		.thumb_func
 486              		.type	dyn2_setup, %function
 487              	dyn2_setup:
 488              	.LFB10:
 489              		.loc 1 140 0
 490              		.cfi_startproc
 491              		@ args = 0, pretend = 0, frame = 0
 492              		@ frame_needed = 0, uses_anonymous_args = 0
 493              		@ link register save eliminated.
 494              		.loc 1 142 0
 495 0000 40F20000 		movw	r0, #:lower16:.LANCHOR1
 496 0004 C0F20000 		movt	r0, #:upper16:.LANCHOR1
 497 0008 4FF49871 		mov	r1, #304
 498 000c 0022     		movs	r2, #0
 499              		.loc 1 143 0
 500              		.loc 1 142 0
 501 000e FFF7FEBF 		b	chPoolInit
 502              		.cfi_endproc
 503              	.LFE10:
 504              		.size	dyn2_setup, .-dyn2_setup
 505              		.section	.text.dyn1_execute,"ax",%progbits
 506              		.align	2
 507              		.p2align 4,,15
 508              		.thumb
ARM GAS  /var/folders/5n/p_75w94d66l9ssrldxqdhh700000gn/T//ccu8yyBP.s 			page 10


 509              		.thumb_func
 510              		.type	dyn1_execute, %function
 511              	dyn1_execute:
 512              	.LFB9:
 513              		.loc 1 87 0
 514              		.cfi_startproc
 515              		@ args = 0, pretend = 0, frame = 8
 516              		@ frame_needed = 0, uses_anonymous_args = 0
 517 0000 70B5     		push	{r4, r5, r6, lr}
 518              	.LCFI5:
 519              		.cfi_def_cfa_offset 16
 520              		.cfi_offset 14, -4
 521              		.cfi_offset 6, -8
 522              		.cfi_offset 5, -12
 523              		.cfi_offset 4, -16
 524              		.loc 1 90 0
 525 0002 354B     		ldr	r3, .L37
 526              		.loc 1 92 0
 527 0004 3548     		ldr	r0, .L37+4
 528              		.loc 1 90 0
 529 0006 9B69     		ldr	r3, [r3, #24]
 530              		.loc 1 94 0
 531 0008 354C     		ldr	r4, .L37+8
 532              		.loc 1 90 0
 533 000a 9D68     		ldr	r5, [r3, #8]
 534              	.LVL15:
 535              		.loc 1 96 0
 536 000c 354E     		ldr	r6, .L37+12
 537              		.loc 1 87 0
 538 000e 84B0     		sub	sp, sp, #16
 539              	.LCFI6:
 540              		.cfi_def_cfa_offset 32
 541              		.loc 1 92 0
 542 0010 03A9     		add	r1, sp, #12
 543 0012 FFF7FEFF 		bl	chHeapStatus
 544              	.LVL16:
 545              		.loc 1 94 0
 546 0016 344A     		ldr	r2, .L37+16
 547 0018 344B     		ldr	r3, .L37+20
 548 001a 0092     		str	r2, [sp, #0]
 549 001c 4FF49871 		mov	r1, #304
 550 0020 6A1E     		subs	r2, r5, #1
 551 0022 2E48     		ldr	r0, .L37+4
 552 0024 FFF7FEFF 		bl	chThdCreateFromHeap
 553              		.loc 1 96 0
 554 0028 304B     		ldr	r3, .L37+20
 555              		.loc 1 94 0
 556 002a 2060     		str	r0, [r4, #0]
 557              		.loc 1 96 0
 558 002c AA1E     		subs	r2, r5, #2
 559 002e 4FF49871 		mov	r1, #304
 560 0032 2A48     		ldr	r0, .L37+4
 561 0034 0096     		str	r6, [sp, #0]
 562 0036 FFF7FEFF 		bl	chThdCreateFromHeap
 563              		.loc 1 99 0
 564 003a 02A9     		add	r1, sp, #8
 565              		.loc 1 96 0
ARM GAS  /var/folders/5n/p_75w94d66l9ssrldxqdhh700000gn/T//ccu8yyBP.s 			page 11


 566 003c 6060     		str	r0, [r4, #4]
 567              		.loc 1 99 0
 568 003e 2748     		ldr	r0, .L37+4
 569 0040 FFF7FEFF 		bl	chHeapStatus
 570              	.LVL17:
 571              		.loc 1 100 0
 572 0044 0299     		ldr	r1, [sp, #8]
 573 0046 2548     		ldr	r0, .L37+4
 574 0048 FFF7FEFF 		bl	chHeapAlloc
 575              		.loc 1 101 0
 576 004c 284A     		ldr	r2, .L37+24
 577 004e 274B     		ldr	r3, .L37+20
 578 0050 0092     		str	r2, [sp, #0]
 579 0052 4FF49871 		mov	r1, #304
 580              		.loc 1 100 0
 581 0056 0646     		mov	r6, r0
 582              	.LVL18:
 583              		.loc 1 101 0
 584 0058 EA1E     		subs	r2, r5, #3
 585 005a 2048     		ldr	r0, .L37+4
 586              	.LVL19:
 587 005c FFF7FEFF 		bl	chThdCreateFromHeap
 588 0060 A060     		str	r0, [r4, #8]
 589              		.loc 1 103 0
 590 0062 3046     		mov	r0, r6
 591 0064 FFF7FEFF 		bl	chHeapFree
 592              		.loc 1 105 0
 593 0068 2168     		ldr	r1, [r4, #0]
 594 006a 29B1     		cbz	r1, .L29
 595              		.loc 1 105 0 is_stmt 0 discriminator 1
 596 006c 6168     		ldr	r1, [r4, #4]
 597 006e 19B1     		cbz	r1, .L29
 598              		.loc 1 105 0 discriminator 3
 599 0070 A168     		ldr	r1, [r4, #8]
 600 0072 0029     		cmp	r1, #0
 601 0074 26D0     		beq	.L35
 602              		.loc 1 105 0
 603 0076 0021     		movs	r1, #0
 604              	.L29:
 605              		.loc 1 105 0 discriminator 7
 606 0078 0120     		movs	r0, #1
 607 007a FFF7FEFF 		bl	_test_assert
 608 007e 08B1     		cbz	r0, .L36
 609              	.LVL20:
 610              	.L28:
 611              		.loc 1 119 0 is_stmt 1
 612 0080 04B0     		add	sp, sp, #16
 613 0082 70BD     		pop	{r4, r5, r6, pc}
 614              	.LVL21:
 615              	.L36:
 616              		.loc 1 113 0
 617 0084 FFF7FEFF 		bl	test_wait_threads
 618              		.loc 1 114 0
 619 0088 0220     		movs	r0, #2
 620 008a 1A49     		ldr	r1, .L37+28
 621 008c FFF7FEFF 		bl	_test_assert_sequence
 622 0090 0028     		cmp	r0, #0
ARM GAS  /var/folders/5n/p_75w94d66l9ssrldxqdhh700000gn/T//ccu8yyBP.s 			page 12


 623 0092 F5D1     		bne	.L28
 624              		.loc 1 117 0
 625 0094 02A9     		add	r1, sp, #8
 626 0096 1148     		ldr	r0, .L37+4
 627 0098 FFF7FEFF 		bl	chHeapStatus
 628 009c A0F10102 		sub	r2, r0, #1
 629 00a0 5142     		rsbs	r1, r2, #0
 630 00a2 41EB0201 		adc	r1, r1, r2
 631 00a6 0320     		movs	r0, #3
 632 00a8 FFF7FEFF 		bl	_test_assert
 633 00ac 0028     		cmp	r0, #0
 634 00ae E7D1     		bne	.L28
 635              		.loc 1 118 0
 636 00b0 0299     		ldr	r1, [sp, #8]
 637              	.LVL22:
 638 00b2 039B     		ldr	r3, [sp, #12]
 639 00b4 CB1A     		subs	r3, r1, r3
 640 00b6 0420     		movs	r0, #4
 641 00b8 5942     		rsbs	r1, r3, #0
 642 00ba 41EB0301 		adc	r1, r1, r3
 643 00be FFF7FEFF 		bl	_test_assert
 644 00c2 DDE7     		b	.L28
 645              	.LVL23:
 646              	.L35:
 647              		.loc 1 105 0 discriminator 4
 648 00c4 E368     		ldr	r3, [r4, #12]
 649 00c6 002B     		cmp	r3, #0
 650 00c8 D6D1     		bne	.L29
 651              		.loc 1 87 0 discriminator 5
 652 00ca 2169     		ldr	r1, [r4, #16]
 653 00cc D1F10101 		rsbs	r1, r1, #1
 654 00d0 38BF     		it	cc
 655 00d2 0021     		movcc	r1, #0
 656 00d4 D0E7     		b	.L29
 657              	.L38:
 658 00d6 00BF     		.align	2
 659              	.L37:
 660 00d8 00000000 		.word	rlist
 661 00dc 00000000 		.word	.LANCHOR0
 662 00e0 00000000 		.word	threads
 663 00e4 04000000 		.word	.LC1
 664 00e8 00000000 		.word	.LC0
 665 00ec 00000000 		.word	thread
 666 00f0 08000000 		.word	.LC2
 667 00f4 1C000000 		.word	.LC6
 668              		.cfi_endproc
 669              	.LFE9:
 670              		.size	dyn1_execute, .-dyn1_execute
 671              		.global	patterndyn
 672              		.global	testdyn3
 673              		.global	testdyn2
 674              		.global	testdyn1
 675 00f8 AFF30080 		.section	.rodata.testdyn1,"a",%progbits
 675      AFF30080 
 676              		.align	2
 677              		.type	testdyn1, %object
 678              		.size	testdyn1, 16
ARM GAS  /var/folders/5n/p_75w94d66l9ssrldxqdhh700000gn/T//ccu8yyBP.s 			page 13


 679              	testdyn1:
 680 0000 78000000 		.word	.LC9
 681 0004 00000000 		.word	dyn1_setup
 682 0008 00000000 		.word	0
 683 000c 00000000 		.word	dyn1_execute
 684              		.section	.rodata.testdyn2,"a",%progbits
 685              		.align	2
 686              		.type	testdyn2, %object
 687              		.size	testdyn2, 16
 688              	testdyn2:
 689 0000 48000000 		.word	.LC8
 690 0004 00000000 		.word	dyn2_setup
 691 0008 00000000 		.word	0
 692 000c 00000000 		.word	dyn2_execute
 693              		.section	.rodata.testdyn3,"a",%progbits
 694              		.align	2
 695              		.type	testdyn3, %object
 696              		.size	testdyn3, 16
 697              	testdyn3:
 698 0000 20000000 		.word	.LC7
 699 0004 00000000 		.word	dyn3_setup
 700 0008 00000000 		.word	0
 701 000c 00000000 		.word	dyn3_execute
 702              		.section	.bss.mp1,"aw",%nobits
 703              		.align	2
 704              		.set	.LANCHOR1,. + 0
 705              		.type	mp1, %object
 706              		.size	mp1, 12
 707              	mp1:
 708 0000 00000000 		.space	12
 708      00000000 
 708      00000000 
 709              		.section	.rodata.str1.4,"aMS",%progbits,1
 710              		.align	2
 711              	.LC0:
 712 0000 4100     		.ascii	"A\000"
 713 0002 0000     		.space	2
 714              	.LC1:
 715 0004 4200     		.ascii	"B\000"
 716 0006 0000     		.space	2
 717              	.LC2:
 718 0008 4300     		.ascii	"C\000"
 719 000a 0000     		.space	2
 720              	.LC3:
 721 000c 4400     		.ascii	"D\000"
 722 000e 0000     		.space	2
 723              	.LC4:
 724 0010 4500     		.ascii	"E\000"
 725 0012 0000     		.space	2
 726              	.LC5:
 727 0014 41424344 		.ascii	"ABCD\000"
 727      00
 728 0019 000000   		.space	3
 729              	.LC6:
 730 001c 414200   		.ascii	"AB\000"
 731 001f 00       		.space	1
 732              	.LC7:
ARM GAS  /var/folders/5n/p_75w94d66l9ssrldxqdhh700000gn/T//ccu8yyBP.s 			page 14


 733 0020 44796E61 		.ascii	"Dynamic APIs, registry and references\000"
 733      6D696320 
 733      41504973 
 733      2C207265 
 733      67697374 
 734 0046 0000     		.space	2
 735              	.LC8:
 736 0048 44796E61 		.ascii	"Dynamic APIs, threads creation from memory pool\000"
 736      6D696320 
 736      41504973 
 736      2C207468 
 736      72656164 
 737              	.LC9:
 738 0078 44796E61 		.ascii	"Dynamic APIs, threads creation from heap\000"
 738      6D696320 
 738      41504973 
 738      2C207468 
 738      72656164 
 739 00a1 000000   		.section	.rodata.patterndyn,"a",%progbits
 740              		.align	2
 741              		.type	patterndyn, %object
 742              		.size	patterndyn, 16
 743              	patterndyn:
 744 0000 00000000 		.word	testdyn1
 745 0004 00000000 		.word	testdyn2
 746 0008 00000000 		.word	testdyn3
 747 000c 00000000 		.word	0
 748              		.section	.bss.heap1,"aw",%nobits
 749              		.align	3
 750              		.set	.LANCHOR0,. + 0
 751              		.type	heap1, %object
 752              		.size	heap1, 32
 753              	heap1:
 754 0000 00000000 		.space	32
 754      00000000 
 754      00000000 
 754      00000000 
 754      00000000 
 755              		.text
 756              	.Letext0:
 757              		.file 2 "/usr/local/summon/lib/gcc/arm-none-eabi/4.6.2/include/stddef.h"
 758              		.file 3 "/usr/local/summon/lib/gcc/arm-none-eabi/4.6.2/../../../../arm-none-eabi/include/stdint.h"
 759              		.file 4 "../../os/ports/GCC/ARMCMx/chtypes.h"
 760              		.file 5 "../../os/kernel/include/chlists.h"
 761              		.file 6 "../../os/kernel/include/chthreads.h"
 762              		.file 7 "../../os/ports/GCC/ARMCMx/chcore_v7m.h"
 763              		.file 8 "../../os/kernel/include/chschd.h"
 764              		.file 9 "../../os/kernel/include/chmtx.h"
 765              		.file 10 "../../os/kernel/include/chmemcore.h"
 766              		.file 11 "../../os/kernel/include/chheap.h"
 767              		.file 12 "../../os/kernel/include/chmempools.h"
 768              		.file 13 "../../test/test.h"